ARM GAS  /var/folders/l5/0x54b2c10074c8bt31ycjvl80000gp/T//ccu784hR.s 			page 1


   1              		.cpu arm1176jz-s
   2              		.eabi_attribute 20, 1
   3              		.eabi_attribute 21, 1
   4              		.eabi_attribute 23, 3
   5              		.eabi_attribute 24, 1
   6              		.eabi_attribute 25, 1
   7              		.eabi_attribute 26, 1
   8              		.eabi_attribute 30, 2
   9              		.eabi_attribute 34, 1
  10              		.eabi_attribute 18, 4
  11              		.file	"serial_lld.c"
  12              		.text
  13              	.Ltext0:
  14              		.cfi_sections	.debug_frame
  15              		.section	.text.output_notify,"ax",%progbits
  16              		.align	2
  17              		.arch armv6kz
  18              		.syntax unified
  19              		.arm
  20              		.fpu softvfp
  21              		.type	output_notify, %function
  22              	output_notify:
  23              	.LVL0:
  24              	.LFB7:
  25              		.file 1 "../../os/hal/platforms/BCM2835/serial_lld.c"
  26              		.loc 1 59 45 view -0
  27              		.cfi_startproc
  28              		@ args = 0, pretend = 0, frame = 0
  29              		@ frame_needed = 0, uses_anonymous_args = 0
  30              		@ link register save eliminated.
  31              		.loc 1 60 3 view .LVU1
  32              		.loc 1 62 3 view .LVU2
  33              		.loc 1 62 18 is_stmt 0 view .LVU3
  34 0000 0C209FE5 		ldr	r2, .L3
  35 0004 443092E5 		ldr	r3, [r2, #68]
  36 0008 023083E3 		orr	r3, r3, #2
  37 000c 443082E5 		str	r3, [r2, #68]
  38              		.loc 1 63 1 view .LVU4
  39 0010 1EFF2FE1 		bx	lr
  40              	.L4:
  41              		.align	2
  42              	.L3:
  43 0014 00502120 		.word	539054080
  44              		.cfi_endproc
  45              	.LFE7:
  46              		.size	output_notify, .-output_notify
  47              		.section	.text.sd_lld_serve_interrupt,"ax",%progbits
  48              		.align	2
  49              		.global	sd_lld_serve_interrupt
  50              		.syntax unified
  51              		.arm
  52              		.fpu softvfp
  53              		.type	sd_lld_serve_interrupt, %function
  54              	sd_lld_serve_interrupt:
  55              	.LVL1:
  56              	.LFB8:
  57              		.loc 1 69 50 is_stmt 1 view -0
ARM GAS  /var/folders/l5/0x54b2c10074c8bt31ycjvl80000gp/T//ccu784hR.s 			page 2


  58              		.cfi_startproc
  59              		@ args = 0, pretend = 0, frame = 0
  60              		@ frame_needed = 0, uses_anonymous_args = 0
  61              		.loc 1 70 3 view .LVU6
  62              		.loc 1 70 7 is_stmt 0 view .LVU7
  63 0000 9C209FE5 		ldr	r2, .L22
  64              		.loc 1 69 50 view .LVU8
  65 0004 70402DE9 		push	{r4, r5, r6, lr}
  66              		.cfi_def_cfa_offset 16
  67              		.cfi_offset 4, -16
  68              		.cfi_offset 5, -12
  69              		.cfi_offset 6, -8
  70              		.cfi_offset 14, -4
  71              		.loc 1 70 7 view .LVU9
  72 0008 483092E5 		ldr	r3, [r2, #72]
  73              		.loc 1 69 50 view .LVU10
  74 000c 0050A0E1 		mov	r5, r0
  75              		.loc 1 70 7 view .LVU11
  76 0010 073003E2 		and	r3, r3, #7
  77              		.loc 1 70 6 view .LVU12
  78 0014 040053E3 		cmp	r3, #4
  79 0018 1100000A 		beq	.L7
  80              	.LVL2:
  81              	.L6:
  82              		.loc 1 76 5 is_stmt 1 view .LVU13
  83              		.loc 1 76 5 view .LVU14
  84              		.loc 1 76 25 view .LVU15
  85              		.loc 1 79 3 view .LVU16
  86              		.loc 1 79 7 is_stmt 0 view .LVU17
  87 001c 80409FE5 		ldr	r4, .L22
  88 0020 483094E5 		ldr	r3, [r4, #72]
  89 0024 073003E2 		and	r3, r3, #7
  90              		.loc 1 79 6 view .LVU18
  91 0028 020053E3 		cmp	r3, #2
  92 002c 7080BD18 		popne	{r4, r5, r6, pc}
  93              	.L10:
  94              	.LBB15:
  95              		.loc 1 81 30 is_stmt 1 discriminator 1 view .LVU19
  96              		.loc 1 81 12 is_stmt 0 discriminator 1 view .LVU20
  97 0030 543094E5 		ldr	r3, [r4, #84]
  98              		.loc 1 81 10 discriminator 1 view .LVU21
  99 0034 200013E3 		tst	r3, #32
 100 0038 FCFFFF0A 		beq	.L10
 101              		.loc 1 82 5 is_stmt 1 view .LVU22
 102              		.loc 1 82 18 is_stmt 0 view .LVU23
 103 003c 0500A0E1 		mov	r0, r5
 104 0040 FEFFFFEB 		bl	sdRequestDataI
 105              	.LVL3:
 106              		.loc 1 83 5 is_stmt 1 view .LVU24
 107              		.loc 1 83 8 is_stmt 0 view .LVU25
 108 0044 000050E3 		cmp	r0, #0
 109              		.loc 1 83 8 view .LVU26
 110 0048 110000BA 		blt	.L21
 111              		.loc 1 88 7 is_stmt 1 view .LVU27
 112              	.LVL4:
 113              	.LBB16:
 114              	.LBI16:
ARM GAS  /var/folders/l5/0x54b2c10074c8bt31ycjvl80000gp/T//ccu784hR.s 			page 3


 115              		.loc 1 172 6 view .LVU28
 116              	.LBB17:
 117              		.loc 1 174 3 view .LVU29
 118              		.loc 1 174 10 is_stmt 0 view .LVU30
 119 004c 50209FE5 		ldr	r2, .L22
 120              	.L12:
 121              		.loc 1 174 38 is_stmt 1 view .LVU31
 122              		.loc 1 174 10 is_stmt 0 view .LVU32
 123 0050 543092E5 		ldr	r3, [r2, #84]
 124              		.loc 1 174 8 view .LVU33
 125 0054 200013E3 		tst	r3, #32
 126 0058 FCFFFF0A 		beq	.L12
 127              		.loc 1 175 3 is_stmt 1 view .LVU34
 128              		.loc 1 175 17 is_stmt 0 view .LVU35
 129 005c 400082E5 		str	r0, [r2, #64]
 130              	.LBE17:
 131              	.LBE16:
 132              		.loc 1 90 5 is_stmt 1 view .LVU36
 133              		.loc 1 90 5 view .LVU37
 134              		.loc 1 90 25 view .LVU38
 135              	.LBE15:
 136              		.loc 1 92 1 is_stmt 0 view .LVU39
 137 0060 7080BDE8 		pop	{r4, r5, r6, pc}
 138              	.LVL5:
 139              	.L7:
 140              		.loc 1 72 30 is_stmt 1 discriminator 1 view .LVU40
 141              		.loc 1 72 12 is_stmt 0 discriminator 1 view .LVU41
 142 0064 543092E5 		ldr	r3, [r2, #84]
 143              		.loc 1 72 10 discriminator 1 view .LVU42
 144 0068 010013E3 		tst	r3, #1
 145 006c FCFFFF0A 		beq	.L7
 146              		.loc 1 74 28 view .LVU43
 147 0070 2C409FE5 		ldr	r4, .L22
 148              	.LVL6:
 149              	.L8:
 150              		.loc 1 73 5 is_stmt 1 discriminator 1 view .LVU44
 151              		.loc 1 74 7 discriminator 1 view .LVU45
 152              		.loc 1 74 28 is_stmt 0 discriminator 1 view .LVU46
 153 0074 401094E5 		ldr	r1, [r4, #64]
 154              		.loc 1 74 7 discriminator 1 view .LVU47
 155 0078 0500A0E1 		mov	r0, r5
 156 007c 7110EFE6 		uxtb	r1, r1
 157 0080 FEFFFFEB 		bl	sdIncomingDataI
 158              	.LVL7:
 159              		.loc 1 75 14 discriminator 1 view .LVU48
 160 0084 543094E5 		ldr	r3, [r4, #84]
 161              		.loc 1 75 5 discriminator 1 view .LVU49
 162 0088 010013E3 		tst	r3, #1
 163 008c F8FFFF1A 		bne	.L8
 164 0090 E1FFFFEA 		b	.L6
 165              	.LVL8:
 166              	.L21:
 167              	.LBB18:
 168              		.loc 1 85 7 is_stmt 1 view .LVU50
 169              		.loc 1 85 22 is_stmt 0 view .LVU51
 170 0094 443094E5 		ldr	r3, [r4, #68]
 171 0098 0230C3E3 		bic	r3, r3, #2
ARM GAS  /var/folders/l5/0x54b2c10074c8bt31ycjvl80000gp/T//ccu784hR.s 			page 4


 172 009c 443084E5 		str	r3, [r4, #68]
 173 00a0 7080BDE8 		pop	{r4, r5, r6, pc}
 174              	.L23:
 175              		.align	2
 176              	.L22:
 177 00a4 00502120 		.word	539054080
 178              	.LBE18:
 179              		.cfi_endproc
 180              	.LFE8:
 181              		.size	sd_lld_serve_interrupt, .-sd_lld_serve_interrupt
 182              		.section	.text.sd_lld_init,"ax",%progbits
 183              		.align	2
 184              		.global	sd_lld_init
 185              		.syntax unified
 186              		.arm
 187              		.fpu softvfp
 188              		.type	sd_lld_init, %function
 189              	sd_lld_init:
 190              	.LFB9:
 191              		.loc 1 103 24 is_stmt 1 view -0
 192              		.cfi_startproc
 193              		@ args = 0, pretend = 0, frame = 0
 194              		@ frame_needed = 0, uses_anonymous_args = 0
 195              		@ link register save eliminated.
 196              		.loc 1 104 3 view .LVU53
 197 0000 08209FE5 		ldr	r2, .L25
 198 0004 0010A0E3 		mov	r1, #0
 199 0008 04009FE5 		ldr	r0, .L25+4
 200 000c FEFFFFEA 		b	sdObjectInit
 201              	.LVL9:
 202              	.L26:
 203              		.align	2
 204              	.L25:
 205 0010 00000000 		.word	output_notify
 206 0014 00000000 		.word	SD1
 207              		.cfi_endproc
 208              	.LFE9:
 209              		.size	sd_lld_init, .-sd_lld_init
 210              		.global	__aeabi_uidiv
 211              		.section	.text.sd_lld_start,"ax",%progbits
 212              		.align	2
 213              		.global	sd_lld_start
 214              		.syntax unified
 215              		.arm
 216              		.fpu softvfp
 217              		.type	sd_lld_start, %function
 218              	sd_lld_start:
 219              	.LVL10:
 220              	.LFB10:
 221              		.loc 1 117 66 view -0
 222              		.cfi_startproc
 223              		@ args = 0, pretend = 0, frame = 0
 224              		@ frame_needed = 0, uses_anonymous_args = 0
 225              		.loc 1 118 3 view .LVU55
 226              		.loc 1 120 3 view .LVU56
 227              		.loc 1 117 66 is_stmt 0 view .LVU57
 228 0000 F0472DE9 		push	{r4, r5, r6, r7, r8, r9, r10, lr}
ARM GAS  /var/folders/l5/0x54b2c10074c8bt31ycjvl80000gp/T//ccu784hR.s 			page 5


 229              		.cfi_def_cfa_offset 32
 230              		.cfi_offset 4, -32
 231              		.cfi_offset 5, -28
 232              		.cfi_offset 6, -24
 233              		.cfi_offset 7, -20
 234              		.cfi_offset 8, -16
 235              		.cfi_offset 9, -12
 236              		.cfi_offset 10, -8
 237              		.cfi_offset 14, -4
 238              		.loc 1 127 19 view .LVU58
 239 0004 0050A0E3 		mov	r5, #0
 240              		.loc 1 121 12 view .LVU59
 241 0008 A0309FE5 		ldr	r3, .L30
 242 000c 050051E1 		cmp	r1, r5
 243 0010 0310A001 		moveq	r1, r3
 244              	.LVL11:
 245              		.loc 1 123 3 is_stmt 1 view .LVU60
 246              		.loc 1 131 19 is_stmt 0 view .LVU61
 247 0014 0520A0E3 		mov	r2, #5
 248              		.loc 1 132 19 view .LVU62
 249 0018 C630A0E3 		mov	r3, #198
 250              		.loc 1 129 19 view .LVU63
 251 001c 0390A0E3 		mov	r9, #3
 252              		.loc 1 123 16 view .LVU64
 253 0020 0282A0E3 		mov	r8, #536870912
 254              		.loc 1 125 15 view .LVU65
 255 0024 0100A0E3 		mov	r0, #1
 256              	.LVL12:
 257              		.loc 1 125 15 view .LVU66
 258 0028 84409FE5 		ldr	r4, .L30+4
 259              		.loc 1 123 16 view .LVU67
 260 002c 84709FE5 		ldr	r7, .L30+8
 261              		.loc 1 138 9 view .LVU68
 262 0030 84609FE5 		ldr	r6, .L30+12
 263              		.loc 1 123 16 view .LVU69
 264 0034 1C8287E5 		str	r8, [r7, #540]
 265              		.loc 1 125 3 is_stmt 1 view .LVU70
 266              		.loc 1 125 15 is_stmt 0 view .LVU71
 267 0038 040084E5 		str	r0, [r4, #4]
 268              		.loc 1 127 3 is_stmt 1 view .LVU72
 269              		.loc 1 127 19 is_stmt 0 view .LVU73
 270 003c 445084E5 		str	r5, [r4, #68]
 271              		.loc 1 128 3 is_stmt 1 view .LVU74
 272              		.loc 1 128 19 is_stmt 0 view .LVU75
 273 0040 605084E5 		str	r5, [r4, #96]
 274              		.loc 1 129 3 is_stmt 1 view .LVU76
 275              		.loc 1 129 19 is_stmt 0 view .LVU77
 276 0044 4C9084E5 		str	r9, [r4, #76]
 277              		.loc 1 130 3 is_stmt 1 view .LVU78
 278              		.loc 1 130 19 is_stmt 0 view .LVU79
 279 0048 505084E5 		str	r5, [r4, #80]
 280              		.loc 1 131 3 is_stmt 1 view .LVU80
 281              		.loc 1 131 19 is_stmt 0 view .LVU81
 282 004c 442084E5 		str	r2, [r4, #68]
 283              		.loc 1 132 3 is_stmt 1 view .LVU82
 284              		.loc 1 132 19 is_stmt 0 view .LVU83
 285 0050 483084E5 		str	r3, [r4, #72]
ARM GAS  /var/folders/l5/0x54b2c10074c8bt31ycjvl80000gp/T//ccu784hR.s 			page 6


 286              		.loc 1 133 3 is_stmt 1 view .LVU84
 287              		.loc 1 133 21 is_stmt 0 view .LVU85
 288 0054 001091E5 		ldr	r1, [r1]
 289              	.LVL13:
 290              		.loc 1 133 21 view .LVU86
 291 0058 60009FE5 		ldr	r0, .L30+16
 292 005c 1119A0E1 		lsl	r1, r1, r9
 293 0060 FEFFFFEB 		bl	__aeabi_uidiv
 294              	.LVL14:
 295              		.loc 1 133 21 view .LVU87
 296 0064 010040E2 		sub	r0, r0, #1
 297              		.loc 1 133 19 view .LVU88
 298 0068 680084E5 		str	r0, [r4, #104]
 299              		.loc 1 135 3 is_stmt 1 view .LVU89
 300 006c 0210A0E3 		mov	r1, #2
 301 0070 0E00A0E3 		mov	r0, #14
 302 0074 FEFFFFEB 		bl	bcm2835_gpio_fnsel
 303              	.LVL15:
 304              		.loc 1 136 3 view .LVU90
 305 0078 0210A0E3 		mov	r1, #2
 306 007c 0F00A0E3 		mov	r0, #15
 307 0080 FEFFFFEB 		bl	bcm2835_gpio_fnsel
 308              	.LVL16:
 309              		.loc 1 138 3 view .LVU91
 310              		.loc 1 139 3 is_stmt 0 view .LVU92
 311 0084 9600A0E3 		mov	r0, #150
 312              		.loc 1 138 9 view .LVU93
 313 0088 945086E5 		str	r5, [r6, #148]
 314              		.loc 1 139 3 is_stmt 1 view .LVU94
 315 008c FEFFFFEB 		bl	bcm2835_delay
 316              	.LVL17:
 317              		.loc 1 140 3 view .LVU95
 318              		.loc 1 140 13 is_stmt 0 view .LVU96
 319 0090 0339A0E3 		mov	r3, #49152
 320              		.loc 1 141 3 view .LVU97
 321 0094 9600A0E3 		mov	r0, #150
 322              		.loc 1 140 13 view .LVU98
 323 0098 983086E5 		str	r3, [r6, #152]
 324              		.loc 1 141 3 is_stmt 1 view .LVU99
 325 009c FEFFFFEB 		bl	bcm2835_delay
 326              	.LVL18:
 327              		.loc 1 142 3 view .LVU100
 328              		.loc 1 142 13 is_stmt 0 view .LVU101
 329 00a0 985086E5 		str	r5, [r6, #152]
 330              		.loc 1 144 3 is_stmt 1 view .LVU102
 331              		.loc 1 144 19 is_stmt 0 view .LVU103
 332 00a4 609084E5 		str	r9, [r4, #96]
 333              		.loc 1 146 3 is_stmt 1 view .LVU104
 334              		.loc 1 146 15 is_stmt 0 view .LVU105
 335 00a8 108287E5 		str	r8, [r7, #528]
 336              		.loc 1 147 1 view .LVU106
 337 00ac F087BDE8 		pop	{r4, r5, r6, r7, r8, r9, r10, pc}
 338              	.L31:
 339              		.align	2
 340              	.L30:
 341 00b0 00000000 		.word	.LANCHOR0
 342 00b4 00502120 		.word	539054080
ARM GAS  /var/folders/l5/0x54b2c10074c8bt31ycjvl80000gp/T//ccu784hR.s 			page 7


 343 00b8 00B00020 		.word	536915968
 344 00bc 00002020 		.word	538968064
 345 00c0 80B2E60E 		.word	250000000
 346              		.cfi_endproc
 347              	.LFE10:
 348              		.size	sd_lld_start, .-sd_lld_start
 349              		.section	.text.sd_lld_stop,"ax",%progbits
 350              		.align	2
 351              		.global	sd_lld_stop
 352              		.syntax unified
 353              		.arm
 354              		.fpu softvfp
 355              		.type	sd_lld_stop, %function
 356              	sd_lld_stop:
 357              	.LVL19:
 358              	.LFB11:
 359              		.loc 1 158 37 is_stmt 1 view -0
 360              		.cfi_startproc
 361              		@ args = 0, pretend = 0, frame = 0
 362              		@ frame_needed = 0, uses_anonymous_args = 0
 363              		.loc 1 159 3 view .LVU108
 364              		.loc 1 161 3 view .LVU109
 365              		.loc 1 161 16 is_stmt 0 view .LVU110
 366 0000 28209FE5 		ldr	r2, .L34
 367              		.loc 1 158 37 view .LVU111
 368 0004 10402DE9 		push	{r4, lr}
 369              		.cfi_def_cfa_offset 8
 370              		.cfi_offset 4, -8
 371              		.cfi_offset 14, -4
 372              		.loc 1 161 16 view .LVU112
 373 0008 1C3292E5 		ldr	r3, [r2, #540]
 374              		.loc 1 162 3 view .LVU113
 375 000c 0010A0E3 		mov	r1, #0
 376              		.loc 1 161 16 view .LVU114
 377 0010 023283E3 		orr	r3, r3, #536870912
 378              		.loc 1 162 3 view .LVU115
 379 0014 0E00A0E3 		mov	r0, #14
 380              	.LVL20:
 381              		.loc 1 161 16 view .LVU116
 382 0018 1C3282E5 		str	r3, [r2, #540]
 383              		.loc 1 162 3 is_stmt 1 view .LVU117
 384 001c FEFFFFEB 		bl	bcm2835_gpio_fnsel
 385              	.LVL21:
 386              		.loc 1 163 3 view .LVU118
 387              		.loc 1 164 1 is_stmt 0 view .LVU119
 388 0020 1040BDE8 		pop	{r4, lr}
 389              		.cfi_restore 14
 390              		.cfi_restore 4
 391              		.cfi_def_cfa_offset 0
 392              		.loc 1 163 3 view .LVU120
 393 0024 0010A0E3 		mov	r1, #0
 394 0028 0F00A0E3 		mov	r0, #15
 395 002c FEFFFFEA 		b	bcm2835_gpio_fnsel
 396              	.LVL22:
 397              	.L35:
 398              		.align	2
 399              	.L34:
ARM GAS  /var/folders/l5/0x54b2c10074c8bt31ycjvl80000gp/T//ccu784hR.s 			page 8


 400 0030 00B00020 		.word	536915968
 401              		.cfi_endproc
 402              	.LFE11:
 403              		.size	sd_lld_stop, .-sd_lld_stop
 404              		.section	.text.mini_uart_recv,"ax",%progbits
 405              		.align	2
 406              		.global	mini_uart_recv
 407              		.syntax unified
 408              		.arm
 409              		.fpu softvfp
 410              		.type	mini_uart_recv, %function
 411              	mini_uart_recv:
 412              	.LFB12:
 413              		.loc 1 167 1 is_stmt 1 view -0
 414              		.cfi_startproc
 415              		@ args = 0, pretend = 0, frame = 0
 416              		@ frame_needed = 0, uses_anonymous_args = 0
 417              		@ link register save eliminated.
 418              		.loc 1 168 3 view .LVU122
 419              		.loc 1 168 10 is_stmt 0 view .LVU123
 420 0000 14209FE5 		ldr	r2, .L40
 421              	.L37:
 422              		.loc 1 168 38 is_stmt 1 discriminator 1 view .LVU124
 423              		.loc 1 168 10 is_stmt 0 discriminator 1 view .LVU125
 424 0004 543092E5 		ldr	r3, [r2, #84]
 425              		.loc 1 168 8 discriminator 1 view .LVU126
 426 0008 010013E3 		tst	r3, #1
 427 000c FCFFFF0A 		beq	.L37
 428              		.loc 1 169 3 is_stmt 1 view .LVU127
 429              		.loc 1 169 24 is_stmt 0 view .LVU128
 430 0010 400092E5 		ldr	r0, [r2, #64]
 431              		.loc 1 170 1 view .LVU129
 432 0014 7000EFE6 		uxtb	r0, r0
 433 0018 1EFF2FE1 		bx	lr
 434              	.L41:
 435              		.align	2
 436              	.L40:
 437 001c 00502120 		.word	539054080
 438              		.cfi_endproc
 439              	.LFE12:
 440              		.size	mini_uart_recv, .-mini_uart_recv
 441              		.section	.text.mini_uart_send,"ax",%progbits
 442              		.align	2
 443              		.global	mini_uart_send
 444              		.syntax unified
 445              		.arm
 446              		.fpu softvfp
 447              		.type	mini_uart_send, %function
 448              	mini_uart_send:
 449              	.LVL23:
 450              	.LFB13:
 451              		.loc 1 173 1 is_stmt 1 view -0
 452              		.cfi_startproc
 453              		@ args = 0, pretend = 0, frame = 0
 454              		@ frame_needed = 0, uses_anonymous_args = 0
 455              		@ link register save eliminated.
 456              		.loc 1 174 3 view .LVU131
ARM GAS  /var/folders/l5/0x54b2c10074c8bt31ycjvl80000gp/T//ccu784hR.s 			page 9


 457              		.loc 1 174 10 is_stmt 0 view .LVU132
 458 0000 10209FE5 		ldr	r2, .L46
 459              	.L43:
 460              		.loc 1 174 38 is_stmt 1 discriminator 1 view .LVU133
 461              		.loc 1 174 10 is_stmt 0 discriminator 1 view .LVU134
 462 0004 543092E5 		ldr	r3, [r2, #84]
 463              		.loc 1 174 8 discriminator 1 view .LVU135
 464 0008 200013E3 		tst	r3, #32
 465 000c FCFFFF0A 		beq	.L43
 466              		.loc 1 175 3 is_stmt 1 view .LVU136
 467              		.loc 1 175 17 is_stmt 0 view .LVU137
 468 0010 400082E5 		str	r0, [r2, #64]
 469              		.loc 1 176 1 view .LVU138
 470 0014 1EFF2FE1 		bx	lr
 471              	.L47:
 472              		.align	2
 473              	.L46:
 474 0018 00502120 		.word	539054080
 475              		.cfi_endproc
 476              	.LFE13:
 477              		.size	mini_uart_send, .-mini_uart_send
 478              		.section	.text.mini_uart_sendstr,"ax",%progbits
 479              		.align	2
 480              		.global	mini_uart_sendstr
 481              		.syntax unified
 482              		.arm
 483              		.fpu softvfp
 484              		.type	mini_uart_sendstr, %function
 485              	mini_uart_sendstr:
 486              	.LVL24:
 487              	.LFB14:
 488              		.loc 1 179 1 is_stmt 1 view -0
 489              		.cfi_startproc
 490              		@ args = 0, pretend = 0, frame = 0
 491              		@ frame_needed = 0, uses_anonymous_args = 0
 492              		@ link register save eliminated.
 493              		.loc 1 180 3 view .LVU140
 494              		.loc 1 181 3 view .LVU141
 495              		.loc 1 181 12 is_stmt 0 view .LVU142
 496 0000 0110D0E4 		ldrb	r1, [r0], #1	@ zero_extendqisi2
 497              	.LVL25:
 498              		.loc 1 181 8 view .LVU143
 499 0004 000051E3 		cmp	r1, #0
 500 0008 1EFF2F01 		bxeq	lr
 501              	.LBB19:
 502              	.LBB20:
 503              		.loc 1 174 10 view .LVU144
 504 000c 1C209FE5 		ldr	r2, .L58
 505              	.LVL26:
 506              	.L50:
 507              		.loc 1 174 38 is_stmt 1 view .LVU145
 508              		.loc 1 174 10 is_stmt 0 view .LVU146
 509 0010 543092E5 		ldr	r3, [r2, #84]
 510              		.loc 1 174 8 view .LVU147
 511 0014 200013E3 		tst	r3, #32
 512 0018 FCFFFF0A 		beq	.L50
 513              		.loc 1 175 3 is_stmt 1 view .LVU148
ARM GAS  /var/folders/l5/0x54b2c10074c8bt31ycjvl80000gp/T//ccu784hR.s 			page 10


 514              		.loc 1 175 17 is_stmt 0 view .LVU149
 515 001c 401082E5 		str	r1, [r2, #64]
 516              	.LVL27:
 517              		.loc 1 175 17 view .LVU150
 518              	.LBE20:
 519              	.LBE19:
 520              		.loc 1 181 12 view .LVU151
 521 0020 0110D0E4 		ldrb	r1, [r0], #1	@ zero_extendqisi2
 522              	.LVL28:
 523              		.loc 1 181 8 view .LVU152
 524 0024 000051E3 		cmp	r1, #0
 525 0028 F8FFFF1A 		bne	.L50
 526 002c 1EFF2FE1 		bx	lr
 527              	.L59:
 528              		.align	2
 529              	.L58:
 530 0030 00502120 		.word	539054080
 531              		.cfi_endproc
 532              	.LFE14:
 533              		.size	mini_uart_sendstr, .-mini_uart_sendstr
 534              		.section	.text.mini_uart_sendhex,"ax",%progbits
 535              		.align	2
 536              		.global	mini_uart_sendhex
 537              		.syntax unified
 538              		.arm
 539              		.fpu softvfp
 540              		.type	mini_uart_sendhex, %function
 541              	mini_uart_sendhex:
 542              	.LVL29:
 543              	.LFB15:
 544              		.loc 1 185 1 is_stmt 1 view -0
 545              		.cfi_startproc
 546              		@ args = 0, pretend = 0, frame = 0
 547              		@ frame_needed = 0, uses_anonymous_args = 0
 548              		.loc 1 186 3 view .LVU154
 549              		.loc 1 187 3 view .LVU155
 550              		.loc 1 189 3 view .LVU156
 551              		.loc 1 185 1 is_stmt 0 view .LVU157
 552 0000 04E02DE5 		str	lr, [sp, #-4]!
 553              		.cfi_def_cfa_offset 4
 554              		.cfi_offset 14, -4
 555              		.loc 1 189 5 view .LVU158
 556 0004 20E0A0E3 		mov	lr, #32
 557              	.LBB21:
 558              	.LBB22:
 559              		.loc 1 174 10 view .LVU159
 560 0008 80209FE5 		ldr	r2, .L82
 561              	.LVL30:
 562              	.L64:
 563              		.loc 1 174 10 view .LVU160
 564              	.LBE22:
 565              	.LBE21:
 566              		.loc 1 190 3 is_stmt 1 view .LVU161
 567              		.loc 1 192 5 view .LVU162
 568              		.loc 1 192 7 is_stmt 0 view .LVU163
 569 000c 04E04EE2 		sub	lr, lr, #4
 570              	.LVL31:
ARM GAS  /var/folders/l5/0x54b2c10074c8bt31ycjvl80000gp/T//ccu784hR.s 			page 11


 571              		.loc 1 193 5 is_stmt 1 view .LVU164
 572              		.loc 1 193 10 is_stmt 0 view .LVU165
 573 0010 303EA0E1 		lsr	r3, r0, lr
 574              		.loc 1 193 7 view .LVU166
 575 0014 0F3003E2 		and	r3, r3, #15
 576              	.LVL32:
 577              		.loc 1 194 5 is_stmt 1 view .LVU167
 578              		.loc 1 194 7 is_stmt 0 view .LVU168
 579 0018 090053E3 		cmp	r3, #9
 580              		.loc 1 195 7 is_stmt 1 view .LVU169
 581              		.loc 1 195 9 is_stmt 0 view .LVU170
 582 001c 37C08382 		addhi	ip, r3, #55
 583              	.LVL33:
 584              		.loc 1 197 7 is_stmt 1 view .LVU171
 585              		.loc 1 197 9 is_stmt 0 view .LVU172
 586 0020 30C08392 		addls	ip, r3, #48
 587              	.LVL34:
 588              		.loc 1 198 5 is_stmt 1 view .LVU173
 589              	.LBB25:
 590              	.LBI21:
 591              		.loc 1 172 6 view .LVU174
 592              	.LBB23:
 593              		.loc 1 174 3 view .LVU175
 594              	.L63:
 595              		.loc 1 174 38 view .LVU176
 596              		.loc 1 174 10 is_stmt 0 view .LVU177
 597 0024 543092E5 		ldr	r3, [r2, #84]
 598              		.loc 1 174 8 view .LVU178
 599 0028 200013E3 		tst	r3, #32
 600 002c FCFFFF0A 		beq	.L63
 601              		.loc 1 175 3 is_stmt 1 view .LVU179
 602              	.LBE23:
 603              	.LBE25:
 604              		.loc 1 199 7 is_stmt 0 view .LVU180
 605 0030 00005EE3 		cmp	lr, #0
 606              	.LBB26:
 607              	.LBB24:
 608              		.loc 1 175 17 view .LVU181
 609 0034 40C082E5 		str	ip, [r2, #64]
 610              	.LVL35:
 611              		.loc 1 175 17 view .LVU182
 612              	.LBE24:
 613              	.LBE26:
 614              		.loc 1 199 5 is_stmt 1 view .LVU183
 615              		.loc 1 199 7 is_stmt 0 view .LVU184
 616 0038 F3FFFF1A 		bne	.L64
 617              	.LBB27:
 618              	.LBB28:
 619              		.loc 1 174 10 view .LVU185
 620 003c 4C209FE5 		ldr	r2, .L82
 621              	.L65:
 622              		.loc 1 174 38 is_stmt 1 view .LVU186
 623              		.loc 1 174 10 is_stmt 0 view .LVU187
 624 0040 543092E5 		ldr	r3, [r2, #84]
 625              		.loc 1 174 8 view .LVU188
 626 0044 200013E3 		tst	r3, #32
 627 0048 FCFFFF0A 		beq	.L65
ARM GAS  /var/folders/l5/0x54b2c10074c8bt31ycjvl80000gp/T//ccu784hR.s 			page 12


 628              		.loc 1 175 3 is_stmt 1 view .LVU189
 629              		.loc 1 175 17 is_stmt 0 view .LVU190
 630 004c 2030A0E3 		mov	r3, #32
 631              	.LBE28:
 632              	.LBE27:
 633              		.loc 1 204 6 view .LVU191
 634 0050 000051E3 		cmp	r1, #0
 635              	.LBB30:
 636              	.LBB29:
 637              		.loc 1 175 17 view .LVU192
 638 0054 403082E5 		str	r3, [r2, #64]
 639              	.LBE29:
 640              	.LBE30:
 641              		.loc 1 204 3 is_stmt 1 view .LVU193
 642              		.loc 1 204 6 is_stmt 0 view .LVU194
 643 0058 04F09D04 		ldreq	pc, [sp], #4
 644              	.LBB31:
 645              	.LBB32:
 646              		.loc 1 174 10 view .LVU195
 647 005c 2C109FE5 		ldr	r1, .L82
 648              	.LVL36:
 649              	.L67:
 650              		.loc 1 174 38 is_stmt 1 view .LVU196
 651              		.loc 1 174 10 is_stmt 0 view .LVU197
 652 0060 543091E5 		ldr	r3, [r1, #84]
 653              		.loc 1 174 8 view .LVU198
 654 0064 200013E3 		tst	r3, #32
 655 0068 FCFFFF0A 		beq	.L67
 656              		.loc 1 175 3 is_stmt 1 view .LVU199
 657              		.loc 1 175 17 is_stmt 0 view .LVU200
 658 006c 0D30A0E3 		mov	r3, #13
 659              	.LBE32:
 660              	.LBE31:
 661              	.LBB34:
 662              	.LBB35:
 663              		.loc 1 174 10 view .LVU201
 664 0070 18209FE5 		ldr	r2, .L82
 665              	.LBE35:
 666              	.LBE34:
 667              	.LBB37:
 668              	.LBB33:
 669              		.loc 1 175 17 view .LVU202
 670 0074 403081E5 		str	r3, [r1, #64]
 671              	.L68:
 672              	.LBE33:
 673              	.LBE37:
 674              	.LBB38:
 675              	.LBB36:
 676              		.loc 1 174 38 is_stmt 1 view .LVU203
 677              		.loc 1 174 10 is_stmt 0 view .LVU204
 678 0078 543092E5 		ldr	r3, [r2, #84]
 679              		.loc 1 174 8 view .LVU205
 680 007c 200013E3 		tst	r3, #32
 681 0080 FCFFFF0A 		beq	.L68
 682              		.loc 1 175 3 is_stmt 1 view .LVU206
 683              		.loc 1 175 17 is_stmt 0 view .LVU207
 684 0084 0A30A0E3 		mov	r3, #10
ARM GAS  /var/folders/l5/0x54b2c10074c8bt31ycjvl80000gp/T//ccu784hR.s 			page 13


 685 0088 403082E5 		str	r3, [r2, #64]
 686              	.LBE36:
 687              	.LBE38:
 688              		.loc 1 208 1 view .LVU208
 689 008c 04F09DE4 		ldr	pc, [sp], #4
 690              	.L83:
 691              		.align	2
 692              	.L82:
 693 0090 00502120 		.word	539054080
 694              		.cfi_endproc
 695              	.LFE15:
 696              		.size	mini_uart_sendhex, .-mini_uart_sendhex
 697              		.comm	SD1,116,4
 698              		.section	.rodata.default_config,"a"
 699              		.align	2
 700              		.set	.LANCHOR0,. + 0
 701              		.type	default_config, %object
 702              		.size	default_config, 4
 703              	default_config:
 704 0000 00C20100 		.word	115200
 705              		.text
 706              	.Letext0:
 707              		.file 2 "/usr/local/Cellar/arm-gcc-bin/8-2019-q3-update/lib/gcc/arm-none-eabi/8.3.1/include/stddef
 708              		.file 3 "/usr/local/Cellar/arm-gcc-bin/8-2019-q3-update/arm-none-eabi/include/machine/_default_typ
 709              		.file 4 "/usr/local/Cellar/arm-gcc-bin/8-2019-q3-update/arm-none-eabi/include/sys/_stdint.h"
 710              		.file 5 "../../os/ports/GCC/ARM/chtypes.h"
 711              		.file 6 "../../os/kernel/include/chlists.h"
 712              		.file 7 "../../os/kernel/include/chthreads.h"
 713              		.file 8 "../../os/ports/GCC/ARM/chcore.h"
 714              		.file 9 "../../os/kernel/include/chvt.h"
 715              		.file 10 "../../os/kernel/include/chschd.h"
 716              		.file 11 "../../os/kernel/include/chmtx.h"
 717              		.file 12 "../../os/kernel/include/chevents.h"
 718              		.file 13 "../../os/kernel/include/chregistry.h"
 719              		.file 14 "../../os/kernel/include/chqueues.h"
 720              		.file 15 "../../os/kernel/include/ch.h"
 721              		.file 16 "../../os/hal/platforms/BCM2835/bcm2835.h"
 722              		.file 17 "../../os/hal/platforms/BCM2835/pal_lld.h"
 723              		.file 18 "../../os/hal/include/i2c.h"
 724              		.file 19 "../../os/hal/platforms/BCM2835/i2c_lld.h"
 725              		.file 20 "../../os/hal/include/serial.h"
 726              		.file 21 "../../os/hal/platforms/BCM2835/serial_lld.h"
 727              		.file 22 "../../os/hal/include/spi.h"
 728              		.file 23 "../../os/hal/platforms/BCM2835/spi_lld.h"
 729              		.section	.debug_info,"",%progbits
 730              	.Ldebug_info0:
 731 0000 CE110000 		.4byte	0x11ce
 732 0004 0400     		.2byte	0x4
 733 0006 00000000 		.4byte	.Ldebug_abbrev0
 734 000a 04       		.byte	0x4
 735 000b 01       		.uleb128 0x1
 736 000c 8C030000 		.4byte	.LASF216
 737 0010 0C       		.byte	0xc
 738 0011 43030000 		.4byte	.LASF217
 739 0015 65050000 		.4byte	.LASF218
 740 0019 80000000 		.4byte	.Ldebug_ranges0+0x80
 741 001d 00000000 		.4byte	0
ARM GAS  /var/folders/l5/0x54b2c10074c8bt31ycjvl80000gp/T//ccu784hR.s 			page 14


 742 0021 00000000 		.4byte	.Ldebug_line0
 743 0025 02       		.uleb128 0x2
 744 0026 04       		.byte	0x4
 745 0027 05       		.byte	0x5
 746 0028 696E7400 		.ascii	"int\000"
 747 002c 03       		.uleb128 0x3
 748 002d 1D000000 		.4byte	.LASF2
 749 0031 02       		.byte	0x2
 750 0032 D8       		.byte	0xd8
 751 0033 17       		.byte	0x17
 752 0034 38000000 		.4byte	0x38
 753 0038 04       		.uleb128 0x4
 754 0039 04       		.byte	0x4
 755 003a 07       		.byte	0x7
 756 003b 7F020000 		.4byte	.LASF0
 757 003f 05       		.uleb128 0x5
 758 0040 38000000 		.4byte	0x38
 759 0044 04       		.uleb128 0x4
 760 0045 01       		.byte	0x1
 761 0046 06       		.byte	0x6
 762 0047 F8000000 		.4byte	.LASF1
 763 004b 03       		.uleb128 0x3
 764 004c 3D000000 		.4byte	.LASF3
 765 0050 03       		.byte	0x3
 766 0051 2B       		.byte	0x2b
 767 0052 18       		.byte	0x18
 768 0053 57000000 		.4byte	0x57
 769 0057 04       		.uleb128 0x4
 770 0058 01       		.byte	0x1
 771 0059 08       		.byte	0x8
 772 005a 7D060000 		.4byte	.LASF4
 773 005e 04       		.uleb128 0x4
 774 005f 02       		.byte	0x2
 775 0060 05       		.byte	0x5
 776 0061 B7060000 		.4byte	.LASF5
 777 0065 03       		.uleb128 0x3
 778 0066 CE070000 		.4byte	.LASF6
 779 006a 03       		.byte	0x3
 780 006b 39       		.byte	0x39
 781 006c 19       		.byte	0x19
 782 006d 71000000 		.4byte	0x71
 783 0071 04       		.uleb128 0x4
 784 0072 02       		.byte	0x2
 785 0073 07       		.byte	0x7
 786 0074 1E030000 		.4byte	.LASF7
 787 0078 03       		.uleb128 0x3
 788 0079 00080000 		.4byte	.LASF8
 789 007d 03       		.byte	0x3
 790 007e 4D       		.byte	0x4d
 791 007f 18       		.byte	0x18
 792 0080 84000000 		.4byte	0x84
 793 0084 04       		.uleb128 0x4
 794 0085 04       		.byte	0x4
 795 0086 05       		.byte	0x5
 796 0087 6B010000 		.4byte	.LASF9
 797 008b 03       		.uleb128 0x3
 798 008c 37020000 		.4byte	.LASF10
ARM GAS  /var/folders/l5/0x54b2c10074c8bt31ycjvl80000gp/T//ccu784hR.s 			page 15


 799 0090 03       		.byte	0x3
 800 0091 4F       		.byte	0x4f
 801 0092 19       		.byte	0x19
 802 0093 97000000 		.4byte	0x97
 803 0097 04       		.uleb128 0x4
 804 0098 04       		.byte	0x4
 805 0099 07       		.byte	0x7
 806 009a B8020000 		.4byte	.LASF11
 807 009e 04       		.uleb128 0x4
 808 009f 08       		.byte	0x8
 809 00a0 05       		.byte	0x5
 810 00a1 EA000000 		.4byte	.LASF12
 811 00a5 04       		.uleb128 0x4
 812 00a6 08       		.byte	0x8
 813 00a7 07       		.byte	0x7
 814 00a8 71000000 		.4byte	.LASF13
 815 00ac 03       		.uleb128 0x3
 816 00ad FC080000 		.4byte	.LASF14
 817 00b1 04       		.byte	0x4
 818 00b2 18       		.byte	0x18
 819 00b3 13       		.byte	0x13
 820 00b4 4B000000 		.4byte	0x4b
 821 00b8 06       		.uleb128 0x6
 822 00b9 AC000000 		.4byte	0xac
 823 00bd 03       		.uleb128 0x3
 824 00be AC010000 		.4byte	.LASF15
 825 00c2 04       		.byte	0x4
 826 00c3 24       		.byte	0x24
 827 00c4 14       		.byte	0x14
 828 00c5 65000000 		.4byte	0x65
 829 00c9 03       		.uleb128 0x3
 830 00ca 75060000 		.4byte	.LASF16
 831 00ce 04       		.byte	0x4
 832 00cf 2C       		.byte	0x2c
 833 00d0 13       		.byte	0x13
 834 00d1 78000000 		.4byte	0x78
 835 00d5 03       		.uleb128 0x3
 836 00d6 6B070000 		.4byte	.LASF17
 837 00da 04       		.byte	0x4
 838 00db 30       		.byte	0x30
 839 00dc 14       		.byte	0x14
 840 00dd 8B000000 		.4byte	0x8b
 841 00e1 05       		.uleb128 0x5
 842 00e2 D5000000 		.4byte	0xd5
 843 00e6 03       		.uleb128 0x3
 844 00e7 32010000 		.4byte	.LASF18
 845 00eb 05       		.byte	0x5
 846 00ec 29       		.byte	0x29
 847 00ed 19       		.byte	0x19
 848 00ee C9000000 		.4byte	0xc9
 849 00f2 03       		.uleb128 0x3
 850 00f3 71040000 		.4byte	.LASF19
 851 00f7 05       		.byte	0x5
 852 00f8 2A       		.byte	0x2a
 853 00f9 19       		.byte	0x19
 854 00fa AC000000 		.4byte	0xac
 855 00fe 03       		.uleb128 0x3
ARM GAS  /var/folders/l5/0x54b2c10074c8bt31ycjvl80000gp/T//ccu784hR.s 			page 16


 856 00ff 83010000 		.4byte	.LASF20
 857 0103 05       		.byte	0x5
 858 0104 2B       		.byte	0x2b
 859 0105 19       		.byte	0x19
 860 0106 AC000000 		.4byte	0xac
 861 010a 03       		.uleb128 0x3
 862 010b 25060000 		.4byte	.LASF21
 863 010f 05       		.byte	0x5
 864 0110 2C       		.byte	0x2c
 865 0111 19       		.byte	0x19
 866 0112 AC000000 		.4byte	0xac
 867 0116 03       		.uleb128 0x3
 868 0117 46010000 		.4byte	.LASF22
 869 011b 05       		.byte	0x5
 870 011c 2D       		.byte	0x2d
 871 011d 19       		.byte	0x19
 872 011e AC000000 		.4byte	0xac
 873 0122 03       		.uleb128 0x3
 874 0123 54060000 		.4byte	.LASF23
 875 0127 05       		.byte	0x5
 876 0128 2E       		.byte	0x2e
 877 0129 19       		.byte	0x19
 878 012a D5000000 		.4byte	0xd5
 879 012e 03       		.uleb128 0x3
 880 012f 6F030000 		.4byte	.LASF24
 881 0133 05       		.byte	0x5
 882 0134 2F       		.byte	0x2f
 883 0135 19       		.byte	0x19
 884 0136 C9000000 		.4byte	0xc9
 885 013a 03       		.uleb128 0x3
 886 013b 85040000 		.4byte	.LASF25
 887 013f 05       		.byte	0x5
 888 0140 31       		.byte	0x31
 889 0141 19       		.byte	0x19
 890 0142 D5000000 		.4byte	0xd5
 891 0146 03       		.uleb128 0x3
 892 0147 6B080000 		.4byte	.LASF26
 893 014b 05       		.byte	0x5
 894 014c 32       		.byte	0x32
 895 014d 19       		.byte	0x19
 896 014e D5000000 		.4byte	0xd5
 897 0152 03       		.uleb128 0x3
 898 0153 EB070000 		.4byte	.LASF27
 899 0157 05       		.byte	0x5
 900 0158 33       		.byte	0x33
 901 0159 19       		.byte	0x19
 902 015a D5000000 		.4byte	0xd5
 903 015e 05       		.uleb128 0x5
 904 015f 52010000 		.4byte	0x152
 905 0163 03       		.uleb128 0x3
 906 0164 29070000 		.4byte	.LASF28
 907 0168 06       		.byte	0x6
 908 0169 23       		.byte	0x23
 909 016a 17       		.byte	0x17
 910 016b 6F010000 		.4byte	0x16f
 911 016f 07       		.uleb128 0x7
 912 0170 29070000 		.4byte	.LASF28
ARM GAS  /var/folders/l5/0x54b2c10074c8bt31ycjvl80000gp/T//ccu784hR.s 			page 17


 913 0174 44       		.byte	0x44
 914 0175 07       		.byte	0x7
 915 0176 57       		.byte	0x57
 916 0177 08       		.byte	0x8
 917 0178 74020000 		.4byte	0x274
 918 017c 08       		.uleb128 0x8
 919 017d 03070000 		.4byte	.LASF29
 920 0181 07       		.byte	0x7
 921 0182 58       		.byte	0x58
 922 0183 1A       		.byte	0x1a
 923 0184 98020000 		.4byte	0x298
 924 0188 00       		.byte	0
 925 0189 08       		.uleb128 0x8
 926 018a 4D060000 		.4byte	.LASF30
 927 018e 07       		.byte	0x7
 928 018f 5A       		.byte	0x5a
 929 0190 1A       		.byte	0x1a
 930 0191 98020000 		.4byte	0x298
 931 0195 04       		.byte	0x4
 932 0196 08       		.uleb128 0x8
 933 0197 BF000000 		.4byte	.LASF31
 934 019b 07       		.byte	0x7
 935 019c 5C       		.byte	0x5c
 936 019d 19       		.byte	0x19
 937 019e 22010000 		.4byte	0x122
 938 01a2 08       		.byte	0x8
 939 01a3 08       		.uleb128 0x8
 940 01a4 D3090000 		.4byte	.LASF32
 941 01a8 07       		.byte	0x7
 942 01a9 5D       		.byte	0x5d
 943 01aa 19       		.byte	0x19
 944 01ab 63030000 		.4byte	0x363
 945 01af 0C       		.byte	0xc
 946 01b0 08       		.uleb128 0x8
 947 01b1 DE010000 		.4byte	.LASF33
 948 01b5 07       		.byte	0x7
 949 01b6 5F       		.byte	0x5f
 950 01b7 1A       		.byte	0x1a
 951 01b8 98020000 		.4byte	0x298
 952 01bc 10       		.byte	0x10
 953 01bd 08       		.uleb128 0x8
 954 01be 3A050000 		.4byte	.LASF34
 955 01c2 07       		.byte	0x7
 956 01c3 60       		.byte	0x60
 957 01c4 1A       		.byte	0x1a
 958 01c5 98020000 		.4byte	0x298
 959 01c9 14       		.byte	0x14
 960 01ca 08       		.uleb128 0x8
 961 01cb 31090000 		.4byte	.LASF35
 962 01cf 07       		.byte	0x7
 963 01d0 67       		.byte	0x67
 964 01d1 1A       		.byte	0x1a
 965 01d2 C4050000 		.4byte	0x5c4
 966 01d6 18       		.byte	0x18
 967 01d7 08       		.uleb128 0x8
 968 01d8 C1060000 		.4byte	.LASF36
 969 01dc 07       		.byte	0x7
ARM GAS  /var/folders/l5/0x54b2c10074c8bt31ycjvl80000gp/T//ccu784hR.s 			page 18


 970 01dd 72       		.byte	0x72
 971 01de 19       		.byte	0x19
 972 01df FE000000 		.4byte	0xfe
 973 01e3 1C       		.byte	0x1c
 974 01e4 08       		.uleb128 0x8
 975 01e5 21070000 		.4byte	.LASF37
 976 01e9 07       		.byte	0x7
 977 01ea 76       		.byte	0x76
 978 01eb 19       		.byte	0x19
 979 01ec F2000000 		.4byte	0xf2
 980 01f0 1D       		.byte	0x1d
 981 01f1 08       		.uleb128 0x8
 982 01f2 B8080000 		.4byte	.LASF38
 983 01f6 07       		.byte	0x7
 984 01f7 7B       		.byte	0x7b
 985 01f8 19       		.byte	0x19
 986 01f9 0A010000 		.4byte	0x10a
 987 01fd 1E       		.byte	0x1e
 988 01fe 08       		.uleb128 0x8
 989 01ff C9060000 		.4byte	.LASF39
 990 0203 07       		.byte	0x7
 991 0204 81       		.byte	0x81
 992 0205 19       		.byte	0x19
 993 0206 16010000 		.4byte	0x116
 994 020a 1F       		.byte	0x1f
 995 020b 08       		.uleb128 0x8
 996 020c 1E080000 		.4byte	.LASF40
 997 0210 07       		.byte	0x7
 998 0211 88       		.byte	0x88
 999 0212 19       		.byte	0x19
 1000 0213 5E010000 		.4byte	0x15e
 1001 0217 20       		.byte	0x20
 1002 0218 09       		.uleb128 0x9
 1003 0219 705F7500 		.ascii	"p_u\000"
 1004 021d 07       		.byte	0x7
 1005 021e AD       		.byte	0xad
 1006 021f 19       		.byte	0x19
 1007 0220 8A050000 		.4byte	0x58a
 1008 0224 24       		.byte	0x24
 1009 0225 08       		.uleb128 0x8
 1010 0226 D9090000 		.4byte	.LASF41
 1011 022a 07       		.byte	0x7
 1012 022b B2       		.byte	0xb2
 1013 022c 19       		.byte	0x19
 1014 022d C1020000 		.4byte	0x2c1
 1015 0231 28       		.byte	0x28
 1016 0232 08       		.uleb128 0x8
 1017 0233 3B080000 		.4byte	.LASF42
 1018 0237 07       		.byte	0x7
 1019 0238 B8       		.byte	0xb8
 1020 0239 19       		.byte	0x19
 1021 023a 9E020000 		.4byte	0x29e
 1022 023e 2C       		.byte	0x2c
 1023 023f 08       		.uleb128 0x8
 1024 0240 0D000000 		.4byte	.LASF43
 1025 0244 07       		.byte	0x7
 1026 0245 BC       		.byte	0xbc
ARM GAS  /var/folders/l5/0x54b2c10074c8bt31ycjvl80000gp/T//ccu784hR.s 			page 19


 1027 0246 19       		.byte	0x19
 1028 0247 2E010000 		.4byte	0x12e
 1029 024b 34       		.byte	0x34
 1030 024c 08       		.uleb128 0x8
 1031 024d 56070000 		.4byte	.LASF44
 1032 0251 07       		.byte	0x7
 1033 0252 C2       		.byte	0xc2
 1034 0253 19       		.byte	0x19
 1035 0254 3A010000 		.4byte	0x13a
 1036 0258 38       		.byte	0x38
 1037 0259 08       		.uleb128 0x8
 1038 025a AD060000 		.4byte	.LASF45
 1039 025e 07       		.byte	0x7
 1040 025f C9       		.byte	0xc9
 1041 0260 1A       		.byte	0x1a
 1042 0261 D6050000 		.4byte	0x5d6
 1043 0265 3C       		.byte	0x3c
 1044 0266 08       		.uleb128 0x8
 1045 0267 F5070000 		.4byte	.LASF46
 1046 026b 07       		.byte	0x7
 1047 026c CD       		.byte	0xcd
 1048 026d 19       		.byte	0x19
 1049 026e 22010000 		.4byte	0x122
 1050 0272 40       		.byte	0x40
 1051 0273 00       		.byte	0
 1052 0274 0A       		.uleb128 0xa
 1053 0275 08       		.byte	0x8
 1054 0276 06       		.byte	0x6
 1055 0277 5A       		.byte	0x5a
 1056 0278 09       		.byte	0x9
 1057 0279 98020000 		.4byte	0x298
 1058 027d 08       		.uleb128 0x8
 1059 027e 03070000 		.4byte	.LASF29
 1060 0282 06       		.byte	0x6
 1061 0283 5B       		.byte	0x5b
 1062 0284 1A       		.byte	0x1a
 1063 0285 98020000 		.4byte	0x298
 1064 0289 00       		.byte	0
 1065 028a 08       		.uleb128 0x8
 1066 028b 4D060000 		.4byte	.LASF30
 1067 028f 06       		.byte	0x6
 1068 0290 5D       		.byte	0x5d
 1069 0291 1A       		.byte	0x1a
 1070 0292 98020000 		.4byte	0x298
 1071 0296 04       		.byte	0x4
 1072 0297 00       		.byte	0
 1073 0298 0B       		.uleb128 0xb
 1074 0299 04       		.byte	0x4
 1075 029a 63010000 		.4byte	0x163
 1076 029e 03       		.uleb128 0x3
 1077 029f 58050000 		.4byte	.LASF47
 1078 02a3 06       		.byte	0x6
 1079 02a4 5F       		.byte	0x5f
 1080 02a5 03       		.byte	0x3
 1081 02a6 74020000 		.4byte	0x274
 1082 02aa 0A       		.uleb128 0xa
 1083 02ab 04       		.byte	0x4
ARM GAS  /var/folders/l5/0x54b2c10074c8bt31ycjvl80000gp/T//ccu784hR.s 			page 20


 1084 02ac 06       		.byte	0x6
 1085 02ad 64       		.byte	0x64
 1086 02ae 09       		.byte	0x9
 1087 02af C1020000 		.4byte	0x2c1
 1088 02b3 08       		.uleb128 0x8
 1089 02b4 03070000 		.4byte	.LASF29
 1090 02b8 06       		.byte	0x6
 1091 02b9 66       		.byte	0x66
 1092 02ba 16       		.byte	0x16
 1093 02bb 98020000 		.4byte	0x298
 1094 02bf 00       		.byte	0
 1095 02c0 00       		.byte	0
 1096 02c1 03       		.uleb128 0x3
 1097 02c2 79040000 		.4byte	.LASF48
 1098 02c6 06       		.byte	0x6
 1099 02c7 69       		.byte	0x69
 1100 02c8 03       		.byte	0x3
 1101 02c9 AA020000 		.4byte	0x2aa
 1102 02cd 03       		.uleb128 0x3
 1103 02ce AF040000 		.4byte	.LASF49
 1104 02d2 08       		.byte	0x8
 1105 02d3 9D       		.byte	0x9d
 1106 02d4 12       		.byte	0x12
 1107 02d5 D5000000 		.4byte	0xd5
 1108 02d9 03       		.uleb128 0x3
 1109 02da 42020000 		.4byte	.LASF50
 1110 02de 08       		.byte	0x8
 1111 02df A2       		.byte	0xa2
 1112 02e0 0F       		.byte	0xf
 1113 02e1 E5020000 		.4byte	0x2e5
 1114 02e5 0C       		.uleb128 0xc
 1115 02e6 04       		.byte	0x4
 1116 02e7 07       		.uleb128 0x7
 1117 02e8 34080000 		.4byte	.LASF51
 1118 02ec 24       		.byte	0x24
 1119 02ed 08       		.byte	0x8
 1120 02ee B9       		.byte	0xb9
 1121 02ef 08       		.byte	0x8
 1122 02f0 63030000 		.4byte	0x363
 1123 02f4 09       		.uleb128 0x9
 1124 02f5 723400   		.ascii	"r4\000"
 1125 02f8 08       		.byte	0x8
 1126 02f9 BA       		.byte	0xba
 1127 02fa 11       		.byte	0x11
 1128 02fb D9020000 		.4byte	0x2d9
 1129 02ff 00       		.byte	0
 1130 0300 09       		.uleb128 0x9
 1131 0301 723500   		.ascii	"r5\000"
 1132 0304 08       		.byte	0x8
 1133 0305 BB       		.byte	0xbb
 1134 0306 11       		.byte	0x11
 1135 0307 D9020000 		.4byte	0x2d9
 1136 030b 04       		.byte	0x4
 1137 030c 09       		.uleb128 0x9
 1138 030d 723600   		.ascii	"r6\000"
 1139 0310 08       		.byte	0x8
 1140 0311 BC       		.byte	0xbc
ARM GAS  /var/folders/l5/0x54b2c10074c8bt31ycjvl80000gp/T//ccu784hR.s 			page 21


 1141 0312 11       		.byte	0x11
 1142 0313 D9020000 		.4byte	0x2d9
 1143 0317 08       		.byte	0x8
 1144 0318 09       		.uleb128 0x9
 1145 0319 723700   		.ascii	"r7\000"
 1146 031c 08       		.byte	0x8
 1147 031d BD       		.byte	0xbd
 1148 031e 11       		.byte	0x11
 1149 031f D9020000 		.4byte	0x2d9
 1150 0323 0C       		.byte	0xc
 1151 0324 09       		.uleb128 0x9
 1152 0325 723800   		.ascii	"r8\000"
 1153 0328 08       		.byte	0x8
 1154 0329 BE       		.byte	0xbe
 1155 032a 11       		.byte	0x11
 1156 032b D9020000 		.4byte	0x2d9
 1157 032f 10       		.byte	0x10
 1158 0330 09       		.uleb128 0x9
 1159 0331 723900   		.ascii	"r9\000"
 1160 0334 08       		.byte	0x8
 1161 0335 BF       		.byte	0xbf
 1162 0336 11       		.byte	0x11
 1163 0337 D9020000 		.4byte	0x2d9
 1164 033b 14       		.byte	0x14
 1165 033c 09       		.uleb128 0x9
 1166 033d 72313000 		.ascii	"r10\000"
 1167 0341 08       		.byte	0x8
 1168 0342 C0       		.byte	0xc0
 1169 0343 11       		.byte	0x11
 1170 0344 D9020000 		.4byte	0x2d9
 1171 0348 18       		.byte	0x18
 1172 0349 09       		.uleb128 0x9
 1173 034a 72313100 		.ascii	"r11\000"
 1174 034e 08       		.byte	0x8
 1175 034f C1       		.byte	0xc1
 1176 0350 11       		.byte	0x11
 1177 0351 D9020000 		.4byte	0x2d9
 1178 0355 1C       		.byte	0x1c
 1179 0356 09       		.uleb128 0x9
 1180 0357 6C7200   		.ascii	"lr\000"
 1181 035a 08       		.byte	0x8
 1182 035b C2       		.byte	0xc2
 1183 035c 11       		.byte	0x11
 1184 035d D9020000 		.4byte	0x2d9
 1185 0361 20       		.byte	0x20
 1186 0362 00       		.byte	0
 1187 0363 07       		.uleb128 0x7
 1188 0364 16030000 		.4byte	.LASF52
 1189 0368 04       		.byte	0x4
 1190 0369 08       		.byte	0x8
 1191 036a CA       		.byte	0xca
 1192 036b 08       		.byte	0x8
 1193 036c 7E030000 		.4byte	0x37e
 1194 0370 09       		.uleb128 0x9
 1195 0371 72313300 		.ascii	"r13\000"
 1196 0375 08       		.byte	0x8
 1197 0376 CB       		.byte	0xcb
ARM GAS  /var/folders/l5/0x54b2c10074c8bt31ycjvl80000gp/T//ccu784hR.s 			page 22


 1198 0377 12       		.byte	0x12
 1199 0378 7E030000 		.4byte	0x37e
 1200 037c 00       		.byte	0
 1201 037d 00       		.byte	0
 1202 037e 0B       		.uleb128 0xb
 1203 037f 04       		.byte	0x4
 1204 0380 E7020000 		.4byte	0x2e7
 1205 0384 03       		.uleb128 0x3
 1206 0385 E4020000 		.4byte	.LASF53
 1207 0389 09       		.byte	0x9
 1208 038a 4E       		.byte	0x4e
 1209 038b 10       		.byte	0x10
 1210 038c 90030000 		.4byte	0x390
 1211 0390 0B       		.uleb128 0xb
 1212 0391 04       		.byte	0x4
 1213 0392 96030000 		.4byte	0x396
 1214 0396 0D       		.uleb128 0xd
 1215 0397 A1030000 		.4byte	0x3a1
 1216 039b 0E       		.uleb128 0xe
 1217 039c E5020000 		.4byte	0x2e5
 1218 03a0 00       		.byte	0
 1219 03a1 03       		.uleb128 0x3
 1220 03a2 88070000 		.4byte	.LASF54
 1221 03a6 09       		.byte	0x9
 1222 03a7 53       		.byte	0x53
 1223 03a8 1D       		.byte	0x1d
 1224 03a9 AD030000 		.4byte	0x3ad
 1225 03ad 07       		.uleb128 0x7
 1226 03ae 88070000 		.4byte	.LASF54
 1227 03b2 14       		.byte	0x14
 1228 03b3 09       		.byte	0x9
 1229 03b4 5A       		.byte	0x5a
 1230 03b5 08       		.byte	0x8
 1231 03b6 FC030000 		.4byte	0x3fc
 1232 03ba 08       		.uleb128 0x8
 1233 03bb 8C020000 		.4byte	.LASF55
 1234 03bf 09       		.byte	0x9
 1235 03c0 5B       		.byte	0x5b
 1236 03c1 1A       		.byte	0x1a
 1237 03c2 FC030000 		.4byte	0x3fc
 1238 03c6 00       		.byte	0
 1239 03c7 08       		.uleb128 0x8
 1240 03c8 4B020000 		.4byte	.LASF56
 1241 03cc 09       		.byte	0x9
 1242 03cd 5D       		.byte	0x5d
 1243 03ce 1A       		.byte	0x1a
 1244 03cf FC030000 		.4byte	0x3fc
 1245 03d3 04       		.byte	0x4
 1246 03d4 08       		.uleb128 0x8
 1247 03d5 D9040000 		.4byte	.LASF57
 1248 03d9 09       		.byte	0x9
 1249 03da 5F       		.byte	0x5f
 1250 03db 19       		.byte	0x19
 1251 03dc 52010000 		.4byte	0x152
 1252 03e0 08       		.byte	0x8
 1253 03e1 08       		.uleb128 0x8
 1254 03e2 01050000 		.4byte	.LASF58
ARM GAS  /var/folders/l5/0x54b2c10074c8bt31ycjvl80000gp/T//ccu784hR.s 			page 23


 1255 03e6 09       		.byte	0x9
 1256 03e7 60       		.byte	0x60
 1257 03e8 19       		.byte	0x19
 1258 03e9 84030000 		.4byte	0x384
 1259 03ed 0C       		.byte	0xc
 1260 03ee 08       		.uleb128 0x8
 1261 03ef 64080000 		.4byte	.LASF59
 1262 03f3 09       		.byte	0x9
 1263 03f4 62       		.byte	0x62
 1264 03f5 1A       		.byte	0x1a
 1265 03f6 E5020000 		.4byte	0x2e5
 1266 03fa 10       		.byte	0x10
 1267 03fb 00       		.byte	0
 1268 03fc 0B       		.uleb128 0xb
 1269 03fd 04       		.byte	0x4
 1270 03fe A1030000 		.4byte	0x3a1
 1271 0402 0A       		.uleb128 0xa
 1272 0403 10       		.byte	0x10
 1273 0404 09       		.byte	0x9
 1274 0405 6C       		.byte	0x6c
 1275 0406 09       		.byte	0x9
 1276 0407 40040000 		.4byte	0x440
 1277 040b 08       		.uleb128 0x8
 1278 040c 8C020000 		.4byte	.LASF55
 1279 0410 09       		.byte	0x9
 1280 0411 6D       		.byte	0x6d
 1281 0412 1A       		.byte	0x1a
 1282 0413 FC030000 		.4byte	0x3fc
 1283 0417 00       		.byte	0
 1284 0418 08       		.uleb128 0x8
 1285 0419 4B020000 		.4byte	.LASF56
 1286 041d 09       		.byte	0x9
 1287 041e 6F       		.byte	0x6f
 1288 041f 1A       		.byte	0x1a
 1289 0420 FC030000 		.4byte	0x3fc
 1290 0424 04       		.byte	0x4
 1291 0425 08       		.uleb128 0x8
 1292 0426 D9040000 		.4byte	.LASF57
 1293 042a 09       		.byte	0x9
 1294 042b 71       		.byte	0x71
 1295 042c 19       		.byte	0x19
 1296 042d 52010000 		.4byte	0x152
 1297 0431 08       		.byte	0x8
 1298 0432 08       		.uleb128 0x8
 1299 0433 4A090000 		.4byte	.LASF60
 1300 0437 09       		.byte	0x9
 1301 0438 72       		.byte	0x72
 1302 0439 19       		.byte	0x19
 1303 043a 5E010000 		.4byte	0x15e
 1304 043e 0C       		.byte	0xc
 1305 043f 00       		.byte	0
 1306 0440 03       		.uleb128 0x3
 1307 0441 A0090000 		.4byte	.LASF61
 1308 0445 09       		.byte	0x9
 1309 0446 73       		.byte	0x73
 1310 0447 03       		.byte	0x3
 1311 0448 02040000 		.4byte	0x402
ARM GAS  /var/folders/l5/0x54b2c10074c8bt31ycjvl80000gp/T//ccu784hR.s 			page 24


 1312 044c 0F       		.uleb128 0xf
 1313 044d 52000000 		.4byte	.LASF69
 1314 0451 09       		.byte	0x9
 1315 0452 D1       		.byte	0xd1
 1316 0453 0F       		.byte	0xf
 1317 0454 40040000 		.4byte	0x440
 1318 0458 0A       		.uleb128 0xa
 1319 0459 1C       		.byte	0x1c
 1320 045a 0A       		.byte	0xa
 1321 045b 57       		.byte	0x57
 1322 045c 09       		.byte	0x9
 1323 045d B0040000 		.4byte	0x4b0
 1324 0461 08       		.uleb128 0x8
 1325 0462 80070000 		.4byte	.LASF62
 1326 0466 0A       		.byte	0xa
 1327 0467 58       		.byte	0x58
 1328 0468 19       		.byte	0x19
 1329 0469 9E020000 		.4byte	0x29e
 1330 046d 00       		.byte	0
 1331 046e 08       		.uleb128 0x8
 1332 046f EC060000 		.4byte	.LASF63
 1333 0473 0A       		.byte	0xa
 1334 0474 59       		.byte	0x59
 1335 0475 19       		.byte	0x19
 1336 0476 22010000 		.4byte	0x122
 1337 047a 08       		.byte	0x8
 1338 047b 08       		.uleb128 0x8
 1339 047c 52050000 		.4byte	.LASF64
 1340 0480 0A       		.byte	0xa
 1341 0481 5B       		.byte	0x5b
 1342 0482 19       		.byte	0x19
 1343 0483 63030000 		.4byte	0x363
 1344 0487 0C       		.byte	0xc
 1345 0488 08       		.uleb128 0x8
 1346 0489 7C030000 		.4byte	.LASF65
 1347 048d 0A       		.byte	0xa
 1348 048e 5E       		.byte	0x5e
 1349 048f 1A       		.byte	0x1a
 1350 0490 98020000 		.4byte	0x298
 1351 0494 10       		.byte	0x10
 1352 0495 08       		.uleb128 0x8
 1353 0496 DA050000 		.4byte	.LASF66
 1354 049a 0A       		.byte	0xa
 1355 049b 5F       		.byte	0x5f
 1356 049c 1A       		.byte	0x1a
 1357 049d 98020000 		.4byte	0x298
 1358 04a1 14       		.byte	0x14
 1359 04a2 08       		.uleb128 0x8
 1360 04a3 D0050000 		.4byte	.LASF67
 1361 04a7 0A       		.byte	0xa
 1362 04a8 62       		.byte	0x62
 1363 04a9 1A       		.byte	0x1a
 1364 04aa 98020000 		.4byte	0x298
 1365 04ae 18       		.byte	0x18
 1366 04af 00       		.byte	0
 1367 04b0 03       		.uleb128 0x3
 1368 04b1 C6080000 		.4byte	.LASF68
ARM GAS  /var/folders/l5/0x54b2c10074c8bt31ycjvl80000gp/T//ccu784hR.s 			page 25


 1369 04b5 0A       		.byte	0xa
 1370 04b6 64       		.byte	0x64
 1371 04b7 03       		.byte	0x3
 1372 04b8 58040000 		.4byte	0x458
 1373 04bc 0F       		.uleb128 0xf
 1374 04bd E7080000 		.4byte	.LASF70
 1375 04c1 0A       		.byte	0xa
 1376 04c2 68       		.byte	0x68
 1377 04c3 12       		.byte	0x12
 1378 04c4 B0040000 		.4byte	0x4b0
 1379 04c8 07       		.uleb128 0x7
 1380 04c9 9C040000 		.4byte	.LASF71
 1381 04cd 10       		.byte	0x10
 1382 04ce 0B       		.byte	0xb
 1383 04cf 25       		.byte	0x25
 1384 04d0 10       		.byte	0x10
 1385 04d1 FD040000 		.4byte	0x4fd
 1386 04d5 08       		.uleb128 0x8
 1387 04d6 39010000 		.4byte	.LASF72
 1388 04da 0B       		.byte	0xb
 1389 04db 26       		.byte	0x26
 1390 04dc 19       		.byte	0x19
 1391 04dd 9E020000 		.4byte	0x29e
 1392 04e1 00       		.byte	0
 1393 04e2 08       		.uleb128 0x8
 1394 04e3 B8090000 		.4byte	.LASF73
 1395 04e7 0B       		.byte	0xb
 1396 04e8 28       		.byte	0x28
 1397 04e9 1A       		.byte	0x1a
 1398 04ea 98020000 		.4byte	0x298
 1399 04ee 08       		.byte	0x8
 1400 04ef 08       		.uleb128 0x8
 1401 04f0 E4070000 		.4byte	.LASF74
 1402 04f4 0B       		.byte	0xb
 1403 04f5 2A       		.byte	0x2a
 1404 04f6 1A       		.byte	0x1a
 1405 04f7 FD040000 		.4byte	0x4fd
 1406 04fb 0C       		.byte	0xc
 1407 04fc 00       		.byte	0
 1408 04fd 0B       		.uleb128 0xb
 1409 04fe 04       		.byte	0x4
 1410 04ff C8040000 		.4byte	0x4c8
 1411 0503 03       		.uleb128 0x3
 1412 0504 9C040000 		.4byte	.LASF71
 1413 0508 0B       		.byte	0xb
 1414 0509 2C       		.byte	0x2c
 1415 050a 03       		.byte	0x3
 1416 050b C8040000 		.4byte	0x4c8
 1417 050f 03       		.uleb128 0x3
 1418 0510 1C090000 		.4byte	.LASF75
 1419 0514 0C       		.byte	0xc
 1420 0515 25       		.byte	0x25
 1421 0516 1E       		.byte	0x1e
 1422 0517 1B050000 		.4byte	0x51b
 1423 051b 07       		.uleb128 0x7
 1424 051c 1C090000 		.4byte	.LASF75
 1425 0520 10       		.byte	0x10
ARM GAS  /var/folders/l5/0x54b2c10074c8bt31ycjvl80000gp/T//ccu784hR.s 			page 26


 1426 0521 0C       		.byte	0xc
 1427 0522 2A       		.byte	0x2a
 1428 0523 08       		.byte	0x8
 1429 0524 5D050000 		.4byte	0x55d
 1430 0528 08       		.uleb128 0x8
 1431 0529 84030000 		.4byte	.LASF76
 1432 052d 0C       		.byte	0xc
 1433 052e 2B       		.byte	0x2b
 1434 052f 1A       		.byte	0x1a
 1435 0530 5D050000 		.4byte	0x55d
 1436 0534 00       		.byte	0
 1437 0535 08       		.uleb128 0x8
 1438 0536 98060000 		.4byte	.LASF77
 1439 053a 0C       		.byte	0xc
 1440 053b 2E       		.byte	0x2e
 1441 053c 1A       		.byte	0x1a
 1442 053d 98020000 		.4byte	0x298
 1443 0541 04       		.byte	0x4
 1444 0542 08       		.uleb128 0x8
 1445 0543 E2050000 		.4byte	.LASF78
 1446 0547 0C       		.byte	0xc
 1447 0548 30       		.byte	0x30
 1448 0549 19       		.byte	0x19
 1449 054a 3A010000 		.4byte	0x13a
 1450 054e 08       		.byte	0x8
 1451 054f 08       		.uleb128 0x8
 1452 0550 A4060000 		.4byte	.LASF79
 1453 0554 0C       		.byte	0xc
 1454 0555 33       		.byte	0x33
 1455 0556 19       		.byte	0x19
 1456 0557 46010000 		.4byte	0x146
 1457 055b 0C       		.byte	0xc
 1458 055c 00       		.byte	0
 1459 055d 0B       		.uleb128 0xb
 1460 055e 04       		.byte	0x4
 1461 055f 0F050000 		.4byte	0x50f
 1462 0563 07       		.uleb128 0x7
 1463 0564 73020000 		.4byte	.LASF80
 1464 0568 04       		.byte	0x4
 1465 0569 0C       		.byte	0xc
 1466 056a 3A       		.byte	0x3a
 1467 056b 10       		.byte	0x10
 1468 056c 7E050000 		.4byte	0x57e
 1469 0570 08       		.uleb128 0x8
 1470 0571 55090000 		.4byte	.LASF81
 1471 0575 0C       		.byte	0xc
 1472 0576 3B       		.byte	0x3b
 1473 0577 1A       		.byte	0x1a
 1474 0578 5D050000 		.4byte	0x55d
 1475 057c 00       		.byte	0
 1476 057d 00       		.byte	0
 1477 057e 03       		.uleb128 0x3
 1478 057f 73020000 		.4byte	.LASF80
 1479 0583 0C       		.byte	0xc
 1480 0584 3E       		.byte	0x3e
 1481 0585 03       		.byte	0x3
 1482 0586 63050000 		.4byte	0x563
ARM GAS  /var/folders/l5/0x54b2c10074c8bt31ycjvl80000gp/T//ccu784hR.s 			page 27


 1483 058a 10       		.uleb128 0x10
 1484 058b 04       		.byte	0x4
 1485 058c 07       		.byte	0x7
 1486 058d 8F       		.byte	0x8f
 1487 058e 03       		.byte	0x3
 1488 058f C4050000 		.4byte	0x5c4
 1489 0593 11       		.uleb128 0x11
 1490 0594 24000000 		.4byte	.LASF82
 1491 0598 07       		.byte	0x7
 1492 0599 96       		.byte	0x96
 1493 059a 19       		.byte	0x19
 1494 059b 2E010000 		.4byte	0x12e
 1495 059f 11       		.uleb128 0x11
 1496 05a0 9B000000 		.4byte	.LASF83
 1497 05a4 07       		.byte	0x7
 1498 05a5 9D       		.byte	0x9d
 1499 05a6 19       		.byte	0x19
 1500 05a7 2E010000 		.4byte	0x12e
 1501 05ab 11       		.uleb128 0x11
 1502 05ac 2A090000 		.4byte	.LASF84
 1503 05b0 07       		.byte	0x7
 1504 05b1 A4       		.byte	0xa4
 1505 05b2 1A       		.byte	0x1a
 1506 05b3 E5020000 		.4byte	0x2e5
 1507 05b7 11       		.uleb128 0x11
 1508 05b8 FC060000 		.4byte	.LASF85
 1509 05bc 07       		.byte	0x7
 1510 05bd AB       		.byte	0xab
 1511 05be 19       		.byte	0x19
 1512 05bf 3A010000 		.4byte	0x13a
 1513 05c3 00       		.byte	0
 1514 05c4 0B       		.uleb128 0xb
 1515 05c5 04       		.byte	0x4
 1516 05c6 D1050000 		.4byte	0x5d1
 1517 05ca 04       		.uleb128 0x4
 1518 05cb 01       		.byte	0x1
 1519 05cc 08       		.byte	0x8
 1520 05cd B5070000 		.4byte	.LASF86
 1521 05d1 06       		.uleb128 0x6
 1522 05d2 CA050000 		.4byte	0x5ca
 1523 05d6 0B       		.uleb128 0xb
 1524 05d7 04       		.byte	0x4
 1525 05d8 03050000 		.4byte	0x503
 1526 05dc 0B       		.uleb128 0xb
 1527 05dd 04       		.byte	0x4
 1528 05de E2050000 		.4byte	0x5e2
 1529 05e2 12       		.uleb128 0x12
 1530 05e3 2E010000 		.4byte	0x12e
 1531 05e7 F1050000 		.4byte	0x5f1
 1532 05eb 0E       		.uleb128 0xe
 1533 05ec E5020000 		.4byte	0x2e5
 1534 05f0 00       		.byte	0
 1535 05f1 0A       		.uleb128 0xa
 1536 05f2 16       		.byte	0x16
 1537 05f3 0D       		.byte	0xd
 1538 05f4 25       		.byte	0x25
 1539 05f5 09       		.byte	0x9
ARM GAS  /var/folders/l5/0x54b2c10074c8bt31ycjvl80000gp/T//ccu784hR.s 			page 28


 1540 05f6 E5060000 		.4byte	0x6e5
 1541 05fa 08       		.uleb128 0x8
 1542 05fb ED020000 		.4byte	.LASF87
 1543 05ff 0D       		.byte	0xd
 1544 0600 26       		.byte	0x26
 1545 0601 0D       		.byte	0xd
 1546 0602 E5060000 		.4byte	0x6e5
 1547 0606 00       		.byte	0
 1548 0607 08       		.uleb128 0x8
 1549 0608 BA040000 		.4byte	.LASF88
 1550 060c 0D       		.byte	0xd
 1551 060d 27       		.byte	0x27
 1552 060e 0D       		.byte	0xd
 1553 060f AC000000 		.4byte	0xac
 1554 0613 04       		.byte	0x4
 1555 0614 08       		.uleb128 0x8
 1556 0615 B1050000 		.4byte	.LASF89
 1557 0619 0D       		.byte	0xd
 1558 061a 28       		.byte	0x28
 1559 061b 0D       		.byte	0xd
 1560 061c AC000000 		.4byte	0xac
 1561 0620 05       		.byte	0x5
 1562 0621 08       		.uleb128 0x8
 1563 0622 7E090000 		.4byte	.LASF90
 1564 0626 0D       		.byte	0xd
 1565 0627 29       		.byte	0x29
 1566 0628 0D       		.byte	0xd
 1567 0629 BD000000 		.4byte	0xbd
 1568 062d 06       		.byte	0x6
 1569 062e 08       		.uleb128 0x8
 1570 062f 38060000 		.4byte	.LASF91
 1571 0633 0D       		.byte	0xd
 1572 0634 2A       		.byte	0x2a
 1573 0635 0D       		.byte	0xd
 1574 0636 AC000000 		.4byte	0xac
 1575 063a 08       		.byte	0x8
 1576 063b 08       		.uleb128 0x8
 1577 063c 09050000 		.4byte	.LASF92
 1578 0640 0D       		.byte	0xd
 1579 0641 2B       		.byte	0x2b
 1580 0642 0D       		.byte	0xd
 1581 0643 AC000000 		.4byte	0xac
 1582 0647 09       		.byte	0x9
 1583 0648 08       		.uleb128 0x8
 1584 0649 88000000 		.4byte	.LASF93
 1585 064d 0D       		.byte	0xd
 1586 064e 2C       		.byte	0x2c
 1587 064f 0D       		.byte	0xd
 1588 0650 AC000000 		.4byte	0xac
 1589 0654 0A       		.byte	0xa
 1590 0655 08       		.uleb128 0x8
 1591 0656 74070000 		.4byte	.LASF94
 1592 065a 0D       		.byte	0xd
 1593 065b 2D       		.byte	0x2d
 1594 065c 0D       		.byte	0xd
 1595 065d AC000000 		.4byte	0xac
 1596 0661 0B       		.byte	0xb
ARM GAS  /var/folders/l5/0x54b2c10074c8bt31ycjvl80000gp/T//ccu784hR.s 			page 29


 1597 0662 08       		.uleb128 0x8
 1598 0663 9E080000 		.4byte	.LASF95
 1599 0667 0D       		.byte	0xd
 1600 0668 2E       		.byte	0x2e
 1601 0669 0D       		.byte	0xd
 1602 066a AC000000 		.4byte	0xac
 1603 066e 0C       		.byte	0xc
 1604 066f 08       		.uleb128 0x8
 1605 0670 3E070000 		.4byte	.LASF96
 1606 0674 0D       		.byte	0xd
 1607 0675 2F       		.byte	0x2f
 1608 0676 0D       		.byte	0xd
 1609 0677 AC000000 		.4byte	0xac
 1610 067b 0D       		.byte	0xd
 1611 067c 08       		.uleb128 0x8
 1612 067d 00000000 		.4byte	.LASF97
 1613 0681 0D       		.byte	0xd
 1614 0682 30       		.byte	0x30
 1615 0683 0D       		.byte	0xd
 1616 0684 AC000000 		.4byte	0xac
 1617 0688 0E       		.byte	0xe
 1618 0689 08       		.uleb128 0x8
 1619 068a 2E050000 		.4byte	.LASF98
 1620 068e 0D       		.byte	0xd
 1621 068f 31       		.byte	0x31
 1622 0690 0D       		.byte	0xd
 1623 0691 AC000000 		.4byte	0xac
 1624 0695 0F       		.byte	0xf
 1625 0696 08       		.uleb128 0x8
 1626 0697 04010000 		.4byte	.LASF99
 1627 069b 0D       		.byte	0xd
 1628 069c 32       		.byte	0x32
 1629 069d 0D       		.byte	0xd
 1630 069e AC000000 		.4byte	0xac
 1631 06a2 10       		.byte	0x10
 1632 06a3 08       		.uleb128 0x8
 1633 06a4 C6000000 		.4byte	.LASF100
 1634 06a8 0D       		.byte	0xd
 1635 06a9 34       		.byte	0x34
 1636 06aa 0D       		.byte	0xd
 1637 06ab AC000000 		.4byte	0xac
 1638 06af 11       		.byte	0x11
 1639 06b0 08       		.uleb128 0x8
 1640 06b1 1D010000 		.4byte	.LASF101
 1641 06b5 0D       		.byte	0xd
 1642 06b6 35       		.byte	0x35
 1643 06b7 0D       		.byte	0xd
 1644 06b8 AC000000 		.4byte	0xac
 1645 06bc 12       		.byte	0x12
 1646 06bd 08       		.uleb128 0x8
 1647 06be C2040000 		.4byte	.LASF102
 1648 06c2 0D       		.byte	0xd
 1649 06c3 36       		.byte	0x36
 1650 06c4 0D       		.byte	0xd
 1651 06c5 AC000000 		.4byte	0xac
 1652 06c9 13       		.byte	0x13
 1653 06ca 08       		.uleb128 0x8
ARM GAS  /var/folders/l5/0x54b2c10074c8bt31ycjvl80000gp/T//ccu784hR.s 			page 30


 1654 06cb 12070000 		.4byte	.LASF103
 1655 06cf 0D       		.byte	0xd
 1656 06d0 37       		.byte	0x37
 1657 06d1 0D       		.byte	0xd
 1658 06d2 AC000000 		.4byte	0xac
 1659 06d6 14       		.byte	0x14
 1660 06d7 08       		.uleb128 0x8
 1661 06d8 D3060000 		.4byte	.LASF104
 1662 06dc 0D       		.byte	0xd
 1663 06dd 39       		.byte	0x39
 1664 06de 0D       		.byte	0xd
 1665 06df AC000000 		.4byte	0xac
 1666 06e3 15       		.byte	0x15
 1667 06e4 00       		.byte	0
 1668 06e5 13       		.uleb128 0x13
 1669 06e6 CA050000 		.4byte	0x5ca
 1670 06ea F5060000 		.4byte	0x6f5
 1671 06ee 14       		.uleb128 0x14
 1672 06ef 38000000 		.4byte	0x38
 1673 06f3 03       		.byte	0x3
 1674 06f4 00       		.byte	0
 1675 06f5 03       		.uleb128 0x3
 1676 06f6 BA010000 		.4byte	.LASF105
 1677 06fa 0D       		.byte	0xd
 1678 06fb 3A       		.byte	0x3a
 1679 06fc 03       		.byte	0x3
 1680 06fd F1050000 		.4byte	0x5f1
 1681 0701 06       		.uleb128 0x6
 1682 0702 F5060000 		.4byte	0x6f5
 1683 0706 0F       		.uleb128 0xf
 1684 0707 CA020000 		.4byte	.LASF106
 1685 070b 0D       		.byte	0xd
 1686 070c 77       		.byte	0x77
 1687 070d 1D       		.byte	0x1d
 1688 070e 01070000 		.4byte	0x701
 1689 0712 03       		.uleb128 0x3
 1690 0713 A2040000 		.4byte	.LASF107
 1691 0717 0E       		.byte	0xe
 1692 0718 30       		.byte	0x30
 1693 0719 1D       		.byte	0x1d
 1694 071a 1E070000 		.4byte	0x71e
 1695 071e 07       		.uleb128 0x7
 1696 071f A2040000 		.4byte	.LASF107
 1697 0723 24       		.byte	0x24
 1698 0724 0E       		.byte	0xe
 1699 0725 3E       		.byte	0x3e
 1700 0726 08       		.byte	0x8
 1701 0727 94070000 		.4byte	0x794
 1702 072b 08       		.uleb128 0x8
 1703 072c E0000000 		.4byte	.LASF108
 1704 0730 0E       		.byte	0xe
 1705 0731 3F       		.byte	0x3f
 1706 0732 19       		.byte	0x19
 1707 0733 9E020000 		.4byte	0x29e
 1708 0737 00       		.byte	0
 1709 0738 08       		.uleb128 0x8
 1710 0739 F7040000 		.4byte	.LASF109
ARM GAS  /var/folders/l5/0x54b2c10074c8bt31ycjvl80000gp/T//ccu784hR.s 			page 31


 1711 073d 0E       		.byte	0xe
 1712 073e 40       		.byte	0x40
 1713 073f 19       		.byte	0x19
 1714 0740 2C000000 		.4byte	0x2c
 1715 0744 08       		.byte	0x8
 1716 0745 08       		.uleb128 0x8
 1717 0746 A3010000 		.4byte	.LASF110
 1718 074a 0E       		.byte	0xe
 1719 074b 41       		.byte	0x41
 1720 074c 1A       		.byte	0x1a
 1721 074d B7070000 		.4byte	0x7b7
 1722 0751 0C       		.byte	0xc
 1723 0752 08       		.uleb128 0x8
 1724 0753 6B000000 		.4byte	.LASF111
 1725 0757 0E       		.byte	0xe
 1726 0758 42       		.byte	0x42
 1727 0759 1A       		.byte	0x1a
 1728 075a B7070000 		.4byte	0x7b7
 1729 075e 10       		.byte	0x10
 1730 075f 08       		.uleb128 0x8
 1731 0760 4A050000 		.4byte	.LASF112
 1732 0764 0E       		.byte	0xe
 1733 0765 44       		.byte	0x44
 1734 0766 1A       		.byte	0x1a
 1735 0767 B7070000 		.4byte	0x7b7
 1736 076b 14       		.byte	0x14
 1737 076c 08       		.uleb128 0x8
 1738 076d 5C060000 		.4byte	.LASF113
 1739 0771 0E       		.byte	0xe
 1740 0772 45       		.byte	0x45
 1741 0773 1A       		.byte	0x1a
 1742 0774 B7070000 		.4byte	0x7b7
 1743 0778 18       		.byte	0x18
 1744 0779 08       		.uleb128 0x8
 1745 077a DE080000 		.4byte	.LASF114
 1746 077e 0E       		.byte	0xe
 1747 077f 46       		.byte	0x46
 1748 0780 19       		.byte	0x19
 1749 0781 94070000 		.4byte	0x794
 1750 0785 1C       		.byte	0x1c
 1751 0786 08       		.uleb128 0x8
 1752 0787 A7090000 		.4byte	.LASF115
 1753 078b 0E       		.byte	0xe
 1754 078c 47       		.byte	0x47
 1755 078d 1A       		.byte	0x1a
 1756 078e E5020000 		.4byte	0x2e5
 1757 0792 20       		.byte	0x20
 1758 0793 00       		.byte	0
 1759 0794 03       		.uleb128 0x3
 1760 0795 43060000 		.4byte	.LASF116
 1761 0799 0E       		.byte	0xe
 1762 079a 33       		.byte	0x33
 1763 079b 10       		.byte	0x10
 1764 079c A0070000 		.4byte	0x7a0
 1765 07a0 0B       		.uleb128 0xb
 1766 07a1 04       		.byte	0x4
 1767 07a2 A6070000 		.4byte	0x7a6
ARM GAS  /var/folders/l5/0x54b2c10074c8bt31ycjvl80000gp/T//ccu784hR.s 			page 32


 1768 07a6 0D       		.uleb128 0xd
 1769 07a7 B1070000 		.4byte	0x7b1
 1770 07ab 0E       		.uleb128 0xe
 1771 07ac B1070000 		.4byte	0x7b1
 1772 07b0 00       		.byte	0
 1773 07b1 0B       		.uleb128 0xb
 1774 07b2 04       		.byte	0x4
 1775 07b3 12070000 		.4byte	0x712
 1776 07b7 0B       		.uleb128 0xb
 1777 07b8 04       		.byte	0x4
 1778 07b9 AC000000 		.4byte	0xac
 1779 07bd 03       		.uleb128 0x3
 1780 07be 91040000 		.4byte	.LASF117
 1781 07c2 0E       		.byte	0xe
 1782 07c3 7B       		.byte	0x7b
 1783 07c4 16       		.byte	0x16
 1784 07c5 12070000 		.4byte	0x712
 1785 07c9 03       		.uleb128 0x3
 1786 07ca 31000000 		.4byte	.LASF118
 1787 07ce 0E       		.byte	0xe
 1788 07cf EE       		.byte	0xee
 1789 07d0 16       		.byte	0x16
 1790 07d1 12070000 		.4byte	0x712
 1791 07d5 12       		.uleb128 0x12
 1792 07d6 2C000000 		.4byte	0x2c
 1793 07da EE070000 		.4byte	0x7ee
 1794 07de 0E       		.uleb128 0xe
 1795 07df E5020000 		.4byte	0x2e5
 1796 07e3 0E       		.uleb128 0xe
 1797 07e4 EE070000 		.4byte	0x7ee
 1798 07e8 0E       		.uleb128 0xe
 1799 07e9 2C000000 		.4byte	0x2c
 1800 07ed 00       		.byte	0
 1801 07ee 0B       		.uleb128 0xb
 1802 07ef 04       		.byte	0x4
 1803 07f0 B8000000 		.4byte	0xb8
 1804 07f4 0B       		.uleb128 0xb
 1805 07f5 04       		.byte	0x4
 1806 07f6 D5070000 		.4byte	0x7d5
 1807 07fa 12       		.uleb128 0x12
 1808 07fb 2C000000 		.4byte	0x2c
 1809 07ff 13080000 		.4byte	0x813
 1810 0803 0E       		.uleb128 0xe
 1811 0804 E5020000 		.4byte	0x2e5
 1812 0808 0E       		.uleb128 0xe
 1813 0809 B7070000 		.4byte	0x7b7
 1814 080d 0E       		.uleb128 0xe
 1815 080e 2C000000 		.4byte	0x2c
 1816 0812 00       		.byte	0
 1817 0813 0B       		.uleb128 0xb
 1818 0814 04       		.byte	0x4
 1819 0815 FA070000 		.4byte	0x7fa
 1820 0819 12       		.uleb128 0x12
 1821 081a 2E010000 		.4byte	0x12e
 1822 081e 2D080000 		.4byte	0x82d
 1823 0822 0E       		.uleb128 0xe
 1824 0823 E5020000 		.4byte	0x2e5
ARM GAS  /var/folders/l5/0x54b2c10074c8bt31ycjvl80000gp/T//ccu784hR.s 			page 33


 1825 0827 0E       		.uleb128 0xe
 1826 0828 AC000000 		.4byte	0xac
 1827 082c 00       		.byte	0
 1828 082d 0B       		.uleb128 0xb
 1829 082e 04       		.byte	0x4
 1830 082f 19080000 		.4byte	0x819
 1831 0833 13       		.uleb128 0x13
 1832 0834 CD020000 		.4byte	0x2cd
 1833 0838 43080000 		.4byte	0x843
 1834 083c 14       		.uleb128 0x14
 1835 083d 38000000 		.4byte	0x38
 1836 0841 26       		.byte	0x26
 1837 0842 00       		.byte	0
 1838 0843 0F       		.uleb128 0xf
 1839 0844 E6010000 		.4byte	.LASF119
 1840 0848 0F       		.byte	0xf
 1841 0849 82       		.byte	0x82
 1842 084a 08       		.byte	0x8
 1843 084b 33080000 		.4byte	0x833
 1844 084f 07       		.uleb128 0x7
 1845 0850 59000000 		.4byte	.LASF120
 1846 0854 20       		.byte	0x20
 1847 0855 10       		.byte	0x10
 1848 0856 FD       		.byte	0xfd
 1849 0857 08       		.byte	0x8
 1850 0858 CB080000 		.4byte	0x8cb
 1851 085c 08       		.uleb128 0x8
 1852 085d 2F020000 		.4byte	.LASF121
 1853 0861 10       		.byte	0x10
 1854 0862 FE       		.byte	0xfe
 1855 0863 19       		.byte	0x19
 1856 0864 3F000000 		.4byte	0x3f
 1857 0868 00       		.byte	0
 1858 0869 08       		.uleb128 0x8
 1859 086a BF080000 		.4byte	.LASF122
 1860 086e 10       		.byte	0x10
 1861 086f FF       		.byte	0xff
 1862 0870 19       		.byte	0x19
 1863 0871 3F000000 		.4byte	0x3f
 1864 0875 04       		.byte	0x4
 1865 0876 15       		.uleb128 0x15
 1866 0877 95090000 		.4byte	.LASF123
 1867 087b 10       		.byte	0x10
 1868 087c 0001     		.2byte	0x100
 1869 087e 19       		.byte	0x19
 1870 087f 3F000000 		.4byte	0x3f
 1871 0883 08       		.byte	0x8
 1872 0884 15       		.uleb128 0x15
 1873 0885 53020000 		.4byte	.LASF124
 1874 0889 10       		.byte	0x10
 1875 088a 0101     		.2byte	0x101
 1876 088c 19       		.byte	0x19
 1877 088d 3F000000 		.4byte	0x3f
 1878 0891 0C       		.byte	0xc
 1879 0892 15       		.uleb128 0x15
 1880 0893 B6000000 		.4byte	.LASF125
 1881 0897 10       		.byte	0x10
ARM GAS  /var/folders/l5/0x54b2c10074c8bt31ycjvl80000gp/T//ccu784hR.s 			page 34


 1882 0898 0201     		.2byte	0x102
 1883 089a 19       		.byte	0x19
 1884 089b 3F000000 		.4byte	0x3f
 1885 089f 10       		.byte	0x10
 1886 08a0 15       		.uleb128 0x15
 1887 08a1 EA040000 		.4byte	.LASF126
 1888 08a5 10       		.byte	0x10
 1889 08a6 0301     		.2byte	0x103
 1890 08a8 19       		.byte	0x19
 1891 08a9 3F000000 		.4byte	0x3f
 1892 08ad 14       		.byte	0x14
 1893 08ae 15       		.uleb128 0x15
 1894 08af 93010000 		.4byte	.LASF127
 1895 08b3 10       		.byte	0x10
 1896 08b4 0401     		.2byte	0x104
 1897 08b6 19       		.byte	0x19
 1898 08b7 3F000000 		.4byte	0x3f
 1899 08bb 18       		.byte	0x18
 1900 08bc 15       		.uleb128 0x15
 1901 08bd EB090000 		.4byte	.LASF128
 1902 08c1 10       		.byte	0x10
 1903 08c2 0501     		.2byte	0x105
 1904 08c4 19       		.byte	0x19
 1905 08c5 3F000000 		.4byte	0x3f
 1906 08c9 1C       		.byte	0x1c
 1907 08ca 00       		.byte	0
 1908 08cb 16       		.uleb128 0x16
 1909 08cc 59000000 		.4byte	.LASF120
 1910 08d0 10       		.byte	0x10
 1911 08d1 0801     		.2byte	0x108
 1912 08d3 1C       		.byte	0x1c
 1913 08d4 4F080000 		.4byte	0x84f
 1914 08d8 12       		.uleb128 0x12
 1915 08d9 2E010000 		.4byte	0x12e
 1916 08dd F1080000 		.4byte	0x8f1
 1917 08e1 0E       		.uleb128 0xe
 1918 08e2 E5020000 		.4byte	0x2e5
 1919 08e6 0E       		.uleb128 0xe
 1920 08e7 AC000000 		.4byte	0xac
 1921 08eb 0E       		.uleb128 0xe
 1922 08ec 52010000 		.4byte	0x152
 1923 08f0 00       		.byte	0
 1924 08f1 0B       		.uleb128 0xb
 1925 08f2 04       		.byte	0x4
 1926 08f3 D8080000 		.4byte	0x8d8
 1927 08f7 12       		.uleb128 0x12
 1928 08f8 2E010000 		.4byte	0x12e
 1929 08fc 0B090000 		.4byte	0x90b
 1930 0900 0E       		.uleb128 0xe
 1931 0901 E5020000 		.4byte	0x2e5
 1932 0905 0E       		.uleb128 0xe
 1933 0906 52010000 		.4byte	0x152
 1934 090a 00       		.byte	0
 1935 090b 0B       		.uleb128 0xb
 1936 090c 04       		.byte	0x4
 1937 090d F7080000 		.4byte	0x8f7
 1938 0911 12       		.uleb128 0x12
ARM GAS  /var/folders/l5/0x54b2c10074c8bt31ycjvl80000gp/T//ccu784hR.s 			page 35


 1939 0912 2C000000 		.4byte	0x2c
 1940 0916 2F090000 		.4byte	0x92f
 1941 091a 0E       		.uleb128 0xe
 1942 091b E5020000 		.4byte	0x2e5
 1943 091f 0E       		.uleb128 0xe
 1944 0920 EE070000 		.4byte	0x7ee
 1945 0924 0E       		.uleb128 0xe
 1946 0925 2C000000 		.4byte	0x2c
 1947 0929 0E       		.uleb128 0xe
 1948 092a 52010000 		.4byte	0x152
 1949 092e 00       		.byte	0
 1950 092f 0B       		.uleb128 0xb
 1951 0930 04       		.byte	0x4
 1952 0931 11090000 		.4byte	0x911
 1953 0935 12       		.uleb128 0x12
 1954 0936 2C000000 		.4byte	0x2c
 1955 093a 53090000 		.4byte	0x953
 1956 093e 0E       		.uleb128 0xe
 1957 093f E5020000 		.4byte	0x2e5
 1958 0943 0E       		.uleb128 0xe
 1959 0944 B7070000 		.4byte	0x7b7
 1960 0948 0E       		.uleb128 0xe
 1961 0949 2C000000 		.4byte	0x2c
 1962 094d 0E       		.uleb128 0xe
 1963 094e 52010000 		.4byte	0x152
 1964 0952 00       		.byte	0
 1965 0953 0B       		.uleb128 0xb
 1966 0954 04       		.byte	0x4
 1967 0955 35090000 		.4byte	0x935
 1968 0959 0A       		.uleb128 0xa
 1969 095a 18       		.byte	0x18
 1970 095b 11       		.byte	0x11
 1971 095c 2A       		.byte	0x2a
 1972 095d 09       		.byte	0x9
 1973 095e B1090000 		.4byte	0x9b1
 1974 0962 08       		.uleb128 0x8
 1975 0963 04090000 		.4byte	.LASF129
 1976 0967 11       		.byte	0x11
 1977 0968 2F       		.byte	0x2f
 1978 0969 15       		.byte	0x15
 1979 096a D5000000 		.4byte	0xd5
 1980 096e 00       		.byte	0
 1981 096f 08       		.uleb128 0x8
 1982 0970 EA050000 		.4byte	.LASF130
 1983 0974 11       		.byte	0x11
 1984 0975 31       		.byte	0x31
 1985 0976 16       		.byte	0x16
 1986 0977 B1090000 		.4byte	0x9b1
 1987 097b 04       		.byte	0x4
 1988 097c 08       		.uleb128 0x8
 1989 097d 3D030000 		.4byte	.LASF131
 1990 0981 11       		.byte	0x11
 1991 0982 32       		.byte	0x32
 1992 0983 16       		.byte	0x16
 1993 0984 B1090000 		.4byte	0x9b1
 1994 0988 08       		.byte	0x8
 1995 0989 08       		.uleb128 0x8
ARM GAS  /var/folders/l5/0x54b2c10074c8bt31ycjvl80000gp/T//ccu784hR.s 			page 36


 1996 098a CE040000 		.4byte	.LASF132
 1997 098e 11       		.byte	0x11
 1998 098f 33       		.byte	0x33
 1999 0990 16       		.byte	0x16
 2000 0991 B1090000 		.4byte	0x9b1
 2001 0995 0C       		.byte	0xc
 2002 0996 08       		.uleb128 0x8
 2003 0997 F0050000 		.4byte	.LASF133
 2004 099b 11       		.byte	0x11
 2005 099c 34       		.byte	0x34
 2006 099d 16       		.byte	0x16
 2007 099e B1090000 		.4byte	0x9b1
 2008 09a2 10       		.byte	0x10
 2009 09a3 08       		.uleb128 0x8
 2010 09a4 F3060000 		.4byte	.LASF134
 2011 09a8 11       		.byte	0x11
 2012 09a9 35       		.byte	0x35
 2013 09aa 10       		.byte	0x10
 2014 09ab 38000000 		.4byte	0x38
 2015 09af 14       		.byte	0x14
 2016 09b0 00       		.byte	0
 2017 09b1 0B       		.uleb128 0xb
 2018 09b2 04       		.byte	0x4
 2019 09b3 E1000000 		.4byte	0xe1
 2020 09b7 03       		.uleb128 0x3
 2021 09b8 31030000 		.4byte	.LASF135
 2022 09bc 11       		.byte	0x11
 2023 09bd 37       		.byte	0x37
 2024 09be 03       		.byte	0x3
 2025 09bf 59090000 		.4byte	0x959
 2026 09c3 17       		.uleb128 0x17
 2027 09c4 00       		.byte	0
 2028 09c5 11       		.byte	0x11
 2029 09c6 43       		.byte	0x43
 2030 09c7 09       		.byte	0x9
 2031 09c8 03       		.uleb128 0x3
 2032 09c9 AE090000 		.4byte	.LASF136
 2033 09cd 11       		.byte	0x11
 2034 09ce 45       		.byte	0x45
 2035 09cf 03       		.byte	0x3
 2036 09d0 C3090000 		.4byte	0x9c3
 2037 09d4 06       		.uleb128 0x6
 2038 09d5 C8090000 		.4byte	0x9c8
 2039 09d9 0F       		.uleb128 0xf
 2040 09da B9050000 		.4byte	.LASF137
 2041 09de 11       		.byte	0x11
 2042 09df 6D       		.byte	0x6d
 2043 09e0 14       		.byte	0x14
 2044 09e1 B7090000 		.4byte	0x9b7
 2045 09e5 0F       		.uleb128 0xf
 2046 09e6 0A070000 		.4byte	.LASF138
 2047 09ea 11       		.byte	0x11
 2048 09eb 6E       		.byte	0x6e
 2049 09ec 14       		.byte	0x14
 2050 09ed B7090000 		.4byte	0x9b7
 2051 09f1 0F       		.uleb128 0xf
 2052 09f2 C0090000 		.4byte	.LASF139
ARM GAS  /var/folders/l5/0x54b2c10074c8bt31ycjvl80000gp/T//ccu784hR.s 			page 37


 2053 09f6 11       		.byte	0x11
 2054 09f7 75       		.byte	0x75
 2055 09f8 18       		.byte	0x18
 2056 09f9 D4090000 		.4byte	0x9d4
 2057 09fd 18       		.uleb128 0x18
 2058 09fe 07       		.byte	0x7
 2059 09ff 01       		.byte	0x1
 2060 0a00 57000000 		.4byte	0x57
 2061 0a04 12       		.byte	0x12
 2062 0a05 54       		.byte	0x54
 2063 0a06 0E       		.byte	0xe
 2064 0a07 300A0000 		.4byte	0xa30
 2065 0a0b 19       		.uleb128 0x19
 2066 0a0c 50010000 		.4byte	.LASF140
 2067 0a10 00       		.byte	0
 2068 0a11 19       		.uleb128 0x19
 2069 0a12 E1040000 		.4byte	.LASF141
 2070 0a16 01       		.byte	0x1
 2071 0a17 19       		.uleb128 0x19
 2072 0a18 0A080000 		.4byte	.LASF142
 2073 0a1c 02       		.byte	0x2
 2074 0a1d 19       		.uleb128 0x19
 2075 0a1e C4010000 		.4byte	.LASF143
 2076 0a22 03       		.byte	0x3
 2077 0a23 19       		.uleb128 0x19
 2078 0a24 A2070000 		.4byte	.LASF144
 2079 0a28 04       		.byte	0x4
 2080 0a29 19       		.uleb128 0x19
 2081 0a2a 4B070000 		.4byte	.LASF145
 2082 0a2e 05       		.byte	0x5
 2083 0a2f 00       		.byte	0
 2084 0a30 03       		.uleb128 0x3
 2085 0a31 2D060000 		.4byte	.LASF146
 2086 0a35 12       		.byte	0x12
 2087 0a36 5B       		.byte	0x5b
 2088 0a37 03       		.byte	0x3
 2089 0a38 FD090000 		.4byte	0x9fd
 2090 0a3c 03       		.uleb128 0x3
 2091 0a3d 14080000 		.4byte	.LASF147
 2092 0a41 13       		.byte	0x13
 2093 0a42 38       		.byte	0x38
 2094 0a43 1A       		.byte	0x1a
 2095 0a44 480A0000 		.4byte	0xa48
 2096 0a48 07       		.uleb128 0x7
 2097 0a49 14080000 		.4byte	.LASF147
 2098 0a4d 40       		.byte	0x40
 2099 0a4e 13       		.byte	0x13
 2100 0a4f 62       		.byte	0x62
 2101 0a50 08       		.byte	0x8
 2102 0a51 FF0A0000 		.4byte	0xaff
 2103 0a55 08       		.uleb128 0x8
 2104 0a56 65010000 		.4byte	.LASF148
 2105 0a5a 13       		.byte	0x13
 2106 0a5b 64       		.byte	0x64
 2107 0a5c 1D       		.byte	0x1d
 2108 0a5d 300A0000 		.4byte	0xa30
 2109 0a61 00       		.byte	0
ARM GAS  /var/folders/l5/0x54b2c10074c8bt31ycjvl80000gp/T//ccu784hR.s 			page 38


 2110 0a62 08       		.uleb128 0x8
 2111 0a63 C7070000 		.4byte	.LASF149
 2112 0a67 13       		.byte	0x13
 2113 0a68 66       		.byte	0x66
 2114 0a69 1E       		.byte	0x1e
 2115 0a6a 3F0B0000 		.4byte	0xb3f
 2116 0a6e 04       		.byte	0x4
 2117 0a6f 08       		.uleb128 0x8
 2118 0a70 AA020000 		.4byte	.LASF150
 2119 0a74 13       		.byte	0x13
 2120 0a75 68       		.byte	0x68
 2121 0a76 1D       		.byte	0x1d
 2122 0a77 FF0A0000 		.4byte	0xaff
 2123 0a7b 08       		.byte	0x8
 2124 0a7c 08       		.uleb128 0x8
 2125 0a7d D9000000 		.4byte	.LASF151
 2126 0a81 13       		.byte	0x13
 2127 0a82 6A       		.byte	0x6a
 2128 0a83 1E       		.byte	0x1e
 2129 0a84 450B0000 		.4byte	0xb45
 2130 0a88 0C       		.byte	0xc
 2131 0a89 08       		.uleb128 0x8
 2132 0a8a 6F060000 		.4byte	.LASF152
 2133 0a8e 13       		.byte	0x13
 2134 0a8f 6D       		.byte	0x6d
 2135 0a90 1D       		.byte	0x1d
 2136 0a91 03050000 		.4byte	0x503
 2137 0a95 10       		.byte	0x10
 2138 0a96 08       		.uleb128 0x8
 2139 0a97 8C010000 		.4byte	.LASF153
 2140 0a9b 13       		.byte	0x13
 2141 0a9c 77       		.byte	0x77
 2142 0a9d 1E       		.byte	0x1e
 2143 0a9e 98020000 		.4byte	0x298
 2144 0aa2 20       		.byte	0x20
 2145 0aa3 08       		.uleb128 0x8
 2146 0aa4 41010000 		.4byte	.LASF154
 2147 0aa8 13       		.byte	0x13
 2148 0aa9 7B       		.byte	0x7b
 2149 0aaa 1D       		.byte	0x1d
 2150 0aab 0B0B0000 		.4byte	0xb0b
 2151 0aaf 24       		.byte	0x24
 2152 0ab0 08       		.uleb128 0x8
 2153 0ab1 94020000 		.4byte	.LASF155
 2154 0ab5 13       		.byte	0x13
 2155 0ab6 7F       		.byte	0x7f
 2156 0ab7 1E       		.byte	0x1e
 2157 0ab8 EE070000 		.4byte	0x7ee
 2158 0abc 28       		.byte	0x28
 2159 0abd 08       		.uleb128 0x8
 2160 0abe E3090000 		.4byte	.LASF156
 2161 0ac2 13       		.byte	0x13
 2162 0ac3 83       		.byte	0x83
 2163 0ac4 1D       		.byte	0x1d
 2164 0ac5 2C000000 		.4byte	0x2c
 2165 0ac9 2C       		.byte	0x2c
 2166 0aca 08       		.uleb128 0x8
ARM GAS  /var/folders/l5/0x54b2c10074c8bt31ycjvl80000gp/T//ccu784hR.s 			page 39


 2167 0acb 8B080000 		.4byte	.LASF157
 2168 0acf 13       		.byte	0x13
 2169 0ad0 87       		.byte	0x87
 2170 0ad1 1D       		.byte	0x1d
 2171 0ad2 2C000000 		.4byte	0x2c
 2172 0ad6 30       		.byte	0x30
 2173 0ad7 08       		.uleb128 0x8
 2174 0ad8 65000000 		.4byte	.LASF158
 2175 0adc 13       		.byte	0x13
 2176 0add 8B       		.byte	0x8b
 2177 0ade 1E       		.byte	0x1e
 2178 0adf B7070000 		.4byte	0x7b7
 2179 0ae3 34       		.byte	0x34
 2180 0ae4 08       		.uleb128 0x8
 2181 0ae5 42050000 		.4byte	.LASF159
 2182 0ae9 13       		.byte	0x13
 2183 0aea 8F       		.byte	0x8f
 2184 0aeb 1D       		.byte	0x1d
 2185 0aec 2C000000 		.4byte	0x2c
 2186 0af0 38       		.byte	0x38
 2187 0af1 08       		.uleb128 0x8
 2188 0af2 9D010000 		.4byte	.LASF160
 2189 0af6 13       		.byte	0x13
 2190 0af7 93       		.byte	0x93
 2191 0af8 1D       		.byte	0x1d
 2192 0af9 2C000000 		.4byte	0x2c
 2193 0afd 3C       		.byte	0x3c
 2194 0afe 00       		.byte	0
 2195 0aff 03       		.uleb128 0x3
 2196 0b00 64060000 		.4byte	.LASF161
 2197 0b04 13       		.byte	0x13
 2198 0b05 42       		.byte	0x42
 2199 0b06 12       		.byte	0x12
 2200 0b07 D5000000 		.4byte	0xd5
 2201 0b0b 03       		.uleb128 0x3
 2202 0b0c 5B010000 		.4byte	.LASF162
 2203 0b10 13       		.byte	0x13
 2204 0b11 48       		.byte	0x48
 2205 0b12 12       		.byte	0x12
 2206 0b13 BD000000 		.4byte	0xbd
 2207 0b17 0A       		.uleb128 0xa
 2208 0b18 04       		.byte	0x4
 2209 0b19 13       		.byte	0x13
 2210 0b1a 57       		.byte	0x57
 2211 0b1b 09       		.byte	0x9
 2212 0b1c 2E0B0000 		.4byte	0xb2e
 2213 0b20 08       		.uleb128 0x8
 2214 0b21 25050000 		.4byte	.LASF163
 2215 0b25 13       		.byte	0x13
 2216 0b26 59       		.byte	0x59
 2217 0b27 1D       		.byte	0x1d
 2218 0b28 D5000000 		.4byte	0xd5
 2219 0b2c 00       		.byte	0
 2220 0b2d 00       		.byte	0
 2221 0b2e 03       		.uleb128 0x3
 2222 0b2f 77080000 		.4byte	.LASF164
 2223 0b33 13       		.byte	0x13
ARM GAS  /var/folders/l5/0x54b2c10074c8bt31ycjvl80000gp/T//ccu784hR.s 			page 40


 2224 0b34 5B       		.byte	0x5b
 2225 0b35 03       		.byte	0x3
 2226 0b36 170B0000 		.4byte	0xb17
 2227 0b3a 06       		.uleb128 0x6
 2228 0b3b 2E0B0000 		.4byte	0xb2e
 2229 0b3f 0B       		.uleb128 0xb
 2230 0b40 04       		.byte	0x4
 2231 0b41 3A0B0000 		.4byte	0xb3a
 2232 0b45 0B       		.uleb128 0xb
 2233 0b46 04       		.byte	0x4
 2234 0b47 CB080000 		.4byte	0x8cb
 2235 0b4b 0F       		.uleb128 0xf
 2236 0b4c 6E020000 		.4byte	.LASF165
 2237 0b50 13       		.byte	0x13
 2238 0b51 A6       		.byte	0xa6
 2239 0b52 12       		.byte	0x12
 2240 0b53 3C0A0000 		.4byte	0xa3c
 2241 0b57 18       		.uleb128 0x18
 2242 0b58 07       		.byte	0x7
 2243 0b59 01       		.byte	0x1
 2244 0b5a 57000000 		.4byte	0x57
 2245 0b5e 14       		.byte	0x14
 2246 0b5f 5D       		.byte	0x5d
 2247 0b60 0E       		.byte	0xe
 2248 0b61 780B0000 		.4byte	0xb78
 2249 0b65 19       		.uleb128 0x19
 2250 0b66 61070000 		.4byte	.LASF166
 2251 0b6a 00       		.byte	0
 2252 0b6b 19       		.uleb128 0x19
 2253 0b6c 2A010000 		.4byte	.LASF167
 2254 0b70 01       		.byte	0x1
 2255 0b71 19       		.uleb128 0x19
 2256 0b72 46080000 		.4byte	.LASF168
 2257 0b76 02       		.byte	0x2
 2258 0b77 00       		.byte	0
 2259 0b78 03       		.uleb128 0x3
 2260 0b79 81080000 		.4byte	.LASF169
 2261 0b7d 14       		.byte	0x14
 2262 0b7e 61       		.byte	0x61
 2263 0b7f 03       		.byte	0x3
 2264 0b80 570B0000 		.4byte	0xb57
 2265 0b84 03       		.uleb128 0x3
 2266 0b85 95070000 		.4byte	.LASF170
 2267 0b89 14       		.byte	0x14
 2268 0b8a 66       		.byte	0x66
 2269 0b8b 1D       		.byte	0x1d
 2270 0b8c 900B0000 		.4byte	0xb90
 2271 0b90 07       		.uleb128 0x7
 2272 0b91 95070000 		.4byte	.LASF170
 2273 0b95 74       		.byte	0x74
 2274 0b96 14       		.byte	0x14
 2275 0b97 80       		.byte	0x80
 2276 0b98 08       		.byte	0x8
 2277 0b99 F70B0000 		.4byte	0xbf7
 2278 0b9d 09       		.uleb128 0x9
 2279 0b9e 766D7400 		.ascii	"vmt\000"
 2280 0ba2 14       		.byte	0x14
ARM GAS  /var/folders/l5/0x54b2c10074c8bt31ycjvl80000gp/T//ccu784hR.s 			page 41


 2281 0ba3 82       		.byte	0x82
 2282 0ba4 21       		.byte	0x21
 2283 0ba5 A60C0000 		.4byte	0xca6
 2284 0ba9 00       		.byte	0
 2285 0baa 08       		.uleb128 0x8
 2286 0bab 10030000 		.4byte	.LASF171
 2287 0baf 14       		.byte	0x14
 2288 0bb0 83       		.byte	0x83
 2289 0bb1 03       		.byte	0x3
 2290 0bb2 7E050000 		.4byte	0x57e
 2291 0bb6 04       		.byte	0x4
 2292 0bb7 08       		.uleb128 0x8
 2293 0bb8 65010000 		.4byte	.LASF148
 2294 0bbc 14       		.byte	0x14
 2295 0bbd 83       		.byte	0x83
 2296 0bbe 03       		.byte	0x3
 2297 0bbf 780B0000 		.4byte	0xb78
 2298 0bc3 08       		.byte	0x8
 2299 0bc4 08       		.uleb128 0x8
 2300 0bc5 B1020000 		.4byte	.LASF172
 2301 0bc9 14       		.byte	0x14
 2302 0bca 83       		.byte	0x83
 2303 0bcb 03       		.byte	0x3
 2304 0bcc BD070000 		.4byte	0x7bd
 2305 0bd0 0C       		.byte	0xc
 2306 0bd1 08       		.uleb128 0x8
 2307 0bd2 75030000 		.4byte	.LASF173
 2308 0bd6 14       		.byte	0x14
 2309 0bd7 83       		.byte	0x83
 2310 0bd8 03       		.byte	0x3
 2311 0bd9 C9070000 		.4byte	0x7c9
 2312 0bdd 30       		.byte	0x30
 2313 0bde 09       		.uleb128 0x9
 2314 0bdf 696200   		.ascii	"ib\000"
 2315 0be2 14       		.byte	0x14
 2316 0be3 83       		.byte	0x83
 2317 0be4 03       		.byte	0x3
 2318 0be5 AC0C0000 		.4byte	0xcac
 2319 0be9 54       		.byte	0x54
 2320 0bea 09       		.uleb128 0x9
 2321 0beb 6F6200   		.ascii	"ob\000"
 2322 0bee 14       		.byte	0x14
 2323 0bef 83       		.byte	0x83
 2324 0bf0 03       		.byte	0x3
 2325 0bf1 AC0C0000 		.4byte	0xcac
 2326 0bf5 64       		.byte	0x64
 2327 0bf6 00       		.byte	0
 2328 0bf7 0A       		.uleb128 0xa
 2329 0bf8 04       		.byte	0x4
 2330 0bf9 15       		.byte	0x15
 2331 0bfa 42       		.byte	0x42
 2332 0bfb 09       		.byte	0x9
 2333 0bfc 0E0C0000 		.4byte	0xc0e
 2334 0c00 08       		.uleb128 0x8
 2335 0c01 13000000 		.4byte	.LASF174
 2336 0c05 15       		.byte	0x15
 2337 0c06 44       		.byte	0x44
ARM GAS  /var/folders/l5/0x54b2c10074c8bt31ycjvl80000gp/T//ccu784hR.s 			page 42


 2338 0c07 1C       		.byte	0x1c
 2339 0c08 D5000000 		.4byte	0xd5
 2340 0c0c 00       		.byte	0
 2341 0c0d 00       		.byte	0
 2342 0c0e 03       		.uleb128 0x3
 2343 0c0f 91080000 		.4byte	.LASF175
 2344 0c13 15       		.byte	0x15
 2345 0c14 45       		.byte	0x45
 2346 0c15 03       		.byte	0x3
 2347 0c16 F70B0000 		.4byte	0xbf7
 2348 0c1a 06       		.uleb128 0x6
 2349 0c1b 0E0C0000 		.4byte	0xc0e
 2350 0c1f 1A       		.uleb128 0x1a
 2351 0c20 53443100 		.ascii	"SD1\000"
 2352 0c24 15       		.byte	0x15
 2353 0c25 62       		.byte	0x62
 2354 0c26 15       		.byte	0x15
 2355 0c27 840B0000 		.4byte	0xb84
 2356 0c2b 07       		.uleb128 0x7
 2357 0c2c 9A020000 		.4byte	.LASF176
 2358 0c30 20       		.byte	0x20
 2359 0c31 14       		.byte	0x14
 2360 0c32 75       		.byte	0x75
 2361 0c33 08       		.byte	0x8
 2362 0c34 A10C0000 		.4byte	0xca1
 2363 0c38 08       		.uleb128 0x8
 2364 0c39 2B000000 		.4byte	.LASF177
 2365 0c3d 14       		.byte	0x14
 2366 0c3e 76       		.byte	0x76
 2367 0c3f 03       		.byte	0x3
 2368 0c40 F4070000 		.4byte	0x7f4
 2369 0c44 00       		.byte	0
 2370 0c45 08       		.uleb128 0x8
 2371 0c46 B0070000 		.4byte	.LASF178
 2372 0c4a 14       		.byte	0x14
 2373 0c4b 76       		.byte	0x76
 2374 0c4c 03       		.byte	0x3
 2375 0c4d 13080000 		.4byte	0x813
 2376 0c51 04       		.byte	0x4
 2377 0c52 09       		.uleb128 0x9
 2378 0c53 70757400 		.ascii	"put\000"
 2379 0c57 14       		.byte	0x14
 2380 0c58 76       		.byte	0x76
 2381 0c59 03       		.byte	0x3
 2382 0c5a 2D080000 		.4byte	0x82d
 2383 0c5e 08       		.byte	0x8
 2384 0c5f 09       		.uleb128 0x9
 2385 0c60 67657400 		.ascii	"get\000"
 2386 0c64 14       		.byte	0x14
 2387 0c65 76       		.byte	0x76
 2388 0c66 03       		.byte	0x3
 2389 0c67 DC050000 		.4byte	0x5dc
 2390 0c6b 0C       		.byte	0xc
 2391 0c6c 08       		.uleb128 0x8
 2392 0c6d D4040000 		.4byte	.LASF179
 2393 0c71 14       		.byte	0x14
 2394 0c72 76       		.byte	0x76
ARM GAS  /var/folders/l5/0x54b2c10074c8bt31ycjvl80000gp/T//ccu784hR.s 			page 43


 2395 0c73 03       		.byte	0x3
 2396 0c74 F1080000 		.4byte	0x8f1
 2397 0c78 10       		.byte	0x10
 2398 0c79 08       		.uleb128 0x8
 2399 0c7a DF020000 		.4byte	.LASF180
 2400 0c7e 14       		.byte	0x14
 2401 0c7f 76       		.byte	0x76
 2402 0c80 03       		.byte	0x3
 2403 0c81 0B090000 		.4byte	0x90b
 2404 0c85 14       		.byte	0x14
 2405 0c86 08       		.uleb128 0x8
 2406 0c87 6A040000 		.4byte	.LASF181
 2407 0c8b 14       		.byte	0x14
 2408 0c8c 76       		.byte	0x76
 2409 0c8d 03       		.byte	0x3
 2410 0c8e 2F090000 		.4byte	0x92f
 2411 0c92 18       		.byte	0x18
 2412 0c93 08       		.uleb128 0x8
 2413 0c94 D3000000 		.4byte	.LASF182
 2414 0c98 14       		.byte	0x14
 2415 0c99 76       		.byte	0x76
 2416 0c9a 03       		.byte	0x3
 2417 0c9b 53090000 		.4byte	0x953
 2418 0c9f 1C       		.byte	0x1c
 2419 0ca0 00       		.byte	0
 2420 0ca1 06       		.uleb128 0x6
 2421 0ca2 2B0C0000 		.4byte	0xc2b
 2422 0ca6 0B       		.uleb128 0xb
 2423 0ca7 04       		.byte	0x4
 2424 0ca8 A10C0000 		.4byte	0xca1
 2425 0cac 13       		.uleb128 0x13
 2426 0cad AC000000 		.4byte	0xac
 2427 0cb1 BC0C0000 		.4byte	0xcbc
 2428 0cb5 14       		.uleb128 0x14
 2429 0cb6 38000000 		.4byte	0x38
 2430 0cba 0F       		.byte	0xf
 2431 0cbb 00       		.byte	0
 2432 0cbc 18       		.uleb128 0x18
 2433 0cbd 07       		.byte	0x7
 2434 0cbe 01       		.byte	0x1
 2435 0cbf 57000000 		.4byte	0x57
 2436 0cc3 16       		.byte	0x16
 2437 0cc4 4E       		.byte	0x4e
 2438 0cc5 0E       		.byte	0xe
 2439 0cc6 E90C0000 		.4byte	0xce9
 2440 0cca 19       		.uleb128 0x19
 2441 0ccb 59080000 		.4byte	.LASF183
 2442 0ccf 00       		.byte	0
 2443 0cd0 19       		.uleb128 0x19
 2444 0cd1 14010000 		.4byte	.LASF184
 2445 0cd5 01       		.byte	0x1
 2446 0cd6 19       		.uleb128 0x19
 2447 0cd7 4F080000 		.4byte	.LASF185
 2448 0cdb 02       		.byte	0x2
 2449 0cdc 19       		.uleb128 0x19
 2450 0cdd 47000000 		.4byte	.LASF186
 2451 0ce1 03       		.byte	0x3
ARM GAS  /var/folders/l5/0x54b2c10074c8bt31ycjvl80000gp/T//ccu784hR.s 			page 44


 2452 0ce2 19       		.uleb128 0x19
 2453 0ce3 BA070000 		.4byte	.LASF187
 2454 0ce7 04       		.byte	0x4
 2455 0ce8 00       		.byte	0
 2456 0ce9 03       		.uleb128 0x3
 2457 0cea D9070000 		.4byte	.LASF188
 2458 0cee 16       		.byte	0x16
 2459 0cef 54       		.byte	0x54
 2460 0cf0 03       		.byte	0x3
 2461 0cf1 BC0C0000 		.4byte	0xcbc
 2462 0cf5 03       		.uleb128 0x3
 2463 0cf6 A4000000 		.4byte	.LASF189
 2464 0cfa 17       		.byte	0x17
 2465 0cfb 35       		.byte	0x35
 2466 0cfc 1A       		.byte	0x1a
 2467 0cfd 010D0000 		.4byte	0xd01
 2468 0d01 07       		.uleb128 0x7
 2469 0d02 A4000000 		.4byte	.LASF189
 2470 0d06 28       		.byte	0x28
 2471 0d07 17       		.byte	0x17
 2472 0d08 7C       		.byte	0x7c
 2473 0d09 08       		.byte	0x8
 2474 0d0a 6A0D0000 		.4byte	0xd6a
 2475 0d0e 08       		.uleb128 0x8
 2476 0d0f 65010000 		.4byte	.LASF148
 2477 0d13 17       		.byte	0x17
 2478 0d14 80       		.byte	0x80
 2479 0d15 19       		.byte	0x19
 2480 0d16 E90C0000 		.4byte	0xce9
 2481 0d1a 00       		.byte	0
 2482 0d1b 08       		.uleb128 0x8
 2483 0d1c C7070000 		.4byte	.LASF149
 2484 0d20 17       		.byte	0x17
 2485 0d21 84       		.byte	0x84
 2486 0d22 1A       		.byte	0x1a
 2487 0d23 1D0E0000 		.4byte	0xe1d
 2488 0d27 04       		.byte	0x4
 2489 0d28 08       		.uleb128 0x8
 2490 0d29 8C010000 		.4byte	.LASF153
 2491 0d2d 17       		.byte	0x17
 2492 0d2e 89       		.byte	0x89
 2493 0d2f 1A       		.byte	0x1a
 2494 0d30 98020000 		.4byte	0x298
 2495 0d34 08       		.byte	0x8
 2496 0d35 08       		.uleb128 0x8
 2497 0d36 6F060000 		.4byte	.LASF152
 2498 0d3a 17       		.byte	0x17
 2499 0d3b 90       		.byte	0x90
 2500 0d3c 19       		.byte	0x19
 2501 0d3d 03050000 		.4byte	0x503
 2502 0d41 0C       		.byte	0xc
 2503 0d42 08       		.uleb128 0x8
 2504 0d43 65000000 		.4byte	.LASF158
 2505 0d47 17       		.byte	0x17
 2506 0d48 98       		.byte	0x98
 2507 0d49 1A       		.byte	0x1a
 2508 0d4a E5020000 		.4byte	0x2e5
ARM GAS  /var/folders/l5/0x54b2c10074c8bt31ycjvl80000gp/T//ccu784hR.s 			page 45


 2509 0d4e 1C       		.byte	0x1c
 2510 0d4f 08       		.uleb128 0x8
 2511 0d50 94020000 		.4byte	.LASF155
 2512 0d54 17       		.byte	0x17
 2513 0d55 9D       		.byte	0x9d
 2514 0d56 1A       		.byte	0x1a
 2515 0d57 230E0000 		.4byte	0xe23
 2516 0d5b 20       		.byte	0x20
 2517 0d5c 08       		.uleb128 0x8
 2518 0d5d FD010000 		.4byte	.LASF190
 2519 0d61 17       		.byte	0x17
 2520 0d62 A2       		.byte	0xa2
 2521 0d63 17       		.byte	0x17
 2522 0d64 2C000000 		.4byte	0x2c
 2523 0d68 24       		.byte	0x24
 2524 0d69 00       		.byte	0
 2525 0d6a 03       		.uleb128 0x3
 2526 0d6b 60020000 		.4byte	.LASF191
 2527 0d6f 17       		.byte	0x17
 2528 0d70 3D       		.byte	0x3d
 2529 0d71 10       		.byte	0x10
 2530 0d72 760D0000 		.4byte	0xd76
 2531 0d76 0B       		.uleb128 0xb
 2532 0d77 04       		.byte	0x4
 2533 0d78 7C0D0000 		.4byte	0xd7c
 2534 0d7c 0D       		.uleb128 0xd
 2535 0d7d 870D0000 		.4byte	0xd87
 2536 0d81 0E       		.uleb128 0xe
 2537 0d82 870D0000 		.4byte	0xd87
 2538 0d86 00       		.byte	0
 2539 0d87 0B       		.uleb128 0xb
 2540 0d88 04       		.byte	0x4
 2541 0d89 F50C0000 		.4byte	0xcf5
 2542 0d8d 0A       		.uleb128 0xa
 2543 0d8e 10       		.byte	0x10
 2544 0d8f 17       		.byte	0x17
 2545 0d90 44       		.byte	0x44
 2546 0d91 09       		.byte	0x9
 2547 0d92 0C0E0000 		.4byte	0xe0c
 2548 0d96 08       		.uleb128 0x8
 2549 0d97 F6010000 		.4byte	.LASF192
 2550 0d9b 17       		.byte	0x17
 2551 0d9c 48       		.byte	0x48
 2552 0d9d 19       		.byte	0x19
 2553 0d9e 6A0D0000 		.4byte	0xd6a
 2554 0da2 00       		.byte	0
 2555 0da3 08       		.uleb128 0x8
 2556 0da4 F9050000 		.4byte	.LASF193
 2557 0da8 17       		.byte	0x17
 2558 0da9 4F       		.byte	0x4f
 2559 0daa 19       		.byte	0x19
 2560 0dab AC000000 		.4byte	0xac
 2561 0daf 04       		.byte	0x4
 2562 0db0 08       		.uleb128 0x8
 2563 0db1 19060000 		.4byte	.LASF194
 2564 0db5 17       		.byte	0x17
 2565 0db6 52       		.byte	0x52
ARM GAS  /var/folders/l5/0x54b2c10074c8bt31ycjvl80000gp/T//ccu784hR.s 			page 46


 2566 0db7 19       		.byte	0x19
 2567 0db8 AC000000 		.4byte	0xac
 2568 0dbc 05       		.byte	0x5
 2569 0dbd 08       		.uleb128 0x8
 2570 0dbe FB020000 		.4byte	.LASF195
 2571 0dc2 17       		.byte	0x17
 2572 0dc3 58       		.byte	0x58
 2573 0dc4 19       		.byte	0x19
 2574 0dc5 AC000000 		.4byte	0xac
 2575 0dc9 06       		.byte	0x6
 2576 0dca 08       		.uleb128 0x8
 2577 0dcb 03020000 		.4byte	.LASF196
 2578 0dcf 17       		.byte	0x17
 2579 0dd0 5E       		.byte	0x5e
 2580 0dd1 19       		.byte	0x19
 2581 0dd2 AC000000 		.4byte	0xac
 2582 0dd6 07       		.byte	0x7
 2583 0dd7 08       		.uleb128 0x8
 2584 0dd8 19020000 		.4byte	.LASF197
 2585 0ddc 17       		.byte	0x17
 2586 0ddd 64       		.byte	0x64
 2587 0dde 19       		.byte	0x19
 2588 0ddf AC000000 		.4byte	0xac
 2589 0de3 08       		.byte	0x8
 2590 0de4 08       		.uleb128 0x8
 2591 0de5 25080000 		.4byte	.LASF198
 2592 0de9 17       		.byte	0x17
 2593 0dea 6A       		.byte	0x6a
 2594 0deb 19       		.byte	0x19
 2595 0dec AC000000 		.4byte	0xac
 2596 0df0 09       		.byte	0x9
 2597 0df1 08       		.uleb128 0x8
 2598 0df2 D2010000 		.4byte	.LASF199
 2599 0df6 17       		.byte	0x17
 2600 0df7 70       		.byte	0x70
 2601 0df8 19       		.byte	0x19
 2602 0df9 AC000000 		.4byte	0xac
 2603 0dfd 0A       		.byte	0xa
 2604 0dfe 08       		.uleb128 0x8
 2605 0dff 30070000 		.4byte	.LASF200
 2606 0e03 17       		.byte	0x17
 2607 0e04 73       		.byte	0x73
 2608 0e05 19       		.byte	0x19
 2609 0e06 D5000000 		.4byte	0xd5
 2610 0e0a 0C       		.byte	0xc
 2611 0e0b 00       		.byte	0
 2612 0e0c 03       		.uleb128 0x3
 2613 0e0d 5D090000 		.4byte	.LASF201
 2614 0e11 17       		.byte	0x17
 2615 0e12 75       		.byte	0x75
 2616 0e13 03       		.byte	0x3
 2617 0e14 8D0D0000 		.4byte	0xd8d
 2618 0e18 06       		.uleb128 0x6
 2619 0e19 0C0E0000 		.4byte	0xe0c
 2620 0e1d 0B       		.uleb128 0xb
 2621 0e1e 04       		.byte	0x4
 2622 0e1f 180E0000 		.4byte	0xe18
ARM GAS  /var/folders/l5/0x54b2c10074c8bt31ycjvl80000gp/T//ccu784hR.s 			page 47


 2623 0e23 0B       		.uleb128 0xb
 2624 0e24 04       		.byte	0x4
 2625 0e25 290E0000 		.4byte	0xe29
 2626 0e29 1B       		.uleb128 0x1b
 2627 0e2a 0F       		.uleb128 0xf
 2628 0e2b B5010000 		.4byte	.LASF202
 2629 0e2f 17       		.byte	0x17
 2630 0e30 B6       		.byte	0xb6
 2631 0e31 14       		.byte	0x14
 2632 0e32 F50C0000 		.4byte	0xcf5
 2633 0e36 1C       		.uleb128 0x1c
 2634 0e37 1F0C0000 		.4byte	0xc1f
 2635 0e3b 01       		.byte	0x1
 2636 0e3c 2A       		.byte	0x2a
 2637 0e3d 0E       		.byte	0xe
 2638 0e3e 05       		.uleb128 0x5
 2639 0e3f 03       		.byte	0x3
 2640 0e40 00000000 		.4byte	SD1
 2641 0e44 1D       		.uleb128 0x1d
 2642 0e45 C1050000 		.4byte	.LASF219
 2643 0e49 01       		.byte	0x1
 2644 0e4a 33       		.byte	0x33
 2645 0e4b 1B       		.byte	0x1b
 2646 0e4c 1A0C0000 		.4byte	0xc1a
 2647 0e50 05       		.uleb128 0x5
 2648 0e51 03       		.byte	0x3
 2649 0e52 00000000 		.4byte	default_config
 2650 0e56 1E       		.uleb128 0x1e
 2651 0e57 38090000 		.4byte	.LASF203
 2652 0e5b 01       		.byte	0x1
 2653 0e5c B8       		.byte	0xb8
 2654 0e5d 06       		.byte	0x6
 2655 0e5e 00000000 		.4byte	.LFB15
 2656 0e62 94000000 		.4byte	.LFE15-.LFB15
 2657 0e66 01       		.uleb128 0x1
 2658 0e67 9C       		.byte	0x9c
 2659 0e68 140F0000 		.4byte	0xf14
 2660 0e6c 1F       		.uleb128 0x1f
 2661 0e6d 6400     		.ascii	"d\000"
 2662 0e6f 01       		.byte	0x1
 2663 0e70 B8       		.byte	0xb8
 2664 0e71 23       		.byte	0x23
 2665 0e72 D5000000 		.4byte	0xd5
 2666 0e76 01       		.uleb128 0x1
 2667 0e77 50       		.byte	0x50
 2668 0e78 20       		.uleb128 0x20
 2669 0e79 AE000000 		.4byte	.LASF205
 2670 0e7d 01       		.byte	0x1
 2671 0e7e B8       		.byte	0xb8
 2672 0e7f 2D       		.byte	0x2d
 2673 0e80 E6000000 		.4byte	0xe6
 2674 0e84 04000000 		.4byte	.LLST8
 2675 0e88 00000000 		.4byte	.LVUS8
 2676 0e8c 21       		.uleb128 0x21
 2677 0e8d 726200   		.ascii	"rb\000"
 2678 0e90 01       		.byte	0x1
 2679 0e91 BA       		.byte	0xba
ARM GAS  /var/folders/l5/0x54b2c10074c8bt31ycjvl80000gp/T//ccu784hR.s 			page 48


 2680 0e92 0C       		.byte	0xc
 2681 0e93 D5000000 		.4byte	0xd5
 2682 0e97 29000000 		.4byte	.LLST9
 2683 0e9b 25000000 		.4byte	.LVUS9
 2684 0e9f 21       		.uleb128 0x21
 2685 0ea0 726300   		.ascii	"rc\000"
 2686 0ea3 01       		.byte	0x1
 2687 0ea4 BB       		.byte	0xbb
 2688 0ea5 0C       		.byte	0xc
 2689 0ea6 D5000000 		.4byte	0xd5
 2690 0eaa 4D000000 		.4byte	.LLST10
 2691 0eae 49000000 		.4byte	.LVUS10
 2692 0eb2 22       		.uleb128 0x22
 2693 0eb3 650F0000 		.4byte	0xf65
 2694 0eb7 24000000 		.4byte	.LBI21
 2695 0ebb 01       		.byte	.LVU174
 2696 0ebc 18000000 		.4byte	.Ldebug_ranges0+0x18
 2697 0ec0 01       		.byte	0x1
 2698 0ec1 C6       		.byte	0xc6
 2699 0ec2 05       		.byte	0x5
 2700 0ec3 D50E0000 		.4byte	0xed5
 2701 0ec7 23       		.uleb128 0x23
 2702 0ec8 720F0000 		.4byte	0xf72
 2703 0ecc 6D000000 		.4byte	.LLST11
 2704 0ed0 6B000000 		.4byte	.LVUS11
 2705 0ed4 00       		.byte	0
 2706 0ed5 24       		.uleb128 0x24
 2707 0ed6 650F0000 		.4byte	0xf65
 2708 0eda 38000000 		.4byte	.Ldebug_ranges0+0x38
 2709 0ede 01       		.byte	0x1
 2710 0edf CA       		.byte	0xca
 2711 0ee0 03       		.byte	0x3
 2712 0ee1 EB0E0000 		.4byte	0xeeb
 2713 0ee5 25       		.uleb128 0x25
 2714 0ee6 720F0000 		.4byte	0xf72
 2715 0eea 00       		.byte	0
 2716 0eeb 24       		.uleb128 0x24
 2717 0eec 650F0000 		.4byte	0xf65
 2718 0ef0 50000000 		.4byte	.Ldebug_ranges0+0x50
 2719 0ef4 01       		.byte	0x1
 2720 0ef5 CD       		.byte	0xcd
 2721 0ef6 05       		.byte	0x5
 2722 0ef7 010F0000 		.4byte	0xf01
 2723 0efb 25       		.uleb128 0x25
 2724 0efc 720F0000 		.4byte	0xf72
 2725 0f00 00       		.byte	0
 2726 0f01 26       		.uleb128 0x26
 2727 0f02 650F0000 		.4byte	0xf65
 2728 0f06 68000000 		.4byte	.Ldebug_ranges0+0x68
 2729 0f0a 01       		.byte	0x1
 2730 0f0b CE       		.byte	0xce
 2731 0f0c 05       		.byte	0x5
 2732 0f0d 25       		.uleb128 0x25
 2733 0f0e 720F0000 		.4byte	0xf72
 2734 0f12 00       		.byte	0
 2735 0f13 00       		.byte	0
 2736 0f14 1E       		.uleb128 0x1e
ARM GAS  /var/folders/l5/0x54b2c10074c8bt31ycjvl80000gp/T//ccu784hR.s 			page 49


 2737 0f15 0A090000 		.4byte	.LASF204
 2738 0f19 01       		.byte	0x1
 2739 0f1a B2       		.byte	0xb2
 2740 0f1b 06       		.byte	0x6
 2741 0f1c 00000000 		.4byte	.LFB14
 2742 0f20 34000000 		.4byte	.LFE14-.LFB14
 2743 0f24 01       		.uleb128 0x1
 2744 0f25 9C       		.byte	0x9c
 2745 0f26 650F0000 		.4byte	0xf65
 2746 0f2a 27       		.uleb128 0x27
 2747 0f2b 7300     		.ascii	"s\000"
 2748 0f2d 01       		.byte	0x1
 2749 0f2e B2       		.byte	0xb2
 2750 0f2f 25       		.byte	0x25
 2751 0f30 C4050000 		.4byte	0x5c4
 2752 0f34 88000000 		.4byte	.LLST6
 2753 0f38 80000000 		.4byte	.LVUS6
 2754 0f3c 21       		.uleb128 0x21
 2755 0f3d 6300     		.ascii	"c\000"
 2756 0f3f 01       		.byte	0x1
 2757 0f40 B4       		.byte	0xb4
 2758 0f41 08       		.byte	0x8
 2759 0f42 CA050000 		.4byte	0x5ca
 2760 0f46 C4000000 		.4byte	.LLST7
 2761 0f4a C0000000 		.4byte	.LVUS7
 2762 0f4e 28       		.uleb128 0x28
 2763 0f4f 650F0000 		.4byte	0xf65
 2764 0f53 0C000000 		.4byte	.LBB19
 2765 0f57 14000000 		.4byte	.LBE19-.LBB19
 2766 0f5b 01       		.byte	0x1
 2767 0f5c B5       		.byte	0xb5
 2768 0f5d 15       		.byte	0x15
 2769 0f5e 25       		.uleb128 0x25
 2770 0f5f 720F0000 		.4byte	0xf72
 2771 0f63 00       		.byte	0
 2772 0f64 00       		.byte	0
 2773 0f65 29       		.uleb128 0x29
 2774 0f66 74010000 		.4byte	.LASF220
 2775 0f6a 01       		.byte	0x1
 2776 0f6b AC       		.byte	0xac
 2777 0f6c 06       		.byte	0x6
 2778 0f6d 01       		.byte	0x1
 2779 0f6e 7D0F0000 		.4byte	0xf7d
 2780 0f72 2A       		.uleb128 0x2a
 2781 0f73 6300     		.ascii	"c\000"
 2782 0f75 01       		.byte	0x1
 2783 0f76 AC       		.byte	0xac
 2784 0f77 20       		.byte	0x20
 2785 0f78 D5000000 		.4byte	0xd5
 2786 0f7c 00       		.byte	0
 2787 0f7d 2B       		.uleb128 0x2b
 2788 0f7e A9080000 		.4byte	.LASF221
 2789 0f82 01       		.byte	0x1
 2790 0f83 A6       		.byte	0xa6
 2791 0f84 0A       		.byte	0xa
 2792 0f85 D5000000 		.4byte	0xd5
 2793 0f89 00000000 		.4byte	.LFB12
ARM GAS  /var/folders/l5/0x54b2c10074c8bt31ycjvl80000gp/T//ccu784hR.s 			page 50


 2794 0f8d 20000000 		.4byte	.LFE12-.LFB12
 2795 0f91 01       		.uleb128 0x1
 2796 0f92 9C       		.byte	0x9c
 2797 0f93 1E       		.uleb128 0x1e
 2798 0f94 89090000 		.4byte	.LASF206
 2799 0f98 01       		.byte	0x1
 2800 0f99 9E       		.byte	0x9e
 2801 0f9a 06       		.byte	0x6
 2802 0f9b 00000000 		.4byte	.LFB11
 2803 0f9f 34000000 		.4byte	.LFE11-.LFB11
 2804 0fa3 01       		.uleb128 0x1
 2805 0fa4 9C       		.byte	0x9c
 2806 0fa5 EA0F0000 		.4byte	0xfea
 2807 0fa9 27       		.uleb128 0x27
 2808 0faa 73647000 		.ascii	"sdp\000"
 2809 0fae 01       		.byte	0x1
 2810 0faf 9E       		.byte	0x9e
 2811 0fb0 20       		.byte	0x20
 2812 0fb1 EA0F0000 		.4byte	0xfea
 2813 0fb5 E8000000 		.4byte	.LLST5
 2814 0fb9 E4000000 		.4byte	.LVUS5
 2815 0fbd 2C       		.uleb128 0x2c
 2816 0fbe 20000000 		.4byte	.LVL21
 2817 0fc2 90110000 		.4byte	0x1190
 2818 0fc6 D50F0000 		.4byte	0xfd5
 2819 0fca 2D       		.uleb128 0x2d
 2820 0fcb 01       		.uleb128 0x1
 2821 0fcc 50       		.byte	0x50
 2822 0fcd 01       		.uleb128 0x1
 2823 0fce 3E       		.byte	0x3e
 2824 0fcf 2D       		.uleb128 0x2d
 2825 0fd0 01       		.uleb128 0x1
 2826 0fd1 51       		.byte	0x51
 2827 0fd2 01       		.uleb128 0x1
 2828 0fd3 30       		.byte	0x30
 2829 0fd4 00       		.byte	0
 2830 0fd5 2E       		.uleb128 0x2e
 2831 0fd6 30000000 		.4byte	.LVL22
 2832 0fda 90110000 		.4byte	0x1190
 2833 0fde 2D       		.uleb128 0x2d
 2834 0fdf 01       		.uleb128 0x1
 2835 0fe0 50       		.byte	0x50
 2836 0fe1 01       		.uleb128 0x1
 2837 0fe2 3F       		.byte	0x3f
 2838 0fe3 2D       		.uleb128 0x2d
 2839 0fe4 01       		.uleb128 0x1
 2840 0fe5 51       		.byte	0x51
 2841 0fe6 01       		.uleb128 0x1
 2842 0fe7 30       		.byte	0x30
 2843 0fe8 00       		.byte	0
 2844 0fe9 00       		.byte	0
 2845 0fea 0B       		.uleb128 0xb
 2846 0feb 04       		.byte	0x4
 2847 0fec 840B0000 		.4byte	0xb84
 2848 0ff0 2F       		.uleb128 0x2f
 2849 0ff1 8B060000 		.4byte	.LASF207
 2850 0ff5 01       		.byte	0x1
ARM GAS  /var/folders/l5/0x54b2c10074c8bt31ycjvl80000gp/T//ccu784hR.s 			page 51


 2851 0ff6 75       		.byte	0x75
 2852 0ff7 06       		.byte	0x6
 2853 0ff8 00000000 		.4byte	.LFB10
 2854 0ffc C4000000 		.4byte	.LFE10-.LFB10
 2855 1000 01       		.uleb128 0x1
 2856 1001 9C       		.byte	0x9c
 2857 1002 83100000 		.4byte	0x1083
 2858 1006 27       		.uleb128 0x27
 2859 1007 73647000 		.ascii	"sdp\000"
 2860 100b 01       		.byte	0x1
 2861 100c 75       		.byte	0x75
 2862 100d 21       		.byte	0x21
 2863 100e EA0F0000 		.4byte	0xfea
 2864 1012 0D010000 		.4byte	.LLST3
 2865 1016 09010000 		.4byte	.LVUS3
 2866 101a 20       		.uleb128 0x20
 2867 101b C7070000 		.4byte	.LASF149
 2868 101f 01       		.byte	0x1
 2869 1020 75       		.byte	0x75
 2870 1021 3A       		.byte	0x3a
 2871 1022 83100000 		.4byte	0x1083
 2872 1026 34010000 		.4byte	.LLST4
 2873 102a 2E010000 		.4byte	.LVUS4
 2874 102e 2C       		.uleb128 0x2c
 2875 102f 78000000 		.4byte	.LVL15
 2876 1033 90110000 		.4byte	0x1190
 2877 1037 46100000 		.4byte	0x1046
 2878 103b 2D       		.uleb128 0x2d
 2879 103c 01       		.uleb128 0x1
 2880 103d 50       		.byte	0x50
 2881 103e 01       		.uleb128 0x1
 2882 103f 3E       		.byte	0x3e
 2883 1040 2D       		.uleb128 0x2d
 2884 1041 01       		.uleb128 0x1
 2885 1042 51       		.byte	0x51
 2886 1043 01       		.uleb128 0x1
 2887 1044 32       		.byte	0x32
 2888 1045 00       		.byte	0
 2889 1046 2C       		.uleb128 0x2c
 2890 1047 84000000 		.4byte	.LVL16
 2891 104b 90110000 		.4byte	0x1190
 2892 104f 5E100000 		.4byte	0x105e
 2893 1053 2D       		.uleb128 0x2d
 2894 1054 01       		.uleb128 0x1
 2895 1055 50       		.byte	0x50
 2896 1056 01       		.uleb128 0x1
 2897 1057 3F       		.byte	0x3f
 2898 1058 2D       		.uleb128 0x2d
 2899 1059 01       		.uleb128 0x1
 2900 105a 51       		.byte	0x51
 2901 105b 01       		.uleb128 0x1
 2902 105c 32       		.byte	0x32
 2903 105d 00       		.byte	0
 2904 105e 2C       		.uleb128 0x2c
 2905 105f 90000000 		.4byte	.LVL17
 2906 1063 9D110000 		.4byte	0x119d
 2907 1067 72100000 		.4byte	0x1072
ARM GAS  /var/folders/l5/0x54b2c10074c8bt31ycjvl80000gp/T//ccu784hR.s 			page 52


 2908 106b 2D       		.uleb128 0x2d
 2909 106c 01       		.uleb128 0x1
 2910 106d 50       		.byte	0x50
 2911 106e 02       		.uleb128 0x2
 2912 106f 08       		.byte	0x8
 2913 1070 96       		.byte	0x96
 2914 1071 00       		.byte	0
 2915 1072 30       		.uleb128 0x30
 2916 1073 A0000000 		.4byte	.LVL18
 2917 1077 9D110000 		.4byte	0x119d
 2918 107b 2D       		.uleb128 0x2d
 2919 107c 01       		.uleb128 0x1
 2920 107d 50       		.byte	0x50
 2921 107e 02       		.uleb128 0x2
 2922 107f 08       		.byte	0x8
 2923 1080 96       		.byte	0x96
 2924 1081 00       		.byte	0
 2925 1082 00       		.byte	0
 2926 1083 0B       		.uleb128 0xb
 2927 1084 04       		.byte	0x4
 2928 1085 1A0C0000 		.4byte	0xc1a
 2929 1089 1E       		.uleb128 0x1e
 2930 108a D3020000 		.4byte	.LASF208
 2931 108e 01       		.byte	0x1
 2932 108f 67       		.byte	0x67
 2933 1090 06       		.byte	0x6
 2934 1091 00000000 		.4byte	.LFB9
 2935 1095 18000000 		.4byte	.LFE9-.LFB9
 2936 1099 01       		.uleb128 0x1
 2937 109a 9C       		.byte	0x9c
 2938 109b C1100000 		.4byte	0x10c1
 2939 109f 2E       		.uleb128 0x2e
 2940 10a0 10000000 		.4byte	.LVL9
 2941 10a4 AA110000 		.4byte	0x11aa
 2942 10a8 2D       		.uleb128 0x2d
 2943 10a9 01       		.uleb128 0x1
 2944 10aa 50       		.byte	0x50
 2945 10ab 05       		.uleb128 0x5
 2946 10ac 03       		.byte	0x3
 2947 10ad 00000000 		.4byte	SD1
 2948 10b1 2D       		.uleb128 0x2d
 2949 10b2 01       		.uleb128 0x1
 2950 10b3 51       		.byte	0x51
 2951 10b4 01       		.uleb128 0x1
 2952 10b5 30       		.byte	0x30
 2953 10b6 2D       		.uleb128 0x2d
 2954 10b7 01       		.uleb128 0x1
 2955 10b8 52       		.byte	0x52
 2956 10b9 05       		.uleb128 0x5
 2957 10ba 03       		.byte	0x3
 2958 10bb 00000000 		.4byte	output_notify
 2959 10bf 00       		.byte	0
 2960 10c0 00       		.byte	0
 2961 10c1 1E       		.uleb128 0x1e
 2962 10c2 67090000 		.4byte	.LASF209
 2963 10c6 01       		.byte	0x1
 2964 10c7 45       		.byte	0x45
ARM GAS  /var/folders/l5/0x54b2c10074c8bt31ycjvl80000gp/T//ccu784hR.s 			page 53


 2965 10c8 06       		.byte	0x6
 2966 10c9 00000000 		.4byte	.LFB8
 2967 10cd A8000000 		.4byte	.LFE8-.LFB8
 2968 10d1 01       		.uleb128 0x1
 2969 10d2 9C       		.byte	0x9c
 2970 10d3 51110000 		.4byte	0x1151
 2971 10d7 27       		.uleb128 0x27
 2972 10d8 73647000 		.ascii	"sdp\000"
 2973 10dc 01       		.byte	0x1
 2974 10dd 45       		.byte	0x45
 2975 10de 2C       		.byte	0x2c
 2976 10df EA0F0000 		.4byte	0xfea
 2977 10e3 78010000 		.4byte	.LLST0
 2978 10e7 70010000 		.4byte	.LVUS0
 2979 10eb 31       		.uleb128 0x31
 2980 10ec 00000000 		.4byte	.Ldebug_ranges0+0
 2981 10f0 40110000 		.4byte	0x1140
 2982 10f4 32       		.uleb128 0x32
 2983 10f5 96000000 		.4byte	.LASF210
 2984 10f9 01       		.byte	0x1
 2985 10fa 52       		.byte	0x52
 2986 10fb 0B       		.byte	0xb
 2987 10fc 2E010000 		.4byte	0x12e
 2988 1100 B0010000 		.4byte	.LLST1
 2989 1104 AC010000 		.4byte	.LVUS1
 2990 1108 33       		.uleb128 0x33
 2991 1109 650F0000 		.4byte	0xf65
 2992 110d 4C000000 		.4byte	.LBI16
 2993 1111 01       		.byte	.LVU28
 2994 1112 4C000000 		.4byte	.LBB16
 2995 1116 14000000 		.4byte	.LBE16-.LBB16
 2996 111a 01       		.byte	0x1
 2997 111b 58       		.byte	0x58
 2998 111c 07       		.byte	0x7
 2999 111d 2F110000 		.4byte	0x112f
 3000 1121 23       		.uleb128 0x23
 3001 1122 720F0000 		.4byte	0xf72
 3002 1126 D0010000 		.4byte	.LLST2
 3003 112a CE010000 		.4byte	.LVUS2
 3004 112e 00       		.byte	0
 3005 112f 30       		.uleb128 0x30
 3006 1130 44000000 		.4byte	.LVL3
 3007 1134 B7110000 		.4byte	0x11b7
 3008 1138 2D       		.uleb128 0x2d
 3009 1139 01       		.uleb128 0x1
 3010 113a 50       		.byte	0x50
 3011 113b 02       		.uleb128 0x2
 3012 113c 75       		.byte	0x75
 3013 113d 00       		.sleb128 0
 3014 113e 00       		.byte	0
 3015 113f 00       		.byte	0
 3016 1140 30       		.uleb128 0x30
 3017 1141 84000000 		.4byte	.LVL7
 3018 1145 C4110000 		.4byte	0x11c4
 3019 1149 2D       		.uleb128 0x2d
 3020 114a 01       		.uleb128 0x1
 3021 114b 50       		.byte	0x50
ARM GAS  /var/folders/l5/0x54b2c10074c8bt31ycjvl80000gp/T//ccu784hR.s 			page 54


 3022 114c 02       		.uleb128 0x2
 3023 114d 75       		.byte	0x75
 3024 114e 00       		.sleb128 0
 3025 114f 00       		.byte	0
 3026 1150 00       		.byte	0
 3027 1151 34       		.uleb128 0x34
 3028 1152 D0080000 		.4byte	.LASF222
 3029 1156 01       		.byte	0x1
 3030 1157 3B       		.byte	0x3b
 3031 1158 0D       		.byte	0xd
 3032 1159 00000000 		.4byte	.LFB7
 3033 115d 18000000 		.4byte	.LFE7-.LFB7
 3034 1161 01       		.uleb128 0x1
 3035 1162 9C       		.byte	0x9c
 3036 1163 75110000 		.4byte	0x1175
 3037 1167 1F       		.uleb128 0x1f
 3038 1168 717000   		.ascii	"qp\000"
 3039 116b 01       		.byte	0x1
 3040 116c 3B       		.byte	0x3b
 3041 116d 29       		.byte	0x29
 3042 116e B1070000 		.4byte	0x7b1
 3043 1172 01       		.uleb128 0x1
 3044 1173 50       		.byte	0x50
 3045 1174 00       		.byte	0
 3046 1175 35       		.uleb128 0x35
 3047 1176 650F0000 		.4byte	0xf65
 3048 117a 00000000 		.4byte	.LFB13
 3049 117e 1C000000 		.4byte	.LFE13-.LFB13
 3050 1182 01       		.uleb128 0x1
 3051 1183 9C       		.byte	0x9c
 3052 1184 90110000 		.4byte	0x1190
 3053 1188 36       		.uleb128 0x36
 3054 1189 720F0000 		.4byte	0xf72
 3055 118d 01       		.uleb128 0x1
 3056 118e 50       		.byte	0x50
 3057 118f 00       		.byte	0
 3058 1190 37       		.uleb128 0x37
 3059 1191 06060000 		.4byte	.LASF211
 3060 1195 06060000 		.4byte	.LASF211
 3061 1199 10       		.byte	0x10
 3062 119a 8C01     		.2byte	0x18c
 3063 119c 08       		.byte	0x8
 3064 119d 37       		.uleb128 0x37
 3065 119e 5C040000 		.4byte	.LASF212
 3066 11a2 5C040000 		.4byte	.LASF212
 3067 11a6 10       		.byte	0x10
 3068 11a7 8D01     		.2byte	0x18d
 3069 11a9 08       		.byte	0x8
 3070 11aa 37       		.uleb128 0x37
 3071 11ab DF060000 		.4byte	.LASF213
 3072 11af DF060000 		.4byte	.LASF213
 3073 11b3 14       		.byte	0x14
 3074 11b4 3101     		.2byte	0x131
 3075 11b6 08       		.byte	0x8
 3076 11b7 37       		.uleb128 0x37
 3077 11b8 ED080000 		.4byte	.LASF214
 3078 11bc ED080000 		.4byte	.LASF214
ARM GAS  /var/folders/l5/0x54b2c10074c8bt31ycjvl80000gp/T//ccu784hR.s 			page 55


 3079 11c0 14       		.byte	0x14
 3080 11c1 3501     		.2byte	0x135
 3081 11c3 09       		.byte	0x9
 3082 11c4 37       		.uleb128 0x37
 3083 11c5 15050000 		.4byte	.LASF215
 3084 11c9 15050000 		.4byte	.LASF215
 3085 11cd 14       		.byte	0x14
 3086 11ce 3401     		.2byte	0x134
 3087 11d0 08       		.byte	0x8
 3088 11d1 00       		.byte	0
 3089              		.section	.debug_abbrev,"",%progbits
 3090              	.Ldebug_abbrev0:
 3091 0000 01       		.uleb128 0x1
 3092 0001 11       		.uleb128 0x11
 3093 0002 01       		.byte	0x1
 3094 0003 25       		.uleb128 0x25
 3095 0004 0E       		.uleb128 0xe
 3096 0005 13       		.uleb128 0x13
 3097 0006 0B       		.uleb128 0xb
 3098 0007 03       		.uleb128 0x3
 3099 0008 0E       		.uleb128 0xe
 3100 0009 1B       		.uleb128 0x1b
 3101 000a 0E       		.uleb128 0xe
 3102 000b 55       		.uleb128 0x55
 3103 000c 17       		.uleb128 0x17
 3104 000d 11       		.uleb128 0x11
 3105 000e 01       		.uleb128 0x1
 3106 000f 10       		.uleb128 0x10
 3107 0010 17       		.uleb128 0x17
 3108 0011 00       		.byte	0
 3109 0012 00       		.byte	0
 3110 0013 02       		.uleb128 0x2
 3111 0014 24       		.uleb128 0x24
 3112 0015 00       		.byte	0
 3113 0016 0B       		.uleb128 0xb
 3114 0017 0B       		.uleb128 0xb
 3115 0018 3E       		.uleb128 0x3e
 3116 0019 0B       		.uleb128 0xb
 3117 001a 03       		.uleb128 0x3
 3118 001b 08       		.uleb128 0x8
 3119 001c 00       		.byte	0
 3120 001d 00       		.byte	0
 3121 001e 03       		.uleb128 0x3
 3122 001f 16       		.uleb128 0x16
 3123 0020 00       		.byte	0
 3124 0021 03       		.uleb128 0x3
 3125 0022 0E       		.uleb128 0xe
 3126 0023 3A       		.uleb128 0x3a
 3127 0024 0B       		.uleb128 0xb
 3128 0025 3B       		.uleb128 0x3b
 3129 0026 0B       		.uleb128 0xb
 3130 0027 39       		.uleb128 0x39
 3131 0028 0B       		.uleb128 0xb
 3132 0029 49       		.uleb128 0x49
 3133 002a 13       		.uleb128 0x13
 3134 002b 00       		.byte	0
 3135 002c 00       		.byte	0
ARM GAS  /var/folders/l5/0x54b2c10074c8bt31ycjvl80000gp/T//ccu784hR.s 			page 56


 3136 002d 04       		.uleb128 0x4
 3137 002e 24       		.uleb128 0x24
 3138 002f 00       		.byte	0
 3139 0030 0B       		.uleb128 0xb
 3140 0031 0B       		.uleb128 0xb
 3141 0032 3E       		.uleb128 0x3e
 3142 0033 0B       		.uleb128 0xb
 3143 0034 03       		.uleb128 0x3
 3144 0035 0E       		.uleb128 0xe
 3145 0036 00       		.byte	0
 3146 0037 00       		.byte	0
 3147 0038 05       		.uleb128 0x5
 3148 0039 35       		.uleb128 0x35
 3149 003a 00       		.byte	0
 3150 003b 49       		.uleb128 0x49
 3151 003c 13       		.uleb128 0x13
 3152 003d 00       		.byte	0
 3153 003e 00       		.byte	0
 3154 003f 06       		.uleb128 0x6
 3155 0040 26       		.uleb128 0x26
 3156 0041 00       		.byte	0
 3157 0042 49       		.uleb128 0x49
 3158 0043 13       		.uleb128 0x13
 3159 0044 00       		.byte	0
 3160 0045 00       		.byte	0
 3161 0046 07       		.uleb128 0x7
 3162 0047 13       		.uleb128 0x13
 3163 0048 01       		.byte	0x1
 3164 0049 03       		.uleb128 0x3
 3165 004a 0E       		.uleb128 0xe
 3166 004b 0B       		.uleb128 0xb
 3167 004c 0B       		.uleb128 0xb
 3168 004d 3A       		.uleb128 0x3a
 3169 004e 0B       		.uleb128 0xb
 3170 004f 3B       		.uleb128 0x3b
 3171 0050 0B       		.uleb128 0xb
 3172 0051 39       		.uleb128 0x39
 3173 0052 0B       		.uleb128 0xb
 3174 0053 01       		.uleb128 0x1
 3175 0054 13       		.uleb128 0x13
 3176 0055 00       		.byte	0
 3177 0056 00       		.byte	0
 3178 0057 08       		.uleb128 0x8
 3179 0058 0D       		.uleb128 0xd
 3180 0059 00       		.byte	0
 3181 005a 03       		.uleb128 0x3
 3182 005b 0E       		.uleb128 0xe
 3183 005c 3A       		.uleb128 0x3a
 3184 005d 0B       		.uleb128 0xb
 3185 005e 3B       		.uleb128 0x3b
 3186 005f 0B       		.uleb128 0xb
 3187 0060 39       		.uleb128 0x39
 3188 0061 0B       		.uleb128 0xb
 3189 0062 49       		.uleb128 0x49
 3190 0063 13       		.uleb128 0x13
 3191 0064 38       		.uleb128 0x38
 3192 0065 0B       		.uleb128 0xb
ARM GAS  /var/folders/l5/0x54b2c10074c8bt31ycjvl80000gp/T//ccu784hR.s 			page 57


 3193 0066 00       		.byte	0
 3194 0067 00       		.byte	0
 3195 0068 09       		.uleb128 0x9
 3196 0069 0D       		.uleb128 0xd
 3197 006a 00       		.byte	0
 3198 006b 03       		.uleb128 0x3
 3199 006c 08       		.uleb128 0x8
 3200 006d 3A       		.uleb128 0x3a
 3201 006e 0B       		.uleb128 0xb
 3202 006f 3B       		.uleb128 0x3b
 3203 0070 0B       		.uleb128 0xb
 3204 0071 39       		.uleb128 0x39
 3205 0072 0B       		.uleb128 0xb
 3206 0073 49       		.uleb128 0x49
 3207 0074 13       		.uleb128 0x13
 3208 0075 38       		.uleb128 0x38
 3209 0076 0B       		.uleb128 0xb
 3210 0077 00       		.byte	0
 3211 0078 00       		.byte	0
 3212 0079 0A       		.uleb128 0xa
 3213 007a 13       		.uleb128 0x13
 3214 007b 01       		.byte	0x1
 3215 007c 0B       		.uleb128 0xb
 3216 007d 0B       		.uleb128 0xb
 3217 007e 3A       		.uleb128 0x3a
 3218 007f 0B       		.uleb128 0xb
 3219 0080 3B       		.uleb128 0x3b
 3220 0081 0B       		.uleb128 0xb
 3221 0082 39       		.uleb128 0x39
 3222 0083 0B       		.uleb128 0xb
 3223 0084 01       		.uleb128 0x1
 3224 0085 13       		.uleb128 0x13
 3225 0086 00       		.byte	0
 3226 0087 00       		.byte	0
 3227 0088 0B       		.uleb128 0xb
 3228 0089 0F       		.uleb128 0xf
 3229 008a 00       		.byte	0
 3230 008b 0B       		.uleb128 0xb
 3231 008c 0B       		.uleb128 0xb
 3232 008d 49       		.uleb128 0x49
 3233 008e 13       		.uleb128 0x13
 3234 008f 00       		.byte	0
 3235 0090 00       		.byte	0
 3236 0091 0C       		.uleb128 0xc
 3237 0092 0F       		.uleb128 0xf
 3238 0093 00       		.byte	0
 3239 0094 0B       		.uleb128 0xb
 3240 0095 0B       		.uleb128 0xb
 3241 0096 00       		.byte	0
 3242 0097 00       		.byte	0
 3243 0098 0D       		.uleb128 0xd
 3244 0099 15       		.uleb128 0x15
 3245 009a 01       		.byte	0x1
 3246 009b 27       		.uleb128 0x27
 3247 009c 19       		.uleb128 0x19
 3248 009d 01       		.uleb128 0x1
 3249 009e 13       		.uleb128 0x13
ARM GAS  /var/folders/l5/0x54b2c10074c8bt31ycjvl80000gp/T//ccu784hR.s 			page 58


 3250 009f 00       		.byte	0
 3251 00a0 00       		.byte	0
 3252 00a1 0E       		.uleb128 0xe
 3253 00a2 05       		.uleb128 0x5
 3254 00a3 00       		.byte	0
 3255 00a4 49       		.uleb128 0x49
 3256 00a5 13       		.uleb128 0x13
 3257 00a6 00       		.byte	0
 3258 00a7 00       		.byte	0
 3259 00a8 0F       		.uleb128 0xf
 3260 00a9 34       		.uleb128 0x34
 3261 00aa 00       		.byte	0
 3262 00ab 03       		.uleb128 0x3
 3263 00ac 0E       		.uleb128 0xe
 3264 00ad 3A       		.uleb128 0x3a
 3265 00ae 0B       		.uleb128 0xb
 3266 00af 3B       		.uleb128 0x3b
 3267 00b0 0B       		.uleb128 0xb
 3268 00b1 39       		.uleb128 0x39
 3269 00b2 0B       		.uleb128 0xb
 3270 00b3 49       		.uleb128 0x49
 3271 00b4 13       		.uleb128 0x13
 3272 00b5 3F       		.uleb128 0x3f
 3273 00b6 19       		.uleb128 0x19
 3274 00b7 3C       		.uleb128 0x3c
 3275 00b8 19       		.uleb128 0x19
 3276 00b9 00       		.byte	0
 3277 00ba 00       		.byte	0
 3278 00bb 10       		.uleb128 0x10
 3279 00bc 17       		.uleb128 0x17
 3280 00bd 01       		.byte	0x1
 3281 00be 0B       		.uleb128 0xb
 3282 00bf 0B       		.uleb128 0xb
 3283 00c0 3A       		.uleb128 0x3a
 3284 00c1 0B       		.uleb128 0xb
 3285 00c2 3B       		.uleb128 0x3b
 3286 00c3 0B       		.uleb128 0xb
 3287 00c4 39       		.uleb128 0x39
 3288 00c5 0B       		.uleb128 0xb
 3289 00c6 01       		.uleb128 0x1
 3290 00c7 13       		.uleb128 0x13
 3291 00c8 00       		.byte	0
 3292 00c9 00       		.byte	0
 3293 00ca 11       		.uleb128 0x11
 3294 00cb 0D       		.uleb128 0xd
 3295 00cc 00       		.byte	0
 3296 00cd 03       		.uleb128 0x3
 3297 00ce 0E       		.uleb128 0xe
 3298 00cf 3A       		.uleb128 0x3a
 3299 00d0 0B       		.uleb128 0xb
 3300 00d1 3B       		.uleb128 0x3b
 3301 00d2 0B       		.uleb128 0xb
 3302 00d3 39       		.uleb128 0x39
 3303 00d4 0B       		.uleb128 0xb
 3304 00d5 49       		.uleb128 0x49
 3305 00d6 13       		.uleb128 0x13
 3306 00d7 00       		.byte	0
ARM GAS  /var/folders/l5/0x54b2c10074c8bt31ycjvl80000gp/T//ccu784hR.s 			page 59


 3307 00d8 00       		.byte	0
 3308 00d9 12       		.uleb128 0x12
 3309 00da 15       		.uleb128 0x15
 3310 00db 01       		.byte	0x1
 3311 00dc 27       		.uleb128 0x27
 3312 00dd 19       		.uleb128 0x19
 3313 00de 49       		.uleb128 0x49
 3314 00df 13       		.uleb128 0x13
 3315 00e0 01       		.uleb128 0x1
 3316 00e1 13       		.uleb128 0x13
 3317 00e2 00       		.byte	0
 3318 00e3 00       		.byte	0
 3319 00e4 13       		.uleb128 0x13
 3320 00e5 01       		.uleb128 0x1
 3321 00e6 01       		.byte	0x1
 3322 00e7 49       		.uleb128 0x49
 3323 00e8 13       		.uleb128 0x13
 3324 00e9 01       		.uleb128 0x1
 3325 00ea 13       		.uleb128 0x13
 3326 00eb 00       		.byte	0
 3327 00ec 00       		.byte	0
 3328 00ed 14       		.uleb128 0x14
 3329 00ee 21       		.uleb128 0x21
 3330 00ef 00       		.byte	0
 3331 00f0 49       		.uleb128 0x49
 3332 00f1 13       		.uleb128 0x13
 3333 00f2 2F       		.uleb128 0x2f
 3334 00f3 0B       		.uleb128 0xb
 3335 00f4 00       		.byte	0
 3336 00f5 00       		.byte	0
 3337 00f6 15       		.uleb128 0x15
 3338 00f7 0D       		.uleb128 0xd
 3339 00f8 00       		.byte	0
 3340 00f9 03       		.uleb128 0x3
 3341 00fa 0E       		.uleb128 0xe
 3342 00fb 3A       		.uleb128 0x3a
 3343 00fc 0B       		.uleb128 0xb
 3344 00fd 3B       		.uleb128 0x3b
 3345 00fe 05       		.uleb128 0x5
 3346 00ff 39       		.uleb128 0x39
 3347 0100 0B       		.uleb128 0xb
 3348 0101 49       		.uleb128 0x49
 3349 0102 13       		.uleb128 0x13
 3350 0103 38       		.uleb128 0x38
 3351 0104 0B       		.uleb128 0xb
 3352 0105 00       		.byte	0
 3353 0106 00       		.byte	0
 3354 0107 16       		.uleb128 0x16
 3355 0108 16       		.uleb128 0x16
 3356 0109 00       		.byte	0
 3357 010a 03       		.uleb128 0x3
 3358 010b 0E       		.uleb128 0xe
 3359 010c 3A       		.uleb128 0x3a
 3360 010d 0B       		.uleb128 0xb
 3361 010e 3B       		.uleb128 0x3b
 3362 010f 05       		.uleb128 0x5
 3363 0110 39       		.uleb128 0x39
ARM GAS  /var/folders/l5/0x54b2c10074c8bt31ycjvl80000gp/T//ccu784hR.s 			page 60


 3364 0111 0B       		.uleb128 0xb
 3365 0112 49       		.uleb128 0x49
 3366 0113 13       		.uleb128 0x13
 3367 0114 00       		.byte	0
 3368 0115 00       		.byte	0
 3369 0116 17       		.uleb128 0x17
 3370 0117 13       		.uleb128 0x13
 3371 0118 00       		.byte	0
 3372 0119 0B       		.uleb128 0xb
 3373 011a 0B       		.uleb128 0xb
 3374 011b 3A       		.uleb128 0x3a
 3375 011c 0B       		.uleb128 0xb
 3376 011d 3B       		.uleb128 0x3b
 3377 011e 0B       		.uleb128 0xb
 3378 011f 39       		.uleb128 0x39
 3379 0120 0B       		.uleb128 0xb
 3380 0121 00       		.byte	0
 3381 0122 00       		.byte	0
 3382 0123 18       		.uleb128 0x18
 3383 0124 04       		.uleb128 0x4
 3384 0125 01       		.byte	0x1
 3385 0126 3E       		.uleb128 0x3e
 3386 0127 0B       		.uleb128 0xb
 3387 0128 0B       		.uleb128 0xb
 3388 0129 0B       		.uleb128 0xb
 3389 012a 49       		.uleb128 0x49
 3390 012b 13       		.uleb128 0x13
 3391 012c 3A       		.uleb128 0x3a
 3392 012d 0B       		.uleb128 0xb
 3393 012e 3B       		.uleb128 0x3b
 3394 012f 0B       		.uleb128 0xb
 3395 0130 39       		.uleb128 0x39
 3396 0131 0B       		.uleb128 0xb
 3397 0132 01       		.uleb128 0x1
 3398 0133 13       		.uleb128 0x13
 3399 0134 00       		.byte	0
 3400 0135 00       		.byte	0
 3401 0136 19       		.uleb128 0x19
 3402 0137 28       		.uleb128 0x28
 3403 0138 00       		.byte	0
 3404 0139 03       		.uleb128 0x3
 3405 013a 0E       		.uleb128 0xe
 3406 013b 1C       		.uleb128 0x1c
 3407 013c 0B       		.uleb128 0xb
 3408 013d 00       		.byte	0
 3409 013e 00       		.byte	0
 3410 013f 1A       		.uleb128 0x1a
 3411 0140 34       		.uleb128 0x34
 3412 0141 00       		.byte	0
 3413 0142 03       		.uleb128 0x3
 3414 0143 08       		.uleb128 0x8
 3415 0144 3A       		.uleb128 0x3a
 3416 0145 0B       		.uleb128 0xb
 3417 0146 3B       		.uleb128 0x3b
 3418 0147 0B       		.uleb128 0xb
 3419 0148 39       		.uleb128 0x39
 3420 0149 0B       		.uleb128 0xb
ARM GAS  /var/folders/l5/0x54b2c10074c8bt31ycjvl80000gp/T//ccu784hR.s 			page 61


 3421 014a 49       		.uleb128 0x49
 3422 014b 13       		.uleb128 0x13
 3423 014c 3F       		.uleb128 0x3f
 3424 014d 19       		.uleb128 0x19
 3425 014e 3C       		.uleb128 0x3c
 3426 014f 19       		.uleb128 0x19
 3427 0150 00       		.byte	0
 3428 0151 00       		.byte	0
 3429 0152 1B       		.uleb128 0x1b
 3430 0153 26       		.uleb128 0x26
 3431 0154 00       		.byte	0
 3432 0155 00       		.byte	0
 3433 0156 00       		.byte	0
 3434 0157 1C       		.uleb128 0x1c
 3435 0158 34       		.uleb128 0x34
 3436 0159 00       		.byte	0
 3437 015a 47       		.uleb128 0x47
 3438 015b 13       		.uleb128 0x13
 3439 015c 3A       		.uleb128 0x3a
 3440 015d 0B       		.uleb128 0xb
 3441 015e 3B       		.uleb128 0x3b
 3442 015f 0B       		.uleb128 0xb
 3443 0160 39       		.uleb128 0x39
 3444 0161 0B       		.uleb128 0xb
 3445 0162 02       		.uleb128 0x2
 3446 0163 18       		.uleb128 0x18
 3447 0164 00       		.byte	0
 3448 0165 00       		.byte	0
 3449 0166 1D       		.uleb128 0x1d
 3450 0167 34       		.uleb128 0x34
 3451 0168 00       		.byte	0
 3452 0169 03       		.uleb128 0x3
 3453 016a 0E       		.uleb128 0xe
 3454 016b 3A       		.uleb128 0x3a
 3455 016c 0B       		.uleb128 0xb
 3456 016d 3B       		.uleb128 0x3b
 3457 016e 0B       		.uleb128 0xb
 3458 016f 39       		.uleb128 0x39
 3459 0170 0B       		.uleb128 0xb
 3460 0171 49       		.uleb128 0x49
 3461 0172 13       		.uleb128 0x13
 3462 0173 02       		.uleb128 0x2
 3463 0174 18       		.uleb128 0x18
 3464 0175 00       		.byte	0
 3465 0176 00       		.byte	0
 3466 0177 1E       		.uleb128 0x1e
 3467 0178 2E       		.uleb128 0x2e
 3468 0179 01       		.byte	0x1
 3469 017a 3F       		.uleb128 0x3f
 3470 017b 19       		.uleb128 0x19
 3471 017c 03       		.uleb128 0x3
 3472 017d 0E       		.uleb128 0xe
 3473 017e 3A       		.uleb128 0x3a
 3474 017f 0B       		.uleb128 0xb
 3475 0180 3B       		.uleb128 0x3b
 3476 0181 0B       		.uleb128 0xb
 3477 0182 39       		.uleb128 0x39
ARM GAS  /var/folders/l5/0x54b2c10074c8bt31ycjvl80000gp/T//ccu784hR.s 			page 62


 3478 0183 0B       		.uleb128 0xb
 3479 0184 27       		.uleb128 0x27
 3480 0185 19       		.uleb128 0x19
 3481 0186 11       		.uleb128 0x11
 3482 0187 01       		.uleb128 0x1
 3483 0188 12       		.uleb128 0x12
 3484 0189 06       		.uleb128 0x6
 3485 018a 40       		.uleb128 0x40
 3486 018b 18       		.uleb128 0x18
 3487 018c 9742     		.uleb128 0x2117
 3488 018e 19       		.uleb128 0x19
 3489 018f 01       		.uleb128 0x1
 3490 0190 13       		.uleb128 0x13
 3491 0191 00       		.byte	0
 3492 0192 00       		.byte	0
 3493 0193 1F       		.uleb128 0x1f
 3494 0194 05       		.uleb128 0x5
 3495 0195 00       		.byte	0
 3496 0196 03       		.uleb128 0x3
 3497 0197 08       		.uleb128 0x8
 3498 0198 3A       		.uleb128 0x3a
 3499 0199 0B       		.uleb128 0xb
 3500 019a 3B       		.uleb128 0x3b
 3501 019b 0B       		.uleb128 0xb
 3502 019c 39       		.uleb128 0x39
 3503 019d 0B       		.uleb128 0xb
 3504 019e 49       		.uleb128 0x49
 3505 019f 13       		.uleb128 0x13
 3506 01a0 02       		.uleb128 0x2
 3507 01a1 18       		.uleb128 0x18
 3508 01a2 00       		.byte	0
 3509 01a3 00       		.byte	0
 3510 01a4 20       		.uleb128 0x20
 3511 01a5 05       		.uleb128 0x5
 3512 01a6 00       		.byte	0
 3513 01a7 03       		.uleb128 0x3
 3514 01a8 0E       		.uleb128 0xe
 3515 01a9 3A       		.uleb128 0x3a
 3516 01aa 0B       		.uleb128 0xb
 3517 01ab 3B       		.uleb128 0x3b
 3518 01ac 0B       		.uleb128 0xb
 3519 01ad 39       		.uleb128 0x39
 3520 01ae 0B       		.uleb128 0xb
 3521 01af 49       		.uleb128 0x49
 3522 01b0 13       		.uleb128 0x13
 3523 01b1 02       		.uleb128 0x2
 3524 01b2 17       		.uleb128 0x17
 3525 01b3 B742     		.uleb128 0x2137
 3526 01b5 17       		.uleb128 0x17
 3527 01b6 00       		.byte	0
 3528 01b7 00       		.byte	0
 3529 01b8 21       		.uleb128 0x21
 3530 01b9 34       		.uleb128 0x34
 3531 01ba 00       		.byte	0
 3532 01bb 03       		.uleb128 0x3
 3533 01bc 08       		.uleb128 0x8
 3534 01bd 3A       		.uleb128 0x3a
ARM GAS  /var/folders/l5/0x54b2c10074c8bt31ycjvl80000gp/T//ccu784hR.s 			page 63


 3535 01be 0B       		.uleb128 0xb
 3536 01bf 3B       		.uleb128 0x3b
 3537 01c0 0B       		.uleb128 0xb
 3538 01c1 39       		.uleb128 0x39
 3539 01c2 0B       		.uleb128 0xb
 3540 01c3 49       		.uleb128 0x49
 3541 01c4 13       		.uleb128 0x13
 3542 01c5 02       		.uleb128 0x2
 3543 01c6 17       		.uleb128 0x17
 3544 01c7 B742     		.uleb128 0x2137
 3545 01c9 17       		.uleb128 0x17
 3546 01ca 00       		.byte	0
 3547 01cb 00       		.byte	0
 3548 01cc 22       		.uleb128 0x22
 3549 01cd 1D       		.uleb128 0x1d
 3550 01ce 01       		.byte	0x1
 3551 01cf 31       		.uleb128 0x31
 3552 01d0 13       		.uleb128 0x13
 3553 01d1 52       		.uleb128 0x52
 3554 01d2 01       		.uleb128 0x1
 3555 01d3 B842     		.uleb128 0x2138
 3556 01d5 0B       		.uleb128 0xb
 3557 01d6 55       		.uleb128 0x55
 3558 01d7 17       		.uleb128 0x17
 3559 01d8 58       		.uleb128 0x58
 3560 01d9 0B       		.uleb128 0xb
 3561 01da 59       		.uleb128 0x59
 3562 01db 0B       		.uleb128 0xb
 3563 01dc 57       		.uleb128 0x57
 3564 01dd 0B       		.uleb128 0xb
 3565 01de 01       		.uleb128 0x1
 3566 01df 13       		.uleb128 0x13
 3567 01e0 00       		.byte	0
 3568 01e1 00       		.byte	0
 3569 01e2 23       		.uleb128 0x23
 3570 01e3 05       		.uleb128 0x5
 3571 01e4 00       		.byte	0
 3572 01e5 31       		.uleb128 0x31
 3573 01e6 13       		.uleb128 0x13
 3574 01e7 02       		.uleb128 0x2
 3575 01e8 17       		.uleb128 0x17
 3576 01e9 B742     		.uleb128 0x2137
 3577 01eb 17       		.uleb128 0x17
 3578 01ec 00       		.byte	0
 3579 01ed 00       		.byte	0
 3580 01ee 24       		.uleb128 0x24
 3581 01ef 1D       		.uleb128 0x1d
 3582 01f0 01       		.byte	0x1
 3583 01f1 31       		.uleb128 0x31
 3584 01f2 13       		.uleb128 0x13
 3585 01f3 55       		.uleb128 0x55
 3586 01f4 17       		.uleb128 0x17
 3587 01f5 58       		.uleb128 0x58
 3588 01f6 0B       		.uleb128 0xb
 3589 01f7 59       		.uleb128 0x59
 3590 01f8 0B       		.uleb128 0xb
 3591 01f9 57       		.uleb128 0x57
ARM GAS  /var/folders/l5/0x54b2c10074c8bt31ycjvl80000gp/T//ccu784hR.s 			page 64


 3592 01fa 0B       		.uleb128 0xb
 3593 01fb 01       		.uleb128 0x1
 3594 01fc 13       		.uleb128 0x13
 3595 01fd 00       		.byte	0
 3596 01fe 00       		.byte	0
 3597 01ff 25       		.uleb128 0x25
 3598 0200 05       		.uleb128 0x5
 3599 0201 00       		.byte	0
 3600 0202 31       		.uleb128 0x31
 3601 0203 13       		.uleb128 0x13
 3602 0204 00       		.byte	0
 3603 0205 00       		.byte	0
 3604 0206 26       		.uleb128 0x26
 3605 0207 1D       		.uleb128 0x1d
 3606 0208 01       		.byte	0x1
 3607 0209 31       		.uleb128 0x31
 3608 020a 13       		.uleb128 0x13
 3609 020b 55       		.uleb128 0x55
 3610 020c 17       		.uleb128 0x17
 3611 020d 58       		.uleb128 0x58
 3612 020e 0B       		.uleb128 0xb
 3613 020f 59       		.uleb128 0x59
 3614 0210 0B       		.uleb128 0xb
 3615 0211 57       		.uleb128 0x57
 3616 0212 0B       		.uleb128 0xb
 3617 0213 00       		.byte	0
 3618 0214 00       		.byte	0
 3619 0215 27       		.uleb128 0x27
 3620 0216 05       		.uleb128 0x5
 3621 0217 00       		.byte	0
 3622 0218 03       		.uleb128 0x3
 3623 0219 08       		.uleb128 0x8
 3624 021a 3A       		.uleb128 0x3a
 3625 021b 0B       		.uleb128 0xb
 3626 021c 3B       		.uleb128 0x3b
 3627 021d 0B       		.uleb128 0xb
 3628 021e 39       		.uleb128 0x39
 3629 021f 0B       		.uleb128 0xb
 3630 0220 49       		.uleb128 0x49
 3631 0221 13       		.uleb128 0x13
 3632 0222 02       		.uleb128 0x2
 3633 0223 17       		.uleb128 0x17
 3634 0224 B742     		.uleb128 0x2137
 3635 0226 17       		.uleb128 0x17
 3636 0227 00       		.byte	0
 3637 0228 00       		.byte	0
 3638 0229 28       		.uleb128 0x28
 3639 022a 1D       		.uleb128 0x1d
 3640 022b 01       		.byte	0x1
 3641 022c 31       		.uleb128 0x31
 3642 022d 13       		.uleb128 0x13
 3643 022e 11       		.uleb128 0x11
 3644 022f 01       		.uleb128 0x1
 3645 0230 12       		.uleb128 0x12
 3646 0231 06       		.uleb128 0x6
 3647 0232 58       		.uleb128 0x58
 3648 0233 0B       		.uleb128 0xb
ARM GAS  /var/folders/l5/0x54b2c10074c8bt31ycjvl80000gp/T//ccu784hR.s 			page 65


 3649 0234 59       		.uleb128 0x59
 3650 0235 0B       		.uleb128 0xb
 3651 0236 57       		.uleb128 0x57
 3652 0237 0B       		.uleb128 0xb
 3653 0238 00       		.byte	0
 3654 0239 00       		.byte	0
 3655 023a 29       		.uleb128 0x29
 3656 023b 2E       		.uleb128 0x2e
 3657 023c 01       		.byte	0x1
 3658 023d 3F       		.uleb128 0x3f
 3659 023e 19       		.uleb128 0x19
 3660 023f 03       		.uleb128 0x3
 3661 0240 0E       		.uleb128 0xe
 3662 0241 3A       		.uleb128 0x3a
 3663 0242 0B       		.uleb128 0xb
 3664 0243 3B       		.uleb128 0x3b
 3665 0244 0B       		.uleb128 0xb
 3666 0245 39       		.uleb128 0x39
 3667 0246 0B       		.uleb128 0xb
 3668 0247 27       		.uleb128 0x27
 3669 0248 19       		.uleb128 0x19
 3670 0249 20       		.uleb128 0x20
 3671 024a 0B       		.uleb128 0xb
 3672 024b 01       		.uleb128 0x1
 3673 024c 13       		.uleb128 0x13
 3674 024d 00       		.byte	0
 3675 024e 00       		.byte	0
 3676 024f 2A       		.uleb128 0x2a
 3677 0250 05       		.uleb128 0x5
 3678 0251 00       		.byte	0
 3679 0252 03       		.uleb128 0x3
 3680 0253 08       		.uleb128 0x8
 3681 0254 3A       		.uleb128 0x3a
 3682 0255 0B       		.uleb128 0xb
 3683 0256 3B       		.uleb128 0x3b
 3684 0257 0B       		.uleb128 0xb
 3685 0258 39       		.uleb128 0x39
 3686 0259 0B       		.uleb128 0xb
 3687 025a 49       		.uleb128 0x49
 3688 025b 13       		.uleb128 0x13
 3689 025c 00       		.byte	0
 3690 025d 00       		.byte	0
 3691 025e 2B       		.uleb128 0x2b
 3692 025f 2E       		.uleb128 0x2e
 3693 0260 00       		.byte	0
 3694 0261 3F       		.uleb128 0x3f
 3695 0262 19       		.uleb128 0x19
 3696 0263 03       		.uleb128 0x3
 3697 0264 0E       		.uleb128 0xe
 3698 0265 3A       		.uleb128 0x3a
 3699 0266 0B       		.uleb128 0xb
 3700 0267 3B       		.uleb128 0x3b
 3701 0268 0B       		.uleb128 0xb
 3702 0269 39       		.uleb128 0x39
 3703 026a 0B       		.uleb128 0xb
 3704 026b 27       		.uleb128 0x27
 3705 026c 19       		.uleb128 0x19
ARM GAS  /var/folders/l5/0x54b2c10074c8bt31ycjvl80000gp/T//ccu784hR.s 			page 66


 3706 026d 49       		.uleb128 0x49
 3707 026e 13       		.uleb128 0x13
 3708 026f 11       		.uleb128 0x11
 3709 0270 01       		.uleb128 0x1
 3710 0271 12       		.uleb128 0x12
 3711 0272 06       		.uleb128 0x6
 3712 0273 40       		.uleb128 0x40
 3713 0274 18       		.uleb128 0x18
 3714 0275 9742     		.uleb128 0x2117
 3715 0277 19       		.uleb128 0x19
 3716 0278 00       		.byte	0
 3717 0279 00       		.byte	0
 3718 027a 2C       		.uleb128 0x2c
 3719 027b 898201   		.uleb128 0x4109
 3720 027e 01       		.byte	0x1
 3721 027f 11       		.uleb128 0x11
 3722 0280 01       		.uleb128 0x1
 3723 0281 31       		.uleb128 0x31
 3724 0282 13       		.uleb128 0x13
 3725 0283 01       		.uleb128 0x1
 3726 0284 13       		.uleb128 0x13
 3727 0285 00       		.byte	0
 3728 0286 00       		.byte	0
 3729 0287 2D       		.uleb128 0x2d
 3730 0288 8A8201   		.uleb128 0x410a
 3731 028b 00       		.byte	0
 3732 028c 02       		.uleb128 0x2
 3733 028d 18       		.uleb128 0x18
 3734 028e 9142     		.uleb128 0x2111
 3735 0290 18       		.uleb128 0x18
 3736 0291 00       		.byte	0
 3737 0292 00       		.byte	0
 3738 0293 2E       		.uleb128 0x2e
 3739 0294 898201   		.uleb128 0x4109
 3740 0297 01       		.byte	0x1
 3741 0298 11       		.uleb128 0x11
 3742 0299 01       		.uleb128 0x1
 3743 029a 9542     		.uleb128 0x2115
 3744 029c 19       		.uleb128 0x19
 3745 029d 31       		.uleb128 0x31
 3746 029e 13       		.uleb128 0x13
 3747 029f 00       		.byte	0
 3748 02a0 00       		.byte	0
 3749 02a1 2F       		.uleb128 0x2f
 3750 02a2 2E       		.uleb128 0x2e
 3751 02a3 01       		.byte	0x1
 3752 02a4 3F       		.uleb128 0x3f
 3753 02a5 19       		.uleb128 0x19
 3754 02a6 03       		.uleb128 0x3
 3755 02a7 0E       		.uleb128 0xe
 3756 02a8 3A       		.uleb128 0x3a
 3757 02a9 0B       		.uleb128 0xb
 3758 02aa 3B       		.uleb128 0x3b
 3759 02ab 0B       		.uleb128 0xb
 3760 02ac 39       		.uleb128 0x39
 3761 02ad 0B       		.uleb128 0xb
 3762 02ae 27       		.uleb128 0x27
ARM GAS  /var/folders/l5/0x54b2c10074c8bt31ycjvl80000gp/T//ccu784hR.s 			page 67


 3763 02af 19       		.uleb128 0x19
 3764 02b0 11       		.uleb128 0x11
 3765 02b1 01       		.uleb128 0x1
 3766 02b2 12       		.uleb128 0x12
 3767 02b3 06       		.uleb128 0x6
 3768 02b4 40       		.uleb128 0x40
 3769 02b5 18       		.uleb128 0x18
 3770 02b6 9642     		.uleb128 0x2116
 3771 02b8 19       		.uleb128 0x19
 3772 02b9 01       		.uleb128 0x1
 3773 02ba 13       		.uleb128 0x13
 3774 02bb 00       		.byte	0
 3775 02bc 00       		.byte	0
 3776 02bd 30       		.uleb128 0x30
 3777 02be 898201   		.uleb128 0x4109
 3778 02c1 01       		.byte	0x1
 3779 02c2 11       		.uleb128 0x11
 3780 02c3 01       		.uleb128 0x1
 3781 02c4 31       		.uleb128 0x31
 3782 02c5 13       		.uleb128 0x13
 3783 02c6 00       		.byte	0
 3784 02c7 00       		.byte	0
 3785 02c8 31       		.uleb128 0x31
 3786 02c9 0B       		.uleb128 0xb
 3787 02ca 01       		.byte	0x1
 3788 02cb 55       		.uleb128 0x55
 3789 02cc 17       		.uleb128 0x17
 3790 02cd 01       		.uleb128 0x1
 3791 02ce 13       		.uleb128 0x13
 3792 02cf 00       		.byte	0
 3793 02d0 00       		.byte	0
 3794 02d1 32       		.uleb128 0x32
 3795 02d2 34       		.uleb128 0x34
 3796 02d3 00       		.byte	0
 3797 02d4 03       		.uleb128 0x3
 3798 02d5 0E       		.uleb128 0xe
 3799 02d6 3A       		.uleb128 0x3a
 3800 02d7 0B       		.uleb128 0xb
 3801 02d8 3B       		.uleb128 0x3b
 3802 02d9 0B       		.uleb128 0xb
 3803 02da 39       		.uleb128 0x39
 3804 02db 0B       		.uleb128 0xb
 3805 02dc 49       		.uleb128 0x49
 3806 02dd 13       		.uleb128 0x13
 3807 02de 02       		.uleb128 0x2
 3808 02df 17       		.uleb128 0x17
 3809 02e0 B742     		.uleb128 0x2137
 3810 02e2 17       		.uleb128 0x17
 3811 02e3 00       		.byte	0
 3812 02e4 00       		.byte	0
 3813 02e5 33       		.uleb128 0x33
 3814 02e6 1D       		.uleb128 0x1d
 3815 02e7 01       		.byte	0x1
 3816 02e8 31       		.uleb128 0x31
 3817 02e9 13       		.uleb128 0x13
 3818 02ea 52       		.uleb128 0x52
 3819 02eb 01       		.uleb128 0x1
ARM GAS  /var/folders/l5/0x54b2c10074c8bt31ycjvl80000gp/T//ccu784hR.s 			page 68


 3820 02ec B842     		.uleb128 0x2138
 3821 02ee 0B       		.uleb128 0xb
 3822 02ef 11       		.uleb128 0x11
 3823 02f0 01       		.uleb128 0x1
 3824 02f1 12       		.uleb128 0x12
 3825 02f2 06       		.uleb128 0x6
 3826 02f3 58       		.uleb128 0x58
 3827 02f4 0B       		.uleb128 0xb
 3828 02f5 59       		.uleb128 0x59
 3829 02f6 0B       		.uleb128 0xb
 3830 02f7 57       		.uleb128 0x57
 3831 02f8 0B       		.uleb128 0xb
 3832 02f9 01       		.uleb128 0x1
 3833 02fa 13       		.uleb128 0x13
 3834 02fb 00       		.byte	0
 3835 02fc 00       		.byte	0
 3836 02fd 34       		.uleb128 0x34
 3837 02fe 2E       		.uleb128 0x2e
 3838 02ff 01       		.byte	0x1
 3839 0300 03       		.uleb128 0x3
 3840 0301 0E       		.uleb128 0xe
 3841 0302 3A       		.uleb128 0x3a
 3842 0303 0B       		.uleb128 0xb
 3843 0304 3B       		.uleb128 0x3b
 3844 0305 0B       		.uleb128 0xb
 3845 0306 39       		.uleb128 0x39
 3846 0307 0B       		.uleb128 0xb
 3847 0308 27       		.uleb128 0x27
 3848 0309 19       		.uleb128 0x19
 3849 030a 11       		.uleb128 0x11
 3850 030b 01       		.uleb128 0x1
 3851 030c 12       		.uleb128 0x12
 3852 030d 06       		.uleb128 0x6
 3853 030e 40       		.uleb128 0x40
 3854 030f 18       		.uleb128 0x18
 3855 0310 9742     		.uleb128 0x2117
 3856 0312 19       		.uleb128 0x19
 3857 0313 01       		.uleb128 0x1
 3858 0314 13       		.uleb128 0x13
 3859 0315 00       		.byte	0
 3860 0316 00       		.byte	0
 3861 0317 35       		.uleb128 0x35
 3862 0318 2E       		.uleb128 0x2e
 3863 0319 01       		.byte	0x1
 3864 031a 31       		.uleb128 0x31
 3865 031b 13       		.uleb128 0x13
 3866 031c 11       		.uleb128 0x11
 3867 031d 01       		.uleb128 0x1
 3868 031e 12       		.uleb128 0x12
 3869 031f 06       		.uleb128 0x6
 3870 0320 40       		.uleb128 0x40
 3871 0321 18       		.uleb128 0x18
 3872 0322 9742     		.uleb128 0x2117
 3873 0324 19       		.uleb128 0x19
 3874 0325 01       		.uleb128 0x1
 3875 0326 13       		.uleb128 0x13
 3876 0327 00       		.byte	0
ARM GAS  /var/folders/l5/0x54b2c10074c8bt31ycjvl80000gp/T//ccu784hR.s 			page 69


 3877 0328 00       		.byte	0
 3878 0329 36       		.uleb128 0x36
 3879 032a 05       		.uleb128 0x5
 3880 032b 00       		.byte	0
 3881 032c 31       		.uleb128 0x31
 3882 032d 13       		.uleb128 0x13
 3883 032e 02       		.uleb128 0x2
 3884 032f 18       		.uleb128 0x18
 3885 0330 00       		.byte	0
 3886 0331 00       		.byte	0
 3887 0332 37       		.uleb128 0x37
 3888 0333 2E       		.uleb128 0x2e
 3889 0334 00       		.byte	0
 3890 0335 3F       		.uleb128 0x3f
 3891 0336 19       		.uleb128 0x19
 3892 0337 3C       		.uleb128 0x3c
 3893 0338 19       		.uleb128 0x19
 3894 0339 6E       		.uleb128 0x6e
 3895 033a 0E       		.uleb128 0xe
 3896 033b 03       		.uleb128 0x3
 3897 033c 0E       		.uleb128 0xe
 3898 033d 3A       		.uleb128 0x3a
 3899 033e 0B       		.uleb128 0xb
 3900 033f 3B       		.uleb128 0x3b
 3901 0340 05       		.uleb128 0x5
 3902 0341 39       		.uleb128 0x39
 3903 0342 0B       		.uleb128 0xb
 3904 0343 00       		.byte	0
 3905 0344 00       		.byte	0
 3906 0345 00       		.byte	0
 3907              		.section	.debug_loc,"",%progbits
 3908              	.Ldebug_loc0:
 3909              	.LVUS8:
 3910 0000 00       		.uleb128 0
 3911 0001 00       		.uleb128 .LVU196
 3912 0002 00       		.uleb128 .LVU196
 3913 0003 00       		.uleb128 0
 3914              	.LLST8:
 3915 0004 00000000 		.4byte	.LVL29
 3916 0008 60000000 		.4byte	.LVL36
 3917 000c 0100     		.2byte	0x1
 3918 000e 51       		.byte	0x51
 3919 000f 60000000 		.4byte	.LVL36
 3920 0013 94000000 		.4byte	.LFE15
 3921 0017 0400     		.2byte	0x4
 3922 0019 F3       		.byte	0xf3
 3923 001a 01       		.uleb128 0x1
 3924 001b 51       		.byte	0x51
 3925 001c 9F       		.byte	0x9f
 3926 001d 00000000 		.4byte	0
 3927 0021 00000000 		.4byte	0
 3928              	.LVUS9:
 3929 0025 04       		.uleb128 .LVU157
 3930 0026 00       		.uleb128 .LVU160
 3931 0027 00       		.uleb128 .LVU160
 3932 0028 00       		.uleb128 0
 3933              	.LLST9:
ARM GAS  /var/folders/l5/0x54b2c10074c8bt31ycjvl80000gp/T//ccu784hR.s 			page 70


 3934 0029 00000000 		.4byte	.LVL29
 3935 002d 0C000000 		.4byte	.LVL30
 3936 0031 0300     		.2byte	0x3
 3937 0033 08       		.byte	0x8
 3938 0034 20       		.byte	0x20
 3939 0035 9F       		.byte	0x9f
 3940 0036 0C000000 		.4byte	.LVL30
 3941 003a 94000000 		.4byte	.LFE15
 3942 003e 0100     		.2byte	0x1
 3943 0040 5E       		.byte	0x5e
 3944 0041 00000000 		.4byte	0
 3945 0045 00000000 		.4byte	0
 3946              	.LVUS10:
 3947 0049 00       		.uleb128 .LVU167
 3948 004a 00       		.uleb128 .LVU171
 3949 004b 00       		.uleb128 .LVU171
 3950 004c 00       		.uleb128 0
 3951              	.LLST10:
 3952 004d 18000000 		.4byte	.LVL32
 3953 0051 20000000 		.4byte	.LVL33
 3954 0055 0100     		.2byte	0x1
 3955 0057 53       		.byte	0x53
 3956 0058 20000000 		.4byte	.LVL33
 3957 005c 94000000 		.4byte	.LFE15
 3958 0060 0100     		.2byte	0x1
 3959 0062 5C       		.byte	0x5c
 3960 0063 00000000 		.4byte	0
 3961 0067 00000000 		.4byte	0
 3962              	.LVUS11:
 3963 006b 01       		.uleb128 .LVU174
 3964 006c 00       		.uleb128 .LVU182
 3965              	.LLST11:
 3966 006d 24000000 		.4byte	.LVL34
 3967 0071 38000000 		.4byte	.LVL35
 3968 0075 0100     		.2byte	0x1
 3969 0077 5C       		.byte	0x5c
 3970 0078 00000000 		.4byte	0
 3971 007c 00000000 		.4byte	0
 3972              	.LVUS6:
 3973 0080 00       		.uleb128 0
 3974 0081 00       		.uleb128 .LVU143
 3975 0082 00       		.uleb128 .LVU143
 3976 0083 00       		.uleb128 .LVU145
 3977 0084 00       		.uleb128 .LVU150
 3978 0085 00       		.uleb128 .LVU152
 3979 0086 00       		.uleb128 .LVU152
 3980 0087 00       		.uleb128 0
 3981              	.LLST6:
 3982 0088 00000000 		.4byte	.LVL24
 3983 008c 04000000 		.4byte	.LVL25
 3984 0090 0100     		.2byte	0x1
 3985 0092 50       		.byte	0x50
 3986 0093 04000000 		.4byte	.LVL25
 3987 0097 10000000 		.4byte	.LVL26
 3988 009b 0300     		.2byte	0x3
 3989 009d 70       		.byte	0x70
 3990 009e 7F       		.sleb128 -1
ARM GAS  /var/folders/l5/0x54b2c10074c8bt31ycjvl80000gp/T//ccu784hR.s 			page 71


 3991 009f 9F       		.byte	0x9f
 3992 00a0 20000000 		.4byte	.LVL27
 3993 00a4 24000000 		.4byte	.LVL28
 3994 00a8 0100     		.2byte	0x1
 3995 00aa 50       		.byte	0x50
 3996 00ab 24000000 		.4byte	.LVL28
 3997 00af 34000000 		.4byte	.LFE14
 3998 00b3 0300     		.2byte	0x3
 3999 00b5 70       		.byte	0x70
 4000 00b6 7F       		.sleb128 -1
 4001 00b7 9F       		.byte	0x9f
 4002 00b8 00000000 		.4byte	0
 4003 00bc 00000000 		.4byte	0
 4004              	.LVUS7:
 4005 00c0 00       		.uleb128 .LVU143
 4006 00c1 00       		.uleb128 .LVU145
 4007 00c2 00       		.uleb128 .LVU152
 4008 00c3 00       		.uleb128 0
 4009              	.LLST7:
 4010 00c4 04000000 		.4byte	.LVL25
 4011 00c8 10000000 		.4byte	.LVL26
 4012 00cc 0200     		.2byte	0x2
 4013 00ce 70       		.byte	0x70
 4014 00cf 7F       		.sleb128 -1
 4015 00d0 24000000 		.4byte	.LVL28
 4016 00d4 34000000 		.4byte	.LFE14
 4017 00d8 0200     		.2byte	0x2
 4018 00da 70       		.byte	0x70
 4019 00db 7E       		.sleb128 -2
 4020 00dc 00000000 		.4byte	0
 4021 00e0 00000000 		.4byte	0
 4022              	.LVUS5:
 4023 00e4 00       		.uleb128 0
 4024 00e5 00       		.uleb128 .LVU116
 4025 00e6 00       		.uleb128 .LVU116
 4026 00e7 00       		.uleb128 0
 4027              	.LLST5:
 4028 00e8 00000000 		.4byte	.LVL19
 4029 00ec 18000000 		.4byte	.LVL20
 4030 00f0 0100     		.2byte	0x1
 4031 00f2 50       		.byte	0x50
 4032 00f3 18000000 		.4byte	.LVL20
 4033 00f7 34000000 		.4byte	.LFE11
 4034 00fb 0400     		.2byte	0x4
 4035 00fd F3       		.byte	0xf3
 4036 00fe 01       		.uleb128 0x1
 4037 00ff 50       		.byte	0x50
 4038 0100 9F       		.byte	0x9f
 4039 0101 00000000 		.4byte	0
 4040 0105 00000000 		.4byte	0
 4041              	.LVUS3:
 4042 0109 00       		.uleb128 0
 4043 010a 00       		.uleb128 .LVU66
 4044 010b 00       		.uleb128 .LVU66
 4045 010c 00       		.uleb128 0
 4046              	.LLST3:
 4047 010d 00000000 		.4byte	.LVL10
ARM GAS  /var/folders/l5/0x54b2c10074c8bt31ycjvl80000gp/T//ccu784hR.s 			page 72


 4048 0111 28000000 		.4byte	.LVL12
 4049 0115 0100     		.2byte	0x1
 4050 0117 50       		.byte	0x50
 4051 0118 28000000 		.4byte	.LVL12
 4052 011c C4000000 		.4byte	.LFE10
 4053 0120 0400     		.2byte	0x4
 4054 0122 F3       		.byte	0xf3
 4055 0123 01       		.uleb128 0x1
 4056 0124 50       		.byte	0x50
 4057 0125 9F       		.byte	0x9f
 4058 0126 00000000 		.4byte	0
 4059 012a 00000000 		.4byte	0
 4060              	.LVUS4:
 4061 012e 00       		.uleb128 0
 4062 012f 00       		.uleb128 .LVU60
 4063 0130 00       		.uleb128 .LVU60
 4064 0131 00       		.uleb128 .LVU86
 4065 0132 00       		.uleb128 .LVU87
 4066 0133 00       		.uleb128 0
 4067              	.LLST4:
 4068 0134 00000000 		.4byte	.LVL10
 4069 0138 14000000 		.4byte	.LVL11
 4070 013c 0100     		.2byte	0x1
 4071 013e 51       		.byte	0x51
 4072 013f 14000000 		.4byte	.LVL11
 4073 0143 58000000 		.4byte	.LVL13
 4074 0147 0100     		.2byte	0x1
 4075 0149 51       		.byte	0x51
 4076 014a 63000000 		.4byte	.LVL14-1
 4077 014e C4000000 		.4byte	.LFE10
 4078 0152 1400     		.2byte	0x14
 4079 0154 03       		.byte	0x3
 4080 0155 00000000 		.4byte	.LANCHOR0
 4081 0159 F3       		.byte	0xf3
 4082 015a 01       		.uleb128 0x1
 4083 015b 51       		.byte	0x51
 4084 015c F3       		.byte	0xf3
 4085 015d 01       		.uleb128 0x1
 4086 015e 51       		.byte	0x51
 4087 015f 75       		.byte	0x75
 4088 0160 00       		.sleb128 0
 4089 0161 29       		.byte	0x29
 4090 0162 28       		.byte	0x28
 4091 0163 0100     		.2byte	0x1
 4092 0165 16       		.byte	0x16
 4093 0166 13       		.byte	0x13
 4094 0167 9F       		.byte	0x9f
 4095 0168 00000000 		.4byte	0
 4096 016c 00000000 		.4byte	0
 4097              	.LVUS0:
 4098 0170 00       		.uleb128 0
 4099 0171 00       		.uleb128 .LVU13
 4100 0172 00       		.uleb128 .LVU13
 4101 0173 00       		.uleb128 .LVU40
 4102 0174 00       		.uleb128 .LVU40
 4103 0175 00       		.uleb128 .LVU44
 4104 0176 00       		.uleb128 .LVU44
ARM GAS  /var/folders/l5/0x54b2c10074c8bt31ycjvl80000gp/T//ccu784hR.s 			page 73


 4105 0177 00       		.uleb128 0
 4106              	.LLST0:
 4107 0178 00000000 		.4byte	.LVL1
 4108 017c 1C000000 		.4byte	.LVL2
 4109 0180 0100     		.2byte	0x1
 4110 0182 50       		.byte	0x50
 4111 0183 1C000000 		.4byte	.LVL2
 4112 0187 64000000 		.4byte	.LVL5
 4113 018b 0100     		.2byte	0x1
 4114 018d 55       		.byte	0x55
 4115 018e 64000000 		.4byte	.LVL5
 4116 0192 74000000 		.4byte	.LVL6
 4117 0196 0100     		.2byte	0x1
 4118 0198 50       		.byte	0x50
 4119 0199 74000000 		.4byte	.LVL6
 4120 019d A8000000 		.4byte	.LFE8
 4121 01a1 0100     		.2byte	0x1
 4122 01a3 55       		.byte	0x55
 4123 01a4 00000000 		.4byte	0
 4124 01a8 00000000 		.4byte	0
 4125              	.LVUS1:
 4126 01ac 00       		.uleb128 .LVU24
 4127 01ad 00       		.uleb128 .LVU40
 4128 01ae 00       		.uleb128 .LVU50
 4129 01af 00       		.uleb128 0
 4130              	.LLST1:
 4131 01b0 44000000 		.4byte	.LVL3
 4132 01b4 64000000 		.4byte	.LVL5
 4133 01b8 0100     		.2byte	0x1
 4134 01ba 50       		.byte	0x50
 4135 01bb 94000000 		.4byte	.LVL8
 4136 01bf A8000000 		.4byte	.LFE8
 4137 01c3 0100     		.2byte	0x1
 4138 01c5 50       		.byte	0x50
 4139 01c6 00000000 		.4byte	0
 4140 01ca 00000000 		.4byte	0
 4141              	.LVUS2:
 4142 01ce 01       		.uleb128 .LVU28
 4143 01cf 00       		.uleb128 .LVU40
 4144              	.LLST2:
 4145 01d0 4C000000 		.4byte	.LVL4
 4146 01d4 64000000 		.4byte	.LVL5
 4147 01d8 0100     		.2byte	0x1
 4148 01da 50       		.byte	0x50
 4149 01db 00000000 		.4byte	0
 4150 01df 00000000 		.4byte	0
 4151              		.section	.debug_aranges,"",%progbits
 4152 0000 5C000000 		.4byte	0x5c
 4153 0004 0200     		.2byte	0x2
 4154 0006 00000000 		.4byte	.Ldebug_info0
 4155 000a 04       		.byte	0x4
 4156 000b 00       		.byte	0
 4157 000c 0000     		.2byte	0
 4158 000e 0000     		.2byte	0
 4159 0010 00000000 		.4byte	.LFB7
 4160 0014 18000000 		.4byte	.LFE7-.LFB7
 4161 0018 00000000 		.4byte	.LFB8
ARM GAS  /var/folders/l5/0x54b2c10074c8bt31ycjvl80000gp/T//ccu784hR.s 			page 74


 4162 001c A8000000 		.4byte	.LFE8-.LFB8
 4163 0020 00000000 		.4byte	.LFB9
 4164 0024 18000000 		.4byte	.LFE9-.LFB9
 4165 0028 00000000 		.4byte	.LFB10
 4166 002c C4000000 		.4byte	.LFE10-.LFB10
 4167 0030 00000000 		.4byte	.LFB11
 4168 0034 34000000 		.4byte	.LFE11-.LFB11
 4169 0038 00000000 		.4byte	.LFB12
 4170 003c 20000000 		.4byte	.LFE12-.LFB12
 4171 0040 00000000 		.4byte	.LFB13
 4172 0044 1C000000 		.4byte	.LFE13-.LFB13
 4173 0048 00000000 		.4byte	.LFB14
 4174 004c 34000000 		.4byte	.LFE14-.LFB14
 4175 0050 00000000 		.4byte	.LFB15
 4176 0054 94000000 		.4byte	.LFE15-.LFB15
 4177 0058 00000000 		.4byte	0
 4178 005c 00000000 		.4byte	0
 4179              		.section	.debug_ranges,"",%progbits
 4180              	.Ldebug_ranges0:
 4181 0000 30000000 		.4byte	.LBB15
 4182 0004 60000000 		.4byte	.LBE15
 4183 0008 94000000 		.4byte	.LBB18
 4184 000c A8000000 		.4byte	.LBE18
 4185 0010 00000000 		.4byte	0
 4186 0014 00000000 		.4byte	0
 4187 0018 08000000 		.4byte	.LBB21
 4188 001c 0C000000 		.4byte	.LBE21
 4189 0020 24000000 		.4byte	.LBB25
 4190 0024 30000000 		.4byte	.LBE25
 4191 0028 34000000 		.4byte	.LBB26
 4192 002c 38000000 		.4byte	.LBE26
 4193 0030 00000000 		.4byte	0
 4194 0034 00000000 		.4byte	0
 4195 0038 3C000000 		.4byte	.LBB27
 4196 003c 50000000 		.4byte	.LBE27
 4197 0040 54000000 		.4byte	.LBB30
 4198 0044 58000000 		.4byte	.LBE30
 4199 0048 00000000 		.4byte	0
 4200 004c 00000000 		.4byte	0
 4201 0050 5C000000 		.4byte	.LBB31
 4202 0054 70000000 		.4byte	.LBE31
 4203 0058 74000000 		.4byte	.LBB37
 4204 005c 78000000 		.4byte	.LBE37
 4205 0060 00000000 		.4byte	0
 4206 0064 00000000 		.4byte	0
 4207 0068 70000000 		.4byte	.LBB34
 4208 006c 74000000 		.4byte	.LBE34
 4209 0070 78000000 		.4byte	.LBB38
 4210 0074 8C000000 		.4byte	.LBE38
 4211 0078 00000000 		.4byte	0
 4212 007c 00000000 		.4byte	0
 4213 0080 00000000 		.4byte	.LFB7
 4214 0084 18000000 		.4byte	.LFE7
 4215 0088 00000000 		.4byte	.LFB8
 4216 008c A8000000 		.4byte	.LFE8
 4217 0090 00000000 		.4byte	.LFB9
 4218 0094 18000000 		.4byte	.LFE9
ARM GAS  /var/folders/l5/0x54b2c10074c8bt31ycjvl80000gp/T//ccu784hR.s 			page 75


 4219 0098 00000000 		.4byte	.LFB10
 4220 009c C4000000 		.4byte	.LFE10
 4221 00a0 00000000 		.4byte	.LFB11
 4222 00a4 34000000 		.4byte	.LFE11
 4223 00a8 00000000 		.4byte	.LFB12
 4224 00ac 20000000 		.4byte	.LFE12
 4225 00b0 00000000 		.4byte	.LFB13
 4226 00b4 1C000000 		.4byte	.LFE13
 4227 00b8 00000000 		.4byte	.LFB14
 4228 00bc 34000000 		.4byte	.LFE14
 4229 00c0 00000000 		.4byte	.LFB15
 4230 00c4 94000000 		.4byte	.LFE15
 4231 00c8 00000000 		.4byte	0
 4232 00cc 00000000 		.4byte	0
 4233              		.section	.debug_line,"",%progbits
 4234              	.Ldebug_line0:
 4235 0000 33060000 		.section	.debug_str,"MS",%progbits,1
 4235      03008802 
 4235      00000201 
 4235      FB0E0D00 
 4235      01010101 
 4236              	.LASF97:
 4237 0000 63665F6F 		.ascii	"cf_off_older\000"
 4237      66665F6F 
 4237      6C646572 
 4237      00
 4238              	.LASF43:
 4239 000d 705F6D73 		.ascii	"p_msg\000"
 4239      6700
 4240              	.LASF174:
 4241 0013 62617564 		.ascii	"baud_rate\000"
 4241      5F726174 
 4241      6500
 4242              	.LASF2:
 4243 001d 73697A65 		.ascii	"size_t\000"
 4243      5F7400
 4244              	.LASF82:
 4245 0024 7264796D 		.ascii	"rdymsg\000"
 4245      736700
 4246              	.LASF177:
 4247 002b 77726974 		.ascii	"write\000"
 4247      6500
 4248              	.LASF118:
 4249 0031 4F757470 		.ascii	"OutputQueue\000"
 4249      75745175 
 4249      65756500 
 4250              	.LASF3:
 4251 003d 5F5F7569 		.ascii	"__uint8_t\000"
 4251      6E74385F 
 4251      7400
 4252              	.LASF186:
 4253 0047 5350495F 		.ascii	"SPI_ACTIVE\000"
 4253      41435449 
 4253      564500
 4254              	.LASF69:
 4255 0052 76746C69 		.ascii	"vtlist\000"
 4255      737400
ARM GAS  /var/folders/l5/0x54b2c10074c8bt31ycjvl80000gp/T//ccu784hR.s 			page 76


 4256              	.LASF120:
 4257 0059 62736364 		.ascii	"bscdevice_t\000"
 4257      65766963 
 4257      655F7400 
 4258              	.LASF158:
 4259 0065 72786275 		.ascii	"rxbuf\000"
 4259      6600
 4260              	.LASF111:
 4261 006b 715F746F 		.ascii	"q_top\000"
 4261      7000
 4262              	.LASF13:
 4263 0071 6C6F6E67 		.ascii	"long long unsigned int\000"
 4263      206C6F6E 
 4263      6720756E 
 4263      7369676E 
 4263      65642069 
 4264              	.LASF93:
 4265 0088 63685F74 		.ascii	"ch_threadsize\000"
 4265      68726561 
 4265      6473697A 
 4265      6500
 4266              	.LASF210:
 4267 0096 64617461 		.ascii	"data\000"
 4267      00
 4268              	.LASF83:
 4269 009b 65786974 		.ascii	"exitcode\000"
 4269      636F6465 
 4269      00
 4270              	.LASF189:
 4271 00a4 53504944 		.ascii	"SPIDriver\000"
 4271      72697665 
 4271      7200
 4272              	.LASF205:
 4273 00ae 6E65776C 		.ascii	"newline\000"
 4273      696E6500 
 4274              	.LASF125:
 4275 00b6 64617461 		.ascii	"dataFifo\000"
 4275      4669666F 
 4275      00
 4276              	.LASF31:
 4277 00bf 705F7072 		.ascii	"p_prio\000"
 4277      696F00
 4278              	.LASF100:
 4279 00c6 63665F6F 		.ascii	"cf_off_state\000"
 4279      66665F73 
 4279      74617465 
 4279      00
 4280              	.LASF182:
 4281 00d3 72656164 		.ascii	"readt\000"
 4281      7400
 4282              	.LASF151:
 4283 00d9 64657669 		.ascii	"device\000"
 4283      636500
 4284              	.LASF108:
 4285 00e0 715F7761 		.ascii	"q_waiting\000"
 4285      6974696E 
 4285      6700
ARM GAS  /var/folders/l5/0x54b2c10074c8bt31ycjvl80000gp/T//ccu784hR.s 			page 77


 4286              	.LASF12:
 4287 00ea 6C6F6E67 		.ascii	"long long int\000"
 4287      206C6F6E 
 4287      6720696E 
 4287      7400
 4288              	.LASF1:
 4289 00f8 7369676E 		.ascii	"signed char\000"
 4289      65642063 
 4289      68617200 
 4290              	.LASF99:
 4291 0104 63665F6F 		.ascii	"cf_off_stklimit\000"
 4291      66665F73 
 4291      746B6C69 
 4291      6D697400 
 4292              	.LASF184:
 4293 0114 5350495F 		.ascii	"SPI_STOP\000"
 4293      53544F50 
 4293      00
 4294              	.LASF101:
 4295 011d 63665F6F 		.ascii	"cf_off_flags\000"
 4295      66665F66 
 4295      6C616773 
 4295      00
 4296              	.LASF167:
 4297 012a 53445F53 		.ascii	"SD_STOP\000"
 4297      544F5000 
 4298              	.LASF18:
 4299 0132 626F6F6C 		.ascii	"bool_t\000"
 4299      5F7400
 4300              	.LASF72:
 4301 0139 6D5F7175 		.ascii	"m_queue\000"
 4301      65756500 
 4302              	.LASF154:
 4303 0141 61646472 		.ascii	"addr\000"
 4303      00
 4304              	.LASF22:
 4305 0146 74736C69 		.ascii	"tslices_t\000"
 4305      6365735F 
 4305      7400
 4306              	.LASF140:
 4307 0150 4932435F 		.ascii	"I2C_UNINIT\000"
 4307      554E494E 
 4307      495400
 4308              	.LASF162:
 4309 015b 69326361 		.ascii	"i2caddr_t\000"
 4309      6464725F 
 4309      7400
 4310              	.LASF148:
 4311 0165 73746174 		.ascii	"state\000"
 4311      6500
 4312              	.LASF9:
 4313 016b 6C6F6E67 		.ascii	"long int\000"
 4313      20696E74 
 4313      00
 4314              	.LASF220:
 4315 0174 6D696E69 		.ascii	"mini_uart_send\000"
 4315      5F756172 
ARM GAS  /var/folders/l5/0x54b2c10074c8bt31ycjvl80000gp/T//ccu784hR.s 			page 78


 4315      745F7365 
 4315      6E6400
 4316              	.LASF20:
 4317 0183 74737461 		.ascii	"tstate_t\000"
 4317      74655F74 
 4317      00
 4318              	.LASF153:
 4319 018c 74687265 		.ascii	"thread\000"
 4319      616400
 4320              	.LASF127:
 4321 0193 64617461 		.ascii	"dataDelay\000"
 4321      44656C61 
 4321      7900
 4322              	.LASF160:
 4323 019d 72786964 		.ascii	"rxidx\000"
 4323      7800
 4324              	.LASF110:
 4325 01a3 715F6275 		.ascii	"q_buffer\000"
 4325      66666572 
 4325      00
 4326              	.LASF15:
 4327 01ac 75696E74 		.ascii	"uint16_t\000"
 4327      31365F74 
 4327      00
 4328              	.LASF202:
 4329 01b5 53504930 		.ascii	"SPI0\000"
 4329      00
 4330              	.LASF105:
 4331 01ba 63686465 		.ascii	"chdebug_t\000"
 4331      6275675F 
 4331      7400
 4332              	.LASF143:
 4333 01c4 4932435F 		.ascii	"I2C_ACTIVE_TX\000"
 4333      41435449 
 4333      56455F54 
 4333      5800
 4334              	.LASF199:
 4335 01d2 636C6F63 		.ascii	"clock_phase\000"
 4335      6B5F7068 
 4335      61736500 
 4336              	.LASF33:
 4337 01de 705F6E65 		.ascii	"p_newer\000"
 4337      77657200 
 4338              	.LASF119:
 4339 01e6 5F69646C 		.ascii	"_idle_thread_wa\000"
 4339      655F7468 
 4339      72656164 
 4339      5F776100 
 4340              	.LASF192:
 4341 01f6 656E645F 		.ascii	"end_cb\000"
 4341      636200
 4342              	.LASF190:
 4343 01fd 7478636E 		.ascii	"txcnt\000"
 4343      7400
 4344              	.LASF196:
 4345 0203 63686970 		.ascii	"chip_select_polarity0\000"
 4345      5F73656C 
ARM GAS  /var/folders/l5/0x54b2c10074c8bt31ycjvl80000gp/T//ccu784hR.s 			page 79


 4345      6563745F 
 4345      706F6C61 
 4345      72697479 
 4346              	.LASF197:
 4347 0219 63686970 		.ascii	"chip_select_polarity1\000"
 4347      5F73656C 
 4347      6563745F 
 4347      706F6C61 
 4347      72697479 
 4348              	.LASF121:
 4349 022f 636F6E74 		.ascii	"control\000"
 4349      726F6C00 
 4350              	.LASF10:
 4351 0237 5F5F7569 		.ascii	"__uint32_t\000"
 4351      6E743332 
 4351      5F7400
 4352              	.LASF50:
 4353 0242 72656761 		.ascii	"regarm_t\000"
 4353      726D5F74 
 4353      00
 4354              	.LASF56:
 4355 024b 76745F70 		.ascii	"vt_prev\000"
 4355      72657600 
 4356              	.LASF124:
 4357 0253 736C6176 		.ascii	"slaveAddress\000"
 4357      65416464 
 4357      72657373 
 4357      00
 4358              	.LASF191:
 4359 0260 73706963 		.ascii	"spicallback_t\000"
 4359      616C6C62 
 4359      61636B5F 
 4359      7400
 4360              	.LASF165:
 4361 026e 49324330 		.ascii	"I2C0\000"
 4361      00
 4362              	.LASF80:
 4363 0273 4576656E 		.ascii	"EventSource\000"
 4363      74536F75 
 4363      72636500 
 4364              	.LASF0:
 4365 027f 756E7369 		.ascii	"unsigned int\000"
 4365      676E6564 
 4365      20696E74 
 4365      00
 4366              	.LASF55:
 4367 028c 76745F6E 		.ascii	"vt_next\000"
 4367      65787400 
 4368              	.LASF155:
 4369 0294 74786275 		.ascii	"txbuf\000"
 4369      6600
 4370              	.LASF176:
 4371 029a 53657269 		.ascii	"SerialDriverVMT\000"
 4371      616C4472 
 4371      69766572 
 4371      564D5400 
 4372              	.LASF150:
ARM GAS  /var/folders/l5/0x54b2c10074c8bt31ycjvl80000gp/T//ccu784hR.s 			page 80


 4373 02aa 6572726F 		.ascii	"errors\000"
 4373      727300
 4374              	.LASF172:
 4375 02b1 69717565 		.ascii	"iqueue\000"
 4375      756500
 4376              	.LASF11:
 4377 02b8 6C6F6E67 		.ascii	"long unsigned int\000"
 4377      20756E73 
 4377      69676E65 
 4377      6420696E 
 4377      7400
 4378              	.LASF106:
 4379 02ca 63685F64 		.ascii	"ch_debug\000"
 4379      65627567 
 4379      00
 4380              	.LASF208:
 4381 02d3 73645F6C 		.ascii	"sd_lld_init\000"
 4381      6C645F69 
 4381      6E697400 
 4382              	.LASF180:
 4383 02df 67657474 		.ascii	"gett\000"
 4383      00
 4384              	.LASF53:
 4385 02e4 76746675 		.ascii	"vtfunc_t\000"
 4385      6E635F74 
 4385      00
 4386              	.LASF87:
 4387 02ed 63685F69 		.ascii	"ch_identifier\000"
 4387      64656E74 
 4387      69666965 
 4387      7200
 4388              	.LASF195:
 4389 02fb 63686970 		.ascii	"chip_select_polarity\000"
 4389      5F73656C 
 4389      6563745F 
 4389      706F6C61 
 4389      72697479 
 4390              	.LASF171:
 4391 0310 6576656E 		.ascii	"event\000"
 4391      7400
 4392              	.LASF52:
 4393 0316 636F6E74 		.ascii	"context\000"
 4393      65787400 
 4394              	.LASF7:
 4395 031e 73686F72 		.ascii	"short unsigned int\000"
 4395      7420756E 
 4395      7369676E 
 4395      65642069 
 4395      6E7400
 4396              	.LASF135:
 4397 0331 6770696F 		.ascii	"gpio_port_t\000"
 4397      5F706F72 
 4397      745F7400 
 4398              	.LASF131:
 4399 033d 6770636C 		.ascii	"gpclr\000"
 4399      7200
 4400              	.LASF217:
ARM GAS  /var/folders/l5/0x54b2c10074c8bt31ycjvl80000gp/T//ccu784hR.s 			page 81


 4401 0343 2E2E2F2E 		.ascii	"../../os/hal/platforms/BCM2835/serial_lld.c\000"
 4401      2E2F6F73 
 4401      2F68616C 
 4401      2F706C61 
 4401      74666F72 
 4402              	.LASF24:
 4403 036f 6D73675F 		.ascii	"msg_t\000"
 4403      7400
 4404              	.LASF173:
 4405 0375 6F717565 		.ascii	"oqueue\000"
 4405      756500
 4406              	.LASF65:
 4407 037c 725F6E65 		.ascii	"r_newer\000"
 4407      77657200 
 4408              	.LASF76:
 4409 0384 656C5F6E 		.ascii	"el_next\000"
 4409      65787400 
 4410              	.LASF216:
 4411 038c 474E5520 		.ascii	"GNU C17 8.3.1 20190703 (release) [gcc-8-branch revi"
 4411      43313720 
 4411      382E332E 
 4411      31203230 
 4411      31393037 
 4412 03bf 73696F6E 		.ascii	"sion 273027] -mcpu=arm1176jz-s -mno-thumb-interwork"
 4412      20323733 
 4412      3032375D 
 4412      202D6D63 
 4412      70753D61 
 4413 03f2 202D6D66 		.ascii	" -mfloat-abi=soft -marm -march=armv6kz -ggdb -O2 -f"
 4413      6C6F6174 
 4413      2D616269 
 4413      3D736F66 
 4413      74202D6D 
 4414 0425 6F6D6974 		.ascii	"omit-frame-pointer -ffunction-sections -fdata-secti"
 4414      2D667261 
 4414      6D652D70 
 4414      6F696E74 
 4414      6572202D 
 4415 0458 6F6E7300 		.ascii	"ons\000"
 4416              	.LASF212:
 4417 045c 62636D32 		.ascii	"bcm2835_delay\000"
 4417      3833355F 
 4417      64656C61 
 4417      7900
 4418              	.LASF181:
 4419 046a 77726974 		.ascii	"writet\000"
 4419      657400
 4420              	.LASF19:
 4421 0471 746D6F64 		.ascii	"tmode_t\000"
 4421      655F7400 
 4422              	.LASF48:
 4423 0479 54687265 		.ascii	"ThreadsList\000"
 4423      6164734C 
 4423      69737400 
 4424              	.LASF25:
 4425 0485 6576656E 		.ascii	"eventmask_t\000"
 4425      746D6173 
ARM GAS  /var/folders/l5/0x54b2c10074c8bt31ycjvl80000gp/T//ccu784hR.s 			page 82


 4425      6B5F7400 
 4426              	.LASF117:
 4427 0491 496E7075 		.ascii	"InputQueue\000"
 4427      74517565 
 4427      756500
 4428              	.LASF71:
 4429 049c 4D757465 		.ascii	"Mutex\000"
 4429      7800
 4430              	.LASF107:
 4431 04a2 47656E65 		.ascii	"GenericQueue\000"
 4431      72696351 
 4431      75657565 
 4431      00
 4432              	.LASF49:
 4433 04af 73746B61 		.ascii	"stkalign_t\000"
 4433      6C69676E 
 4433      5F7400
 4434              	.LASF88:
 4435 04ba 63685F7A 		.ascii	"ch_zero\000"
 4435      65726F00 
 4436              	.LASF102:
 4437 04c2 63665F6F 		.ascii	"cf_off_refs\000"
 4437      66665F72 
 4437      65667300 
 4438              	.LASF132:
 4439 04ce 67706C65 		.ascii	"gplev\000"
 4439      7600
 4440              	.LASF179:
 4441 04d4 70757474 		.ascii	"putt\000"
 4441      00
 4442              	.LASF57:
 4443 04d9 76745F74 		.ascii	"vt_time\000"
 4443      696D6500 
 4444              	.LASF141:
 4445 04e1 4932435F 		.ascii	"I2C_STOP\000"
 4445      53544F50 
 4445      00
 4446              	.LASF126:
 4447 04ea 636C6F63 		.ascii	"clockDivider\000"
 4447      6B446976 
 4447      69646572 
 4447      00
 4448              	.LASF109:
 4449 04f7 715F636F 		.ascii	"q_counter\000"
 4449      756E7465 
 4449      7200
 4450              	.LASF58:
 4451 0501 76745F66 		.ascii	"vt_func\000"
 4451      756E6300 
 4452              	.LASF92:
 4453 0509 63685F74 		.ascii	"ch_timesize\000"
 4453      696D6573 
 4453      697A6500 
 4454              	.LASF215:
 4455 0515 7364496E 		.ascii	"sdIncomingDataI\000"
 4455      636F6D69 
 4455      6E674461 
ARM GAS  /var/folders/l5/0x54b2c10074c8bt31ycjvl80000gp/T//ccu784hR.s 			page 83


 4455      74614900 
 4456              	.LASF163:
 4457 0525 69635F73 		.ascii	"ic_speed\000"
 4457      70656564 
 4457      00
 4458              	.LASF98:
 4459 052e 63665F6F 		.ascii	"cf_off_name\000"
 4459      66665F6E 
 4459      616D6500 
 4460              	.LASF34:
 4461 053a 705F6F6C 		.ascii	"p_older\000"
 4461      64657200 
 4462              	.LASF159:
 4463 0542 72786279 		.ascii	"rxbytes\000"
 4463      74657300 
 4464              	.LASF112:
 4465 054a 715F7772 		.ascii	"q_wrptr\000"
 4465      70747200 
 4466              	.LASF64:
 4467 0552 725F6374 		.ascii	"r_ctx\000"
 4467      7800
 4468              	.LASF47:
 4469 0558 54687265 		.ascii	"ThreadsQueue\000"
 4469      61647351 
 4469      75657565 
 4469      00
 4470              	.LASF218:
 4471 0565 2F557365 		.ascii	"/Users/fernandoguirado/eclipse-workspace/ChibiOS-RP"
 4471      72732F66 
 4471      65726E61 
 4471      6E646F67 
 4471      75697261 
 4472 0598 692D636F 		.ascii	"i-copia/demos/semaphores\000"
 4472      7069612F 
 4472      64656D6F 
 4472      732F7365 
 4472      6D617068 
 4473              	.LASF89:
 4474 05b1 63685F73 		.ascii	"ch_size\000"
 4474      697A6500 
 4475              	.LASF137:
 4476 05b9 494F504F 		.ascii	"IOPORT0\000"
 4476      52543000 
 4477              	.LASF219:
 4478 05c1 64656661 		.ascii	"default_config\000"
 4478      756C745F 
 4478      636F6E66 
 4478      696700
 4479              	.LASF67:
 4480 05d0 725F6375 		.ascii	"r_current\000"
 4480      7272656E 
 4480      7400
 4481              	.LASF66:
 4482 05da 725F6F6C 		.ascii	"r_older\000"
 4482      64657200 
 4483              	.LASF78:
 4484 05e2 656C5F6D 		.ascii	"el_mask\000"
ARM GAS  /var/folders/l5/0x54b2c10074c8bt31ycjvl80000gp/T//ccu784hR.s 			page 84


 4484      61736B00 
 4485              	.LASF130:
 4486 05ea 67707365 		.ascii	"gpset\000"
 4486      7400
 4487              	.LASF133:
 4488 05f0 67707075 		.ascii	"gppudclk\000"
 4488      64636C6B 
 4488      00
 4489              	.LASF193:
 4490 05f9 6C6F7373 		.ascii	"lossiEnabled\000"
 4490      69456E61 
 4490      626C6564 
 4490      00
 4491              	.LASF211:
 4492 0606 62636D32 		.ascii	"bcm2835_gpio_fnsel\000"
 4492      3833355F 
 4492      6770696F 
 4492      5F666E73 
 4492      656C00
 4493              	.LASF194:
 4494 0619 63686970 		.ascii	"chip_select\000"
 4494      5F73656C 
 4494      65637400 
 4495              	.LASF21:
 4496 0625 74726566 		.ascii	"trefs_t\000"
 4496      735F7400 
 4497              	.LASF146:
 4498 062d 69326373 		.ascii	"i2cstate_t\000"
 4498      74617465 
 4498      5F7400
 4499              	.LASF91:
 4500 0638 63685F70 		.ascii	"ch_ptrsize\000"
 4500      74727369 
 4500      7A6500
 4501              	.LASF116:
 4502 0643 716E6F74 		.ascii	"qnotify_t\000"
 4502      6966795F 
 4502      7400
 4503              	.LASF30:
 4504 064d 705F7072 		.ascii	"p_prev\000"
 4504      657600
 4505              	.LASF23:
 4506 0654 74707269 		.ascii	"tprio_t\000"
 4506      6F5F7400 
 4507              	.LASF113:
 4508 065c 715F7264 		.ascii	"q_rdptr\000"
 4508      70747200 
 4509              	.LASF161:
 4510 0664 69326366 		.ascii	"i2cflags_t\000"
 4510      6C616773 
 4510      5F7400
 4511              	.LASF152:
 4512 066f 6D757465 		.ascii	"mutex\000"
 4512      7800
 4513              	.LASF16:
 4514 0675 696E7433 		.ascii	"int32_t\000"
 4514      325F7400 
ARM GAS  /var/folders/l5/0x54b2c10074c8bt31ycjvl80000gp/T//ccu784hR.s 			page 85


 4515              	.LASF4:
 4516 067d 756E7369 		.ascii	"unsigned char\000"
 4516      676E6564 
 4516      20636861 
 4516      7200
 4517              	.LASF207:
 4518 068b 73645F6C 		.ascii	"sd_lld_start\000"
 4518      6C645F73 
 4518      74617274 
 4518      00
 4519              	.LASF77:
 4520 0698 656C5F6C 		.ascii	"el_listener\000"
 4520      69737465 
 4520      6E657200 
 4521              	.LASF79:
 4522 06a4 656C5F66 		.ascii	"el_flags\000"
 4522      6C616773 
 4522      00
 4523              	.LASF45:
 4524 06ad 705F6D74 		.ascii	"p_mtxlist\000"
 4524      786C6973 
 4524      7400
 4525              	.LASF5:
 4526 06b7 73686F72 		.ascii	"short int\000"
 4526      7420696E 
 4526      7400
 4527              	.LASF36:
 4528 06c1 705F7374 		.ascii	"p_state\000"
 4528      61746500 
 4529              	.LASF39:
 4530 06c9 705F7072 		.ascii	"p_preempt\000"
 4530      65656D70 
 4530      7400
 4531              	.LASF104:
 4532 06d3 63665F6F 		.ascii	"cf_off_time\000"
 4532      66665F74 
 4532      696D6500 
 4533              	.LASF213:
 4534 06df 73644F62 		.ascii	"sdObjectInit\000"
 4534      6A656374 
 4534      496E6974 
 4534      00
 4535              	.LASF63:
 4536 06ec 725F7072 		.ascii	"r_prio\000"
 4536      696F00
 4537              	.LASF134:
 4538 06f3 70696E5F 		.ascii	"pin_base\000"
 4538      62617365 
 4538      00
 4539              	.LASF85:
 4540 06fc 65776D61 		.ascii	"ewmask\000"
 4540      736B00
 4541              	.LASF29:
 4542 0703 705F6E65 		.ascii	"p_next\000"
 4542      787400
 4543              	.LASF138:
 4544 070a 494F504F 		.ascii	"IOPORT1\000"
ARM GAS  /var/folders/l5/0x54b2c10074c8bt31ycjvl80000gp/T//ccu784hR.s 			page 86


 4544      52543100 
 4545              	.LASF103:
 4546 0712 63665F6F 		.ascii	"cf_off_preempt\000"
 4546      66665F70 
 4546      7265656D 
 4546      707400
 4547              	.LASF37:
 4548 0721 705F666C 		.ascii	"p_flags\000"
 4548      61677300 
 4549              	.LASF28:
 4550 0729 54687265 		.ascii	"Thread\000"
 4550      616400
 4551              	.LASF200:
 4552 0730 636C6F63 		.ascii	"clock_divider\000"
 4552      6B5F6469 
 4552      76696465 
 4552      7200
 4553              	.LASF96:
 4554 073e 63665F6F 		.ascii	"cf_off_newer\000"
 4554      66665F6E 
 4554      65776572 
 4554      00
 4555              	.LASF145:
 4556 074b 4932435F 		.ascii	"I2C_LOCKED\000"
 4556      4C4F434B 
 4556      454400
 4557              	.LASF44:
 4558 0756 705F6570 		.ascii	"p_epending\000"
 4558      656E6469 
 4558      6E6700
 4559              	.LASF166:
 4560 0761 53445F55 		.ascii	"SD_UNINIT\000"
 4560      4E494E49 
 4560      5400
 4561              	.LASF17:
 4562 076b 75696E74 		.ascii	"uint32_t\000"
 4562      33325F74 
 4562      00
 4563              	.LASF94:
 4564 0774 63665F6F 		.ascii	"cf_off_prio\000"
 4564      66665F70 
 4564      72696F00 
 4565              	.LASF62:
 4566 0780 725F7175 		.ascii	"r_queue\000"
 4566      65756500 
 4567              	.LASF54:
 4568 0788 56697274 		.ascii	"VirtualTimer\000"
 4568      75616C54 
 4568      696D6572 
 4568      00
 4569              	.LASF170:
 4570 0795 53657269 		.ascii	"SerialDriver\000"
 4570      616C4472 
 4570      69766572 
 4570      00
 4571              	.LASF144:
 4572 07a2 4932435F 		.ascii	"I2C_ACTIVE_RX\000"
ARM GAS  /var/folders/l5/0x54b2c10074c8bt31ycjvl80000gp/T//ccu784hR.s 			page 87


 4572      41435449 
 4572      56455F52 
 4572      5800
 4573              	.LASF178:
 4574 07b0 72656164 		.ascii	"read\000"
 4574      00
 4575              	.LASF86:
 4576 07b5 63686172 		.ascii	"char\000"
 4576      00
 4577              	.LASF187:
 4578 07ba 5350495F 		.ascii	"SPI_COMPLETE\000"
 4578      434F4D50 
 4578      4C455445 
 4578      00
 4579              	.LASF149:
 4580 07c7 636F6E66 		.ascii	"config\000"
 4580      696700
 4581              	.LASF6:
 4582 07ce 5F5F7569 		.ascii	"__uint16_t\000"
 4582      6E743136 
 4582      5F7400
 4583              	.LASF188:
 4584 07d9 73706973 		.ascii	"spistate_t\000"
 4584      74617465 
 4584      5F7400
 4585              	.LASF74:
 4586 07e4 6D5F6E65 		.ascii	"m_next\000"
 4586      787400
 4587              	.LASF27:
 4588 07eb 73797374 		.ascii	"systime_t\000"
 4588      696D655F 
 4588      7400
 4589              	.LASF46:
 4590 07f5 705F7265 		.ascii	"p_realprio\000"
 4590      616C7072 
 4590      696F00
 4591              	.LASF8:
 4592 0800 5F5F696E 		.ascii	"__int32_t\000"
 4592      7433325F 
 4592      7400
 4593              	.LASF142:
 4594 080a 4932435F 		.ascii	"I2C_READY\000"
 4594      52454144 
 4594      5900
 4595              	.LASF147:
 4596 0814 49324344 		.ascii	"I2CDriver\000"
 4596      72697665 
 4596      7200
 4597              	.LASF40:
 4598 081e 705F7469 		.ascii	"p_time\000"
 4598      6D6500
 4599              	.LASF198:
 4600 0825 636C6F63 		.ascii	"clock_polarity\000"
 4600      6B5F706F 
 4600      6C617269 
 4600      747900
 4601              	.LASF51:
ARM GAS  /var/folders/l5/0x54b2c10074c8bt31ycjvl80000gp/T//ccu784hR.s 			page 88


 4602 0834 696E7463 		.ascii	"intctx\000"
 4602      747800
 4603              	.LASF42:
 4604 083b 705F6D73 		.ascii	"p_msgqueue\000"
 4604      67717565 
 4604      756500
 4605              	.LASF168:
 4606 0846 53445F52 		.ascii	"SD_READY\000"
 4606      45414459 
 4606      00
 4607              	.LASF185:
 4608 084f 5350495F 		.ascii	"SPI_READY\000"
 4608      52454144 
 4608      5900
 4609              	.LASF183:
 4610 0859 5350495F 		.ascii	"SPI_UNINIT\000"
 4610      554E494E 
 4610      495400
 4611              	.LASF59:
 4612 0864 76745F70 		.ascii	"vt_par\000"
 4612      617200
 4613              	.LASF26:
 4614 086b 666C6167 		.ascii	"flagsmask_t\000"
 4614      736D6173 
 4614      6B5F7400 
 4615              	.LASF164:
 4616 0877 49324343 		.ascii	"I2CConfig\000"
 4616      6F6E6669 
 4616      6700
 4617              	.LASF169:
 4618 0881 73647374 		.ascii	"sdstate_t\000"
 4618      6174655F 
 4618      7400
 4619              	.LASF157:
 4620 088b 74786964 		.ascii	"txidx\000"
 4620      7800
 4621              	.LASF175:
 4622 0891 53657269 		.ascii	"SerialConfig\000"
 4622      616C436F 
 4622      6E666967 
 4622      00
 4623              	.LASF95:
 4624 089e 63665F6F 		.ascii	"cf_off_ctx\000"
 4624      66665F63 
 4624      747800
 4625              	.LASF221:
 4626 08a9 6D696E69 		.ascii	"mini_uart_recv\000"
 4626      5F756172 
 4626      745F7265 
 4626      637600
 4627              	.LASF38:
 4628 08b8 705F7265 		.ascii	"p_refs\000"
 4628      667300
 4629              	.LASF122:
 4630 08bf 73746174 		.ascii	"status\000"
 4630      757300
 4631              	.LASF68:
ARM GAS  /var/folders/l5/0x54b2c10074c8bt31ycjvl80000gp/T//ccu784hR.s 			page 89


 4632 08c6 52656164 		.ascii	"ReadyList\000"
 4632      794C6973 
 4632      7400
 4633              	.LASF222:
 4634 08d0 6F757470 		.ascii	"output_notify\000"
 4634      75745F6E 
 4634      6F746966 
 4634      7900
 4635              	.LASF114:
 4636 08de 715F6E6F 		.ascii	"q_notify\000"
 4636      74696679 
 4636      00
 4637              	.LASF70:
 4638 08e7 726C6973 		.ascii	"rlist\000"
 4638      7400
 4639              	.LASF214:
 4640 08ed 73645265 		.ascii	"sdRequestDataI\000"
 4640      71756573 
 4640      74446174 
 4640      614900
 4641              	.LASF14:
 4642 08fc 75696E74 		.ascii	"uint8_t\000"
 4642      385F7400 
 4643              	.LASF129:
 4644 0904 6C617463 		.ascii	"latch\000"
 4644      6800
 4645              	.LASF204:
 4646 090a 6D696E69 		.ascii	"mini_uart_sendstr\000"
 4646      5F756172 
 4646      745F7365 
 4646      6E647374 
 4646      7200
 4647              	.LASF75:
 4648 091c 4576656E 		.ascii	"EventListener\000"
 4648      744C6973 
 4648      74656E65 
 4648      7200
 4649              	.LASF84:
 4650 092a 77746F62 		.ascii	"wtobjp\000"
 4650      6A7000
 4651              	.LASF35:
 4652 0931 705F6E61 		.ascii	"p_name\000"
 4652      6D6500
 4653              	.LASF203:
 4654 0938 6D696E69 		.ascii	"mini_uart_sendhex\000"
 4654      5F756172 
 4654      745F7365 
 4654      6E646865 
 4654      7800
 4655              	.LASF60:
 4656 094a 76745F73 		.ascii	"vt_systime\000"
 4656      79737469 
 4656      6D6500
 4657              	.LASF81:
 4658 0955 65735F6E 		.ascii	"es_next\000"
 4658      65787400 
 4659              	.LASF201:
ARM GAS  /var/folders/l5/0x54b2c10074c8bt31ycjvl80000gp/T//ccu784hR.s 			page 90


 4660 095d 53504943 		.ascii	"SPIConfig\000"
 4660      6F6E6669 
 4660      6700
 4661              	.LASF209:
 4662 0967 73645F6C 		.ascii	"sd_lld_serve_interrupt\000"
 4662      6C645F73 
 4662      65727665 
 4662      5F696E74 
 4662      65727275 
 4663              	.LASF90:
 4664 097e 63685F76 		.ascii	"ch_version\000"
 4664      65727369 
 4664      6F6E00
 4665              	.LASF206:
 4666 0989 73645F6C 		.ascii	"sd_lld_stop\000"
 4666      6C645F73 
 4666      746F7000 
 4667              	.LASF123:
 4668 0995 64617461 		.ascii	"dataLength\000"
 4668      4C656E67 
 4668      746800
 4669              	.LASF61:
 4670 09a0 56544C69 		.ascii	"VTList\000"
 4670      737400
 4671              	.LASF115:
 4672 09a7 715F6C69 		.ascii	"q_link\000"
 4672      6E6B00
 4673              	.LASF136:
 4674 09ae 50414C43 		.ascii	"PALConfig\000"
 4674      6F6E6669 
 4674      6700
 4675              	.LASF73:
 4676 09b8 6D5F6F77 		.ascii	"m_owner\000"
 4676      6E657200 
 4677              	.LASF139:
 4678 09c0 70616C5F 		.ascii	"pal_default_config\000"
 4678      64656661 
 4678      756C745F 
 4678      636F6E66 
 4678      696700
 4679              	.LASF32:
 4680 09d3 705F6374 		.ascii	"p_ctx\000"
 4680      7800
 4681              	.LASF41:
 4682 09d9 705F7761 		.ascii	"p_waiting\000"
 4682      6974696E 
 4682      6700
 4683              	.LASF156:
 4684 09e3 74786279 		.ascii	"txbytes\000"
 4684      74657300 
 4685              	.LASF128:
 4686 09eb 636C6F63 		.ascii	"clockStretchTimeout\000"
 4686      6B537472 
 4686      65746368 
 4686      54696D65 
 4686      6F757400 
 4687              		.ident	"GCC: (GNU Tools for Arm Embedded Processors 8-2019-q3-update) 8.3.1 20190703 (release) [gc
ARM GAS  /var/folders/l5/0x54b2c10074c8bt31ycjvl80000gp/T//ccu784hR.s 			page 91


ARM GAS  /var/folders/l5/0x54b2c10074c8bt31ycjvl80000gp/T//ccu784hR.s 			page 92


DEFINED SYMBOLS
                            *ABS*:0000000000000000 serial_lld.c
/var/folders/l5/0x54b2c10074c8bt31ycjvl80000gp/T//ccu784hR.s:16     .text.output_notify:0000000000000000 $a
/var/folders/l5/0x54b2c10074c8bt31ycjvl80000gp/T//ccu784hR.s:22     .text.output_notify:0000000000000000 output_notify
/var/folders/l5/0x54b2c10074c8bt31ycjvl80000gp/T//ccu784hR.s:43     .text.output_notify:0000000000000014 $d
/var/folders/l5/0x54b2c10074c8bt31ycjvl80000gp/T//ccu784hR.s:48     .text.sd_lld_serve_interrupt:0000000000000000 $a
/var/folders/l5/0x54b2c10074c8bt31ycjvl80000gp/T//ccu784hR.s:54     .text.sd_lld_serve_interrupt:0000000000000000 sd_lld_serve_interrupt
/var/folders/l5/0x54b2c10074c8bt31ycjvl80000gp/T//ccu784hR.s:177    .text.sd_lld_serve_interrupt:00000000000000a4 $d
/var/folders/l5/0x54b2c10074c8bt31ycjvl80000gp/T//ccu784hR.s:183    .text.sd_lld_init:0000000000000000 $a
/var/folders/l5/0x54b2c10074c8bt31ycjvl80000gp/T//ccu784hR.s:189    .text.sd_lld_init:0000000000000000 sd_lld_init
/var/folders/l5/0x54b2c10074c8bt31ycjvl80000gp/T//ccu784hR.s:205    .text.sd_lld_init:0000000000000010 $d
                            *COM*:0000000000000074 SD1
/var/folders/l5/0x54b2c10074c8bt31ycjvl80000gp/T//ccu784hR.s:212    .text.sd_lld_start:0000000000000000 $a
/var/folders/l5/0x54b2c10074c8bt31ycjvl80000gp/T//ccu784hR.s:218    .text.sd_lld_start:0000000000000000 sd_lld_start
/var/folders/l5/0x54b2c10074c8bt31ycjvl80000gp/T//ccu784hR.s:341    .text.sd_lld_start:00000000000000b0 $d
/var/folders/l5/0x54b2c10074c8bt31ycjvl80000gp/T//ccu784hR.s:350    .text.sd_lld_stop:0000000000000000 $a
/var/folders/l5/0x54b2c10074c8bt31ycjvl80000gp/T//ccu784hR.s:356    .text.sd_lld_stop:0000000000000000 sd_lld_stop
/var/folders/l5/0x54b2c10074c8bt31ycjvl80000gp/T//ccu784hR.s:400    .text.sd_lld_stop:0000000000000030 $d
/var/folders/l5/0x54b2c10074c8bt31ycjvl80000gp/T//ccu784hR.s:405    .text.mini_uart_recv:0000000000000000 $a
/var/folders/l5/0x54b2c10074c8bt31ycjvl80000gp/T//ccu784hR.s:411    .text.mini_uart_recv:0000000000000000 mini_uart_recv
/var/folders/l5/0x54b2c10074c8bt31ycjvl80000gp/T//ccu784hR.s:437    .text.mini_uart_recv:000000000000001c $d
/var/folders/l5/0x54b2c10074c8bt31ycjvl80000gp/T//ccu784hR.s:442    .text.mini_uart_send:0000000000000000 $a
/var/folders/l5/0x54b2c10074c8bt31ycjvl80000gp/T//ccu784hR.s:448    .text.mini_uart_send:0000000000000000 mini_uart_send
/var/folders/l5/0x54b2c10074c8bt31ycjvl80000gp/T//ccu784hR.s:474    .text.mini_uart_send:0000000000000018 $d
/var/folders/l5/0x54b2c10074c8bt31ycjvl80000gp/T//ccu784hR.s:479    .text.mini_uart_sendstr:0000000000000000 $a
/var/folders/l5/0x54b2c10074c8bt31ycjvl80000gp/T//ccu784hR.s:485    .text.mini_uart_sendstr:0000000000000000 mini_uart_sendstr
/var/folders/l5/0x54b2c10074c8bt31ycjvl80000gp/T//ccu784hR.s:530    .text.mini_uart_sendstr:0000000000000030 $d
/var/folders/l5/0x54b2c10074c8bt31ycjvl80000gp/T//ccu784hR.s:535    .text.mini_uart_sendhex:0000000000000000 $a
/var/folders/l5/0x54b2c10074c8bt31ycjvl80000gp/T//ccu784hR.s:541    .text.mini_uart_sendhex:0000000000000000 mini_uart_sendhex
/var/folders/l5/0x54b2c10074c8bt31ycjvl80000gp/T//ccu784hR.s:693    .text.mini_uart_sendhex:0000000000000090 $d
/var/folders/l5/0x54b2c10074c8bt31ycjvl80000gp/T//ccu784hR.s:699    .rodata.default_config:0000000000000000 $d
/var/folders/l5/0x54b2c10074c8bt31ycjvl80000gp/T//ccu784hR.s:703    .rodata.default_config:0000000000000000 default_config

UNDEFINED SYMBOLS
sdRequestDataI
sdIncomingDataI
sdObjectInit
__aeabi_uidiv
bcm2835_gpio_fnsel
bcm2835_delay
