ARM GAS  /var/folders/l5/0x54b2c10074c8bt31ycjvl80000gp/T//ccu784hR.s 			page 1


   1              		.cpu arm1176jz-s
   2              		.eabi_attribute 20, 1
   3              		.eabi_attribute 21, 1
   4              		.eabi_attribute 23, 3
   5              		.eabi_attribute 24, 1
   6              		.eabi_attribute 25, 1
   7              		.eabi_attribute 26, 1
   8              		.eabi_attribute 30, 2
   9              		.eabi_attribute 34, 1
  10              		.eabi_attribute 18, 4
  11              		.file	"serial_lld.c"
  12              		.text
  13              	.Ltext0:
  14              		.cfi_sections	.debug_frame
  15              		.section	.text.output_notify,"ax",%progbits
  16              		.align	2
  17              		.arch armv6kz
  18              		.syntax unified
  19              		.arm
  20              		.fpu softvfp
  21              		.type	output_notify, %function
  22              	output_notify:
  23              	.LVL0:
  24              	.LFB7:
  25              		.file 1 "../../os/hal/platforms/BCM2835/serial_lld.c"
  26              		.loc 1 59 45 view -0
  27              		.cfi_startproc
  28              		@ args = 0, pretend = 0, frame = 0
  29              		@ frame_needed = 0, uses_anonymous_args = 0
  30              		@ link register save eliminated.
  31              		.loc 1 60 3 view .LVU1
  32              		.loc 1 62 3 view .LVU2
  33              		.loc 1 62 18 is_stmt 0 view .LVU3
  34 0000 0C209FE5 		ldr	r2, .L3
  35 0004 443092E5 		ldr	r3, [r2, #68]
  36 0008 023083E3 		orr	r3, r3, #2
  37 000c 443082E5 		str	r3, [r2, #68]
  38              		.loc 1 63 1 view .LVU4
  39 0010 1EFF2FE1 		bx	lr
  40              	.L4:
  41              		.align	2
  42              	.L3:
  43 0014 00502120 		.word	539054080
  44              		.cfi_endproc
  45              	.LFE7:
  46              		.size	output_notify, .-output_notify
  47              		.section	.text.sd_lld_serve_interrupt,"ax",%progbits
  48              		.align	2
  49              		.global	sd_lld_serve_interrupt
  50              		.syntax unified
  51              		.arm
  52              		.fpu softvfp
  53              		.type	sd_lld_serve_interrupt, %function
  54              	sd_lld_serve_interrupt:
  55              	.LVL1:
  56              	.LFB8:
  57              		.loc 1 69 50 is_stmt 1 view -0
ARM GAS  /var/folders/l5/0x54b2c10074c8bt31ycjvl80000gp/T//ccu784hR.s 			page 2


  58              		.cfi_startproc
  59              		@ args = 0, pretend = 0, frame = 0
  60              		@ frame_needed = 0, uses_anonymous_args = 0
  61              		.loc 1 70 3 view .LVU6
  62              		.loc 1 70 7 is_stmt 0 view .LVU7
  63 0000 9C209FE5 		ldr	r2, .L22
  64              		.loc 1 69 50 view .LVU8
  65 0004 70402DE9 		push	{r4, r5, r6, lr}
  66              		.cfi_def_cfa_offset 16
  67              		.cfi_offset 4, -16
  68              		.cfi_offset 5, -12
  69              		.cfi_offset 6, -8
  70              		.cfi_offset 14, -4
  71              		.loc 1 70 7 view .LVU9
  72 0008 483092E5 		ldr	r3, [r2, #72]
  73              		.loc 1 69 50 view .LVU10
  74 000c 0050A0E1 		mov	r5, r0
  75              		.loc 1 70 7 view .LVU11
  76 0010 073003E2 		and	r3, r3, #7
  77              		.loc 1 70 6 view .LVU12
  78 0014 040053E3 		cmp	r3, #4
  79 0018 1100000A 		beq	.L7
  80              	.LVL2:
  81              	.L6:
  82              		.loc 1 76 5 is_stmt 1 view .LVU13
  83              		.loc 1 76 5 view .LVU14
  84              		.loc 1 76 25 view .LVU15
  85              		.loc 1 79 3 view .LVU16
  86              		.loc 1 79 7 is_stmt 0 view .LVU17
  87 001c 80409FE5 		ldr	r4, .L22
  88 0020 483094E5 		ldr	r3, [r4, #72]
  89 0024 073003E2 		and	r3, r3, #7
  90              		.loc 1 79 6 view .LVU18
  91 0028 020053E3 		cmp	r3, #2
  92 002c 7080BD18 		popne	{r4, r5, r6, pc}
  93              	.L10:
  94              	.LBB15:
  95              		.loc 1 81 30 is_stmt 1 discriminator 1 view .LVU19
  96              		.loc 1 81 12 is_stmt 0 discriminator 1 view .LVU20
  97 0030 543094E5 		ldr	r3, [r4, #84]
  98              		.loc 1 81 10 discriminator 1 view .LVU21
  99 0034 200013E3 		tst	r3, #32
 100 0038 FCFFFF0A 		beq	.L10
 101              		.loc 1 82 5 is_stmt 1 view .LVU22
 102              		.loc 1 82 18 is_stmt 0 view .LVU23
 103 003c 0500A0E1 		mov	r0, r5
 104 0040 FEFFFFEB 		bl	sdRequestDataI
 105              	.LVL3:
 106              		.loc 1 83 5 is_stmt 1 view .LVU24
 107              		.loc 1 83 8 is_stmt 0 view .LVU25
 108 0044 000050E3 		cmp	r0, #0
 109              		.loc 1 83 8 view .LVU26
 110 0048 110000BA 		blt	.L21
 111              		.loc 1 88 7 is_stmt 1 view .LVU27
 112              	.LVL4:
 113              	.LBB16:
 114              	.LBI16:
ARM GAS  /var/folders/l5/0x54b2c10074c8bt31ycjvl80000gp/T//ccu784hR.s 			page 3


 115              		.loc 1 172 6 view .LVU28
 116              	.LBB17:
 117              		.loc 1 174 3 view .LVU29
 118              		.loc 1 174 10 is_stmt 0 view .LVU30
 119 004c 50209FE5 		ldr	r2, .L22
 120              	.L12:
 121              		.loc 1 174 38 is_stmt 1 view .LVU31
 122              		.loc 1 174 10 is_stmt 0 view .LVU32
 123 0050 543092E5 		ldr	r3, [r2, #84]
 124              		.loc 1 174 8 view .LVU33
 125 0054 200013E3 		tst	r3, #32
 126 0058 FCFFFF0A 		beq	.L12
 127              		.loc 1 175 3 is_stmt 1 view .LVU34
 128              		.loc 1 175 17 is_stmt 0 view .LVU35
 129 005c 400082E5 		str	r0, [r2, #64]
 130              	.LBE17:
 131              	.LBE16:
 132              		.loc 1 90 5 is_stmt 1 view .LVU36
 133              		.loc 1 90 5 view .LVU37
 134              		.loc 1 90 25 view .LVU38
 135              	.LBE15:
 136              		.loc 1 92 1 is_stmt 0 view .LVU39
 137 0060 7080BDE8 		pop	{r4, r5, r6, pc}
 138              	.LVL5:
 139              	.L7:
 140              		.loc 1 72 30 is_stmt 1 discriminator 1 view .LVU40
 141              		.loc 1 72 12 is_stmt 0 discriminator 1 view .LVU41
 142 0064 543092E5 		ldr	r3, [r2, #84]
 143              		.loc 1 72 10 discriminator 1 view .LVU42
 144 0068 010013E3 		tst	r3, #1
 145 006c FCFFFF0A 		beq	.L7
 146              		.loc 1 74 28 view .LVU43
 147 0070 2C409FE5 		ldr	r4, .L22
 148              	.LVL6:
 149              	.L8:
 150              		.loc 1 73 5 is_stmt 1 discriminator 1 view .LVU44
 151              		.loc 1 74 7 discriminator 1 view .LVU45
 152              		.loc 1 74 28 is_stmt 0 discriminator 1 view .LVU46
 153 0074 401094E5 		ldr	r1, [r4, #64]
 154              		.loc 1 74 7 discriminator 1 view .LVU47
 155 0078 0500A0E1 		mov	r0, r5
 156 007c 7110EFE6 		uxtb	r1, r1
 157 0080 FEFFFFEB 		bl	sdIncomingDataI
 158              	.LVL7:
 159              		.loc 1 75 14 discriminator 1 view .LVU48
 160 0084 543094E5 		ldr	r3, [r4, #84]
 161              		.loc 1 75 5 discriminator 1 view .LVU49
 162 0088 010013E3 		tst	r3, #1
 163 008c F8FFFF1A 		bne	.L8
 164 0090 E1FFFFEA 		b	.L6
 165              	.LVL8:
 166              	.L21:
 167              	.LBB18:
 168              		.loc 1 85 7 is_stmt 1 view .LVU50
 169              		.loc 1 85 22 is_stmt 0 view .LVU51
 170 0094 443094E5 		ldr	r3, [r4, #68]
 171 0098 0230C3E3 		bic	r3, r3, #2
ARM GAS  /var/folders/l5/0x54b2c10074c8bt31ycjvl80000gp/T//ccu784hR.s 			page 4


 172 009c 443084E5 		str	r3, [r4, #68]
 173 00a0 7080BDE8 		pop	{r4, r5, r6, pc}
 174              	.L23:
 175              		.align	2
 176              	.L22:
 177 00a4 00502120 		.word	539054080
 178              	.LBE18:
 179              		.cfi_endproc
 180              	.LFE8:
 181              		.size	sd_lld_serve_interrupt, .-sd_lld_serve_interrupt
 182              		.section	.text.sd_lld_init,"ax",%progbits
 183              		.align	2
 184              		.global	sd_lld_init
 185              		.syntax unified
 186              		.arm
 187              		.fpu softvfp
 188              		.type	sd_lld_init, %function
 189              	sd_lld_init:
 190              	.LFB9:
 191              		.loc 1 103 24 is_stmt 1 view -0
 192              		.cfi_startproc
 193              		@ args = 0, pretend = 0, frame = 0
 194              		@ frame_needed = 0, uses_anonymous_args = 0
 195              		@ link register save eliminated.
 196              		.loc 1 104 3 view .LVU53
 197 0000 08209FE5 		ldr	r2, .L25
 198 0004 0010A0E3 		mov	r1, #0
 199 0008 04009FE5 		ldr	r0, .L25+4
 200 000c FEFFFFEA 		b	sdObjectInit
 201              	.LVL9:
 202              	.L26:
 203              		.align	2
 204              	.L25:
 205 0010 00000000 		.word	output_notify
 206 0014 00000000 		.word	SD1
 207              		.cfi_endproc
 208              	.LFE9:
 209              		.size	sd_lld_init, .-sd_lld_init
 210              		.global	__aeabi_uidiv
 211              		.section	.text.sd_lld_start,"ax",%progbits
 212              		.align	2
 213              		.global	sd_lld_start
 214              		.syntax unified
 215              		.arm
 216              		.fpu softvfp
 217              		.type	sd_lld_start, %function
 218              	sd_lld_start:
 219              	.LVL10:
 220              	.LFB10:
 221              		.loc 1 117 66 view -0
 222              		.cfi_startproc
 223              		@ args = 0, pretend = 0, frame = 0
 224              		@ frame_needed = 0, uses_anonymous_args = 0
 225              		.loc 1 118 3 view .LVU55
 226              		.loc 1 120 3 view .LVU56
 227              		.loc 1 117 66 is_stmt 0 view .LVU57
 228 0000 F0472DE9 		push	{r4, r5, r6, r7, r8, r9, r10, lr}
ARM GAS  /var/folders/l5/0x54b2c10074c8bt31ycjvl80000gp/T//ccu784hR.s 			page 5


 229              		.cfi_def_cfa_offset 32
 230              		.cfi_offset 4, -32
 231              		.cfi_offset 5, -28
 232              		.cfi_offset 6, -24
 233              		.cfi_offset 7, -20
 234              		.cfi_offset 8, -16
 235              		.cfi_offset 9, -12
 236              		.cfi_offset 10, -8
 237              		.cfi_offset 14, -4
 238              		.loc 1 127 19 view .LVU58
 239 0004 0050A0E3 		mov	r5, #0
 240              		.loc 1 121 12 view .LVU59
 241 0008 A0309FE5 		ldr	r3, .L30
 242 000c 050051E1 		cmp	r1, r5
 243 0010 0310A001 		moveq	r1, r3
 244              	.LVL11:
 245              		.loc 1 123 3 is_stmt 1 view .LVU60
 246              		.loc 1 131 19 is_stmt 0 view .LVU61
 247 0014 0520A0E3 		mov	r2, #5
 248              		.loc 1 132 19 view .LVU62
 249 0018 C630A0E3 		mov	r3, #198
 250              		.loc 1 129 19 view .LVU63
 251 001c 0390A0E3 		mov	r9, #3
 252              		.loc 1 123 16 view .LVU64
 253 0020 0282A0E3 		mov	r8, #536870912
 254              		.loc 1 125 15 view .LVU65
 255 0024 0100A0E3 		mov	r0, #1
 256              	.LVL12:
 257              		.loc 1 125 15 view .LVU66
 258 0028 84409FE5 		ldr	r4, .L30+4
 259              		.loc 1 123 16 view .LVU67
 260 002c 84709FE5 		ldr	r7, .L30+8
 261              		.loc 1 138 9 view .LVU68
 262 0030 84609FE5 		ldr	r6, .L30+12
 263              		.loc 1 123 16 view .LVU69
 264 0034 1C8287E5 		str	r8, [r7, #540]
 265              		.loc 1 125 3 is_stmt 1 view .LVU70
 266              		.loc 1 125 15 is_stmt 0 view .LVU71
 267 0038 040084E5 		str	r0, [r4, #4]
 268              		.loc 1 127 3 is_stmt 1 view .LVU72
 269              		.loc 1 127 19 is_stmt 0 view .LVU73
 270 003c 445084E5 		str	r5, [r4, #68]
 271              		.loc 1 128 3 is_stmt 1 view .LVU74
 272              		.loc 1 128 19 is_stmt 0 view .LVU75
 273 0040 605084E5 		str	r5, [r4, #96]
 274              		.loc 1 129 3 is_stmt 1 view .LVU76
 275              		.loc 1 129 19 is_stmt 0 view .LVU77
 276 0044 4C9084E5 		str	r9, [r4, #76]
 277              		.loc 1 130 3 is_stmt 1 view .LVU78
 278              		.loc 1 130 19 is_stmt 0 view .LVU79
 279 0048 505084E5 		str	r5, [r4, #80]
 280              		.loc 1 131 3 is_stmt 1 view .LVU80
 281              		.loc 1 131 19 is_stmt 0 view .LVU81
 282 004c 442084E5 		str	r2, [r4, #68]
 283              		.loc 1 132 3 is_stmt 1 view .LVU82
 284              		.loc 1 132 19 is_stmt 0 view .LVU83
 285 0050 483084E5 		str	r3, [r4, #72]
ARM GAS  /var/folders/l5/0x54b2c10074c8bt31ycjvl80000gp/T//ccu784hR.s 			page 6


 286              		.loc 1 133 3 is_stmt 1 view .LVU84
 287              		.loc 1 133 21 is_stmt 0 view .LVU85
 288 0054 001091E5 		ldr	r1, [r1]
 289              	.LVL13:
 290              		.loc 1 133 21 view .LVU86
 291 0058 60009FE5 		ldr	r0, .L30+16
 292 005c 1119A0E1 		lsl	r1, r1, r9
 293 0060 FEFFFFEB 		bl	__aeabi_uidiv
 294              	.LVL14:
 295              		.loc 1 133 21 view .LVU87
 296 0064 010040E2 		sub	r0, r0, #1
 297              		.loc 1 133 19 view .LVU88
 298 0068 680084E5 		str	r0, [r4, #104]
 299              		.loc 1 135 3 is_stmt 1 view .LVU89
 300 006c 0210A0E3 		mov	r1, #2
 301 0070 0E00A0E3 		mov	r0, #14
 302 0074 FEFFFFEB 		bl	bcm2835_gpio_fnsel
 303              	.LVL15:
 304              		.loc 1 136 3 view .LVU90
 305 0078 0210A0E3 		mov	r1, #2
 306 007c 0F00A0E3 		mov	r0, #15
 307 0080 FEFFFFEB 		bl	bcm2835_gpio_fnsel
 308              	.LVL16:
 309              		.loc 1 138 3 view .LVU91
 310              		.loc 1 139 3 is_stmt 0 view .LVU92
 311 0084 9600A0E3 		mov	r0, #150
 312              		.loc 1 138 9 view .LVU93
 313 0088 945086E5 		str	r5, [r6, #148]
 314              		.loc 1 139 3 is_stmt 1 view .LVU94
 315 008c FEFFFFEB 		bl	bcm2835_delay
 316              	.LVL17:
 317              		.loc 1 140 3 view .LVU95
 318              		.loc 1 140 13 is_stmt 0 view .LVU96
 319 0090 0339A0E3 		mov	r3, #49152
 320              		.loc 1 141 3 view .LVU97
 321 0094 9600A0E3 		mov	r0, #150
 322              		.loc 1 140 13 view .LVU98
 323 0098 983086E5 		str	r3, [r6, #152]
 324              		.loc 1 141 3 is_stmt 1 view .LVU99
 325 009c FEFFFFEB 		bl	bcm2835_delay
 326              	.LVL18:
 327              		.loc 1 142 3 view .LVU100
 328              		.loc 1 142 13 is_stmt 0 view .LVU101
 329 00a0 985086E5 		str	r5, [r6, #152]
 330              		.loc 1 144 3 is_stmt 1 view .LVU102
 331              		.loc 1 144 19 is_stmt 0 view .LVU103
 332 00a4 609084E5 		str	r9, [r4, #96]
 333              		.loc 1 146 3 is_stmt 1 view .LVU104
 334              		.loc 1 146 15 is_stmt 0 view .LVU105
 335 00a8 108287E5 		str	r8, [r7, #528]
 336              		.loc 1 147 1 view .LVU106
 337 00ac F087BDE8 		pop	{r4, r5, r6, r7, r8, r9, r10, pc}
 338              	.L31:
 339              		.align	2
 340              	.L30:
 341 00b0 00000000 		.word	.LANCHOR0
 342 00b4 00502120 		.word	539054080
ARM GAS  /var/folders/l5/0x54b2c10074c8bt31ycjvl80000gp/T//ccu784hR.s 			page 7


 343 00b8 00B00020 		.word	536915968
 344 00bc 00002020 		.word	538968064
 345 00c0 80B2E60E 		.word	250000000
 346              		.cfi_endproc
 347              	.LFE10:
 348              		.size	sd_lld_start, .-sd_lld_start
 349              		.section	.text.sd_lld_stop,"ax",%progbits
 350              		.align	2
 351              		.global	sd_lld_stop
 352              		.syntax unified
 353              		.arm
 354              		.fpu softvfp
 355              		.type	sd_lld_stop, %function
 356              	sd_lld_stop:
 357              	.LVL19:
 358              	.LFB11:
 359              		.loc 1 158 37 is_stmt 1 view -0
 360              		.cfi_startproc
 361              		@ args = 0, pretend = 0, frame = 0
 362              		@ frame_needed = 0, uses_anonymous_args = 0
 363              		.loc 1 159 3 view .LVU108
 364              		.loc 1 161 3 view .LVU109
 365              		.loc 1 161 16 is_stmt 0 view .LVU110
 366 0000 28209FE5 		ldr	r2, .L34
 367              		.loc 1 158 37 view .LVU111
 368 0004 10402DE9 		push	{r4, lr}
 369              		.cfi_def_cfa_offset 8
 370              		.cfi_offset 4, -8
 371              		.cfi_offset 14, -4
 372              		.loc 1 161 16 view .LVU112
 373 0008 1C3292E5 		ldr	r3, [r2, #540]
 374              		.loc 1 162 3 view .LVU113
 375 000c 0010A0E3 		mov	r1, #0
 376              		.loc 1 161 16 view .LVU114
 377 0010 023283E3 		orr	r3, r3, #536870912
 378              		.loc 1 162 3 view .LVU115
 379 0014 0E00A0E3 		mov	r0, #14
 380              	.LVL20:
 381              		.loc 1 161 16 view .LVU116
 382 0018 1C3282E5 		str	r3, [r2, #540]
 383              		.loc 1 162 3 is_stmt 1 view .LVU117
 384 001c FEFFFFEB 		bl	bcm2835_gpio_fnsel
 385              	.LVL21:
 386              		.loc 1 163 3 view .LVU118
 387              		.loc 1 164 1 is_stmt 0 view .LVU119
 388 0020 1040BDE8 		pop	{r4, lr}
 389              		.cfi_restore 14
 390              		.cfi_restore 4
 391              		.cfi_def_cfa_offset 0
 392              		.loc 1 163 3 view .LVU120
 393 0024 0010A0E3 		mov	r1, #0
 394 0028 0F00A0E3 		mov	r0, #15
 395 002c FEFFFFEA 		b	bcm2835_gpio_fnsel
 396              	.LVL22:
 397              	.L35:
 398              		.align	2
 399              	.L34:
ARM GAS  /var/folders/l5/0x54b2c10074c8bt31ycjvl80000gp/T//ccu784hR.s 			page 8


 400 0030 00B00020 		.word	536915968
 401              		.cfi_endproc
 402              	.LFE11:
 403              		.size	sd_lld_stop, .-sd_lld_stop
 404              		.section	.text.mini_uart_recv,"ax",%progbits
 405              		.align	2
 406              		.global	mini_uart_recv
 407              		.syntax unified
 408              		.arm
 409              		.fpu softvfp
 410              		.type	mini_uart_recv, %function
 411              	mini_uart_recv:
 412              	.LFB12:
 413              		.loc 1 167 1 is_stmt 1 view -0
 414              		.cfi_startproc
 415              		@ args = 0, pretend = 0, frame = 0
 416              		@ frame_needed = 0, uses_anonymous_args = 0
 417              		@ link register save eliminated.
 418              		.loc 1 168 3 view .LVU122
 419              		.loc 1 168 10 is_stmt 0 view .LVU123
 420 0000 14209FE5 		ldr	r2, .L40
 421              	.L37:
 422              		.loc 1 168 38 is_stmt 1 discriminator 1 view .LVU124
 423              		.loc 1 168 10 is_stmt 0 discriminator 1 view .LVU125
 424 0004 543092E5 		ldr	r3, [r2, #84]
 425              		.loc 1 168 8 discriminator 1 view .LVU126
 426 0008 010013E3 		tst	r3, #1
 427 000c FCFFFF0A 		beq	.L37
 428              		.loc 1 169 3 is_stmt 1 view .LVU127
 429              		.loc 1 169 24 is_stmt 0 view .LVU128
 430 0010 400092E5 		ldr	r0, [r2, #64]
 431              		.loc 1 170 1 view .LVU129
 432 0014 7000EFE6 		uxtb	r0, r0
 433 0018 1EFF2FE1 		bx	lr
 434              	.L41:
 435              		.align	2
 436              	.L40:
 437 001c 00502120 		.word	539054080
 438              		.cfi_endproc
 439              	.LFE12:
 440              		.size	mini_uart_recv, .-mini_uart_recv
 441              		.section	.text.mini_uart_send,"ax",%progbits
 442              		.align	2
 443              		.global	mini_uart_send
 444              		.syntax unified
 445              		.arm
 446              		.fpu softvfp
 447              		.type	mini_uart_send, %function
 448              	mini_uart_send:
 449              	.LVL23:
 450              	.LFB13:
 451              		.loc 1 173 1 is_stmt 1 view -0
 452              		.cfi_startproc
 453              		@ args = 0, pretend = 0, frame = 0
 454              		@ frame_needed = 0, uses_anonymous_args = 0
 455              		@ link register save eliminated.
 456              		.loc 1 174 3 view .LVU131
ARM GAS  /var/folders/l5/0x54b2c10074c8bt31ycjvl80000gp/T//ccu784hR.s 			page 9


 457              		.loc 1 174 10 is_stmt 0 view .LVU132
 458 0000 10209FE5 		ldr	r2, .L46
 459              	.L43:
 460              		.loc 1 174 38 is_stmt 1 discriminator 1 view .LVU133
 461              		.loc 1 174 10 is_stmt 0 discriminator 1 view .LVU134
 462 0004 543092E5 		ldr	r3, [r2, #84]
 463              		.loc 1 174 8 discriminator 1 view .LVU135
 464 0008 200013E3 		tst	r3, #32
 465 000c FCFFFF0A 		beq	.L43
 466              		.loc 1 175 3 is_stmt 1 view .LVU136
 467              		.loc 1 175 17 is_stmt 0 view .LVU137
 468 0010 400082E5 		str	r0, [r2, #64]
 469              		.loc 1 176 1 view .LVU138
 470 0014 1EFF2FE1 		bx	lr
 471              	.L47:
 472              		.align	2
 473              	.L46:
 474 0018 00502120 		.word	539054080
 475              		.cfi_endproc
 476              	.LFE13:
 477              		.size	mini_uart_send, .-mini_uart_send
 478              		.section	.text.mini_uart_sendstr,"ax",%progbits
 479              		.align	2
 480              		.global	mini_uart_sendstr
 481              		.syntax unified
 482              		.arm
 483              		.fpu softvfp
 484              		.type	mini_uart_sendstr, %function
 485              	mini_uart_sendstr:
 486              	.LVL24:
 487              	.LFB14:
 488              		.loc 1 179 1 is_stmt 1 view -0
 489              		.cfi_startproc
 490              		@ args = 0, pretend = 0, frame = 0
 491              		@ frame_needed = 0, uses_anonymous_args = 0
 492              		@ link register save eliminated.
 493              		.loc 1 180 3 view .LVU140
 494              		.loc 1 181 3 view .LVU141
 495              		.loc 1 181 12 is_stmt 0 view .LVU142
 496 0000 0110D0E4 		ldrb	r1, [r0], #1	@ zero_extendqisi2
 497              	.LVL25:
 498              		.loc 1 181 8 view .LVU143
 499 0004 000051E3 		cmp	r1, #0
 500 0008 1EFF2F01 		bxeq	lr
 501              	.LBB19:
 502              	.LBB20:
 503              		.loc 1 174 10 view .LVU144
 504 000c 1C209FE5 		ldr	r2, .L58
 505              	.LVL26:
 506              	.L50:
 507              		.loc 1 174 38 is_stmt 1 view .LVU145
 508              		.loc 1 174 10 is_stmt 0 view .LVU146
 509 0010 543092E5 		ldr	r3, [r2, #84]
 510              		.loc 1 174 8 view .LVU147
 511 0014 200013E3 		tst	r3, #32
 512 0018 FCFFFF0A 		beq	.L50
 513              		.loc 1 175 3 is_stmt 1 view .LVU148
ARM GAS  /var/folders/l5/0x54b2c10074c8bt31ycjvl80000gp/T//ccu784hR.s 			page 10


 514              		.loc 1 175 17 is_stmt 0 view .LVU149
 515 001c 401082E5 		str	r1, [r2, #64]
 516              	.LVL27:
 517              		.loc 1 175 17 view .LVU150
 518              	.LBE20:
 519              	.LBE19:
 520              		.loc 1 181 12 view .LVU151
 521 0020 0110D0E4 		ldrb	r1, [r0], #1	@ zero_extendqisi2
 522              	.LVL28:
 523              		.loc 1 181 8 view .LVU152
 524 0024 000051E3 		cmp	r1, #0
 525 0028 F8FFFF1A 		bne	.L50
 526 002c 1EFF2FE1 		bx	lr
 527              	.L59:
 528              		.align	2
 529              	.L58:
 530 0030 00502120 		.word	539054080
 531              		.cfi_endproc
 532              	.LFE14:
 533              		.size	mini_uart_sendstr, .-mini_uart_sendstr
 534              		.section	.text.mini_uart_sendhex,"ax",%progbits
 535              		.align	2
 536              		.global	mini_uart_sendhex
 537              		.syntax unified
 538              		.arm
 539              		.fpu softvfp
 540              		.type	mini_uart_sendhex, %function
 541              	mini_uart_sendhex:
 542              	.LVL29:
 543              	.LFB15:
 544              		.loc 1 185 1 is_stmt 1 view -0
 545              		.cfi_startproc
 546              		@ args = 0, pretend = 0, frame = 0
 547              		@ frame_needed = 0, uses_anonymous_args = 0
 548              		.loc 1 186 3 view .LVU154
 549              		.loc 1 187 3 view .LVU155
 550              		.loc 1 189 3 view .LVU156
 551              		.loc 1 185 1 is_stmt 0 view .LVU157
 552 0000 04E02DE5 		str	lr, [sp, #-4]!
 553              		.cfi_def_cfa_offset 4
 554              		.cfi_offset 14, -4
 555              		.loc 1 189 5 view .LVU158
 556 0004 20E0A0E3 		mov	lr, #32
 557              	.LBB21:
 558              	.LBB22:
 559              		.loc 1 174 10 view .LVU159
 560 0008 80209FE5 		ldr	r2, .L82
 561              	.LVL30:
 562              	.L64:
 563              		.loc 1 174 10 view .LVU160
 564              	.LBE22:
 565              	.LBE21:
 566              		.loc 1 190 3 is_stmt 1 view .LVU161
 567              		.loc 1 192 5 view .LVU162
 568              		.loc 1 192 7 is_stmt 0 view .LVU163
 569 000c 04E04EE2 		sub	lr, lr, #4
 570              	.LVL31:
ARM GAS  /var/folders/l5/0x54b2c10074c8bt31ycjvl80000gp/T//ccu784hR.s 			page 11


 571              		.loc 1 193 5 is_stmt 1 view .LVU164
 572              		.loc 1 193 10 is_stmt 0 view .LVU165
 573 0010 303EA0E1 		lsr	r3, r0, lr
 574              		.loc 1 193 7 view .LVU166
 575 0014 0F3003E2 		and	r3, r3, #15
 576              	.LVL32:
 577              		.loc 1 194 5 is_stmt 1 view .LVU167
 578              		.loc 1 194 7 is_stmt 0 view .LVU168
 579 0018 090053E3 		cmp	r3, #9
 580              		.loc 1 195 7 is_stmt 1 view .LVU169
 581              		.loc 1 195 9 is_stmt 0 view .LVU170
 582 001c 37C08382 		addhi	ip, r3, #55
 583              	.LVL33:
 584              		.loc 1 197 7 is_stmt 1 view .LVU171
 585              		.loc 1 197 9 is_stmt 0 view .LVU172
 586 0020 30C08392 		addls	ip, r3, #48
 587              	.LVL34:
 588              		.loc 1 198 5 is_stmt 1 view .LVU173
 589              	.LBB25:
 590              	.LBI21:
 591              		.loc 1 172 6 view .LVU174
 592              	.LBB23:
 593              		.loc 1 174 3 view .LVU175
 594              	.L63:
 595              		.loc 1 174 38 view .LVU176
 596              		.loc 1 174 10 is_stmt 0 view .LVU177
 597 0024 543092E5 		ldr	r3, [r2, #84]
 598              		.loc 1 174 8 view .LVU178
 599 0028 200013E3 		tst	r3, #32
 600 002c FCFFFF0A 		beq	.L63
 601              		.loc 1 175 3 is_stmt 1 view .LVU179
 602              	.LBE23:
 603              	.LBE25:
 604              		.loc 1 199 7 is_stmt 0 view .LVU180
 605 0030 00005EE3 		cmp	lr, #0
 606              	.LBB26:
 607              	.LBB24:
 608              		.loc 1 175 17 view .LVU181
 609 0034 40C082E5 		str	ip, [r2, #64]
 610              	.LVL35:
 611              		.loc 1 175 17 view .LVU182
 612              	.LBE24:
 613              	.LBE26:
 614              		.loc 1 199 5 is_stmt 1 view .LVU183
 615              		.loc 1 199 7 is_stmt 0 view .LVU184
 616 0038 F3FFFF1A 		bne	.L64
 617              	.LBB27:
 618              	.LBB28:
 619              		.loc 1 174 10 view .LVU185
 620 003c 4C209FE5 		ldr	r2, .L82
 621              	.L65:
 622              		.loc 1 174 38 is_stmt 1 view .LVU186
 623              		.loc 1 174 10 is_stmt 0 view .LVU187
 624 0040 543092E5 		ldr	r3, [r2, #84]
 625              		.loc 1 174 8 view .LVU188
 626 0044 200013E3 		tst	r3, #32
 627 0048 FCFFFF0A 		beq	.L65
ARM GAS  /var/folders/l5/0x54b2c10074c8bt31ycjvl80000gp/T//ccu784hR.s 			page 12


 628              		.loc 1 175 3 is_stmt 1 view .LVU189
 629              		.loc 1 175 17 is_stmt 0 view .LVU190
 630 004c 2030A0E3 		mov	r3, #32
 631              	.LBE28:
 632              	.LBE27:
 633              		.loc 1 204 6 view .LVU191
 634 0050 000051E3 		cmp	r1, #0
 635              	.LBB30:
 636              	.LBB29:
 637              		.loc 1 175 17 view .LVU192
 638 0054 403082E5 		str	r3, [r2, #64]
 639              	.LBE29:
 640              	.LBE30:
 641              		.loc 1 204 3 is_stmt 1 view .LVU193
 642              		.loc 1 204 6 is_stmt 0 view .LVU194
 643 0058 04F09D04 		ldreq	pc, [sp], #4
 644              	.LBB31:
 645              	.LBB32:
 646              		.loc 1 174 10 view .LVU195
 647 005c 2C109FE5 		ldr	r1, .L82
 648              	.LVL36:
 649              	.L67:
 650              		.loc 1 174 38 is_stmt 1 view .LVU196
 651              		.loc 1 174 10 is_stmt 0 view .LVU197
 652 0060 543091E5 		ldr	r3, [r1, #84]
 653              		.loc 1 174 8 view .LVU198
 654 0064 200013E3 		tst	r3, #32
 655 0068 FCFFFF0A 		beq	.L67
 656              		.loc 1 175 3 is_stmt 1 view .LVU199
 657              		.loc 1 175 17 is_stmt 0 view .LVU200
 658 006c 0D30A0E3 		mov	r3, #13
 659              	.LBE32:
 660              	.LBE31:
 661              	.LBB34:
 662              	.LBB35:
 663              		.loc 1 174 10 view .LVU201
 664 0070 18209FE5 		ldr	r2, .L82
 665              	.LBE35:
 666              	.LBE34:
 667              	.LBB37:
 668              	.LBB33:
 669              		.loc 1 175 17 view .LVU202
 670 0074 403081E5 		str	r3, [r1, #64]
 671              	.L68:
 672              	.LBE33:
 673              	.LBE37:
 674              	.LBB38:
 675              	.LBB36:
 676              		.loc 1 174 38 is_stmt 1 view .LVU203
 677              		.loc 1 174 10 is_stmt 0 view .LVU204
 678 0078 543092E5 		ldr	r3, [r2, #84]
 679              		.loc 1 174 8 view .LVU205
 680 007c 200013E3 		tst	r3, #32
 681 0080 FCFFFF0A 		beq	.L68
 682              		.loc 1 175 3 is_stmt 1 view .LVU206
 683              		.loc 1 175 17 is_stmt 0 view .LVU207
 684 0084 0A30A0E3 		mov	r3, #10
ARM GAS  /var/folders/l5/0x54b2c10074c8bt31ycjvl80000gp/T//ccu784hR.s 			page 13


 685 0088 403082E5 		str	r3, [r2, #64]
 686              	.LBE36:
 687              	.LBE38:
 688              		.loc 1 208 1 view .LVU208
 689 008c 04F09DE4 		ldr	pc, [sp], #4
 690              	.L83:
 691              		.align	2
 692              	.L82:
 693 0090 00502120 		.word	539054080
 694              		.cfi_endproc
 695              	.LFE15:
 696              		.size	mini_uart_sendhex, .-mini_uart_sendhex
 697              		.comm	SD1,116,4
 698              		.section	.rodata.default_config,"a"
 699              		.align	2
 700              		.set	.LANCHOR0,. + 0
 701              		.type	default_config, %object
 702              		.size	default_config, 4
 703              	default_config:
 704 0000 00C20100 		.word	115200
 705              		.text
 706              	.Letext0:
 707              		.file 2 "/usr/local/Cellar/arm-gcc-bin/8-2019-q3-update/lib/gcc/arm-none-eabi/8.3.1/include/stddef
 708              		.file 3 "/usr/local/Cellar/arm-gcc-bin/8-2019-q3-update/arm-none-eabi/include/machine/_default_typ
 709              		.file 4 "/usr/local/Cellar/arm-gcc-bin/8-2019-q3-update/arm-none-eabi/include/sys/_stdint.h"
 710              		.file 5 "../../os/ports/GCC/ARM/chtypes.h"
 711              		.file 6 "../../os/kernel/include/chlists.h"
 712              		.file 7 "../../os/kernel/include/chthreads.h"
 713              		.file 8 "../../os/ports/GCC/ARM/chcore.h"
 714              		.file 9 "../../os/kernel/include/chvt.h"
 715              		.file 10 "../../os/kernel/include/chschd.h"
 716              		.file 11 "../../os/kernel/include/chmtx.h"
 717              		.file 12 "../../os/kernel/include/chevents.h"
 718              		.file 13 "../../os/kernel/include/chregistry.h"
 719              		.file 14 "../../os/kernel/include/chqueues.h"
 720              		.file 15 "../../os/kernel/include/ch.h"
 721              		.file 16 "../../os/hal/platforms/BCM2835/bcm2835.h"
 722              		.file 17 "../../os/hal/platforms/BCM2835/pal_lld.h"
 723              		.file 18 "../../os/hal/include/i2c.h"
 724              		.file 19 "../../os/hal/platforms/BCM2835/i2c_lld.h"
 725              		.file 20 "../../os/hal/include/serial.h"
 726              		.file 21 "../../os/hal/platforms/BCM2835/serial_lld.h"
 727              		.file 22 "../../os/hal/include/spi.h"
 728              		.file 23 "../../os/hal/platforms/BCM2835/spi_lld.h"