ARM GAS  /tmp/ccIQ8kit.s 			page 1


   1              		.cpu arm1176jz-s
   2              		.eabi_attribute 20, 1
   3              		.eabi_attribute 21, 1
   4              		.eabi_attribute 23, 3
   5              		.eabi_attribute 24, 1
   6              		.eabi_attribute 25, 1
   7              		.eabi_attribute 26, 1
   8              		.eabi_attribute 30, 2
   9              		.eabi_attribute 34, 1
  10              		.eabi_attribute 18, 4
  11              		.file	"chprintf.c"
  12              		.text
  13              	.Ltext0:
  14              		.cfi_sections	.debug_frame
  15              		.section	.rodata.chprintf.str1.4,"aMS",%progbits,1
  16              		.align	2
  17              	.LC0:
  18 0000 286E756C 		.ascii	"(null)\000"
  18      6C2900
  19              		.global	__aeabi_d2f
  20              		.global	__aeabi_fcmplt
  21              		.global	__aeabi_f2d
  22              		.global	__aeabi_f2iz
  23              		.global	__aeabi_i2d
  24              		.global	__aeabi_dsub
  25              		.global	__aeabi_dmul
  26              		.global	__aeabi_d2iz
  27              		.global	__aeabi_uidivmod
  28              		.section	.text.chprintf,"ax",%progbits
  29              		.align	2
  30              		.global	chprintf
  31              		.arch armv6kz
  32              		.syntax unified
  33              		.arm
  34              		.fpu softvfp
  35              		.type	chprintf, %function
  36              	chprintf:
  37              	.LVL0:
  38              	.LFB10:
  39              		.file 1 "../../os/various/chprintf.c"
  40              		.loc 1 112 64 view -0
  41              		.cfi_startproc
  42              		@ args = 4, pretend = 12, frame = 40
  43              		@ frame_needed = 0, uses_anonymous_args = 1
  44              		.loc 1 113 3 view .LVU1
  45              		.loc 1 114 3 view .LVU2
  46              		.loc 1 115 3 view .LVU3
  47              		.loc 1 116 3 view .LVU4
  48              		.loc 1 117 3 view .LVU5
  49              		.loc 1 119 3 view .LVU6
  50              		.loc 1 120 3 view .LVU7
  51              		.loc 1 125 3 view .LVU8
  52              		.loc 1 112 64 is_stmt 0 view .LVU9
  53 0000 0E002DE9 		push	{r1, r2, r3}
  54              		.cfi_def_cfa_offset 12
  55              		.cfi_offset 1, -12
  56              		.cfi_offset 2, -8
ARM GAS  /tmp/ccIQ8kit.s 			page 2


  57              		.cfi_offset 3, -4
  58 0004 F04F2DE9 		push	{r4, r5, r6, r7, r8, r9, r10, fp, lr}
  59              		.cfi_def_cfa_offset 48
  60              		.cfi_offset 4, -48
  61              		.cfi_offset 5, -44
  62              		.cfi_offset 6, -40
  63              		.cfi_offset 7, -36
  64              		.cfi_offset 8, -32
  65              		.cfi_offset 9, -28
  66              		.cfi_offset 10, -24
  67              		.cfi_offset 11, -20
  68              		.cfi_offset 14, -16
  69 0008 28D04DE2 		sub	sp, sp, #40
  70              		.cfi_def_cfa_offset 88
  71              		.loc 1 112 64 view .LVU10
  72 000c 4C809DE5 		ldr	r8, [sp, #76]
  73              		.loc 1 125 3 view .LVU11
  74 0010 50308DE2 		add	r3, sp, #80
  75              		.loc 1 127 13 view .LVU12
  76 0014 0820A0E1 		mov	r2, r8
  77              		.loc 1 127 7 view .LVU13
  78 0018 0110D2E4 		ldrb	r1, [r2], #1	@ zero_extendqisi2
  79              		.loc 1 125 3 view .LVU14
  80 001c 0C308DE5 		str	r3, [sp, #12]
  81              	.LVL1:
  82              		.loc 1 126 3 is_stmt 1 view .LVU15
  83              		.loc 1 127 5 view .LVU16
  84              		.loc 1 128 5 view .LVU17
  85              		.loc 1 128 8 is_stmt 0 view .LVU18
  86 0020 000051E3 		cmp	r1, #0
  87 0024 A900000A 		beq	.L1
  88 0028 0050A0E1 		mov	r5, r0
  89 002c 080000EA 		b	.L2
  90              	.LVL2:
  91              	.L119:
  92              		.loc 1 133 7 is_stmt 1 view .LVU19
  93 0030 003095E5 		ldr	r3, [r5]
  94 0034 0500A0E1 		mov	r0, r5
  95 0038 083093E5 		ldr	r3, [r3, #8]
  96              		.loc 1 134 7 is_stmt 0 view .LVU20
  97 003c 0280A0E1 		mov	r8, r2
  98              		.loc 1 133 7 view .LVU21
  99 0040 33FF2FE1 		blx	r3
 100              	.LVL3:
 101              		.loc 1 134 7 is_stmt 1 view .LVU22
 102              	.L5:
 103              		.loc 1 126 3 view .LVU23
 104              		.loc 1 127 5 view .LVU24
 105              		.loc 1 127 13 is_stmt 0 view .LVU25
 106 0044 0820A0E1 		mov	r2, r8
 107              	.LVL4:
 108              		.loc 1 127 7 view .LVU26
 109 0048 0110D2E4 		ldrb	r1, [r2], #1	@ zero_extendqisi2
 110              	.LVL5:
 111              		.loc 1 128 5 is_stmt 1 view .LVU27
 112              		.loc 1 128 8 is_stmt 0 view .LVU28
 113 004c 000051E3 		cmp	r1, #0
ARM GAS  /tmp/ccIQ8kit.s 			page 3


 114 0050 9E00000A 		beq	.L1
 115              	.LVL6:
 116              	.L2:
 117              		.loc 1 132 5 is_stmt 1 view .LVU29
 118              		.loc 1 132 8 is_stmt 0 view .LVU30
 119 0054 250051E3 		cmp	r1, #37
 120 0058 F4FFFF1A 		bne	.L119
 121              		.loc 1 136 5 is_stmt 1 view .LVU31
 122              	.LVL7:
 123              		.loc 1 137 5 view .LVU32
 124              		.loc 1 138 5 view .LVU33
 125              		.loc 1 139 5 view .LVU34
 126              		.loc 1 143 12 is_stmt 0 view .LVU35
 127 005c 00C0A0E3 		mov	ip, #0
 128              		.loc 1 139 8 view .LVU36
 129 0060 0130D8E5 		ldrb	r3, [r8, #1]	@ zero_extendqisi2
 130              		.loc 1 148 11 view .LVU37
 131 0064 0C40A0E1 		mov	r4, ip
 132              		.loc 1 139 8 view .LVU38
 133 0068 2D0053E3 		cmp	r3, #45
 134              		.loc 1 140 7 is_stmt 1 view .LVU39
 135              		.loc 1 140 10 is_stmt 0 view .LVU40
 136 006c 02208802 		addeq	r2, r8, #2
 137              	.LVL8:
 138              		.loc 1 141 7 is_stmt 1 view .LVU41
 139              		.loc 1 144 9 is_stmt 0 view .LVU42
 140 0070 0010D2E5 		ldrb	r1, [r2]	@ zero_extendqisi2
 141              	.LVL9:
 142              		.loc 1 141 18 view .LVU43
 143 0074 0170A003 		moveq	r7, #1
 144              		.loc 1 138 16 view .LVU44
 145 0078 0070A013 		movne	r7, #0
 146              	.LVL10:
 147              		.loc 1 143 5 is_stmt 1 view .LVU45
 148              		.loc 1 144 5 view .LVU46
 149              		.loc 1 145 7 view .LVU47
 150              		.loc 1 146 7 view .LVU48
 151              		.loc 1 144 8 is_stmt 0 view .LVU49
 152 007c 2E0051E3 		cmp	r1, #46
 153 0080 0110D205 		ldrbeq	r1, [r2, #1]	@ zero_extendqisi2
 154              		.loc 1 145 10 view .LVU50
 155 0084 01208202 		addeq	r2, r2, #1
 156              	.LVL11:
 157              		.loc 1 146 14 view .LVU51
 158 0088 3090A003 		moveq	r9, #48
 159              		.loc 1 143 12 view .LVU52
 160 008c 2090A013 		movne	r9, #32
 161              	.LVL12:
 162              		.loc 1 148 5 is_stmt 1 view .LVU53
 163              		.loc 1 148 5 is_stmt 0 view .LVU54
 164 0090 0C009DE5 		ldr	r0, [sp, #12]
 165 0094 012082E2 		add	r2, r2, #1
 166              	.LVL13:
 167              		.loc 1 148 5 view .LVU55
 168 0098 040000EA 		b	.L10
 169              	.LVL14:
 170              	.L120:
ARM GAS  /tmp/ccIQ8kit.s 			page 4


 171              		.loc 1 154 11 view .LVU56
 172 009c 01C0A0E3 		mov	ip, #1
 173 00a0 043090E4 		ldr	r3, [r0], #4
 174 00a4 7330EFE6 		uxtb	r3, r3
 175              	.LVL15:
 176              	.L8:
 177              		.loc 1 157 7 is_stmt 1 view .LVU57
 178 00a8 0110D2E4 		ldrb	r1, [r2], #1	@ zero_extendqisi2
 179              	.LVL16:
 180              		.loc 1 157 13 is_stmt 0 view .LVU58
 181 00ac 8E4083E0 		add	r4, r3, lr, lsl #1
 182              	.LVL17:
 183              		.loc 1 149 11 is_stmt 1 view .LVU59
 184              	.L10:
 185              		.loc 1 149 5 view .LVU60
 186              		.loc 1 150 7 view .LVU61
 187              		.loc 1 153 12 view .LVU62
 188              		.loc 1 154 9 view .LVU63
 189              		.loc 1 151 20 is_stmt 0 view .LVU64
 190 00b0 303041E2 		sub	r3, r1, #48
 191 00b4 7330EFE6 		uxtb	r3, r3
 192              		.loc 1 151 10 view .LVU65
 193 00b8 090053E3 		cmp	r3, #9
 194              		.loc 1 150 15 view .LVU66
 195 00bc 0280A0E1 		mov	r8, r2
 196              	.LVL18:
 197              		.loc 1 151 7 is_stmt 1 view .LVU67
 198              		.loc 1 157 21 is_stmt 0 view .LVU68
 199 00c0 04E184E0 		add	lr, r4, r4, lsl #2
 200              		.loc 1 151 10 view .LVU69
 201 00c4 F7FFFF9A 		bls	.L8
 202              		.loc 1 153 15 view .LVU70
 203 00c8 2A0051E3 		cmp	r1, #42
 204 00cc F2FFFF0A 		beq	.L120
 205 00d0 00005CE3 		cmp	ip, #0
 206 00d4 0C008D15 		strne	r0, [sp, #12]
 207              	.LVL19:
 208              		.loc 1 159 5 is_stmt 1 view .LVU71
 209              		.loc 1 160 5 view .LVU72
 210              		.loc 1 160 8 is_stmt 0 view .LVU73
 211 00d8 2E0051E3 		cmp	r1, #46
 212              		.loc 1 159 15 view .LVU74
 213 00dc 0020A013 		movne	r2, #0
 214              	.LVL20:
 215              		.loc 1 160 8 view .LVU75
 216 00e0 2D01000A 		beq	.L121
 217              	.LVL21:
 218              	.L12:
 219              		.loc 1 174 5 is_stmt 1 view .LVU76
 220              		.loc 1 174 8 is_stmt 0 view .LVU77
 221 00e4 DF3001E2 		and	r3, r1, #223
 222 00e8 4C0053E3 		cmp	r3, #76
 223 00ec 3C00001A 		bne	.L17
 224              		.loc 1 175 7 is_stmt 1 view .LVU78
 225              	.LVL22:
 226              		.loc 1 176 7 view .LVU79
 227              		.loc 1 176 11 is_stmt 0 view .LVU80
ARM GAS  /tmp/ccIQ8kit.s 			page 5


 228 00f0 0030D8E5 		ldrb	r3, [r8]	@ zero_extendqisi2
 229              		.loc 1 176 10 view .LVU81
 230 00f4 000053E3 		cmp	r3, #0
 231              		.loc 1 177 17 view .LVU82
 232 00f8 0310A011 		movne	r1, r3
 233              	.LVL23:
 234              		.loc 1 177 17 view .LVU83
 235 00fc 443041E2 		sub	r3, r1, #68
 236 0100 01808812 		addne	r8, r8, #1
 237              	.LVL24:
 238              		.loc 1 183 5 is_stmt 1 view .LVU84
 239 0104 340053E3 		cmp	r3, #52
 240 0108 03F19F97 		ldrls	pc, [pc, r3, asl #2]
 241 010c 730000EA 		b	.L19
 242              	.L63:
 243 0110 0C070000 		.word	.L35
 244 0114 E0020000 		.word	.L19
 245 0118 E0020000 		.word	.L19
 246 011c E0020000 		.word	.L19
 247 0120 E0020000 		.word	.L19
 248 0124 E0020000 		.word	.L19
 249 0128 E0020000 		.word	.L19
 250 012c E0020000 		.word	.L19
 251 0130 E0020000 		.word	.L19
 252 0134 E0020000 		.word	.L19
 253 0138 E0020000 		.word	.L19
 254 013c 20070000 		.word	.L65
 255 0140 E0020000 		.word	.L19
 256 0144 E0020000 		.word	.L19
 257 0148 E0020000 		.word	.L19
 258 014c E0020000 		.word	.L19
 259 0150 E0020000 		.word	.L19
 260 0154 68070000 		.word	.L64
 261 0158 E0020000 		.word	.L19
 262 015c E0020000 		.word	.L19
 263 0160 40070000 		.word	.L81
 264 0164 E0020000 		.word	.L19
 265 0168 E0020000 		.word	.L19
 266 016c E0020000 		.word	.L19
 267 0170 E0020000 		.word	.L19
 268 0174 E0020000 		.word	.L19
 269 0178 E0020000 		.word	.L19
 270 017c E0020000 		.word	.L19
 271 0180 E0020000 		.word	.L19
 272 0184 E0020000 		.word	.L19
 273 0188 E0020000 		.word	.L19
 274 018c 44050000 		.word	.L27
 275 0190 0C070000 		.word	.L35
 276 0194 E0020000 		.word	.L19
 277 0198 B8030000 		.word	.L25
 278 019c E0020000 		.word	.L19
 279 01a0 E0020000 		.word	.L19
 280 01a4 E0020000 		.word	.L19
 281 01a8 E0020000 		.word	.L19
 282 01ac E0020000 		.word	.L19
 283 01b0 E0020000 		.word	.L19
 284 01b4 E0020000 		.word	.L19
ARM GAS  /tmp/ccIQ8kit.s 			page 6


 285 01b8 E0020000 		.word	.L19
 286 01bc 20070000 		.word	.L65
 287 01c0 E0020000 		.word	.L19
 288 01c4 E0020000 		.word	.L19
 289 01c8 E0020000 		.word	.L19
 290 01cc 5C030000 		.word	.L23
 291 01d0 E0020000 		.word	.L19
 292 01d4 68070000 		.word	.L64
 293 01d8 E0020000 		.word	.L19
 294 01dc E0020000 		.word	.L19
 295 01e0 40070000 		.word	.L81
 296              	.LVL25:
 297              	.L17:
 298              		.loc 1 180 7 view .LVU85
 299              		.loc 1 180 28 is_stmt 0 view .LVU86
 300 01e4 413041E2 		sub	r3, r1, #65
 301 01e8 440041E2 		sub	r0, r1, #68
 302 01ec 7330EFE6 		uxtb	r3, r3
 303              	.LVL26:
 304              		.loc 1 183 5 is_stmt 1 view .LVU87
 305 01f0 340050E3 		cmp	r0, #52
 306 01f4 00F19F97 		ldrls	pc, [pc, r0, asl #2]
 307 01f8 380000EA 		b	.L19
 308              	.L21:
 309 01fc FC050000 		.word	.L26
 310 0200 E0020000 		.word	.L19
 311 0204 E0020000 		.word	.L19
 312 0208 E0020000 		.word	.L19
 313 020c E0020000 		.word	.L19
 314 0210 E0020000 		.word	.L19
 315 0214 E0020000 		.word	.L19
 316 0218 E0020000 		.word	.L19
 317 021c E0020000 		.word	.L19
 318 0220 E0020000 		.word	.L19
 319 0224 E0020000 		.word	.L19
 320 0228 8C060000 		.word	.L24
 321 022c E0020000 		.word	.L19
 322 0230 E0020000 		.word	.L19
 323 0234 E0020000 		.word	.L19
 324 0238 E0020000 		.word	.L19
 325 023c E0020000 		.word	.L19
 326 0240 38070000 		.word	.L75
 327 0244 E0020000 		.word	.L19
 328 0248 E0020000 		.word	.L19
 329 024c 70070000 		.word	.L20
 330 0250 E0020000 		.word	.L19
 331 0254 E0020000 		.word	.L19
 332 0258 E0020000 		.word	.L19
 333 025c E0020000 		.word	.L19
 334 0260 E0020000 		.word	.L19
 335 0264 E0020000 		.word	.L19
 336 0268 E0020000 		.word	.L19
 337 026c E0020000 		.word	.L19
 338 0270 E0020000 		.word	.L19
 339 0274 E0020000 		.word	.L19
 340 0278 44050000 		.word	.L27
 341 027c FC050000 		.word	.L26
ARM GAS  /tmp/ccIQ8kit.s 			page 7


 342 0280 E0020000 		.word	.L19
 343 0284 B8030000 		.word	.L25
 344 0288 E0020000 		.word	.L19
 345 028c E0020000 		.word	.L19
 346 0290 E0020000 		.word	.L19
 347 0294 E0020000 		.word	.L19
 348 0298 E0020000 		.word	.L19
 349 029c E0020000 		.word	.L19
 350 02a0 E0020000 		.word	.L19
 351 02a4 E0020000 		.word	.L19
 352 02a8 8C060000 		.word	.L24
 353 02ac E0020000 		.word	.L19
 354 02b0 E0020000 		.word	.L19
 355 02b4 E0020000 		.word	.L19
 356 02b8 5C030000 		.word	.L23
 357 02bc E0020000 		.word	.L19
 358 02c0 38070000 		.word	.L75
 359 02c4 E0020000 		.word	.L19
 360 02c8 E0020000 		.word	.L19
 361 02cc 70070000 		.word	.L20
 362              	.LVL27:
 363              	.L1:
 364              		.loc 1 263 1 is_stmt 0 view .LVU88
 365 02d0 28D08DE2 		add	sp, sp, #40
 366              		.cfi_remember_state
 367              		.cfi_def_cfa_offset 48
 368              		@ sp needed
 369 02d4 F04FBDE8 		pop	{r4, r5, r6, r7, r8, r9, r10, fp, lr}
 370              		.cfi_restore 14
 371              		.cfi_restore 11
 372              		.cfi_restore 10
 373              		.cfi_restore 9
 374              		.cfi_restore 8
 375              		.cfi_restore 7
 376              		.cfi_restore 6
 377              		.cfi_restore 5
 378              		.cfi_restore 4
 379              		.cfi_def_cfa_offset 12
 380 02d8 0CD08DE2 		add	sp, sp, #12
 381              		.cfi_restore 3
 382              		.cfi_restore 2
 383              		.cfi_restore 1
 384              		.cfi_def_cfa_offset 0
 385 02dc 1EFF2FE1 		bx	lr
 386              	.LVL28:
 387              	.L19:
 388              		.cfi_restore_state
 389              		.loc 1 238 7 is_stmt 1 view .LVU89
 390              		.loc 1 238 12 is_stmt 0 view .LVU90
 391 02e0 1010CDE5 		strb	r1, [sp, #16]
 392              		.loc 1 239 7 is_stmt 1 view .LVU91
 393              	.LVL29:
 394              	.L28:
 395              		.loc 1 241 5 view .LVU92
 396              		.loc 1 242 5 view .LVU93
 397              		.loc 1 244 8 is_stmt 0 view .LVU94
 398 02e4 000057E3 		cmp	r7, #0
ARM GAS  /tmp/ccIQ8kit.s 			page 8


 399              		.loc 1 242 16 view .LVU95
 400 02e8 01A044E2 		sub	r10, r4, #1
 401              	.LVL30:
 402              		.loc 1 255 11 view .LVU96
 403 02ec 0070A013 		movne	r7, #0
 404 02f0 CAAFCAE1 		bic	r10, r10, r10, asr #31
 405              	.LVL31:
 406              		.loc 1 244 5 is_stmt 1 view .LVU97
 407              		.loc 1 244 8 is_stmt 0 view .LVU98
 408 02f4 10608D12 		addne	r6, sp, #16
 409 02f8 0400001A 		bne	.L67
 410              		.loc 1 245 7 is_stmt 1 view .LVU99
 411              		.loc 1 246 8 is_stmt 0 view .LVU100
 412 02fc 010054E3 		cmp	r4, #1
 413              		.loc 1 245 13 view .LVU101
 414 0300 00A06AE2 		rsb	r10, r10, #0
 415              	.LVL32:
 416              		.loc 1 246 5 is_stmt 1 view .LVU102
 417              		.loc 1 246 8 is_stmt 0 view .LVU103
 418 0304 10608DD2 		addle	r6, sp, #16
 419              		.loc 1 245 13 view .LVU104
 420 0308 07A0A0D1 		movle	r10, r7
 421              	.LVL33:
 422              		.loc 1 246 8 view .LVU105
 423 030c 930000CA 		bgt	.L122
 424              	.LVL34:
 425              	.L67:
 426              		.loc 1 246 8 view .LVU106
 427 0310 077086E0 		add	r7, r6, r7
 428              	.L59:
 429              	.LVL35:
 430              		.loc 1 256 7 is_stmt 1 view .LVU107
 431              		.loc 1 256 7 is_stmt 0 view .LVU108
 432 0314 003095E5 		ldr	r3, [r5]
 433 0318 0110D6E4 		ldrb	r1, [r6], #1	@ zero_extendqisi2
 434              	.LVL36:
 435              		.loc 1 256 7 view .LVU109
 436 031c 083093E5 		ldr	r3, [r3, #8]
 437 0320 0500A0E1 		mov	r0, r5
 438 0324 33FF2FE1 		blx	r3
 439              	.LVL37:
 440              		.loc 1 255 11 is_stmt 1 view .LVU110
 441              		.loc 1 255 11 is_stmt 0 view .LVU111
 442 0328 063047E0 		sub	r3, r7, r6
 443 032c 000053E3 		cmp	r3, #0
 444 0330 F7FFFFAA 		bge	.L59
 445              	.LVL38:
 446              	.L60:
 447              		.loc 1 258 11 is_stmt 1 view .LVU112
 448 0334 00005AE3 		cmp	r10, #0
 449 0338 41FFFF0A 		beq	.L5
 450              	.L62:
 451              		.loc 1 259 7 view .LVU113
 452 033c 003095E5 		ldr	r3, [r5]
 453 0340 0910A0E1 		mov	r1, r9
 454 0344 0500A0E1 		mov	r0, r5
 455 0348 083093E5 		ldr	r3, [r3, #8]
ARM GAS  /tmp/ccIQ8kit.s 			page 9


 456 034c 33FF2FE1 		blx	r3
 457              	.LVL39:
 458              		.loc 1 260 7 view .LVU114
 459              		.loc 1 258 11 view .LVU115
 460 0350 01A05AE2 		subs	r10, r10, #1
 461              	.LVL40:
 462              		.loc 1 258 11 is_stmt 0 view .LVU116
 463 0354 F8FFFF1A 		bne	.L62
 464 0358 39FFFFEA 		b	.L5
 465              	.LVL41:
 466              	.L23:
 467              		.loc 1 189 7 is_stmt 1 view .LVU117
 468              		.loc 1 190 7 view .LVU118
 469              		.loc 1 190 14 is_stmt 0 view .LVU119
 470 035c 0C309DE5 		ldr	r3, [sp, #12]
 471 0360 006093E5 		ldr	r6, [r3]
 472 0364 043083E2 		add	r3, r3, #4
 473              		.loc 1 190 10 view .LVU120
 474 0368 000056E3 		cmp	r6, #0
 475              		.loc 1 190 14 view .LVU121
 476 036c 0C308DE5 		str	r3, [sp, #12]
 477              	.LVL42:
 478              		.loc 1 190 10 view .LVU122
 479 0370 9C00000A 		beq	.L29
 480              		.loc 1 193 19 view .LVU123
 481 0374 2C149FE5 		ldr	r1, .L129
 482              	.LVL43:
 483              		.loc 1 193 19 view .LVU124
 484 0378 0030D6E5 		ldrb	r3, [r6]	@ zero_extendqisi2
 485              	.LVL44:
 486              		.loc 1 192 7 is_stmt 1 view .LVU125
 487              		.loc 1 193 19 is_stmt 0 view .LVU126
 488 037c 000052E3 		cmp	r2, #0
 489 0380 0120A001 		moveq	r2, r1
 490              	.LVL45:
 491              		.loc 1 194 19 is_stmt 1 view .LVU127
 492              		.loc 1 194 7 is_stmt 0 view .LVU128
 493 0384 000053E3 		cmp	r3, #0
 494 0388 FC00000A 		beq	.L123
 495              	.LVL46:
 496              	.L69:
 497              		.loc 1 159 15 view .LVU129
 498 038c 06A0A0E1 		mov	r10, r6
 499 0390 030000EA 		b	.L33
 500              	.LVL47:
 501              	.L124:
 502              		.loc 1 159 15 view .LVU130
 503 0394 0A30E0E1 		mvn	r3, r10
 504 0398 033086E0 		add	r3, r6, r3
 505              		.loc 1 194 22 discriminator 3 view .LVU131
 506 039c 020073E1 		cmn	r3, r2
 507 03a0 0200004A 		bmi	.L76
 508              	.LVL48:
 509              	.L33:
 510              		.loc 1 195 9 is_stmt 1 discriminator 4 view .LVU132
 511              		.loc 1 194 45 discriminator 4 view .LVU133
 512              		.loc 1 194 19 discriminator 4 view .LVU134
ARM GAS  /tmp/ccIQ8kit.s 			page 10


 513              		.loc 1 194 7 is_stmt 0 discriminator 4 view .LVU135
 514 03a4 0130FAE5 		ldrb	r3, [r10, #1]!	@ zero_extendqisi2
 515              	.LVL49:
 516              		.loc 1 194 7 discriminator 4 view .LVU136
 517 03a8 000053E3 		cmp	r3, #0
 518 03ac F8FFFF1A 		bne	.L124
 519              	.L76:
 520              		.loc 1 189 14 view .LVU137
 521 03b0 2090A0E3 		mov	r9, #32
 522 03b4 550000EA 		b	.L32
 523              	.LVL50:
 524              	.L25:
 525              		.loc 1 211 7 is_stmt 1 view .LVU138
 526              		.loc 1 211 19 is_stmt 0 view .LVU139
 527 03b8 0C309DE5 		ldr	r3, [sp, #12]
 528 03bc 073083E2 		add	r3, r3, #7
 529 03c0 0730C3E3 		bic	r3, r3, #7
 530 03c4 082083E2 		add	r2, r3, #8
 531              	.LVL51:
 532              		.loc 1 211 9 view .LVU140
 533 03c8 D000C3E1 		ldrd	r0, [r3]
 534              		.loc 1 211 19 view .LVU141
 535 03cc 0C208DE5 		str	r2, [sp, #12]
 536              		.loc 1 211 9 view .LVU142
 537 03d0 FEFFFFEB 		bl	__aeabi_d2f
 538              	.LVL52:
 539              		.loc 1 212 10 view .LVU143
 540 03d4 0010A0E3 		mov	r1, #0
 541              		.loc 1 211 9 view .LVU144
 542 03d8 00B0A0E1 		mov	fp, r0
 543              	.LVL53:
 544              		.loc 1 212 7 is_stmt 1 view .LVU145
 545              		.loc 1 212 10 is_stmt 0 view .LVU146
 546 03dc FEFFFFEB 		bl	__aeabi_fcmplt
 547              	.LVL54:
 548              		.loc 1 212 10 view .LVU147
 549 03e0 000050E3 		cmp	r0, #0
 550              		.loc 1 213 9 is_stmt 1 view .LVU148
 551              	.LVL55:
 552              		.loc 1 213 14 is_stmt 0 view .LVU149
 553 03e4 2D30A013 		movne	r3, #45
 554              		.loc 1 214 11 view .LVU150
 555 03e8 02B18B12 		addne	fp, fp, #-2147483648
 556              	.LVL56:
 557              		.loc 1 136 7 view .LVU151
 558 03ec 10608D02 		addeq	r6, sp, #16
 559              		.loc 1 216 11 view .LVU152
 560 03f0 0B00A0E1 		mov	r0, fp
 561              		.loc 1 136 7 view .LVU153
 562 03f4 06A0A001 		moveq	r10, r6
 563              		.loc 1 213 14 view .LVU154
 564 03f8 1030CD15 		strbne	r3, [sp, #16]
 565              		.loc 1 214 9 is_stmt 1 view .LVU155
 566              	.LVL57:
 567              		.loc 1 213 11 is_stmt 0 view .LVU156
 568 03fc 11A08D12 		addne	r10, sp, #17
 569 0400 10608D12 		addne	r6, sp, #16
ARM GAS  /tmp/ccIQ8kit.s 			page 11


 570              	.LVL58:
 571              		.loc 1 216 7 is_stmt 1 view .LVU157
 572              		.loc 1 216 11 is_stmt 0 view .LVU158
 573 0404 FEFFFFEB 		bl	__aeabi_f2d
 574              	.LVL59:
 575              		.loc 1 216 11 view .LVU159
 576 0408 0020A0E1 		mov	r2, r0
 577 040c 0130A0E1 		mov	r3, r1
 578              	.LBB26:
 579              	.LBB27:
 580              		.loc 1 83 5 view .LVU160
 581 0410 0B00A0E1 		mov	r0, fp
 582              	.LBE27:
 583              	.LBE26:
 584              		.loc 1 216 11 view .LVU161
 585 0414 F020CDE1 		strd	r2, [sp]
 586              	.LVL60:
 587              	.LBB37:
 588              	.LBI26:
 589              		.loc 1 79 14 is_stmt 1 view .LVU162
 590              	.LBB36:
 591              		.loc 1 80 3 view .LVU163
 592              		.loc 1 81 3 view .LVU164
 593              		.loc 1 83 3 view .LVU165
 594              		.loc 1 83 5 is_stmt 0 view .LVU166
 595 0418 FEFFFFEB 		bl	__aeabi_f2iz
 596              	.LVL61:
 597              		.loc 1 84 3 is_stmt 1 view .LVU167
 598              	.LBB28:
 599              	.LBI28:
 600              		.loc 1 40 14 view .LVU168
 601              	.LBB29:
 602              		.loc 1 44 3 view .LVU169
 603              		.loc 1 45 3 view .LVU170
 604              		.loc 1 46 3 view .LVU171
 605              		.loc 1 48 3 view .LVU172
 606              		.loc 1 49 3 view .LVU173
 607              		.loc 1 55 3 view .LVU174
 608              		.loc 1 55 5 is_stmt 0 view .LVU175
 609 041c 0BC08AE2 		add	ip, r10, #11
 610              	.LVL62:
 611              		.loc 1 48 5 view .LVU176
 612 0420 0020A0E1 		mov	r2, r0
 613              		.loc 1 55 5 view .LVU177
 614 0424 0CE0A0E1 		mov	lr, ip
 615              	.LVL63:
 616              	.L42:
 617              		.loc 1 56 3 is_stmt 1 view .LVU178
 618              		.loc 1 57 5 view .LVU179
 619              		.loc 1 57 17 is_stmt 0 view .LVU180
 620 0428 7C339FE5 		ldr	r3, .L129+4
 621              		.loc 1 63 3 view .LVU181
 622 042c 090052E3 		cmp	r2, #9
 623              		.loc 1 57 17 view .LVU182
 624 0430 931283E0 		umull	r1, r3, r3, r2
 625 0434 A331A0E1 		lsr	r3, r3, #3
 626 0438 0310A0E1 		mov	r1, r3
ARM GAS  /tmp/ccIQ8kit.s 			page 12


 627 043c 033183E0 		add	r3, r3, r3, lsl #2
 628 0440 833042E0 		sub	r3, r2, r3, lsl #1
 629              	.LVL64:
 630              		.loc 1 58 5 is_stmt 1 view .LVU183
 631              		.loc 1 59 5 view .LVU184
 632              		.loc 1 61 5 view .LVU185
 633              		.loc 1 58 7 is_stmt 0 view .LVU186
 634 0444 303083E2 		add	r3, r3, #48
 635              	.LVL65:
 636              		.loc 1 61 10 view .LVU187
 637 0448 7330EFE6 		uxtb	r3, r3
 638              	.LVL66:
 639              		.loc 1 62 7 view .LVU188
 640 044c 0120A0E1 		mov	r2, r1
 641              	.LVL67:
 642              		.loc 1 61 10 view .LVU189
 643 0450 01306EE5 		strb	r3, [lr, #-1]!
 644              	.LVL68:
 645              		.loc 1 62 5 is_stmt 1 view .LVU190
 646              		.loc 1 63 11 view .LVU191
 647              		.loc 1 63 3 is_stmt 0 view .LVU192
 648 0454 F3FFFF8A 		bhi	.L42
 649              		.loc 1 65 3 is_stmt 1 view .LVU193
 650              		.loc 1 65 5 is_stmt 0 view .LVU194
 651 0458 0EC04CE0 		sub	ip, ip, lr
 652              	.LVL69:
 653              		.loc 1 65 5 view .LVU195
 654 045c 0E10A0E1 		mov	r1, lr
 655              	.LVL70:
 656              		.loc 1 65 5 view .LVU196
 657 0460 0A20A0E1 		mov	r2, r10
 658              	.LVL71:
 659              		.loc 1 65 5 view .LVU197
 660 0464 0CE08AE0 		add	lr, r10, ip
 661              	.LVL72:
 662              		.loc 1 65 5 view .LVU198
 663 0468 000000EA 		b	.L44
 664              	.LVL73:
 665              	.L125:
 666              		.loc 1 65 5 view .LVU199
 667 046c 0130F1E5 		ldrb	r3, [r1, #1]!	@ zero_extendqisi2
 668              	.L44:
 669              		.loc 1 66 3 is_stmt 1 view .LVU200
 670              		.loc 1 67 5 view .LVU201
 671              	.LVL74:
 672              		.loc 1 67 10 is_stmt 0 view .LVU202
 673 0470 0130C2E4 		strb	r3, [r2], #1
 674              	.LVL75:
 675              		.loc 1 68 9 is_stmt 1 view .LVU203
 676              		.loc 1 68 3 is_stmt 0 view .LVU204
 677 0474 0E0052E1 		cmp	r2, lr
 678 0478 FBFFFF1A 		bne	.L125
 679              	.LBE29:
 680              	.LBE28:
 681              		.loc 1 85 8 view .LVU205
 682 047c 2E30A0E3 		mov	r3, #46
 683 0480 01C04CE2 		sub	ip, ip, #1
ARM GAS  /tmp/ccIQ8kit.s 			page 13


 684 0484 0030C2E5 		strb	r3, [r2]
 685 0488 0CA08AE0 		add	r10, r10, ip
 686              	.LVL76:
 687              	.LBB31:
 688              	.LBB30:
 689              		.loc 1 70 3 is_stmt 1 view .LVU206
 690              		.loc 1 70 3 is_stmt 0 view .LVU207
 691              	.LBE30:
 692              	.LBE31:
 693              		.loc 1 85 3 is_stmt 1 view .LVU208
 694              		.loc 1 86 19 is_stmt 0 view .LVU209
 695 048c FEFFFFEB 		bl	__aeabi_i2d
 696              	.LVL77:
 697              		.loc 1 86 19 view .LVU210
 698 0490 0020A0E1 		mov	r2, r0
 699 0494 0130A0E1 		mov	r3, r1
 700 0498 D000CDE1 		ldrd	r0, [sp]
 701 049c FEFFFFEB 		bl	__aeabi_dsub
 702              	.LVL78:
 703              		.loc 1 86 24 view .LVU211
 704 04a0 08339FE5 		ldr	r3, .L129+8
 705 04a4 0020A0E3 		mov	r2, #0
 706 04a8 FEFFFFEB 		bl	__aeabi_dmul
 707              	.LVL79:
 708              		.loc 1 86 5 view .LVU212
 709 04ac FEFFFFEB 		bl	__aeabi_d2iz
 710              	.LVL80:
 711 04b0 02C0A0E3 		mov	ip, #2
 712              	.LBB32:
 713              	.LBB33:
 714              		.loc 1 57 17 view .LVU213
 715 04b4 F0229FE5 		ldr	r2, .L129+4
 716              	.LBE33:
 717              	.LBE32:
 718              		.loc 1 85 5 view .LVU214
 719 04b8 02108AE2 		add	r1, r10, #2
 720              	.LVL81:
 721              		.loc 1 86 3 is_stmt 1 view .LVU215
 722              		.loc 1 87 3 view .LVU216
 723              	.LBB35:
 724              	.LBI32:
 725              		.loc 1 40 14 view .LVU217
 726              	.LBB34:
 727              		.loc 1 44 3 view .LVU218
 728              		.loc 1 45 3 view .LVU219
 729              		.loc 1 46 3 view .LVU220
 730              		.loc 1 48 3 view .LVU221
 731              		.loc 1 49 3 view .LVU222
 732              		.loc 1 52 5 view .LVU223
 733              		.loc 1 55 3 view .LVU224
 734              		.loc 1 56 3 view .LVU225
 735              		.loc 1 57 5 view .LVU226
 736              		.loc 1 57 17 is_stmt 0 view .LVU227
 737 04bc 92308EE0 		umull	r3, lr, r2, r0
 738 04c0 AEE1A0E1 		lsr	lr, lr, #3
 739 04c4 92BE82E0 		umull	fp, r2, r2, lr
 740              	.LVL82:
ARM GAS  /tmp/ccIQ8kit.s 			page 14


 741              		.loc 1 57 17 view .LVU228
 742 04c8 A221A0E1 		lsr	r2, r2, #3
 743 04cc 122C82E0 		add	r2, r2, r2, lsl ip
 744 04d0 82204EE0 		sub	r2, lr, r2, lsl #1
 745 04d4 1EBC8EE0 		add	fp, lr, lr, lsl ip
 746 04d8 8BE040E0 		sub	lr, r0, fp, lsl #1
 747              	.LVL83:
 748              		.loc 1 58 5 is_stmt 1 view .LVU229
 749              		.loc 1 59 5 view .LVU230
 750              		.loc 1 61 5 view .LVU231
 751              		.loc 1 58 7 is_stmt 0 view .LVU232
 752 04dc 302082E2 		add	r2, r2, #48
 753 04e0 30E08EE2 		add	lr, lr, #48
 754              	.LVL84:
 755              		.loc 1 61 10 view .LVU233
 756 04e4 7220EFE6 		uxtb	r2, r2
 757 04e8 0CE0CAE5 		strb	lr, [r10, #12]
 758              		.loc 1 62 5 is_stmt 1 view .LVU234
 759              	.LVL85:
 760              		.loc 1 63 11 view .LVU235
 761              		.loc 1 56 3 view .LVU236
 762              		.loc 1 57 5 view .LVU237
 763              		.loc 1 58 5 view .LVU238
 764              		.loc 1 59 5 view .LVU239
 765              		.loc 1 61 5 view .LVU240
 766              		.loc 1 61 10 is_stmt 0 view .LVU241
 767 04ec 0B20CAE5 		strb	r2, [r10, #11]
 768              		.loc 1 62 5 is_stmt 1 view .LVU242
 769              	.LVL86:
 770              		.loc 1 63 11 view .LVU243
 771              		.loc 1 65 3 view .LVU244
 772              		.loc 1 65 5 is_stmt 0 view .LVU245
 773 04f0 0130A0E1 		mov	r3, r1
 774 04f4 04A08AE2 		add	r10, r10, #4
 775              	.LVL87:
 776              		.loc 1 65 5 view .LVU246
 777 04f8 000000EA 		b	.L46
 778              	.LVL88:
 779              	.L45:
 780              		.loc 1 65 5 view .LVU247
 781 04fc 0920D3E5 		ldrb	r2, [r3, #9]	@ zero_extendqisi2
 782              	.LVL89:
 783              	.L46:
 784              		.loc 1 66 3 is_stmt 1 view .LVU248
 785              		.loc 1 67 5 view .LVU249
 786              		.loc 1 67 10 is_stmt 0 view .LVU250
 787 0500 0120C3E4 		strb	r2, [r3], #1
 788              	.LVL90:
 789              		.loc 1 68 9 is_stmt 1 view .LVU251
 790              		.loc 1 68 3 is_stmt 0 view .LVU252
 791 0504 0A0053E1 		cmp	r3, r10
 792 0508 FBFFFF1A 		bne	.L45
 793 050c 0CA081E0 		add	r10, r1, ip
 794              	.LVL91:
 795              	.L32:
 796              		.loc 1 68 3 view .LVU253
 797              	.LBE34:
ARM GAS  /tmp/ccIQ8kit.s 			page 15


 798              	.LBE35:
 799              	.LBE36:
 800              	.LBE37:
 801              		.loc 1 241 5 is_stmt 1 view .LVU254
 802              		.loc 1 241 7 is_stmt 0 view .LVU255
 803 0510 06304AE0 		sub	r3, r10, r6
 804              	.LVL92:
 805              		.loc 1 242 5 is_stmt 1 view .LVU256
 806              		.loc 1 242 16 is_stmt 0 view .LVU257
 807 0514 034044E0 		sub	r4, r4, r3
 808              	.LVL93:
 809              		.loc 1 244 8 view .LVU258
 810 0518 000057E3 		cmp	r7, #0
 811 051c C4AFC4E1 		bic	r10, r4, r4, asr #31
 812              	.LVL94:
 813              		.loc 1 244 5 is_stmt 1 view .LVU259
 814 0520 01704312 		subne	r7, r3, #1
 815              		.loc 1 244 8 is_stmt 0 view .LVU260
 816 0524 0300001A 		bne	.L55
 817              	.LVL95:
 818              		.loc 1 246 8 view .LVU261
 819 0528 000054E3 		cmp	r4, #0
 820 052c 017043E2 		sub	r7, r3, #1
 821              	.LVL96:
 822              		.loc 1 245 7 is_stmt 1 view .LVU262
 823              		.loc 1 245 13 is_stmt 0 view .LVU263
 824 0530 00A06AE2 		rsb	r10, r10, #0
 825              	.LVL97:
 826              		.loc 1 246 5 is_stmt 1 view .LVU264
 827              		.loc 1 246 8 is_stmt 0 view .LVU265
 828 0534 0A0000CA 		bgt	.L71
 829              	.LVL98:
 830              	.L55:
 831              		.loc 1 255 11 is_stmt 1 view .LVU266
 832 0538 000057E3 		cmp	r7, #0
 833 053c 73FFFFAA 		bge	.L67
 834              		.loc 1 255 11 is_stmt 0 view .LVU267
 835 0540 7BFFFFEA 		b	.L60
 836              	.LVL99:
 837              	.L27:
 838              		.loc 1 185 7 is_stmt 1 view .LVU268
 839              		.loc 1 186 7 view .LVU269
 840              		.loc 1 186 14 is_stmt 0 view .LVU270
 841 0544 0C309DE5 		ldr	r3, [sp, #12]
 842              		.loc 1 185 14 view .LVU271
 843 0548 2090A0E3 		mov	r9, #32
 844              		.loc 1 186 12 view .LVU272
 845 054c 002093E5 		ldr	r2, [r3]
 846              	.LVL100:
 847              		.loc 1 186 14 view .LVU273
 848 0550 043083E2 		add	r3, r3, #4
 849              		.loc 1 186 12 view .LVU274
 850 0554 1020CDE5 		strb	r2, [sp, #16]
 851              		.loc 1 186 14 view .LVU275
 852 0558 0C308DE5 		str	r3, [sp, #12]
 853              	.LVL101:
 854              		.loc 1 187 7 is_stmt 1 view .LVU276
ARM GAS  /tmp/ccIQ8kit.s 			page 16


 855 055c 60FFFFEA 		b	.L28
 856              	.LVL102:
 857              	.L122:
 858              		.loc 1 246 8 is_stmt 0 view .LVU277
 859 0560 10608DE2 		add	r6, sp, #16
 860              	.LVL103:
 861              	.L71:
 862              		.loc 1 247 7 is_stmt 1 view .LVU278
 863              		.loc 1 247 10 is_stmt 0 view .LVU279
 864 0564 0030D6E5 		ldrb	r3, [r6]	@ zero_extendqisi2
 865              		.loc 1 247 21 view .LVU280
 866 0568 2D0053E3 		cmp	r3, #45
 867 056c 30005903 		cmpeq	r9, #48
 868 0570 7400000A 		beq	.L126
 869              	.LVL104:
 870              	.L57:
 871              		.loc 1 251 7 is_stmt 1 discriminator 1 view .LVU281
 872              		.loc 1 252 9 discriminator 1 view .LVU282
 873 0574 003095E5 		ldr	r3, [r5]
 874 0578 0910A0E1 		mov	r1, r9
 875 057c 0500A0E1 		mov	r0, r5
 876 0580 083093E5 		ldr	r3, [r3, #8]
 877 0584 33FF2FE1 		blx	r3
 878              	.LVL105:
 879              		.loc 1 253 13 discriminator 1 view .LVU283
 880              		.loc 1 253 7 is_stmt 0 discriminator 1 view .LVU284
 881 0588 01A09AE2 		adds	r10, r10, #1
 882              	.LVL106:
 883              		.loc 1 253 7 discriminator 1 view .LVU285
 884 058c F8FFFF1A 		bne	.L57
 885              	.LVL107:
 886              		.loc 1 255 11 is_stmt 1 view .LVU286
 887 0590 000057E3 		cmp	r7, #0
 888 0594 5DFFFFAA 		bge	.L67
 889 0598 A9FEFFEA 		b	.L5
 890              	.LVL108:
 891              	.L121:
 892              		.loc 1 160 8 is_stmt 0 view .LVU287
 893 059c 00E0A0E3 		mov	lr, #0
 894 05a0 0C009DE5 		ldr	r0, [sp, #12]
 895              		.loc 1 159 15 view .LVU288
 896 05a4 0E20A0E1 		mov	r2, lr
 897 05a8 030000EA 		b	.L15
 898              	.LVL109:
 899              	.L127:
 900              		.loc 1 166 13 view .LVU289
 901 05ac 01E0A0E3 		mov	lr, #1
 902 05b0 043090E4 		ldr	r3, [r0], #4
 903 05b4 7330EFE6 		uxtb	r3, r3
 904              	.LVL110:
 905              	.L13:
 906              		.loc 1 169 9 is_stmt 1 view .LVU290
 907              		.loc 1 170 9 view .LVU291
 908              		.loc 1 170 19 is_stmt 0 view .LVU292
 909 05b8 8C2083E0 		add	r2, r3, ip, lsl #1
 910              	.LVL111:
 911              		.loc 1 161 13 is_stmt 1 view .LVU293
ARM GAS  /tmp/ccIQ8kit.s 			page 17


 912              	.L15:
 913              		.loc 1 161 7 view .LVU294
 914              		.loc 1 162 9 view .LVU295
 915              		.loc 1 165 14 view .LVU296
 916              		.loc 1 166 11 view .LVU297
 917              		.loc 1 162 11 is_stmt 0 view .LVU298
 918 05bc 0110D8E4 		ldrb	r1, [r8], #1	@ zero_extendqisi2
 919              	.LVL112:
 920              		.loc 1 163 9 is_stmt 1 view .LVU299
 921              		.loc 1 169 19 is_stmt 0 view .LVU300
 922 05c0 02C182E0 		add	ip, r2, r2, lsl #2
 923              		.loc 1 163 22 view .LVU301
 924 05c4 303041E2 		sub	r3, r1, #48
 925 05c8 7330EFE6 		uxtb	r3, r3
 926              		.loc 1 163 12 view .LVU302
 927 05cc 090053E3 		cmp	r3, #9
 928 05d0 F8FFFF9A 		bls	.L13
 929              		.loc 1 165 17 view .LVU303
 930 05d4 2A0051E3 		cmp	r1, #42
 931 05d8 F3FFFF0A 		beq	.L127
 932 05dc 00005EE3 		cmp	lr, #0
 933 05e0 0C008D15 		strne	r0, [sp, #12]
 934 05e4 BEFEFFEA 		b	.L12
 935              	.LVL113:
 936              	.L29:
 937              		.loc 1 192 7 is_stmt 1 view .LVU304
 938              		.loc 1 192 10 is_stmt 0 view .LVU305
 939 05e8 000052E3 		cmp	r2, #0
 940 05ec 6100001A 		bne	.L84
 941              		.loc 1 193 19 view .LVU306
 942 05f0 B0219FE5 		ldr	r2, .L129
 943              	.LVL114:
 944              		.loc 1 191 11 view .LVU307
 945 05f4 B8619FE5 		ldr	r6, .L129+12
 946 05f8 63FFFFEA 		b	.L69
 947              	.LVL115:
 948              	.L26:
 949              		.loc 1 199 7 is_stmt 1 view .LVU308
 950              		.loc 1 199 10 is_stmt 0 view .LVU309
 951 05fc 190053E3 		cmp	r3, #25
 952 0600 4100009A 		bls	.L35
 953              		.loc 1 202 9 is_stmt 1 view .LVU310
 954              		.loc 1 202 11 is_stmt 0 view .LVU311
 955 0604 0C309DE5 		ldr	r3, [sp, #12]
 956              	.LVL116:
 957              		.loc 1 202 11 view .LVU312
 958 0608 042083E2 		add	r2, r3, #4
 959              	.LVL117:
 960              		.loc 1 202 11 view .LVU313
 961 060c 001093E5 		ldr	r1, [r3]
 962              	.LVL118:
 963              		.loc 1 202 11 view .LVU314
 964 0610 0C208DE5 		str	r2, [sp, #12]
 965              	.LVL119:
 966              	.L36:
 967              		.loc 1 203 7 is_stmt 1 view .LVU315
 968              		.loc 1 203 10 is_stmt 0 view .LVU316
ARM GAS  /tmp/ccIQ8kit.s 			page 18


 969 0614 000051E3 		cmp	r1, #0
 970              		.loc 1 204 9 is_stmt 1 view .LVU317
 971              	.LVL120:
 972              		.loc 1 136 7 is_stmt 0 view .LVU318
 973 0618 10608DA2 		addge	r6, sp, #16
 974 061c 06C0A0A1 		movge	ip, r6
 975              		.loc 1 204 11 view .LVU319
 976 0620 11C08DB2 		addlt	ip, sp, #17
 977              		.loc 1 204 14 view .LVU320
 978 0624 2D30A0B3 		movlt	r3, #45
 979              	.LBB38:
 980              	.LBB39:
 981              	.LBB40:
 982              		.loc 1 55 5 view .LVU321
 983 0628 0B208CE2 		add	r2, ip, #11
 984 062c 0200A0E1 		mov	r0, r2
 985              	.LBE40:
 986              	.LBE39:
 987              	.LBE38:
 988              		.loc 1 205 11 view .LVU322
 989 0630 001061B2 		rsblt	r1, r1, #0
 990              	.LVL121:
 991              		.loc 1 204 14 view .LVU323
 992 0634 1030CDB5 		strblt	r3, [sp, #16]
 993              		.loc 1 205 9 is_stmt 1 view .LVU324
 994              	.LVL122:
 995              		.loc 1 205 9 is_stmt 0 view .LVU325
 996 0638 10608DB2 		addlt	r6, sp, #16
 997              	.LVL123:
 998              		.loc 1 207 7 is_stmt 1 view .LVU326
 999              	.LBB43:
 1000              	.LBI38:
 1001              		.loc 1 73 14 view .LVU327
 1002              	.LBE43:
 1003              		.loc 1 75 3 view .LVU328
 1004              	.LBB44:
 1005              	.LBB42:
 1006              	.LBI39:
 1007              		.loc 1 40 14 view .LVU329
 1008              	.LBB41:
 1009              		.loc 1 44 3 view .LVU330
 1010              		.loc 1 45 3 view .LVU331
 1011              		.loc 1 46 3 view .LVU332
 1012              		.loc 1 48 3 view .LVU333
 1013              		.loc 1 49 3 view .LVU334
 1014              		.loc 1 55 3 view .LVU335
 1015              	.L38:
 1016              		.loc 1 56 3 view .LVU336
 1017              		.loc 1 57 5 view .LVU337
 1018              		.loc 1 57 17 is_stmt 0 view .LVU338
 1019 063c 68319FE5 		ldr	r3, .L129+4
 1020              		.loc 1 63 3 view .LVU339
 1021 0640 090051E3 		cmp	r1, #9
 1022              		.loc 1 57 17 view .LVU340
 1023 0644 93E183E0 		umull	lr, r3, r3, r1
 1024 0648 A331A0E1 		lsr	r3, r3, #3
 1025 064c 03E0A0E1 		mov	lr, r3
ARM GAS  /tmp/ccIQ8kit.s 			page 19


 1026 0650 033183E0 		add	r3, r3, r3, lsl #2
 1027 0654 833041E0 		sub	r3, r1, r3, lsl #1
 1028              	.LVL124:
 1029              		.loc 1 58 5 is_stmt 1 view .LVU341
 1030              		.loc 1 59 5 view .LVU342
 1031              		.loc 1 61 5 view .LVU343
 1032              		.loc 1 58 7 is_stmt 0 view .LVU344
 1033 0658 303083E2 		add	r3, r3, #48
 1034              	.LVL125:
 1035              		.loc 1 61 10 view .LVU345
 1036 065c 7330EFE6 		uxtb	r3, r3
 1037              	.LVL126:
 1038              		.loc 1 62 7 view .LVU346
 1039 0660 0E10A0E1 		mov	r1, lr
 1040              	.LVL127:
 1041              		.loc 1 61 10 view .LVU347
 1042 0664 013060E5 		strb	r3, [r0, #-1]!
 1043              	.LVL128:
 1044              		.loc 1 62 5 is_stmt 1 view .LVU348
 1045              		.loc 1 63 11 view .LVU349
 1046              		.loc 1 63 3 is_stmt 0 view .LVU350
 1047 0668 F3FFFFCA 		bgt	.L38
 1048              		.loc 1 65 3 is_stmt 1 view .LVU351
 1049              	.LVL129:
 1050              		.loc 1 65 5 is_stmt 0 view .LVU352
 1051 066c 002042E0 		sub	r2, r2, r0
 1052              	.LVL130:
 1053              		.loc 1 65 5 view .LVU353
 1054 0670 02A08CE0 		add	r10, ip, r2
 1055 0674 000000EA 		b	.L39
 1056              	.LVL131:
 1057              	.L128:
 1058              		.loc 1 65 5 view .LVU354
 1059 0678 0130F0E5 		ldrb	r3, [r0, #1]!	@ zero_extendqisi2
 1060              	.L39:
 1061              		.loc 1 66 3 is_stmt 1 view .LVU355
 1062              		.loc 1 67 5 view .LVU356
 1063              	.LVL132:
 1064              		.loc 1 67 10 is_stmt 0 view .LVU357
 1065 067c 0130CCE4 		strb	r3, [ip], #1
 1066              	.LVL133:
 1067              		.loc 1 68 9 is_stmt 1 view .LVU358
 1068              		.loc 1 68 3 is_stmt 0 view .LVU359
 1069 0680 0A005CE1 		cmp	ip, r10
 1070 0684 FBFFFF1A 		bne	.L128
 1071 0688 A0FFFFEA 		b	.L32
 1072              	.LVL134:
 1073              	.L24:
 1074              		.loc 1 68 3 view .LVU360
 1075              	.LBE41:
 1076              	.LBE42:
 1077              	.LBE44:
 1078              		.loc 1 180 28 view .LVU361
 1079 068c 0860A0E3 		mov	r6, #8
 1080              	.L22:
 1081              	.LVL135:
 1082              		.loc 1 231 7 is_stmt 1 view .LVU362
ARM GAS  /tmp/ccIQ8kit.s 			page 20


 1083              		.loc 1 231 10 is_stmt 0 view .LVU363
 1084 0690 190053E3 		cmp	r3, #25
 1085 0694 2200009A 		bls	.L48
 1086              		.loc 1 234 9 is_stmt 1 view .LVU364
 1087              		.loc 1 234 11 is_stmt 0 view .LVU365
 1088 0698 0C309DE5 		ldr	r3, [sp, #12]
 1089              	.LVL136:
 1090              		.loc 1 234 11 view .LVU366
 1091 069c 042083E2 		add	r2, r3, #4
 1092              	.LVL137:
 1093              		.loc 1 234 11 view .LVU367
 1094 06a0 000093E5 		ldr	r0, [r3]
 1095 06a4 0C208DE5 		str	r2, [sp, #12]
 1096              	.LVL138:
 1097              	.L49:
 1098              		.loc 1 235 7 is_stmt 1 view .LVU368
 1099              	.LBB45:
 1100              	.LBI45:
 1101              		.loc 1 73 14 view .LVU369
 1102              	.LBE45:
 1103              		.loc 1 75 3 view .LVU370
 1104              	.LBB48:
 1105              	.LBB46:
 1106              	.LBI46:
 1107              		.loc 1 40 14 view .LVU371
 1108              	.LBB47:
 1109              		.loc 1 44 3 view .LVU372
 1110              		.loc 1 45 3 view .LVU373
 1111              		.loc 1 46 3 view .LVU374
 1112              		.loc 1 48 3 view .LVU375
 1113              		.loc 1 49 3 view .LVU376
 1114              		.loc 1 55 3 view .LVU377
 1115              		.loc 1 55 5 is_stmt 0 view .LVU378
 1116 06a8 1BB08DE2 		add	fp, sp, #27
 1117              	.LVL139:
 1118              		.loc 1 55 5 view .LVU379
 1119 06ac 000000EA 		b	.L51
 1120              	.LVL140:
 1121              	.L80:
 1122              		.loc 1 55 5 view .LVU380
 1123 06b0 01B0A0E1 		mov	fp, r1
 1124              	.LVL141:
 1125              	.L51:
 1126              		.loc 1 56 3 is_stmt 1 view .LVU381
 1127              		.loc 1 57 5 view .LVU382
 1128 06b4 0610A0E1 		mov	r1, r6
 1129              		.loc 1 57 17 is_stmt 0 view .LVU383
 1130 06b8 00A0A0E1 		mov	r10, r0
 1131 06bc FEFFFFEB 		bl	__aeabi_uidivmod
 1132              	.LVL142:
 1133              		.loc 1 60 7 is_stmt 1 view .LVU384
 1134              		.loc 1 58 5 view .LVU385
 1135              		.loc 1 58 7 is_stmt 0 view .LVU386
 1136 06c0 303081E2 		add	r3, r1, #48
 1137              	.LVL143:
 1138              		.loc 1 59 5 is_stmt 1 view .LVU387
 1139              		.loc 1 59 8 is_stmt 0 view .LVU388
ARM GAS  /tmp/ccIQ8kit.s 			page 21


 1140 06c4 390053E3 		cmp	r3, #57
 1141              		.loc 1 60 9 view .LVU389
 1142 06c8 373081C2 		addgt	r3, r1, #55
 1143              	.LVL144:
 1144              		.loc 1 61 5 is_stmt 1 view .LVU390
 1145              		.loc 1 61 10 is_stmt 0 view .LVU391
 1146 06cc 7330EFE6 		uxtb	r3, r3
 1147              	.LVL145:
 1148              		.loc 1 63 3 view .LVU392
 1149 06d0 06005AE1 		cmp	r10, r6
 1150              	.LVL146:
 1151              		.loc 1 61 10 view .LVU393
 1152 06d4 01304BE5 		strb	r3, [fp, #-1]
 1153 06d8 01104BE2 		sub	r1, fp, #1
 1154              	.LVL147:
 1155              		.loc 1 62 5 is_stmt 1 view .LVU394
 1156              		.loc 1 63 11 view .LVU395
 1157              		.loc 1 63 3 is_stmt 0 view .LVU396
 1158 06dc F3FFFF2A 		bcs	.L80
 1159              		.loc 1 65 3 is_stmt 1 view .LVU397
 1160              	.LVL148:
 1161              		.loc 1 65 5 is_stmt 0 view .LVU398
 1162 06e0 10608DE2 		add	r6, sp, #16
 1163              	.LVL149:
 1164              		.loc 1 65 5 view .LVU399
 1165 06e4 1B008DE2 		add	r0, sp, #27
 1166              	.LVL150:
 1167              		.loc 1 65 5 view .LVU400
 1168 06e8 0620A0E1 		mov	r2, r6
 1169 06ec 01A040E0 		sub	r10, r0, r1
 1170 06f0 000000EA 		b	.L53
 1171              	.LVL151:
 1172              	.L52:
 1173              		.loc 1 65 5 view .LVU401
 1174 06f4 0130DBE4 		ldrb	r3, [fp], #1	@ zero_extendqisi2
 1175              	.LVL152:
 1176              	.L53:
 1177              		.loc 1 66 3 is_stmt 1 view .LVU402
 1178              		.loc 1 67 5 view .LVU403
 1179              		.loc 1 68 3 is_stmt 0 view .LVU404
 1180 06f8 0B0050E1 		cmp	r0, fp
 1181              		.loc 1 67 10 view .LVU405
 1182 06fc 0130C2E4 		strb	r3, [r2], #1
 1183              	.LVL153:
 1184              		.loc 1 68 9 is_stmt 1 view .LVU406
 1185              		.loc 1 68 3 is_stmt 0 view .LVU407
 1186 0700 FBFFFF1A 		bne	.L52
 1187 0704 0AA086E0 		add	r10, r6, r10
 1188 0708 80FFFFEA 		b	.L32
 1189              	.LVL154:
 1190              	.L35:
 1191              		.loc 1 68 3 view .LVU408
 1192              	.LBE47:
 1193              	.LBE46:
 1194              	.LBE48:
 1195              		.loc 1 200 9 is_stmt 1 view .LVU409
 1196              		.loc 1 200 11 is_stmt 0 view .LVU410
ARM GAS  /tmp/ccIQ8kit.s 			page 22


 1197 070c 0C309DE5 		ldr	r3, [sp, #12]
 1198 0710 042083E2 		add	r2, r3, #4
 1199              	.LVL155:
 1200              		.loc 1 200 11 view .LVU411
 1201 0714 001093E5 		ldr	r1, [r3]
 1202              	.LVL156:
 1203              		.loc 1 200 11 view .LVU412
 1204 0718 0C208DE5 		str	r2, [sp, #12]
 1205 071c BCFFFFEA 		b	.L36
 1206              	.LVL157:
 1207              	.L65:
 1208              		.loc 1 231 7 is_stmt 1 view .LVU413
 1209              		.loc 1 180 28 is_stmt 0 view .LVU414
 1210 0720 0860A0E3 		mov	r6, #8
 1211              	.LVL158:
 1212              	.L48:
 1213              		.loc 1 232 9 is_stmt 1 view .LVU415
 1214              		.loc 1 232 11 is_stmt 0 view .LVU416
 1215 0724 0C309DE5 		ldr	r3, [sp, #12]
 1216 0728 042083E2 		add	r2, r3, #4
 1217              	.LVL159:
 1218              		.loc 1 232 11 view .LVU417
 1219 072c 000093E5 		ldr	r0, [r3]
 1220 0730 0C208DE5 		str	r2, [sp, #12]
 1221 0734 DBFFFFEA 		b	.L49
 1222              	.LVL160:
 1223              	.L75:
 1224              		.loc 1 180 28 view .LVU418
 1225 0738 0A60A0E3 		mov	r6, #10
 1226 073c D3FFFFEA 		b	.L22
 1227              	.LVL161:
 1228              	.L81:
 1229              		.loc 1 180 28 view .LVU419
 1230 0740 1060A0E3 		mov	r6, #16
 1231 0744 F6FFFFEA 		b	.L48
 1232              	.LVL162:
 1233              	.L126:
 1234              		.loc 1 248 9 is_stmt 1 view .LVU420
 1235 0748 003095E5 		ldr	r3, [r5]
 1236 074c 2D10A0E3 		mov	r1, #45
 1237 0750 0500A0E1 		mov	r0, r5
 1238 0754 083093E5 		ldr	r3, [r3, #8]
 1239 0758 016086E2 		add	r6, r6, #1
 1240              	.LVL163:
 1241              		.loc 1 248 9 is_stmt 0 view .LVU421
 1242 075c 017047E2 		sub	r7, r7, #1
 1243 0760 33FF2FE1 		blx	r3
 1244              	.LVL164:
 1245              		.loc 1 249 9 is_stmt 1 view .LVU422
 1246 0764 82FFFFEA 		b	.L57
 1247              	.LVL165:
 1248              	.L64:
 1249              		.loc 1 180 28 is_stmt 0 view .LVU423
 1250 0768 0A60A0E3 		mov	r6, #10
 1251 076c ECFFFFEA 		b	.L48
 1252              	.LVL166:
 1253              	.L20:
ARM GAS  /tmp/ccIQ8kit.s 			page 23


 1254              		.loc 1 180 28 view .LVU424
 1255 0770 1060A0E3 		mov	r6, #16
 1256 0774 C5FFFFEA 		b	.L22
 1257              	.LVL167:
 1258              	.L84:
 1259              		.loc 1 191 11 view .LVU425
 1260 0778 34609FE5 		ldr	r6, .L129+12
 1261 077c 02FFFFEA 		b	.L69
 1262              	.LVL168:
 1263              	.L123:
 1264              		.loc 1 241 5 is_stmt 1 view .LVU426
 1265              		.loc 1 242 5 view .LVU427
 1266              		.loc 1 244 5 view .LVU428
 1267              		.loc 1 244 8 is_stmt 0 view .LVU429
 1268 0780 000057E3 		cmp	r7, #0
 1269 0784 04A0A011 		movne	r10, r4
 1270              		.loc 1 189 14 view .LVU430
 1271 0788 2090A013 		movne	r9, #32
 1272              		.loc 1 244 8 view .LVU431
 1273 078c E8FEFF1A 		bne	.L60
 1274              		.loc 1 245 7 is_stmt 1 view .LVU432
 1275              		.loc 1 246 8 is_stmt 0 view .LVU433
 1276 0790 000054E3 		cmp	r4, #0
 1277              		.loc 1 245 13 view .LVU434
 1278 0794 00A064E2 		rsb	r10, r4, #0
 1279              	.LVL169:
 1280              		.loc 1 246 5 is_stmt 1 view .LVU435
 1281              		.loc 1 246 8 is_stmt 0 view .LVU436
 1282 0798 29FEFF0A 		beq	.L5
 1283              		.loc 1 189 14 view .LVU437
 1284 079c 2090A0E3 		mov	r9, #32
 1285              	.LVL170:
 1286              		.loc 1 246 8 view .LVU438
 1287 07a0 0070E0E3 		mvn	r7, #0
 1288 07a4 72FFFFEA 		b	.L57
 1289              	.L130:
 1290              		.align	2
 1291              	.L129:
 1292 07a8 FF7F0000 		.word	32767
 1293 07ac CDCCCCCC 		.word	-858993459
 1294 07b0 00005940 		.word	1079574528
 1295 07b4 00000000 		.word	.LC0
 1296              		.cfi_endproc
 1297              	.LFE10:
 1298              		.size	chprintf, .-chprintf
 1299              		.text
 1300              	.Letext0:
 1301              		.file 2 "/usr/lib/gcc/arm-none-eabi/9.2.1/include/stdarg.h"
 1302              		.file 3 "/usr/lib/gcc/arm-none-eabi/9.2.1/include/stddef.h"
 1303              		.file 4 "/usr/lib/gcc/arm-none-eabi/9.2.1/include/stdint.h"
 1304              		.file 5 "../../os/ports/GCC/ARM/chtypes.h"
 1305              		.file 6 "../../os/kernel/include/chlists.h"
 1306              		.file 7 "../../os/kernel/include/chthreads.h"
 1307              		.file 8 "../../os/ports/GCC/ARM/chcore.h"
 1308              		.file 9 "../../os/kernel/include/chvt.h"
 1309              		.file 10 "../../os/kernel/include/chschd.h"
 1310              		.file 11 "../../os/kernel/include/chmtx.h"
ARM GAS  /tmp/ccIQ8kit.s 			page 24


 1311              		.file 12 "../../os/kernel/include/chregistry.h"
 1312              		.file 13 "../../os/kernel/include/chstreams.h"
 1313              		.file 14 "../../os/kernel/include/ch.h"
 1314              		.file 15 "<built-in>"