ARM GAS  /tmp/ccKm3UWo.s 			page 1


   1              		.cpu arm1176jz-s
   2              		.eabi_attribute 20, 1
   3              		.eabi_attribute 21, 1
   4              		.eabi_attribute 23, 3
   5              		.eabi_attribute 24, 1
   6              		.eabi_attribute 25, 1
   7              		.eabi_attribute 26, 1
   8              		.eabi_attribute 30, 2
   9              		.eabi_attribute 34, 1
  10              		.eabi_attribute 18, 4
  11              		.file	"main.c"
  12              		.text
  13              	.Ltext0:
  14              		.cfi_sections	.debug_frame
  15              		.global	__aeabi_f2d
  16              		.section	.rodata.display_float.str1.4,"aMS",%progbits,1
  17              		.align	2
  18              	.LC0:
  19 0000 256600   		.ascii	"%f\000"
  20              		.section	.text.display_float,"ax",%progbits
  21              		.align	2
  22              		.global	display_float
  23              		.arch armv6kz
  24              		.syntax unified
  25              		.arm
  26              		.fpu softvfp
  27              		.type	display_float, %function
  28              	display_float:
  29              	.LVL0:
  30              	.LFB7:
  31              		.file 1 "main.c"
  32              		.loc 1 63 1 view -0
  33              		.cfi_startproc
  34              		@ args = 0, pretend = 0, frame = 0
  35              		@ frame_needed = 0, uses_anonymous_args = 0
  36              		.loc 1 64 3 view .LVU1
  37              		.loc 1 63 1 is_stmt 0 view .LVU2
  38 0000 10402DE9 		push	{r4, lr}
  39              		.cfi_def_cfa_offset 8
  40              		.cfi_offset 4, -8
  41              		.cfi_offset 14, -4
  42              		.loc 1 64 3 view .LVU3
  43 0004 FEFFFFEB 		bl	__aeabi_f2d
  44              	.LVL1:
  45              		.loc 1 64 3 view .LVU4
  46 0008 0020A0E1 		mov	r2, r0
  47 000c 0130A0E1 		mov	r3, r1
  48 0010 10009FE5 		ldr	r0, .L4
  49 0014 10109FE5 		ldr	r1, .L4+4
  50 0018 FEFFFFEB 		bl	chprintf
  51              	.LVL2:
  52              		.loc 1 65 3 is_stmt 1 view .LVU5
  53              		.loc 1 66 1 is_stmt 0 view .LVU6
  54 001c 1040BDE8 		pop	{r4, lr}
  55              		.cfi_restore 14
  56              		.cfi_restore 4
  57              		.cfi_def_cfa_offset 0
ARM GAS  /tmp/ccKm3UWo.s 			page 2


  58              		.loc 1 65 3 view .LVU7
  59 0020 7D0FA0E3 		mov	r0, #500
  60 0024 FEFFFFEA 		b	chThdSleep
  61              	.LVL3:
  62              	.L5:
  63              		.align	2
  64              	.L4:
  65 0028 00000000 		.word	SD1
  66 002c 00000000 		.word	.LC0
  67              		.cfi_endproc
  68              	.LFE7:
  69              		.size	display_float, .-display_float
  70              		.section	.text.receiveSilentDt2,"ax",%progbits
  71              		.align	2
  72              		.global	receiveSilentDt2
  73              		.syntax unified
  74              		.arm
  75              		.fpu softvfp
  76              		.type	receiveSilentDt2, %function
  77              	receiveSilentDt2:
  78              	.LFB9:
  79              		.loc 1 87 29 is_stmt 1 view -0
  80              		.cfi_startproc
  81              		@ args = 0, pretend = 0, frame = 8
  82              		@ frame_needed = 0, uses_anonymous_args = 0
  83              		.loc 1 88 3 view .LVU9
  84              		.loc 1 89 12 is_stmt 0 view .LVU10
  85 0000 FA0FA0E3 		mov	r0, #1000
  86 0004 0C10A0E3 		mov	r1, #12
  87              		.loc 1 88 18 view .LVU11
  88 0008 0130A0E3 		mov	r3, #1
  89              		.loc 1 87 29 view .LVU12
  90 000c 04E02DE5 		str	lr, [sp, #-4]!
  91              		.cfi_def_cfa_offset 4
  92              		.cfi_offset 14, -4
  93              		.loc 1 89 12 view .LVU13
  94 0010 3C209FE5 		ldr	r2, .L8
  95              		.loc 1 87 29 view .LVU14
  96 0014 1CD04DE2 		sub	sp, sp, #28
  97              		.cfi_def_cfa_offset 32
  98              		.loc 1 89 12 view .LVU15
  99 0018 08008DE5 		str	r0, [sp, #8]
 100 001c 04108DE5 		str	r1, [sp, #4]
 101 0020 00208DE5 		str	r2, [sp]
 102 0024 0410A0E3 		mov	r1, #4
 103 0028 17208DE2 		add	r2, sp, #23
 104 002c 24009FE5 		ldr	r0, .L8+4
 105              		.loc 1 88 18 view .LVU16
 106 0030 1730CDE5 		strb	r3, [sp, #23]
 107              		.loc 1 89 3 is_stmt 1 view .LVU17
 108              		.loc 1 89 12 is_stmt 0 view .LVU18
 109 0034 FEFFFFEB 		bl	i2cMasterTransmitTimeout
 110              	.LVL4:
 111 0038 0020A0E1 		mov	r2, r0
 112              		.loc 1 89 10 view .LVU19
 113 003c 18309FE5 		ldr	r3, .L8+8
 114              		.loc 1 91 3 view .LVU20
ARM GAS  /tmp/ccKm3UWo.s 			page 3


 115 0040 18009FE5 		ldr	r0, .L8+12
 116              		.loc 1 89 10 view .LVU21
 117 0044 002083E5 		str	r2, [r3]
 118              		.loc 1 91 3 is_stmt 1 view .LVU22
 119 0048 FEFFFFEB 		bl	chThdSleep
 120              	.LVL5:
 121              		.loc 1 92 1 is_stmt 0 view .LVU23
 122 004c 1CD08DE2 		add	sp, sp, #28
 123              		.cfi_def_cfa_offset 4
 124              		@ sp needed
 125 0050 04F09DE4 		ldr	pc, [sp], #4
 126              	.L9:
 127              		.align	2
 128              	.L8:
 129 0054 00000000 		.word	dt2
 130 0058 00000000 		.word	I2C0
 131 005c 00000000 		.word	msgDt2
 132 0060 AC0D0000 		.word	3500
 133              		.cfi_endproc
 134              	.LFE9:
 135              		.size	receiveSilentDt2, .-receiveSilentDt2
 136              		.section	.text.receiveSilentDt1,"ax",%progbits
 137              		.align	2
 138              		.global	receiveSilentDt1
 139              		.syntax unified
 140              		.arm
 141              		.fpu softvfp
 142              		.type	receiveSilentDt1, %function
 143              	receiveSilentDt1:
 144              	.LFB10:
 145              		.loc 1 95 29 is_stmt 1 view -0
 146              		.cfi_startproc
 147              		@ args = 0, pretend = 0, frame = 8
 148              		@ frame_needed = 0, uses_anonymous_args = 0
 149              		.loc 1 96 3 view .LVU25
 150              		.loc 1 97 12 is_stmt 0 view .LVU26
 151 0000 FA1FA0E3 		mov	r1, #1000
 152 0004 0C20A0E3 		mov	r2, #12
 153              		.loc 1 96 18 view .LVU27
 154 0008 00C0A0E3 		mov	ip, #0
 155              		.loc 1 95 29 view .LVU28
 156 000c 04E02DE5 		str	lr, [sp, #-4]!
 157              		.cfi_def_cfa_offset 4
 158              		.cfi_offset 14, -4
 159              		.loc 1 97 12 view .LVU29
 160 0010 40309FE5 		ldr	r3, .L12
 161              		.loc 1 95 29 view .LVU30
 162 0014 1CD04DE2 		sub	sp, sp, #28
 163              		.cfi_def_cfa_offset 32
 164              		.loc 1 97 12 view .LVU31
 165 0018 08108DE5 		str	r1, [sp, #8]
 166 001c 04208DE5 		str	r2, [sp, #4]
 167 0020 0410A0E3 		mov	r1, #4
 168 0024 00308DE5 		str	r3, [sp]
 169 0028 17208DE2 		add	r2, sp, #23
 170 002c 0130A0E3 		mov	r3, #1
 171 0030 24009FE5 		ldr	r0, .L12+4
ARM GAS  /tmp/ccKm3UWo.s 			page 4


 172              		.loc 1 96 18 view .LVU32
 173 0034 17C0CDE5 		strb	ip, [sp, #23]
 174              		.loc 1 97 3 is_stmt 1 view .LVU33
 175              		.loc 1 97 12 is_stmt 0 view .LVU34
 176 0038 FEFFFFEB 		bl	i2cMasterTransmitTimeout
 177              	.LVL6:
 178 003c 0020A0E1 		mov	r2, r0
 179              		.loc 1 97 10 view .LVU35
 180 0040 18309FE5 		ldr	r3, .L12+8
 181              		.loc 1 99 3 view .LVU36
 182 0044 18009FE5 		ldr	r0, .L12+12
 183              		.loc 1 97 10 view .LVU37
 184 0048 002083E5 		str	r2, [r3]
 185              		.loc 1 99 3 is_stmt 1 view .LVU38
 186 004c FEFFFFEB 		bl	chThdSleep
 187              	.LVL7:
 188              		.loc 1 100 1 is_stmt 0 view .LVU39
 189 0050 1CD08DE2 		add	sp, sp, #28
 190              		.cfi_def_cfa_offset 4
 191              		@ sp needed
 192 0054 04F09DE4 		ldr	pc, [sp], #4
 193              	.L13:
 194              		.align	2
 195              	.L12:
 196 0058 00000000 		.word	dt1
 197 005c 00000000 		.word	I2C0
 198 0060 00000000 		.word	msgDt1
 199 0064 AC0D0000 		.word	3500
 200              		.cfi_endproc
 201              	.LFE10:
 202              		.size	receiveSilentDt1, .-receiveSilentDt1
 203              		.section	.rodata.Thread_I2C.str1.4,"aMS",%progbits,1
 204              		.align	2
 205              	.LC1:
 206 0000 52656164 		.ascii	"Read all the information in I2C\000"
 206      20616C6C 
 206      20746865 
 206      20696E66 
 206      6F726D61 
 207              		.align	2
 208              	.LC2:
 209 0020 52656365 		.ascii	"Receiving data...\012\000"
 209      6976696E 
 209      67206461 
 209      74612E2E 
 209      2E0A00
 210              		.section	.text.Thread_I2C,"ax",%progbits
 211              		.align	2
 212              		.syntax unified
 213              		.arm
 214              		.fpu softvfp
 215              		.type	Thread_I2C, %function
 216              	Thread_I2C:
 217              	.LVL8:
 218              	.LFB14:
 219              		.loc 1 174 34 is_stmt 1 view -0
 220              		.cfi_startproc
ARM GAS  /tmp/ccKm3UWo.s 			page 5


 221              		@ Volatile: function does not return.
 222              		@ args = 0, pretend = 0, frame = 0
 223              		@ frame_needed = 0, uses_anonymous_args = 0
 224              		.loc 1 175 3 view .LVU41
 225              		.loc 1 176 3 view .LVU42
 226 0000 48309FE5 		ldr	r3, .L17
 227              		.loc 1 174 34 is_stmt 0 view .LVU43
 228 0004 10402DE9 		push	{r4, lr}
 229              		.cfi_def_cfa_offset 8
 230              		.cfi_offset 4, -8
 231              		.cfi_offset 14, -4
 232              		.loc 1 176 3 view .LVU44
 233 0008 18C093E5 		ldr	ip, [r3, #24]
 234 000c 40E09FE5 		ldr	lr, .L17+4
 235              		.loc 1 177 16 view .LVU45
 236 0010 40309FE5 		ldr	r3, .L17+8
 237 0014 40009FE5 		ldr	r0, .L17+12
 238              	.LVL9:
 239              		.loc 1 178 19 view .LVU46
 240 0018 40109FE5 		ldr	r1, .L17+16
 241              		.loc 1 179 17 view .LVU47
 242 001c 40209FE5 		ldr	r2, .L17+20
 243              		.loc 1 181 5 view .LVU48
 244 0020 40509FE5 		ldr	r5, .L17+24
 245 0024 40409FE5 		ldr	r4, .L17+28
 246              		.loc 1 176 3 view .LVU49
 247 0028 18E08CE5 		str	lr, [ip, #24]
 248              		.loc 1 177 3 is_stmt 1 view .LVU50
 249              		.loc 1 177 16 is_stmt 0 view .LVU51
 250 002c 000083E5 		str	r0, [r3]	@ float
 251              		.loc 1 178 3 is_stmt 1 view .LVU52
 252              		.loc 1 178 19 is_stmt 0 view .LVU53
 253 0030 041083E5 		str	r1, [r3, #4]	@ float
 254              		.loc 1 179 3 is_stmt 1 view .LVU54
 255              		.loc 1 179 17 is_stmt 0 view .LVU55
 256 0034 082083E5 		str	r2, [r3, #8]	@ float
 257              	.L15:
 258              		.loc 1 180 3 is_stmt 1 discriminator 1 view .LVU56
 259              		.loc 1 181 5 discriminator 1 view .LVU57
 260 0038 0510A0E1 		mov	r1, r5
 261 003c 0400A0E1 		mov	r0, r4
 262 0040 FEFFFFEB 		bl	chprintf
 263              	.LVL10:
 264              		.loc 1 182 5 discriminator 1 view .LVU58
 265 0044 FEFFFFEB 		bl	receiveSilentDt1
 266              	.LVL11:
 267              		.loc 1 183 5 discriminator 1 view .LVU59
 268 0048 FEFFFFEB 		bl	receiveSilentDt2
 269              	.LVL12:
 270              		.loc 1 180 9 discriminator 1 view .LVU60
 271 004c F9FFFFEA 		b	.L15
 272              	.L18:
 273              		.align	2
 274              	.L17:
 275 0050 00000000 		.word	rlist
 276 0054 00000000 		.word	.LC1
 277 0058 00000000 		.word	dt1
ARM GAS  /tmp/ccKm3UWo.s 			page 6


 278 005c C3F5A83E 		.word	1051260355
 279 0060 B81E1540 		.word	1075125944
 280 0064 CDCC0C3F 		.word	1057803469
 281 0068 20000000 		.word	.LC2
 282 006c 00000000 		.word	SD1
 283              		.cfi_endproc
 284              	.LFE14:
 285              		.size	Thread_I2C, .-Thread_I2C
 286              		.section	.rodata.printDataDt2.str1.4,"aMS",%progbits,1
 287              		.align	2
 288              	.LC3:
 289 0000 44743228 		.ascii	"Dt2(\000"
 289      00
 290 0005 000000   		.align	2
 291              	.LC4:
 292 0008 783D2566 		.ascii	"x=%f-\000"
 292      2D00
 293 000e 0000     		.align	2
 294              	.LC5:
 295 0010 2C20793D 		.ascii	", y=%f\000"
 295      256600
 296 0017 00       		.align	2
 297              	.LC6:
 298 0018 2C207A3D 		.ascii	", z=%f);\000"
 298      2566293B 
 298      00
 299 0021 000000   		.align	2
 300              	.LC7:
 301 0024 73697A65 		.ascii	"size=%d\012\000"
 301      3D25640A 
 301      00
 302 002d 000000   		.align	2
 303              	.LC8:
 304 0030 54696D65 		.ascii	"Timeout\012\000"
 304      6F75740A 
 304      00
 305 0039 000000   		.align	2
 306              	.LC9:
 307 003c 52656365 		.ascii	"Received Dt2\012\000"
 307      69766564 
 307      20447432 
 307      0A00
 308 004a 0000     		.align	2
 309              	.LC10:
 310 004c 52657365 		.ascii	"Reset: %d\012\000"
 310      743A2025 
 310      640A00
 311 0057 00       		.align	2
 312              	.LC11:
 313 0058 466C6167 		.ascii	"Flags: %d\012\000"
 313      733A2025 
 313      640A00
 314 0063 00       		.align	2
 315              	.LC12:
 316 0064 44656661 		.ascii	"Default, should not happen\000"
 316      756C742C 
 316      2073686F 
ARM GAS  /tmp/ccKm3UWo.s 			page 7


 316      756C6420 
 316      6E6F7420 
 317              		.section	.text.printDataDt2,"ax",%progbits
 318              		.align	2
 319              		.global	printDataDt2
 320              		.syntax unified
 321              		.arm
 322              		.fpu softvfp
 323              		.type	printDataDt2, %function
 324              	printDataDt2:
 325              	.LFB11:
 326              		.loc 1 102 25 view -0
 327              		.cfi_startproc
 328              		@ args = 0, pretend = 0, frame = 8
 329              		@ frame_needed = 0, uses_anonymous_args = 0
 330              		.loc 1 103 3 view .LVU62
 331              		.loc 1 102 25 is_stmt 0 view .LVU63
 332 0000 10402DE9 		push	{r4, lr}
 333              		.cfi_def_cfa_offset 8
 334              		.cfi_offset 4, -8
 335              		.cfi_offset 14, -4
 336              		.loc 1 104 54 view .LVU64
 337 0004 1C419FE5 		ldr	r4, .L28
 338              		.loc 1 102 25 view .LVU65
 339 0008 08D04DE2 		sub	sp, sp, #8
 340              		.cfi_def_cfa_offset 16
 341              		.loc 1 103 3 view .LVU66
 342 000c 18119FE5 		ldr	r1, .L28+4
 343 0010 18019FE5 		ldr	r0, .L28+8
 344 0014 FEFFFFEB 		bl	chprintf
 345              	.LVL13:
 346              		.loc 1 104 3 is_stmt 1 view .LVU67
 347 0018 000094E5 		ldr	r0, [r4]	@ float
 348 001c FEFFFFEB 		bl	__aeabi_f2d
 349              	.LVL14:
 350 0020 0020A0E1 		mov	r2, r0
 351 0024 0130A0E1 		mov	r3, r1
 352 0028 00019FE5 		ldr	r0, .L28+8
 353 002c 00119FE5 		ldr	r1, .L28+12
 354 0030 FEFFFFEB 		bl	chprintf
 355              	.LVL15:
 356              		.loc 1 105 3 view .LVU68
 357 0034 000094E5 		ldr	r0, [r4]	@ float
 358 0038 FEFFFFEB 		bl	display_float
 359              	.LVL16:
 360              		.loc 1 106 3 view .LVU69
 361 003c 040094E5 		ldr	r0, [r4, #4]	@ float
 362 0040 FEFFFFEB 		bl	__aeabi_f2d
 363              	.LVL17:
 364 0044 0020A0E1 		mov	r2, r0
 365 0048 0130A0E1 		mov	r3, r1
 366 004c DC009FE5 		ldr	r0, .L28+8
 367 0050 E0109FE5 		ldr	r1, .L28+16
 368 0054 FEFFFFEB 		bl	chprintf
 369              	.LVL18:
 370              		.loc 1 107 3 view .LVU70
 371 0058 080094E5 		ldr	r0, [r4, #8]	@ float
ARM GAS  /tmp/ccKm3UWo.s 			page 8


 372 005c FEFFFFEB 		bl	__aeabi_f2d
 373              	.LVL19:
 374 0060 0130A0E1 		mov	r3, r1
 375 0064 0020A0E1 		mov	r2, r0
 376 0068 CC109FE5 		ldr	r1, .L28+20
 377 006c BC009FE5 		ldr	r0, .L28+8
 378 0070 FEFFFFEB 		bl	chprintf
 379              	.LVL20:
 380              		.loc 1 108 3 view .LVU71
 381 0074 0C20A0E3 		mov	r2, #12
 382 0078 C0109FE5 		ldr	r1, .L28+24
 383 007c AC009FE5 		ldr	r0, .L28+8
 384 0080 FEFFFFEB 		bl	chprintf
 385              	.LVL21:
 386              		.loc 1 109 3 view .LVU72
 387 0084 B8309FE5 		ldr	r3, .L28+28
 388 0088 003093E5 		ldr	r3, [r3]
 389 008c 010073E3 		cmn	r3, #1
 390 0090 0800000A 		beq	.L20
 391 0094 000053E3 		cmp	r3, #0
 392 0098 1D00000A 		beq	.L21
 393 009c 020073E3 		cmn	r3, #2
 394 00a0 0900000A 		beq	.L27
 395              	.LBB2:
 396              		.loc 1 125 5 view .LVU73
 397 00a4 9C109FE5 		ldr	r1, .L28+32
 398 00a8 80009FE5 		ldr	r0, .L28+8
 399 00ac FEFFFFEB 		bl	chprintf
 400              	.LVL22:
 401              		.loc 1 126 5 view .LVU74
 402              	.LBE2:
 403              		.loc 1 129 1 is_stmt 0 view .LVU75
 404 00b0 08D08DE2 		add	sp, sp, #8
 405              		.cfi_remember_state
 406              		.cfi_def_cfa_offset 8
 407              		@ sp needed
 408 00b4 1080BDE8 		pop	{r4, pc}
 409              	.L20:
 410              		.cfi_restore_state
 411              	.LBB3:
 412              		.loc 1 111 5 is_stmt 1 view .LVU76
 413 00b8 8C109FE5 		ldr	r1, .L28+36
 414 00bc 6C009FE5 		ldr	r0, .L28+8
 415 00c0 FEFFFFEB 		bl	chprintf
 416              	.LVL23:
 417              		.loc 1 112 5 view .LVU77
 418              	.LBE3:
 419              		.loc 1 129 1 is_stmt 0 view .LVU78
 420 00c4 08D08DE2 		add	sp, sp, #8
 421              		.cfi_remember_state
 422              		.cfi_def_cfa_offset 8
 423              		@ sp needed
 424 00c8 1080BDE8 		pop	{r4, pc}
 425              	.L27:
 426              		.cfi_restore_state
 427              	.LBB4:
 428              		.loc 1 117 5 is_stmt 1 view .LVU79
ARM GAS  /tmp/ccKm3UWo.s 			page 9


 429 00cc 7C309FE5 		ldr	r3, .L28+40
 430 00d0 7C109FE5 		ldr	r1, .L28+44
 431 00d4 002093E5 		ldr	r2, [r3]
 432 00d8 50009FE5 		ldr	r0, .L28+8
 433 00dc FEFFFFEB 		bl	chprintf
 434              	.LVL24:
 435              		.loc 1 118 5 view .LVU80
 436              		.loc 1 118 27 is_stmt 0 view .LVU81
 437 00e0 70009FE5 		ldr	r0, .L28+48
 438 00e4 FEFFFFEB 		bl	i2cGetErrors
 439              	.LVL25:
 440              		.loc 1 119 5 view .LVU82
 441 00e8 6C109FE5 		ldr	r1, .L28+52
 442              		.loc 1 118 27 view .LVU83
 443 00ec 0020A0E1 		mov	r2, r0
 444              	.LVL26:
 445              		.loc 1 119 5 is_stmt 1 view .LVU84
 446 00f0 38009FE5 		ldr	r0, .L28+8
 447              	.LVL27:
 448              		.loc 1 119 5 is_stmt 0 view .LVU85
 449 00f4 FEFFFFEB 		bl	chprintf
 450              	.LVL28:
 451              		.loc 1 120 5 is_stmt 1 view .LVU86
 452              		.loc 1 121 5 view .LVU87
 453 00f8 58009FE5 		ldr	r0, .L28+48
 454 00fc FEFFFFEB 		bl	i2cStop
 455              	.LVL29:
 456              		.loc 1 122 5 view .LVU88
 457 0100 50009FE5 		ldr	r0, .L28+48
 458 0104 04108DE2 		add	r1, sp, #4
 459 0108 FEFFFFEB 		bl	i2cStart
 460              	.LVL30:
 461              		.loc 1 123 5 view .LVU89
 462              	.LBE4:
 463              		.loc 1 129 1 is_stmt 0 view .LVU90
 464 010c 08D08DE2 		add	sp, sp, #8
 465              		.cfi_remember_state
 466              		.cfi_def_cfa_offset 8
 467              		@ sp needed
 468 0110 1080BDE8 		pop	{r4, pc}
 469              	.L21:
 470              		.cfi_restore_state
 471              	.LBB5:
 472              		.loc 1 114 5 is_stmt 1 view .LVU91
 473 0114 44109FE5 		ldr	r1, .L28+56
 474 0118 10009FE5 		ldr	r0, .L28+8
 475 011c FEFFFFEB 		bl	chprintf
 476              	.LVL31:
 477              		.loc 1 115 5 view .LVU92
 478              	.LBE5:
 479              		.loc 1 129 1 is_stmt 0 view .LVU93
 480 0120 08D08DE2 		add	sp, sp, #8
 481              		.cfi_def_cfa_offset 8
 482              		@ sp needed
 483 0124 1080BDE8 		pop	{r4, pc}
 484              	.L29:
 485              		.align	2
ARM GAS  /tmp/ccKm3UWo.s 			page 10


 486              	.L28:
 487 0128 00000000 		.word	dt2
 488 012c 00000000 		.word	.LC3
 489 0130 00000000 		.word	SD1
 490 0134 08000000 		.word	.LC4
 491 0138 10000000 		.word	.LC5
 492 013c 18000000 		.word	.LC6
 493 0140 24000000 		.word	.LC7
 494 0144 00000000 		.word	msgDt2
 495 0148 64000000 		.word	.LC12
 496 014c 30000000 		.word	.LC8
 497 0150 00000000 		.word	msgDt1
 498 0154 4C000000 		.word	.LC10
 499 0158 00000000 		.word	I2C0
 500 015c 58000000 		.word	.LC11
 501 0160 3C000000 		.word	.LC9
 502              		.cfi_endproc
 503              	.LFE11:
 504              		.size	printDataDt2, .-printDataDt2
 505              		.section	.rodata.printDataDt1.str1.4,"aMS",%progbits,1
 506              		.align	2
 507              	.LC13:
 508 0000 44743128 		.ascii	"Dt1(\000"
 508      00
 509 0005 000000   		.align	2
 510              	.LC14:
 511 0008 68756D69 		.ascii	"humidity=\000"
 511      64697479 
 511      3D00
 512 0012 0000     		.align	2
 513              	.LC15:
 514 0014 2C207465 		.ascii	", temp=%f\000"
 514      6D703D25 
 514      6600
 515 001e 0000     		.align	2
 516              	.LC16:
 517 0020 2C206865 		.ascii	", heatI=%f);\000"
 517      6174493D 
 517      2566293B 
 517      00
 518 002d 000000   		.align	2
 519              	.LC17:
 520 0030 52656365 		.ascii	"Received Dt1\012\000"
 520      69766564 
 520      20447431 
 520      0A00
 521              		.section	.text.printDataDt1,"ax",%progbits
 522              		.align	2
 523              		.global	printDataDt1
 524              		.syntax unified
 525              		.arm
 526              		.fpu softvfp
 527              		.type	printDataDt1, %function
 528              	printDataDt1:
 529              	.LFB12:
 530              		.loc 1 130 25 is_stmt 1 view -0
 531              		.cfi_startproc
ARM GAS  /tmp/ccKm3UWo.s 			page 11


 532              		@ args = 0, pretend = 0, frame = 8
 533              		@ frame_needed = 0, uses_anonymous_args = 0
 534              		.loc 1 131 3 view .LVU95
 535              		.loc 1 130 25 is_stmt 0 view .LVU96
 536 0000 10402DE9 		push	{r4, lr}
 537              		.cfi_def_cfa_offset 8
 538              		.cfi_offset 4, -8
 539              		.cfi_offset 14, -4
 540              		.loc 1 131 3 view .LVU97
 541 0004 18119FE5 		ldr	r1, .L39
 542              		.loc 1 130 25 view .LVU98
 543 0008 08D04DE2 		sub	sp, sp, #8
 544              		.cfi_def_cfa_offset 16
 545              		.loc 1 133 51 view .LVU99
 546 000c 14419FE5 		ldr	r4, .L39+4
 547              		.loc 1 131 3 view .LVU100
 548 0010 14019FE5 		ldr	r0, .L39+8
 549 0014 FEFFFFEB 		bl	chprintf
 550              	.LVL32:
 551              		.loc 1 132 3 is_stmt 1 view .LVU101
 552 0018 10119FE5 		ldr	r1, .L39+12
 553 001c 08019FE5 		ldr	r0, .L39+8
 554 0020 FEFFFFEB 		bl	chprintf
 555              	.LVL33:
 556              		.loc 1 133 3 view .LVU102
 557 0024 000094E5 		ldr	r0, [r4]	@ float
 558 0028 FEFFFFEB 		bl	__aeabi_f2d
 559              	.LVL34:
 560 002c 0020A0E1 		mov	r2, r0
 561 0030 0130A0E1 		mov	r3, r1
 562 0034 F0009FE5 		ldr	r0, .L39+8
 563 0038 F4109FE5 		ldr	r1, .L39+16
 564 003c FEFFFFEB 		bl	chprintf
 565              	.LVL35:
 566              		.loc 1 134 3 view .LVU103
 567 0040 040094E5 		ldr	r0, [r4, #4]	@ float
 568 0044 FEFFFFEB 		bl	__aeabi_f2d
 569              	.LVL36:
 570 0048 0020A0E1 		mov	r2, r0
 571 004c 0130A0E1 		mov	r3, r1
 572 0050 D4009FE5 		ldr	r0, .L39+8
 573 0054 DC109FE5 		ldr	r1, .L39+20
 574 0058 FEFFFFEB 		bl	chprintf
 575              	.LVL37:
 576              		.loc 1 135 3 view .LVU104
 577 005c 080094E5 		ldr	r0, [r4, #8]	@ float
 578 0060 FEFFFFEB 		bl	__aeabi_f2d
 579              	.LVL38:
 580 0064 0130A0E1 		mov	r3, r1
 581 0068 0020A0E1 		mov	r2, r0
 582 006c C8109FE5 		ldr	r1, .L39+24
 583 0070 B4009FE5 		ldr	r0, .L39+8
 584 0074 FEFFFFEB 		bl	chprintf
 585              	.LVL39:
 586              		.loc 1 136 3 view .LVU105
 587 0078 0C20A0E3 		mov	r2, #12
 588 007c BC109FE5 		ldr	r1, .L39+28
ARM GAS  /tmp/ccKm3UWo.s 			page 12


 589 0080 A4009FE5 		ldr	r0, .L39+8
 590 0084 FEFFFFEB 		bl	chprintf
 591              	.LVL40:
 592              		.loc 1 137 3 view .LVU106
 593 0088 B4309FE5 		ldr	r3, .L39+32
 594 008c 002093E5 		ldr	r2, [r3]
 595 0090 010072E3 		cmn	r2, #1
 596 0094 0800000A 		beq	.L31
 597 0098 000052E3 		cmp	r2, #0
 598 009c 1B00000A 		beq	.L32
 599 00a0 020072E3 		cmn	r2, #2
 600 00a4 0900000A 		beq	.L38
 601              	.LBB6:
 602              		.loc 1 153 5 view .LVU107
 603 00a8 98109FE5 		ldr	r1, .L39+36
 604 00ac 78009FE5 		ldr	r0, .L39+8
 605 00b0 FEFFFFEB 		bl	chprintf
 606              	.LVL41:
 607              		.loc 1 154 5 view .LVU108
 608              	.LBE6:
 609              		.loc 1 157 1 is_stmt 0 view .LVU109
 610 00b4 08D08DE2 		add	sp, sp, #8
 611              		.cfi_remember_state
 612              		.cfi_def_cfa_offset 8
 613              		@ sp needed
 614 00b8 1080BDE8 		pop	{r4, pc}
 615              	.L31:
 616              		.cfi_restore_state
 617              	.LBB7:
 618              		.loc 1 139 5 is_stmt 1 view .LVU110
 619 00bc 88109FE5 		ldr	r1, .L39+40
 620 00c0 64009FE5 		ldr	r0, .L39+8
 621 00c4 FEFFFFEB 		bl	chprintf
 622              	.LVL42:
 623              		.loc 1 140 5 view .LVU111
 624              	.LBE7:
 625              		.loc 1 157 1 is_stmt 0 view .LVU112
 626 00c8 08D08DE2 		add	sp, sp, #8
 627              		.cfi_remember_state
 628              		.cfi_def_cfa_offset 8
 629              		@ sp needed
 630 00cc 1080BDE8 		pop	{r4, pc}
 631              	.L38:
 632              		.cfi_restore_state
 633              	.LBB8:
 634              		.loc 1 145 5 is_stmt 1 view .LVU113
 635 00d0 78109FE5 		ldr	r1, .L39+44
 636 00d4 50009FE5 		ldr	r0, .L39+8
 637 00d8 FEFFFFEB 		bl	chprintf
 638              	.LVL43:
 639              		.loc 1 146 5 view .LVU114
 640              		.loc 1 146 27 is_stmt 0 view .LVU115
 641 00dc 70009FE5 		ldr	r0, .L39+48
 642 00e0 FEFFFFEB 		bl	i2cGetErrors
 643              	.LVL44:
 644              		.loc 1 147 5 view .LVU116
 645 00e4 6C109FE5 		ldr	r1, .L39+52
ARM GAS  /tmp/ccKm3UWo.s 			page 13


 646              		.loc 1 146 27 view .LVU117
 647 00e8 0020A0E1 		mov	r2, r0
 648              	.LVL45:
 649              		.loc 1 147 5 is_stmt 1 view .LVU118
 650 00ec 38009FE5 		ldr	r0, .L39+8
 651              	.LVL46:
 652              		.loc 1 147 5 is_stmt 0 view .LVU119
 653 00f0 FEFFFFEB 		bl	chprintf
 654              	.LVL47:
 655              		.loc 1 148 5 is_stmt 1 view .LVU120
 656              		.loc 1 149 5 view .LVU121
 657 00f4 58009FE5 		ldr	r0, .L39+48
 658 00f8 FEFFFFEB 		bl	i2cStop
 659              	.LVL48:
 660              		.loc 1 150 5 view .LVU122
 661 00fc 50009FE5 		ldr	r0, .L39+48
 662 0100 04108DE2 		add	r1, sp, #4
 663 0104 FEFFFFEB 		bl	i2cStart
 664              	.LVL49:
 665              		.loc 1 151 5 view .LVU123
 666              	.LBE8:
 667              		.loc 1 157 1 is_stmt 0 view .LVU124
 668 0108 08D08DE2 		add	sp, sp, #8
 669              		.cfi_remember_state
 670              		.cfi_def_cfa_offset 8
 671              		@ sp needed
 672 010c 1080BDE8 		pop	{r4, pc}
 673              	.L32:
 674              		.cfi_restore_state
 675              	.LBB9:
 676              		.loc 1 142 5 is_stmt 1 view .LVU125
 677 0110 44109FE5 		ldr	r1, .L39+56
 678 0114 10009FE5 		ldr	r0, .L39+8
 679 0118 FEFFFFEB 		bl	chprintf
 680              	.LVL50:
 681              		.loc 1 143 5 view .LVU126
 682              	.LBE9:
 683              		.loc 1 157 1 is_stmt 0 view .LVU127
 684 011c 08D08DE2 		add	sp, sp, #8
 685              		.cfi_def_cfa_offset 8
 686              		@ sp needed
 687 0120 1080BDE8 		pop	{r4, pc}
 688              	.L40:
 689              		.align	2
 690              	.L39:
 691 0124 00000000 		.word	.LC13
 692 0128 00000000 		.word	dt1
 693 012c 00000000 		.word	SD1
 694 0130 08000000 		.word	.LC14
 695 0134 00000000 		.word	.LC0
 696 0138 14000000 		.word	.LC15
 697 013c 20000000 		.word	.LC16
 698 0140 24000000 		.word	.LC7
 699 0144 00000000 		.word	msgDt1
 700 0148 64000000 		.word	.LC12
 701 014c 30000000 		.word	.LC8
 702 0150 4C000000 		.word	.LC10
ARM GAS  /tmp/ccKm3UWo.s 			page 14


 703 0154 00000000 		.word	I2C0
 704 0158 58000000 		.word	.LC11
 705 015c 30000000 		.word	.LC17
 706              		.cfi_endproc
 707              	.LFE12:
 708              		.size	printDataDt1, .-printDataDt1
 709              		.section	.rodata.Thread_LED1.str1.4,"aMS",%progbits,1
 710              		.align	2
 711              	.LC18:
 712 0000 626C696E 		.ascii	"blinker-1\000"
 712      6B65722D 
 712      3100
 713              		.section	.text.Thread_LED1,"ax",%progbits
 714              		.align	2
 715              		.syntax unified
 716              		.arm
 717              		.fpu softvfp
 718              		.type	Thread_LED1, %function
 719              	Thread_LED1:
 720              	.LVL51:
 721              	.LFB8:
 722              		.loc 1 72 35 is_stmt 1 view -0
 723              		.cfi_startproc
 724              		@ Volatile: function does not return.
 725              		@ args = 0, pretend = 0, frame = 0
 726              		@ frame_needed = 0, uses_anonymous_args = 0
 727              		.loc 1 73 3 view .LVU129
 728              		.loc 1 74 3 view .LVU130
 729              		.loc 1 72 35 is_stmt 0 view .LVU131
 730 0000 10402DE9 		push	{r4, lr}
 731              		.cfi_def_cfa_offset 8
 732              		.cfi_offset 4, -8
 733              		.cfi_offset 14, -4
 734 0004 4C409FE5 		ldr	r4, .L44
 735              		.loc 1 74 3 view .LVU132
 736 0008 4C309FE5 		ldr	r3, .L44+4
 737              		.loc 1 76 5 view .LVU133
 738 000c 0450A0E1 		mov	r5, r4
 739              		.loc 1 74 3 view .LVU134
 740 0010 183093E5 		ldr	r3, [r3, #24]
 741 0014 44209FE5 		ldr	r2, .L44+8
 742 0018 182083E5 		str	r2, [r3, #24]
 743              	.LVL52:
 744              	.L42:
 745              		.loc 1 75 3 is_stmt 1 discriminator 1 view .LVU135
 746              		.loc 1 76 5 discriminator 1 view .LVU136
 747 001c 001094E5 		ldr	r1, [r4]
 748 0020 0500A0E1 		mov	r0, r5
 749 0024 0214C1E3 		bic	r1, r1, #33554432
 750 0028 FEFFFFEB 		bl	_pal_lld_writeport
 751              	.LVL53:
 752              		.loc 1 77 5 discriminator 1 view .LVU137
 753 002c FA0FA0E3 		mov	r0, #1000
 754 0030 FEFFFFEB 		bl	chThdSleep
 755              	.LVL54:
 756              		.loc 1 78 5 discriminator 1 view .LVU138
 757 0034 001094E5 		ldr	r1, [r4]
ARM GAS  /tmp/ccKm3UWo.s 			page 15


 758 0038 0500A0E1 		mov	r0, r5
 759 003c 021481E3 		orr	r1, r1, #33554432
 760 0040 FEFFFFEB 		bl	_pal_lld_writeport
 761              	.LVL55:
 762              		.loc 1 79 5 discriminator 1 view .LVU139
 763 0044 FA0FA0E3 		mov	r0, #1000
 764 0048 FEFFFFEB 		bl	chThdSleep
 765              	.LVL56:
 766              		.loc 1 80 5 discriminator 1 view .LVU140
 767 004c FEFFFFEB 		bl	printDataDt1
 768              	.LVL57:
 769              		.loc 1 81 5 discriminator 1 view .LVU141
 770 0050 FEFFFFEB 		bl	printDataDt2
 771              	.LVL58:
 772              		.loc 1 75 9 discriminator 1 view .LVU142
 773 0054 F0FFFFEA 		b	.L42
 774              	.L45:
 775              		.align	2
 776              	.L44:
 777 0058 00000000 		.word	IOPORT0
 778 005c 00000000 		.word	rlist
 779 0060 00000000 		.word	.LC18
 780              		.cfi_endproc
 781              	.LFE8:
 782              		.size	Thread_LED1, .-Thread_LED1
 783              		.section	.rodata.receiveSilently12Chars.str1.4,"aMS",%progbits,1
 784              		.align	2
 785              	.LC20:
 786 0000 6465623D 		.ascii	"deb=%s\000"
 786      257300
 787 0007 00       		.align	2
 788              	.LC19:
 789 0008 61736466 		.ascii	"asdfqwerzxcv\000"
 789      71776572 
 789      7A786376 
 789      00
 790              		.section	.text.receiveSilently12Chars,"ax",%progbits
 791              		.align	2
 792              		.global	receiveSilently12Chars
 793              		.syntax unified
 794              		.arm
 795              		.fpu softvfp
 796              		.type	receiveSilently12Chars, %function
 797              	receiveSilently12Chars:
 798              	.LFB13:
 799              		.loc 1 159 35 view -0
 800              		.cfi_startproc
 801              		@ args = 0, pretend = 0, frame = 16
 802              		@ frame_needed = 0, uses_anonymous_args = 0
 803              		.loc 1 160 3 view .LVU144
 804              		.loc 1 159 35 is_stmt 0 view .LVU145
 805 0000 04E02DE5 		str	lr, [sp, #-4]!
 806              		.cfi_def_cfa_offset 4
 807              		.cfi_offset 14, -4
 808              		.loc 1 161 12 view .LVU146
 809 0004 FAEFA0E3 		mov	lr, #1000
 810              		.loc 1 159 35 view .LVU147
ARM GAS  /tmp/ccKm3UWo.s 			page 16


 811 0008 1CD04DE2 		sub	sp, sp, #28
 812              		.cfi_def_cfa_offset 32
 813              		.loc 1 160 8 view .LVU148
 814 000c 58309FE5 		ldr	r3, .L48
 815 0010 08C08DE2 		add	ip, sp, #8
 816 0014 0F0093E8 		ldm	r3, {r0, r1, r2, r3}
 817 0018 0700ACE8 		stmia	ip!, {r0, r1, r2}
 818              		.loc 1 161 12 view .LVU149
 819 001c 0410A0E3 		mov	r1, #4
 820              		.loc 1 160 8 view .LVU150
 821 0020 0030CCE5 		strb	r3, [ip]
 822              		.loc 1 161 3 is_stmt 1 view .LVU151
 823              		.loc 1 161 12 is_stmt 0 view .LVU152
 824 0024 08208DE2 		add	r2, sp, #8
 825 0028 00E08DE5 		str	lr, [sp]
 826 002c 0C30A0E3 		mov	r3, #12
 827 0030 38009FE5 		ldr	r0, .L48+4
 828 0034 FEFFFFEB 		bl	i2cMasterReceiveTimeout
 829              	.LVL59:
 830 0038 0020A0E1 		mov	r2, r0
 831              		.loc 1 161 10 view .LVU153
 832 003c 30309FE5 		ldr	r3, .L48+8
 833              		.loc 1 163 3 view .LVU154
 834 0040 7D0FA0E3 		mov	r0, #500
 835              		.loc 1 161 10 view .LVU155
 836 0044 002083E5 		str	r2, [r3]
 837              		.loc 1 163 3 is_stmt 1 view .LVU156
 838 0048 FEFFFFEB 		bl	chThdSleep
 839              	.LVL60:
 840              		.loc 1 164 3 view .LVU157
 841 004c 24109FE5 		ldr	r1, .L48+12
 842 0050 08208DE2 		add	r2, sp, #8
 843 0054 20009FE5 		ldr	r0, .L48+16
 844 0058 FEFFFFEB 		bl	chprintf
 845              	.LVL61:
 846              		.loc 1 165 3 view .LVU158
 847 005c 1C009FE5 		ldr	r0, .L48+20
 848 0060 FEFFFFEB 		bl	chThdSleep
 849              	.LVL62:
 850              		.loc 1 167 1 is_stmt 0 view .LVU159
 851 0064 1CD08DE2 		add	sp, sp, #28
 852              		.cfi_def_cfa_offset 4
 853              		@ sp needed
 854 0068 04F09DE4 		ldr	pc, [sp], #4
 855              	.L49:
 856              		.align	2
 857              	.L48:
 858 006c 08000000 		.word	.LC19
 859 0070 00000000 		.word	I2C0
 860 0074 00000000 		.word	msgDt1
 861 0078 00000000 		.word	.LC20
 862 007c 00000000 		.word	SD1
 863 0080 B80B0000 		.word	3000
 864              		.cfi_endproc
 865              	.LFE13:
 866              		.size	receiveSilently12Chars, .-receiveSilently12Chars
 867              		.section	.text.startup.main,"ax",%progbits
ARM GAS  /tmp/ccKm3UWo.s 			page 17


 868              		.align	2
 869              		.global	main
 870              		.syntax unified
 871              		.arm
 872              		.fpu softvfp
 873              		.type	main, %function
 874              	main:
 875              	.LFB15:
 876              		.loc 1 192 16 is_stmt 1 view -0
 877              		.cfi_startproc
 878              		@ args = 0, pretend = 0, frame = 8
 879              		@ frame_needed = 0, uses_anonymous_args = 0
 880              		.loc 1 193 3 view .LVU161
 881              		.loc 1 192 16 is_stmt 0 view .LVU162
 882 0000 10402DE9 		push	{r4, lr}
 883              		.cfi_def_cfa_offset 8
 884              		.cfi_offset 4, -8
 885              		.cfi_offset 14, -4
 886              		.loc 1 205 3 view .LVU163
 887 0004 0040A0E3 		mov	r4, #0
 888              		.loc 1 192 16 view .LVU164
 889 0008 10D04DE2 		sub	sp, sp, #16
 890              		.cfi_def_cfa_offset 24
 891              		.loc 1 193 3 view .LVU165
 892 000c FEFFFFEB 		bl	halInit
 893              	.LVL63:
 894              		.loc 1 194 3 is_stmt 1 view .LVU166
 895 0010 FEFFFFEB 		bl	chSysInit
 896              	.LVL64:
 897              		.loc 1 196 3 view .LVU167
 898 0014 FF20A0E3 		mov	r2, #255
 899 0018 0214A0E3 		mov	r1, #33554432
 900 001c 60009FE5 		ldr	r0, .L52
 901 0020 FEFFFFEB 		bl	_pal_lld_setgroupmode
 902              	.LVL65:
 903              		.loc 1 198 3 view .LVU168
 904 0024 0410A0E1 		mov	r1, r4
 905 0028 58009FE5 		ldr	r0, .L52+4
 906 002c FEFFFFEB 		bl	sdStart
 907              	.LVL66:
 908              		.loc 1 202 3 view .LVU169
 909              		.loc 1 203 3 view .LVU170
 910 0030 0C108DE2 		add	r1, sp, #12
 911 0034 50009FE5 		ldr	r0, .L52+8
 912 0038 FEFFFFEB 		bl	i2cStart
 913              	.LVL67:
 914              		.loc 1 205 3 view .LVU171
 915 003c 7F20A0E3 		mov	r2, #127
 916 0040 461FA0E3 		mov	r1, #280
 917 0044 44309FE5 		ldr	r3, .L52+12
 918 0048 00408DE5 		str	r4, [sp]
 919 004c 40009FE5 		ldr	r0, .L52+16
 920 0050 FEFFFFEB 		bl	chThdCreateStatic
 921              	.LVL68:
 922              		.loc 1 208 3 view .LVU172
 923 0054 FF20A0E3 		mov	r2, #255
 924 0058 661FA0E3 		mov	r1, #408
ARM GAS  /tmp/ccKm3UWo.s 			page 18


 925 005c 34309FE5 		ldr	r3, .L52+20
 926 0060 00408DE5 		str	r4, [sp]
 927 0064 30009FE5 		ldr	r0, .L52+24
 928 0068 FEFFFFEB 		bl	chThdCreateStatic
 929              	.LVL69:
 930              		.loc 1 211 3 view .LVU173
 931 006c 2C309FE5 		ldr	r3, .L52+28
 932 0070 180093E5 		ldr	r0, [r3, #24]
 933 0074 FEFFFFEB 		bl	chThdWait
 934              	.LVL70:
 935              		.loc 1 213 3 view .LVU174
 936              		.loc 1 214 1 is_stmt 0 view .LVU175
 937 0078 0400A0E1 		mov	r0, r4
 938 007c 10D08DE2 		add	sp, sp, #16
 939              		.cfi_def_cfa_offset 8
 940              		@ sp needed
 941 0080 1080BDE8 		pop	{r4, pc}
 942              	.L53:
 943              		.align	2
 944              	.L52:
 945 0084 00000000 		.word	IOPORT0
 946 0088 00000000 		.word	SD1
 947 008c 00000000 		.word	I2C0
 948 0090 00000000 		.word	Thread_LED1
 949 0094 00000000 		.word	.LANCHOR0
 950 0098 00000000 		.word	Thread_I2C
 951 009c 00000000 		.word	.LANCHOR1
 952 00a0 00000000 		.word	rlist
 953              		.cfi_endproc
 954              	.LFE15:
 955              		.size	main, .-main
 956              		.comm	msgDt1,4,4
 957              		.comm	dt1,12,4
 958              		.comm	msgDt2,4,4
 959              		.comm	dt2,12,4
 960              		.section	.bss.waThread_I2C,"aw",%nobits
 961              		.align	2
 962              		.set	.LANCHOR1,. + 0
 963              		.type	waThread_I2C, %object
 964              		.size	waThread_I2C, 408
 965              	waThread_I2C:
 966 0000 00000000 		.space	408
 966      00000000 
 966      00000000 
 966      00000000 
 966      00000000 
 967              		.section	.bss.waThread_LED1,"aw",%nobits
 968              		.align	2
 969              		.set	.LANCHOR0,. + 0
 970              		.type	waThread_LED1, %object
 971              		.size	waThread_LED1, 280
 972              	waThread_LED1:
 973 0000 00000000 		.space	280
 973      00000000 
 973      00000000 
 973      00000000 
 973      00000000 
ARM GAS  /tmp/ccKm3UWo.s 			page 19


 974              		.text
 975              	.Letext0:
 976              		.file 2 "/usr/lib/gcc/arm-none-eabi/9.2.1/include/stddef.h"
 977              		.file 3 "/usr/lib/gcc/arm-none-eabi/9.2.1/include/stdint.h"
 978              		.file 4 "../../os/ports/GCC/ARM/chtypes.h"
 979              		.file 5 "../../os/kernel/include/chlists.h"
 980              		.file 6 "../../os/kernel/include/chthreads.h"
 981              		.file 7 "../../os/ports/GCC/ARM/chcore.h"
 982              		.file 8 "../../os/kernel/include/chvt.h"
 983              		.file 9 "../../os/kernel/include/chschd.h"
 984              		.file 10 "../../os/kernel/include/chmtx.h"
 985              		.file 11 "../../os/kernel/include/chevents.h"
 986              		.file 12 "../../os/kernel/include/chregistry.h"
 987              		.file 13 "../../os/kernel/include/chqueues.h"
 988              		.file 14 "../../os/kernel/include/chstreams.h"
 989              		.file 15 "../../os/kernel/include/ch.h"
 990              		.file 16 "../../os/hal/platforms/BCM2835/bcm2835.h"
 991              		.file 17 "../../os/hal/platforms/BCM2835/pal_lld.h"
 992              		.file 18 "../../os/hal/include/i2c.h"
 993              		.file 19 "../../os/hal/platforms/BCM2835/i2c_lld.h"
 994              		.file 20 "../../os/hal/include/serial.h"
 995              		.file 21 "../../os/hal/include/spi.h"
 996              		.file 22 "../../os/hal/platforms/BCM2835/spi_lld.h"
 997              		.file 23 "../../os/hal/platforms/BCM2835/serial_lld.h"
 998              		.file 24 "../../os/hal/include/hal.h"
 999              		.file 25 "../../os/kernel/include/chsys.h"
 1000              		.file 26 "../../os/various/chprintf.h"