
build/ch.elf:     file format elf32-littlearm
build/ch.elf
architecture: armv6kz, flags 0x00000112:
EXEC_P, HAS_SYMS, D_PAGED
start address 0x00008000

Program Header:
    LOAD off    0x00000000 vaddr 0x00000000 paddr 0x00000000 align 2**16
         filesz 0x00009ddc memsz 0x0000a19c flags rwx
private flags = 5000200: [Version5 EABI] [soft-float ABI]

Sections:
Idx Name          Size      VMA       LMA       File off  Algn
  0 .text         00001ddc  00008000  00008000  00008000  2**4
                  CONTENTS, ALLOC, LOAD, READONLY, CODE
  1 .data         00000000  00009ddc  00009ddc  00009ddc  2**0
                  CONTENTS, ALLOC, LOAD, DATA
  2 .bss          000003c0  00009ddc  00009ddc  00009ddc  2**2
                  ALLOC
  3 .ARM.attributes 0000002b  00000000  00000000  00009ddc  2**0
                  CONTENTS, READONLY
  4 .comment      00000076  00000000  00000000  00009e07  2**0
                  CONTENTS, READONLY
  5 .debug_info   0001429e  00000000  00000000  00009e7d  2**0
                  CONTENTS, READONLY, DEBUGGING
  6 .debug_abbrev 00003a0c  00000000  00000000  0001e11b  2**0
                  CONTENTS, READONLY, DEBUGGING
  7 .debug_loc    00003e3c  00000000  00000000  00021b27  2**0
                  CONTENTS, READONLY, DEBUGGING
  8 .debug_aranges 00000798  00000000  00000000  00025963  2**0
                  CONTENTS, READONLY, DEBUGGING
  9 .debug_ranges 00000ca8  00000000  00000000  000260fb  2**0
                  CONTENTS, READONLY, DEBUGGING
 10 .debug_line   00007557  00000000  00000000  00026da3  2**0
                  CONTENTS, READONLY, DEBUGGING
 11 .debug_str    000016ba  00000000  00000000  0002e2fa  2**0
                  CONTENTS, READONLY, DEBUGGING
 12 .debug_frame  00001298  00000000  00000000  0002f9b4  2**2
                  CONTENTS, READONLY, DEBUGGING
SYMBOL TABLE:
00008000 l    d  .text	00000000 .text
00009ddc l    d  .data	00000000 .data
00009ddc l    d  .bss	00000000 .bss
00000000 l    d  .ARM.attributes	00000000 .ARM.attributes
00000000 l    d  .comment	00000000 .comment
00000000 l    d  .debug_info	00000000 .debug_info
00000000 l    d  .debug_abbrev	00000000 .debug_abbrev
00000000 l    d  .debug_loc	00000000 .debug_loc
00000000 l    d  .debug_aranges	00000000 .debug_aranges
00000000 l    d  .debug_ranges	00000000 .debug_ranges
00000000 l    d  .debug_line	00000000 .debug_line
00000000 l    d  .debug_str	00000000 .debug_str
00000000 l    d  .debug_frame	00000000 .debug_frame
00000000 l    df *ABS*	00000000 build/obj/vectors.o
00008000 l       .text	00000000 _start
00008020 l       .text	00000000 _reset
00008024 l       .text	00000000 _undefined
00008028 l       .text	00000000 _swi
0000802c l       .text	00000000 _prefetch
00008030 l       .text	00000000 _abort
00008038 l       .text	00000000 _irq
0000803c l       .text	00000000 _fiq
00000000 l    df *ABS*	00000000 build/obj/crt0.o
00000010 l       *ABS*	00000000 MODE_USR
00000011 l       *ABS*	00000000 MODE_FIQ
00000012 l       *ABS*	00000000 MODE_IRQ
00000013 l       *ABS*	00000000 MODE_SVC
00000017 l       *ABS*	00000000 MODE_ABT
0000001b l       *ABS*	00000000 MODE_UND
0000001f l       *ABS*	00000000 MODE_SYS
00000080 l       *ABS*	00000000 I_BIT
00000040 l       *ABS*	00000000 F_BIT
000080ac l       .text	00000000 bssloop
000080c0 l       .text	00000000 .loop
000080c4 l       .text	00000000 hwinit0
00000000 l    df *ABS*	00000000 build/obj/chcoreasm.o
00000010 l       *ABS*	00000000 MODE_USR
00000011 l       *ABS*	00000000 MODE_FIQ
00000012 l       *ABS*	00000000 MODE_IRQ
00000013 l       *ABS*	00000000 MODE_SVC
00000017 l       *ABS*	00000000 MODE_ABT
0000001b l       *ABS*	00000000 MODE_UND
0000001f l       *ABS*	00000000 MODE_SYS
00000080 l       *ABS*	00000000 I_BIT
00000040 l       *ABS*	00000000 F_BIT
00000000 l    df *ABS*	00000000 chsys.c
00009ddc l     O .bss	00000044 mainthread.4815
00000000 l    df *ABS*	00000000 chvt.c
00000000 l    df *ABS*	00000000 chschd.c
000083c0 l     F .text	000000b0 wakeup
00000000 l    df *ABS*	00000000 chthreads.c
00000000 l    df *ABS*	00000000 chdynamic.c
00000000 l    df *ABS*	00000000 chmtx.c
00000000 l    df *ABS*	00000000 chevents.c
00000000 l    df *ABS*	00000000 chqueues.c
00008c30 l     F .text	0000003c qwait
00000000 l    df *ABS*	00000000 chmemcore.c
00009e20 l     O .bss	00000004 endmem
00009e24 l     O .bss	00000004 nextmem
00000000 l    df *ABS*	00000000 chheap.c
00009e28 l     O .bss	0000001c default_heap
00000000 l    df *ABS*	00000000 hal.c
00000000 l    df *ABS*	00000000 i2c.c
00000000 l    df *ABS*	00000000 serial.c
00009250 l     F .text	00000008 readt
00009260 l     F .text	0000000c read
00009270 l     F .text	00000008 writet
00009280 l     F .text	0000000c write
00009290 l     F .text	00000008 gett
000092a0 l     F .text	0000000c get
000092b0 l     F .text	00000008 putt
000092c0 l     F .text	0000000c put
00009db0 l     O .text	00000020 vmt
00000000 l    df *ABS*	00000000 spi.c
00000000 l    df *ABS*	00000000 tm.c
00009400 l     F .text	00000014 tm_start
00009420 l     F .text	0000004c tm_stop
00009e44 l     O .bss	00000004 measurement_offset
00000000 l    df *ABS*	00000000 hal_lld.c
00000000 l    df *ABS*	00000000 pal_lld.c
00009570 l     F .text	00000040 set_gpio_in.isra.0
000095b0 l     F .text	00000044 set_gpio_pud.isra.1
00000000 l    df *ABS*	00000000 serial_lld.c
00009790 l     F .text	00000018 output_notify
00000000 l    df *ABS*	00000000 i2c_lld.c
00000000 l    df *ABS*	00000000 spi_lld.c
00000000 l    df *ABS*	00000000 bcm2835.c
00000000 l    df *ABS*	00000000 board.c
00000000 l    df *ABS*	00000000 main.c
00009c20 l     F .text	00000038 led_set
00009c60 l     F .text	00000038 led_clear
00009ca0 l     F .text	00000050 evaluator
00009e48 l     O .bss	00000014 led_vt1
00009e5c l     O .bss	00000014 led_vt2
00009e70 l     O .bss	00000118 waThread1
00000000 l    df *ABS*	00000000 chregistry.c
00009dd0 g     O .text	00000000 pal_default_config
00008260 g     F .text	00000080 chSysTimerHandlerI
00008890 g     F .text	00000008 chThdExit
00008bf0 g     F .text	00000040 chEvtBroadcastFlagsI
00008530 g     F .text	00000074 chSchGoSleepTimeoutS
00009220 g     F .text	00000004 i2cInit
00008960 g     F .text	00000180 chMtxLockS
00009130 g     F .text	000000b8 chHeapFree
000099f0 g     F .text	0000017c spi_lld_serve_interrupt
00009770 g     F .text	0000001c _pal_lld_writeport
000081b0 g       .text	00000000 get_cpsr
00009ddc g       .text	00000000 __exidx_end
000084f0 g     F .text	0000003c chSchGoSleepS
00008180  w      .text	00000000 UndHandler
0000a19c g       *ABS*	00000000 __heap_base__
0000a0f4 g     O .bss	00000040 I2C1
0000a134 g     O .bss	00000040 I2C0
00009ddc g       .text	00000000 _etext
0000a050 g     O .bss	00000018 IOPORT1
0000049c g       *ABS*	00000000 __stacks_total_size__
000085b0 g     F .text	000000ac chSchWakeupS
00009340 g     F .text	0000004c sdIncomingDataI
00008f40 g     F .text	00000080 chOQGetI
00008470 g     F .text	00000024 _scheduler_init
00008780 g     F .text	000000a0 chThdCreateStatic
000084a0 g     F .text	00000048 chSchReadyI
000082e0 g     F .text	00000024 _vt_init
00009100 g     F .text	00000028 _heap_init
000091f0 g     F .text	0000002c halInit
00009ddc g       .bss	00000000 _bss_start
06007b44 g       *ABS*	00000000 __heap_end__
0000a068 g     O .bss	00000018 IOPORT0
00000004 g       *ABS*	00000000 __abt_stack_size__
00008040 g       .text	00000000 ResetHandler
00008dc0 g     F .text	000000a8 chIQReadTimeout
00009520 g     F .text	00000050 hal_lld_init
00009b70 g     F .text	0000000c spi_lld_init
00009ddc g       .text	00000000 __exidx_start
00009b80 g     F .text	0000004c bcm2835_gpio_fnsel
00008820 g     F .text	00000064 chThdExitS
0000a174 g     O .bss	00000028 SPI0
00008310 g     F .text	00000064 chVTSetI
0000a19c g       .bss	00000000 _bss_end
000096a0 g     F .text	000000c8 _pal_lld_setgroupmode
00009860 g     F .text	00000018 sd_lld_init
00008ae0 g     F .text	00000014 chMtxLock
00008700 g     F .text	00000004 chSchDoReschedule
000081e0 g     F .text	00000078 chSysInit
00008c70 g     F .text	00000038 chIQInit
00009390 g     F .text	00000034 sdRequestDataI
000093e0 g     F .text	0000001c spiObjectInit
00009600 g     F .text	00000098 _pal_lld_init
000092d0 g     F .text	00000004 sdInit
00009070 g     F .text	00000034 _core_init
00000080 g       *ABS*	00000000 __irq_stack_size__
000080f0 g       .text	00000000 _port_switch_arm
00000400 g       *ABS*	00000000 __sys_stack_size__
05ffffe0 g       *ABS*	00000000 __ram_size__
000081a0 g       .text	00000000 arm_enable_irq
0000a024 g     O .bss	00000010 vtlist
000090b0 g     F .text	00000044 chCoreAlloc
00009880 g     F .text	0000014c i2c_lld_serve_interrupt
00009ddc g       *ABS*	00000000 _textdata
00008000 g       .text	00000000 _text
00008180  w      .text	00000000 PrefetchHandler
00009cf0 g     F .text	00000090 main
0000a034 g     O .bss	0000001c rlist
000093d0 g     F .text	00000004 spiInit
00008940 g     F .text	00000014 chMtxInit
000081c0 g     F .text	00000020 _idle_thread
00008fc0 g     F .text	000000b0 chOQWriteTimeout
00009d90 g     O .text	00000016 ch_debug
00008ba0 g     F .text	00000050 chEvtSignalI
00008000 g       .text	00000000 __ram_start__
00008160 g       .text	00000000 _port_thread_start
00009bd0 g     F .text	0000003c bcm2835_delay
00008690 g     F .text	00000070 chSchDoRescheduleAhead
000099d0 g     F .text	0000001c i2c_lld_init
00009230 g     F .text	00000018 i2cObjectInit
000088f0 g     F .text	00000050 chThdRelease
00009f88 g     O .bss	0000009c _idle_thread_wa
00008e70 g     F .text	00000034 chOQInit
00008d40 g     F .text	00000074 chIQGetTimeout
00009ddc g       .data	00000000 _data
00008100 g       .text	00000000 _port_irq_common
00008180  w      .text	00000000 AbortHandler
00008cb0 g     F .text	00000088 chIQPutI
00009470 g     F .text	00000064 tmInit
00008b00 g     F .text	000000a0 chMtxUnlock
00009ddc g       .data	00000000 _edata
06007fe0 g       *ABS*	00000000 __ram_end__
0000a19c g       .bss	00000000 _end
00008380 g     F .text	0000003c chVTResetI
00008180 g       .text	00000000 _unhandled_exception
000092e0 g     F .text	00000060 sdObjectInit
06007b44 g       *ABS*	00000000 __main_thread_stack_base__
000097b0 g     F .text	000000a8 sd_lld_serve_interrupt
000094e0 g     F .text	00000040 IrqHandler
00008180  w      .text	00000000 SwiHandler
000088a0 g     F .text	00000050 chThdWait
00008660 g     F .text	00000028 chSchIsPreemptionRequired
0000a080 g     O .bss	00000074 SD1
00000010 g       *ABS*	00000000 __fiq_stack_size__
00008710 g     F .text	00000064 _thread_init
00000004 g       *ABS*	00000000 __svc_stack_size__
00000004 g       *ABS*	00000000 __und_stack_size__
00008eb0 g     F .text	0000008c chOQPutTimeout
00009c10 g     F .text	00000004 boardInit
000080c0  w      .text	00000000 _main_exit_handler
00008184 g       .text	00000000 __early_init
00008180  w      .text	00000000 FiqHandler



Disassembly of section .text:

00008000 <__ram_start__>:
    8000:	e59ff018 	ldr	pc, [pc, #24]	; 8020 <_reset>
    8004:	e59ff018 	ldr	pc, [pc, #24]	; 8024 <_undefined>
    8008:	e59ff018 	ldr	pc, [pc, #24]	; 8028 <_swi>
    800c:	e59ff018 	ldr	pc, [pc, #24]	; 802c <_prefetch>
    8010:	e59ff018 	ldr	pc, [pc, #24]	; 8030 <_abort>
    8014:	e320f000 	nop	{0}
    8018:	e59ff018 	ldr	pc, [pc, #24]	; 8038 <_irq>
    801c:	e59ff018 	ldr	pc, [pc, #24]	; 803c <_fiq>

00008020 <_reset>:
    8020:	00008040 	andeq	r8, r0, r0, asr #32

00008024 <_undefined>:
    8024:	00008180 	andeq	r8, r0, r0, lsl #3

00008028 <_swi>:
    8028:	00008180 	andeq	r8, r0, r0, lsl #3

0000802c <_prefetch>:
    802c:	00008180 	andeq	r8, r0, r0, lsl #3

00008030 <_abort>:
    8030:	00008180 	andeq	r8, r0, r0, lsl #3
    8034:	00000000 	andeq	r0, r0, r0

00008038 <_irq>:
    8038:	000094e0 	andeq	r9, r0, r0, ror #9

0000803c <_fiq>:
    803c:	00008180 	andeq	r8, r0, r0, lsl #3

00008040 <ResetHandler>:
    8040:	e59f0080 	ldr	r0, [pc, #128]	; 80c8 <hwinit0+0x4>
    8044:	e321f0db 	msr	CPSR_c, #219, 0	; 0xdb
    8048:	e1a0d000 	mov	sp, r0
    804c:	e59f1078 	ldr	r1, [pc, #120]	; 80cc <hwinit0+0x8>
    8050:	e0400001 	sub	r0, r0, r1
    8054:	e321f0d7 	msr	CPSR_c, #215, 0	; 0xd7
    8058:	e1a0d000 	mov	sp, r0
    805c:	e59f106c 	ldr	r1, [pc, #108]	; 80d0 <hwinit0+0xc>
    8060:	e0400001 	sub	r0, r0, r1
    8064:	e321f0d1 	msr	CPSR_c, #209, 0	; 0xd1
    8068:	e1a0d000 	mov	sp, r0
    806c:	e59f1060 	ldr	r1, [pc, #96]	; 80d4 <hwinit0+0x10>
    8070:	e0400001 	sub	r0, r0, r1
    8074:	e321f0d2 	msr	CPSR_c, #210, 0	; 0xd2
    8078:	e1a0d000 	mov	sp, r0
    807c:	e59f1054 	ldr	r1, [pc, #84]	; 80d8 <hwinit0+0x14>
    8080:	e0400001 	sub	r0, r0, r1
    8084:	e321f0d3 	msr	CPSR_c, #211, 0	; 0xd3
    8088:	e1a0d000 	mov	sp, r0
    808c:	e59f1048 	ldr	r1, [pc, #72]	; 80dc <hwinit0+0x18>
    8090:	e0400001 	sub	r0, r0, r1
    8094:	e321f0df 	msr	CPSR_c, #223, 0	; 0xdf
    8098:	e1a0d000 	mov	sp, r0
    809c:	eb000038 	bl	8184 <__early_init>
    80a0:	e3a00000 	mov	r0, #0, 0
    80a4:	e59f1034 	ldr	r1, [pc, #52]	; 80e0 <hwinit0+0x1c>
    80a8:	e59f2034 	ldr	r2, [pc, #52]	; 80e4 <hwinit0+0x20>

000080ac <bssloop>:
    80ac:	e1510002 	cmp	r1, r2
    80b0:	34810004 	strcc	r0, [r1], #4
    80b4:	3afffffc 	bcc	80ac <bssloop>
    80b8:	eb00070c 	bl	9cf0 <main>
    80bc:	eaffffff 	b	80c0 <_main_exit_handler>

000080c0 <_main_exit_handler>:
    80c0:	eafffffe 	b	80c0 <_main_exit_handler>

000080c4 <hwinit0>:
    80c4:	e12fff1e 	bx	lr
    80c8:	06007fe0 	streq	r7, [r0], -r0, ror #31
    80cc:	00000004 	andeq	r0, r0, r4
    80d0:	00000004 	andeq	r0, r0, r4
    80d4:	00000010 	andeq	r0, r0, r0, lsl r0
    80d8:	00000080 	andeq	r0, r0, r0, lsl #1
    80dc:	00000004 	andeq	r0, r0, r4
    80e0:	00009ddc 	ldrdeq	r9, [r0], -ip
    80e4:	0000a19c 	muleq	r0, ip, r1
	...

000080f0 <_port_switch_arm>:
    80f0:	e92d4ff0 	push	{r4, r5, r6, r7, r8, r9, sl, fp, lr}
    80f4:	e581d00c 	str	sp, [r1, #12]
    80f8:	e590d00c 	ldr	sp, [r0, #12]
    80fc:	e8bd8ff0 	pop	{r4, r5, r6, r7, r8, r9, sl, fp, pc}

00008100 <_port_irq_common>:
    8100:	eb000156 	bl	8660 <chSchIsPreemptionRequired>
    8104:	e3500000 	cmp	r0, #0, 0
    8108:	08bd500f 	popeq	{r0, r1, r2, r3, ip, lr}
    810c:	025ef004 	subseq	pc, lr, #4, 0
    8110:	e8bd500f 	pop	{r0, r1, r2, r3, ip, lr}
    8114:	e321f09f 	msr	CPSR_c, #159, 0	; 0x9f
    8118:	e92d500f 	push	{r0, r1, r2, r3, ip, lr}
    811c:	e321f092 	msr	CPSR_c, #146, 0	; 0x92
    8120:	e14f0000 	mrs	r0, SPSR
    8124:	e1a0100e 	mov	r1, lr
    8128:	e321f09f 	msr	CPSR_c, #159, 0	; 0x9f
    812c:	e92d0003 	push	{r0, r1}
    8130:	eb000172 	bl	8700 <chSchDoReschedule>
    8134:	e8bd0003 	pop	{r0, r1}
    8138:	e321f092 	msr	CPSR_c, #146, 0	; 0x92
    813c:	e16ff000 	msr	SPSR_fsxc, r0
    8140:	e1a0e001 	mov	lr, r1
    8144:	e321f09f 	msr	CPSR_c, #159, 0	; 0x9f
    8148:	e8bd500f 	pop	{r0, r1, r2, r3, ip, lr}
    814c:	e321f092 	msr	CPSR_c, #146, 0	; 0x92
    8150:	e25ef004 	subs	pc, lr, #4, 0
    8154:	e320f000 	nop	{0}
    8158:	e320f000 	nop	{0}
    815c:	e320f000 	nop	{0}

00008160 <_port_thread_start>:
    8160:	e321f01f 	msr	CPSR_c, #31, 0
    8164:	e1a00005 	mov	r0, r5
    8168:	e1a0e00f 	mov	lr, pc
    816c:	e12fff14 	bx	r4
    8170:	eb0001c6 	bl	8890 <chThdExit>
	...

00008180 <_unhandled_exception>:
    8180:	eafffffe 	b	8180 <_unhandled_exception>

00008184 <__early_init>:
    8184:	e3a00902 	mov	r0, #32768	; 0x8000
    8188:	e3a01000 	mov	r1, #0, 0
    818c:	e8b003fc 	ldm	r0!, {r2, r3, r4, r5, r6, r7, r8, r9}
    8190:	e8a103fc 	stmia	r1!, {r2, r3, r4, r5, r6, r7, r8, r9}
    8194:	e8b003fc 	ldm	r0!, {r2, r3, r4, r5, r6, r7, r8, r9}
    8198:	e8a103fc 	stmia	r1!, {r2, r3, r4, r5, r6, r7, r8, r9}
    819c:	e12fff1e 	bx	lr

000081a0 <arm_enable_irq>:
    81a0:	e10f0000 	mrs	r0, CPSR
    81a4:	e3c00080 	bic	r0, r0, #128, 0	; 0x80
    81a8:	e121f000 	msr	CPSR_c, r0
    81ac:	e12fff1e 	bx	lr

000081b0 <get_cpsr>:
    81b0:	e10f0000 	mrs	r0, CPSR
    81b4:	e12fff1e 	bx	lr
	...

000081c0 <_idle_thread>:
    81c0:	e59f3010 	ldr	r3, [pc, #16]	; 81d8 <_idle_thread+0x18>
    81c4:	e59f2010 	ldr	r2, [pc, #16]	; 81dc <_idle_thread+0x1c>
    81c8:	e5933018 	ldr	r3, [r3, #24]
    81cc:	e5832018 	str	r2, [r3, #24]
    81d0:	ee070f90 	mcr	15, 0, r0, cr7, cr0, {4}
    81d4:	eafffffd 	b	81d0 <_idle_thread+0x10>
    81d8:	0000a034 	andeq	sl, r0, r4, lsr r0
    81dc:	00009d80 	andeq	r9, r0, r0, lsl #27

000081e0 <chSysInit>:
    81e0:	e52de004 	push	{lr}		; (str lr, [sp, #-4]!)
    81e4:	e24dd00c 	sub	sp, sp, #12, 0
    81e8:	eb0000a0 	bl	8470 <_scheduler_init>
    81ec:	eb00003b 	bl	82e0 <_vt_init>
    81f0:	eb00039e 	bl	9070 <_core_init>
    81f4:	eb0003c1 	bl	9100 <_heap_init>
    81f8:	e3a01040 	mov	r1, #64, 0	; 0x40
    81fc:	e59f0040 	ldr	r0, [pc, #64]	; 8244 <chSysInit+0x64>
    8200:	eb000142 	bl	8710 <_thread_init>
    8204:	e3a02001 	mov	r2, #1, 0
    8208:	e59f3038 	ldr	r3, [pc, #56]	; 8248 <chSysInit+0x68>
    820c:	e5c0201c 	strb	r2, [r0, #28]
    8210:	e5830018 	str	r0, [r3, #24]
    8214:	e321f01f 	msr	CPSR_c, #31, 0
    8218:	e3a01000 	mov	r1, #0, 0
    821c:	e5933018 	ldr	r3, [r3, #24]
    8220:	e59f0024 	ldr	r0, [pc, #36]	; 824c <chSysInit+0x6c>
    8224:	e5830018 	str	r0, [r3, #24]
    8228:	e58d1000 	str	r1, [sp]
    822c:	e59f301c 	ldr	r3, [pc, #28]	; 8250 <chSysInit+0x70>
    8230:	e3a0109c 	mov	r1, #156, 0	; 0x9c
    8234:	e59f0018 	ldr	r0, [pc, #24]	; 8254 <chSysInit+0x74>
    8238:	eb000150 	bl	8780 <chThdCreateStatic>
    823c:	e28dd00c 	add	sp, sp, #12, 0
    8240:	e49df004 	pop	{pc}		; (ldr pc, [sp], #4)
    8244:	00009ddc 	ldrdeq	r9, [r0], -ip
    8248:	0000a034 	andeq	sl, r0, r4, lsr r0
    824c:	00009d90 	muleq	r0, r0, sp
    8250:	000081c0 	andeq	r8, r0, r0, asr #3
    8254:	00009f88 	andeq	r9, r0, r8, lsl #31
	...

00008260 <chSysTimerHandlerI>:
    8260:	e59f3070 	ldr	r3, [pc, #112]	; 82d8 <chSysTimerHandlerI+0x78>
    8264:	e92d4070 	push	{r4, r5, r6, lr}
    8268:	e5931018 	ldr	r1, [r3, #24]
    826c:	e59f4068 	ldr	r4, [pc, #104]	; 82dc <chSysTimerHandlerI+0x7c>
    8270:	e5912020 	ldr	r2, [r1, #32]
    8274:	e5943000 	ldr	r3, [r4]
    8278:	e2822001 	add	r2, r2, #1, 0
    827c:	e5812020 	str	r2, [r1, #32]
    8280:	e594200c 	ldr	r2, [r4, #12]
    8284:	e1530004 	cmp	r3, r4
    8288:	e2822001 	add	r2, r2, #1, 0
    828c:	e584200c 	str	r2, [r4, #12]
    8290:	08bd8070 	popeq	{r4, r5, r6, pc}
    8294:	e5935008 	ldr	r5, [r3, #8]
    8298:	e2455001 	sub	r5, r5, #1, 0
    829c:	e3550000 	cmp	r5, #0, 0
    82a0:	e5835008 	str	r5, [r3, #8]
    82a4:	18bd8070 	popne	{r4, r5, r6, pc}
    82a8:	e5932000 	ldr	r2, [r3]
    82ac:	e593100c 	ldr	r1, [r3, #12]
    82b0:	e5930010 	ldr	r0, [r3, #16]
    82b4:	e583500c 	str	r5, [r3, #12]
    82b8:	e5842000 	str	r2, [r4]
    82bc:	e5824004 	str	r4, [r2, #4]
    82c0:	e12fff31 	blx	r1
    82c4:	e5943000 	ldr	r3, [r4]
    82c8:	e5932008 	ldr	r2, [r3, #8]
    82cc:	e3520000 	cmp	r2, #0, 0
    82d0:	0afffff4 	beq	82a8 <chSysTimerHandlerI+0x48>
    82d4:	e8bd8070 	pop	{r4, r5, r6, pc}
    82d8:	0000a034 	andeq	sl, r0, r4, lsr r0
    82dc:	0000a024 	andeq	sl, r0, r4, lsr #32

000082e0 <_vt_init>:
    82e0:	e3e01000 	mvn	r1, #0, 0
    82e4:	e3a02000 	mov	r2, #0, 0
    82e8:	e59f3010 	ldr	r3, [pc, #16]	; 8300 <_vt_init+0x20>
    82ec:	e5831008 	str	r1, [r3, #8]
    82f0:	e5833004 	str	r3, [r3, #4]
    82f4:	e5833000 	str	r3, [r3]
    82f8:	e583200c 	str	r2, [r3, #12]
    82fc:	e12fff1e 	bx	lr
    8300:	0000a024 	andeq	sl, r0, r4, lsr #32
	...

00008310 <chVTSetI>:
    8310:	e59fc058 	ldr	ip, [pc, #88]	; 8370 <chVTSetI+0x60>
    8314:	e5803010 	str	r3, [r0, #16]
    8318:	e59c3000 	ldr	r3, [ip]
    831c:	e580200c 	str	r2, [r0, #12]
    8320:	e5932008 	ldr	r2, [r3, #8]
    8324:	e1510002 	cmp	r1, r2
    8328:	9a000004 	bls	8340 <chVTSetI+0x30>
    832c:	e5933000 	ldr	r3, [r3]
    8330:	e0411002 	sub	r1, r1, r2
    8334:	e5932008 	ldr	r2, [r3, #8]
    8338:	e1520001 	cmp	r2, r1
    833c:	3afffffa 	bcc	832c <chVTSetI+0x1c>
    8340:	e5932004 	ldr	r2, [r3, #4]
    8344:	e5803000 	str	r3, [r0]
    8348:	e5802004 	str	r2, [r0, #4]
    834c:	e5830004 	str	r0, [r3, #4]
    8350:	e5902004 	ldr	r2, [r0, #4]
    8354:	e153000c 	cmp	r3, ip
    8358:	e5820000 	str	r0, [r2]
    835c:	e5801008 	str	r1, [r0, #8]
    8360:	15932008 	ldrne	r2, [r3, #8]
    8364:	10421001 	subne	r1, r2, r1
    8368:	15831008 	strne	r1, [r3, #8]
    836c:	e12fff1e 	bx	lr
    8370:	0000a024 	andeq	sl, r0, r4, lsr #32
	...

00008380 <chVTResetI>:
    8380:	e5903000 	ldr	r3, [r0]
    8384:	e59f202c 	ldr	r2, [pc, #44]	; 83b8 <chVTResetI+0x38>
    8388:	e1530002 	cmp	r3, r2
    838c:	15932008 	ldrne	r2, [r3, #8]
    8390:	15901008 	ldrne	r1, [r0, #8]
    8394:	10822001 	addne	r2, r2, r1
    8398:	e3a01000 	mov	r1, #0, 0
    839c:	15832008 	strne	r2, [r3, #8]
    83a0:	e5902004 	ldr	r2, [r0, #4]
    83a4:	e5823000 	str	r3, [r2]
    83a8:	e5903000 	ldr	r3, [r0]
    83ac:	e5832004 	str	r2, [r3, #4]
    83b0:	e580100c 	str	r1, [r0, #12]
    83b4:	e12fff1e 	bx	lr
    83b8:	0000a024 	andeq	sl, r0, r4, lsr #32
    83bc:	00000000 	andeq	r0, r0, r0

000083c0 <wakeup>:
    83c0:	e5d0301c 	ldrb	r3, [r0, #28]
    83c4:	e353000d 	cmp	r3, #13, 0
    83c8:	979ff103 	ldrls	pc, [pc, r3, lsl #2]
    83cc:	ea000015 	b	8428 <wakeup+0x68>
    83d0:	00008468 	andeq	r8, r0, r8, ror #8
    83d4:	00008428 	andeq	r8, r0, r8, lsr #8
    83d8:	00008428 	andeq	r8, r0, r8, lsr #8
    83dc:	00008408 	andeq	r8, r0, r8, lsl #8
    83e0:	00008428 	andeq	r8, r0, r8, lsr #8
    83e4:	00008418 	andeq	r8, r0, r8, lsl r4
    83e8:	00008428 	andeq	r8, r0, r8, lsr #8
    83ec:	00008428 	andeq	r8, r0, r8, lsr #8
    83f0:	00008428 	andeq	r8, r0, r8, lsr #8
    83f4:	00008428 	andeq	r8, r0, r8, lsr #8
    83f8:	00008428 	andeq	r8, r0, r8, lsr #8
    83fc:	00008428 	andeq	r8, r0, r8, lsr #8
    8400:	00008428 	andeq	r8, r0, r8, lsr #8
    8404:	00008418 	andeq	r8, r0, r8, lsl r4
    8408:	e5902024 	ldr	r2, [r0, #36]	; 0x24
    840c:	e5923008 	ldr	r3, [r2, #8]
    8410:	e2833001 	add	r3, r3, #1, 0
    8414:	e5823008 	str	r3, [r2, #8]
    8418:	e5902004 	ldr	r2, [r0, #4]
    841c:	e5903000 	ldr	r3, [r0]
    8420:	e5823000 	str	r3, [r2]
    8424:	e5832004 	str	r2, [r3, #4]
    8428:	e3e0c000 	mvn	ip, #0, 0
    842c:	e3a02000 	mov	r2, #0, 0
    8430:	e5901008 	ldr	r1, [r0, #8]
    8434:	e59f3030 	ldr	r3, [pc, #48]	; 846c <wakeup+0xac>
    8438:	e580c024 	str	ip, [r0, #36]	; 0x24
    843c:	e5c0201c 	strb	r2, [r0, #28]
    8440:	e5933000 	ldr	r3, [r3]
    8444:	e5932008 	ldr	r2, [r3, #8]
    8448:	e1520001 	cmp	r2, r1
    844c:	2afffffb 	bcs	8440 <wakeup+0x80>
    8450:	e5932004 	ldr	r2, [r3, #4]
    8454:	e5803000 	str	r3, [r0]
    8458:	e5802004 	str	r2, [r0, #4]
    845c:	e5830004 	str	r0, [r3, #4]
    8460:	e5903004 	ldr	r3, [r0, #4]
    8464:	e5830000 	str	r0, [r3]
    8468:	e12fff1e 	bx	lr
    846c:	0000a034 	andeq	sl, r0, r4, lsr r0

00008470 <_scheduler_init>:
    8470:	e3a02000 	mov	r2, #0, 0
    8474:	e59f3014 	ldr	r3, [pc, #20]	; 8490 <_scheduler_init+0x20>
    8478:	e5832008 	str	r2, [r3, #8]
    847c:	e5833004 	str	r3, [r3, #4]
    8480:	e5833000 	str	r3, [r3]
    8484:	e5833014 	str	r3, [r3, #20]
    8488:	e5833010 	str	r3, [r3, #16]
    848c:	e12fff1e 	bx	lr
    8490:	0000a034 	andeq	sl, r0, r4, lsr r0
	...

000084a0 <chSchReadyI>:
    84a0:	e3a02000 	mov	r2, #0, 0
    84a4:	e1a0c000 	mov	ip, r0
    84a8:	e5901008 	ldr	r1, [r0, #8]
    84ac:	e59f3030 	ldr	r3, [pc, #48]	; 84e4 <chSchReadyI+0x44>
    84b0:	e5c0201c 	strb	r2, [r0, #28]
    84b4:	e5933000 	ldr	r3, [r3]
    84b8:	e5932008 	ldr	r2, [r3, #8]
    84bc:	e1520001 	cmp	r2, r1
    84c0:	2afffffb 	bcs	84b4 <chSchReadyI+0x14>
    84c4:	e5932004 	ldr	r2, [r3, #4]
    84c8:	e58c3000 	str	r3, [ip]
    84cc:	e58c2004 	str	r2, [ip, #4]
    84d0:	e583c004 	str	ip, [r3, #4]
    84d4:	e59c3004 	ldr	r3, [ip, #4]
    84d8:	e1a0000c 	mov	r0, ip
    84dc:	e583c000 	str	ip, [r3]
    84e0:	e12fff1e 	bx	lr
    84e4:	0000a034 	andeq	sl, r0, r4, lsr r0
	...

000084f0 <chSchGoSleepS>:
    84f0:	e52de004 	push	{lr}		; (str lr, [sp, #-4]!)
    84f4:	e3a0e001 	mov	lr, #1, 0
    84f8:	e59f3028 	ldr	r3, [pc, #40]	; 8528 <chSchGoSleepS+0x38>
    84fc:	e5931018 	ldr	r1, [r3, #24]
    8500:	e5932000 	ldr	r2, [r3]
    8504:	e5c1001c 	strb	r0, [r1, #28]
    8508:	e592c000 	ldr	ip, [r2]
    850c:	e1a00002 	mov	r0, r2
    8510:	e58c3004 	str	r3, [ip, #4]
    8514:	e5c2e01c 	strb	lr, [r2, #28]
    8518:	e583c000 	str	ip, [r3]
    851c:	e49de004 	pop	{lr}		; (ldr lr, [sp], #4)
    8520:	e5832018 	str	r2, [r3, #24]
    8524:	eafffef1 	b	80f0 <_port_switch_arm>
    8528:	0000a034 	andeq	sl, r0, r4, lsr r0
    852c:	00000000 	andeq	r0, r0, r0

00008530 <chSchGoSleepTimeoutS>:
    8530:	e92d4030 	push	{r4, r5, lr}
    8534:	e3710001 	cmn	r1, #1, 0
    8538:	e24dd01c 	sub	sp, sp, #28, 0
    853c:	0a000010 	beq	8584 <chSchGoSleepTimeoutS+0x54>
    8540:	e1a05000 	mov	r5, r0
    8544:	e59f4050 	ldr	r4, [pc, #80]	; 859c <chSchGoSleepTimeoutS+0x6c>
    8548:	e28d0004 	add	r0, sp, #4, 0
    854c:	e5943018 	ldr	r3, [r4, #24]
    8550:	e59f2048 	ldr	r2, [pc, #72]	; 85a0 <chSchGoSleepTimeoutS+0x70>
    8554:	ebffff6d 	bl	8310 <chVTSetI>
    8558:	e1a00005 	mov	r0, r5
    855c:	ebffffe3 	bl	84f0 <chSchGoSleepS>
    8560:	e59d3010 	ldr	r3, [sp, #16]
    8564:	e3530000 	cmp	r3, #0, 0
    8568:	0a000001 	beq	8574 <chSchGoSleepTimeoutS+0x44>
    856c:	e28d0004 	add	r0, sp, #4, 0
    8570:	ebffff82 	bl	8380 <chVTResetI>
    8574:	e5943018 	ldr	r3, [r4, #24]
    8578:	e5930024 	ldr	r0, [r3, #36]	; 0x24
    857c:	e28dd01c 	add	sp, sp, #28, 0
    8580:	e8bd8030 	pop	{r4, r5, pc}
    8584:	ebffffd9 	bl	84f0 <chSchGoSleepS>
    8588:	e59f400c 	ldr	r4, [pc, #12]	; 859c <chSchGoSleepTimeoutS+0x6c>
    858c:	e5943018 	ldr	r3, [r4, #24]
    8590:	e5930024 	ldr	r0, [r3, #36]	; 0x24
    8594:	e28dd01c 	add	sp, sp, #28, 0
    8598:	e8bd8030 	pop	{r4, r5, pc}
    859c:	0000a034 	andeq	sl, r0, r4, lsr r0
    85a0:	000083c0 	andeq	r8, r0, r0, asr #7
	...

000085b0 <chSchWakeupS>:
    85b0:	e59f30a0 	ldr	r3, [pc, #160]	; 8658 <chSchWakeupS+0xa8>
    85b4:	e92d4010 	push	{r4, lr}
    85b8:	e5934018 	ldr	r4, [r3, #24]
    85bc:	e590e008 	ldr	lr, [r0, #8]
    85c0:	e1a0c000 	mov	ip, r0
    85c4:	e5801024 	str	r1, [r0, #36]	; 0x24
    85c8:	e5940008 	ldr	r0, [r4, #8]
    85cc:	e15e0000 	cmp	lr, r0
    85d0:	8a00000c 	bhi	8608 <chSchWakeupS+0x58>
    85d4:	e3a02000 	mov	r2, #0, 0
    85d8:	e5cc201c 	strb	r2, [ip, #28]
    85dc:	e5933000 	ldr	r3, [r3]
    85e0:	e5932008 	ldr	r2, [r3, #8]
    85e4:	e15e0002 	cmp	lr, r2
    85e8:	9afffffb 	bls	85dc <chSchWakeupS+0x2c>
    85ec:	e5932004 	ldr	r2, [r3, #4]
    85f0:	e58c3000 	str	r3, [ip]
    85f4:	e58c2004 	str	r2, [ip, #4]
    85f8:	e583c004 	str	ip, [r3, #4]
    85fc:	e59c3004 	ldr	r3, [ip, #4]
    8600:	e583c000 	str	ip, [r3]
    8604:	e8bd8010 	pop	{r4, pc}
    8608:	e3a01000 	mov	r1, #0, 0
    860c:	e1a02003 	mov	r2, r3
    8610:	e5c4101c 	strb	r1, [r4, #28]
    8614:	e5922000 	ldr	r2, [r2]
    8618:	e5921008 	ldr	r1, [r2, #8]
    861c:	e1500001 	cmp	r0, r1
    8620:	9afffffb 	bls	8614 <chSchWakeupS+0x64>
    8624:	e3a0e001 	mov	lr, #1, 0
    8628:	e5921004 	ldr	r1, [r2, #4]
    862c:	e5842000 	str	r2, [r4]
    8630:	e5841004 	str	r1, [r4, #4]
    8634:	e5824004 	str	r4, [r2, #4]
    8638:	e5942004 	ldr	r2, [r4, #4]
    863c:	e1a01004 	mov	r1, r4
    8640:	e5824000 	str	r4, [r2]
    8644:	e5cce01c 	strb	lr, [ip, #28]
    8648:	e1a0000c 	mov	r0, ip
    864c:	e8bd4010 	pop	{r4, lr}
    8650:	e583c018 	str	ip, [r3, #24]
    8654:	eafffea5 	b	80f0 <_port_switch_arm>
    8658:	0000a034 	andeq	sl, r0, r4, lsr r0
    865c:	00000000 	andeq	r0, r0, r0

00008660 <chSchIsPreemptionRequired>:
    8660:	e59f301c 	ldr	r3, [pc, #28]	; 8684 <chSchIsPreemptionRequired+0x24>
    8664:	e5932000 	ldr	r2, [r3]
    8668:	e5933018 	ldr	r3, [r3, #24]
    866c:	e5920008 	ldr	r0, [r2, #8]
    8670:	e5933008 	ldr	r3, [r3, #8]
    8674:	e1500003 	cmp	r0, r3
    8678:	93a00000 	movls	r0, #0, 0
    867c:	83a00001 	movhi	r0, #1, 0
    8680:	e12fff1e 	bx	lr
    8684:	0000a034 	andeq	sl, r0, r4, lsr r0
	...

00008690 <chSchDoRescheduleAhead>:
    8690:	e92d4010 	push	{r4, lr}
    8694:	e3a04001 	mov	r4, #1, 0
    8698:	e3a0e000 	mov	lr, #0, 0
    869c:	e59f2058 	ldr	r2, [pc, #88]	; 86fc <chSchDoRescheduleAhead+0x6c>
    86a0:	e5920000 	ldr	r0, [r2]
    86a4:	e5921018 	ldr	r1, [r2, #24]
    86a8:	e590c000 	ldr	ip, [r0]
    86ac:	e1a03000 	mov	r3, r0
    86b0:	e58c2004 	str	r2, [ip, #4]
    86b4:	e5c0401c 	strb	r4, [r0, #28]
    86b8:	e582c000 	str	ip, [r2]
    86bc:	e5c1e01c 	strb	lr, [r1, #28]
    86c0:	e591c008 	ldr	ip, [r1, #8]
    86c4:	e5820018 	str	r0, [r2, #24]
    86c8:	ea000000 	b	86d0 <chSchDoRescheduleAhead+0x40>
    86cc:	e5933000 	ldr	r3, [r3]
    86d0:	e5932008 	ldr	r2, [r3, #8]
    86d4:	e152000c 	cmp	r2, ip
    86d8:	8afffffb 	bhi	86cc <chSchDoRescheduleAhead+0x3c>
    86dc:	e8bd4010 	pop	{r4, lr}
    86e0:	e5932004 	ldr	r2, [r3, #4]
    86e4:	e5813000 	str	r3, [r1]
    86e8:	e5812004 	str	r2, [r1, #4]
    86ec:	e5831004 	str	r1, [r3, #4]
    86f0:	e5913004 	ldr	r3, [r1, #4]
    86f4:	e5831000 	str	r1, [r3]
    86f8:	eafffe7c 	b	80f0 <_port_switch_arm>
    86fc:	0000a034 	andeq	sl, r0, r4, lsr r0

00008700 <chSchDoReschedule>:
    8700:	eaffffe2 	b	8690 <chSchDoRescheduleAhead>
	...

00008710 <_thread_init>:
    8710:	e92d4030 	push	{r4, r5, lr}
    8714:	e3a02000 	mov	r2, #0, 0
    8718:	e3a05002 	mov	r5, #2, 0
    871c:	e3a04001 	mov	r4, #1, 0
    8720:	e59fc048 	ldr	ip, [pc, #72]	; 8770 <_thread_init+0x60>
    8724:	e5801008 	str	r1, [r0, #8]
    8728:	e59ce014 	ldr	lr, [ip, #20]
    872c:	e5801040 	str	r1, [r0, #64]	; 0x40
    8730:	e580c010 	str	ip, [r0, #16]
    8734:	e580e014 	str	lr, [r0, #20]
    8738:	e280102c 	add	r1, r0, #44, 0	; 0x2c
    873c:	e58c0014 	str	r0, [ip, #20]
    8740:	e280c028 	add	ip, r0, #40, 0	; 0x28
    8744:	e1c051bc 	strh	r5, [r0, #28]
    8748:	e5c0401e 	strb	r4, [r0, #30]
    874c:	e580203c 	str	r2, [r0, #60]	; 0x3c
    8750:	e5802038 	str	r2, [r0, #56]	; 0x38
    8754:	e5802020 	str	r2, [r0, #32]
    8758:	e5802018 	str	r2, [r0, #24]
    875c:	e58e0010 	str	r0, [lr, #16]
    8760:	e580c028 	str	ip, [r0, #40]	; 0x28
    8764:	e5801030 	str	r1, [r0, #48]	; 0x30
    8768:	e580102c 	str	r1, [r0, #44]	; 0x2c
    876c:	e8bd8030 	pop	{r4, r5, pc}
    8770:	0000a034 	andeq	sl, r0, r4, lsr r0
	...

00008780 <chThdCreateStatic>:
    8780:	e92d41f0 	push	{r4, r5, r6, r7, r8, lr}
    8784:	e59d8018 	ldr	r8, [sp, #24]
    8788:	e1a04000 	mov	r4, r0
    878c:	e321f09f 	msr	CPSR_c, #159, 0	; 0x9f
    8790:	e3a0c000 	mov	ip, #0, 0
    8794:	e3a07002 	mov	r7, #2, 0
    8798:	e3a06001 	mov	r6, #1, 0
    879c:	e2411024 	sub	r1, r1, #36, 0	; 0x24
    87a0:	e0805001 	add	r5, r0, r1
    87a4:	e580500c 	str	r5, [r0, #12]
    87a8:	e59fe068 	ldr	lr, [pc, #104]	; 8818 <chThdCreateStatic+0x98>
    87ac:	e7803001 	str	r3, [r0, r1]
    87b0:	e59f3064 	ldr	r3, [pc, #100]	; 881c <chThdCreateStatic+0x9c>
    87b4:	e5858004 	str	r8, [r5, #4]
    87b8:	e5853020 	str	r3, [r5, #32]
    87bc:	e59e5014 	ldr	r5, [lr, #20]
    87c0:	e5802040 	str	r2, [r0, #64]	; 0x40
    87c4:	e5802008 	str	r2, [r0, #8]
    87c8:	e280302c 	add	r3, r0, #44, 0	; 0x2c
    87cc:	e2802028 	add	r2, r0, #40, 0	; 0x28
    87d0:	e580e010 	str	lr, [r0, #16]
    87d4:	e5805014 	str	r5, [r0, #20]
    87d8:	e1c071bc 	strh	r7, [r0, #28]
    87dc:	e5c0601e 	strb	r6, [r0, #30]
    87e0:	e580c03c 	str	ip, [r0, #60]	; 0x3c
    87e4:	e58e0014 	str	r0, [lr, #20]
    87e8:	e580c038 	str	ip, [r0, #56]	; 0x38
    87ec:	e580c020 	str	ip, [r0, #32]
    87f0:	e580c018 	str	ip, [r0, #24]
    87f4:	e1a0100c 	mov	r1, ip
    87f8:	e5850010 	str	r0, [r5, #16]
    87fc:	e5802028 	str	r2, [r0, #40]	; 0x28
    8800:	e5803030 	str	r3, [r0, #48]	; 0x30
    8804:	e580302c 	str	r3, [r0, #44]	; 0x2c
    8808:	ebffff68 	bl	85b0 <chSchWakeupS>
    880c:	e321f01f 	msr	CPSR_c, #31, 0
    8810:	e1a00004 	mov	r0, r4
    8814:	e8bd81f0 	pop	{r4, r5, r6, r7, r8, pc}
    8818:	0000a034 	andeq	sl, r0, r4, lsr r0
    881c:	00008160 	andeq	r8, r0, r0, ror #2

00008820 <chThdExitS>:
    8820:	e59f3058 	ldr	r3, [pc, #88]	; 8880 <chThdExitS+0x60>
    8824:	e92d4070 	push	{r4, r5, r6, lr}
    8828:	e5934018 	ldr	r4, [r3, #24]
    882c:	e1a05004 	mov	r5, r4
    8830:	e5b53028 	ldr	r3, [r5, #40]!	; 0x28
    8834:	e5840024 	str	r0, [r4, #36]	; 0x24
    8838:	e1550003 	cmp	r5, r3
    883c:	0a000006 	beq	885c <chThdExitS+0x3c>
    8840:	e5932000 	ldr	r2, [r3]
    8844:	e1a00003 	mov	r0, r3
    8848:	e5842028 	str	r2, [r4, #40]	; 0x28
    884c:	ebffff13 	bl	84a0 <chSchReadyI>
    8850:	e5943028 	ldr	r3, [r4, #40]	; 0x28
    8854:	e1530005 	cmp	r3, r5
    8858:	1afffff8 	bne	8840 <chThdExitS+0x20>
    885c:	e5d4301d 	ldrb	r3, [r4, #29]
    8860:	e3a0000e 	mov	r0, #14, 0
    8864:	e3130003 	tst	r3, #3, 0
    8868:	05942014 	ldreq	r2, [r4, #20]
    886c:	05943010 	ldreq	r3, [r4, #16]
    8870:	e8bd4070 	pop	{r4, r5, r6, lr}
    8874:	05823010 	streq	r3, [r2, #16]
    8878:	05832014 	streq	r2, [r3, #20]
    887c:	eaffff1b 	b	84f0 <chSchGoSleepS>
    8880:	0000a034 	andeq	sl, r0, r4, lsr r0
	...

00008890 <chThdExit>:
    8890:	e321f09f 	msr	CPSR_c, #159, 0	; 0x9f
    8894:	eaffffe1 	b	8820 <chThdExitS>
	...

000088a0 <chThdWait>:
    88a0:	e92d4070 	push	{r4, r5, r6, lr}
    88a4:	e1a04000 	mov	r4, r0
    88a8:	e321f09f 	msr	CPSR_c, #159, 0	; 0x9f
    88ac:	e5d0301c 	ldrb	r3, [r0, #28]
    88b0:	e353000e 	cmp	r3, #14, 0
    88b4:	0a000006 	beq	88d4 <chThdWait+0x34>
    88b8:	e59f302c 	ldr	r3, [pc, #44]	; 88ec <chThdWait+0x4c>
    88bc:	e5902028 	ldr	r2, [r0, #40]	; 0x28
    88c0:	e5933018 	ldr	r3, [r3, #24]
    88c4:	e3a00007 	mov	r0, #7, 0
    88c8:	e5832000 	str	r2, [r3]
    88cc:	e5843028 	str	r3, [r4, #40]	; 0x28
    88d0:	ebffff06 	bl	84f0 <chSchGoSleepS>
    88d4:	e5945024 	ldr	r5, [r4, #36]	; 0x24
    88d8:	e321f01f 	msr	CPSR_c, #31, 0
    88dc:	e1a00004 	mov	r0, r4
    88e0:	eb000002 	bl	88f0 <chThdRelease>
    88e4:	e1a00005 	mov	r0, r5
    88e8:	e8bd8070 	pop	{r4, r5, r6, pc}
    88ec:	0000a034 	andeq	sl, r0, r4, lsr r0

000088f0 <chThdRelease>:
    88f0:	e321f09f 	msr	CPSR_c, #159, 0	; 0x9f
    88f4:	e5d0301e 	ldrb	r3, [r0, #30]
    88f8:	e2433001 	sub	r3, r3, #1, 0
    88fc:	e6ef3073 	uxtb	r3, r3
    8900:	e5c0301e 	strb	r3, [r0, #30]
    8904:	e321f01f 	msr	CPSR_c, #31, 0
    8908:	e3530000 	cmp	r3, #0, 0
    890c:	112fff1e 	bxne	lr
    8910:	e5d0301c 	ldrb	r3, [r0, #28]
    8914:	e353000e 	cmp	r3, #14, 0
    8918:	112fff1e 	bxne	lr
    891c:	e5d0301d 	ldrb	r3, [r0, #29]
    8920:	e2033003 	and	r3, r3, #3, 0
    8924:	e3530001 	cmp	r3, #1, 0
    8928:	112fff1e 	bxne	lr
    892c:	e5901014 	ldr	r1, [r0, #20]
    8930:	e5903010 	ldr	r3, [r0, #16]
    8934:	e5813010 	str	r3, [r1, #16]
    8938:	e5831014 	str	r1, [r3, #20]
    893c:	ea0001fb 	b	9130 <chHeapFree>

00008940 <chMtxInit>:
    8940:	e3a03000 	mov	r3, #0, 0
    8944:	e5800004 	str	r0, [r0, #4]
    8948:	e5800000 	str	r0, [r0]
    894c:	e5803008 	str	r3, [r0, #8]
    8950:	e12fff1e 	bx	lr
	...

00008960 <chMtxLockS>:
    8960:	e5902008 	ldr	r2, [r0, #8]
    8964:	e59f3170 	ldr	r3, [pc, #368]	; 8adc <chMtxLockS+0x17c>
    8968:	e3520000 	cmp	r2, #0, 0
    896c:	e92d4070 	push	{r4, r5, r6, lr}
    8970:	e5934018 	ldr	r4, [r3, #24]
    8974:	0a00001f 	beq	89f8 <chMtxLockS+0x98>
    8978:	e5941008 	ldr	r1, [r4, #8]
    897c:	e5923008 	ldr	r3, [r2, #8]
    8980:	e1a05000 	mov	r5, r0
    8984:	e1530001 	cmp	r3, r1
    8988:	2a000007 	bcs	89ac <chMtxLockS+0x4c>
    898c:	e5d2301c 	ldrb	r3, [r2, #28]
    8990:	e5821008 	str	r1, [r2, #8]
    8994:	e3530004 	cmp	r3, #4, 0
    8998:	0a000036 	beq	8a78 <chMtxLockS+0x118>
    899c:	e3530005 	cmp	r3, #5, 0
    89a0:	0a000020 	beq	8a28 <chMtxLockS+0xc8>
    89a4:	e3530000 	cmp	r3, #0, 0
    89a8:	0a000017 	beq	8a0c <chMtxLockS+0xac>
    89ac:	e1a03005 	mov	r3, r5
    89b0:	ea000003 	b	89c4 <chMtxLockS+0x64>
    89b4:	e5931008 	ldr	r1, [r3, #8]
    89b8:	e5942008 	ldr	r2, [r4, #8]
    89bc:	e1510002 	cmp	r1, r2
    89c0:	3a000002 	bcc	89d0 <chMtxLockS+0x70>
    89c4:	e5933000 	ldr	r3, [r3]
    89c8:	e1550003 	cmp	r5, r3
    89cc:	1afffff8 	bne	89b4 <chMtxLockS+0x54>
    89d0:	e5932004 	ldr	r2, [r3, #4]
    89d4:	e5843000 	str	r3, [r4]
    89d8:	e5842004 	str	r2, [r4, #4]
    89dc:	e5834004 	str	r4, [r3, #4]
    89e0:	e5943004 	ldr	r3, [r4, #4]
    89e4:	e3a00004 	mov	r0, #4, 0
    89e8:	e5834000 	str	r4, [r3]
    89ec:	e5845024 	str	r5, [r4, #36]	; 0x24
    89f0:	e8bd4070 	pop	{r4, r5, r6, lr}
    89f4:	eafffebd 	b	84f0 <chSchGoSleepS>
    89f8:	e594303c 	ldr	r3, [r4, #60]	; 0x3c
    89fc:	e5804008 	str	r4, [r0, #8]
    8a00:	e580300c 	str	r3, [r0, #12]
    8a04:	e584003c 	str	r0, [r4, #60]	; 0x3c
    8a08:	e8bd8070 	pop	{r4, r5, r6, pc}
    8a0c:	e5921004 	ldr	r1, [r2, #4]
    8a10:	e5923000 	ldr	r3, [r2]
    8a14:	e1a00002 	mov	r0, r2
    8a18:	e5813000 	str	r3, [r1]
    8a1c:	e5831004 	str	r1, [r3, #4]
    8a20:	ebfffe9e 	bl	84a0 <chSchReadyI>
    8a24:	eaffffe0 	b	89ac <chMtxLockS+0x4c>
    8a28:	e592c024 	ldr	ip, [r2, #36]	; 0x24
    8a2c:	e592e004 	ldr	lr, [r2, #4]
    8a30:	e5920000 	ldr	r0, [r2]
    8a34:	e1a0300c 	mov	r3, ip
    8a38:	e58e0000 	str	r0, [lr]
    8a3c:	e580e004 	str	lr, [r0, #4]
    8a40:	ea000002 	b	8a50 <chMtxLockS+0xf0>
    8a44:	e5930008 	ldr	r0, [r3, #8]
    8a48:	e1510000 	cmp	r1, r0
    8a4c:	8a000002 	bhi	8a5c <chMtxLockS+0xfc>
    8a50:	e5933000 	ldr	r3, [r3]
    8a54:	e15c0003 	cmp	ip, r3
    8a58:	1afffff9 	bne	8a44 <chMtxLockS+0xe4>
    8a5c:	e5931004 	ldr	r1, [r3, #4]
    8a60:	e5823000 	str	r3, [r2]
    8a64:	e5821004 	str	r1, [r2, #4]
    8a68:	e5832004 	str	r2, [r3, #4]
    8a6c:	e5923004 	ldr	r3, [r2, #4]
    8a70:	e5832000 	str	r2, [r3]
    8a74:	eaffffcc 	b	89ac <chMtxLockS+0x4c>
    8a78:	e592c024 	ldr	ip, [r2, #36]	; 0x24
    8a7c:	e592e004 	ldr	lr, [r2, #4]
    8a80:	e5920000 	ldr	r0, [r2]
    8a84:	e1a0300c 	mov	r3, ip
    8a88:	e58e0000 	str	r0, [lr]
    8a8c:	e580e004 	str	lr, [r0, #4]
    8a90:	ea000002 	b	8aa0 <chMtxLockS+0x140>
    8a94:	e5930008 	ldr	r0, [r3, #8]
    8a98:	e1510000 	cmp	r1, r0
    8a9c:	8a000002 	bhi	8aac <chMtxLockS+0x14c>
    8aa0:	e5933000 	ldr	r3, [r3]
    8aa4:	e15c0003 	cmp	ip, r3
    8aa8:	1afffff9 	bne	8a94 <chMtxLockS+0x134>
    8aac:	e5931004 	ldr	r1, [r3, #4]
    8ab0:	e5823000 	str	r3, [r2]
    8ab4:	e5821004 	str	r1, [r2, #4]
    8ab8:	e5832004 	str	r2, [r3, #4]
    8abc:	e5923004 	ldr	r3, [r2, #4]
    8ac0:	e5941008 	ldr	r1, [r4, #8]
    8ac4:	e5832000 	str	r2, [r3]
    8ac8:	e59c2008 	ldr	r2, [ip, #8]
    8acc:	e5923008 	ldr	r3, [r2, #8]
    8ad0:	e1530001 	cmp	r3, r1
    8ad4:	3affffac 	bcc	898c <chMtxLockS+0x2c>
    8ad8:	eaffffb3 	b	89ac <chMtxLockS+0x4c>
    8adc:	0000a034 	andeq	sl, r0, r4, lsr r0

00008ae0 <chMtxLock>:
    8ae0:	e92d4010 	push	{r4, lr}
    8ae4:	e321f09f 	msr	CPSR_c, #159, 0	; 0x9f
    8ae8:	ebffff9c 	bl	8960 <chMtxLockS>
    8aec:	e321f01f 	msr	CPSR_c, #31, 0
    8af0:	e8bd8010 	pop	{r4, pc}
	...

00008b00 <chMtxUnlock>:
    8b00:	e59f3094 	ldr	r3, [pc, #148]	; 8b9c <chMtxUnlock+0x9c>
    8b04:	e92d4010 	push	{r4, lr}
    8b08:	e5930018 	ldr	r0, [r3, #24]
    8b0c:	e321f09f 	msr	CPSR_c, #159, 0	; 0x9f
    8b10:	e590403c 	ldr	r4, [r0, #60]	; 0x3c
    8b14:	e594c000 	ldr	ip, [r4]
    8b18:	e594300c 	ldr	r3, [r4, #12]
    8b1c:	e15c0004 	cmp	ip, r4
    8b20:	e580303c 	str	r3, [r0, #60]	; 0x3c
    8b24:	0a000019 	beq	8b90 <chMtxUnlock+0x90>
    8b28:	e3530000 	cmp	r3, #0, 0
    8b2c:	e5901040 	ldr	r1, [r0, #64]	; 0x40
    8b30:	0a000008 	beq	8b58 <chMtxUnlock+0x58>
    8b34:	e5932000 	ldr	r2, [r3]
    8b38:	e1520003 	cmp	r2, r3
    8b3c:	0a000002 	beq	8b4c <chMtxUnlock+0x4c>
    8b40:	e5922008 	ldr	r2, [r2, #8]
    8b44:	e1510002 	cmp	r1, r2
    8b48:	31a01002 	movcc	r1, r2
    8b4c:	e593300c 	ldr	r3, [r3, #12]
    8b50:	e3530000 	cmp	r3, #0, 0
    8b54:	1afffff6 	bne	8b34 <chMtxUnlock+0x34>
    8b58:	e59c203c 	ldr	r2, [ip, #60]	; 0x3c
    8b5c:	e59c3000 	ldr	r3, [ip]
    8b60:	e5801008 	str	r1, [r0, #8]
    8b64:	e5843000 	str	r3, [r4]
    8b68:	e1a0000c 	mov	r0, ip
    8b6c:	e5834004 	str	r4, [r3, #4]
    8b70:	e3a01000 	mov	r1, #0, 0
    8b74:	e584c008 	str	ip, [r4, #8]
    8b78:	e584200c 	str	r2, [r4, #12]
    8b7c:	e58c403c 	str	r4, [ip, #60]	; 0x3c
    8b80:	ebfffe8a 	bl	85b0 <chSchWakeupS>
    8b84:	e321f01f 	msr	CPSR_c, #31, 0
    8b88:	e1a00004 	mov	r0, r4
    8b8c:	e8bd8010 	pop	{r4, pc}
    8b90:	e3a03000 	mov	r3, #0, 0
    8b94:	e5843008 	str	r3, [r4, #8]
    8b98:	eafffff9 	b	8b84 <chMtxUnlock+0x84>
    8b9c:	0000a034 	andeq	sl, r0, r4, lsr r0

00008ba0 <chEvtSignalI>:
    8ba0:	e5903038 	ldr	r3, [r0, #56]	; 0x38
    8ba4:	e5d0201c 	ldrb	r2, [r0, #28]
    8ba8:	e1811003 	orr	r1, r1, r3
    8bac:	e3520008 	cmp	r2, #8, 0
    8bb0:	e5801038 	str	r1, [r0, #56]	; 0x38
    8bb4:	0a000009 	beq	8be0 <chEvtSignalI+0x40>
    8bb8:	e3520009 	cmp	r2, #9, 0
    8bbc:	112fff1e 	bxne	lr
    8bc0:	e5903024 	ldr	r3, [r0, #36]	; 0x24
    8bc4:	e1d33001 	bics	r3, r3, r1
    8bc8:	112fff1e 	bxne	lr
    8bcc:	e92d4010 	push	{r4, lr}
    8bd0:	ebfffe32 	bl	84a0 <chSchReadyI>
    8bd4:	e3a03000 	mov	r3, #0, 0
    8bd8:	e5803024 	str	r3, [r0, #36]	; 0x24
    8bdc:	e8bd8010 	pop	{r4, pc}
    8be0:	e5903024 	ldr	r3, [r0, #36]	; 0x24
    8be4:	e1110003 	tst	r1, r3
    8be8:	012fff1e 	bxeq	lr
    8bec:	eafffff6 	b	8bcc <chEvtSignalI+0x2c>

00008bf0 <chEvtBroadcastFlagsI>:
    8bf0:	e92d4070 	push	{r4, r5, r6, lr}
    8bf4:	e5904000 	ldr	r4, [r0]
    8bf8:	e1500004 	cmp	r0, r4
    8bfc:	08bd8070 	popeq	{r4, r5, r6, pc}
    8c00:	e1a05000 	mov	r5, r0
    8c04:	e1a06001 	mov	r6, r1
    8c08:	e594300c 	ldr	r3, [r4, #12]
    8c0c:	e5941008 	ldr	r1, [r4, #8]
    8c10:	e1833006 	orr	r3, r3, r6
    8c14:	e584300c 	str	r3, [r4, #12]
    8c18:	e5940004 	ldr	r0, [r4, #4]
    8c1c:	ebffffdf 	bl	8ba0 <chEvtSignalI>
    8c20:	e5944000 	ldr	r4, [r4]
    8c24:	e1550004 	cmp	r5, r4
    8c28:	1afffff6 	bne	8c08 <chEvtBroadcastFlagsI+0x18>
    8c2c:	e8bd8070 	pop	{r4, r5, r6, pc}

00008c30 <qwait>:
    8c30:	e3510000 	cmp	r1, #0, 0
    8c34:	e1a02000 	mov	r2, r0
    8c38:	0a000008 	beq	8c60 <qwait+0x30>
    8c3c:	e59f3024 	ldr	r3, [pc, #36]	; 8c68 <qwait+0x38>
    8c40:	e590c004 	ldr	ip, [r0, #4]
    8c44:	e5933018 	ldr	r3, [r3, #24]
    8c48:	e3a0000d 	mov	r0, #13, 0
    8c4c:	e5832024 	str	r2, [r3, #36]	; 0x24
    8c50:	e8831004 	stm	r3, {r2, ip}
    8c54:	e5823004 	str	r3, [r2, #4]
    8c58:	e58c3000 	str	r3, [ip]
    8c5c:	eafffe33 	b	8530 <chSchGoSleepTimeoutS>
    8c60:	e3e00000 	mvn	r0, #0, 0
    8c64:	e12fff1e 	bx	lr
    8c68:	0000a034 	andeq	sl, r0, r4, lsr r0
    8c6c:	00000000 	andeq	r0, r0, r0

00008c70 <chIQInit>:
    8c70:	e52de004 	push	{lr}		; (str lr, [sp, #-4]!)
    8c74:	e3a0e000 	mov	lr, #0, 0
    8c78:	e59dc004 	ldr	ip, [sp, #4]
    8c7c:	e0812002 	add	r2, r1, r2
    8c80:	e5802010 	str	r2, [r0, #16]
    8c84:	e5800004 	str	r0, [r0, #4]
    8c88:	e5800000 	str	r0, [r0]
    8c8c:	e5801014 	str	r1, [r0, #20]
    8c90:	e5801018 	str	r1, [r0, #24]
    8c94:	e580100c 	str	r1, [r0, #12]
    8c98:	e580301c 	str	r3, [r0, #28]
    8c9c:	e580e008 	str	lr, [r0, #8]
    8ca0:	e580c020 	str	ip, [r0, #32]
    8ca4:	e49df004 	pop	{pc}		; (ldr pc, [sp], #4)
	...

00008cb0 <chIQPutI>:
    8cb0:	e1c021d4 	ldrd	r2, [r0, #20]
    8cb4:	e1520003 	cmp	r2, r3
    8cb8:	e5903008 	ldr	r3, [r0, #8]
    8cbc:	0a000019 	beq	8d28 <chIQPutI+0x78>
    8cc0:	e2833001 	add	r3, r3, #1, 0
    8cc4:	e282c001 	add	ip, r2, #1, 0
    8cc8:	e580c014 	str	ip, [r0, #20]
    8ccc:	e5803008 	str	r3, [r0, #8]
    8cd0:	e5c21000 	strb	r1, [r2]
    8cd4:	e5902014 	ldr	r2, [r0, #20]
    8cd8:	e5903010 	ldr	r3, [r0, #16]
    8cdc:	e1520003 	cmp	r2, r3
    8ce0:	2590300c 	ldrcs	r3, [r0, #12]
    8ce4:	e5902000 	ldr	r2, [r0]
    8ce8:	25803014 	strcs	r3, [r0, #20]
    8cec:	e1520000 	cmp	r2, r0
    8cf0:	0a00000a 	beq	8d20 <chIQPutI+0x70>
    8cf4:	e1a03000 	mov	r3, r0
    8cf8:	e5921000 	ldr	r1, [r2]
    8cfc:	e92d4010 	push	{r4, lr}
    8d00:	e1a00002 	mov	r0, r2
    8d04:	e5831000 	str	r1, [r3]
    8d08:	e5813004 	str	r3, [r1, #4]
    8d0c:	ebfffde3 	bl	84a0 <chSchReadyI>
    8d10:	e3a03000 	mov	r3, #0, 0
    8d14:	e5803024 	str	r3, [r0, #36]	; 0x24
    8d18:	e1a00003 	mov	r0, r3
    8d1c:	e8bd8010 	pop	{r4, pc}
    8d20:	e3a00000 	mov	r0, #0, 0
    8d24:	e12fff1e 	bx	lr
    8d28:	e3530000 	cmp	r3, #0, 0
    8d2c:	0affffe3 	beq	8cc0 <chIQPutI+0x10>
    8d30:	e3e00003 	mvn	r0, #3, 0
    8d34:	e12fff1e 	bx	lr
	...

00008d40 <chIQGetTimeout>:
    8d40:	e92d4070 	push	{r4, r5, r6, lr}
    8d44:	e1a05001 	mov	r5, r1
    8d48:	e1a04000 	mov	r4, r0
    8d4c:	e321f09f 	msr	CPSR_c, #159, 0	; 0x9f
    8d50:	e590301c 	ldr	r3, [r0, #28]
    8d54:	e3530000 	cmp	r3, #0, 0
    8d58:	0a000006 	beq	8d78 <chIQGetTimeout+0x38>
    8d5c:	e12fff33 	blx	r3
    8d60:	ea000004 	b	8d78 <chIQGetTimeout+0x38>
    8d64:	e1a01005 	mov	r1, r5
    8d68:	e1a00004 	mov	r0, r4
    8d6c:	ebffffaf 	bl	8c30 <qwait>
    8d70:	e3500000 	cmp	r0, #0, 0
    8d74:	ba00000c 	blt	8dac <chIQGetTimeout+0x6c>
    8d78:	e5943008 	ldr	r3, [r4, #8]
    8d7c:	e3530000 	cmp	r3, #0, 0
    8d80:	0afffff7 	beq	8d64 <chIQGetTimeout+0x24>
    8d84:	e5942018 	ldr	r2, [r4, #24]
    8d88:	e5940010 	ldr	r0, [r4, #16]
    8d8c:	e2821001 	add	r1, r2, #1, 0
    8d90:	e2433001 	sub	r3, r3, #1, 0
    8d94:	e1510000 	cmp	r1, r0
    8d98:	e5843008 	str	r3, [r4, #8]
    8d9c:	2594300c 	ldrcs	r3, [r4, #12]
    8da0:	e5841018 	str	r1, [r4, #24]
    8da4:	e5d20000 	ldrb	r0, [r2]
    8da8:	25843018 	strcs	r3, [r4, #24]
    8dac:	e321f01f 	msr	CPSR_c, #31, 0
    8db0:	e8bd8070 	pop	{r4, r5, r6, pc}
	...

00008dc0 <chIQReadTimeout>:
    8dc0:	e92d47f0 	push	{r4, r5, r6, r7, r8, r9, sl, lr}
    8dc4:	e1a04000 	mov	r4, r0
    8dc8:	e1a08001 	mov	r8, r1
    8dcc:	e1a09002 	mov	r9, r2
    8dd0:	e1a05003 	mov	r5, r3
    8dd4:	e590701c 	ldr	r7, [r0, #28]
    8dd8:	e321f09f 	msr	CPSR_c, #159, 0	; 0x9f
    8ddc:	e3a06000 	mov	r6, #0, 0
    8de0:	e3570000 	cmp	r7, #0, 0
    8de4:	0a000007 	beq	8e08 <chIQReadTimeout+0x48>
    8de8:	e1a00004 	mov	r0, r4
    8dec:	e12fff37 	blx	r7
    8df0:	ea000004 	b	8e08 <chIQReadTimeout+0x48>
    8df4:	e1a01005 	mov	r1, r5
    8df8:	e1a00004 	mov	r0, r4
    8dfc:	ebffff8b 	bl	8c30 <qwait>
    8e00:	e3500000 	cmp	r0, #0, 0
    8e04:	1a000014 	bne	8e5c <chIQReadTimeout+0x9c>
    8e08:	e5943008 	ldr	r3, [r4, #8]
    8e0c:	e3530000 	cmp	r3, #0, 0
    8e10:	0afffff7 	beq	8df4 <chIQReadTimeout+0x34>
    8e14:	e5942018 	ldr	r2, [r4, #24]
    8e18:	e2433001 	sub	r3, r3, #1, 0
    8e1c:	e2821001 	add	r1, r2, #1, 0
    8e20:	e5841018 	str	r1, [r4, #24]
    8e24:	e5843008 	str	r3, [r4, #8]
    8e28:	e5d23000 	ldrb	r3, [r2]
    8e2c:	e4c83001 	strb	r3, [r8], #1
    8e30:	e5943010 	ldr	r3, [r4, #16]
    8e34:	e5942018 	ldr	r2, [r4, #24]
    8e38:	e1520003 	cmp	r2, r3
    8e3c:	2594300c 	ldrcs	r3, [r4, #12]
    8e40:	25843018 	strcs	r3, [r4, #24]
    8e44:	e321f01f 	msr	CPSR_c, #31, 0
    8e48:	e2866001 	add	r6, r6, #1, 0
    8e4c:	e1590006 	cmp	r9, r6
    8e50:	0a000002 	beq	8e60 <chIQReadTimeout+0xa0>
    8e54:	e321f09f 	msr	CPSR_c, #159, 0	; 0x9f
    8e58:	eaffffe0 	b	8de0 <chIQReadTimeout+0x20>
    8e5c:	e321f01f 	msr	CPSR_c, #31, 0
    8e60:	e1a00006 	mov	r0, r6
    8e64:	e8bd87f0 	pop	{r4, r5, r6, r7, r8, r9, sl, pc}
	...

00008e70 <chOQInit>:
    8e70:	e52de004 	push	{lr}		; (str lr, [sp, #-4]!)
    8e74:	e59dc004 	ldr	ip, [sp, #4]
    8e78:	e081e002 	add	lr, r1, r2
    8e7c:	e5800004 	str	r0, [r0, #4]
    8e80:	e5800000 	str	r0, [r0]
    8e84:	e5802008 	str	r2, [r0, #8]
    8e88:	e580e010 	str	lr, [r0, #16]
    8e8c:	e5801014 	str	r1, [r0, #20]
    8e90:	e5801018 	str	r1, [r0, #24]
    8e94:	e580100c 	str	r1, [r0, #12]
    8e98:	e580301c 	str	r3, [r0, #28]
    8e9c:	e580c020 	str	ip, [r0, #32]
    8ea0:	e49df004 	pop	{pc}		; (ldr pc, [sp], #4)
	...

00008eb0 <chOQPutTimeout>:
    8eb0:	e92d4070 	push	{r4, r5, r6, lr}
    8eb4:	e1a04000 	mov	r4, r0
    8eb8:	e1a06001 	mov	r6, r1
    8ebc:	e1a05002 	mov	r5, r2
    8ec0:	e321f09f 	msr	CPSR_c, #159, 0	; 0x9f
    8ec4:	ea000004 	b	8edc <chOQPutTimeout+0x2c>
    8ec8:	e1a01005 	mov	r1, r5
    8ecc:	e1a00004 	mov	r0, r4
    8ed0:	ebffff56 	bl	8c30 <qwait>
    8ed4:	e3500000 	cmp	r0, #0, 0
    8ed8:	ba000015 	blt	8f34 <chOQPutTimeout+0x84>
    8edc:	e5943008 	ldr	r3, [r4, #8]
    8ee0:	e3530000 	cmp	r3, #0, 0
    8ee4:	0afffff7 	beq	8ec8 <chOQPutTimeout+0x18>
    8ee8:	e5942014 	ldr	r2, [r4, #20]
    8eec:	e2433001 	sub	r3, r3, #1, 0
    8ef0:	e2821001 	add	r1, r2, #1, 0
    8ef4:	e5841014 	str	r1, [r4, #20]
    8ef8:	e5843008 	str	r3, [r4, #8]
    8efc:	e5c26000 	strb	r6, [r2]
    8f00:	e5943010 	ldr	r3, [r4, #16]
    8f04:	e5942014 	ldr	r2, [r4, #20]
    8f08:	e1520003 	cmp	r2, r3
    8f0c:	2594300c 	ldrcs	r3, [r4, #12]
    8f10:	25843014 	strcs	r3, [r4, #20]
    8f14:	e594301c 	ldr	r3, [r4, #28]
    8f18:	e3530000 	cmp	r3, #0, 0
    8f1c:	0a000001 	beq	8f28 <chOQPutTimeout+0x78>
    8f20:	e1a00004 	mov	r0, r4
    8f24:	e12fff33 	blx	r3
    8f28:	e321f01f 	msr	CPSR_c, #31, 0
    8f2c:	e3a00000 	mov	r0, #0, 0
    8f30:	e8bd8070 	pop	{r4, r5, r6, pc}
    8f34:	e321f01f 	msr	CPSR_c, #31, 0
    8f38:	e8bd8070 	pop	{r4, r5, r6, pc}
    8f3c:	00000000 	andeq	r0, r0, r0

00008f40 <chOQGetI>:
    8f40:	e5902018 	ldr	r2, [r0, #24]
    8f44:	e5901014 	ldr	r1, [r0, #20]
    8f48:	e5903008 	ldr	r3, [r0, #8]
    8f4c:	e1510002 	cmp	r1, r2
    8f50:	0a000016 	beq	8fb0 <chOQGetI+0x70>
    8f54:	e92d4010 	push	{r4, lr}
    8f58:	e590c010 	ldr	ip, [r0, #16]
    8f5c:	e2833001 	add	r3, r3, #1, 0
    8f60:	e2821001 	add	r1, r2, #1, 0
    8f64:	e151000c 	cmp	r1, ip
    8f68:	e5803008 	str	r3, [r0, #8]
    8f6c:	e5801018 	str	r1, [r0, #24]
    8f70:	e5d24000 	ldrb	r4, [r2]
    8f74:	2590300c 	ldrcs	r3, [r0, #12]
    8f78:	e5902000 	ldr	r2, [r0]
    8f7c:	25803018 	strcs	r3, [r0, #24]
    8f80:	e1520000 	cmp	r2, r0
    8f84:	0a000007 	beq	8fa8 <chOQGetI+0x68>
    8f88:	e1a03000 	mov	r3, r0
    8f8c:	e5921000 	ldr	r1, [r2]
    8f90:	e1a00002 	mov	r0, r2
    8f94:	e5831000 	str	r1, [r3]
    8f98:	e5813004 	str	r3, [r1, #4]
    8f9c:	ebfffd3f 	bl	84a0 <chSchReadyI>
    8fa0:	e3a03000 	mov	r3, #0, 0
    8fa4:	e5803024 	str	r3, [r0, #36]	; 0x24
    8fa8:	e1a00004 	mov	r0, r4
    8fac:	e8bd8010 	pop	{r4, pc}
    8fb0:	e3530000 	cmp	r3, #0, 0
    8fb4:	0affffe6 	beq	8f54 <chOQGetI+0x14>
    8fb8:	e3e00002 	mvn	r0, #2, 0
    8fbc:	e12fff1e 	bx	lr

00008fc0 <chOQWriteTimeout>:
    8fc0:	e92d47f0 	push	{r4, r5, r6, r7, r8, r9, sl, lr}
    8fc4:	e1a04000 	mov	r4, r0
    8fc8:	e1a05001 	mov	r5, r1
    8fcc:	e1a06002 	mov	r6, r2
    8fd0:	e1a09003 	mov	r9, r3
    8fd4:	e590801c 	ldr	r8, [r0, #28]
    8fd8:	e321f09f 	msr	CPSR_c, #159, 0	; 0x9f
    8fdc:	e3a07000 	mov	r7, #0, 0
    8fe0:	e5943008 	ldr	r3, [r4, #8]
    8fe4:	e3530000 	cmp	r3, #0, 0
    8fe8:	e2432001 	sub	r2, r3, #1, 0
    8fec:	0a000017 	beq	9050 <chOQWriteTimeout+0x90>
    8ff0:	e5943014 	ldr	r3, [r4, #20]
    8ff4:	e5842008 	str	r2, [r4, #8]
    8ff8:	e2832001 	add	r2, r3, #1, 0
    8ffc:	e5842014 	str	r2, [r4, #20]
    9000:	e4d52001 	ldrb	r2, [r5], #1
    9004:	e5c32000 	strb	r2, [r3]
    9008:	e5943010 	ldr	r3, [r4, #16]
    900c:	e5942014 	ldr	r2, [r4, #20]
    9010:	e1520003 	cmp	r2, r3
    9014:	2594300c 	ldrcs	r3, [r4, #12]
    9018:	25843014 	strcs	r3, [r4, #20]
    901c:	e3580000 	cmp	r8, #0, 0
    9020:	0a000001 	beq	902c <chOQWriteTimeout+0x6c>
    9024:	e1a00004 	mov	r0, r4
    9028:	e12fff38 	blx	r8
    902c:	e321f01f 	msr	CPSR_c, #31, 0
    9030:	e2566001 	subs	r6, r6, #1, 0
    9034:	e2877001 	add	r7, r7, #1, 0
    9038:	0a00000a 	beq	9068 <chOQWriteTimeout+0xa8>
    903c:	e321f09f 	msr	CPSR_c, #159, 0	; 0x9f
    9040:	e5943008 	ldr	r3, [r4, #8]
    9044:	e3530000 	cmp	r3, #0, 0
    9048:	e2432001 	sub	r2, r3, #1, 0
    904c:	1affffe7 	bne	8ff0 <chOQWriteTimeout+0x30>
    9050:	e1a01009 	mov	r1, r9
    9054:	e1a00004 	mov	r0, r4
    9058:	ebfffef4 	bl	8c30 <qwait>
    905c:	e3500000 	cmp	r0, #0, 0
    9060:	0affffde 	beq	8fe0 <chOQWriteTimeout+0x20>
    9064:	e321f01f 	msr	CPSR_c, #31, 0
    9068:	e1a00007 	mov	r0, r7
    906c:	e8bd87f0 	pop	{r4, r5, r6, r7, r8, r9, sl, pc}

00009070 <_core_init>:
    9070:	e59f201c 	ldr	r2, [pc, #28]	; 9094 <_core_init+0x24>
    9074:	e59f301c 	ldr	r3, [pc, #28]	; 9098 <_core_init+0x28>
    9078:	e59f001c 	ldr	r0, [pc, #28]	; 909c <_core_init+0x2c>
    907c:	e59f101c 	ldr	r1, [pc, #28]	; 90a0 <_core_init+0x30>
    9080:	e3c22003 	bic	r2, r2, #3, 0
    9084:	e3c33003 	bic	r3, r3, #3, 0
    9088:	e5802000 	str	r2, [r0]
    908c:	e5813000 	str	r3, [r1]
    9090:	e12fff1e 	bx	lr
    9094:	0000a19f 	muleq	r0, pc, r1	; <UNPREDICTABLE>
    9098:	06007b44 	streq	r7, [r0], -r4, asr #22
    909c:	00009e24 	andeq	r9, r0, r4, lsr #28
    90a0:	00009e20 	andeq	r9, r0, r0, lsr #28
	...

000090b0 <chCoreAlloc>:
    90b0:	e1a03000 	mov	r3, r0
    90b4:	e321f09f 	msr	CPSR_c, #159, 0	; 0x9f
    90b8:	e59f102c 	ldr	r1, [pc, #44]	; 90ec <chCoreAlloc+0x3c>
    90bc:	e59f202c 	ldr	r2, [pc, #44]	; 90f0 <chCoreAlloc+0x40>
    90c0:	e5910000 	ldr	r0, [r1]
    90c4:	e5922000 	ldr	r2, [r2]
    90c8:	e2833003 	add	r3, r3, #3, 0
    90cc:	e3c33003 	bic	r3, r3, #3, 0
    90d0:	e0422000 	sub	r2, r2, r0
    90d4:	e1530002 	cmp	r3, r2
    90d8:	90803003 	addls	r3, r0, r3
    90dc:	95813000 	strls	r3, [r1]
    90e0:	83a00000 	movhi	r0, #0, 0
    90e4:	e321f01f 	msr	CPSR_c, #31, 0
    90e8:	e12fff1e 	bx	lr
    90ec:	00009e24 	andeq	r9, r0, r4, lsr #28
    90f0:	00009e20 	andeq	r9, r0, r0, lsr #28
	...

00009100 <_heap_init>:
    9100:	e3a02000 	mov	r2, #0, 0
    9104:	e59f3014 	ldr	r3, [pc, #20]	; 9120 <_heap_init+0x20>
    9108:	e59f1014 	ldr	r1, [pc, #20]	; 9124 <_heap_init+0x24>
    910c:	e283000c 	add	r0, r3, #12, 0
    9110:	e5832004 	str	r2, [r3, #4]
    9114:	e5832008 	str	r2, [r3, #8]
    9118:	e5831000 	str	r1, [r3]
    911c:	eafffe07 	b	8940 <chMtxInit>
    9120:	00009e28 	andeq	r9, r0, r8, lsr #28
    9124:	000090b0 	strheq	r9, [r0], -r0
	...

00009130 <chHeapFree>:
    9130:	e92d4070 	push	{r4, r5, r6, lr}
    9134:	e1a06000 	mov	r6, r0
    9138:	e5100008 	ldr	r0, [r0, #-8]
    913c:	e2464008 	sub	r4, r6, #8, 0
    9140:	e2805004 	add	r5, r0, #4, 0
    9144:	e280000c 	add	r0, r0, #12, 0
    9148:	ebfffe64 	bl	8ae0 <chMtxLock>
    914c:	e1a03005 	mov	r3, r5
    9150:	ea000002 	b	9160 <chHeapFree+0x30>
    9154:	e1540002 	cmp	r4, r2
    9158:	3a00000a 	bcc	9188 <chHeapFree+0x58>
    915c:	e1a03002 	mov	r3, r2
    9160:	e0432005 	sub	r2, r3, r5
    9164:	e16f2f12 	clz	r2, r2
    9168:	e1a022a2 	lsr	r2, r2, #5
    916c:	e1530004 	cmp	r3, r4
    9170:	33822001 	orrcc	r2, r2, #1, 0
    9174:	e3520000 	cmp	r2, #0, 0
    9178:	e5932000 	ldr	r2, [r3]
    917c:	0afffff6 	beq	915c <chHeapFree+0x2c>
    9180:	e3520000 	cmp	r2, #0, 0
    9184:	1afffff2 	bne	9154 <chHeapFree+0x24>
    9188:	e5062008 	str	r2, [r6, #-8]
    918c:	e5162004 	ldr	r2, [r6, #-4]
    9190:	e5834000 	str	r4, [r3]
    9194:	e5161008 	ldr	r1, [r6, #-8]
    9198:	e0860002 	add	r0, r6, r2
    919c:	e1510000 	cmp	r1, r0
    91a0:	05910004 	ldreq	r0, [r1, #4]
    91a4:	02822008 	addeq	r2, r2, #8, 0
    91a8:	05911000 	ldreq	r1, [r1]
    91ac:	00802002 	addeq	r2, r0, r2
    91b0:	09060006 	stmdbeq	r6, {r1, r2}
    91b4:	e5931004 	ldr	r1, [r3, #4]
    91b8:	e2812008 	add	r2, r1, #8, 0
    91bc:	e0832002 	add	r2, r3, r2
    91c0:	e1540002 	cmp	r4, r2
    91c4:	0a000001 	beq	91d0 <chHeapFree+0xa0>
    91c8:	e8bd4070 	pop	{r4, r5, r6, lr}
    91cc:	eafffe4b 	b	8b00 <chMtxUnlock>
    91d0:	e9160005 	ldmdb	r6, {r0, r2}
    91d4:	e2822008 	add	r2, r2, #8, 0
    91d8:	e0821001 	add	r1, r2, r1
    91dc:	e1c300f0 	strd	r0, [r3]
    91e0:	e8bd4070 	pop	{r4, r5, r6, lr}
    91e4:	eafffe45 	b	8b00 <chMtxUnlock>
	...

000091f0 <halInit>:
    91f0:	e92d4010 	push	{r4, lr}
    91f4:	eb0000c9 	bl	9520 <hal_lld_init>
    91f8:	eb00009c 	bl	9470 <tmInit>
    91fc:	e59f0014 	ldr	r0, [pc, #20]	; 9218 <halInit+0x28>
    9200:	eb0000fe 	bl	9600 <_pal_lld_init>
    9204:	eb000005 	bl	9220 <i2cInit>
    9208:	eb000030 	bl	92d0 <sdInit>
    920c:	eb00006f 	bl	93d0 <spiInit>
    9210:	e8bd4010 	pop	{r4, lr}
    9214:	ea00027d 	b	9c10 <boardInit>
    9218:	00009dd0 	ldrdeq	r9, [r0], -r0
    921c:	00000000 	andeq	r0, r0, r0

00009220 <i2cInit>:
    9220:	ea0001ea 	b	99d0 <i2c_lld_init>
	...

00009230 <i2cObjectInit>:
    9230:	e3a02001 	mov	r2, #1, 0
    9234:	e3a03000 	mov	r3, #0, 0
    9238:	e5c02000 	strb	r2, [r0]
    923c:	e5803004 	str	r3, [r0, #4]
    9240:	e2800010 	add	r0, r0, #16, 0
    9244:	eafffdbd 	b	8940 <chMtxInit>
	...

00009250 <readt>:
    9250:	e280000c 	add	r0, r0, #12, 0
    9254:	eafffed9 	b	8dc0 <chIQReadTimeout>
	...

00009260 <read>:
    9260:	e280000c 	add	r0, r0, #12, 0
    9264:	e3e03000 	mvn	r3, #0, 0
    9268:	eafffed4 	b	8dc0 <chIQReadTimeout>
    926c:	00000000 	andeq	r0, r0, r0

00009270 <writet>:
    9270:	e2800030 	add	r0, r0, #48, 0	; 0x30
    9274:	eaffff51 	b	8fc0 <chOQWriteTimeout>
	...

00009280 <write>:
    9280:	e2800030 	add	r0, r0, #48, 0	; 0x30
    9284:	e3e03000 	mvn	r3, #0, 0
    9288:	eaffff4c 	b	8fc0 <chOQWriteTimeout>
    928c:	00000000 	andeq	r0, r0, r0

00009290 <gett>:
    9290:	e280000c 	add	r0, r0, #12, 0
    9294:	eafffea9 	b	8d40 <chIQGetTimeout>
	...

000092a0 <get>:
    92a0:	e280000c 	add	r0, r0, #12, 0
    92a4:	e3e01000 	mvn	r1, #0, 0
    92a8:	eafffea4 	b	8d40 <chIQGetTimeout>
    92ac:	00000000 	andeq	r0, r0, r0

000092b0 <putt>:
    92b0:	e2800030 	add	r0, r0, #48, 0	; 0x30
    92b4:	eafffefd 	b	8eb0 <chOQPutTimeout>
	...

000092c0 <put>:
    92c0:	e2800030 	add	r0, r0, #48, 0	; 0x30
    92c4:	e3e02000 	mvn	r2, #0, 0
    92c8:	eafffef8 	b	8eb0 <chOQPutTimeout>
    92cc:	00000000 	andeq	r0, r0, r0

000092d0 <sdInit>:
    92d0:	ea000162 	b	9860 <sd_lld_init>
	...

000092e0 <sdObjectInit>:
    92e0:	e92d4030 	push	{r4, r5, lr}
    92e4:	e3a0c001 	mov	ip, #1, 0
    92e8:	e1a04000 	mov	r4, r0
    92ec:	e1a05002 	mov	r5, r2
    92f0:	e59f3044 	ldr	r3, [pc, #68]	; 933c <sdObjectInit+0x5c>
    92f4:	e24dd00c 	sub	sp, sp, #12, 0
    92f8:	e58d0000 	str	r0, [sp]
    92fc:	e4803004 	str	r3, [r0], #4
    9300:	e5840004 	str	r0, [r4, #4]
    9304:	e1a03001 	mov	r3, r1
    9308:	e5c4c008 	strb	ip, [r4, #8]
    930c:	e2841054 	add	r1, r4, #84, 0	; 0x54
    9310:	e284000c 	add	r0, r4, #12, 0
    9314:	e3a02010 	mov	r2, #16, 0
    9318:	ebfffe54 	bl	8c70 <chIQInit>
    931c:	e58d4000 	str	r4, [sp]
    9320:	e1a03005 	mov	r3, r5
    9324:	e2841064 	add	r1, r4, #100, 0	; 0x64
    9328:	e2840030 	add	r0, r4, #48, 0	; 0x30
    932c:	e3a02010 	mov	r2, #16, 0
    9330:	ebfffece 	bl	8e70 <chOQInit>
    9334:	e28dd00c 	add	sp, sp, #12, 0
    9338:	e8bd8030 	pop	{r4, r5, pc}
    933c:	00009db0 			; <UNDEFINED> instruction: 0x00009db0

00009340 <sdIncomingDataI>:
    9340:	e5903014 	ldr	r3, [r0, #20]
    9344:	e92d4070 	push	{r4, r5, r6, lr}
    9348:	e3530000 	cmp	r3, #0, 0
    934c:	e1a04000 	mov	r4, r0
    9350:	e1a05001 	mov	r5, r1
    9354:	0a000008 	beq	937c <sdIncomingDataI+0x3c>
    9358:	e1a01005 	mov	r1, r5
    935c:	e284000c 	add	r0, r4, #12, 0
    9360:	ebfffe52 	bl	8cb0 <chIQPutI>
    9364:	e3500000 	cmp	r0, #0, 0
    9368:	a8bd8070 	popge	{r4, r5, r6, pc}
    936c:	e2840004 	add	r0, r4, #4, 0
    9370:	e3a01080 	mov	r1, #128, 0	; 0x80
    9374:	e8bd4070 	pop	{r4, r5, r6, lr}
    9378:	eafffe1c 	b	8bf0 <chEvtBroadcastFlagsI>
    937c:	e3a01004 	mov	r1, #4, 0
    9380:	e0800001 	add	r0, r0, r1
    9384:	ebfffe19 	bl	8bf0 <chEvtBroadcastFlagsI>
    9388:	eafffff2 	b	9358 <sdIncomingDataI+0x18>
    938c:	00000000 	andeq	r0, r0, r0

00009390 <sdRequestDataI>:
    9390:	e92d4070 	push	{r4, r5, r6, lr}
    9394:	e1a04000 	mov	r4, r0
    9398:	e2800030 	add	r0, r0, #48, 0	; 0x30
    939c:	ebfffee7 	bl	8f40 <chOQGetI>
    93a0:	e2505000 	subs	r5, r0, #0, 0
    93a4:	ba000001 	blt	93b0 <sdRequestDataI+0x20>
    93a8:	e1a00005 	mov	r0, r5
    93ac:	e8bd8070 	pop	{r4, r5, r6, pc}
    93b0:	e2840004 	add	r0, r4, #4, 0
    93b4:	e3a01008 	mov	r1, #8, 0
    93b8:	ebfffe0c 	bl	8bf0 <chEvtBroadcastFlagsI>
    93bc:	e1a00005 	mov	r0, r5
    93c0:	e8bd8070 	pop	{r4, r5, r6, pc}
	...

000093d0 <spiInit>:
    93d0:	ea0001e6 	b	9b70 <spi_lld_init>
	...

000093e0 <spiObjectInit>:
    93e0:	e3a03000 	mov	r3, #0, 0
    93e4:	e3a02001 	mov	r2, #1, 0
    93e8:	e5803004 	str	r3, [r0, #4]
    93ec:	e5c02000 	strb	r2, [r0]
    93f0:	e5803008 	str	r3, [r0, #8]
    93f4:	e280000c 	add	r0, r0, #12, 0
    93f8:	eafffd50 	b	8940 <chMtxInit>
    93fc:	00000000 	andeq	r0, r0, r0

00009400 <tm_start>:
    9400:	e59f3008 	ldr	r3, [pc, #8]	; 9410 <tm_start+0x10>
    9404:	e5933004 	ldr	r3, [r3, #4]
    9408:	e5803008 	str	r3, [r0, #8]
    940c:	e12fff1e 	bx	lr
    9410:	20003000 	andcs	r3, r0, r0
	...

00009420 <tm_stop>:
    9420:	e59f303c 	ldr	r3, [pc, #60]	; 9464 <tm_stop+0x44>
    9424:	e59f203c 	ldr	r2, [pc, #60]	; 9468 <tm_stop+0x48>
    9428:	e5933004 	ldr	r3, [r3, #4]
    942c:	e5922000 	ldr	r2, [r2]
    9430:	e5901008 	ldr	r1, [r0, #8]
    9434:	e0433002 	sub	r3, r3, r2
    9438:	e590200c 	ldr	r2, [r0, #12]
    943c:	e0433001 	sub	r3, r3, r1
    9440:	e1530002 	cmp	r3, r2
    9444:	e5803008 	str	r3, [r0, #8]
    9448:	9a000001 	bls	9454 <tm_stop+0x34>
    944c:	e580300c 	str	r3, [r0, #12]
    9450:	e12fff1e 	bx	lr
    9454:	e5902010 	ldr	r2, [r0, #16]
    9458:	e1530002 	cmp	r3, r2
    945c:	35803010 	strcc	r3, [r0, #16]
    9460:	e12fff1e 	bx	lr
    9464:	20003000 	andcs	r3, r0, r0
    9468:	00009e44 	andeq	r9, r0, r4, asr #28
    946c:	00000000 	andeq	r0, r0, r0

00009470 <tmInit>:
    9470:	e3a03000 	mov	r3, #0, 0
    9474:	e3e01000 	mvn	r1, #0, 0
    9478:	e92d4010 	push	{r4, lr}
    947c:	e59f4040 	ldr	r4, [pc, #64]	; 94c4 <tmInit+0x54>
    9480:	e24dd018 	sub	sp, sp, #24, 0
    9484:	e59f203c 	ldr	r2, [pc, #60]	; 94c8 <tmInit+0x58>
    9488:	e58d300c 	str	r3, [sp, #12]
    948c:	e58d3010 	str	r3, [sp, #16]
    9490:	e5843000 	str	r3, [r4]
    9494:	e58d1014 	str	r1, [sp, #20]
    9498:	e5921004 	ldr	r1, [r2, #4]
    949c:	e59f3028 	ldr	r3, [pc, #40]	; 94cc <tmInit+0x5c>
    94a0:	e59f2028 	ldr	r2, [pc, #40]	; 94d0 <tmInit+0x60>
    94a4:	e28d0004 	add	r0, sp, #4, 0
    94a8:	e1cd20f4 	strd	r2, [sp, #4]
    94ac:	e58d100c 	str	r1, [sp, #12]
    94b0:	ebffffda 	bl	9420 <tm_stop>
    94b4:	e59d300c 	ldr	r3, [sp, #12]
    94b8:	e5843000 	str	r3, [r4]
    94bc:	e28dd018 	add	sp, sp, #24, 0
    94c0:	e8bd8010 	pop	{r4, pc}
    94c4:	00009e44 	andeq	r9, r0, r4, asr #28
    94c8:	20003000 	andcs	r3, r0, r0
    94cc:	00009420 	andeq	r9, r0, r0, lsr #8
    94d0:	00009400 	andeq	r9, r0, r0, lsl #8
	...

000094e0 <IrqHandler>:
    94e0:	e92d500f 	push	{r0, r1, r2, r3, ip, lr}
    94e4:	ebfffb5d 	bl	8260 <chSysTimerHandlerI>
    94e8:	e3a02000 	mov	r2, #0, 0
    94ec:	e59f301c 	ldr	r3, [pc, #28]	; 9510 <IrqHandler+0x30>
    94f0:	e59f001c 	ldr	r0, [pc, #28]	; 9514 <IrqHandler+0x34>
    94f4:	e583240c 	str	r2, [r3, #1036]	; 0x40c
    94f8:	eb0000ac 	bl	97b0 <sd_lld_serve_interrupt>
    94fc:	e59f0014 	ldr	r0, [pc, #20]	; 9518 <IrqHandler+0x38>
    9500:	eb0000de 	bl	9880 <i2c_lld_serve_interrupt>
    9504:	e59f0010 	ldr	r0, [pc, #16]	; 951c <IrqHandler+0x3c>
    9508:	eb000138 	bl	99f0 <spi_lld_serve_interrupt>
    950c:	eafffafb 	b	8100 <_port_irq_common>
    9510:	2000b000 	andcs	fp, r0, r0
    9514:	0000a080 	andeq	sl, r0, r0, lsl #1
    9518:	0000a134 	andeq	sl, r0, r4, lsr r1
    951c:	0000a174 	andeq	sl, r0, r4, ror r1

00009520 <hal_lld_init>:
    9520:	e52de004 	push	{lr}		; (str lr, [sp, #-4]!)
    9524:	e3a0c0f9 	mov	ip, #249, 0	; 0xf9
    9528:	e3a0e83e 	mov	lr, #4063232	; 0x3e0000
    952c:	e3a00000 	mov	r0, #0, 0
    9530:	e59f302c 	ldr	r3, [pc, #44]	; 9564 <hal_lld_init+0x44>
    9534:	e59f202c 	ldr	r2, [pc, #44]	; 9568 <hal_lld_init+0x48>
    9538:	e59f102c 	ldr	r1, [pc, #44]	; 956c <hal_lld_init+0x4c>
    953c:	e583e408 	str	lr, [r3, #1032]	; 0x408
    9540:	e5832400 	str	r2, [r3, #1024]	; 0x400
    9544:	e5832418 	str	r2, [r3, #1048]	; 0x418
    9548:	e583c41c 	str	ip, [r3, #1052]	; 0x41c
    954c:	e583040c 	str	r0, [r3, #1036]	; 0x40c
    9550:	e5831408 	str	r1, [r3, #1032]	; 0x408
    9554:	e5932218 	ldr	r2, [r3, #536]	; 0x218
    9558:	e3822001 	orr	r2, r2, #1, 0
    955c:	e5832218 	str	r2, [r3, #536]	; 0x218
    9560:	e49df004 	pop	{pc}		; (ldr pc, [sp], #4)
    9564:	2000b000 	andcs	fp, r0, r0
    9568:	000003e7 	andeq	r0, r0, r7, ror #7
    956c:	003e00a2 	eorseq	r0, lr, r2, lsr #1

00009570 <set_gpio_in.isra.0>:
    9570:	e92d4070 	push	{r4, r5, r6, lr}
    9574:	e1a06000 	mov	r6, r0
    9578:	e1a05001 	mov	r5, r1
    957c:	e3a04000 	mov	r4, #0, 0
    9580:	ea000003 	b	9594 <set_gpio_in.isra.0+0x24>
    9584:	e2844001 	add	r4, r4, #1, 0
    9588:	e3540020 	cmp	r4, #32, 0
    958c:	e1a050a5 	lsr	r5, r5, #1
    9590:	08bd8070 	popeq	{r4, r5, r6, pc}
    9594:	e3150001 	tst	r5, #1, 0
    9598:	0afffff9 	beq	9584 <set_gpio_in.isra.0+0x14>
    959c:	e5960000 	ldr	r0, [r6]
    95a0:	e3a01000 	mov	r1, #0, 0
    95a4:	e0840000 	add	r0, r4, r0
    95a8:	eb000174 	bl	9b80 <bcm2835_gpio_fnsel>
    95ac:	eafffff4 	b	9584 <set_gpio_in.isra.0+0x14>

000095b0 <set_gpio_pud.isra.1>:
    95b0:	e92d4070 	push	{r4, r5, r6, lr}
    95b4:	e1a05000 	mov	r5, r0
    95b8:	e1a06001 	mov	r6, r1
    95bc:	e59f402c 	ldr	r4, [pc, #44]	; 95f0 <set_gpio_pud.isra.1+0x40>
    95c0:	e3a00096 	mov	r0, #150, 0	; 0x96
    95c4:	e5842094 	str	r2, [r4, #148]	; 0x94
    95c8:	eb000180 	bl	9bd0 <bcm2835_delay>
    95cc:	e5953000 	ldr	r3, [r5]
    95d0:	e3a00096 	mov	r0, #150, 0	; 0x96
    95d4:	e5836000 	str	r6, [r3]
    95d8:	eb00017c 	bl	9bd0 <bcm2835_delay>
    95dc:	e3a03000 	mov	r3, #0, 0
    95e0:	e5952000 	ldr	r2, [r5]
    95e4:	e5843094 	str	r3, [r4, #148]	; 0x94
    95e8:	e5823000 	str	r3, [r2]
    95ec:	e8bd8070 	pop	{r4, r5, r6, pc}
    95f0:	20200000 	eorcs	r0, r0, r0
	...

00009600 <_pal_lld_init>:
    9600:	e59f3068 	ldr	r3, [pc, #104]	; 9670 <_pal_lld_init+0x70>
    9604:	e59f1068 	ldr	r1, [pc, #104]	; 9674 <_pal_lld_init+0x74>
    9608:	e92d4010 	push	{r4, lr}
    960c:	e59fc064 	ldr	ip, [pc, #100]	; 9678 <_pal_lld_init+0x78>
    9610:	e59fe064 	ldr	lr, [pc, #100]	; 967c <_pal_lld_init+0x7c>
    9614:	e59f2064 	ldr	r2, [pc, #100]	; 9680 <_pal_lld_init+0x80>
    9618:	e2830014 	add	r0, r3, #20, 0
    961c:	e5831004 	str	r1, [r3, #4]
    9620:	e3e01000 	mvn	r1, #0, 0
    9624:	e583e008 	str	lr, [r3, #8]
    9628:	e583c00c 	str	ip, [r3, #12]
    962c:	e5832010 	str	r2, [r3, #16]
    9630:	ebffffce 	bl	9570 <set_gpio_in.isra.0>
    9634:	e59f3048 	ldr	r3, [pc, #72]	; 9684 <_pal_lld_init+0x84>
    9638:	e3a02020 	mov	r2, #32, 0
    963c:	e1a00003 	mov	r0, r3
    9640:	e59f1040 	ldr	r1, [pc, #64]	; 9688 <_pal_lld_init+0x88>
    9644:	e59fe040 	ldr	lr, [pc, #64]	; 968c <_pal_lld_init+0x8c>
    9648:	e5a02014 	str	r2, [r0, #20]!
    964c:	e59fc03c 	ldr	ip, [pc, #60]	; 9690 <_pal_lld_init+0x90>
    9650:	e59f203c 	ldr	r2, [pc, #60]	; 9694 <_pal_lld_init+0x94>
    9654:	e5831004 	str	r1, [r3, #4]
    9658:	e583e008 	str	lr, [r3, #8]
    965c:	e3e01000 	mvn	r1, #0, 0
    9660:	e8bd4010 	pop	{r4, lr}
    9664:	e583c00c 	str	ip, [r3, #12]
    9668:	e5832010 	str	r2, [r3, #16]
    966c:	eaffffbf 	b	9570 <set_gpio_in.isra.0>
    9670:	0000a068 	andeq	sl, r0, r8, rrx
    9674:	2020001c 	eorcs	r0, r0, ip, lsl r0
    9678:	20200034 	eorcs	r0, r0, r4, lsr r0
    967c:	20200028 	eorcs	r0, r0, r8, lsr #32
    9680:	20200098 	mlacs	r0, r8, r0, r0
    9684:	0000a050 	andeq	sl, r0, r0, asr r0
    9688:	20200020 	eorcs	r0, r0, r0, lsr #32
    968c:	2020002c 	eorcs	r0, r0, ip, lsr #32
    9690:	20200038 	eorcs	r0, r0, r8, lsr r0
    9694:	2020009c 	mlacs	r0, ip, r0, r0
	...

000096a0 <_pal_lld_setgroupmode>:
    96a0:	e3520004 	cmp	r2, #4, 0
    96a4:	e92d4070 	push	{r4, r5, r6, lr}
    96a8:	e1a06000 	mov	r6, r0
    96ac:	e1a05001 	mov	r5, r1
    96b0:	0a00001e 	beq	9730 <_pal_lld_setgroupmode+0x90>
    96b4:	8a00000a 	bhi	96e4 <_pal_lld_setgroupmode+0x44>
    96b8:	e3520002 	cmp	r2, #2, 0
    96bc:	0a000022 	beq	974c <_pal_lld_setgroupmode+0xac>
    96c0:	e3520003 	cmp	r2, #3, 0
    96c4:	18bd8070 	popne	{r4, r5, r6, pc}
    96c8:	e2800014 	add	r0, r0, #20, 0
    96cc:	ebffffa7 	bl	9570 <set_gpio_in.isra.0>
    96d0:	e1a01005 	mov	r1, r5
    96d4:	e2860010 	add	r0, r6, #16, 0
    96d8:	e3a02002 	mov	r2, #2, 0
    96dc:	e8bd4070 	pop	{r4, r5, r6, lr}
    96e0:	eaffffb2 	b	95b0 <set_gpio_pud.isra.1>
    96e4:	e3520006 	cmp	r2, #6, 0
    96e8:	38bd8070 	popcc	{r4, r5, r6, pc}
    96ec:	e3520007 	cmp	r2, #7, 0
    96f0:	9a000001 	bls	96fc <_pal_lld_setgroupmode+0x5c>
    96f4:	e35200ff 	cmp	r2, #255, 0	; 0xff
    96f8:	18bd8070 	popne	{r4, r5, r6, pc}
    96fc:	e3a04000 	mov	r4, #0, 0
    9700:	ea000003 	b	9714 <_pal_lld_setgroupmode+0x74>
    9704:	e2844001 	add	r4, r4, #1, 0
    9708:	e3540020 	cmp	r4, #32, 0
    970c:	e1a050a5 	lsr	r5, r5, #1
    9710:	08bd8070 	popeq	{r4, r5, r6, pc}
    9714:	e3150001 	tst	r5, #1, 0
    9718:	0afffff9 	beq	9704 <_pal_lld_setgroupmode+0x64>
    971c:	e5960014 	ldr	r0, [r6, #20]
    9720:	e3a01001 	mov	r1, #1, 0
    9724:	e0840000 	add	r0, r4, r0
    9728:	eb000114 	bl	9b80 <bcm2835_gpio_fnsel>
    972c:	eafffff4 	b	9704 <_pal_lld_setgroupmode+0x64>
    9730:	e2800014 	add	r0, r0, #20, 0
    9734:	ebffff8d 	bl	9570 <set_gpio_in.isra.0>
    9738:	e1a01005 	mov	r1, r5
    973c:	e2860010 	add	r0, r6, #16, 0
    9740:	e3a02001 	mov	r2, #1, 0
    9744:	e8bd4070 	pop	{r4, r5, r6, lr}
    9748:	eaffff98 	b	95b0 <set_gpio_pud.isra.1>
    974c:	e2800014 	add	r0, r0, #20, 0
    9750:	ebffff86 	bl	9570 <set_gpio_in.isra.0>
    9754:	e1a01005 	mov	r1, r5
    9758:	e2860010 	add	r0, r6, #16, 0
    975c:	e3a02000 	mov	r2, #0, 0
    9760:	e8bd4070 	pop	{r4, r5, r6, lr}
    9764:	eaffff91 	b	95b0 <set_gpio_pud.isra.1>
	...

00009770 <_pal_lld_writeport>:
    9770:	e1e02001 	mvn	r2, r1
    9774:	e590c004 	ldr	ip, [r0, #4]
    9778:	e5903008 	ldr	r3, [r0, #8]
    977c:	e5801000 	str	r1, [r0]
    9780:	e58c1000 	str	r1, [ip]
    9784:	e5832000 	str	r2, [r3]
    9788:	e12fff1e 	bx	lr
    978c:	00000000 	andeq	r0, r0, r0

00009790 <output_notify>:
    9790:	e59f200c 	ldr	r2, [pc, #12]	; 97a4 <output_notify+0x14>
    9794:	e5923044 	ldr	r3, [r2, #68]	; 0x44
    9798:	e3833002 	orr	r3, r3, #2, 0
    979c:	e5823044 	str	r3, [r2, #68]	; 0x44
    97a0:	e12fff1e 	bx	lr
    97a4:	20215000 	eorcs	r5, r1, r0
	...

000097b0 <sd_lld_serve_interrupt>:
    97b0:	e59f209c 	ldr	r2, [pc, #156]	; 9854 <sd_lld_serve_interrupt+0xa4>
    97b4:	e92d4070 	push	{r4, r5, r6, lr}
    97b8:	e5923048 	ldr	r3, [r2, #72]	; 0x48
    97bc:	e1a05000 	mov	r5, r0
    97c0:	e2033007 	and	r3, r3, #7, 0
    97c4:	e3530004 	cmp	r3, #4, 0
    97c8:	0a000011 	beq	9814 <sd_lld_serve_interrupt+0x64>
    97cc:	e59f4080 	ldr	r4, [pc, #128]	; 9854 <sd_lld_serve_interrupt+0xa4>
    97d0:	e5943048 	ldr	r3, [r4, #72]	; 0x48
    97d4:	e2033007 	and	r3, r3, #7, 0
    97d8:	e3530002 	cmp	r3, #2, 0
    97dc:	18bd8070 	popne	{r4, r5, r6, pc}
    97e0:	e5943054 	ldr	r3, [r4, #84]	; 0x54
    97e4:	e3130020 	tst	r3, #32, 0
    97e8:	0afffffc 	beq	97e0 <sd_lld_serve_interrupt+0x30>
    97ec:	e1a00005 	mov	r0, r5
    97f0:	ebfffee6 	bl	9390 <sdRequestDataI>
    97f4:	e3500000 	cmp	r0, #0, 0
    97f8:	ba000011 	blt	9844 <sd_lld_serve_interrupt+0x94>
    97fc:	e59f2050 	ldr	r2, [pc, #80]	; 9854 <sd_lld_serve_interrupt+0xa4>
    9800:	e5923054 	ldr	r3, [r2, #84]	; 0x54
    9804:	e3130020 	tst	r3, #32, 0
    9808:	0afffffc 	beq	9800 <sd_lld_serve_interrupt+0x50>
    980c:	e5820040 	str	r0, [r2, #64]	; 0x40
    9810:	e8bd8070 	pop	{r4, r5, r6, pc}
    9814:	e5923054 	ldr	r3, [r2, #84]	; 0x54
    9818:	e3130001 	tst	r3, #1, 0
    981c:	0afffffc 	beq	9814 <sd_lld_serve_interrupt+0x64>
    9820:	e59f402c 	ldr	r4, [pc, #44]	; 9854 <sd_lld_serve_interrupt+0xa4>
    9824:	e5941040 	ldr	r1, [r4, #64]	; 0x40
    9828:	e1a00005 	mov	r0, r5
    982c:	e6ef1071 	uxtb	r1, r1
    9830:	ebfffec2 	bl	9340 <sdIncomingDataI>
    9834:	e5943054 	ldr	r3, [r4, #84]	; 0x54
    9838:	e3130001 	tst	r3, #1, 0
    983c:	1afffff8 	bne	9824 <sd_lld_serve_interrupt+0x74>
    9840:	eaffffe1 	b	97cc <sd_lld_serve_interrupt+0x1c>
    9844:	e5943044 	ldr	r3, [r4, #68]	; 0x44
    9848:	e3c33002 	bic	r3, r3, #2, 0
    984c:	e5843044 	str	r3, [r4, #68]	; 0x44
    9850:	e8bd8070 	pop	{r4, r5, r6, pc}
    9854:	20215000 	eorcs	r5, r1, r0
	...

00009860 <sd_lld_init>:
    9860:	e59f2008 	ldr	r2, [pc, #8]	; 9870 <sd_lld_init+0x10>
    9864:	e3a01000 	mov	r1, #0, 0
    9868:	e59f0004 	ldr	r0, [pc, #4]	; 9874 <sd_lld_init+0x14>
    986c:	eafffe9b 	b	92e0 <sdObjectInit>
    9870:	00009790 	muleq	r0, r0, r7
    9874:	0000a080 	andeq	sl, r0, r0, lsl #1
	...

00009880 <i2c_lld_serve_interrupt>:
    9880:	e590200c 	ldr	r2, [r0, #12]
    9884:	e5921004 	ldr	r1, [r2, #4]
    9888:	e3110c03 	tst	r1, #768	; 0x300
    988c:	0a000008 	beq	98b4 <i2c_lld_serve_interrupt+0x34>
    9890:	e5903020 	ldr	r3, [r0, #32]
    9894:	e3530000 	cmp	r3, #0, 0
    9898:	012fff1e 	bxeq	lr
    989c:	e3a01000 	mov	r1, #0, 0
    98a0:	e3e02001 	mvn	r2, #1, 0
    98a4:	e5801020 	str	r1, [r0, #32]
    98a8:	e1a00003 	mov	r0, r3
    98ac:	e5832024 	str	r2, [r3, #36]	; 0x24
    98b0:	eafffafa 	b	84a0 <chSchReadyI>
    98b4:	e3110002 	tst	r1, #2, 0
    98b8:	e52de004 	push	{lr}		; (str lr, [sp, #-4]!)
    98bc:	0a00001a 	beq	992c <i2c_lld_serve_interrupt+0xac>
    98c0:	e3110020 	tst	r1, #32, 0
    98c4:	0a00000c 	beq	98fc <i2c_lld_serve_interrupt+0x7c>
    98c8:	e590303c 	ldr	r3, [r0, #60]	; 0x3c
    98cc:	e5901038 	ldr	r1, [r0, #56]	; 0x38
    98d0:	e1510003 	cmp	r1, r3
    98d4:	9a000008 	bls	98fc <i2c_lld_serve_interrupt+0x7c>
    98d8:	e592c010 	ldr	ip, [r2, #16]
    98dc:	e5901034 	ldr	r1, [r0, #52]	; 0x34
    98e0:	e283e001 	add	lr, r3, #1, 0
    98e4:	e580e03c 	str	lr, [r0, #60]	; 0x3c
    98e8:	e7c1c003 	strb	ip, [r1, r3]
    98ec:	e590303c 	ldr	r3, [r0, #60]	; 0x3c
    98f0:	e5901038 	ldr	r1, [r0, #56]	; 0x38
    98f4:	e1530001 	cmp	r3, r1
    98f8:	3afffff6 	bcc	98d8 <i2c_lld_serve_interrupt+0x58>
    98fc:	e3a01000 	mov	r1, #0, 0
    9900:	e5903020 	ldr	r3, [r0, #32]
    9904:	e59fc0bc 	ldr	ip, [pc, #188]	; 99c8 <i2c_lld_serve_interrupt+0x148>
    9908:	e1530001 	cmp	r3, r1
    990c:	e5821000 	str	r1, [r2]
    9910:	e582c004 	str	ip, [r2, #4]
    9914:	049df004 	popeq	{pc}		; (ldreq pc, [sp], #4)
    9918:	e5801020 	str	r1, [r0, #32]
    991c:	e49de004 	pop	{lr}		; (ldr lr, [sp], #4)
    9920:	e1a00003 	mov	r0, r3
    9924:	e5831024 	str	r1, [r3, #36]	; 0x24
    9928:	eafffadc 	b	84a0 <chSchReadyI>
    992c:	e3110004 	tst	r1, #4, 0
    9930:	0a000012 	beq	9980 <i2c_lld_serve_interrupt+0x100>
    9934:	e5903030 	ldr	r3, [r0, #48]	; 0x30
    9938:	e590c02c 	ldr	ip, [r0, #44]	; 0x2c
    993c:	e153000c 	cmp	r3, ip
    9940:	249df004 	popcs	{pc}		; (ldrcs pc, [sp], #4)
    9944:	e3110010 	tst	r1, #16, 0
    9948:	049df004 	popeq	{pc}		; (ldreq pc, [sp], #4)
    994c:	e590e028 	ldr	lr, [r0, #40]	; 0x28
    9950:	e2433001 	sub	r3, r3, #1, 0
    9954:	e24cc001 	sub	ip, ip, #1, 0
    9958:	e08e3003 	add	r3, lr, r3
    995c:	e08ec00c 	add	ip, lr, ip
    9960:	e26ee002 	rsb	lr, lr, #2, 0
    9964:	e08e1003 	add	r1, lr, r3
    9968:	e5801030 	str	r1, [r0, #48]	; 0x30
    996c:	e5f31001 	ldrb	r1, [r3, #1]!
    9970:	e153000c 	cmp	r3, ip
    9974:	e5821010 	str	r1, [r2, #16]
    9978:	1afffff9 	bne	9964 <i2c_lld_serve_interrupt+0xe4>
    997c:	e49df004 	pop	{pc}		; (ldr pc, [sp], #4)
    9980:	e3110008 	tst	r1, #8, 0
    9984:	049df004 	popeq	{pc}		; (ldreq pc, [sp], #4)
    9988:	e590303c 	ldr	r3, [r0, #60]	; 0x3c
    998c:	e590c038 	ldr	ip, [r0, #56]	; 0x38
    9990:	e15c0003 	cmp	ip, r3
    9994:	949df004 	popls	{pc}		; (ldrls pc, [sp], #4)
    9998:	e3110020 	tst	r1, #32, 0
    999c:	049df004 	popeq	{pc}		; (ldreq pc, [sp], #4)
    99a0:	e592c010 	ldr	ip, [r2, #16]
    99a4:	e5901034 	ldr	r1, [r0, #52]	; 0x34
    99a8:	e283e001 	add	lr, r3, #1, 0
    99ac:	e580e03c 	str	lr, [r0, #60]	; 0x3c
    99b0:	e7c1c003 	strb	ip, [r1, r3]
    99b4:	e590303c 	ldr	r3, [r0, #60]	; 0x3c
    99b8:	e5901038 	ldr	r1, [r0, #56]	; 0x38
    99bc:	e1530001 	cmp	r3, r1
    99c0:	3afffff6 	bcc	99a0 <i2c_lld_serve_interrupt+0x120>
    99c4:	e49df004 	pop	{pc}		; (ldr pc, [sp], #4)
    99c8:	00000302 	andeq	r0, r0, r2, lsl #6
    99cc:	00000000 	andeq	r0, r0, r0

000099d0 <i2c_lld_init>:
    99d0:	e59f300c 	ldr	r3, [pc, #12]	; 99e4 <i2c_lld_init+0x14>
    99d4:	e59f200c 	ldr	r2, [pc, #12]	; 99e8 <i2c_lld_init+0x18>
    99d8:	e1a00003 	mov	r0, r3
    99dc:	e583200c 	str	r2, [r3, #12]
    99e0:	eafffe12 	b	9230 <i2cObjectInit>
    99e4:	0000a134 	andeq	sl, r0, r4, lsr r1
    99e8:	20804000 	addcs	r4, r0, r0
    99ec:	00000000 	andeq	r0, r0, r0

000099f0 <spi_lld_serve_interrupt>:
    99f0:	e59f316c 	ldr	r3, [pc, #364]	; 9b64 <spi_lld_serve_interrupt+0x174>
    99f4:	e5933208 	ldr	r3, [r3, #520]	; 0x208
    99f8:	e3130501 	tst	r3, #4194304	; 0x400000
    99fc:	012fff1e 	bxeq	lr
    9a00:	e59f3160 	ldr	r3, [pc, #352]	; 9b68 <spi_lld_serve_interrupt+0x178>
    9a04:	e92d4010 	push	{r4, lr}
    9a08:	e5932000 	ldr	r2, [r3]
    9a0c:	e1a04000 	mov	r4, r0
    9a10:	e3120801 	tst	r2, #65536	; 0x10000
    9a14:	0a000017 	beq	9a78 <spi_lld_serve_interrupt+0x88>
    9a18:	e5902024 	ldr	r2, [r0, #36]	; 0x24
    9a1c:	e3520000 	cmp	r2, #0, 0
    9a20:	0a000024 	beq	9ab8 <spi_lld_serve_interrupt+0xc8>
    9a24:	e5901004 	ldr	r1, [r0, #4]
    9a28:	e5900020 	ldr	r0, [r0, #32]
    9a2c:	e5d11004 	ldrb	r1, [r1, #4]
    9a30:	e3510000 	cmp	r1, #0, 0
    9a34:	e5931000 	ldr	r1, [r3]
    9a38:	0a000039 	beq	9b24 <spi_lld_serve_interrupt+0x134>
    9a3c:	e3110701 	tst	r1, #262144	; 0x40000
    9a40:	0a00000c 	beq	9a78 <spi_lld_serve_interrupt+0x88>
    9a44:	e1a01000 	mov	r1, r0
    9a48:	ea000001 	b	9a54 <spi_lld_serve_interrupt+0x64>
    9a4c:	e3520000 	cmp	r2, #0, 0
    9a50:	0a000007 	beq	9a74 <spi_lld_serve_interrupt+0x84>
    9a54:	e3500000 	cmp	r0, #0, 0
    9a58:	01a0c000 	moveq	ip, r0
    9a5c:	10d1c0b2 	ldrhne	ip, [r1], #2
    9a60:	e2422002 	sub	r2, r2, #2, 0
    9a64:	e583c004 	str	ip, [r3, #4]
    9a68:	e593c000 	ldr	ip, [r3]
    9a6c:	e31c0701 	tst	ip, #262144	; 0x40000
    9a70:	1afffff5 	bne	9a4c <spi_lld_serve_interrupt+0x5c>
    9a74:	e5842024 	str	r2, [r4, #36]	; 0x24
    9a78:	e59f30e8 	ldr	r3, [pc, #232]	; 9b68 <spi_lld_serve_interrupt+0x178>
    9a7c:	e5932000 	ldr	r2, [r3]
    9a80:	e3120702 	tst	r2, #524288	; 0x80000
    9a84:	08bd8010 	popeq	{r4, pc}
    9a88:	e5932000 	ldr	r2, [r3]
    9a8c:	e3120802 	tst	r2, #131072	; 0x20000
    9a90:	08bd8010 	popeq	{r4, pc}
    9a94:	e594201c 	ldr	r2, [r4, #28]
    9a98:	e5931004 	ldr	r1, [r3, #4]
    9a9c:	e3520000 	cmp	r2, #0, 0
    9aa0:	15c21000 	strbne	r1, [r2]
    9aa4:	eafffff7 	b	9a88 <spi_lld_serve_interrupt+0x98>
    9aa8:	e594201c 	ldr	r2, [r4, #28]
    9aac:	e5931004 	ldr	r1, [r3, #4]
    9ab0:	e3520000 	cmp	r2, #0, 0
    9ab4:	15c21000 	strbne	r1, [r2]
    9ab8:	e5932000 	ldr	r2, [r3]
    9abc:	e3120802 	tst	r2, #131072	; 0x20000
    9ac0:	1afffff8 	bne	9aa8 <spi_lld_serve_interrupt+0xb8>
    9ac4:	e5941004 	ldr	r1, [r4, #4]
    9ac8:	e5932000 	ldr	r2, [r3]
    9acc:	e5911000 	ldr	r1, [r1]
    9ad0:	e3c22d1a 	bic	r2, r2, #1664	; 0x680
    9ad4:	e3510000 	cmp	r1, #0, 0
    9ad8:	e5832000 	str	r2, [r3]
    9adc:	0a00000d 	beq	9b18 <spi_lld_serve_interrupt+0x128>
    9ae0:	e3a03004 	mov	r3, #4, 0
    9ae4:	e1a00004 	mov	r0, r4
    9ae8:	e5c43000 	strb	r3, [r4]
    9aec:	e12fff31 	blx	r1
    9af0:	e5d43000 	ldrb	r3, [r4]
    9af4:	e3530004 	cmp	r3, #4, 0
    9af8:	0a000006 	beq	9b18 <spi_lld_serve_interrupt+0x128>
    9afc:	e5940008 	ldr	r0, [r4, #8]
    9b00:	e3500000 	cmp	r0, #0, 0
    9b04:	0affffdb 	beq	9a78 <spi_lld_serve_interrupt+0x88>
    9b08:	e3a03000 	mov	r3, #0, 0
    9b0c:	e5843008 	str	r3, [r4, #8]
    9b10:	ebfffa62 	bl	84a0 <chSchReadyI>
    9b14:	eaffffd7 	b	9a78 <spi_lld_serve_interrupt+0x88>
    9b18:	e3a03002 	mov	r3, #2, 0
    9b1c:	e5c43000 	strb	r3, [r4]
    9b20:	eafffff5 	b	9afc <spi_lld_serve_interrupt+0x10c>
    9b24:	e3110701 	tst	r1, #262144	; 0x40000
    9b28:	0affffd2 	beq	9a78 <spi_lld_serve_interrupt+0x88>
    9b2c:	e1a01000 	mov	r1, r0
    9b30:	ea000001 	b	9b3c <spi_lld_serve_interrupt+0x14c>
    9b34:	e3520000 	cmp	r2, #0, 0
    9b38:	0affffce 	beq	9a78 <spi_lld_serve_interrupt+0x88>
    9b3c:	e3500000 	cmp	r0, #0, 0
    9b40:	01a0c000 	moveq	ip, r0
    9b44:	14d1c001 	ldrbne	ip, [r1], #1
    9b48:	e2422001 	sub	r2, r2, #1, 0
    9b4c:	e583c004 	str	ip, [r3, #4]
    9b50:	e593c000 	ldr	ip, [r3]
    9b54:	e5842024 	str	r2, [r4, #36]	; 0x24
    9b58:	e31c0701 	tst	ip, #262144	; 0x40000
    9b5c:	1afffff4 	bne	9b34 <spi_lld_serve_interrupt+0x144>
    9b60:	eaffffc4 	b	9a78 <spi_lld_serve_interrupt+0x88>
    9b64:	2000b000 	andcs	fp, r0, r0
    9b68:	20204000 	eorcs	r4, r0, r0
    9b6c:	00000000 	andeq	r0, r0, r0

00009b70 <spi_lld_init>:
    9b70:	e59f0000 	ldr	r0, [pc]	; 9b78 <spi_lld_init+0x8>
    9b74:	eafffe19 	b	93e0 <spiObjectInit>
    9b78:	0000a174 	andeq	sl, r0, r4, ror r1
    9b7c:	00000000 	andeq	r0, r0, r0

00009b80 <bcm2835_gpio_fnsel>:
    9b80:	e52de004 	push	{lr}		; (str lr, [sp, #-4]!)
    9b84:	e3a0e007 	mov	lr, #7, 0
    9b88:	e59f2038 	ldr	r2, [pc, #56]	; 9bc8 <bcm2835_gpio_fnsel+0x48>
    9b8c:	e0823092 	umull	r3, r2, r2, r0
    9b90:	e1a021a2 	lsr	r2, r2, #3
    9b94:	e1a0c102 	lsl	ip, r2, #2
    9b98:	e28c3202 	add	r3, ip, #536870912	; 0x20000000
    9b9c:	e2833602 	add	r3, r3, #2097152	; 0x200000
    9ba0:	e08c2002 	add	r2, ip, r2
    9ba4:	e0400082 	sub	r0, r0, r2, lsl #1
    9ba8:	e5932000 	ldr	r2, [r3]
    9bac:	e0800080 	add	r0, r0, r0, lsl #1
    9bb0:	e1c2201e 	bic	r2, r2, lr, lsl r0
    9bb4:	e5832000 	str	r2, [r3]
    9bb8:	e5932000 	ldr	r2, [r3]
    9bbc:	e1821011 	orr	r1, r2, r1, lsl r0
    9bc0:	e5831000 	str	r1, [r3]
    9bc4:	e49df004 	pop	{pc}		; (ldr pc, [sp], #4)
    9bc8:	cccccccd 	stclgt	12, cr12, [ip], {205}	; 0xcd
    9bcc:	00000000 	andeq	r0, r0, r0

00009bd0 <bcm2835_delay>:
    9bd0:	e3a03000 	mov	r3, #0, 0
    9bd4:	e24dd008 	sub	sp, sp, #8, 0
    9bd8:	e58d3004 	str	r3, [sp, #4]
    9bdc:	e58d3004 	str	r3, [sp, #4]
    9be0:	e59d3004 	ldr	r3, [sp, #4]
    9be4:	e1500003 	cmp	r0, r3
    9be8:	9a000005 	bls	9c04 <bcm2835_delay+0x34>
    9bec:	e59d3004 	ldr	r3, [sp, #4]
    9bf0:	e2833001 	add	r3, r3, #1, 0
    9bf4:	e58d3004 	str	r3, [sp, #4]
    9bf8:	e59d3004 	ldr	r3, [sp, #4]
    9bfc:	e1530000 	cmp	r3, r0
    9c00:	3afffff9 	bcc	9bec <bcm2835_delay+0x1c>
    9c04:	e28dd008 	add	sp, sp, #8, 0
    9c08:	e12fff1e 	bx	lr
    9c0c:	00000000 	andeq	r0, r0, r0

00009c10 <boardInit>:
    9c10:	e12fff1e 	bx	lr
	...

00009c20 <led_set>:
    9c20:	e59f0024 	ldr	r0, [pc, #36]	; 9c4c <led_set+0x2c>
    9c24:	e92d4010 	push	{r4, lr}
    9c28:	e5901000 	ldr	r1, [r0]
    9c2c:	e3811402 	orr	r1, r1, #33554432	; 0x2000000
    9c30:	ebfffece 	bl	9770 <_pal_lld_writeport>
    9c34:	e8bd4010 	pop	{r4, lr}
    9c38:	e3a03000 	mov	r3, #0, 0
    9c3c:	e59f200c 	ldr	r2, [pc, #12]	; 9c50 <led_set+0x30>
    9c40:	e3a01f7d 	mov	r1, #500	; 0x1f4
    9c44:	e59f0008 	ldr	r0, [pc, #8]	; 9c54 <led_set+0x34>
    9c48:	eafff9b0 	b	8310 <chVTSetI>
    9c4c:	0000a068 	andeq	sl, r0, r8, rrx
    9c50:	00009c60 	andeq	r9, r0, r0, ror #24
    9c54:	00009e5c 	andeq	r9, r0, ip, asr lr
	...

00009c60 <led_clear>:
    9c60:	e59f0024 	ldr	r0, [pc, #36]	; 9c8c <led_clear+0x2c>
    9c64:	e92d4010 	push	{r4, lr}
    9c68:	e5901000 	ldr	r1, [r0]
    9c6c:	e3c11402 	bic	r1, r1, #33554432	; 0x2000000
    9c70:	ebfffebe 	bl	9770 <_pal_lld_writeport>
    9c74:	e8bd4010 	pop	{r4, lr}
    9c78:	e3a03000 	mov	r3, #0, 0
    9c7c:	e59f200c 	ldr	r2, [pc, #12]	; 9c90 <led_clear+0x30>
    9c80:	e3a01f7d 	mov	r1, #500	; 0x1f4
    9c84:	e59f0008 	ldr	r0, [pc, #8]	; 9c94 <led_clear+0x34>
    9c88:	eafff9a0 	b	8310 <chVTSetI>
    9c8c:	0000a068 	andeq	sl, r0, r8, rrx
    9c90:	00009c20 	andeq	r9, r0, r0, lsr #24
    9c94:	00009e48 	andeq	r9, r0, r8, asr #28
	...

00009ca0 <evaluator>:
    9ca0:	e92d4010 	push	{r4, lr}
    9ca4:	e59f4034 	ldr	r4, [pc, #52]	; 9ce0 <evaluator+0x40>
    9ca8:	e59f3034 	ldr	r3, [pc, #52]	; 9ce4 <evaluator+0x44>
    9cac:	e1a06004 	mov	r6, r4
    9cb0:	e5933018 	ldr	r3, [r3, #24]
    9cb4:	e59f202c 	ldr	r2, [pc, #44]	; 9ce8 <evaluator+0x48>
    9cb8:	e59f502c 	ldr	r5, [pc, #44]	; 9cec <evaluator+0x4c>
    9cbc:	e5832018 	str	r2, [r3, #24]
    9cc0:	e595200c 	ldr	r2, [r5, #12]
    9cc4:	e5943000 	ldr	r3, [r4]
    9cc8:	e3520000 	cmp	r2, #0, 0
    9ccc:	e3831701 	orr	r1, r3, #262144	; 0x40000
    9cd0:	e1a00006 	mov	r0, r6
    9cd4:	03c31701 	biceq	r1, r3, #262144	; 0x40000
    9cd8:	ebfffea4 	bl	9770 <_pal_lld_writeport>
    9cdc:	eafffff7 	b	9cc0 <evaluator+0x20>
    9ce0:	0000a068 	andeq	sl, r0, r8, rrx
    9ce4:	0000a034 	andeq	sl, r0, r4, lsr r0
    9ce8:	00009dd0 	ldrdeq	r9, [r0], -r0
    9cec:	00009e48 	andeq	r9, r0, r8, asr #28

00009cf0 <main>:
    9cf0:	e92d4030 	push	{r4, r5, lr}
    9cf4:	e3a04000 	mov	r4, #0, 0
    9cf8:	e59f5068 	ldr	r5, [pc, #104]	; 9d68 <main+0x78>
    9cfc:	e24dd00c 	sub	sp, sp, #12, 0
    9d00:	ebfffd3a 	bl	91f0 <halInit>
    9d04:	ebfff935 	bl	81e0 <chSysInit>
    9d08:	e1a00005 	mov	r0, r5
    9d0c:	e3a020ff 	mov	r2, #255, 0	; 0xff
    9d10:	e3a01402 	mov	r1, #33554432	; 0x2000000
    9d14:	ebfffe61 	bl	96a0 <_pal_lld_setgroupmode>
    9d18:	e1a00005 	mov	r0, r5
    9d1c:	e3a020ff 	mov	r2, #255, 0	; 0xff
    9d20:	e3a01701 	mov	r1, #262144	; 0x40000
    9d24:	ebfffe5d 	bl	96a0 <_pal_lld_setgroupmode>
    9d28:	e58d4000 	str	r4, [sp]
    9d2c:	e59f3038 	ldr	r3, [pc, #56]	; 9d6c <main+0x7c>
    9d30:	e3a02002 	mov	r2, #2, 0
    9d34:	e3a01f46 	mov	r1, #280	; 0x118
    9d38:	e59f0030 	ldr	r0, [pc, #48]	; 9d70 <main+0x80>
    9d3c:	ebfffa8f 	bl	8780 <chThdCreateStatic>
    9d40:	e1a03004 	mov	r3, r4
    9d44:	e59f2028 	ldr	r2, [pc, #40]	; 9d74 <main+0x84>
    9d48:	e3a01f7d 	mov	r1, #500	; 0x1f4
    9d4c:	e59f0024 	ldr	r0, [pc, #36]	; 9d78 <main+0x88>
    9d50:	ebfff96e 	bl	8310 <chVTSetI>
    9d54:	e59f3020 	ldr	r3, [pc, #32]	; 9d7c <main+0x8c>
    9d58:	e5930018 	ldr	r0, [r3, #24]
    9d5c:	e28dd00c 	add	sp, sp, #12, 0
    9d60:	e8bd4030 	pop	{r4, r5, lr}
    9d64:	eafffacd 	b	88a0 <chThdWait>
    9d68:	0000a068 	andeq	sl, r0, r8, rrx
    9d6c:	00009ca0 	andeq	r9, r0, r0, lsr #25
    9d70:	00009e70 	andeq	r9, r0, r0, ror lr
    9d74:	00009c20 	andeq	r9, r0, r0, lsr #24
    9d78:	00009e48 	andeq	r9, r0, r8, asr #28
    9d7c:	0000a034 	andeq	sl, r0, r4, lsr r0
    9d80:	656c6469 	strbvs	r6, [ip, #-1129]!	; 0xfffffb97
	...

00009d90 <ch_debug>:
    9d90:	6e69616d 	powvsez	f6, f1, #5.0
    9d94:	11411600 	cmpne	r1, r0, lsl #12
    9d98:	08440404 	stmdaeq	r4, {r2, sl}^
    9d9c:	1814100c 	ldmdane	r4, {r2, r3, ip}
    9da0:	1e1d1c00 	cdpne	12, 1, cr1, cr13, cr0, {0}
    9da4:	00002000 	andeq	r2, r0, r0
	...

00009db0 <vmt>:
    9db0:	00009280 	andeq	r9, r0, r0, lsl #5
    9db4:	00009260 	andeq	r9, r0, r0, ror #4
    9db8:	000092c0 	andeq	r9, r0, r0, asr #5
    9dbc:	000092a0 	andeq	r9, r0, r0, lsr #5
    9dc0:	000092b0 			; <UNDEFINED> instruction: 0x000092b0
    9dc4:	00009290 	muleq	r0, r0, r2
    9dc8:	00009270 	andeq	r9, r0, r0, ror r2
    9dcc:	00009250 	andeq	r9, r0, r0, asr r2

00009dd0 <pal_default_config>:
    9dd0:	6c617645 	stclvs	6, cr7, [r1], #-276	; 0xfffffeec
    9dd4:	6f746175 	svcvs	0x00746175
    9dd8:	00000072 	andeq	r0, r0, r2, ror r0
