ARM GAS  /tmp/ccQClBGS.s 			page 1


   1              		.cpu arm1176jz-s
   2              		.eabi_attribute 20, 1
   3              		.eabi_attribute 21, 1
   4              		.eabi_attribute 23, 3
   5              		.eabi_attribute 24, 1
   6              		.eabi_attribute 25, 1
   7              		.eabi_attribute 26, 1
   8              		.eabi_attribute 30, 2
   9              		.eabi_attribute 34, 1
  10              		.eabi_attribute 18, 4
  11              		.file	"main.c"
  12              		.text
  13              	.Ltext0:
  14              		.cfi_sections	.debug_frame
  15              		.section	.rodata.Thread_LED1.str1.4,"aMS",%progbits,1
  16              		.align	2
  17              	.LC0:
  18 0000 626C696E 		.ascii	"blinker-1\000"
  18      6B65722D 
  18      3100
  19              		.section	.text.Thread_LED1,"ax",%progbits
  20              		.align	2
  21              		.arch armv6kz
  22              		.syntax unified
  23              		.arm
  24              		.fpu softvfp
  25              		.type	Thread_LED1, %function
  26              	Thread_LED1:
  27              	.LVL0:
  28              	.LFB7:
  29              		.file 1 "main.c"
  30              		.loc 1 26 35 view -0
  31              		.cfi_startproc
  32              		@ Volatile: function does not return.
  33              		@ args = 0, pretend = 0, frame = 0
  34              		@ frame_needed = 0, uses_anonymous_args = 0
  35              		.loc 1 27 3 view .LVU1
  36              		.loc 1 28 3 view .LVU2
  37              		.loc 1 26 35 is_stmt 0 view .LVU3
  38 0000 10402DE9 		push	{r4, lr}
  39              		.cfi_def_cfa_offset 8
  40              		.cfi_offset 4, -8
  41              		.cfi_offset 14, -4
  42 0004 44409FE5 		ldr	r4, .L5
  43              		.loc 1 28 3 view .LVU4
  44 0008 44309FE5 		ldr	r3, .L5+4
  45              		.loc 1 30 5 view .LVU5
  46 000c 0450A0E1 		mov	r5, r4
  47              		.loc 1 28 3 view .LVU6
  48 0010 183093E5 		ldr	r3, [r3, #24]
  49 0014 3C209FE5 		ldr	r2, .L5+8
  50 0018 182083E5 		str	r2, [r3, #24]
  51              	.LVL1:
  52              	.L2:
  53              		.loc 1 29 3 is_stmt 1 discriminator 1 view .LVU7
  54              		.loc 1 30 5 discriminator 1 view .LVU8
  55 001c 001094E5 		ldr	r1, [r4]
ARM GAS  /tmp/ccQClBGS.s 			page 2


  56 0020 0500A0E1 		mov	r0, r5
  57 0024 0214C1E3 		bic	r1, r1, #33554432
  58 0028 FEFFFFEB 		bl	_pal_lld_writeport
  59              	.LVL2:
  60              		.loc 1 31 5 discriminator 1 view .LVU9
  61 002c 6400A0E3 		mov	r0, #100
  62 0030 FEFFFFEB 		bl	chThdSleep
  63              	.LVL3:
  64              		.loc 1 32 5 discriminator 1 view .LVU10
  65 0034 001094E5 		ldr	r1, [r4]
  66 0038 0500A0E1 		mov	r0, r5
  67 003c 021481E3 		orr	r1, r1, #33554432
  68 0040 FEFFFFEB 		bl	_pal_lld_writeport
  69              	.LVL4:
  70              		.loc 1 33 5 discriminator 1 view .LVU11
  71 0044 E10FA0E3 		mov	r0, #900
  72 0048 FEFFFFEB 		bl	chThdSleep
  73              	.LVL5:
  74              		.loc 1 29 9 discriminator 1 view .LVU12
  75 004c F2FFFFEA 		b	.L2
  76              	.L6:
  77              		.align	2
  78              	.L5:
  79 0050 00000000 		.word	IOPORT0
  80 0054 00000000 		.word	rlist
  81 0058 00000000 		.word	.LC0
  82              		.cfi_endproc
  83              	.LFE7:
  84              		.size	Thread_LED1, .-Thread_LED1
  85              		.section	.text.startup.main,"ax",%progbits
  86              		.align	2
  87              		.global	main
  88              		.syntax unified
  89              		.arm
  90              		.fpu softvfp
  91              		.type	main, %function
  92              	main:
  93              	.LFB8:
  94              		.loc 1 42 16 view -0
  95              		.cfi_startproc
  96              		@ args = 0, pretend = 0, frame = 0
  97              		@ frame_needed = 0, uses_anonymous_args = 0
  98              		.loc 1 43 3 view .LVU14
  99              		.loc 1 42 16 is_stmt 0 view .LVU15
 100 0000 10402DE9 		push	{r4, lr}
 101              		.cfi_def_cfa_offset 8
 102              		.cfi_offset 4, -8
 103              		.cfi_offset 14, -4
 104              		.loc 1 48 3 view .LVU16
 105 0004 0040A0E3 		mov	r4, #0
 106              		.loc 1 42 16 view .LVU17
 107 0008 08D04DE2 		sub	sp, sp, #8
 108              		.cfi_def_cfa_offset 16
 109              		.loc 1 43 3 view .LVU18
 110 000c FEFFFFEB 		bl	halInit
 111              	.LVL6:
 112              		.loc 1 44 3 is_stmt 1 view .LVU19
ARM GAS  /tmp/ccQClBGS.s 			page 3


 113 0010 FEFFFFEB 		bl	chSysInit
 114              	.LVL7:
 115              		.loc 1 46 3 view .LVU20
 116 0014 FF20A0E3 		mov	r2, #255
 117 0018 0214A0E3 		mov	r1, #33554432
 118 001c 30009FE5 		ldr	r0, .L9
 119 0020 FEFFFFEB 		bl	_pal_lld_setgroupmode
 120              	.LVL8:
 121              		.loc 1 48 3 view .LVU21
 122 0024 7F20A0E3 		mov	r2, #127
 123 0028 461FA0E3 		mov	r1, #280
 124 002c 24309FE5 		ldr	r3, .L9+4
 125 0030 00408DE5 		str	r4, [sp]
 126 0034 20009FE5 		ldr	r0, .L9+8
 127 0038 FEFFFFEB 		bl	chThdCreateStatic
 128              	.LVL9:
 129              		.loc 1 51 3 view .LVU22
 130 003c 1C309FE5 		ldr	r3, .L9+12
 131 0040 180093E5 		ldr	r0, [r3, #24]
 132 0044 FEFFFFEB 		bl	chThdWait
 133              	.LVL10:
 134              		.loc 1 53 3 view .LVU23
 135              		.loc 1 54 1 is_stmt 0 view .LVU24
 136 0048 0400A0E1 		mov	r0, r4
 137 004c 08D08DE2 		add	sp, sp, #8
 138              		.cfi_def_cfa_offset 8
 139              		@ sp needed
 140 0050 1080BDE8 		pop	{r4, pc}
 141              	.L10:
 142              		.align	2
 143              	.L9:
 144 0054 00000000 		.word	IOPORT0
 145 0058 00000000 		.word	Thread_LED1
 146 005c 00000000 		.word	.LANCHOR0
 147 0060 00000000 		.word	rlist
 148              		.cfi_endproc
 149              	.LFE8:
 150              		.size	main, .-main
 151              		.section	.bss.waThread_LED1,"aw",%nobits
 152              		.align	2
 153              		.set	.LANCHOR0,. + 0
 154              		.type	waThread_LED1, %object
 155              		.size	waThread_LED1, 280
 156              	waThread_LED1:
 157 0000 00000000 		.space	280
 157      00000000 
 157      00000000 
 157      00000000 
 157      00000000 
 158              		.text
 159              	.Letext0:
 160              		.file 2 "/usr/lib/gcc/arm-none-eabi/9.2.1/include/stddef.h"
 161              		.file 3 "/usr/lib/gcc/arm-none-eabi/9.2.1/include/stdint.h"
 162              		.file 4 "../../os/ports/GCC/ARM/chtypes.h"
 163              		.file 5 "../../os/kernel/include/chlists.h"
 164              		.file 6 "../../os/kernel/include/chthreads.h"
 165              		.file 7 "../../os/ports/GCC/ARM/chcore.h"
ARM GAS  /tmp/ccQClBGS.s 			page 4


 166              		.file 8 "../../os/kernel/include/chvt.h"
 167              		.file 9 "../../os/kernel/include/chschd.h"
 168              		.file 10 "../../os/kernel/include/chmtx.h"
 169              		.file 11 "../../os/kernel/include/chevents.h"
 170              		.file 12 "../../os/kernel/include/chregistry.h"
 171              		.file 13 "../../os/kernel/include/chqueues.h"
 172              		.file 14 "../../os/kernel/include/ch.h"
 173              		.file 15 "../../os/hal/platforms/BCM2835/bcm2835.h"
 174              		.file 16 "../../os/hal/platforms/BCM2835/pal_lld.h"
 175              		.file 17 "../../os/hal/include/i2c.h"
 176              		.file 18 "../../os/hal/platforms/BCM2835/i2c_lld.h"
 177              		.file 19 "../../os/hal/include/serial.h"
 178              		.file 20 "../../os/hal/include/spi.h"
 179              		.file 21 "../../os/hal/platforms/BCM2835/spi_lld.h"
 180              		.file 22 "../../os/hal/include/hal.h"
 181              		.file 23 "../../os/kernel/include/chsys.h"
 182              		.file 24 "../../os/hal/platforms/BCM2835/serial_lld.h"