ARM GAS  /var/folders/l5/0x54b2c10074c8bt31ycjvl80000gp/T//ccHcSmAz.s 			page 1


   1              		.cpu arm1176jz-s
   2              		.eabi_attribute 20, 1
   3              		.eabi_attribute 21, 1
   4              		.eabi_attribute 23, 3
   5              		.eabi_attribute 24, 1
   6              		.eabi_attribute 25, 1
   7              		.eabi_attribute 26, 1
   8              		.eabi_attribute 30, 2
   9              		.eabi_attribute 34, 1
  10              		.eabi_attribute 18, 4
  11              		.file	"chheap.c"
  12              		.text
  13              	.Ltext0:
  14              		.cfi_sections	.debug_frame
  15              		.section	.text._heap_init,"ax",%progbits
  16              		.align	2
  17              		.global	_heap_init
  18              		.arch armv6kz
  19              		.syntax unified
  20              		.arm
  21              		.fpu softvfp
  22              		.type	_heap_init, %function
  23              	_heap_init:
  24              	.LFB7:
  25              		.file 1 "../../os/kernel/src/chheap.c"
  26              		.loc 1 68 23 view -0
  27              		.cfi_startproc
  28              		@ args = 0, pretend = 0, frame = 0
  29              		@ frame_needed = 0, uses_anonymous_args = 0
  30              		@ link register save eliminated.
  31              		.loc 1 69 3 view .LVU1
  32              		.loc 1 70 32 is_stmt 0 view .LVU2
  33 0000 0020A0E3 		mov	r2, #0
  34              		.loc 1 69 27 view .LVU3
  35 0004 14309FE5 		ldr	r3, .L3
  36 0008 14109FE5 		ldr	r1, .L3+4
  37              		.loc 1 73 3 view .LVU4
  38 000c 0C0083E2 		add	r0, r3, #12
  39              		.loc 1 70 32 view .LVU5
  40 0010 042083E5 		str	r2, [r3, #4]
  41              		.loc 1 71 30 view .LVU6
  42 0014 082083E5 		str	r2, [r3, #8]
  43              		.loc 1 69 27 view .LVU7
  44 0018 001083E5 		str	r1, [r3]
  45              		.loc 1 70 3 is_stmt 1 view .LVU8
  46              		.loc 1 71 3 view .LVU9
  47              		.loc 1 73 3 view .LVU10
  48 001c FEFFFFEA 		b	chMtxInit
  49              	.LVL0:
  50              	.L4:
  51              		.align	2
  52              	.L3:
  53 0020 00000000 		.word	.LANCHOR0
  54 0024 00000000 		.word	chCoreAlloc
  55              		.cfi_endproc
  56              	.LFE7:
  57              		.size	_heap_init, .-_heap_init
ARM GAS  /var/folders/l5/0x54b2c10074c8bt31ycjvl80000gp/T//ccHcSmAz.s 			page 2


  58              		.section	.text.chHeapInit,"ax",%progbits
  59              		.align	2
  60              		.global	chHeapInit
  61              		.syntax unified
  62              		.arm
  63              		.fpu softvfp
  64              		.type	chHeapInit, %function
  65              	chHeapInit:
  66              	.LVL1:
  67              	.LFB8:
  68              		.loc 1 92 60 view -0
  69              		.cfi_startproc
  70              		@ args = 0, pretend = 0, frame = 0
  71              		@ frame_needed = 0, uses_anonymous_args = 0
  72              		@ link register save eliminated.
  73              		.loc 1 93 3 view .LVU12
  74              		.loc 1 95 3 view .LVU13
  75              		.loc 1 95 72 view .LVU14
  76              		.loc 1 97 3 view .LVU15
  77              		.loc 1 97 21 is_stmt 0 view .LVU16
  78 0000 0030A0E3 		mov	r3, #0
  79              		.loc 1 101 21 view .LVU17
  80 0004 082042E2 		sub	r2, r2, #8
  81              	.LVL2:
  82              		.loc 1 98 26 view .LVU18
  83 0008 041080E5 		str	r1, [r0, #4]
  84              		.loc 1 97 21 view .LVU19
  85 000c 003080E5 		str	r3, [r0]
  86              		.loc 1 98 3 is_stmt 1 view .LVU20
  87              	.LVL3:
  88              		.loc 1 99 3 view .LVU21
  89              		.loc 1 99 24 is_stmt 0 view .LVU22
  90 0010 083080E5 		str	r3, [r0, #8]
  91              		.loc 1 100 3 is_stmt 1 view .LVU23
  92              		.loc 1 103 3 is_stmt 0 view .LVU24
  93 0014 0C0080E2 		add	r0, r0, #12
  94              	.LVL4:
  95              		.loc 1 101 14 view .LVU25
  96 0018 042081E5 		str	r2, [r1, #4]
  97              		.loc 1 100 16 view .LVU26
  98 001c 003081E5 		str	r3, [r1]
  99              		.loc 1 101 3 is_stmt 1 view .LVU27
 100              		.loc 1 103 3 view .LVU28
 101 0020 FEFFFFEA 		b	chMtxInit
 102              	.LVL5:
 103              		.loc 1 103 3 is_stmt 0 view .LVU29
 104              		.cfi_endproc
 105              	.LFE8:
 106              		.size	chHeapInit, .-chHeapInit
 107              		.section	.text.chHeapAlloc,"ax",%progbits
 108              		.align	2
 109              		.global	chHeapAlloc
 110              		.syntax unified
 111              		.arm
 112              		.fpu softvfp
 113              		.type	chHeapAlloc, %function
 114              	chHeapAlloc:
ARM GAS  /var/folders/l5/0x54b2c10074c8bt31ycjvl80000gp/T//ccHcSmAz.s 			page 3


 115              	.LVL6:
 116              	.LFB9:
 117              		.loc 1 125 51 is_stmt 1 view -0
 118              		.cfi_startproc
 119              		@ args = 0, pretend = 0, frame = 0
 120              		@ frame_needed = 0, uses_anonymous_args = 0
 121              		.loc 1 126 3 view .LVU31
 122              		.loc 1 128 3 view .LVU32
 123              		.loc 1 129 11 is_stmt 0 view .LVU33
 124 0000 000050E3 		cmp	r0, #0
 125              		.loc 1 125 51 view .LVU34
 126 0004 F0412DE9 		push	{r4, r5, r6, r7, r8, lr}
 127              		.cfi_def_cfa_offset 24
 128              		.cfi_offset 4, -24
 129              		.cfi_offset 5, -20
 130              		.cfi_offset 6, -16
 131              		.cfi_offset 7, -12
 132              		.cfi_offset 8, -8
 133              		.cfi_offset 14, -4
 134              		.loc 1 129 11 view .LVU35
 135 0008 A0709FE5 		ldr	r7, .L21
 136 000c 0070A011 		movne	r7, r0
 137              	.LVL7:
 138              		.loc 1 131 3 is_stmt 1 view .LVU36
 139              		.loc 1 131 10 is_stmt 0 view .LVU37
 140 0010 031081E2 		add	r1, r1, #3
 141              	.LVL8:
 142              		.loc 1 133 3 view .LVU38
 143 0014 0C0087E2 		add	r0, r7, #12
 144              		.loc 1 131 8 view .LVU39
 145 0018 0360C1E3 		bic	r6, r1, #3
 146              	.LVL9:
 147              		.loc 1 132 3 is_stmt 1 view .LVU40
 148              		.loc 1 132 6 is_stmt 0 view .LVU41
 149 001c 045087E2 		add	r5, r7, #4
 150              	.LVL10:
 151              		.loc 1 133 3 is_stmt 1 view .LVU42
 152 0020 FEFFFFEB 		bl	chMtxLock
 153              	.LVL11:
 154              		.loc 1 135 3 view .LVU43
 155              		.loc 1 135 9 is_stmt 0 view .LVU44
 156 0024 030000EA 		b	.L8
 157              	.LVL12:
 158              	.L12:
 159              		.loc 1 137 14 view .LVU45
 160 0028 043094E5 		ldr	r3, [r4, #4]
 161              		.loc 1 137 8 view .LVU46
 162 002c 060053E1 		cmp	r3, r6
 163 0030 0F00002A 		bcs	.L20
 164              		.loc 1 137 8 view .LVU47
 165 0034 0450A0E1 		mov	r5, r4
 166              	.LVL13:
 167              	.L8:
 168              		.loc 1 136 5 is_stmt 1 view .LVU48
 169              		.loc 1 135 17 is_stmt 0 view .LVU49
 170 0038 004095E5 		ldr	r4, [r5]
 171              	.LVL14:
ARM GAS  /var/folders/l5/0x54b2c10074c8bt31ycjvl80000gp/T//ccHcSmAz.s 			page 4


 172              		.loc 1 137 5 is_stmt 1 view .LVU50
 173              		.loc 1 135 9 is_stmt 0 view .LVU51
 174 003c 000054E3 		cmp	r4, #0
 175 0040 F8FFFF1A 		bne	.L12
 176              		.loc 1 160 3 is_stmt 1 view .LVU52
 177 0044 FEFFFFEB 		bl	chMtxUnlock
 178              	.LVL15:
 179              		.loc 1 164 3 view .LVU53
 180              		.loc 1 164 12 is_stmt 0 view .LVU54
 181 0048 003097E5 		ldr	r3, [r7]
 182              		.loc 1 164 6 view .LVU55
 183 004c 000053E3 		cmp	r3, #0
 184 0050 0500000A 		beq	.L6
 185              		.loc 1 165 5 is_stmt 1 view .LVU56
 186              		.loc 1 165 10 is_stmt 0 view .LVU57
 187 0054 080086E2 		add	r0, r6, #8
 188 0058 33FF2FE1 		blx	r3
 189              	.LVL16:
 190              		.loc 1 166 5 is_stmt 1 view .LVU58
 191              		.loc 1 166 8 is_stmt 0 view .LVU59
 192 005c 000050E3 		cmp	r0, #0
 193              		.loc 1 167 7 is_stmt 1 view .LVU60
 194              		.loc 1 167 20 is_stmt 0 view .LVU61
 195 0060 00708015 		strne	r7, [r0]
 196              		.loc 1 168 7 is_stmt 1 view .LVU62
 197              		.loc 1 168 18 is_stmt 0 view .LVU63
 198 0064 04608015 		strne	r6, [r0, #4]
 199              		.loc 1 169 7 is_stmt 1 view .LVU64
 200              		.loc 1 169 9 is_stmt 0 view .LVU65
 201 0068 08408012 		addne	r4, r0, #8
 202              	.LVL17:
 203              		.loc 1 170 7 is_stmt 1 view .LVU66
 204              	.L6:
 205              		.loc 1 174 1 is_stmt 0 view .LVU67
 206 006c 0400A0E1 		mov	r0, r4
 207 0070 F081BDE8 		pop	{r4, r5, r6, r7, r8, pc}
 208              	.L20:
 209              		.loc 1 138 7 is_stmt 1 view .LVU68
 210              		.loc 1 138 29 is_stmt 0 view .LVU69
 211 0074 082086E2 		add	r2, r6, #8
 212              		.loc 1 138 10 view .LVU70
 213 0078 020053E1 		cmp	r3, r2
 214 007c 001094E5 		ldr	r1, [r4]
 215              		.loc 1 142 9 is_stmt 1 view .LVU71
 216              		.loc 1 146 9 view .LVU72
 217              		.loc 1 148 61 is_stmt 0 view .LVU73
 218 0080 06304320 		subcs	r3, r3, r6
 219              		.loc 1 146 12 view .LVU74
 220 0084 02008420 		addcs	r0, r4, r2
 221              	.LVL18:
 222              		.loc 1 147 9 is_stmt 1 view .LVU75
 223              		.loc 1 148 61 is_stmt 0 view .LVU76
 224 0088 08304322 		subcs	r3, r3, #8
 225              		.loc 1 147 22 view .LVU77
 226 008c 02108427 		strcs	r1, [r4, r2]
 227              		.loc 1 148 9 is_stmt 1 view .LVU78
 228              		.loc 1 142 22 is_stmt 0 view .LVU79
ARM GAS  /var/folders/l5/0x54b2c10074c8bt31ycjvl80000gp/T//ccHcSmAz.s 			page 5


 229 0090 00108535 		strcc	r1, [r5]
 230              		.loc 1 148 20 view .LVU80
 231 0094 04308025 		strcs	r3, [r0, #4]
 232              		.loc 1 149 9 is_stmt 1 view .LVU81
 233              		.loc 1 149 22 is_stmt 0 view .LVU82
 234 0098 00008525 		strcs	r0, [r5]
 235              		.loc 1 150 9 is_stmt 1 view .LVU83
 236              		.loc 1 150 20 is_stmt 0 view .LVU84
 237 009c 04608425 		strcs	r6, [r4, #4]
 238              		.loc 1 152 7 is_stmt 1 view .LVU85
 239              		.loc 1 152 20 is_stmt 0 view .LVU86
 240 00a0 087084E4 		str	r7, [r4], #8
 241              	.LVL19:
 242              		.loc 1 154 7 is_stmt 1 view .LVU87
 243 00a4 FEFFFFEB 		bl	chMtxUnlock
 244              	.LVL20:
 245              		.loc 1 155 7 view .LVU88
 246              		.loc 1 174 1 is_stmt 0 view .LVU89
 247 00a8 0400A0E1 		mov	r0, r4
 248 00ac F081BDE8 		pop	{r4, r5, r6, r7, r8, pc}
 249              	.L22:
 250              		.align	2
 251              	.L21:
 252 00b0 00000000 		.word	.LANCHOR0
 253              		.cfi_endproc
 254              	.LFE9:
 255              		.size	chHeapAlloc, .-chHeapAlloc
 256              		.section	.text.chHeapFree,"ax",%progbits
 257              		.align	2
 258              		.global	chHeapFree
 259              		.syntax unified
 260              		.arm
 261              		.fpu softvfp
 262              		.type	chHeapFree, %function
 263              	chHeapFree:
 264              	.LVL21:
 265              	.LFB10:
 266              		.loc 1 187 26 is_stmt 1 view -0
 267              		.cfi_startproc
 268              		@ args = 0, pretend = 0, frame = 0
 269              		@ frame_needed = 0, uses_anonymous_args = 0
 270              		.loc 1 188 3 view .LVU91
 271              		.loc 1 189 3 view .LVU92
 272              		.loc 1 191 3 view .LVU93
 273              		.loc 1 191 38 view .LVU94
 274              		.loc 1 193 3 view .LVU95
 275              		.loc 1 187 26 is_stmt 0 view .LVU96
 276 0000 70402DE9 		push	{r4, r5, r6, lr}
 277              		.cfi_def_cfa_offset 16
 278              		.cfi_offset 4, -16
 279              		.cfi_offset 5, -12
 280              		.cfi_offset 6, -8
 281              		.cfi_offset 14, -4
 282              		.loc 1 187 26 view .LVU97
 283 0004 0060A0E1 		mov	r6, r0
 284              		.loc 1 194 9 view .LVU98
 285 0008 080010E5 		ldr	r0, [r0, #-8]
ARM GAS  /var/folders/l5/0x54b2c10074c8bt31ycjvl80000gp/T//ccHcSmAz.s 			page 6


 286              	.LVL22:
 287              		.loc 1 193 6 view .LVU99
 288 000c 084046E2 		sub	r4, r6, #8
 289              	.LVL23:
 290              		.loc 1 194 3 is_stmt 1 view .LVU100
 291              		.loc 1 195 3 view .LVU101
 292              		.loc 1 195 6 is_stmt 0 view .LVU102
 293 0010 045080E2 		add	r5, r0, #4
 294              	.LVL24:
 295              		.loc 1 196 3 is_stmt 1 view .LVU103
 296 0014 0C0080E2 		add	r0, r0, #12
 297              	.LVL25:
 298              		.loc 1 196 3 is_stmt 0 view .LVU104
 299 0018 FEFFFFEB 		bl	chMtxLock
 300              	.LVL26:
 301              		.loc 1 195 6 view .LVU105
 302 001c 0530A0E1 		mov	r3, r5
 303 0020 020000EA 		b	.L24
 304              	.LVL27:
 305              	.L36:
 306              		.loc 1 204 33 view .LVU106
 307 0024 020054E1 		cmp	r4, r2
 308 0028 0A00003A 		bcc	.L26
 309              	.L25:
 310              		.loc 1 187 26 view .LVU107
 311 002c 0230A0E1 		mov	r3, r2
 312              	.L24:
 313              	.LVL28:
 314              		.loc 1 198 3 is_stmt 1 view .LVU108
 315              		.loc 1 199 5 view .LVU109
 316              		.loc 1 201 37 view .LVU110
 317              		.loc 1 203 5 view .LVU111
 318              		.loc 1 203 8 is_stmt 0 view .LVU112
 319 0030 052043E0 		sub	r2, r3, r5
 320 0034 122F6FE1 		clz	r2, r2
 321 0038 A222A0E1 		lsr	r2, r2, #5
 322              		.loc 1 203 33 view .LVU113
 323 003c 040053E1 		cmp	r3, r4
 324 0040 01208233 		orrcc	r2, r2, #1
 325 0044 000052E3 		cmp	r2, #0
 326 0048 002093E5 		ldr	r2, [r3]
 327 004c F6FFFF0A 		beq	.L25
 328              		.loc 1 203 47 discriminator 3 view .LVU114
 329 0050 000052E3 		cmp	r2, #0
 330 0054 F2FFFF1A 		bne	.L36
 331              	.L26:
 332              		.loc 1 206 7 is_stmt 1 view .LVU115
 333              		.loc 1 206 20 is_stmt 0 view .LVU116
 334 0058 082006E5 		str	r2, [r6, #-8]
 335              		.loc 1 207 7 is_stmt 1 view .LVU117
 336              		.loc 1 209 11 is_stmt 0 view .LVU118
 337 005c 042016E5 		ldr	r2, [r6, #-4]
 338              		.loc 1 207 20 view .LVU119
 339 0060 004083E5 		str	r4, [r3]
 340              		.loc 1 209 7 is_stmt 1 view .LVU120
 341              		.loc 1 209 31 is_stmt 0 view .LVU121
 342 0064 081016E5 		ldr	r1, [r6, #-8]
ARM GAS  /var/folders/l5/0x54b2c10074c8bt31ycjvl80000gp/T//ccHcSmAz.s 			page 7


 343              		.loc 1 209 11 view .LVU122
 344 0068 020086E0 		add	r0, r6, r2
 345              		.loc 1 209 10 view .LVU123
 346 006c 000051E1 		cmp	r1, r0
 347              		.loc 1 211 9 is_stmt 1 view .LVU124
 348              		.loc 1 211 20 is_stmt 0 view .LVU125
 349 0070 04009105 		ldreq	r0, [r1, #4]
 350 0074 08208202 		addeq	r2, r2, #8
 351              		.loc 1 212 41 view .LVU126
 352 0078 00109105 		ldreq	r1, [r1]
 353              		.loc 1 211 20 view .LVU127
 354 007c 02208000 		addeq	r2, r0, r2
 355              		.loc 1 212 22 view .LVU128
 356 0080 06000609 		stmdbeq	r6, {r1, r2}
 357              		.loc 1 214 7 is_stmt 1 view .LVU129
 358              		.loc 1 214 12 is_stmt 0 view .LVU130
 359 0084 041093E5 		ldr	r1, [r3, #4]
 360 0088 082081E2 		add	r2, r1, #8
 361 008c 022083E0 		add	r2, r3, r2
 362              		.loc 1 214 10 view .LVU131
 363 0090 020054E1 		cmp	r4, r2
 364 0094 0100000A 		beq	.L37
 365              		.loc 1 219 7 is_stmt 1 view .LVU132
 366              		.loc 1 224 3 view .LVU133
 367              		.loc 1 226 1 is_stmt 0 view .LVU134
 368 0098 7040BDE8 		pop	{r4, r5, r6, lr}
 369              		.cfi_remember_state
 370              		.cfi_restore 14
 371              		.cfi_restore 6
 372              		.cfi_restore 5
 373              		.cfi_restore 4
 374              		.cfi_def_cfa_offset 0
 375              	.LVL29:
 376              		.loc 1 224 3 view .LVU135
 377 009c FEFFFFEA 		b	chMtxUnlock
 378              	.LVL30:
 379              	.L37:
 380              		.cfi_restore_state
 381              		.loc 1 216 9 is_stmt 1 view .LVU136
 382              		.loc 1 217 31 is_stmt 0 view .LVU137
 383 00a0 050016E9 		ldmdb	r6, {r0, r2}
 384              		.loc 1 216 20 view .LVU138
 385 00a4 082082E2 		add	r2, r2, #8
 386 00a8 011082E0 		add	r1, r2, r1
 387              		.loc 1 217 22 view .LVU139
 388 00ac F000C3E1 		strd	r0, [r3]
 389              		.loc 1 219 7 is_stmt 1 view .LVU140
 390              		.loc 1 224 3 view .LVU141
 391              		.loc 1 226 1 is_stmt 0 view .LVU142
 392 00b0 7040BDE8 		pop	{r4, r5, r6, lr}
 393              		.cfi_restore 14
 394              		.cfi_restore 6
 395              		.cfi_restore 5
 396              		.cfi_restore 4
 397              		.cfi_def_cfa_offset 0
 398              	.LVL31:
 399              		.loc 1 224 3 view .LVU143
ARM GAS  /var/folders/l5/0x54b2c10074c8bt31ycjvl80000gp/T//ccHcSmAz.s 			page 8


 400 00b4 FEFFFFEA 		b	chMtxUnlock
 401              	.LVL32:
 402              		.cfi_endproc
 403              	.LFE10:
 404              		.size	chHeapFree, .-chHeapFree
 405              		.section	.text.chHeapStatus,"ax",%progbits
 406              		.align	2
 407              		.global	chHeapStatus
 408              		.syntax unified
 409              		.arm
 410              		.fpu softvfp
 411              		.type	chHeapStatus, %function
 412              	chHeapStatus:
 413              	.LVL33:
 414              	.LFB11:
 415              		.loc 1 243 55 is_stmt 1 view -0
 416              		.cfi_startproc
 417              		@ args = 0, pretend = 0, frame = 0
 418              		@ frame_needed = 0, uses_anonymous_args = 0
 419              		.loc 1 244 3 view .LVU145
 420              		.loc 1 245 3 view .LVU146
 421              		.loc 1 247 3 view .LVU147
 422              		.loc 1 248 11 is_stmt 0 view .LVU148
 423 0000 000050E3 		cmp	r0, #0
 424              		.loc 1 243 55 view .LVU149
 425 0004 70402DE9 		push	{r4, r5, r6, lr}
 426              		.cfi_def_cfa_offset 16
 427              		.cfi_offset 4, -16
 428              		.cfi_offset 5, -12
 429              		.cfi_offset 6, -8
 430              		.cfi_offset 14, -4
 431              		.loc 1 248 11 view .LVU150
 432 0008 58409FE5 		ldr	r4, .L49
 433 000c 0040A011 		movne	r4, r0
 434              	.LVL34:
 435              		.loc 1 250 3 is_stmt 1 view .LVU151
 436 0010 0C0084E2 		add	r0, r4, #12
 437              		.loc 1 243 55 is_stmt 0 view .LVU152
 438 0014 0150A0E1 		mov	r5, r1
 439              		.loc 1 250 3 view .LVU153
 440 0018 FEFFFFEB 		bl	chMtxLock
 441              	.LVL35:
 442              		.loc 1 252 3 is_stmt 1 view .LVU154
 443              		.loc 1 253 3 view .LVU155
 444              		.loc 1 253 43 is_stmt 0 view .LVU156
 445 001c 043094E5 		ldr	r3, [r4, #4]
 446              		.loc 1 253 3 view .LVU157
 447 0020 000053E3 		cmp	r3, #0
 448 0024 0C00000A 		beq	.L43
 449              		.loc 1 252 6 view .LVU158
 450 0028 0020A0E3 		mov	r2, #0
 451              		.loc 1 253 10 view .LVU159
 452 002c 0240A0E1 		mov	r4, r2
 453              	.LVL36:
 454              	.L41:
 455              		.loc 1 254 5 is_stmt 1 discriminator 3 view .LVU160
 456              		.loc 1 254 8 is_stmt 0 discriminator 3 view .LVU161
ARM GAS  /var/folders/l5/0x54b2c10074c8bt31ycjvl80000gp/T//ccHcSmAz.s 			page 9


 457 0030 040093E5 		ldr	r0, [r3, #4]
 458              		.loc 1 253 43 discriminator 3 view .LVU162
 459 0034 003093E5 		ldr	r3, [r3]
 460              		.loc 1 253 51 discriminator 3 view .LVU163
 461 0038 014084E2 		add	r4, r4, #1
 462              	.LVL37:
 463              		.loc 1 253 3 discriminator 3 view .LVU164
 464 003c 000053E3 		cmp	r3, #0
 465              		.loc 1 254 8 discriminator 3 view .LVU165
 466 0040 002082E0 		add	r2, r2, r0
 467              	.LVL38:
 468              		.loc 1 253 3 discriminator 3 view .LVU166
 469 0044 F9FFFF1A 		bne	.L41
 470              	.LVL39:
 471              	.L40:
 472              		.loc 1 255 3 is_stmt 1 view .LVU167
 473              		.loc 1 255 6 is_stmt 0 view .LVU168
 474 0048 000055E3 		cmp	r5, #0
 475              		.loc 1 256 5 is_stmt 1 view .LVU169
 476              		.loc 1 256 12 is_stmt 0 view .LVU170
 477 004c 00208515 		strne	r2, [r5]
 478              		.loc 1 258 3 is_stmt 1 view .LVU171
 479 0050 FEFFFFEB 		bl	chMtxUnlock
 480              	.LVL40:
 481              		.loc 1 259 3 view .LVU172
 482              		.loc 1 260 1 is_stmt 0 view .LVU173
 483 0054 0400A0E1 		mov	r0, r4
 484 0058 7080BDE8 		pop	{r4, r5, r6, pc}
 485              	.LVL41:
 486              	.L43:
 487              		.loc 1 252 6 view .LVU174
 488 005c 0320A0E1 		mov	r2, r3
 489              		.loc 1 253 10 view .LVU175
 490 0060 0340A0E1 		mov	r4, r3
 491              	.LVL42:
 492              		.loc 1 253 10 view .LVU176
 493 0064 F7FFFFEA 		b	.L40
 494              	.L50:
 495              		.align	2
 496              	.L49:
 497 0068 00000000 		.word	.LANCHOR0
 498              		.cfi_endproc
 499              	.LFE11:
 500              		.size	chHeapStatus, .-chHeapStatus
 501              		.section	.bss.default_heap,"aw",%nobits
 502              		.align	2
 503              		.set	.LANCHOR0,. + 0
 504              		.type	default_heap, %object
 505              		.size	default_heap, 28
 506              	default_heap:
 507 0000 00000000 		.space	28
 507      00000000 
 507      00000000 
 507      00000000 
 507      00000000 
 508              		.text
 509              	.Letext0:
ARM GAS  /var/folders/l5/0x54b2c10074c8bt31ycjvl80000gp/T//ccHcSmAz.s 			page 10


 510              		.file 2 "/usr/local/Cellar/arm-gcc-bin/8-2019-q3-update/lib/gcc/arm-none-eabi/8.3.1/include/stddef
 511              		.file 3 "/usr/local/Cellar/arm-gcc-bin/8-2019-q3-update/arm-none-eabi/include/machine/_default_typ
 512              		.file 4 "/usr/local/Cellar/arm-gcc-bin/8-2019-q3-update/arm-none-eabi/include/sys/_stdint.h"
 513              		.file 5 "../../os/ports/GCC/ARM/chtypes.h"
 514              		.file 6 "../../os/kernel/include/chlists.h"
 515              		.file 7 "../../os/kernel/include/chthreads.h"
 516              		.file 8 "../../os/ports/GCC/ARM/chcore.h"
 517              		.file 9 "../../os/kernel/include/chvt.h"
 518              		.file 10 "../../os/kernel/include/chschd.h"
 519              		.file 11 "../../os/kernel/include/chmtx.h"
 520              		.file 12 "../../os/kernel/include/chmemcore.h"
 521              		.file 13 "../../os/kernel/include/chheap.h"
 522              		.file 14 "../../os/kernel/include/chregistry.h"
 523              		.file 15 "../../os/kernel/include/ch.h"
 524              		.section	.debug_info,"",%progbits
 525              	.Ldebug_info0:
 526 0000 FC090000 		.4byte	0x9fc
 527 0004 0400     		.2byte	0x4
 528 0006 00000000 		.4byte	.Ldebug_abbrev0
 529 000a 04       		.byte	0x4
 530 000b 01       		.uleb128 0x1
 531 000c F5010000 		.4byte	.LASF119
 532 0010 0C       		.byte	0xc
 533 0011 00010000 		.4byte	.LASF120
 534 0015 57030000 		.4byte	.LASF121
 535 0019 00000000 		.4byte	.Ldebug_ranges0+0
 536 001d 00000000 		.4byte	0
 537 0021 00000000 		.4byte	.Ldebug_line0
 538 0025 02       		.uleb128 0x2
 539 0026 04       		.byte	0x4
 540 0027 05       		.byte	0x5
 541 0028 696E7400 		.ascii	"int\000"
 542 002c 03       		.uleb128 0x3
 543 002d 06000000 		.4byte	.LASF2
 544 0031 02       		.byte	0x2
 545 0032 D8       		.byte	0xd8
 546 0033 17       		.byte	0x17
 547 0034 38000000 		.4byte	0x38
 548 0038 04       		.uleb128 0x4
 549 0039 04       		.byte	0x4
 550 003a 07       		.byte	0x7
 551 003b 73010000 		.4byte	.LASF0
 552 003f 04       		.uleb128 0x4
 553 0040 01       		.byte	0x1
 554 0041 06       		.byte	0x6
 555 0042 AB000000 		.4byte	.LASF1
 556 0046 03       		.uleb128 0x3
 557 0047 14000000 		.4byte	.LASF3
 558 004b 03       		.byte	0x3
 559 004c 2B       		.byte	0x2b
 560 004d 18       		.byte	0x18
 561 004e 52000000 		.4byte	0x52
 562 0052 04       		.uleb128 0x4
 563 0053 01       		.byte	0x1
 564 0054 08       		.byte	0x8
 565 0055 E8030000 		.4byte	.LASF4
 566 0059 04       		.uleb128 0x4
ARM GAS  /var/folders/l5/0x54b2c10074c8bt31ycjvl80000gp/T//ccHcSmAz.s 			page 11


 567 005a 02       		.byte	0x2
 568 005b 05       		.byte	0x5
 569 005c 0B040000 		.4byte	.LASF5
 570 0060 03       		.uleb128 0x3
 571 0061 D7040000 		.4byte	.LASF6
 572 0065 03       		.byte	0x3
 573 0066 39       		.byte	0x39
 574 0067 19       		.byte	0x19
 575 0068 6C000000 		.4byte	0x6c
 576 006c 04       		.uleb128 0x4
 577 006d 02       		.byte	0x2
 578 006e 07       		.byte	0x7
 579 006f D4010000 		.4byte	.LASF7
 580 0073 03       		.uleb128 0x3
 581 0074 0B050000 		.4byte	.LASF8
 582 0078 03       		.byte	0x3
 583 0079 4D       		.byte	0x4d
 584 007a 18       		.byte	0x18
 585 007b 7F000000 		.4byte	0x7f
 586 007f 04       		.uleb128 0x4
 587 0080 04       		.byte	0x4
 588 0081 05       		.byte	0x5
 589 0082 F7000000 		.4byte	.LASF9
 590 0086 03       		.uleb128 0x3
 591 0087 51010000 		.4byte	.LASF10
 592 008b 03       		.byte	0x3
 593 008c 4F       		.byte	0x4f
 594 008d 19       		.byte	0x19
 595 008e 92000000 		.4byte	0x92
 596 0092 04       		.uleb128 0x4
 597 0093 04       		.byte	0x4
 598 0094 07       		.byte	0x7
 599 0095 95010000 		.4byte	.LASF11
 600 0099 04       		.uleb128 0x4
 601 009a 08       		.byte	0x8
 602 009b 05       		.byte	0x5
 603 009c 9D000000 		.4byte	.LASF12
 604 00a0 04       		.uleb128 0x4
 605 00a1 08       		.byte	0x8
 606 00a2 07       		.byte	0x7
 607 00a3 32000000 		.4byte	.LASF13
 608 00a7 03       		.uleb128 0x3
 609 00a8 61050000 		.4byte	.LASF14
 610 00ac 04       		.byte	0x4
 611 00ad 18       		.byte	0x18
 612 00ae 13       		.byte	0x13
 613 00af 46000000 		.4byte	0x46
 614 00b3 03       		.uleb128 0x3
 615 00b4 26010000 		.4byte	.LASF15
 616 00b8 04       		.byte	0x4
 617 00b9 24       		.byte	0x24
 618 00ba 14       		.byte	0x14
 619 00bb 60000000 		.4byte	0x60
 620 00bf 03       		.uleb128 0x3
 621 00c0 E0030000 		.4byte	.LASF16
 622 00c4 04       		.byte	0x4
 623 00c5 2C       		.byte	0x2c
ARM GAS  /var/folders/l5/0x54b2c10074c8bt31ycjvl80000gp/T//ccHcSmAz.s 			page 12


 624 00c6 13       		.byte	0x13
 625 00c7 73000000 		.4byte	0x73
 626 00cb 03       		.uleb128 0x3
 627 00cc 96040000 		.4byte	.LASF17
 628 00d0 04       		.byte	0x4
 629 00d1 30       		.byte	0x30
 630 00d2 14       		.byte	0x14
 631 00d3 86000000 		.4byte	0x86
 632 00d7 03       		.uleb128 0x3
 633 00d8 C5020000 		.4byte	.LASF18
 634 00dc 05       		.byte	0x5
 635 00dd 2A       		.byte	0x2a
 636 00de 19       		.byte	0x19
 637 00df A7000000 		.4byte	0xa7
 638 00e3 03       		.uleb128 0x3
 639 00e4 1D010000 		.4byte	.LASF19
 640 00e8 05       		.byte	0x5
 641 00e9 2B       		.byte	0x2b
 642 00ea 19       		.byte	0x19
 643 00eb A7000000 		.4byte	0xa7
 644 00ef 03       		.uleb128 0x3
 645 00f0 BE030000 		.4byte	.LASF20
 646 00f4 05       		.byte	0x5
 647 00f5 2C       		.byte	0x2c
 648 00f6 19       		.byte	0x19
 649 00f7 A7000000 		.4byte	0xa7
 650 00fb 03       		.uleb128 0x3
 651 00fc ED000000 		.4byte	.LASF21
 652 0100 05       		.byte	0x5
 653 0101 2D       		.byte	0x2d
 654 0102 19       		.byte	0x19
 655 0103 A7000000 		.4byte	0xa7
 656 0107 03       		.uleb128 0x3
 657 0108 D8030000 		.4byte	.LASF22
 658 010c 05       		.byte	0x5
 659 010d 2E       		.byte	0x2e
 660 010e 19       		.byte	0x19
 661 010f CB000000 		.4byte	0xcb
 662 0113 03       		.uleb128 0x3
 663 0114 E7010000 		.4byte	.LASF23
 664 0118 05       		.byte	0x5
 665 0119 2F       		.byte	0x2f
 666 011a 19       		.byte	0x19
 667 011b BF000000 		.4byte	0xbf
 668 011f 03       		.uleb128 0x3
 669 0120 D9020000 		.4byte	.LASF24
 670 0124 05       		.byte	0x5
 671 0125 31       		.byte	0x31
 672 0126 19       		.byte	0x19
 673 0127 CB000000 		.4byte	0xcb
 674 012b 03       		.uleb128 0x3
 675 012c F6040000 		.4byte	.LASF25
 676 0130 05       		.byte	0x5
 677 0131 33       		.byte	0x33
 678 0132 19       		.byte	0x19
 679 0133 CB000000 		.4byte	0xcb
 680 0137 05       		.uleb128 0x5
ARM GAS  /var/folders/l5/0x54b2c10074c8bt31ycjvl80000gp/T//ccHcSmAz.s 			page 13


 681 0138 2B010000 		.4byte	0x12b
 682 013c 03       		.uleb128 0x3
 683 013d 6B040000 		.4byte	.LASF26
 684 0141 06       		.byte	0x6
 685 0142 23       		.byte	0x23
 686 0143 17       		.byte	0x17
 687 0144 48010000 		.4byte	0x148
 688 0148 06       		.uleb128 0x6
 689 0149 6B040000 		.4byte	.LASF26
 690 014d 44       		.byte	0x44
 691 014e 07       		.byte	0x7
 692 014f 57       		.byte	0x57
 693 0150 08       		.byte	0x8
 694 0151 4D020000 		.4byte	0x24d
 695 0155 07       		.uleb128 0x7
 696 0156 4D040000 		.4byte	.LASF27
 697 015a 07       		.byte	0x7
 698 015b 58       		.byte	0x58
 699 015c 1A       		.byte	0x1a
 700 015d 71020000 		.4byte	0x271
 701 0161 00       		.byte	0
 702 0162 07       		.uleb128 0x7
 703 0163 D1030000 		.4byte	.LASF28
 704 0167 07       		.byte	0x7
 705 0168 5A       		.byte	0x5a
 706 0169 1A       		.byte	0x1a
 707 016a 71020000 		.4byte	0x271
 708 016e 04       		.byte	0x4
 709 016f 07       		.uleb128 0x7
 710 0170 89000000 		.4byte	.LASF29
 711 0174 07       		.byte	0x7
 712 0175 5C       		.byte	0x5c
 713 0176 19       		.byte	0x19
 714 0177 07010000 		.4byte	0x107
 715 017b 08       		.byte	0x8
 716 017c 07       		.uleb128 0x7
 717 017d AD050000 		.4byte	.LASF30
 718 0181 07       		.byte	0x7
 719 0182 5D       		.byte	0x5d
 720 0183 19       		.byte	0x19
 721 0184 3C030000 		.4byte	0x33c
 722 0188 0C       		.byte	0xc
 723 0189 07       		.uleb128 0x7
 724 018a 39010000 		.4byte	.LASF31
 725 018e 07       		.byte	0x7
 726 018f 5F       		.byte	0x5f
 727 0190 1A       		.byte	0x1a
 728 0191 71020000 		.4byte	0x271
 729 0195 10       		.byte	0x10
 730 0196 07       		.uleb128 0x7
 731 0197 3C030000 		.4byte	.LASF32
 732 019b 07       		.byte	0x7
 733 019c 60       		.byte	0x60
 734 019d 1A       		.byte	0x1a
 735 019e 71020000 		.4byte	0x271
 736 01a2 14       		.byte	0x14
 737 01a3 07       		.uleb128 0x7
ARM GAS  /var/folders/l5/0x54b2c10074c8bt31ycjvl80000gp/T//ccHcSmAz.s 			page 14


 738 01a4 76050000 		.4byte	.LASF33
 739 01a8 07       		.byte	0x7
 740 01a9 67       		.byte	0x67
 741 01aa 1A       		.byte	0x1a
 742 01ab F8050000 		.4byte	0x5f8
 743 01af 18       		.byte	0x18
 744 01b0 07       		.uleb128 0x7
 745 01b1 15040000 		.4byte	.LASF34
 746 01b5 07       		.byte	0x7
 747 01b6 72       		.byte	0x72
 748 01b7 19       		.byte	0x19
 749 01b8 E3000000 		.4byte	0xe3
 750 01bc 1C       		.byte	0x1c
 751 01bd 07       		.uleb128 0x7
 752 01be 63040000 		.4byte	.LASF35
 753 01c2 07       		.byte	0x7
 754 01c3 76       		.byte	0x76
 755 01c4 19       		.byte	0x19
 756 01c5 D7000000 		.4byte	0xd7
 757 01c9 1D       		.byte	0x1d
 758 01ca 07       		.uleb128 0x7
 759 01cb 4A050000 		.4byte	.LASF36
 760 01cf 07       		.byte	0x7
 761 01d0 7B       		.byte	0x7b
 762 01d1 19       		.byte	0x19
 763 01d2 EF000000 		.4byte	0xef
 764 01d6 1E       		.byte	0x1e
 765 01d7 07       		.uleb128 0x7
 766 01d8 1D040000 		.4byte	.LASF37
 767 01dc 07       		.byte	0x7
 768 01dd 81       		.byte	0x81
 769 01de 19       		.byte	0x19
 770 01df FB000000 		.4byte	0xfb
 771 01e3 1F       		.byte	0x1f
 772 01e4 07       		.uleb128 0x7
 773 01e5 15050000 		.4byte	.LASF38
 774 01e9 07       		.byte	0x7
 775 01ea 88       		.byte	0x88
 776 01eb 19       		.byte	0x19
 777 01ec 37010000 		.4byte	0x137
 778 01f0 20       		.byte	0x20
 779 01f1 08       		.uleb128 0x8
 780 01f2 705F7500 		.ascii	"p_u\000"
 781 01f6 07       		.byte	0x7
 782 01f7 AD       		.byte	0xad
 783 01f8 19       		.byte	0x19
 784 01f9 BE050000 		.4byte	0x5be
 785 01fd 24       		.byte	0x24
 786 01fe 07       		.uleb128 0x7
 787 01ff B3050000 		.4byte	.LASF39
 788 0203 07       		.byte	0x7
 789 0204 B2       		.byte	0xb2
 790 0205 19       		.byte	0x19
 791 0206 9A020000 		.4byte	0x29a
 792 020a 28       		.byte	0x28
 793 020b 07       		.uleb128 0x7
 794 020c 23050000 		.4byte	.LASF40
ARM GAS  /var/folders/l5/0x54b2c10074c8bt31ycjvl80000gp/T//ccHcSmAz.s 			page 15


 795 0210 07       		.byte	0x7
 796 0211 B8       		.byte	0xb8
 797 0212 19       		.byte	0x19
 798 0213 77020000 		.4byte	0x277
 799 0217 2C       		.byte	0x2c
 800 0218 07       		.uleb128 0x7
 801 0219 00000000 		.4byte	.LASF41
 802 021d 07       		.byte	0x7
 803 021e BC       		.byte	0xbc
 804 021f 19       		.byte	0x19
 805 0220 13010000 		.4byte	0x113
 806 0224 34       		.byte	0x34
 807 0225 07       		.uleb128 0x7
 808 0226 8B040000 		.4byte	.LASF42
 809 022a 07       		.byte	0x7
 810 022b C2       		.byte	0xc2
 811 022c 19       		.byte	0x19
 812 022d 1F010000 		.4byte	0x11f
 813 0231 38       		.byte	0x38
 814 0232 07       		.uleb128 0x7
 815 0233 01040000 		.4byte	.LASF43
 816 0237 07       		.byte	0x7
 817 0238 C9       		.byte	0xc9
 818 0239 1A       		.byte	0x1a
 819 023a 0A060000 		.4byte	0x60a
 820 023e 3C       		.byte	0x3c
 821 023f 07       		.uleb128 0x7
 822 0240 00050000 		.4byte	.LASF44
 823 0244 07       		.byte	0x7
 824 0245 CD       		.byte	0xcd
 825 0246 19       		.byte	0x19
 826 0247 07010000 		.4byte	0x107
 827 024b 40       		.byte	0x40
 828 024c 00       		.byte	0
 829 024d 09       		.uleb128 0x9
 830 024e 08       		.byte	0x8
 831 024f 06       		.byte	0x6
 832 0250 5A       		.byte	0x5a
 833 0251 09       		.byte	0x9
 834 0252 71020000 		.4byte	0x271
 835 0256 07       		.uleb128 0x7
 836 0257 4D040000 		.4byte	.LASF27
 837 025b 06       		.byte	0x6
 838 025c 5B       		.byte	0x5b
 839 025d 1A       		.byte	0x1a
 840 025e 71020000 		.4byte	0x271
 841 0262 00       		.byte	0
 842 0263 07       		.uleb128 0x7
 843 0264 D1030000 		.4byte	.LASF28
 844 0268 06       		.byte	0x6
 845 0269 5D       		.byte	0x5d
 846 026a 1A       		.byte	0x1a
 847 026b 71020000 		.4byte	0x271
 848 026f 04       		.byte	0x4
 849 0270 00       		.byte	0
 850 0271 0A       		.uleb128 0xa
 851 0272 04       		.byte	0x4
ARM GAS  /var/folders/l5/0x54b2c10074c8bt31ycjvl80000gp/T//ccHcSmAz.s 			page 16


 852 0273 3C010000 		.4byte	0x13c
 853 0277 03       		.uleb128 0x3
 854 0278 4A030000 		.4byte	.LASF45
 855 027c 06       		.byte	0x6
 856 027d 5F       		.byte	0x5f
 857 027e 03       		.byte	0x3
 858 027f 4D020000 		.4byte	0x24d
 859 0283 09       		.uleb128 0x9
 860 0284 04       		.byte	0x4
 861 0285 06       		.byte	0x6
 862 0286 64       		.byte	0x64
 863 0287 09       		.byte	0x9
 864 0288 9A020000 		.4byte	0x29a
 865 028c 07       		.uleb128 0x7
 866 028d 4D040000 		.4byte	.LASF27
 867 0291 06       		.byte	0x6
 868 0292 66       		.byte	0x66
 869 0293 16       		.byte	0x16
 870 0294 71020000 		.4byte	0x271
 871 0298 00       		.byte	0
 872 0299 00       		.byte	0
 873 029a 03       		.uleb128 0x3
 874 029b CD020000 		.4byte	.LASF46
 875 029f 06       		.byte	0x6
 876 02a0 69       		.byte	0x69
 877 02a1 03       		.byte	0x3
 878 02a2 83020000 		.4byte	0x283
 879 02a6 03       		.uleb128 0x3
 880 02a7 EB020000 		.4byte	.LASF47
 881 02ab 08       		.byte	0x8
 882 02ac 9D       		.byte	0x9d
 883 02ad 12       		.byte	0x12
 884 02ae CB000000 		.4byte	0xcb
 885 02b2 03       		.uleb128 0x3
 886 02b3 5C010000 		.4byte	.LASF48
 887 02b7 08       		.byte	0x8
 888 02b8 A2       		.byte	0xa2
 889 02b9 0F       		.byte	0xf
 890 02ba BE020000 		.4byte	0x2be
 891 02be 0B       		.uleb128 0xb
 892 02bf 04       		.byte	0x4
 893 02c0 06       		.uleb128 0x6
 894 02c1 1C050000 		.4byte	.LASF49
 895 02c5 24       		.byte	0x24
 896 02c6 08       		.byte	0x8
 897 02c7 B9       		.byte	0xb9
 898 02c8 08       		.byte	0x8
 899 02c9 3C030000 		.4byte	0x33c
 900 02cd 08       		.uleb128 0x8
 901 02ce 723400   		.ascii	"r4\000"
 902 02d1 08       		.byte	0x8
 903 02d2 BA       		.byte	0xba
 904 02d3 11       		.byte	0x11
 905 02d4 B2020000 		.4byte	0x2b2
 906 02d8 00       		.byte	0
 907 02d9 08       		.uleb128 0x8
 908 02da 723500   		.ascii	"r5\000"
ARM GAS  /var/folders/l5/0x54b2c10074c8bt31ycjvl80000gp/T//ccHcSmAz.s 			page 17


 909 02dd 08       		.byte	0x8
 910 02de BB       		.byte	0xbb
 911 02df 11       		.byte	0x11
 912 02e0 B2020000 		.4byte	0x2b2
 913 02e4 04       		.byte	0x4
 914 02e5 08       		.uleb128 0x8
 915 02e6 723600   		.ascii	"r6\000"
 916 02e9 08       		.byte	0x8
 917 02ea BC       		.byte	0xbc
 918 02eb 11       		.byte	0x11
 919 02ec B2020000 		.4byte	0x2b2
 920 02f0 08       		.byte	0x8
 921 02f1 08       		.uleb128 0x8
 922 02f2 723700   		.ascii	"r7\000"
 923 02f5 08       		.byte	0x8
 924 02f6 BD       		.byte	0xbd
 925 02f7 11       		.byte	0x11
 926 02f8 B2020000 		.4byte	0x2b2
 927 02fc 0C       		.byte	0xc
 928 02fd 08       		.uleb128 0x8
 929 02fe 723800   		.ascii	"r8\000"
 930 0301 08       		.byte	0x8
 931 0302 BE       		.byte	0xbe
 932 0303 11       		.byte	0x11
 933 0304 B2020000 		.4byte	0x2b2
 934 0308 10       		.byte	0x10
 935 0309 08       		.uleb128 0x8
 936 030a 723900   		.ascii	"r9\000"
 937 030d 08       		.byte	0x8
 938 030e BF       		.byte	0xbf
 939 030f 11       		.byte	0x11
 940 0310 B2020000 		.4byte	0x2b2
 941 0314 14       		.byte	0x14
 942 0315 08       		.uleb128 0x8
 943 0316 72313000 		.ascii	"r10\000"
 944 031a 08       		.byte	0x8
 945 031b C0       		.byte	0xc0
 946 031c 11       		.byte	0x11
 947 031d B2020000 		.4byte	0x2b2
 948 0321 18       		.byte	0x18
 949 0322 08       		.uleb128 0x8
 950 0323 72313100 		.ascii	"r11\000"
 951 0327 08       		.byte	0x8
 952 0328 C1       		.byte	0xc1
 953 0329 11       		.byte	0x11
 954 032a B2020000 		.4byte	0x2b2
 955 032e 1C       		.byte	0x1c
 956 032f 08       		.uleb128 0x8
 957 0330 6C7200   		.ascii	"lr\000"
 958 0333 08       		.byte	0x8
 959 0334 C2       		.byte	0xc2
 960 0335 11       		.byte	0x11
 961 0336 B2020000 		.4byte	0x2b2
 962 033a 20       		.byte	0x20
 963 033b 00       		.byte	0
 964 033c 06       		.uleb128 0x6
 965 033d C7010000 		.4byte	.LASF50
ARM GAS  /var/folders/l5/0x54b2c10074c8bt31ycjvl80000gp/T//ccHcSmAz.s 			page 18


 966 0341 04       		.byte	0x4
 967 0342 08       		.byte	0x8
 968 0343 CA       		.byte	0xca
 969 0344 08       		.byte	0x8
 970 0345 57030000 		.4byte	0x357
 971 0349 08       		.uleb128 0x8
 972 034a 72313300 		.ascii	"r13\000"
 973 034e 08       		.byte	0x8
 974 034f CB       		.byte	0xcb
 975 0350 12       		.byte	0x12
 976 0351 57030000 		.4byte	0x357
 977 0355 00       		.byte	0
 978 0356 00       		.byte	0
 979 0357 0A       		.uleb128 0xa
 980 0358 04       		.byte	0x4
 981 0359 C0020000 		.4byte	0x2c0
 982 035d 03       		.uleb128 0x3
 983 035e B0010000 		.4byte	.LASF51
 984 0362 09       		.byte	0x9
 985 0363 4E       		.byte	0x4e
 986 0364 10       		.byte	0x10
 987 0365 69030000 		.4byte	0x369
 988 0369 0A       		.uleb128 0xa
 989 036a 04       		.byte	0x4
 990 036b 6F030000 		.4byte	0x36f
 991 036f 0C       		.uleb128 0xc
 992 0370 7A030000 		.4byte	0x37a
 993 0374 0D       		.uleb128 0xd
 994 0375 BE020000 		.4byte	0x2be
 995 0379 00       		.byte	0
 996 037a 03       		.uleb128 0x3
 997 037b B3040000 		.4byte	.LASF52
 998 037f 09       		.byte	0x9
 999 0380 53       		.byte	0x53
 1000 0381 1D       		.byte	0x1d
 1001 0382 86030000 		.4byte	0x386
 1002 0386 06       		.uleb128 0x6
 1003 0387 B3040000 		.4byte	.LASF52
 1004 038b 14       		.byte	0x14
 1005 038c 09       		.byte	0x9
 1006 038d 5A       		.byte	0x5a
 1007 038e 08       		.byte	0x8
 1008 038f D5030000 		.4byte	0x3d5
 1009 0393 07       		.uleb128 0x7
 1010 0394 80010000 		.4byte	.LASF53
 1011 0398 09       		.byte	0x9
 1012 0399 5B       		.byte	0x5b
 1013 039a 1A       		.byte	0x1a
 1014 039b D5030000 		.4byte	0x3d5
 1015 039f 00       		.byte	0
 1016 03a0 07       		.uleb128 0x7
 1017 03a1 65010000 		.4byte	.LASF54
 1018 03a5 09       		.byte	0x9
 1019 03a6 5D       		.byte	0x5d
 1020 03a7 1A       		.byte	0x1a
 1021 03a8 D5030000 		.4byte	0x3d5
 1022 03ac 04       		.byte	0x4
ARM GAS  /var/folders/l5/0x54b2c10074c8bt31ycjvl80000gp/T//ccHcSmAz.s 			page 19


 1023 03ad 07       		.uleb128 0x7
 1024 03ae 0A030000 		.4byte	.LASF55
 1025 03b2 09       		.byte	0x9
 1026 03b3 5F       		.byte	0x5f
 1027 03b4 19       		.byte	0x19
 1028 03b5 2B010000 		.4byte	0x12b
 1029 03b9 08       		.byte	0x8
 1030 03ba 07       		.uleb128 0x7
 1031 03bb 12030000 		.4byte	.LASF56
 1032 03bf 09       		.byte	0x9
 1033 03c0 60       		.byte	0x60
 1034 03c1 19       		.byte	0x19
 1035 03c2 5D030000 		.4byte	0x35d
 1036 03c6 0C       		.byte	0xc
 1037 03c7 07       		.uleb128 0x7
 1038 03c8 2E050000 		.4byte	.LASF57
 1039 03cc 09       		.byte	0x9
 1040 03cd 62       		.byte	0x62
 1041 03ce 1A       		.byte	0x1a
 1042 03cf BE020000 		.4byte	0x2be
 1043 03d3 10       		.byte	0x10
 1044 03d4 00       		.byte	0
 1045 03d5 0A       		.uleb128 0xa
 1046 03d6 04       		.byte	0x4
 1047 03d7 7A030000 		.4byte	0x37a
 1048 03db 09       		.uleb128 0x9
 1049 03dc 10       		.byte	0x10
 1050 03dd 09       		.byte	0x9
 1051 03de 6C       		.byte	0x6c
 1052 03df 09       		.byte	0x9
 1053 03e0 19040000 		.4byte	0x419
 1054 03e4 07       		.uleb128 0x7
 1055 03e5 80010000 		.4byte	.LASF53
 1056 03e9 09       		.byte	0x9
 1057 03ea 6D       		.byte	0x6d
 1058 03eb 1A       		.byte	0x1a
 1059 03ec D5030000 		.4byte	0x3d5
 1060 03f0 00       		.byte	0
 1061 03f1 07       		.uleb128 0x7
 1062 03f2 65010000 		.4byte	.LASF54
 1063 03f6 09       		.byte	0x9
 1064 03f7 6F       		.byte	0x6f
 1065 03f8 1A       		.byte	0x1a
 1066 03f9 D5030000 		.4byte	0x3d5
 1067 03fd 04       		.byte	0x4
 1068 03fe 07       		.uleb128 0x7
 1069 03ff 0A030000 		.4byte	.LASF55
 1070 0403 09       		.byte	0x9
 1071 0404 71       		.byte	0x71
 1072 0405 19       		.byte	0x19
 1073 0406 2B010000 		.4byte	0x12b
 1074 040a 08       		.byte	0x8
 1075 040b 07       		.uleb128 0x7
 1076 040c 7D050000 		.4byte	.LASF58
 1077 0410 09       		.byte	0x9
 1078 0411 72       		.byte	0x72
 1079 0412 19       		.byte	0x19
ARM GAS  /var/folders/l5/0x54b2c10074c8bt31ycjvl80000gp/T//ccHcSmAz.s 			page 20


 1080 0413 37010000 		.4byte	0x137
 1081 0417 0C       		.byte	0xc
 1082 0418 00       		.byte	0
 1083 0419 03       		.uleb128 0x3
 1084 041a 9E050000 		.4byte	.LASF59
 1085 041e 09       		.byte	0x9
 1086 041f 73       		.byte	0x73
 1087 0420 03       		.byte	0x3
 1088 0421 DB030000 		.4byte	0x3db
 1089 0425 0E       		.uleb128 0xe
 1090 0426 1E000000 		.4byte	.LASF67
 1091 042a 09       		.byte	0x9
 1092 042b D1       		.byte	0xd1
 1093 042c 0F       		.byte	0xf
 1094 042d 19040000 		.4byte	0x419
 1095 0431 09       		.uleb128 0x9
 1096 0432 1C       		.byte	0x1c
 1097 0433 0A       		.byte	0xa
 1098 0434 57       		.byte	0x57
 1099 0435 09       		.byte	0x9
 1100 0436 89040000 		.4byte	0x489
 1101 043a 07       		.uleb128 0x7
 1102 043b AB040000 		.4byte	.LASF60
 1103 043f 0A       		.byte	0xa
 1104 0440 58       		.byte	0x58
 1105 0441 19       		.byte	0x19
 1106 0442 77020000 		.4byte	0x277
 1107 0446 00       		.byte	0
 1108 0447 07       		.uleb128 0x7
 1109 0448 33040000 		.4byte	.LASF61
 1110 044c 0A       		.byte	0xa
 1111 044d 59       		.byte	0x59
 1112 044e 19       		.byte	0x19
 1113 044f 07010000 		.4byte	0x107
 1114 0453 08       		.byte	0x8
 1115 0454 07       		.uleb128 0x7
 1116 0455 44030000 		.4byte	.LASF62
 1117 0459 0A       		.byte	0xa
 1118 045a 5B       		.byte	0x5b
 1119 045b 19       		.byte	0x19
 1120 045c 3C030000 		.4byte	0x33c
 1121 0460 0C       		.byte	0xc
 1122 0461 07       		.uleb128 0x7
 1123 0462 ED010000 		.4byte	.LASF63
 1124 0466 0A       		.byte	0xa
 1125 0467 5E       		.byte	0x5e
 1126 0468 1A       		.byte	0x1a
 1127 0469 71020000 		.4byte	0x271
 1128 046d 10       		.byte	0x10
 1129 046e 07       		.uleb128 0x7
 1130 046f AB030000 		.4byte	.LASF64
 1131 0473 0A       		.byte	0xa
 1132 0474 5F       		.byte	0x5f
 1133 0475 1A       		.byte	0x1a
 1134 0476 71020000 		.4byte	0x271
 1135 047a 14       		.byte	0x14
 1136 047b 07       		.uleb128 0x7
ARM GAS  /var/folders/l5/0x54b2c10074c8bt31ycjvl80000gp/T//ccHcSmAz.s 			page 21


 1137 047c A1030000 		.4byte	.LASF65
 1138 0480 0A       		.byte	0xa
 1139 0481 62       		.byte	0x62
 1140 0482 1A       		.byte	0x1a
 1141 0483 71020000 		.4byte	0x271
 1142 0487 18       		.byte	0x18
 1143 0488 00       		.byte	0
 1144 0489 03       		.uleb128 0x3
 1145 048a 51050000 		.4byte	.LASF66
 1146 048e 0A       		.byte	0xa
 1147 048f 64       		.byte	0x64
 1148 0490 03       		.byte	0x3
 1149 0491 31040000 		.4byte	0x431
 1150 0495 0E       		.uleb128 0xe
 1151 0496 5B050000 		.4byte	.LASF68
 1152 049a 0A       		.byte	0xa
 1153 049b 68       		.byte	0x68
 1154 049c 12       		.byte	0x12
 1155 049d 89040000 		.4byte	0x489
 1156 04a1 06       		.uleb128 0x6
 1157 04a2 E5020000 		.4byte	.LASF69
 1158 04a6 10       		.byte	0x10
 1159 04a7 0B       		.byte	0xb
 1160 04a8 25       		.byte	0x25
 1161 04a9 10       		.byte	0x10
 1162 04aa D6040000 		.4byte	0x4d6
 1163 04ae 07       		.uleb128 0x7
 1164 04af DA000000 		.4byte	.LASF70
 1165 04b3 0B       		.byte	0xb
 1166 04b4 26       		.byte	0x26
 1167 04b5 19       		.byte	0x19
 1168 04b6 77020000 		.4byte	0x277
 1169 04ba 00       		.byte	0
 1170 04bb 07       		.uleb128 0x7
 1171 04bc A5050000 		.4byte	.LASF71
 1172 04c0 0B       		.byte	0xb
 1173 04c1 28       		.byte	0x28
 1174 04c2 1A       		.byte	0x1a
 1175 04c3 71020000 		.4byte	0x271
 1176 04c7 08       		.byte	0x8
 1177 04c8 07       		.uleb128 0x7
 1178 04c9 EF040000 		.4byte	.LASF72
 1179 04cd 0B       		.byte	0xb
 1180 04ce 2A       		.byte	0x2a
 1181 04cf 1A       		.byte	0x1a
 1182 04d0 D6040000 		.4byte	0x4d6
 1183 04d4 0C       		.byte	0xc
 1184 04d5 00       		.byte	0
 1185 04d6 0A       		.uleb128 0xa
 1186 04d7 04       		.byte	0x4
 1187 04d8 A1040000 		.4byte	0x4a1
 1188 04dc 03       		.uleb128 0x3
 1189 04dd E5020000 		.4byte	.LASF69
 1190 04e1 0B       		.byte	0xb
 1191 04e2 2C       		.byte	0x2c
 1192 04e3 03       		.byte	0x3
 1193 04e4 A1040000 		.4byte	0x4a1
ARM GAS  /var/folders/l5/0x54b2c10074c8bt31ycjvl80000gp/T//ccHcSmAz.s 			page 22


 1194 04e8 03       		.uleb128 0x3
 1195 04e9 25000000 		.4byte	.LASF73
 1196 04ed 0C       		.byte	0xc
 1197 04ee 25       		.byte	0x25
 1198 04ef 11       		.byte	0x11
 1199 04f0 F4040000 		.4byte	0x4f4
 1200 04f4 0A       		.uleb128 0xa
 1201 04f5 04       		.byte	0x4
 1202 04f6 FA040000 		.4byte	0x4fa
 1203 04fa 0F       		.uleb128 0xf
 1204 04fb BE020000 		.4byte	0x2be
 1205 04ff 09050000 		.4byte	0x509
 1206 0503 0D       		.uleb128 0xd
 1207 0504 2C000000 		.4byte	0x2c
 1208 0508 00       		.byte	0
 1209 0509 03       		.uleb128 0x3
 1210 050a B3030000 		.4byte	.LASF74
 1211 050e 0D       		.byte	0xd
 1212 050f 2D       		.byte	0x2d
 1213 0510 1C       		.byte	0x1c
 1214 0511 15050000 		.4byte	0x515
 1215 0515 06       		.uleb128 0x6
 1216 0516 BD050000 		.4byte	.LASF75
 1217 051a 1C       		.byte	0x1c
 1218 051b 0D       		.byte	0xd
 1219 051c 40       		.byte	0x40
 1220 051d 08       		.byte	0x8
 1221 051e 4A050000 		.4byte	0x54a
 1222 0522 07       		.uleb128 0x7
 1223 0523 F6030000 		.4byte	.LASF76
 1224 0527 0D       		.byte	0xd
 1225 0528 41       		.byte	0x41
 1226 0529 19       		.byte	0x19
 1227 052a E8040000 		.4byte	0x4e8
 1228 052e 00       		.byte	0
 1229 052f 07       		.uleb128 0x7
 1230 0530 60000000 		.4byte	.LASF77
 1231 0534 0D       		.byte	0xd
 1232 0535 43       		.byte	0x43
 1233 0536 19       		.byte	0x19
 1234 0537 6C050000 		.4byte	0x56c
 1235 053b 04       		.byte	0x4
 1236 053c 07       		.uleb128 0x7
 1237 053d B7000000 		.4byte	.LASF78
 1238 0541 0D       		.byte	0xd
 1239 0542 45       		.byte	0x45
 1240 0543 19       		.byte	0x19
 1241 0544 DC040000 		.4byte	0x4dc
 1242 0548 0C       		.byte	0xc
 1243 0549 00       		.byte	0
 1244 054a 10       		.uleb128 0x10
 1245 054b 04       		.byte	0x4
 1246 054c 0D       		.byte	0xd
 1247 054d 35       		.byte	0x35
 1248 054e 05       		.byte	0x5
 1249 054f 6C050000 		.4byte	0x56c
 1250 0553 11       		.uleb128 0x11
ARM GAS  /var/folders/l5/0x54b2c10074c8bt31ycjvl80000gp/T//ccHcSmAz.s 			page 23


 1251 0554 84000000 		.4byte	.LASF79
 1252 0558 0D       		.byte	0xd
 1253 0559 36       		.byte	0x36
 1254 055a 1A       		.byte	0x1a
 1255 055b 90050000 		.4byte	0x590
 1256 055f 11       		.uleb128 0x11
 1257 0560 C0040000 		.4byte	.LASF80
 1258 0564 0D       		.byte	0xd
 1259 0565 37       		.byte	0x37
 1260 0566 1A       		.byte	0x1a
 1261 0567 96050000 		.4byte	0x596
 1262 056b 00       		.byte	0
 1263 056c 12       		.uleb128 0x12
 1264 056d 3A040000 		.4byte	.LASF122
 1265 0571 08       		.byte	0x8
 1266 0572 0D       		.byte	0xd
 1267 0573 32       		.byte	0x32
 1268 0574 07       		.byte	0x7
 1269 0575 90050000 		.4byte	0x590
 1270 0579 11       		.uleb128 0x11
 1271 057a 6D010000 		.4byte	.LASF81
 1272 057e 0D       		.byte	0xd
 1273 057f 33       		.byte	0x33
 1274 0580 0E       		.byte	0xe
 1275 0581 A6020000 		.4byte	0x2a6
 1276 0585 13       		.uleb128 0x13
 1277 0586 6800     		.ascii	"h\000"
 1278 0588 0D       		.byte	0xd
 1279 0589 3A       		.byte	0x3a
 1280 058a 05       		.byte	0x5
 1281 058b 9C050000 		.4byte	0x59c
 1282 058f 00       		.byte	0
 1283 0590 0A       		.uleb128 0xa
 1284 0591 04       		.byte	0x4
 1285 0592 6C050000 		.4byte	0x56c
 1286 0596 0A       		.uleb128 0xa
 1287 0597 04       		.byte	0x4
 1288 0598 09050000 		.4byte	0x509
 1289 059c 09       		.uleb128 0x9
 1290 059d 08       		.byte	0x8
 1291 059e 0D       		.byte	0xd
 1292 059f 34       		.byte	0x34
 1293 05a0 03       		.byte	0x3
 1294 05a1 BE050000 		.4byte	0x5be
 1295 05a5 08       		.uleb128 0x8
 1296 05a6 7500     		.ascii	"u\000"
 1297 05a8 0D       		.byte	0xd
 1298 05a9 38       		.byte	0x38
 1299 05aa 07       		.byte	0x7
 1300 05ab 4A050000 		.4byte	0x54a
 1301 05af 00       		.byte	0
 1302 05b0 07       		.uleb128 0x7
 1303 05b1 CF010000 		.4byte	.LASF82
 1304 05b5 0D       		.byte	0xd
 1305 05b6 39       		.byte	0x39
 1306 05b7 19       		.byte	0x19
 1307 05b8 2C000000 		.4byte	0x2c
ARM GAS  /var/folders/l5/0x54b2c10074c8bt31ycjvl80000gp/T//ccHcSmAz.s 			page 24


 1308 05bc 04       		.byte	0x4
 1309 05bd 00       		.byte	0
 1310 05be 10       		.uleb128 0x10
 1311 05bf 04       		.byte	0x4
 1312 05c0 07       		.byte	0x7
 1313 05c1 8F       		.byte	0x8f
 1314 05c2 03       		.byte	0x3
 1315 05c3 F8050000 		.4byte	0x5f8
 1316 05c7 11       		.uleb128 0x11
 1317 05c8 0D000000 		.4byte	.LASF83
 1318 05cc 07       		.byte	0x7
 1319 05cd 96       		.byte	0x96
 1320 05ce 19       		.byte	0x19
 1321 05cf 13010000 		.4byte	0x113
 1322 05d3 11       		.uleb128 0x11
 1323 05d4 57000000 		.4byte	.LASF84
 1324 05d8 07       		.byte	0x7
 1325 05d9 9D       		.byte	0x9d
 1326 05da 19       		.byte	0x19
 1327 05db 13010000 		.4byte	0x113
 1328 05df 11       		.uleb128 0x11
 1329 05e0 69050000 		.4byte	.LASF85
 1330 05e4 07       		.byte	0x7
 1331 05e5 A4       		.byte	0xa4
 1332 05e6 1A       		.byte	0x1a
 1333 05e7 BE020000 		.4byte	0x2be
 1334 05eb 11       		.uleb128 0x11
 1335 05ec 46040000 		.4byte	.LASF86
 1336 05f0 07       		.byte	0x7
 1337 05f1 AB       		.byte	0xab
 1338 05f2 19       		.byte	0x19
 1339 05f3 1F010000 		.4byte	0x11f
 1340 05f7 00       		.byte	0
 1341 05f8 0A       		.uleb128 0xa
 1342 05f9 04       		.byte	0x4
 1343 05fa 05060000 		.4byte	0x605
 1344 05fe 04       		.uleb128 0x4
 1345 05ff 01       		.byte	0x1
 1346 0600 08       		.byte	0x8
 1347 0601 D2040000 		.4byte	.LASF87
 1348 0605 14       		.uleb128 0x14
 1349 0606 FE050000 		.4byte	0x5fe
 1350 060a 0A       		.uleb128 0xa
 1351 060b 04       		.byte	0x4
 1352 060c DC040000 		.4byte	0x4dc
 1353 0610 09       		.uleb128 0x9
 1354 0611 16       		.byte	0x16
 1355 0612 0E       		.byte	0xe
 1356 0613 25       		.byte	0x25
 1357 0614 09       		.byte	0x9
 1358 0615 04070000 		.4byte	0x704
 1359 0619 07       		.uleb128 0x7
 1360 061a B9010000 		.4byte	.LASF88
 1361 061e 0E       		.byte	0xe
 1362 061f 26       		.byte	0x26
 1363 0620 0D       		.byte	0xd
 1364 0621 04070000 		.4byte	0x704
ARM GAS  /var/folders/l5/0x54b2c10074c8bt31ycjvl80000gp/T//ccHcSmAz.s 			page 25


 1365 0625 00       		.byte	0
 1366 0626 07       		.uleb128 0x7
 1367 0627 F6020000 		.4byte	.LASF89
 1368 062b 0E       		.byte	0xe
 1369 062c 27       		.byte	0x27
 1370 062d 0D       		.byte	0xd
 1371 062e A7000000 		.4byte	0xa7
 1372 0632 04       		.byte	0x4
 1373 0633 07       		.uleb128 0x7
 1374 0634 99030000 		.4byte	.LASF90
 1375 0638 0E       		.byte	0xe
 1376 0639 28       		.byte	0x28
 1377 063a 0D       		.byte	0xd
 1378 063b A7000000 		.4byte	0xa7
 1379 063f 05       		.byte	0x5
 1380 0640 07       		.uleb128 0x7
 1381 0641 93050000 		.4byte	.LASF91
 1382 0645 0E       		.byte	0xe
 1383 0646 29       		.byte	0x29
 1384 0647 0D       		.byte	0xd
 1385 0648 B3000000 		.4byte	0xb3
 1386 064c 06       		.byte	0x6
 1387 064d 07       		.uleb128 0x7
 1388 064e C6030000 		.4byte	.LASF92
 1389 0652 0E       		.byte	0xe
 1390 0653 2A       		.byte	0x2a
 1391 0654 0D       		.byte	0xd
 1392 0655 A7000000 		.4byte	0xa7
 1393 0659 08       		.byte	0x8
 1394 065a 07       		.uleb128 0x7
 1395 065b 1A030000 		.4byte	.LASF93
 1396 065f 0E       		.byte	0xe
 1397 0660 2B       		.byte	0x2b
 1398 0661 0D       		.byte	0xd
 1399 0662 A7000000 		.4byte	0xa7
 1400 0666 09       		.byte	0x9
 1401 0667 07       		.uleb128 0x7
 1402 0668 49000000 		.4byte	.LASF94
 1403 066c 0E       		.byte	0xe
 1404 066d 2C       		.byte	0x2c
 1405 066e 0D       		.byte	0xd
 1406 066f A7000000 		.4byte	0xa7
 1407 0673 0A       		.byte	0xa
 1408 0674 07       		.uleb128 0x7
 1409 0675 9F040000 		.4byte	.LASF95
 1410 0679 0E       		.byte	0xe
 1411 067a 2D       		.byte	0x2d
 1412 067b 0D       		.byte	0xd
 1413 067c A7000000 		.4byte	0xa7
 1414 0680 0B       		.byte	0xb
 1415 0681 07       		.uleb128 0x7
 1416 0682 3F050000 		.4byte	.LASF96
 1417 0686 0E       		.byte	0xe
 1418 0687 2E       		.byte	0x2e
 1419 0688 0D       		.byte	0xd
 1420 0689 A7000000 		.4byte	0xa7
 1421 068d 0C       		.byte	0xc
ARM GAS  /var/folders/l5/0x54b2c10074c8bt31ycjvl80000gp/T//ccHcSmAz.s 			page 26


 1422 068e 07       		.uleb128 0x7
 1423 068f 7E040000 		.4byte	.LASF97
 1424 0693 0E       		.byte	0xe
 1425 0694 2F       		.byte	0x2f
 1426 0695 0D       		.byte	0xd
 1427 0696 A7000000 		.4byte	0xa7
 1428 069a 0D       		.byte	0xd
 1429 069b 07       		.uleb128 0x7
 1430 069c 88010000 		.4byte	.LASF98
 1431 06a0 0E       		.byte	0xe
 1432 06a1 30       		.byte	0x30
 1433 06a2 0D       		.byte	0xd
 1434 06a3 A7000000 		.4byte	0xa7
 1435 06a7 0E       		.byte	0xe
 1436 06a8 07       		.uleb128 0x7
 1437 06a9 26030000 		.4byte	.LASF99
 1438 06ad 0E       		.byte	0xe
 1439 06ae 31       		.byte	0x31
 1440 06af 0D       		.byte	0xd
 1441 06b0 A7000000 		.4byte	0xa7
 1442 06b4 0F       		.byte	0xf
 1443 06b5 07       		.uleb128 0x7
 1444 06b6 BD000000 		.4byte	.LASF100
 1445 06ba 0E       		.byte	0xe
 1446 06bb 32       		.byte	0x32
 1447 06bc 0D       		.byte	0xd
 1448 06bd A7000000 		.4byte	0xa7
 1449 06c1 10       		.byte	0x10
 1450 06c2 07       		.uleb128 0x7
 1451 06c3 90000000 		.4byte	.LASF101
 1452 06c7 0E       		.byte	0xe
 1453 06c8 34       		.byte	0x34
 1454 06c9 0D       		.byte	0xd
 1455 06ca A7000000 		.4byte	0xa7
 1456 06ce 11       		.byte	0x11
 1457 06cf 07       		.uleb128 0x7
 1458 06d0 CD000000 		.4byte	.LASF102
 1459 06d4 0E       		.byte	0xe
 1460 06d5 35       		.byte	0x35
 1461 06d6 0D       		.byte	0xd
 1462 06d7 A7000000 		.4byte	0xa7
 1463 06db 12       		.byte	0x12
 1464 06dc 07       		.uleb128 0x7
 1465 06dd FE020000 		.4byte	.LASF103
 1466 06e1 0E       		.byte	0xe
 1467 06e2 36       		.byte	0x36
 1468 06e3 0D       		.byte	0xd
 1469 06e4 A7000000 		.4byte	0xa7
 1470 06e8 13       		.byte	0x13
 1471 06e9 07       		.uleb128 0x7
 1472 06ea 54040000 		.4byte	.LASF104
 1473 06ee 0E       		.byte	0xe
 1474 06ef 37       		.byte	0x37
 1475 06f0 0D       		.byte	0xd
 1476 06f1 A7000000 		.4byte	0xa7
 1477 06f5 14       		.byte	0x14
 1478 06f6 07       		.uleb128 0x7
ARM GAS  /var/folders/l5/0x54b2c10074c8bt31ycjvl80000gp/T//ccHcSmAz.s 			page 27


 1479 06f7 27040000 		.4byte	.LASF105
 1480 06fb 0E       		.byte	0xe
 1481 06fc 39       		.byte	0x39
 1482 06fd 0D       		.byte	0xd
 1483 06fe A7000000 		.4byte	0xa7
 1484 0702 15       		.byte	0x15
 1485 0703 00       		.byte	0
 1486 0704 15       		.uleb128 0x15
 1487 0705 FE050000 		.4byte	0x5fe
 1488 0709 14070000 		.4byte	0x714
 1489 070d 16       		.uleb128 0x16
 1490 070e 38000000 		.4byte	0x38
 1491 0712 03       		.byte	0x3
 1492 0713 00       		.byte	0
 1493 0714 03       		.uleb128 0x3
 1494 0715 2F010000 		.4byte	.LASF106
 1495 0719 0E       		.byte	0xe
 1496 071a 3A       		.byte	0x3a
 1497 071b 03       		.byte	0x3
 1498 071c 10060000 		.4byte	0x610
 1499 0720 14       		.uleb128 0x14
 1500 0721 14070000 		.4byte	0x714
 1501 0725 0E       		.uleb128 0xe
 1502 0726 A7010000 		.4byte	.LASF107
 1503 072a 0E       		.byte	0xe
 1504 072b 77       		.byte	0x77
 1505 072c 1D       		.byte	0x1d
 1506 072d 20070000 		.4byte	0x720
 1507 0731 15       		.uleb128 0x15
 1508 0732 A6020000 		.4byte	0x2a6
 1509 0736 41070000 		.4byte	0x741
 1510 073a 16       		.uleb128 0x16
 1511 073b 38000000 		.4byte	0x38
 1512 073f 26       		.byte	0x26
 1513 0740 00       		.byte	0
 1514 0741 0E       		.uleb128 0xe
 1515 0742 41010000 		.4byte	.LASF108
 1516 0746 0F       		.byte	0xf
 1517 0747 82       		.byte	0x82
 1518 0748 08       		.byte	0x8
 1519 0749 31070000 		.4byte	0x731
 1520 074d 17       		.uleb128 0x17
 1521 074e C5040000 		.4byte	.LASF123
 1522 0752 01       		.byte	0x1
 1523 0753 3D       		.byte	0x3d
 1524 0754 13       		.byte	0x13
 1525 0755 09050000 		.4byte	0x509
 1526 0759 05       		.uleb128 0x5
 1527 075a 03       		.byte	0x3
 1528 075b 00000000 		.4byte	default_heap
 1529 075f 18       		.uleb128 0x18
 1530 0760 E2040000 		.4byte	.LASF111
 1531 0764 01       		.byte	0x1
 1532 0765 F3       		.byte	0xf3
 1533 0766 08       		.byte	0x8
 1534 0767 2C000000 		.4byte	0x2c
 1535 076b 00000000 		.4byte	.LFB11
ARM GAS  /var/folders/l5/0x54b2c10074c8bt31ycjvl80000gp/T//ccHcSmAz.s 			page 28


 1536 076f 6C000000 		.4byte	.LFE11-.LFB11
 1537 0773 01       		.uleb128 0x1
 1538 0774 9C       		.byte	0x9c
 1539 0775 F7070000 		.4byte	0x7f7
 1540 0779 19       		.uleb128 0x19
 1541 077a 67000000 		.4byte	.LASF109
 1542 077e 01       		.byte	0x1
 1543 077f F3       		.byte	0xf3
 1544 0780 21       		.byte	0x21
 1545 0781 96050000 		.4byte	0x596
 1546 0785 0A000000 		.4byte	.LLST13
 1547 0789 00000000 		.4byte	.LVUS13
 1548 078d 19       		.uleb128 0x19
 1549 078e 70050000 		.4byte	.LASF110
 1550 0792 01       		.byte	0x1
 1551 0793 F3       		.byte	0xf3
 1552 0794 30       		.byte	0x30
 1553 0795 F7070000 		.4byte	0x7f7
 1554 0799 71000000 		.4byte	.LLST14
 1555 079d 6D000000 		.4byte	.LVUS14
 1556 07a1 1A       		.uleb128 0x1a
 1557 07a2 717000   		.ascii	"qp\000"
 1558 07a5 01       		.byte	0x1
 1559 07a6 F4       		.byte	0xf4
 1560 07a7 16       		.byte	0x16
 1561 07a8 90050000 		.4byte	0x590
 1562 07ac 97000000 		.4byte	.LLST15
 1563 07b0 8F000000 		.4byte	.LVUS15
 1564 07b4 1A       		.uleb128 0x1a
 1565 07b5 6E00     		.ascii	"n\000"
 1566 07b7 01       		.byte	0x1
 1567 07b8 F5       		.byte	0xf5
 1568 07b9 0A       		.byte	0xa
 1569 07ba 2C000000 		.4byte	0x2c
 1570 07be 01010000 		.4byte	.LLST16
 1571 07c2 F7000000 		.4byte	.LVUS16
 1572 07c6 1A       		.uleb128 0x1a
 1573 07c7 737A00   		.ascii	"sz\000"
 1574 07ca 01       		.byte	0x1
 1575 07cb F5       		.byte	0xf5
 1576 07cc 0D       		.byte	0xd
 1577 07cd 2C000000 		.4byte	0x2c
 1578 07d1 4A010000 		.4byte	.LLST17
 1579 07d5 44010000 		.4byte	.LVUS17
 1580 07d9 1B       		.uleb128 0x1b
 1581 07da 1C000000 		.4byte	.LVL35
 1582 07de DB090000 		.4byte	0x9db
 1583 07e2 ED070000 		.4byte	0x7ed
 1584 07e6 1C       		.uleb128 0x1c
 1585 07e7 01       		.uleb128 0x1
 1586 07e8 50       		.byte	0x50
 1587 07e9 02       		.uleb128 0x2
 1588 07ea 74       		.byte	0x74
 1589 07eb 0C       		.sleb128 12
 1590 07ec 00       		.byte	0
 1591 07ed 1D       		.uleb128 0x1d
 1592 07ee 54000000 		.4byte	.LVL40
ARM GAS  /var/folders/l5/0x54b2c10074c8bt31ycjvl80000gp/T//ccHcSmAz.s 			page 29


 1593 07f2 E7090000 		.4byte	0x9e7
 1594 07f6 00       		.byte	0
 1595 07f7 0A       		.uleb128 0xa
 1596 07f8 04       		.byte	0x4
 1597 07f9 2C000000 		.4byte	0x2c
 1598 07fd 1E       		.uleb128 0x1e
 1599 07fe E2000000 		.4byte	.LASF113
 1600 0802 01       		.byte	0x1
 1601 0803 BB       		.byte	0xbb
 1602 0804 06       		.byte	0x6
 1603 0805 00000000 		.4byte	.LFB10
 1604 0809 B8000000 		.4byte	.LFE10-.LFB10
 1605 080d 01       		.uleb128 0x1
 1606 080e 9C       		.byte	0x9c
 1607 080f 86080000 		.4byte	0x886
 1608 0813 1F       		.uleb128 0x1f
 1609 0814 7000     		.ascii	"p\000"
 1610 0816 01       		.byte	0x1
 1611 0817 BB       		.byte	0xbb
 1612 0818 17       		.byte	0x17
 1613 0819 BE020000 		.4byte	0x2be
 1614 081d 7F010000 		.4byte	.LLST9
 1615 0821 75010000 		.4byte	.LVUS9
 1616 0825 1A       		.uleb128 0x1a
 1617 0826 717000   		.ascii	"qp\000"
 1618 0829 01       		.byte	0x1
 1619 082a BC       		.byte	0xbc
 1620 082b 16       		.byte	0x16
 1621 082c 90050000 		.4byte	0x590
 1622 0830 C8010000 		.4byte	.LLST10
 1623 0834 C4010000 		.4byte	.LVUS10
 1624 0838 1A       		.uleb128 0x1a
 1625 0839 687000   		.ascii	"hp\000"
 1626 083c 01       		.byte	0x1
 1627 083d BC       		.byte	0xbc
 1628 083e 1B       		.byte	0x1b
 1629 083f 90050000 		.4byte	0x590
 1630 0843 EE010000 		.4byte	.LLST11
 1631 0847 E6010000 		.4byte	.LVUS11
 1632 084b 20       		.uleb128 0x20
 1633 084c 67000000 		.4byte	.LASF109
 1634 0850 01       		.byte	0x1
 1635 0851 BD       		.byte	0xbd
 1636 0852 0F       		.byte	0xf
 1637 0853 96050000 		.4byte	0x596
 1638 0857 34020000 		.4byte	.LLST12
 1639 085b 2C020000 		.4byte	.LVUS12
 1640 085f 1B       		.uleb128 0x1b
 1641 0860 1C000000 		.4byte	.LVL26
 1642 0864 DB090000 		.4byte	0x9db
 1643 0868 73080000 		.4byte	0x873
 1644 086c 1C       		.uleb128 0x1c
 1645 086d 01       		.uleb128 0x1
 1646 086e 50       		.byte	0x50
 1647 086f 02       		.uleb128 0x2
 1648 0870 75       		.byte	0x75
 1649 0871 08       		.sleb128 8
ARM GAS  /var/folders/l5/0x54b2c10074c8bt31ycjvl80000gp/T//ccHcSmAz.s 			page 30


 1650 0872 00       		.byte	0
 1651 0873 21       		.uleb128 0x21
 1652 0874 A0000000 		.4byte	.LVL30
 1653 0878 E7090000 		.4byte	0x9e7
 1654 087c 21       		.uleb128 0x21
 1655 087d B8000000 		.4byte	.LVL32
 1656 0881 E7090000 		.4byte	0x9e7
 1657 0885 00       		.byte	0
 1658 0886 18       		.uleb128 0x18
 1659 0887 72040000 		.4byte	.LASF112
 1660 088b 01       		.byte	0x1
 1661 088c 7D       		.byte	0x7d
 1662 088d 07       		.byte	0x7
 1663 088e BE020000 		.4byte	0x2be
 1664 0892 00000000 		.4byte	.LFB9
 1665 0896 B4000000 		.4byte	.LFE9-.LFB9
 1666 089a 01       		.uleb128 0x1
 1667 089b 9C       		.byte	0x9c
 1668 089c 38090000 		.4byte	0x938
 1669 08a0 19       		.uleb128 0x19
 1670 08a1 67000000 		.4byte	.LASF109
 1671 08a5 01       		.byte	0x1
 1672 08a6 7D       		.byte	0x7d
 1673 08a7 1F       		.byte	0x1f
 1674 08a8 96050000 		.4byte	0x596
 1675 08ac 71020000 		.4byte	.LLST4
 1676 08b0 6D020000 		.4byte	.LVUS4
 1677 08b4 19       		.uleb128 0x19
 1678 08b5 CF010000 		.4byte	.LASF82
 1679 08b9 01       		.byte	0x1
 1680 08ba 7D       		.byte	0x7d
 1681 08bb 2D       		.byte	0x2d
 1682 08bc 2C000000 		.4byte	0x2c
 1683 08c0 95020000 		.4byte	.LLST5
 1684 08c4 8F020000 		.4byte	.LVUS5
 1685 08c8 1A       		.uleb128 0x1a
 1686 08c9 717000   		.ascii	"qp\000"
 1687 08cc 01       		.byte	0x1
 1688 08cd 7E       		.byte	0x7e
 1689 08ce 16       		.byte	0x16
 1690 08cf 90050000 		.4byte	0x590
 1691 08d3 C4020000 		.4byte	.LLST6
 1692 08d7 C0020000 		.4byte	.LVUS6
 1693 08db 1A       		.uleb128 0x1a
 1694 08dc 687000   		.ascii	"hp\000"
 1695 08df 01       		.byte	0x1
 1696 08e0 7E       		.byte	0x7e
 1697 08e1 1B       		.byte	0x1b
 1698 08e2 90050000 		.4byte	0x590
 1699 08e6 EC020000 		.4byte	.LLST7
 1700 08ea E2020000 		.4byte	.LVUS7
 1701 08ee 1A       		.uleb128 0x1a
 1702 08ef 667000   		.ascii	"fp\000"
 1703 08f2 01       		.byte	0x1
 1704 08f3 7E       		.byte	0x7e
 1705 08f4 20       		.byte	0x20
 1706 08f5 90050000 		.4byte	0x590
ARM GAS  /var/folders/l5/0x54b2c10074c8bt31ycjvl80000gp/T//ccHcSmAz.s 			page 31


 1707 08f9 2F030000 		.4byte	.LLST8
 1708 08fd 2D030000 		.4byte	.LVUS8
 1709 0901 1B       		.uleb128 0x1b
 1710 0902 24000000 		.4byte	.LVL11
 1711 0906 DB090000 		.4byte	0x9db
 1712 090a 15090000 		.4byte	0x915
 1713 090e 1C       		.uleb128 0x1c
 1714 090f 01       		.uleb128 0x1
 1715 0910 50       		.byte	0x50
 1716 0911 02       		.uleb128 0x2
 1717 0912 77       		.byte	0x77
 1718 0913 0C       		.sleb128 12
 1719 0914 00       		.byte	0
 1720 0915 1D       		.uleb128 0x1d
 1721 0916 48000000 		.4byte	.LVL15
 1722 091a E7090000 		.4byte	0x9e7
 1723 091e 22       		.uleb128 0x22
 1724 091f 5C000000 		.4byte	.LVL16
 1725 0923 2E090000 		.4byte	0x92e
 1726 0927 1C       		.uleb128 0x1c
 1727 0928 01       		.uleb128 0x1
 1728 0929 50       		.byte	0x50
 1729 092a 02       		.uleb128 0x2
 1730 092b 76       		.byte	0x76
 1731 092c 08       		.sleb128 8
 1732 092d 00       		.byte	0
 1733 092e 1D       		.uleb128 0x1d
 1734 092f A8000000 		.4byte	.LVL20
 1735 0933 E7090000 		.4byte	0x9e7
 1736 0937 00       		.byte	0
 1737 0938 1E       		.uleb128 0x1e
 1738 0939 79000000 		.4byte	.LASF114
 1739 093d 01       		.byte	0x1
 1740 093e 5C       		.byte	0x5c
 1741 093f 06       		.byte	0x6
 1742 0940 00000000 		.4byte	.LFB8
 1743 0944 24000000 		.4byte	.LFE8-.LFB8
 1744 0948 01       		.uleb128 0x1
 1745 0949 9C       		.byte	0x9c
 1746 094a B1090000 		.4byte	0x9b1
 1747 094e 19       		.uleb128 0x19
 1748 094f 67000000 		.4byte	.LASF109
 1749 0953 01       		.byte	0x1
 1750 0954 5C       		.byte	0x5c
 1751 0955 1D       		.byte	0x1d
 1752 0956 96050000 		.4byte	0x596
 1753 095a 48030000 		.4byte	.LLST0
 1754 095e 42030000 		.4byte	.LVUS0
 1755 0962 1F       		.uleb128 0x1f
 1756 0963 62756600 		.ascii	"buf\000"
 1757 0967 01       		.byte	0x1
 1758 0968 5C       		.byte	0x5c
 1759 0969 2A       		.byte	0x2a
 1760 096a BE020000 		.4byte	0x2be
 1761 096e 7A030000 		.4byte	.LLST1
 1762 0972 76030000 		.4byte	.LVUS1
 1763 0976 19       		.uleb128 0x19
ARM GAS  /var/folders/l5/0x54b2c10074c8bt31ycjvl80000gp/T//ccHcSmAz.s 			page 32


 1764 0977 CF010000 		.4byte	.LASF82
 1765 097b 01       		.byte	0x1
 1766 097c 5C       		.byte	0x5c
 1767 097d 36       		.byte	0x36
 1768 097e 2C000000 		.4byte	0x2c
 1769 0982 A1030000 		.4byte	.LLST2
 1770 0986 9B030000 		.4byte	.LVUS2
 1771 098a 1A       		.uleb128 0x1a
 1772 098b 687000   		.ascii	"hp\000"
 1773 098e 01       		.byte	0x1
 1774 098f 5D       		.byte	0x5d
 1775 0990 16       		.byte	0x16
 1776 0991 90050000 		.4byte	0x590
 1777 0995 D3030000 		.4byte	.LLST3
 1778 0999 CF030000 		.4byte	.LVUS3
 1779 099d 23       		.uleb128 0x23
 1780 099e 24000000 		.4byte	.LVL5
 1781 09a2 F3090000 		.4byte	0x9f3
 1782 09a6 1C       		.uleb128 0x1c
 1783 09a7 01       		.uleb128 0x1
 1784 09a8 50       		.byte	0x50
 1785 09a9 05       		.uleb128 0x5
 1786 09aa F3       		.byte	0xf3
 1787 09ab 01       		.uleb128 0x1
 1788 09ac 50       		.byte	0x50
 1789 09ad 23       		.byte	0x23
 1790 09ae 0C       		.uleb128 0xc
 1791 09af 00       		.byte	0
 1792 09b0 00       		.byte	0
 1793 09b1 1E       		.uleb128 0x1e
 1794 09b2 88050000 		.4byte	.LASF115
 1795 09b6 01       		.byte	0x1
 1796 09b7 44       		.byte	0x44
 1797 09b8 06       		.byte	0x6
 1798 09b9 00000000 		.4byte	.LFB7
 1799 09bd 28000000 		.4byte	.LFE7-.LFB7
 1800 09c1 01       		.uleb128 0x1
 1801 09c2 9C       		.byte	0x9c
 1802 09c3 DB090000 		.4byte	0x9db
 1803 09c7 23       		.uleb128 0x23
 1804 09c8 20000000 		.4byte	.LVL0
 1805 09cc F3090000 		.4byte	0x9f3
 1806 09d0 1C       		.uleb128 0x1c
 1807 09d1 01       		.uleb128 0x1
 1808 09d2 50       		.byte	0x50
 1809 09d3 05       		.uleb128 0x5
 1810 09d4 03       		.byte	0x3
 1811 09d5 0C000000 		.4byte	.LANCHOR0+12
 1812 09d9 00       		.byte	0
 1813 09da 00       		.byte	0
 1814 09db 24       		.uleb128 0x24
 1815 09dc 32030000 		.4byte	.LASF116
 1816 09e0 32030000 		.4byte	.LASF116
 1817 09e4 0B       		.byte	0xb
 1818 09e5 32       		.byte	0x32
 1819 09e6 08       		.byte	0x8
 1820 09e7 24       		.uleb128 0x24
ARM GAS  /var/folders/l5/0x54b2c10074c8bt31ycjvl80000gp/T//ccHcSmAz.s 			page 33


 1821 09e8 6D000000 		.4byte	.LASF117
 1822 09ec 6D000000 		.4byte	.LASF117
 1823 09f0 0B       		.byte	0xb
 1824 09f1 36       		.byte	0x36
 1825 09f2 0A       		.byte	0xa
 1826 09f3 24       		.uleb128 0x24
 1827 09f4 35050000 		.4byte	.LASF118
 1828 09f8 35050000 		.4byte	.LASF118
 1829 09fc 0B       		.byte	0xb
 1830 09fd 31       		.byte	0x31
 1831 09fe 08       		.byte	0x8
 1832 09ff 00       		.byte	0
 1833              		.section	.debug_abbrev,"",%progbits
 1834              	.Ldebug_abbrev0:
 1835 0000 01       		.uleb128 0x1
 1836 0001 11       		.uleb128 0x11
 1837 0002 01       		.byte	0x1
 1838 0003 25       		.uleb128 0x25
 1839 0004 0E       		.uleb128 0xe
 1840 0005 13       		.uleb128 0x13
 1841 0006 0B       		.uleb128 0xb
 1842 0007 03       		.uleb128 0x3
 1843 0008 0E       		.uleb128 0xe
 1844 0009 1B       		.uleb128 0x1b
 1845 000a 0E       		.uleb128 0xe
 1846 000b 55       		.uleb128 0x55
 1847 000c 17       		.uleb128 0x17
 1848 000d 11       		.uleb128 0x11
 1849 000e 01       		.uleb128 0x1
 1850 000f 10       		.uleb128 0x10
 1851 0010 17       		.uleb128 0x17
 1852 0011 00       		.byte	0
 1853 0012 00       		.byte	0
 1854 0013 02       		.uleb128 0x2
 1855 0014 24       		.uleb128 0x24
 1856 0015 00       		.byte	0
 1857 0016 0B       		.uleb128 0xb
 1858 0017 0B       		.uleb128 0xb
 1859 0018 3E       		.uleb128 0x3e
 1860 0019 0B       		.uleb128 0xb
 1861 001a 03       		.uleb128 0x3
 1862 001b 08       		.uleb128 0x8
 1863 001c 00       		.byte	0
 1864 001d 00       		.byte	0
 1865 001e 03       		.uleb128 0x3
 1866 001f 16       		.uleb128 0x16
 1867 0020 00       		.byte	0
 1868 0021 03       		.uleb128 0x3
 1869 0022 0E       		.uleb128 0xe
 1870 0023 3A       		.uleb128 0x3a
 1871 0024 0B       		.uleb128 0xb
 1872 0025 3B       		.uleb128 0x3b
 1873 0026 0B       		.uleb128 0xb
 1874 0027 39       		.uleb128 0x39
 1875 0028 0B       		.uleb128 0xb
 1876 0029 49       		.uleb128 0x49
 1877 002a 13       		.uleb128 0x13
ARM GAS  /var/folders/l5/0x54b2c10074c8bt31ycjvl80000gp/T//ccHcSmAz.s 			page 34


 1878 002b 00       		.byte	0
 1879 002c 00       		.byte	0
 1880 002d 04       		.uleb128 0x4
 1881 002e 24       		.uleb128 0x24
 1882 002f 00       		.byte	0
 1883 0030 0B       		.uleb128 0xb
 1884 0031 0B       		.uleb128 0xb
 1885 0032 3E       		.uleb128 0x3e
 1886 0033 0B       		.uleb128 0xb
 1887 0034 03       		.uleb128 0x3
 1888 0035 0E       		.uleb128 0xe
 1889 0036 00       		.byte	0
 1890 0037 00       		.byte	0
 1891 0038 05       		.uleb128 0x5
 1892 0039 35       		.uleb128 0x35
 1893 003a 00       		.byte	0
 1894 003b 49       		.uleb128 0x49
 1895 003c 13       		.uleb128 0x13
 1896 003d 00       		.byte	0
 1897 003e 00       		.byte	0
 1898 003f 06       		.uleb128 0x6
 1899 0040 13       		.uleb128 0x13
 1900 0041 01       		.byte	0x1
 1901 0042 03       		.uleb128 0x3
 1902 0043 0E       		.uleb128 0xe
 1903 0044 0B       		.uleb128 0xb
 1904 0045 0B       		.uleb128 0xb
 1905 0046 3A       		.uleb128 0x3a
 1906 0047 0B       		.uleb128 0xb
 1907 0048 3B       		.uleb128 0x3b
 1908 0049 0B       		.uleb128 0xb
 1909 004a 39       		.uleb128 0x39
 1910 004b 0B       		.uleb128 0xb
 1911 004c 01       		.uleb128 0x1
 1912 004d 13       		.uleb128 0x13
 1913 004e 00       		.byte	0
 1914 004f 00       		.byte	0
 1915 0050 07       		.uleb128 0x7
 1916 0051 0D       		.uleb128 0xd
 1917 0052 00       		.byte	0
 1918 0053 03       		.uleb128 0x3
 1919 0054 0E       		.uleb128 0xe
 1920 0055 3A       		.uleb128 0x3a
 1921 0056 0B       		.uleb128 0xb
 1922 0057 3B       		.uleb128 0x3b
 1923 0058 0B       		.uleb128 0xb
 1924 0059 39       		.uleb128 0x39
 1925 005a 0B       		.uleb128 0xb
 1926 005b 49       		.uleb128 0x49
 1927 005c 13       		.uleb128 0x13
 1928 005d 38       		.uleb128 0x38
 1929 005e 0B       		.uleb128 0xb
 1930 005f 00       		.byte	0
 1931 0060 00       		.byte	0
 1932 0061 08       		.uleb128 0x8
 1933 0062 0D       		.uleb128 0xd
 1934 0063 00       		.byte	0
ARM GAS  /var/folders/l5/0x54b2c10074c8bt31ycjvl80000gp/T//ccHcSmAz.s 			page 35


 1935 0064 03       		.uleb128 0x3
 1936 0065 08       		.uleb128 0x8
 1937 0066 3A       		.uleb128 0x3a
 1938 0067 0B       		.uleb128 0xb
 1939 0068 3B       		.uleb128 0x3b
 1940 0069 0B       		.uleb128 0xb
 1941 006a 39       		.uleb128 0x39
 1942 006b 0B       		.uleb128 0xb
 1943 006c 49       		.uleb128 0x49
 1944 006d 13       		.uleb128 0x13
 1945 006e 38       		.uleb128 0x38
 1946 006f 0B       		.uleb128 0xb
 1947 0070 00       		.byte	0
 1948 0071 00       		.byte	0
 1949 0072 09       		.uleb128 0x9
 1950 0073 13       		.uleb128 0x13
 1951 0074 01       		.byte	0x1
 1952 0075 0B       		.uleb128 0xb
 1953 0076 0B       		.uleb128 0xb
 1954 0077 3A       		.uleb128 0x3a
 1955 0078 0B       		.uleb128 0xb
 1956 0079 3B       		.uleb128 0x3b
 1957 007a 0B       		.uleb128 0xb
 1958 007b 39       		.uleb128 0x39
 1959 007c 0B       		.uleb128 0xb
 1960 007d 01       		.uleb128 0x1
 1961 007e 13       		.uleb128 0x13
 1962 007f 00       		.byte	0
 1963 0080 00       		.byte	0
 1964 0081 0A       		.uleb128 0xa
 1965 0082 0F       		.uleb128 0xf
 1966 0083 00       		.byte	0
 1967 0084 0B       		.uleb128 0xb
 1968 0085 0B       		.uleb128 0xb
 1969 0086 49       		.uleb128 0x49
 1970 0087 13       		.uleb128 0x13
 1971 0088 00       		.byte	0
 1972 0089 00       		.byte	0
 1973 008a 0B       		.uleb128 0xb
 1974 008b 0F       		.uleb128 0xf
 1975 008c 00       		.byte	0
 1976 008d 0B       		.uleb128 0xb
 1977 008e 0B       		.uleb128 0xb
 1978 008f 00       		.byte	0
 1979 0090 00       		.byte	0
 1980 0091 0C       		.uleb128 0xc
 1981 0092 15       		.uleb128 0x15
 1982 0093 01       		.byte	0x1
 1983 0094 27       		.uleb128 0x27
 1984 0095 19       		.uleb128 0x19
 1985 0096 01       		.uleb128 0x1
 1986 0097 13       		.uleb128 0x13
 1987 0098 00       		.byte	0
 1988 0099 00       		.byte	0
 1989 009a 0D       		.uleb128 0xd
 1990 009b 05       		.uleb128 0x5
 1991 009c 00       		.byte	0
ARM GAS  /var/folders/l5/0x54b2c10074c8bt31ycjvl80000gp/T//ccHcSmAz.s 			page 36


 1992 009d 49       		.uleb128 0x49
 1993 009e 13       		.uleb128 0x13
 1994 009f 00       		.byte	0
 1995 00a0 00       		.byte	0
 1996 00a1 0E       		.uleb128 0xe
 1997 00a2 34       		.uleb128 0x34
 1998 00a3 00       		.byte	0
 1999 00a4 03       		.uleb128 0x3
 2000 00a5 0E       		.uleb128 0xe
 2001 00a6 3A       		.uleb128 0x3a
 2002 00a7 0B       		.uleb128 0xb
 2003 00a8 3B       		.uleb128 0x3b
 2004 00a9 0B       		.uleb128 0xb
 2005 00aa 39       		.uleb128 0x39
 2006 00ab 0B       		.uleb128 0xb
 2007 00ac 49       		.uleb128 0x49
 2008 00ad 13       		.uleb128 0x13
 2009 00ae 3F       		.uleb128 0x3f
 2010 00af 19       		.uleb128 0x19
 2011 00b0 3C       		.uleb128 0x3c
 2012 00b1 19       		.uleb128 0x19
 2013 00b2 00       		.byte	0
 2014 00b3 00       		.byte	0
 2015 00b4 0F       		.uleb128 0xf
 2016 00b5 15       		.uleb128 0x15
 2017 00b6 01       		.byte	0x1
 2018 00b7 27       		.uleb128 0x27
 2019 00b8 19       		.uleb128 0x19
 2020 00b9 49       		.uleb128 0x49
 2021 00ba 13       		.uleb128 0x13
 2022 00bb 01       		.uleb128 0x1
 2023 00bc 13       		.uleb128 0x13
 2024 00bd 00       		.byte	0
 2025 00be 00       		.byte	0
 2026 00bf 10       		.uleb128 0x10
 2027 00c0 17       		.uleb128 0x17
 2028 00c1 01       		.byte	0x1
 2029 00c2 0B       		.uleb128 0xb
 2030 00c3 0B       		.uleb128 0xb
 2031 00c4 3A       		.uleb128 0x3a
 2032 00c5 0B       		.uleb128 0xb
 2033 00c6 3B       		.uleb128 0x3b
 2034 00c7 0B       		.uleb128 0xb
 2035 00c8 39       		.uleb128 0x39
 2036 00c9 0B       		.uleb128 0xb
 2037 00ca 01       		.uleb128 0x1
 2038 00cb 13       		.uleb128 0x13
 2039 00cc 00       		.byte	0
 2040 00cd 00       		.byte	0
 2041 00ce 11       		.uleb128 0x11
 2042 00cf 0D       		.uleb128 0xd
 2043 00d0 00       		.byte	0
 2044 00d1 03       		.uleb128 0x3
 2045 00d2 0E       		.uleb128 0xe
 2046 00d3 3A       		.uleb128 0x3a
 2047 00d4 0B       		.uleb128 0xb
 2048 00d5 3B       		.uleb128 0x3b
ARM GAS  /var/folders/l5/0x54b2c10074c8bt31ycjvl80000gp/T//ccHcSmAz.s 			page 37


 2049 00d6 0B       		.uleb128 0xb
 2050 00d7 39       		.uleb128 0x39
 2051 00d8 0B       		.uleb128 0xb
 2052 00d9 49       		.uleb128 0x49
 2053 00da 13       		.uleb128 0x13
 2054 00db 00       		.byte	0
 2055 00dc 00       		.byte	0
 2056 00dd 12       		.uleb128 0x12
 2057 00de 17       		.uleb128 0x17
 2058 00df 01       		.byte	0x1
 2059 00e0 03       		.uleb128 0x3
 2060 00e1 0E       		.uleb128 0xe
 2061 00e2 0B       		.uleb128 0xb
 2062 00e3 0B       		.uleb128 0xb
 2063 00e4 3A       		.uleb128 0x3a
 2064 00e5 0B       		.uleb128 0xb
 2065 00e6 3B       		.uleb128 0x3b
 2066 00e7 0B       		.uleb128 0xb
 2067 00e8 39       		.uleb128 0x39
 2068 00e9 0B       		.uleb128 0xb
 2069 00ea 01       		.uleb128 0x1
 2070 00eb 13       		.uleb128 0x13
 2071 00ec 00       		.byte	0
 2072 00ed 00       		.byte	0
 2073 00ee 13       		.uleb128 0x13
 2074 00ef 0D       		.uleb128 0xd
 2075 00f0 00       		.byte	0
 2076 00f1 03       		.uleb128 0x3
 2077 00f2 08       		.uleb128 0x8
 2078 00f3 3A       		.uleb128 0x3a
 2079 00f4 0B       		.uleb128 0xb
 2080 00f5 3B       		.uleb128 0x3b
 2081 00f6 0B       		.uleb128 0xb
 2082 00f7 39       		.uleb128 0x39
 2083 00f8 0B       		.uleb128 0xb
 2084 00f9 49       		.uleb128 0x49
 2085 00fa 13       		.uleb128 0x13
 2086 00fb 00       		.byte	0
 2087 00fc 00       		.byte	0
 2088 00fd 14       		.uleb128 0x14
 2089 00fe 26       		.uleb128 0x26
 2090 00ff 00       		.byte	0
 2091 0100 49       		.uleb128 0x49
 2092 0101 13       		.uleb128 0x13
 2093 0102 00       		.byte	0
 2094 0103 00       		.byte	0
 2095 0104 15       		.uleb128 0x15
 2096 0105 01       		.uleb128 0x1
 2097 0106 01       		.byte	0x1
 2098 0107 49       		.uleb128 0x49
 2099 0108 13       		.uleb128 0x13
 2100 0109 01       		.uleb128 0x1
 2101 010a 13       		.uleb128 0x13
 2102 010b 00       		.byte	0
 2103 010c 00       		.byte	0
 2104 010d 16       		.uleb128 0x16
 2105 010e 21       		.uleb128 0x21
ARM GAS  /var/folders/l5/0x54b2c10074c8bt31ycjvl80000gp/T//ccHcSmAz.s 			page 38


 2106 010f 00       		.byte	0
 2107 0110 49       		.uleb128 0x49
 2108 0111 13       		.uleb128 0x13
 2109 0112 2F       		.uleb128 0x2f
 2110 0113 0B       		.uleb128 0xb
 2111 0114 00       		.byte	0
 2112 0115 00       		.byte	0
 2113 0116 17       		.uleb128 0x17
 2114 0117 34       		.uleb128 0x34
 2115 0118 00       		.byte	0
 2116 0119 03       		.uleb128 0x3
 2117 011a 0E       		.uleb128 0xe
 2118 011b 3A       		.uleb128 0x3a
 2119 011c 0B       		.uleb128 0xb
 2120 011d 3B       		.uleb128 0x3b
 2121 011e 0B       		.uleb128 0xb
 2122 011f 39       		.uleb128 0x39
 2123 0120 0B       		.uleb128 0xb
 2124 0121 49       		.uleb128 0x49
 2125 0122 13       		.uleb128 0x13
 2126 0123 02       		.uleb128 0x2
 2127 0124 18       		.uleb128 0x18
 2128 0125 00       		.byte	0
 2129 0126 00       		.byte	0
 2130 0127 18       		.uleb128 0x18
 2131 0128 2E       		.uleb128 0x2e
 2132 0129 01       		.byte	0x1
 2133 012a 3F       		.uleb128 0x3f
 2134 012b 19       		.uleb128 0x19
 2135 012c 03       		.uleb128 0x3
 2136 012d 0E       		.uleb128 0xe
 2137 012e 3A       		.uleb128 0x3a
 2138 012f 0B       		.uleb128 0xb
 2139 0130 3B       		.uleb128 0x3b
 2140 0131 0B       		.uleb128 0xb
 2141 0132 39       		.uleb128 0x39
 2142 0133 0B       		.uleb128 0xb
 2143 0134 27       		.uleb128 0x27
 2144 0135 19       		.uleb128 0x19
 2145 0136 49       		.uleb128 0x49
 2146 0137 13       		.uleb128 0x13
 2147 0138 11       		.uleb128 0x11
 2148 0139 01       		.uleb128 0x1
 2149 013a 12       		.uleb128 0x12
 2150 013b 06       		.uleb128 0x6
 2151 013c 40       		.uleb128 0x40
 2152 013d 18       		.uleb128 0x18
 2153 013e 9742     		.uleb128 0x2117
 2154 0140 19       		.uleb128 0x19
 2155 0141 01       		.uleb128 0x1
 2156 0142 13       		.uleb128 0x13
 2157 0143 00       		.byte	0
 2158 0144 00       		.byte	0
 2159 0145 19       		.uleb128 0x19
 2160 0146 05       		.uleb128 0x5
 2161 0147 00       		.byte	0
 2162 0148 03       		.uleb128 0x3
ARM GAS  /var/folders/l5/0x54b2c10074c8bt31ycjvl80000gp/T//ccHcSmAz.s 			page 39


 2163 0149 0E       		.uleb128 0xe
 2164 014a 3A       		.uleb128 0x3a
 2165 014b 0B       		.uleb128 0xb
 2166 014c 3B       		.uleb128 0x3b
 2167 014d 0B       		.uleb128 0xb
 2168 014e 39       		.uleb128 0x39
 2169 014f 0B       		.uleb128 0xb
 2170 0150 49       		.uleb128 0x49
 2171 0151 13       		.uleb128 0x13
 2172 0152 02       		.uleb128 0x2
 2173 0153 17       		.uleb128 0x17
 2174 0154 B742     		.uleb128 0x2137
 2175 0156 17       		.uleb128 0x17
 2176 0157 00       		.byte	0
 2177 0158 00       		.byte	0
 2178 0159 1A       		.uleb128 0x1a
 2179 015a 34       		.uleb128 0x34
 2180 015b 00       		.byte	0
 2181 015c 03       		.uleb128 0x3
 2182 015d 08       		.uleb128 0x8
 2183 015e 3A       		.uleb128 0x3a
 2184 015f 0B       		.uleb128 0xb
 2185 0160 3B       		.uleb128 0x3b
 2186 0161 0B       		.uleb128 0xb
 2187 0162 39       		.uleb128 0x39
 2188 0163 0B       		.uleb128 0xb
 2189 0164 49       		.uleb128 0x49
 2190 0165 13       		.uleb128 0x13
 2191 0166 02       		.uleb128 0x2
 2192 0167 17       		.uleb128 0x17
 2193 0168 B742     		.uleb128 0x2137
 2194 016a 17       		.uleb128 0x17
 2195 016b 00       		.byte	0
 2196 016c 00       		.byte	0
 2197 016d 1B       		.uleb128 0x1b
 2198 016e 898201   		.uleb128 0x4109
 2199 0171 01       		.byte	0x1
 2200 0172 11       		.uleb128 0x11
 2201 0173 01       		.uleb128 0x1
 2202 0174 31       		.uleb128 0x31
 2203 0175 13       		.uleb128 0x13
 2204 0176 01       		.uleb128 0x1
 2205 0177 13       		.uleb128 0x13
 2206 0178 00       		.byte	0
 2207 0179 00       		.byte	0
 2208 017a 1C       		.uleb128 0x1c
 2209 017b 8A8201   		.uleb128 0x410a
 2210 017e 00       		.byte	0
 2211 017f 02       		.uleb128 0x2
 2212 0180 18       		.uleb128 0x18
 2213 0181 9142     		.uleb128 0x2111
 2214 0183 18       		.uleb128 0x18
 2215 0184 00       		.byte	0
 2216 0185 00       		.byte	0
 2217 0186 1D       		.uleb128 0x1d
 2218 0187 898201   		.uleb128 0x4109
 2219 018a 00       		.byte	0
ARM GAS  /var/folders/l5/0x54b2c10074c8bt31ycjvl80000gp/T//ccHcSmAz.s 			page 40


 2220 018b 11       		.uleb128 0x11
 2221 018c 01       		.uleb128 0x1
 2222 018d 31       		.uleb128 0x31
 2223 018e 13       		.uleb128 0x13
 2224 018f 00       		.byte	0
 2225 0190 00       		.byte	0
 2226 0191 1E       		.uleb128 0x1e
 2227 0192 2E       		.uleb128 0x2e
 2228 0193 01       		.byte	0x1
 2229 0194 3F       		.uleb128 0x3f
 2230 0195 19       		.uleb128 0x19
 2231 0196 03       		.uleb128 0x3
 2232 0197 0E       		.uleb128 0xe
 2233 0198 3A       		.uleb128 0x3a
 2234 0199 0B       		.uleb128 0xb
 2235 019a 3B       		.uleb128 0x3b
 2236 019b 0B       		.uleb128 0xb
 2237 019c 39       		.uleb128 0x39
 2238 019d 0B       		.uleb128 0xb
 2239 019e 27       		.uleb128 0x27
 2240 019f 19       		.uleb128 0x19
 2241 01a0 11       		.uleb128 0x11
 2242 01a1 01       		.uleb128 0x1
 2243 01a2 12       		.uleb128 0x12
 2244 01a3 06       		.uleb128 0x6
 2245 01a4 40       		.uleb128 0x40
 2246 01a5 18       		.uleb128 0x18
 2247 01a6 9742     		.uleb128 0x2117
 2248 01a8 19       		.uleb128 0x19
 2249 01a9 01       		.uleb128 0x1
 2250 01aa 13       		.uleb128 0x13
 2251 01ab 00       		.byte	0
 2252 01ac 00       		.byte	0
 2253 01ad 1F       		.uleb128 0x1f
 2254 01ae 05       		.uleb128 0x5
 2255 01af 00       		.byte	0
 2256 01b0 03       		.uleb128 0x3
 2257 01b1 08       		.uleb128 0x8
 2258 01b2 3A       		.uleb128 0x3a
 2259 01b3 0B       		.uleb128 0xb
 2260 01b4 3B       		.uleb128 0x3b
 2261 01b5 0B       		.uleb128 0xb
 2262 01b6 39       		.uleb128 0x39
 2263 01b7 0B       		.uleb128 0xb
 2264 01b8 49       		.uleb128 0x49
 2265 01b9 13       		.uleb128 0x13
 2266 01ba 02       		.uleb128 0x2
 2267 01bb 17       		.uleb128 0x17
 2268 01bc B742     		.uleb128 0x2137
 2269 01be 17       		.uleb128 0x17
 2270 01bf 00       		.byte	0
 2271 01c0 00       		.byte	0
 2272 01c1 20       		.uleb128 0x20
 2273 01c2 34       		.uleb128 0x34
 2274 01c3 00       		.byte	0
 2275 01c4 03       		.uleb128 0x3
 2276 01c5 0E       		.uleb128 0xe
ARM GAS  /var/folders/l5/0x54b2c10074c8bt31ycjvl80000gp/T//ccHcSmAz.s 			page 41


 2277 01c6 3A       		.uleb128 0x3a
 2278 01c7 0B       		.uleb128 0xb
 2279 01c8 3B       		.uleb128 0x3b
 2280 01c9 0B       		.uleb128 0xb
 2281 01ca 39       		.uleb128 0x39
 2282 01cb 0B       		.uleb128 0xb
 2283 01cc 49       		.uleb128 0x49
 2284 01cd 13       		.uleb128 0x13
 2285 01ce 02       		.uleb128 0x2
 2286 01cf 17       		.uleb128 0x17
 2287 01d0 B742     		.uleb128 0x2137
 2288 01d2 17       		.uleb128 0x17
 2289 01d3 00       		.byte	0
 2290 01d4 00       		.byte	0
 2291 01d5 21       		.uleb128 0x21
 2292 01d6 898201   		.uleb128 0x4109
 2293 01d9 00       		.byte	0
 2294 01da 11       		.uleb128 0x11
 2295 01db 01       		.uleb128 0x1
 2296 01dc 9542     		.uleb128 0x2115
 2297 01de 19       		.uleb128 0x19
 2298 01df 31       		.uleb128 0x31
 2299 01e0 13       		.uleb128 0x13
 2300 01e1 00       		.byte	0
 2301 01e2 00       		.byte	0
 2302 01e3 22       		.uleb128 0x22
 2303 01e4 898201   		.uleb128 0x4109
 2304 01e7 01       		.byte	0x1
 2305 01e8 11       		.uleb128 0x11
 2306 01e9 01       		.uleb128 0x1
 2307 01ea 01       		.uleb128 0x1
 2308 01eb 13       		.uleb128 0x13
 2309 01ec 00       		.byte	0
 2310 01ed 00       		.byte	0
 2311 01ee 23       		.uleb128 0x23
 2312 01ef 898201   		.uleb128 0x4109
 2313 01f2 01       		.byte	0x1
 2314 01f3 11       		.uleb128 0x11
 2315 01f4 01       		.uleb128 0x1
 2316 01f5 9542     		.uleb128 0x2115
 2317 01f7 19       		.uleb128 0x19
 2318 01f8 31       		.uleb128 0x31
 2319 01f9 13       		.uleb128 0x13
 2320 01fa 00       		.byte	0
 2321 01fb 00       		.byte	0
 2322 01fc 24       		.uleb128 0x24
 2323 01fd 2E       		.uleb128 0x2e
 2324 01fe 00       		.byte	0
 2325 01ff 3F       		.uleb128 0x3f
 2326 0200 19       		.uleb128 0x19
 2327 0201 3C       		.uleb128 0x3c
 2328 0202 19       		.uleb128 0x19
 2329 0203 6E       		.uleb128 0x6e
 2330 0204 0E       		.uleb128 0xe
 2331 0205 03       		.uleb128 0x3
 2332 0206 0E       		.uleb128 0xe
 2333 0207 3A       		.uleb128 0x3a
ARM GAS  /var/folders/l5/0x54b2c10074c8bt31ycjvl80000gp/T//ccHcSmAz.s 			page 42


 2334 0208 0B       		.uleb128 0xb
 2335 0209 3B       		.uleb128 0x3b
 2336 020a 0B       		.uleb128 0xb
 2337 020b 39       		.uleb128 0x39
 2338 020c 0B       		.uleb128 0xb
 2339 020d 00       		.byte	0
 2340 020e 00       		.byte	0
 2341 020f 00       		.byte	0
 2342              		.section	.debug_loc,"",%progbits
 2343              	.Ldebug_loc0:
 2344              	.LVUS13:
 2345 0000 00       		.uleb128 0
 2346 0001 00       		.uleb128 .LVU151
 2347 0002 00       		.uleb128 .LVU151
 2348 0003 00       		.uleb128 .LVU160
 2349 0004 00       		.uleb128 .LVU160
 2350 0005 00       		.uleb128 .LVU174
 2351 0006 00       		.uleb128 .LVU174
 2352 0007 00       		.uleb128 .LVU176
 2353 0008 00       		.uleb128 .LVU176
 2354 0009 00       		.uleb128 0
 2355              	.LLST13:
 2356 000a 00000000 		.4byte	.LVL33
 2357 000e 10000000 		.4byte	.LVL34
 2358 0012 0100     		.2byte	0x1
 2359 0014 50       		.byte	0x50
 2360 0015 10000000 		.4byte	.LVL34
 2361 0019 30000000 		.4byte	.LVL36
 2362 001d 0100     		.2byte	0x1
 2363 001f 54       		.byte	0x54
 2364 0020 30000000 		.4byte	.LVL36
 2365 0024 5C000000 		.4byte	.LVL41
 2366 0028 1300     		.2byte	0x13
 2367 002a F3       		.byte	0xf3
 2368 002b 01       		.uleb128 0x1
 2369 002c 50       		.byte	0x50
 2370 002d 03       		.byte	0x3
 2371 002e 00000000 		.4byte	.LANCHOR0
 2372 0032 F3       		.byte	0xf3
 2373 0033 01       		.uleb128 0x1
 2374 0034 50       		.byte	0x50
 2375 0035 30       		.byte	0x30
 2376 0036 2E       		.byte	0x2e
 2377 0037 28       		.byte	0x28
 2378 0038 0100     		.2byte	0x1
 2379 003a 16       		.byte	0x16
 2380 003b 13       		.byte	0x13
 2381 003c 9F       		.byte	0x9f
 2382 003d 5C000000 		.4byte	.LVL41
 2383 0041 64000000 		.4byte	.LVL42
 2384 0045 0100     		.2byte	0x1
 2385 0047 54       		.byte	0x54
 2386 0048 64000000 		.4byte	.LVL42
 2387 004c 6C000000 		.4byte	.LFE11
 2388 0050 1300     		.2byte	0x13
 2389 0052 F3       		.byte	0xf3
 2390 0053 01       		.uleb128 0x1
ARM GAS  /var/folders/l5/0x54b2c10074c8bt31ycjvl80000gp/T//ccHcSmAz.s 			page 43


 2391 0054 50       		.byte	0x50
 2392 0055 03       		.byte	0x3
 2393 0056 00000000 		.4byte	.LANCHOR0
 2394 005a F3       		.byte	0xf3
 2395 005b 01       		.uleb128 0x1
 2396 005c 50       		.byte	0x50
 2397 005d 30       		.byte	0x30
 2398 005e 2E       		.byte	0x2e
 2399 005f 28       		.byte	0x28
 2400 0060 0100     		.2byte	0x1
 2401 0062 16       		.byte	0x16
 2402 0063 13       		.byte	0x13
 2403 0064 9F       		.byte	0x9f
 2404 0065 00000000 		.4byte	0
 2405 0069 00000000 		.4byte	0
 2406              	.LVUS14:
 2407 006d 00       		.uleb128 0
 2408 006e 00       		.uleb128 .LVU154
 2409 006f 00       		.uleb128 .LVU154
 2410 0070 00       		.uleb128 0
 2411              	.LLST14:
 2412 0071 00000000 		.4byte	.LVL33
 2413 0075 1B000000 		.4byte	.LVL35-1
 2414 0079 0100     		.2byte	0x1
 2415 007b 51       		.byte	0x51
 2416 007c 1B000000 		.4byte	.LVL35-1
 2417 0080 6C000000 		.4byte	.LFE11
 2418 0084 0100     		.2byte	0x1
 2419 0086 55       		.byte	0x55
 2420 0087 00000000 		.4byte	0
 2421 008b 00000000 		.4byte	0
 2422              	.LVUS15:
 2423 008f 02       		.uleb128 .LVU156
 2424 0090 00       		.uleb128 .LVU160
 2425 0091 00       		.uleb128 .LVU160
 2426 0092 00       		.uleb128 .LVU166
 2427 0093 00       		.uleb128 .LVU174
 2428 0094 00       		.uleb128 .LVU176
 2429 0095 00       		.uleb128 .LVU176
 2430 0096 00       		.uleb128 0
 2431              	.LLST15:
 2432 0097 1C000000 		.4byte	.LVL35
 2433 009b 30000000 		.4byte	.LVL36
 2434 009f 0300     		.2byte	0x3
 2435 00a1 74       		.byte	0x74
 2436 00a2 04       		.sleb128 4
 2437 00a3 9F       		.byte	0x9f
 2438 00a4 30000000 		.4byte	.LVL36
 2439 00a8 44000000 		.4byte	.LVL38
 2440 00ac 1500     		.2byte	0x15
 2441 00ae F3       		.byte	0xf3
 2442 00af 01       		.uleb128 0x1
 2443 00b0 50       		.byte	0x50
 2444 00b1 03       		.byte	0x3
 2445 00b2 00000000 		.4byte	.LANCHOR0
 2446 00b6 F3       		.byte	0xf3
 2447 00b7 01       		.uleb128 0x1
ARM GAS  /var/folders/l5/0x54b2c10074c8bt31ycjvl80000gp/T//ccHcSmAz.s 			page 44


 2448 00b8 50       		.byte	0x50
 2449 00b9 30       		.byte	0x30
 2450 00ba 2E       		.byte	0x2e
 2451 00bb 28       		.byte	0x28
 2452 00bc 0100     		.2byte	0x1
 2453 00be 16       		.byte	0x16
 2454 00bf 13       		.byte	0x13
 2455 00c0 23       		.byte	0x23
 2456 00c1 04       		.uleb128 0x4
 2457 00c2 9F       		.byte	0x9f
 2458 00c3 5C000000 		.4byte	.LVL41
 2459 00c7 64000000 		.4byte	.LVL42
 2460 00cb 0300     		.2byte	0x3
 2461 00cd 74       		.byte	0x74
 2462 00ce 04       		.sleb128 4
 2463 00cf 9F       		.byte	0x9f
 2464 00d0 64000000 		.4byte	.LVL42
 2465 00d4 6C000000 		.4byte	.LFE11
 2466 00d8 1500     		.2byte	0x15
 2467 00da F3       		.byte	0xf3
 2468 00db 01       		.uleb128 0x1
 2469 00dc 50       		.byte	0x50
 2470 00dd 03       		.byte	0x3
 2471 00de 00000000 		.4byte	.LANCHOR0
 2472 00e2 F3       		.byte	0xf3
 2473 00e3 01       		.uleb128 0x1
 2474 00e4 50       		.byte	0x50
 2475 00e5 30       		.byte	0x30
 2476 00e6 2E       		.byte	0x2e
 2477 00e7 28       		.byte	0x28
 2478 00e8 0100     		.2byte	0x1
 2479 00ea 16       		.byte	0x16
 2480 00eb 13       		.byte	0x13
 2481 00ec 23       		.byte	0x23
 2482 00ed 04       		.uleb128 0x4
 2483 00ee 9F       		.byte	0x9f
 2484 00ef 00000000 		.4byte	0
 2485 00f3 00000000 		.4byte	0
 2486              	.LVUS16:
 2487 00f7 02       		.uleb128 .LVU156
 2488 00f8 00       		.uleb128 .LVU160
 2489 00f9 00       		.uleb128 .LVU160
 2490 00fa 00       		.uleb128 .LVU164
 2491 00fb 00       		.uleb128 .LVU164
 2492 00fc 00       		.uleb128 .LVU166
 2493 00fd 00       		.uleb128 .LVU166
 2494 00fe 00       		.uleb128 .LVU167
 2495 00ff 00       		.uleb128 .LVU174
 2496 0100 00       		.uleb128 0
 2497              	.LLST16:
 2498 0101 1C000000 		.4byte	.LVL35
 2499 0105 30000000 		.4byte	.LVL36
 2500 0109 0200     		.2byte	0x2
 2501 010b 30       		.byte	0x30
 2502 010c 9F       		.byte	0x9f
 2503 010d 30000000 		.4byte	.LVL36
 2504 0111 3C000000 		.4byte	.LVL37
ARM GAS  /var/folders/l5/0x54b2c10074c8bt31ycjvl80000gp/T//ccHcSmAz.s 			page 45


 2505 0115 0100     		.2byte	0x1
 2506 0117 54       		.byte	0x54
 2507 0118 3C000000 		.4byte	.LVL37
 2508 011c 44000000 		.4byte	.LVL38
 2509 0120 0300     		.2byte	0x3
 2510 0122 74       		.byte	0x74
 2511 0123 7F       		.sleb128 -1
 2512 0124 9F       		.byte	0x9f
 2513 0125 44000000 		.4byte	.LVL38
 2514 0129 48000000 		.4byte	.LVL39
 2515 012d 0100     		.2byte	0x1
 2516 012f 54       		.byte	0x54
 2517 0130 5C000000 		.4byte	.LVL41
 2518 0134 6C000000 		.4byte	.LFE11
 2519 0138 0200     		.2byte	0x2
 2520 013a 30       		.byte	0x30
 2521 013b 9F       		.byte	0x9f
 2522 013c 00000000 		.4byte	0
 2523 0140 00000000 		.4byte	0
 2524              	.LVUS17:
 2525 0144 01       		.uleb128 .LVU155
 2526 0145 00       		.uleb128 .LVU160
 2527 0146 00       		.uleb128 .LVU160
 2528 0147 00       		.uleb128 .LVU167
 2529 0148 00       		.uleb128 .LVU174
 2530 0149 00       		.uleb128 0
 2531              	.LLST17:
 2532 014a 1C000000 		.4byte	.LVL35
 2533 014e 30000000 		.4byte	.LVL36
 2534 0152 0200     		.2byte	0x2
 2535 0154 30       		.byte	0x30
 2536 0155 9F       		.byte	0x9f
 2537 0156 30000000 		.4byte	.LVL36
 2538 015a 48000000 		.4byte	.LVL39
 2539 015e 0100     		.2byte	0x1
 2540 0160 52       		.byte	0x52
 2541 0161 5C000000 		.4byte	.LVL41
 2542 0165 6C000000 		.4byte	.LFE11
 2543 0169 0200     		.2byte	0x2
 2544 016b 30       		.byte	0x30
 2545 016c 9F       		.byte	0x9f
 2546 016d 00000000 		.4byte	0
 2547 0171 00000000 		.4byte	0
 2548              	.LVUS9:
 2549 0175 00       		.uleb128 0
 2550 0176 00       		.uleb128 .LVU99
 2551 0177 00       		.uleb128 .LVU99
 2552 0178 00       		.uleb128 .LVU135
 2553 0179 00       		.uleb128 .LVU135
 2554 017a 00       		.uleb128 .LVU136
 2555 017b 00       		.uleb128 .LVU136
 2556 017c 00       		.uleb128 .LVU143
 2557 017d 00       		.uleb128 .LVU143
 2558 017e 00       		.uleb128 0
 2559              	.LLST9:
 2560 017f 00000000 		.4byte	.LVL21
 2561 0183 0C000000 		.4byte	.LVL22
ARM GAS  /var/folders/l5/0x54b2c10074c8bt31ycjvl80000gp/T//ccHcSmAz.s 			page 46


 2562 0187 0100     		.2byte	0x1
 2563 0189 50       		.byte	0x50
 2564 018a 0C000000 		.4byte	.LVL22
 2565 018e 9C000000 		.4byte	.LVL29
 2566 0192 0100     		.2byte	0x1
 2567 0194 56       		.byte	0x56
 2568 0195 9C000000 		.4byte	.LVL29
 2569 0199 A0000000 		.4byte	.LVL30
 2570 019d 0400     		.2byte	0x4
 2571 019f F3       		.byte	0xf3
 2572 01a0 01       		.uleb128 0x1
 2573 01a1 50       		.byte	0x50
 2574 01a2 9F       		.byte	0x9f
 2575 01a3 A0000000 		.4byte	.LVL30
 2576 01a7 B4000000 		.4byte	.LVL31
 2577 01ab 0100     		.2byte	0x1
 2578 01ad 56       		.byte	0x56
 2579 01ae B4000000 		.4byte	.LVL31
 2580 01b2 B8000000 		.4byte	.LFE10
 2581 01b6 0400     		.2byte	0x4
 2582 01b8 F3       		.byte	0xf3
 2583 01b9 01       		.uleb128 0x1
 2584 01ba 50       		.byte	0x50
 2585 01bb 9F       		.byte	0x9f
 2586 01bc 00000000 		.4byte	0
 2587 01c0 00000000 		.4byte	0
 2588              	.LVUS10:
 2589 01c4 00       		.uleb128 .LVU103
 2590 01c5 00       		.uleb128 .LVU106
 2591 01c6 00       		.uleb128 .LVU108
 2592 01c7 04       		.uleb128 .LVU112
 2593              	.LLST10:
 2594 01c8 14000000 		.4byte	.LVL24
 2595 01cc 24000000 		.4byte	.LVL27
 2596 01d0 0100     		.2byte	0x1
 2597 01d2 55       		.byte	0x55
 2598 01d3 30000000 		.4byte	.LVL28
 2599 01d7 30000000 		.4byte	.LVL28
 2600 01db 0100     		.2byte	0x1
 2601 01dd 53       		.byte	0x53
 2602 01de 00000000 		.4byte	0
 2603 01e2 00000000 		.4byte	0
 2604              	.LVUS11:
 2605 01e6 00       		.uleb128 .LVU100
 2606 01e7 00       		.uleb128 .LVU135
 2607 01e8 00       		.uleb128 .LVU135
 2608 01e9 00       		.uleb128 .LVU136
 2609 01ea 00       		.uleb128 .LVU136
 2610 01eb 00       		.uleb128 .LVU143
 2611 01ec 00       		.uleb128 .LVU143
 2612 01ed 00       		.uleb128 0
 2613              	.LLST11:
 2614 01ee 10000000 		.4byte	.LVL23
 2615 01f2 9C000000 		.4byte	.LVL29
 2616 01f6 0100     		.2byte	0x1
 2617 01f8 54       		.byte	0x54
 2618 01f9 9C000000 		.4byte	.LVL29
ARM GAS  /var/folders/l5/0x54b2c10074c8bt31ycjvl80000gp/T//ccHcSmAz.s 			page 47


 2619 01fd A0000000 		.4byte	.LVL30
 2620 0201 0600     		.2byte	0x6
 2621 0203 F3       		.byte	0xf3
 2622 0204 01       		.uleb128 0x1
 2623 0205 50       		.byte	0x50
 2624 0206 38       		.byte	0x38
 2625 0207 1C       		.byte	0x1c
 2626 0208 9F       		.byte	0x9f
 2627 0209 A0000000 		.4byte	.LVL30
 2628 020d B4000000 		.4byte	.LVL31
 2629 0211 0100     		.2byte	0x1
 2630 0213 54       		.byte	0x54
 2631 0214 B4000000 		.4byte	.LVL31
 2632 0218 B8000000 		.4byte	.LFE10
 2633 021c 0600     		.2byte	0x6
 2634 021e F3       		.byte	0xf3
 2635 021f 01       		.uleb128 0x1
 2636 0220 50       		.byte	0x50
 2637 0221 38       		.byte	0x38
 2638 0222 1C       		.byte	0x1c
 2639 0223 9F       		.byte	0x9f
 2640 0224 00000000 		.4byte	0
 2641 0228 00000000 		.4byte	0
 2642              	.LVUS12:
 2643 022c 01       		.uleb128 .LVU101
 2644 022d 00       		.uleb128 .LVU104
 2645 022e 00       		.uleb128 .LVU104
 2646 022f 00       		.uleb128 .LVU105
 2647 0230 00       		.uleb128 .LVU105
 2648 0231 00       		.uleb128 .LVU135
 2649 0232 00       		.uleb128 .LVU136
 2650 0233 00       		.uleb128 .LVU143
 2651              	.LLST12:
 2652 0234 10000000 		.4byte	.LVL23
 2653 0238 18000000 		.4byte	.LVL25
 2654 023c 0100     		.2byte	0x1
 2655 023e 50       		.byte	0x50
 2656 023f 18000000 		.4byte	.LVL25
 2657 0243 1B000000 		.4byte	.LVL26-1
 2658 0247 0200     		.2byte	0x2
 2659 0249 74       		.byte	0x74
 2660 024a 00       		.sleb128 0
 2661 024b 1B000000 		.4byte	.LVL26-1
 2662 024f 9C000000 		.4byte	.LVL29
 2663 0253 0300     		.2byte	0x3
 2664 0255 75       		.byte	0x75
 2665 0256 7C       		.sleb128 -4
 2666 0257 9F       		.byte	0x9f
 2667 0258 A0000000 		.4byte	.LVL30
 2668 025c B4000000 		.4byte	.LVL31
 2669 0260 0300     		.2byte	0x3
 2670 0262 75       		.byte	0x75
 2671 0263 7C       		.sleb128 -4
 2672 0264 9F       		.byte	0x9f
 2673 0265 00000000 		.4byte	0
 2674 0269 00000000 		.4byte	0
 2675              	.LVUS4:
ARM GAS  /var/folders/l5/0x54b2c10074c8bt31ycjvl80000gp/T//ccHcSmAz.s 			page 48


 2676 026d 00       		.uleb128 0
 2677 026e 00       		.uleb128 .LVU36
 2678 026f 00       		.uleb128 .LVU36
 2679 0270 00       		.uleb128 0
 2680              	.LLST4:
 2681 0271 00000000 		.4byte	.LVL6
 2682 0275 10000000 		.4byte	.LVL7
 2683 0279 0100     		.2byte	0x1
 2684 027b 50       		.byte	0x50
 2685 027c 10000000 		.4byte	.LVL7
 2686 0280 B4000000 		.4byte	.LFE9
 2687 0284 0100     		.2byte	0x1
 2688 0286 57       		.byte	0x57
 2689 0287 00000000 		.4byte	0
 2690 028b 00000000 		.4byte	0
 2691              	.LVUS5:
 2692 028f 00       		.uleb128 0
 2693 0290 00       		.uleb128 .LVU38
 2694 0291 00       		.uleb128 .LVU38
 2695 0292 00       		.uleb128 .LVU40
 2696 0293 00       		.uleb128 .LVU40
 2697 0294 00       		.uleb128 0
 2698              	.LLST5:
 2699 0295 00000000 		.4byte	.LVL6
 2700 0299 14000000 		.4byte	.LVL8
 2701 029d 0100     		.2byte	0x1
 2702 029f 51       		.byte	0x51
 2703 02a0 14000000 		.4byte	.LVL8
 2704 02a4 1C000000 		.4byte	.LVL9
 2705 02a8 0300     		.2byte	0x3
 2706 02aa 71       		.byte	0x71
 2707 02ab 7D       		.sleb128 -3
 2708 02ac 9F       		.byte	0x9f
 2709 02ad 1C000000 		.4byte	.LVL9
 2710 02b1 B4000000 		.4byte	.LFE9
 2711 02b5 0100     		.2byte	0x1
 2712 02b7 56       		.byte	0x56
 2713 02b8 00000000 		.4byte	0
 2714 02bc 00000000 		.4byte	0
 2715              	.LVUS6:
 2716 02c0 00       		.uleb128 .LVU42
 2717 02c1 00       		.uleb128 .LVU48
 2718 02c2 01       		.uleb128 .LVU49
 2719 02c3 00       		.uleb128 0
 2720              	.LLST6:
 2721 02c4 20000000 		.4byte	.LVL10
 2722 02c8 38000000 		.4byte	.LVL13
 2723 02cc 0100     		.2byte	0x1
 2724 02ce 55       		.byte	0x55
 2725 02cf 38000000 		.4byte	.LVL13
 2726 02d3 B4000000 		.4byte	.LFE9
 2727 02d7 0100     		.2byte	0x1
 2728 02d9 55       		.byte	0x55
 2729 02da 00000000 		.4byte	0
 2730 02de 00000000 		.4byte	0
 2731              	.LVUS7:
 2732 02e2 00       		.uleb128 .LVU45
ARM GAS  /var/folders/l5/0x54b2c10074c8bt31ycjvl80000gp/T//ccHcSmAz.s 			page 49


 2733 02e3 00       		.uleb128 .LVU48
 2734 02e4 00       		.uleb128 .LVU50
 2735 02e5 00       		.uleb128 .LVU58
 2736 02e6 00       		.uleb128 .LVU58
 2737 02e7 00       		.uleb128 .LVU66
 2738 02e8 00       		.uleb128 .LVU66
 2739 02e9 00       		.uleb128 .LVU87
 2740 02ea 00       		.uleb128 .LVU87
 2741 02eb 00       		.uleb128 0
 2742              	.LLST7:
 2743 02ec 28000000 		.4byte	.LVL12
 2744 02f0 38000000 		.4byte	.LVL13
 2745 02f4 0100     		.2byte	0x1
 2746 02f6 54       		.byte	0x54
 2747 02f7 3C000000 		.4byte	.LVL14
 2748 02fb 5C000000 		.4byte	.LVL16
 2749 02ff 0100     		.2byte	0x1
 2750 0301 54       		.byte	0x54
 2751 0302 5C000000 		.4byte	.LVL16
 2752 0306 6C000000 		.4byte	.LVL17
 2753 030a 0100     		.2byte	0x1
 2754 030c 50       		.byte	0x50
 2755 030d 6C000000 		.4byte	.LVL17
 2756 0311 A4000000 		.4byte	.LVL19
 2757 0315 0100     		.2byte	0x1
 2758 0317 54       		.byte	0x54
 2759 0318 A4000000 		.4byte	.LVL19
 2760 031c B4000000 		.4byte	.LFE9
 2761 0320 0300     		.2byte	0x3
 2762 0322 74       		.byte	0x74
 2763 0323 78       		.sleb128 -8
 2764 0324 9F       		.byte	0x9f
 2765 0325 00000000 		.4byte	0
 2766 0329 00000000 		.4byte	0
 2767              	.LVUS8:
 2768 032d 00       		.uleb128 .LVU75
 2769 032e 00       		.uleb128 .LVU88
 2770              	.LLST8:
 2771 032f 88000000 		.4byte	.LVL18
 2772 0333 A7000000 		.4byte	.LVL20-1
 2773 0337 0100     		.2byte	0x1
 2774 0339 50       		.byte	0x50
 2775 033a 00000000 		.4byte	0
 2776 033e 00000000 		.4byte	0
 2777              	.LVUS0:
 2778 0342 00       		.uleb128 0
 2779 0343 00       		.uleb128 .LVU25
 2780 0344 00       		.uleb128 .LVU25
 2781 0345 00       		.uleb128 .LVU29
 2782 0346 00       		.uleb128 .LVU29
 2783 0347 00       		.uleb128 0
 2784              	.LLST0:
 2785 0348 00000000 		.4byte	.LVL1
 2786 034c 18000000 		.4byte	.LVL4
 2787 0350 0100     		.2byte	0x1
 2788 0352 50       		.byte	0x50
 2789 0353 18000000 		.4byte	.LVL4
ARM GAS  /var/folders/l5/0x54b2c10074c8bt31ycjvl80000gp/T//ccHcSmAz.s 			page 50


 2790 0357 23000000 		.4byte	.LVL5-1
 2791 035b 0300     		.2byte	0x3
 2792 035d 70       		.byte	0x70
 2793 035e 74       		.sleb128 -12
 2794 035f 9F       		.byte	0x9f
 2795 0360 23000000 		.4byte	.LVL5-1
 2796 0364 24000000 		.4byte	.LFE8
 2797 0368 0400     		.2byte	0x4
 2798 036a F3       		.byte	0xf3
 2799 036b 01       		.uleb128 0x1
 2800 036c 50       		.byte	0x50
 2801 036d 9F       		.byte	0x9f
 2802 036e 00000000 		.4byte	0
 2803 0372 00000000 		.4byte	0
 2804              	.LVUS1:
 2805 0376 00       		.uleb128 0
 2806 0377 00       		.uleb128 .LVU29
 2807 0378 00       		.uleb128 .LVU29
 2808 0379 00       		.uleb128 0
 2809              	.LLST1:
 2810 037a 00000000 		.4byte	.LVL1
 2811 037e 23000000 		.4byte	.LVL5-1
 2812 0382 0100     		.2byte	0x1
 2813 0384 51       		.byte	0x51
 2814 0385 23000000 		.4byte	.LVL5-1
 2815 0389 24000000 		.4byte	.LFE8
 2816 038d 0400     		.2byte	0x4
 2817 038f F3       		.byte	0xf3
 2818 0390 01       		.uleb128 0x1
 2819 0391 51       		.byte	0x51
 2820 0392 9F       		.byte	0x9f
 2821 0393 00000000 		.4byte	0
 2822 0397 00000000 		.4byte	0
 2823              	.LVUS2:
 2824 039b 00       		.uleb128 0
 2825 039c 00       		.uleb128 .LVU18
 2826 039d 00       		.uleb128 .LVU18
 2827 039e 00       		.uleb128 .LVU29
 2828 039f 00       		.uleb128 .LVU29
 2829 03a0 00       		.uleb128 0
 2830              	.LLST2:
 2831 03a1 00000000 		.4byte	.LVL1
 2832 03a5 08000000 		.4byte	.LVL2
 2833 03a9 0100     		.2byte	0x1
 2834 03ab 52       		.byte	0x52
 2835 03ac 08000000 		.4byte	.LVL2
 2836 03b0 23000000 		.4byte	.LVL5-1
 2837 03b4 0300     		.2byte	0x3
 2838 03b6 72       		.byte	0x72
 2839 03b7 08       		.sleb128 8
 2840 03b8 9F       		.byte	0x9f
 2841 03b9 23000000 		.4byte	.LVL5-1
 2842 03bd 24000000 		.4byte	.LFE8
 2843 03c1 0400     		.2byte	0x4
 2844 03c3 F3       		.byte	0xf3
 2845 03c4 01       		.uleb128 0x1
 2846 03c5 52       		.byte	0x52
ARM GAS  /var/folders/l5/0x54b2c10074c8bt31ycjvl80000gp/T//ccHcSmAz.s 			page 51


 2847 03c6 9F       		.byte	0x9f
 2848 03c7 00000000 		.4byte	0
 2849 03cb 00000000 		.4byte	0
 2850              	.LVUS3:
 2851 03cf 01       		.uleb128 .LVU21
 2852 03d0 00       		.uleb128 .LVU29
 2853 03d1 00       		.uleb128 .LVU29
 2854 03d2 00       		.uleb128 0
 2855              	.LLST3:
 2856 03d3 10000000 		.4byte	.LVL3
 2857 03d7 23000000 		.4byte	.LVL5-1
 2858 03db 0100     		.2byte	0x1
 2859 03dd 51       		.byte	0x51
 2860 03de 23000000 		.4byte	.LVL5-1
 2861 03e2 24000000 		.4byte	.LFE8
 2862 03e6 0400     		.2byte	0x4
 2863 03e8 F3       		.byte	0xf3
 2864 03e9 01       		.uleb128 0x1
 2865 03ea 51       		.byte	0x51
 2866 03eb 9F       		.byte	0x9f
 2867 03ec 00000000 		.4byte	0
 2868 03f0 00000000 		.4byte	0
 2869              		.section	.debug_aranges,"",%progbits
 2870 0000 3C000000 		.4byte	0x3c
 2871 0004 0200     		.2byte	0x2
 2872 0006 00000000 		.4byte	.Ldebug_info0
 2873 000a 04       		.byte	0x4
 2874 000b 00       		.byte	0
 2875 000c 0000     		.2byte	0
 2876 000e 0000     		.2byte	0
 2877 0010 00000000 		.4byte	.LFB7
 2878 0014 28000000 		.4byte	.LFE7-.LFB7
 2879 0018 00000000 		.4byte	.LFB8
 2880 001c 24000000 		.4byte	.LFE8-.LFB8
 2881 0020 00000000 		.4byte	.LFB9
 2882 0024 B4000000 		.4byte	.LFE9-.LFB9
 2883 0028 00000000 		.4byte	.LFB10
 2884 002c B8000000 		.4byte	.LFE10-.LFB10
 2885 0030 00000000 		.4byte	.LFB11
 2886 0034 6C000000 		.4byte	.LFE11-.LFB11
 2887 0038 00000000 		.4byte	0
 2888 003c 00000000 		.4byte	0
 2889              		.section	.debug_ranges,"",%progbits
 2890              	.Ldebug_ranges0:
 2891 0000 00000000 		.4byte	.LFB7
 2892 0004 28000000 		.4byte	.LFE7
 2893 0008 00000000 		.4byte	.LFB8
 2894 000c 24000000 		.4byte	.LFE8
 2895 0010 00000000 		.4byte	.LFB9
 2896 0014 B4000000 		.4byte	.LFE9
 2897 0018 00000000 		.4byte	.LFB10
 2898 001c B8000000 		.4byte	.LFE10
 2899 0020 00000000 		.4byte	.LFB11
 2900 0024 6C000000 		.4byte	.LFE11
 2901 0028 00000000 		.4byte	0
 2902 002c 00000000 		.4byte	0
 2903              		.section	.debug_line,"",%progbits
ARM GAS  /var/folders/l5/0x54b2c10074c8bt31ycjvl80000gp/T//ccHcSmAz.s 			page 52


 2904              	.Ldebug_line0:
 2905 0000 BD040000 		.section	.debug_str,"MS",%progbits,1
 2905      03000102 
 2905      00000201 
 2905      FB0E0D00 
 2905      01010101 
 2906              	.LASF41:
 2907 0000 705F6D73 		.ascii	"p_msg\000"
 2907      6700
 2908              	.LASF2:
 2909 0006 73697A65 		.ascii	"size_t\000"
 2909      5F7400
 2910              	.LASF83:
 2911 000d 7264796D 		.ascii	"rdymsg\000"
 2911      736700
 2912              	.LASF3:
 2913 0014 5F5F7569 		.ascii	"__uint8_t\000"
 2913      6E74385F 
 2913      7400
 2914              	.LASF67:
 2915 001e 76746C69 		.ascii	"vtlist\000"
 2915      737400
 2916              	.LASF73:
 2917 0025 6D656D67 		.ascii	"memgetfunc_t\000"
 2917      65746675 
 2917      6E635F74 
 2917      00
 2918              	.LASF13:
 2919 0032 6C6F6E67 		.ascii	"long long unsigned int\000"
 2919      206C6F6E 
 2919      6720756E 
 2919      7369676E 
 2919      65642069 
 2920              	.LASF94:
 2921 0049 63685F74 		.ascii	"ch_threadsize\000"
 2921      68726561 
 2921      6473697A 
 2921      6500
 2922              	.LASF84:
 2923 0057 65786974 		.ascii	"exitcode\000"
 2923      636F6465 
 2923      00
 2924              	.LASF77:
 2925 0060 685F6672 		.ascii	"h_free\000"
 2925      656500
 2926              	.LASF109:
 2927 0067 68656170 		.ascii	"heapp\000"
 2927      7000
 2928              	.LASF117:
 2929 006d 63684D74 		.ascii	"chMtxUnlock\000"
 2929      78556E6C 
 2929      6F636B00 
 2930              	.LASF114:
 2931 0079 63684865 		.ascii	"chHeapInit\000"
 2931      6170496E 
 2931      697400
 2932              	.LASF79:
ARM GAS  /var/folders/l5/0x54b2c10074c8bt31ycjvl80000gp/T//ccHcSmAz.s 			page 53


 2933 0084 6E657874 		.ascii	"next\000"
 2933      00
 2934              	.LASF29:
 2935 0089 705F7072 		.ascii	"p_prio\000"
 2935      696F00
 2936              	.LASF101:
 2937 0090 63665F6F 		.ascii	"cf_off_state\000"
 2937      66665F73 
 2937      74617465 
 2937      00
 2938              	.LASF12:
 2939 009d 6C6F6E67 		.ascii	"long long int\000"
 2939      206C6F6E 
 2939      6720696E 
 2939      7400
 2940              	.LASF1:
 2941 00ab 7369676E 		.ascii	"signed char\000"
 2941      65642063 
 2941      68617200 
 2942              	.LASF78:
 2943 00b7 685F6D74 		.ascii	"h_mtx\000"
 2943      7800
 2944              	.LASF100:
 2945 00bd 63665F6F 		.ascii	"cf_off_stklimit\000"
 2945      66665F73 
 2945      746B6C69 
 2945      6D697400 
 2946              	.LASF102:
 2947 00cd 63665F6F 		.ascii	"cf_off_flags\000"
 2947      66665F66 
 2947      6C616773 
 2947      00
 2948              	.LASF70:
 2949 00da 6D5F7175 		.ascii	"m_queue\000"
 2949      65756500 
 2950              	.LASF113:
 2951 00e2 63684865 		.ascii	"chHeapFree\000"
 2951      61704672 
 2951      656500
 2952              	.LASF21:
 2953 00ed 74736C69 		.ascii	"tslices_t\000"
 2953      6365735F 
 2953      7400
 2954              	.LASF9:
 2955 00f7 6C6F6E67 		.ascii	"long int\000"
 2955      20696E74 
 2955      00
 2956              	.LASF120:
 2957 0100 2E2E2F2E 		.ascii	"../../os/kernel/src/chheap.c\000"
 2957      2E2F6F73 
 2957      2F6B6572 
 2957      6E656C2F 
 2957      7372632F 
 2958              	.LASF19:
 2959 011d 74737461 		.ascii	"tstate_t\000"
 2959      74655F74 
 2959      00
ARM GAS  /var/folders/l5/0x54b2c10074c8bt31ycjvl80000gp/T//ccHcSmAz.s 			page 54


 2960              	.LASF15:
 2961 0126 75696E74 		.ascii	"uint16_t\000"
 2961      31365F74 
 2961      00
 2962              	.LASF106:
 2963 012f 63686465 		.ascii	"chdebug_t\000"
 2963      6275675F 
 2963      7400
 2964              	.LASF31:
 2965 0139 705F6E65 		.ascii	"p_newer\000"
 2965      77657200 
 2966              	.LASF108:
 2967 0141 5F69646C 		.ascii	"_idle_thread_wa\000"
 2967      655F7468 
 2967      72656164 
 2967      5F776100 
 2968              	.LASF10:
 2969 0151 5F5F7569 		.ascii	"__uint32_t\000"
 2969      6E743332 
 2969      5F7400
 2970              	.LASF48:
 2971 015c 72656761 		.ascii	"regarm_t\000"
 2971      726D5F74 
 2971      00
 2972              	.LASF54:
 2973 0165 76745F70 		.ascii	"vt_prev\000"
 2973      72657600 
 2974              	.LASF81:
 2975 016d 616C6967 		.ascii	"align\000"
 2975      6E00
 2976              	.LASF0:
 2977 0173 756E7369 		.ascii	"unsigned int\000"
 2977      676E6564 
 2977      20696E74 
 2977      00
 2978              	.LASF53:
 2979 0180 76745F6E 		.ascii	"vt_next\000"
 2979      65787400 
 2980              	.LASF98:
 2981 0188 63665F6F 		.ascii	"cf_off_older\000"
 2981      66665F6F 
 2981      6C646572 
 2981      00
 2982              	.LASF11:
 2983 0195 6C6F6E67 		.ascii	"long unsigned int\000"
 2983      20756E73 
 2983      69676E65 
 2983      6420696E 
 2983      7400
 2984              	.LASF107:
 2985 01a7 63685F64 		.ascii	"ch_debug\000"
 2985      65627567 
 2985      00
 2986              	.LASF51:
 2987 01b0 76746675 		.ascii	"vtfunc_t\000"
 2987      6E635F74 
 2987      00
ARM GAS  /var/folders/l5/0x54b2c10074c8bt31ycjvl80000gp/T//ccHcSmAz.s 			page 55


 2988              	.LASF88:
 2989 01b9 63685F69 		.ascii	"ch_identifier\000"
 2989      64656E74 
 2989      69666965 
 2989      7200
 2990              	.LASF50:
 2991 01c7 636F6E74 		.ascii	"context\000"
 2991      65787400 
 2992              	.LASF82:
 2993 01cf 73697A65 		.ascii	"size\000"
 2993      00
 2994              	.LASF7:
 2995 01d4 73686F72 		.ascii	"short unsigned int\000"
 2995      7420756E 
 2995      7369676E 
 2995      65642069 
 2995      6E7400
 2996              	.LASF23:
 2997 01e7 6D73675F 		.ascii	"msg_t\000"
 2997      7400
 2998              	.LASF63:
 2999 01ed 725F6E65 		.ascii	"r_newer\000"
 2999      77657200 
 3000              	.LASF119:
 3001 01f5 474E5520 		.ascii	"GNU C17 8.3.1 20190703 (release) [gcc-8-branch revi"
 3001      43313720 
 3001      382E332E 
 3001      31203230 
 3001      31393037 
 3002 0228 73696F6E 		.ascii	"sion 273027] -mcpu=arm1176jz-s -mno-thumb-interwork"
 3002      20323733 
 3002      3032375D 
 3002      202D6D63 
 3002      70753D61 
 3003 025b 202D6D66 		.ascii	" -mfloat-abi=soft -marm -march=armv6kz -ggdb -O2 -f"
 3003      6C6F6174 
 3003      2D616269 
 3003      3D736F66 
 3003      74202D6D 
 3004 028e 6F6D6974 		.ascii	"omit-frame-pointer -ffunction-sections -fdata-secti"
 3004      2D667261 
 3004      6D652D70 
 3004      6F696E74 
 3004      6572202D 
 3005 02c1 6F6E7300 		.ascii	"ons\000"
 3006              	.LASF18:
 3007 02c5 746D6F64 		.ascii	"tmode_t\000"
 3007      655F7400 
 3008              	.LASF46:
 3009 02cd 54687265 		.ascii	"ThreadsList\000"
 3009      6164734C 
 3009      69737400 
 3010              	.LASF24:
 3011 02d9 6576656E 		.ascii	"eventmask_t\000"
 3011      746D6173 
 3011      6B5F7400 
 3012              	.LASF69:
ARM GAS  /var/folders/l5/0x54b2c10074c8bt31ycjvl80000gp/T//ccHcSmAz.s 			page 56


 3013 02e5 4D757465 		.ascii	"Mutex\000"
 3013      7800
 3014              	.LASF47:
 3015 02eb 73746B61 		.ascii	"stkalign_t\000"
 3015      6C69676E 
 3015      5F7400
 3016              	.LASF89:
 3017 02f6 63685F7A 		.ascii	"ch_zero\000"
 3017      65726F00 
 3018              	.LASF103:
 3019 02fe 63665F6F 		.ascii	"cf_off_refs\000"
 3019      66665F72 
 3019      65667300 
 3020              	.LASF55:
 3021 030a 76745F74 		.ascii	"vt_time\000"
 3021      696D6500 
 3022              	.LASF56:
 3023 0312 76745F66 		.ascii	"vt_func\000"
 3023      756E6300 
 3024              	.LASF93:
 3025 031a 63685F74 		.ascii	"ch_timesize\000"
 3025      696D6573 
 3025      697A6500 
 3026              	.LASF99:
 3027 0326 63665F6F 		.ascii	"cf_off_name\000"
 3027      66665F6E 
 3027      616D6500 
 3028              	.LASF116:
 3029 0332 63684D74 		.ascii	"chMtxLock\000"
 3029      784C6F63 
 3029      6B00
 3030              	.LASF32:
 3031 033c 705F6F6C 		.ascii	"p_older\000"
 3031      64657200 
 3032              	.LASF62:
 3033 0344 725F6374 		.ascii	"r_ctx\000"
 3033      7800
 3034              	.LASF45:
 3035 034a 54687265 		.ascii	"ThreadsQueue\000"
 3035      61647351 
 3035      75657565 
 3035      00
 3036              	.LASF121:
 3037 0357 2F557365 		.ascii	"/Users/fernandoguirado/Desktop/Chibi/ChibiOS-RPi/de"
 3037      72732F66 
 3037      65726E61 
 3037      6E646F67 
 3037      75697261 
 3038 038a 6D6F732F 		.ascii	"mos/Serial_LCD\000"
 3038      53657269 
 3038      616C5F4C 
 3038      434400
 3039              	.LASF90:
 3040 0399 63685F73 		.ascii	"ch_size\000"
 3040      697A6500 
 3041              	.LASF65:
 3042 03a1 725F6375 		.ascii	"r_current\000"
ARM GAS  /var/folders/l5/0x54b2c10074c8bt31ycjvl80000gp/T//ccHcSmAz.s 			page 57


 3042      7272656E 
 3042      7400
 3043              	.LASF64:
 3044 03ab 725F6F6C 		.ascii	"r_older\000"
 3044      64657200 
 3045              	.LASF74:
 3046 03b3 4D656D6F 		.ascii	"MemoryHeap\000"
 3046      72794865 
 3046      617000
 3047              	.LASF20:
 3048 03be 74726566 		.ascii	"trefs_t\000"
 3048      735F7400 
 3049              	.LASF92:
 3050 03c6 63685F70 		.ascii	"ch_ptrsize\000"
 3050      74727369 
 3050      7A6500
 3051              	.LASF28:
 3052 03d1 705F7072 		.ascii	"p_prev\000"
 3052      657600
 3053              	.LASF22:
 3054 03d8 74707269 		.ascii	"tprio_t\000"
 3054      6F5F7400 
 3055              	.LASF16:
 3056 03e0 696E7433 		.ascii	"int32_t\000"
 3056      325F7400 
 3057              	.LASF4:
 3058 03e8 756E7369 		.ascii	"unsigned char\000"
 3058      676E6564 
 3058      20636861 
 3058      7200
 3059              	.LASF76:
 3060 03f6 685F7072 		.ascii	"h_provider\000"
 3060      6F766964 
 3060      657200
 3061              	.LASF43:
 3062 0401 705F6D74 		.ascii	"p_mtxlist\000"
 3062      786C6973 
 3062      7400
 3063              	.LASF5:
 3064 040b 73686F72 		.ascii	"short int\000"
 3064      7420696E 
 3064      7400
 3065              	.LASF34:
 3066 0415 705F7374 		.ascii	"p_state\000"
 3066      61746500 
 3067              	.LASF37:
 3068 041d 705F7072 		.ascii	"p_preempt\000"
 3068      65656D70 
 3068      7400
 3069              	.LASF105:
 3070 0427 63665F6F 		.ascii	"cf_off_time\000"
 3070      66665F74 
 3070      696D6500 
 3071              	.LASF61:
 3072 0433 725F7072 		.ascii	"r_prio\000"
 3072      696F00
 3073              	.LASF122:
ARM GAS  /var/folders/l5/0x54b2c10074c8bt31ycjvl80000gp/T//ccHcSmAz.s 			page 58


 3074 043a 68656170 		.ascii	"heap_header\000"
 3074      5F686561 
 3074      64657200 
 3075              	.LASF86:
 3076 0446 65776D61 		.ascii	"ewmask\000"
 3076      736B00
 3077              	.LASF27:
 3078 044d 705F6E65 		.ascii	"p_next\000"
 3078      787400
 3079              	.LASF104:
 3080 0454 63665F6F 		.ascii	"cf_off_preempt\000"
 3080      66665F70 
 3080      7265656D 
 3080      707400
 3081              	.LASF35:
 3082 0463 705F666C 		.ascii	"p_flags\000"
 3082      61677300 
 3083              	.LASF26:
 3084 046b 54687265 		.ascii	"Thread\000"
 3084      616400
 3085              	.LASF112:
 3086 0472 63684865 		.ascii	"chHeapAlloc\000"
 3086      6170416C 
 3086      6C6F6300 
 3087              	.LASF97:
 3088 047e 63665F6F 		.ascii	"cf_off_newer\000"
 3088      66665F6E 
 3088      65776572 
 3088      00
 3089              	.LASF42:
 3090 048b 705F6570 		.ascii	"p_epending\000"
 3090      656E6469 
 3090      6E6700
 3091              	.LASF17:
 3092 0496 75696E74 		.ascii	"uint32_t\000"
 3092      33325F74 
 3092      00
 3093              	.LASF95:
 3094 049f 63665F6F 		.ascii	"cf_off_prio\000"
 3094      66665F70 
 3094      72696F00 
 3095              	.LASF60:
 3096 04ab 725F7175 		.ascii	"r_queue\000"
 3096      65756500 
 3097              	.LASF52:
 3098 04b3 56697274 		.ascii	"VirtualTimer\000"
 3098      75616C54 
 3098      696D6572 
 3098      00
 3099              	.LASF80:
 3100 04c0 68656170 		.ascii	"heap\000"
 3100      00
 3101              	.LASF123:
 3102 04c5 64656661 		.ascii	"default_heap\000"
 3102      756C745F 
 3102      68656170 
 3102      00
ARM GAS  /var/folders/l5/0x54b2c10074c8bt31ycjvl80000gp/T//ccHcSmAz.s 			page 59


 3103              	.LASF87:
 3104 04d2 63686172 		.ascii	"char\000"
 3104      00
 3105              	.LASF6:
 3106 04d7 5F5F7569 		.ascii	"__uint16_t\000"
 3106      6E743136 
 3106      5F7400
 3107              	.LASF111:
 3108 04e2 63684865 		.ascii	"chHeapStatus\000"
 3108      61705374 
 3108      61747573 
 3108      00
 3109              	.LASF72:
 3110 04ef 6D5F6E65 		.ascii	"m_next\000"
 3110      787400
 3111              	.LASF25:
 3112 04f6 73797374 		.ascii	"systime_t\000"
 3112      696D655F 
 3112      7400
 3113              	.LASF44:
 3114 0500 705F7265 		.ascii	"p_realprio\000"
 3114      616C7072 
 3114      696F00
 3115              	.LASF8:
 3116 050b 5F5F696E 		.ascii	"__int32_t\000"
 3116      7433325F 
 3116      7400
 3117              	.LASF38:
 3118 0515 705F7469 		.ascii	"p_time\000"
 3118      6D6500
 3119              	.LASF49:
 3120 051c 696E7463 		.ascii	"intctx\000"
 3120      747800
 3121              	.LASF40:
 3122 0523 705F6D73 		.ascii	"p_msgqueue\000"
 3122      67717565 
 3122      756500
 3123              	.LASF57:
 3124 052e 76745F70 		.ascii	"vt_par\000"
 3124      617200
 3125              	.LASF118:
 3126 0535 63684D74 		.ascii	"chMtxInit\000"
 3126      78496E69 
 3126      7400
 3127              	.LASF96:
 3128 053f 63665F6F 		.ascii	"cf_off_ctx\000"
 3128      66665F63 
 3128      747800
 3129              	.LASF36:
 3130 054a 705F7265 		.ascii	"p_refs\000"
 3130      667300
 3131              	.LASF66:
 3132 0551 52656164 		.ascii	"ReadyList\000"
 3132      794C6973 
 3132      7400
 3133              	.LASF68:
 3134 055b 726C6973 		.ascii	"rlist\000"
ARM GAS  /var/folders/l5/0x54b2c10074c8bt31ycjvl80000gp/T//ccHcSmAz.s 			page 60


 3134      7400
 3135              	.LASF14:
 3136 0561 75696E74 		.ascii	"uint8_t\000"
 3136      385F7400 
 3137              	.LASF85:
 3138 0569 77746F62 		.ascii	"wtobjp\000"
 3138      6A7000
 3139              	.LASF110:
 3140 0570 73697A65 		.ascii	"sizep\000"
 3140      7000
 3141              	.LASF33:
 3142 0576 705F6E61 		.ascii	"p_name\000"
 3142      6D6500
 3143              	.LASF58:
 3144 057d 76745F73 		.ascii	"vt_systime\000"
 3144      79737469 
 3144      6D6500
 3145              	.LASF115:
 3146 0588 5F686561 		.ascii	"_heap_init\000"
 3146      705F696E 
 3146      697400
 3147              	.LASF91:
 3148 0593 63685F76 		.ascii	"ch_version\000"
 3148      65727369 
 3148      6F6E00
 3149              	.LASF59:
 3150 059e 56544C69 		.ascii	"VTList\000"
 3150      737400
 3151              	.LASF71:
 3152 05a5 6D5F6F77 		.ascii	"m_owner\000"
 3152      6E657200 
 3153              	.LASF30:
 3154 05ad 705F6374 		.ascii	"p_ctx\000"
 3154      7800
 3155              	.LASF39:
 3156 05b3 705F7761 		.ascii	"p_waiting\000"
 3156      6974696E 
 3156      6700
 3157              	.LASF75:
 3158 05bd 6D656D6F 		.ascii	"memory_heap\000"
 3158      72795F68 
 3158      65617000 
 3159              		.ident	"GCC: (GNU Tools for Arm Embedded Processors 8-2019-q3-update) 8.3.1 20190703 (release) [gc
ARM GAS  /var/folders/l5/0x54b2c10074c8bt31ycjvl80000gp/T//ccHcSmAz.s 			page 61


DEFINED SYMBOLS
                            *ABS*:0000000000000000 chheap.c
/var/folders/l5/0x54b2c10074c8bt31ycjvl80000gp/T//ccHcSmAz.s:16     .text._heap_init:0000000000000000 $a
/var/folders/l5/0x54b2c10074c8bt31ycjvl80000gp/T//ccHcSmAz.s:23     .text._heap_init:0000000000000000 _heap_init
/var/folders/l5/0x54b2c10074c8bt31ycjvl80000gp/T//ccHcSmAz.s:53     .text._heap_init:0000000000000020 $d
/var/folders/l5/0x54b2c10074c8bt31ycjvl80000gp/T//ccHcSmAz.s:59     .text.chHeapInit:0000000000000000 $a
/var/folders/l5/0x54b2c10074c8bt31ycjvl80000gp/T//ccHcSmAz.s:65     .text.chHeapInit:0000000000000000 chHeapInit
/var/folders/l5/0x54b2c10074c8bt31ycjvl80000gp/T//ccHcSmAz.s:108    .text.chHeapAlloc:0000000000000000 $a
/var/folders/l5/0x54b2c10074c8bt31ycjvl80000gp/T//ccHcSmAz.s:114    .text.chHeapAlloc:0000000000000000 chHeapAlloc
/var/folders/l5/0x54b2c10074c8bt31ycjvl80000gp/T//ccHcSmAz.s:252    .text.chHeapAlloc:00000000000000b0 $d
/var/folders/l5/0x54b2c10074c8bt31ycjvl80000gp/T//ccHcSmAz.s:257    .text.chHeapFree:0000000000000000 $a
/var/folders/l5/0x54b2c10074c8bt31ycjvl80000gp/T//ccHcSmAz.s:263    .text.chHeapFree:0000000000000000 chHeapFree
/var/folders/l5/0x54b2c10074c8bt31ycjvl80000gp/T//ccHcSmAz.s:406    .text.chHeapStatus:0000000000000000 $a
/var/folders/l5/0x54b2c10074c8bt31ycjvl80000gp/T//ccHcSmAz.s:412    .text.chHeapStatus:0000000000000000 chHeapStatus
/var/folders/l5/0x54b2c10074c8bt31ycjvl80000gp/T//ccHcSmAz.s:497    .text.chHeapStatus:0000000000000068 $d
/var/folders/l5/0x54b2c10074c8bt31ycjvl80000gp/T//ccHcSmAz.s:502    .bss.default_heap:0000000000000000 $d
/var/folders/l5/0x54b2c10074c8bt31ycjvl80000gp/T//ccHcSmAz.s:506    .bss.default_heap:0000000000000000 default_heap

UNDEFINED SYMBOLS
chMtxInit
chCoreAlloc
chMtxLock
chMtxUnlock
