ARM GAS  /var/folders/l5/0x54b2c10074c8bt31ycjvl80000gp/T//ccHcSmAz.s 			page 1


   1              		.cpu arm1176jz-s
   2              		.eabi_attribute 20, 1
   3              		.eabi_attribute 21, 1
   4              		.eabi_attribute 23, 3
   5              		.eabi_attribute 24, 1
   6              		.eabi_attribute 25, 1
   7              		.eabi_attribute 26, 1
   8              		.eabi_attribute 30, 2
   9              		.eabi_attribute 34, 1
  10              		.eabi_attribute 18, 4
  11              		.file	"chheap.c"
  12              		.text
  13              	.Ltext0:
  14              		.cfi_sections	.debug_frame
  15              		.section	.text._heap_init,"ax",%progbits
  16              		.align	2
  17              		.global	_heap_init
  18              		.arch armv6kz
  19              		.syntax unified
  20              		.arm
  21              		.fpu softvfp
  22              		.type	_heap_init, %function
  23              	_heap_init:
  24              	.LFB7:
  25              		.file 1 "../../os/kernel/src/chheap.c"
  26              		.loc 1 68 23 view -0
  27              		.cfi_startproc
  28              		@ args = 0, pretend = 0, frame = 0
  29              		@ frame_needed = 0, uses_anonymous_args = 0
  30              		@ link register save eliminated.
  31              		.loc 1 69 3 view .LVU1
  32              		.loc 1 70 32 is_stmt 0 view .LVU2
  33 0000 0020A0E3 		mov	r2, #0
  34              		.loc 1 69 27 view .LVU3
  35 0004 14309FE5 		ldr	r3, .L3
  36 0008 14109FE5 		ldr	r1, .L3+4
  37              		.loc 1 73 3 view .LVU4
  38 000c 0C0083E2 		add	r0, r3, #12
  39              		.loc 1 70 32 view .LVU5
  40 0010 042083E5 		str	r2, [r3, #4]
  41              		.loc 1 71 30 view .LVU6
  42 0014 082083E5 		str	r2, [r3, #8]
  43              		.loc 1 69 27 view .LVU7
  44 0018 001083E5 		str	r1, [r3]
  45              		.loc 1 70 3 is_stmt 1 view .LVU8
  46              		.loc 1 71 3 view .LVU9
  47              		.loc 1 73 3 view .LVU10
  48 001c FEFFFFEA 		b	chMtxInit
  49              	.LVL0:
  50              	.L4:
  51              		.align	2
  52              	.L3:
  53 0020 00000000 		.word	.LANCHOR0
  54 0024 00000000 		.word	chCoreAlloc
  55              		.cfi_endproc
  56              	.LFE7:
  57              		.size	_heap_init, .-_heap_init
ARM GAS  /var/folders/l5/0x54b2c10074c8bt31ycjvl80000gp/T//ccHcSmAz.s 			page 2


  58              		.section	.text.chHeapInit,"ax",%progbits
  59              		.align	2
  60              		.global	chHeapInit
  61              		.syntax unified
  62              		.arm
  63              		.fpu softvfp
  64              		.type	chHeapInit, %function
  65              	chHeapInit:
  66              	.LVL1:
  67              	.LFB8:
  68              		.loc 1 92 60 view -0
  69              		.cfi_startproc
  70              		@ args = 0, pretend = 0, frame = 0
  71              		@ frame_needed = 0, uses_anonymous_args = 0
  72              		@ link register save eliminated.
  73              		.loc 1 93 3 view .LVU12
  74              		.loc 1 95 3 view .LVU13
  75              		.loc 1 95 72 view .LVU14
  76              		.loc 1 97 3 view .LVU15
  77              		.loc 1 97 21 is_stmt 0 view .LVU16
  78 0000 0030A0E3 		mov	r3, #0
  79              		.loc 1 101 21 view .LVU17
  80 0004 082042E2 		sub	r2, r2, #8
  81              	.LVL2:
  82              		.loc 1 98 26 view .LVU18
  83 0008 041080E5 		str	r1, [r0, #4]
  84              		.loc 1 97 21 view .LVU19
  85 000c 003080E5 		str	r3, [r0]
  86              		.loc 1 98 3 is_stmt 1 view .LVU20
  87              	.LVL3:
  88              		.loc 1 99 3 view .LVU21
  89              		.loc 1 99 24 is_stmt 0 view .LVU22
  90 0010 083080E5 		str	r3, [r0, #8]
  91              		.loc 1 100 3 is_stmt 1 view .LVU23
  92              		.loc 1 103 3 is_stmt 0 view .LVU24
  93 0014 0C0080E2 		add	r0, r0, #12
  94              	.LVL4:
  95              		.loc 1 101 14 view .LVU25
  96 0018 042081E5 		str	r2, [r1, #4]
  97              		.loc 1 100 16 view .LVU26
  98 001c 003081E5 		str	r3, [r1]
  99              		.loc 1 101 3 is_stmt 1 view .LVU27
 100              		.loc 1 103 3 view .LVU28
 101 0020 FEFFFFEA 		b	chMtxInit
 102              	.LVL5:
 103              		.loc 1 103 3 is_stmt 0 view .LVU29
 104              		.cfi_endproc
 105              	.LFE8:
 106              		.size	chHeapInit, .-chHeapInit
 107              		.section	.text.chHeapAlloc,"ax",%progbits
 108              		.align	2
 109              		.global	chHeapAlloc
 110              		.syntax unified
 111              		.arm
 112              		.fpu softvfp
 113              		.type	chHeapAlloc, %function
 114              	chHeapAlloc:
ARM GAS  /var/folders/l5/0x54b2c10074c8bt31ycjvl80000gp/T//ccHcSmAz.s 			page 3


 115              	.LVL6:
 116              	.LFB9:
 117              		.loc 1 125 51 is_stmt 1 view -0
 118              		.cfi_startproc
 119              		@ args = 0, pretend = 0, frame = 0
 120              		@ frame_needed = 0, uses_anonymous_args = 0
 121              		.loc 1 126 3 view .LVU31
 122              		.loc 1 128 3 view .LVU32
 123              		.loc 1 129 11 is_stmt 0 view .LVU33
 124 0000 000050E3 		cmp	r0, #0
 125              		.loc 1 125 51 view .LVU34
 126 0004 F0412DE9 		push	{r4, r5, r6, r7, r8, lr}
 127              		.cfi_def_cfa_offset 24
 128              		.cfi_offset 4, -24
 129              		.cfi_offset 5, -20
 130              		.cfi_offset 6, -16
 131              		.cfi_offset 7, -12
 132              		.cfi_offset 8, -8
 133              		.cfi_offset 14, -4
 134              		.loc 1 129 11 view .LVU35
 135 0008 A0709FE5 		ldr	r7, .L21
 136 000c 0070A011 		movne	r7, r0
 137              	.LVL7:
 138              		.loc 1 131 3 is_stmt 1 view .LVU36
 139              		.loc 1 131 10 is_stmt 0 view .LVU37
 140 0010 031081E2 		add	r1, r1, #3
 141              	.LVL8:
 142              		.loc 1 133 3 view .LVU38
 143 0014 0C0087E2 		add	r0, r7, #12
 144              		.loc 1 131 8 view .LVU39
 145 0018 0360C1E3 		bic	r6, r1, #3
 146              	.LVL9:
 147              		.loc 1 132 3 is_stmt 1 view .LVU40
 148              		.loc 1 132 6 is_stmt 0 view .LVU41
 149 001c 045087E2 		add	r5, r7, #4
 150              	.LVL10:
 151              		.loc 1 133 3 is_stmt 1 view .LVU42
 152 0020 FEFFFFEB 		bl	chMtxLock
 153              	.LVL11:
 154              		.loc 1 135 3 view .LVU43
 155              		.loc 1 135 9 is_stmt 0 view .LVU44
 156 0024 030000EA 		b	.L8
 157              	.LVL12:
 158              	.L12:
 159              		.loc 1 137 14 view .LVU45
 160 0028 043094E5 		ldr	r3, [r4, #4]
 161              		.loc 1 137 8 view .LVU46
 162 002c 060053E1 		cmp	r3, r6
 163 0030 0F00002A 		bcs	.L20
 164              		.loc 1 137 8 view .LVU47
 165 0034 0450A0E1 		mov	r5, r4
 166              	.LVL13:
 167              	.L8:
 168              		.loc 1 136 5 is_stmt 1 view .LVU48
 169              		.loc 1 135 17 is_stmt 0 view .LVU49
 170 0038 004095E5 		ldr	r4, [r5]
 171              	.LVL14:
ARM GAS  /var/folders/l5/0x54b2c10074c8bt31ycjvl80000gp/T//ccHcSmAz.s 			page 4


 172              		.loc 1 137 5 is_stmt 1 view .LVU50
 173              		.loc 1 135 9 is_stmt 0 view .LVU51
 174 003c 000054E3 		cmp	r4, #0
 175 0040 F8FFFF1A 		bne	.L12
 176              		.loc 1 160 3 is_stmt 1 view .LVU52
 177 0044 FEFFFFEB 		bl	chMtxUnlock
 178              	.LVL15:
 179              		.loc 1 164 3 view .LVU53
 180              		.loc 1 164 12 is_stmt 0 view .LVU54
 181 0048 003097E5 		ldr	r3, [r7]
 182              		.loc 1 164 6 view .LVU55
 183 004c 000053E3 		cmp	r3, #0
 184 0050 0500000A 		beq	.L6
 185              		.loc 1 165 5 is_stmt 1 view .LVU56
 186              		.loc 1 165 10 is_stmt 0 view .LVU57
 187 0054 080086E2 		add	r0, r6, #8
 188 0058 33FF2FE1 		blx	r3
 189              	.LVL16:
 190              		.loc 1 166 5 is_stmt 1 view .LVU58
 191              		.loc 1 166 8 is_stmt 0 view .LVU59
 192 005c 000050E3 		cmp	r0, #0
 193              		.loc 1 167 7 is_stmt 1 view .LVU60
 194              		.loc 1 167 20 is_stmt 0 view .LVU61
 195 0060 00708015 		strne	r7, [r0]
 196              		.loc 1 168 7 is_stmt 1 view .LVU62
 197              		.loc 1 168 18 is_stmt 0 view .LVU63
 198 0064 04608015 		strne	r6, [r0, #4]
 199              		.loc 1 169 7 is_stmt 1 view .LVU64
 200              		.loc 1 169 9 is_stmt 0 view .LVU65
 201 0068 08408012 		addne	r4, r0, #8
 202              	.LVL17:
 203              		.loc 1 170 7 is_stmt 1 view .LVU66
 204              	.L6:
 205              		.loc 1 174 1 is_stmt 0 view .LVU67
 206 006c 0400A0E1 		mov	r0, r4
 207 0070 F081BDE8 		pop	{r4, r5, r6, r7, r8, pc}
 208              	.L20:
 209              		.loc 1 138 7 is_stmt 1 view .LVU68
 210              		.loc 1 138 29 is_stmt 0 view .LVU69
 211 0074 082086E2 		add	r2, r6, #8
 212              		.loc 1 138 10 view .LVU70
 213 0078 020053E1 		cmp	r3, r2
 214 007c 001094E5 		ldr	r1, [r4]
 215              		.loc 1 142 9 is_stmt 1 view .LVU71
 216              		.loc 1 146 9 view .LVU72
 217              		.loc 1 148 61 is_stmt 0 view .LVU73
 218 0080 06304320 		subcs	r3, r3, r6
 219              		.loc 1 146 12 view .LVU74
 220 0084 02008420 		addcs	r0, r4, r2
 221              	.LVL18:
 222              		.loc 1 147 9 is_stmt 1 view .LVU75
 223              		.loc 1 148 61 is_stmt 0 view .LVU76
 224 0088 08304322 		subcs	r3, r3, #8
 225              		.loc 1 147 22 view .LVU77
 226 008c 02108427 		strcs	r1, [r4, r2]
 227              		.loc 1 148 9 is_stmt 1 view .LVU78
 228              		.loc 1 142 22 is_stmt 0 view .LVU79
ARM GAS  /var/folders/l5/0x54b2c10074c8bt31ycjvl80000gp/T//ccHcSmAz.s 			page 5


 229 0090 00108535 		strcc	r1, [r5]
 230              		.loc 1 148 20 view .LVU80
 231 0094 04308025 		strcs	r3, [r0, #4]
 232              		.loc 1 149 9 is_stmt 1 view .LVU81
 233              		.loc 1 149 22 is_stmt 0 view .LVU82
 234 0098 00008525 		strcs	r0, [r5]
 235              		.loc 1 150 9 is_stmt 1 view .LVU83
 236              		.loc 1 150 20 is_stmt 0 view .LVU84
 237 009c 04608425 		strcs	r6, [r4, #4]
 238              		.loc 1 152 7 is_stmt 1 view .LVU85
 239              		.loc 1 152 20 is_stmt 0 view .LVU86
 240 00a0 087084E4 		str	r7, [r4], #8
 241              	.LVL19:
 242              		.loc 1 154 7 is_stmt 1 view .LVU87
 243 00a4 FEFFFFEB 		bl	chMtxUnlock
 244              	.LVL20:
 245              		.loc 1 155 7 view .LVU88
 246              		.loc 1 174 1 is_stmt 0 view .LVU89
 247 00a8 0400A0E1 		mov	r0, r4
 248 00ac F081BDE8 		pop	{r4, r5, r6, r7, r8, pc}
 249              	.L22:
 250              		.align	2
 251              	.L21:
 252 00b0 00000000 		.word	.LANCHOR0
 253              		.cfi_endproc
 254              	.LFE9:
 255              		.size	chHeapAlloc, .-chHeapAlloc
 256              		.section	.text.chHeapFree,"ax",%progbits
 257              		.align	2
 258              		.global	chHeapFree
 259              		.syntax unified
 260              		.arm
 261              		.fpu softvfp
 262              		.type	chHeapFree, %function
 263              	chHeapFree:
 264              	.LVL21:
 265              	.LFB10:
 266              		.loc 1 187 26 is_stmt 1 view -0
 267              		.cfi_startproc
 268              		@ args = 0, pretend = 0, frame = 0
 269              		@ frame_needed = 0, uses_anonymous_args = 0
 270              		.loc 1 188 3 view .LVU91
 271              		.loc 1 189 3 view .LVU92
 272              		.loc 1 191 3 view .LVU93
 273              		.loc 1 191 38 view .LVU94
 274              		.loc 1 193 3 view .LVU95
 275              		.loc 1 187 26 is_stmt 0 view .LVU96
 276 0000 70402DE9 		push	{r4, r5, r6, lr}
 277              		.cfi_def_cfa_offset 16
 278              		.cfi_offset 4, -16
 279              		.cfi_offset 5, -12
 280              		.cfi_offset 6, -8
 281              		.cfi_offset 14, -4
 282              		.loc 1 187 26 view .LVU97
 283 0004 0060A0E1 		mov	r6, r0
 284              		.loc 1 194 9 view .LVU98
 285 0008 080010E5 		ldr	r0, [r0, #-8]
ARM GAS  /var/folders/l5/0x54b2c10074c8bt31ycjvl80000gp/T//ccHcSmAz.s 			page 6


 286              	.LVL22:
 287              		.loc 1 193 6 view .LVU99
 288 000c 084046E2 		sub	r4, r6, #8
 289              	.LVL23:
 290              		.loc 1 194 3 is_stmt 1 view .LVU100
 291              		.loc 1 195 3 view .LVU101
 292              		.loc 1 195 6 is_stmt 0 view .LVU102
 293 0010 045080E2 		add	r5, r0, #4
 294              	.LVL24:
 295              		.loc 1 196 3 is_stmt 1 view .LVU103
 296 0014 0C0080E2 		add	r0, r0, #12
 297              	.LVL25:
 298              		.loc 1 196 3 is_stmt 0 view .LVU104
 299 0018 FEFFFFEB 		bl	chMtxLock
 300              	.LVL26:
 301              		.loc 1 195 6 view .LVU105
 302 001c 0530A0E1 		mov	r3, r5
 303 0020 020000EA 		b	.L24
 304              	.LVL27:
 305              	.L36:
 306              		.loc 1 204 33 view .LVU106
 307 0024 020054E1 		cmp	r4, r2
 308 0028 0A00003A 		bcc	.L26
 309              	.L25:
 310              		.loc 1 187 26 view .LVU107
 311 002c 0230A0E1 		mov	r3, r2
 312              	.L24:
 313              	.LVL28:
 314              		.loc 1 198 3 is_stmt 1 view .LVU108
 315              		.loc 1 199 5 view .LVU109
 316              		.loc 1 201 37 view .LVU110
 317              		.loc 1 203 5 view .LVU111
 318              		.loc 1 203 8 is_stmt 0 view .LVU112
 319 0030 052043E0 		sub	r2, r3, r5
 320 0034 122F6FE1 		clz	r2, r2
 321 0038 A222A0E1 		lsr	r2, r2, #5
 322              		.loc 1 203 33 view .LVU113
 323 003c 040053E1 		cmp	r3, r4
 324 0040 01208233 		orrcc	r2, r2, #1
 325 0044 000052E3 		cmp	r2, #0
 326 0048 002093E5 		ldr	r2, [r3]
 327 004c F6FFFF0A 		beq	.L25
 328              		.loc 1 203 47 discriminator 3 view .LVU114
 329 0050 000052E3 		cmp	r2, #0
 330 0054 F2FFFF1A 		bne	.L36
 331              	.L26:
 332              		.loc 1 206 7 is_stmt 1 view .LVU115
 333              		.loc 1 206 20 is_stmt 0 view .LVU116
 334 0058 082006E5 		str	r2, [r6, #-8]
 335              		.loc 1 207 7 is_stmt 1 view .LVU117
 336              		.loc 1 209 11 is_stmt 0 view .LVU118
 337 005c 042016E5 		ldr	r2, [r6, #-4]
 338              		.loc 1 207 20 view .LVU119
 339 0060 004083E5 		str	r4, [r3]
 340              		.loc 1 209 7 is_stmt 1 view .LVU120
 341              		.loc 1 209 31 is_stmt 0 view .LVU121
 342 0064 081016E5 		ldr	r1, [r6, #-8]
ARM GAS  /var/folders/l5/0x54b2c10074c8bt31ycjvl80000gp/T//ccHcSmAz.s 			page 7


 343              		.loc 1 209 11 view .LVU122
 344 0068 020086E0 		add	r0, r6, r2
 345              		.loc 1 209 10 view .LVU123
 346 006c 000051E1 		cmp	r1, r0
 347              		.loc 1 211 9 is_stmt 1 view .LVU124
 348              		.loc 1 211 20 is_stmt 0 view .LVU125
 349 0070 04009105 		ldreq	r0, [r1, #4]
 350 0074 08208202 		addeq	r2, r2, #8
 351              		.loc 1 212 41 view .LVU126
 352 0078 00109105 		ldreq	r1, [r1]
 353              		.loc 1 211 20 view .LVU127
 354 007c 02208000 		addeq	r2, r0, r2
 355              		.loc 1 212 22 view .LVU128
 356 0080 06000609 		stmdbeq	r6, {r1, r2}
 357              		.loc 1 214 7 is_stmt 1 view .LVU129
 358              		.loc 1 214 12 is_stmt 0 view .LVU130
 359 0084 041093E5 		ldr	r1, [r3, #4]
 360 0088 082081E2 		add	r2, r1, #8
 361 008c 022083E0 		add	r2, r3, r2
 362              		.loc 1 214 10 view .LVU131
 363 0090 020054E1 		cmp	r4, r2
 364 0094 0100000A 		beq	.L37
 365              		.loc 1 219 7 is_stmt 1 view .LVU132
 366              		.loc 1 224 3 view .LVU133
 367              		.loc 1 226 1 is_stmt 0 view .LVU134
 368 0098 7040BDE8 		pop	{r4, r5, r6, lr}
 369              		.cfi_remember_state
 370              		.cfi_restore 14
 371              		.cfi_restore 6
 372              		.cfi_restore 5
 373              		.cfi_restore 4
 374              		.cfi_def_cfa_offset 0
 375              	.LVL29:
 376              		.loc 1 224 3 view .LVU135
 377 009c FEFFFFEA 		b	chMtxUnlock
 378              	.LVL30:
 379              	.L37:
 380              		.cfi_restore_state
 381              		.loc 1 216 9 is_stmt 1 view .LVU136
 382              		.loc 1 217 31 is_stmt 0 view .LVU137
 383 00a0 050016E9 		ldmdb	r6, {r0, r2}
 384              		.loc 1 216 20 view .LVU138
 385 00a4 082082E2 		add	r2, r2, #8
 386 00a8 011082E0 		add	r1, r2, r1
 387              		.loc 1 217 22 view .LVU139
 388 00ac F000C3E1 		strd	r0, [r3]
 389              		.loc 1 219 7 is_stmt 1 view .LVU140
 390              		.loc 1 224 3 view .LVU141
 391              		.loc 1 226 1 is_stmt 0 view .LVU142
 392 00b0 7040BDE8 		pop	{r4, r5, r6, lr}
 393              		.cfi_restore 14
 394              		.cfi_restore 6
 395              		.cfi_restore 5
 396              		.cfi_restore 4
 397              		.cfi_def_cfa_offset 0
 398              	.LVL31:
 399              		.loc 1 224 3 view .LVU143
ARM GAS  /var/folders/l5/0x54b2c10074c8bt31ycjvl80000gp/T//ccHcSmAz.s 			page 8


 400 00b4 FEFFFFEA 		b	chMtxUnlock
 401              	.LVL32:
 402              		.cfi_endproc
 403              	.LFE10:
 404              		.size	chHeapFree, .-chHeapFree
 405              		.section	.text.chHeapStatus,"ax",%progbits
 406              		.align	2
 407              		.global	chHeapStatus
 408              		.syntax unified
 409              		.arm
 410              		.fpu softvfp
 411              		.type	chHeapStatus, %function
 412              	chHeapStatus:
 413              	.LVL33:
 414              	.LFB11:
 415              		.loc 1 243 55 is_stmt 1 view -0
 416              		.cfi_startproc
 417              		@ args = 0, pretend = 0, frame = 0
 418              		@ frame_needed = 0, uses_anonymous_args = 0
 419              		.loc 1 244 3 view .LVU145
 420              		.loc 1 245 3 view .LVU146
 421              		.loc 1 247 3 view .LVU147
 422              		.loc 1 248 11 is_stmt 0 view .LVU148
 423 0000 000050E3 		cmp	r0, #0
 424              		.loc 1 243 55 view .LVU149
 425 0004 70402DE9 		push	{r4, r5, r6, lr}
 426              		.cfi_def_cfa_offset 16
 427              		.cfi_offset 4, -16
 428              		.cfi_offset 5, -12
 429              		.cfi_offset 6, -8
 430              		.cfi_offset 14, -4
 431              		.loc 1 248 11 view .LVU150
 432 0008 58409FE5 		ldr	r4, .L49
 433 000c 0040A011 		movne	r4, r0
 434              	.LVL34:
 435              		.loc 1 250 3 is_stmt 1 view .LVU151
 436 0010 0C0084E2 		add	r0, r4, #12
 437              		.loc 1 243 55 is_stmt 0 view .LVU152
 438 0014 0150A0E1 		mov	r5, r1
 439              		.loc 1 250 3 view .LVU153
 440 0018 FEFFFFEB 		bl	chMtxLock
 441              	.LVL35:
 442              		.loc 1 252 3 is_stmt 1 view .LVU154
 443              		.loc 1 253 3 view .LVU155
 444              		.loc 1 253 43 is_stmt 0 view .LVU156
 445 001c 043094E5 		ldr	r3, [r4, #4]
 446              		.loc 1 253 3 view .LVU157
 447 0020 000053E3 		cmp	r3, #0
 448 0024 0C00000A 		beq	.L43
 449              		.loc 1 252 6 view .LVU158
 450 0028 0020A0E3 		mov	r2, #0
 451              		.loc 1 253 10 view .LVU159
 452 002c 0240A0E1 		mov	r4, r2
 453              	.LVL36:
 454              	.L41:
 455              		.loc 1 254 5 is_stmt 1 discriminator 3 view .LVU160
 456              		.loc 1 254 8 is_stmt 0 discriminator 3 view .LVU161
ARM GAS  /var/folders/l5/0x54b2c10074c8bt31ycjvl80000gp/T//ccHcSmAz.s 			page 9


 457 0030 040093E5 		ldr	r0, [r3, #4]
 458              		.loc 1 253 43 discriminator 3 view .LVU162
 459 0034 003093E5 		ldr	r3, [r3]
 460              		.loc 1 253 51 discriminator 3 view .LVU163
 461 0038 014084E2 		add	r4, r4, #1
 462              	.LVL37:
 463              		.loc 1 253 3 discriminator 3 view .LVU164
 464 003c 000053E3 		cmp	r3, #0
 465              		.loc 1 254 8 discriminator 3 view .LVU165
 466 0040 002082E0 		add	r2, r2, r0
 467              	.LVL38:
 468              		.loc 1 253 3 discriminator 3 view .LVU166
 469 0044 F9FFFF1A 		bne	.L41
 470              	.LVL39:
 471              	.L40:
 472              		.loc 1 255 3 is_stmt 1 view .LVU167
 473              		.loc 1 255 6 is_stmt 0 view .LVU168
 474 0048 000055E3 		cmp	r5, #0
 475              		.loc 1 256 5 is_stmt 1 view .LVU169
 476              		.loc 1 256 12 is_stmt 0 view .LVU170
 477 004c 00208515 		strne	r2, [r5]
 478              		.loc 1 258 3 is_stmt 1 view .LVU171
 479 0050 FEFFFFEB 		bl	chMtxUnlock
 480              	.LVL40:
 481              		.loc 1 259 3 view .LVU172
 482              		.loc 1 260 1 is_stmt 0 view .LVU173
 483 0054 0400A0E1 		mov	r0, r4
 484 0058 7080BDE8 		pop	{r4, r5, r6, pc}
 485              	.LVL41:
 486              	.L43:
 487              		.loc 1 252 6 view .LVU174
 488 005c 0320A0E1 		mov	r2, r3
 489              		.loc 1 253 10 view .LVU175
 490 0060 0340A0E1 		mov	r4, r3
 491              	.LVL42:
 492              		.loc 1 253 10 view .LVU176
 493 0064 F7FFFFEA 		b	.L40
 494              	.L50:
 495              		.align	2
 496              	.L49:
 497 0068 00000000 		.word	.LANCHOR0
 498              		.cfi_endproc
 499              	.LFE11:
 500              		.size	chHeapStatus, .-chHeapStatus
 501              		.section	.bss.default_heap,"aw",%nobits
 502              		.align	2
 503              		.set	.LANCHOR0,. + 0
 504              		.type	default_heap, %object
 505              		.size	default_heap, 28
 506              	default_heap:
 507 0000 00000000 		.space	28
 507      00000000 
 507      00000000 
 507      00000000 
 507      00000000 
 508              		.text
 509              	.Letext0:
ARM GAS  /var/folders/l5/0x54b2c10074c8bt31ycjvl80000gp/T//ccHcSmAz.s 			page 10


 510              		.file 2 "/usr/local/Cellar/arm-gcc-bin/8-2019-q3-update/lib/gcc/arm-none-eabi/8.3.1/include/stddef
 511              		.file 3 "/usr/local/Cellar/arm-gcc-bin/8-2019-q3-update/arm-none-eabi/include/machine/_default_typ
 512              		.file 4 "/usr/local/Cellar/arm-gcc-bin/8-2019-q3-update/arm-none-eabi/include/sys/_stdint.h"
 513              		.file 5 "../../os/ports/GCC/ARM/chtypes.h"
 514              		.file 6 "../../os/kernel/include/chlists.h"
 515              		.file 7 "../../os/kernel/include/chthreads.h"
 516              		.file 8 "../../os/ports/GCC/ARM/chcore.h"
 517              		.file 9 "../../os/kernel/include/chvt.h"
 518              		.file 10 "../../os/kernel/include/chschd.h"
 519              		.file 11 "../../os/kernel/include/chmtx.h"
 520              		.file 12 "../../os/kernel/include/chmemcore.h"
 521              		.file 13 "../../os/kernel/include/chheap.h"
 522              		.file 14 "../../os/kernel/include/chregistry.h"
 523              		.file 15 "../../os/kernel/include/ch.h"