ARM GAS  /var/folders/l5/0x54b2c10074c8bt31ycjvl80000gp/T//cc2tThBQ.s 			page 1


   1              		.cpu arm1176jz-s
   2              		.eabi_attribute 20, 1
   3              		.eabi_attribute 21, 1
   4              		.eabi_attribute 23, 3
   5              		.eabi_attribute 24, 1
   6              		.eabi_attribute 25, 1
   7              		.eabi_attribute 26, 1
   8              		.eabi_attribute 30, 2
   9              		.eabi_attribute 34, 1
  10              		.eabi_attribute 18, 4
  11              		.file	"main.c"
  12              		.text
  13              	.Ltext0:
  14              		.cfi_sections	.debug_frame
  15              		.section	.text.Thread_LCD,"ax",%progbits
  16              		.align	2
  17              		.arch armv6kz
  18              		.syntax unified
  19              		.arm
  20              		.fpu softvfp
  21              		.type	Thread_LCD, %function
  22              	Thread_LCD:
  23              	.LVL0:
  24              	.LFB7:
  25              		.file 1 "main.c"
  26              		.loc 1 26 34 view -0
  27              		.cfi_startproc
  28              		@ args = 0, pretend = 0, frame = 0
  29              		@ frame_needed = 0, uses_anonymous_args = 0
  30              		.loc 1 27 3 view .LVU1
  31              		.loc 1 28 3 view .LVU2
  32              		.loc 1 26 34 is_stmt 0 view .LVU3
  33 0000 F0412DE9 		push	{r4, r5, r6, r7, r8, lr}
  34              		.cfi_def_cfa_offset 24
  35              		.cfi_offset 4, -24
  36              		.cfi_offset 5, -20
  37              		.cfi_offset 6, -16
  38              		.cfi_offset 7, -12
  39              		.cfi_offset 8, -8
  40              		.cfi_offset 14, -4
  41              		.loc 1 29 12 view .LVU4
  42 0004 0050A0E3 		mov	r5, #0
  43              		.loc 1 28 3 view .LVU5
  44 0008 A8309FE5 		ldr	r3, .L5
  45 000c A8209FE5 		ldr	r2, .L5+4
  46 0010 183093E5 		ldr	r3, [r3, #24]
  47              		.loc 1 31 5 view .LVU6
  48 0014 A4409FE5 		ldr	r4, .L5+8
  49              		.loc 1 41 5 view .LVU7
  50 0018 A4709FE5 		ldr	r7, .L5+12
  51              		.loc 1 28 3 view .LVU8
  52 001c 182083E5 		str	r2, [r3, #24]
  53              		.loc 1 29 3 is_stmt 1 view .LVU9
  54              	.LVL1:
  55              		.loc 1 41 5 is_stmt 0 view .LVU10
  56 0020 306044E2 		sub	r6, r4, #48
  57              	.LVL2:
ARM GAS  /var/folders/l5/0x54b2c10074c8bt31ycjvl80000gp/T//cc2tThBQ.s 			page 2


  58              	.L2:
  59              		.loc 1 30 3 is_stmt 1 discriminator 1 view .LVU11
  60              		.loc 1 31 5 discriminator 1 view .LVU12
  61 0024 0020E0E3 		mvn	r2, #0
  62 0028 7C10A0E3 		mov	r1, #124
  63 002c 0400A0E1 		mov	r0, r4
  64 0030 FEFFFFEB 		bl	chOQPutTimeout
  65              	.LVL3:
  66              		.loc 1 32 5 discriminator 1 view .LVU13
  67 0034 0020E0E3 		mvn	r2, #0
  68 0038 1810A0E3 		mov	r1, #24
  69 003c 0400A0E1 		mov	r0, r4
  70 0040 FEFFFFEB 		bl	chOQPutTimeout
  71              	.LVL4:
  72              		.loc 1 33 5 discriminator 1 view .LVU14
  73 0044 0020E0E3 		mvn	r2, #0
  74 0048 2010A0E3 		mov	r1, #32
  75 004c 0400A0E1 		mov	r0, r4
  76 0050 FEFFFFEB 		bl	chOQPutTimeout
  77              	.LVL5:
  78              		.loc 1 34 5 discriminator 1 view .LVU15
  79 0054 0A00A0E3 		mov	r0, #10
  80 0058 FEFFFFEB 		bl	chThdSleep
  81              	.LVL6:
  82              		.loc 1 36 5 discriminator 1 view .LVU16
  83 005c 0020E0E3 		mvn	r2, #0
  84 0060 7C10A0E3 		mov	r1, #124
  85 0064 0400A0E1 		mov	r0, r4
  86 0068 FEFFFFEB 		bl	chOQPutTimeout
  87              	.LVL7:
  88              		.loc 1 37 5 discriminator 1 view .LVU17
  89 006c 0020E0E3 		mvn	r2, #0
  90 0070 1910A0E3 		mov	r1, #25
  91 0074 0400A0E1 		mov	r0, r4
  92 0078 FEFFFFEB 		bl	chOQPutTimeout
  93              	.LVL8:
  94              		.loc 1 38 5 discriminator 1 view .LVU18
  95 007c 0020E0E3 		mvn	r2, #0
  96 0080 2010A0E3 		mov	r1, #32
  97 0084 0400A0E1 		mov	r0, r4
  98 0088 FEFFFFEB 		bl	chOQPutTimeout
  99              	.LVL9:
 100              		.loc 1 39 5 discriminator 1 view .LVU19
 101 008c 0A00A0E3 		mov	r0, #10
 102 0090 FEFFFFEB 		bl	chThdSleep
 103              	.LVL10:
 104              		.loc 1 41 5 discriminator 1 view .LVU20
 105 0094 0520A0E1 		mov	r2, r5
 106 0098 0600A0E1 		mov	r0, r6
 107 009c 0710A0E1 		mov	r1, r7
 108 00a0 FEFFFFEB 		bl	chprintf
 109              	.LVL11:
 110              		.loc 1 42 5 discriminator 1 view .LVU21
 111              		.loc 1 42 14 is_stmt 0 discriminator 1 view .LVU22
 112 00a4 015085E2 		add	r5, r5, #1
 113              	.LVL12:
 114              		.loc 1 43 5 discriminator 1 view .LVU23
ARM GAS  /var/folders/l5/0x54b2c10074c8bt31ycjvl80000gp/T//cc2tThBQ.s 			page 3


 115 00a8 7D0EA0E3 		mov	r0, #2000
 116              		.loc 1 42 14 discriminator 1 view .LVU24
 117 00ac 7550FFE6 		uxth	r5, r5
 118              	.LVL13:
 119              		.loc 1 43 5 is_stmt 1 discriminator 1 view .LVU25
 120 00b0 FEFFFFEB 		bl	chThdSleep
 121              	.LVL14:
 122 00b4 DAFFFFEA 		b	.L2
 123              	.L6:
 124              		.align	2
 125              	.L5:
 126 00b8 00000000 		.word	rlist
 127 00bc 00000000 		.word	.LC0
 128 00c0 30000000 		.word	SD1+48
 129 00c4 0C000000 		.word	.LC1
 130              		.cfi_endproc
 131              	.LFE7:
 132              		.size	Thread_LCD, .-Thread_LCD
 133              		.section	.text.startup.main,"ax",%progbits
 134              		.align	2
 135              		.global	main
 136              		.syntax unified
 137              		.arm
 138              		.fpu softvfp
 139              		.type	main, %function
 140              	main:
 141              	.LFB8:
 142              		.loc 1 52 16 view -0
 143              		.cfi_startproc
 144              		@ args = 0, pretend = 0, frame = 24
 145              		@ frame_needed = 0, uses_anonymous_args = 0
 146              		.loc 1 53 3 view .LVU27
 147              		.loc 1 52 16 is_stmt 0 view .LVU28
 148 0000 70402DE9 		push	{r4, r5, r6, lr}
 149              		.cfi_def_cfa_offset 16
 150              		.cfi_offset 4, -16
 151              		.cfi_offset 5, -12
 152              		.cfi_offset 6, -8
 153              		.cfi_offset 14, -4
 154              		.loc 1 79 3 view .LVU29
 155 0004 0060A0E3 		mov	r6, #0
 156              		.loc 1 52 16 view .LVU30
 157 0008 20D04DE2 		sub	sp, sp, #32
 158              		.cfi_def_cfa_offset 48
 159              		.loc 1 53 3 view .LVU31
 160 000c FEFFFFEB 		bl	halInit
 161              	.LVL15:
 162              		.loc 1 54 3 is_stmt 1 view .LVU32
 163 0010 FEFFFFEB 		bl	chSysInit
 164              	.LVL16:
 165              		.loc 1 56 3 view .LVU33
 166              		.loc 1 56 8 is_stmt 0 view .LVU34
 167 0014 DCE09FE5 		ldr	lr, .L9
 168 0018 0CC08DE2 		add	ip, sp, #12
 169 001c 0F00BEE8 		ldmia	lr!, {r0, r1, r2, r3}
 170 0020 0F00ACE8 		stmia	ip!, {r0, r1, r2, r3}
 171              		.loc 1 59 3 view .LVU35
ARM GAS  /var/folders/l5/0x54b2c10074c8bt31ycjvl80000gp/T//cc2tThBQ.s 			page 4


 172 0024 D0509FE5 		ldr	r5, .L9+4
 173              		.loc 1 56 8 view .LVU36
 174 0028 00309EE5 		ldr	r3, [lr]
 175              		.loc 1 59 3 view .LVU37
 176 002c 0500A0E1 		mov	r0, r5
 177 0030 0610A0E1 		mov	r1, r6
 178              		.loc 1 56 8 view .LVU38
 179 0034 B030CCE1 		strh	r3, [ip]	@ movhi
 180              		.loc 1 59 3 is_stmt 1 view .LVU39
 181              		.loc 1 65 3 is_stmt 0 view .LVU40
 182 0038 304085E2 		add	r4, r5, #48
 183              		.loc 1 59 3 view .LVU41
 184 003c FEFFFFEB 		bl	sdStart
 185              	.LVL17:
 186              		.loc 1 62 3 is_stmt 1 view .LVU42
 187 0040 0500A0E1 		mov	r0, r5
 188 0044 B4109FE5 		ldr	r1, .L9+8
 189 0048 FEFFFFEB 		bl	chprintf
 190              	.LVL18:
 191              		.loc 1 65 3 view .LVU43
 192 004c 0400A0E1 		mov	r0, r4
 193 0050 0020E0E3 		mvn	r2, #0
 194 0054 7C10A0E3 		mov	r1, #124
 195 0058 FEFFFFEB 		bl	chOQPutTimeout
 196              	.LVL19:
 197              		.loc 1 66 3 view .LVU44
 198 005c 0400A0E1 		mov	r0, r4
 199 0060 0020E0E3 		mvn	r2, #0
 200 0064 1810A0E3 		mov	r1, #24
 201 0068 FEFFFFEB 		bl	chOQPutTimeout
 202              	.LVL20:
 203              		.loc 1 67 3 view .LVU45
 204 006c 0610A0E1 		mov	r1, r6
 205 0070 0020E0E3 		mvn	r2, #0
 206 0074 0400A0E1 		mov	r0, r4
 207 0078 FEFFFFEB 		bl	chOQPutTimeout
 208              	.LVL21:
 209              		.loc 1 68 3 view .LVU46
 210 007c 0A00A0E3 		mov	r0, #10
 211 0080 FEFFFFEB 		bl	chThdSleep
 212              	.LVL22:
 213              		.loc 1 70 3 view .LVU47
 214 0084 0400A0E1 		mov	r0, r4
 215 0088 0020E0E3 		mvn	r2, #0
 216 008c 7C10A0E3 		mov	r1, #124
 217 0090 FEFFFFEB 		bl	chOQPutTimeout
 218              	.LVL23:
 219              		.loc 1 71 3 view .LVU48
 220 0094 0400A0E1 		mov	r0, r4
 221 0098 0020E0E3 		mvn	r2, #0
 222 009c 1910A0E3 		mov	r1, #25
 223 00a0 FEFFFFEB 		bl	chOQPutTimeout
 224              	.LVL24:
 225              		.loc 1 72 3 view .LVU49
 226 00a4 0020E0E3 		mvn	r2, #0
 227 00a8 0A10A0E3 		mov	r1, #10
 228 00ac 0400A0E1 		mov	r0, r4
ARM GAS  /var/folders/l5/0x54b2c10074c8bt31ycjvl80000gp/T//cc2tThBQ.s 			page 5


 229 00b0 FEFFFFEB 		bl	chOQPutTimeout
 230              	.LVL25:
 231              		.loc 1 73 3 view .LVU50
 232 00b4 0A00A0E3 		mov	r0, #10
 233 00b8 FEFFFFEB 		bl	chThdSleep
 234              	.LVL26:
 235              		.loc 1 76 3 view .LVU51
 236 00bc 0500A0E1 		mov	r0, r5
 237 00c0 0C108DE2 		add	r1, sp, #12
 238 00c4 FEFFFFEB 		bl	chprintf
 239              	.LVL27:
 240              		.loc 1 79 3 view .LVU52
 241 00c8 7F20A0E3 		mov	r2, #127
 242 00cc 461FA0E3 		mov	r1, #280
 243 00d0 00608DE5 		str	r6, [sp]
 244 00d4 28309FE5 		ldr	r3, .L9+12
 245 00d8 28009FE5 		ldr	r0, .L9+16
 246 00dc FEFFFFEB 		bl	chThdCreateStatic
 247              	.LVL28:
 248              		.loc 1 84 3 view .LVU53
 249 00e0 24309FE5 		ldr	r3, .L9+20
 250 00e4 180093E5 		ldr	r0, [r3, #24]
 251 00e8 FEFFFFEB 		bl	chThdWait
 252              	.LVL29:
 253              		.loc 1 86 3 view .LVU54
 254              		.loc 1 87 1 is_stmt 0 view .LVU55
 255 00ec 0600A0E1 		mov	r0, r6
 256 00f0 20D08DE2 		add	sp, sp, #32
 257              		.cfi_def_cfa_offset 16
 258              		@ sp needed
 259 00f4 7080BDE8 		pop	{r4, r5, r6, pc}
 260              	.L10:
 261              		.align	2
 262              	.L9:
 263 00f8 14000000 		.word	.LC2
 264 00fc 00000000 		.word	SD1
 265 0100 00000000 		.word	.LC3
 266 0104 00000000 		.word	Thread_LCD
 267 0108 00000000 		.word	.LANCHOR0
 268 010c 00000000 		.word	rlist
 269              		.cfi_endproc
 270              	.LFE8:
 271              		.size	main, .-main
 272              		.section	.bss.waThread_LCD,"aw",%nobits
 273              		.align	2
 274              		.set	.LANCHOR0,. + 0
 275              		.type	waThread_LCD, %object
 276              		.size	waThread_LCD, 280
 277              	waThread_LCD:
 278 0000 00000000 		.space	280
 278      00000000 
 278      00000000 
 278      00000000 
 278      00000000 
 279              		.section	.rodata.Thread_LCD.str1.4,"aMS",%progbits,1
 280              		.align	2
 281              	.LC0:
ARM GAS  /var/folders/l5/0x54b2c10074c8bt31ycjvl80000gp/T//cc2tThBQ.s 			page 6


 282 0000 53657269 		.ascii	"SerialPrint\000"
 282      616C5072 
 282      696E7400 
 283              	.LC1:
 284 000c 49746572 		.ascii	"Iter.: %u\000"
 284      2E3A2025 
 284      7500
 285              		.section	.rodata.main.str1.4,"aMS",%progbits,1
 286              		.align	2
 287              	.LC3:
 288 0000 4D61696E 		.ascii	"Main (SD1 started)\000"
 288      20285344 
 288      31207374 
 288      61727465 
 288      642900
 289 0013 00       		.space	1
 290              	.LC2:
 291 0014 48656C6C 		.ascii	"Hello Chibi-World\000"
 291      6F204368 
 291      6962692D 
 291      576F726C 
 291      6400
 292              		.text
 293              	.Letext0:
 294              		.file 2 "/usr/local/Cellar/arm-gcc-bin/8-2019-q3-update/lib/gcc/arm-none-eabi/8.3.1/include/stddef
 295              		.file 3 "/usr/local/Cellar/arm-gcc-bin/8-2019-q3-update/arm-none-eabi/include/machine/_default_typ
 296              		.file 4 "/usr/local/Cellar/arm-gcc-bin/8-2019-q3-update/arm-none-eabi/include/sys/_stdint.h"
 297              		.file 5 "../../os/ports/GCC/ARM/chtypes.h"
 298              		.file 6 "../../os/kernel/include/chlists.h"
 299              		.file 7 "../../os/kernel/include/chthreads.h"
 300              		.file 8 "../../os/ports/GCC/ARM/chcore.h"
 301              		.file 9 "../../os/kernel/include/chvt.h"
 302              		.file 10 "../../os/kernel/include/chschd.h"
 303              		.file 11 "../../os/kernel/include/chmtx.h"
 304              		.file 12 "../../os/kernel/include/chevents.h"
 305              		.file 13 "../../os/kernel/include/chregistry.h"
 306              		.file 14 "../../os/kernel/include/chqueues.h"
 307              		.file 15 "../../os/kernel/include/chstreams.h"
 308              		.file 16 "../../os/kernel/include/ch.h"
 309              		.file 17 "../../os/hal/platforms/BCM2835/bcm2835.h"
 310              		.file 18 "../../os/hal/platforms/BCM2835/pal_lld.h"
 311              		.file 19 "../../os/hal/include/i2c.h"
 312              		.file 20 "../../os/hal/platforms/BCM2835/i2c_lld.h"
 313              		.file 21 "../../os/hal/include/serial.h"
 314              		.file 22 "../../os/hal/include/spi.h"
 315              		.file 23 "../../os/hal/platforms/BCM2835/spi_lld.h"
 316              		.file 24 "../../os/hal/include/hal.h"
 317              		.file 25 "../../os/kernel/include/chsys.h"
 318              		.file 26 "../../os/various/chprintf.h"
 319              		.file 27 "../../os/hal/platforms/BCM2835/serial_lld.h"