ARM GAS  /var/folders/l5/0x54b2c10074c8bt31ycjvl80000gp/T//cc2tThBQ.s 			page 1


   1              		.cpu arm1176jz-s
   2              		.eabi_attribute 20, 1
   3              		.eabi_attribute 21, 1
   4              		.eabi_attribute 23, 3
   5              		.eabi_attribute 24, 1
   6              		.eabi_attribute 25, 1
   7              		.eabi_attribute 26, 1
   8              		.eabi_attribute 30, 2
   9              		.eabi_attribute 34, 1
  10              		.eabi_attribute 18, 4
  11              		.file	"main.c"
  12              		.text
  13              	.Ltext0:
  14              		.cfi_sections	.debug_frame
  15              		.section	.text.Thread_LCD,"ax",%progbits
  16              		.align	2
  17              		.arch armv6kz
  18              		.syntax unified
  19              		.arm
  20              		.fpu softvfp
  21              		.type	Thread_LCD, %function
  22              	Thread_LCD:
  23              	.LVL0:
  24              	.LFB7:
  25              		.file 1 "main.c"
  26              		.loc 1 26 34 view -0
  27              		.cfi_startproc
  28              		@ args = 0, pretend = 0, frame = 0
  29              		@ frame_needed = 0, uses_anonymous_args = 0
  30              		.loc 1 27 3 view .LVU1
  31              		.loc 1 28 3 view .LVU2
  32              		.loc 1 26 34 is_stmt 0 view .LVU3
  33 0000 F0412DE9 		push	{r4, r5, r6, r7, r8, lr}
  34              		.cfi_def_cfa_offset 24
  35              		.cfi_offset 4, -24
  36              		.cfi_offset 5, -20
  37              		.cfi_offset 6, -16
  38              		.cfi_offset 7, -12
  39              		.cfi_offset 8, -8
  40              		.cfi_offset 14, -4
  41              		.loc 1 29 12 view .LVU4
  42 0004 0050A0E3 		mov	r5, #0
  43              		.loc 1 28 3 view .LVU5
  44 0008 A8309FE5 		ldr	r3, .L5
  45 000c A8209FE5 		ldr	r2, .L5+4
  46 0010 183093E5 		ldr	r3, [r3, #24]
  47              		.loc 1 31 5 view .LVU6
  48 0014 A4409FE5 		ldr	r4, .L5+8
  49              		.loc 1 41 5 view .LVU7
  50 0018 A4709FE5 		ldr	r7, .L5+12
  51              		.loc 1 28 3 view .LVU8
  52 001c 182083E5 		str	r2, [r3, #24]
  53              		.loc 1 29 3 is_stmt 1 view .LVU9
  54              	.LVL1:
  55              		.loc 1 41 5 is_stmt 0 view .LVU10
  56 0020 306044E2 		sub	r6, r4, #48
  57              	.LVL2:
ARM GAS  /var/folders/l5/0x54b2c10074c8bt31ycjvl80000gp/T//cc2tThBQ.s 			page 2


  58              	.L2:
  59              		.loc 1 30 3 is_stmt 1 discriminator 1 view .LVU11
  60              		.loc 1 31 5 discriminator 1 view .LVU12
  61 0024 0020E0E3 		mvn	r2, #0
  62 0028 7C10A0E3 		mov	r1, #124
  63 002c 0400A0E1 		mov	r0, r4
  64 0030 FEFFFFEB 		bl	chOQPutTimeout
  65              	.LVL3:
  66              		.loc 1 32 5 discriminator 1 view .LVU13
  67 0034 0020E0E3 		mvn	r2, #0
  68 0038 1810A0E3 		mov	r1, #24
  69 003c 0400A0E1 		mov	r0, r4
  70 0040 FEFFFFEB 		bl	chOQPutTimeout
  71              	.LVL4:
  72              		.loc 1 33 5 discriminator 1 view .LVU14
  73 0044 0020E0E3 		mvn	r2, #0
  74 0048 2010A0E3 		mov	r1, #32
  75 004c 0400A0E1 		mov	r0, r4
  76 0050 FEFFFFEB 		bl	chOQPutTimeout
  77              	.LVL5:
  78              		.loc 1 34 5 discriminator 1 view .LVU15
  79 0054 0A00A0E3 		mov	r0, #10
  80 0058 FEFFFFEB 		bl	chThdSleep
  81              	.LVL6:
  82              		.loc 1 36 5 discriminator 1 view .LVU16
  83 005c 0020E0E3 		mvn	r2, #0
  84 0060 7C10A0E3 		mov	r1, #124
  85 0064 0400A0E1 		mov	r0, r4
  86 0068 FEFFFFEB 		bl	chOQPutTimeout
  87              	.LVL7:
  88              		.loc 1 37 5 discriminator 1 view .LVU17
  89 006c 0020E0E3 		mvn	r2, #0
  90 0070 1910A0E3 		mov	r1, #25
  91 0074 0400A0E1 		mov	r0, r4
  92 0078 FEFFFFEB 		bl	chOQPutTimeout
  93              	.LVL8:
  94              		.loc 1 38 5 discriminator 1 view .LVU18
  95 007c 0020E0E3 		mvn	r2, #0
  96 0080 2010A0E3 		mov	r1, #32
  97 0084 0400A0E1 		mov	r0, r4
  98 0088 FEFFFFEB 		bl	chOQPutTimeout
  99              	.LVL9:
 100              		.loc 1 39 5 discriminator 1 view .LVU19
 101 008c 0A00A0E3 		mov	r0, #10
 102 0090 FEFFFFEB 		bl	chThdSleep
 103              	.LVL10:
 104              		.loc 1 41 5 discriminator 1 view .LVU20
 105 0094 0520A0E1 		mov	r2, r5
 106 0098 0600A0E1 		mov	r0, r6
 107 009c 0710A0E1 		mov	r1, r7
 108 00a0 FEFFFFEB 		bl	chprintf
 109              	.LVL11:
 110              		.loc 1 42 5 discriminator 1 view .LVU21
 111              		.loc 1 42 14 is_stmt 0 discriminator 1 view .LVU22
 112 00a4 015085E2 		add	r5, r5, #1
 113              	.LVL12:
 114              		.loc 1 43 5 discriminator 1 view .LVU23
ARM GAS  /var/folders/l5/0x54b2c10074c8bt31ycjvl80000gp/T//cc2tThBQ.s 			page 3


 115 00a8 7D0EA0E3 		mov	r0, #2000
 116              		.loc 1 42 14 discriminator 1 view .LVU24
 117 00ac 7550FFE6 		uxth	r5, r5
 118              	.LVL13:
 119              		.loc 1 43 5 is_stmt 1 discriminator 1 view .LVU25
 120 00b0 FEFFFFEB 		bl	chThdSleep
 121              	.LVL14:
 122 00b4 DAFFFFEA 		b	.L2
 123              	.L6:
 124              		.align	2
 125              	.L5:
 126 00b8 00000000 		.word	rlist
 127 00bc 00000000 		.word	.LC0
 128 00c0 30000000 		.word	SD1+48
 129 00c4 0C000000 		.word	.LC1
 130              		.cfi_endproc
 131              	.LFE7:
 132              		.size	Thread_LCD, .-Thread_LCD
 133              		.section	.text.startup.main,"ax",%progbits
 134              		.align	2
 135              		.global	main
 136              		.syntax unified
 137              		.arm
 138              		.fpu softvfp
 139              		.type	main, %function
 140              	main:
 141              	.LFB8:
 142              		.loc 1 52 16 view -0
 143              		.cfi_startproc
 144              		@ args = 0, pretend = 0, frame = 24
 145              		@ frame_needed = 0, uses_anonymous_args = 0
 146              		.loc 1 53 3 view .LVU27
 147              		.loc 1 52 16 is_stmt 0 view .LVU28
 148 0000 70402DE9 		push	{r4, r5, r6, lr}
 149              		.cfi_def_cfa_offset 16
 150              		.cfi_offset 4, -16
 151              		.cfi_offset 5, -12
 152              		.cfi_offset 6, -8
 153              		.cfi_offset 14, -4
 154              		.loc 1 79 3 view .LVU29
 155 0004 0060A0E3 		mov	r6, #0
 156              		.loc 1 52 16 view .LVU30
 157 0008 20D04DE2 		sub	sp, sp, #32
 158              		.cfi_def_cfa_offset 48
 159              		.loc 1 53 3 view .LVU31
 160 000c FEFFFFEB 		bl	halInit
 161              	.LVL15:
 162              		.loc 1 54 3 is_stmt 1 view .LVU32
 163 0010 FEFFFFEB 		bl	chSysInit
 164              	.LVL16:
 165              		.loc 1 56 3 view .LVU33
 166              		.loc 1 56 8 is_stmt 0 view .LVU34
 167 0014 DCE09FE5 		ldr	lr, .L9
 168 0018 0CC08DE2 		add	ip, sp, #12
 169 001c 0F00BEE8 		ldmia	lr!, {r0, r1, r2, r3}
 170 0020 0F00ACE8 		stmia	ip!, {r0, r1, r2, r3}
 171              		.loc 1 59 3 view .LVU35
ARM GAS  /var/folders/l5/0x54b2c10074c8bt31ycjvl80000gp/T//cc2tThBQ.s 			page 4


 172 0024 D0509FE5 		ldr	r5, .L9+4
 173              		.loc 1 56 8 view .LVU36
 174 0028 00309EE5 		ldr	r3, [lr]
 175              		.loc 1 59 3 view .LVU37
 176 002c 0500A0E1 		mov	r0, r5
 177 0030 0610A0E1 		mov	r1, r6
 178              		.loc 1 56 8 view .LVU38
 179 0034 B030CCE1 		strh	r3, [ip]	@ movhi
 180              		.loc 1 59 3 is_stmt 1 view .LVU39
 181              		.loc 1 65 3 is_stmt 0 view .LVU40
 182 0038 304085E2 		add	r4, r5, #48
 183              		.loc 1 59 3 view .LVU41
 184 003c FEFFFFEB 		bl	sdStart
 185              	.LVL17:
 186              		.loc 1 62 3 is_stmt 1 view .LVU42
 187 0040 0500A0E1 		mov	r0, r5
 188 0044 B4109FE5 		ldr	r1, .L9+8
 189 0048 FEFFFFEB 		bl	chprintf
 190              	.LVL18:
 191              		.loc 1 65 3 view .LVU43
 192 004c 0400A0E1 		mov	r0, r4
 193 0050 0020E0E3 		mvn	r2, #0
 194 0054 7C10A0E3 		mov	r1, #124
 195 0058 FEFFFFEB 		bl	chOQPutTimeout
 196              	.LVL19:
 197              		.loc 1 66 3 view .LVU44
 198 005c 0400A0E1 		mov	r0, r4
 199 0060 0020E0E3 		mvn	r2, #0
 200 0064 1810A0E3 		mov	r1, #24
 201 0068 FEFFFFEB 		bl	chOQPutTimeout
 202              	.LVL20:
 203              		.loc 1 67 3 view .LVU45
 204 006c 0610A0E1 		mov	r1, r6
 205 0070 0020E0E3 		mvn	r2, #0
 206 0074 0400A0E1 		mov	r0, r4
 207 0078 FEFFFFEB 		bl	chOQPutTimeout
 208              	.LVL21:
 209              		.loc 1 68 3 view .LVU46
 210 007c 0A00A0E3 		mov	r0, #10
 211 0080 FEFFFFEB 		bl	chThdSleep
 212              	.LVL22:
 213              		.loc 1 70 3 view .LVU47
 214 0084 0400A0E1 		mov	r0, r4
 215 0088 0020E0E3 		mvn	r2, #0
 216 008c 7C10A0E3 		mov	r1, #124
 217 0090 FEFFFFEB 		bl	chOQPutTimeout
 218              	.LVL23:
 219              		.loc 1 71 3 view .LVU48
 220 0094 0400A0E1 		mov	r0, r4
 221 0098 0020E0E3 		mvn	r2, #0
 222 009c 1910A0E3 		mov	r1, #25
 223 00a0 FEFFFFEB 		bl	chOQPutTimeout
 224              	.LVL24:
 225              		.loc 1 72 3 view .LVU49
 226 00a4 0020E0E3 		mvn	r2, #0
 227 00a8 0A10A0E3 		mov	r1, #10
 228 00ac 0400A0E1 		mov	r0, r4
ARM GAS  /var/folders/l5/0x54b2c10074c8bt31ycjvl80000gp/T//cc2tThBQ.s 			page 5


 229 00b0 FEFFFFEB 		bl	chOQPutTimeout
 230              	.LVL25:
 231              		.loc 1 73 3 view .LVU50
 232 00b4 0A00A0E3 		mov	r0, #10
 233 00b8 FEFFFFEB 		bl	chThdSleep
 234              	.LVL26:
 235              		.loc 1 76 3 view .LVU51
 236 00bc 0500A0E1 		mov	r0, r5
 237 00c0 0C108DE2 		add	r1, sp, #12
 238 00c4 FEFFFFEB 		bl	chprintf
 239              	.LVL27:
 240              		.loc 1 79 3 view .LVU52
 241 00c8 7F20A0E3 		mov	r2, #127
 242 00cc 461FA0E3 		mov	r1, #280
 243 00d0 00608DE5 		str	r6, [sp]
 244 00d4 28309FE5 		ldr	r3, .L9+12
 245 00d8 28009FE5 		ldr	r0, .L9+16
 246 00dc FEFFFFEB 		bl	chThdCreateStatic
 247              	.LVL28:
 248              		.loc 1 84 3 view .LVU53
 249 00e0 24309FE5 		ldr	r3, .L9+20
 250 00e4 180093E5 		ldr	r0, [r3, #24]
 251 00e8 FEFFFFEB 		bl	chThdWait
 252              	.LVL29:
 253              		.loc 1 86 3 view .LVU54
 254              		.loc 1 87 1 is_stmt 0 view .LVU55
 255 00ec 0600A0E1 		mov	r0, r6
 256 00f0 20D08DE2 		add	sp, sp, #32
 257              		.cfi_def_cfa_offset 16
 258              		@ sp needed
 259 00f4 7080BDE8 		pop	{r4, r5, r6, pc}
 260              	.L10:
 261              		.align	2
 262              	.L9:
 263 00f8 14000000 		.word	.LC2
 264 00fc 00000000 		.word	SD1
 265 0100 00000000 		.word	.LC3
 266 0104 00000000 		.word	Thread_LCD
 267 0108 00000000 		.word	.LANCHOR0
 268 010c 00000000 		.word	rlist
 269              		.cfi_endproc
 270              	.LFE8:
 271              		.size	main, .-main
 272              		.section	.bss.waThread_LCD,"aw",%nobits
 273              		.align	2
 274              		.set	.LANCHOR0,. + 0
 275              		.type	waThread_LCD, %object
 276              		.size	waThread_LCD, 280
 277              	waThread_LCD:
 278 0000 00000000 		.space	280
 278      00000000 
 278      00000000 
 278      00000000 
 278      00000000 
 279              		.section	.rodata.Thread_LCD.str1.4,"aMS",%progbits,1
 280              		.align	2
 281              	.LC0:
ARM GAS  /var/folders/l5/0x54b2c10074c8bt31ycjvl80000gp/T//cc2tThBQ.s 			page 6


 282 0000 53657269 		.ascii	"SerialPrint\000"
 282      616C5072 
 282      696E7400 
 283              	.LC1:
 284 000c 49746572 		.ascii	"Iter.: %u\000"
 284      2E3A2025 
 284      7500
 285              		.section	.rodata.main.str1.4,"aMS",%progbits,1
 286              		.align	2
 287              	.LC3:
 288 0000 4D61696E 		.ascii	"Main (SD1 started)\000"
 288      20285344 
 288      31207374 
 288      61727465 
 288      642900
 289 0013 00       		.space	1
 290              	.LC2:
 291 0014 48656C6C 		.ascii	"Hello Chibi-World\000"
 291      6F204368 
 291      6962692D 
 291      576F726C 
 291      6400
 292              		.text
 293              	.Letext0:
 294              		.file 2 "/usr/local/Cellar/arm-gcc-bin/8-2019-q3-update/lib/gcc/arm-none-eabi/8.3.1/include/stddef
 295              		.file 3 "/usr/local/Cellar/arm-gcc-bin/8-2019-q3-update/arm-none-eabi/include/machine/_default_typ
 296              		.file 4 "/usr/local/Cellar/arm-gcc-bin/8-2019-q3-update/arm-none-eabi/include/sys/_stdint.h"
 297              		.file 5 "../../os/ports/GCC/ARM/chtypes.h"
 298              		.file 6 "../../os/kernel/include/chlists.h"
 299              		.file 7 "../../os/kernel/include/chthreads.h"
 300              		.file 8 "../../os/ports/GCC/ARM/chcore.h"
 301              		.file 9 "../../os/kernel/include/chvt.h"
 302              		.file 10 "../../os/kernel/include/chschd.h"
 303              		.file 11 "../../os/kernel/include/chmtx.h"
 304              		.file 12 "../../os/kernel/include/chevents.h"
 305              		.file 13 "../../os/kernel/include/chregistry.h"
 306              		.file 14 "../../os/kernel/include/chqueues.h"
 307              		.file 15 "../../os/kernel/include/chstreams.h"
 308              		.file 16 "../../os/kernel/include/ch.h"
 309              		.file 17 "../../os/hal/platforms/BCM2835/bcm2835.h"
 310              		.file 18 "../../os/hal/platforms/BCM2835/pal_lld.h"
 311              		.file 19 "../../os/hal/include/i2c.h"
 312              		.file 20 "../../os/hal/platforms/BCM2835/i2c_lld.h"
 313              		.file 21 "../../os/hal/include/serial.h"
 314              		.file 22 "../../os/hal/include/spi.h"
 315              		.file 23 "../../os/hal/platforms/BCM2835/spi_lld.h"
 316              		.file 24 "../../os/hal/include/hal.h"
 317              		.file 25 "../../os/kernel/include/chsys.h"
 318              		.file 26 "../../os/various/chprintf.h"
 319              		.file 27 "../../os/hal/platforms/BCM2835/serial_lld.h"
 320              		.section	.debug_info,"",%progbits
 321              	.Ldebug_info0:
 322 0000 09120000 		.4byte	0x1209
 323 0004 0400     		.2byte	0x4
 324 0006 00000000 		.4byte	.Ldebug_abbrev0
 325 000a 04       		.byte	0x4
 326 000b 01       		.uleb128 0x1
ARM GAS  /var/folders/l5/0x54b2c10074c8bt31ycjvl80000gp/T//cc2tThBQ.s 			page 7


 327 000c 71030000 		.4byte	.LASF212
 328 0010 0C       		.byte	0xc
 329 0011 41040000 		.4byte	.LASF213
 330 0015 61050000 		.4byte	.LASF214
 331 0019 00000000 		.4byte	.Ldebug_ranges0+0
 332 001d 00000000 		.4byte	0
 333 0021 00000000 		.4byte	.Ldebug_line0
 334 0025 02       		.uleb128 0x2
 335 0026 04       		.byte	0x4
 336 0027 05       		.byte	0x5
 337 0028 696E7400 		.ascii	"int\000"
 338 002c 03       		.uleb128 0x3
 339 002d 22000000 		.4byte	.LASF2
 340 0031 02       		.byte	0x2
 341 0032 D8       		.byte	0xd8
 342 0033 17       		.byte	0x17
 343 0034 38000000 		.4byte	0x38
 344 0038 04       		.uleb128 0x4
 345 0039 04       		.byte	0x4
 346 003a 07       		.byte	0x7
 347 003b 92020000 		.4byte	.LASF0
 348 003f 05       		.uleb128 0x5
 349 0040 38000000 		.4byte	0x38
 350 0044 04       		.uleb128 0x4
 351 0045 01       		.byte	0x1
 352 0046 06       		.byte	0x6
 353 0047 F8000000 		.4byte	.LASF1
 354 004b 03       		.uleb128 0x3
 355 004c 42000000 		.4byte	.LASF3
 356 0050 03       		.byte	0x3
 357 0051 2B       		.byte	0x2b
 358 0052 18       		.byte	0x18
 359 0053 57000000 		.4byte	0x57
 360 0057 04       		.uleb128 0x4
 361 0058 01       		.byte	0x1
 362 0059 08       		.byte	0x8
 363 005a 58060000 		.4byte	.LASF4
 364 005e 04       		.uleb128 0x4
 365 005f 02       		.byte	0x2
 366 0060 05       		.byte	0x5
 367 0061 85060000 		.4byte	.LASF5
 368 0065 03       		.uleb128 0x3
 369 0066 97070000 		.4byte	.LASF6
 370 006a 03       		.byte	0x3
 371 006b 39       		.byte	0x39
 372 006c 19       		.byte	0x19
 373 006d 71000000 		.4byte	0x71
 374 0071 04       		.uleb128 0x4
 375 0072 02       		.byte	0x2
 376 0073 07       		.byte	0x7
 377 0074 2F030000 		.4byte	.LASF7
 378 0078 03       		.uleb128 0x3
 379 0079 E1070000 		.4byte	.LASF8
 380 007d 03       		.byte	0x3
 381 007e 4D       		.byte	0x4d
 382 007f 18       		.byte	0x18
 383 0080 84000000 		.4byte	0x84
ARM GAS  /var/folders/l5/0x54b2c10074c8bt31ycjvl80000gp/T//cc2tThBQ.s 			page 8


 384 0084 04       		.uleb128 0x4
 385 0085 04       		.byte	0x4
 386 0086 05       		.byte	0x5
 387 0087 64010000 		.4byte	.LASF9
 388 008b 03       		.uleb128 0x3
 389 008c 2C020000 		.4byte	.LASF10
 390 0090 03       		.byte	0x3
 391 0091 4F       		.byte	0x4f
 392 0092 19       		.byte	0x19
 393 0093 97000000 		.4byte	0x97
 394 0097 04       		.uleb128 0x4
 395 0098 04       		.byte	0x4
 396 0099 07       		.byte	0x7
 397 009a D5020000 		.4byte	.LASF11
 398 009e 04       		.uleb128 0x4
 399 009f 08       		.byte	0x8
 400 00a0 05       		.byte	0x5
 401 00a1 EA000000 		.4byte	.LASF12
 402 00a5 04       		.uleb128 0x4
 403 00a6 08       		.byte	0x8
 404 00a7 07       		.byte	0x7
 405 00a8 76000000 		.4byte	.LASF13
 406 00ac 03       		.uleb128 0x3
 407 00ad AE080000 		.4byte	.LASF14
 408 00b1 04       		.byte	0x4
 409 00b2 18       		.byte	0x18
 410 00b3 13       		.byte	0x13
 411 00b4 4B000000 		.4byte	0x4b
 412 00b8 06       		.uleb128 0x6
 413 00b9 AC000000 		.4byte	0xac
 414 00bd 03       		.uleb128 0x3
 415 00be 96010000 		.4byte	.LASF15
 416 00c2 04       		.byte	0x4
 417 00c3 24       		.byte	0x24
 418 00c4 14       		.byte	0x14
 419 00c5 65000000 		.4byte	0x65
 420 00c9 03       		.uleb128 0x3
 421 00ca 50060000 		.4byte	.LASF16
 422 00ce 04       		.byte	0x4
 423 00cf 2C       		.byte	0x2c
 424 00d0 13       		.byte	0x13
 425 00d1 78000000 		.4byte	0x78
 426 00d5 03       		.uleb128 0x3
 427 00d6 2C070000 		.4byte	.LASF17
 428 00da 04       		.byte	0x4
 429 00db 30       		.byte	0x30
 430 00dc 14       		.byte	0x14
 431 00dd 8B000000 		.4byte	0x8b
 432 00e1 05       		.uleb128 0x5
 433 00e2 D5000000 		.4byte	0xd5
 434 00e6 03       		.uleb128 0x3
 435 00e7 59040000 		.4byte	.LASF18
 436 00eb 05       		.byte	0x5
 437 00ec 2A       		.byte	0x2a
 438 00ed 19       		.byte	0x19
 439 00ee AC000000 		.4byte	0xac
 440 00f2 03       		.uleb128 0x3
ARM GAS  /var/folders/l5/0x54b2c10074c8bt31ycjvl80000gp/T//cc2tThBQ.s 			page 9


 441 00f3 6D010000 		.4byte	.LASF19
 442 00f7 05       		.byte	0x5
 443 00f8 2B       		.byte	0x2b
 444 00f9 19       		.byte	0x19
 445 00fa AC000000 		.4byte	0xac
 446 00fe 03       		.uleb128 0x3
 447 00ff 00060000 		.4byte	.LASF20
 448 0103 05       		.byte	0x5
 449 0104 2C       		.byte	0x2c
 450 0105 19       		.byte	0x19
 451 0106 AC000000 		.4byte	0xac
 452 010a 03       		.uleb128 0x3
 453 010b 3F010000 		.4byte	.LASF21
 454 010f 05       		.byte	0x5
 455 0110 2D       		.byte	0x2d
 456 0111 19       		.byte	0x19
 457 0112 AC000000 		.4byte	0xac
 458 0116 03       		.uleb128 0x3
 459 0117 2F060000 		.4byte	.LASF22
 460 011b 05       		.byte	0x5
 461 011c 2E       		.byte	0x2e
 462 011d 19       		.byte	0x19
 463 011e D5000000 		.4byte	0xd5
 464 0122 03       		.uleb128 0x3
 465 0123 54030000 		.4byte	.LASF23
 466 0127 05       		.byte	0x5
 467 0128 2F       		.byte	0x2f
 468 0129 19       		.byte	0x19
 469 012a C9000000 		.4byte	0xc9
 470 012e 03       		.uleb128 0x3
 471 012f 6D040000 		.4byte	.LASF24
 472 0133 05       		.byte	0x5
 473 0134 31       		.byte	0x31
 474 0135 19       		.byte	0x19
 475 0136 D5000000 		.4byte	0xd5
 476 013a 03       		.uleb128 0x3
 477 013b 56080000 		.4byte	.LASF25
 478 013f 05       		.byte	0x5
 479 0140 32       		.byte	0x32
 480 0141 19       		.byte	0x19
 481 0142 D5000000 		.4byte	0xd5
 482 0146 03       		.uleb128 0x3
 483 0147 CC070000 		.4byte	.LASF26
 484 014b 05       		.byte	0x5
 485 014c 33       		.byte	0x33
 486 014d 19       		.byte	0x19
 487 014e D5000000 		.4byte	0xd5
 488 0152 05       		.uleb128 0x5
 489 0153 46010000 		.4byte	0x146
 490 0157 03       		.uleb128 0x3
 491 0158 EA060000 		.4byte	.LASF27
 492 015c 06       		.byte	0x6
 493 015d 23       		.byte	0x23
 494 015e 17       		.byte	0x17
 495 015f 63010000 		.4byte	0x163
 496 0163 07       		.uleb128 0x7
 497 0164 EA060000 		.4byte	.LASF27
ARM GAS  /var/folders/l5/0x54b2c10074c8bt31ycjvl80000gp/T//cc2tThBQ.s 			page 10


 498 0168 44       		.byte	0x44
 499 0169 07       		.byte	0x7
 500 016a 57       		.byte	0x57
 501 016b 08       		.byte	0x8
 502 016c 68020000 		.4byte	0x268
 503 0170 08       		.uleb128 0x8
 504 0171 C4060000 		.4byte	.LASF28
 505 0175 07       		.byte	0x7
 506 0176 58       		.byte	0x58
 507 0177 1A       		.byte	0x1a
 508 0178 8C020000 		.4byte	0x28c
 509 017c 00       		.byte	0
 510 017d 08       		.uleb128 0x8
 511 017e 28060000 		.4byte	.LASF29
 512 0182 07       		.byte	0x7
 513 0183 5A       		.byte	0x5a
 514 0184 1A       		.byte	0x1a
 515 0185 8C020000 		.4byte	0x28c
 516 0189 04       		.byte	0x4
 517 018a 08       		.uleb128 0x8
 518 018b BF000000 		.4byte	.LASF30
 519 018f 07       		.byte	0x7
 520 0190 5C       		.byte	0x5c
 521 0191 19       		.byte	0x19
 522 0192 16010000 		.4byte	0x116
 523 0196 08       		.byte	0x8
 524 0197 08       		.uleb128 0x8
 525 0198 3E090000 		.4byte	.LASF31
 526 019c 07       		.byte	0x7
 527 019d 5D       		.byte	0x5d
 528 019e 19       		.byte	0x19
 529 019f 57030000 		.4byte	0x357
 530 01a3 0C       		.byte	0xc
 531 01a4 08       		.uleb128 0x8
 532 01a5 C8010000 		.4byte	.LASF32
 533 01a9 07       		.byte	0x7
 534 01aa 5F       		.byte	0x5f
 535 01ab 1A       		.byte	0x1a
 536 01ac 8C020000 		.4byte	0x28c
 537 01b0 10       		.byte	0x10
 538 01b1 08       		.uleb128 0x8
 539 01b2 36050000 		.4byte	.LASF33
 540 01b6 07       		.byte	0x7
 541 01b7 60       		.byte	0x60
 542 01b8 1A       		.byte	0x1a
 543 01b9 8C020000 		.4byte	0x28c
 544 01bd 14       		.byte	0x14
 545 01be 08       		.uleb128 0x8
 546 01bf D1080000 		.4byte	.LASF34
 547 01c3 07       		.byte	0x7
 548 01c4 67       		.byte	0x67
 549 01c5 1A       		.byte	0x1a
 550 01c6 B8050000 		.4byte	0x5b8
 551 01ca 18       		.byte	0x18
 552 01cb 08       		.uleb128 0x8
 553 01cc 8F060000 		.4byte	.LASF35
 554 01d0 07       		.byte	0x7
ARM GAS  /var/folders/l5/0x54b2c10074c8bt31ycjvl80000gp/T//cc2tThBQ.s 			page 11


 555 01d1 72       		.byte	0x72
 556 01d2 19       		.byte	0x19
 557 01d3 F2000000 		.4byte	0xf2
 558 01d7 1C       		.byte	0x1c
 559 01d8 08       		.uleb128 0x8
 560 01d9 E2060000 		.4byte	.LASF36
 561 01dd 07       		.byte	0x7
 562 01de 76       		.byte	0x76
 563 01df 19       		.byte	0x19
 564 01e0 E6000000 		.4byte	0xe6
 565 01e4 1D       		.byte	0x1d
 566 01e5 08       		.uleb128 0x8
 567 01e6 87080000 		.4byte	.LASF37
 568 01ea 07       		.byte	0x7
 569 01eb 7B       		.byte	0x7b
 570 01ec 19       		.byte	0x19
 571 01ed FE000000 		.4byte	0xfe
 572 01f1 1E       		.byte	0x1e
 573 01f2 08       		.uleb128 0x8
 574 01f3 97060000 		.4byte	.LASF38
 575 01f7 07       		.byte	0x7
 576 01f8 81       		.byte	0x81
 577 01f9 19       		.byte	0x19
 578 01fa 0A010000 		.4byte	0x10a
 579 01fe 1F       		.byte	0x1f
 580 01ff 08       		.uleb128 0x8
 581 0200 FF070000 		.4byte	.LASF39
 582 0204 07       		.byte	0x7
 583 0205 88       		.byte	0x88
 584 0206 19       		.byte	0x19
 585 0207 52010000 		.4byte	0x152
 586 020b 20       		.byte	0x20
 587 020c 09       		.uleb128 0x9
 588 020d 705F7500 		.ascii	"p_u\000"
 589 0211 07       		.byte	0x7
 590 0212 AD       		.byte	0xad
 591 0213 19       		.byte	0x19
 592 0214 7E050000 		.4byte	0x57e
 593 0218 24       		.byte	0x24
 594 0219 08       		.uleb128 0x8
 595 021a 44090000 		.4byte	.LASF40
 596 021e 07       		.byte	0x7
 597 021f B2       		.byte	0xb2
 598 0220 19       		.byte	0x19
 599 0221 B5020000 		.4byte	0x2b5
 600 0225 28       		.byte	0x28
 601 0226 08       		.uleb128 0x8
 602 0227 1C080000 		.4byte	.LASF41
 603 022b 07       		.byte	0x7
 604 022c B8       		.byte	0xb8
 605 022d 19       		.byte	0x19
 606 022e 92020000 		.4byte	0x292
 607 0232 2C       		.byte	0x2c
 608 0233 08       		.uleb128 0x8
 609 0234 1C000000 		.4byte	.LASF42
 610 0238 07       		.byte	0x7
 611 0239 BC       		.byte	0xbc
ARM GAS  /var/folders/l5/0x54b2c10074c8bt31ycjvl80000gp/T//cc2tThBQ.s 			page 12


 612 023a 19       		.byte	0x19
 613 023b 22010000 		.4byte	0x122
 614 023f 34       		.byte	0x34
 615 0240 08       		.uleb128 0x8
 616 0241 17070000 		.4byte	.LASF43
 617 0245 07       		.byte	0x7
 618 0246 C2       		.byte	0xc2
 619 0247 19       		.byte	0x19
 620 0248 2E010000 		.4byte	0x12e
 621 024c 38       		.byte	0x38
 622 024d 08       		.uleb128 0x8
 623 024e 7B060000 		.4byte	.LASF44
 624 0252 07       		.byte	0x7
 625 0253 C9       		.byte	0xc9
 626 0254 1A       		.byte	0x1a
 627 0255 CA050000 		.4byte	0x5ca
 628 0259 3C       		.byte	0x3c
 629 025a 08       		.uleb128 0x8
 630 025b D6070000 		.4byte	.LASF45
 631 025f 07       		.byte	0x7
 632 0260 CD       		.byte	0xcd
 633 0261 19       		.byte	0x19
 634 0262 16010000 		.4byte	0x116
 635 0266 40       		.byte	0x40
 636 0267 00       		.byte	0
 637 0268 0A       		.uleb128 0xa
 638 0269 08       		.byte	0x8
 639 026a 06       		.byte	0x6
 640 026b 5A       		.byte	0x5a
 641 026c 09       		.byte	0x9
 642 026d 8C020000 		.4byte	0x28c
 643 0271 08       		.uleb128 0x8
 644 0272 C4060000 		.4byte	.LASF28
 645 0276 06       		.byte	0x6
 646 0277 5B       		.byte	0x5b
 647 0278 1A       		.byte	0x1a
 648 0279 8C020000 		.4byte	0x28c
 649 027d 00       		.byte	0
 650 027e 08       		.uleb128 0x8
 651 027f 28060000 		.4byte	.LASF29
 652 0283 06       		.byte	0x6
 653 0284 5D       		.byte	0x5d
 654 0285 1A       		.byte	0x1a
 655 0286 8C020000 		.4byte	0x28c
 656 028a 04       		.byte	0x4
 657 028b 00       		.byte	0
 658 028c 0B       		.uleb128 0xb
 659 028d 04       		.byte	0x4
 660 028e 57010000 		.4byte	0x157
 661 0292 03       		.uleb128 0x3
 662 0293 54050000 		.4byte	.LASF46
 663 0297 06       		.byte	0x6
 664 0298 5F       		.byte	0x5f
 665 0299 03       		.byte	0x3
 666 029a 68020000 		.4byte	0x268
 667 029e 0A       		.uleb128 0xa
 668 029f 04       		.byte	0x4
ARM GAS  /var/folders/l5/0x54b2c10074c8bt31ycjvl80000gp/T//cc2tThBQ.s 			page 13


 669 02a0 06       		.byte	0x6
 670 02a1 64       		.byte	0x64
 671 02a2 09       		.byte	0x9
 672 02a3 B5020000 		.4byte	0x2b5
 673 02a7 08       		.uleb128 0x8
 674 02a8 C4060000 		.4byte	.LASF28
 675 02ac 06       		.byte	0x6
 676 02ad 66       		.byte	0x66
 677 02ae 16       		.byte	0x16
 678 02af 8C020000 		.4byte	0x28c
 679 02b3 00       		.byte	0
 680 02b4 00       		.byte	0
 681 02b5 03       		.uleb128 0x3
 682 02b6 61040000 		.4byte	.LASF47
 683 02ba 06       		.byte	0x6
 684 02bb 69       		.byte	0x69
 685 02bc 03       		.byte	0x3
 686 02bd 9E020000 		.4byte	0x29e
 687 02c1 03       		.uleb128 0x3
 688 02c2 A4040000 		.4byte	.LASF48
 689 02c6 08       		.byte	0x8
 690 02c7 9D       		.byte	0x9d
 691 02c8 12       		.byte	0x12
 692 02c9 D5000000 		.4byte	0xd5
 693 02cd 03       		.uleb128 0x3
 694 02ce 37020000 		.4byte	.LASF49
 695 02d2 08       		.byte	0x8
 696 02d3 A2       		.byte	0xa2
 697 02d4 0F       		.byte	0xf
 698 02d5 D9020000 		.4byte	0x2d9
 699 02d9 0C       		.uleb128 0xc
 700 02da 04       		.byte	0x4
 701 02db 07       		.uleb128 0x7
 702 02dc 15080000 		.4byte	.LASF50
 703 02e0 24       		.byte	0x24
 704 02e1 08       		.byte	0x8
 705 02e2 B9       		.byte	0xb9
 706 02e3 08       		.byte	0x8
 707 02e4 57030000 		.4byte	0x357
 708 02e8 09       		.uleb128 0x9
 709 02e9 723400   		.ascii	"r4\000"
 710 02ec 08       		.byte	0x8
 711 02ed BA       		.byte	0xba
 712 02ee 11       		.byte	0x11
 713 02ef CD020000 		.4byte	0x2cd
 714 02f3 00       		.byte	0
 715 02f4 09       		.uleb128 0x9
 716 02f5 723500   		.ascii	"r5\000"
 717 02f8 08       		.byte	0x8
 718 02f9 BB       		.byte	0xbb
 719 02fa 11       		.byte	0x11
 720 02fb CD020000 		.4byte	0x2cd
 721 02ff 04       		.byte	0x4
 722 0300 09       		.uleb128 0x9
 723 0301 723600   		.ascii	"r6\000"
 724 0304 08       		.byte	0x8
 725 0305 BC       		.byte	0xbc
ARM GAS  /var/folders/l5/0x54b2c10074c8bt31ycjvl80000gp/T//cc2tThBQ.s 			page 14


 726 0306 11       		.byte	0x11
 727 0307 CD020000 		.4byte	0x2cd
 728 030b 08       		.byte	0x8
 729 030c 09       		.uleb128 0x9
 730 030d 723700   		.ascii	"r7\000"
 731 0310 08       		.byte	0x8
 732 0311 BD       		.byte	0xbd
 733 0312 11       		.byte	0x11
 734 0313 CD020000 		.4byte	0x2cd
 735 0317 0C       		.byte	0xc
 736 0318 09       		.uleb128 0x9
 737 0319 723800   		.ascii	"r8\000"
 738 031c 08       		.byte	0x8
 739 031d BE       		.byte	0xbe
 740 031e 11       		.byte	0x11
 741 031f CD020000 		.4byte	0x2cd
 742 0323 10       		.byte	0x10
 743 0324 09       		.uleb128 0x9
 744 0325 723900   		.ascii	"r9\000"
 745 0328 08       		.byte	0x8
 746 0329 BF       		.byte	0xbf
 747 032a 11       		.byte	0x11
 748 032b CD020000 		.4byte	0x2cd
 749 032f 14       		.byte	0x14
 750 0330 09       		.uleb128 0x9
 751 0331 72313000 		.ascii	"r10\000"
 752 0335 08       		.byte	0x8
 753 0336 C0       		.byte	0xc0
 754 0337 11       		.byte	0x11
 755 0338 CD020000 		.4byte	0x2cd
 756 033c 18       		.byte	0x18
 757 033d 09       		.uleb128 0x9
 758 033e 72313100 		.ascii	"r11\000"
 759 0342 08       		.byte	0x8
 760 0343 C1       		.byte	0xc1
 761 0344 11       		.byte	0x11
 762 0345 CD020000 		.4byte	0x2cd
 763 0349 1C       		.byte	0x1c
 764 034a 09       		.uleb128 0x9
 765 034b 6C7200   		.ascii	"lr\000"
 766 034e 08       		.byte	0x8
 767 034f C2       		.byte	0xc2
 768 0350 11       		.byte	0x11
 769 0351 CD020000 		.4byte	0x2cd
 770 0355 20       		.byte	0x20
 771 0356 00       		.byte	0
 772 0357 07       		.uleb128 0x7
 773 0358 27030000 		.4byte	.LASF51
 774 035c 04       		.byte	0x4
 775 035d 08       		.byte	0x8
 776 035e CA       		.byte	0xca
 777 035f 08       		.byte	0x8
 778 0360 72030000 		.4byte	0x372
 779 0364 09       		.uleb128 0x9
 780 0365 72313300 		.ascii	"r13\000"
 781 0369 08       		.byte	0x8
 782 036a CB       		.byte	0xcb
ARM GAS  /var/folders/l5/0x54b2c10074c8bt31ycjvl80000gp/T//cc2tThBQ.s 			page 15


 783 036b 12       		.byte	0x12
 784 036c 72030000 		.4byte	0x372
 785 0370 00       		.byte	0
 786 0371 00       		.byte	0
 787 0372 0B       		.uleb128 0xb
 788 0373 04       		.byte	0x4
 789 0374 DB020000 		.4byte	0x2db
 790 0378 03       		.uleb128 0x3
 791 0379 F5020000 		.4byte	.LASF52
 792 037d 09       		.byte	0x9
 793 037e 4E       		.byte	0x4e
 794 037f 10       		.byte	0x10
 795 0380 84030000 		.4byte	0x384
 796 0384 0B       		.uleb128 0xb
 797 0385 04       		.byte	0x4
 798 0386 8A030000 		.4byte	0x38a
 799 038a 0D       		.uleb128 0xd
 800 038b 95030000 		.4byte	0x395
 801 038f 0E       		.uleb128 0xe
 802 0390 D9020000 		.4byte	0x2d9
 803 0394 00       		.byte	0
 804 0395 03       		.uleb128 0x3
 805 0396 49070000 		.4byte	.LASF53
 806 039a 09       		.byte	0x9
 807 039b 53       		.byte	0x53
 808 039c 1D       		.byte	0x1d
 809 039d A1030000 		.4byte	0x3a1
 810 03a1 07       		.uleb128 0x7
 811 03a2 49070000 		.4byte	.LASF53
 812 03a6 14       		.byte	0x14
 813 03a7 09       		.byte	0x9
 814 03a8 5A       		.byte	0x5a
 815 03a9 08       		.byte	0x8
 816 03aa F0030000 		.4byte	0x3f0
 817 03ae 08       		.uleb128 0x8
 818 03af A9020000 		.4byte	.LASF54
 819 03b3 09       		.byte	0x9
 820 03b4 5B       		.byte	0x5b
 821 03b5 1A       		.byte	0x1a
 822 03b6 F0030000 		.4byte	0x3f0
 823 03ba 00       		.byte	0
 824 03bb 08       		.uleb128 0x8
 825 03bc 40020000 		.4byte	.LASF55
 826 03c0 09       		.byte	0x9
 827 03c1 5D       		.byte	0x5d
 828 03c2 1A       		.byte	0x1a
 829 03c3 F0030000 		.4byte	0x3f0
 830 03c7 04       		.byte	0x4
 831 03c8 08       		.uleb128 0x8
 832 03c9 E0040000 		.4byte	.LASF56
 833 03cd 09       		.byte	0x9
 834 03ce 5F       		.byte	0x5f
 835 03cf 19       		.byte	0x19
 836 03d0 46010000 		.4byte	0x146
 837 03d4 08       		.byte	0x8
 838 03d5 08       		.uleb128 0x8
 839 03d6 08050000 		.4byte	.LASF57
ARM GAS  /var/folders/l5/0x54b2c10074c8bt31ycjvl80000gp/T//cc2tThBQ.s 			page 16


 840 03da 09       		.byte	0x9
 841 03db 60       		.byte	0x60
 842 03dc 19       		.byte	0x19
 843 03dd 78030000 		.4byte	0x378
 844 03e1 0C       		.byte	0xc
 845 03e2 08       		.uleb128 0x8
 846 03e3 4F080000 		.4byte	.LASF58
 847 03e7 09       		.byte	0x9
 848 03e8 62       		.byte	0x62
 849 03e9 1A       		.byte	0x1a
 850 03ea D9020000 		.4byte	0x2d9
 851 03ee 10       		.byte	0x10
 852 03ef 00       		.byte	0
 853 03f0 0B       		.uleb128 0xb
 854 03f1 04       		.byte	0x4
 855 03f2 95030000 		.4byte	0x395
 856 03f6 0A       		.uleb128 0xa
 857 03f7 10       		.byte	0x10
 858 03f8 09       		.byte	0x9
 859 03f9 6C       		.byte	0x6c
 860 03fa 09       		.byte	0x9
 861 03fb 34040000 		.4byte	0x434
 862 03ff 08       		.uleb128 0x8
 863 0400 A9020000 		.4byte	.LASF54
 864 0404 09       		.byte	0x9
 865 0405 6D       		.byte	0x6d
 866 0406 1A       		.byte	0x1a
 867 0407 F0030000 		.4byte	0x3f0
 868 040b 00       		.byte	0
 869 040c 08       		.uleb128 0x8
 870 040d 40020000 		.4byte	.LASF55
 871 0411 09       		.byte	0x9
 872 0412 6F       		.byte	0x6f
 873 0413 1A       		.byte	0x1a
 874 0414 F0030000 		.4byte	0x3f0
 875 0418 04       		.byte	0x4
 876 0419 08       		.uleb128 0x8
 877 041a E0040000 		.4byte	.LASF56
 878 041e 09       		.byte	0x9
 879 041f 71       		.byte	0x71
 880 0420 19       		.byte	0x19
 881 0421 46010000 		.4byte	0x146
 882 0425 08       		.byte	0x8
 883 0426 08       		.uleb128 0x8
 884 0427 D8080000 		.4byte	.LASF59
 885 042b 09       		.byte	0x9
 886 042c 72       		.byte	0x72
 887 042d 19       		.byte	0x19
 888 042e 52010000 		.4byte	0x152
 889 0432 0C       		.byte	0xc
 890 0433 00       		.byte	0
 891 0434 03       		.uleb128 0x3
 892 0435 0B090000 		.4byte	.LASF60
 893 0439 09       		.byte	0x9
 894 043a 73       		.byte	0x73
 895 043b 03       		.byte	0x3
 896 043c F6030000 		.4byte	0x3f6
ARM GAS  /var/folders/l5/0x54b2c10074c8bt31ycjvl80000gp/T//cc2tThBQ.s 			page 17


 897 0440 0F       		.uleb128 0xf
 898 0441 57000000 		.4byte	.LASF68
 899 0445 09       		.byte	0x9
 900 0446 D1       		.byte	0xd1
 901 0447 0F       		.byte	0xf
 902 0448 34040000 		.4byte	0x434
 903 044c 0A       		.uleb128 0xa
 904 044d 1C       		.byte	0x1c
 905 044e 0A       		.byte	0xa
 906 044f 57       		.byte	0x57
 907 0450 09       		.byte	0x9
 908 0451 A4040000 		.4byte	0x4a4
 909 0455 08       		.uleb128 0x8
 910 0456 41070000 		.4byte	.LASF61
 911 045a 0A       		.byte	0xa
 912 045b 58       		.byte	0x58
 913 045c 19       		.byte	0x19
 914 045d 92020000 		.4byte	0x292
 915 0461 00       		.byte	0
 916 0462 08       		.uleb128 0x8
 917 0463 AD060000 		.4byte	.LASF62
 918 0467 0A       		.byte	0xa
 919 0468 59       		.byte	0x59
 920 0469 19       		.byte	0x19
 921 046a 16010000 		.4byte	0x116
 922 046e 08       		.byte	0x8
 923 046f 08       		.uleb128 0x8
 924 0470 4E050000 		.4byte	.LASF63
 925 0474 0A       		.byte	0xa
 926 0475 5B       		.byte	0x5b
 927 0476 19       		.byte	0x19
 928 0477 57030000 		.4byte	0x357
 929 047b 0C       		.byte	0xc
 930 047c 08       		.uleb128 0x8
 931 047d 61030000 		.4byte	.LASF64
 932 0481 0A       		.byte	0xa
 933 0482 5E       		.byte	0x5e
 934 0483 1A       		.byte	0x1a
 935 0484 8C020000 		.4byte	0x28c
 936 0488 10       		.byte	0x10
 937 0489 08       		.uleb128 0x8
 938 048a BD050000 		.4byte	.LASF65
 939 048e 0A       		.byte	0xa
 940 048f 5F       		.byte	0x5f
 941 0490 1A       		.byte	0x1a
 942 0491 8C020000 		.4byte	0x28c
 943 0495 14       		.byte	0x14
 944 0496 08       		.uleb128 0x8
 945 0497 B3050000 		.4byte	.LASF66
 946 049b 0A       		.byte	0xa
 947 049c 62       		.byte	0x62
 948 049d 1A       		.byte	0x1a
 949 049e 8C020000 		.4byte	0x28c
 950 04a2 18       		.byte	0x18
 951 04a3 00       		.byte	0
 952 04a4 03       		.uleb128 0x3
 953 04a5 95080000 		.4byte	.LASF67
ARM GAS  /var/folders/l5/0x54b2c10074c8bt31ycjvl80000gp/T//cc2tThBQ.s 			page 18


 954 04a9 0A       		.byte	0xa
 955 04aa 64       		.byte	0x64
 956 04ab 03       		.byte	0x3
 957 04ac 4C040000 		.4byte	0x44c
 958 04b0 0F       		.uleb128 0xf
 959 04b1 A8080000 		.4byte	.LASF69
 960 04b5 0A       		.byte	0xa
 961 04b6 68       		.byte	0x68
 962 04b7 12       		.byte	0x12
 963 04b8 A4040000 		.4byte	0x4a4
 964 04bc 07       		.uleb128 0x7
 965 04bd 84040000 		.4byte	.LASF70
 966 04c1 10       		.byte	0x10
 967 04c2 0B       		.byte	0xb
 968 04c3 25       		.byte	0x25
 969 04c4 10       		.byte	0x10
 970 04c5 F1040000 		.4byte	0x4f1
 971 04c9 08       		.uleb128 0x8
 972 04ca 32010000 		.4byte	.LASF71
 973 04ce 0B       		.byte	0xb
 974 04cf 26       		.byte	0x26
 975 04d0 19       		.byte	0x19
 976 04d1 92020000 		.4byte	0x292
 977 04d5 00       		.byte	0
 978 04d6 08       		.uleb128 0x8
 979 04d7 23090000 		.4byte	.LASF72
 980 04db 0B       		.byte	0xb
 981 04dc 28       		.byte	0x28
 982 04dd 1A       		.byte	0x1a
 983 04de 8C020000 		.4byte	0x28c
 984 04e2 08       		.byte	0x8
 985 04e3 08       		.uleb128 0x8
 986 04e4 C5070000 		.4byte	.LASF73
 987 04e8 0B       		.byte	0xb
 988 04e9 2A       		.byte	0x2a
 989 04ea 1A       		.byte	0x1a
 990 04eb F1040000 		.4byte	0x4f1
 991 04ef 0C       		.byte	0xc
 992 04f0 00       		.byte	0
 993 04f1 0B       		.uleb128 0xb
 994 04f2 04       		.byte	0x4
 995 04f3 BC040000 		.4byte	0x4bc
 996 04f7 03       		.uleb128 0x3
 997 04f8 84040000 		.4byte	.LASF70
 998 04fc 0B       		.byte	0xb
 999 04fd 2C       		.byte	0x2c
 1000 04fe 03       		.byte	0x3
 1001 04ff BC040000 		.4byte	0x4bc
 1002 0503 03       		.uleb128 0x3
 1003 0504 BC080000 		.4byte	.LASF74
 1004 0508 0C       		.byte	0xc
 1005 0509 25       		.byte	0x25
 1006 050a 1E       		.byte	0x1e
 1007 050b 0F050000 		.4byte	0x50f
 1008 050f 07       		.uleb128 0x7
 1009 0510 BC080000 		.4byte	.LASF74
 1010 0514 10       		.byte	0x10
ARM GAS  /var/folders/l5/0x54b2c10074c8bt31ycjvl80000gp/T//cc2tThBQ.s 			page 19


 1011 0515 0C       		.byte	0xc
 1012 0516 2A       		.byte	0x2a
 1013 0517 08       		.byte	0x8
 1014 0518 51050000 		.4byte	0x551
 1015 051c 08       		.uleb128 0x8
 1016 051d 69030000 		.4byte	.LASF75
 1017 0521 0C       		.byte	0xc
 1018 0522 2B       		.byte	0x2b
 1019 0523 1A       		.byte	0x1a
 1020 0524 51050000 		.4byte	0x551
 1021 0528 00       		.byte	0
 1022 0529 08       		.uleb128 0x8
 1023 052a 66060000 		.4byte	.LASF76
 1024 052e 0C       		.byte	0xc
 1025 052f 2E       		.byte	0x2e
 1026 0530 1A       		.byte	0x1a
 1027 0531 8C020000 		.4byte	0x28c
 1028 0535 04       		.byte	0x4
 1029 0536 08       		.uleb128 0x8
 1030 0537 C5050000 		.4byte	.LASF77
 1031 053b 0C       		.byte	0xc
 1032 053c 30       		.byte	0x30
 1033 053d 19       		.byte	0x19
 1034 053e 2E010000 		.4byte	0x12e
 1035 0542 08       		.byte	0x8
 1036 0543 08       		.uleb128 0x8
 1037 0544 72060000 		.4byte	.LASF78
 1038 0548 0C       		.byte	0xc
 1039 0549 33       		.byte	0x33
 1040 054a 19       		.byte	0x19
 1041 054b 3A010000 		.4byte	0x13a
 1042 054f 0C       		.byte	0xc
 1043 0550 00       		.byte	0
 1044 0551 0B       		.uleb128 0xb
 1045 0552 04       		.byte	0x4
 1046 0553 03050000 		.4byte	0x503
 1047 0557 07       		.uleb128 0x7
 1048 0558 68020000 		.4byte	.LASF79
 1049 055c 04       		.byte	0x4
 1050 055d 0C       		.byte	0xc
 1051 055e 3A       		.byte	0x3a
 1052 055f 10       		.byte	0x10
 1053 0560 72050000 		.4byte	0x572
 1054 0564 08       		.uleb128 0x8
 1055 0565 E3080000 		.4byte	.LASF80
 1056 0569 0C       		.byte	0xc
 1057 056a 3B       		.byte	0x3b
 1058 056b 1A       		.byte	0x1a
 1059 056c 51050000 		.4byte	0x551
 1060 0570 00       		.byte	0
 1061 0571 00       		.byte	0
 1062 0572 03       		.uleb128 0x3
 1063 0573 68020000 		.4byte	.LASF79
 1064 0577 0C       		.byte	0xc
 1065 0578 3E       		.byte	0x3e
 1066 0579 03       		.byte	0x3
 1067 057a 57050000 		.4byte	0x557
ARM GAS  /var/folders/l5/0x54b2c10074c8bt31ycjvl80000gp/T//cc2tThBQ.s 			page 20


 1068 057e 10       		.uleb128 0x10
 1069 057f 04       		.byte	0x4
 1070 0580 07       		.byte	0x7
 1071 0581 8F       		.byte	0x8f
 1072 0582 03       		.byte	0x3
 1073 0583 B8050000 		.4byte	0x5b8
 1074 0587 11       		.uleb128 0x11
 1075 0588 29000000 		.4byte	.LASF81
 1076 058c 07       		.byte	0x7
 1077 058d 96       		.byte	0x96
 1078 058e 19       		.byte	0x19
 1079 058f 22010000 		.4byte	0x122
 1080 0593 11       		.uleb128 0x11
 1081 0594 9B000000 		.4byte	.LASF82
 1082 0598 07       		.byte	0x7
 1083 0599 9D       		.byte	0x9d
 1084 059a 19       		.byte	0x19
 1085 059b 22010000 		.4byte	0x122
 1086 059f 11       		.uleb128 0x11
 1087 05a0 CA080000 		.4byte	.LASF83
 1088 05a4 07       		.byte	0x7
 1089 05a5 A4       		.byte	0xa4
 1090 05a6 1A       		.byte	0x1a
 1091 05a7 D9020000 		.4byte	0x2d9
 1092 05ab 11       		.uleb128 0x11
 1093 05ac BD060000 		.4byte	.LASF84
 1094 05b0 07       		.byte	0x7
 1095 05b1 AB       		.byte	0xab
 1096 05b2 19       		.byte	0x19
 1097 05b3 2E010000 		.4byte	0x12e
 1098 05b7 00       		.byte	0
 1099 05b8 0B       		.uleb128 0xb
 1100 05b9 04       		.byte	0x4
 1101 05ba C5050000 		.4byte	0x5c5
 1102 05be 04       		.uleb128 0x4
 1103 05bf 01       		.byte	0x1
 1104 05c0 08       		.byte	0x8
 1105 05c1 76070000 		.4byte	.LASF85
 1106 05c5 06       		.uleb128 0x6
 1107 05c6 BE050000 		.4byte	0x5be
 1108 05ca 0B       		.uleb128 0xb
 1109 05cb 04       		.byte	0x4
 1110 05cc F7040000 		.4byte	0x4f7
 1111 05d0 0B       		.uleb128 0xb
 1112 05d1 04       		.byte	0x4
 1113 05d2 D6050000 		.4byte	0x5d6
 1114 05d6 12       		.uleb128 0x12
 1115 05d7 22010000 		.4byte	0x122
 1116 05db E5050000 		.4byte	0x5e5
 1117 05df 0E       		.uleb128 0xe
 1118 05e0 D9020000 		.4byte	0x2d9
 1119 05e4 00       		.byte	0
 1120 05e5 0A       		.uleb128 0xa
 1121 05e6 16       		.byte	0x16
 1122 05e7 0D       		.byte	0xd
 1123 05e8 25       		.byte	0x25
 1124 05e9 09       		.byte	0x9
ARM GAS  /var/folders/l5/0x54b2c10074c8bt31ycjvl80000gp/T//cc2tThBQ.s 			page 21


 1125 05ea D9060000 		.4byte	0x6d9
 1126 05ee 08       		.uleb128 0x8
 1127 05ef FE020000 		.4byte	.LASF86
 1128 05f3 0D       		.byte	0xd
 1129 05f4 26       		.byte	0x26
 1130 05f5 0D       		.byte	0xd
 1131 05f6 D9060000 		.4byte	0x6d9
 1132 05fa 00       		.byte	0
 1133 05fb 08       		.uleb128 0x8
 1134 05fc C1040000 		.4byte	.LASF87
 1135 0600 0D       		.byte	0xd
 1136 0601 27       		.byte	0x27
 1137 0602 0D       		.byte	0xd
 1138 0603 AC000000 		.4byte	0xac
 1139 0607 04       		.byte	0x4
 1140 0608 08       		.uleb128 0x8
 1141 0609 A3050000 		.4byte	.LASF88
 1142 060d 0D       		.byte	0xd
 1143 060e 28       		.byte	0x28
 1144 060f 0D       		.byte	0xd
 1145 0610 AC000000 		.4byte	0xac
 1146 0614 05       		.byte	0x5
 1147 0615 08       		.uleb128 0x8
 1148 0616 F5080000 		.4byte	.LASF89
 1149 061a 0D       		.byte	0xd
 1150 061b 29       		.byte	0x29
 1151 061c 0D       		.byte	0xd
 1152 061d BD000000 		.4byte	0xbd
 1153 0621 06       		.byte	0x6
 1154 0622 08       		.uleb128 0x8
 1155 0623 13060000 		.4byte	.LASF90
 1156 0627 0D       		.byte	0xd
 1157 0628 2A       		.byte	0x2a
 1158 0629 0D       		.byte	0xd
 1159 062a AC000000 		.4byte	0xac
 1160 062e 08       		.byte	0x8
 1161 062f 08       		.uleb128 0x8
 1162 0630 10050000 		.4byte	.LASF91
 1163 0634 0D       		.byte	0xd
 1164 0635 2B       		.byte	0x2b
 1165 0636 0D       		.byte	0xd
 1166 0637 AC000000 		.4byte	0xac
 1167 063b 09       		.byte	0x9
 1168 063c 08       		.uleb128 0x8
 1169 063d 8D000000 		.4byte	.LASF92
 1170 0641 0D       		.byte	0xd
 1171 0642 2C       		.byte	0x2c
 1172 0643 0D       		.byte	0xd
 1173 0644 AC000000 		.4byte	0xac
 1174 0648 0A       		.byte	0xa
 1175 0649 08       		.uleb128 0x8
 1176 064a 35070000 		.4byte	.LASF93
 1177 064e 0D       		.byte	0xd
 1178 064f 2D       		.byte	0x2d
 1179 0650 0D       		.byte	0xd
 1180 0651 AC000000 		.4byte	0xac
 1181 0655 0B       		.byte	0xb
ARM GAS  /var/folders/l5/0x54b2c10074c8bt31ycjvl80000gp/T//cc2tThBQ.s 			page 22


 1182 0656 08       		.uleb128 0x8
 1183 0657 7C080000 		.4byte	.LASF94
 1184 065b 0D       		.byte	0xd
 1185 065c 2E       		.byte	0x2e
 1186 065d 0D       		.byte	0xd
 1187 065e AC000000 		.4byte	0xac
 1188 0662 0C       		.byte	0xc
 1189 0663 08       		.uleb128 0x8
 1190 0664 FF060000 		.4byte	.LASF95
 1191 0668 0D       		.byte	0xd
 1192 0669 2F       		.byte	0x2f
 1193 066a 0D       		.byte	0xd
 1194 066b AC000000 		.4byte	0xac
 1195 066f 0D       		.byte	0xd
 1196 0670 08       		.uleb128 0x8
 1197 0671 0F000000 		.4byte	.LASF96
 1198 0675 0D       		.byte	0xd
 1199 0676 30       		.byte	0x30
 1200 0677 0D       		.byte	0xd
 1201 0678 AC000000 		.4byte	0xac
 1202 067c 0E       		.byte	0xe
 1203 067d 08       		.uleb128 0x8
 1204 067e 2A050000 		.4byte	.LASF97
 1205 0682 0D       		.byte	0xd
 1206 0683 31       		.byte	0x31
 1207 0684 0D       		.byte	0xd
 1208 0685 AC000000 		.4byte	0xac
 1209 0689 0F       		.byte	0xf
 1210 068a 08       		.uleb128 0x8
 1211 068b 04010000 		.4byte	.LASF98
 1212 068f 0D       		.byte	0xd
 1213 0690 32       		.byte	0x32
 1214 0691 0D       		.byte	0xd
 1215 0692 AC000000 		.4byte	0xac
 1216 0696 10       		.byte	0x10
 1217 0697 08       		.uleb128 0x8
 1218 0698 C6000000 		.4byte	.LASF99
 1219 069c 0D       		.byte	0xd
 1220 069d 34       		.byte	0x34
 1221 069e 0D       		.byte	0xd
 1222 069f AC000000 		.4byte	0xac
 1223 06a3 11       		.byte	0x11
 1224 06a4 08       		.uleb128 0x8
 1225 06a5 1D010000 		.4byte	.LASF100
 1226 06a9 0D       		.byte	0xd
 1227 06aa 35       		.byte	0x35
 1228 06ab 0D       		.byte	0xd
 1229 06ac AC000000 		.4byte	0xac
 1230 06b0 12       		.byte	0x12
 1231 06b1 08       		.uleb128 0x8
 1232 06b2 C9040000 		.4byte	.LASF101
 1233 06b6 0D       		.byte	0xd
 1234 06b7 36       		.byte	0x36
 1235 06b8 0D       		.byte	0xd
 1236 06b9 AC000000 		.4byte	0xac
 1237 06bd 13       		.byte	0x13
 1238 06be 08       		.uleb128 0x8
ARM GAS  /var/folders/l5/0x54b2c10074c8bt31ycjvl80000gp/T//cc2tThBQ.s 			page 23


 1239 06bf D3060000 		.4byte	.LASF102
 1240 06c3 0D       		.byte	0xd
 1241 06c4 37       		.byte	0x37
 1242 06c5 0D       		.byte	0xd
 1243 06c6 AC000000 		.4byte	0xac
 1244 06ca 14       		.byte	0x14
 1245 06cb 08       		.uleb128 0x8
 1246 06cc A1060000 		.4byte	.LASF103
 1247 06d0 0D       		.byte	0xd
 1248 06d1 39       		.byte	0x39
 1249 06d2 0D       		.byte	0xd
 1250 06d3 AC000000 		.4byte	0xac
 1251 06d7 15       		.byte	0x15
 1252 06d8 00       		.byte	0
 1253 06d9 13       		.uleb128 0x13
 1254 06da BE050000 		.4byte	0x5be
 1255 06de E9060000 		.4byte	0x6e9
 1256 06e2 14       		.uleb128 0x14
 1257 06e3 38000000 		.4byte	0x38
 1258 06e7 03       		.byte	0x3
 1259 06e8 00       		.byte	0
 1260 06e9 03       		.uleb128 0x3
 1261 06ea A4010000 		.4byte	.LASF104
 1262 06ee 0D       		.byte	0xd
 1263 06ef 3A       		.byte	0x3a
 1264 06f0 03       		.byte	0x3
 1265 06f1 E5050000 		.4byte	0x5e5
 1266 06f5 06       		.uleb128 0x6
 1267 06f6 E9060000 		.4byte	0x6e9
 1268 06fa 0F       		.uleb128 0xf
 1269 06fb E7020000 		.4byte	.LASF105
 1270 06ff 0D       		.byte	0xd
 1271 0700 77       		.byte	0x77
 1272 0701 1D       		.byte	0x1d
 1273 0702 F5060000 		.4byte	0x6f5
 1274 0706 03       		.uleb128 0x3
 1275 0707 97040000 		.4byte	.LASF106
 1276 070b 0E       		.byte	0xe
 1277 070c 30       		.byte	0x30
 1278 070d 1D       		.byte	0x1d
 1279 070e 12070000 		.4byte	0x712
 1280 0712 07       		.uleb128 0x7
 1281 0713 97040000 		.4byte	.LASF106
 1282 0717 24       		.byte	0x24
 1283 0718 0E       		.byte	0xe
 1284 0719 3E       		.byte	0x3e
 1285 071a 08       		.byte	0x8
 1286 071b 88070000 		.4byte	0x788
 1287 071f 08       		.uleb128 0x8
 1288 0720 E0000000 		.4byte	.LASF107
 1289 0724 0E       		.byte	0xe
 1290 0725 3F       		.byte	0x3f
 1291 0726 19       		.byte	0x19
 1292 0727 92020000 		.4byte	0x292
 1293 072b 00       		.byte	0
 1294 072c 08       		.uleb128 0x8
 1295 072d FE040000 		.4byte	.LASF108
ARM GAS  /var/folders/l5/0x54b2c10074c8bt31ycjvl80000gp/T//cc2tThBQ.s 			page 24


 1296 0731 0E       		.byte	0xe
 1297 0732 40       		.byte	0x40
 1298 0733 19       		.byte	0x19
 1299 0734 2C000000 		.4byte	0x2c
 1300 0738 08       		.byte	0x8
 1301 0739 08       		.uleb128 0x8
 1302 073a 8D010000 		.4byte	.LASF109
 1303 073e 0E       		.byte	0xe
 1304 073f 41       		.byte	0x41
 1305 0740 1A       		.byte	0x1a
 1306 0741 AB070000 		.4byte	0x7ab
 1307 0745 0C       		.byte	0xc
 1308 0746 08       		.uleb128 0x8
 1309 0747 70000000 		.4byte	.LASF110
 1310 074b 0E       		.byte	0xe
 1311 074c 42       		.byte	0x42
 1312 074d 1A       		.byte	0x1a
 1313 074e AB070000 		.4byte	0x7ab
 1314 0752 10       		.byte	0x10
 1315 0753 08       		.uleb128 0x8
 1316 0754 46050000 		.4byte	.LASF111
 1317 0758 0E       		.byte	0xe
 1318 0759 44       		.byte	0x44
 1319 075a 1A       		.byte	0x1a
 1320 075b AB070000 		.4byte	0x7ab
 1321 075f 14       		.byte	0x14
 1322 0760 08       		.uleb128 0x8
 1323 0761 37060000 		.4byte	.LASF112
 1324 0765 0E       		.byte	0xe
 1325 0766 45       		.byte	0x45
 1326 0767 1A       		.byte	0x1a
 1327 0768 AB070000 		.4byte	0x7ab
 1328 076c 18       		.byte	0x18
 1329 076d 08       		.uleb128 0x8
 1330 076e 9F080000 		.4byte	.LASF113
 1331 0772 0E       		.byte	0xe
 1332 0773 46       		.byte	0x46
 1333 0774 19       		.byte	0x19
 1334 0775 88070000 		.4byte	0x788
 1335 0779 1C       		.byte	0x1c
 1336 077a 08       		.uleb128 0x8
 1337 077b 12090000 		.4byte	.LASF114
 1338 077f 0E       		.byte	0xe
 1339 0780 47       		.byte	0x47
 1340 0781 1A       		.byte	0x1a
 1341 0782 D9020000 		.4byte	0x2d9
 1342 0786 20       		.byte	0x20
 1343 0787 00       		.byte	0
 1344 0788 03       		.uleb128 0x3
 1345 0789 1E060000 		.4byte	.LASF115
 1346 078d 0E       		.byte	0xe
 1347 078e 33       		.byte	0x33
 1348 078f 10       		.byte	0x10
 1349 0790 94070000 		.4byte	0x794
 1350 0794 0B       		.uleb128 0xb
 1351 0795 04       		.byte	0x4
 1352 0796 9A070000 		.4byte	0x79a
ARM GAS  /var/folders/l5/0x54b2c10074c8bt31ycjvl80000gp/T//cc2tThBQ.s 			page 25


 1353 079a 0D       		.uleb128 0xd
 1354 079b A5070000 		.4byte	0x7a5
 1355 079f 0E       		.uleb128 0xe
 1356 07a0 A5070000 		.4byte	0x7a5
 1357 07a4 00       		.byte	0
 1358 07a5 0B       		.uleb128 0xb
 1359 07a6 04       		.byte	0x4
 1360 07a7 06070000 		.4byte	0x706
 1361 07ab 0B       		.uleb128 0xb
 1362 07ac 04       		.byte	0x4
 1363 07ad AC000000 		.4byte	0xac
 1364 07b1 03       		.uleb128 0x3
 1365 07b2 79040000 		.4byte	.LASF116
 1366 07b6 0E       		.byte	0xe
 1367 07b7 7B       		.byte	0x7b
 1368 07b8 16       		.byte	0x16
 1369 07b9 06070000 		.4byte	0x706
 1370 07bd 03       		.uleb128 0x3
 1371 07be 36000000 		.4byte	.LASF117
 1372 07c2 0E       		.byte	0xe
 1373 07c3 EE       		.byte	0xee
 1374 07c4 16       		.byte	0x16
 1375 07c5 06070000 		.4byte	0x706
 1376 07c9 07       		.uleb128 0x7
 1377 07ca A2070000 		.4byte	.LASF118
 1378 07ce 10       		.byte	0x10
 1379 07cf 0F       		.byte	0xf
 1380 07d0 41       		.byte	0x41
 1381 07d1 08       		.byte	0x8
 1382 07d2 0B080000 		.4byte	0x80b
 1383 07d6 08       		.uleb128 0x8
 1384 07d7 30000000 		.4byte	.LASF119
 1385 07db 0F       		.byte	0xf
 1386 07dc 42       		.byte	0x42
 1387 07dd 03       		.byte	0x3
 1388 07de 2F080000 		.4byte	0x82f
 1389 07e2 00       		.byte	0
 1390 07e3 08       		.uleb128 0x8
 1391 07e4 71070000 		.4byte	.LASF120
 1392 07e8 0F       		.byte	0xf
 1393 07e9 42       		.byte	0x42
 1394 07ea 03       		.byte	0x3
 1395 07eb 4E080000 		.4byte	0x84e
 1396 07ef 04       		.byte	0x4
 1397 07f0 09       		.uleb128 0x9
 1398 07f1 70757400 		.ascii	"put\000"
 1399 07f5 0F       		.byte	0xf
 1400 07f6 42       		.byte	0x42
 1401 07f7 03       		.byte	0x3
 1402 07f8 68080000 		.4byte	0x868
 1403 07fc 08       		.byte	0x8
 1404 07fd 09       		.uleb128 0x9
 1405 07fe 67657400 		.ascii	"get\000"
 1406 0802 0F       		.byte	0xf
 1407 0803 42       		.byte	0x42
 1408 0804 03       		.byte	0x3
 1409 0805 D0050000 		.4byte	0x5d0
ARM GAS  /var/folders/l5/0x54b2c10074c8bt31ycjvl80000gp/T//cc2tThBQ.s 			page 26


 1410 0809 0C       		.byte	0xc
 1411 080a 00       		.byte	0
 1412 080b 06       		.uleb128 0x6
 1413 080c C9070000 		.4byte	0x7c9
 1414 0810 12       		.uleb128 0x12
 1415 0811 2C000000 		.4byte	0x2c
 1416 0815 29080000 		.4byte	0x829
 1417 0819 0E       		.uleb128 0xe
 1418 081a D9020000 		.4byte	0x2d9
 1419 081e 0E       		.uleb128 0xe
 1420 081f 29080000 		.4byte	0x829
 1421 0823 0E       		.uleb128 0xe
 1422 0824 2C000000 		.4byte	0x2c
 1423 0828 00       		.byte	0
 1424 0829 0B       		.uleb128 0xb
 1425 082a 04       		.byte	0x4
 1426 082b B8000000 		.4byte	0xb8
 1427 082f 0B       		.uleb128 0xb
 1428 0830 04       		.byte	0x4
 1429 0831 10080000 		.4byte	0x810
 1430 0835 12       		.uleb128 0x12
 1431 0836 2C000000 		.4byte	0x2c
 1432 083a 4E080000 		.4byte	0x84e
 1433 083e 0E       		.uleb128 0xe
 1434 083f D9020000 		.4byte	0x2d9
 1435 0843 0E       		.uleb128 0xe
 1436 0844 AB070000 		.4byte	0x7ab
 1437 0848 0E       		.uleb128 0xe
 1438 0849 2C000000 		.4byte	0x2c
 1439 084d 00       		.byte	0
 1440 084e 0B       		.uleb128 0xb
 1441 084f 04       		.byte	0x4
 1442 0850 35080000 		.4byte	0x835
 1443 0854 12       		.uleb128 0x12
 1444 0855 22010000 		.4byte	0x122
 1445 0859 68080000 		.4byte	0x868
 1446 085d 0E       		.uleb128 0xe
 1447 085e D9020000 		.4byte	0x2d9
 1448 0862 0E       		.uleb128 0xe
 1449 0863 AC000000 		.4byte	0xac
 1450 0867 00       		.byte	0
 1451 0868 0B       		.uleb128 0xb
 1452 0869 04       		.byte	0x4
 1453 086a 54080000 		.4byte	0x854
 1454 086e 0A       		.uleb128 0xa
 1455 086f 04       		.byte	0x4
 1456 0870 0F       		.byte	0xf
 1457 0871 4A       		.byte	0x4a
 1458 0872 09       		.byte	0x9
 1459 0873 85080000 		.4byte	0x885
 1460 0877 09       		.uleb128 0x9
 1461 0878 766D7400 		.ascii	"vmt\000"
 1462 087c 0F       		.byte	0xf
 1463 087d 4C       		.byte	0x4c
 1464 087e 29       		.byte	0x29
 1465 087f 85080000 		.4byte	0x885
 1466 0883 00       		.byte	0
ARM GAS  /var/folders/l5/0x54b2c10074c8bt31ycjvl80000gp/T//cc2tThBQ.s 			page 27


 1467 0884 00       		.byte	0
 1468 0885 0B       		.uleb128 0xb
 1469 0886 04       		.byte	0x4
 1470 0887 0B080000 		.4byte	0x80b
 1471 088b 03       		.uleb128 0x3
 1472 088c 74020000 		.4byte	.LASF121
 1473 0890 0F       		.byte	0xf
 1474 0891 4E       		.byte	0x4e
 1475 0892 03       		.byte	0x3
 1476 0893 6E080000 		.4byte	0x86e
 1477 0897 13       		.uleb128 0x13
 1478 0898 C1020000 		.4byte	0x2c1
 1479 089c A7080000 		.4byte	0x8a7
 1480 08a0 14       		.uleb128 0x14
 1481 08a1 38000000 		.4byte	0x38
 1482 08a5 26       		.byte	0x26
 1483 08a6 00       		.byte	0
 1484 08a7 0F       		.uleb128 0xf
 1485 08a8 D0010000 		.4byte	.LASF122
 1486 08ac 10       		.byte	0x10
 1487 08ad 82       		.byte	0x82
 1488 08ae 08       		.byte	0x8
 1489 08af 97080000 		.4byte	0x897
 1490 08b3 07       		.uleb128 0x7
 1491 08b4 5E000000 		.4byte	.LASF123
 1492 08b8 20       		.byte	0x20
 1493 08b9 11       		.byte	0x11
 1494 08ba FD       		.byte	0xfd
 1495 08bb 08       		.byte	0x8
 1496 08bc 2F090000 		.4byte	0x92f
 1497 08c0 08       		.uleb128 0x8
 1498 08c1 24020000 		.4byte	.LASF124
 1499 08c5 11       		.byte	0x11
 1500 08c6 FE       		.byte	0xfe
 1501 08c7 19       		.byte	0x19
 1502 08c8 3F000000 		.4byte	0x3f
 1503 08cc 00       		.byte	0
 1504 08cd 08       		.uleb128 0x8
 1505 08ce 8E080000 		.4byte	.LASF125
 1506 08d2 11       		.byte	0x11
 1507 08d3 FF       		.byte	0xff
 1508 08d4 19       		.byte	0x19
 1509 08d5 3F000000 		.4byte	0x3f
 1510 08d9 04       		.byte	0x4
 1511 08da 15       		.uleb128 0x15
 1512 08db 00090000 		.4byte	.LASF126
 1513 08df 11       		.byte	0x11
 1514 08e0 0001     		.2byte	0x100
 1515 08e2 19       		.byte	0x19
 1516 08e3 3F000000 		.4byte	0x3f
 1517 08e7 08       		.byte	0x8
 1518 08e8 15       		.uleb128 0x15
 1519 08e9 48020000 		.4byte	.LASF127
 1520 08ed 11       		.byte	0x11
 1521 08ee 0101     		.2byte	0x101
 1522 08f0 19       		.byte	0x19
 1523 08f1 3F000000 		.4byte	0x3f
ARM GAS  /var/folders/l5/0x54b2c10074c8bt31ycjvl80000gp/T//cc2tThBQ.s 			page 28


 1524 08f5 0C       		.byte	0xc
 1525 08f6 15       		.uleb128 0x15
 1526 08f7 AE000000 		.4byte	.LASF128
 1527 08fb 11       		.byte	0x11
 1528 08fc 0201     		.2byte	0x102
 1529 08fe 19       		.byte	0x19
 1530 08ff 3F000000 		.4byte	0x3f
 1531 0903 10       		.byte	0x10
 1532 0904 15       		.uleb128 0x15
 1533 0905 F1040000 		.4byte	.LASF129
 1534 0909 11       		.byte	0x11
 1535 090a 0301     		.2byte	0x103
 1536 090c 19       		.byte	0x19
 1537 090d 3F000000 		.4byte	0x3f
 1538 0911 14       		.byte	0x14
 1539 0912 15       		.uleb128 0x15
 1540 0913 7D010000 		.4byte	.LASF130
 1541 0917 11       		.byte	0x11
 1542 0918 0401     		.2byte	0x104
 1543 091a 19       		.byte	0x19
 1544 091b 3F000000 		.4byte	0x3f
 1545 091f 18       		.byte	0x18
 1546 0920 15       		.uleb128 0x15
 1547 0921 56090000 		.4byte	.LASF131
 1548 0925 11       		.byte	0x11
 1549 0926 0501     		.2byte	0x105
 1550 0928 19       		.byte	0x19
 1551 0929 3F000000 		.4byte	0x3f
 1552 092d 1C       		.byte	0x1c
 1553 092e 00       		.byte	0
 1554 092f 16       		.uleb128 0x16
 1555 0930 5E000000 		.4byte	.LASF123
 1556 0934 11       		.byte	0x11
 1557 0935 0801     		.2byte	0x108
 1558 0937 1C       		.byte	0x1c
 1559 0938 B3080000 		.4byte	0x8b3
 1560 093c 12       		.uleb128 0x12
 1561 093d 22010000 		.4byte	0x122
 1562 0941 55090000 		.4byte	0x955
 1563 0945 0E       		.uleb128 0xe
 1564 0946 D9020000 		.4byte	0x2d9
 1565 094a 0E       		.uleb128 0xe
 1566 094b AC000000 		.4byte	0xac
 1567 094f 0E       		.uleb128 0xe
 1568 0950 46010000 		.4byte	0x146
 1569 0954 00       		.byte	0
 1570 0955 0B       		.uleb128 0xb
 1571 0956 04       		.byte	0x4
 1572 0957 3C090000 		.4byte	0x93c
 1573 095b 12       		.uleb128 0x12
 1574 095c 22010000 		.4byte	0x122
 1575 0960 6F090000 		.4byte	0x96f
 1576 0964 0E       		.uleb128 0xe
 1577 0965 D9020000 		.4byte	0x2d9
 1578 0969 0E       		.uleb128 0xe
 1579 096a 46010000 		.4byte	0x146
 1580 096e 00       		.byte	0
ARM GAS  /var/folders/l5/0x54b2c10074c8bt31ycjvl80000gp/T//cc2tThBQ.s 			page 29


 1581 096f 0B       		.uleb128 0xb
 1582 0970 04       		.byte	0x4
 1583 0971 5B090000 		.4byte	0x95b
 1584 0975 12       		.uleb128 0x12
 1585 0976 2C000000 		.4byte	0x2c
 1586 097a 93090000 		.4byte	0x993
 1587 097e 0E       		.uleb128 0xe
 1588 097f D9020000 		.4byte	0x2d9
 1589 0983 0E       		.uleb128 0xe
 1590 0984 29080000 		.4byte	0x829
 1591 0988 0E       		.uleb128 0xe
 1592 0989 2C000000 		.4byte	0x2c
 1593 098d 0E       		.uleb128 0xe
 1594 098e 46010000 		.4byte	0x146
 1595 0992 00       		.byte	0
 1596 0993 0B       		.uleb128 0xb
 1597 0994 04       		.byte	0x4
 1598 0995 75090000 		.4byte	0x975
 1599 0999 12       		.uleb128 0x12
 1600 099a 2C000000 		.4byte	0x2c
 1601 099e B7090000 		.4byte	0x9b7
 1602 09a2 0E       		.uleb128 0xe
 1603 09a3 D9020000 		.4byte	0x2d9
 1604 09a7 0E       		.uleb128 0xe
 1605 09a8 AB070000 		.4byte	0x7ab
 1606 09ac 0E       		.uleb128 0xe
 1607 09ad 2C000000 		.4byte	0x2c
 1608 09b1 0E       		.uleb128 0xe
 1609 09b2 46010000 		.4byte	0x146
 1610 09b6 00       		.byte	0
 1611 09b7 0B       		.uleb128 0xb
 1612 09b8 04       		.byte	0x4
 1613 09b9 99090000 		.4byte	0x999
 1614 09bd 0A       		.uleb128 0xa
 1615 09be 18       		.byte	0x18
 1616 09bf 12       		.byte	0x12
 1617 09c0 2A       		.byte	0x2a
 1618 09c1 09       		.byte	0x9
 1619 09c2 150A0000 		.4byte	0xa15
 1620 09c6 08       		.uleb128 0x8
 1621 09c7 B6080000 		.4byte	.LASF132
 1622 09cb 12       		.byte	0x12
 1623 09cc 2F       		.byte	0x2f
 1624 09cd 15       		.byte	0x15
 1625 09ce D5000000 		.4byte	0xd5
 1626 09d2 00       		.byte	0
 1627 09d3 08       		.uleb128 0x8
 1628 09d4 D8050000 		.4byte	.LASF133
 1629 09d8 12       		.byte	0x12
 1630 09d9 31       		.byte	0x31
 1631 09da 16       		.byte	0x16
 1632 09db 150A0000 		.4byte	0xa15
 1633 09df 04       		.byte	0x4
 1634 09e0 08       		.uleb128 0x8
 1635 09e1 4E030000 		.4byte	.LASF134
 1636 09e5 12       		.byte	0x12
 1637 09e6 32       		.byte	0x32
ARM GAS  /var/folders/l5/0x54b2c10074c8bt31ycjvl80000gp/T//cc2tThBQ.s 			page 30


 1638 09e7 16       		.byte	0x16
 1639 09e8 150A0000 		.4byte	0xa15
 1640 09ec 08       		.byte	0x8
 1641 09ed 08       		.uleb128 0x8
 1642 09ee D5040000 		.4byte	.LASF135
 1643 09f2 12       		.byte	0x12
 1644 09f3 33       		.byte	0x33
 1645 09f4 16       		.byte	0x16
 1646 09f5 150A0000 		.4byte	0xa15
 1647 09f9 0C       		.byte	0xc
 1648 09fa 08       		.uleb128 0x8
 1649 09fb DE050000 		.4byte	.LASF136
 1650 09ff 12       		.byte	0x12
 1651 0a00 34       		.byte	0x34
 1652 0a01 16       		.byte	0x16
 1653 0a02 150A0000 		.4byte	0xa15
 1654 0a06 10       		.byte	0x10
 1655 0a07 08       		.uleb128 0x8
 1656 0a08 B4060000 		.4byte	.LASF137
 1657 0a0c 12       		.byte	0x12
 1658 0a0d 35       		.byte	0x35
 1659 0a0e 10       		.byte	0x10
 1660 0a0f 38000000 		.4byte	0x38
 1661 0a13 14       		.byte	0x14
 1662 0a14 00       		.byte	0
 1663 0a15 0B       		.uleb128 0xb
 1664 0a16 04       		.byte	0x4
 1665 0a17 E1000000 		.4byte	0xe1
 1666 0a1b 03       		.uleb128 0x3
 1667 0a1c 42030000 		.4byte	.LASF138
 1668 0a20 12       		.byte	0x12
 1669 0a21 37       		.byte	0x37
 1670 0a22 03       		.byte	0x3
 1671 0a23 BD090000 		.4byte	0x9bd
 1672 0a27 17       		.uleb128 0x17
 1673 0a28 00       		.byte	0
 1674 0a29 12       		.byte	0x12
 1675 0a2a 43       		.byte	0x43
 1676 0a2b 09       		.byte	0x9
 1677 0a2c 03       		.uleb128 0x3
 1678 0a2d 19090000 		.4byte	.LASF139
 1679 0a31 12       		.byte	0x12
 1680 0a32 45       		.byte	0x45
 1681 0a33 03       		.byte	0x3
 1682 0a34 270A0000 		.4byte	0xa27
 1683 0a38 06       		.uleb128 0x6
 1684 0a39 2C0A0000 		.4byte	0xa2c
 1685 0a3d 0F       		.uleb128 0xf
 1686 0a3e AB050000 		.4byte	.LASF140
 1687 0a42 12       		.byte	0x12
 1688 0a43 6D       		.byte	0x6d
 1689 0a44 14       		.byte	0x14
 1690 0a45 1B0A0000 		.4byte	0xa1b
 1691 0a49 0F       		.uleb128 0xf
 1692 0a4a CB060000 		.4byte	.LASF141
 1693 0a4e 12       		.byte	0x12
 1694 0a4f 6E       		.byte	0x6e
ARM GAS  /var/folders/l5/0x54b2c10074c8bt31ycjvl80000gp/T//cc2tThBQ.s 			page 31


 1695 0a50 14       		.byte	0x14
 1696 0a51 1B0A0000 		.4byte	0xa1b
 1697 0a55 0F       		.uleb128 0xf
 1698 0a56 2B090000 		.4byte	.LASF142
 1699 0a5a 12       		.byte	0x12
 1700 0a5b 75       		.byte	0x75
 1701 0a5c 18       		.byte	0x18
 1702 0a5d 380A0000 		.4byte	0xa38
 1703 0a61 18       		.uleb128 0x18
 1704 0a62 07       		.byte	0x7
 1705 0a63 01       		.byte	0x1
 1706 0a64 57000000 		.4byte	0x57
 1707 0a68 13       		.byte	0x13
 1708 0a69 54       		.byte	0x54
 1709 0a6a 0E       		.byte	0xe
 1710 0a6b 940A0000 		.4byte	0xa94
 1711 0a6f 19       		.uleb128 0x19
 1712 0a70 49010000 		.4byte	.LASF143
 1713 0a74 00       		.byte	0
 1714 0a75 19       		.uleb128 0x19
 1715 0a76 E8040000 		.4byte	.LASF144
 1716 0a7a 01       		.byte	0x1
 1717 0a7b 19       		.uleb128 0x19
 1718 0a7c EB070000 		.4byte	.LASF145
 1719 0a80 02       		.byte	0x2
 1720 0a81 19       		.uleb128 0x19
 1721 0a82 AE010000 		.4byte	.LASF146
 1722 0a86 03       		.byte	0x3
 1723 0a87 19       		.uleb128 0x19
 1724 0a88 63070000 		.4byte	.LASF147
 1725 0a8c 04       		.byte	0x4
 1726 0a8d 19       		.uleb128 0x19
 1727 0a8e 0C070000 		.4byte	.LASF148
 1728 0a92 05       		.byte	0x5
 1729 0a93 00       		.byte	0
 1730 0a94 03       		.uleb128 0x3
 1731 0a95 08060000 		.4byte	.LASF149
 1732 0a99 13       		.byte	0x13
 1733 0a9a 5B       		.byte	0x5b
 1734 0a9b 03       		.byte	0x3
 1735 0a9c 610A0000 		.4byte	0xa61
 1736 0aa0 03       		.uleb128 0x3
 1737 0aa1 F5070000 		.4byte	.LASF150
 1738 0aa5 14       		.byte	0x14
 1739 0aa6 38       		.byte	0x38
 1740 0aa7 1A       		.byte	0x1a
 1741 0aa8 AC0A0000 		.4byte	0xaac
 1742 0aac 07       		.uleb128 0x7
 1743 0aad F5070000 		.4byte	.LASF150
 1744 0ab1 40       		.byte	0x40
 1745 0ab2 14       		.byte	0x14
 1746 0ab3 62       		.byte	0x62
 1747 0ab4 08       		.byte	0x8
 1748 0ab5 630B0000 		.4byte	0xb63
 1749 0ab9 08       		.uleb128 0x8
 1750 0aba 5E010000 		.4byte	.LASF151
 1751 0abe 14       		.byte	0x14
ARM GAS  /var/folders/l5/0x54b2c10074c8bt31ycjvl80000gp/T//cc2tThBQ.s 			page 32


 1752 0abf 64       		.byte	0x64
 1753 0ac0 1D       		.byte	0x1d
 1754 0ac1 940A0000 		.4byte	0xa94
 1755 0ac5 00       		.byte	0
 1756 0ac6 08       		.uleb128 0x8
 1757 0ac7 88070000 		.4byte	.LASF152
 1758 0acb 14       		.byte	0x14
 1759 0acc 66       		.byte	0x66
 1760 0acd 1E       		.byte	0x1e
 1761 0ace A30B0000 		.4byte	0xba3
 1762 0ad2 04       		.byte	0x4
 1763 0ad3 08       		.uleb128 0x8
 1764 0ad4 C7020000 		.4byte	.LASF153
 1765 0ad8 14       		.byte	0x14
 1766 0ad9 68       		.byte	0x68
 1767 0ada 1D       		.byte	0x1d
 1768 0adb 630B0000 		.4byte	0xb63
 1769 0adf 08       		.byte	0x8
 1770 0ae0 08       		.uleb128 0x8
 1771 0ae1 D9000000 		.4byte	.LASF154
 1772 0ae5 14       		.byte	0x14
 1773 0ae6 6A       		.byte	0x6a
 1774 0ae7 1E       		.byte	0x1e
 1775 0ae8 A90B0000 		.4byte	0xba9
 1776 0aec 0C       		.byte	0xc
 1777 0aed 08       		.uleb128 0x8
 1778 0aee 4A060000 		.4byte	.LASF155
 1779 0af2 14       		.byte	0x14
 1780 0af3 6D       		.byte	0x6d
 1781 0af4 1D       		.byte	0x1d
 1782 0af5 F7040000 		.4byte	0x4f7
 1783 0af9 10       		.byte	0x10
 1784 0afa 08       		.uleb128 0x8
 1785 0afb 76010000 		.4byte	.LASF156
 1786 0aff 14       		.byte	0x14
 1787 0b00 77       		.byte	0x77
 1788 0b01 1E       		.byte	0x1e
 1789 0b02 8C020000 		.4byte	0x28c
 1790 0b06 20       		.byte	0x20
 1791 0b07 08       		.uleb128 0x8
 1792 0b08 3A010000 		.4byte	.LASF157
 1793 0b0c 14       		.byte	0x14
 1794 0b0d 7B       		.byte	0x7b
 1795 0b0e 1D       		.byte	0x1d
 1796 0b0f 6F0B0000 		.4byte	0xb6f
 1797 0b13 24       		.byte	0x24
 1798 0b14 08       		.uleb128 0x8
 1799 0b15 B1020000 		.4byte	.LASF158
 1800 0b19 14       		.byte	0x14
 1801 0b1a 7F       		.byte	0x7f
 1802 0b1b 1E       		.byte	0x1e
 1803 0b1c 29080000 		.4byte	0x829
 1804 0b20 28       		.byte	0x28
 1805 0b21 08       		.uleb128 0x8
 1806 0b22 4E090000 		.4byte	.LASF159
 1807 0b26 14       		.byte	0x14
 1808 0b27 83       		.byte	0x83
ARM GAS  /var/folders/l5/0x54b2c10074c8bt31ycjvl80000gp/T//cc2tThBQ.s 			page 33


 1809 0b28 1D       		.byte	0x1d
 1810 0b29 2C000000 		.4byte	0x2c
 1811 0b2d 2C       		.byte	0x2c
 1812 0b2e 08       		.uleb128 0x8
 1813 0b2f 76080000 		.4byte	.LASF160
 1814 0b33 14       		.byte	0x14
 1815 0b34 87       		.byte	0x87
 1816 0b35 1D       		.byte	0x1d
 1817 0b36 2C000000 		.4byte	0x2c
 1818 0b3a 30       		.byte	0x30
 1819 0b3b 08       		.uleb128 0x8
 1820 0b3c 6A000000 		.4byte	.LASF161
 1821 0b40 14       		.byte	0x14
 1822 0b41 8B       		.byte	0x8b
 1823 0b42 1E       		.byte	0x1e
 1824 0b43 AB070000 		.4byte	0x7ab
 1825 0b47 34       		.byte	0x34
 1826 0b48 08       		.uleb128 0x8
 1827 0b49 3E050000 		.4byte	.LASF162
 1828 0b4d 14       		.byte	0x14
 1829 0b4e 8F       		.byte	0x8f
 1830 0b4f 1D       		.byte	0x1d
 1831 0b50 2C000000 		.4byte	0x2c
 1832 0b54 38       		.byte	0x38
 1833 0b55 08       		.uleb128 0x8
 1834 0b56 87010000 		.4byte	.LASF163
 1835 0b5a 14       		.byte	0x14
 1836 0b5b 93       		.byte	0x93
 1837 0b5c 1D       		.byte	0x1d
 1838 0b5d 2C000000 		.4byte	0x2c
 1839 0b61 3C       		.byte	0x3c
 1840 0b62 00       		.byte	0
 1841 0b63 03       		.uleb128 0x3
 1842 0b64 3F060000 		.4byte	.LASF164
 1843 0b68 14       		.byte	0x14
 1844 0b69 42       		.byte	0x42
 1845 0b6a 12       		.byte	0x12
 1846 0b6b D5000000 		.4byte	0xd5
 1847 0b6f 03       		.uleb128 0x3
 1848 0b70 54010000 		.4byte	.LASF165
 1849 0b74 14       		.byte	0x14
 1850 0b75 48       		.byte	0x48
 1851 0b76 12       		.byte	0x12
 1852 0b77 BD000000 		.4byte	0xbd
 1853 0b7b 0A       		.uleb128 0xa
 1854 0b7c 04       		.byte	0x4
 1855 0b7d 14       		.byte	0x14
 1856 0b7e 57       		.byte	0x57
 1857 0b7f 09       		.byte	0x9
 1858 0b80 920B0000 		.4byte	0xb92
 1859 0b84 08       		.uleb128 0x8
 1860 0b85 21050000 		.4byte	.LASF166
 1861 0b89 14       		.byte	0x14
 1862 0b8a 59       		.byte	0x59
 1863 0b8b 1D       		.byte	0x1d
 1864 0b8c D5000000 		.4byte	0xd5
 1865 0b90 00       		.byte	0
ARM GAS  /var/folders/l5/0x54b2c10074c8bt31ycjvl80000gp/T//cc2tThBQ.s 			page 34


 1866 0b91 00       		.byte	0
 1867 0b92 03       		.uleb128 0x3
 1868 0b93 62080000 		.4byte	.LASF167
 1869 0b97 14       		.byte	0x14
 1870 0b98 5B       		.byte	0x5b
 1871 0b99 03       		.byte	0x3
 1872 0b9a 7B0B0000 		.4byte	0xb7b
 1873 0b9e 06       		.uleb128 0x6
 1874 0b9f 920B0000 		.4byte	0xb92
 1875 0ba3 0B       		.uleb128 0xb
 1876 0ba4 04       		.byte	0x4
 1877 0ba5 9E0B0000 		.4byte	0xb9e
 1878 0ba9 0B       		.uleb128 0xb
 1879 0baa 04       		.byte	0x4
 1880 0bab 2F090000 		.4byte	0x92f
 1881 0baf 0F       		.uleb128 0xf
 1882 0bb0 63020000 		.4byte	.LASF168
 1883 0bb4 14       		.byte	0x14
 1884 0bb5 A6       		.byte	0xa6
 1885 0bb6 12       		.byte	0x12
 1886 0bb7 A00A0000 		.4byte	0xaa0
 1887 0bbb 18       		.uleb128 0x18
 1888 0bbc 07       		.byte	0x7
 1889 0bbd 01       		.byte	0x1
 1890 0bbe 57000000 		.4byte	0x57
 1891 0bc2 15       		.byte	0x15
 1892 0bc3 5D       		.byte	0x5d
 1893 0bc4 0E       		.byte	0xe
 1894 0bc5 DC0B0000 		.4byte	0xbdc
 1895 0bc9 19       		.uleb128 0x19
 1896 0bca 22070000 		.4byte	.LASF169
 1897 0bce 00       		.byte	0
 1898 0bcf 19       		.uleb128 0x19
 1899 0bd0 2A010000 		.4byte	.LASF170
 1900 0bd4 01       		.byte	0x1
 1901 0bd5 19       		.uleb128 0x19
 1902 0bd6 27080000 		.4byte	.LASF171
 1903 0bda 02       		.byte	0x2
 1904 0bdb 00       		.byte	0
 1905 0bdc 03       		.uleb128 0x3
 1906 0bdd 6C080000 		.4byte	.LASF172
 1907 0be1 15       		.byte	0x15
 1908 0be2 61       		.byte	0x61
 1909 0be3 03       		.byte	0x3
 1910 0be4 BB0B0000 		.4byte	0xbbb
 1911 0be8 03       		.uleb128 0x3
 1912 0be9 56070000 		.4byte	.LASF173
 1913 0bed 15       		.byte	0x15
 1914 0bee 66       		.byte	0x66
 1915 0bef 1D       		.byte	0x1d
 1916 0bf0 F40B0000 		.4byte	0xbf4
 1917 0bf4 07       		.uleb128 0x7
 1918 0bf5 56070000 		.4byte	.LASF173
 1919 0bf9 74       		.byte	0x74
 1920 0bfa 15       		.byte	0x15
 1921 0bfb 80       		.byte	0x80
 1922 0bfc 08       		.byte	0x8
ARM GAS  /var/folders/l5/0x54b2c10074c8bt31ycjvl80000gp/T//cc2tThBQ.s 			page 35


 1923 0bfd 5B0C0000 		.4byte	0xc5b
 1924 0c01 09       		.uleb128 0x9
 1925 0c02 766D7400 		.ascii	"vmt\000"
 1926 0c06 15       		.byte	0x15
 1927 0c07 82       		.byte	0x82
 1928 0c08 21       		.byte	0x21
 1929 0c09 E20C0000 		.4byte	0xce2
 1930 0c0d 00       		.byte	0
 1931 0c0e 08       		.uleb128 0x8
 1932 0c0f 21030000 		.4byte	.LASF174
 1933 0c13 15       		.byte	0x15
 1934 0c14 83       		.byte	0x83
 1935 0c15 03       		.byte	0x3
 1936 0c16 72050000 		.4byte	0x572
 1937 0c1a 04       		.byte	0x4
 1938 0c1b 08       		.uleb128 0x8
 1939 0c1c 5E010000 		.4byte	.LASF151
 1940 0c20 15       		.byte	0x15
 1941 0c21 83       		.byte	0x83
 1942 0c22 03       		.byte	0x3
 1943 0c23 DC0B0000 		.4byte	0xbdc
 1944 0c27 08       		.byte	0x8
 1945 0c28 08       		.uleb128 0x8
 1946 0c29 CE020000 		.4byte	.LASF175
 1947 0c2d 15       		.byte	0x15
 1948 0c2e 83       		.byte	0x83
 1949 0c2f 03       		.byte	0x3
 1950 0c30 B1070000 		.4byte	0x7b1
 1951 0c34 0C       		.byte	0xc
 1952 0c35 08       		.uleb128 0x8
 1953 0c36 5A030000 		.4byte	.LASF176
 1954 0c3a 15       		.byte	0x15
 1955 0c3b 83       		.byte	0x83
 1956 0c3c 03       		.byte	0x3
 1957 0c3d BD070000 		.4byte	0x7bd
 1958 0c41 30       		.byte	0x30
 1959 0c42 09       		.uleb128 0x9
 1960 0c43 696200   		.ascii	"ib\000"
 1961 0c46 15       		.byte	0x15
 1962 0c47 83       		.byte	0x83
 1963 0c48 03       		.byte	0x3
 1964 0c49 E80C0000 		.4byte	0xce8
 1965 0c4d 54       		.byte	0x54
 1966 0c4e 09       		.uleb128 0x9
 1967 0c4f 6F6200   		.ascii	"ob\000"
 1968 0c52 15       		.byte	0x15
 1969 0c53 83       		.byte	0x83
 1970 0c54 03       		.byte	0x3
 1971 0c55 E80C0000 		.4byte	0xce8
 1972 0c59 64       		.byte	0x64
 1973 0c5a 00       		.byte	0
 1974 0c5b 1A       		.uleb128 0x1a
 1975 0c5c 53443100 		.ascii	"SD1\000"
 1976 0c60 1B       		.byte	0x1b
 1977 0c61 62       		.byte	0x62
 1978 0c62 15       		.byte	0x15
 1979 0c63 E80B0000 		.4byte	0xbe8
ARM GAS  /var/folders/l5/0x54b2c10074c8bt31ycjvl80000gp/T//cc2tThBQ.s 			page 36


 1980 0c67 07       		.uleb128 0x7
 1981 0c68 B7020000 		.4byte	.LASF177
 1982 0c6c 20       		.byte	0x20
 1983 0c6d 15       		.byte	0x15
 1984 0c6e 75       		.byte	0x75
 1985 0c6f 08       		.byte	0x8
 1986 0c70 DD0C0000 		.4byte	0xcdd
 1987 0c74 08       		.uleb128 0x8
 1988 0c75 30000000 		.4byte	.LASF119
 1989 0c79 15       		.byte	0x15
 1990 0c7a 76       		.byte	0x76
 1991 0c7b 03       		.byte	0x3
 1992 0c7c 2F080000 		.4byte	0x82f
 1993 0c80 00       		.byte	0
 1994 0c81 08       		.uleb128 0x8
 1995 0c82 71070000 		.4byte	.LASF120
 1996 0c86 15       		.byte	0x15
 1997 0c87 76       		.byte	0x76
 1998 0c88 03       		.byte	0x3
 1999 0c89 4E080000 		.4byte	0x84e
 2000 0c8d 04       		.byte	0x4
 2001 0c8e 09       		.uleb128 0x9
 2002 0c8f 70757400 		.ascii	"put\000"
 2003 0c93 15       		.byte	0x15
 2004 0c94 76       		.byte	0x76
 2005 0c95 03       		.byte	0x3
 2006 0c96 68080000 		.4byte	0x868
 2007 0c9a 08       		.byte	0x8
 2008 0c9b 09       		.uleb128 0x9
 2009 0c9c 67657400 		.ascii	"get\000"
 2010 0ca0 15       		.byte	0x15
 2011 0ca1 76       		.byte	0x76
 2012 0ca2 03       		.byte	0x3
 2013 0ca3 D0050000 		.4byte	0x5d0
 2014 0ca7 0C       		.byte	0xc
 2015 0ca8 08       		.uleb128 0x8
 2016 0ca9 DB040000 		.4byte	.LASF178
 2017 0cad 15       		.byte	0x15
 2018 0cae 76       		.byte	0x76
 2019 0caf 03       		.byte	0x3
 2020 0cb0 55090000 		.4byte	0x955
 2021 0cb4 10       		.byte	0x10
 2022 0cb5 08       		.uleb128 0x8
 2023 0cb6 F0020000 		.4byte	.LASF179
 2024 0cba 15       		.byte	0x15
 2025 0cbb 76       		.byte	0x76
 2026 0cbc 03       		.byte	0x3
 2027 0cbd 6F090000 		.4byte	0x96f
 2028 0cc1 14       		.byte	0x14
 2029 0cc2 08       		.uleb128 0x8
 2030 0cc3 48040000 		.4byte	.LASF180
 2031 0cc7 15       		.byte	0x15
 2032 0cc8 76       		.byte	0x76
 2033 0cc9 03       		.byte	0x3
 2034 0cca 93090000 		.4byte	0x993
 2035 0cce 18       		.byte	0x18
 2036 0ccf 08       		.uleb128 0x8
ARM GAS  /var/folders/l5/0x54b2c10074c8bt31ycjvl80000gp/T//cc2tThBQ.s 			page 37


 2037 0cd0 D3000000 		.4byte	.LASF181
 2038 0cd4 15       		.byte	0x15
 2039 0cd5 76       		.byte	0x76
 2040 0cd6 03       		.byte	0x3
 2041 0cd7 B7090000 		.4byte	0x9b7
 2042 0cdb 1C       		.byte	0x1c
 2043 0cdc 00       		.byte	0
 2044 0cdd 06       		.uleb128 0x6
 2045 0cde 670C0000 		.4byte	0xc67
 2046 0ce2 0B       		.uleb128 0xb
 2047 0ce3 04       		.byte	0x4
 2048 0ce4 DD0C0000 		.4byte	0xcdd
 2049 0ce8 13       		.uleb128 0x13
 2050 0ce9 AC000000 		.4byte	0xac
 2051 0ced F80C0000 		.4byte	0xcf8
 2052 0cf1 14       		.uleb128 0x14
 2053 0cf2 38000000 		.4byte	0x38
 2054 0cf6 0F       		.byte	0xf
 2055 0cf7 00       		.byte	0
 2056 0cf8 18       		.uleb128 0x18
 2057 0cf9 07       		.byte	0x7
 2058 0cfa 01       		.byte	0x1
 2059 0cfb 57000000 		.4byte	0x57
 2060 0cff 16       		.byte	0x16
 2061 0d00 4E       		.byte	0x4e
 2062 0d01 0E       		.byte	0xe
 2063 0d02 250D0000 		.4byte	0xd25
 2064 0d06 19       		.uleb128 0x19
 2065 0d07 3A080000 		.4byte	.LASF182
 2066 0d0b 00       		.byte	0
 2067 0d0c 19       		.uleb128 0x19
 2068 0d0d 14010000 		.4byte	.LASF183
 2069 0d11 01       		.byte	0x1
 2070 0d12 19       		.uleb128 0x19
 2071 0d13 30080000 		.4byte	.LASF184
 2072 0d17 02       		.byte	0x2
 2073 0d18 19       		.uleb128 0x19
 2074 0d19 4C000000 		.4byte	.LASF185
 2075 0d1d 03       		.byte	0x3
 2076 0d1e 19       		.uleb128 0x19
 2077 0d1f 7B070000 		.4byte	.LASF186
 2078 0d23 04       		.byte	0x4
 2079 0d24 00       		.byte	0
 2080 0d25 03       		.uleb128 0x3
 2081 0d26 BA070000 		.4byte	.LASF187
 2082 0d2a 16       		.byte	0x16
 2083 0d2b 54       		.byte	0x54
 2084 0d2c 03       		.byte	0x3
 2085 0d2d F80C0000 		.4byte	0xcf8
 2086 0d31 03       		.uleb128 0x3
 2087 0d32 A4000000 		.4byte	.LASF188
 2088 0d36 17       		.byte	0x17
 2089 0d37 35       		.byte	0x35
 2090 0d38 1A       		.byte	0x1a
 2091 0d39 3D0D0000 		.4byte	0xd3d
 2092 0d3d 07       		.uleb128 0x7
 2093 0d3e A4000000 		.4byte	.LASF188
ARM GAS  /var/folders/l5/0x54b2c10074c8bt31ycjvl80000gp/T//cc2tThBQ.s 			page 38


 2094 0d42 28       		.byte	0x28
 2095 0d43 17       		.byte	0x17
 2096 0d44 7C       		.byte	0x7c
 2097 0d45 08       		.byte	0x8
 2098 0d46 A60D0000 		.4byte	0xda6
 2099 0d4a 08       		.uleb128 0x8
 2100 0d4b 5E010000 		.4byte	.LASF151
 2101 0d4f 17       		.byte	0x17
 2102 0d50 80       		.byte	0x80
 2103 0d51 19       		.byte	0x19
 2104 0d52 250D0000 		.4byte	0xd25
 2105 0d56 00       		.byte	0
 2106 0d57 08       		.uleb128 0x8
 2107 0d58 88070000 		.4byte	.LASF152
 2108 0d5c 17       		.byte	0x17
 2109 0d5d 84       		.byte	0x84
 2110 0d5e 1A       		.byte	0x1a
 2111 0d5f 590E0000 		.4byte	0xe59
 2112 0d63 04       		.byte	0x4
 2113 0d64 08       		.uleb128 0x8
 2114 0d65 76010000 		.4byte	.LASF156
 2115 0d69 17       		.byte	0x17
 2116 0d6a 89       		.byte	0x89
 2117 0d6b 1A       		.byte	0x1a
 2118 0d6c 8C020000 		.4byte	0x28c
 2119 0d70 08       		.byte	0x8
 2120 0d71 08       		.uleb128 0x8
 2121 0d72 4A060000 		.4byte	.LASF155
 2122 0d76 17       		.byte	0x17
 2123 0d77 90       		.byte	0x90
 2124 0d78 19       		.byte	0x19
 2125 0d79 F7040000 		.4byte	0x4f7
 2126 0d7d 0C       		.byte	0xc
 2127 0d7e 08       		.uleb128 0x8
 2128 0d7f 6A000000 		.4byte	.LASF161
 2129 0d83 17       		.byte	0x17
 2130 0d84 98       		.byte	0x98
 2131 0d85 1A       		.byte	0x1a
 2132 0d86 D9020000 		.4byte	0x2d9
 2133 0d8a 1C       		.byte	0x1c
 2134 0d8b 08       		.uleb128 0x8
 2135 0d8c B1020000 		.4byte	.LASF158
 2136 0d90 17       		.byte	0x17
 2137 0d91 9D       		.byte	0x9d
 2138 0d92 1A       		.byte	0x1a
 2139 0d93 5F0E0000 		.4byte	0xe5f
 2140 0d97 20       		.byte	0x20
 2141 0d98 08       		.uleb128 0x8
 2142 0d99 F2010000 		.4byte	.LASF189
 2143 0d9d 17       		.byte	0x17
 2144 0d9e A2       		.byte	0xa2
 2145 0d9f 17       		.byte	0x17
 2146 0da0 2C000000 		.4byte	0x2c
 2147 0da4 24       		.byte	0x24
 2148 0da5 00       		.byte	0
 2149 0da6 03       		.uleb128 0x3
 2150 0da7 55020000 		.4byte	.LASF190
ARM GAS  /var/folders/l5/0x54b2c10074c8bt31ycjvl80000gp/T//cc2tThBQ.s 			page 39


 2151 0dab 17       		.byte	0x17
 2152 0dac 3D       		.byte	0x3d
 2153 0dad 10       		.byte	0x10
 2154 0dae B20D0000 		.4byte	0xdb2
 2155 0db2 0B       		.uleb128 0xb
 2156 0db3 04       		.byte	0x4
 2157 0db4 B80D0000 		.4byte	0xdb8
 2158 0db8 0D       		.uleb128 0xd
 2159 0db9 C30D0000 		.4byte	0xdc3
 2160 0dbd 0E       		.uleb128 0xe
 2161 0dbe C30D0000 		.4byte	0xdc3
 2162 0dc2 00       		.byte	0
 2163 0dc3 0B       		.uleb128 0xb
 2164 0dc4 04       		.byte	0x4
 2165 0dc5 310D0000 		.4byte	0xd31
 2166 0dc9 0A       		.uleb128 0xa
 2167 0dca 10       		.byte	0x10
 2168 0dcb 17       		.byte	0x17
 2169 0dcc 44       		.byte	0x44
 2170 0dcd 09       		.byte	0x9
 2171 0dce 480E0000 		.4byte	0xe48
 2172 0dd2 08       		.uleb128 0x8
 2173 0dd3 E0010000 		.4byte	.LASF191
 2174 0dd7 17       		.byte	0x17
 2175 0dd8 48       		.byte	0x48
 2176 0dd9 19       		.byte	0x19
 2177 0dda A60D0000 		.4byte	0xda6
 2178 0dde 00       		.byte	0
 2179 0ddf 08       		.uleb128 0x8
 2180 0de0 E7050000 		.4byte	.LASF192
 2181 0de4 17       		.byte	0x17
 2182 0de5 4F       		.byte	0x4f
 2183 0de6 19       		.byte	0x19
 2184 0de7 AC000000 		.4byte	0xac
 2185 0deb 04       		.byte	0x4
 2186 0dec 08       		.uleb128 0x8
 2187 0ded F4050000 		.4byte	.LASF193
 2188 0df1 17       		.byte	0x17
 2189 0df2 52       		.byte	0x52
 2190 0df3 19       		.byte	0x19
 2191 0df4 AC000000 		.4byte	0xac
 2192 0df8 05       		.byte	0x5
 2193 0df9 08       		.uleb128 0x8
 2194 0dfa 0C030000 		.4byte	.LASF194
 2195 0dfe 17       		.byte	0x17
 2196 0dff 58       		.byte	0x58
 2197 0e00 19       		.byte	0x19
 2198 0e01 AC000000 		.4byte	0xac
 2199 0e05 06       		.byte	0x6
 2200 0e06 08       		.uleb128 0x8
 2201 0e07 F8010000 		.4byte	.LASF195
 2202 0e0b 17       		.byte	0x17
 2203 0e0c 5E       		.byte	0x5e
 2204 0e0d 19       		.byte	0x19
 2205 0e0e AC000000 		.4byte	0xac
 2206 0e12 07       		.byte	0x7
 2207 0e13 08       		.uleb128 0x8
ARM GAS  /var/folders/l5/0x54b2c10074c8bt31ycjvl80000gp/T//cc2tThBQ.s 			page 40


 2208 0e14 0E020000 		.4byte	.LASF196
 2209 0e18 17       		.byte	0x17
 2210 0e19 64       		.byte	0x64
 2211 0e1a 19       		.byte	0x19
 2212 0e1b AC000000 		.4byte	0xac
 2213 0e1f 08       		.byte	0x8
 2214 0e20 08       		.uleb128 0x8
 2215 0e21 06080000 		.4byte	.LASF197
 2216 0e25 17       		.byte	0x17
 2217 0e26 6A       		.byte	0x6a
 2218 0e27 19       		.byte	0x19
 2219 0e28 AC000000 		.4byte	0xac
 2220 0e2c 09       		.byte	0x9
 2221 0e2d 08       		.uleb128 0x8
 2222 0e2e BC010000 		.4byte	.LASF198
 2223 0e32 17       		.byte	0x17
 2224 0e33 70       		.byte	0x70
 2225 0e34 19       		.byte	0x19
 2226 0e35 AC000000 		.4byte	0xac
 2227 0e39 0A       		.byte	0xa
 2228 0e3a 08       		.uleb128 0x8
 2229 0e3b F1060000 		.4byte	.LASF199
 2230 0e3f 17       		.byte	0x17
 2231 0e40 73       		.byte	0x73
 2232 0e41 19       		.byte	0x19
 2233 0e42 D5000000 		.4byte	0xd5
 2234 0e46 0C       		.byte	0xc
 2235 0e47 00       		.byte	0
 2236 0e48 03       		.uleb128 0x3
 2237 0e49 EB080000 		.4byte	.LASF200
 2238 0e4d 17       		.byte	0x17
 2239 0e4e 75       		.byte	0x75
 2240 0e4f 03       		.byte	0x3
 2241 0e50 C90D0000 		.4byte	0xdc9
 2242 0e54 06       		.uleb128 0x6
 2243 0e55 480E0000 		.4byte	0xe48
 2244 0e59 0B       		.uleb128 0xb
 2245 0e5a 04       		.byte	0x4
 2246 0e5b 540E0000 		.4byte	0xe54
 2247 0e5f 0B       		.uleb128 0xb
 2248 0e60 04       		.byte	0x4
 2249 0e61 650E0000 		.4byte	0xe65
 2250 0e65 1B       		.uleb128 0x1b
 2251 0e66 0F       		.uleb128 0xf
 2252 0e67 9F010000 		.4byte	.LASF201
 2253 0e6b 17       		.byte	0x17
 2254 0e6c B6       		.byte	0xb6
 2255 0e6d 14       		.byte	0x14
 2256 0e6e 310D0000 		.4byte	0xd31
 2257 0e72 13       		.uleb128 0x13
 2258 0e73 C1020000 		.4byte	0x2c1
 2259 0e77 820E0000 		.4byte	0xe82
 2260 0e7b 14       		.uleb128 0x14
 2261 0e7c 38000000 		.4byte	0x38
 2262 0e80 45       		.byte	0x45
 2263 0e81 00       		.byte	0
 2264 0e82 1C       		.uleb128 0x1c
ARM GAS  /var/folders/l5/0x54b2c10074c8bt31ycjvl80000gp/T//cc2tThBQ.s 			page 41


 2265 0e83 8A040000 		.4byte	.LASF202
 2266 0e87 01       		.byte	0x1
 2267 0e88 19       		.byte	0x19
 2268 0e89 08       		.byte	0x8
 2269 0e8a 720E0000 		.4byte	0xe72
 2270 0e8e 05       		.uleb128 0x5
 2271 0e8f 03       		.byte	0x3
 2272 0e90 00000000 		.4byte	waThread_LCD
 2273 0e94 1D       		.uleb128 0x1d
 2274 0e95 1C050000 		.4byte	.LASF215
 2275 0e99 01       		.byte	0x1
 2276 0e9a 34       		.byte	0x34
 2277 0e9b 05       		.byte	0x5
 2278 0e9c 25000000 		.4byte	0x25
 2279 0ea0 00000000 		.4byte	.LFB8
 2280 0ea4 10010000 		.4byte	.LFE8-.LFB8
 2281 0ea8 01       		.uleb128 0x1
 2282 0ea9 9C       		.byte	0x9c
 2283 0eaa 41100000 		.4byte	0x1041
 2284 0eae 1C       		.uleb128 0x1c
 2285 0eaf B1020000 		.4byte	.LASF158
 2286 0eb3 01       		.byte	0x1
 2287 0eb4 38       		.byte	0x38
 2288 0eb5 08       		.byte	0x8
 2289 0eb6 41100000 		.4byte	0x1041
 2290 0eba 02       		.uleb128 0x2
 2291 0ebb 91       		.byte	0x91
 2292 0ebc 5C       		.sleb128 -36
 2293 0ebd 1E       		.uleb128 0x1e
 2294 0ebe 10000000 		.4byte	.LVL15
 2295 0ec2 A7110000 		.4byte	0x11a7
 2296 0ec6 1E       		.uleb128 0x1e
 2297 0ec7 14000000 		.4byte	.LVL16
 2298 0ecb B3110000 		.4byte	0x11b3
 2299 0ecf 1F       		.uleb128 0x1f
 2300 0ed0 40000000 		.4byte	.LVL17
 2301 0ed4 BF110000 		.4byte	0x11bf
 2302 0ed8 E90E0000 		.4byte	0xee9
 2303 0edc 20       		.uleb128 0x20
 2304 0edd 01       		.uleb128 0x1
 2305 0ede 50       		.byte	0x50
 2306 0edf 02       		.uleb128 0x2
 2307 0ee0 75       		.byte	0x75
 2308 0ee1 00       		.sleb128 0
 2309 0ee2 20       		.uleb128 0x20
 2310 0ee3 01       		.uleb128 0x1
 2311 0ee4 51       		.byte	0x51
 2312 0ee5 02       		.uleb128 0x2
 2313 0ee6 76       		.byte	0x76
 2314 0ee7 00       		.sleb128 0
 2315 0ee8 00       		.byte	0
 2316 0ee9 1F       		.uleb128 0x1f
 2317 0eea 4C000000 		.4byte	.LVL18
 2318 0eee CC110000 		.4byte	0x11cc
 2319 0ef2 060F0000 		.4byte	0xf06
 2320 0ef6 20       		.uleb128 0x20
 2321 0ef7 01       		.uleb128 0x1
ARM GAS  /var/folders/l5/0x54b2c10074c8bt31ycjvl80000gp/T//cc2tThBQ.s 			page 42


 2322 0ef8 50       		.byte	0x50
 2323 0ef9 02       		.uleb128 0x2
 2324 0efa 75       		.byte	0x75
 2325 0efb 00       		.sleb128 0
 2326 0efc 20       		.uleb128 0x20
 2327 0efd 01       		.uleb128 0x1
 2328 0efe 51       		.byte	0x51
 2329 0eff 05       		.uleb128 0x5
 2330 0f00 03       		.byte	0x3
 2331 0f01 00000000 		.4byte	.LC3
 2332 0f05 00       		.byte	0
 2333 0f06 1F       		.uleb128 0x1f
 2334 0f07 5C000000 		.4byte	.LVL19
 2335 0f0b D8110000 		.4byte	0x11d8
 2336 0f0f 260F0000 		.4byte	0xf26
 2337 0f13 20       		.uleb128 0x20
 2338 0f14 01       		.uleb128 0x1
 2339 0f15 50       		.byte	0x50
 2340 0f16 02       		.uleb128 0x2
 2341 0f17 74       		.byte	0x74
 2342 0f18 00       		.sleb128 0
 2343 0f19 20       		.uleb128 0x20
 2344 0f1a 01       		.uleb128 0x1
 2345 0f1b 51       		.byte	0x51
 2346 0f1c 02       		.uleb128 0x2
 2347 0f1d 08       		.byte	0x8
 2348 0f1e 7C       		.byte	0x7c
 2349 0f1f 20       		.uleb128 0x20
 2350 0f20 01       		.uleb128 0x1
 2351 0f21 52       		.byte	0x52
 2352 0f22 02       		.uleb128 0x2
 2353 0f23 09       		.byte	0x9
 2354 0f24 FF       		.byte	0xff
 2355 0f25 00       		.byte	0
 2356 0f26 1F       		.uleb128 0x1f
 2357 0f27 6C000000 		.4byte	.LVL20
 2358 0f2b D8110000 		.4byte	0x11d8
 2359 0f2f 450F0000 		.4byte	0xf45
 2360 0f33 20       		.uleb128 0x20
 2361 0f34 01       		.uleb128 0x1
 2362 0f35 50       		.byte	0x50
 2363 0f36 02       		.uleb128 0x2
 2364 0f37 74       		.byte	0x74
 2365 0f38 00       		.sleb128 0
 2366 0f39 20       		.uleb128 0x20
 2367 0f3a 01       		.uleb128 0x1
 2368 0f3b 51       		.byte	0x51
 2369 0f3c 01       		.uleb128 0x1
 2370 0f3d 48       		.byte	0x48
 2371 0f3e 20       		.uleb128 0x20
 2372 0f3f 01       		.uleb128 0x1
 2373 0f40 52       		.byte	0x52
 2374 0f41 02       		.uleb128 0x2
 2375 0f42 09       		.byte	0x9
 2376 0f43 FF       		.byte	0xff
 2377 0f44 00       		.byte	0
 2378 0f45 1F       		.uleb128 0x1f
ARM GAS  /var/folders/l5/0x54b2c10074c8bt31ycjvl80000gp/T//cc2tThBQ.s 			page 43


 2379 0f46 7C000000 		.4byte	.LVL21
 2380 0f4a D8110000 		.4byte	0x11d8
 2381 0f4e 650F0000 		.4byte	0xf65
 2382 0f52 20       		.uleb128 0x20
 2383 0f53 01       		.uleb128 0x1
 2384 0f54 50       		.byte	0x50
 2385 0f55 02       		.uleb128 0x2
 2386 0f56 74       		.byte	0x74
 2387 0f57 00       		.sleb128 0
 2388 0f58 20       		.uleb128 0x20
 2389 0f59 01       		.uleb128 0x1
 2390 0f5a 51       		.byte	0x51
 2391 0f5b 02       		.uleb128 0x2
 2392 0f5c 76       		.byte	0x76
 2393 0f5d 00       		.sleb128 0
 2394 0f5e 20       		.uleb128 0x20
 2395 0f5f 01       		.uleb128 0x1
 2396 0f60 52       		.byte	0x52
 2397 0f61 02       		.uleb128 0x2
 2398 0f62 09       		.byte	0x9
 2399 0f63 FF       		.byte	0xff
 2400 0f64 00       		.byte	0
 2401 0f65 1F       		.uleb128 0x1f
 2402 0f66 84000000 		.4byte	.LVL22
 2403 0f6a E5110000 		.4byte	0x11e5
 2404 0f6e 780F0000 		.4byte	0xf78
 2405 0f72 20       		.uleb128 0x20
 2406 0f73 01       		.uleb128 0x1
 2407 0f74 50       		.byte	0x50
 2408 0f75 01       		.uleb128 0x1
 2409 0f76 3A       		.byte	0x3a
 2410 0f77 00       		.byte	0
 2411 0f78 1F       		.uleb128 0x1f
 2412 0f79 94000000 		.4byte	.LVL23
 2413 0f7d D8110000 		.4byte	0x11d8
 2414 0f81 980F0000 		.4byte	0xf98
 2415 0f85 20       		.uleb128 0x20
 2416 0f86 01       		.uleb128 0x1
 2417 0f87 50       		.byte	0x50
 2418 0f88 02       		.uleb128 0x2
 2419 0f89 74       		.byte	0x74
 2420 0f8a 00       		.sleb128 0
 2421 0f8b 20       		.uleb128 0x20
 2422 0f8c 01       		.uleb128 0x1
 2423 0f8d 51       		.byte	0x51
 2424 0f8e 02       		.uleb128 0x2
 2425 0f8f 08       		.byte	0x8
 2426 0f90 7C       		.byte	0x7c
 2427 0f91 20       		.uleb128 0x20
 2428 0f92 01       		.uleb128 0x1
 2429 0f93 52       		.byte	0x52
 2430 0f94 02       		.uleb128 0x2
 2431 0f95 09       		.byte	0x9
 2432 0f96 FF       		.byte	0xff
 2433 0f97 00       		.byte	0
 2434 0f98 1F       		.uleb128 0x1f
 2435 0f99 A4000000 		.4byte	.LVL24
ARM GAS  /var/folders/l5/0x54b2c10074c8bt31ycjvl80000gp/T//cc2tThBQ.s 			page 44


 2436 0f9d D8110000 		.4byte	0x11d8
 2437 0fa1 B70F0000 		.4byte	0xfb7
 2438 0fa5 20       		.uleb128 0x20
 2439 0fa6 01       		.uleb128 0x1
 2440 0fa7 50       		.byte	0x50
 2441 0fa8 02       		.uleb128 0x2
 2442 0fa9 74       		.byte	0x74
 2443 0faa 00       		.sleb128 0
 2444 0fab 20       		.uleb128 0x20
 2445 0fac 01       		.uleb128 0x1
 2446 0fad 51       		.byte	0x51
 2447 0fae 01       		.uleb128 0x1
 2448 0faf 49       		.byte	0x49
 2449 0fb0 20       		.uleb128 0x20
 2450 0fb1 01       		.uleb128 0x1
 2451 0fb2 52       		.byte	0x52
 2452 0fb3 02       		.uleb128 0x2
 2453 0fb4 09       		.byte	0x9
 2454 0fb5 FF       		.byte	0xff
 2455 0fb6 00       		.byte	0
 2456 0fb7 1F       		.uleb128 0x1f
 2457 0fb8 B4000000 		.4byte	.LVL25
 2458 0fbc D8110000 		.4byte	0x11d8
 2459 0fc0 D60F0000 		.4byte	0xfd6
 2460 0fc4 20       		.uleb128 0x20
 2461 0fc5 01       		.uleb128 0x1
 2462 0fc6 50       		.byte	0x50
 2463 0fc7 02       		.uleb128 0x2
 2464 0fc8 74       		.byte	0x74
 2465 0fc9 00       		.sleb128 0
 2466 0fca 20       		.uleb128 0x20
 2467 0fcb 01       		.uleb128 0x1
 2468 0fcc 51       		.byte	0x51
 2469 0fcd 01       		.uleb128 0x1
 2470 0fce 3A       		.byte	0x3a
 2471 0fcf 20       		.uleb128 0x20
 2472 0fd0 01       		.uleb128 0x1
 2473 0fd1 52       		.byte	0x52
 2474 0fd2 02       		.uleb128 0x2
 2475 0fd3 09       		.byte	0x9
 2476 0fd4 FF       		.byte	0xff
 2477 0fd5 00       		.byte	0
 2478 0fd6 1F       		.uleb128 0x1f
 2479 0fd7 BC000000 		.4byte	.LVL26
 2480 0fdb E5110000 		.4byte	0x11e5
 2481 0fdf E90F0000 		.4byte	0xfe9
 2482 0fe3 20       		.uleb128 0x20
 2483 0fe4 01       		.uleb128 0x1
 2484 0fe5 50       		.byte	0x50
 2485 0fe6 01       		.uleb128 0x1
 2486 0fe7 3A       		.byte	0x3a
 2487 0fe8 00       		.byte	0
 2488 0fe9 1F       		.uleb128 0x1f
 2489 0fea C8000000 		.4byte	.LVL27
 2490 0fee CC110000 		.4byte	0x11cc
 2491 0ff2 03100000 		.4byte	0x1003
 2492 0ff6 20       		.uleb128 0x20
ARM GAS  /var/folders/l5/0x54b2c10074c8bt31ycjvl80000gp/T//cc2tThBQ.s 			page 45


 2493 0ff7 01       		.uleb128 0x1
 2494 0ff8 50       		.byte	0x50
 2495 0ff9 02       		.uleb128 0x2
 2496 0ffa 75       		.byte	0x75
 2497 0ffb 00       		.sleb128 0
 2498 0ffc 20       		.uleb128 0x20
 2499 0ffd 01       		.uleb128 0x1
 2500 0ffe 51       		.byte	0x51
 2501 0fff 02       		.uleb128 0x2
 2502 1000 91       		.byte	0x91
 2503 1001 54       		.sleb128 -44
 2504 1002 00       		.byte	0
 2505 1003 1F       		.uleb128 0x1f
 2506 1004 E0000000 		.4byte	.LVL28
 2507 1008 F2110000 		.4byte	0x11f2
 2508 100c 37100000 		.4byte	0x1037
 2509 1010 20       		.uleb128 0x20
 2510 1011 01       		.uleb128 0x1
 2511 1012 50       		.byte	0x50
 2512 1013 05       		.uleb128 0x5
 2513 1014 03       		.byte	0x3
 2514 1015 00000000 		.4byte	.LANCHOR0
 2515 1019 20       		.uleb128 0x20
 2516 101a 01       		.uleb128 0x1
 2517 101b 51       		.byte	0x51
 2518 101c 03       		.uleb128 0x3
 2519 101d 0A       		.byte	0xa
 2520 101e 1801     		.2byte	0x118
 2521 1020 20       		.uleb128 0x20
 2522 1021 01       		.uleb128 0x1
 2523 1022 52       		.byte	0x52
 2524 1023 02       		.uleb128 0x2
 2525 1024 08       		.byte	0x8
 2526 1025 7F       		.byte	0x7f
 2527 1026 20       		.uleb128 0x20
 2528 1027 01       		.uleb128 0x1
 2529 1028 53       		.byte	0x53
 2530 1029 05       		.uleb128 0x5
 2531 102a 03       		.byte	0x3
 2532 102b 00000000 		.4byte	Thread_LCD
 2533 102f 20       		.uleb128 0x20
 2534 1030 02       		.uleb128 0x2
 2535 1031 7D       		.byte	0x7d
 2536 1032 00       		.sleb128 0
 2537 1033 02       		.uleb128 0x2
 2538 1034 76       		.byte	0x76
 2539 1035 00       		.sleb128 0
 2540 1036 00       		.byte	0
 2541 1037 1E       		.uleb128 0x1e
 2542 1038 EC000000 		.4byte	.LVL29
 2543 103c FF110000 		.4byte	0x11ff
 2544 1040 00       		.byte	0
 2545 1041 13       		.uleb128 0x13
 2546 1042 BE050000 		.4byte	0x5be
 2547 1046 51100000 		.4byte	0x1051
 2548 104a 14       		.uleb128 0x14
 2549 104b 38000000 		.4byte	0x38
ARM GAS  /var/folders/l5/0x54b2c10074c8bt31ycjvl80000gp/T//cc2tThBQ.s 			page 46


 2550 104f 11       		.byte	0x11
 2551 1050 00       		.byte	0
 2552 1051 21       		.uleb128 0x21
 2553 1052 E7010000 		.4byte	.LASF216
 2554 1056 01       		.byte	0x1
 2555 1057 1A       		.byte	0x1a
 2556 1058 0E       		.byte	0xe
 2557 1059 22010000 		.4byte	0x122
 2558 105d 00000000 		.4byte	.LFB7
 2559 1061 C8000000 		.4byte	.LFE7-.LFB7
 2560 1065 01       		.uleb128 0x1
 2561 1066 9C       		.byte	0x9c
 2562 1067 A7110000 		.4byte	0x11a7
 2563 106b 22       		.uleb128 0x22
 2564 106c 7000     		.ascii	"p\000"
 2565 106e 01       		.byte	0x1
 2566 106f 1A       		.byte	0x1a
 2567 1070 1F       		.byte	0x1f
 2568 1071 D9020000 		.4byte	0x2d9
 2569 1075 04000000 		.4byte	.LLST0
 2570 1079 00000000 		.4byte	.LVUS0
 2571 107d 23       		.uleb128 0x23
 2572 107e 9F020000 		.4byte	.LASF203
 2573 1082 01       		.byte	0x1
 2574 1083 1D       		.byte	0x1d
 2575 1084 0C       		.byte	0xc
 2576 1085 BD000000 		.4byte	0xbd
 2577 1089 2B000000 		.4byte	.LLST1
 2578 108d 25000000 		.4byte	.LVUS1
 2579 1091 1F       		.uleb128 0x1f
 2580 1092 34000000 		.4byte	.LVL3
 2581 1096 D8110000 		.4byte	0x11d8
 2582 109a B1100000 		.4byte	0x10b1
 2583 109e 20       		.uleb128 0x20
 2584 109f 01       		.uleb128 0x1
 2585 10a0 50       		.byte	0x50
 2586 10a1 02       		.uleb128 0x2
 2587 10a2 74       		.byte	0x74
 2588 10a3 00       		.sleb128 0
 2589 10a4 20       		.uleb128 0x20
 2590 10a5 01       		.uleb128 0x1
 2591 10a6 51       		.byte	0x51
 2592 10a7 02       		.uleb128 0x2
 2593 10a8 08       		.byte	0x8
 2594 10a9 7C       		.byte	0x7c
 2595 10aa 20       		.uleb128 0x20
 2596 10ab 01       		.uleb128 0x1
 2597 10ac 52       		.byte	0x52
 2598 10ad 02       		.uleb128 0x2
 2599 10ae 09       		.byte	0x9
 2600 10af FF       		.byte	0xff
 2601 10b0 00       		.byte	0
 2602 10b1 1F       		.uleb128 0x1f
 2603 10b2 44000000 		.4byte	.LVL4
 2604 10b6 D8110000 		.4byte	0x11d8
 2605 10ba D0100000 		.4byte	0x10d0
 2606 10be 20       		.uleb128 0x20
ARM GAS  /var/folders/l5/0x54b2c10074c8bt31ycjvl80000gp/T//cc2tThBQ.s 			page 47


 2607 10bf 01       		.uleb128 0x1
 2608 10c0 50       		.byte	0x50
 2609 10c1 02       		.uleb128 0x2
 2610 10c2 74       		.byte	0x74
 2611 10c3 00       		.sleb128 0
 2612 10c4 20       		.uleb128 0x20
 2613 10c5 01       		.uleb128 0x1
 2614 10c6 51       		.byte	0x51
 2615 10c7 01       		.uleb128 0x1
 2616 10c8 48       		.byte	0x48
 2617 10c9 20       		.uleb128 0x20
 2618 10ca 01       		.uleb128 0x1
 2619 10cb 52       		.byte	0x52
 2620 10cc 02       		.uleb128 0x2
 2621 10cd 09       		.byte	0x9
 2622 10ce FF       		.byte	0xff
 2623 10cf 00       		.byte	0
 2624 10d0 1F       		.uleb128 0x1f
 2625 10d1 54000000 		.4byte	.LVL5
 2626 10d5 D8110000 		.4byte	0x11d8
 2627 10d9 F0100000 		.4byte	0x10f0
 2628 10dd 20       		.uleb128 0x20
 2629 10de 01       		.uleb128 0x1
 2630 10df 50       		.byte	0x50
 2631 10e0 02       		.uleb128 0x2
 2632 10e1 74       		.byte	0x74
 2633 10e2 00       		.sleb128 0
 2634 10e3 20       		.uleb128 0x20
 2635 10e4 01       		.uleb128 0x1
 2636 10e5 51       		.byte	0x51
 2637 10e6 02       		.uleb128 0x2
 2638 10e7 08       		.byte	0x8
 2639 10e8 20       		.byte	0x20
 2640 10e9 20       		.uleb128 0x20
 2641 10ea 01       		.uleb128 0x1
 2642 10eb 52       		.byte	0x52
 2643 10ec 02       		.uleb128 0x2
 2644 10ed 09       		.byte	0x9
 2645 10ee FF       		.byte	0xff
 2646 10ef 00       		.byte	0
 2647 10f0 1F       		.uleb128 0x1f
 2648 10f1 5C000000 		.4byte	.LVL6
 2649 10f5 E5110000 		.4byte	0x11e5
 2650 10f9 03110000 		.4byte	0x1103
 2651 10fd 20       		.uleb128 0x20
 2652 10fe 01       		.uleb128 0x1
 2653 10ff 50       		.byte	0x50
 2654 1100 01       		.uleb128 0x1
 2655 1101 3A       		.byte	0x3a
 2656 1102 00       		.byte	0
 2657 1103 1F       		.uleb128 0x1f
 2658 1104 6C000000 		.4byte	.LVL7
 2659 1108 D8110000 		.4byte	0x11d8
 2660 110c 23110000 		.4byte	0x1123
 2661 1110 20       		.uleb128 0x20
 2662 1111 01       		.uleb128 0x1
 2663 1112 50       		.byte	0x50
ARM GAS  /var/folders/l5/0x54b2c10074c8bt31ycjvl80000gp/T//cc2tThBQ.s 			page 48


 2664 1113 02       		.uleb128 0x2
 2665 1114 74       		.byte	0x74
 2666 1115 00       		.sleb128 0
 2667 1116 20       		.uleb128 0x20
 2668 1117 01       		.uleb128 0x1
 2669 1118 51       		.byte	0x51
 2670 1119 02       		.uleb128 0x2
 2671 111a 08       		.byte	0x8
 2672 111b 7C       		.byte	0x7c
 2673 111c 20       		.uleb128 0x20
 2674 111d 01       		.uleb128 0x1
 2675 111e 52       		.byte	0x52
 2676 111f 02       		.uleb128 0x2
 2677 1120 09       		.byte	0x9
 2678 1121 FF       		.byte	0xff
 2679 1122 00       		.byte	0
 2680 1123 1F       		.uleb128 0x1f
 2681 1124 7C000000 		.4byte	.LVL8
 2682 1128 D8110000 		.4byte	0x11d8
 2683 112c 42110000 		.4byte	0x1142
 2684 1130 20       		.uleb128 0x20
 2685 1131 01       		.uleb128 0x1
 2686 1132 50       		.byte	0x50
 2687 1133 02       		.uleb128 0x2
 2688 1134 74       		.byte	0x74
 2689 1135 00       		.sleb128 0
 2690 1136 20       		.uleb128 0x20
 2691 1137 01       		.uleb128 0x1
 2692 1138 51       		.byte	0x51
 2693 1139 01       		.uleb128 0x1
 2694 113a 49       		.byte	0x49
 2695 113b 20       		.uleb128 0x20
 2696 113c 01       		.uleb128 0x1
 2697 113d 52       		.byte	0x52
 2698 113e 02       		.uleb128 0x2
 2699 113f 09       		.byte	0x9
 2700 1140 FF       		.byte	0xff
 2701 1141 00       		.byte	0
 2702 1142 1F       		.uleb128 0x1f
 2703 1143 8C000000 		.4byte	.LVL9
 2704 1147 D8110000 		.4byte	0x11d8
 2705 114b 62110000 		.4byte	0x1162
 2706 114f 20       		.uleb128 0x20
 2707 1150 01       		.uleb128 0x1
 2708 1151 50       		.byte	0x50
 2709 1152 02       		.uleb128 0x2
 2710 1153 74       		.byte	0x74
 2711 1154 00       		.sleb128 0
 2712 1155 20       		.uleb128 0x20
 2713 1156 01       		.uleb128 0x1
 2714 1157 51       		.byte	0x51
 2715 1158 02       		.uleb128 0x2
 2716 1159 08       		.byte	0x8
 2717 115a 20       		.byte	0x20
 2718 115b 20       		.uleb128 0x20
 2719 115c 01       		.uleb128 0x1
 2720 115d 52       		.byte	0x52
ARM GAS  /var/folders/l5/0x54b2c10074c8bt31ycjvl80000gp/T//cc2tThBQ.s 			page 49


 2721 115e 02       		.uleb128 0x2
 2722 115f 09       		.byte	0x9
 2723 1160 FF       		.byte	0xff
 2724 1161 00       		.byte	0
 2725 1162 1F       		.uleb128 0x1f
 2726 1163 94000000 		.4byte	.LVL10
 2727 1167 E5110000 		.4byte	0x11e5
 2728 116b 75110000 		.4byte	0x1175
 2729 116f 20       		.uleb128 0x20
 2730 1170 01       		.uleb128 0x1
 2731 1171 50       		.byte	0x50
 2732 1172 01       		.uleb128 0x1
 2733 1173 3A       		.byte	0x3a
 2734 1174 00       		.byte	0
 2735 1175 1F       		.uleb128 0x1f
 2736 1176 A4000000 		.4byte	.LVL11
 2737 117a CC110000 		.4byte	0x11cc
 2738 117e 95110000 		.4byte	0x1195
 2739 1182 20       		.uleb128 0x20
 2740 1183 01       		.uleb128 0x1
 2741 1184 50       		.byte	0x50
 2742 1185 02       		.uleb128 0x2
 2743 1186 76       		.byte	0x76
 2744 1187 00       		.sleb128 0
 2745 1188 20       		.uleb128 0x20
 2746 1189 01       		.uleb128 0x1
 2747 118a 51       		.byte	0x51
 2748 118b 02       		.uleb128 0x2
 2749 118c 77       		.byte	0x77
 2750 118d 00       		.sleb128 0
 2751 118e 20       		.uleb128 0x20
 2752 118f 01       		.uleb128 0x1
 2753 1190 52       		.byte	0x52
 2754 1191 02       		.uleb128 0x2
 2755 1192 75       		.byte	0x75
 2756 1193 00       		.sleb128 0
 2757 1194 00       		.byte	0
 2758 1195 24       		.uleb128 0x24
 2759 1196 B4000000 		.4byte	.LVL14
 2760 119a E5110000 		.4byte	0x11e5
 2761 119e 20       		.uleb128 0x20
 2762 119f 01       		.uleb128 0x1
 2763 11a0 50       		.byte	0x50
 2764 11a1 03       		.uleb128 0x3
 2765 11a2 0A       		.byte	0xa
 2766 11a3 D007     		.2byte	0x7d0
 2767 11a5 00       		.byte	0
 2768 11a6 00       		.byte	0
 2769 11a7 25       		.uleb128 0x25
 2770 11a8 B7000000 		.4byte	.LASF204
 2771 11ac B7000000 		.4byte	.LASF204
 2772 11b0 18       		.byte	0x18
 2773 11b1 C9       		.byte	0xc9
 2774 11b2 08       		.byte	0x8
 2775 11b3 25       		.uleb128 0x25
 2776 11b4 4F040000 		.4byte	.LASF205
 2777 11b8 4F040000 		.4byte	.LASF205
ARM GAS  /var/folders/l5/0x54b2c10074c8bt31ycjvl80000gp/T//cc2tThBQ.s 			page 50


 2778 11bc 19       		.byte	0x19
 2779 11bd EF       		.byte	0xef
 2780 11be 08       		.byte	0x8
 2781 11bf 26       		.uleb128 0x26
 2782 11c0 8F070000 		.4byte	.LASF206
 2783 11c4 8F070000 		.4byte	.LASF206
 2784 11c8 15       		.byte	0x15
 2785 11c9 3201     		.2byte	0x132
 2786 11cb 08       		.byte	0x8
 2787 11cc 25       		.uleb128 0x25
 2788 11cd 89020000 		.4byte	.LASF207
 2789 11d1 89020000 		.4byte	.LASF207
 2790 11d5 1A       		.byte	0x1a
 2791 11d6 2A       		.byte	0x2a
 2792 11d7 08       		.byte	0x8
 2793 11d8 26       		.uleb128 0x26
 2794 11d9 00000000 		.4byte	.LASF208
 2795 11dd 00000000 		.4byte	.LASF208
 2796 11e1 0E       		.byte	0xe
 2797 11e2 6601     		.2byte	0x166
 2798 11e4 09       		.byte	0x9
 2799 11e5 26       		.uleb128 0x26
 2800 11e6 CD050000 		.4byte	.LASF209
 2801 11ea CD050000 		.4byte	.LASF209
 2802 11ee 07       		.byte	0x7
 2803 11ef 6901     		.2byte	0x169
 2804 11f1 08       		.byte	0x8
 2805 11f2 26       		.uleb128 0x26
 2806 11f3 AF040000 		.4byte	.LASF210
 2807 11f7 AF040000 		.4byte	.LASF210
 2808 11fb 07       		.byte	0x7
 2809 11fc 6401     		.2byte	0x164
 2810 11fe 0B       		.byte	0xb
 2811 11ff 26       		.uleb128 0x26
 2812 1200 45080000 		.4byte	.LASF211
 2813 1204 45080000 		.4byte	.LASF211
 2814 1208 07       		.byte	0x7
 2815 1209 6F01     		.2byte	0x16f
 2816 120b 09       		.byte	0x9
 2817 120c 00       		.byte	0
 2818              		.section	.debug_abbrev,"",%progbits
 2819              	.Ldebug_abbrev0:
 2820 0000 01       		.uleb128 0x1
 2821 0001 11       		.uleb128 0x11
 2822 0002 01       		.byte	0x1
 2823 0003 25       		.uleb128 0x25
 2824 0004 0E       		.uleb128 0xe
 2825 0005 13       		.uleb128 0x13
 2826 0006 0B       		.uleb128 0xb
 2827 0007 03       		.uleb128 0x3
 2828 0008 0E       		.uleb128 0xe
 2829 0009 1B       		.uleb128 0x1b
 2830 000a 0E       		.uleb128 0xe
 2831 000b 55       		.uleb128 0x55
 2832 000c 17       		.uleb128 0x17
 2833 000d 11       		.uleb128 0x11
 2834 000e 01       		.uleb128 0x1
ARM GAS  /var/folders/l5/0x54b2c10074c8bt31ycjvl80000gp/T//cc2tThBQ.s 			page 51


 2835 000f 10       		.uleb128 0x10
 2836 0010 17       		.uleb128 0x17
 2837 0011 00       		.byte	0
 2838 0012 00       		.byte	0
 2839 0013 02       		.uleb128 0x2
 2840 0014 24       		.uleb128 0x24
 2841 0015 00       		.byte	0
 2842 0016 0B       		.uleb128 0xb
 2843 0017 0B       		.uleb128 0xb
 2844 0018 3E       		.uleb128 0x3e
 2845 0019 0B       		.uleb128 0xb
 2846 001a 03       		.uleb128 0x3
 2847 001b 08       		.uleb128 0x8
 2848 001c 00       		.byte	0
 2849 001d 00       		.byte	0
 2850 001e 03       		.uleb128 0x3
 2851 001f 16       		.uleb128 0x16
 2852 0020 00       		.byte	0
 2853 0021 03       		.uleb128 0x3
 2854 0022 0E       		.uleb128 0xe
 2855 0023 3A       		.uleb128 0x3a
 2856 0024 0B       		.uleb128 0xb
 2857 0025 3B       		.uleb128 0x3b
 2858 0026 0B       		.uleb128 0xb
 2859 0027 39       		.uleb128 0x39
 2860 0028 0B       		.uleb128 0xb
 2861 0029 49       		.uleb128 0x49
 2862 002a 13       		.uleb128 0x13
 2863 002b 00       		.byte	0
 2864 002c 00       		.byte	0
 2865 002d 04       		.uleb128 0x4
 2866 002e 24       		.uleb128 0x24
 2867 002f 00       		.byte	0
 2868 0030 0B       		.uleb128 0xb
 2869 0031 0B       		.uleb128 0xb
 2870 0032 3E       		.uleb128 0x3e
 2871 0033 0B       		.uleb128 0xb
 2872 0034 03       		.uleb128 0x3
 2873 0035 0E       		.uleb128 0xe
 2874 0036 00       		.byte	0
 2875 0037 00       		.byte	0
 2876 0038 05       		.uleb128 0x5
 2877 0039 35       		.uleb128 0x35
 2878 003a 00       		.byte	0
 2879 003b 49       		.uleb128 0x49
 2880 003c 13       		.uleb128 0x13
 2881 003d 00       		.byte	0
 2882 003e 00       		.byte	0
 2883 003f 06       		.uleb128 0x6
 2884 0040 26       		.uleb128 0x26
 2885 0041 00       		.byte	0
 2886 0042 49       		.uleb128 0x49
 2887 0043 13       		.uleb128 0x13
 2888 0044 00       		.byte	0
 2889 0045 00       		.byte	0
 2890 0046 07       		.uleb128 0x7
 2891 0047 13       		.uleb128 0x13
ARM GAS  /var/folders/l5/0x54b2c10074c8bt31ycjvl80000gp/T//cc2tThBQ.s 			page 52


 2892 0048 01       		.byte	0x1
 2893 0049 03       		.uleb128 0x3
 2894 004a 0E       		.uleb128 0xe
 2895 004b 0B       		.uleb128 0xb
 2896 004c 0B       		.uleb128 0xb
 2897 004d 3A       		.uleb128 0x3a
 2898 004e 0B       		.uleb128 0xb
 2899 004f 3B       		.uleb128 0x3b
 2900 0050 0B       		.uleb128 0xb
 2901 0051 39       		.uleb128 0x39
 2902 0052 0B       		.uleb128 0xb
 2903 0053 01       		.uleb128 0x1
 2904 0054 13       		.uleb128 0x13
 2905 0055 00       		.byte	0
 2906 0056 00       		.byte	0
 2907 0057 08       		.uleb128 0x8
 2908 0058 0D       		.uleb128 0xd
 2909 0059 00       		.byte	0
 2910 005a 03       		.uleb128 0x3
 2911 005b 0E       		.uleb128 0xe
 2912 005c 3A       		.uleb128 0x3a
 2913 005d 0B       		.uleb128 0xb
 2914 005e 3B       		.uleb128 0x3b
 2915 005f 0B       		.uleb128 0xb
 2916 0060 39       		.uleb128 0x39
 2917 0061 0B       		.uleb128 0xb
 2918 0062 49       		.uleb128 0x49
 2919 0063 13       		.uleb128 0x13
 2920 0064 38       		.uleb128 0x38
 2921 0065 0B       		.uleb128 0xb
 2922 0066 00       		.byte	0
 2923 0067 00       		.byte	0
 2924 0068 09       		.uleb128 0x9
 2925 0069 0D       		.uleb128 0xd
 2926 006a 00       		.byte	0
 2927 006b 03       		.uleb128 0x3
 2928 006c 08       		.uleb128 0x8
 2929 006d 3A       		.uleb128 0x3a
 2930 006e 0B       		.uleb128 0xb
 2931 006f 3B       		.uleb128 0x3b
 2932 0070 0B       		.uleb128 0xb
 2933 0071 39       		.uleb128 0x39
 2934 0072 0B       		.uleb128 0xb
 2935 0073 49       		.uleb128 0x49
 2936 0074 13       		.uleb128 0x13
 2937 0075 38       		.uleb128 0x38
 2938 0076 0B       		.uleb128 0xb
 2939 0077 00       		.byte	0
 2940 0078 00       		.byte	0
 2941 0079 0A       		.uleb128 0xa
 2942 007a 13       		.uleb128 0x13
 2943 007b 01       		.byte	0x1
 2944 007c 0B       		.uleb128 0xb
 2945 007d 0B       		.uleb128 0xb
 2946 007e 3A       		.uleb128 0x3a
 2947 007f 0B       		.uleb128 0xb
 2948 0080 3B       		.uleb128 0x3b
ARM GAS  /var/folders/l5/0x54b2c10074c8bt31ycjvl80000gp/T//cc2tThBQ.s 			page 53


 2949 0081 0B       		.uleb128 0xb
 2950 0082 39       		.uleb128 0x39
 2951 0083 0B       		.uleb128 0xb
 2952 0084 01       		.uleb128 0x1
 2953 0085 13       		.uleb128 0x13
 2954 0086 00       		.byte	0
 2955 0087 00       		.byte	0
 2956 0088 0B       		.uleb128 0xb
 2957 0089 0F       		.uleb128 0xf
 2958 008a 00       		.byte	0
 2959 008b 0B       		.uleb128 0xb
 2960 008c 0B       		.uleb128 0xb
 2961 008d 49       		.uleb128 0x49
 2962 008e 13       		.uleb128 0x13
 2963 008f 00       		.byte	0
 2964 0090 00       		.byte	0
 2965 0091 0C       		.uleb128 0xc
 2966 0092 0F       		.uleb128 0xf
 2967 0093 00       		.byte	0
 2968 0094 0B       		.uleb128 0xb
 2969 0095 0B       		.uleb128 0xb
 2970 0096 00       		.byte	0
 2971 0097 00       		.byte	0
 2972 0098 0D       		.uleb128 0xd
 2973 0099 15       		.uleb128 0x15
 2974 009a 01       		.byte	0x1
 2975 009b 27       		.uleb128 0x27
 2976 009c 19       		.uleb128 0x19
 2977 009d 01       		.uleb128 0x1
 2978 009e 13       		.uleb128 0x13
 2979 009f 00       		.byte	0
 2980 00a0 00       		.byte	0
 2981 00a1 0E       		.uleb128 0xe
 2982 00a2 05       		.uleb128 0x5
 2983 00a3 00       		.byte	0
 2984 00a4 49       		.uleb128 0x49
 2985 00a5 13       		.uleb128 0x13
 2986 00a6 00       		.byte	0
 2987 00a7 00       		.byte	0
 2988 00a8 0F       		.uleb128 0xf
 2989 00a9 34       		.uleb128 0x34
 2990 00aa 00       		.byte	0
 2991 00ab 03       		.uleb128 0x3
 2992 00ac 0E       		.uleb128 0xe
 2993 00ad 3A       		.uleb128 0x3a
 2994 00ae 0B       		.uleb128 0xb
 2995 00af 3B       		.uleb128 0x3b
 2996 00b0 0B       		.uleb128 0xb
 2997 00b1 39       		.uleb128 0x39
 2998 00b2 0B       		.uleb128 0xb
 2999 00b3 49       		.uleb128 0x49
 3000 00b4 13       		.uleb128 0x13
 3001 00b5 3F       		.uleb128 0x3f
 3002 00b6 19       		.uleb128 0x19
 3003 00b7 3C       		.uleb128 0x3c
 3004 00b8 19       		.uleb128 0x19
 3005 00b9 00       		.byte	0
ARM GAS  /var/folders/l5/0x54b2c10074c8bt31ycjvl80000gp/T//cc2tThBQ.s 			page 54


 3006 00ba 00       		.byte	0
 3007 00bb 10       		.uleb128 0x10
 3008 00bc 17       		.uleb128 0x17
 3009 00bd 01       		.byte	0x1
 3010 00be 0B       		.uleb128 0xb
 3011 00bf 0B       		.uleb128 0xb
 3012 00c0 3A       		.uleb128 0x3a
 3013 00c1 0B       		.uleb128 0xb
 3014 00c2 3B       		.uleb128 0x3b
 3015 00c3 0B       		.uleb128 0xb
 3016 00c4 39       		.uleb128 0x39
 3017 00c5 0B       		.uleb128 0xb
 3018 00c6 01       		.uleb128 0x1
 3019 00c7 13       		.uleb128 0x13
 3020 00c8 00       		.byte	0
 3021 00c9 00       		.byte	0
 3022 00ca 11       		.uleb128 0x11
 3023 00cb 0D       		.uleb128 0xd
 3024 00cc 00       		.byte	0
 3025 00cd 03       		.uleb128 0x3
 3026 00ce 0E       		.uleb128 0xe
 3027 00cf 3A       		.uleb128 0x3a
 3028 00d0 0B       		.uleb128 0xb
 3029 00d1 3B       		.uleb128 0x3b
 3030 00d2 0B       		.uleb128 0xb
 3031 00d3 39       		.uleb128 0x39
 3032 00d4 0B       		.uleb128 0xb
 3033 00d5 49       		.uleb128 0x49
 3034 00d6 13       		.uleb128 0x13
 3035 00d7 00       		.byte	0
 3036 00d8 00       		.byte	0
 3037 00d9 12       		.uleb128 0x12
 3038 00da 15       		.uleb128 0x15
 3039 00db 01       		.byte	0x1
 3040 00dc 27       		.uleb128 0x27
 3041 00dd 19       		.uleb128 0x19
 3042 00de 49       		.uleb128 0x49
 3043 00df 13       		.uleb128 0x13
 3044 00e0 01       		.uleb128 0x1
 3045 00e1 13       		.uleb128 0x13
 3046 00e2 00       		.byte	0
 3047 00e3 00       		.byte	0
 3048 00e4 13       		.uleb128 0x13
 3049 00e5 01       		.uleb128 0x1
 3050 00e6 01       		.byte	0x1
 3051 00e7 49       		.uleb128 0x49
 3052 00e8 13       		.uleb128 0x13
 3053 00e9 01       		.uleb128 0x1
 3054 00ea 13       		.uleb128 0x13
 3055 00eb 00       		.byte	0
 3056 00ec 00       		.byte	0
 3057 00ed 14       		.uleb128 0x14
 3058 00ee 21       		.uleb128 0x21
 3059 00ef 00       		.byte	0
 3060 00f0 49       		.uleb128 0x49
 3061 00f1 13       		.uleb128 0x13
 3062 00f2 2F       		.uleb128 0x2f
ARM GAS  /var/folders/l5/0x54b2c10074c8bt31ycjvl80000gp/T//cc2tThBQ.s 			page 55


 3063 00f3 0B       		.uleb128 0xb
 3064 00f4 00       		.byte	0
 3065 00f5 00       		.byte	0
 3066 00f6 15       		.uleb128 0x15
 3067 00f7 0D       		.uleb128 0xd
 3068 00f8 00       		.byte	0
 3069 00f9 03       		.uleb128 0x3
 3070 00fa 0E       		.uleb128 0xe
 3071 00fb 3A       		.uleb128 0x3a
 3072 00fc 0B       		.uleb128 0xb
 3073 00fd 3B       		.uleb128 0x3b
 3074 00fe 05       		.uleb128 0x5
 3075 00ff 39       		.uleb128 0x39
 3076 0100 0B       		.uleb128 0xb
 3077 0101 49       		.uleb128 0x49
 3078 0102 13       		.uleb128 0x13
 3079 0103 38       		.uleb128 0x38
 3080 0104 0B       		.uleb128 0xb
 3081 0105 00       		.byte	0
 3082 0106 00       		.byte	0
 3083 0107 16       		.uleb128 0x16
 3084 0108 16       		.uleb128 0x16
 3085 0109 00       		.byte	0
 3086 010a 03       		.uleb128 0x3
 3087 010b 0E       		.uleb128 0xe
 3088 010c 3A       		.uleb128 0x3a
 3089 010d 0B       		.uleb128 0xb
 3090 010e 3B       		.uleb128 0x3b
 3091 010f 05       		.uleb128 0x5
 3092 0110 39       		.uleb128 0x39
 3093 0111 0B       		.uleb128 0xb
 3094 0112 49       		.uleb128 0x49
 3095 0113 13       		.uleb128 0x13
 3096 0114 00       		.byte	0
 3097 0115 00       		.byte	0
 3098 0116 17       		.uleb128 0x17
 3099 0117 13       		.uleb128 0x13
 3100 0118 00       		.byte	0
 3101 0119 0B       		.uleb128 0xb
 3102 011a 0B       		.uleb128 0xb
 3103 011b 3A       		.uleb128 0x3a
 3104 011c 0B       		.uleb128 0xb
 3105 011d 3B       		.uleb128 0x3b
 3106 011e 0B       		.uleb128 0xb
 3107 011f 39       		.uleb128 0x39
 3108 0120 0B       		.uleb128 0xb
 3109 0121 00       		.byte	0
 3110 0122 00       		.byte	0
 3111 0123 18       		.uleb128 0x18
 3112 0124 04       		.uleb128 0x4
 3113 0125 01       		.byte	0x1
 3114 0126 3E       		.uleb128 0x3e
 3115 0127 0B       		.uleb128 0xb
 3116 0128 0B       		.uleb128 0xb
 3117 0129 0B       		.uleb128 0xb
 3118 012a 49       		.uleb128 0x49
 3119 012b 13       		.uleb128 0x13
ARM GAS  /var/folders/l5/0x54b2c10074c8bt31ycjvl80000gp/T//cc2tThBQ.s 			page 56


 3120 012c 3A       		.uleb128 0x3a
 3121 012d 0B       		.uleb128 0xb
 3122 012e 3B       		.uleb128 0x3b
 3123 012f 0B       		.uleb128 0xb
 3124 0130 39       		.uleb128 0x39
 3125 0131 0B       		.uleb128 0xb
 3126 0132 01       		.uleb128 0x1
 3127 0133 13       		.uleb128 0x13
 3128 0134 00       		.byte	0
 3129 0135 00       		.byte	0
 3130 0136 19       		.uleb128 0x19
 3131 0137 28       		.uleb128 0x28
 3132 0138 00       		.byte	0
 3133 0139 03       		.uleb128 0x3
 3134 013a 0E       		.uleb128 0xe
 3135 013b 1C       		.uleb128 0x1c
 3136 013c 0B       		.uleb128 0xb
 3137 013d 00       		.byte	0
 3138 013e 00       		.byte	0
 3139 013f 1A       		.uleb128 0x1a
 3140 0140 34       		.uleb128 0x34
 3141 0141 00       		.byte	0
 3142 0142 03       		.uleb128 0x3
 3143 0143 08       		.uleb128 0x8
 3144 0144 3A       		.uleb128 0x3a
 3145 0145 0B       		.uleb128 0xb
 3146 0146 3B       		.uleb128 0x3b
 3147 0147 0B       		.uleb128 0xb
 3148 0148 39       		.uleb128 0x39
 3149 0149 0B       		.uleb128 0xb
 3150 014a 49       		.uleb128 0x49
 3151 014b 13       		.uleb128 0x13
 3152 014c 3F       		.uleb128 0x3f
 3153 014d 19       		.uleb128 0x19
 3154 014e 3C       		.uleb128 0x3c
 3155 014f 19       		.uleb128 0x19
 3156 0150 00       		.byte	0
 3157 0151 00       		.byte	0
 3158 0152 1B       		.uleb128 0x1b
 3159 0153 26       		.uleb128 0x26
 3160 0154 00       		.byte	0
 3161 0155 00       		.byte	0
 3162 0156 00       		.byte	0
 3163 0157 1C       		.uleb128 0x1c
 3164 0158 34       		.uleb128 0x34
 3165 0159 00       		.byte	0
 3166 015a 03       		.uleb128 0x3
 3167 015b 0E       		.uleb128 0xe
 3168 015c 3A       		.uleb128 0x3a
 3169 015d 0B       		.uleb128 0xb
 3170 015e 3B       		.uleb128 0x3b
 3171 015f 0B       		.uleb128 0xb
 3172 0160 39       		.uleb128 0x39
 3173 0161 0B       		.uleb128 0xb
 3174 0162 49       		.uleb128 0x49
 3175 0163 13       		.uleb128 0x13
 3176 0164 02       		.uleb128 0x2
ARM GAS  /var/folders/l5/0x54b2c10074c8bt31ycjvl80000gp/T//cc2tThBQ.s 			page 57


 3177 0165 18       		.uleb128 0x18
 3178 0166 00       		.byte	0
 3179 0167 00       		.byte	0
 3180 0168 1D       		.uleb128 0x1d
 3181 0169 2E       		.uleb128 0x2e
 3182 016a 01       		.byte	0x1
 3183 016b 3F       		.uleb128 0x3f
 3184 016c 19       		.uleb128 0x19
 3185 016d 03       		.uleb128 0x3
 3186 016e 0E       		.uleb128 0xe
 3187 016f 3A       		.uleb128 0x3a
 3188 0170 0B       		.uleb128 0xb
 3189 0171 3B       		.uleb128 0x3b
 3190 0172 0B       		.uleb128 0xb
 3191 0173 39       		.uleb128 0x39
 3192 0174 0B       		.uleb128 0xb
 3193 0175 27       		.uleb128 0x27
 3194 0176 19       		.uleb128 0x19
 3195 0177 49       		.uleb128 0x49
 3196 0178 13       		.uleb128 0x13
 3197 0179 11       		.uleb128 0x11
 3198 017a 01       		.uleb128 0x1
 3199 017b 12       		.uleb128 0x12
 3200 017c 06       		.uleb128 0x6
 3201 017d 40       		.uleb128 0x40
 3202 017e 18       		.uleb128 0x18
 3203 017f 9742     		.uleb128 0x2117
 3204 0181 19       		.uleb128 0x19
 3205 0182 01       		.uleb128 0x1
 3206 0183 13       		.uleb128 0x13
 3207 0184 00       		.byte	0
 3208 0185 00       		.byte	0
 3209 0186 1E       		.uleb128 0x1e
 3210 0187 898201   		.uleb128 0x4109
 3211 018a 00       		.byte	0
 3212 018b 11       		.uleb128 0x11
 3213 018c 01       		.uleb128 0x1
 3214 018d 31       		.uleb128 0x31
 3215 018e 13       		.uleb128 0x13
 3216 018f 00       		.byte	0
 3217 0190 00       		.byte	0
 3218 0191 1F       		.uleb128 0x1f
 3219 0192 898201   		.uleb128 0x4109
 3220 0195 01       		.byte	0x1
 3221 0196 11       		.uleb128 0x11
 3222 0197 01       		.uleb128 0x1
 3223 0198 31       		.uleb128 0x31
 3224 0199 13       		.uleb128 0x13
 3225 019a 01       		.uleb128 0x1
 3226 019b 13       		.uleb128 0x13
 3227 019c 00       		.byte	0
 3228 019d 00       		.byte	0
 3229 019e 20       		.uleb128 0x20
 3230 019f 8A8201   		.uleb128 0x410a
 3231 01a2 00       		.byte	0
 3232 01a3 02       		.uleb128 0x2
 3233 01a4 18       		.uleb128 0x18
ARM GAS  /var/folders/l5/0x54b2c10074c8bt31ycjvl80000gp/T//cc2tThBQ.s 			page 58


 3234 01a5 9142     		.uleb128 0x2111
 3235 01a7 18       		.uleb128 0x18
 3236 01a8 00       		.byte	0
 3237 01a9 00       		.byte	0
 3238 01aa 21       		.uleb128 0x21
 3239 01ab 2E       		.uleb128 0x2e
 3240 01ac 01       		.byte	0x1
 3241 01ad 03       		.uleb128 0x3
 3242 01ae 0E       		.uleb128 0xe
 3243 01af 3A       		.uleb128 0x3a
 3244 01b0 0B       		.uleb128 0xb
 3245 01b1 3B       		.uleb128 0x3b
 3246 01b2 0B       		.uleb128 0xb
 3247 01b3 39       		.uleb128 0x39
 3248 01b4 0B       		.uleb128 0xb
 3249 01b5 27       		.uleb128 0x27
 3250 01b6 19       		.uleb128 0x19
 3251 01b7 49       		.uleb128 0x49
 3252 01b8 13       		.uleb128 0x13
 3253 01b9 11       		.uleb128 0x11
 3254 01ba 01       		.uleb128 0x1
 3255 01bb 12       		.uleb128 0x12
 3256 01bc 06       		.uleb128 0x6
 3257 01bd 40       		.uleb128 0x40
 3258 01be 18       		.uleb128 0x18
 3259 01bf 9742     		.uleb128 0x2117
 3260 01c1 19       		.uleb128 0x19
 3261 01c2 01       		.uleb128 0x1
 3262 01c3 13       		.uleb128 0x13
 3263 01c4 00       		.byte	0
 3264 01c5 00       		.byte	0
 3265 01c6 22       		.uleb128 0x22
 3266 01c7 05       		.uleb128 0x5
 3267 01c8 00       		.byte	0
 3268 01c9 03       		.uleb128 0x3
 3269 01ca 08       		.uleb128 0x8
 3270 01cb 3A       		.uleb128 0x3a
 3271 01cc 0B       		.uleb128 0xb
 3272 01cd 3B       		.uleb128 0x3b
 3273 01ce 0B       		.uleb128 0xb
 3274 01cf 39       		.uleb128 0x39
 3275 01d0 0B       		.uleb128 0xb
 3276 01d1 49       		.uleb128 0x49
 3277 01d2 13       		.uleb128 0x13
 3278 01d3 02       		.uleb128 0x2
 3279 01d4 17       		.uleb128 0x17
 3280 01d5 B742     		.uleb128 0x2137
 3281 01d7 17       		.uleb128 0x17
 3282 01d8 00       		.byte	0
 3283 01d9 00       		.byte	0
 3284 01da 23       		.uleb128 0x23
 3285 01db 34       		.uleb128 0x34
 3286 01dc 00       		.byte	0
 3287 01dd 03       		.uleb128 0x3
 3288 01de 0E       		.uleb128 0xe
 3289 01df 3A       		.uleb128 0x3a
 3290 01e0 0B       		.uleb128 0xb
ARM GAS  /var/folders/l5/0x54b2c10074c8bt31ycjvl80000gp/T//cc2tThBQ.s 			page 59


 3291 01e1 3B       		.uleb128 0x3b
 3292 01e2 0B       		.uleb128 0xb
 3293 01e3 39       		.uleb128 0x39
 3294 01e4 0B       		.uleb128 0xb
 3295 01e5 49       		.uleb128 0x49
 3296 01e6 13       		.uleb128 0x13
 3297 01e7 02       		.uleb128 0x2
 3298 01e8 17       		.uleb128 0x17
 3299 01e9 B742     		.uleb128 0x2137
 3300 01eb 17       		.uleb128 0x17
 3301 01ec 00       		.byte	0
 3302 01ed 00       		.byte	0
 3303 01ee 24       		.uleb128 0x24
 3304 01ef 898201   		.uleb128 0x4109
 3305 01f2 01       		.byte	0x1
 3306 01f3 11       		.uleb128 0x11
 3307 01f4 01       		.uleb128 0x1
 3308 01f5 31       		.uleb128 0x31
 3309 01f6 13       		.uleb128 0x13
 3310 01f7 00       		.byte	0
 3311 01f8 00       		.byte	0
 3312 01f9 25       		.uleb128 0x25
 3313 01fa 2E       		.uleb128 0x2e
 3314 01fb 00       		.byte	0
 3315 01fc 3F       		.uleb128 0x3f
 3316 01fd 19       		.uleb128 0x19
 3317 01fe 3C       		.uleb128 0x3c
 3318 01ff 19       		.uleb128 0x19
 3319 0200 6E       		.uleb128 0x6e
 3320 0201 0E       		.uleb128 0xe
 3321 0202 03       		.uleb128 0x3
 3322 0203 0E       		.uleb128 0xe
 3323 0204 3A       		.uleb128 0x3a
 3324 0205 0B       		.uleb128 0xb
 3325 0206 3B       		.uleb128 0x3b
 3326 0207 0B       		.uleb128 0xb
 3327 0208 39       		.uleb128 0x39
 3328 0209 0B       		.uleb128 0xb
 3329 020a 00       		.byte	0
 3330 020b 00       		.byte	0
 3331 020c 26       		.uleb128 0x26
 3332 020d 2E       		.uleb128 0x2e
 3333 020e 00       		.byte	0
 3334 020f 3F       		.uleb128 0x3f
 3335 0210 19       		.uleb128 0x19
 3336 0211 3C       		.uleb128 0x3c
 3337 0212 19       		.uleb128 0x19
 3338 0213 6E       		.uleb128 0x6e
 3339 0214 0E       		.uleb128 0xe
 3340 0215 03       		.uleb128 0x3
 3341 0216 0E       		.uleb128 0xe
 3342 0217 3A       		.uleb128 0x3a
 3343 0218 0B       		.uleb128 0xb
 3344 0219 3B       		.uleb128 0x3b
 3345 021a 05       		.uleb128 0x5
 3346 021b 39       		.uleb128 0x39
 3347 021c 0B       		.uleb128 0xb
ARM GAS  /var/folders/l5/0x54b2c10074c8bt31ycjvl80000gp/T//cc2tThBQ.s 			page 60


 3348 021d 00       		.byte	0
 3349 021e 00       		.byte	0
 3350 021f 00       		.byte	0
 3351              		.section	.debug_loc,"",%progbits
 3352              	.Ldebug_loc0:
 3353              	.LVUS0:
 3354 0000 00       		.uleb128 0
 3355 0001 00       		.uleb128 .LVU11
 3356 0002 00       		.uleb128 .LVU11
 3357 0003 00       		.uleb128 0
 3358              	.LLST0:
 3359 0004 00000000 		.4byte	.LVL0
 3360 0008 24000000 		.4byte	.LVL2
 3361 000c 0100     		.2byte	0x1
 3362 000e 50       		.byte	0x50
 3363 000f 24000000 		.4byte	.LVL2
 3364 0013 C8000000 		.4byte	.LFE7
 3365 0017 0400     		.2byte	0x4
 3366 0019 F3       		.byte	0xf3
 3367 001a 01       		.uleb128 0x1
 3368 001b 50       		.byte	0x50
 3369 001c 9F       		.byte	0x9f
 3370 001d 00000000 		.4byte	0
 3371 0021 00000000 		.4byte	0
 3372              	.LVUS1:
 3373 0025 01       		.uleb128 .LVU10
 3374 0026 00       		.uleb128 .LVU11
 3375 0027 00       		.uleb128 .LVU11
 3376 0028 00       		.uleb128 .LVU23
 3377 0029 00       		.uleb128 .LVU25
 3378 002a 00       		.uleb128 0
 3379              	.LLST1:
 3380 002b 20000000 		.4byte	.LVL1
 3381 002f 24000000 		.4byte	.LVL2
 3382 0033 0200     		.2byte	0x2
 3383 0035 30       		.byte	0x30
 3384 0036 9F       		.byte	0x9f
 3385 0037 24000000 		.4byte	.LVL2
 3386 003b A8000000 		.4byte	.LVL12
 3387 003f 0100     		.2byte	0x1
 3388 0041 55       		.byte	0x55
 3389 0042 B0000000 		.4byte	.LVL13
 3390 0046 C8000000 		.4byte	.LFE7
 3391 004a 0100     		.2byte	0x1
 3392 004c 55       		.byte	0x55
 3393 004d 00000000 		.4byte	0
 3394 0051 00000000 		.4byte	0
 3395              		.section	.debug_aranges,"",%progbits
 3396 0000 24000000 		.4byte	0x24
 3397 0004 0200     		.2byte	0x2
 3398 0006 00000000 		.4byte	.Ldebug_info0
 3399 000a 04       		.byte	0x4
 3400 000b 00       		.byte	0
 3401 000c 0000     		.2byte	0
 3402 000e 0000     		.2byte	0
 3403 0010 00000000 		.4byte	.LFB7
 3404 0014 C8000000 		.4byte	.LFE7-.LFB7
ARM GAS  /var/folders/l5/0x54b2c10074c8bt31ycjvl80000gp/T//cc2tThBQ.s 			page 61


 3405 0018 00000000 		.4byte	.LFB8
 3406 001c 10010000 		.4byte	.LFE8-.LFB8
 3407 0020 00000000 		.4byte	0
 3408 0024 00000000 		.4byte	0
 3409              		.section	.debug_ranges,"",%progbits
 3410              	.Ldebug_ranges0:
 3411 0000 00000000 		.4byte	.LFB7
 3412 0004 C8000000 		.4byte	.LFE7
 3413 0008 00000000 		.4byte	.LFB8
 3414 000c 10010000 		.4byte	.LFE8
 3415 0010 00000000 		.4byte	0
 3416 0014 00000000 		.4byte	0
 3417              		.section	.debug_line,"",%progbits
 3418              	.Ldebug_line0:
 3419 0000 AB030000 		.section	.debug_str,"MS",%progbits,1
 3419      0300C402 
 3419      00000201 
 3419      FB0E0D00 
 3419      01010101 
 3420              	.LASF208:
 3421 0000 63684F51 		.ascii	"chOQPutTimeout\000"
 3421      50757454 
 3421      696D656F 
 3421      757400
 3422              	.LASF96:
 3423 000f 63665F6F 		.ascii	"cf_off_older\000"
 3423      66665F6F 
 3423      6C646572 
 3423      00
 3424              	.LASF42:
 3425 001c 705F6D73 		.ascii	"p_msg\000"
 3425      6700
 3426              	.LASF2:
 3427 0022 73697A65 		.ascii	"size_t\000"
 3427      5F7400
 3428              	.LASF81:
 3429 0029 7264796D 		.ascii	"rdymsg\000"
 3429      736700
 3430              	.LASF119:
 3431 0030 77726974 		.ascii	"write\000"
 3431      6500
 3432              	.LASF117:
 3433 0036 4F757470 		.ascii	"OutputQueue\000"
 3433      75745175 
 3433      65756500 
 3434              	.LASF3:
 3435 0042 5F5F7569 		.ascii	"__uint8_t\000"
 3435      6E74385F 
 3435      7400
 3436              	.LASF185:
 3437 004c 5350495F 		.ascii	"SPI_ACTIVE\000"
 3437      41435449 
 3437      564500
 3438              	.LASF68:
 3439 0057 76746C69 		.ascii	"vtlist\000"
 3439      737400
 3440              	.LASF123:
ARM GAS  /var/folders/l5/0x54b2c10074c8bt31ycjvl80000gp/T//cc2tThBQ.s 			page 62


 3441 005e 62736364 		.ascii	"bscdevice_t\000"
 3441      65766963 
 3441      655F7400 
 3442              	.LASF161:
 3443 006a 72786275 		.ascii	"rxbuf\000"
 3443      6600
 3444              	.LASF110:
 3445 0070 715F746F 		.ascii	"q_top\000"
 3445      7000
 3446              	.LASF13:
 3447 0076 6C6F6E67 		.ascii	"long long unsigned int\000"
 3447      206C6F6E 
 3447      6720756E 
 3447      7369676E 
 3447      65642069 
 3448              	.LASF92:
 3449 008d 63685F74 		.ascii	"ch_threadsize\000"
 3449      68726561 
 3449      6473697A 
 3449      6500
 3450              	.LASF82:
 3451 009b 65786974 		.ascii	"exitcode\000"
 3451      636F6465 
 3451      00
 3452              	.LASF188:
 3453 00a4 53504944 		.ascii	"SPIDriver\000"
 3453      72697665 
 3453      7200
 3454              	.LASF128:
 3455 00ae 64617461 		.ascii	"dataFifo\000"
 3455      4669666F 
 3455      00
 3456              	.LASF204:
 3457 00b7 68616C49 		.ascii	"halInit\000"
 3457      6E697400 
 3458              	.LASF30:
 3459 00bf 705F7072 		.ascii	"p_prio\000"
 3459      696F00
 3460              	.LASF99:
 3461 00c6 63665F6F 		.ascii	"cf_off_state\000"
 3461      66665F73 
 3461      74617465 
 3461      00
 3462              	.LASF181:
 3463 00d3 72656164 		.ascii	"readt\000"
 3463      7400
 3464              	.LASF154:
 3465 00d9 64657669 		.ascii	"device\000"
 3465      636500
 3466              	.LASF107:
 3467 00e0 715F7761 		.ascii	"q_waiting\000"
 3467      6974696E 
 3467      6700
 3468              	.LASF12:
 3469 00ea 6C6F6E67 		.ascii	"long long int\000"
 3469      206C6F6E 
 3469      6720696E 
ARM GAS  /var/folders/l5/0x54b2c10074c8bt31ycjvl80000gp/T//cc2tThBQ.s 			page 63


 3469      7400
 3470              	.LASF1:
 3471 00f8 7369676E 		.ascii	"signed char\000"
 3471      65642063 
 3471      68617200 
 3472              	.LASF98:
 3473 0104 63665F6F 		.ascii	"cf_off_stklimit\000"
 3473      66665F73 
 3473      746B6C69 
 3473      6D697400 
 3474              	.LASF183:
 3475 0114 5350495F 		.ascii	"SPI_STOP\000"
 3475      53544F50 
 3475      00
 3476              	.LASF100:
 3477 011d 63665F6F 		.ascii	"cf_off_flags\000"
 3477      66665F66 
 3477      6C616773 
 3477      00
 3478              	.LASF170:
 3479 012a 53445F53 		.ascii	"SD_STOP\000"
 3479      544F5000 
 3480              	.LASF71:
 3481 0132 6D5F7175 		.ascii	"m_queue\000"
 3481      65756500 
 3482              	.LASF157:
 3483 013a 61646472 		.ascii	"addr\000"
 3483      00
 3484              	.LASF21:
 3485 013f 74736C69 		.ascii	"tslices_t\000"
 3485      6365735F 
 3485      7400
 3486              	.LASF143:
 3487 0149 4932435F 		.ascii	"I2C_UNINIT\000"
 3487      554E494E 
 3487      495400
 3488              	.LASF165:
 3489 0154 69326361 		.ascii	"i2caddr_t\000"
 3489      6464725F 
 3489      7400
 3490              	.LASF151:
 3491 015e 73746174 		.ascii	"state\000"
 3491      6500
 3492              	.LASF9:
 3493 0164 6C6F6E67 		.ascii	"long int\000"
 3493      20696E74 
 3493      00
 3494              	.LASF19:
 3495 016d 74737461 		.ascii	"tstate_t\000"
 3495      74655F74 
 3495      00
 3496              	.LASF156:
 3497 0176 74687265 		.ascii	"thread\000"
 3497      616400
 3498              	.LASF130:
 3499 017d 64617461 		.ascii	"dataDelay\000"
 3499      44656C61 
ARM GAS  /var/folders/l5/0x54b2c10074c8bt31ycjvl80000gp/T//cc2tThBQ.s 			page 64


 3499      7900
 3500              	.LASF163:
 3501 0187 72786964 		.ascii	"rxidx\000"
 3501      7800
 3502              	.LASF109:
 3503 018d 715F6275 		.ascii	"q_buffer\000"
 3503      66666572 
 3503      00
 3504              	.LASF15:
 3505 0196 75696E74 		.ascii	"uint16_t\000"
 3505      31365F74 
 3505      00
 3506              	.LASF201:
 3507 019f 53504930 		.ascii	"SPI0\000"
 3507      00
 3508              	.LASF104:
 3509 01a4 63686465 		.ascii	"chdebug_t\000"
 3509      6275675F 
 3509      7400
 3510              	.LASF146:
 3511 01ae 4932435F 		.ascii	"I2C_ACTIVE_TX\000"
 3511      41435449 
 3511      56455F54 
 3511      5800
 3512              	.LASF198:
 3513 01bc 636C6F63 		.ascii	"clock_phase\000"
 3513      6B5F7068 
 3513      61736500 
 3514              	.LASF32:
 3515 01c8 705F6E65 		.ascii	"p_newer\000"
 3515      77657200 
 3516              	.LASF122:
 3517 01d0 5F69646C 		.ascii	"_idle_thread_wa\000"
 3517      655F7468 
 3517      72656164 
 3517      5F776100 
 3518              	.LASF191:
 3519 01e0 656E645F 		.ascii	"end_cb\000"
 3519      636200
 3520              	.LASF216:
 3521 01e7 54687265 		.ascii	"Thread_LCD\000"
 3521      61645F4C 
 3521      434400
 3522              	.LASF189:
 3523 01f2 7478636E 		.ascii	"txcnt\000"
 3523      7400
 3524              	.LASF195:
 3525 01f8 63686970 		.ascii	"chip_select_polarity0\000"
 3525      5F73656C 
 3525      6563745F 
 3525      706F6C61 
 3525      72697479 
 3526              	.LASF196:
 3527 020e 63686970 		.ascii	"chip_select_polarity1\000"
 3527      5F73656C 
 3527      6563745F 
 3527      706F6C61 
ARM GAS  /var/folders/l5/0x54b2c10074c8bt31ycjvl80000gp/T//cc2tThBQ.s 			page 65


 3527      72697479 
 3528              	.LASF124:
 3529 0224 636F6E74 		.ascii	"control\000"
 3529      726F6C00 
 3530              	.LASF10:
 3531 022c 5F5F7569 		.ascii	"__uint32_t\000"
 3531      6E743332 
 3531      5F7400
 3532              	.LASF49:
 3533 0237 72656761 		.ascii	"regarm_t\000"
 3533      726D5F74 
 3533      00
 3534              	.LASF55:
 3535 0240 76745F70 		.ascii	"vt_prev\000"
 3535      72657600 
 3536              	.LASF127:
 3537 0248 736C6176 		.ascii	"slaveAddress\000"
 3537      65416464 
 3537      72657373 
 3537      00
 3538              	.LASF190:
 3539 0255 73706963 		.ascii	"spicallback_t\000"
 3539      616C6C62 
 3539      61636B5F 
 3539      7400
 3540              	.LASF168:
 3541 0263 49324330 		.ascii	"I2C0\000"
 3541      00
 3542              	.LASF79:
 3543 0268 4576656E 		.ascii	"EventSource\000"
 3543      74536F75 
 3543      72636500 
 3544              	.LASF121:
 3545 0274 42617365 		.ascii	"BaseSequentialStream\000"
 3545      53657175 
 3545      656E7469 
 3545      616C5374 
 3545      7265616D 
 3546              	.LASF207:
 3547 0289 63687072 		.ascii	"chprintf\000"
 3547      696E7466 
 3547      00
 3548              	.LASF0:
 3549 0292 756E7369 		.ascii	"unsigned int\000"
 3549      676E6564 
 3549      20696E74 
 3549      00
 3550              	.LASF203:
 3551 029f 69746572 		.ascii	"iteration\000"
 3551      6174696F 
 3551      6E00
 3552              	.LASF54:
 3553 02a9 76745F6E 		.ascii	"vt_next\000"
 3553      65787400 
 3554              	.LASF158:
 3555 02b1 74786275 		.ascii	"txbuf\000"
 3555      6600
ARM GAS  /var/folders/l5/0x54b2c10074c8bt31ycjvl80000gp/T//cc2tThBQ.s 			page 66


 3556              	.LASF177:
 3557 02b7 53657269 		.ascii	"SerialDriverVMT\000"
 3557      616C4472 
 3557      69766572 
 3557      564D5400 
 3558              	.LASF153:
 3559 02c7 6572726F 		.ascii	"errors\000"
 3559      727300
 3560              	.LASF175:
 3561 02ce 69717565 		.ascii	"iqueue\000"
 3561      756500
 3562              	.LASF11:
 3563 02d5 6C6F6E67 		.ascii	"long unsigned int\000"
 3563      20756E73 
 3563      69676E65 
 3563      6420696E 
 3563      7400
 3564              	.LASF105:
 3565 02e7 63685F64 		.ascii	"ch_debug\000"
 3565      65627567 
 3565      00
 3566              	.LASF179:
 3567 02f0 67657474 		.ascii	"gett\000"
 3567      00
 3568              	.LASF52:
 3569 02f5 76746675 		.ascii	"vtfunc_t\000"
 3569      6E635F74 
 3569      00
 3570              	.LASF86:
 3571 02fe 63685F69 		.ascii	"ch_identifier\000"
 3571      64656E74 
 3571      69666965 
 3571      7200
 3572              	.LASF194:
 3573 030c 63686970 		.ascii	"chip_select_polarity\000"
 3573      5F73656C 
 3573      6563745F 
 3573      706F6C61 
 3573      72697479 
 3574              	.LASF174:
 3575 0321 6576656E 		.ascii	"event\000"
 3575      7400
 3576              	.LASF51:
 3577 0327 636F6E74 		.ascii	"context\000"
 3577      65787400 
 3578              	.LASF7:
 3579 032f 73686F72 		.ascii	"short unsigned int\000"
 3579      7420756E 
 3579      7369676E 
 3579      65642069 
 3579      6E7400
 3580              	.LASF138:
 3581 0342 6770696F 		.ascii	"gpio_port_t\000"
 3581      5F706F72 
 3581      745F7400 
 3582              	.LASF134:
 3583 034e 6770636C 		.ascii	"gpclr\000"
ARM GAS  /var/folders/l5/0x54b2c10074c8bt31ycjvl80000gp/T//cc2tThBQ.s 			page 67


 3583      7200
 3584              	.LASF23:
 3585 0354 6D73675F 		.ascii	"msg_t\000"
 3585      7400
 3586              	.LASF176:
 3587 035a 6F717565 		.ascii	"oqueue\000"
 3587      756500
 3588              	.LASF64:
 3589 0361 725F6E65 		.ascii	"r_newer\000"
 3589      77657200 
 3590              	.LASF75:
 3591 0369 656C5F6E 		.ascii	"el_next\000"
 3591      65787400 
 3592              	.LASF212:
 3593 0371 474E5520 		.ascii	"GNU C17 8.3.1 20190703 (release) [gcc-8-branch revi"
 3593      43313720 
 3593      382E332E 
 3593      31203230 
 3593      31393037 
 3594 03a4 73696F6E 		.ascii	"sion 273027] -mcpu=arm1176jz-s -mno-thumb-interwork"
 3594      20323733 
 3594      3032375D 
 3594      202D6D63 
 3594      70753D61 
 3595 03d7 202D6D66 		.ascii	" -mfloat-abi=soft -marm -march=armv6kz -ggdb -O2 -f"
 3595      6C6F6174 
 3595      2D616269 
 3595      3D736F66 
 3595      74202D6D 
 3596 040a 6F6D6974 		.ascii	"omit-frame-pointer -ffunction-sections -fdata-secti"
 3596      2D667261 
 3596      6D652D70 
 3596      6F696E74 
 3596      6572202D 
 3597 043d 6F6E7300 		.ascii	"ons\000"
 3598              	.LASF213:
 3599 0441 6D61696E 		.ascii	"main.c\000"
 3599      2E6300
 3600              	.LASF180:
 3601 0448 77726974 		.ascii	"writet\000"
 3601      657400
 3602              	.LASF205:
 3603 044f 63685379 		.ascii	"chSysInit\000"
 3603      73496E69 
 3603      7400
 3604              	.LASF18:
 3605 0459 746D6F64 		.ascii	"tmode_t\000"
 3605      655F7400 
 3606              	.LASF47:
 3607 0461 54687265 		.ascii	"ThreadsList\000"
 3607      6164734C 
 3607      69737400 
 3608              	.LASF24:
 3609 046d 6576656E 		.ascii	"eventmask_t\000"
 3609      746D6173 
 3609      6B5F7400 
 3610              	.LASF116:
ARM GAS  /var/folders/l5/0x54b2c10074c8bt31ycjvl80000gp/T//cc2tThBQ.s 			page 68


 3611 0479 496E7075 		.ascii	"InputQueue\000"
 3611      74517565 
 3611      756500
 3612              	.LASF70:
 3613 0484 4D757465 		.ascii	"Mutex\000"
 3613      7800
 3614              	.LASF202:
 3615 048a 77615468 		.ascii	"waThread_LCD\000"
 3615      72656164 
 3615      5F4C4344 
 3615      00
 3616              	.LASF106:
 3617 0497 47656E65 		.ascii	"GenericQueue\000"
 3617      72696351 
 3617      75657565 
 3617      00
 3618              	.LASF48:
 3619 04a4 73746B61 		.ascii	"stkalign_t\000"
 3619      6C69676E 
 3619      5F7400
 3620              	.LASF210:
 3621 04af 63685468 		.ascii	"chThdCreateStatic\000"
 3621      64437265 
 3621      61746553 
 3621      74617469 
 3621      6300
 3622              	.LASF87:
 3623 04c1 63685F7A 		.ascii	"ch_zero\000"
 3623      65726F00 
 3624              	.LASF101:
 3625 04c9 63665F6F 		.ascii	"cf_off_refs\000"
 3625      66665F72 
 3625      65667300 
 3626              	.LASF135:
 3627 04d5 67706C65 		.ascii	"gplev\000"
 3627      7600
 3628              	.LASF178:
 3629 04db 70757474 		.ascii	"putt\000"
 3629      00
 3630              	.LASF56:
 3631 04e0 76745F74 		.ascii	"vt_time\000"
 3631      696D6500 
 3632              	.LASF144:
 3633 04e8 4932435F 		.ascii	"I2C_STOP\000"
 3633      53544F50 
 3633      00
 3634              	.LASF129:
 3635 04f1 636C6F63 		.ascii	"clockDivider\000"
 3635      6B446976 
 3635      69646572 
 3635      00
 3636              	.LASF108:
 3637 04fe 715F636F 		.ascii	"q_counter\000"
 3637      756E7465 
 3637      7200
 3638              	.LASF57:
 3639 0508 76745F66 		.ascii	"vt_func\000"
ARM GAS  /var/folders/l5/0x54b2c10074c8bt31ycjvl80000gp/T//cc2tThBQ.s 			page 69


 3639      756E6300 
 3640              	.LASF91:
 3641 0510 63685F74 		.ascii	"ch_timesize\000"
 3641      696D6573 
 3641      697A6500 
 3642              	.LASF215:
 3643 051c 6D61696E 		.ascii	"main\000"
 3643      00
 3644              	.LASF166:
 3645 0521 69635F73 		.ascii	"ic_speed\000"
 3645      70656564 
 3645      00
 3646              	.LASF97:
 3647 052a 63665F6F 		.ascii	"cf_off_name\000"
 3647      66665F6E 
 3647      616D6500 
 3648              	.LASF33:
 3649 0536 705F6F6C 		.ascii	"p_older\000"
 3649      64657200 
 3650              	.LASF162:
 3651 053e 72786279 		.ascii	"rxbytes\000"
 3651      74657300 
 3652              	.LASF111:
 3653 0546 715F7772 		.ascii	"q_wrptr\000"
 3653      70747200 
 3654              	.LASF63:
 3655 054e 725F6374 		.ascii	"r_ctx\000"
 3655      7800
 3656              	.LASF46:
 3657 0554 54687265 		.ascii	"ThreadsQueue\000"
 3657      61647351 
 3657      75657565 
 3657      00
 3658              	.LASF214:
 3659 0561 2F557365 		.ascii	"/Users/fernandoguirado/Desktop/Chibi/ChibiOS-RPi/de"
 3659      72732F66 
 3659      65726E61 
 3659      6E646F67 
 3659      75697261 
 3660 0594 6D6F732F 		.ascii	"mos/Serial_LCD\000"
 3660      53657269 
 3660      616C5F4C 
 3660      434400
 3661              	.LASF88:
 3662 05a3 63685F73 		.ascii	"ch_size\000"
 3662      697A6500 
 3663              	.LASF140:
 3664 05ab 494F504F 		.ascii	"IOPORT0\000"
 3664      52543000 
 3665              	.LASF66:
 3666 05b3 725F6375 		.ascii	"r_current\000"
 3666      7272656E 
 3666      7400
 3667              	.LASF65:
 3668 05bd 725F6F6C 		.ascii	"r_older\000"
 3668      64657200 
 3669              	.LASF77:
ARM GAS  /var/folders/l5/0x54b2c10074c8bt31ycjvl80000gp/T//cc2tThBQ.s 			page 70


 3670 05c5 656C5F6D 		.ascii	"el_mask\000"
 3670      61736B00 
 3671              	.LASF209:
 3672 05cd 63685468 		.ascii	"chThdSleep\000"
 3672      64536C65 
 3672      657000
 3673              	.LASF133:
 3674 05d8 67707365 		.ascii	"gpset\000"
 3674      7400
 3675              	.LASF136:
 3676 05de 67707075 		.ascii	"gppudclk\000"
 3676      64636C6B 
 3676      00
 3677              	.LASF192:
 3678 05e7 6C6F7373 		.ascii	"lossiEnabled\000"
 3678      69456E61 
 3678      626C6564 
 3678      00
 3679              	.LASF193:
 3680 05f4 63686970 		.ascii	"chip_select\000"
 3680      5F73656C 
 3680      65637400 
 3681              	.LASF20:
 3682 0600 74726566 		.ascii	"trefs_t\000"
 3682      735F7400 
 3683              	.LASF149:
 3684 0608 69326373 		.ascii	"i2cstate_t\000"
 3684      74617465 
 3684      5F7400
 3685              	.LASF90:
 3686 0613 63685F70 		.ascii	"ch_ptrsize\000"
 3686      74727369 
 3686      7A6500
 3687              	.LASF115:
 3688 061e 716E6F74 		.ascii	"qnotify_t\000"
 3688      6966795F 
 3688      7400
 3689              	.LASF29:
 3690 0628 705F7072 		.ascii	"p_prev\000"
 3690      657600
 3691              	.LASF22:
 3692 062f 74707269 		.ascii	"tprio_t\000"
 3692      6F5F7400 
 3693              	.LASF112:
 3694 0637 715F7264 		.ascii	"q_rdptr\000"
 3694      70747200 
 3695              	.LASF164:
 3696 063f 69326366 		.ascii	"i2cflags_t\000"
 3696      6C616773 
 3696      5F7400
 3697              	.LASF155:
 3698 064a 6D757465 		.ascii	"mutex\000"
 3698      7800
 3699              	.LASF16:
 3700 0650 696E7433 		.ascii	"int32_t\000"
 3700      325F7400 
 3701              	.LASF4:
ARM GAS  /var/folders/l5/0x54b2c10074c8bt31ycjvl80000gp/T//cc2tThBQ.s 			page 71


 3702 0658 756E7369 		.ascii	"unsigned char\000"
 3702      676E6564 
 3702      20636861 
 3702      7200
 3703              	.LASF76:
 3704 0666 656C5F6C 		.ascii	"el_listener\000"
 3704      69737465 
 3704      6E657200 
 3705              	.LASF78:
 3706 0672 656C5F66 		.ascii	"el_flags\000"
 3706      6C616773 
 3706      00
 3707              	.LASF44:
 3708 067b 705F6D74 		.ascii	"p_mtxlist\000"
 3708      786C6973 
 3708      7400
 3709              	.LASF5:
 3710 0685 73686F72 		.ascii	"short int\000"
 3710      7420696E 
 3710      7400
 3711              	.LASF35:
 3712 068f 705F7374 		.ascii	"p_state\000"
 3712      61746500 
 3713              	.LASF38:
 3714 0697 705F7072 		.ascii	"p_preempt\000"
 3714      65656D70 
 3714      7400
 3715              	.LASF103:
 3716 06a1 63665F6F 		.ascii	"cf_off_time\000"
 3716      66665F74 
 3716      696D6500 
 3717              	.LASF62:
 3718 06ad 725F7072 		.ascii	"r_prio\000"
 3718      696F00
 3719              	.LASF137:
 3720 06b4 70696E5F 		.ascii	"pin_base\000"
 3720      62617365 
 3720      00
 3721              	.LASF84:
 3722 06bd 65776D61 		.ascii	"ewmask\000"
 3722      736B00
 3723              	.LASF28:
 3724 06c4 705F6E65 		.ascii	"p_next\000"
 3724      787400
 3725              	.LASF141:
 3726 06cb 494F504F 		.ascii	"IOPORT1\000"
 3726      52543100 
 3727              	.LASF102:
 3728 06d3 63665F6F 		.ascii	"cf_off_preempt\000"
 3728      66665F70 
 3728      7265656D 
 3728      707400
 3729              	.LASF36:
 3730 06e2 705F666C 		.ascii	"p_flags\000"
 3730      61677300 
 3731              	.LASF27:
 3732 06ea 54687265 		.ascii	"Thread\000"
ARM GAS  /var/folders/l5/0x54b2c10074c8bt31ycjvl80000gp/T//cc2tThBQ.s 			page 72


 3732      616400
 3733              	.LASF199:
 3734 06f1 636C6F63 		.ascii	"clock_divider\000"
 3734      6B5F6469 
 3734      76696465 
 3734      7200
 3735              	.LASF95:
 3736 06ff 63665F6F 		.ascii	"cf_off_newer\000"
 3736      66665F6E 
 3736      65776572 
 3736      00
 3737              	.LASF148:
 3738 070c 4932435F 		.ascii	"I2C_LOCKED\000"
 3738      4C4F434B 
 3738      454400
 3739              	.LASF43:
 3740 0717 705F6570 		.ascii	"p_epending\000"
 3740      656E6469 
 3740      6E6700
 3741              	.LASF169:
 3742 0722 53445F55 		.ascii	"SD_UNINIT\000"
 3742      4E494E49 
 3742      5400
 3743              	.LASF17:
 3744 072c 75696E74 		.ascii	"uint32_t\000"
 3744      33325F74 
 3744      00
 3745              	.LASF93:
 3746 0735 63665F6F 		.ascii	"cf_off_prio\000"
 3746      66665F70 
 3746      72696F00 
 3747              	.LASF61:
 3748 0741 725F7175 		.ascii	"r_queue\000"
 3748      65756500 
 3749              	.LASF53:
 3750 0749 56697274 		.ascii	"VirtualTimer\000"
 3750      75616C54 
 3750      696D6572 
 3750      00
 3751              	.LASF173:
 3752 0756 53657269 		.ascii	"SerialDriver\000"
 3752      616C4472 
 3752      69766572 
 3752      00
 3753              	.LASF147:
 3754 0763 4932435F 		.ascii	"I2C_ACTIVE_RX\000"
 3754      41435449 
 3754      56455F52 
 3754      5800
 3755              	.LASF120:
 3756 0771 72656164 		.ascii	"read\000"
 3756      00
 3757              	.LASF85:
 3758 0776 63686172 		.ascii	"char\000"
 3758      00
 3759              	.LASF186:
 3760 077b 5350495F 		.ascii	"SPI_COMPLETE\000"
ARM GAS  /var/folders/l5/0x54b2c10074c8bt31ycjvl80000gp/T//cc2tThBQ.s 			page 73


 3760      434F4D50 
 3760      4C455445 
 3760      00
 3761              	.LASF152:
 3762 0788 636F6E66 		.ascii	"config\000"
 3762      696700
 3763              	.LASF206:
 3764 078f 73645374 		.ascii	"sdStart\000"
 3764      61727400 
 3765              	.LASF6:
 3766 0797 5F5F7569 		.ascii	"__uint16_t\000"
 3766      6E743136 
 3766      5F7400
 3767              	.LASF118:
 3768 07a2 42617365 		.ascii	"BaseSequentialStreamVMT\000"
 3768      53657175 
 3768      656E7469 
 3768      616C5374 
 3768      7265616D 
 3769              	.LASF187:
 3770 07ba 73706973 		.ascii	"spistate_t\000"
 3770      74617465 
 3770      5F7400
 3771              	.LASF73:
 3772 07c5 6D5F6E65 		.ascii	"m_next\000"
 3772      787400
 3773              	.LASF26:
 3774 07cc 73797374 		.ascii	"systime_t\000"
 3774      696D655F 
 3774      7400
 3775              	.LASF45:
 3776 07d6 705F7265 		.ascii	"p_realprio\000"
 3776      616C7072 
 3776      696F00
 3777              	.LASF8:
 3778 07e1 5F5F696E 		.ascii	"__int32_t\000"
 3778      7433325F 
 3778      7400
 3779              	.LASF145:
 3780 07eb 4932435F 		.ascii	"I2C_READY\000"
 3780      52454144 
 3780      5900
 3781              	.LASF150:
 3782 07f5 49324344 		.ascii	"I2CDriver\000"
 3782      72697665 
 3782      7200
 3783              	.LASF39:
 3784 07ff 705F7469 		.ascii	"p_time\000"
 3784      6D6500
 3785              	.LASF197:
 3786 0806 636C6F63 		.ascii	"clock_polarity\000"
 3786      6B5F706F 
 3786      6C617269 
 3786      747900
 3787              	.LASF50:
 3788 0815 696E7463 		.ascii	"intctx\000"
 3788      747800
ARM GAS  /var/folders/l5/0x54b2c10074c8bt31ycjvl80000gp/T//cc2tThBQ.s 			page 74


 3789              	.LASF41:
 3790 081c 705F6D73 		.ascii	"p_msgqueue\000"
 3790      67717565 
 3790      756500
 3791              	.LASF171:
 3792 0827 53445F52 		.ascii	"SD_READY\000"
 3792      45414459 
 3792      00
 3793              	.LASF184:
 3794 0830 5350495F 		.ascii	"SPI_READY\000"
 3794      52454144 
 3794      5900
 3795              	.LASF182:
 3796 083a 5350495F 		.ascii	"SPI_UNINIT\000"
 3796      554E494E 
 3796      495400
 3797              	.LASF211:
 3798 0845 63685468 		.ascii	"chThdWait\000"
 3798      64576169 
 3798      7400
 3799              	.LASF58:
 3800 084f 76745F70 		.ascii	"vt_par\000"
 3800      617200
 3801              	.LASF25:
 3802 0856 666C6167 		.ascii	"flagsmask_t\000"
 3802      736D6173 
 3802      6B5F7400 
 3803              	.LASF167:
 3804 0862 49324343 		.ascii	"I2CConfig\000"
 3804      6F6E6669 
 3804      6700
 3805              	.LASF172:
 3806 086c 73647374 		.ascii	"sdstate_t\000"
 3806      6174655F 
 3806      7400
 3807              	.LASF160:
 3808 0876 74786964 		.ascii	"txidx\000"
 3808      7800
 3809              	.LASF94:
 3810 087c 63665F6F 		.ascii	"cf_off_ctx\000"
 3810      66665F63 
 3810      747800
 3811              	.LASF37:
 3812 0887 705F7265 		.ascii	"p_refs\000"
 3812      667300
 3813              	.LASF125:
 3814 088e 73746174 		.ascii	"status\000"
 3814      757300
 3815              	.LASF67:
 3816 0895 52656164 		.ascii	"ReadyList\000"
 3816      794C6973 
 3816      7400
 3817              	.LASF113:
 3818 089f 715F6E6F 		.ascii	"q_notify\000"
 3818      74696679 
 3818      00
 3819              	.LASF69:
ARM GAS  /var/folders/l5/0x54b2c10074c8bt31ycjvl80000gp/T//cc2tThBQ.s 			page 75


 3820 08a8 726C6973 		.ascii	"rlist\000"
 3820      7400
 3821              	.LASF14:
 3822 08ae 75696E74 		.ascii	"uint8_t\000"
 3822      385F7400 
 3823              	.LASF132:
 3824 08b6 6C617463 		.ascii	"latch\000"
 3824      6800
 3825              	.LASF74:
 3826 08bc 4576656E 		.ascii	"EventListener\000"
 3826      744C6973 
 3826      74656E65 
 3826      7200
 3827              	.LASF83:
 3828 08ca 77746F62 		.ascii	"wtobjp\000"
 3828      6A7000
 3829              	.LASF34:
 3830 08d1 705F6E61 		.ascii	"p_name\000"
 3830      6D6500
 3831              	.LASF59:
 3832 08d8 76745F73 		.ascii	"vt_systime\000"
 3832      79737469 
 3832      6D6500
 3833              	.LASF80:
 3834 08e3 65735F6E 		.ascii	"es_next\000"
 3834      65787400 
 3835              	.LASF200:
 3836 08eb 53504943 		.ascii	"SPIConfig\000"
 3836      6F6E6669 
 3836      6700
 3837              	.LASF89:
 3838 08f5 63685F76 		.ascii	"ch_version\000"
 3838      65727369 
 3838      6F6E00
 3839              	.LASF126:
 3840 0900 64617461 		.ascii	"dataLength\000"
 3840      4C656E67 
 3840      746800
 3841              	.LASF60:
 3842 090b 56544C69 		.ascii	"VTList\000"
 3842      737400
 3843              	.LASF114:
 3844 0912 715F6C69 		.ascii	"q_link\000"
 3844      6E6B00
 3845              	.LASF139:
 3846 0919 50414C43 		.ascii	"PALConfig\000"
 3846      6F6E6669 
 3846      6700
 3847              	.LASF72:
 3848 0923 6D5F6F77 		.ascii	"m_owner\000"
 3848      6E657200 
 3849              	.LASF142:
 3850 092b 70616C5F 		.ascii	"pal_default_config\000"
 3850      64656661 
 3850      756C745F 
 3850      636F6E66 
 3850      696700
ARM GAS  /var/folders/l5/0x54b2c10074c8bt31ycjvl80000gp/T//cc2tThBQ.s 			page 76


 3851              	.LASF31:
 3852 093e 705F6374 		.ascii	"p_ctx\000"
 3852      7800
 3853              	.LASF40:
 3854 0944 705F7761 		.ascii	"p_waiting\000"
 3854      6974696E 
 3854      6700
 3855              	.LASF159:
 3856 094e 74786279 		.ascii	"txbytes\000"
 3856      74657300 
 3857              	.LASF131:
 3858 0956 636C6F63 		.ascii	"clockStretchTimeout\000"
 3858      6B537472 
 3858      65746368 
 3858      54696D65 
 3858      6F757400 
 3859              		.ident	"GCC: (GNU Tools for Arm Embedded Processors 8-2019-q3-update) 8.3.1 20190703 (release) [gc
ARM GAS  /var/folders/l5/0x54b2c10074c8bt31ycjvl80000gp/T//cc2tThBQ.s 			page 77


DEFINED SYMBOLS
                            *ABS*:0000000000000000 main.c
/var/folders/l5/0x54b2c10074c8bt31ycjvl80000gp/T//cc2tThBQ.s:16     .text.Thread_LCD:0000000000000000 $a
/var/folders/l5/0x54b2c10074c8bt31ycjvl80000gp/T//cc2tThBQ.s:22     .text.Thread_LCD:0000000000000000 Thread_LCD
/var/folders/l5/0x54b2c10074c8bt31ycjvl80000gp/T//cc2tThBQ.s:126    .text.Thread_LCD:00000000000000b8 $d
/var/folders/l5/0x54b2c10074c8bt31ycjvl80000gp/T//cc2tThBQ.s:134    .text.startup.main:0000000000000000 $a
/var/folders/l5/0x54b2c10074c8bt31ycjvl80000gp/T//cc2tThBQ.s:140    .text.startup.main:0000000000000000 main
/var/folders/l5/0x54b2c10074c8bt31ycjvl80000gp/T//cc2tThBQ.s:263    .text.startup.main:00000000000000f8 $d
/var/folders/l5/0x54b2c10074c8bt31ycjvl80000gp/T//cc2tThBQ.s:273    .bss.waThread_LCD:0000000000000000 $d
/var/folders/l5/0x54b2c10074c8bt31ycjvl80000gp/T//cc2tThBQ.s:277    .bss.waThread_LCD:0000000000000000 waThread_LCD
/var/folders/l5/0x54b2c10074c8bt31ycjvl80000gp/T//cc2tThBQ.s:280    .rodata.Thread_LCD.str1.4:0000000000000000 $d
/var/folders/l5/0x54b2c10074c8bt31ycjvl80000gp/T//cc2tThBQ.s:286    .rodata.main.str1.4:0000000000000000 $d

UNDEFINED SYMBOLS
chOQPutTimeout
chThdSleep
chprintf
rlist
SD1
halInit
chSysInit
sdStart
chThdCreateStatic
chThdWait
