ARM GAS  /var/folders/l5/0x54b2c10074c8bt31ycjvl80000gp/T//cc53Qo2h.s 			page 1


   1              		.cpu arm1176jz-s
   2              		.eabi_attribute 20, 1
   3              		.eabi_attribute 21, 1
   4              		.eabi_attribute 23, 3
   5              		.eabi_attribute 24, 1
   6              		.eabi_attribute 25, 1
   7              		.eabi_attribute 26, 1
   8              		.eabi_attribute 30, 2
   9              		.eabi_attribute 34, 1
  10              		.eabi_attribute 18, 4
  11              		.file	"pal_lld.c"
  12              		.text
  13              	.Ltext0:
  14              		.cfi_sections	.debug_frame
  15              		.section	.text.set_gpio_in.isra.0,"ax",%progbits
  16              		.align	2
  17              		.arch armv6kz
  18              		.syntax unified
  19              		.arm
  20              		.fpu softvfp
  21              		.type	set_gpio_in.isra.0, %function
  22              	set_gpio_in.isra.0:
  23              	.LVL0:
  24              	.LFB12:
  25              		.file 1 "../../os/hal/platforms/BCM2835/pal_lld.c"
  26              		.loc 1 64 13 view -0
  27              		.cfi_startproc
  28              		@ args = 0, pretend = 0, frame = 0
  29              		@ frame_needed = 0, uses_anonymous_args = 0
  30              		.loc 1 65 3 view .LVU1
  31              		.loc 1 66 3 view .LVU2
  32              		.loc 1 64 13 is_stmt 0 view .LVU3
  33 0000 70402DE9 		push	{r4, r5, r6, lr}
  34              		.cfi_def_cfa_offset 16
  35              		.cfi_offset 4, -16
  36              		.cfi_offset 5, -12
  37              		.cfi_offset 6, -8
  38              		.cfi_offset 14, -4
  39              		.loc 1 64 13 view .LVU4
  40 0004 0060A0E1 		mov	r6, r0
  41 0008 0150A0E1 		mov	r5, r1
  42              		.loc 1 66 10 view .LVU5
  43 000c 0040A0E3 		mov	r4, #0
  44 0010 030000EA 		b	.L3
  45              	.LVL1:
  46              	.L2:
  47              	.LBB3:
  48              		.loc 1 70 5 is_stmt 1 view .LVU6
  49              	.LBE3:
  50              		.loc 1 66 24 is_stmt 0 view .LVU7
  51 0014 014084E2 		add	r4, r4, #1
  52              	.LVL2:
  53              		.loc 1 66 3 view .LVU8
  54 0018 200054E3 		cmp	r4, #32
  55              	.LBB4:
  56              		.loc 1 70 10 view .LVU9
  57 001c A550A0E1 		lsr	r5, r5, #1
ARM GAS  /var/folders/l5/0x54b2c10074c8bt31ycjvl80000gp/T//cc53Qo2h.s 			page 2


  58              	.LVL3:
  59              		.loc 1 70 10 view .LVU10
  60              	.LBE4:
  61              		.loc 1 66 3 view .LVU11
  62 0020 7080BD08 		popeq	{r4, r5, r6, pc}
  63              	.LVL4:
  64              	.L3:
  65              	.LBB5:
  66              		.loc 1 67 5 is_stmt 1 view .LVU12
  67              		.loc 1 68 5 view .LVU13
  68              		.loc 1 68 8 is_stmt 0 view .LVU14
  69 0024 010015E3 		tst	r5, #1
  70 0028 F9FFFF0A 		beq	.L2
  71              		.loc 1 69 7 is_stmt 1 view .LVU15
  72              		.loc 1 69 28 is_stmt 0 view .LVU16
  73 002c 000096E5 		ldr	r0, [r6]
  74              		.loc 1 69 7 view .LVU17
  75 0030 0010A0E3 		mov	r1, #0
  76 0034 000084E0 		add	r0, r4, r0
  77 0038 FEFFFFEB 		bl	bcm2835_gpio_fnsel
  78              	.LVL5:
  79 003c F4FFFFEA 		b	.L2
  80              	.LBE5:
  81              		.cfi_endproc
  82              	.LFE12:
  83              		.size	set_gpio_in.isra.0, .-set_gpio_in.isra.0
  84              		.section	.text.set_gpio_pud.isra.1,"ax",%progbits
  85              		.align	2
  86              		.syntax unified
  87              		.arm
  88              		.fpu softvfp
  89              		.type	set_gpio_pud.isra.1, %function
  90              	set_gpio_pud.isra.1:
  91              	.LVL6:
  92              	.LFB13:
  93              		.loc 1 54 13 is_stmt 1 view -0
  94              		.cfi_startproc
  95              		@ args = 0, pretend = 0, frame = 0
  96              		@ frame_needed = 0, uses_anonymous_args = 0
  97              		.loc 1 56 3 view .LVU19
  98              		.loc 1 54 13 is_stmt 0 view .LVU20
  99 0000 70402DE9 		push	{r4, r5, r6, lr}
 100              		.cfi_def_cfa_offset 16
 101              		.cfi_offset 4, -16
 102              		.cfi_offset 5, -12
 103              		.cfi_offset 6, -8
 104              		.cfi_offset 14, -4
 105              		.loc 1 54 13 view .LVU21
 106 0004 0050A0E1 		mov	r5, r0
 107 0008 0160A0E1 		mov	r6, r1
 108              		.loc 1 56 9 view .LVU22
 109 000c 2C409FE5 		ldr	r4, .L13
 110              		.loc 1 57 3 view .LVU23
 111 0010 9600A0E3 		mov	r0, #150
 112              		.loc 1 56 9 view .LVU24
 113 0014 942084E5 		str	r2, [r4, #148]
 114              		.loc 1 57 3 is_stmt 1 view .LVU25
ARM GAS  /var/folders/l5/0x54b2c10074c8bt31ycjvl80000gp/T//cc53Qo2h.s 			page 3


 115 0018 FEFFFFEB 		bl	bcm2835_delay
 116              	.LVL7:
 117              		.loc 1 58 3 view .LVU26
 118              		.loc 1 58 8 is_stmt 0 view .LVU27
 119 001c 003095E5 		ldr	r3, [r5]
 120              		.loc 1 59 3 view .LVU28
 121 0020 9600A0E3 		mov	r0, #150
 122              		.loc 1 58 19 view .LVU29
 123 0024 006083E5 		str	r6, [r3]
 124              		.loc 1 59 3 is_stmt 1 view .LVU30
 125 0028 FEFFFFEB 		bl	bcm2835_delay
 126              	.LVL8:
 127              		.loc 1 60 3 view .LVU31
 128              		.loc 1 60 9 is_stmt 0 view .LVU32
 129 002c 0030A0E3 		mov	r3, #0
 130              		.loc 1 61 8 view .LVU33
 131 0030 002095E5 		ldr	r2, [r5]
 132              		.loc 1 60 9 view .LVU34
 133 0034 943084E5 		str	r3, [r4, #148]
 134              		.loc 1 61 3 is_stmt 1 view .LVU35
 135              		.loc 1 61 19 is_stmt 0 view .LVU36
 136 0038 003082E5 		str	r3, [r2]
 137              		.loc 1 62 1 view .LVU37
 138 003c 7080BDE8 		pop	{r4, r5, r6, pc}
 139              	.L14:
 140              		.align	2
 141              	.L13:
 142 0040 00002020 		.word	538968064
 143              		.cfi_endproc
 144              	.LFE13:
 145              		.size	set_gpio_pud.isra.1, .-set_gpio_pud.isra.1
 146              		.section	.text._pal_lld_init,"ax",%progbits
 147              		.align	2
 148              		.global	_pal_lld_init
 149              		.syntax unified
 150              		.arm
 151              		.fpu softvfp
 152              		.type	_pal_lld_init, %function
 153              	_pal_lld_init:
 154              	.LVL9:
 155              	.LFB9:
 156              		.loc 1 82 45 is_stmt 1 view -0
 157              		.cfi_startproc
 158              		@ args = 0, pretend = 0, frame = 0
 159              		@ frame_needed = 0, uses_anonymous_args = 0
 160              		.loc 1 84 3 view .LVU39
 161              		.loc 1 86 3 view .LVU40
 162              		.loc 1 86 17 is_stmt 0 view .LVU41
 163 0000 68309FE5 		ldr	r3, .L17
 164 0004 68109FE5 		ldr	r1, .L17+4
 165              		.loc 1 82 45 view .LVU42
 166 0008 10402DE9 		push	{r4, lr}
 167              		.cfi_def_cfa_offset 8
 168              		.cfi_offset 4, -8
 169              		.cfi_offset 14, -4
 170              		.loc 1 88 17 view .LVU43
 171 000c 64C09FE5 		ldr	ip, .L17+8
ARM GAS  /var/folders/l5/0x54b2c10074c8bt31ycjvl80000gp/T//cc53Qo2h.s 			page 4


 172              		.loc 1 87 17 view .LVU44
 173 0010 64E09FE5 		ldr	lr, .L17+12
 174              		.loc 1 89 20 view .LVU45
 175 0014 64209FE5 		ldr	r2, .L17+16
 176              		.loc 1 90 3 view .LVU46
 177 0018 140083E2 		add	r0, r3, #20
 178              	.LVL10:
 179              		.loc 1 86 17 view .LVU47
 180 001c 041083E5 		str	r1, [r3, #4]
 181              		.loc 1 87 3 is_stmt 1 view .LVU48
 182              		.loc 1 90 3 is_stmt 0 view .LVU49
 183 0020 0010E0E3 		mvn	r1, #0
 184              		.loc 1 87 17 view .LVU50
 185 0024 08E083E5 		str	lr, [r3, #8]
 186              		.loc 1 88 3 is_stmt 1 view .LVU51
 187              		.loc 1 88 17 is_stmt 0 view .LVU52
 188 0028 0CC083E5 		str	ip, [r3, #12]
 189              		.loc 1 89 3 is_stmt 1 view .LVU53
 190              		.loc 1 89 20 is_stmt 0 view .LVU54
 191 002c 102083E5 		str	r2, [r3, #16]
 192              		.loc 1 90 3 is_stmt 1 view .LVU55
 193 0030 FEFFFFEB 		bl	set_gpio_in.isra.0
 194              	.LVL11:
 195              		.loc 1 92 3 view .LVU56
 196              		.loc 1 92 17 is_stmt 0 view .LVU57
 197 0034 48309FE5 		ldr	r3, .L17+20
 198              		.loc 1 96 20 view .LVU58
 199 0038 2020A0E3 		mov	r2, #32
 200 003c 0300A0E1 		mov	r0, r3
 201              		.loc 1 92 17 view .LVU59
 202 0040 40109FE5 		ldr	r1, .L17+24
 203              		.loc 1 93 17 view .LVU60
 204 0044 40E09FE5 		ldr	lr, .L17+28
 205              		.loc 1 96 20 view .LVU61
 206 0048 1420A0E5 		str	r2, [r0, #20]!
 207              		.loc 1 94 17 view .LVU62
 208 004c 3CC09FE5 		ldr	ip, .L17+32
 209              		.loc 1 95 20 view .LVU63
 210 0050 3C209FE5 		ldr	r2, .L17+36
 211              		.loc 1 92 17 view .LVU64
 212 0054 041083E5 		str	r1, [r3, #4]
 213              		.loc 1 93 3 is_stmt 1 view .LVU65
 214              		.loc 1 93 17 is_stmt 0 view .LVU66
 215 0058 08E083E5 		str	lr, [r3, #8]
 216              		.loc 1 94 3 is_stmt 1 view .LVU67
 217              		.loc 1 97 3 is_stmt 0 view .LVU68
 218 005c 0010E0E3 		mvn	r1, #0
 219              		.loc 1 98 1 view .LVU69
 220 0060 1040BDE8 		pop	{r4, lr}
 221              		.cfi_restore 14
 222              		.cfi_restore 4
 223              		.cfi_def_cfa_offset 0
 224              		.loc 1 94 17 view .LVU70
 225 0064 0CC083E5 		str	ip, [r3, #12]
 226              		.loc 1 95 3 is_stmt 1 view .LVU71
 227              		.loc 1 95 20 is_stmt 0 view .LVU72
 228 0068 102083E5 		str	r2, [r3, #16]
ARM GAS  /var/folders/l5/0x54b2c10074c8bt31ycjvl80000gp/T//cc53Qo2h.s 			page 5


 229              		.loc 1 96 3 is_stmt 1 view .LVU73
 230              		.loc 1 97 3 view .LVU74
 231 006c FEFFFFEA 		b	set_gpio_in.isra.0
 232              	.LVL12:
 233              	.L18:
 234              		.align	2
 235              	.L17:
 236 0070 00000000 		.word	IOPORT0
 237 0074 1C002020 		.word	538968092
 238 0078 34002020 		.word	538968116
 239 007c 28002020 		.word	538968104
 240 0080 98002020 		.word	538968216
 241 0084 00000000 		.word	IOPORT1
 242 0088 20002020 		.word	538968096
 243 008c 2C002020 		.word	538968108
 244 0090 38002020 		.word	538968120
 245 0094 9C002020 		.word	538968220
 246              		.cfi_endproc
 247              	.LFE9:
 248              		.size	_pal_lld_init, .-_pal_lld_init
 249              		.section	.text._pal_lld_setgroupmode,"ax",%progbits
 250              		.align	2
 251              		.global	_pal_lld_setgroupmode
 252              		.syntax unified
 253              		.arm
 254              		.fpu softvfp
 255              		.type	_pal_lld_setgroupmode, %function
 256              	_pal_lld_setgroupmode:
 257              	.LVL13:
 258              	.LFB10:
 259              		.loc 1 100 79 view -0
 260              		.cfi_startproc
 261              		@ args = 0, pretend = 0, frame = 0
 262              		@ frame_needed = 0, uses_anonymous_args = 0
 263              		.loc 1 101 3 view .LVU76
 264              		.loc 1 102 3 view .LVU77
 265 0000 040052E3 		cmp	r2, #4
 266              		.loc 1 100 79 is_stmt 0 view .LVU78
 267 0004 70402DE9 		push	{r4, r5, r6, lr}
 268              		.cfi_def_cfa_offset 16
 269              		.cfi_offset 4, -16
 270              		.cfi_offset 5, -12
 271              		.cfi_offset 6, -8
 272              		.cfi_offset 14, -4
 273              		.loc 1 100 79 view .LVU79
 274 0008 0060A0E1 		mov	r6, r0
 275 000c 0150A0E1 		mov	r5, r1
 276              		.loc 1 102 3 view .LVU80
 277 0010 1E00000A 		beq	.L20
 278 0014 0A00008A 		bhi	.L21
 279 0018 020052E3 		cmp	r2, #2
 280 001c 2200000A 		beq	.L22
 281 0020 030052E3 		cmp	r2, #3
 282 0024 7080BD18 		popne	{r4, r5, r6, pc}
 283              		.loc 1 108 5 is_stmt 1 view .LVU81
 284 0028 140080E2 		add	r0, r0, #20
 285              	.LVL14:
ARM GAS  /var/folders/l5/0x54b2c10074c8bt31ycjvl80000gp/T//cc53Qo2h.s 			page 6


 286              		.loc 1 108 5 is_stmt 0 view .LVU82
 287 002c FEFFFFEB 		bl	set_gpio_in.isra.0
 288              	.LVL15:
 289              		.loc 1 109 5 is_stmt 1 view .LVU83
 290 0030 0510A0E1 		mov	r1, r5
 291 0034 100086E2 		add	r0, r6, #16
 292 0038 0220A0E3 		mov	r2, #2
 293              		.loc 1 126 1 is_stmt 0 view .LVU84
 294 003c 7040BDE8 		pop	{r4, r5, r6, lr}
 295              		.cfi_remember_state
 296              		.cfi_restore 14
 297              		.cfi_restore 6
 298              		.cfi_restore 5
 299              		.cfi_restore 4
 300              		.cfi_def_cfa_offset 0
 301              	.LVL16:
 302              		.loc 1 109 5 view .LVU85
 303 0040 FEFFFFEA 		b	set_gpio_pud.isra.1
 304              	.LVL17:
 305              	.L21:
 306              		.cfi_restore_state
 307              		.loc 1 102 3 view .LVU86
 308 0044 060052E3 		cmp	r2, #6
 309 0048 7080BD38 		popcc	{r4, r5, r6, pc}
 310 004c 070052E3 		cmp	r2, #7
 311 0050 0100009A 		bls	.L29
 312 0054 FF0052E3 		cmp	r2, #255
 313 0058 7080BD18 		popne	{r4, r5, r6, pc}
 314              	.L29:
 315              		.loc 1 118 12 view .LVU87
 316 005c 0040A0E3 		mov	r4, #0
 317 0060 030000EA 		b	.L27
 318              	.LVL18:
 319              	.L26:
 320              	.LBB6:
 321              		.loc 1 122 7 is_stmt 1 discriminator 2 view .LVU88
 322              	.LBE6:
 323              		.loc 1 118 26 is_stmt 0 discriminator 2 view .LVU89
 324 0064 014084E2 		add	r4, r4, #1
 325              	.LVL19:
 326              		.loc 1 118 5 discriminator 2 view .LVU90
 327 0068 200054E3 		cmp	r4, #32
 328              	.LBB7:
 329              		.loc 1 122 12 discriminator 2 view .LVU91
 330 006c A550A0E1 		lsr	r5, r5, #1
 331              	.LVL20:
 332              		.loc 1 122 12 discriminator 2 view .LVU92
 333              	.LBE7:
 334              		.loc 1 118 5 discriminator 2 view .LVU93
 335 0070 7080BD08 		popeq	{r4, r5, r6, pc}
 336              	.LVL21:
 337              	.L27:
 338              	.LBB8:
 339              		.loc 1 119 7 is_stmt 1 view .LVU94
 340              		.loc 1 120 7 view .LVU95
 341              		.loc 1 120 10 is_stmt 0 view .LVU96
 342 0074 010015E3 		tst	r5, #1
ARM GAS  /var/folders/l5/0x54b2c10074c8bt31ycjvl80000gp/T//cc53Qo2h.s 			page 7


 343 0078 F9FFFF0A 		beq	.L26
 344              		.loc 1 121 9 is_stmt 1 view .LVU97
 345              		.loc 1 121 30 is_stmt 0 view .LVU98
 346 007c 140096E5 		ldr	r0, [r6, #20]
 347              		.loc 1 121 9 view .LVU99
 348 0080 0110A0E3 		mov	r1, #1
 349 0084 000084E0 		add	r0, r4, r0
 350 0088 FEFFFFEB 		bl	bcm2835_gpio_fnsel
 351              	.LVL22:
 352 008c F4FFFFEA 		b	.L26
 353              	.LVL23:
 354              	.L20:
 355              		.loc 1 121 9 view .LVU100
 356              	.LBE8:
 357              		.loc 1 112 5 is_stmt 1 view .LVU101
 358 0090 140080E2 		add	r0, r0, #20
 359              	.LVL24:
 360              		.loc 1 112 5 is_stmt 0 view .LVU102
 361 0094 FEFFFFEB 		bl	set_gpio_in.isra.0
 362              	.LVL25:
 363              		.loc 1 113 5 is_stmt 1 view .LVU103
 364 0098 0510A0E1 		mov	r1, r5
 365 009c 100086E2 		add	r0, r6, #16
 366 00a0 0120A0E3 		mov	r2, #1
 367              		.loc 1 126 1 is_stmt 0 view .LVU104
 368 00a4 7040BDE8 		pop	{r4, r5, r6, lr}
 369              		.cfi_remember_state
 370              		.cfi_restore 14
 371              		.cfi_restore 6
 372              		.cfi_restore 5
 373              		.cfi_restore 4
 374              		.cfi_def_cfa_offset 0
 375              	.LVL26:
 376              		.loc 1 113 5 view .LVU105
 377 00a8 FEFFFFEA 		b	set_gpio_pud.isra.1
 378              	.LVL27:
 379              	.L22:
 380              		.cfi_restore_state
 381              		.loc 1 104 5 is_stmt 1 view .LVU106
 382 00ac 140080E2 		add	r0, r0, #20
 383              	.LVL28:
 384              		.loc 1 104 5 is_stmt 0 view .LVU107
 385 00b0 FEFFFFEB 		bl	set_gpio_in.isra.0
 386              	.LVL29:
 387              		.loc 1 105 5 is_stmt 1 view .LVU108
 388 00b4 0510A0E1 		mov	r1, r5
 389 00b8 100086E2 		add	r0, r6, #16
 390 00bc 0020A0E3 		mov	r2, #0
 391              		.loc 1 126 1 is_stmt 0 view .LVU109
 392 00c0 7040BDE8 		pop	{r4, r5, r6, lr}
 393              		.cfi_restore 14
 394              		.cfi_restore 6
 395              		.cfi_restore 5
 396              		.cfi_restore 4
 397              		.cfi_def_cfa_offset 0
 398              	.LVL30:
 399              		.loc 1 105 5 view .LVU110
ARM GAS  /var/folders/l5/0x54b2c10074c8bt31ycjvl80000gp/T//cc53Qo2h.s 			page 8


 400 00c4 FEFFFFEA 		b	set_gpio_pud.isra.1
 401              	.LVL31:
 402              		.loc 1 105 5 view .LVU111
 403              		.cfi_endproc
 404              	.LFE10:
 405              		.size	_pal_lld_setgroupmode, .-_pal_lld_setgroupmode
 406              		.section	.text._pal_lld_writeport,"ax",%progbits
 407              		.align	2
 408              		.global	_pal_lld_writeport
 409              		.syntax unified
 410              		.arm
 411              		.fpu softvfp
 412              		.type	_pal_lld_writeport, %function
 413              	_pal_lld_writeport:
 414              	.LVL32:
 415              	.LFB11:
 416              		.loc 1 128 61 is_stmt 1 view -0
 417              		.cfi_startproc
 418              		@ args = 0, pretend = 0, frame = 0
 419              		@ frame_needed = 0, uses_anonymous_args = 0
 420              		@ link register save eliminated.
 421              		.loc 1 129 3 view .LVU113
 422              		.loc 1 130 20 is_stmt 0 view .LVU114
 423 0000 0120E0E1 		mvn	r2, r1
 424              		.loc 1 129 9 view .LVU115
 425 0004 04C090E5 		ldr	ip, [r0, #4]
 426              		.loc 1 130 9 view .LVU116
 427 0008 083090E5 		ldr	r3, [r0, #8]
 428              		.loc 1 129 32 view .LVU117
 429 000c 001080E5 		str	r1, [r0]
 430              		.loc 1 129 18 view .LVU118
 431 0010 00108CE5 		str	r1, [ip]
 432              		.loc 1 130 3 is_stmt 1 view .LVU119
 433              		.loc 1 130 18 is_stmt 0 view .LVU120
 434 0014 002083E5 		str	r2, [r3]
 435              		.loc 1 131 1 view .LVU121
 436 0018 1EFF2FE1 		bx	lr
 437              		.cfi_endproc
 438              	.LFE11:
 439              		.size	_pal_lld_writeport, .-_pal_lld_writeport
 440              		.comm	IOPORT1,24,4
 441              		.comm	IOPORT0,24,4
 442              		.text
 443              	.Letext0:
 444              		.file 2 "/usr/local/Cellar/arm-gcc-bin/8-2019-q3-update/lib/gcc/arm-none-eabi/8.3.1/include/stddef
 445              		.file 3 "/usr/local/Cellar/arm-gcc-bin/8-2019-q3-update/arm-none-eabi/include/machine/_default_typ
 446              		.file 4 "/usr/local/Cellar/arm-gcc-bin/8-2019-q3-update/arm-none-eabi/include/sys/_stdint.h"
 447              		.file 5 "../../os/ports/GCC/ARM/chtypes.h"
 448              		.file 6 "../../os/kernel/include/chlists.h"
 449              		.file 7 "../../os/kernel/include/chthreads.h"
 450              		.file 8 "../../os/ports/GCC/ARM/chcore.h"
 451              		.file 9 "../../os/kernel/include/chvt.h"
 452              		.file 10 "../../os/kernel/include/chschd.h"
 453              		.file 11 "../../os/kernel/include/chmtx.h"
 454              		.file 12 "../../os/kernel/include/chevents.h"
 455              		.file 13 "../../os/kernel/include/chregistry.h"
 456              		.file 14 "../../os/kernel/include/chqueues.h"
ARM GAS  /var/folders/l5/0x54b2c10074c8bt31ycjvl80000gp/T//cc53Qo2h.s 			page 9


 457              		.file 15 "../../os/kernel/include/ch.h"
 458              		.file 16 "../../os/hal/platforms/BCM2835/bcm2835.h"
 459              		.file 17 "../../os/hal/platforms/BCM2835/pal_lld.h"
 460              		.file 18 "../../os/hal/include/i2c.h"
 461              		.file 19 "../../os/hal/platforms/BCM2835/i2c_lld.h"
 462              		.file 20 "../../os/hal/include/serial.h"
 463              		.file 21 "../../os/hal/include/spi.h"
 464              		.file 22 "../../os/hal/platforms/BCM2835/spi_lld.h"
 465              		.file 23 "../../os/hal/platforms/BCM2835/serial_lld.h"
 466              		.section	.debug_info,"",%progbits
 467              	.Ldebug_info0:
 468 0000 8F110000 		.4byte	0x118f
 469 0004 0400     		.2byte	0x4
 470 0006 00000000 		.4byte	.Ldebug_abbrev0
 471 000a 04       		.byte	0x4
 472 000b 01       		.uleb128 0x1
 473 000c 5D030000 		.4byte	.LASF214
 474 0010 0C       		.byte	0xc
 475 0011 36070000 		.4byte	.LASF215
 476 0015 39050000 		.4byte	.LASF216
 477 0019 40000000 		.4byte	.Ldebug_ranges0+0x40
 478 001d 00000000 		.4byte	0
 479 0021 00000000 		.4byte	.Ldebug_line0
 480 0025 02       		.uleb128 0x2
 481 0026 04       		.byte	0x4
 482 0027 05       		.byte	0x5
 483 0028 696E7400 		.ascii	"int\000"
 484 002c 03       		.uleb128 0x3
 485 002d 13000000 		.4byte	.LASF2
 486 0031 02       		.byte	0x2
 487 0032 D8       		.byte	0xd8
 488 0033 17       		.byte	0x17
 489 0034 38000000 		.4byte	0x38
 490 0038 04       		.uleb128 0x4
 491 0039 04       		.byte	0x4
 492 003a 07       		.byte	0x7
 493 003b 88020000 		.4byte	.LASF0
 494 003f 05       		.uleb128 0x5
 495 0040 38000000 		.4byte	0x38
 496 0044 04       		.uleb128 0x4
 497 0045 01       		.byte	0x1
 498 0046 06       		.byte	0x6
 499 0047 F5000000 		.4byte	.LASF1
 500 004b 03       		.uleb128 0x3
 501 004c 33000000 		.4byte	.LASF3
 502 0050 03       		.byte	0x3
 503 0051 2B       		.byte	0x2b
 504 0052 18       		.byte	0x18
 505 0053 57000000 		.4byte	0x57
 506 0057 04       		.uleb128 0x4
 507 0058 01       		.byte	0x1
 508 0059 08       		.byte	0x8
 509 005a 38060000 		.4byte	.LASF4
 510 005e 04       		.uleb128 0x4
 511 005f 02       		.byte	0x2
 512 0060 05       		.byte	0x5
 513 0061 65060000 		.4byte	.LASF5
ARM GAS  /var/folders/l5/0x54b2c10074c8bt31ycjvl80000gp/T//cc53Qo2h.s 			page 10


 514 0065 03       		.uleb128 0x3
 515 0066 8B070000 		.4byte	.LASF6
 516 006a 03       		.byte	0x3
 517 006b 39       		.byte	0x39
 518 006c 19       		.byte	0x19
 519 006d 71000000 		.4byte	0x71
 520 0071 04       		.uleb128 0x4
 521 0072 02       		.byte	0x2
 522 0073 07       		.byte	0x7
 523 0074 1B030000 		.4byte	.LASF7
 524 0078 03       		.uleb128 0x3
 525 0079 BD070000 		.4byte	.LASF8
 526 007d 03       		.byte	0x3
 527 007e 4D       		.byte	0x4d
 528 007f 18       		.byte	0x18
 529 0080 84000000 		.4byte	0x84
 530 0084 04       		.uleb128 0x4
 531 0085 04       		.byte	0x4
 532 0086 05       		.byte	0x5
 533 0087 74010000 		.4byte	.LASF9
 534 008b 03       		.uleb128 0x3
 535 008c 31020000 		.4byte	.LASF10
 536 0090 03       		.byte	0x3
 537 0091 4F       		.byte	0x4f
 538 0092 19       		.byte	0x19
 539 0093 97000000 		.4byte	0x97
 540 0097 04       		.uleb128 0x4
 541 0098 04       		.byte	0x4
 542 0099 07       		.byte	0x7
 543 009a C1020000 		.4byte	.LASF11
 544 009e 04       		.uleb128 0x4
 545 009f 08       		.byte	0x8
 546 00a0 05       		.byte	0x5
 547 00a1 E7000000 		.4byte	.LASF12
 548 00a5 04       		.uleb128 0x4
 549 00a6 08       		.byte	0x8
 550 00a7 07       		.byte	0x7
 551 00a8 6E000000 		.4byte	.LASF13
 552 00ac 03       		.uleb128 0x3
 553 00ad AE080000 		.4byte	.LASF14
 554 00b1 04       		.byte	0x4
 555 00b2 18       		.byte	0x18
 556 00b3 13       		.byte	0x13
 557 00b4 4B000000 		.4byte	0x4b
 558 00b8 06       		.uleb128 0x6
 559 00b9 AC000000 		.4byte	0xac
 560 00bd 03       		.uleb128 0x3
 561 00be A6010000 		.4byte	.LASF15
 562 00c2 04       		.byte	0x4
 563 00c3 24       		.byte	0x24
 564 00c4 14       		.byte	0x14
 565 00c5 65000000 		.4byte	0x65
 566 00c9 03       		.uleb128 0x3
 567 00ca 30060000 		.4byte	.LASF16
 568 00ce 04       		.byte	0x4
 569 00cf 2C       		.byte	0x2c
 570 00d0 13       		.byte	0x13
ARM GAS  /var/folders/l5/0x54b2c10074c8bt31ycjvl80000gp/T//cc53Qo2h.s 			page 11


 571 00d1 78000000 		.4byte	0x78
 572 00d5 03       		.uleb128 0x3
 573 00d6 0C070000 		.4byte	.LASF17
 574 00da 04       		.byte	0x4
 575 00db 30       		.byte	0x30
 576 00dc 14       		.byte	0x14
 577 00dd 8B000000 		.4byte	0x8b
 578 00e1 05       		.uleb128 0x5
 579 00e2 D5000000 		.4byte	0xd5
 580 00e6 03       		.uleb128 0x3
 581 00e7 42040000 		.4byte	.LASF18
 582 00eb 05       		.byte	0x5
 583 00ec 2A       		.byte	0x2a
 584 00ed 19       		.byte	0x19
 585 00ee AC000000 		.4byte	0xac
 586 00f2 03       		.uleb128 0x3
 587 00f3 7D010000 		.4byte	.LASF19
 588 00f7 05       		.byte	0x5
 589 00f8 2B       		.byte	0x2b
 590 00f9 19       		.byte	0x19
 591 00fa AC000000 		.4byte	0xac
 592 00fe 03       		.uleb128 0x3
 593 00ff E0050000 		.4byte	.LASF20
 594 0103 05       		.byte	0x5
 595 0104 2C       		.byte	0x2c
 596 0105 19       		.byte	0x19
 597 0106 AC000000 		.4byte	0xac
 598 010a 03       		.uleb128 0x3
 599 010b 4A010000 		.4byte	.LASF21
 600 010f 05       		.byte	0x5
 601 0110 2D       		.byte	0x2d
 602 0111 19       		.byte	0x19
 603 0112 AC000000 		.4byte	0xac
 604 0116 03       		.uleb128 0x3
 605 0117 0F060000 		.4byte	.LASF22
 606 011b 05       		.byte	0x5
 607 011c 2E       		.byte	0x2e
 608 011d 19       		.byte	0x19
 609 011e D5000000 		.4byte	0xd5
 610 0122 03       		.uleb128 0x3
 611 0123 40030000 		.4byte	.LASF23
 612 0127 05       		.byte	0x5
 613 0128 2F       		.byte	0x2f
 614 0129 19       		.byte	0x19
 615 012a C9000000 		.4byte	0xc9
 616 012e 03       		.uleb128 0x3
 617 012f 69040000 		.4byte	.LASF24
 618 0133 05       		.byte	0x5
 619 0134 31       		.byte	0x31
 620 0135 19       		.byte	0x19
 621 0136 D5000000 		.4byte	0xd5
 622 013a 03       		.uleb128 0x3
 623 013b 49080000 		.4byte	.LASF25
 624 013f 05       		.byte	0x5
 625 0140 32       		.byte	0x32
 626 0141 19       		.byte	0x19
 627 0142 D5000000 		.4byte	0xd5
ARM GAS  /var/folders/l5/0x54b2c10074c8bt31ycjvl80000gp/T//cc53Qo2h.s 			page 12


 628 0146 03       		.uleb128 0x3
 629 0147 A8070000 		.4byte	.LASF26
 630 014b 05       		.byte	0x5
 631 014c 33       		.byte	0x33
 632 014d 19       		.byte	0x19
 633 014e D5000000 		.4byte	0xd5
 634 0152 05       		.uleb128 0x5
 635 0153 46010000 		.4byte	0x146
 636 0157 03       		.uleb128 0x3
 637 0158 CA060000 		.4byte	.LASF27
 638 015c 06       		.byte	0x6
 639 015d 23       		.byte	0x23
 640 015e 17       		.byte	0x17
 641 015f 63010000 		.4byte	0x163
 642 0163 07       		.uleb128 0x7
 643 0164 CA060000 		.4byte	.LASF27
 644 0168 44       		.byte	0x44
 645 0169 07       		.byte	0x7
 646 016a 57       		.byte	0x57
 647 016b 08       		.byte	0x8
 648 016c 68020000 		.4byte	0x268
 649 0170 08       		.uleb128 0x8
 650 0171 A4060000 		.4byte	.LASF28
 651 0175 07       		.byte	0x7
 652 0176 58       		.byte	0x58
 653 0177 1A       		.byte	0x1a
 654 0178 8C020000 		.4byte	0x28c
 655 017c 00       		.byte	0
 656 017d 08       		.uleb128 0x8
 657 017e 08060000 		.4byte	.LASF29
 658 0182 07       		.byte	0x7
 659 0183 5A       		.byte	0x5a
 660 0184 1A       		.byte	0x1a
 661 0185 8C020000 		.4byte	0x28c
 662 0189 04       		.byte	0x4
 663 018a 08       		.uleb128 0x8
 664 018b B5000000 		.4byte	.LASF30
 665 018f 07       		.byte	0x7
 666 0190 5C       		.byte	0x5c
 667 0191 19       		.byte	0x19
 668 0192 16010000 		.4byte	0x116
 669 0196 08       		.byte	0x8
 670 0197 08       		.uleb128 0x8
 671 0198 59090000 		.4byte	.LASF31
 672 019c 07       		.byte	0x7
 673 019d 5D       		.byte	0x5d
 674 019e 19       		.byte	0x19
 675 019f 57030000 		.4byte	0x357
 676 01a3 0C       		.byte	0xc
 677 01a4 08       		.uleb128 0x8
 678 01a5 D8010000 		.4byte	.LASF32
 679 01a9 07       		.byte	0x7
 680 01aa 5F       		.byte	0x5f
 681 01ab 1A       		.byte	0x1a
 682 01ac 8C020000 		.4byte	0x28c
 683 01b0 10       		.byte	0x10
 684 01b1 08       		.uleb128 0x8
ARM GAS  /var/folders/l5/0x54b2c10074c8bt31ycjvl80000gp/T//cc53Qo2h.s 			page 13


 685 01b2 0E050000 		.4byte	.LASF33
 686 01b6 07       		.byte	0x7
 687 01b7 60       		.byte	0x60
 688 01b8 1A       		.byte	0x1a
 689 01b9 8C020000 		.4byte	0x28c
 690 01bd 14       		.byte	0x14
 691 01be 08       		.uleb128 0x8
 692 01bf E3080000 		.4byte	.LASF34
 693 01c3 07       		.byte	0x7
 694 01c4 67       		.byte	0x67
 695 01c5 1A       		.byte	0x1a
 696 01c6 B8050000 		.4byte	0x5b8
 697 01ca 18       		.byte	0x18
 698 01cb 08       		.uleb128 0x8
 699 01cc 6F060000 		.4byte	.LASF35
 700 01d0 07       		.byte	0x7
 701 01d1 72       		.byte	0x72
 702 01d2 19       		.byte	0x19
 703 01d3 F2000000 		.4byte	0xf2
 704 01d7 1C       		.byte	0x1c
 705 01d8 08       		.uleb128 0x8
 706 01d9 C2060000 		.4byte	.LASF36
 707 01dd 07       		.byte	0x7
 708 01de 76       		.byte	0x76
 709 01df 19       		.byte	0x19
 710 01e0 E6000000 		.4byte	0xe6
 711 01e4 1D       		.byte	0x1d
 712 01e5 08       		.uleb128 0x8
 713 01e6 7A080000 		.4byte	.LASF37
 714 01ea 07       		.byte	0x7
 715 01eb 7B       		.byte	0x7b
 716 01ec 19       		.byte	0x19
 717 01ed FE000000 		.4byte	0xfe
 718 01f1 1E       		.byte	0x1e
 719 01f2 08       		.uleb128 0x8
 720 01f3 77060000 		.4byte	.LASF38
 721 01f7 07       		.byte	0x7
 722 01f8 81       		.byte	0x81
 723 01f9 19       		.byte	0x19
 724 01fa 0A010000 		.4byte	0x10a
 725 01fe 1F       		.byte	0x1f
 726 01ff 08       		.uleb128 0x8
 727 0200 E6070000 		.4byte	.LASF39
 728 0204 07       		.byte	0x7
 729 0205 88       		.byte	0x88
 730 0206 19       		.byte	0x19
 731 0207 52010000 		.4byte	0x152
 732 020b 20       		.byte	0x20
 733 020c 09       		.uleb128 0x9
 734 020d 705F7500 		.ascii	"p_u\000"
 735 0211 07       		.byte	0x7
 736 0212 AD       		.byte	0xad
 737 0213 19       		.byte	0x19
 738 0214 7E050000 		.4byte	0x57e
 739 0218 24       		.byte	0x24
 740 0219 08       		.uleb128 0x8
 741 021a 5F090000 		.4byte	.LASF40
ARM GAS  /var/folders/l5/0x54b2c10074c8bt31ycjvl80000gp/T//cc53Qo2h.s 			page 14


 742 021e 07       		.byte	0x7
 743 021f B2       		.byte	0xb2
 744 0220 19       		.byte	0x19
 745 0221 B5020000 		.4byte	0x2b5
 746 0225 28       		.byte	0x28
 747 0226 08       		.uleb128 0x8
 748 0227 19080000 		.4byte	.LASF41
 749 022b 07       		.byte	0x7
 750 022c B8       		.byte	0xb8
 751 022d 19       		.byte	0x19
 752 022e 92020000 		.4byte	0x292
 753 0232 2C       		.byte	0x2c
 754 0233 08       		.uleb128 0x8
 755 0234 0D000000 		.4byte	.LASF42
 756 0238 07       		.byte	0x7
 757 0239 BC       		.byte	0xbc
 758 023a 19       		.byte	0x19
 759 023b 22010000 		.4byte	0x122
 760 023f 34       		.byte	0x34
 761 0240 08       		.uleb128 0x8
 762 0241 F7060000 		.4byte	.LASF43
 763 0245 07       		.byte	0x7
 764 0246 C2       		.byte	0xc2
 765 0247 19       		.byte	0x19
 766 0248 2E010000 		.4byte	0x12e
 767 024c 38       		.byte	0x38
 768 024d 08       		.uleb128 0x8
 769 024e 5B060000 		.4byte	.LASF44
 770 0252 07       		.byte	0x7
 771 0253 C9       		.byte	0xc9
 772 0254 1A       		.byte	0x1a
 773 0255 CA050000 		.4byte	0x5ca
 774 0259 3C       		.byte	0x3c
 775 025a 08       		.uleb128 0x8
 776 025b B2070000 		.4byte	.LASF45
 777 025f 07       		.byte	0x7
 778 0260 CD       		.byte	0xcd
 779 0261 19       		.byte	0x19
 780 0262 16010000 		.4byte	0x116
 781 0266 40       		.byte	0x40
 782 0267 00       		.byte	0
 783 0268 0A       		.uleb128 0xa
 784 0269 08       		.byte	0x8
 785 026a 06       		.byte	0x6
 786 026b 5A       		.byte	0x5a
 787 026c 09       		.byte	0x9
 788 026d 8C020000 		.4byte	0x28c
 789 0271 08       		.uleb128 0x8
 790 0272 A4060000 		.4byte	.LASF28
 791 0276 06       		.byte	0x6
 792 0277 5B       		.byte	0x5b
 793 0278 1A       		.byte	0x1a
 794 0279 8C020000 		.4byte	0x28c
 795 027d 00       		.byte	0
 796 027e 08       		.uleb128 0x8
 797 027f 08060000 		.4byte	.LASF29
 798 0283 06       		.byte	0x6
ARM GAS  /var/folders/l5/0x54b2c10074c8bt31ycjvl80000gp/T//cc53Qo2h.s 			page 15


 799 0284 5D       		.byte	0x5d
 800 0285 1A       		.byte	0x1a
 801 0286 8C020000 		.4byte	0x28c
 802 028a 04       		.byte	0x4
 803 028b 00       		.byte	0
 804 028c 0B       		.uleb128 0xb
 805 028d 04       		.byte	0x4
 806 028e 57010000 		.4byte	0x157
 807 0292 03       		.uleb128 0x3
 808 0293 2C050000 		.4byte	.LASF46
 809 0297 06       		.byte	0x6
 810 0298 5F       		.byte	0x5f
 811 0299 03       		.byte	0x3
 812 029a 68020000 		.4byte	0x268
 813 029e 0A       		.uleb128 0xa
 814 029f 04       		.byte	0x4
 815 02a0 06       		.byte	0x6
 816 02a1 64       		.byte	0x64
 817 02a2 09       		.byte	0x9
 818 02a3 B5020000 		.4byte	0x2b5
 819 02a7 08       		.uleb128 0x8
 820 02a8 A4060000 		.4byte	.LASF28
 821 02ac 06       		.byte	0x6
 822 02ad 66       		.byte	0x66
 823 02ae 16       		.byte	0x16
 824 02af 8C020000 		.4byte	0x28c
 825 02b3 00       		.byte	0
 826 02b4 00       		.byte	0
 827 02b5 03       		.uleb128 0x3
 828 02b6 5D040000 		.4byte	.LASF47
 829 02ba 06       		.byte	0x6
 830 02bb 69       		.byte	0x69
 831 02bc 03       		.byte	0x3
 832 02bd 9E020000 		.4byte	0x29e
 833 02c1 03       		.uleb128 0x3
 834 02c2 93040000 		.4byte	.LASF48
 835 02c6 08       		.byte	0x8
 836 02c7 9D       		.byte	0x9d
 837 02c8 12       		.byte	0x12
 838 02c9 D5000000 		.4byte	0xd5
 839 02cd 03       		.uleb128 0x3
 840 02ce 41020000 		.4byte	.LASF49
 841 02d2 08       		.byte	0x8
 842 02d3 A2       		.byte	0xa2
 843 02d4 0F       		.byte	0xf
 844 02d5 D9020000 		.4byte	0x2d9
 845 02d9 0C       		.uleb128 0xc
 846 02da 04       		.byte	0x4
 847 02db 07       		.uleb128 0x7
 848 02dc 12080000 		.4byte	.LASF50
 849 02e0 24       		.byte	0x24
 850 02e1 08       		.byte	0x8
 851 02e2 B9       		.byte	0xb9
 852 02e3 08       		.byte	0x8
 853 02e4 57030000 		.4byte	0x357
 854 02e8 09       		.uleb128 0x9
 855 02e9 723400   		.ascii	"r4\000"
ARM GAS  /var/folders/l5/0x54b2c10074c8bt31ycjvl80000gp/T//cc53Qo2h.s 			page 16


 856 02ec 08       		.byte	0x8
 857 02ed BA       		.byte	0xba
 858 02ee 11       		.byte	0x11
 859 02ef CD020000 		.4byte	0x2cd
 860 02f3 00       		.byte	0
 861 02f4 09       		.uleb128 0x9
 862 02f5 723500   		.ascii	"r5\000"
 863 02f8 08       		.byte	0x8
 864 02f9 BB       		.byte	0xbb
 865 02fa 11       		.byte	0x11
 866 02fb CD020000 		.4byte	0x2cd
 867 02ff 04       		.byte	0x4
 868 0300 09       		.uleb128 0x9
 869 0301 723600   		.ascii	"r6\000"
 870 0304 08       		.byte	0x8
 871 0305 BC       		.byte	0xbc
 872 0306 11       		.byte	0x11
 873 0307 CD020000 		.4byte	0x2cd
 874 030b 08       		.byte	0x8
 875 030c 09       		.uleb128 0x9
 876 030d 723700   		.ascii	"r7\000"
 877 0310 08       		.byte	0x8
 878 0311 BD       		.byte	0xbd
 879 0312 11       		.byte	0x11
 880 0313 CD020000 		.4byte	0x2cd
 881 0317 0C       		.byte	0xc
 882 0318 09       		.uleb128 0x9
 883 0319 723800   		.ascii	"r8\000"
 884 031c 08       		.byte	0x8
 885 031d BE       		.byte	0xbe
 886 031e 11       		.byte	0x11
 887 031f CD020000 		.4byte	0x2cd
 888 0323 10       		.byte	0x10
 889 0324 09       		.uleb128 0x9
 890 0325 723900   		.ascii	"r9\000"
 891 0328 08       		.byte	0x8
 892 0329 BF       		.byte	0xbf
 893 032a 11       		.byte	0x11
 894 032b CD020000 		.4byte	0x2cd
 895 032f 14       		.byte	0x14
 896 0330 09       		.uleb128 0x9
 897 0331 72313000 		.ascii	"r10\000"
 898 0335 08       		.byte	0x8
 899 0336 C0       		.byte	0xc0
 900 0337 11       		.byte	0x11
 901 0338 CD020000 		.4byte	0x2cd
 902 033c 18       		.byte	0x18
 903 033d 09       		.uleb128 0x9
 904 033e 72313100 		.ascii	"r11\000"
 905 0342 08       		.byte	0x8
 906 0343 C1       		.byte	0xc1
 907 0344 11       		.byte	0x11
 908 0345 CD020000 		.4byte	0x2cd
 909 0349 1C       		.byte	0x1c
 910 034a 09       		.uleb128 0x9
 911 034b 6C7200   		.ascii	"lr\000"
 912 034e 08       		.byte	0x8
ARM GAS  /var/folders/l5/0x54b2c10074c8bt31ycjvl80000gp/T//cc53Qo2h.s 			page 17


 913 034f C2       		.byte	0xc2
 914 0350 11       		.byte	0x11
 915 0351 CD020000 		.4byte	0x2cd
 916 0355 20       		.byte	0x20
 917 0356 00       		.byte	0
 918 0357 07       		.uleb128 0x7
 919 0358 13030000 		.4byte	.LASF51
 920 035c 04       		.byte	0x4
 921 035d 08       		.byte	0x8
 922 035e CA       		.byte	0xca
 923 035f 08       		.byte	0x8
 924 0360 72030000 		.4byte	0x372
 925 0364 09       		.uleb128 0x9
 926 0365 72313300 		.ascii	"r13\000"
 927 0369 08       		.byte	0x8
 928 036a CB       		.byte	0xcb
 929 036b 12       		.byte	0x12
 930 036c 72030000 		.4byte	0x372
 931 0370 00       		.byte	0
 932 0371 00       		.byte	0
 933 0372 0B       		.uleb128 0xb
 934 0373 04       		.byte	0x4
 935 0374 DB020000 		.4byte	0x2db
 936 0378 03       		.uleb128 0x3
 937 0379 E1020000 		.4byte	.LASF52
 938 037d 09       		.byte	0x9
 939 037e 4E       		.byte	0x4e
 940 037f 10       		.byte	0x10
 941 0380 84030000 		.4byte	0x384
 942 0384 0B       		.uleb128 0xb
 943 0385 04       		.byte	0x4
 944 0386 8A030000 		.4byte	0x38a
 945 038a 0D       		.uleb128 0xd
 946 038b 95030000 		.4byte	0x395
 947 038f 0E       		.uleb128 0xe
 948 0390 D9020000 		.4byte	0x2d9
 949 0394 00       		.byte	0
 950 0395 03       		.uleb128 0x3
 951 0396 29070000 		.4byte	.LASF53
 952 039a 09       		.byte	0x9
 953 039b 53       		.byte	0x53
 954 039c 1D       		.byte	0x1d
 955 039d A1030000 		.4byte	0x3a1
 956 03a1 07       		.uleb128 0x7
 957 03a2 29070000 		.4byte	.LASF53
 958 03a6 14       		.byte	0x14
 959 03a7 09       		.byte	0x9
 960 03a8 5A       		.byte	0x5a
 961 03a9 08       		.byte	0x8
 962 03aa F0030000 		.4byte	0x3f0
 963 03ae 08       		.uleb128 0x8
 964 03af 95020000 		.4byte	.LASF54
 965 03b3 09       		.byte	0x9
 966 03b4 5B       		.byte	0x5b
 967 03b5 1A       		.byte	0x1a
 968 03b6 F0030000 		.4byte	0x3f0
 969 03ba 00       		.byte	0
ARM GAS  /var/folders/l5/0x54b2c10074c8bt31ycjvl80000gp/T//cc53Qo2h.s 			page 18


 970 03bb 08       		.uleb128 0x8
 971 03bc 4A020000 		.4byte	.LASF55
 972 03c0 09       		.byte	0x9
 973 03c1 5D       		.byte	0x5d
 974 03c2 1A       		.byte	0x1a
 975 03c3 F0030000 		.4byte	0x3f0
 976 03c7 04       		.byte	0x4
 977 03c8 08       		.uleb128 0x8
 978 03c9 BD040000 		.4byte	.LASF56
 979 03cd 09       		.byte	0x9
 980 03ce 5F       		.byte	0x5f
 981 03cf 19       		.byte	0x19
 982 03d0 46010000 		.4byte	0x146
 983 03d4 08       		.byte	0x8
 984 03d5 08       		.uleb128 0x8
 985 03d6 E5040000 		.4byte	.LASF57
 986 03da 09       		.byte	0x9
 987 03db 60       		.byte	0x60
 988 03dc 19       		.byte	0x19
 989 03dd 78030000 		.4byte	0x378
 990 03e1 0C       		.byte	0xc
 991 03e2 08       		.uleb128 0x8
 992 03e3 42080000 		.4byte	.LASF58
 993 03e7 09       		.byte	0x9
 994 03e8 62       		.byte	0x62
 995 03e9 1A       		.byte	0x1a
 996 03ea D9020000 		.4byte	0x2d9
 997 03ee 10       		.byte	0x10
 998 03ef 00       		.byte	0
 999 03f0 0B       		.uleb128 0xb
 1000 03f1 04       		.byte	0x4
 1001 03f2 95030000 		.4byte	0x395
 1002 03f6 0A       		.uleb128 0xa
 1003 03f7 10       		.byte	0x10
 1004 03f8 09       		.byte	0x9
 1005 03f9 6C       		.byte	0x6c
 1006 03fa 09       		.byte	0x9
 1007 03fb 34040000 		.4byte	0x434
 1008 03ff 08       		.uleb128 0x8
 1009 0400 95020000 		.4byte	.LASF54
 1010 0404 09       		.byte	0x9
 1011 0405 6D       		.byte	0x6d
 1012 0406 1A       		.byte	0x1a
 1013 0407 F0030000 		.4byte	0x3f0
 1014 040b 00       		.byte	0
 1015 040c 08       		.uleb128 0x8
 1016 040d 4A020000 		.4byte	.LASF55
 1017 0411 09       		.byte	0x9
 1018 0412 6F       		.byte	0x6f
 1019 0413 1A       		.byte	0x1a
 1020 0414 F0030000 		.4byte	0x3f0
 1021 0418 04       		.byte	0x4
 1022 0419 08       		.uleb128 0x8
 1023 041a BD040000 		.4byte	.LASF56
 1024 041e 09       		.byte	0x9
 1025 041f 71       		.byte	0x71
 1026 0420 19       		.byte	0x19
ARM GAS  /var/folders/l5/0x54b2c10074c8bt31ycjvl80000gp/T//cc53Qo2h.s 			page 19


 1027 0421 46010000 		.4byte	0x146
 1028 0425 08       		.byte	0x8
 1029 0426 08       		.uleb128 0x8
 1030 0427 F3080000 		.4byte	.LASF59
 1031 042b 09       		.byte	0x9
 1032 042c 72       		.byte	0x72
 1033 042d 19       		.byte	0x19
 1034 042e 52010000 		.4byte	0x152
 1035 0432 0C       		.byte	0xc
 1036 0433 00       		.byte	0
 1037 0434 03       		.uleb128 0x3
 1038 0435 26090000 		.4byte	.LASF60
 1039 0439 09       		.byte	0x9
 1040 043a 73       		.byte	0x73
 1041 043b 03       		.byte	0x3
 1042 043c F6030000 		.4byte	0x3f6
 1043 0440 0F       		.uleb128 0xf
 1044 0441 48000000 		.4byte	.LASF68
 1045 0445 09       		.byte	0x9
 1046 0446 D1       		.byte	0xd1
 1047 0447 0F       		.byte	0xf
 1048 0448 34040000 		.4byte	0x434
 1049 044c 0A       		.uleb128 0xa
 1050 044d 1C       		.byte	0x1c
 1051 044e 0A       		.byte	0xa
 1052 044f 57       		.byte	0x57
 1053 0450 09       		.byte	0x9
 1054 0451 A4040000 		.4byte	0x4a4
 1055 0455 08       		.uleb128 0x8
 1056 0456 21070000 		.4byte	.LASF61
 1057 045a 0A       		.byte	0xa
 1058 045b 58       		.byte	0x58
 1059 045c 19       		.byte	0x19
 1060 045d 92020000 		.4byte	0x292
 1061 0461 00       		.byte	0
 1062 0462 08       		.uleb128 0x8
 1063 0463 8D060000 		.4byte	.LASF62
 1064 0467 0A       		.byte	0xa
 1065 0468 59       		.byte	0x59
 1066 0469 19       		.byte	0x19
 1067 046a 16010000 		.4byte	0x116
 1068 046e 08       		.byte	0x8
 1069 046f 08       		.uleb128 0x8
 1070 0470 26050000 		.4byte	.LASF63
 1071 0474 0A       		.byte	0xa
 1072 0475 5B       		.byte	0x5b
 1073 0476 19       		.byte	0x19
 1074 0477 57030000 		.4byte	0x357
 1075 047b 0C       		.byte	0xc
 1076 047c 08       		.uleb128 0x8
 1077 047d 4D030000 		.4byte	.LASF64
 1078 0481 0A       		.byte	0xa
 1079 0482 5E       		.byte	0x5e
 1080 0483 1A       		.byte	0x1a
 1081 0484 8C020000 		.4byte	0x28c
 1082 0488 10       		.byte	0x10
 1083 0489 08       		.uleb128 0x8
ARM GAS  /var/folders/l5/0x54b2c10074c8bt31ycjvl80000gp/T//cc53Qo2h.s 			page 20


 1084 048a 95050000 		.4byte	.LASF65
 1085 048e 0A       		.byte	0xa
 1086 048f 5F       		.byte	0x5f
 1087 0490 1A       		.byte	0x1a
 1088 0491 8C020000 		.4byte	0x28c
 1089 0495 14       		.byte	0x14
 1090 0496 08       		.uleb128 0x8
 1091 0497 8B050000 		.4byte	.LASF66
 1092 049b 0A       		.byte	0xa
 1093 049c 62       		.byte	0x62
 1094 049d 1A       		.byte	0x1a
 1095 049e 8C020000 		.4byte	0x28c
 1096 04a2 18       		.byte	0x18
 1097 04a3 00       		.byte	0
 1098 04a4 03       		.uleb128 0x3
 1099 04a5 88080000 		.4byte	.LASF67
 1100 04a9 0A       		.byte	0xa
 1101 04aa 64       		.byte	0x64
 1102 04ab 03       		.byte	0x3
 1103 04ac 4C040000 		.4byte	0x44c
 1104 04b0 0F       		.uleb128 0xf
 1105 04b1 9B080000 		.4byte	.LASF69
 1106 04b5 0A       		.byte	0xa
 1107 04b6 68       		.byte	0x68
 1108 04b7 12       		.byte	0x12
 1109 04b8 A4040000 		.4byte	0x4a4
 1110 04bc 07       		.uleb128 0x7
 1111 04bd 80040000 		.4byte	.LASF70
 1112 04c1 10       		.byte	0x10
 1113 04c2 0B       		.byte	0xb
 1114 04c3 25       		.byte	0x25
 1115 04c4 10       		.byte	0x10
 1116 04c5 F1040000 		.4byte	0x4f1
 1117 04c9 08       		.uleb128 0x8
 1118 04ca 2F010000 		.4byte	.LASF71
 1119 04ce 0B       		.byte	0xb
 1120 04cf 26       		.byte	0x26
 1121 04d0 19       		.byte	0x19
 1122 04d1 92020000 		.4byte	0x292
 1123 04d5 00       		.byte	0
 1124 04d6 08       		.uleb128 0x8
 1125 04d7 3E090000 		.4byte	.LASF72
 1126 04db 0B       		.byte	0xb
 1127 04dc 28       		.byte	0x28
 1128 04dd 1A       		.byte	0x1a
 1129 04de 8C020000 		.4byte	0x28c
 1130 04e2 08       		.byte	0x8
 1131 04e3 08       		.uleb128 0x8
 1132 04e4 A1070000 		.4byte	.LASF73
 1133 04e8 0B       		.byte	0xb
 1134 04e9 2A       		.byte	0x2a
 1135 04ea 1A       		.byte	0x1a
 1136 04eb F1040000 		.4byte	0x4f1
 1137 04ef 0C       		.byte	0xc
 1138 04f0 00       		.byte	0
 1139 04f1 0B       		.uleb128 0xb
 1140 04f2 04       		.byte	0x4
ARM GAS  /var/folders/l5/0x54b2c10074c8bt31ycjvl80000gp/T//cc53Qo2h.s 			page 21


 1141 04f3 BC040000 		.4byte	0x4bc
 1142 04f7 03       		.uleb128 0x3
 1143 04f8 80040000 		.4byte	.LASF70
 1144 04fc 0B       		.byte	0xb
 1145 04fd 2C       		.byte	0x2c
 1146 04fe 03       		.byte	0x3
 1147 04ff BC040000 		.4byte	0x4bc
 1148 0503 03       		.uleb128 0x3
 1149 0504 CE080000 		.4byte	.LASF74
 1150 0508 0C       		.byte	0xc
 1151 0509 25       		.byte	0x25
 1152 050a 1E       		.byte	0x1e
 1153 050b 0F050000 		.4byte	0x50f
 1154 050f 07       		.uleb128 0x7
 1155 0510 CE080000 		.4byte	.LASF74
 1156 0514 10       		.byte	0x10
 1157 0515 0C       		.byte	0xc
 1158 0516 2A       		.byte	0x2a
 1159 0517 08       		.byte	0x8
 1160 0518 51050000 		.4byte	0x551
 1161 051c 08       		.uleb128 0x8
 1162 051d 55030000 		.4byte	.LASF75
 1163 0521 0C       		.byte	0xc
 1164 0522 2B       		.byte	0x2b
 1165 0523 1A       		.byte	0x1a
 1166 0524 51050000 		.4byte	0x551
 1167 0528 00       		.byte	0
 1168 0529 08       		.uleb128 0x8
 1169 052a 46060000 		.4byte	.LASF76
 1170 052e 0C       		.byte	0xc
 1171 052f 2E       		.byte	0x2e
 1172 0530 1A       		.byte	0x1a
 1173 0531 8C020000 		.4byte	0x28c
 1174 0535 04       		.byte	0x4
 1175 0536 08       		.uleb128 0x8
 1176 0537 9D050000 		.4byte	.LASF77
 1177 053b 0C       		.byte	0xc
 1178 053c 30       		.byte	0x30
 1179 053d 19       		.byte	0x19
 1180 053e 2E010000 		.4byte	0x12e
 1181 0542 08       		.byte	0x8
 1182 0543 08       		.uleb128 0x8
 1183 0544 52060000 		.4byte	.LASF78
 1184 0548 0C       		.byte	0xc
 1185 0549 33       		.byte	0x33
 1186 054a 19       		.byte	0x19
 1187 054b 3A010000 		.4byte	0x13a
 1188 054f 0C       		.byte	0xc
 1189 0550 00       		.byte	0
 1190 0551 0B       		.uleb128 0xb
 1191 0552 04       		.byte	0x4
 1192 0553 03050000 		.4byte	0x503
 1193 0557 07       		.uleb128 0x7
 1194 0558 77020000 		.4byte	.LASF79
 1195 055c 04       		.byte	0x4
 1196 055d 0C       		.byte	0xc
 1197 055e 3A       		.byte	0x3a
ARM GAS  /var/folders/l5/0x54b2c10074c8bt31ycjvl80000gp/T//cc53Qo2h.s 			page 22


 1198 055f 10       		.byte	0x10
 1199 0560 72050000 		.4byte	0x572
 1200 0564 08       		.uleb128 0x8
 1201 0565 FE080000 		.4byte	.LASF80
 1202 0569 0C       		.byte	0xc
 1203 056a 3B       		.byte	0x3b
 1204 056b 1A       		.byte	0x1a
 1205 056c 51050000 		.4byte	0x551
 1206 0570 00       		.byte	0
 1207 0571 00       		.byte	0
 1208 0572 03       		.uleb128 0x3
 1209 0573 77020000 		.4byte	.LASF79
 1210 0577 0C       		.byte	0xc
 1211 0578 3E       		.byte	0x3e
 1212 0579 03       		.byte	0x3
 1213 057a 57050000 		.4byte	0x557
 1214 057e 10       		.uleb128 0x10
 1215 057f 04       		.byte	0x4
 1216 0580 07       		.byte	0x7
 1217 0581 8F       		.byte	0x8f
 1218 0582 03       		.byte	0x3
 1219 0583 B8050000 		.4byte	0x5b8
 1220 0587 11       		.uleb128 0x11
 1221 0588 1A000000 		.4byte	.LASF81
 1222 058c 07       		.byte	0x7
 1223 058d 96       		.byte	0x96
 1224 058e 19       		.byte	0x19
 1225 058f 22010000 		.4byte	0x122
 1226 0593 11       		.uleb128 0x11
 1227 0594 93000000 		.4byte	.LASF82
 1228 0598 07       		.byte	0x7
 1229 0599 9D       		.byte	0x9d
 1230 059a 19       		.byte	0x19
 1231 059b 22010000 		.4byte	0x122
 1232 059f 11       		.uleb128 0x11
 1233 05a0 DC080000 		.4byte	.LASF83
 1234 05a4 07       		.byte	0x7
 1235 05a5 A4       		.byte	0xa4
 1236 05a6 1A       		.byte	0x1a
 1237 05a7 D9020000 		.4byte	0x2d9
 1238 05ab 11       		.uleb128 0x11
 1239 05ac 9D060000 		.4byte	.LASF84
 1240 05b0 07       		.byte	0x7
 1241 05b1 AB       		.byte	0xab
 1242 05b2 19       		.byte	0x19
 1243 05b3 2E010000 		.4byte	0x12e
 1244 05b7 00       		.byte	0
 1245 05b8 0B       		.uleb128 0xb
 1246 05b9 04       		.byte	0x4
 1247 05ba C5050000 		.4byte	0x5c5
 1248 05be 04       		.uleb128 0x4
 1249 05bf 01       		.byte	0x1
 1250 05c0 08       		.byte	0x8
 1251 05c1 72070000 		.4byte	.LASF85
 1252 05c5 06       		.uleb128 0x6
 1253 05c6 BE050000 		.4byte	0x5be
 1254 05ca 0B       		.uleb128 0xb
ARM GAS  /var/folders/l5/0x54b2c10074c8bt31ycjvl80000gp/T//cc53Qo2h.s 			page 23


 1255 05cb 04       		.byte	0x4
 1256 05cc F7040000 		.4byte	0x4f7
 1257 05d0 0B       		.uleb128 0xb
 1258 05d1 04       		.byte	0x4
 1259 05d2 D6050000 		.4byte	0x5d6
 1260 05d6 12       		.uleb128 0x12
 1261 05d7 22010000 		.4byte	0x122
 1262 05db E5050000 		.4byte	0x5e5
 1263 05df 0E       		.uleb128 0xe
 1264 05e0 D9020000 		.4byte	0x2d9
 1265 05e4 00       		.byte	0
 1266 05e5 0A       		.uleb128 0xa
 1267 05e6 16       		.byte	0x16
 1268 05e7 0D       		.byte	0xd
 1269 05e8 25       		.byte	0x25
 1270 05e9 09       		.byte	0x9
 1271 05ea D9060000 		.4byte	0x6d9
 1272 05ee 08       		.uleb128 0x8
 1273 05ef EA020000 		.4byte	.LASF86
 1274 05f3 0D       		.byte	0xd
 1275 05f4 26       		.byte	0x26
 1276 05f5 0D       		.byte	0xd
 1277 05f6 D9060000 		.4byte	0x6d9
 1278 05fa 00       		.byte	0
 1279 05fb 08       		.uleb128 0x8
 1280 05fc 9E040000 		.4byte	.LASF87
 1281 0600 0D       		.byte	0xd
 1282 0601 27       		.byte	0x27
 1283 0602 0D       		.byte	0xd
 1284 0603 AC000000 		.4byte	0xac
 1285 0607 04       		.byte	0x4
 1286 0608 08       		.uleb128 0x8
 1287 0609 7B050000 		.4byte	.LASF88
 1288 060d 0D       		.byte	0xd
 1289 060e 28       		.byte	0x28
 1290 060f 0D       		.byte	0xd
 1291 0610 AC000000 		.4byte	0xac
 1292 0614 05       		.byte	0x5
 1293 0615 08       		.uleb128 0x8
 1294 0616 10090000 		.4byte	.LASF89
 1295 061a 0D       		.byte	0xd
 1296 061b 29       		.byte	0x29
 1297 061c 0D       		.byte	0xd
 1298 061d BD000000 		.4byte	0xbd
 1299 0621 06       		.byte	0x6
 1300 0622 08       		.uleb128 0x8
 1301 0623 F3050000 		.4byte	.LASF90
 1302 0627 0D       		.byte	0xd
 1303 0628 2A       		.byte	0x2a
 1304 0629 0D       		.byte	0xd
 1305 062a AC000000 		.4byte	0xac
 1306 062e 08       		.byte	0x8
 1307 062f 08       		.uleb128 0x8
 1308 0630 ED040000 		.4byte	.LASF91
 1309 0634 0D       		.byte	0xd
 1310 0635 2B       		.byte	0x2b
 1311 0636 0D       		.byte	0xd
ARM GAS  /var/folders/l5/0x54b2c10074c8bt31ycjvl80000gp/T//cc53Qo2h.s 			page 24


 1312 0637 AC000000 		.4byte	0xac
 1313 063b 09       		.byte	0x9
 1314 063c 08       		.uleb128 0x8
 1315 063d 85000000 		.4byte	.LASF92
 1316 0641 0D       		.byte	0xd
 1317 0642 2C       		.byte	0x2c
 1318 0643 0D       		.byte	0xd
 1319 0644 AC000000 		.4byte	0xac
 1320 0648 0A       		.byte	0xa
 1321 0649 08       		.uleb128 0x8
 1322 064a 15070000 		.4byte	.LASF93
 1323 064e 0D       		.byte	0xd
 1324 064f 2D       		.byte	0x2d
 1325 0650 0D       		.byte	0xd
 1326 0651 AC000000 		.4byte	0xac
 1327 0655 0B       		.byte	0xb
 1328 0656 08       		.uleb128 0x8
 1329 0657 6F080000 		.4byte	.LASF94
 1330 065b 0D       		.byte	0xd
 1331 065c 2E       		.byte	0x2e
 1332 065d 0D       		.byte	0xd
 1333 065e AC000000 		.4byte	0xac
 1334 0662 0C       		.byte	0xc
 1335 0663 08       		.uleb128 0x8
 1336 0664 DF060000 		.4byte	.LASF95
 1337 0668 0D       		.byte	0xd
 1338 0669 2F       		.byte	0x2f
 1339 066a 0D       		.byte	0xd
 1340 066b AC000000 		.4byte	0xac
 1341 066f 0D       		.byte	0xd
 1342 0670 08       		.uleb128 0x8
 1343 0671 00000000 		.4byte	.LASF96
 1344 0675 0D       		.byte	0xd
 1345 0676 30       		.byte	0x30
 1346 0677 0D       		.byte	0xd
 1347 0678 AC000000 		.4byte	0xac
 1348 067c 0E       		.byte	0xe
 1349 067d 08       		.uleb128 0x8
 1350 067e 02050000 		.4byte	.LASF97
 1351 0682 0D       		.byte	0xd
 1352 0683 31       		.byte	0x31
 1353 0684 0D       		.byte	0xd
 1354 0685 AC000000 		.4byte	0xac
 1355 0689 0F       		.byte	0xf
 1356 068a 08       		.uleb128 0x8
 1357 068b 01010000 		.4byte	.LASF98
 1358 068f 0D       		.byte	0xd
 1359 0690 32       		.byte	0x32
 1360 0691 0D       		.byte	0xd
 1361 0692 AC000000 		.4byte	0xac
 1362 0696 10       		.byte	0x10
 1363 0697 08       		.uleb128 0x8
 1364 0698 BC000000 		.4byte	.LASF99
 1365 069c 0D       		.byte	0xd
 1366 069d 34       		.byte	0x34
 1367 069e 0D       		.byte	0xd
 1368 069f AC000000 		.4byte	0xac
ARM GAS  /var/folders/l5/0x54b2c10074c8bt31ycjvl80000gp/T//cc53Qo2h.s 			page 25


 1369 06a3 11       		.byte	0x11
 1370 06a4 08       		.uleb128 0x8
 1371 06a5 1A010000 		.4byte	.LASF100
 1372 06a9 0D       		.byte	0xd
 1373 06aa 35       		.byte	0x35
 1374 06ab 0D       		.byte	0xd
 1375 06ac AC000000 		.4byte	0xac
 1376 06b0 12       		.byte	0x12
 1377 06b1 08       		.uleb128 0x8
 1378 06b2 A6040000 		.4byte	.LASF101
 1379 06b6 0D       		.byte	0xd
 1380 06b7 36       		.byte	0x36
 1381 06b8 0D       		.byte	0xd
 1382 06b9 AC000000 		.4byte	0xac
 1383 06bd 13       		.byte	0x13
 1384 06be 08       		.uleb128 0x8
 1385 06bf B3060000 		.4byte	.LASF102
 1386 06c3 0D       		.byte	0xd
 1387 06c4 37       		.byte	0x37
 1388 06c5 0D       		.byte	0xd
 1389 06c6 AC000000 		.4byte	0xac
 1390 06ca 14       		.byte	0x14
 1391 06cb 08       		.uleb128 0x8
 1392 06cc 81060000 		.4byte	.LASF103
 1393 06d0 0D       		.byte	0xd
 1394 06d1 39       		.byte	0x39
 1395 06d2 0D       		.byte	0xd
 1396 06d3 AC000000 		.4byte	0xac
 1397 06d7 15       		.byte	0x15
 1398 06d8 00       		.byte	0
 1399 06d9 13       		.uleb128 0x13
 1400 06da BE050000 		.4byte	0x5be
 1401 06de E9060000 		.4byte	0x6e9
 1402 06e2 14       		.uleb128 0x14
 1403 06e3 38000000 		.4byte	0x38
 1404 06e7 03       		.byte	0x3
 1405 06e8 00       		.byte	0
 1406 06e9 03       		.uleb128 0x3
 1407 06ea B4010000 		.4byte	.LASF104
 1408 06ee 0D       		.byte	0xd
 1409 06ef 3A       		.byte	0x3a
 1410 06f0 03       		.byte	0x3
 1411 06f1 E5050000 		.4byte	0x5e5
 1412 06f5 06       		.uleb128 0x6
 1413 06f6 E9060000 		.4byte	0x6e9
 1414 06fa 0F       		.uleb128 0xf
 1415 06fb D3020000 		.4byte	.LASF105
 1416 06ff 0D       		.byte	0xd
 1417 0700 77       		.byte	0x77
 1418 0701 1D       		.byte	0x1d
 1419 0702 F5060000 		.4byte	0x6f5
 1420 0706 03       		.uleb128 0x3
 1421 0707 86040000 		.4byte	.LASF106
 1422 070b 0E       		.byte	0xe
 1423 070c 30       		.byte	0x30
 1424 070d 1D       		.byte	0x1d
 1425 070e 12070000 		.4byte	0x712
ARM GAS  /var/folders/l5/0x54b2c10074c8bt31ycjvl80000gp/T//cc53Qo2h.s 			page 26


 1426 0712 07       		.uleb128 0x7
 1427 0713 86040000 		.4byte	.LASF106
 1428 0717 24       		.byte	0x24
 1429 0718 0E       		.byte	0xe
 1430 0719 3E       		.byte	0x3e
 1431 071a 08       		.byte	0x8
 1432 071b 88070000 		.4byte	0x788
 1433 071f 08       		.uleb128 0x8
 1434 0720 DD000000 		.4byte	.LASF107
 1435 0724 0E       		.byte	0xe
 1436 0725 3F       		.byte	0x3f
 1437 0726 19       		.byte	0x19
 1438 0727 92020000 		.4byte	0x292
 1439 072b 00       		.byte	0
 1440 072c 08       		.uleb128 0x8
 1441 072d DB040000 		.4byte	.LASF108
 1442 0731 0E       		.byte	0xe
 1443 0732 40       		.byte	0x40
 1444 0733 19       		.byte	0x19
 1445 0734 2C000000 		.4byte	0x2c
 1446 0738 08       		.byte	0x8
 1447 0739 08       		.uleb128 0x8
 1448 073a 9D010000 		.4byte	.LASF109
 1449 073e 0E       		.byte	0xe
 1450 073f 41       		.byte	0x41
 1451 0740 1A       		.byte	0x1a
 1452 0741 AB070000 		.4byte	0x7ab
 1453 0745 0C       		.byte	0xc
 1454 0746 08       		.uleb128 0x8
 1455 0747 68000000 		.4byte	.LASF110
 1456 074b 0E       		.byte	0xe
 1457 074c 42       		.byte	0x42
 1458 074d 1A       		.byte	0x1a
 1459 074e AB070000 		.4byte	0x7ab
 1460 0752 10       		.byte	0x10
 1461 0753 08       		.uleb128 0x8
 1462 0754 1E050000 		.4byte	.LASF111
 1463 0758 0E       		.byte	0xe
 1464 0759 44       		.byte	0x44
 1465 075a 1A       		.byte	0x1a
 1466 075b AB070000 		.4byte	0x7ab
 1467 075f 14       		.byte	0x14
 1468 0760 08       		.uleb128 0x8
 1469 0761 17060000 		.4byte	.LASF112
 1470 0765 0E       		.byte	0xe
 1471 0766 45       		.byte	0x45
 1472 0767 1A       		.byte	0x1a
 1473 0768 AB070000 		.4byte	0x7ab
 1474 076c 18       		.byte	0x18
 1475 076d 08       		.uleb128 0x8
 1476 076e 92080000 		.4byte	.LASF113
 1477 0772 0E       		.byte	0xe
 1478 0773 46       		.byte	0x46
 1479 0774 19       		.byte	0x19
 1480 0775 88070000 		.4byte	0x788
 1481 0779 1C       		.byte	0x1c
 1482 077a 08       		.uleb128 0x8
ARM GAS  /var/folders/l5/0x54b2c10074c8bt31ycjvl80000gp/T//cc53Qo2h.s 			page 27


 1483 077b 2D090000 		.4byte	.LASF114
 1484 077f 0E       		.byte	0xe
 1485 0780 47       		.byte	0x47
 1486 0781 1A       		.byte	0x1a
 1487 0782 D9020000 		.4byte	0x2d9
 1488 0786 20       		.byte	0x20
 1489 0787 00       		.byte	0
 1490 0788 03       		.uleb128 0x3
 1491 0789 FE050000 		.4byte	.LASF115
 1492 078d 0E       		.byte	0xe
 1493 078e 33       		.byte	0x33
 1494 078f 10       		.byte	0x10
 1495 0790 94070000 		.4byte	0x794
 1496 0794 0B       		.uleb128 0xb
 1497 0795 04       		.byte	0x4
 1498 0796 9A070000 		.4byte	0x79a
 1499 079a 0D       		.uleb128 0xd
 1500 079b A5070000 		.4byte	0x7a5
 1501 079f 0E       		.uleb128 0xe
 1502 07a0 A5070000 		.4byte	0x7a5
 1503 07a4 00       		.byte	0
 1504 07a5 0B       		.uleb128 0xb
 1505 07a6 04       		.byte	0x4
 1506 07a7 06070000 		.4byte	0x706
 1507 07ab 0B       		.uleb128 0xb
 1508 07ac 04       		.byte	0x4
 1509 07ad AC000000 		.4byte	0xac
 1510 07b1 03       		.uleb128 0x3
 1511 07b2 75040000 		.4byte	.LASF116
 1512 07b6 0E       		.byte	0xe
 1513 07b7 7B       		.byte	0x7b
 1514 07b8 16       		.byte	0x16
 1515 07b9 06070000 		.4byte	0x706
 1516 07bd 03       		.uleb128 0x3
 1517 07be 27000000 		.4byte	.LASF117
 1518 07c2 0E       		.byte	0xe
 1519 07c3 EE       		.byte	0xee
 1520 07c4 16       		.byte	0x16
 1521 07c5 06070000 		.4byte	0x706
 1522 07c9 12       		.uleb128 0x12
 1523 07ca 2C000000 		.4byte	0x2c
 1524 07ce E2070000 		.4byte	0x7e2
 1525 07d2 0E       		.uleb128 0xe
 1526 07d3 D9020000 		.4byte	0x2d9
 1527 07d7 0E       		.uleb128 0xe
 1528 07d8 E2070000 		.4byte	0x7e2
 1529 07dc 0E       		.uleb128 0xe
 1530 07dd 2C000000 		.4byte	0x2c
 1531 07e1 00       		.byte	0
 1532 07e2 0B       		.uleb128 0xb
 1533 07e3 04       		.byte	0x4
 1534 07e4 B8000000 		.4byte	0xb8
 1535 07e8 0B       		.uleb128 0xb
 1536 07e9 04       		.byte	0x4
 1537 07ea C9070000 		.4byte	0x7c9
 1538 07ee 12       		.uleb128 0x12
 1539 07ef 2C000000 		.4byte	0x2c
ARM GAS  /var/folders/l5/0x54b2c10074c8bt31ycjvl80000gp/T//cc53Qo2h.s 			page 28


 1540 07f3 07080000 		.4byte	0x807
 1541 07f7 0E       		.uleb128 0xe
 1542 07f8 D9020000 		.4byte	0x2d9
 1543 07fc 0E       		.uleb128 0xe
 1544 07fd AB070000 		.4byte	0x7ab
 1545 0801 0E       		.uleb128 0xe
 1546 0802 2C000000 		.4byte	0x2c
 1547 0806 00       		.byte	0
 1548 0807 0B       		.uleb128 0xb
 1549 0808 04       		.byte	0x4
 1550 0809 EE070000 		.4byte	0x7ee
 1551 080d 12       		.uleb128 0x12
 1552 080e 22010000 		.4byte	0x122
 1553 0812 21080000 		.4byte	0x821
 1554 0816 0E       		.uleb128 0xe
 1555 0817 D9020000 		.4byte	0x2d9
 1556 081b 0E       		.uleb128 0xe
 1557 081c AC000000 		.4byte	0xac
 1558 0820 00       		.byte	0
 1559 0821 0B       		.uleb128 0xb
 1560 0822 04       		.byte	0x4
 1561 0823 0D080000 		.4byte	0x80d
 1562 0827 13       		.uleb128 0x13
 1563 0828 C1020000 		.4byte	0x2c1
 1564 082c 37080000 		.4byte	0x837
 1565 0830 14       		.uleb128 0x14
 1566 0831 38000000 		.4byte	0x38
 1567 0835 26       		.byte	0x26
 1568 0836 00       		.byte	0
 1569 0837 0F       		.uleb128 0xf
 1570 0838 E0010000 		.4byte	.LASF118
 1571 083c 0F       		.byte	0xf
 1572 083d 82       		.byte	0x82
 1573 083e 08       		.byte	0x8
 1574 083f 27080000 		.4byte	0x827
 1575 0843 07       		.uleb128 0x7
 1576 0844 4F000000 		.4byte	.LASF119
 1577 0848 20       		.byte	0x20
 1578 0849 10       		.byte	0x10
 1579 084a FD       		.byte	0xfd
 1580 084b 08       		.byte	0x8
 1581 084c BF080000 		.4byte	0x8bf
 1582 0850 08       		.uleb128 0x8
 1583 0851 29020000 		.4byte	.LASF120
 1584 0855 10       		.byte	0x10
 1585 0856 FE       		.byte	0xfe
 1586 0857 19       		.byte	0x19
 1587 0858 3F000000 		.4byte	0x3f
 1588 085c 00       		.byte	0
 1589 085d 08       		.uleb128 0x8
 1590 085e 81080000 		.4byte	.LASF121
 1591 0862 10       		.byte	0x10
 1592 0863 FF       		.byte	0xff
 1593 0864 19       		.byte	0x19
 1594 0865 3F000000 		.4byte	0x3f
 1595 0869 04       		.byte	0x4
 1596 086a 15       		.uleb128 0x15
ARM GAS  /var/folders/l5/0x54b2c10074c8bt31ycjvl80000gp/T//cc53Qo2h.s 			page 29


 1597 086b 1B090000 		.4byte	.LASF122
 1598 086f 10       		.byte	0x10
 1599 0870 0001     		.2byte	0x100
 1600 0872 19       		.byte	0x19
 1601 0873 3F000000 		.4byte	0x3f
 1602 0877 08       		.byte	0x8
 1603 0878 15       		.uleb128 0x15
 1604 0879 52020000 		.4byte	.LASF123
 1605 087d 10       		.byte	0x10
 1606 087e 0101     		.2byte	0x101
 1607 0880 19       		.byte	0x19
 1608 0881 3F000000 		.4byte	0x3f
 1609 0885 0C       		.byte	0xc
 1610 0886 15       		.uleb128 0x15
 1611 0887 AC000000 		.4byte	.LASF124
 1612 088b 10       		.byte	0x10
 1613 088c 0201     		.2byte	0x102
 1614 088e 19       		.byte	0x19
 1615 088f 3F000000 		.4byte	0x3f
 1616 0893 10       		.byte	0x10
 1617 0894 15       		.uleb128 0x15
 1618 0895 CE040000 		.4byte	.LASF125
 1619 0899 10       		.byte	0x10
 1620 089a 0301     		.2byte	0x103
 1621 089c 19       		.byte	0x19
 1622 089d 3F000000 		.4byte	0x3f
 1623 08a1 14       		.byte	0x14
 1624 08a2 15       		.uleb128 0x15
 1625 08a3 8D010000 		.4byte	.LASF126
 1626 08a7 10       		.byte	0x10
 1627 08a8 0401     		.2byte	0x104
 1628 08aa 19       		.byte	0x19
 1629 08ab 3F000000 		.4byte	0x3f
 1630 08af 18       		.byte	0x18
 1631 08b0 15       		.uleb128 0x15
 1632 08b1 71090000 		.4byte	.LASF127
 1633 08b5 10       		.byte	0x10
 1634 08b6 0501     		.2byte	0x105
 1635 08b8 19       		.byte	0x19
 1636 08b9 3F000000 		.4byte	0x3f
 1637 08bd 1C       		.byte	0x1c
 1638 08be 00       		.byte	0
 1639 08bf 16       		.uleb128 0x16
 1640 08c0 4F000000 		.4byte	.LASF119
 1641 08c4 10       		.byte	0x10
 1642 08c5 0801     		.2byte	0x108
 1643 08c7 1C       		.byte	0x1c
 1644 08c8 43080000 		.4byte	0x843
 1645 08cc 12       		.uleb128 0x12
 1646 08cd 22010000 		.4byte	0x122
 1647 08d1 E5080000 		.4byte	0x8e5
 1648 08d5 0E       		.uleb128 0xe
 1649 08d6 D9020000 		.4byte	0x2d9
 1650 08da 0E       		.uleb128 0xe
 1651 08db AC000000 		.4byte	0xac
 1652 08df 0E       		.uleb128 0xe
 1653 08e0 46010000 		.4byte	0x146
ARM GAS  /var/folders/l5/0x54b2c10074c8bt31ycjvl80000gp/T//cc53Qo2h.s 			page 30


 1654 08e4 00       		.byte	0
 1655 08e5 0B       		.uleb128 0xb
 1656 08e6 04       		.byte	0x4
 1657 08e7 CC080000 		.4byte	0x8cc
 1658 08eb 12       		.uleb128 0x12
 1659 08ec 22010000 		.4byte	0x122
 1660 08f0 FF080000 		.4byte	0x8ff
 1661 08f4 0E       		.uleb128 0xe
 1662 08f5 D9020000 		.4byte	0x2d9
 1663 08f9 0E       		.uleb128 0xe
 1664 08fa 46010000 		.4byte	0x146
 1665 08fe 00       		.byte	0
 1666 08ff 0B       		.uleb128 0xb
 1667 0900 04       		.byte	0x4
 1668 0901 EB080000 		.4byte	0x8eb
 1669 0905 12       		.uleb128 0x12
 1670 0906 2C000000 		.4byte	0x2c
 1671 090a 23090000 		.4byte	0x923
 1672 090e 0E       		.uleb128 0xe
 1673 090f D9020000 		.4byte	0x2d9
 1674 0913 0E       		.uleb128 0xe
 1675 0914 E2070000 		.4byte	0x7e2
 1676 0918 0E       		.uleb128 0xe
 1677 0919 2C000000 		.4byte	0x2c
 1678 091d 0E       		.uleb128 0xe
 1679 091e 46010000 		.4byte	0x146
 1680 0922 00       		.byte	0
 1681 0923 0B       		.uleb128 0xb
 1682 0924 04       		.byte	0x4
 1683 0925 05090000 		.4byte	0x905
 1684 0929 12       		.uleb128 0x12
 1685 092a 2C000000 		.4byte	0x2c
 1686 092e 47090000 		.4byte	0x947
 1687 0932 0E       		.uleb128 0xe
 1688 0933 D9020000 		.4byte	0x2d9
 1689 0937 0E       		.uleb128 0xe
 1690 0938 AB070000 		.4byte	0x7ab
 1691 093c 0E       		.uleb128 0xe
 1692 093d 2C000000 		.4byte	0x2c
 1693 0941 0E       		.uleb128 0xe
 1694 0942 46010000 		.4byte	0x146
 1695 0946 00       		.byte	0
 1696 0947 0B       		.uleb128 0xb
 1697 0948 04       		.byte	0x4
 1698 0949 29090000 		.4byte	0x929
 1699 094d 0A       		.uleb128 0xa
 1700 094e 18       		.byte	0x18
 1701 094f 11       		.byte	0x11
 1702 0950 2A       		.byte	0x2a
 1703 0951 09       		.byte	0x9
 1704 0952 A5090000 		.4byte	0x9a5
 1705 0956 08       		.uleb128 0x8
 1706 0957 C8080000 		.4byte	.LASF128
 1707 095b 11       		.byte	0x11
 1708 095c 2F       		.byte	0x2f
 1709 095d 15       		.byte	0x15
 1710 095e D5000000 		.4byte	0xd5
ARM GAS  /var/folders/l5/0x54b2c10074c8bt31ycjvl80000gp/T//cc53Qo2h.s 			page 31


 1711 0962 00       		.byte	0
 1712 0963 08       		.uleb128 0x8
 1713 0964 A5050000 		.4byte	.LASF129
 1714 0968 11       		.byte	0x11
 1715 0969 31       		.byte	0x31
 1716 096a 16       		.byte	0x16
 1717 096b A5090000 		.4byte	0x9a5
 1718 096f 04       		.byte	0x4
 1719 0970 08       		.uleb128 0x8
 1720 0971 3A030000 		.4byte	.LASF130
 1721 0975 11       		.byte	0x11
 1722 0976 32       		.byte	0x32
 1723 0977 16       		.byte	0x16
 1724 0978 A5090000 		.4byte	0x9a5
 1725 097c 08       		.byte	0x8
 1726 097d 08       		.uleb128 0x8
 1727 097e B2040000 		.4byte	.LASF131
 1728 0982 11       		.byte	0x11
 1729 0983 33       		.byte	0x33
 1730 0984 16       		.byte	0x16
 1731 0985 A5090000 		.4byte	0x9a5
 1732 0989 0C       		.byte	0xc
 1733 098a 08       		.uleb128 0x8
 1734 098b AB050000 		.4byte	.LASF132
 1735 098f 11       		.byte	0x11
 1736 0990 34       		.byte	0x34
 1737 0991 16       		.byte	0x16
 1738 0992 A5090000 		.4byte	0x9a5
 1739 0996 10       		.byte	0x10
 1740 0997 08       		.uleb128 0x8
 1741 0998 94060000 		.4byte	.LASF133
 1742 099c 11       		.byte	0x11
 1743 099d 35       		.byte	0x35
 1744 099e 10       		.byte	0x10
 1745 099f 38000000 		.4byte	0x38
 1746 09a3 14       		.byte	0x14
 1747 09a4 00       		.byte	0
 1748 09a5 0B       		.uleb128 0xb
 1749 09a6 04       		.byte	0x4
 1750 09a7 E1000000 		.4byte	0xe1
 1751 09ab 03       		.uleb128 0x3
 1752 09ac 2E030000 		.4byte	.LASF134
 1753 09b0 11       		.byte	0x11
 1754 09b1 37       		.byte	0x37
 1755 09b2 03       		.byte	0x3
 1756 09b3 4D090000 		.4byte	0x94d
 1757 09b7 17       		.uleb128 0x17
 1758 09b8 00       		.byte	0
 1759 09b9 11       		.byte	0x11
 1760 09ba 43       		.byte	0x43
 1761 09bb 09       		.byte	0x9
 1762 09bc 03       		.uleb128 0x3
 1763 09bd 34090000 		.4byte	.LASF135
 1764 09c1 11       		.byte	0x11
 1765 09c2 45       		.byte	0x45
 1766 09c3 03       		.byte	0x3
 1767 09c4 B7090000 		.4byte	0x9b7
ARM GAS  /var/folders/l5/0x54b2c10074c8bt31ycjvl80000gp/T//cc53Qo2h.s 			page 32


 1768 09c8 06       		.uleb128 0x6
 1769 09c9 BC090000 		.4byte	0x9bc
 1770 09cd 03       		.uleb128 0x3
 1771 09ce 5B000000 		.4byte	.LASF136
 1772 09d2 11       		.byte	0x11
 1773 09d3 55       		.byte	0x55
 1774 09d4 12       		.byte	0x12
 1775 09d5 D5000000 		.4byte	0xd5
 1776 09d9 03       		.uleb128 0x3
 1777 09da DB070000 		.4byte	.LASF137
 1778 09de 11       		.byte	0x11
 1779 09df 62       		.byte	0x62
 1780 09e0 16       		.byte	0x16
 1781 09e1 E5090000 		.4byte	0x9e5
 1782 09e5 0B       		.uleb128 0xb
 1783 09e6 04       		.byte	0x4
 1784 09e7 AB090000 		.4byte	0x9ab
 1785 09eb 0F       		.uleb128 0xf
 1786 09ec 83050000 		.4byte	.LASF138
 1787 09f0 11       		.byte	0x11
 1788 09f1 6D       		.byte	0x6d
 1789 09f2 14       		.byte	0x14
 1790 09f3 AB090000 		.4byte	0x9ab
 1791 09f7 0F       		.uleb128 0xf
 1792 09f8 AB060000 		.4byte	.LASF139
 1793 09fc 11       		.byte	0x11
 1794 09fd 6E       		.byte	0x6e
 1795 09fe 14       		.byte	0x14
 1796 09ff AB090000 		.4byte	0x9ab
 1797 0a03 0F       		.uleb128 0xf
 1798 0a04 46090000 		.4byte	.LASF140
 1799 0a08 11       		.byte	0x11
 1800 0a09 75       		.byte	0x75
 1801 0a0a 18       		.byte	0x18
 1802 0a0b C8090000 		.4byte	0x9c8
 1803 0a0f 18       		.uleb128 0x18
 1804 0a10 07       		.byte	0x7
 1805 0a11 01       		.byte	0x1
 1806 0a12 57000000 		.4byte	0x57
 1807 0a16 12       		.byte	0x12
 1808 0a17 54       		.byte	0x54
 1809 0a18 0E       		.byte	0xe
 1810 0a19 420A0000 		.4byte	0xa42
 1811 0a1d 19       		.uleb128 0x19
 1812 0a1e 54010000 		.4byte	.LASF141
 1813 0a22 00       		.byte	0
 1814 0a23 19       		.uleb128 0x19
 1815 0a24 C5040000 		.4byte	.LASF142
 1816 0a28 01       		.byte	0x1
 1817 0a29 19       		.uleb128 0x19
 1818 0a2a C7070000 		.4byte	.LASF143
 1819 0a2e 02       		.byte	0x2
 1820 0a2f 19       		.uleb128 0x19
 1821 0a30 BE010000 		.4byte	.LASF144
 1822 0a34 03       		.byte	0x3
 1823 0a35 19       		.uleb128 0x19
 1824 0a36 5F070000 		.4byte	.LASF145
ARM GAS  /var/folders/l5/0x54b2c10074c8bt31ycjvl80000gp/T//cc53Qo2h.s 			page 33


 1825 0a3a 04       		.byte	0x4
 1826 0a3b 19       		.uleb128 0x19
 1827 0a3c EC060000 		.4byte	.LASF146
 1828 0a40 05       		.byte	0x5
 1829 0a41 00       		.byte	0
 1830 0a42 03       		.uleb128 0x3
 1831 0a43 E8050000 		.4byte	.LASF147
 1832 0a47 12       		.byte	0x12
 1833 0a48 5B       		.byte	0x5b
 1834 0a49 03       		.byte	0x3
 1835 0a4a 0F0A0000 		.4byte	0xa0f
 1836 0a4e 03       		.uleb128 0x3
 1837 0a4f D1070000 		.4byte	.LASF148
 1838 0a53 13       		.byte	0x13
 1839 0a54 38       		.byte	0x38
 1840 0a55 1A       		.byte	0x1a
 1841 0a56 5A0A0000 		.4byte	0xa5a
 1842 0a5a 07       		.uleb128 0x7
 1843 0a5b D1070000 		.4byte	.LASF148
 1844 0a5f 40       		.byte	0x40
 1845 0a60 13       		.byte	0x13
 1846 0a61 62       		.byte	0x62
 1847 0a62 08       		.byte	0x8
 1848 0a63 110B0000 		.4byte	0xb11
 1849 0a67 08       		.uleb128 0x8
 1850 0a68 69010000 		.4byte	.LASF149
 1851 0a6c 13       		.byte	0x13
 1852 0a6d 64       		.byte	0x64
 1853 0a6e 1D       		.byte	0x1d
 1854 0a6f 420A0000 		.4byte	0xa42
 1855 0a73 00       		.byte	0
 1856 0a74 08       		.uleb128 0x8
 1857 0a75 84070000 		.4byte	.LASF150
 1858 0a79 13       		.byte	0x13
 1859 0a7a 66       		.byte	0x66
 1860 0a7b 1E       		.byte	0x1e
 1861 0a7c 510B0000 		.4byte	0xb51
 1862 0a80 04       		.byte	0x4
 1863 0a81 08       		.uleb128 0x8
 1864 0a82 B3020000 		.4byte	.LASF151
 1865 0a86 13       		.byte	0x13
 1866 0a87 68       		.byte	0x68
 1867 0a88 1D       		.byte	0x1d
 1868 0a89 110B0000 		.4byte	0xb11
 1869 0a8d 08       		.byte	0x8
 1870 0a8e 08       		.uleb128 0x8
 1871 0a8f D6000000 		.4byte	.LASF152
 1872 0a93 13       		.byte	0x13
 1873 0a94 6A       		.byte	0x6a
 1874 0a95 1E       		.byte	0x1e
 1875 0a96 570B0000 		.4byte	0xb57
 1876 0a9a 0C       		.byte	0xc
 1877 0a9b 08       		.uleb128 0x8
 1878 0a9c 2A060000 		.4byte	.LASF153
 1879 0aa0 13       		.byte	0x13
 1880 0aa1 6D       		.byte	0x6d
 1881 0aa2 1D       		.byte	0x1d
ARM GAS  /var/folders/l5/0x54b2c10074c8bt31ycjvl80000gp/T//cc53Qo2h.s 			page 34


 1882 0aa3 F7040000 		.4byte	0x4f7
 1883 0aa7 10       		.byte	0x10
 1884 0aa8 08       		.uleb128 0x8
 1885 0aa9 86010000 		.4byte	.LASF154
 1886 0aad 13       		.byte	0x13
 1887 0aae 77       		.byte	0x77
 1888 0aaf 1E       		.byte	0x1e
 1889 0ab0 8C020000 		.4byte	0x28c
 1890 0ab4 20       		.byte	0x20
 1891 0ab5 08       		.uleb128 0x8
 1892 0ab6 37010000 		.4byte	.LASF155
 1893 0aba 13       		.byte	0x13
 1894 0abb 7B       		.byte	0x7b
 1895 0abc 1D       		.byte	0x1d
 1896 0abd 1D0B0000 		.4byte	0xb1d
 1897 0ac1 24       		.byte	0x24
 1898 0ac2 08       		.uleb128 0x8
 1899 0ac3 9D020000 		.4byte	.LASF156
 1900 0ac7 13       		.byte	0x13
 1901 0ac8 7F       		.byte	0x7f
 1902 0ac9 1E       		.byte	0x1e
 1903 0aca E2070000 		.4byte	0x7e2
 1904 0ace 28       		.byte	0x28
 1905 0acf 08       		.uleb128 0x8
 1906 0ad0 69090000 		.4byte	.LASF157
 1907 0ad4 13       		.byte	0x13
 1908 0ad5 83       		.byte	0x83
 1909 0ad6 1D       		.byte	0x1d
 1910 0ad7 2C000000 		.4byte	0x2c
 1911 0adb 2C       		.byte	0x2c
 1912 0adc 08       		.uleb128 0x8
 1913 0add 69080000 		.4byte	.LASF158
 1914 0ae1 13       		.byte	0x13
 1915 0ae2 87       		.byte	0x87
 1916 0ae3 1D       		.byte	0x1d
 1917 0ae4 2C000000 		.4byte	0x2c
 1918 0ae8 30       		.byte	0x30
 1919 0ae9 08       		.uleb128 0x8
 1920 0aea A6000000 		.4byte	.LASF159
 1921 0aee 13       		.byte	0x13
 1922 0aef 8B       		.byte	0x8b
 1923 0af0 1E       		.byte	0x1e
 1924 0af1 AB070000 		.4byte	0x7ab
 1925 0af5 34       		.byte	0x34
 1926 0af6 08       		.uleb128 0x8
 1927 0af7 16050000 		.4byte	.LASF160
 1928 0afb 13       		.byte	0x13
 1929 0afc 8F       		.byte	0x8f
 1930 0afd 1D       		.byte	0x1d
 1931 0afe 2C000000 		.4byte	0x2c
 1932 0b02 38       		.byte	0x38
 1933 0b03 08       		.uleb128 0x8
 1934 0b04 97010000 		.4byte	.LASF161
 1935 0b08 13       		.byte	0x13
 1936 0b09 93       		.byte	0x93
 1937 0b0a 1D       		.byte	0x1d
 1938 0b0b 2C000000 		.4byte	0x2c
ARM GAS  /var/folders/l5/0x54b2c10074c8bt31ycjvl80000gp/T//cc53Qo2h.s 			page 35


 1939 0b0f 3C       		.byte	0x3c
 1940 0b10 00       		.byte	0
 1941 0b11 03       		.uleb128 0x3
 1942 0b12 1F060000 		.4byte	.LASF162
 1943 0b16 13       		.byte	0x13
 1944 0b17 42       		.byte	0x42
 1945 0b18 12       		.byte	0x12
 1946 0b19 D5000000 		.4byte	0xd5
 1947 0b1d 03       		.uleb128 0x3
 1948 0b1e 5F010000 		.4byte	.LASF163
 1949 0b22 13       		.byte	0x13
 1950 0b23 48       		.byte	0x48
 1951 0b24 12       		.byte	0x12
 1952 0b25 BD000000 		.4byte	0xbd
 1953 0b29 0A       		.uleb128 0xa
 1954 0b2a 04       		.byte	0x4
 1955 0b2b 13       		.byte	0x13
 1956 0b2c 57       		.byte	0x57
 1957 0b2d 09       		.byte	0x9
 1958 0b2e 400B0000 		.4byte	0xb40
 1959 0b32 08       		.uleb128 0x8
 1960 0b33 F9040000 		.4byte	.LASF164
 1961 0b37 13       		.byte	0x13
 1962 0b38 59       		.byte	0x59
 1963 0b39 1D       		.byte	0x1d
 1964 0b3a D5000000 		.4byte	0xd5
 1965 0b3e 00       		.byte	0
 1966 0b3f 00       		.byte	0
 1967 0b40 03       		.uleb128 0x3
 1968 0b41 55080000 		.4byte	.LASF165
 1969 0b45 13       		.byte	0x13
 1970 0b46 5B       		.byte	0x5b
 1971 0b47 03       		.byte	0x3
 1972 0b48 290B0000 		.4byte	0xb29
 1973 0b4c 06       		.uleb128 0x6
 1974 0b4d 400B0000 		.4byte	0xb40
 1975 0b51 0B       		.uleb128 0xb
 1976 0b52 04       		.byte	0x4
 1977 0b53 4C0B0000 		.4byte	0xb4c
 1978 0b57 0B       		.uleb128 0xb
 1979 0b58 04       		.byte	0x4
 1980 0b59 BF080000 		.4byte	0x8bf
 1981 0b5d 0F       		.uleb128 0xf
 1982 0b5e 6D020000 		.4byte	.LASF166
 1983 0b62 13       		.byte	0x13
 1984 0b63 A6       		.byte	0xa6
 1985 0b64 12       		.byte	0x12
 1986 0b65 4E0A0000 		.4byte	0xa4e
 1987 0b69 18       		.uleb128 0x18
 1988 0b6a 07       		.byte	0x7
 1989 0b6b 01       		.byte	0x1
 1990 0b6c 57000000 		.4byte	0x57
 1991 0b70 14       		.byte	0x14
 1992 0b71 5D       		.byte	0x5d
 1993 0b72 0E       		.byte	0xe
 1994 0b73 8A0B0000 		.4byte	0xb8a
 1995 0b77 19       		.uleb128 0x19
ARM GAS  /var/folders/l5/0x54b2c10074c8bt31ycjvl80000gp/T//cc53Qo2h.s 			page 36


 1996 0b78 02070000 		.4byte	.LASF167
 1997 0b7c 00       		.byte	0
 1998 0b7d 19       		.uleb128 0x19
 1999 0b7e 27010000 		.4byte	.LASF168
 2000 0b82 01       		.byte	0x1
 2001 0b83 19       		.uleb128 0x19
 2002 0b84 24080000 		.4byte	.LASF169
 2003 0b88 02       		.byte	0x2
 2004 0b89 00       		.byte	0
 2005 0b8a 03       		.uleb128 0x3
 2006 0b8b 5F080000 		.4byte	.LASF170
 2007 0b8f 14       		.byte	0x14
 2008 0b90 61       		.byte	0x61
 2009 0b91 03       		.byte	0x3
 2010 0b92 690B0000 		.4byte	0xb69
 2011 0b96 03       		.uleb128 0x3
 2012 0b97 C9000000 		.4byte	.LASF171
 2013 0b9b 14       		.byte	0x14
 2014 0b9c 66       		.byte	0x66
 2015 0b9d 1D       		.byte	0x1d
 2016 0b9e A20B0000 		.4byte	0xba2
 2017 0ba2 07       		.uleb128 0x7
 2018 0ba3 C9000000 		.4byte	.LASF171
 2019 0ba7 74       		.byte	0x74
 2020 0ba8 14       		.byte	0x14
 2021 0ba9 80       		.byte	0x80
 2022 0baa 08       		.byte	0x8
 2023 0bab 090C0000 		.4byte	0xc09
 2024 0baf 09       		.uleb128 0x9
 2025 0bb0 766D7400 		.ascii	"vmt\000"
 2026 0bb4 14       		.byte	0x14
 2027 0bb5 82       		.byte	0x82
 2028 0bb6 21       		.byte	0x21
 2029 0bb7 900C0000 		.4byte	0xc90
 2030 0bbb 00       		.byte	0
 2031 0bbc 08       		.uleb128 0x8
 2032 0bbd 0D030000 		.4byte	.LASF172
 2033 0bc1 14       		.byte	0x14
 2034 0bc2 83       		.byte	0x83
 2035 0bc3 03       		.byte	0x3
 2036 0bc4 72050000 		.4byte	0x572
 2037 0bc8 04       		.byte	0x4
 2038 0bc9 08       		.uleb128 0x8
 2039 0bca 69010000 		.4byte	.LASF149
 2040 0bce 14       		.byte	0x14
 2041 0bcf 83       		.byte	0x83
 2042 0bd0 03       		.byte	0x3
 2043 0bd1 8A0B0000 		.4byte	0xb8a
 2044 0bd5 08       		.byte	0x8
 2045 0bd6 08       		.uleb128 0x8
 2046 0bd7 BA020000 		.4byte	.LASF173
 2047 0bdb 14       		.byte	0x14
 2048 0bdc 83       		.byte	0x83
 2049 0bdd 03       		.byte	0x3
 2050 0bde B1070000 		.4byte	0x7b1
 2051 0be2 0C       		.byte	0xc
 2052 0be3 08       		.uleb128 0x8
ARM GAS  /var/folders/l5/0x54b2c10074c8bt31ycjvl80000gp/T//cc53Qo2h.s 			page 37


 2053 0be4 46030000 		.4byte	.LASF174
 2054 0be8 14       		.byte	0x14
 2055 0be9 83       		.byte	0x83
 2056 0bea 03       		.byte	0x3
 2057 0beb BD070000 		.4byte	0x7bd
 2058 0bef 30       		.byte	0x30
 2059 0bf0 09       		.uleb128 0x9
 2060 0bf1 696200   		.ascii	"ib\000"
 2061 0bf4 14       		.byte	0x14
 2062 0bf5 83       		.byte	0x83
 2063 0bf6 03       		.byte	0x3
 2064 0bf7 960C0000 		.4byte	0xc96
 2065 0bfb 54       		.byte	0x54
 2066 0bfc 09       		.uleb128 0x9
 2067 0bfd 6F6200   		.ascii	"ob\000"
 2068 0c00 14       		.byte	0x14
 2069 0c01 83       		.byte	0x83
 2070 0c02 03       		.byte	0x3
 2071 0c03 960C0000 		.4byte	0xc96
 2072 0c07 64       		.byte	0x64
 2073 0c08 00       		.byte	0
 2074 0c09 1A       		.uleb128 0x1a
 2075 0c0a 53443100 		.ascii	"SD1\000"
 2076 0c0e 17       		.byte	0x17
 2077 0c0f 62       		.byte	0x62
 2078 0c10 15       		.byte	0x15
 2079 0c11 960B0000 		.4byte	0xb96
 2080 0c15 07       		.uleb128 0x7
 2081 0c16 A3020000 		.4byte	.LASF175
 2082 0c1a 20       		.byte	0x20
 2083 0c1b 14       		.byte	0x14
 2084 0c1c 75       		.byte	0x75
 2085 0c1d 08       		.byte	0x8
 2086 0c1e 8B0C0000 		.4byte	0xc8b
 2087 0c22 08       		.uleb128 0x8
 2088 0c23 21000000 		.4byte	.LASF176
 2089 0c27 14       		.byte	0x14
 2090 0c28 76       		.byte	0x76
 2091 0c29 03       		.byte	0x3
 2092 0c2a E8070000 		.4byte	0x7e8
 2093 0c2e 00       		.byte	0
 2094 0c2f 08       		.uleb128 0x8
 2095 0c30 6D070000 		.4byte	.LASF177
 2096 0c34 14       		.byte	0x14
 2097 0c35 76       		.byte	0x76
 2098 0c36 03       		.byte	0x3
 2099 0c37 07080000 		.4byte	0x807
 2100 0c3b 04       		.byte	0x4
 2101 0c3c 09       		.uleb128 0x9
 2102 0c3d 70757400 		.ascii	"put\000"
 2103 0c41 14       		.byte	0x14
 2104 0c42 76       		.byte	0x76
 2105 0c43 03       		.byte	0x3
 2106 0c44 21080000 		.4byte	0x821
 2107 0c48 08       		.byte	0x8
 2108 0c49 09       		.uleb128 0x9
 2109 0c4a 67657400 		.ascii	"get\000"
ARM GAS  /var/folders/l5/0x54b2c10074c8bt31ycjvl80000gp/T//cc53Qo2h.s 			page 38


 2110 0c4e 14       		.byte	0x14
 2111 0c4f 76       		.byte	0x76
 2112 0c50 03       		.byte	0x3
 2113 0c51 D0050000 		.4byte	0x5d0
 2114 0c55 0C       		.byte	0xc
 2115 0c56 08       		.uleb128 0x8
 2116 0c57 B8040000 		.4byte	.LASF178
 2117 0c5b 14       		.byte	0x14
 2118 0c5c 76       		.byte	0x76
 2119 0c5d 03       		.byte	0x3
 2120 0c5e E5080000 		.4byte	0x8e5
 2121 0c62 10       		.byte	0x10
 2122 0c63 08       		.uleb128 0x8
 2123 0c64 DC020000 		.4byte	.LASF179
 2124 0c68 14       		.byte	0x14
 2125 0c69 76       		.byte	0x76
 2126 0c6a 03       		.byte	0x3
 2127 0c6b FF080000 		.4byte	0x8ff
 2128 0c6f 14       		.byte	0x14
 2129 0c70 08       		.uleb128 0x8
 2130 0c71 3B040000 		.4byte	.LASF180
 2131 0c75 14       		.byte	0x14
 2132 0c76 76       		.byte	0x76
 2133 0c77 03       		.byte	0x3
 2134 0c78 23090000 		.4byte	0x923
 2135 0c7c 18       		.byte	0x18
 2136 0c7d 08       		.uleb128 0x8
 2137 0c7e C2080000 		.4byte	.LASF181
 2138 0c82 14       		.byte	0x14
 2139 0c83 76       		.byte	0x76
 2140 0c84 03       		.byte	0x3
 2141 0c85 47090000 		.4byte	0x947
 2142 0c89 1C       		.byte	0x1c
 2143 0c8a 00       		.byte	0
 2144 0c8b 06       		.uleb128 0x6
 2145 0c8c 150C0000 		.4byte	0xc15
 2146 0c90 0B       		.uleb128 0xb
 2147 0c91 04       		.byte	0x4
 2148 0c92 8B0C0000 		.4byte	0xc8b
 2149 0c96 13       		.uleb128 0x13
 2150 0c97 AC000000 		.4byte	0xac
 2151 0c9b A60C0000 		.4byte	0xca6
 2152 0c9f 14       		.uleb128 0x14
 2153 0ca0 38000000 		.4byte	0x38
 2154 0ca4 0F       		.byte	0xf
 2155 0ca5 00       		.byte	0
 2156 0ca6 18       		.uleb128 0x18
 2157 0ca7 07       		.byte	0x7
 2158 0ca8 01       		.byte	0x1
 2159 0ca9 57000000 		.4byte	0x57
 2160 0cad 15       		.byte	0x15
 2161 0cae 4E       		.byte	0x4e
 2162 0caf 0E       		.byte	0xe
 2163 0cb0 D30C0000 		.4byte	0xcd3
 2164 0cb4 19       		.uleb128 0x19
 2165 0cb5 37080000 		.4byte	.LASF182
 2166 0cb9 00       		.byte	0
ARM GAS  /var/folders/l5/0x54b2c10074c8bt31ycjvl80000gp/T//cc53Qo2h.s 			page 39


 2167 0cba 19       		.uleb128 0x19
 2168 0cbb 11010000 		.4byte	.LASF183
 2169 0cbf 01       		.byte	0x1
 2170 0cc0 19       		.uleb128 0x19
 2171 0cc1 2D080000 		.4byte	.LASF184
 2172 0cc5 02       		.byte	0x2
 2173 0cc6 19       		.uleb128 0x19
 2174 0cc7 3D000000 		.4byte	.LASF185
 2175 0ccb 03       		.byte	0x3
 2176 0ccc 19       		.uleb128 0x19
 2177 0ccd 77070000 		.4byte	.LASF186
 2178 0cd1 04       		.byte	0x4
 2179 0cd2 00       		.byte	0
 2180 0cd3 03       		.uleb128 0x3
 2181 0cd4 96070000 		.4byte	.LASF187
 2182 0cd8 15       		.byte	0x15
 2183 0cd9 54       		.byte	0x54
 2184 0cda 03       		.byte	0x3
 2185 0cdb A60C0000 		.4byte	0xca6
 2186 0cdf 03       		.uleb128 0x3
 2187 0ce0 9C000000 		.4byte	.LASF188
 2188 0ce4 16       		.byte	0x16
 2189 0ce5 35       		.byte	0x35
 2190 0ce6 1A       		.byte	0x1a
 2191 0ce7 EB0C0000 		.4byte	0xceb
 2192 0ceb 07       		.uleb128 0x7
 2193 0cec 9C000000 		.4byte	.LASF188
 2194 0cf0 28       		.byte	0x28
 2195 0cf1 16       		.byte	0x16
 2196 0cf2 7C       		.byte	0x7c
 2197 0cf3 08       		.byte	0x8
 2198 0cf4 540D0000 		.4byte	0xd54
 2199 0cf8 08       		.uleb128 0x8
 2200 0cf9 69010000 		.4byte	.LASF149
 2201 0cfd 16       		.byte	0x16
 2202 0cfe 80       		.byte	0x80
 2203 0cff 19       		.byte	0x19
 2204 0d00 D30C0000 		.4byte	0xcd3
 2205 0d04 00       		.byte	0
 2206 0d05 08       		.uleb128 0x8
 2207 0d06 84070000 		.4byte	.LASF150
 2208 0d0a 16       		.byte	0x16
 2209 0d0b 84       		.byte	0x84
 2210 0d0c 1A       		.byte	0x1a
 2211 0d0d 070E0000 		.4byte	0xe07
 2212 0d11 04       		.byte	0x4
 2213 0d12 08       		.uleb128 0x8
 2214 0d13 86010000 		.4byte	.LASF154
 2215 0d17 16       		.byte	0x16
 2216 0d18 89       		.byte	0x89
 2217 0d19 1A       		.byte	0x1a
 2218 0d1a 8C020000 		.4byte	0x28c
 2219 0d1e 08       		.byte	0x8
 2220 0d1f 08       		.uleb128 0x8
 2221 0d20 2A060000 		.4byte	.LASF153
 2222 0d24 16       		.byte	0x16
 2223 0d25 90       		.byte	0x90
ARM GAS  /var/folders/l5/0x54b2c10074c8bt31ycjvl80000gp/T//cc53Qo2h.s 			page 40


 2224 0d26 19       		.byte	0x19
 2225 0d27 F7040000 		.4byte	0x4f7
 2226 0d2b 0C       		.byte	0xc
 2227 0d2c 08       		.uleb128 0x8
 2228 0d2d A6000000 		.4byte	.LASF159
 2229 0d31 16       		.byte	0x16
 2230 0d32 98       		.byte	0x98
 2231 0d33 1A       		.byte	0x1a
 2232 0d34 D9020000 		.4byte	0x2d9
 2233 0d38 1C       		.byte	0x1c
 2234 0d39 08       		.uleb128 0x8
 2235 0d3a 9D020000 		.4byte	.LASF156
 2236 0d3e 16       		.byte	0x16
 2237 0d3f 9D       		.byte	0x9d
 2238 0d40 1A       		.byte	0x1a
 2239 0d41 0D0E0000 		.4byte	0xe0d
 2240 0d45 20       		.byte	0x20
 2241 0d46 08       		.uleb128 0x8
 2242 0d47 F7010000 		.4byte	.LASF189
 2243 0d4b 16       		.byte	0x16
 2244 0d4c A2       		.byte	0xa2
 2245 0d4d 17       		.byte	0x17
 2246 0d4e 2C000000 		.4byte	0x2c
 2247 0d52 24       		.byte	0x24
 2248 0d53 00       		.byte	0
 2249 0d54 03       		.uleb128 0x3
 2250 0d55 5F020000 		.4byte	.LASF190
 2251 0d59 16       		.byte	0x16
 2252 0d5a 3D       		.byte	0x3d
 2253 0d5b 10       		.byte	0x10
 2254 0d5c 600D0000 		.4byte	0xd60
 2255 0d60 0B       		.uleb128 0xb
 2256 0d61 04       		.byte	0x4
 2257 0d62 660D0000 		.4byte	0xd66
 2258 0d66 0D       		.uleb128 0xd
 2259 0d67 710D0000 		.4byte	0xd71
 2260 0d6b 0E       		.uleb128 0xe
 2261 0d6c 710D0000 		.4byte	0xd71
 2262 0d70 00       		.byte	0
 2263 0d71 0B       		.uleb128 0xb
 2264 0d72 04       		.byte	0x4
 2265 0d73 DF0C0000 		.4byte	0xcdf
 2266 0d77 0A       		.uleb128 0xa
 2267 0d78 10       		.byte	0x10
 2268 0d79 16       		.byte	0x16
 2269 0d7a 44       		.byte	0x44
 2270 0d7b 09       		.byte	0x9
 2271 0d7c F60D0000 		.4byte	0xdf6
 2272 0d80 08       		.uleb128 0x8
 2273 0d81 F0010000 		.4byte	.LASF191
 2274 0d85 16       		.byte	0x16
 2275 0d86 48       		.byte	0x48
 2276 0d87 19       		.byte	0x19
 2277 0d88 540D0000 		.4byte	0xd54
 2278 0d8c 00       		.byte	0
 2279 0d8d 08       		.uleb128 0x8
 2280 0d8e B4050000 		.4byte	.LASF192
ARM GAS  /var/folders/l5/0x54b2c10074c8bt31ycjvl80000gp/T//cc53Qo2h.s 			page 41


 2281 0d92 16       		.byte	0x16
 2282 0d93 4F       		.byte	0x4f
 2283 0d94 19       		.byte	0x19
 2284 0d95 AC000000 		.4byte	0xac
 2285 0d99 04       		.byte	0x4
 2286 0d9a 08       		.uleb128 0x8
 2287 0d9b D4050000 		.4byte	.LASF193
 2288 0d9f 16       		.byte	0x16
 2289 0da0 52       		.byte	0x52
 2290 0da1 19       		.byte	0x19
 2291 0da2 AC000000 		.4byte	0xac
 2292 0da6 05       		.byte	0x5
 2293 0da7 08       		.uleb128 0x8
 2294 0da8 F8020000 		.4byte	.LASF194
 2295 0dac 16       		.byte	0x16
 2296 0dad 58       		.byte	0x58
 2297 0dae 19       		.byte	0x19
 2298 0daf AC000000 		.4byte	0xac
 2299 0db3 06       		.byte	0x6
 2300 0db4 08       		.uleb128 0x8
 2301 0db5 FD010000 		.4byte	.LASF195
 2302 0db9 16       		.byte	0x16
 2303 0dba 5E       		.byte	0x5e
 2304 0dbb 19       		.byte	0x19
 2305 0dbc AC000000 		.4byte	0xac
 2306 0dc0 07       		.byte	0x7
 2307 0dc1 08       		.uleb128 0x8
 2308 0dc2 13020000 		.4byte	.LASF196
 2309 0dc6 16       		.byte	0x16
 2310 0dc7 64       		.byte	0x64
 2311 0dc8 19       		.byte	0x19
 2312 0dc9 AC000000 		.4byte	0xac
 2313 0dcd 08       		.byte	0x8
 2314 0dce 08       		.uleb128 0x8
 2315 0dcf ED070000 		.4byte	.LASF197
 2316 0dd3 16       		.byte	0x16
 2317 0dd4 6A       		.byte	0x6a
 2318 0dd5 19       		.byte	0x19
 2319 0dd6 AC000000 		.4byte	0xac
 2320 0dda 09       		.byte	0x9
 2321 0ddb 08       		.uleb128 0x8
 2322 0ddc CC010000 		.4byte	.LASF198
 2323 0de0 16       		.byte	0x16
 2324 0de1 70       		.byte	0x70
 2325 0de2 19       		.byte	0x19
 2326 0de3 AC000000 		.4byte	0xac
 2327 0de7 0A       		.byte	0xa
 2328 0de8 08       		.uleb128 0x8
 2329 0de9 D1060000 		.4byte	.LASF199
 2330 0ded 16       		.byte	0x16
 2331 0dee 73       		.byte	0x73
 2332 0def 19       		.byte	0x19
 2333 0df0 D5000000 		.4byte	0xd5
 2334 0df4 0C       		.byte	0xc
 2335 0df5 00       		.byte	0
 2336 0df6 03       		.uleb128 0x3
 2337 0df7 06090000 		.4byte	.LASF200
ARM GAS  /var/folders/l5/0x54b2c10074c8bt31ycjvl80000gp/T//cc53Qo2h.s 			page 42


 2338 0dfb 16       		.byte	0x16
 2339 0dfc 75       		.byte	0x75
 2340 0dfd 03       		.byte	0x3
 2341 0dfe 770D0000 		.4byte	0xd77
 2342 0e02 06       		.uleb128 0x6
 2343 0e03 F60D0000 		.4byte	0xdf6
 2344 0e07 0B       		.uleb128 0xb
 2345 0e08 04       		.byte	0x4
 2346 0e09 020E0000 		.4byte	0xe02
 2347 0e0d 0B       		.uleb128 0xb
 2348 0e0e 04       		.byte	0x4
 2349 0e0f 130E0000 		.4byte	0xe13
 2350 0e13 1B       		.uleb128 0x1b
 2351 0e14 0F       		.uleb128 0xf
 2352 0e15 AF010000 		.4byte	.LASF201
 2353 0e19 16       		.byte	0x16
 2354 0e1a B6       		.byte	0xb6
 2355 0e1b 14       		.byte	0x14
 2356 0e1c DF0C0000 		.4byte	0xcdf
 2357 0e20 1C       		.uleb128 0x1c
 2358 0e21 EB090000 		.4byte	0x9eb
 2359 0e25 01       		.byte	0x1
 2360 0e26 2B       		.byte	0x2b
 2361 0e27 0D       		.byte	0xd
 2362 0e28 05       		.uleb128 0x5
 2363 0e29 03       		.byte	0x3
 2364 0e2a 00000000 		.4byte	IOPORT0
 2365 0e2e 1C       		.uleb128 0x1c
 2366 0e2f F7090000 		.4byte	0x9f7
 2367 0e33 01       		.byte	0x1
 2368 0e34 2C       		.byte	0x2c
 2369 0e35 0D       		.byte	0xd
 2370 0e36 05       		.uleb128 0x5
 2371 0e37 03       		.byte	0x3
 2372 0e38 00000000 		.4byte	IOPORT1
 2373 0e3c 1D       		.uleb128 0x1d
 2374 0e3d 4A040000 		.4byte	.LASF204
 2375 0e41 01       		.byte	0x1
 2376 0e42 80       		.byte	0x80
 2377 0e43 06       		.byte	0x6
 2378 0e44 00000000 		.4byte	.LFB11
 2379 0e48 1C000000 		.4byte	.LFE11-.LFB11
 2380 0e4c 01       		.uleb128 0x1
 2381 0e4d 9C       		.byte	0x9c
 2382 0e4e 6F0E0000 		.4byte	0xe6f
 2383 0e52 1E       		.uleb128 0x1e
 2384 0e53 72020000 		.4byte	.LASF202
 2385 0e57 01       		.byte	0x1
 2386 0e58 80       		.byte	0x80
 2387 0e59 24       		.byte	0x24
 2388 0e5a D9090000 		.4byte	0x9d9
 2389 0e5e 01       		.uleb128 0x1
 2390 0e5f 50       		.byte	0x50
 2391 0e60 1E       		.uleb128 0x1e
 2392 0e61 6F010000 		.4byte	.LASF203
 2393 0e65 01       		.byte	0x1
 2394 0e66 80       		.byte	0x80
ARM GAS  /var/folders/l5/0x54b2c10074c8bt31ycjvl80000gp/T//cc53Qo2h.s 			page 43


 2395 0e67 37       		.byte	0x37
 2396 0e68 CD090000 		.4byte	0x9cd
 2397 0e6c 01       		.uleb128 0x1
 2398 0e6d 51       		.byte	0x51
 2399 0e6e 00       		.byte	0
 2400 0e6f 1D       		.uleb128 0x1d
 2401 0e70 FC070000 		.4byte	.LASF205
 2402 0e74 01       		.byte	0x1
 2403 0e75 64       		.byte	0x64
 2404 0e76 06       		.byte	0x6
 2405 0e77 00000000 		.4byte	.LFB10
 2406 0e7b C8000000 		.4byte	.LFE10-.LFB10
 2407 0e7f 01       		.uleb128 0x1
 2408 0e80 9C       		.byte	0x9c
 2409 0e81 DB0F0000 		.4byte	0xfdb
 2410 0e85 1F       		.uleb128 0x1f
 2411 0e86 72020000 		.4byte	.LASF202
 2412 0e8a 01       		.byte	0x1
 2413 0e8b 64       		.byte	0x64
 2414 0e8c 27       		.byte	0x27
 2415 0e8d D9090000 		.4byte	0x9d9
 2416 0e91 1C000000 		.4byte	.LLST6
 2417 0e95 00000000 		.4byte	.LVUS6
 2418 0e99 1F       		.uleb128 0x1f
 2419 0e9a 3C020000 		.4byte	.LASF206
 2420 0e9e 01       		.byte	0x1
 2421 0e9f 64       		.byte	0x64
 2422 0ea0 3A       		.byte	0x3a
 2423 0ea1 CD090000 		.4byte	0x9cd
 2424 0ea5 E9000000 		.4byte	.LLST7
 2425 0ea9 CD000000 		.4byte	.LVUS7
 2426 0ead 1F       		.uleb128 0x1f
 2427 0eae 83020000 		.4byte	.LASF207
 2428 0eb2 01       		.byte	0x1
 2429 0eb3 64       		.byte	0x64
 2430 0eb4 49       		.byte	0x49
 2431 0eb5 D5000000 		.4byte	0xd5
 2432 0eb9 A4010000 		.4byte	.LLST8
 2433 0ebd 94010000 		.4byte	.LVUS8
 2434 0ec1 20       		.uleb128 0x20
 2435 0ec2 6900     		.ascii	"i\000"
 2436 0ec4 01       		.byte	0x1
 2437 0ec5 65       		.byte	0x65
 2438 0ec6 07       		.byte	0x7
 2439 0ec7 25000000 		.4byte	0x25
 2440 0ecb 16020000 		.4byte	.LLST9
 2441 0ecf 10020000 		.4byte	.LVUS9
 2442 0ed3 21       		.uleb128 0x21
 2443 0ed4 20000000 		.4byte	.Ldebug_ranges0+0x20
 2444 0ed8 000F0000 		.4byte	0xf00
 2445 0edc 20       		.uleb128 0x20
 2446 0edd 62697400 		.ascii	"bit\000"
 2447 0ee1 01       		.byte	0x1
 2448 0ee2 77       		.byte	0x77
 2449 0ee3 14       		.byte	0x14
 2450 0ee4 38000000 		.4byte	0x38
 2451 0ee8 45020000 		.4byte	.LLST10
ARM GAS  /var/folders/l5/0x54b2c10074c8bt31ycjvl80000gp/T//cc53Qo2h.s 			page 44


 2452 0eec 41020000 		.4byte	.LVUS10
 2453 0ef0 22       		.uleb128 0x22
 2454 0ef1 8C000000 		.4byte	.LVL22
 2455 0ef5 78110000 		.4byte	0x1178
 2456 0ef9 23       		.uleb128 0x23
 2457 0efa 01       		.uleb128 0x1
 2458 0efb 51       		.byte	0x51
 2459 0efc 01       		.uleb128 0x1
 2460 0efd 31       		.byte	0x31
 2461 0efe 00       		.byte	0
 2462 0eff 00       		.byte	0
 2463 0f00 24       		.uleb128 0x24
 2464 0f01 30000000 		.4byte	.LVL15
 2465 0f05 C8100000 		.4byte	0x10c8
 2466 0f09 220F0000 		.4byte	0xf22
 2467 0f0d 23       		.uleb128 0x23
 2468 0f0e 01       		.uleb128 0x1
 2469 0f0f 50       		.byte	0x50
 2470 0f10 02       		.uleb128 0x2
 2471 0f11 76       		.byte	0x76
 2472 0f12 14       		.sleb128 20
 2473 0f13 23       		.uleb128 0x23
 2474 0f14 01       		.uleb128 0x1
 2475 0f15 51       		.byte	0x51
 2476 0f16 02       		.uleb128 0x2
 2477 0f17 75       		.byte	0x75
 2478 0f18 00       		.sleb128 0
 2479 0f19 25       		.uleb128 0x25
 2480 0f1a 65100000 		.4byte	0x1065
 2481 0f1e 02       		.uleb128 0x2
 2482 0f1f 76       		.byte	0x76
 2483 0f20 00       		.sleb128 0
 2484 0f21 00       		.byte	0
 2485 0f22 26       		.uleb128 0x26
 2486 0f23 44000000 		.4byte	.LVL17
 2487 0f27 21110000 		.4byte	0x1121
 2488 0f2b 4E0F0000 		.4byte	0xf4e
 2489 0f2f 23       		.uleb128 0x23
 2490 0f30 01       		.uleb128 0x1
 2491 0f31 50       		.byte	0x50
 2492 0f32 05       		.uleb128 0x5
 2493 0f33 F3       		.byte	0xf3
 2494 0f34 01       		.uleb128 0x1
 2495 0f35 50       		.byte	0x50
 2496 0f36 23       		.byte	0x23
 2497 0f37 10       		.uleb128 0x10
 2498 0f38 23       		.uleb128 0x23
 2499 0f39 01       		.uleb128 0x1
 2500 0f3a 51       		.byte	0x51
 2501 0f3b 03       		.uleb128 0x3
 2502 0f3c F3       		.byte	0xf3
 2503 0f3d 01       		.uleb128 0x1
 2504 0f3e 51       		.byte	0x51
 2505 0f3f 23       		.uleb128 0x23
 2506 0f40 01       		.uleb128 0x1
 2507 0f41 52       		.byte	0x52
 2508 0f42 01       		.uleb128 0x1
ARM GAS  /var/folders/l5/0x54b2c10074c8bt31ycjvl80000gp/T//cc53Qo2h.s 			page 45


 2509 0f43 32       		.byte	0x32
 2510 0f44 25       		.uleb128 0x25
 2511 0f45 A3100000 		.4byte	0x10a3
 2512 0f49 03       		.uleb128 0x3
 2513 0f4a F3       		.byte	0xf3
 2514 0f4b 01       		.uleb128 0x1
 2515 0f4c 50       		.byte	0x50
 2516 0f4d 00       		.byte	0
 2517 0f4e 24       		.uleb128 0x24
 2518 0f4f 98000000 		.4byte	.LVL25
 2519 0f53 C8100000 		.4byte	0x10c8
 2520 0f57 6A0F0000 		.4byte	0xf6a
 2521 0f5b 23       		.uleb128 0x23
 2522 0f5c 01       		.uleb128 0x1
 2523 0f5d 50       		.byte	0x50
 2524 0f5e 02       		.uleb128 0x2
 2525 0f5f 76       		.byte	0x76
 2526 0f60 14       		.sleb128 20
 2527 0f61 25       		.uleb128 0x25
 2528 0f62 65100000 		.4byte	0x1065
 2529 0f66 02       		.uleb128 0x2
 2530 0f67 76       		.byte	0x76
 2531 0f68 00       		.sleb128 0
 2532 0f69 00       		.byte	0
 2533 0f6a 26       		.uleb128 0x26
 2534 0f6b AC000000 		.4byte	.LVL27
 2535 0f6f 21110000 		.4byte	0x1121
 2536 0f73 960F0000 		.4byte	0xf96
 2537 0f77 23       		.uleb128 0x23
 2538 0f78 01       		.uleb128 0x1
 2539 0f79 50       		.byte	0x50
 2540 0f7a 05       		.uleb128 0x5
 2541 0f7b F3       		.byte	0xf3
 2542 0f7c 01       		.uleb128 0x1
 2543 0f7d 50       		.byte	0x50
 2544 0f7e 23       		.byte	0x23
 2545 0f7f 10       		.uleb128 0x10
 2546 0f80 23       		.uleb128 0x23
 2547 0f81 01       		.uleb128 0x1
 2548 0f82 51       		.byte	0x51
 2549 0f83 03       		.uleb128 0x3
 2550 0f84 F3       		.byte	0xf3
 2551 0f85 01       		.uleb128 0x1
 2552 0f86 51       		.byte	0x51
 2553 0f87 23       		.uleb128 0x23
 2554 0f88 01       		.uleb128 0x1
 2555 0f89 52       		.byte	0x52
 2556 0f8a 01       		.uleb128 0x1
 2557 0f8b 31       		.byte	0x31
 2558 0f8c 25       		.uleb128 0x25
 2559 0f8d A3100000 		.4byte	0x10a3
 2560 0f91 03       		.uleb128 0x3
 2561 0f92 F3       		.byte	0xf3
 2562 0f93 01       		.uleb128 0x1
 2563 0f94 50       		.byte	0x50
 2564 0f95 00       		.byte	0
 2565 0f96 24       		.uleb128 0x24
ARM GAS  /var/folders/l5/0x54b2c10074c8bt31ycjvl80000gp/T//cc53Qo2h.s 			page 46


 2566 0f97 B4000000 		.4byte	.LVL29
 2567 0f9b C8100000 		.4byte	0x10c8
 2568 0f9f B20F0000 		.4byte	0xfb2
 2569 0fa3 23       		.uleb128 0x23
 2570 0fa4 01       		.uleb128 0x1
 2571 0fa5 50       		.byte	0x50
 2572 0fa6 02       		.uleb128 0x2
 2573 0fa7 76       		.byte	0x76
 2574 0fa8 14       		.sleb128 20
 2575 0fa9 25       		.uleb128 0x25
 2576 0faa 65100000 		.4byte	0x1065
 2577 0fae 02       		.uleb128 0x2
 2578 0faf 76       		.byte	0x76
 2579 0fb0 00       		.sleb128 0
 2580 0fb1 00       		.byte	0
 2581 0fb2 27       		.uleb128 0x27
 2582 0fb3 C8000000 		.4byte	.LVL31
 2583 0fb7 21110000 		.4byte	0x1121
 2584 0fbb 23       		.uleb128 0x23
 2585 0fbc 01       		.uleb128 0x1
 2586 0fbd 50       		.byte	0x50
 2587 0fbe 05       		.uleb128 0x5
 2588 0fbf F3       		.byte	0xf3
 2589 0fc0 01       		.uleb128 0x1
 2590 0fc1 50       		.byte	0x50
 2591 0fc2 23       		.byte	0x23
 2592 0fc3 10       		.uleb128 0x10
 2593 0fc4 23       		.uleb128 0x23
 2594 0fc5 01       		.uleb128 0x1
 2595 0fc6 51       		.byte	0x51
 2596 0fc7 03       		.uleb128 0x3
 2597 0fc8 F3       		.byte	0xf3
 2598 0fc9 01       		.uleb128 0x1
 2599 0fca 51       		.byte	0x51
 2600 0fcb 23       		.uleb128 0x23
 2601 0fcc 01       		.uleb128 0x1
 2602 0fcd 52       		.byte	0x52
 2603 0fce 01       		.uleb128 0x1
 2604 0fcf 30       		.byte	0x30
 2605 0fd0 25       		.uleb128 0x25
 2606 0fd1 A3100000 		.4byte	0x10a3
 2607 0fd5 03       		.uleb128 0x3
 2608 0fd6 F3       		.byte	0xf3
 2609 0fd7 01       		.uleb128 0x1
 2610 0fd8 50       		.byte	0x50
 2611 0fd9 00       		.byte	0
 2612 0fda 00       		.byte	0
 2613 0fdb 1D       		.uleb128 0x1d
 2614 0fdc 3C010000 		.4byte	.LASF208
 2615 0fe0 01       		.byte	0x1
 2616 0fe1 52       		.byte	0x52
 2617 0fe2 06       		.byte	0x6
 2618 0fe3 00000000 		.4byte	.LFB9
 2619 0fe7 98000000 		.4byte	.LFE9-.LFB9
 2620 0feb 01       		.uleb128 0x1
 2621 0fec 9C       		.byte	0x9c
 2622 0fed 52100000 		.4byte	0x1052
ARM GAS  /var/folders/l5/0x54b2c10074c8bt31ycjvl80000gp/T//cc53Qo2h.s 			page 47


 2623 0ff1 1F       		.uleb128 0x1f
 2624 0ff2 84070000 		.4byte	.LASF150
 2625 0ff6 01       		.byte	0x1
 2626 0ff7 52       		.byte	0x52
 2627 0ff8 25       		.byte	0x25
 2628 0ff9 52100000 		.4byte	0x1052
 2629 0ffd 6F020000 		.4byte	.LLST5
 2630 1001 6B020000 		.4byte	.LVUS5
 2631 1005 24       		.uleb128 0x24
 2632 1006 34000000 		.4byte	.LVL11
 2633 100a C8100000 		.4byte	0x10c8
 2634 100e 2D100000 		.4byte	0x102d
 2635 1012 23       		.uleb128 0x23
 2636 1013 01       		.uleb128 0x1
 2637 1014 50       		.byte	0x50
 2638 1015 05       		.uleb128 0x5
 2639 1016 03       		.byte	0x3
 2640 1017 14000000 		.4byte	IOPORT0+20
 2641 101b 23       		.uleb128 0x23
 2642 101c 01       		.uleb128 0x1
 2643 101d 51       		.byte	0x51
 2644 101e 02       		.uleb128 0x2
 2645 101f 09       		.byte	0x9
 2646 1020 FF       		.byte	0xff
 2647 1021 25       		.uleb128 0x25
 2648 1022 65100000 		.4byte	0x1065
 2649 1026 05       		.uleb128 0x5
 2650 1027 03       		.byte	0x3
 2651 1028 00000000 		.4byte	IOPORT0
 2652 102c 00       		.byte	0
 2653 102d 27       		.uleb128 0x27
 2654 102e 70000000 		.4byte	.LVL12
 2655 1032 C8100000 		.4byte	0x10c8
 2656 1036 23       		.uleb128 0x23
 2657 1037 01       		.uleb128 0x1
 2658 1038 50       		.byte	0x50
 2659 1039 05       		.uleb128 0x5
 2660 103a 03       		.byte	0x3
 2661 103b 14000000 		.4byte	IOPORT1+20
 2662 103f 23       		.uleb128 0x23
 2663 1040 01       		.uleb128 0x1
 2664 1041 51       		.byte	0x51
 2665 1042 02       		.uleb128 0x2
 2666 1043 09       		.byte	0x9
 2667 1044 FF       		.byte	0xff
 2668 1045 25       		.uleb128 0x25
 2669 1046 65100000 		.4byte	0x1065
 2670 104a 05       		.uleb128 0x5
 2671 104b 03       		.byte	0x3
 2672 104c 00000000 		.4byte	IOPORT1
 2673 1050 00       		.byte	0
 2674 1051 00       		.byte	0
 2675 1052 0B       		.uleb128 0xb
 2676 1053 04       		.byte	0x4
 2677 1054 C8090000 		.4byte	0x9c8
 2678 1058 28       		.uleb128 0x28
 2679 1059 B6080000 		.4byte	.LASF209
ARM GAS  /var/folders/l5/0x54b2c10074c8bt31ycjvl80000gp/T//cc53Qo2h.s 			page 48


 2680 105d 01       		.byte	0x1
 2681 105e 40       		.byte	0x40
 2682 105f 0D       		.byte	0xd
 2683 1060 01       		.byte	0x1
 2684 1061 96100000 		.4byte	0x1096
 2685 1065 29       		.uleb128 0x29
 2686 1066 72020000 		.4byte	.LASF202
 2687 106a 01       		.byte	0x1
 2688 106b 40       		.byte	0x40
 2689 106c 24       		.byte	0x24
 2690 106d D9090000 		.4byte	0x9d9
 2691 1071 29       		.uleb128 0x29
 2692 1072 3C020000 		.4byte	.LASF206
 2693 1076 01       		.byte	0x1
 2694 1077 40       		.byte	0x40
 2695 1078 37       		.byte	0x37
 2696 1079 CD090000 		.4byte	0x9cd
 2697 107d 2A       		.uleb128 0x2a
 2698 107e 6900     		.ascii	"i\000"
 2699 1080 01       		.byte	0x1
 2700 1081 41       		.byte	0x41
 2701 1082 07       		.byte	0x7
 2702 1083 25000000 		.4byte	0x25
 2703 1087 2B       		.uleb128 0x2b
 2704 1088 2A       		.uleb128 0x2a
 2705 1089 62697400 		.ascii	"bit\000"
 2706 108d 01       		.byte	0x1
 2707 108e 43       		.byte	0x43
 2708 108f 12       		.byte	0x12
 2709 1090 38000000 		.4byte	0x38
 2710 1094 00       		.byte	0
 2711 1095 00       		.byte	0
 2712 1096 28       		.uleb128 0x28
 2713 1097 A1080000 		.4byte	.LASF210
 2714 109b 01       		.byte	0x1
 2715 109c 36       		.byte	0x36
 2716 109d 0D       		.byte	0xd
 2717 109e 01       		.byte	0x1
 2718 109f C8100000 		.4byte	0x10c8
 2719 10a3 29       		.uleb128 0x29
 2720 10a4 72020000 		.4byte	.LASF202
 2721 10a8 01       		.byte	0x1
 2722 10a9 36       		.byte	0x36
 2723 10aa 25       		.byte	0x25
 2724 10ab D9090000 		.4byte	0x9d9
 2725 10af 29       		.uleb128 0x29
 2726 10b0 3C020000 		.4byte	.LASF206
 2727 10b4 01       		.byte	0x1
 2728 10b5 36       		.byte	0x36
 2729 10b6 38       		.byte	0x38
 2730 10b7 CD090000 		.4byte	0x9cd
 2731 10bb 29       		.uleb128 0x29
 2732 10bc EA080000 		.4byte	.LASF211
 2733 10c0 01       		.byte	0x1
 2734 10c1 36       		.byte	0x36
 2735 10c2 47       		.byte	0x47
 2736 10c3 D5000000 		.4byte	0xd5
ARM GAS  /var/folders/l5/0x54b2c10074c8bt31ycjvl80000gp/T//cc53Qo2h.s 			page 49


 2737 10c7 00       		.byte	0
 2738 10c8 2C       		.uleb128 0x2c
 2739 10c9 58100000 		.4byte	0x1058
 2740 10cd 00000000 		.4byte	.LFB12
 2741 10d1 40000000 		.4byte	.LFE12-.LFB12
 2742 10d5 01       		.uleb128 0x1
 2743 10d6 9C       		.byte	0x9c
 2744 10d7 21110000 		.4byte	0x1121
 2745 10db 2D       		.uleb128 0x2d
 2746 10dc 71100000 		.4byte	0x1071
 2747 10e0 94020000 		.4byte	.LLST0
 2748 10e4 90020000 		.4byte	.LVUS0
 2749 10e8 2E       		.uleb128 0x2e
 2750 10e9 65100000 		.4byte	0x1065
 2751 10ed 2F       		.uleb128 0x2f
 2752 10ee 7D100000 		.4byte	0x107d
 2753 10f2 BA020000 		.4byte	.LLST1
 2754 10f6 B2020000 		.4byte	.LVUS1
 2755 10fa 30       		.uleb128 0x30
 2756 10fb 87100000 		.4byte	0x1087
 2757 10ff 00000000 		.4byte	.Ldebug_ranges0+0
 2758 1103 2F       		.uleb128 0x2f
 2759 1104 88100000 		.4byte	0x1088
 2760 1108 F5020000 		.4byte	.LLST2
 2761 110c F1020000 		.4byte	.LVUS2
 2762 1110 22       		.uleb128 0x22
 2763 1111 3C000000 		.4byte	.LVL5
 2764 1115 78110000 		.4byte	0x1178
 2765 1119 23       		.uleb128 0x23
 2766 111a 01       		.uleb128 0x1
 2767 111b 51       		.byte	0x51
 2768 111c 01       		.uleb128 0x1
 2769 111d 30       		.byte	0x30
 2770 111e 00       		.byte	0
 2771 111f 00       		.byte	0
 2772 1120 00       		.byte	0
 2773 1121 2C       		.uleb128 0x2c
 2774 1122 96100000 		.4byte	0x1096
 2775 1126 00000000 		.4byte	.LFB13
 2776 112a 44000000 		.4byte	.LFE13-.LFB13
 2777 112e 01       		.uleb128 0x1
 2778 112f 9C       		.byte	0x9c
 2779 1130 78110000 		.4byte	0x1178
 2780 1134 2D       		.uleb128 0x2d
 2781 1135 AF100000 		.4byte	0x10af
 2782 1139 1F030000 		.4byte	.LLST3
 2783 113d 1B030000 		.4byte	.LVUS3
 2784 1141 2D       		.uleb128 0x2d
 2785 1142 BB100000 		.4byte	0x10bb
 2786 1146 41030000 		.4byte	.LLST4
 2787 114a 3D030000 		.4byte	.LVUS4
 2788 114e 2E       		.uleb128 0x2e
 2789 114f A3100000 		.4byte	0x10a3
 2790 1153 24       		.uleb128 0x24
 2791 1154 1C000000 		.4byte	.LVL7
 2792 1158 85110000 		.4byte	0x1185
 2793 115c 67110000 		.4byte	0x1167
ARM GAS  /var/folders/l5/0x54b2c10074c8bt31ycjvl80000gp/T//cc53Qo2h.s 			page 50


 2794 1160 23       		.uleb128 0x23
 2795 1161 01       		.uleb128 0x1
 2796 1162 50       		.byte	0x50
 2797 1163 02       		.uleb128 0x2
 2798 1164 08       		.byte	0x8
 2799 1165 96       		.byte	0x96
 2800 1166 00       		.byte	0
 2801 1167 22       		.uleb128 0x22
 2802 1168 2C000000 		.4byte	.LVL8
 2803 116c 85110000 		.4byte	0x1185
 2804 1170 23       		.uleb128 0x23
 2805 1171 01       		.uleb128 0x1
 2806 1172 50       		.byte	0x50
 2807 1173 02       		.uleb128 0x2
 2808 1174 08       		.byte	0x8
 2809 1175 96       		.byte	0x96
 2810 1176 00       		.byte	0
 2811 1177 00       		.byte	0
 2812 1178 31       		.uleb128 0x31
 2813 1179 C1050000 		.4byte	.LASF212
 2814 117d C1050000 		.4byte	.LASF212
 2815 1181 10       		.byte	0x10
 2816 1182 8C01     		.2byte	0x18c
 2817 1184 08       		.byte	0x8
 2818 1185 31       		.uleb128 0x31
 2819 1186 2D040000 		.4byte	.LASF213
 2820 118a 2D040000 		.4byte	.LASF213
 2821 118e 10       		.byte	0x10
 2822 118f 8D01     		.2byte	0x18d
 2823 1191 08       		.byte	0x8
 2824 1192 00       		.byte	0
 2825              		.section	.debug_abbrev,"",%progbits
 2826              	.Ldebug_abbrev0:
 2827 0000 01       		.uleb128 0x1
 2828 0001 11       		.uleb128 0x11
 2829 0002 01       		.byte	0x1
 2830 0003 25       		.uleb128 0x25
 2831 0004 0E       		.uleb128 0xe
 2832 0005 13       		.uleb128 0x13
 2833 0006 0B       		.uleb128 0xb
 2834 0007 03       		.uleb128 0x3
 2835 0008 0E       		.uleb128 0xe
 2836 0009 1B       		.uleb128 0x1b
 2837 000a 0E       		.uleb128 0xe
 2838 000b 55       		.uleb128 0x55
 2839 000c 17       		.uleb128 0x17
 2840 000d 11       		.uleb128 0x11
 2841 000e 01       		.uleb128 0x1
 2842 000f 10       		.uleb128 0x10
 2843 0010 17       		.uleb128 0x17
 2844 0011 00       		.byte	0
 2845 0012 00       		.byte	0
 2846 0013 02       		.uleb128 0x2
 2847 0014 24       		.uleb128 0x24
 2848 0015 00       		.byte	0
 2849 0016 0B       		.uleb128 0xb
 2850 0017 0B       		.uleb128 0xb
ARM GAS  /var/folders/l5/0x54b2c10074c8bt31ycjvl80000gp/T//cc53Qo2h.s 			page 51


 2851 0018 3E       		.uleb128 0x3e
 2852 0019 0B       		.uleb128 0xb
 2853 001a 03       		.uleb128 0x3
 2854 001b 08       		.uleb128 0x8
 2855 001c 00       		.byte	0
 2856 001d 00       		.byte	0
 2857 001e 03       		.uleb128 0x3
 2858 001f 16       		.uleb128 0x16
 2859 0020 00       		.byte	0
 2860 0021 03       		.uleb128 0x3
 2861 0022 0E       		.uleb128 0xe
 2862 0023 3A       		.uleb128 0x3a
 2863 0024 0B       		.uleb128 0xb
 2864 0025 3B       		.uleb128 0x3b
 2865 0026 0B       		.uleb128 0xb
 2866 0027 39       		.uleb128 0x39
 2867 0028 0B       		.uleb128 0xb
 2868 0029 49       		.uleb128 0x49
 2869 002a 13       		.uleb128 0x13
 2870 002b 00       		.byte	0
 2871 002c 00       		.byte	0
 2872 002d 04       		.uleb128 0x4
 2873 002e 24       		.uleb128 0x24
 2874 002f 00       		.byte	0
 2875 0030 0B       		.uleb128 0xb
 2876 0031 0B       		.uleb128 0xb
 2877 0032 3E       		.uleb128 0x3e
 2878 0033 0B       		.uleb128 0xb
 2879 0034 03       		.uleb128 0x3
 2880 0035 0E       		.uleb128 0xe
 2881 0036 00       		.byte	0
 2882 0037 00       		.byte	0
 2883 0038 05       		.uleb128 0x5
 2884 0039 35       		.uleb128 0x35
 2885 003a 00       		.byte	0
 2886 003b 49       		.uleb128 0x49
 2887 003c 13       		.uleb128 0x13
 2888 003d 00       		.byte	0
 2889 003e 00       		.byte	0
 2890 003f 06       		.uleb128 0x6
 2891 0040 26       		.uleb128 0x26
 2892 0041 00       		.byte	0
 2893 0042 49       		.uleb128 0x49
 2894 0043 13       		.uleb128 0x13
 2895 0044 00       		.byte	0
 2896 0045 00       		.byte	0
 2897 0046 07       		.uleb128 0x7
 2898 0047 13       		.uleb128 0x13
 2899 0048 01       		.byte	0x1
 2900 0049 03       		.uleb128 0x3
 2901 004a 0E       		.uleb128 0xe
 2902 004b 0B       		.uleb128 0xb
 2903 004c 0B       		.uleb128 0xb
 2904 004d 3A       		.uleb128 0x3a
 2905 004e 0B       		.uleb128 0xb
 2906 004f 3B       		.uleb128 0x3b
 2907 0050 0B       		.uleb128 0xb
ARM GAS  /var/folders/l5/0x54b2c10074c8bt31ycjvl80000gp/T//cc53Qo2h.s 			page 52


 2908 0051 39       		.uleb128 0x39
 2909 0052 0B       		.uleb128 0xb
 2910 0053 01       		.uleb128 0x1
 2911 0054 13       		.uleb128 0x13
 2912 0055 00       		.byte	0
 2913 0056 00       		.byte	0
 2914 0057 08       		.uleb128 0x8
 2915 0058 0D       		.uleb128 0xd
 2916 0059 00       		.byte	0
 2917 005a 03       		.uleb128 0x3
 2918 005b 0E       		.uleb128 0xe
 2919 005c 3A       		.uleb128 0x3a
 2920 005d 0B       		.uleb128 0xb
 2921 005e 3B       		.uleb128 0x3b
 2922 005f 0B       		.uleb128 0xb
 2923 0060 39       		.uleb128 0x39
 2924 0061 0B       		.uleb128 0xb
 2925 0062 49       		.uleb128 0x49
 2926 0063 13       		.uleb128 0x13
 2927 0064 38       		.uleb128 0x38
 2928 0065 0B       		.uleb128 0xb
 2929 0066 00       		.byte	0
 2930 0067 00       		.byte	0
 2931 0068 09       		.uleb128 0x9
 2932 0069 0D       		.uleb128 0xd
 2933 006a 00       		.byte	0
 2934 006b 03       		.uleb128 0x3
 2935 006c 08       		.uleb128 0x8
 2936 006d 3A       		.uleb128 0x3a
 2937 006e 0B       		.uleb128 0xb
 2938 006f 3B       		.uleb128 0x3b
 2939 0070 0B       		.uleb128 0xb
 2940 0071 39       		.uleb128 0x39
 2941 0072 0B       		.uleb128 0xb
 2942 0073 49       		.uleb128 0x49
 2943 0074 13       		.uleb128 0x13
 2944 0075 38       		.uleb128 0x38
 2945 0076 0B       		.uleb128 0xb
 2946 0077 00       		.byte	0
 2947 0078 00       		.byte	0
 2948 0079 0A       		.uleb128 0xa
 2949 007a 13       		.uleb128 0x13
 2950 007b 01       		.byte	0x1
 2951 007c 0B       		.uleb128 0xb
 2952 007d 0B       		.uleb128 0xb
 2953 007e 3A       		.uleb128 0x3a
 2954 007f 0B       		.uleb128 0xb
 2955 0080 3B       		.uleb128 0x3b
 2956 0081 0B       		.uleb128 0xb
 2957 0082 39       		.uleb128 0x39
 2958 0083 0B       		.uleb128 0xb
 2959 0084 01       		.uleb128 0x1
 2960 0085 13       		.uleb128 0x13
 2961 0086 00       		.byte	0
 2962 0087 00       		.byte	0
 2963 0088 0B       		.uleb128 0xb
 2964 0089 0F       		.uleb128 0xf
ARM GAS  /var/folders/l5/0x54b2c10074c8bt31ycjvl80000gp/T//cc53Qo2h.s 			page 53


 2965 008a 00       		.byte	0
 2966 008b 0B       		.uleb128 0xb
 2967 008c 0B       		.uleb128 0xb
 2968 008d 49       		.uleb128 0x49
 2969 008e 13       		.uleb128 0x13
 2970 008f 00       		.byte	0
 2971 0090 00       		.byte	0
 2972 0091 0C       		.uleb128 0xc
 2973 0092 0F       		.uleb128 0xf
 2974 0093 00       		.byte	0
 2975 0094 0B       		.uleb128 0xb
 2976 0095 0B       		.uleb128 0xb
 2977 0096 00       		.byte	0
 2978 0097 00       		.byte	0
 2979 0098 0D       		.uleb128 0xd
 2980 0099 15       		.uleb128 0x15
 2981 009a 01       		.byte	0x1
 2982 009b 27       		.uleb128 0x27
 2983 009c 19       		.uleb128 0x19
 2984 009d 01       		.uleb128 0x1
 2985 009e 13       		.uleb128 0x13
 2986 009f 00       		.byte	0
 2987 00a0 00       		.byte	0
 2988 00a1 0E       		.uleb128 0xe
 2989 00a2 05       		.uleb128 0x5
 2990 00a3 00       		.byte	0
 2991 00a4 49       		.uleb128 0x49
 2992 00a5 13       		.uleb128 0x13
 2993 00a6 00       		.byte	0
 2994 00a7 00       		.byte	0
 2995 00a8 0F       		.uleb128 0xf
 2996 00a9 34       		.uleb128 0x34
 2997 00aa 00       		.byte	0
 2998 00ab 03       		.uleb128 0x3
 2999 00ac 0E       		.uleb128 0xe
 3000 00ad 3A       		.uleb128 0x3a
 3001 00ae 0B       		.uleb128 0xb
 3002 00af 3B       		.uleb128 0x3b
 3003 00b0 0B       		.uleb128 0xb
 3004 00b1 39       		.uleb128 0x39
 3005 00b2 0B       		.uleb128 0xb
 3006 00b3 49       		.uleb128 0x49
 3007 00b4 13       		.uleb128 0x13
 3008 00b5 3F       		.uleb128 0x3f
 3009 00b6 19       		.uleb128 0x19
 3010 00b7 3C       		.uleb128 0x3c
 3011 00b8 19       		.uleb128 0x19
 3012 00b9 00       		.byte	0
 3013 00ba 00       		.byte	0
 3014 00bb 10       		.uleb128 0x10
 3015 00bc 17       		.uleb128 0x17
 3016 00bd 01       		.byte	0x1
 3017 00be 0B       		.uleb128 0xb
 3018 00bf 0B       		.uleb128 0xb
 3019 00c0 3A       		.uleb128 0x3a
 3020 00c1 0B       		.uleb128 0xb
 3021 00c2 3B       		.uleb128 0x3b
ARM GAS  /var/folders/l5/0x54b2c10074c8bt31ycjvl80000gp/T//cc53Qo2h.s 			page 54


 3022 00c3 0B       		.uleb128 0xb
 3023 00c4 39       		.uleb128 0x39
 3024 00c5 0B       		.uleb128 0xb
 3025 00c6 01       		.uleb128 0x1
 3026 00c7 13       		.uleb128 0x13
 3027 00c8 00       		.byte	0
 3028 00c9 00       		.byte	0
 3029 00ca 11       		.uleb128 0x11
 3030 00cb 0D       		.uleb128 0xd
 3031 00cc 00       		.byte	0
 3032 00cd 03       		.uleb128 0x3
 3033 00ce 0E       		.uleb128 0xe
 3034 00cf 3A       		.uleb128 0x3a
 3035 00d0 0B       		.uleb128 0xb
 3036 00d1 3B       		.uleb128 0x3b
 3037 00d2 0B       		.uleb128 0xb
 3038 00d3 39       		.uleb128 0x39
 3039 00d4 0B       		.uleb128 0xb
 3040 00d5 49       		.uleb128 0x49
 3041 00d6 13       		.uleb128 0x13
 3042 00d7 00       		.byte	0
 3043 00d8 00       		.byte	0
 3044 00d9 12       		.uleb128 0x12
 3045 00da 15       		.uleb128 0x15
 3046 00db 01       		.byte	0x1
 3047 00dc 27       		.uleb128 0x27
 3048 00dd 19       		.uleb128 0x19
 3049 00de 49       		.uleb128 0x49
 3050 00df 13       		.uleb128 0x13
 3051 00e0 01       		.uleb128 0x1
 3052 00e1 13       		.uleb128 0x13
 3053 00e2 00       		.byte	0
 3054 00e3 00       		.byte	0
 3055 00e4 13       		.uleb128 0x13
 3056 00e5 01       		.uleb128 0x1
 3057 00e6 01       		.byte	0x1
 3058 00e7 49       		.uleb128 0x49
 3059 00e8 13       		.uleb128 0x13
 3060 00e9 01       		.uleb128 0x1
 3061 00ea 13       		.uleb128 0x13
 3062 00eb 00       		.byte	0
 3063 00ec 00       		.byte	0
 3064 00ed 14       		.uleb128 0x14
 3065 00ee 21       		.uleb128 0x21
 3066 00ef 00       		.byte	0
 3067 00f0 49       		.uleb128 0x49
 3068 00f1 13       		.uleb128 0x13
 3069 00f2 2F       		.uleb128 0x2f
 3070 00f3 0B       		.uleb128 0xb
 3071 00f4 00       		.byte	0
 3072 00f5 00       		.byte	0
 3073 00f6 15       		.uleb128 0x15
 3074 00f7 0D       		.uleb128 0xd
 3075 00f8 00       		.byte	0
 3076 00f9 03       		.uleb128 0x3
 3077 00fa 0E       		.uleb128 0xe
 3078 00fb 3A       		.uleb128 0x3a
ARM GAS  /var/folders/l5/0x54b2c10074c8bt31ycjvl80000gp/T//cc53Qo2h.s 			page 55


 3079 00fc 0B       		.uleb128 0xb
 3080 00fd 3B       		.uleb128 0x3b
 3081 00fe 05       		.uleb128 0x5
 3082 00ff 39       		.uleb128 0x39
 3083 0100 0B       		.uleb128 0xb
 3084 0101 49       		.uleb128 0x49
 3085 0102 13       		.uleb128 0x13
 3086 0103 38       		.uleb128 0x38
 3087 0104 0B       		.uleb128 0xb
 3088 0105 00       		.byte	0
 3089 0106 00       		.byte	0
 3090 0107 16       		.uleb128 0x16
 3091 0108 16       		.uleb128 0x16
 3092 0109 00       		.byte	0
 3093 010a 03       		.uleb128 0x3
 3094 010b 0E       		.uleb128 0xe
 3095 010c 3A       		.uleb128 0x3a
 3096 010d 0B       		.uleb128 0xb
 3097 010e 3B       		.uleb128 0x3b
 3098 010f 05       		.uleb128 0x5
 3099 0110 39       		.uleb128 0x39
 3100 0111 0B       		.uleb128 0xb
 3101 0112 49       		.uleb128 0x49
 3102 0113 13       		.uleb128 0x13
 3103 0114 00       		.byte	0
 3104 0115 00       		.byte	0
 3105 0116 17       		.uleb128 0x17
 3106 0117 13       		.uleb128 0x13
 3107 0118 00       		.byte	0
 3108 0119 0B       		.uleb128 0xb
 3109 011a 0B       		.uleb128 0xb
 3110 011b 3A       		.uleb128 0x3a
 3111 011c 0B       		.uleb128 0xb
 3112 011d 3B       		.uleb128 0x3b
 3113 011e 0B       		.uleb128 0xb
 3114 011f 39       		.uleb128 0x39
 3115 0120 0B       		.uleb128 0xb
 3116 0121 00       		.byte	0
 3117 0122 00       		.byte	0
 3118 0123 18       		.uleb128 0x18
 3119 0124 04       		.uleb128 0x4
 3120 0125 01       		.byte	0x1
 3121 0126 3E       		.uleb128 0x3e
 3122 0127 0B       		.uleb128 0xb
 3123 0128 0B       		.uleb128 0xb
 3124 0129 0B       		.uleb128 0xb
 3125 012a 49       		.uleb128 0x49
 3126 012b 13       		.uleb128 0x13
 3127 012c 3A       		.uleb128 0x3a
 3128 012d 0B       		.uleb128 0xb
 3129 012e 3B       		.uleb128 0x3b
 3130 012f 0B       		.uleb128 0xb
 3131 0130 39       		.uleb128 0x39
 3132 0131 0B       		.uleb128 0xb
 3133 0132 01       		.uleb128 0x1
 3134 0133 13       		.uleb128 0x13
 3135 0134 00       		.byte	0
ARM GAS  /var/folders/l5/0x54b2c10074c8bt31ycjvl80000gp/T//cc53Qo2h.s 			page 56


 3136 0135 00       		.byte	0
 3137 0136 19       		.uleb128 0x19
 3138 0137 28       		.uleb128 0x28
 3139 0138 00       		.byte	0
 3140 0139 03       		.uleb128 0x3
 3141 013a 0E       		.uleb128 0xe
 3142 013b 1C       		.uleb128 0x1c
 3143 013c 0B       		.uleb128 0xb
 3144 013d 00       		.byte	0
 3145 013e 00       		.byte	0
 3146 013f 1A       		.uleb128 0x1a
 3147 0140 34       		.uleb128 0x34
 3148 0141 00       		.byte	0
 3149 0142 03       		.uleb128 0x3
 3150 0143 08       		.uleb128 0x8
 3151 0144 3A       		.uleb128 0x3a
 3152 0145 0B       		.uleb128 0xb
 3153 0146 3B       		.uleb128 0x3b
 3154 0147 0B       		.uleb128 0xb
 3155 0148 39       		.uleb128 0x39
 3156 0149 0B       		.uleb128 0xb
 3157 014a 49       		.uleb128 0x49
 3158 014b 13       		.uleb128 0x13
 3159 014c 3F       		.uleb128 0x3f
 3160 014d 19       		.uleb128 0x19
 3161 014e 3C       		.uleb128 0x3c
 3162 014f 19       		.uleb128 0x19
 3163 0150 00       		.byte	0
 3164 0151 00       		.byte	0
 3165 0152 1B       		.uleb128 0x1b
 3166 0153 26       		.uleb128 0x26
 3167 0154 00       		.byte	0
 3168 0155 00       		.byte	0
 3169 0156 00       		.byte	0
 3170 0157 1C       		.uleb128 0x1c
 3171 0158 34       		.uleb128 0x34
 3172 0159 00       		.byte	0
 3173 015a 47       		.uleb128 0x47
 3174 015b 13       		.uleb128 0x13
 3175 015c 3A       		.uleb128 0x3a
 3176 015d 0B       		.uleb128 0xb
 3177 015e 3B       		.uleb128 0x3b
 3178 015f 0B       		.uleb128 0xb
 3179 0160 39       		.uleb128 0x39
 3180 0161 0B       		.uleb128 0xb
 3181 0162 02       		.uleb128 0x2
 3182 0163 18       		.uleb128 0x18
 3183 0164 00       		.byte	0
 3184 0165 00       		.byte	0
 3185 0166 1D       		.uleb128 0x1d
 3186 0167 2E       		.uleb128 0x2e
 3187 0168 01       		.byte	0x1
 3188 0169 3F       		.uleb128 0x3f
 3189 016a 19       		.uleb128 0x19
 3190 016b 03       		.uleb128 0x3
 3191 016c 0E       		.uleb128 0xe
 3192 016d 3A       		.uleb128 0x3a
ARM GAS  /var/folders/l5/0x54b2c10074c8bt31ycjvl80000gp/T//cc53Qo2h.s 			page 57


 3193 016e 0B       		.uleb128 0xb
 3194 016f 3B       		.uleb128 0x3b
 3195 0170 0B       		.uleb128 0xb
 3196 0171 39       		.uleb128 0x39
 3197 0172 0B       		.uleb128 0xb
 3198 0173 27       		.uleb128 0x27
 3199 0174 19       		.uleb128 0x19
 3200 0175 11       		.uleb128 0x11
 3201 0176 01       		.uleb128 0x1
 3202 0177 12       		.uleb128 0x12
 3203 0178 06       		.uleb128 0x6
 3204 0179 40       		.uleb128 0x40
 3205 017a 18       		.uleb128 0x18
 3206 017b 9742     		.uleb128 0x2117
 3207 017d 19       		.uleb128 0x19
 3208 017e 01       		.uleb128 0x1
 3209 017f 13       		.uleb128 0x13
 3210 0180 00       		.byte	0
 3211 0181 00       		.byte	0
 3212 0182 1E       		.uleb128 0x1e
 3213 0183 05       		.uleb128 0x5
 3214 0184 00       		.byte	0
 3215 0185 03       		.uleb128 0x3
 3216 0186 0E       		.uleb128 0xe
 3217 0187 3A       		.uleb128 0x3a
 3218 0188 0B       		.uleb128 0xb
 3219 0189 3B       		.uleb128 0x3b
 3220 018a 0B       		.uleb128 0xb
 3221 018b 39       		.uleb128 0x39
 3222 018c 0B       		.uleb128 0xb
 3223 018d 49       		.uleb128 0x49
 3224 018e 13       		.uleb128 0x13
 3225 018f 02       		.uleb128 0x2
 3226 0190 18       		.uleb128 0x18
 3227 0191 00       		.byte	0
 3228 0192 00       		.byte	0
 3229 0193 1F       		.uleb128 0x1f
 3230 0194 05       		.uleb128 0x5
 3231 0195 00       		.byte	0
 3232 0196 03       		.uleb128 0x3
 3233 0197 0E       		.uleb128 0xe
 3234 0198 3A       		.uleb128 0x3a
 3235 0199 0B       		.uleb128 0xb
 3236 019a 3B       		.uleb128 0x3b
 3237 019b 0B       		.uleb128 0xb
 3238 019c 39       		.uleb128 0x39
 3239 019d 0B       		.uleb128 0xb
 3240 019e 49       		.uleb128 0x49
 3241 019f 13       		.uleb128 0x13
 3242 01a0 02       		.uleb128 0x2
 3243 01a1 17       		.uleb128 0x17
 3244 01a2 B742     		.uleb128 0x2137
 3245 01a4 17       		.uleb128 0x17
 3246 01a5 00       		.byte	0
 3247 01a6 00       		.byte	0
 3248 01a7 20       		.uleb128 0x20
 3249 01a8 34       		.uleb128 0x34
ARM GAS  /var/folders/l5/0x54b2c10074c8bt31ycjvl80000gp/T//cc53Qo2h.s 			page 58


 3250 01a9 00       		.byte	0
 3251 01aa 03       		.uleb128 0x3
 3252 01ab 08       		.uleb128 0x8
 3253 01ac 3A       		.uleb128 0x3a
 3254 01ad 0B       		.uleb128 0xb
 3255 01ae 3B       		.uleb128 0x3b
 3256 01af 0B       		.uleb128 0xb
 3257 01b0 39       		.uleb128 0x39
 3258 01b1 0B       		.uleb128 0xb
 3259 01b2 49       		.uleb128 0x49
 3260 01b3 13       		.uleb128 0x13
 3261 01b4 02       		.uleb128 0x2
 3262 01b5 17       		.uleb128 0x17
 3263 01b6 B742     		.uleb128 0x2137
 3264 01b8 17       		.uleb128 0x17
 3265 01b9 00       		.byte	0
 3266 01ba 00       		.byte	0
 3267 01bb 21       		.uleb128 0x21
 3268 01bc 0B       		.uleb128 0xb
 3269 01bd 01       		.byte	0x1
 3270 01be 55       		.uleb128 0x55
 3271 01bf 17       		.uleb128 0x17
 3272 01c0 01       		.uleb128 0x1
 3273 01c1 13       		.uleb128 0x13
 3274 01c2 00       		.byte	0
 3275 01c3 00       		.byte	0
 3276 01c4 22       		.uleb128 0x22
 3277 01c5 898201   		.uleb128 0x4109
 3278 01c8 01       		.byte	0x1
 3279 01c9 11       		.uleb128 0x11
 3280 01ca 01       		.uleb128 0x1
 3281 01cb 31       		.uleb128 0x31
 3282 01cc 13       		.uleb128 0x13
 3283 01cd 00       		.byte	0
 3284 01ce 00       		.byte	0
 3285 01cf 23       		.uleb128 0x23
 3286 01d0 8A8201   		.uleb128 0x410a
 3287 01d3 00       		.byte	0
 3288 01d4 02       		.uleb128 0x2
 3289 01d5 18       		.uleb128 0x18
 3290 01d6 9142     		.uleb128 0x2111
 3291 01d8 18       		.uleb128 0x18
 3292 01d9 00       		.byte	0
 3293 01da 00       		.byte	0
 3294 01db 24       		.uleb128 0x24
 3295 01dc 898201   		.uleb128 0x4109
 3296 01df 01       		.byte	0x1
 3297 01e0 11       		.uleb128 0x11
 3298 01e1 01       		.uleb128 0x1
 3299 01e2 31       		.uleb128 0x31
 3300 01e3 13       		.uleb128 0x13
 3301 01e4 01       		.uleb128 0x1
 3302 01e5 13       		.uleb128 0x13
 3303 01e6 00       		.byte	0
 3304 01e7 00       		.byte	0
 3305 01e8 25       		.uleb128 0x25
 3306 01e9 8A8201   		.uleb128 0x410a
ARM GAS  /var/folders/l5/0x54b2c10074c8bt31ycjvl80000gp/T//cc53Qo2h.s 			page 59


 3307 01ec 00       		.byte	0
 3308 01ed 31       		.uleb128 0x31
 3309 01ee 13       		.uleb128 0x13
 3310 01ef 9142     		.uleb128 0x2111
 3311 01f1 18       		.uleb128 0x18
 3312 01f2 00       		.byte	0
 3313 01f3 00       		.byte	0
 3314 01f4 26       		.uleb128 0x26
 3315 01f5 898201   		.uleb128 0x4109
 3316 01f8 01       		.byte	0x1
 3317 01f9 11       		.uleb128 0x11
 3318 01fa 01       		.uleb128 0x1
 3319 01fb 9542     		.uleb128 0x2115
 3320 01fd 19       		.uleb128 0x19
 3321 01fe 31       		.uleb128 0x31
 3322 01ff 13       		.uleb128 0x13
 3323 0200 01       		.uleb128 0x1
 3324 0201 13       		.uleb128 0x13
 3325 0202 00       		.byte	0
 3326 0203 00       		.byte	0
 3327 0204 27       		.uleb128 0x27
 3328 0205 898201   		.uleb128 0x4109
 3329 0208 01       		.byte	0x1
 3330 0209 11       		.uleb128 0x11
 3331 020a 01       		.uleb128 0x1
 3332 020b 9542     		.uleb128 0x2115
 3333 020d 19       		.uleb128 0x19
 3334 020e 31       		.uleb128 0x31
 3335 020f 13       		.uleb128 0x13
 3336 0210 00       		.byte	0
 3337 0211 00       		.byte	0
 3338 0212 28       		.uleb128 0x28
 3339 0213 2E       		.uleb128 0x2e
 3340 0214 01       		.byte	0x1
 3341 0215 03       		.uleb128 0x3
 3342 0216 0E       		.uleb128 0xe
 3343 0217 3A       		.uleb128 0x3a
 3344 0218 0B       		.uleb128 0xb
 3345 0219 3B       		.uleb128 0x3b
 3346 021a 0B       		.uleb128 0xb
 3347 021b 39       		.uleb128 0x39
 3348 021c 0B       		.uleb128 0xb
 3349 021d 27       		.uleb128 0x27
 3350 021e 19       		.uleb128 0x19
 3351 021f 20       		.uleb128 0x20
 3352 0220 0B       		.uleb128 0xb
 3353 0221 01       		.uleb128 0x1
 3354 0222 13       		.uleb128 0x13
 3355 0223 00       		.byte	0
 3356 0224 00       		.byte	0
 3357 0225 29       		.uleb128 0x29
 3358 0226 05       		.uleb128 0x5
 3359 0227 00       		.byte	0
 3360 0228 03       		.uleb128 0x3
 3361 0229 0E       		.uleb128 0xe
 3362 022a 3A       		.uleb128 0x3a
 3363 022b 0B       		.uleb128 0xb
ARM GAS  /var/folders/l5/0x54b2c10074c8bt31ycjvl80000gp/T//cc53Qo2h.s 			page 60


 3364 022c 3B       		.uleb128 0x3b
 3365 022d 0B       		.uleb128 0xb
 3366 022e 39       		.uleb128 0x39
 3367 022f 0B       		.uleb128 0xb
 3368 0230 49       		.uleb128 0x49
 3369 0231 13       		.uleb128 0x13
 3370 0232 00       		.byte	0
 3371 0233 00       		.byte	0
 3372 0234 2A       		.uleb128 0x2a
 3373 0235 34       		.uleb128 0x34
 3374 0236 00       		.byte	0
 3375 0237 03       		.uleb128 0x3
 3376 0238 08       		.uleb128 0x8
 3377 0239 3A       		.uleb128 0x3a
 3378 023a 0B       		.uleb128 0xb
 3379 023b 3B       		.uleb128 0x3b
 3380 023c 0B       		.uleb128 0xb
 3381 023d 39       		.uleb128 0x39
 3382 023e 0B       		.uleb128 0xb
 3383 023f 49       		.uleb128 0x49
 3384 0240 13       		.uleb128 0x13
 3385 0241 00       		.byte	0
 3386 0242 00       		.byte	0
 3387 0243 2B       		.uleb128 0x2b
 3388 0244 0B       		.uleb128 0xb
 3389 0245 01       		.byte	0x1
 3390 0246 00       		.byte	0
 3391 0247 00       		.byte	0
 3392 0248 2C       		.uleb128 0x2c
 3393 0249 2E       		.uleb128 0x2e
 3394 024a 01       		.byte	0x1
 3395 024b 31       		.uleb128 0x31
 3396 024c 13       		.uleb128 0x13
 3397 024d 11       		.uleb128 0x11
 3398 024e 01       		.uleb128 0x1
 3399 024f 12       		.uleb128 0x12
 3400 0250 06       		.uleb128 0x6
 3401 0251 40       		.uleb128 0x40
 3402 0252 18       		.uleb128 0x18
 3403 0253 9742     		.uleb128 0x2117
 3404 0255 19       		.uleb128 0x19
 3405 0256 01       		.uleb128 0x1
 3406 0257 13       		.uleb128 0x13
 3407 0258 00       		.byte	0
 3408 0259 00       		.byte	0
 3409 025a 2D       		.uleb128 0x2d
 3410 025b 05       		.uleb128 0x5
 3411 025c 00       		.byte	0
 3412 025d 31       		.uleb128 0x31
 3413 025e 13       		.uleb128 0x13
 3414 025f 02       		.uleb128 0x2
 3415 0260 17       		.uleb128 0x17
 3416 0261 B742     		.uleb128 0x2137
 3417 0263 17       		.uleb128 0x17
 3418 0264 00       		.byte	0
 3419 0265 00       		.byte	0
 3420 0266 2E       		.uleb128 0x2e
ARM GAS  /var/folders/l5/0x54b2c10074c8bt31ycjvl80000gp/T//cc53Qo2h.s 			page 61


 3421 0267 05       		.uleb128 0x5
 3422 0268 00       		.byte	0
 3423 0269 31       		.uleb128 0x31
 3424 026a 13       		.uleb128 0x13
 3425 026b 00       		.byte	0
 3426 026c 00       		.byte	0
 3427 026d 2F       		.uleb128 0x2f
 3428 026e 34       		.uleb128 0x34
 3429 026f 00       		.byte	0
 3430 0270 31       		.uleb128 0x31
 3431 0271 13       		.uleb128 0x13
 3432 0272 02       		.uleb128 0x2
 3433 0273 17       		.uleb128 0x17
 3434 0274 B742     		.uleb128 0x2137
 3435 0276 17       		.uleb128 0x17
 3436 0277 00       		.byte	0
 3437 0278 00       		.byte	0
 3438 0279 30       		.uleb128 0x30
 3439 027a 0B       		.uleb128 0xb
 3440 027b 01       		.byte	0x1
 3441 027c 31       		.uleb128 0x31
 3442 027d 13       		.uleb128 0x13
 3443 027e 55       		.uleb128 0x55
 3444 027f 17       		.uleb128 0x17
 3445 0280 00       		.byte	0
 3446 0281 00       		.byte	0
 3447 0282 31       		.uleb128 0x31
 3448 0283 2E       		.uleb128 0x2e
 3449 0284 00       		.byte	0
 3450 0285 3F       		.uleb128 0x3f
 3451 0286 19       		.uleb128 0x19
 3452 0287 3C       		.uleb128 0x3c
 3453 0288 19       		.uleb128 0x19
 3454 0289 6E       		.uleb128 0x6e
 3455 028a 0E       		.uleb128 0xe
 3456 028b 03       		.uleb128 0x3
 3457 028c 0E       		.uleb128 0xe
 3458 028d 3A       		.uleb128 0x3a
 3459 028e 0B       		.uleb128 0xb
 3460 028f 3B       		.uleb128 0x3b
 3461 0290 05       		.uleb128 0x5
 3462 0291 39       		.uleb128 0x39
 3463 0292 0B       		.uleb128 0xb
 3464 0293 00       		.byte	0
 3465 0294 00       		.byte	0
 3466 0295 00       		.byte	0
 3467              		.section	.debug_loc,"",%progbits
 3468              	.Ldebug_loc0:
 3469              	.LVUS6:
 3470 0000 00       		.uleb128 0
 3471 0001 00       		.uleb128 .LVU82
 3472 0002 00       		.uleb128 .LVU82
 3473 0003 00       		.uleb128 .LVU85
 3474 0004 00       		.uleb128 .LVU85
 3475 0005 00       		.uleb128 .LVU86
 3476 0006 00       		.uleb128 .LVU86
 3477 0007 00       		.uleb128 .LVU86
ARM GAS  /var/folders/l5/0x54b2c10074c8bt31ycjvl80000gp/T//cc53Qo2h.s 			page 62


 3478 0008 00       		.uleb128 .LVU86
 3479 0009 00       		.uleb128 .LVU88
 3480 000a 00       		.uleb128 .LVU88
 3481 000b 00       		.uleb128 .LVU100
 3482 000c 00       		.uleb128 .LVU100
 3483 000d 00       		.uleb128 .LVU102
 3484 000e 00       		.uleb128 .LVU102
 3485 000f 00       		.uleb128 .LVU105
 3486 0010 00       		.uleb128 .LVU105
 3487 0011 00       		.uleb128 .LVU106
 3488 0012 00       		.uleb128 .LVU106
 3489 0013 00       		.uleb128 .LVU106
 3490 0014 00       		.uleb128 .LVU106
 3491 0015 00       		.uleb128 .LVU107
 3492 0016 00       		.uleb128 .LVU107
 3493 0017 00       		.uleb128 .LVU110
 3494 0018 00       		.uleb128 .LVU110
 3495 0019 00       		.uleb128 .LVU111
 3496 001a 00       		.uleb128 .LVU111
 3497 001b 00       		.uleb128 0
 3498              	.LLST6:
 3499 001c 00000000 		.4byte	.LVL13
 3500 0020 2C000000 		.4byte	.LVL14
 3501 0024 0100     		.2byte	0x1
 3502 0026 50       		.byte	0x50
 3503 0027 2C000000 		.4byte	.LVL14
 3504 002b 40000000 		.4byte	.LVL16
 3505 002f 0100     		.2byte	0x1
 3506 0031 56       		.byte	0x56
 3507 0032 40000000 		.4byte	.LVL16
 3508 0036 43000000 		.4byte	.LVL17-1
 3509 003a 0300     		.2byte	0x3
 3510 003c 70       		.byte	0x70
 3511 003d 70       		.sleb128 -16
 3512 003e 9F       		.byte	0x9f
 3513 003f 43000000 		.4byte	.LVL17-1
 3514 0043 44000000 		.4byte	.LVL17
 3515 0047 0400     		.2byte	0x4
 3516 0049 F3       		.byte	0xf3
 3517 004a 01       		.uleb128 0x1
 3518 004b 50       		.byte	0x50
 3519 004c 9F       		.byte	0x9f
 3520 004d 44000000 		.4byte	.LVL17
 3521 0051 64000000 		.4byte	.LVL18
 3522 0055 0100     		.2byte	0x1
 3523 0057 50       		.byte	0x50
 3524 0058 64000000 		.4byte	.LVL18
 3525 005c 90000000 		.4byte	.LVL23
 3526 0060 0100     		.2byte	0x1
 3527 0062 56       		.byte	0x56
 3528 0063 90000000 		.4byte	.LVL23
 3529 0067 94000000 		.4byte	.LVL24
 3530 006b 0100     		.2byte	0x1
 3531 006d 50       		.byte	0x50
 3532 006e 94000000 		.4byte	.LVL24
 3533 0072 A8000000 		.4byte	.LVL26
 3534 0076 0100     		.2byte	0x1
ARM GAS  /var/folders/l5/0x54b2c10074c8bt31ycjvl80000gp/T//cc53Qo2h.s 			page 63


 3535 0078 56       		.byte	0x56
 3536 0079 A8000000 		.4byte	.LVL26
 3537 007d AB000000 		.4byte	.LVL27-1
 3538 0081 0300     		.2byte	0x3
 3539 0083 70       		.byte	0x70
 3540 0084 70       		.sleb128 -16
 3541 0085 9F       		.byte	0x9f
 3542 0086 AB000000 		.4byte	.LVL27-1
 3543 008a AC000000 		.4byte	.LVL27
 3544 008e 0400     		.2byte	0x4
 3545 0090 F3       		.byte	0xf3
 3546 0091 01       		.uleb128 0x1
 3547 0092 50       		.byte	0x50
 3548 0093 9F       		.byte	0x9f
 3549 0094 AC000000 		.4byte	.LVL27
 3550 0098 B0000000 		.4byte	.LVL28
 3551 009c 0100     		.2byte	0x1
 3552 009e 50       		.byte	0x50
 3553 009f B0000000 		.4byte	.LVL28
 3554 00a3 C4000000 		.4byte	.LVL30
 3555 00a7 0100     		.2byte	0x1
 3556 00a9 56       		.byte	0x56
 3557 00aa C4000000 		.4byte	.LVL30
 3558 00ae C7000000 		.4byte	.LVL31-1
 3559 00b2 0300     		.2byte	0x3
 3560 00b4 70       		.byte	0x70
 3561 00b5 70       		.sleb128 -16
 3562 00b6 9F       		.byte	0x9f
 3563 00b7 C7000000 		.4byte	.LVL31-1
 3564 00bb C8000000 		.4byte	.LFE10
 3565 00bf 0400     		.2byte	0x4
 3566 00c1 F3       		.byte	0xf3
 3567 00c2 01       		.uleb128 0x1
 3568 00c3 50       		.byte	0x50
 3569 00c4 9F       		.byte	0x9f
 3570 00c5 00000000 		.4byte	0
 3571 00c9 00000000 		.4byte	0
 3572              	.LVUS7:
 3573 00cd 00       		.uleb128 0
 3574 00ce 00       		.uleb128 .LVU83
 3575 00cf 00       		.uleb128 .LVU83
 3576 00d0 00       		.uleb128 .LVU85
 3577 00d1 00       		.uleb128 .LVU85
 3578 00d2 00       		.uleb128 .LVU86
 3579 00d3 00       		.uleb128 .LVU86
 3580 00d4 00       		.uleb128 .LVU86
 3581 00d5 00       		.uleb128 .LVU86
 3582 00d6 00       		.uleb128 .LVU88
 3583 00d7 00       		.uleb128 .LVU88
 3584 00d8 00       		.uleb128 .LVU100
 3585 00d9 00       		.uleb128 .LVU100
 3586 00da 00       		.uleb128 .LVU103
 3587 00db 00       		.uleb128 .LVU103
 3588 00dc 00       		.uleb128 .LVU105
 3589 00dd 00       		.uleb128 .LVU105
 3590 00de 00       		.uleb128 .LVU106
 3591 00df 00       		.uleb128 .LVU106
ARM GAS  /var/folders/l5/0x54b2c10074c8bt31ycjvl80000gp/T//cc53Qo2h.s 			page 64


 3592 00e0 00       		.uleb128 .LVU106
 3593 00e1 00       		.uleb128 .LVU106
 3594 00e2 00       		.uleb128 .LVU108
 3595 00e3 00       		.uleb128 .LVU108
 3596 00e4 00       		.uleb128 .LVU110
 3597 00e5 00       		.uleb128 .LVU110
 3598 00e6 00       		.uleb128 .LVU111
 3599 00e7 00       		.uleb128 .LVU111
 3600 00e8 00       		.uleb128 0
 3601              	.LLST7:
 3602 00e9 00000000 		.4byte	.LVL13
 3603 00ed 2F000000 		.4byte	.LVL15-1
 3604 00f1 0100     		.2byte	0x1
 3605 00f3 51       		.byte	0x51
 3606 00f4 2F000000 		.4byte	.LVL15-1
 3607 00f8 40000000 		.4byte	.LVL16
 3608 00fc 0100     		.2byte	0x1
 3609 00fe 55       		.byte	0x55
 3610 00ff 40000000 		.4byte	.LVL16
 3611 0103 43000000 		.4byte	.LVL17-1
 3612 0107 0100     		.2byte	0x1
 3613 0109 51       		.byte	0x51
 3614 010a 43000000 		.4byte	.LVL17-1
 3615 010e 44000000 		.4byte	.LVL17
 3616 0112 0400     		.2byte	0x4
 3617 0114 F3       		.byte	0xf3
 3618 0115 01       		.uleb128 0x1
 3619 0116 51       		.byte	0x51
 3620 0117 9F       		.byte	0x9f
 3621 0118 44000000 		.4byte	.LVL17
 3622 011c 64000000 		.4byte	.LVL18
 3623 0120 0100     		.2byte	0x1
 3624 0122 51       		.byte	0x51
 3625 0123 64000000 		.4byte	.LVL18
 3626 0127 90000000 		.4byte	.LVL23
 3627 012b 0100     		.2byte	0x1
 3628 012d 55       		.byte	0x55
 3629 012e 90000000 		.4byte	.LVL23
 3630 0132 97000000 		.4byte	.LVL25-1
 3631 0136 0100     		.2byte	0x1
 3632 0138 51       		.byte	0x51
 3633 0139 97000000 		.4byte	.LVL25-1
 3634 013d A8000000 		.4byte	.LVL26
 3635 0141 0100     		.2byte	0x1
 3636 0143 55       		.byte	0x55
 3637 0144 A8000000 		.4byte	.LVL26
 3638 0148 AB000000 		.4byte	.LVL27-1
 3639 014c 0100     		.2byte	0x1
 3640 014e 51       		.byte	0x51
 3641 014f AB000000 		.4byte	.LVL27-1
 3642 0153 AC000000 		.4byte	.LVL27
 3643 0157 0400     		.2byte	0x4
 3644 0159 F3       		.byte	0xf3
 3645 015a 01       		.uleb128 0x1
 3646 015b 51       		.byte	0x51
 3647 015c 9F       		.byte	0x9f
 3648 015d AC000000 		.4byte	.LVL27
ARM GAS  /var/folders/l5/0x54b2c10074c8bt31ycjvl80000gp/T//cc53Qo2h.s 			page 65


 3649 0161 B3000000 		.4byte	.LVL29-1
 3650 0165 0100     		.2byte	0x1
 3651 0167 51       		.byte	0x51
 3652 0168 B3000000 		.4byte	.LVL29-1
 3653 016c C4000000 		.4byte	.LVL30
 3654 0170 0100     		.2byte	0x1
 3655 0172 55       		.byte	0x55
 3656 0173 C4000000 		.4byte	.LVL30
 3657 0177 C7000000 		.4byte	.LVL31-1
 3658 017b 0100     		.2byte	0x1
 3659 017d 51       		.byte	0x51
 3660 017e C7000000 		.4byte	.LVL31-1
 3661 0182 C8000000 		.4byte	.LFE10
 3662 0186 0400     		.2byte	0x4
 3663 0188 F3       		.byte	0xf3
 3664 0189 01       		.uleb128 0x1
 3665 018a 51       		.byte	0x51
 3666 018b 9F       		.byte	0x9f
 3667 018c 00000000 		.4byte	0
 3668 0190 00000000 		.4byte	0
 3669              	.LVUS8:
 3670 0194 00       		.uleb128 0
 3671 0195 00       		.uleb128 .LVU83
 3672 0196 00       		.uleb128 .LVU83
 3673 0197 00       		.uleb128 .LVU86
 3674 0198 00       		.uleb128 .LVU86
 3675 0199 00       		.uleb128 .LVU88
 3676 019a 00       		.uleb128 .LVU88
 3677 019b 00       		.uleb128 .LVU100
 3678 019c 00       		.uleb128 .LVU100
 3679 019d 00       		.uleb128 .LVU103
 3680 019e 00       		.uleb128 .LVU103
 3681 019f 00       		.uleb128 .LVU106
 3682 01a0 00       		.uleb128 .LVU106
 3683 01a1 00       		.uleb128 .LVU108
 3684 01a2 00       		.uleb128 .LVU108
 3685 01a3 00       		.uleb128 0
 3686              	.LLST8:
 3687 01a4 00000000 		.4byte	.LVL13
 3688 01a8 2F000000 		.4byte	.LVL15-1
 3689 01ac 0100     		.2byte	0x1
 3690 01ae 52       		.byte	0x52
 3691 01af 2F000000 		.4byte	.LVL15-1
 3692 01b3 44000000 		.4byte	.LVL17
 3693 01b7 0400     		.2byte	0x4
 3694 01b9 F3       		.byte	0xf3
 3695 01ba 01       		.uleb128 0x1
 3696 01bb 52       		.byte	0x52
 3697 01bc 9F       		.byte	0x9f
 3698 01bd 44000000 		.4byte	.LVL17
 3699 01c1 64000000 		.4byte	.LVL18
 3700 01c5 0100     		.2byte	0x1
 3701 01c7 52       		.byte	0x52
 3702 01c8 64000000 		.4byte	.LVL18
 3703 01cc 90000000 		.4byte	.LVL23
 3704 01d0 0400     		.2byte	0x4
 3705 01d2 F3       		.byte	0xf3
ARM GAS  /var/folders/l5/0x54b2c10074c8bt31ycjvl80000gp/T//cc53Qo2h.s 			page 66


 3706 01d3 01       		.uleb128 0x1
 3707 01d4 52       		.byte	0x52
 3708 01d5 9F       		.byte	0x9f
 3709 01d6 90000000 		.4byte	.LVL23
 3710 01da 97000000 		.4byte	.LVL25-1
 3711 01de 0100     		.2byte	0x1
 3712 01e0 52       		.byte	0x52
 3713 01e1 97000000 		.4byte	.LVL25-1
 3714 01e5 AC000000 		.4byte	.LVL27
 3715 01e9 0400     		.2byte	0x4
 3716 01eb F3       		.byte	0xf3
 3717 01ec 01       		.uleb128 0x1
 3718 01ed 52       		.byte	0x52
 3719 01ee 9F       		.byte	0x9f
 3720 01ef AC000000 		.4byte	.LVL27
 3721 01f3 B3000000 		.4byte	.LVL29-1
 3722 01f7 0100     		.2byte	0x1
 3723 01f9 52       		.byte	0x52
 3724 01fa B3000000 		.4byte	.LVL29-1
 3725 01fe C8000000 		.4byte	.LFE10
 3726 0202 0400     		.2byte	0x4
 3727 0204 F3       		.byte	0xf3
 3728 0205 01       		.uleb128 0x1
 3729 0206 52       		.byte	0x52
 3730 0207 9F       		.byte	0x9f
 3731 0208 00000000 		.4byte	0
 3732 020c 00000000 		.4byte	0
 3733              	.LVUS9:
 3734 0210 00       		.uleb128 .LVU88
 3735 0211 00       		.uleb128 .LVU90
 3736 0212 00       		.uleb128 .LVU90
 3737 0213 00       		.uleb128 .LVU92
 3738 0214 00       		.uleb128 .LVU92
 3739 0215 00       		.uleb128 .LVU100
 3740              	.LLST9:
 3741 0216 64000000 		.4byte	.LVL18
 3742 021a 68000000 		.4byte	.LVL19
 3743 021e 0100     		.2byte	0x1
 3744 0220 54       		.byte	0x54
 3745 0221 68000000 		.4byte	.LVL19
 3746 0225 70000000 		.4byte	.LVL20
 3747 0229 0300     		.2byte	0x3
 3748 022b 74       		.byte	0x74
 3749 022c 7F       		.sleb128 -1
 3750 022d 9F       		.byte	0x9f
 3751 022e 70000000 		.4byte	.LVL20
 3752 0232 90000000 		.4byte	.LVL23
 3753 0236 0100     		.2byte	0x1
 3754 0238 54       		.byte	0x54
 3755 0239 00000000 		.4byte	0
 3756 023d 00000000 		.4byte	0
 3757              	.LVUS10:
 3758 0241 00       		.uleb128 .LVU88
 3759 0242 00       		.uleb128 .LVU92
 3760 0243 01       		.uleb128 .LVU95
 3761 0244 00       		.uleb128 .LVU100
 3762              	.LLST10:
ARM GAS  /var/folders/l5/0x54b2c10074c8bt31ycjvl80000gp/T//cc53Qo2h.s 			page 67


 3763 0245 64000000 		.4byte	.LVL18
 3764 0249 70000000 		.4byte	.LVL20
 3765 024d 0500     		.2byte	0x5
 3766 024f 75       		.byte	0x75
 3767 0250 00       		.sleb128 0
 3768 0251 31       		.byte	0x31
 3769 0252 1A       		.byte	0x1a
 3770 0253 9F       		.byte	0x9f
 3771 0254 74000000 		.4byte	.LVL21
 3772 0258 90000000 		.4byte	.LVL23
 3773 025c 0500     		.2byte	0x5
 3774 025e 75       		.byte	0x75
 3775 025f 00       		.sleb128 0
 3776 0260 31       		.byte	0x31
 3777 0261 1A       		.byte	0x1a
 3778 0262 9F       		.byte	0x9f
 3779 0263 00000000 		.4byte	0
 3780 0267 00000000 		.4byte	0
 3781              	.LVUS5:
 3782 026b 00       		.uleb128 0
 3783 026c 00       		.uleb128 .LVU47
 3784 026d 00       		.uleb128 .LVU47
 3785 026e 00       		.uleb128 0
 3786              	.LLST5:
 3787 026f 00000000 		.4byte	.LVL9
 3788 0273 1C000000 		.4byte	.LVL10
 3789 0277 0100     		.2byte	0x1
 3790 0279 50       		.byte	0x50
 3791 027a 1C000000 		.4byte	.LVL10
 3792 027e 98000000 		.4byte	.LFE9
 3793 0282 0400     		.2byte	0x4
 3794 0284 F3       		.byte	0xf3
 3795 0285 01       		.uleb128 0x1
 3796 0286 50       		.byte	0x50
 3797 0287 9F       		.byte	0x9f
 3798 0288 00000000 		.4byte	0
 3799 028c 00000000 		.4byte	0
 3800              	.LVUS0:
 3801 0290 00       		.uleb128 0
 3802 0291 00       		.uleb128 .LVU6
 3803 0292 00       		.uleb128 .LVU6
 3804 0293 00       		.uleb128 0
 3805              	.LLST0:
 3806 0294 00000000 		.4byte	.LVL0
 3807 0298 14000000 		.4byte	.LVL1
 3808 029c 0100     		.2byte	0x1
 3809 029e 51       		.byte	0x51
 3810 029f 14000000 		.4byte	.LVL1
 3811 02a3 40000000 		.4byte	.LFE12
 3812 02a7 0100     		.2byte	0x1
 3813 02a9 55       		.byte	0x55
 3814 02aa 00000000 		.4byte	0
 3815 02ae 00000000 		.4byte	0
 3816              	.LVUS1:
 3817 02b2 03       		.uleb128 .LVU3
 3818 02b3 00       		.uleb128 .LVU6
 3819 02b4 00       		.uleb128 .LVU6
ARM GAS  /var/folders/l5/0x54b2c10074c8bt31ycjvl80000gp/T//cc53Qo2h.s 			page 68


 3820 02b5 00       		.uleb128 .LVU8
 3821 02b6 00       		.uleb128 .LVU8
 3822 02b7 00       		.uleb128 .LVU10
 3823 02b8 00       		.uleb128 .LVU10
 3824 02b9 00       		.uleb128 0
 3825              	.LLST1:
 3826 02ba 00000000 		.4byte	.LVL0
 3827 02be 14000000 		.4byte	.LVL1
 3828 02c2 0200     		.2byte	0x2
 3829 02c4 30       		.byte	0x30
 3830 02c5 9F       		.byte	0x9f
 3831 02c6 14000000 		.4byte	.LVL1
 3832 02ca 18000000 		.4byte	.LVL2
 3833 02ce 0100     		.2byte	0x1
 3834 02d0 54       		.byte	0x54
 3835 02d1 18000000 		.4byte	.LVL2
 3836 02d5 20000000 		.4byte	.LVL3
 3837 02d9 0300     		.2byte	0x3
 3838 02db 74       		.byte	0x74
 3839 02dc 7F       		.sleb128 -1
 3840 02dd 9F       		.byte	0x9f
 3841 02de 20000000 		.4byte	.LVL3
 3842 02e2 40000000 		.4byte	.LFE12
 3843 02e6 0100     		.2byte	0x1
 3844 02e8 54       		.byte	0x54
 3845 02e9 00000000 		.4byte	0
 3846 02ed 00000000 		.4byte	0
 3847              	.LVUS2:
 3848 02f1 00       		.uleb128 .LVU6
 3849 02f2 00       		.uleb128 .LVU10
 3850 02f3 01       		.uleb128 .LVU13
 3851 02f4 00       		.uleb128 0
 3852              	.LLST2:
 3853 02f5 14000000 		.4byte	.LVL1
 3854 02f9 20000000 		.4byte	.LVL3
 3855 02fd 0500     		.2byte	0x5
 3856 02ff 75       		.byte	0x75
 3857 0300 00       		.sleb128 0
 3858 0301 31       		.byte	0x31
 3859 0302 1A       		.byte	0x1a
 3860 0303 9F       		.byte	0x9f
 3861 0304 24000000 		.4byte	.LVL4
 3862 0308 40000000 		.4byte	.LFE12
 3863 030c 0500     		.2byte	0x5
 3864 030e 75       		.byte	0x75
 3865 030f 00       		.sleb128 0
 3866 0310 31       		.byte	0x31
 3867 0311 1A       		.byte	0x1a
 3868 0312 9F       		.byte	0x9f
 3869 0313 00000000 		.4byte	0
 3870 0317 00000000 		.4byte	0
 3871              	.LVUS3:
 3872 031b 00       		.uleb128 0
 3873 031c 00       		.uleb128 .LVU26
 3874 031d 00       		.uleb128 .LVU26
 3875 031e 00       		.uleb128 0
 3876              	.LLST3:
ARM GAS  /var/folders/l5/0x54b2c10074c8bt31ycjvl80000gp/T//cc53Qo2h.s 			page 69


 3877 031f 00000000 		.4byte	.LVL6
 3878 0323 1B000000 		.4byte	.LVL7-1
 3879 0327 0100     		.2byte	0x1
 3880 0329 51       		.byte	0x51
 3881 032a 1B000000 		.4byte	.LVL7-1
 3882 032e 44000000 		.4byte	.LFE13
 3883 0332 0100     		.2byte	0x1
 3884 0334 56       		.byte	0x56
 3885 0335 00000000 		.4byte	0
 3886 0339 00000000 		.4byte	0
 3887              	.LVUS4:
 3888 033d 00       		.uleb128 0
 3889 033e 00       		.uleb128 .LVU26
 3890 033f 00       		.uleb128 .LVU26
 3891 0340 00       		.uleb128 0
 3892              	.LLST4:
 3893 0341 00000000 		.4byte	.LVL6
 3894 0345 1B000000 		.4byte	.LVL7-1
 3895 0349 0100     		.2byte	0x1
 3896 034b 52       		.byte	0x52
 3897 034c 1B000000 		.4byte	.LVL7-1
 3898 0350 44000000 		.4byte	.LFE13
 3899 0354 0400     		.2byte	0x4
 3900 0356 F3       		.byte	0xf3
 3901 0357 01       		.uleb128 0x1
 3902 0358 52       		.byte	0x52
 3903 0359 9F       		.byte	0x9f
 3904 035a 00000000 		.4byte	0
 3905 035e 00000000 		.4byte	0
 3906              		.section	.debug_aranges,"",%progbits
 3907 0000 3C000000 		.4byte	0x3c
 3908 0004 0200     		.2byte	0x2
 3909 0006 00000000 		.4byte	.Ldebug_info0
 3910 000a 04       		.byte	0x4
 3911 000b 00       		.byte	0
 3912 000c 0000     		.2byte	0
 3913 000e 0000     		.2byte	0
 3914 0010 00000000 		.4byte	.LFB12
 3915 0014 40000000 		.4byte	.LFE12-.LFB12
 3916 0018 00000000 		.4byte	.LFB13
 3917 001c 44000000 		.4byte	.LFE13-.LFB13
 3918 0020 00000000 		.4byte	.LFB9
 3919 0024 98000000 		.4byte	.LFE9-.LFB9
 3920 0028 00000000 		.4byte	.LFB10
 3921 002c C8000000 		.4byte	.LFE10-.LFB10
 3922 0030 00000000 		.4byte	.LFB11
 3923 0034 1C000000 		.4byte	.LFE11-.LFB11
 3924 0038 00000000 		.4byte	0
 3925 003c 00000000 		.4byte	0
 3926              		.section	.debug_ranges,"",%progbits
 3927              	.Ldebug_ranges0:
 3928 0000 14000000 		.4byte	.LBB3
 3929 0004 14000000 		.4byte	.LBE3
 3930 0008 1C000000 		.4byte	.LBB4
 3931 000c 20000000 		.4byte	.LBE4
 3932 0010 24000000 		.4byte	.LBB5
 3933 0014 40000000 		.4byte	.LBE5
ARM GAS  /var/folders/l5/0x54b2c10074c8bt31ycjvl80000gp/T//cc53Qo2h.s 			page 70


 3934 0018 00000000 		.4byte	0
 3935 001c 00000000 		.4byte	0
 3936 0020 64000000 		.4byte	.LBB6
 3937 0024 64000000 		.4byte	.LBE6
 3938 0028 6C000000 		.4byte	.LBB7
 3939 002c 70000000 		.4byte	.LBE7
 3940 0030 74000000 		.4byte	.LBB8
 3941 0034 90000000 		.4byte	.LBE8
 3942 0038 00000000 		.4byte	0
 3943 003c 00000000 		.4byte	0
 3944 0040 00000000 		.4byte	.LFB12
 3945 0044 40000000 		.4byte	.LFE12
 3946 0048 00000000 		.4byte	.LFB13
 3947 004c 44000000 		.4byte	.LFE13
 3948 0050 00000000 		.4byte	.LFB9
 3949 0054 98000000 		.4byte	.LFE9
 3950 0058 00000000 		.4byte	.LFB10
 3951 005c C8000000 		.4byte	.LFE10
 3952 0060 00000000 		.4byte	.LFB11
 3953 0064 1C000000 		.4byte	.LFE11
 3954 0068 00000000 		.4byte	0
 3955 006c 00000000 		.4byte	0
 3956              		.section	.debug_line,"",%progbits
 3957              	.Ldebug_line0:
 3958 0000 6A040000 		.section	.debug_str,"MS",%progbits,1
 3958      03008502 
 3958      00000201 
 3958      FB0E0D00 
 3958      01010101 
 3959              	.LASF96:
 3960 0000 63665F6F 		.ascii	"cf_off_older\000"
 3960      66665F6F 
 3960      6C646572 
 3960      00
 3961              	.LASF42:
 3962 000d 705F6D73 		.ascii	"p_msg\000"
 3962      6700
 3963              	.LASF2:
 3964 0013 73697A65 		.ascii	"size_t\000"
 3964      5F7400
 3965              	.LASF81:
 3966 001a 7264796D 		.ascii	"rdymsg\000"
 3966      736700
 3967              	.LASF176:
 3968 0021 77726974 		.ascii	"write\000"
 3968      6500
 3969              	.LASF117:
 3970 0027 4F757470 		.ascii	"OutputQueue\000"
 3970      75745175 
 3970      65756500 
 3971              	.LASF3:
 3972 0033 5F5F7569 		.ascii	"__uint8_t\000"
 3972      6E74385F 
 3972      7400
 3973              	.LASF185:
 3974 003d 5350495F 		.ascii	"SPI_ACTIVE\000"
 3974      41435449 
ARM GAS  /var/folders/l5/0x54b2c10074c8bt31ycjvl80000gp/T//cc53Qo2h.s 			page 71


 3974      564500
 3975              	.LASF68:
 3976 0048 76746C69 		.ascii	"vtlist\000"
 3976      737400
 3977              	.LASF119:
 3978 004f 62736364 		.ascii	"bscdevice_t\000"
 3978      65766963 
 3978      655F7400 
 3979              	.LASF136:
 3980 005b 696F706F 		.ascii	"ioportmask_t\000"
 3980      72746D61 
 3980      736B5F74 
 3980      00
 3981              	.LASF110:
 3982 0068 715F746F 		.ascii	"q_top\000"
 3982      7000
 3983              	.LASF13:
 3984 006e 6C6F6E67 		.ascii	"long long unsigned int\000"
 3984      206C6F6E 
 3984      6720756E 
 3984      7369676E 
 3984      65642069 
 3985              	.LASF92:
 3986 0085 63685F74 		.ascii	"ch_threadsize\000"
 3986      68726561 
 3986      6473697A 
 3986      6500
 3987              	.LASF82:
 3988 0093 65786974 		.ascii	"exitcode\000"
 3988      636F6465 
 3988      00
 3989              	.LASF188:
 3990 009c 53504944 		.ascii	"SPIDriver\000"
 3990      72697665 
 3990      7200
 3991              	.LASF159:
 3992 00a6 72786275 		.ascii	"rxbuf\000"
 3992      6600
 3993              	.LASF124:
 3994 00ac 64617461 		.ascii	"dataFifo\000"
 3994      4669666F 
 3994      00
 3995              	.LASF30:
 3996 00b5 705F7072 		.ascii	"p_prio\000"
 3996      696F00
 3997              	.LASF99:
 3998 00bc 63665F6F 		.ascii	"cf_off_state\000"
 3998      66665F73 
 3998      74617465 
 3998      00
 3999              	.LASF171:
 4000 00c9 53657269 		.ascii	"SerialDriver\000"
 4000      616C4472 
 4000      69766572 
 4000      00
 4001              	.LASF152:
 4002 00d6 64657669 		.ascii	"device\000"
ARM GAS  /var/folders/l5/0x54b2c10074c8bt31ycjvl80000gp/T//cc53Qo2h.s 			page 72


 4002      636500
 4003              	.LASF107:
 4004 00dd 715F7761 		.ascii	"q_waiting\000"
 4004      6974696E 
 4004      6700
 4005              	.LASF12:
 4006 00e7 6C6F6E67 		.ascii	"long long int\000"
 4006      206C6F6E 
 4006      6720696E 
 4006      7400
 4007              	.LASF1:
 4008 00f5 7369676E 		.ascii	"signed char\000"
 4008      65642063 
 4008      68617200 
 4009              	.LASF98:
 4010 0101 63665F6F 		.ascii	"cf_off_stklimit\000"
 4010      66665F73 
 4010      746B6C69 
 4010      6D697400 
 4011              	.LASF183:
 4012 0111 5350495F 		.ascii	"SPI_STOP\000"
 4012      53544F50 
 4012      00
 4013              	.LASF100:
 4014 011a 63665F6F 		.ascii	"cf_off_flags\000"
 4014      66665F66 
 4014      6C616773 
 4014      00
 4015              	.LASF168:
 4016 0127 53445F53 		.ascii	"SD_STOP\000"
 4016      544F5000 
 4017              	.LASF71:
 4018 012f 6D5F7175 		.ascii	"m_queue\000"
 4018      65756500 
 4019              	.LASF155:
 4020 0137 61646472 		.ascii	"addr\000"
 4020      00
 4021              	.LASF208:
 4022 013c 5F70616C 		.ascii	"_pal_lld_init\000"
 4022      5F6C6C64 
 4022      5F696E69 
 4022      7400
 4023              	.LASF21:
 4024 014a 74736C69 		.ascii	"tslices_t\000"
 4024      6365735F 
 4024      7400
 4025              	.LASF141:
 4026 0154 4932435F 		.ascii	"I2C_UNINIT\000"
 4026      554E494E 
 4026      495400
 4027              	.LASF163:
 4028 015f 69326361 		.ascii	"i2caddr_t\000"
 4028      6464725F 
 4028      7400
 4029              	.LASF149:
 4030 0169 73746174 		.ascii	"state\000"
 4030      6500
ARM GAS  /var/folders/l5/0x54b2c10074c8bt31ycjvl80000gp/T//cc53Qo2h.s 			page 73


 4031              	.LASF203:
 4032 016f 62697473 		.ascii	"bits\000"
 4032      00
 4033              	.LASF9:
 4034 0174 6C6F6E67 		.ascii	"long int\000"
 4034      20696E74 
 4034      00
 4035              	.LASF19:
 4036 017d 74737461 		.ascii	"tstate_t\000"
 4036      74655F74 
 4036      00
 4037              	.LASF154:
 4038 0186 74687265 		.ascii	"thread\000"
 4038      616400
 4039              	.LASF126:
 4040 018d 64617461 		.ascii	"dataDelay\000"
 4040      44656C61 
 4040      7900
 4041              	.LASF161:
 4042 0197 72786964 		.ascii	"rxidx\000"
 4042      7800
 4043              	.LASF109:
 4044 019d 715F6275 		.ascii	"q_buffer\000"
 4044      66666572 
 4044      00
 4045              	.LASF15:
 4046 01a6 75696E74 		.ascii	"uint16_t\000"
 4046      31365F74 
 4046      00
 4047              	.LASF201:
 4048 01af 53504930 		.ascii	"SPI0\000"
 4048      00
 4049              	.LASF104:
 4050 01b4 63686465 		.ascii	"chdebug_t\000"
 4050      6275675F 
 4050      7400
 4051              	.LASF144:
 4052 01be 4932435F 		.ascii	"I2C_ACTIVE_TX\000"
 4052      41435449 
 4052      56455F54 
 4052      5800
 4053              	.LASF198:
 4054 01cc 636C6F63 		.ascii	"clock_phase\000"
 4054      6B5F7068 
 4054      61736500 
 4055              	.LASF32:
 4056 01d8 705F6E65 		.ascii	"p_newer\000"
 4056      77657200 
 4057              	.LASF118:
 4058 01e0 5F69646C 		.ascii	"_idle_thread_wa\000"
 4058      655F7468 
 4058      72656164 
 4058      5F776100 
 4059              	.LASF191:
 4060 01f0 656E645F 		.ascii	"end_cb\000"
 4060      636200
 4061              	.LASF189:
ARM GAS  /var/folders/l5/0x54b2c10074c8bt31ycjvl80000gp/T//cc53Qo2h.s 			page 74


 4062 01f7 7478636E 		.ascii	"txcnt\000"
 4062      7400
 4063              	.LASF195:
 4064 01fd 63686970 		.ascii	"chip_select_polarity0\000"
 4064      5F73656C 
 4064      6563745F 
 4064      706F6C61 
 4064      72697479 
 4065              	.LASF196:
 4066 0213 63686970 		.ascii	"chip_select_polarity1\000"
 4066      5F73656C 
 4066      6563745F 
 4066      706F6C61 
 4066      72697479 
 4067              	.LASF120:
 4068 0229 636F6E74 		.ascii	"control\000"
 4068      726F6C00 
 4069              	.LASF10:
 4070 0231 5F5F7569 		.ascii	"__uint32_t\000"
 4070      6E743332 
 4070      5F7400
 4071              	.LASF206:
 4072 023c 6D61736B 		.ascii	"mask\000"
 4072      00
 4073              	.LASF49:
 4074 0241 72656761 		.ascii	"regarm_t\000"
 4074      726D5F74 
 4074      00
 4075              	.LASF55:
 4076 024a 76745F70 		.ascii	"vt_prev\000"
 4076      72657600 
 4077              	.LASF123:
 4078 0252 736C6176 		.ascii	"slaveAddress\000"
 4078      65416464 
 4078      72657373 
 4078      00
 4079              	.LASF190:
 4080 025f 73706963 		.ascii	"spicallback_t\000"
 4080      616C6C62 
 4080      61636B5F 
 4080      7400
 4081              	.LASF166:
 4082 026d 49324330 		.ascii	"I2C0\000"
 4082      00
 4083              	.LASF202:
 4084 0272 706F7274 		.ascii	"port\000"
 4084      00
 4085              	.LASF79:
 4086 0277 4576656E 		.ascii	"EventSource\000"
 4086      74536F75 
 4086      72636500 
 4087              	.LASF207:
 4088 0283 6D6F6465 		.ascii	"mode\000"
 4088      00
 4089              	.LASF0:
 4090 0288 756E7369 		.ascii	"unsigned int\000"
 4090      676E6564 
ARM GAS  /var/folders/l5/0x54b2c10074c8bt31ycjvl80000gp/T//cc53Qo2h.s 			page 75


 4090      20696E74 
 4090      00
 4091              	.LASF54:
 4092 0295 76745F6E 		.ascii	"vt_next\000"
 4092      65787400 
 4093              	.LASF156:
 4094 029d 74786275 		.ascii	"txbuf\000"
 4094      6600
 4095              	.LASF175:
 4096 02a3 53657269 		.ascii	"SerialDriverVMT\000"
 4096      616C4472 
 4096      69766572 
 4096      564D5400 
 4097              	.LASF151:
 4098 02b3 6572726F 		.ascii	"errors\000"
 4098      727300
 4099              	.LASF173:
 4100 02ba 69717565 		.ascii	"iqueue\000"
 4100      756500
 4101              	.LASF11:
 4102 02c1 6C6F6E67 		.ascii	"long unsigned int\000"
 4102      20756E73 
 4102      69676E65 
 4102      6420696E 
 4102      7400
 4103              	.LASF105:
 4104 02d3 63685F64 		.ascii	"ch_debug\000"
 4104      65627567 
 4104      00
 4105              	.LASF179:
 4106 02dc 67657474 		.ascii	"gett\000"
 4106      00
 4107              	.LASF52:
 4108 02e1 76746675 		.ascii	"vtfunc_t\000"
 4108      6E635F74 
 4108      00
 4109              	.LASF86:
 4110 02ea 63685F69 		.ascii	"ch_identifier\000"
 4110      64656E74 
 4110      69666965 
 4110      7200
 4111              	.LASF194:
 4112 02f8 63686970 		.ascii	"chip_select_polarity\000"
 4112      5F73656C 
 4112      6563745F 
 4112      706F6C61 
 4112      72697479 
 4113              	.LASF172:
 4114 030d 6576656E 		.ascii	"event\000"
 4114      7400
 4115              	.LASF51:
 4116 0313 636F6E74 		.ascii	"context\000"
 4116      65787400 
 4117              	.LASF7:
 4118 031b 73686F72 		.ascii	"short unsigned int\000"
 4118      7420756E 
 4118      7369676E 
ARM GAS  /var/folders/l5/0x54b2c10074c8bt31ycjvl80000gp/T//cc53Qo2h.s 			page 76


 4118      65642069 
 4118      6E7400
 4119              	.LASF134:
 4120 032e 6770696F 		.ascii	"gpio_port_t\000"
 4120      5F706F72 
 4120      745F7400 
 4121              	.LASF130:
 4122 033a 6770636C 		.ascii	"gpclr\000"
 4122      7200
 4123              	.LASF23:
 4124 0340 6D73675F 		.ascii	"msg_t\000"
 4124      7400
 4125              	.LASF174:
 4126 0346 6F717565 		.ascii	"oqueue\000"
 4126      756500
 4127              	.LASF64:
 4128 034d 725F6E65 		.ascii	"r_newer\000"
 4128      77657200 
 4129              	.LASF75:
 4130 0355 656C5F6E 		.ascii	"el_next\000"
 4130      65787400 
 4131              	.LASF214:
 4132 035d 474E5520 		.ascii	"GNU C17 8.3.1 20190703 (release) [gcc-8-branch revi"
 4132      43313720 
 4132      382E332E 
 4132      31203230 
 4132      31393037 
 4133 0390 73696F6E 		.ascii	"sion 273027] -mcpu=arm1176jz-s -mno-thumb-interwork"
 4133      20323733 
 4133      3032375D 
 4133      202D6D63 
 4133      70753D61 
 4134 03c3 202D6D66 		.ascii	" -mfloat-abi=soft -marm -march=armv6kz -ggdb -O2 -f"
 4134      6C6F6174 
 4134      2D616269 
 4134      3D736F66 
 4134      74202D6D 
 4135 03f6 6F6D6974 		.ascii	"omit-frame-pointer -ffunction-sections -fdata-secti"
 4135      2D667261 
 4135      6D652D70 
 4135      6F696E74 
 4135      6572202D 
 4136 0429 6F6E7300 		.ascii	"ons\000"
 4137              	.LASF213:
 4138 042d 62636D32 		.ascii	"bcm2835_delay\000"
 4138      3833355F 
 4138      64656C61 
 4138      7900
 4139              	.LASF180:
 4140 043b 77726974 		.ascii	"writet\000"
 4140      657400
 4141              	.LASF18:
 4142 0442 746D6F64 		.ascii	"tmode_t\000"
 4142      655F7400 
 4143              	.LASF204:
 4144 044a 5F70616C 		.ascii	"_pal_lld_writeport\000"
 4144      5F6C6C64 
ARM GAS  /var/folders/l5/0x54b2c10074c8bt31ycjvl80000gp/T//cc53Qo2h.s 			page 77


 4144      5F777269 
 4144      7465706F 
 4144      727400
 4145              	.LASF47:
 4146 045d 54687265 		.ascii	"ThreadsList\000"
 4146      6164734C 
 4146      69737400 
 4147              	.LASF24:
 4148 0469 6576656E 		.ascii	"eventmask_t\000"
 4148      746D6173 
 4148      6B5F7400 
 4149              	.LASF116:
 4150 0475 496E7075 		.ascii	"InputQueue\000"
 4150      74517565 
 4150      756500
 4151              	.LASF70:
 4152 0480 4D757465 		.ascii	"Mutex\000"
 4152      7800
 4153              	.LASF106:
 4154 0486 47656E65 		.ascii	"GenericQueue\000"
 4154      72696351 
 4154      75657565 
 4154      00
 4155              	.LASF48:
 4156 0493 73746B61 		.ascii	"stkalign_t\000"
 4156      6C69676E 
 4156      5F7400
 4157              	.LASF87:
 4158 049e 63685F7A 		.ascii	"ch_zero\000"
 4158      65726F00 
 4159              	.LASF101:
 4160 04a6 63665F6F 		.ascii	"cf_off_refs\000"
 4160      66665F72 
 4160      65667300 
 4161              	.LASF131:
 4162 04b2 67706C65 		.ascii	"gplev\000"
 4162      7600
 4163              	.LASF178:
 4164 04b8 70757474 		.ascii	"putt\000"
 4164      00
 4165              	.LASF56:
 4166 04bd 76745F74 		.ascii	"vt_time\000"
 4166      696D6500 
 4167              	.LASF142:
 4168 04c5 4932435F 		.ascii	"I2C_STOP\000"
 4168      53544F50 
 4168      00
 4169              	.LASF125:
 4170 04ce 636C6F63 		.ascii	"clockDivider\000"
 4170      6B446976 
 4170      69646572 
 4170      00
 4171              	.LASF108:
 4172 04db 715F636F 		.ascii	"q_counter\000"
 4172      756E7465 
 4172      7200
 4173              	.LASF57:
ARM GAS  /var/folders/l5/0x54b2c10074c8bt31ycjvl80000gp/T//cc53Qo2h.s 			page 78


 4174 04e5 76745F66 		.ascii	"vt_func\000"
 4174      756E6300 
 4175              	.LASF91:
 4176 04ed 63685F74 		.ascii	"ch_timesize\000"
 4176      696D6573 
 4176      697A6500 
 4177              	.LASF164:
 4178 04f9 69635F73 		.ascii	"ic_speed\000"
 4178      70656564 
 4178      00
 4179              	.LASF97:
 4180 0502 63665F6F 		.ascii	"cf_off_name\000"
 4180      66665F6E 
 4180      616D6500 
 4181              	.LASF33:
 4182 050e 705F6F6C 		.ascii	"p_older\000"
 4182      64657200 
 4183              	.LASF160:
 4184 0516 72786279 		.ascii	"rxbytes\000"
 4184      74657300 
 4185              	.LASF111:
 4186 051e 715F7772 		.ascii	"q_wrptr\000"
 4186      70747200 
 4187              	.LASF63:
 4188 0526 725F6374 		.ascii	"r_ctx\000"
 4188      7800
 4189              	.LASF46:
 4190 052c 54687265 		.ascii	"ThreadsQueue\000"
 4190      61647351 
 4190      75657565 
 4190      00
 4191              	.LASF216:
 4192 0539 2F557365 		.ascii	"/Users/fernandoguirado/Desktop/Chibi/ChibiOS-RPi/de"
 4192      72732F66 
 4192      65726E61 
 4192      6E646F67 
 4192      75697261 
 4193 056c 6D6F732F 		.ascii	"mos/Serial_LCD\000"
 4193      53657269 
 4193      616C5F4C 
 4193      434400
 4194              	.LASF88:
 4195 057b 63685F73 		.ascii	"ch_size\000"
 4195      697A6500 
 4196              	.LASF138:
 4197 0583 494F504F 		.ascii	"IOPORT0\000"
 4197      52543000 
 4198              	.LASF66:
 4199 058b 725F6375 		.ascii	"r_current\000"
 4199      7272656E 
 4199      7400
 4200              	.LASF65:
 4201 0595 725F6F6C 		.ascii	"r_older\000"
 4201      64657200 
 4202              	.LASF77:
 4203 059d 656C5F6D 		.ascii	"el_mask\000"
 4203      61736B00 
ARM GAS  /var/folders/l5/0x54b2c10074c8bt31ycjvl80000gp/T//cc53Qo2h.s 			page 79


 4204              	.LASF129:
 4205 05a5 67707365 		.ascii	"gpset\000"
 4205      7400
 4206              	.LASF132:
 4207 05ab 67707075 		.ascii	"gppudclk\000"
 4207      64636C6B 
 4207      00
 4208              	.LASF192:
 4209 05b4 6C6F7373 		.ascii	"lossiEnabled\000"
 4209      69456E61 
 4209      626C6564 
 4209      00
 4210              	.LASF212:
 4211 05c1 62636D32 		.ascii	"bcm2835_gpio_fnsel\000"
 4211      3833355F 
 4211      6770696F 
 4211      5F666E73 
 4211      656C00
 4212              	.LASF193:
 4213 05d4 63686970 		.ascii	"chip_select\000"
 4213      5F73656C 
 4213      65637400 
 4214              	.LASF20:
 4215 05e0 74726566 		.ascii	"trefs_t\000"
 4215      735F7400 
 4216              	.LASF147:
 4217 05e8 69326373 		.ascii	"i2cstate_t\000"
 4217      74617465 
 4217      5F7400
 4218              	.LASF90:
 4219 05f3 63685F70 		.ascii	"ch_ptrsize\000"
 4219      74727369 
 4219      7A6500
 4220              	.LASF115:
 4221 05fe 716E6F74 		.ascii	"qnotify_t\000"
 4221      6966795F 
 4221      7400
 4222              	.LASF29:
 4223 0608 705F7072 		.ascii	"p_prev\000"
 4223      657600
 4224              	.LASF22:
 4225 060f 74707269 		.ascii	"tprio_t\000"
 4225      6F5F7400 
 4226              	.LASF112:
 4227 0617 715F7264 		.ascii	"q_rdptr\000"
 4227      70747200 
 4228              	.LASF162:
 4229 061f 69326366 		.ascii	"i2cflags_t\000"
 4229      6C616773 
 4229      5F7400
 4230              	.LASF153:
 4231 062a 6D757465 		.ascii	"mutex\000"
 4231      7800
 4232              	.LASF16:
 4233 0630 696E7433 		.ascii	"int32_t\000"
 4233      325F7400 
 4234              	.LASF4:
ARM GAS  /var/folders/l5/0x54b2c10074c8bt31ycjvl80000gp/T//cc53Qo2h.s 			page 80


 4235 0638 756E7369 		.ascii	"unsigned char\000"
 4235      676E6564 
 4235      20636861 
 4235      7200
 4236              	.LASF76:
 4237 0646 656C5F6C 		.ascii	"el_listener\000"
 4237      69737465 
 4237      6E657200 
 4238              	.LASF78:
 4239 0652 656C5F66 		.ascii	"el_flags\000"
 4239      6C616773 
 4239      00
 4240              	.LASF44:
 4241 065b 705F6D74 		.ascii	"p_mtxlist\000"
 4241      786C6973 
 4241      7400
 4242              	.LASF5:
 4243 0665 73686F72 		.ascii	"short int\000"
 4243      7420696E 
 4243      7400
 4244              	.LASF35:
 4245 066f 705F7374 		.ascii	"p_state\000"
 4245      61746500 
 4246              	.LASF38:
 4247 0677 705F7072 		.ascii	"p_preempt\000"
 4247      65656D70 
 4247      7400
 4248              	.LASF103:
 4249 0681 63665F6F 		.ascii	"cf_off_time\000"
 4249      66665F74 
 4249      696D6500 
 4250              	.LASF62:
 4251 068d 725F7072 		.ascii	"r_prio\000"
 4251      696F00
 4252              	.LASF133:
 4253 0694 70696E5F 		.ascii	"pin_base\000"
 4253      62617365 
 4253      00
 4254              	.LASF84:
 4255 069d 65776D61 		.ascii	"ewmask\000"
 4255      736B00
 4256              	.LASF28:
 4257 06a4 705F6E65 		.ascii	"p_next\000"
 4257      787400
 4258              	.LASF139:
 4259 06ab 494F504F 		.ascii	"IOPORT1\000"
 4259      52543100 
 4260              	.LASF102:
 4261 06b3 63665F6F 		.ascii	"cf_off_preempt\000"
 4261      66665F70 
 4261      7265656D 
 4261      707400
 4262              	.LASF36:
 4263 06c2 705F666C 		.ascii	"p_flags\000"
 4263      61677300 
 4264              	.LASF27:
 4265 06ca 54687265 		.ascii	"Thread\000"
ARM GAS  /var/folders/l5/0x54b2c10074c8bt31ycjvl80000gp/T//cc53Qo2h.s 			page 81


 4265      616400
 4266              	.LASF199:
 4267 06d1 636C6F63 		.ascii	"clock_divider\000"
 4267      6B5F6469 
 4267      76696465 
 4267      7200
 4268              	.LASF95:
 4269 06df 63665F6F 		.ascii	"cf_off_newer\000"
 4269      66665F6E 
 4269      65776572 
 4269      00
 4270              	.LASF146:
 4271 06ec 4932435F 		.ascii	"I2C_LOCKED\000"
 4271      4C4F434B 
 4271      454400
 4272              	.LASF43:
 4273 06f7 705F6570 		.ascii	"p_epending\000"
 4273      656E6469 
 4273      6E6700
 4274              	.LASF167:
 4275 0702 53445F55 		.ascii	"SD_UNINIT\000"
 4275      4E494E49 
 4275      5400
 4276              	.LASF17:
 4277 070c 75696E74 		.ascii	"uint32_t\000"
 4277      33325F74 
 4277      00
 4278              	.LASF93:
 4279 0715 63665F6F 		.ascii	"cf_off_prio\000"
 4279      66665F70 
 4279      72696F00 
 4280              	.LASF61:
 4281 0721 725F7175 		.ascii	"r_queue\000"
 4281      65756500 
 4282              	.LASF53:
 4283 0729 56697274 		.ascii	"VirtualTimer\000"
 4283      75616C54 
 4283      696D6572 
 4283      00
 4284              	.LASF215:
 4285 0736 2E2E2F2E 		.ascii	"../../os/hal/platforms/BCM2835/pal_lld.c\000"
 4285      2E2F6F73 
 4285      2F68616C 
 4285      2F706C61 
 4285      74666F72 
 4286              	.LASF145:
 4287 075f 4932435F 		.ascii	"I2C_ACTIVE_RX\000"
 4287      41435449 
 4287      56455F52 
 4287      5800
 4288              	.LASF177:
 4289 076d 72656164 		.ascii	"read\000"
 4289      00
 4290              	.LASF85:
 4291 0772 63686172 		.ascii	"char\000"
 4291      00
 4292              	.LASF186:
ARM GAS  /var/folders/l5/0x54b2c10074c8bt31ycjvl80000gp/T//cc53Qo2h.s 			page 82


 4293 0777 5350495F 		.ascii	"SPI_COMPLETE\000"
 4293      434F4D50 
 4293      4C455445 
 4293      00
 4294              	.LASF150:
 4295 0784 636F6E66 		.ascii	"config\000"
 4295      696700
 4296              	.LASF6:
 4297 078b 5F5F7569 		.ascii	"__uint16_t\000"
 4297      6E743136 
 4297      5F7400
 4298              	.LASF187:
 4299 0796 73706973 		.ascii	"spistate_t\000"
 4299      74617465 
 4299      5F7400
 4300              	.LASF73:
 4301 07a1 6D5F6E65 		.ascii	"m_next\000"
 4301      787400
 4302              	.LASF26:
 4303 07a8 73797374 		.ascii	"systime_t\000"
 4303      696D655F 
 4303      7400
 4304              	.LASF45:
 4305 07b2 705F7265 		.ascii	"p_realprio\000"
 4305      616C7072 
 4305      696F00
 4306              	.LASF8:
 4307 07bd 5F5F696E 		.ascii	"__int32_t\000"
 4307      7433325F 
 4307      7400
 4308              	.LASF143:
 4309 07c7 4932435F 		.ascii	"I2C_READY\000"
 4309      52454144 
 4309      5900
 4310              	.LASF148:
 4311 07d1 49324344 		.ascii	"I2CDriver\000"
 4311      72697665 
 4311      7200
 4312              	.LASF137:
 4313 07db 696F706F 		.ascii	"ioportid_t\000"
 4313      72746964 
 4313      5F7400
 4314              	.LASF39:
 4315 07e6 705F7469 		.ascii	"p_time\000"
 4315      6D6500
 4316              	.LASF197:
 4317 07ed 636C6F63 		.ascii	"clock_polarity\000"
 4317      6B5F706F 
 4317      6C617269 
 4317      747900
 4318              	.LASF205:
 4319 07fc 5F70616C 		.ascii	"_pal_lld_setgroupmode\000"
 4319      5F6C6C64 
 4319      5F736574 
 4319      67726F75 
 4319      706D6F64 
 4320              	.LASF50:
ARM GAS  /var/folders/l5/0x54b2c10074c8bt31ycjvl80000gp/T//cc53Qo2h.s 			page 83


 4321 0812 696E7463 		.ascii	"intctx\000"
 4321      747800
 4322              	.LASF41:
 4323 0819 705F6D73 		.ascii	"p_msgqueue\000"
 4323      67717565 
 4323      756500
 4324              	.LASF169:
 4325 0824 53445F52 		.ascii	"SD_READY\000"
 4325      45414459 
 4325      00
 4326              	.LASF184:
 4327 082d 5350495F 		.ascii	"SPI_READY\000"
 4327      52454144 
 4327      5900
 4328              	.LASF182:
 4329 0837 5350495F 		.ascii	"SPI_UNINIT\000"
 4329      554E494E 
 4329      495400
 4330              	.LASF58:
 4331 0842 76745F70 		.ascii	"vt_par\000"
 4331      617200
 4332              	.LASF25:
 4333 0849 666C6167 		.ascii	"flagsmask_t\000"
 4333      736D6173 
 4333      6B5F7400 
 4334              	.LASF165:
 4335 0855 49324343 		.ascii	"I2CConfig\000"
 4335      6F6E6669 
 4335      6700
 4336              	.LASF170:
 4337 085f 73647374 		.ascii	"sdstate_t\000"
 4337      6174655F 
 4337      7400
 4338              	.LASF158:
 4339 0869 74786964 		.ascii	"txidx\000"
 4339      7800
 4340              	.LASF94:
 4341 086f 63665F6F 		.ascii	"cf_off_ctx\000"
 4341      66665F63 
 4341      747800
 4342              	.LASF37:
 4343 087a 705F7265 		.ascii	"p_refs\000"
 4343      667300
 4344              	.LASF121:
 4345 0881 73746174 		.ascii	"status\000"
 4345      757300
 4346              	.LASF67:
 4347 0888 52656164 		.ascii	"ReadyList\000"
 4347      794C6973 
 4347      7400
 4348              	.LASF113:
 4349 0892 715F6E6F 		.ascii	"q_notify\000"
 4349      74696679 
 4349      00
 4350              	.LASF69:
 4351 089b 726C6973 		.ascii	"rlist\000"
 4351      7400
ARM GAS  /var/folders/l5/0x54b2c10074c8bt31ycjvl80000gp/T//cc53Qo2h.s 			page 84


 4352              	.LASF210:
 4353 08a1 7365745F 		.ascii	"set_gpio_pud\000"
 4353      6770696F 
 4353      5F707564 
 4353      00
 4354              	.LASF14:
 4355 08ae 75696E74 		.ascii	"uint8_t\000"
 4355      385F7400 
 4356              	.LASF209:
 4357 08b6 7365745F 		.ascii	"set_gpio_in\000"
 4357      6770696F 
 4357      5F696E00 
 4358              	.LASF181:
 4359 08c2 72656164 		.ascii	"readt\000"
 4359      7400
 4360              	.LASF128:
 4361 08c8 6C617463 		.ascii	"latch\000"
 4361      6800
 4362              	.LASF74:
 4363 08ce 4576656E 		.ascii	"EventListener\000"
 4363      744C6973 
 4363      74656E65 
 4363      7200
 4364              	.LASF83:
 4365 08dc 77746F62 		.ascii	"wtobjp\000"
 4365      6A7000
 4366              	.LASF34:
 4367 08e3 705F6E61 		.ascii	"p_name\000"
 4367      6D6500
 4368              	.LASF211:
 4369 08ea 7075645F 		.ascii	"pud_mode\000"
 4369      6D6F6465 
 4369      00
 4370              	.LASF59:
 4371 08f3 76745F73 		.ascii	"vt_systime\000"
 4371      79737469 
 4371      6D6500
 4372              	.LASF80:
 4373 08fe 65735F6E 		.ascii	"es_next\000"
 4373      65787400 
 4374              	.LASF200:
 4375 0906 53504943 		.ascii	"SPIConfig\000"
 4375      6F6E6669 
 4375      6700
 4376              	.LASF89:
 4377 0910 63685F76 		.ascii	"ch_version\000"
 4377      65727369 
 4377      6F6E00
 4378              	.LASF122:
 4379 091b 64617461 		.ascii	"dataLength\000"
 4379      4C656E67 
 4379      746800
 4380              	.LASF60:
 4381 0926 56544C69 		.ascii	"VTList\000"
 4381      737400
 4382              	.LASF114:
 4383 092d 715F6C69 		.ascii	"q_link\000"
ARM GAS  /var/folders/l5/0x54b2c10074c8bt31ycjvl80000gp/T//cc53Qo2h.s 			page 85


 4383      6E6B00
 4384              	.LASF135:
 4385 0934 50414C43 		.ascii	"PALConfig\000"
 4385      6F6E6669 
 4385      6700
 4386              	.LASF72:
 4387 093e 6D5F6F77 		.ascii	"m_owner\000"
 4387      6E657200 
 4388              	.LASF140:
 4389 0946 70616C5F 		.ascii	"pal_default_config\000"
 4389      64656661 
 4389      756C745F 
 4389      636F6E66 
 4389      696700
 4390              	.LASF31:
 4391 0959 705F6374 		.ascii	"p_ctx\000"
 4391      7800
 4392              	.LASF40:
 4393 095f 705F7761 		.ascii	"p_waiting\000"
 4393      6974696E 
 4393      6700
 4394              	.LASF157:
 4395 0969 74786279 		.ascii	"txbytes\000"
 4395      74657300 
 4396              	.LASF127:
 4397 0971 636C6F63 		.ascii	"clockStretchTimeout\000"
 4397      6B537472 
 4397      65746368 
 4397      54696D65 
 4397      6F757400 
 4398              		.ident	"GCC: (GNU Tools for Arm Embedded Processors 8-2019-q3-update) 8.3.1 20190703 (release) [gc
ARM GAS  /var/folders/l5/0x54b2c10074c8bt31ycjvl80000gp/T//cc53Qo2h.s 			page 86


DEFINED SYMBOLS
                            *ABS*:0000000000000000 pal_lld.c
/var/folders/l5/0x54b2c10074c8bt31ycjvl80000gp/T//cc53Qo2h.s:16     .text.set_gpio_in.isra.0:0000000000000000 $a
/var/folders/l5/0x54b2c10074c8bt31ycjvl80000gp/T//cc53Qo2h.s:22     .text.set_gpio_in.isra.0:0000000000000000 set_gpio_in.isra.0
/var/folders/l5/0x54b2c10074c8bt31ycjvl80000gp/T//cc53Qo2h.s:85     .text.set_gpio_pud.isra.1:0000000000000000 $a
/var/folders/l5/0x54b2c10074c8bt31ycjvl80000gp/T//cc53Qo2h.s:90     .text.set_gpio_pud.isra.1:0000000000000000 set_gpio_pud.isra.1
/var/folders/l5/0x54b2c10074c8bt31ycjvl80000gp/T//cc53Qo2h.s:142    .text.set_gpio_pud.isra.1:0000000000000040 $d
/var/folders/l5/0x54b2c10074c8bt31ycjvl80000gp/T//cc53Qo2h.s:147    .text._pal_lld_init:0000000000000000 $a
/var/folders/l5/0x54b2c10074c8bt31ycjvl80000gp/T//cc53Qo2h.s:153    .text._pal_lld_init:0000000000000000 _pal_lld_init
/var/folders/l5/0x54b2c10074c8bt31ycjvl80000gp/T//cc53Qo2h.s:236    .text._pal_lld_init:0000000000000070 $d
                            *COM*:0000000000000018 IOPORT0
                            *COM*:0000000000000018 IOPORT1
/var/folders/l5/0x54b2c10074c8bt31ycjvl80000gp/T//cc53Qo2h.s:250    .text._pal_lld_setgroupmode:0000000000000000 $a
/var/folders/l5/0x54b2c10074c8bt31ycjvl80000gp/T//cc53Qo2h.s:256    .text._pal_lld_setgroupmode:0000000000000000 _pal_lld_setgroupmode
/var/folders/l5/0x54b2c10074c8bt31ycjvl80000gp/T//cc53Qo2h.s:407    .text._pal_lld_writeport:0000000000000000 $a
/var/folders/l5/0x54b2c10074c8bt31ycjvl80000gp/T//cc53Qo2h.s:413    .text._pal_lld_writeport:0000000000000000 _pal_lld_writeport

UNDEFINED SYMBOLS
bcm2835_gpio_fnsel
bcm2835_delay
