ARM GAS  /var/folders/l5/0x54b2c10074c8bt31ycjvl80000gp/T//cclkDCON.s 			page 1


   1              		.cpu arm1176jz-s
   2              		.eabi_attribute 20, 1
   3              		.eabi_attribute 21, 1
   4              		.eabi_attribute 23, 3
   5              		.eabi_attribute 24, 1
   6              		.eabi_attribute 25, 1
   7              		.eabi_attribute 26, 1
   8              		.eabi_attribute 30, 2
   9              		.eabi_attribute 34, 1
  10              		.eabi_attribute 18, 4
  11              		.file	"testbmk.c"
  12              		.text
  13              	.Ltext0:
  14              		.cfi_sections	.debug_frame
  15              		.section	.text.thread2,"ax",%progbits
  16              		.align	2
  17              		.arch armv6kz
  18              		.syntax unified
  19              		.arm
  20              		.fpu softvfp
  21              		.type	thread2, %function
  22              	thread2:
  23              	.LVL0:
  24              	.LFB11:
  25              		.file 1 "../../test/testbmk.c"
  26              		.loc 1 158 31 view -0
  27              		.cfi_startproc
  28              		@ args = 0, pretend = 0, frame = 0
  29              		@ frame_needed = 0, uses_anonymous_args = 0
  30              		@ link register save eliminated.
  31              		.loc 1 160 3 view .LVU1
  32              		.loc 1 161 1 is_stmt 0 view .LVU2
  33 0000 1EFF2FE1 		bx	lr
  34              		.cfi_endproc
  35              	.LFE11:
  36              		.size	thread2, .-thread2
  37              		.section	.text.tmo,"ax",%progbits
  38              		.align	2
  39              		.syntax unified
  40              		.arm
  41              		.fpu softvfp
  42              		.type	tmo, %function
  43              	tmo:
  44              	.LVL1:
  45              	.LFB23:
  46              		.loc 1 504 30 is_stmt 1 view -0
  47              		.cfi_startproc
  48              		@ args = 0, pretend = 0, frame = 0
  49              		@ frame_needed = 0, uses_anonymous_args = 0
  50              		@ link register save eliminated.
  51              		.loc 1 504 31 view .LVU4
  52              		.loc 1 504 1 is_stmt 0 view .LVU5
  53 0000 1EFF2FE1 		bx	lr
  54              		.cfi_endproc
  55              	.LFE23:
  56              		.size	tmo, .-tmo
  57              		.section	.text.bmk13_execute,"ax",%progbits
ARM GAS  /var/folders/l5/0x54b2c10074c8bt31ycjvl80000gp/T//cclkDCON.s 			page 2


  58              		.align	2
  59              		.syntax unified
  60              		.arm
  61              		.fpu softvfp
  62              		.type	bmk13_execute, %function
  63              	bmk13_execute:
  64              	.LFB29:
  65              		.loc 1 637 33 is_stmt 1 view -0
  66              		.cfi_startproc
  67              		@ args = 0, pretend = 0, frame = 0
  68              		@ frame_needed = 0, uses_anonymous_args = 0
  69              		.loc 1 639 3 view .LVU7
  70              		.loc 1 637 33 is_stmt 0 view .LVU8
  71 0000 10402DE9 		push	{r4, lr}
  72              		.cfi_def_cfa_offset 8
  73              		.cfi_offset 4, -8
  74              		.cfi_offset 14, -4
  75              		.loc 1 639 3 view .LVU9
  76 0004 F0009FE5 		ldr	r0, .L6
  77              		.loc 1 645 3 view .LVU10
  78 0008 F0409FE5 		ldr	r4, .L6+4
  79              		.loc 1 639 3 view .LVU11
  80 000c FEFFFFEB 		bl	test_print
  81              	.LVL2:
  82              		.loc 1 640 3 is_stmt 1 view .LVU12
  83 0010 160EA0E3 		mov	r0, #352
  84 0014 FEFFFFEB 		bl	test_printn
  85              	.LVL3:
  86              		.loc 1 645 3 view .LVU13
  87 0018 0400A0E1 		mov	r0, r4
  88 001c FEFFFFEB 		bl	test_println
  89              	.LVL4:
  90              		.loc 1 646 3 view .LVU14
  91 0020 DC009FE5 		ldr	r0, .L6+8
  92 0024 FEFFFFEB 		bl	test_print
  93              	.LVL5:
  94              		.loc 1 647 3 view .LVU15
  95 0028 4400A0E3 		mov	r0, #68
  96 002c FEFFFFEB 		bl	test_printn
  97              	.LVL6:
  98              		.loc 1 648 3 view .LVU16
  99 0030 0400A0E1 		mov	r0, r4
 100 0034 FEFFFFEB 		bl	test_println
 101              	.LVL7:
 102              		.loc 1 649 3 view .LVU17
 103 0038 C8009FE5 		ldr	r0, .L6+12
 104 003c FEFFFFEB 		bl	test_print
 105              	.LVL8:
 106              		.loc 1 650 3 view .LVU18
 107 0040 1400A0E3 		mov	r0, #20
 108 0044 FEFFFFEB 		bl	test_printn
 109              	.LVL9:
 110              		.loc 1 651 3 view .LVU19
 111 0048 0400A0E1 		mov	r0, r4
 112 004c FEFFFFEB 		bl	test_println
 113              	.LVL10:
 114              		.loc 1 652 3 view .LVU20
ARM GAS  /var/folders/l5/0x54b2c10074c8bt31ycjvl80000gp/T//cclkDCON.s 			page 3


 115 0050 B4009FE5 		ldr	r0, .L6+16
 116 0054 FEFFFFEB 		bl	test_print
 117              	.LVL11:
 118              		.loc 1 653 3 view .LVU21
 119 0058 0C00A0E3 		mov	r0, #12
 120 005c FEFFFFEB 		bl	test_printn
 121              	.LVL12:
 122              		.loc 1 654 3 view .LVU22
 123 0060 0400A0E1 		mov	r0, r4
 124 0064 FEFFFFEB 		bl	test_println
 125              	.LVL13:
 126              		.loc 1 656 3 view .LVU23
 127 0068 A0009FE5 		ldr	r0, .L6+20
 128 006c FEFFFFEB 		bl	test_print
 129              	.LVL14:
 130              		.loc 1 657 3 view .LVU24
 131 0070 0400A0E3 		mov	r0, #4
 132 0074 FEFFFFEB 		bl	test_printn
 133              	.LVL15:
 134              		.loc 1 658 3 view .LVU25
 135 0078 0400A0E1 		mov	r0, r4
 136 007c FEFFFFEB 		bl	test_println
 137              	.LVL16:
 138              		.loc 1 659 3 view .LVU26
 139 0080 8C009FE5 		ldr	r0, .L6+24
 140 0084 FEFFFFEB 		bl	test_print
 141              	.LVL17:
 142              		.loc 1 660 3 view .LVU27
 143 0088 1000A0E3 		mov	r0, #16
 144 008c FEFFFFEB 		bl	test_printn
 145              	.LVL18:
 146              		.loc 1 661 3 view .LVU28
 147 0090 0400A0E1 		mov	r0, r4
 148 0094 FEFFFFEB 		bl	test_println
 149              	.LVL19:
 150              		.loc 1 664 3 view .LVU29
 151 0098 78009FE5 		ldr	r0, .L6+28
 152 009c FEFFFFEB 		bl	test_print
 153              	.LVL20:
 154              		.loc 1 665 3 view .LVU30
 155 00a0 1000A0E3 		mov	r0, #16
 156 00a4 FEFFFFEB 		bl	test_printn
 157              	.LVL21:
 158              		.loc 1 666 3 view .LVU31
 159 00a8 0400A0E1 		mov	r0, r4
 160 00ac FEFFFFEB 		bl	test_println
 161              	.LVL22:
 162              		.loc 1 669 3 view .LVU32
 163 00b0 64009FE5 		ldr	r0, .L6+32
 164 00b4 FEFFFFEB 		bl	test_print
 165              	.LVL23:
 166              		.loc 1 670 3 view .LVU33
 167 00b8 0800A0E3 		mov	r0, #8
 168 00bc FEFFFFEB 		bl	test_printn
 169              	.LVL24:
 170              		.loc 1 671 3 view .LVU34
 171 00c0 0400A0E1 		mov	r0, r4
ARM GAS  /var/folders/l5/0x54b2c10074c8bt31ycjvl80000gp/T//cclkDCON.s 			page 4


 172 00c4 FEFFFFEB 		bl	test_println
 173              	.LVL25:
 174              		.loc 1 674 3 view .LVU35
 175 00c8 50009FE5 		ldr	r0, .L6+36
 176 00cc FEFFFFEB 		bl	test_print
 177              	.LVL26:
 178              		.loc 1 675 3 view .LVU36
 179 00d0 2400A0E3 		mov	r0, #36
 180 00d4 FEFFFFEB 		bl	test_printn
 181              	.LVL27:
 182              		.loc 1 676 3 view .LVU37
 183 00d8 0400A0E1 		mov	r0, r4
 184 00dc FEFFFFEB 		bl	test_println
 185              	.LVL28:
 186              		.loc 1 679 3 view .LVU38
 187 00e0 3C009FE5 		ldr	r0, .L6+40
 188 00e4 FEFFFFEB 		bl	test_print
 189              	.LVL29:
 190              		.loc 1 680 3 view .LVU39
 191 00e8 2800A0E3 		mov	r0, #40
 192 00ec FEFFFFEB 		bl	test_printn
 193              	.LVL30:
 194              		.loc 1 681 3 view .LVU40
 195 00f0 0400A0E1 		mov	r0, r4
 196              		.loc 1 683 1 is_stmt 0 view .LVU41
 197 00f4 1040BDE8 		pop	{r4, lr}
 198              		.cfi_restore 14
 199              		.cfi_restore 4
 200              		.cfi_def_cfa_offset 0
 201              		.loc 1 681 3 view .LVU42
 202 00f8 FEFFFFEA 		b	test_println
 203              	.LVL31:
 204              	.L7:
 205              		.align	2
 206              	.L6:
 207 00fc 00000000 		.word	.LC0
 208 0100 10000000 		.word	.LC1
 209 0104 18000000 		.word	.LC2
 210 0108 28000000 		.word	.LC3
 211 010c 38000000 		.word	.LC4
 212 0110 48000000 		.word	.LC5
 213 0114 58000000 		.word	.LC6
 214 0118 68000000 		.word	.LC7
 215 011c 78000000 		.word	.LC8
 216 0120 88000000 		.word	.LC9
 217 0124 98000000 		.word	.LC10
 218              		.cfi_endproc
 219              	.LFE29:
 220              		.size	bmk13_execute, .-bmk13_execute
 221              		.section	.text.thread1,"ax",%progbits
 222              		.align	2
 223              		.syntax unified
 224              		.arm
 225              		.fpu softvfp
 226              		.type	thread1, %function
 227              	thread1:
 228              	.LFB7:
ARM GAS  /var/folders/l5/0x54b2c10074c8bt31ycjvl80000gp/T//cclkDCON.s 			page 5


 229              		.loc 1 68 31 is_stmt 1 view -0
 230              		.cfi_startproc
 231              		@ args = 0, pretend = 0, frame = 0
 232              		@ frame_needed = 0, uses_anonymous_args = 0
 233              	.LVL32:
 234              		.loc 1 68 31 is_stmt 0 view .LVU44
 235 0000 10402DE9 		push	{r4, lr}
 236              		.cfi_def_cfa_offset 8
 237              		.cfi_offset 4, -8
 238              		.cfi_offset 14, -4
 239              	.LVL33:
 240              	.L9:
 241              		.loc 1 69 3 is_stmt 1 discriminator 1 view .LVU45
 242              		.loc 1 70 3 discriminator 1 view .LVU46
 243              		.loc 1 72 3 discriminator 1 view .LVU47
 244              		.loc 1 73 3 discriminator 1 view .LVU48
 245              		.loc 1 74 5 discriminator 1 view .LVU49
 246              		.loc 1 74 10 is_stmt 0 discriminator 1 view .LVU50
 247 0004 FEFFFFEB 		bl	chMsgWait
 248              	.LVL34:
 249              		.loc 1 75 5 is_stmt 1 discriminator 1 view .LVU51
 250              		.loc 1 75 9 is_stmt 0 discriminator 1 view .LVU52
 251 0008 344090E5 		ldr	r4, [r0, #52]
 252              	.LVL35:
 253              		.loc 1 76 5 is_stmt 1 discriminator 1 view .LVU53
 254 000c 0410A0E1 		mov	r1, r4
 255 0010 FEFFFFEB 		bl	chMsgRelease
 256              	.LVL36:
 257              		.loc 1 77 3 is_stmt 0 discriminator 1 view .LVU54
 258 0014 000054E3 		cmp	r4, #0
 259 0018 F9FFFF1A 		bne	.L9
 260              		.loc 1 78 3 is_stmt 1 view .LVU55
 261              		.loc 1 79 1 is_stmt 0 view .LVU56
 262 001c 0400A0E1 		mov	r0, r4
 263 0020 1080BDE8 		pop	{r4, pc}
 264              		.cfi_endproc
 265              	.LFE7:
 266              		.size	thread1, .-thread1
 267              		.section	.text.bmk6_execute,"ax",%progbits
 268              		.align	2
 269              		.syntax unified
 270              		.arm
 271              		.fpu softvfp
 272              		.type	bmk6_execute, %function
 273              	bmk6_execute:
 274              	.LFB16:
 275              		.loc 1 308 32 is_stmt 1 view -0
 276              		.cfi_startproc
 277              		@ args = 0, pretend = 0, frame = 0
 278              		@ frame_needed = 0, uses_anonymous_args = 0
 279              		.loc 1 310 3 view .LVU58
 280              	.LVL37:
 281              		.loc 1 311 3 view .LVU59
 282              		.loc 1 308 32 is_stmt 0 view .LVU60
 283 0000 F0432DE9 		push	{r4, r5, r6, r7, r8, r9, lr}
 284              		.cfi_def_cfa_offset 28
 285              		.cfi_offset 4, -28
ARM GAS  /var/folders/l5/0x54b2c10074c8bt31ycjvl80000gp/T//cclkDCON.s 			page 6


 286              		.cfi_offset 5, -24
 287              		.cfi_offset 6, -20
 288              		.cfi_offset 7, -16
 289              		.cfi_offset 8, -12
 290              		.cfi_offset 9, -8
 291              		.cfi_offset 14, -4
 292              		.loc 1 310 12 view .LVU61
 293 0004 0040A0E3 		mov	r4, #0
 294              		.loc 1 312 18 view .LVU62
 295 0008 74309FE5 		ldr	r3, .L17
 296              		.loc 1 311 9 view .LVU63
 297 000c 74209FE5 		ldr	r2, .L17+4
 298              		.loc 1 312 18 view .LVU64
 299 0010 183093E5 		ldr	r3, [r3, #24]
 300              		.loc 1 308 32 view .LVU65
 301 0014 0CD04DE2 		sub	sp, sp, #12
 302              		.cfi_def_cfa_offset 40
 303              		.loc 1 312 11 view .LVU66
 304 0018 085093E5 		ldr	r5, [r3, #8]
 305              		.loc 1 311 9 view .LVU67
 306 001c 009092E5 		ldr	r9, [r2]
 307              	.LVL38:
 308              		.loc 1 312 3 is_stmt 1 view .LVU68
 309              		.loc 1 313 3 is_stmt 0 view .LVU69
 310 0020 FEFFFFEB 		bl	test_wait_tick
 311              	.LVL39:
 312              		.loc 1 314 3 view .LVU70
 313 0024 FA0FA0E3 		mov	r0, #1000
 314              		.loc 1 316 5 view .LVU71
 315 0028 0480A0E1 		mov	r8, r4
 316              		.loc 1 314 3 view .LVU72
 317 002c FEFFFFEB 		bl	test_start_timer
 318              	.LVL40:
 319 0030 54709FE5 		ldr	r7, .L17+8
 320              		.loc 1 316 5 view .LVU73
 321 0034 54609FE5 		ldr	r6, .L17+12
 322              		.loc 1 312 11 view .LVU74
 323 0038 015085E2 		add	r5, r5, #1
 324              	.LVL41:
 325              		.loc 1 313 3 is_stmt 1 view .LVU75
 326              		.loc 1 314 3 view .LVU76
 327              	.L13:
 328              		.loc 1 315 3 discriminator 1 view .LVU77
 329              		.loc 1 316 5 discriminator 1 view .LVU78
 330 003c 0630A0E1 		mov	r3, r6
 331 0040 00808DE5 		str	r8, [sp]
 332 0044 0520A0E1 		mov	r2, r5
 333 0048 461FA0E3 		mov	r1, #280
 334 004c 0900A0E1 		mov	r0, r9
 335 0050 FEFFFFEB 		bl	chThdCreateStatic
 336              	.LVL42:
 337              		.loc 1 317 5 discriminator 1 view .LVU79
 338              		.loc 1 321 3 is_stmt 0 discriminator 1 view .LVU80
 339 0054 003097E5 		ldr	r3, [r7]
 340              		.loc 1 317 6 discriminator 1 view .LVU81
 341 0058 014084E2 		add	r4, r4, #1
 342              	.LVL43:
ARM GAS  /var/folders/l5/0x54b2c10074c8bt31ycjvl80000gp/T//cclkDCON.s 			page 7


 343              		.loc 1 321 3 discriminator 1 view .LVU82
 344 005c 000053E3 		cmp	r3, #0
 345 0060 F5FFFF0A 		beq	.L13
 346              		.loc 1 322 3 is_stmt 1 view .LVU83
 347 0064 28009FE5 		ldr	r0, .L17+16
 348 0068 FEFFFFEB 		bl	test_print
 349              	.LVL44:
 350              		.loc 1 323 3 view .LVU84
 351 006c 0400A0E1 		mov	r0, r4
 352 0070 FEFFFFEB 		bl	test_printn
 353              	.LVL45:
 354              		.loc 1 324 3 view .LVU85
 355 0074 1C009FE5 		ldr	r0, .L17+20
 356              		.loc 1 325 1 is_stmt 0 view .LVU86
 357 0078 0CD08DE2 		add	sp, sp, #12
 358              		.cfi_def_cfa_offset 28
 359              		@ sp needed
 360 007c F043BDE8 		pop	{r4, r5, r6, r7, r8, r9, lr}
 361              		.cfi_restore 14
 362              		.cfi_restore 9
 363              		.cfi_restore 8
 364              		.cfi_restore 7
 365              		.cfi_restore 6
 366              		.cfi_restore 5
 367              		.cfi_restore 4
 368              		.cfi_def_cfa_offset 0
 369              	.LVL46:
 370              		.loc 1 324 3 view .LVU87
 371 0080 FEFFFFEA 		b	test_println
 372              	.LVL47:
 373              	.L18:
 374              		.align	2
 375              	.L17:
 376 0084 00000000 		.word	rlist
 377 0088 00000000 		.word	wa
 378 008c 00000000 		.word	test_timer_done
 379 0090 00000000 		.word	thread2
 380 0094 00000000 		.word	.LC11
 381 0098 10000000 		.word	.LC12
 382              		.cfi_endproc
 383              	.LFE16:
 384              		.size	bmk6_execute, .-bmk6_execute
 385              		.section	.text.msg_loop_test,"ax",%progbits
 386              		.align	2
 387              		.syntax unified
 388              		.arm
 389              		.fpu softvfp
 390              		.type	msg_loop_test, %function
 391              	msg_loop_test:
 392              	.LVL48:
 393              	.LFB8:
 394              		.loc 1 84 47 is_stmt 1 view -0
 395              		.cfi_startproc
 396              		@ args = 0, pretend = 0, frame = 0
 397              		@ frame_needed = 0, uses_anonymous_args = 0
 398              		.loc 1 86 3 view .LVU89
 399              		.loc 1 87 3 view .LVU90
ARM GAS  /var/folders/l5/0x54b2c10074c8bt31ycjvl80000gp/T//cclkDCON.s 			page 8


 400              		.loc 1 84 47 is_stmt 0 view .LVU91
 401 0000 70402DE9 		push	{r4, r5, r6, lr}
 402              		.cfi_def_cfa_offset 16
 403              		.cfi_offset 4, -16
 404              		.cfi_offset 5, -12
 405              		.cfi_offset 6, -8
 406              		.cfi_offset 14, -4
 407              		.loc 1 84 47 view .LVU92
 408 0004 0050A0E1 		mov	r5, r0
 409              		.loc 1 87 3 view .LVU93
 410 0008 FEFFFFEB 		bl	test_wait_tick
 411              	.LVL49:
 412              		.loc 1 88 3 is_stmt 1 view .LVU94
 413 000c FA0FA0E3 		mov	r0, #1000
 414 0010 FEFFFFEB 		bl	test_start_timer
 415              	.LVL50:
 416              		.loc 1 86 12 is_stmt 0 view .LVU95
 417 0014 0040A0E3 		mov	r4, #0
 418 0018 2C609FE5 		ldr	r6, .L24
 419              	.LVL51:
 420              	.L20:
 421              		.loc 1 89 3 is_stmt 1 discriminator 1 view .LVU96
 422              		.loc 1 90 5 discriminator 1 view .LVU97
 423              		.loc 1 90 11 is_stmt 0 discriminator 1 view .LVU98
 424 001c 0110A0E3 		mov	r1, #1
 425 0020 0500A0E1 		mov	r0, r5
 426 0024 FEFFFFEB 		bl	chMsgSend
 427              	.LVL52:
 428              		.loc 1 91 5 is_stmt 1 discriminator 1 view .LVU99
 429              		.loc 1 95 3 is_stmt 0 discriminator 1 view .LVU100
 430 0028 003096E5 		ldr	r3, [r6]
 431              		.loc 1 91 6 discriminator 1 view .LVU101
 432 002c 014084E2 		add	r4, r4, #1
 433              	.LVL53:
 434              		.loc 1 95 3 discriminator 1 view .LVU102
 435 0030 000053E3 		cmp	r3, #0
 436 0034 F8FFFF0A 		beq	.L20
 437              		.loc 1 96 3 is_stmt 1 view .LVU103
 438              		.loc 1 96 9 is_stmt 0 view .LVU104
 439 0038 0500A0E1 		mov	r0, r5
 440 003c 0010A0E3 		mov	r1, #0
 441 0040 FEFFFFEB 		bl	chMsgSend
 442              	.LVL54:
 443              		.loc 1 97 3 is_stmt 1 view .LVU105
 444              		.loc 1 98 1 is_stmt 0 view .LVU106
 445 0044 0400A0E1 		mov	r0, r4
 446 0048 7080BDE8 		pop	{r4, r5, r6, pc}
 447              	.L25:
 448              		.align	2
 449              	.L24:
 450 004c 00000000 		.word	test_timer_done
 451              		.cfi_endproc
 452              	.LFE8:
 453              		.size	msg_loop_test, .-msg_loop_test
 454              		.section	.text.bmk1_execute,"ax",%progbits
 455              		.align	2
 456              		.syntax unified
ARM GAS  /var/folders/l5/0x54b2c10074c8bt31ycjvl80000gp/T//cclkDCON.s 			page 9


 457              		.arm
 458              		.fpu softvfp
 459              		.type	bmk1_execute, %function
 460              	bmk1_execute:
 461              	.LFB9:
 462              		.loc 1 109 32 is_stmt 1 view -0
 463              		.cfi_startproc
 464              		@ args = 0, pretend = 0, frame = 0
 465              		@ frame_needed = 0, uses_anonymous_args = 0
 466              		.loc 1 110 3 view .LVU108
 467              		.loc 1 112 3 view .LVU109
 468              		.loc 1 112 16 is_stmt 0 view .LVU110
 469 0000 0010A0E3 		mov	r1, #0
 470              		.loc 1 109 32 view .LVU111
 471 0004 10402DE9 		push	{r4, lr}
 472              		.cfi_def_cfa_offset 8
 473              		.cfi_offset 4, -8
 474              		.cfi_offset 14, -4
 475              		.loc 1 112 50 view .LVU112
 476 0008 68309FE5 		ldr	r3, .L28
 477              		.loc 1 112 16 view .LVU113
 478 000c 68209FE5 		ldr	r2, .L28+4
 479              		.loc 1 112 50 view .LVU114
 480 0010 183093E5 		ldr	r3, [r3, #24]
 481              		.loc 1 112 16 view .LVU115
 482 0014 000092E5 		ldr	r0, [r2]
 483 0018 082093E5 		ldr	r2, [r3, #8]
 484              		.loc 1 109 32 view .LVU116
 485 001c 08D04DE2 		sub	sp, sp, #8
 486              		.cfi_def_cfa_offset 16
 487              		.loc 1 112 16 view .LVU117
 488 0020 012042E2 		sub	r2, r2, #1
 489 0024 00108DE5 		str	r1, [sp]
 490 0028 50309FE5 		ldr	r3, .L28+8
 491 002c 461FA0E3 		mov	r1, #280
 492 0030 FEFFFFEB 		bl	chThdCreateStatic
 493              	.LVL55:
 494              		.loc 1 112 14 view .LVU118
 495 0034 48309FE5 		ldr	r3, .L28+12
 496 0038 000083E5 		str	r0, [r3]
 497              		.loc 1 113 3 is_stmt 1 view .LVU119
 498              		.loc 1 113 7 is_stmt 0 view .LVU120
 499 003c FEFFFFEB 		bl	msg_loop_test
 500              	.LVL56:
 501 0040 0040A0E1 		mov	r4, r0
 502              	.LVL57:
 503              		.loc 1 114 3 is_stmt 1 view .LVU121
 504 0044 FEFFFFEB 		bl	test_wait_threads
 505              	.LVL58:
 506              		.loc 1 115 3 view .LVU122
 507 0048 38009FE5 		ldr	r0, .L28+16
 508 004c FEFFFFEB 		bl	test_print
 509              	.LVL59:
 510              		.loc 1 116 3 view .LVU123
 511 0050 0400A0E1 		mov	r0, r4
 512 0054 FEFFFFEB 		bl	test_printn
 513              	.LVL60:
ARM GAS  /var/folders/l5/0x54b2c10074c8bt31ycjvl80000gp/T//cclkDCON.s 			page 10


 514              		.loc 1 117 3 view .LVU124
 515 0058 2C009FE5 		ldr	r0, .L28+20
 516 005c FEFFFFEB 		bl	test_print
 517              	.LVL61:
 518              		.loc 1 118 3 view .LVU125
 519 0060 8400A0E1 		lsl	r0, r4, #1
 520 0064 FEFFFFEB 		bl	test_printn
 521              	.LVL62:
 522              		.loc 1 119 3 view .LVU126
 523 0068 20009FE5 		ldr	r0, .L28+24
 524              		.loc 1 120 1 is_stmt 0 view .LVU127
 525 006c 08D08DE2 		add	sp, sp, #8
 526              		.cfi_def_cfa_offset 8
 527              		@ sp needed
 528 0070 1040BDE8 		pop	{r4, lr}
 529              		.cfi_restore 14
 530              		.cfi_restore 4
 531              		.cfi_def_cfa_offset 0
 532              	.LVL63:
 533              		.loc 1 119 3 view .LVU128
 534 0074 FEFFFFEA 		b	test_println
 535              	.LVL64:
 536              	.L29:
 537              		.align	2
 538              	.L28:
 539 0078 00000000 		.word	rlist
 540 007c 00000000 		.word	wa
 541 0080 00000000 		.word	thread1
 542 0084 00000000 		.word	threads
 543 0088 00000000 		.word	.LC11
 544 008c 00000000 		.word	.LC13
 545 0090 0C000000 		.word	.LC14
 546              		.cfi_endproc
 547              	.LFE9:
 548              		.size	bmk1_execute, .-bmk1_execute
 549              		.section	.text.bmk2_execute,"ax",%progbits
 550              		.align	2
 551              		.syntax unified
 552              		.arm
 553              		.fpu softvfp
 554              		.type	bmk2_execute, %function
 555              	bmk2_execute:
 556              	.LFB10:
 557              		.loc 1 138 32 is_stmt 1 view -0
 558              		.cfi_startproc
 559              		@ args = 0, pretend = 0, frame = 0
 560              		@ frame_needed = 0, uses_anonymous_args = 0
 561              		.loc 1 139 3 view .LVU130
 562              		.loc 1 141 3 view .LVU131
 563              		.loc 1 141 16 is_stmt 0 view .LVU132
 564 0000 0010A0E3 		mov	r1, #0
 565              		.loc 1 138 32 view .LVU133
 566 0004 10402DE9 		push	{r4, lr}
 567              		.cfi_def_cfa_offset 8
 568              		.cfi_offset 4, -8
 569              		.cfi_offset 14, -4
 570              		.loc 1 141 50 view .LVU134
ARM GAS  /var/folders/l5/0x54b2c10074c8bt31ycjvl80000gp/T//cclkDCON.s 			page 11


 571 0008 68309FE5 		ldr	r3, .L32
 572              		.loc 1 141 16 view .LVU135
 573 000c 68209FE5 		ldr	r2, .L32+4
 574              		.loc 1 141 50 view .LVU136
 575 0010 183093E5 		ldr	r3, [r3, #24]
 576              		.loc 1 141 16 view .LVU137
 577 0014 000092E5 		ldr	r0, [r2]
 578 0018 082093E5 		ldr	r2, [r3, #8]
 579              		.loc 1 138 32 view .LVU138
 580 001c 08D04DE2 		sub	sp, sp, #8
 581              		.cfi_def_cfa_offset 16
 582              		.loc 1 141 16 view .LVU139
 583 0020 012082E2 		add	r2, r2, #1
 584 0024 00108DE5 		str	r1, [sp]
 585 0028 50309FE5 		ldr	r3, .L32+8
 586 002c 461FA0E3 		mov	r1, #280
 587 0030 FEFFFFEB 		bl	chThdCreateStatic
 588              	.LVL65:
 589              		.loc 1 141 14 view .LVU140
 590 0034 48309FE5 		ldr	r3, .L32+12
 591 0038 000083E5 		str	r0, [r3]
 592              		.loc 1 142 3 is_stmt 1 view .LVU141
 593              		.loc 1 142 7 is_stmt 0 view .LVU142
 594 003c FEFFFFEB 		bl	msg_loop_test
 595              	.LVL66:
 596 0040 0040A0E1 		mov	r4, r0
 597              	.LVL67:
 598              		.loc 1 143 3 is_stmt 1 view .LVU143
 599 0044 FEFFFFEB 		bl	test_wait_threads
 600              	.LVL68:
 601              		.loc 1 144 3 view .LVU144
 602 0048 38009FE5 		ldr	r0, .L32+16
 603 004c FEFFFFEB 		bl	test_print
 604              	.LVL69:
 605              		.loc 1 145 3 view .LVU145
 606 0050 0400A0E1 		mov	r0, r4
 607 0054 FEFFFFEB 		bl	test_printn
 608              	.LVL70:
 609              		.loc 1 146 3 view .LVU146
 610 0058 2C009FE5 		ldr	r0, .L32+20
 611 005c FEFFFFEB 		bl	test_print
 612              	.LVL71:
 613              		.loc 1 147 3 view .LVU147
 614 0060 8400A0E1 		lsl	r0, r4, #1
 615 0064 FEFFFFEB 		bl	test_printn
 616              	.LVL72:
 617              		.loc 1 148 3 view .LVU148
 618 0068 20009FE5 		ldr	r0, .L32+24
 619              		.loc 1 149 1 is_stmt 0 view .LVU149
 620 006c 08D08DE2 		add	sp, sp, #8
 621              		.cfi_def_cfa_offset 8
 622              		@ sp needed
 623 0070 1040BDE8 		pop	{r4, lr}
 624              		.cfi_restore 14
 625              		.cfi_restore 4
 626              		.cfi_def_cfa_offset 0
 627              	.LVL73:
ARM GAS  /var/folders/l5/0x54b2c10074c8bt31ycjvl80000gp/T//cclkDCON.s 			page 12


 628              		.loc 1 148 3 view .LVU150
 629 0074 FEFFFFEA 		b	test_println
 630              	.LVL74:
 631              	.L33:
 632              		.align	2
 633              	.L32:
 634 0078 00000000 		.word	rlist
 635 007c 00000000 		.word	wa
 636 0080 00000000 		.word	thread1
 637 0084 00000000 		.word	threads
 638 0088 00000000 		.word	.LC11
 639 008c 00000000 		.word	.LC13
 640 0090 0C000000 		.word	.LC14
 641              		.cfi_endproc
 642              	.LFE10:
 643              		.size	bmk2_execute, .-bmk2_execute
 644              		.section	.text.bmk3_execute,"ax",%progbits
 645              		.align	2
 646              		.syntax unified
 647              		.arm
 648              		.fpu softvfp
 649              		.type	bmk3_execute, %function
 650              	bmk3_execute:
 651              	.LFB12:
 652              		.loc 1 173 32 is_stmt 1 view -0
 653              		.cfi_startproc
 654              		@ args = 0, pretend = 0, frame = 0
 655              		@ frame_needed = 0, uses_anonymous_args = 0
 656              		.loc 1 174 3 view .LVU152
 657              		.loc 1 176 3 view .LVU153
 658              		.loc 1 173 32 is_stmt 0 view .LVU154
 659 0000 F0412DE9 		push	{r4, r5, r6, r7, r8, lr}
 660              		.cfi_def_cfa_offset 24
 661              		.cfi_offset 4, -24
 662              		.cfi_offset 5, -20
 663              		.cfi_offset 6, -16
 664              		.cfi_offset 7, -12
 665              		.cfi_offset 8, -8
 666              		.cfi_offset 14, -4
 667              		.loc 1 176 16 view .LVU155
 668 0004 0060A0E3 		mov	r6, #0
 669              		.loc 1 176 50 view .LVU156
 670 0008 00719FE5 		ldr	r7, .L36
 671              		.loc 1 176 16 view .LVU157
 672 000c 00519FE5 		ldr	r5, .L36+4
 673              		.loc 1 176 50 view .LVU158
 674 0010 183097E5 		ldr	r3, [r7, #24]
 675              		.loc 1 173 32 view .LVU159
 676 0014 08D04DE2 		sub	sp, sp, #8
 677              		.cfi_def_cfa_offset 32
 678              		.loc 1 176 16 view .LVU160
 679 0018 082093E5 		ldr	r2, [r3, #8]
 680 001c 000095E5 		ldr	r0, [r5]
 681 0020 F0309FE5 		ldr	r3, .L36+8
 682 0024 012082E2 		add	r2, r2, #1
 683 0028 00608DE5 		str	r6, [sp]
 684 002c 461FA0E3 		mov	r1, #280
ARM GAS  /var/folders/l5/0x54b2c10074c8bt31ycjvl80000gp/T//cclkDCON.s 			page 13


 685 0030 FEFFFFEB 		bl	chThdCreateStatic
 686              	.LVL75:
 687              		.loc 1 177 50 view .LVU161
 688 0034 183097E5 		ldr	r3, [r7, #24]
 689              		.loc 1 176 14 view .LVU162
 690 0038 DC409FE5 		ldr	r4, .L36+12
 691              		.loc 1 177 16 view .LVU163
 692 003c 082093E5 		ldr	r2, [r3, #8]
 693 0040 D8809FE5 		ldr	r8, .L36+16
 694              		.loc 1 176 14 view .LVU164
 695 0044 000084E5 		str	r0, [r4]
 696              		.loc 1 177 3 is_stmt 1 view .LVU165
 697              		.loc 1 177 16 is_stmt 0 view .LVU166
 698 0048 0830A0E1 		mov	r3, r8
 699 004c 022042E2 		sub	r2, r2, #2
 700 0050 00608DE5 		str	r6, [sp]
 701 0054 040095E5 		ldr	r0, [r5, #4]
 702 0058 461FA0E3 		mov	r1, #280
 703 005c FEFFFFEB 		bl	chThdCreateStatic
 704              	.LVL76:
 705              		.loc 1 178 50 view .LVU167
 706 0060 183097E5 		ldr	r3, [r7, #24]
 707              		.loc 1 177 14 view .LVU168
 708 0064 040084E5 		str	r0, [r4, #4]
 709              		.loc 1 178 3 is_stmt 1 view .LVU169
 710              		.loc 1 178 16 is_stmt 0 view .LVU170
 711 0068 082093E5 		ldr	r2, [r3, #8]
 712 006c 080095E5 		ldr	r0, [r5, #8]
 713 0070 0830A0E1 		mov	r3, r8
 714 0074 032042E2 		sub	r2, r2, #3
 715 0078 00608DE5 		str	r6, [sp]
 716 007c 461FA0E3 		mov	r1, #280
 717 0080 FEFFFFEB 		bl	chThdCreateStatic
 718              	.LVL77:
 719              		.loc 1 179 50 view .LVU171
 720 0084 183097E5 		ldr	r3, [r7, #24]
 721              		.loc 1 178 14 view .LVU172
 722 0088 080084E5 		str	r0, [r4, #8]
 723              		.loc 1 179 3 is_stmt 1 view .LVU173
 724              		.loc 1 179 16 is_stmt 0 view .LVU174
 725 008c 082093E5 		ldr	r2, [r3, #8]
 726 0090 0C0095E5 		ldr	r0, [r5, #12]
 727 0094 0830A0E1 		mov	r3, r8
 728 0098 042042E2 		sub	r2, r2, #4
 729 009c 00608DE5 		str	r6, [sp]
 730 00a0 461FA0E3 		mov	r1, #280
 731 00a4 FEFFFFEB 		bl	chThdCreateStatic
 732              	.LVL78:
 733              		.loc 1 180 50 view .LVU175
 734 00a8 183097E5 		ldr	r3, [r7, #24]
 735              		.loc 1 180 16 view .LVU176
 736 00ac 461FA0E3 		mov	r1, #280
 737 00b0 082093E5 		ldr	r2, [r3, #8]
 738              		.loc 1 179 14 view .LVU177
 739 00b4 0C0084E5 		str	r0, [r4, #12]
 740              		.loc 1 180 3 is_stmt 1 view .LVU178
 741              		.loc 1 180 16 is_stmt 0 view .LVU179
ARM GAS  /var/folders/l5/0x54b2c10074c8bt31ycjvl80000gp/T//cclkDCON.s 			page 14


 742 00b8 0830A0E1 		mov	r3, r8
 743 00bc 052042E2 		sub	r2, r2, #5
 744 00c0 00608DE5 		str	r6, [sp]
 745 00c4 100095E5 		ldr	r0, [r5, #16]
 746 00c8 FEFFFFEB 		bl	chThdCreateStatic
 747              	.LVL79:
 748              		.loc 1 180 14 view .LVU180
 749 00cc 100084E5 		str	r0, [r4, #16]
 750              		.loc 1 181 3 is_stmt 1 view .LVU181
 751              		.loc 1 181 7 is_stmt 0 view .LVU182
 752 00d0 000094E5 		ldr	r0, [r4]
 753 00d4 FEFFFFEB 		bl	msg_loop_test
 754              	.LVL80:
 755 00d8 0040A0E1 		mov	r4, r0
 756              	.LVL81:
 757              		.loc 1 182 3 is_stmt 1 view .LVU183
 758 00dc FEFFFFEB 		bl	test_wait_threads
 759              	.LVL82:
 760              		.loc 1 183 3 view .LVU184
 761 00e0 3C009FE5 		ldr	r0, .L36+20
 762 00e4 FEFFFFEB 		bl	test_print
 763              	.LVL83:
 764              		.loc 1 184 3 view .LVU185
 765 00e8 0400A0E1 		mov	r0, r4
 766 00ec FEFFFFEB 		bl	test_printn
 767              	.LVL84:
 768              		.loc 1 185 3 view .LVU186
 769 00f0 30009FE5 		ldr	r0, .L36+24
 770 00f4 FEFFFFEB 		bl	test_print
 771              	.LVL85:
 772              		.loc 1 186 3 view .LVU187
 773 00f8 8400A0E1 		lsl	r0, r4, #1
 774 00fc FEFFFFEB 		bl	test_printn
 775              	.LVL86:
 776              		.loc 1 187 3 view .LVU188
 777 0100 24009FE5 		ldr	r0, .L36+28
 778              		.loc 1 188 1 is_stmt 0 view .LVU189
 779 0104 08D08DE2 		add	sp, sp, #8
 780              		.cfi_def_cfa_offset 24
 781              		@ sp needed
 782 0108 F041BDE8 		pop	{r4, r5, r6, r7, r8, lr}
 783              		.cfi_restore 14
 784              		.cfi_restore 8
 785              		.cfi_restore 7
 786              		.cfi_restore 6
 787              		.cfi_restore 5
 788              		.cfi_restore 4
 789              		.cfi_def_cfa_offset 0
 790              	.LVL87:
 791              		.loc 1 187 3 view .LVU190
 792 010c FEFFFFEA 		b	test_println
 793              	.LVL88:
 794              	.L37:
 795              		.align	2
 796              	.L36:
 797 0110 00000000 		.word	rlist
 798 0114 00000000 		.word	wa
ARM GAS  /var/folders/l5/0x54b2c10074c8bt31ycjvl80000gp/T//cclkDCON.s 			page 15


 799 0118 00000000 		.word	thread1
 800 011c 00000000 		.word	threads
 801 0120 00000000 		.word	thread2
 802 0124 00000000 		.word	.LC11
 803 0128 00000000 		.word	.LC13
 804 012c 0C000000 		.word	.LC14
 805              		.cfi_endproc
 806              	.LFE12:
 807              		.size	bmk3_execute, .-bmk3_execute
 808              		.section	.text.thread4,"ax",%progbits
 809              		.align	2
 810              		.global	thread4
 811              		.syntax unified
 812              		.arm
 813              		.fpu softvfp
 814              		.type	thread4, %function
 815              	thread4:
 816              	.LVL89:
 817              	.LFB13:
 818              		.loc 1 207 24 is_stmt 1 view -0
 819              		.cfi_startproc
 820              		@ args = 0, pretend = 0, frame = 0
 821              		@ frame_needed = 0, uses_anonymous_args = 0
 822              		.loc 1 208 3 view .LVU192
 823              		.loc 1 209 3 view .LVU193
 824              		.loc 1 209 11 is_stmt 0 view .LVU194
 825 0000 28309FE5 		ldr	r3, .L43
 826              		.loc 1 207 24 view .LVU195
 827 0004 10402DE9 		push	{r4, lr}
 828              		.cfi_def_cfa_offset 8
 829              		.cfi_offset 4, -8
 830              		.cfi_offset 14, -4
 831              		.loc 1 209 11 view .LVU196
 832 0008 184093E5 		ldr	r4, [r3, #24]
 833              	.LVL90:
 834              		.loc 1 211 3 is_stmt 1 view .LVU197
 835              		.loc 1 212 3 view .LVU198
 836              		.syntax divided
 837              	@ 212 "../../test/testbmk.c" 1
 838 000c 9FF021E3 		msr     CPSR_c, #0x9F
 839              	@ 0 "" 2
 840              	.LVL91:
 841              		.arm
 842              		.syntax unified
 843              	.L39:
 844              		.loc 1 212 3 discriminator 1 view .LVU199
 845              		.loc 1 212 14 discriminator 1 view .LVU200
 846              		.loc 1 213 3 discriminator 1 view .LVU201
 847              		.loc 1 214 5 discriminator 1 view .LVU202
 848 0010 0200A0E3 		mov	r0, #2
 849 0014 FEFFFFEB 		bl	chSchGoSleepS
 850              	.LVL92:
 851              		.loc 1 215 5 discriminator 1 view .LVU203
 852              		.loc 1 216 3 is_stmt 0 discriminator 1 view .LVU204
 853 0018 243094E5 		ldr	r3, [r4, #36]
 854 001c 000053E3 		cmp	r3, #0
 855 0020 FAFFFF0A 		beq	.L39
ARM GAS  /var/folders/l5/0x54b2c10074c8bt31ycjvl80000gp/T//cclkDCON.s 			page 16


 856              		.loc 1 217 3 is_stmt 1 view .LVU205
 857              		.loc 1 217 3 view .LVU206
 858              		.syntax divided
 859              	@ 217 "../../test/testbmk.c" 1
 860 0024 1FF021E3 		msr     CPSR_c, #0x1F
 861              	@ 0 "" 2
 862              		.loc 1 217 16 view .LVU207
 863              		.loc 1 218 3 view .LVU208
 864              		.loc 1 219 1 is_stmt 0 view .LVU209
 865              		.arm
 866              		.syntax unified
 867 0028 0000A0E3 		mov	r0, #0
 868 002c 1080BDE8 		pop	{r4, pc}
 869              	.L44:
 870              		.align	2
 871              	.L43:
 872 0030 00000000 		.word	rlist
 873              		.cfi_endproc
 874              	.LFE13:
 875              		.size	thread4, .-thread4
 876              		.section	.text.bmk4_execute,"ax",%progbits
 877              		.align	2
 878              		.syntax unified
 879              		.arm
 880              		.fpu softvfp
 881              		.type	bmk4_execute, %function
 882              	bmk4_execute:
 883              	.LFB14:
 884              		.loc 1 221 32 is_stmt 1 view -0
 885              		.cfi_startproc
 886              		@ args = 0, pretend = 0, frame = 0
 887              		@ frame_needed = 0, uses_anonymous_args = 0
 888              		.loc 1 222 3 view .LVU211
 889              		.loc 1 223 3 view .LVU212
 890              		.loc 1 225 3 view .LVU213
 891              		.loc 1 221 32 is_stmt 0 view .LVU214
 892 0000 70402DE9 		push	{r4, r5, r6, lr}
 893              		.cfi_def_cfa_offset 16
 894              		.cfi_offset 4, -16
 895              		.cfi_offset 5, -12
 896              		.cfi_offset 6, -8
 897              		.cfi_offset 14, -4
 898              		.loc 1 225 21 view .LVU215
 899 0004 0050A0E3 		mov	r5, #0
 900              		.loc 1 225 55 view .LVU216
 901 0008 C0309FE5 		ldr	r3, .L50
 902              		.loc 1 225 21 view .LVU217
 903 000c C0209FE5 		ldr	r2, .L50+4
 904              		.loc 1 225 55 view .LVU218
 905 0010 183093E5 		ldr	r3, [r3, #24]
 906              		.loc 1 225 21 view .LVU219
 907 0014 000092E5 		ldr	r0, [r2]
 908 0018 082093E5 		ldr	r2, [r3, #8]
 909              		.loc 1 221 32 view .LVU220
 910 001c 08D04DE2 		sub	sp, sp, #8
 911              		.cfi_def_cfa_offset 24
 912              		.loc 1 225 21 view .LVU221
ARM GAS  /var/folders/l5/0x54b2c10074c8bt31ycjvl80000gp/T//cclkDCON.s 			page 17


 913 0020 012082E2 		add	r2, r2, #1
 914 0024 461FA0E3 		mov	r1, #280
 915 0028 A8309FE5 		ldr	r3, .L50+8
 916 002c 00508DE5 		str	r5, [sp]
 917 0030 FEFFFFEB 		bl	chThdCreateStatic
 918              	.LVL93:
 919              		.loc 1 225 19 view .LVU222
 920 0034 A0309FE5 		ldr	r3, .L50+12
 921              		.loc 1 225 21 view .LVU223
 922 0038 0040A0E1 		mov	r4, r0
 923              		.loc 1 225 19 view .LVU224
 924 003c 000083E5 		str	r0, [r3]
 925              	.LVL94:
 926              		.loc 1 226 3 is_stmt 1 view .LVU225
 927              		.loc 1 227 3 view .LVU226
 928 0040 FEFFFFEB 		bl	test_wait_tick
 929              	.LVL95:
 930              		.loc 1 228 3 view .LVU227
 931 0044 FA0FA0E3 		mov	r0, #1000
 932 0048 FEFFFFEB 		bl	test_start_timer
 933              	.LVL96:
 934 004c 8C609FE5 		ldr	r6, .L50+16
 935              	.LVL97:
 936              	.L46:
 937              		.loc 1 229 3 discriminator 1 view .LVU228
 938              		.loc 1 230 5 discriminator 1 view .LVU229
 939              		.syntax divided
 940              	@ 230 "../../test/testbmk.c" 1
 941 0050 9FF021E3 		msr     CPSR_c, #0x9F
 942              	@ 0 "" 2
 943              		.loc 1 230 5 discriminator 1 view .LVU230
 944              		.loc 1 230 16 discriminator 1 view .LVU231
 945              		.loc 1 231 5 discriminator 1 view .LVU232
 946              		.arm
 947              		.syntax unified
 948 0054 0010A0E3 		mov	r1, #0
 949 0058 0400A0E1 		mov	r0, r4
 950 005c FEFFFFEB 		bl	chSchWakeupS
 951              	.LVL98:
 952              		.loc 1 232 5 discriminator 1 view .LVU233
 953 0060 0400A0E1 		mov	r0, r4
 954 0064 0010A0E3 		mov	r1, #0
 955 0068 FEFFFFEB 		bl	chSchWakeupS
 956              	.LVL99:
 957              		.loc 1 233 5 discriminator 1 view .LVU234
 958 006c 0400A0E1 		mov	r0, r4
 959 0070 0010A0E3 		mov	r1, #0
 960 0074 FEFFFFEB 		bl	chSchWakeupS
 961              	.LVL100:
 962              		.loc 1 234 5 discriminator 1 view .LVU235
 963 0078 0400A0E1 		mov	r0, r4
 964 007c 0010A0E3 		mov	r1, #0
 965 0080 FEFFFFEB 		bl	chSchWakeupS
 966              	.LVL101:
 967              		.loc 1 235 5 discriminator 1 view .LVU236
 968              		.loc 1 235 5 discriminator 1 view .LVU237
 969              		.syntax divided
ARM GAS  /var/folders/l5/0x54b2c10074c8bt31ycjvl80000gp/T//cclkDCON.s 			page 18


 970              	@ 235 "../../test/testbmk.c" 1
 971 0084 1FF021E3 		msr     CPSR_c, #0x1F
 972              	@ 0 "" 2
 973              		.loc 1 235 18 discriminator 1 view .LVU238
 974              		.loc 1 236 5 discriminator 1 view .LVU239
 975              		.loc 1 240 3 is_stmt 0 discriminator 1 view .LVU240
 976              		.arm
 977              		.syntax unified
 978 0088 003096E5 		ldr	r3, [r6]
 979              		.loc 1 236 7 discriminator 1 view .LVU241
 980 008c 045085E2 		add	r5, r5, #4
 981              	.LVL102:
 982              		.loc 1 240 3 discriminator 1 view .LVU242
 983 0090 000053E3 		cmp	r3, #0
 984 0094 EDFFFF0A 		beq	.L46
 985              		.loc 1 241 3 is_stmt 1 view .LVU243
 986              		.syntax divided
 987              	@ 241 "../../test/testbmk.c" 1
 988 0098 9FF021E3 		msr     CPSR_c, #0x9F
 989              	@ 0 "" 2
 990              		.loc 1 241 3 view .LVU244
 991              		.loc 1 241 14 view .LVU245
 992              		.loc 1 242 3 view .LVU246
 993              		.arm
 994              		.syntax unified
 995 009c 0010E0E3 		mvn	r1, #0
 996 00a0 0400A0E1 		mov	r0, r4
 997 00a4 FEFFFFEB 		bl	chSchWakeupS
 998              	.LVL103:
 999              		.loc 1 243 3 view .LVU247
 1000              		.loc 1 243 3 view .LVU248
 1001              		.syntax divided
 1002              	@ 243 "../../test/testbmk.c" 1
 1003 00a8 1FF021E3 		msr     CPSR_c, #0x1F
 1004              	@ 0 "" 2
 1005              		.loc 1 243 16 view .LVU249
 1006              		.loc 1 245 3 view .LVU250
 1007              		.arm
 1008              		.syntax unified
 1009 00ac FEFFFFEB 		bl	test_wait_threads
 1010              	.LVL104:
 1011              		.loc 1 246 3 view .LVU251
 1012 00b0 2C009FE5 		ldr	r0, .L50+20
 1013 00b4 FEFFFFEB 		bl	test_print
 1014              	.LVL105:
 1015              		.loc 1 247 3 view .LVU252
 1016 00b8 8500A0E1 		lsl	r0, r5, #1
 1017 00bc FEFFFFEB 		bl	test_printn
 1018              	.LVL106:
 1019              		.loc 1 248 3 view .LVU253
 1020 00c0 20009FE5 		ldr	r0, .L50+24
 1021              		.loc 1 249 1 is_stmt 0 view .LVU254
 1022 00c4 08D08DE2 		add	sp, sp, #8
 1023              		.cfi_def_cfa_offset 16
 1024              		@ sp needed
 1025 00c8 7040BDE8 		pop	{r4, r5, r6, lr}
 1026              		.cfi_restore 14
ARM GAS  /var/folders/l5/0x54b2c10074c8bt31ycjvl80000gp/T//cclkDCON.s 			page 19


 1027              		.cfi_restore 6
 1028              		.cfi_restore 5
 1029              		.cfi_restore 4
 1030              		.cfi_def_cfa_offset 0
 1031              	.LVL107:
 1032              		.loc 1 248 3 view .LVU255
 1033 00cc FEFFFFEA 		b	test_println
 1034              	.LVL108:
 1035              	.L51:
 1036              		.align	2
 1037              	.L50:
 1038 00d0 00000000 		.word	rlist
 1039 00d4 00000000 		.word	wa
 1040 00d8 00000000 		.word	thread4
 1041 00dc 00000000 		.word	threads
 1042 00e0 00000000 		.word	test_timer_done
 1043 00e4 00000000 		.word	.LC11
 1044 00e8 0C000000 		.word	.LC14
 1045              		.cfi_endproc
 1046              	.LFE14:
 1047              		.size	bmk4_execute, .-bmk4_execute
 1048              		.section	.text.bmk5_execute,"ax",%progbits
 1049              		.align	2
 1050              		.syntax unified
 1051              		.arm
 1052              		.fpu softvfp
 1053              		.type	bmk5_execute, %function
 1054              	bmk5_execute:
 1055              	.LFB15:
 1056              		.loc 1 269 32 is_stmt 1 view -0
 1057              		.cfi_startproc
 1058              		@ args = 0, pretend = 0, frame = 0
 1059              		@ frame_needed = 0, uses_anonymous_args = 0
 1060              		.loc 1 271 3 view .LVU257
 1061              	.LVL109:
 1062              		.loc 1 272 3 view .LVU258
 1063              		.loc 1 269 32 is_stmt 0 view .LVU259
 1064 0000 F0432DE9 		push	{r4, r5, r6, r7, r8, r9, lr}
 1065              		.cfi_def_cfa_offset 28
 1066              		.cfi_offset 4, -28
 1067              		.cfi_offset 5, -24
 1068              		.cfi_offset 6, -20
 1069              		.cfi_offset 7, -16
 1070              		.cfi_offset 8, -12
 1071              		.cfi_offset 9, -8
 1072              		.cfi_offset 14, -4
 1073              		.loc 1 271 12 view .LVU260
 1074 0004 0040A0E3 		mov	r4, #0
 1075              		.loc 1 273 18 view .LVU261
 1076 0008 78309FE5 		ldr	r3, .L57
 1077              		.loc 1 272 9 view .LVU262
 1078 000c 78209FE5 		ldr	r2, .L57+4
 1079              		.loc 1 273 18 view .LVU263
 1080 0010 183093E5 		ldr	r3, [r3, #24]
 1081              		.loc 1 269 32 view .LVU264
 1082 0014 0CD04DE2 		sub	sp, sp, #12
 1083              		.cfi_def_cfa_offset 40
ARM GAS  /var/folders/l5/0x54b2c10074c8bt31ycjvl80000gp/T//cclkDCON.s 			page 20


 1084              		.loc 1 273 11 view .LVU265
 1085 0018 085093E5 		ldr	r5, [r3, #8]
 1086              		.loc 1 272 9 view .LVU266
 1087 001c 009092E5 		ldr	r9, [r2]
 1088              	.LVL110:
 1089              		.loc 1 273 3 is_stmt 1 view .LVU267
 1090              		.loc 1 274 3 is_stmt 0 view .LVU268
 1091 0020 FEFFFFEB 		bl	test_wait_tick
 1092              	.LVL111:
 1093              		.loc 1 275 3 view .LVU269
 1094 0024 FA0FA0E3 		mov	r0, #1000
 1095              		.loc 1 277 5 view .LVU270
 1096 0028 0480A0E1 		mov	r8, r4
 1097              		.loc 1 275 3 view .LVU271
 1098 002c FEFFFFEB 		bl	test_start_timer
 1099              	.LVL112:
 1100 0030 58709FE5 		ldr	r7, .L57+8
 1101              		.loc 1 277 5 view .LVU272
 1102 0034 58609FE5 		ldr	r6, .L57+12
 1103              		.loc 1 273 11 view .LVU273
 1104 0038 015045E2 		sub	r5, r5, #1
 1105              	.LVL113:
 1106              		.loc 1 274 3 is_stmt 1 view .LVU274
 1107              		.loc 1 275 3 view .LVU275
 1108              	.L53:
 1109              		.loc 1 276 3 discriminator 1 view .LVU276
 1110              		.loc 1 277 5 discriminator 1 view .LVU277
 1111 003c 0630A0E1 		mov	r3, r6
 1112 0040 0520A0E1 		mov	r2, r5
 1113 0044 461FA0E3 		mov	r1, #280
 1114 0048 00808DE5 		str	r8, [sp]
 1115 004c 0900A0E1 		mov	r0, r9
 1116 0050 FEFFFFEB 		bl	chThdCreateStatic
 1117              	.LVL114:
 1118 0054 FEFFFFEB 		bl	chThdWait
 1119              	.LVL115:
 1120              		.loc 1 278 5 discriminator 1 view .LVU278
 1121              		.loc 1 282 3 is_stmt 0 discriminator 1 view .LVU279
 1122 0058 003097E5 		ldr	r3, [r7]
 1123              		.loc 1 278 6 discriminator 1 view .LVU280
 1124 005c 014084E2 		add	r4, r4, #1
 1125              	.LVL116:
 1126              		.loc 1 282 3 discriminator 1 view .LVU281
 1127 0060 000053E3 		cmp	r3, #0
 1128 0064 F4FFFF0A 		beq	.L53
 1129              		.loc 1 283 3 is_stmt 1 view .LVU282
 1130 0068 28009FE5 		ldr	r0, .L57+16
 1131 006c FEFFFFEB 		bl	test_print
 1132              	.LVL117:
 1133              		.loc 1 284 3 view .LVU283
 1134 0070 0400A0E1 		mov	r0, r4
 1135 0074 FEFFFFEB 		bl	test_printn
 1136              	.LVL118:
 1137              		.loc 1 285 3 view .LVU284
 1138 0078 1C009FE5 		ldr	r0, .L57+20
 1139              		.loc 1 286 1 is_stmt 0 view .LVU285
 1140 007c 0CD08DE2 		add	sp, sp, #12
ARM GAS  /var/folders/l5/0x54b2c10074c8bt31ycjvl80000gp/T//cclkDCON.s 			page 21


 1141              		.cfi_def_cfa_offset 28
 1142              		@ sp needed
 1143 0080 F043BDE8 		pop	{r4, r5, r6, r7, r8, r9, lr}
 1144              		.cfi_restore 14
 1145              		.cfi_restore 9
 1146              		.cfi_restore 8
 1147              		.cfi_restore 7
 1148              		.cfi_restore 6
 1149              		.cfi_restore 5
 1150              		.cfi_restore 4
 1151              		.cfi_def_cfa_offset 0
 1152              	.LVL119:
 1153              		.loc 1 285 3 view .LVU286
 1154 0084 FEFFFFEA 		b	test_println
 1155              	.LVL120:
 1156              	.L58:
 1157              		.align	2
 1158              	.L57:
 1159 0088 00000000 		.word	rlist
 1160 008c 00000000 		.word	wa
 1161 0090 00000000 		.word	test_timer_done
 1162 0094 00000000 		.word	thread2
 1163 0098 00000000 		.word	.LC11
 1164 009c 10000000 		.word	.LC12
 1165              		.cfi_endproc
 1166              	.LFE15:
 1167              		.size	bmk5_execute, .-bmk5_execute
 1168              		.section	.text.bmk7_execute,"ax",%progbits
 1169              		.align	2
 1170              		.syntax unified
 1171              		.arm
 1172              		.fpu softvfp
 1173              		.type	bmk7_execute, %function
 1174              	bmk7_execute:
 1175              	.LFB19:
 1176              		.loc 1 358 32 is_stmt 1 view -0
 1177              		.cfi_startproc
 1178              		@ args = 0, pretend = 0, frame = 0
 1179              		@ frame_needed = 0, uses_anonymous_args = 0
 1180              		.loc 1 359 3 view .LVU288
 1181              		.loc 1 361 3 view .LVU289
 1182              		.loc 1 358 32 is_stmt 0 view .LVU290
 1183 0000 F0402DE9 		push	{r4, r5, r6, r7, lr}
 1184              		.cfi_def_cfa_offset 20
 1185              		.cfi_offset 4, -20
 1186              		.cfi_offset 5, -16
 1187              		.cfi_offset 6, -12
 1188              		.cfi_offset 7, -8
 1189              		.cfi_offset 14, -4
 1190              		.loc 1 361 16 view .LVU291
 1191 0004 0040A0E3 		mov	r4, #0
 1192              		.loc 1 361 50 view .LVU292
 1193 0008 34719FE5 		ldr	r7, .L64
 1194              		.loc 1 361 16 view .LVU293
 1195 000c 34619FE5 		ldr	r6, .L64+4
 1196              		.loc 1 361 50 view .LVU294
 1197 0010 183097E5 		ldr	r3, [r7, #24]
ARM GAS  /var/folders/l5/0x54b2c10074c8bt31ycjvl80000gp/T//cclkDCON.s 			page 22


 1198              		.loc 1 358 32 view .LVU295
 1199 0014 0CD04DE2 		sub	sp, sp, #12
 1200              		.cfi_def_cfa_offset 32
 1201              		.loc 1 361 16 view .LVU296
 1202 0018 082093E5 		ldr	r2, [r3, #8]
 1203 001c 000096E5 		ldr	r0, [r6]
 1204 0020 24319FE5 		ldr	r3, .L64+8
 1205 0024 052082E2 		add	r2, r2, #5
 1206 0028 461FA0E3 		mov	r1, #280
 1207 002c 00408DE5 		str	r4, [sp]
 1208 0030 FEFFFFEB 		bl	chThdCreateStatic
 1209              	.LVL121:
 1210              		.loc 1 362 50 view .LVU297
 1211 0034 183097E5 		ldr	r3, [r7, #24]
 1212              		.loc 1 361 14 view .LVU298
 1213 0038 10519FE5 		ldr	r5, .L64+12
 1214              		.loc 1 362 16 view .LVU299
 1215 003c 082093E5 		ldr	r2, [r3, #8]
 1216 0040 461FA0E3 		mov	r1, #280
 1217              		.loc 1 361 14 view .LVU300
 1218 0044 000085E5 		str	r0, [r5]
 1219              		.loc 1 362 3 is_stmt 1 view .LVU301
 1220              		.loc 1 362 16 is_stmt 0 view .LVU302
 1221 0048 042082E2 		add	r2, r2, #4
 1222 004c 040096E5 		ldr	r0, [r6, #4]
 1223 0050 F4309FE5 		ldr	r3, .L64+8
 1224 0054 00408DE5 		str	r4, [sp]
 1225 0058 FEFFFFEB 		bl	chThdCreateStatic
 1226              	.LVL122:
 1227              		.loc 1 363 50 view .LVU303
 1228 005c 183097E5 		ldr	r3, [r7, #24]
 1229              		.loc 1 362 14 view .LVU304
 1230 0060 040085E5 		str	r0, [r5, #4]
 1231              		.loc 1 363 3 is_stmt 1 view .LVU305
 1232              		.loc 1 363 16 is_stmt 0 view .LVU306
 1233 0064 082093E5 		ldr	r2, [r3, #8]
 1234 0068 080096E5 		ldr	r0, [r6, #8]
 1235 006c 032082E2 		add	r2, r2, #3
 1236 0070 D4309FE5 		ldr	r3, .L64+8
 1237 0074 461FA0E3 		mov	r1, #280
 1238 0078 00408DE5 		str	r4, [sp]
 1239 007c FEFFFFEB 		bl	chThdCreateStatic
 1240              	.LVL123:
 1241              		.loc 1 364 50 view .LVU307
 1242 0080 183097E5 		ldr	r3, [r7, #24]
 1243              		.loc 1 363 14 view .LVU308
 1244 0084 080085E5 		str	r0, [r5, #8]
 1245              		.loc 1 364 3 is_stmt 1 view .LVU309
 1246              		.loc 1 364 16 is_stmt 0 view .LVU310
 1247 0088 082093E5 		ldr	r2, [r3, #8]
 1248 008c 0C0096E5 		ldr	r0, [r6, #12]
 1249 0090 022082E2 		add	r2, r2, #2
 1250 0094 B0309FE5 		ldr	r3, .L64+8
 1251 0098 461FA0E3 		mov	r1, #280
 1252 009c 00408DE5 		str	r4, [sp]
 1253 00a0 FEFFFFEB 		bl	chThdCreateStatic
 1254              	.LVL124:
ARM GAS  /var/folders/l5/0x54b2c10074c8bt31ycjvl80000gp/T//cclkDCON.s 			page 23


 1255              		.loc 1 365 50 view .LVU311
 1256 00a4 183097E5 		ldr	r3, [r7, #24]
 1257              		.loc 1 364 14 view .LVU312
 1258 00a8 0C0085E5 		str	r0, [r5, #12]
 1259              		.loc 1 365 3 is_stmt 1 view .LVU313
 1260              		.loc 1 365 16 is_stmt 0 view .LVU314
 1261 00ac 082093E5 		ldr	r2, [r3, #8]
 1262 00b0 461FA0E3 		mov	r1, #280
 1263 00b4 012082E2 		add	r2, r2, #1
 1264 00b8 8C309FE5 		ldr	r3, .L64+8
 1265 00bc 100096E5 		ldr	r0, [r6, #16]
 1266 00c0 00408DE5 		str	r4, [sp]
 1267 00c4 FEFFFFEB 		bl	chThdCreateStatic
 1268              	.LVL125:
 1269              		.loc 1 365 14 view .LVU315
 1270 00c8 100085E5 		str	r0, [r5, #16]
 1271              		.loc 1 367 3 is_stmt 1 view .LVU316
 1272              	.LVL126:
 1273              		.loc 1 368 3 view .LVU317
 1274 00cc FEFFFFEB 		bl	test_wait_tick
 1275              	.LVL127:
 1276              		.loc 1 369 3 view .LVU318
 1277 00d0 FA0FA0E3 		mov	r0, #1000
 1278 00d4 FEFFFFEB 		bl	test_start_timer
 1279              	.LVL128:
 1280 00d8 74609FE5 		ldr	r6, .L64+16
 1281              		.loc 1 371 5 is_stmt 0 view .LVU319
 1282 00dc 74509FE5 		ldr	r5, .L64+20
 1283              	.LVL129:
 1284              	.L60:
 1285              		.loc 1 370 3 is_stmt 1 discriminator 1 view .LVU320
 1286              		.loc 1 371 5 discriminator 1 view .LVU321
 1287 00e0 0010A0E3 		mov	r1, #0
 1288 00e4 0500A0E1 		mov	r0, r5
 1289 00e8 FEFFFFEB 		bl	chSemReset
 1290              	.LVL130:
 1291              		.loc 1 372 5 discriminator 1 view .LVU322
 1292              		.loc 1 376 3 is_stmt 0 discriminator 1 view .LVU323
 1293 00ec 003096E5 		ldr	r3, [r6]
 1294              		.loc 1 372 6 discriminator 1 view .LVU324
 1295 00f0 014084E2 		add	r4, r4, #1
 1296              	.LVL131:
 1297              		.loc 1 376 3 discriminator 1 view .LVU325
 1298 00f4 000053E3 		cmp	r3, #0
 1299 00f8 F8FFFF0A 		beq	.L60
 1300              		.loc 1 377 3 is_stmt 1 view .LVU326
 1301 00fc FEFFFFEB 		bl	test_terminate_threads
 1302              	.LVL132:
 1303              		.loc 1 378 3 view .LVU327
 1304 0100 0010A0E3 		mov	r1, #0
 1305 0104 4C009FE5 		ldr	r0, .L64+20
 1306 0108 FEFFFFEB 		bl	chSemReset
 1307              	.LVL133:
 1308              		.loc 1 379 3 view .LVU328
 1309 010c FEFFFFEB 		bl	test_wait_threads
 1310              	.LVL134:
 1311              		.loc 1 381 3 view .LVU329
ARM GAS  /var/folders/l5/0x54b2c10074c8bt31ycjvl80000gp/T//cclkDCON.s 			page 24


 1312 0110 44009FE5 		ldr	r0, .L64+24
 1313 0114 FEFFFFEB 		bl	test_print
 1314              	.LVL135:
 1315              		.loc 1 382 3 view .LVU330
 1316 0118 0400A0E1 		mov	r0, r4
 1317 011c FEFFFFEB 		bl	test_printn
 1318              	.LVL136:
 1319              		.loc 1 383 3 view .LVU331
 1320              		.loc 1 384 3 is_stmt 0 view .LVU332
 1321 0120 844084E0 		add	r4, r4, r4, lsl #1
 1322              	.LVL137:
 1323              		.loc 1 383 3 view .LVU333
 1324 0124 34009FE5 		ldr	r0, .L64+28
 1325 0128 FEFFFFEB 		bl	test_print
 1326              	.LVL138:
 1327              		.loc 1 384 3 is_stmt 1 view .LVU334
 1328 012c 8400A0E1 		lsl	r0, r4, #1
 1329 0130 FEFFFFEB 		bl	test_printn
 1330              	.LVL139:
 1331              		.loc 1 385 3 view .LVU335
 1332 0134 28009FE5 		ldr	r0, .L64+32
 1333              		.loc 1 386 1 is_stmt 0 view .LVU336
 1334 0138 0CD08DE2 		add	sp, sp, #12
 1335              		.cfi_def_cfa_offset 20
 1336              		@ sp needed
 1337 013c F040BDE8 		pop	{r4, r5, r6, r7, lr}
 1338              		.cfi_restore 14
 1339              		.cfi_restore 7
 1340              		.cfi_restore 6
 1341              		.cfi_restore 5
 1342              		.cfi_restore 4
 1343              		.cfi_def_cfa_offset 0
 1344              		.loc 1 385 3 view .LVU337
 1345 0140 FEFFFFEA 		b	test_println
 1346              	.LVL140:
 1347              	.L65:
 1348              		.align	2
 1349              	.L64:
 1350 0144 00000000 		.word	rlist
 1351 0148 00000000 		.word	wa
 1352 014c 00000000 		.word	thread3
 1353 0150 00000000 		.word	threads
 1354 0154 00000000 		.word	test_timer_done
 1355 0158 00000000 		.word	.LANCHOR0
 1356 015c 00000000 		.word	.LC11
 1357 0160 00000000 		.word	.LC15
 1358 0164 0C000000 		.word	.LC14
 1359              		.cfi_endproc
 1360              	.LFE19:
 1361              		.size	bmk7_execute, .-bmk7_execute
 1362              		.section	.text.thread3,"ax",%progbits
 1363              		.align	2
 1364              		.syntax unified
 1365              		.arm
 1366              		.fpu softvfp
 1367              		.type	thread3, %function
 1368              	thread3:
ARM GAS  /var/folders/l5/0x54b2c10074c8bt31ycjvl80000gp/T//cclkDCON.s 			page 25


 1369              	.LVL141:
 1370              	.LFB17:
 1371              		.loc 1 345 31 is_stmt 1 view -0
 1372              		.cfi_startproc
 1373              		@ args = 0, pretend = 0, frame = 0
 1374              		@ frame_needed = 0, uses_anonymous_args = 0
 1375              		.loc 1 347 3 view .LVU339
 1376              		.loc 1 348 3 view .LVU340
 1377              		.loc 1 345 31 is_stmt 0 view .LVU341
 1378 0000 70402DE9 		push	{r4, r5, r6, lr}
 1379              		.cfi_def_cfa_offset 16
 1380              		.cfi_offset 4, -16
 1381              		.cfi_offset 5, -12
 1382              		.cfi_offset 6, -8
 1383              		.cfi_offset 14, -4
 1384              		.loc 1 348 11 view .LVU342
 1385 0004 30409FE5 		ldr	r4, .L72
 1386 0008 183094E5 		ldr	r3, [r4, #24]
 1387              		.loc 1 348 9 view .LVU343
 1388 000c 1D30D3E5 		ldrb	r3, [r3, #29]	@ zero_extendqisi2
 1389 0010 040013E3 		tst	r3, #4
 1390 0014 0600001A 		bne	.L67
 1391              		.loc 1 349 5 view .LVU344
 1392 0018 20509FE5 		ldr	r5, .L72+4
 1393              	.LVL142:
 1394              	.L68:
 1395              		.loc 1 349 5 is_stmt 1 view .LVU345
 1396 001c 0500A0E1 		mov	r0, r5
 1397 0020 FEFFFFEB 		bl	chSemWait
 1398              	.LVL143:
 1399              		.loc 1 348 11 is_stmt 0 view .LVU346
 1400 0024 183094E5 		ldr	r3, [r4, #24]
 1401              		.loc 1 348 9 view .LVU347
 1402 0028 1D30D3E5 		ldrb	r3, [r3, #29]	@ zero_extendqisi2
 1403 002c 040013E3 		tst	r3, #4
 1404 0030 F9FFFF0A 		beq	.L68
 1405              	.L67:
 1406              		.loc 1 350 3 is_stmt 1 view .LVU348
 1407              		.loc 1 351 1 is_stmt 0 view .LVU349
 1408 0034 0000A0E3 		mov	r0, #0
 1409 0038 7080BDE8 		pop	{r4, r5, r6, pc}
 1410              	.L73:
 1411              		.align	2
 1412              	.L72:
 1413 003c 00000000 		.word	rlist
 1414 0040 00000000 		.word	.LANCHOR0
 1415              		.cfi_endproc
 1416              	.LFE17:
 1417              		.size	thread3, .-thread3
 1418              		.section	.text.bmk7_setup,"ax",%progbits
 1419              		.align	2
 1420              		.syntax unified
 1421              		.arm
 1422              		.fpu softvfp
 1423              		.type	bmk7_setup, %function
 1424              	bmk7_setup:
 1425              	.LFB18:
ARM GAS  /var/folders/l5/0x54b2c10074c8bt31ycjvl80000gp/T//cclkDCON.s 			page 26


 1426              		.loc 1 353 30 is_stmt 1 view -0
 1427              		.cfi_startproc
 1428              		@ args = 0, pretend = 0, frame = 0
 1429              		@ frame_needed = 0, uses_anonymous_args = 0
 1430              		@ link register save eliminated.
 1431              		.loc 1 355 3 view .LVU351
 1432 0000 0010A0E3 		mov	r1, #0
 1433 0004 00009FE5 		ldr	r0, .L75
 1434 0008 FEFFFFEA 		b	chSemInit
 1435              	.LVL144:
 1436              	.L76:
 1437              		.align	2
 1438              	.L75:
 1439 000c 00000000 		.word	.LANCHOR0
 1440              		.cfi_endproc
 1441              	.LFE18:
 1442              		.size	bmk7_setup, .-bmk7_setup
 1443              		.section	.text.bmk11_setup,"ax",%progbits
 1444              		.align	2
 1445              		.syntax unified
 1446              		.arm
 1447              		.fpu softvfp
 1448              		.type	bmk11_setup, %function
 1449              	bmk11_setup:
 1450              	.LFB25:
 1451              		.loc 1 546 31 view -0
 1452              		.cfi_startproc
 1453              		@ args = 0, pretend = 0, frame = 0
 1454              		@ frame_needed = 0, uses_anonymous_args = 0
 1455              		@ link register save eliminated.
 1456              		.loc 1 548 3 view .LVU353
 1457 0000 0110A0E3 		mov	r1, #1
 1458 0004 00009FE5 		ldr	r0, .L78
 1459 0008 FEFFFFEA 		b	chSemInit
 1460              	.LVL145:
 1461              	.L79:
 1462              		.align	2
 1463              	.L78:
 1464 000c 00000000 		.word	.LANCHOR0
 1465              		.cfi_endproc
 1466              	.LFE25:
 1467              		.size	bmk11_setup, .-bmk11_setup
 1468              		.section	.text.bmk8_execute,"ax",%progbits
 1469              		.align	2
 1470              		.syntax unified
 1471              		.arm
 1472              		.fpu softvfp
 1473              		.type	bmk8_execute, %function
 1474              	bmk8_execute:
 1475              	.LFB21:
 1476              		.loc 1 420 32 view -0
 1477              		.cfi_startproc
 1478              		@ args = 0, pretend = 0, frame = 8
 1479              		@ frame_needed = 0, uses_anonymous_args = 0
 1480              		.loc 1 421 3 view .LVU355
 1481              		.loc 1 423 3 view .LVU356
 1482              		.loc 1 423 5 is_stmt 0 view .LVU357
ARM GAS  /var/folders/l5/0x54b2c10074c8bt31ycjvl80000gp/T//cclkDCON.s 			page 27


 1483 0000 0030A0E3 		mov	r3, #0
 1484              		.loc 1 420 32 view .LVU358
 1485 0004 F0412DE9 		push	{r4, r5, r6, r7, r8, lr}
 1486              		.cfi_def_cfa_offset 24
 1487              		.cfi_offset 4, -24
 1488              		.cfi_offset 5, -20
 1489              		.cfi_offset 6, -16
 1490              		.cfi_offset 7, -12
 1491              		.cfi_offset 8, -8
 1492              		.cfi_offset 14, -4
 1493              		.loc 1 426 50 view .LVU359
 1494 0008 FC809FE5 		ldr	r8, .L82
 1495              		.loc 1 420 32 view .LVU360
 1496 000c 10D04DE2 		sub	sp, sp, #16
 1497              		.cfi_def_cfa_offset 40
 1498              		.loc 1 423 5 view .LVU361
 1499 0010 0C308DE5 		str	r3, [sp, #12]
 1500              		.loc 1 424 3 is_stmt 1 view .LVU362
 1501 0014 FEFFFFEB 		bl	test_wait_tick
 1502              	.LVL146:
 1503              		.loc 1 426 3 view .LVU363
 1504              		.loc 1 426 50 is_stmt 0 view .LVU364
 1505 0018 183098E5 		ldr	r3, [r8, #24]
 1506              		.loc 1 426 16 view .LVU365
 1507 001c EC709FE5 		ldr	r7, .L82+4
 1508 0020 EC509FE5 		ldr	r5, .L82+8
 1509 0024 082093E5 		ldr	r2, [r3, #8]
 1510 0028 0C608DE2 		add	r6, sp, #12
 1511 002c 0730A0E1 		mov	r3, r7
 1512 0030 012042E2 		sub	r2, r2, #1
 1513 0034 000095E5 		ldr	r0, [r5]
 1514 0038 00608DE5 		str	r6, [sp]
 1515 003c 461FA0E3 		mov	r1, #280
 1516 0040 FEFFFFEB 		bl	chThdCreateStatic
 1517              	.LVL147:
 1518              		.loc 1 427 50 view .LVU366
 1519 0044 183098E5 		ldr	r3, [r8, #24]
 1520              		.loc 1 426 14 view .LVU367
 1521 0048 C8409FE5 		ldr	r4, .L82+12
 1522              		.loc 1 427 16 view .LVU368
 1523 004c 082093E5 		ldr	r2, [r3, #8]
 1524 0050 461FA0E3 		mov	r1, #280
 1525              		.loc 1 426 14 view .LVU369
 1526 0054 000084E5 		str	r0, [r4]
 1527              		.loc 1 427 3 is_stmt 1 view .LVU370
 1528              		.loc 1 427 16 is_stmt 0 view .LVU371
 1529 0058 0730A0E1 		mov	r3, r7
 1530 005c 012042E2 		sub	r2, r2, #1
 1531 0060 00608DE5 		str	r6, [sp]
 1532 0064 040095E5 		ldr	r0, [r5, #4]
 1533 0068 FEFFFFEB 		bl	chThdCreateStatic
 1534              	.LVL148:
 1535              		.loc 1 428 50 view .LVU372
 1536 006c 183098E5 		ldr	r3, [r8, #24]
 1537              		.loc 1 427 14 view .LVU373
 1538 0070 040084E5 		str	r0, [r4, #4]
 1539              		.loc 1 428 3 is_stmt 1 view .LVU374
ARM GAS  /var/folders/l5/0x54b2c10074c8bt31ycjvl80000gp/T//cclkDCON.s 			page 28


 1540              		.loc 1 428 16 is_stmt 0 view .LVU375
 1541 0074 082093E5 		ldr	r2, [r3, #8]
 1542 0078 080095E5 		ldr	r0, [r5, #8]
 1543 007c 0730A0E1 		mov	r3, r7
 1544 0080 012042E2 		sub	r2, r2, #1
 1545 0084 00608DE5 		str	r6, [sp]
 1546 0088 461FA0E3 		mov	r1, #280
 1547 008c FEFFFFEB 		bl	chThdCreateStatic
 1548              	.LVL149:
 1549              		.loc 1 429 50 view .LVU376
 1550 0090 183098E5 		ldr	r3, [r8, #24]
 1551              		.loc 1 428 14 view .LVU377
 1552 0094 080084E5 		str	r0, [r4, #8]
 1553              		.loc 1 429 3 is_stmt 1 view .LVU378
 1554              		.loc 1 429 16 is_stmt 0 view .LVU379
 1555 0098 082093E5 		ldr	r2, [r3, #8]
 1556 009c 0C0095E5 		ldr	r0, [r5, #12]
 1557 00a0 0730A0E1 		mov	r3, r7
 1558 00a4 012042E2 		sub	r2, r2, #1
 1559 00a8 00608DE5 		str	r6, [sp]
 1560 00ac 461FA0E3 		mov	r1, #280
 1561 00b0 FEFFFFEB 		bl	chThdCreateStatic
 1562              	.LVL150:
 1563              		.loc 1 430 50 view .LVU380
 1564 00b4 183098E5 		ldr	r3, [r8, #24]
 1565              		.loc 1 430 16 view .LVU381
 1566 00b8 461FA0E3 		mov	r1, #280
 1567 00bc 082093E5 		ldr	r2, [r3, #8]
 1568              		.loc 1 429 14 view .LVU382
 1569 00c0 0C0084E5 		str	r0, [r4, #12]
 1570              		.loc 1 430 3 is_stmt 1 view .LVU383
 1571              		.loc 1 430 16 is_stmt 0 view .LVU384
 1572 00c4 0730A0E1 		mov	r3, r7
 1573 00c8 012042E2 		sub	r2, r2, #1
 1574 00cc 00608DE5 		str	r6, [sp]
 1575 00d0 100095E5 		ldr	r0, [r5, #16]
 1576 00d4 FEFFFFEB 		bl	chThdCreateStatic
 1577              	.LVL151:
 1578              		.loc 1 430 14 view .LVU385
 1579 00d8 100084E5 		str	r0, [r4, #16]
 1580              		.loc 1 432 3 is_stmt 1 view .LVU386
 1581 00dc FA0FA0E3 		mov	r0, #1000
 1582 00e0 FEFFFFEB 		bl	chThdSleep
 1583              	.LVL152:
 1584              		.loc 1 433 3 view .LVU387
 1585 00e4 FEFFFFEB 		bl	test_terminate_threads
 1586              	.LVL153:
 1587              		.loc 1 434 3 view .LVU388
 1588 00e8 FEFFFFEB 		bl	test_wait_threads
 1589              	.LVL154:
 1590              		.loc 1 436 3 view .LVU389
 1591 00ec 28009FE5 		ldr	r0, .L82+16
 1592 00f0 FEFFFFEB 		bl	test_print
 1593              	.LVL155:
 1594              		.loc 1 437 3 view .LVU390
 1595 00f4 0C009DE5 		ldr	r0, [sp, #12]
 1596 00f8 FEFFFFEB 		bl	test_printn
ARM GAS  /var/folders/l5/0x54b2c10074c8bt31ycjvl80000gp/T//cclkDCON.s 			page 29


 1597              	.LVL156:
 1598              		.loc 1 438 3 view .LVU391
 1599 00fc 1C009FE5 		ldr	r0, .L82+20
 1600 0100 FEFFFFEB 		bl	test_println
 1601              	.LVL157:
 1602              		.loc 1 439 1 is_stmt 0 view .LVU392
 1603 0104 10D08DE2 		add	sp, sp, #16
 1604              		.cfi_def_cfa_offset 24
 1605              		@ sp needed
 1606 0108 F081BDE8 		pop	{r4, r5, r6, r7, r8, pc}
 1607              	.L83:
 1608              		.align	2
 1609              	.L82:
 1610 010c 00000000 		.word	rlist
 1611 0110 00000000 		.word	thread8
 1612 0114 00000000 		.word	wa
 1613 0118 00000000 		.word	threads
 1614 011c 00000000 		.word	.LC11
 1615 0120 0C000000 		.word	.LC14
 1616              		.cfi_endproc
 1617              	.LFE21:
 1618              		.size	bmk8_execute, .-bmk8_execute
 1619              		.section	.text.thread8,"ax",%progbits
 1620              		.align	2
 1621              		.syntax unified
 1622              		.arm
 1623              		.fpu softvfp
 1624              		.type	thread8, %function
 1625              	thread8:
 1626              	.LVL158:
 1627              	.LFB20:
 1628              		.loc 1 405 31 is_stmt 1 view -0
 1629              		.cfi_startproc
 1630              		@ args = 0, pretend = 0, frame = 0
 1631              		@ frame_needed = 0, uses_anonymous_args = 0
 1632              		.loc 1 405 31 is_stmt 0 view .LVU394
 1633 0000 70402DE9 		push	{r4, r5, r6, lr}
 1634              		.cfi_def_cfa_offset 16
 1635              		.cfi_offset 4, -16
 1636              		.cfi_offset 5, -12
 1637              		.cfi_offset 6, -8
 1638              		.cfi_offset 14, -4
 1639              		.loc 1 405 31 view .LVU395
 1640 0004 0040A0E1 		mov	r4, r0
 1641 0008 30509FE5 		ldr	r5, .L89
 1642              	.LVL159:
 1643              	.L85:
 1644              		.loc 1 407 3 is_stmt 1 discriminator 1 view .LVU396
 1645              		.loc 1 408 5 discriminator 1 view .LVU397
 1646 000c FEFFFFEB 		bl	chThdYield
 1647              	.LVL160:
 1648              		.loc 1 409 5 discriminator 1 view .LVU398
 1649 0010 FEFFFFEB 		bl	chThdYield
 1650              	.LVL161:
 1651              		.loc 1 410 5 discriminator 1 view .LVU399
 1652 0014 FEFFFFEB 		bl	chThdYield
 1653              	.LVL162:
ARM GAS  /var/folders/l5/0x54b2c10074c8bt31ycjvl80000gp/T//cclkDCON.s 			page 30


 1654              		.loc 1 411 5 discriminator 1 view .LVU400
 1655 0018 FEFFFFEB 		bl	chThdYield
 1656              	.LVL163:
 1657              		.loc 1 412 5 discriminator 1 view .LVU401
 1658              		.loc 1 412 22 is_stmt 0 discriminator 1 view .LVU402
 1659 001c 003094E5 		ldr	r3, [r4]
 1660              		.loc 1 416 12 discriminator 1 view .LVU403
 1661 0020 182095E5 		ldr	r2, [r5, #24]
 1662              		.loc 1 412 22 discriminator 1 view .LVU404
 1663 0024 043083E2 		add	r3, r3, #4
 1664 0028 003084E5 		str	r3, [r4]
 1665              		.loc 1 416 3 discriminator 1 view .LVU405
 1666 002c 1D30D2E5 		ldrb	r3, [r2, #29]	@ zero_extendqisi2
 1667 0030 040013E3 		tst	r3, #4
 1668 0034 F4FFFF0A 		beq	.L85
 1669              		.loc 1 417 3 is_stmt 1 view .LVU406
 1670              		.loc 1 418 1 is_stmt 0 view .LVU407
 1671 0038 0000A0E3 		mov	r0, #0
 1672 003c 7080BDE8 		pop	{r4, r5, r6, pc}
 1673              	.L90:
 1674              		.align	2
 1675              	.L89:
 1676 0040 00000000 		.word	rlist
 1677              		.cfi_endproc
 1678              	.LFE20:
 1679              		.size	thread8, .-thread8
 1680              		.section	.text.bmk9_execute,"ax",%progbits
 1681              		.align	2
 1682              		.syntax unified
 1683              		.arm
 1684              		.fpu softvfp
 1685              		.type	bmk9_execute, %function
 1686              	bmk9_execute:
 1687              	.LFB22:
 1688              		.loc 1 458 32 is_stmt 1 view -0
 1689              		.cfi_startproc
 1690              		@ args = 0, pretend = 0, frame = 0
 1691              		@ frame_needed = 0, uses_anonymous_args = 0
 1692              		.loc 1 459 3 view .LVU409
 1693              		.loc 1 460 3 view .LVU410
 1694              		.loc 1 461 3 view .LVU411
 1695              		.loc 1 463 3 view .LVU412
 1696              		.loc 1 458 32 is_stmt 0 view .LVU413
 1697 0000 70402DE9 		push	{r4, r5, r6, lr}
 1698              		.cfi_def_cfa_offset 16
 1699              		.cfi_offset 4, -16
 1700              		.cfi_offset 5, -12
 1701              		.cfi_offset 6, -8
 1702              		.cfi_offset 14, -4
 1703              		.loc 1 463 3 view .LVU414
 1704 0004 0050A0E3 		mov	r5, #0
 1705              		.loc 1 458 32 view .LVU415
 1706 0008 08D04DE2 		sub	sp, sp, #8
 1707              		.cfi_def_cfa_offset 24
 1708              		.loc 1 463 3 view .LVU416
 1709 000c 1020A0E3 		mov	r2, #16
 1710 0010 0530A0E1 		mov	r3, r5
ARM GAS  /var/folders/l5/0x54b2c10074c8bt31ycjvl80000gp/T//cclkDCON.s 			page 31


 1711 0014 B4109FE5 		ldr	r1, .L96
 1712 0018 B4009FE5 		ldr	r0, .L96+4
 1713 001c 00508DE5 		str	r5, [sp]
 1714 0020 FEFFFFEB 		bl	chIQInit
 1715              	.LVL164:
 1716              		.loc 1 464 3 is_stmt 1 view .LVU417
 1717              		.loc 1 465 3 view .LVU418
 1718 0024 FEFFFFEB 		bl	test_wait_tick
 1719              	.LVL165:
 1720              		.loc 1 466 3 view .LVU419
 1721 0028 FA0FA0E3 		mov	r0, #1000
 1722 002c FEFFFFEB 		bl	test_start_timer
 1723              	.LVL166:
 1724 0030 A0609FE5 		ldr	r6, .L96+8
 1725              		.loc 1 469 5 is_stmt 0 view .LVU420
 1726 0034 98409FE5 		ldr	r4, .L96+4
 1727              	.LVL167:
 1728              	.L92:
 1729              		.loc 1 467 3 is_stmt 1 discriminator 1 view .LVU421
 1730              		.loc 1 468 5 discriminator 1 view .LVU422
 1731              		.syntax divided
 1732              	@ 468 "../../test/testbmk.c" 1
 1733 0038 9FF021E3 		msr     CPSR_c, #0x9F
 1734              	@ 0 "" 2
 1735              		.loc 1 468 5 discriminator 1 view .LVU423
 1736              		.loc 1 468 16 discriminator 1 view .LVU424
 1737              		.loc 1 469 5 discriminator 1 view .LVU425
 1738              		.arm
 1739              		.syntax unified
 1740 003c 0010A0E3 		mov	r1, #0
 1741 0040 0400A0E1 		mov	r0, r4
 1742 0044 FEFFFFEB 		bl	chIQPutI
 1743              	.LVL168:
 1744              		.loc 1 470 5 discriminator 1 view .LVU426
 1745 0048 0400A0E1 		mov	r0, r4
 1746 004c 0110A0E3 		mov	r1, #1
 1747 0050 FEFFFFEB 		bl	chIQPutI
 1748              	.LVL169:
 1749              		.loc 1 471 5 discriminator 1 view .LVU427
 1750 0054 0400A0E1 		mov	r0, r4
 1751 0058 0210A0E3 		mov	r1, #2
 1752 005c FEFFFFEB 		bl	chIQPutI
 1753              	.LVL170:
 1754              		.loc 1 472 5 discriminator 1 view .LVU428
 1755 0060 0400A0E1 		mov	r0, r4
 1756 0064 0310A0E3 		mov	r1, #3
 1757 0068 FEFFFFEB 		bl	chIQPutI
 1758              	.LVL171:
 1759              		.loc 1 473 5 discriminator 1 view .LVU429
 1760              		.loc 1 473 5 discriminator 1 view .LVU430
 1761              		.syntax divided
 1762              	@ 473 "../../test/testbmk.c" 1
 1763 006c 1FF021E3 		msr     CPSR_c, #0x1F
 1764              	@ 0 "" 2
 1765              		.loc 1 473 18 discriminator 1 view .LVU431
 1766              		.loc 1 474 5 discriminator 1 view .LVU432
 1767              		.loc 1 474 11 is_stmt 0 discriminator 1 view .LVU433
ARM GAS  /var/folders/l5/0x54b2c10074c8bt31ycjvl80000gp/T//cclkDCON.s 			page 32


 1768              		.arm
 1769              		.syntax unified
 1770 0070 0010E0E3 		mvn	r1, #0
 1771 0074 0400A0E1 		mov	r0, r4
 1772 0078 FEFFFFEB 		bl	chIQGetTimeout
 1773              	.LVL172:
 1774              		.loc 1 475 5 is_stmt 1 discriminator 1 view .LVU434
 1775              		.loc 1 475 11 is_stmt 0 discriminator 1 view .LVU435
 1776 007c 0010E0E3 		mvn	r1, #0
 1777 0080 0400A0E1 		mov	r0, r4
 1778 0084 FEFFFFEB 		bl	chIQGetTimeout
 1779              	.LVL173:
 1780              		.loc 1 476 5 is_stmt 1 discriminator 1 view .LVU436
 1781              		.loc 1 476 11 is_stmt 0 discriminator 1 view .LVU437
 1782 0088 0010E0E3 		mvn	r1, #0
 1783 008c 0400A0E1 		mov	r0, r4
 1784 0090 FEFFFFEB 		bl	chIQGetTimeout
 1785              	.LVL174:
 1786              		.loc 1 477 5 is_stmt 1 discriminator 1 view .LVU438
 1787              		.loc 1 477 11 is_stmt 0 discriminator 1 view .LVU439
 1788 0094 0400A0E1 		mov	r0, r4
 1789 0098 0010E0E3 		mvn	r1, #0
 1790 009c FEFFFFEB 		bl	chIQGetTimeout
 1791              	.LVL175:
 1792              		.loc 1 478 5 is_stmt 1 discriminator 1 view .LVU440
 1793              		.loc 1 482 3 is_stmt 0 discriminator 1 view .LVU441
 1794 00a0 003096E5 		ldr	r3, [r6]
 1795              		.loc 1 478 6 discriminator 1 view .LVU442
 1796 00a4 015085E2 		add	r5, r5, #1
 1797              	.LVL176:
 1798              		.loc 1 482 3 discriminator 1 view .LVU443
 1799 00a8 000053E3 		cmp	r3, #0
 1800 00ac E1FFFF0A 		beq	.L92
 1801              		.loc 1 483 3 is_stmt 1 view .LVU444
 1802 00b0 24009FE5 		ldr	r0, .L96+12
 1803 00b4 FEFFFFEB 		bl	test_print
 1804              	.LVL177:
 1805              		.loc 1 484 3 view .LVU445
 1806 00b8 0501A0E1 		lsl	r0, r5, #2
 1807 00bc FEFFFFEB 		bl	test_printn
 1808              	.LVL178:
 1809              		.loc 1 485 3 view .LVU446
 1810 00c0 18009FE5 		ldr	r0, .L96+16
 1811              		.loc 1 486 1 is_stmt 0 view .LVU447
 1812 00c4 08D08DE2 		add	sp, sp, #8
 1813              		.cfi_def_cfa_offset 16
 1814              		@ sp needed
 1815 00c8 7040BDE8 		pop	{r4, r5, r6, lr}
 1816              		.cfi_restore 14
 1817              		.cfi_restore 6
 1818              		.cfi_restore 5
 1819              		.cfi_restore 4
 1820              		.cfi_def_cfa_offset 0
 1821              	.LVL179:
 1822              		.loc 1 485 3 view .LVU448
 1823 00cc FEFFFFEA 		b	test_println
 1824              	.LVL180:
ARM GAS  /var/folders/l5/0x54b2c10074c8bt31ycjvl80000gp/T//cclkDCON.s 			page 33


 1825              	.L97:
 1826              		.align	2
 1827              	.L96:
 1828 00d0 00000000 		.word	.LANCHOR1
 1829 00d4 00000000 		.word	.LANCHOR2
 1830 00d8 00000000 		.word	test_timer_done
 1831 00dc 00000000 		.word	.LC11
 1832 00e0 00000000 		.word	.LC16
 1833              		.cfi_endproc
 1834              	.LFE22:
 1835              		.size	bmk9_execute, .-bmk9_execute
 1836              		.section	.text.bmk10_execute,"ax",%progbits
 1837              		.align	2
 1838              		.syntax unified
 1839              		.arm
 1840              		.fpu softvfp
 1841              		.type	bmk10_execute, %function
 1842              	bmk10_execute:
 1843              	.LFB24:
 1844              		.loc 1 506 33 is_stmt 1 view -0
 1845              		.cfi_startproc
 1846              		@ args = 0, pretend = 0, frame = 0
 1847              		@ frame_needed = 0, uses_anonymous_args = 0
 1848              		.loc 1 507 3 view .LVU450
 1849              		.loc 1 508 3 view .LVU451
 1850              	.LVL181:
 1851              		.loc 1 510 3 view .LVU452
 1852              		.loc 1 506 33 is_stmt 0 view .LVU453
 1853 0000 F0412DE9 		push	{r4, r5, r6, r7, r8, lr}
 1854              		.cfi_def_cfa_offset 24
 1855              		.cfi_offset 4, -24
 1856              		.cfi_offset 5, -20
 1857              		.cfi_offset 6, -16
 1858              		.cfi_offset 7, -12
 1859              		.cfi_offset 8, -8
 1860              		.cfi_offset 14, -4
 1861              		.loc 1 510 3 view .LVU454
 1862 0004 FEFFFFEB 		bl	test_wait_tick
 1863              	.LVL182:
 1864              		.loc 1 511 3 is_stmt 1 view .LVU455
 1865 0008 FA0FA0E3 		mov	r0, #1000
 1866 000c FEFFFFEB 		bl	test_start_timer
 1867              	.LVL183:
 1868              		.loc 1 508 12 is_stmt 0 view .LVU456
 1869 0010 0040A0E3 		mov	r4, #0
 1870 0014 74809FE5 		ldr	r8, .L103
 1871              		.loc 1 514 5 view .LVU457
 1872 0018 74709FE5 		ldr	r7, .L103+4
 1873 001c 74609FE5 		ldr	r6, .L103+8
 1874              		.loc 1 515 5 view .LVU458
 1875 0020 74509FE5 		ldr	r5, .L103+12
 1876              	.LVL184:
 1877              	.L99:
 1878              		.loc 1 512 3 is_stmt 1 discriminator 1 view .LVU459
 1879              		.loc 1 513 5 discriminator 1 view .LVU460
 1880              		.syntax divided
 1881              	@ 513 "../../test/testbmk.c" 1
ARM GAS  /var/folders/l5/0x54b2c10074c8bt31ycjvl80000gp/T//cclkDCON.s 			page 34


 1882 0024 9FF021E3 		msr     CPSR_c, #0x9F
 1883              	@ 0 "" 2
 1884              		.loc 1 513 5 discriminator 1 view .LVU461
 1885              		.loc 1 513 16 discriminator 1 view .LVU462
 1886              		.loc 1 514 5 discriminator 1 view .LVU463
 1887              		.arm
 1888              		.syntax unified
 1889 0028 0030A0E3 		mov	r3, #0
 1890 002c 0720A0E1 		mov	r2, r7
 1891 0030 0600A0E1 		mov	r0, r6
 1892 0034 0110A0E3 		mov	r1, #1
 1893 0038 FEFFFFEB 		bl	chVTSetI
 1894              	.LVL185:
 1895              		.loc 1 515 5 discriminator 1 view .LVU464
 1896 003c 0720A0E1 		mov	r2, r7
 1897 0040 0030A0E3 		mov	r3, #0
 1898 0044 54109FE5 		ldr	r1, .L103+16
 1899 0048 0500A0E1 		mov	r0, r5
 1900 004c FEFFFFEB 		bl	chVTSetI
 1901              	.LVL186:
 1902              		.loc 1 516 5 discriminator 1 view .LVU465
 1903 0050 0600A0E1 		mov	r0, r6
 1904 0054 FEFFFFEB 		bl	chVTResetI
 1905              	.LVL187:
 1906              		.loc 1 517 5 discriminator 1 view .LVU466
 1907 0058 0500A0E1 		mov	r0, r5
 1908 005c FEFFFFEB 		bl	chVTResetI
 1909              	.LVL188:
 1910              		.loc 1 518 5 discriminator 1 view .LVU467
 1911              		.loc 1 518 5 discriminator 1 view .LVU468
 1912              		.syntax divided
 1913              	@ 518 "../../test/testbmk.c" 1
 1914 0060 1FF021E3 		msr     CPSR_c, #0x1F
 1915              	@ 0 "" 2
 1916              		.loc 1 518 18 discriminator 1 view .LVU469
 1917              		.loc 1 519 5 discriminator 1 view .LVU470
 1918              		.loc 1 523 3 is_stmt 0 discriminator 1 view .LVU471
 1919              		.arm
 1920              		.syntax unified
 1921 0064 003098E5 		ldr	r3, [r8]
 1922              		.loc 1 519 6 discriminator 1 view .LVU472
 1923 0068 014084E2 		add	r4, r4, #1
 1924              	.LVL189:
 1925              		.loc 1 523 3 discriminator 1 view .LVU473
 1926 006c 000053E3 		cmp	r3, #0
 1927 0070 EBFFFF0A 		beq	.L99
 1928              		.loc 1 524 3 is_stmt 1 view .LVU474
 1929 0074 28009FE5 		ldr	r0, .L103+20
 1930 0078 FEFFFFEB 		bl	test_print
 1931              	.LVL190:
 1932              		.loc 1 525 3 view .LVU475
 1933 007c 8400A0E1 		lsl	r0, r4, #1
 1934 0080 FEFFFFEB 		bl	test_printn
 1935              	.LVL191:
 1936              		.loc 1 526 3 view .LVU476
 1937              		.loc 1 527 1 is_stmt 0 view .LVU477
 1938 0084 F041BDE8 		pop	{r4, r5, r6, r7, r8, lr}
ARM GAS  /var/folders/l5/0x54b2c10074c8bt31ycjvl80000gp/T//cclkDCON.s 			page 35


 1939              		.cfi_restore 14
 1940              		.cfi_restore 8
 1941              		.cfi_restore 7
 1942              		.cfi_restore 6
 1943              		.cfi_restore 5
 1944              		.cfi_restore 4
 1945              		.cfi_def_cfa_offset 0
 1946              	.LVL192:
 1947              		.loc 1 526 3 view .LVU478
 1948 0088 18009FE5 		ldr	r0, .L103+24
 1949 008c FEFFFFEA 		b	test_println
 1950              	.LVL193:
 1951              	.L104:
 1952              		.align	2
 1953              	.L103:
 1954 0090 00000000 		.word	test_timer_done
 1955 0094 00000000 		.word	tmo
 1956 0098 00000000 		.word	.LANCHOR3
 1957 009c 00000000 		.word	.LANCHOR4
 1958 00a0 10270000 		.word	10000
 1959 00a4 00000000 		.word	.LC11
 1960 00a8 00000000 		.word	.LC17
 1961              		.cfi_endproc
 1962              	.LFE24:
 1963              		.size	bmk10_execute, .-bmk10_execute
 1964              		.section	.text.bmk11_execute,"ax",%progbits
 1965              		.align	2
 1966              		.syntax unified
 1967              		.arm
 1968              		.fpu softvfp
 1969              		.type	bmk11_execute, %function
 1970              	bmk11_execute:
 1971              	.LFB26:
 1972              		.loc 1 551 33 is_stmt 1 view -0
 1973              		.cfi_startproc
 1974              		@ args = 0, pretend = 0, frame = 0
 1975              		@ frame_needed = 0, uses_anonymous_args = 0
 1976              		.loc 1 552 3 view .LVU480
 1977              	.LVL194:
 1978              		.loc 1 554 3 view .LVU481
 1979              		.loc 1 551 33 is_stmt 0 view .LVU482
 1980 0000 70402DE9 		push	{r4, r5, r6, lr}
 1981              		.cfi_def_cfa_offset 16
 1982              		.cfi_offset 4, -16
 1983              		.cfi_offset 5, -12
 1984              		.cfi_offset 6, -8
 1985              		.cfi_offset 14, -4
 1986              		.loc 1 554 3 view .LVU483
 1987 0004 FEFFFFEB 		bl	test_wait_tick
 1988              	.LVL195:
 1989              		.loc 1 555 3 is_stmt 1 view .LVU484
 1990 0008 FA0FA0E3 		mov	r0, #1000
 1991 000c FEFFFFEB 		bl	test_start_timer
 1992              	.LVL196:
 1993              		.loc 1 552 12 is_stmt 0 view .LVU485
 1994 0010 0050A0E3 		mov	r5, #0
 1995 0014 6C609FE5 		ldr	r6, .L110
ARM GAS  /var/folders/l5/0x54b2c10074c8bt31ycjvl80000gp/T//cclkDCON.s 			page 36


 1996              		.loc 1 557 5 view .LVU486
 1997 0018 6C409FE5 		ldr	r4, .L110+4
 1998              	.LVL197:
 1999              	.L106:
 2000              		.loc 1 556 3 is_stmt 1 discriminator 1 view .LVU487
 2001              		.loc 1 557 5 discriminator 1 view .LVU488
 2002 001c 0400A0E1 		mov	r0, r4
 2003 0020 FEFFFFEB 		bl	chSemWait
 2004              	.LVL198:
 2005              		.loc 1 558 5 discriminator 1 view .LVU489
 2006 0024 0400A0E1 		mov	r0, r4
 2007 0028 FEFFFFEB 		bl	chSemSignal
 2008              	.LVL199:
 2009              		.loc 1 559 5 discriminator 1 view .LVU490
 2010 002c 0400A0E1 		mov	r0, r4
 2011 0030 FEFFFFEB 		bl	chSemWait
 2012              	.LVL200:
 2013              		.loc 1 560 5 discriminator 1 view .LVU491
 2014 0034 0400A0E1 		mov	r0, r4
 2015 0038 FEFFFFEB 		bl	chSemSignal
 2016              	.LVL201:
 2017              		.loc 1 561 5 discriminator 1 view .LVU492
 2018 003c 0400A0E1 		mov	r0, r4
 2019 0040 FEFFFFEB 		bl	chSemWait
 2020              	.LVL202:
 2021              		.loc 1 562 5 discriminator 1 view .LVU493
 2022 0044 0400A0E1 		mov	r0, r4
 2023 0048 FEFFFFEB 		bl	chSemSignal
 2024              	.LVL203:
 2025              		.loc 1 563 5 discriminator 1 view .LVU494
 2026 004c 0400A0E1 		mov	r0, r4
 2027 0050 FEFFFFEB 		bl	chSemWait
 2028              	.LVL204:
 2029              		.loc 1 564 5 discriminator 1 view .LVU495
 2030 0054 0400A0E1 		mov	r0, r4
 2031 0058 FEFFFFEB 		bl	chSemSignal
 2032              	.LVL205:
 2033              		.loc 1 565 5 discriminator 1 view .LVU496
 2034              		.loc 1 569 3 is_stmt 0 discriminator 1 view .LVU497
 2035 005c 003096E5 		ldr	r3, [r6]
 2036              		.loc 1 565 6 discriminator 1 view .LVU498
 2037 0060 015085E2 		add	r5, r5, #1
 2038              	.LVL206:
 2039              		.loc 1 569 3 discriminator 1 view .LVU499
 2040 0064 000053E3 		cmp	r3, #0
 2041 0068 EBFFFF0A 		beq	.L106
 2042              		.loc 1 570 3 is_stmt 1 view .LVU500
 2043 006c 1C009FE5 		ldr	r0, .L110+8
 2044 0070 FEFFFFEB 		bl	test_print
 2045              	.LVL207:
 2046              		.loc 1 571 3 view .LVU501
 2047 0074 0501A0E1 		lsl	r0, r5, #2
 2048 0078 FEFFFFEB 		bl	test_printn
 2049              	.LVL208:
 2050              		.loc 1 572 3 view .LVU502
 2051              		.loc 1 573 1 is_stmt 0 view .LVU503
 2052 007c 7040BDE8 		pop	{r4, r5, r6, lr}
ARM GAS  /var/folders/l5/0x54b2c10074c8bt31ycjvl80000gp/T//cclkDCON.s 			page 37


 2053              		.cfi_restore 14
 2054              		.cfi_restore 6
 2055              		.cfi_restore 5
 2056              		.cfi_restore 4
 2057              		.cfi_def_cfa_offset 0
 2058              	.LVL209:
 2059              		.loc 1 572 3 view .LVU504
 2060 0080 0C009FE5 		ldr	r0, .L110+12
 2061 0084 FEFFFFEA 		b	test_println
 2062              	.LVL210:
 2063              	.L111:
 2064              		.align	2
 2065              	.L110:
 2066 0088 00000000 		.word	test_timer_done
 2067 008c 00000000 		.word	.LANCHOR0
 2068 0090 00000000 		.word	.LC11
 2069 0094 00000000 		.word	.LC18
 2070              		.cfi_endproc
 2071              	.LFE26:
 2072              		.size	bmk11_execute, .-bmk11_execute
 2073              		.section	.text.bmk12_execute,"ax",%progbits
 2074              		.align	2
 2075              		.syntax unified
 2076              		.arm
 2077              		.fpu softvfp
 2078              		.type	bmk12_execute, %function
 2079              	bmk12_execute:
 2080              	.LFB28:
 2081              		.loc 1 598 33 is_stmt 1 view -0
 2082              		.cfi_startproc
 2083              		@ args = 0, pretend = 0, frame = 0
 2084              		@ frame_needed = 0, uses_anonymous_args = 0
 2085              		.loc 1 599 3 view .LVU506
 2086              	.LVL211:
 2087              		.loc 1 601 3 view .LVU507
 2088              		.loc 1 598 33 is_stmt 0 view .LVU508
 2089 0000 70402DE9 		push	{r4, r5, r6, lr}
 2090              		.cfi_def_cfa_offset 16
 2091              		.cfi_offset 4, -16
 2092              		.cfi_offset 5, -12
 2093              		.cfi_offset 6, -8
 2094              		.cfi_offset 14, -4
 2095              		.loc 1 601 3 view .LVU509
 2096 0004 FEFFFFEB 		bl	test_wait_tick
 2097              	.LVL212:
 2098              		.loc 1 602 3 is_stmt 1 view .LVU510
 2099 0008 FA0FA0E3 		mov	r0, #1000
 2100 000c FEFFFFEB 		bl	test_start_timer
 2101              	.LVL213:
 2102              		.loc 1 599 12 is_stmt 0 view .LVU511
 2103 0010 0050A0E3 		mov	r5, #0
 2104 0014 5C609FE5 		ldr	r6, .L117
 2105              		.loc 1 604 5 view .LVU512
 2106 0018 5C409FE5 		ldr	r4, .L117+4
 2107              	.LVL214:
 2108              	.L113:
 2109              		.loc 1 603 3 is_stmt 1 discriminator 1 view .LVU513
ARM GAS  /var/folders/l5/0x54b2c10074c8bt31ycjvl80000gp/T//cclkDCON.s 			page 38


 2110              		.loc 1 604 5 discriminator 1 view .LVU514
 2111 001c 0400A0E1 		mov	r0, r4
 2112 0020 FEFFFFEB 		bl	chMtxLock
 2113              	.LVL215:
 2114              		.loc 1 605 5 discriminator 1 view .LVU515
 2115 0024 FEFFFFEB 		bl	chMtxUnlock
 2116              	.LVL216:
 2117              		.loc 1 606 5 discriminator 1 view .LVU516
 2118 0028 0400A0E1 		mov	r0, r4
 2119 002c FEFFFFEB 		bl	chMtxLock
 2120              	.LVL217:
 2121              		.loc 1 607 5 discriminator 1 view .LVU517
 2122 0030 FEFFFFEB 		bl	chMtxUnlock
 2123              	.LVL218:
 2124              		.loc 1 608 5 discriminator 1 view .LVU518
 2125 0034 0400A0E1 		mov	r0, r4
 2126 0038 FEFFFFEB 		bl	chMtxLock
 2127              	.LVL219:
 2128              		.loc 1 609 5 discriminator 1 view .LVU519
 2129 003c FEFFFFEB 		bl	chMtxUnlock
 2130              	.LVL220:
 2131              		.loc 1 610 5 discriminator 1 view .LVU520
 2132 0040 0400A0E1 		mov	r0, r4
 2133 0044 FEFFFFEB 		bl	chMtxLock
 2134              	.LVL221:
 2135              		.loc 1 611 5 discriminator 1 view .LVU521
 2136 0048 FEFFFFEB 		bl	chMtxUnlock
 2137              	.LVL222:
 2138              		.loc 1 612 5 discriminator 1 view .LVU522
 2139              		.loc 1 616 3 is_stmt 0 discriminator 1 view .LVU523
 2140 004c 003096E5 		ldr	r3, [r6]
 2141              		.loc 1 612 6 discriminator 1 view .LVU524
 2142 0050 015085E2 		add	r5, r5, #1
 2143              	.LVL223:
 2144              		.loc 1 616 3 discriminator 1 view .LVU525
 2145 0054 000053E3 		cmp	r3, #0
 2146 0058 EFFFFF0A 		beq	.L113
 2147              		.loc 1 617 3 is_stmt 1 view .LVU526
 2148 005c 1C009FE5 		ldr	r0, .L117+8
 2149 0060 FEFFFFEB 		bl	test_print
 2150              	.LVL224:
 2151              		.loc 1 618 3 view .LVU527
 2152 0064 0501A0E1 		lsl	r0, r5, #2
 2153 0068 FEFFFFEB 		bl	test_printn
 2154              	.LVL225:
 2155              		.loc 1 619 3 view .LVU528
 2156              		.loc 1 620 1 is_stmt 0 view .LVU529
 2157 006c 7040BDE8 		pop	{r4, r5, r6, lr}
 2158              		.cfi_restore 14
 2159              		.cfi_restore 6
 2160              		.cfi_restore 5
 2161              		.cfi_restore 4
 2162              		.cfi_def_cfa_offset 0
 2163              	.LVL226:
 2164              		.loc 1 619 3 view .LVU530
 2165 0070 0C009FE5 		ldr	r0, .L117+12
 2166 0074 FEFFFFEA 		b	test_println
ARM GAS  /var/folders/l5/0x54b2c10074c8bt31ycjvl80000gp/T//cclkDCON.s 			page 39


 2167              	.LVL227:
 2168              	.L118:
 2169              		.align	2
 2170              	.L117:
 2171 0078 00000000 		.word	test_timer_done
 2172 007c 00000000 		.word	.LANCHOR5
 2173 0080 00000000 		.word	.LC11
 2174 0084 00000000 		.word	.LC19
 2175              		.cfi_endproc
 2176              	.LFE28:
 2177              		.size	bmk12_execute, .-bmk12_execute
 2178              		.section	.text.bmk12_setup,"ax",%progbits
 2179              		.align	2
 2180              		.syntax unified
 2181              		.arm
 2182              		.fpu softvfp
 2183              		.type	bmk12_setup, %function
 2184              	bmk12_setup:
 2185              	.LFB27:
 2186              		.loc 1 593 31 is_stmt 1 view -0
 2187              		.cfi_startproc
 2188              		@ args = 0, pretend = 0, frame = 0
 2189              		@ frame_needed = 0, uses_anonymous_args = 0
 2190              		@ link register save eliminated.
 2191              		.loc 1 595 3 view .LVU532
 2192 0000 00009FE5 		ldr	r0, .L120
 2193 0004 FEFFFFEA 		b	chMtxInit
 2194              	.LVL228:
 2195              	.L121:
 2196              		.align	2
 2197              	.L120:
 2198 0008 00000000 		.word	.LANCHOR5
 2199              		.cfi_endproc
 2200              	.LFE27:
 2201              		.size	bmk12_setup, .-bmk12_setup
 2202              		.global	patternbmk
 2203              		.global	testbmk13
 2204              		.global	testbmk12
 2205              		.global	testbmk11
 2206              		.global	testbmk10
 2207              		.global	testbmk9
 2208              		.global	testbmk8
 2209              		.global	testbmk7
 2210              		.global	testbmk6
 2211              		.global	testbmk5
 2212              		.global	testbmk4
 2213              		.global	testbmk3
 2214              		.global	testbmk2
 2215              		.global	testbmk1
 2216              		.section	.bss.ib.4957,"aw",%nobits
 2217              		.align	2
 2218              		.set	.LANCHOR1,. + 0
 2219              		.type	ib.4957, %object
 2220              		.size	ib.4957, 16
 2221              	ib.4957:
 2222 0000 00000000 		.space	16
 2222      00000000 
ARM GAS  /var/folders/l5/0x54b2c10074c8bt31ycjvl80000gp/T//cclkDCON.s 			page 40


 2222      00000000 
 2222      00000000 
 2223              		.section	.bss.iq.4958,"aw",%nobits
 2224              		.align	2
 2225              		.set	.LANCHOR2,. + 0
 2226              		.type	iq.4958, %object
 2227              		.size	iq.4958, 36
 2228              	iq.4958:
 2229 0000 00000000 		.space	36
 2229      00000000 
 2229      00000000 
 2229      00000000 
 2229      00000000 
 2230              		.section	.bss.mtx1,"aw",%nobits
 2231              		.align	2
 2232              		.set	.LANCHOR5,. + 0
 2233              		.type	mtx1, %object
 2234              		.size	mtx1, 16
 2235              	mtx1:
 2236 0000 00000000 		.space	16
 2236      00000000 
 2236      00000000 
 2236      00000000 
 2237              		.section	.bss.sem1,"aw",%nobits
 2238              		.align	2
 2239              		.set	.LANCHOR0,. + 0
 2240              		.type	sem1, %object
 2241              		.size	sem1, 12
 2242              	sem1:
 2243 0000 00000000 		.space	12
 2243      00000000 
 2243      00000000 
 2244              		.section	.bss.vt1.4968,"aw",%nobits
 2245              		.align	2
 2246              		.set	.LANCHOR3,. + 0
 2247              		.type	vt1.4968, %object
 2248              		.size	vt1.4968, 20
 2249              	vt1.4968:
 2250 0000 00000000 		.space	20
 2250      00000000 
 2250      00000000 
 2250      00000000 
 2250      00000000 
 2251              		.section	.bss.vt2.4969,"aw",%nobits
 2252              		.align	2
 2253              		.set	.LANCHOR4,. + 0
 2254              		.type	vt2.4969, %object
 2255              		.size	vt2.4969, 20
 2256              	vt2.4969:
 2257 0000 00000000 		.space	20
 2257      00000000 
 2257      00000000 
 2257      00000000 
 2257      00000000 
 2258              		.section	.rodata.bmk10_execute.str1.4,"aMS",%progbits,1
 2259              		.align	2
 2260              	.LC17:
ARM GAS  /var/folders/l5/0x54b2c10074c8bt31ycjvl80000gp/T//cclkDCON.s 			page 41


 2261 0000 2074696D 		.ascii	" timers/S\000"
 2261      6572732F 
 2261      5300
 2262              		.section	.rodata.bmk11_execute.str1.4,"aMS",%progbits,1
 2263              		.align	2
 2264              	.LC18:
 2265 0000 20776169 		.ascii	" wait+signal/S\000"
 2265      742B7369 
 2265      676E616C 
 2265      2F5300
 2266              		.section	.rodata.bmk12_execute.str1.4,"aMS",%progbits,1
 2267              		.align	2
 2268              	.LC19:
 2269 0000 206C6F63 		.ascii	" lock+unlock/S\000"
 2269      6B2B756E 
 2269      6C6F636B 
 2269      2F5300
 2270              		.section	.rodata.bmk13_execute.str1.4,"aMS",%progbits,1
 2271              		.align	2
 2272              	.LC0:
 2273 0000 2D2D2D20 		.ascii	"--- System: \000"
 2273      53797374 
 2273      656D3A20 
 2273      00
 2274 000d 000000   		.space	3
 2275              	.LC1:
 2276 0010 20627974 		.ascii	" bytes\000"
 2276      657300
 2277 0017 00       		.space	1
 2278              	.LC2:
 2279 0018 2D2D2D20 		.ascii	"--- Thread: \000"
 2279      54687265 
 2279      61643A20 
 2279      00
 2280 0025 000000   		.space	3
 2281              	.LC3:
 2282 0028 2D2D2D20 		.ascii	"--- Timer : \000"
 2282      54696D65 
 2282      72203A20 
 2282      00
 2283 0035 000000   		.space	3
 2284              	.LC4:
 2285 0038 2D2D2D20 		.ascii	"--- Semaph: \000"
 2285      53656D61 
 2285      70683A20 
 2285      00
 2286 0045 000000   		.space	3
 2287              	.LC5:
 2288 0048 2D2D2D20 		.ascii	"--- EventS: \000"
 2288      4576656E 
 2288      74533A20 
 2288      00
 2289 0055 000000   		.space	3
 2290              	.LC6:
 2291 0058 2D2D2D20 		.ascii	"--- EventL: \000"
 2291      4576656E 
 2291      744C3A20 
ARM GAS  /var/folders/l5/0x54b2c10074c8bt31ycjvl80000gp/T//cclkDCON.s 			page 42


 2291      00
 2292 0065 000000   		.space	3
 2293              	.LC7:
 2294 0068 2D2D2D20 		.ascii	"--- Mutex : \000"
 2294      4D757465 
 2294      78203A20 
 2294      00
 2295 0075 000000   		.space	3
 2296              	.LC8:
 2297 0078 2D2D2D20 		.ascii	"--- CondV.: \000"
 2297      436F6E64 
 2297      562E3A20 
 2297      00
 2298 0085 000000   		.space	3
 2299              	.LC9:
 2300 0088 2D2D2D20 		.ascii	"--- Queue : \000"
 2300      51756575 
 2300      65203A20 
 2300      00
 2301 0095 000000   		.space	3
 2302              	.LC10:
 2303 0098 2D2D2D20 		.ascii	"--- MailB.: \000"
 2303      4D61696C 
 2303      422E3A20 
 2303      00
 2304              		.section	.rodata.bmk1_execute.str1.4,"aMS",%progbits,1
 2305              		.align	2
 2306              	.LC13:
 2307 0000 206D7367 		.ascii	" msgs/S, \000"
 2307      732F532C 
 2307      2000
 2308 000a 0000     		.space	2
 2309              	.LC14:
 2310 000c 20637478 		.ascii	" ctxswc/S\000"
 2310      7377632F 
 2310      5300
 2311              		.section	.rodata.bmk6_execute.str1.4,"aMS",%progbits,1
 2312              		.align	2
 2313              	.LC11:
 2314 0000 2D2D2D20 		.ascii	"--- Score : \000"
 2314      53636F72 
 2314      65203A20 
 2314      00
 2315 000d 000000   		.space	3
 2316              	.LC12:
 2317 0010 20746872 		.ascii	" threads/S\000"
 2317      65616473 
 2317      2F5300
 2318              		.section	.rodata.bmk7_execute.str1.4,"aMS",%progbits,1
 2319              		.align	2
 2320              	.LC15:
 2321 0000 20726573 		.ascii	" reschedules/S, \000"
 2321      63686564 
 2321      756C6573 
 2321      2F532C20 
 2321      00
 2322              		.section	.rodata.bmk9_execute.str1.4,"aMS",%progbits,1
ARM GAS  /var/folders/l5/0x54b2c10074c8bt31ycjvl80000gp/T//cclkDCON.s 			page 43


 2323              		.align	2
 2324              	.LC16:
 2325 0000 20627974 		.ascii	" bytes/S\000"
 2325      65732F53 
 2325      00
 2326              		.section	.rodata.patternbmk,"a"
 2327              		.align	2
 2328              		.type	patternbmk, %object
 2329              		.size	patternbmk, 56
 2330              	patternbmk:
 2331 0000 00000000 		.word	testbmk1
 2332 0004 00000000 		.word	testbmk2
 2333 0008 00000000 		.word	testbmk3
 2334 000c 00000000 		.word	testbmk4
 2335 0010 00000000 		.word	testbmk5
 2336 0014 00000000 		.word	testbmk6
 2337 0018 00000000 		.word	testbmk7
 2338 001c 00000000 		.word	testbmk8
 2339 0020 00000000 		.word	testbmk9
 2340 0024 00000000 		.word	testbmk10
 2341 0028 00000000 		.word	testbmk11
 2342 002c 00000000 		.word	testbmk12
 2343 0030 00000000 		.word	testbmk13
 2344 0034 00000000 		.word	0
 2345              		.section	.rodata.str1.4,"aMS",%progbits,1
 2346              		.align	2
 2347              	.LC20:
 2348 0000 42656E63 		.ascii	"Benchmark, RAM footprint\000"
 2348      686D6172 
 2348      6B2C2052 
 2348      414D2066 
 2348      6F6F7470 
 2349 0019 000000   		.space	3
 2350              	.LC21:
 2351 001c 42656E63 		.ascii	"Benchmark, mutexes lock/unlock\000"
 2351      686D6172 
 2351      6B2C206D 
 2351      75746578 
 2351      6573206C 
 2352 003b 00       		.space	1
 2353              	.LC22:
 2354 003c 42656E63 		.ascii	"Benchmark, semaphores wait/signal\000"
 2354      686D6172 
 2354      6B2C2073 
 2354      656D6170 
 2354      686F7265 
 2355 005e 0000     		.space	2
 2356              	.LC23:
 2357 0060 42656E63 		.ascii	"Benchmark, virtual timers set/reset\000"
 2357      686D6172 
 2357      6B2C2076 
 2357      69727475 
 2357      616C2074 
 2358              	.LC24:
 2359 0084 42656E63 		.ascii	"Benchmark, I/O Queues throughput\000"
 2359      686D6172 
 2359      6B2C2049 
ARM GAS  /var/folders/l5/0x54b2c10074c8bt31ycjvl80000gp/T//cclkDCON.s 			page 44


 2359      2F4F2051 
 2359      75657565 
 2360 00a5 000000   		.space	3
 2361              	.LC25:
 2362 00a8 42656E63 		.ascii	"Benchmark, round robin context switching\000"
 2362      686D6172 
 2362      6B2C2072 
 2362      6F756E64 
 2362      20726F62 
 2363 00d1 000000   		.space	3
 2364              	.LC26:
 2365 00d4 42656E63 		.ascii	"Benchmark, mass reschedule, 5 threads\000"
 2365      686D6172 
 2365      6B2C206D 
 2365      61737320 
 2365      72657363 
 2366 00fa 0000     		.space	2
 2367              	.LC27:
 2368 00fc 42656E63 		.ascii	"Benchmark, threads, create only\000"
 2368      686D6172 
 2368      6B2C2074 
 2368      68726561 
 2368      64732C20 
 2369              	.LC28:
 2370 011c 42656E63 		.ascii	"Benchmark, threads, full cycle\000"
 2370      686D6172 
 2370      6B2C2074 
 2370      68726561 
 2370      64732C20 
 2371 013b 00       		.space	1
 2372              	.LC29:
 2373 013c 42656E63 		.ascii	"Benchmark, context switch\000"
 2373      686D6172 
 2373      6B2C2063 
 2373      6F6E7465 
 2373      78742073 
 2374 0156 0000     		.space	2
 2375              	.LC30:
 2376 0158 42656E63 		.ascii	"Benchmark, messages #3\000"
 2376      686D6172 
 2376      6B2C206D 
 2376      65737361 
 2376      67657320 
 2377 016f 00       		.space	1
 2378              	.LC31:
 2379 0170 42656E63 		.ascii	"Benchmark, messages #2\000"
 2379      686D6172 
 2379      6B2C206D 
 2379      65737361 
 2379      67657320 
 2380 0187 00       		.space	1
 2381              	.LC32:
 2382 0188 42656E63 		.ascii	"Benchmark, messages #1\000"
 2382      686D6172 
 2382      6B2C206D 
 2382      65737361 
 2382      67657320 
ARM GAS  /var/folders/l5/0x54b2c10074c8bt31ycjvl80000gp/T//cclkDCON.s 			page 45


 2383              		.section	.rodata.testbmk1,"a"
 2384              		.align	2
 2385              		.type	testbmk1, %object
 2386              		.size	testbmk1, 16
 2387              	testbmk1:
 2388 0000 88010000 		.word	.LC32
 2389 0004 00000000 		.word	0
 2390 0008 00000000 		.word	0
 2391 000c 00000000 		.word	bmk1_execute
 2392              		.section	.rodata.testbmk10,"a"
 2393              		.align	2
 2394              		.type	testbmk10, %object
 2395              		.size	testbmk10, 16
 2396              	testbmk10:
 2397 0000 60000000 		.word	.LC23
 2398 0004 00000000 		.word	0
 2399 0008 00000000 		.word	0
 2400 000c 00000000 		.word	bmk10_execute
 2401              		.section	.rodata.testbmk11,"a"
 2402              		.align	2
 2403              		.type	testbmk11, %object
 2404              		.size	testbmk11, 16
 2405              	testbmk11:
 2406 0000 3C000000 		.word	.LC22
 2407 0004 00000000 		.word	bmk11_setup
 2408 0008 00000000 		.word	0
 2409 000c 00000000 		.word	bmk11_execute
 2410              		.section	.rodata.testbmk12,"a"
 2411              		.align	2
 2412              		.type	testbmk12, %object
 2413              		.size	testbmk12, 16
 2414              	testbmk12:
 2415 0000 1C000000 		.word	.LC21
 2416 0004 00000000 		.word	bmk12_setup
 2417 0008 00000000 		.word	0
 2418 000c 00000000 		.word	bmk12_execute
 2419              		.section	.rodata.testbmk13,"a"
 2420              		.align	2
 2421              		.type	testbmk13, %object
 2422              		.size	testbmk13, 16
 2423              	testbmk13:
 2424 0000 00000000 		.word	.LC20
 2425 0004 00000000 		.word	0
 2426 0008 00000000 		.word	0
 2427 000c 00000000 		.word	bmk13_execute
 2428              		.section	.rodata.testbmk2,"a"
 2429              		.align	2
 2430              		.type	testbmk2, %object
 2431              		.size	testbmk2, 16
 2432              	testbmk2:
 2433 0000 70010000 		.word	.LC31
 2434 0004 00000000 		.word	0
 2435 0008 00000000 		.word	0
 2436 000c 00000000 		.word	bmk2_execute
 2437              		.section	.rodata.testbmk3,"a"
 2438              		.align	2
 2439              		.type	testbmk3, %object
ARM GAS  /var/folders/l5/0x54b2c10074c8bt31ycjvl80000gp/T//cclkDCON.s 			page 46


 2440              		.size	testbmk3, 16
 2441              	testbmk3:
 2442 0000 58010000 		.word	.LC30
 2443 0004 00000000 		.word	0
 2444 0008 00000000 		.word	0
 2445 000c 00000000 		.word	bmk3_execute
 2446              		.section	.rodata.testbmk4,"a"
 2447              		.align	2
 2448              		.type	testbmk4, %object
 2449              		.size	testbmk4, 16
 2450              	testbmk4:
 2451 0000 3C010000 		.word	.LC29
 2452 0004 00000000 		.word	0
 2453 0008 00000000 		.word	0
 2454 000c 00000000 		.word	bmk4_execute
 2455              		.section	.rodata.testbmk5,"a"
 2456              		.align	2
 2457              		.type	testbmk5, %object
 2458              		.size	testbmk5, 16
 2459              	testbmk5:
 2460 0000 1C010000 		.word	.LC28
 2461 0004 00000000 		.word	0
 2462 0008 00000000 		.word	0
 2463 000c 00000000 		.word	bmk5_execute
 2464              		.section	.rodata.testbmk6,"a"
 2465              		.align	2
 2466              		.type	testbmk6, %object
 2467              		.size	testbmk6, 16
 2468              	testbmk6:
 2469 0000 FC000000 		.word	.LC27
 2470 0004 00000000 		.word	0
 2471 0008 00000000 		.word	0
 2472 000c 00000000 		.word	bmk6_execute
 2473              		.section	.rodata.testbmk7,"a"
 2474              		.align	2
 2475              		.type	testbmk7, %object
 2476              		.size	testbmk7, 16
 2477              	testbmk7:
 2478 0000 D4000000 		.word	.LC26
 2479 0004 00000000 		.word	bmk7_setup
 2480 0008 00000000 		.word	0
 2481 000c 00000000 		.word	bmk7_execute
 2482              		.section	.rodata.testbmk8,"a"
 2483              		.align	2
 2484              		.type	testbmk8, %object
 2485              		.size	testbmk8, 16
 2486              	testbmk8:
 2487 0000 A8000000 		.word	.LC25
 2488 0004 00000000 		.word	0
 2489 0008 00000000 		.word	0
 2490 000c 00000000 		.word	bmk8_execute
 2491              		.section	.rodata.testbmk9,"a"
 2492              		.align	2
 2493              		.type	testbmk9, %object
 2494              		.size	testbmk9, 16
 2495              	testbmk9:
 2496 0000 84000000 		.word	.LC24
ARM GAS  /var/folders/l5/0x54b2c10074c8bt31ycjvl80000gp/T//cclkDCON.s 			page 47


 2497 0004 00000000 		.word	0
 2498 0008 00000000 		.word	0
 2499 000c 00000000 		.word	bmk9_execute
 2500              		.text
 2501              	.Letext0:
 2502              		.file 2 "/usr/local/Cellar/arm-gcc-bin/8-2019-q3-update/lib/gcc/arm-none-eabi/8.3.1/include/stddef
 2503              		.file 3 "/usr/local/Cellar/arm-gcc-bin/8-2019-q3-update/arm-none-eabi/include/machine/_default_typ
 2504              		.file 4 "/usr/local/Cellar/arm-gcc-bin/8-2019-q3-update/arm-none-eabi/include/sys/_stdint.h"
 2505              		.file 5 "../../os/ports/GCC/ARM/chtypes.h"
 2506              		.file 6 "../../os/kernel/include/chlists.h"
 2507              		.file 7 "../../os/kernel/include/chthreads.h"
 2508              		.file 8 "../../os/ports/GCC/ARM/chcore.h"
 2509              		.file 9 "../../os/kernel/include/chvt.h"
 2510              		.file 10 "../../os/kernel/include/chschd.h"
 2511              		.file 11 "../../os/kernel/include/chsem.h"
 2512              		.file 12 "../../os/kernel/include/chmtx.h"
 2513              		.file 13 "../../os/kernel/include/chregistry.h"
 2514              		.file 14 "../../os/kernel/include/chqueues.h"
 2515              		.file 15 "../../os/kernel/include/ch.h"
 2516              		.file 16 "../../test/test.h"
 2517              		.file 17 "../../os/kernel/include/chmsg.h"