ARM GAS  /var/folders/l5/0x54b2c10074c8bt31ycjvl80000gp/T//cc73C8xp.s 			page 1


   1              		.cpu arm1176jz-s
   2              		.eabi_attribute 20, 1
   3              		.eabi_attribute 21, 1
   4              		.eabi_attribute 23, 3
   5              		.eabi_attribute 24, 1
   6              		.eabi_attribute 25, 1
   7              		.eabi_attribute 26, 1
   8              		.eabi_attribute 30, 2
   9              		.eabi_attribute 34, 1
  10              		.eabi_attribute 18, 4
  11              		.file	"testdyn.c"
  12              		.text
  13              	.Ltext0:
  14              		.cfi_sections	.debug_frame
  15              		.section	.text.dyn1_execute,"ax",%progbits
  16              		.align	2
  17              		.arch armv6kz
  18              		.syntax unified
  19              		.arm
  20              		.fpu softvfp
  21              		.type	dyn1_execute, %function
  22              	dyn1_execute:
  23              	.LFB9:
  24              		.file 1 "../../test/testdyn.c"
  25              		.loc 1 87 32 view -0
  26              		.cfi_startproc
  27              		@ args = 0, pretend = 0, frame = 8
  28              		@ frame_needed = 0, uses_anonymous_args = 0
  29              		.loc 1 88 3 view .LVU1
  30              		.loc 1 89 3 view .LVU2
  31              		.loc 1 90 3 view .LVU3
  32              		.loc 1 87 32 is_stmt 0 view .LVU4
  33 0000 70402DE9 		push	{r4, r5, r6, lr}
  34              		.cfi_def_cfa_offset 16
  35              		.cfi_offset 4, -16
  36              		.cfi_offset 5, -12
  37              		.cfi_offset 6, -8
  38              		.cfi_offset 14, -4
  39              		.loc 1 90 18 view .LVU5
  40 0004 54319FE5 		ldr	r3, .L14
  41              		.loc 1 87 32 view .LVU6
  42 0008 10D04DE2 		sub	sp, sp, #16
  43              		.cfi_def_cfa_offset 32
  44              		.loc 1 90 11 view .LVU7
  45 000c 183093E5 		ldr	r3, [r3, #24]
  46              		.loc 1 92 9 view .LVU8
  47 0010 0C108DE2 		add	r1, sp, #12
  48 0014 48019FE5 		ldr	r0, .L14+4
  49              		.loc 1 90 11 view .LVU9
  50 0018 085093E5 		ldr	r5, [r3, #8]
  51              	.LVL0:
  52              		.loc 1 92 3 is_stmt 1 view .LVU10
  53              		.loc 1 92 9 is_stmt 0 view .LVU11
  54 001c FEFFFFEB 		bl	chHeapStatus
  55              	.LVL1:
  56              		.loc 1 94 3 is_stmt 1 view .LVU12
  57              		.loc 1 94 16 is_stmt 0 view .LVU13
ARM GAS  /var/folders/l5/0x54b2c10074c8bt31ycjvl80000gp/T//cc73C8xp.s 			page 2


  58 0020 40319FE5 		ldr	r3, .L14+8
  59 0024 012045E2 		sub	r2, r5, #1
  60 0028 00308DE5 		str	r3, [sp]
  61 002c 461FA0E3 		mov	r1, #280
  62 0030 34319FE5 		ldr	r3, .L14+12
  63 0034 28019FE5 		ldr	r0, .L14+4
  64 0038 FEFFFFEB 		bl	chThdCreateFromHeap
  65              	.LVL2:
  66              		.loc 1 94 14 view .LVU14
  67 003c 2C419FE5 		ldr	r4, .L14+16
  68              		.loc 1 96 16 view .LVU15
  69 0040 2C319FE5 		ldr	r3, .L14+20
  70 0044 022045E2 		sub	r2, r5, #2
  71              		.loc 1 94 14 view .LVU16
  72 0048 000084E5 		str	r0, [r4]
  73              		.loc 1 96 3 is_stmt 1 view .LVU17
  74              		.loc 1 96 16 is_stmt 0 view .LVU18
  75 004c 00308DE5 		str	r3, [sp]
  76 0050 461FA0E3 		mov	r1, #280
  77 0054 10319FE5 		ldr	r3, .L14+12
  78 0058 04019FE5 		ldr	r0, .L14+4
  79 005c FEFFFFEB 		bl	chThdCreateFromHeap
  80              	.LVL3:
  81              		.loc 1 99 9 view .LVU19
  82 0060 08108DE2 		add	r1, sp, #8
  83              		.loc 1 96 14 view .LVU20
  84 0064 040084E5 		str	r0, [r4, #4]
  85              		.loc 1 99 3 is_stmt 1 view .LVU21
  86              		.loc 1 99 9 is_stmt 0 view .LVU22
  87 0068 F4009FE5 		ldr	r0, .L14+4
  88 006c FEFFFFEB 		bl	chHeapStatus
  89              	.LVL4:
  90              		.loc 1 100 3 is_stmt 1 view .LVU23
  91              		.loc 1 100 8 is_stmt 0 view .LVU24
  92 0070 08109DE5 		ldr	r1, [sp, #8]
  93 0074 E8009FE5 		ldr	r0, .L14+4
  94 0078 FEFFFFEB 		bl	chHeapAlloc
  95              	.LVL5:
  96              		.loc 1 101 16 view .LVU25
  97 007c F4309FE5 		ldr	r3, .L14+24
  98 0080 461FA0E3 		mov	r1, #280
  99              		.loc 1 100 8 view .LVU26
 100 0084 0060A0E1 		mov	r6, r0
 101              	.LVL6:
 102              		.loc 1 101 3 is_stmt 1 view .LVU27
 103              		.loc 1 101 16 is_stmt 0 view .LVU28
 104 0088 032045E2 		sub	r2, r5, #3
 105 008c 00308DE5 		str	r3, [sp]
 106 0090 CC009FE5 		ldr	r0, .L14+4
 107              	.LVL7:
 108              		.loc 1 101 16 view .LVU29
 109 0094 D0309FE5 		ldr	r3, .L14+12
 110 0098 FEFFFFEB 		bl	chThdCreateFromHeap
 111              	.LVL8:
 112              		.loc 1 101 14 view .LVU30
 113 009c 080084E5 		str	r0, [r4, #8]
 114              		.loc 1 103 3 is_stmt 1 view .LVU31
ARM GAS  /var/folders/l5/0x54b2c10074c8bt31ycjvl80000gp/T//cc73C8xp.s 			page 3


 115 00a0 0600A0E1 		mov	r0, r6
 116 00a4 FEFFFFEB 		bl	chHeapFree
 117              	.LVL9:
 118              		.loc 1 105 3 view .LVU32
 119 00a8 001094E5 		ldr	r1, [r4]
 120 00ac 000051E3 		cmp	r1, #0
 121 00b0 0600000A 		beq	.L2
 122              		.loc 1 105 3 is_stmt 0 discriminator 1 view .LVU33
 123 00b4 041094E5 		ldr	r1, [r4, #4]
 124 00b8 000051E3 		cmp	r1, #0
 125 00bc 0300000A 		beq	.L2
 126              		.loc 1 105 3 discriminator 3 view .LVU34
 127 00c0 081094E5 		ldr	r1, [r4, #8]
 128 00c4 000051E3 		cmp	r1, #0
 129 00c8 0010A013 		movne	r1, #0
 130 00cc 1D00000A 		beq	.L12
 131              	.L2:
 132              		.loc 1 105 3 discriminator 12 view .LVU35
 133 00d0 0100A0E3 		mov	r0, #1
 134 00d4 FEFFFFEB 		bl	_test_assert
 135              	.LVL10:
 136 00d8 000050E3 		cmp	r0, #0
 137 00dc 0100000A 		beq	.L13
 138              	.L1:
 139              		.loc 1 119 1 view .LVU36
 140 00e0 10D08DE2 		add	sp, sp, #16
 141              		.cfi_remember_state
 142              		.cfi_def_cfa_offset 16
 143              		@ sp needed
 144 00e4 7080BDE8 		pop	{r4, r5, r6, pc}
 145              	.LVL11:
 146              	.L13:
 147              		.cfi_restore_state
 148              		.loc 1 110 43 is_stmt 1 view .LVU37
 149              		.loc 1 113 3 view .LVU38
 150 00e8 FEFFFFEB 		bl	test_wait_threads
 151              	.LVL12:
 152              		.loc 1 114 3 view .LVU39
 153 00ec 88109FE5 		ldr	r1, .L14+28
 154 00f0 0200A0E3 		mov	r0, #2
 155 00f4 FEFFFFEB 		bl	_test_assert_sequence
 156              	.LVL13:
 157 00f8 000050E3 		cmp	r0, #0
 158 00fc F7FFFF1A 		bne	.L1
 159              		.loc 1 114 32 discriminator 2 view .LVU40
 160              		.loc 1 117 3 discriminator 2 view .LVU41
 161 0100 08108DE2 		add	r1, sp, #8
 162 0104 58009FE5 		ldr	r0, .L14+4
 163 0108 FEFFFFEB 		bl	chHeapStatus
 164              	.LVL14:
 165 010c 011040E2 		sub	r1, r0, #1
 166 0110 111F6FE1 		clz	r1, r1
 167 0114 0300A0E3 		mov	r0, #3
 168 0118 A112A0E1 		lsr	r1, r1, #5
 169 011c FEFFFFEB 		bl	_test_assert
 170              	.LVL15:
 171 0120 000050E3 		cmp	r0, #0
ARM GAS  /var/folders/l5/0x54b2c10074c8bt31ycjvl80000gp/T//cc73C8xp.s 			page 4


 172 0124 EDFFFF1A 		bne	.L1
 173              		.loc 1 117 67 discriminator 2 view .LVU42
 174              		.loc 1 118 3 discriminator 2 view .LVU43
 175 0128 08109DE5 		ldr	r1, [sp, #8]
 176 012c 0C309DE5 		ldr	r3, [sp, #12]
 177 0130 0400A0E3 		mov	r0, #4
 178 0134 031041E0 		sub	r1, r1, r3
 179 0138 111F6FE1 		clz	r1, r1
 180 013c A112A0E1 		lsr	r1, r1, #5
 181 0140 FEFFFFEB 		bl	_test_assert
 182              	.LVL16:
 183              		.loc 1 118 3 discriminator 2 view .LVU44
 184 0144 E5FFFFEA 		b	.L1
 185              	.L12:
 186              		.loc 1 105 3 is_stmt 0 discriminator 5 view .LVU45
 187 0148 0C3094E5 		ldr	r3, [r4, #12]
 188 014c 000053E3 		cmp	r3, #0
 189 0150 10109405 		ldreq	r1, [r4, #16]
 190 0154 111F6F01 		clzeq	r1, r1
 191 0158 A112A001 		lsreq	r1, r1, #5
 192 015c DBFFFFEA 		b	.L2
 193              	.L15:
 194              		.align	2
 195              	.L14:
 196 0160 00000000 		.word	rlist
 197 0164 00000000 		.word	.LANCHOR0
 198 0168 00000000 		.word	.LC0
 199 016c 00000000 		.word	thread
 200 0170 00000000 		.word	threads
 201 0174 04000000 		.word	.LC1
 202 0178 08000000 		.word	.LC2
 203 017c 0C000000 		.word	.LC3
 204              		.cfi_endproc
 205              	.LFE9:
 206              		.size	dyn1_execute, .-dyn1_execute
 207              		.section	.text.thread,"ax",%progbits
 208              		.align	2
 209              		.syntax unified
 210              		.arm
 211              		.fpu softvfp
 212              		.type	thread, %function
 213              	thread:
 214              	.LVL17:
 215              	.LFB7:
 216              		.loc 1 75 30 is_stmt 1 view -0
 217              		.cfi_startproc
 218              		@ args = 0, pretend = 0, frame = 0
 219              		@ frame_needed = 0, uses_anonymous_args = 0
 220              		.loc 1 77 3 view .LVU47
 221              		.loc 1 75 30 is_stmt 0 view .LVU48
 222 0000 10402DE9 		push	{r4, lr}
 223              		.cfi_def_cfa_offset 8
 224              		.cfi_offset 4, -8
 225              		.cfi_offset 14, -4
 226              		.loc 1 77 3 view .LVU49
 227 0004 0000D0E5 		ldrb	r0, [r0]	@ zero_extendqisi2
 228              	.LVL18:
ARM GAS  /var/folders/l5/0x54b2c10074c8bt31ycjvl80000gp/T//cc73C8xp.s 			page 5


 229              		.loc 1 77 3 view .LVU50
 230 0008 FEFFFFEB 		bl	test_emit_token
 231              	.LVL19:
 232              		.loc 1 78 3 is_stmt 1 view .LVU51
 233              		.loc 1 79 1 is_stmt 0 view .LVU52
 234 000c 0000A0E3 		mov	r0, #0
 235 0010 1080BDE8 		pop	{r4, pc}
 236              		.cfi_endproc
 237              	.LFE7:
 238              		.size	thread, .-thread
 239              		.section	.text.dyn1_setup,"ax",%progbits
 240              		.align	2
 241              		.syntax unified
 242              		.arm
 243              		.fpu softvfp
 244              		.type	dyn1_setup, %function
 245              	dyn1_setup:
 246              	.LFB8:
 247              		.loc 1 82 30 is_stmt 1 view -0
 248              		.cfi_startproc
 249              		@ args = 0, pretend = 0, frame = 0
 250              		@ frame_needed = 0, uses_anonymous_args = 0
 251              		@ link register save eliminated.
 252              		.loc 1 84 3 view .LVU54
 253 0000 08209FE5 		ldr	r2, .L19
 254 0004 08109FE5 		ldr	r1, .L19+4
 255 0008 08009FE5 		ldr	r0, .L19+8
 256 000c FEFFFFEA 		b	chHeapInit
 257              	.LVL20:
 258              	.L20:
 259              		.align	2
 260              	.L19:
 261 0010 78050000 		.word	1400
 262 0014 00000000 		.word	test
 263 0018 00000000 		.word	.LANCHOR0
 264              		.cfi_endproc
 265              	.LFE8:
 266              		.size	dyn1_setup, .-dyn1_setup
 267              		.section	.text.dyn3_setup,"ax",%progbits
 268              		.align	2
 269              		.syntax unified
 270              		.arm
 271              		.fpu softvfp
 272              		.type	dyn3_setup, %function
 273              	dyn3_setup:
 274              	.LFB14:
 275              		.cfi_startproc
 276              		@ args = 0, pretend = 0, frame = 0
 277              		@ frame_needed = 0, uses_anonymous_args = 0
 278              		@ link register save eliminated.
 279 0000 FEFFFFEA 		b	dyn1_setup
 280              		.cfi_endproc
 281              	.LFE14:
 282              		.size	dyn3_setup, .-dyn3_setup
 283              		.section	.text.regfind,"ax",%progbits
 284              		.align	2
 285              		.syntax unified
ARM GAS  /var/folders/l5/0x54b2c10074c8bt31ycjvl80000gp/T//cc73C8xp.s 			page 6


 286              		.arm
 287              		.fpu softvfp
 288              		.type	regfind, %function
 289              	regfind:
 290              	.LVL21:
 291              	.LFB10:
 292              		.loc 1 195 35 view -0
 293              		.cfi_startproc
 294              		@ args = 0, pretend = 0, frame = 0
 295              		@ frame_needed = 0, uses_anonymous_args = 0
 296              		.loc 1 196 3 view .LVU56
 297              		.loc 1 197 3 view .LVU57
 298              		.loc 1 199 3 view .LVU58
 299              		.loc 1 195 35 is_stmt 0 view .LVU59
 300 0000 70402DE9 		push	{r4, r5, r6, lr}
 301              		.cfi_def_cfa_offset 16
 302              		.cfi_offset 4, -16
 303              		.cfi_offset 5, -12
 304              		.cfi_offset 6, -8
 305              		.cfi_offset 14, -4
 306              		.loc 1 195 35 view .LVU60
 307 0004 0050A0E1 		mov	r5, r0
 308              		.loc 1 199 9 view .LVU61
 309 0008 FEFFFFEB 		bl	chRegFirstThread
 310              	.LVL22:
 311              		.loc 1 197 10 view .LVU62
 312 000c 0040A0E3 		mov	r4, #0
 313              		.loc 1 199 9 view .LVU63
 314 0010 0030A0E1 		mov	r3, r0
 315              	.LVL23:
 316              	.L23:
 317              		.loc 1 200 3 is_stmt 1 discriminator 1 view .LVU64
 318              		.loc 1 201 5 discriminator 1 view .LVU65
 319              		.loc 1 202 11 is_stmt 0 discriminator 1 view .LVU66
 320 0014 0300A0E1 		mov	r0, r3
 321              		.loc 1 201 11 discriminator 1 view .LVU67
 322 0018 050053E1 		cmp	r3, r5
 323 001c 01408403 		orreq	r4, r4, #1
 324              	.LVL24:
 325              		.loc 1 202 5 is_stmt 1 discriminator 1 view .LVU68
 326              		.loc 1 202 11 is_stmt 0 discriminator 1 view .LVU69
 327 0020 FEFFFFEB 		bl	chRegNextThread
 328              	.LVL25:
 329              		.loc 1 203 3 discriminator 1 view .LVU70
 330 0024 003050E2 		subs	r3, r0, #0
 331 0028 F9FFFF1A 		bne	.L23
 332              		.loc 1 204 3 is_stmt 1 view .LVU71
 333              		.loc 1 205 1 is_stmt 0 view .LVU72
 334 002c 0400A0E1 		mov	r0, r4
 335              	.LVL26:
 336              		.loc 1 205 1 view .LVU73
 337 0030 7080BDE8 		pop	{r4, r5, r6, pc}
 338              		.cfi_endproc
 339              	.LFE10:
 340              		.size	regfind, .-regfind
 341              		.section	.text.dyn3_execute,"ax",%progbits
 342              		.align	2
ARM GAS  /var/folders/l5/0x54b2c10074c8bt31ycjvl80000gp/T//cc73C8xp.s 			page 7


 343              		.syntax unified
 344              		.arm
 345              		.fpu softvfp
 346              		.type	dyn3_execute, %function
 347              	dyn3_execute:
 348              	.LFB12:
 349              		.loc 1 212 32 is_stmt 1 view -0
 350              		.cfi_startproc
 351              		@ args = 0, pretend = 0, frame = 0
 352              		@ frame_needed = 0, uses_anonymous_args = 0
 353              		.loc 1 213 3 view .LVU75
 354              		.loc 1 214 3 view .LVU76
 355              	.LVL27:
 356              		.loc 1 217 3 view .LVU77
 357              		.loc 1 212 32 is_stmt 0 view .LVU78
 358 0000 10402DE9 		push	{r4, lr}
 359              		.cfi_def_cfa_offset 8
 360              		.cfi_offset 4, -8
 361              		.cfi_offset 14, -4
 362              		.loc 1 214 18 view .LVU79
 363 0004 B4319FE5 		ldr	r3, .L32
 364              		.loc 1 217 8 view .LVU80
 365 0008 B4019FE5 		ldr	r0, .L32+4
 366              		.loc 1 214 11 view .LVU81
 367 000c 182093E5 		ldr	r2, [r3, #24]
 368              		.loc 1 212 32 view .LVU82
 369 0010 08D04DE2 		sub	sp, sp, #8
 370              		.cfi_def_cfa_offset 16
 371              		.loc 1 217 8 view .LVU83
 372 0014 082092E5 		ldr	r2, [r2, #8]
 373 0018 A8319FE5 		ldr	r3, .L32+8
 374 001c 461FA0E3 		mov	r1, #280
 375 0020 012042E2 		sub	r2, r2, #1
 376 0024 00008DE5 		str	r0, [sp]
 377              	.LVL28:
 378              		.loc 1 217 8 view .LVU84
 379 0028 9C019FE5 		ldr	r0, .L32+12
 380 002c FEFFFFEB 		bl	chThdCreateFromHeap
 381              	.LVL29:
 382              		.loc 1 218 3 view .LVU85
 383 0030 1E10D0E5 		ldrb	r1, [r0, #30]	@ zero_extendqisi2
 384              		.loc 1 217 8 view .LVU86
 385 0034 0040A0E1 		mov	r4, r0
 386              	.LVL30:
 387              		.loc 1 218 3 is_stmt 1 view .LVU87
 388 0038 0100A0E3 		mov	r0, #1
 389              	.LVL31:
 390              		.loc 1 218 3 is_stmt 0 view .LVU88
 391 003c 001041E0 		sub	r1, r1, r0
 392 0040 111F6FE1 		clz	r1, r1
 393 0044 A112A0E1 		lsr	r1, r1, #5
 394 0048 FEFFFFEB 		bl	_test_assert
 395              	.LVL32:
 396 004c 000050E3 		cmp	r0, #0
 397 0050 0100000A 		beq	.L31
 398              	.L26:
 399              		.loc 1 240 1 view .LVU89
ARM GAS  /var/folders/l5/0x54b2c10074c8bt31ycjvl80000gp/T//cc73C8xp.s 			page 8


 400 0054 08D08DE2 		add	sp, sp, #8
 401              		.cfi_remember_state
 402              		.cfi_def_cfa_offset 8
 403              		@ sp needed
 404 0058 1080BDE8 		pop	{r4, pc}
 405              	.LVL33:
 406              	.L31:
 407              		.cfi_restore_state
 408              		.loc 1 218 69 is_stmt 1 discriminator 2 view .LVU90
 409              		.loc 1 219 3 discriminator 2 view .LVU91
 410 005c 0400A0E1 		mov	r0, r4
 411 0060 FEFFFFEB 		bl	chThdAddRef
 412              	.LVL34:
 413              		.loc 1 220 3 discriminator 2 view .LVU92
 414 0064 0200A0E3 		mov	r0, #2
 415 0068 1E10D4E5 		ldrb	r1, [r4, #30]	@ zero_extendqisi2
 416 006c 001041E0 		sub	r1, r1, r0
 417 0070 111F6FE1 		clz	r1, r1
 418 0074 A112A0E1 		lsr	r1, r1, #5
 419 0078 FEFFFFEB 		bl	_test_assert
 420              	.LVL35:
 421 007c 000050E3 		cmp	r0, #0
 422 0080 F3FFFF1A 		bne	.L26
 423              		.loc 1 220 65 discriminator 2 view .LVU93
 424              		.loc 1 221 3 discriminator 2 view .LVU94
 425 0084 0400A0E1 		mov	r0, r4
 426 0088 FEFFFFEB 		bl	chThdRelease
 427              	.LVL36:
 428              		.loc 1 222 3 discriminator 2 view .LVU95
 429 008c 1E10D4E5 		ldrb	r1, [r4, #30]	@ zero_extendqisi2
 430 0090 0300A0E3 		mov	r0, #3
 431 0094 011041E2 		sub	r1, r1, #1
 432 0098 111F6FE1 		clz	r1, r1
 433 009c A112A0E1 		lsr	r1, r1, #5
 434 00a0 FEFFFFEB 		bl	_test_assert
 435              	.LVL37:
 436 00a4 000050E3 		cmp	r0, #0
 437 00a8 E9FFFF1A 		bne	.L26
 438              		.loc 1 222 65 discriminator 2 view .LVU96
 439              		.loc 1 225 3 discriminator 2 view .LVU97
 440 00ac 0400A0E1 		mov	r0, r4
 441 00b0 FEFFFFEB 		bl	regfind
 442              	.LVL38:
 443 00b4 0010A0E1 		mov	r1, r0
 444 00b8 0400A0E3 		mov	r0, #4
 445 00bc FEFFFFEB 		bl	_test_assert
 446              	.LVL39:
 447 00c0 000050E3 		cmp	r0, #0
 448 00c4 E2FFFF1A 		bne	.L26
 449              		.loc 1 225 62 discriminator 2 view .LVU98
 450              		.loc 1 226 3 discriminator 2 view .LVU99
 451 00c8 0400A0E1 		mov	r0, r4
 452 00cc FEFFFFEB 		bl	regfind
 453              	.LVL40:
 454 00d0 0010A0E1 		mov	r1, r0
 455 00d4 0500A0E3 		mov	r0, #5
 456 00d8 FEFFFFEB 		bl	_test_assert
ARM GAS  /var/folders/l5/0x54b2c10074c8bt31ycjvl80000gp/T//cc73C8xp.s 			page 9


 457              	.LVL41:
 458 00dc 000050E3 		cmp	r0, #0
 459 00e0 DBFFFF1A 		bne	.L26
 460              		.loc 1 226 52 discriminator 2 view .LVU100
 461              		.loc 1 229 3 discriminator 2 view .LVU101
 462 00e4 0400A0E1 		mov	r0, r4
 463 00e8 FEFFFFEB 		bl	chThdRelease
 464              	.LVL42:
 465              		.loc 1 230 3 discriminator 2 view .LVU102
 466 00ec 1E10D4E5 		ldrb	r1, [r4, #30]	@ zero_extendqisi2
 467 00f0 0600A0E3 		mov	r0, #6
 468 00f4 111F6FE1 		clz	r1, r1
 469 00f8 A112A0E1 		lsr	r1, r1, #5
 470 00fc FEFFFFEB 		bl	_test_assert
 471              	.LVL43:
 472 0100 000050E3 		cmp	r0, #0
 473 0104 D2FFFF1A 		bne	.L26
 474              		.loc 1 230 52 discriminator 2 view .LVU103
 475              		.loc 1 231 3 discriminator 2 view .LVU104
 476 0108 1C10D4E5 		ldrb	r1, [r4, #28]	@ zero_extendqisi2
 477 010c 0700A0E3 		mov	r0, #7
 478 0110 111F6FE1 		clz	r1, r1
 479 0114 A112A0E1 		lsr	r1, r1, #5
 480 0118 FEFFFFEB 		bl	_test_assert
 481              	.LVL44:
 482 011c 000050E3 		cmp	r0, #0
 483 0120 CBFFFF1A 		bne	.L26
 484              		.loc 1 231 66 discriminator 2 view .LVU105
 485              		.loc 1 232 3 discriminator 2 view .LVU106
 486 0124 0400A0E1 		mov	r0, r4
 487 0128 FEFFFFEB 		bl	regfind
 488              	.LVL45:
 489 012c 0010A0E1 		mov	r1, r0
 490 0130 0800A0E3 		mov	r0, #8
 491 0134 FEFFFFEB 		bl	_test_assert
 492              	.LVL46:
 493 0138 000050E3 		cmp	r0, #0
 494 013c C4FFFF1A 		bne	.L26
 495              		.loc 1 232 52 discriminator 2 view .LVU107
 496              		.loc 1 233 3 discriminator 2 view .LVU108
 497 0140 0400A0E1 		mov	r0, r4
 498 0144 FEFFFFEB 		bl	regfind
 499              	.LVL47:
 500 0148 0010A0E1 		mov	r1, r0
 501 014c 0900A0E3 		mov	r0, #9
 502 0150 FEFFFFEB 		bl	_test_assert
 503              	.LVL48:
 504 0154 000050E3 		cmp	r0, #0
 505 0158 BDFFFF1A 		bne	.L26
 506              		.loc 1 233 52 discriminator 2 view .LVU109
 507              		.loc 1 234 3 discriminator 2 view .LVU110
 508 015c 3200A0E3 		mov	r0, #50
 509 0160 FEFFFFEB 		bl	chThdSleep
 510              	.LVL49:
 511              		.loc 1 235 3 discriminator 2 view .LVU111
 512 0164 1C10D4E5 		ldrb	r1, [r4, #28]	@ zero_extendqisi2
 513 0168 0A00A0E3 		mov	r0, #10
ARM GAS  /var/folders/l5/0x54b2c10074c8bt31ycjvl80000gp/T//cc73C8xp.s 			page 10


 514 016c 0E1041E2 		sub	r1, r1, #14
 515 0170 111F6FE1 		clz	r1, r1
 516 0174 A112A0E1 		lsr	r1, r1, #5
 517 0178 FEFFFFEB 		bl	_test_assert
 518              	.LVL50:
 519 017c 000050E3 		cmp	r0, #0
 520 0180 B3FFFF1A 		bne	.L26
 521              		.loc 1 235 67 discriminator 2 view .LVU112
 522              		.loc 1 238 3 discriminator 2 view .LVU113
 523 0184 0400A0E1 		mov	r0, r4
 524 0188 FEFFFFEB 		bl	regfind
 525              	.LVL51:
 526 018c 0010A0E1 		mov	r1, r0
 527 0190 0B00A0E3 		mov	r0, #11
 528 0194 FEFFFFEB 		bl	_test_assert
 529              	.LVL52:
 530 0198 000050E3 		cmp	r0, #0
 531 019c ACFFFF1A 		bne	.L26
 532              		.loc 1 238 53 discriminator 2 view .LVU114
 533              		.loc 1 239 3 discriminator 2 view .LVU115
 534 01a0 0400A0E1 		mov	r0, r4
 535 01a4 FEFFFFEB 		bl	regfind
 536              	.LVL53:
 537 01a8 101F6FE1 		clz	r1, r0
 538 01ac 0C00A0E3 		mov	r0, #12
 539 01b0 A112A0E1 		lsr	r1, r1, #5
 540              		.loc 1 240 1 is_stmt 0 discriminator 2 view .LVU116
 541 01b4 08D08DE2 		add	sp, sp, #8
 542              		.cfi_def_cfa_offset 8
 543              		@ sp needed
 544 01b8 1040BDE8 		pop	{r4, lr}
 545              		.cfi_restore 14
 546              		.cfi_restore 4
 547              		.cfi_def_cfa_offset 0
 548              	.LVL54:
 549              		.loc 1 239 3 discriminator 2 view .LVU117
 550 01bc FEFFFFEA 		b	_test_assert
 551              	.LVL55:
 552              	.L33:
 553              		.align	2
 554              	.L32:
 555 01c0 00000000 		.word	rlist
 556 01c4 00000000 		.word	.LC0
 557 01c8 00000000 		.word	thread
 558 01cc 00000000 		.word	.LANCHOR0
 559              		.cfi_endproc
 560              	.LFE12:
 561              		.size	dyn3_execute, .-dyn3_execute
 562              		.global	patterndyn
 563              		.global	testdyn3
 564              		.global	testdyn1
 565              		.section	.bss.heap1,"aw",%nobits
 566              		.align	2
 567              		.set	.LANCHOR0,. + 0
 568              		.type	heap1, %object
 569              		.size	heap1, 28
 570              	heap1:
ARM GAS  /var/folders/l5/0x54b2c10074c8bt31ycjvl80000gp/T//cc73C8xp.s 			page 11


 571 0000 00000000 		.space	28
 571      00000000 
 571      00000000 
 571      00000000 
 571      00000000 
 572              		.section	.rodata.dyn1_execute.str1.4,"aMS",%progbits,1
 573              		.align	2
 574              	.LC0:
 575 0000 4100     		.ascii	"A\000"
 576 0002 0000     		.space	2
 577              	.LC1:
 578 0004 4200     		.ascii	"B\000"
 579 0006 0000     		.space	2
 580              	.LC2:
 581 0008 4300     		.ascii	"C\000"
 582 000a 0000     		.space	2
 583              	.LC3:
 584 000c 414200   		.ascii	"AB\000"
 585              		.section	.rodata.patterndyn,"a"
 586              		.align	2
 587              		.type	patterndyn, %object
 588              		.size	patterndyn, 12
 589              	patterndyn:
 590 0000 00000000 		.word	testdyn1
 591 0004 00000000 		.word	testdyn3
 592 0008 00000000 		.word	0
 593              		.section	.rodata.str1.4,"aMS",%progbits,1
 594              		.align	2
 595              	.LC4:
 596 0000 44796E61 		.ascii	"Dynamic APIs, registry and references\000"
 596      6D696320 
 596      41504973 
 596      2C207265 
 596      67697374 
 597 0026 0000     		.space	2
 598              	.LC5:
 599 0028 44796E61 		.ascii	"Dynamic APIs, threads creation from heap\000"
 599      6D696320 
 599      41504973 
 599      2C207468 
 599      72656164 
 600              		.section	.rodata.testdyn1,"a"
 601              		.align	2
 602              		.type	testdyn1, %object
 603              		.size	testdyn1, 16
 604              	testdyn1:
 605 0000 28000000 		.word	.LC5
 606 0004 00000000 		.word	dyn1_setup
 607 0008 00000000 		.word	0
 608 000c 00000000 		.word	dyn1_execute
 609              		.section	.rodata.testdyn3,"a"
 610              		.align	2
 611              		.type	testdyn3, %object
 612              		.size	testdyn3, 16
 613              	testdyn3:
 614 0000 00000000 		.word	.LC4
 615 0004 00000000 		.word	dyn3_setup
ARM GAS  /var/folders/l5/0x54b2c10074c8bt31ycjvl80000gp/T//cc73C8xp.s 			page 12


 616 0008 00000000 		.word	0
 617 000c 00000000 		.word	dyn3_execute
 618              		.text
 619              	.Letext0:
 620              		.file 2 "/usr/local/Cellar/arm-gcc-bin/8-2019-q3-update/lib/gcc/arm-none-eabi/8.3.1/include/stddef
 621              		.file 3 "/usr/local/Cellar/arm-gcc-bin/8-2019-q3-update/arm-none-eabi/include/machine/_default_typ
 622              		.file 4 "/usr/local/Cellar/arm-gcc-bin/8-2019-q3-update/arm-none-eabi/include/sys/_stdint.h"
 623              		.file 5 "../../os/ports/GCC/ARM/chtypes.h"
 624              		.file 6 "../../os/kernel/include/chlists.h"
 625              		.file 7 "../../os/kernel/include/chthreads.h"
 626              		.file 8 "../../os/ports/GCC/ARM/chcore.h"
 627              		.file 9 "../../os/kernel/include/chvt.h"
 628              		.file 10 "../../os/kernel/include/chschd.h"
 629              		.file 11 "../../os/kernel/include/chmtx.h"
 630              		.file 12 "../../os/kernel/include/chmemcore.h"
 631              		.file 13 "../../os/kernel/include/chheap.h"
 632              		.file 14 "../../os/kernel/include/chregistry.h"
 633              		.file 15 "../../os/kernel/include/ch.h"
 634              		.file 16 "../../test/test.h"
 635              		.file 17 "../../os/kernel/include/chdynamic.h"
 636              		.section	.debug_info,"",%progbits
 637              	.Ldebug_info0:
 638 0000 5B0E0000 		.4byte	0xe5b
 639 0004 0400     		.2byte	0x4
 640 0006 00000000 		.4byte	.Ldebug_abbrev0
 641 000a 04       		.byte	0x4
 642 000b 01       		.uleb128 0x1
 643 000c 59020000 		.4byte	.LASF146
 644 0010 0C       		.byte	0xc
 645 0011 36060000 		.4byte	.LASF147
 646 0015 E4030000 		.4byte	.LASF148
 647 0019 00000000 		.4byte	.Ldebug_ranges0+0
 648 001d 00000000 		.4byte	0
 649 0021 00000000 		.4byte	.Ldebug_line0
 650 0025 02       		.uleb128 0x2
 651 0026 04       		.byte	0x4
 652 0027 05       		.byte	0x5
 653 0028 696E7400 		.ascii	"int\000"
 654 002c 03       		.uleb128 0x3
 655 002d 06000000 		.4byte	.LASF2
 656 0031 02       		.byte	0x2
 657 0032 D8       		.byte	0xd8
 658 0033 17       		.byte	0x17
 659 0034 38000000 		.4byte	0x38
 660 0038 04       		.uleb128 0x4
 661 0039 04       		.byte	0x4
 662 003a 07       		.byte	0x7
 663 003b B7010000 		.4byte	.LASF0
 664 003f 04       		.uleb128 0x4
 665 0040 01       		.byte	0x1
 666 0041 06       		.byte	0x6
 667 0042 BD000000 		.4byte	.LASF1
 668 0046 03       		.uleb128 0x3
 669 0047 19000000 		.4byte	.LASF3
 670 004b 03       		.byte	0x3
 671 004c 2B       		.byte	0x2b
 672 004d 18       		.byte	0x18
ARM GAS  /var/folders/l5/0x54b2c10074c8bt31ycjvl80000gp/T//cc73C8xp.s 			page 13


 673 004e 52000000 		.4byte	0x52
 674 0052 04       		.uleb128 0x4
 675 0053 01       		.byte	0x1
 676 0054 08       		.byte	0x8
 677 0055 A0040000 		.4byte	.LASF4
 678 0059 04       		.uleb128 0x4
 679 005a 02       		.byte	0x2
 680 005b 05       		.byte	0x5
 681 005c C3040000 		.4byte	.LASF5
 682 0060 03       		.uleb128 0x3
 683 0061 B7050000 		.4byte	.LASF6
 684 0065 03       		.byte	0x3
 685 0066 39       		.byte	0x39
 686 0067 19       		.byte	0x19
 687 0068 6C000000 		.4byte	0x6c
 688 006c 04       		.uleb128 0x4
 689 006d 02       		.byte	0x2
 690 006e 07       		.byte	0x7
 691 006f 38020000 		.4byte	.LASF7
 692 0073 03       		.uleb128 0x3
 693 0074 08060000 		.4byte	.LASF8
 694 0078 03       		.byte	0x3
 695 0079 4D       		.byte	0x4d
 696 007a 18       		.byte	0x18
 697 007b 7F000000 		.4byte	0x7f
 698 007f 04       		.uleb128 0x4
 699 0080 04       		.byte	0x4
 700 0081 05       		.byte	0x5
 701 0082 20010000 		.4byte	.LASF9
 702 0086 03       		.uleb128 0x3
 703 0087 95010000 		.4byte	.LASF10
 704 008b 03       		.byte	0x3
 705 008c 4F       		.byte	0x4f
 706 008d 19       		.byte	0x19
 707 008e 92000000 		.4byte	0x92
 708 0092 04       		.uleb128 0x4
 709 0093 04       		.byte	0x4
 710 0094 07       		.byte	0x7
 711 0095 D9010000 		.4byte	.LASF11
 712 0099 04       		.uleb128 0x4
 713 009a 08       		.byte	0x8
 714 009b 05       		.byte	0x5
 715 009c AF000000 		.4byte	.LASF12
 716 00a0 04       		.uleb128 0x4
 717 00a1 08       		.byte	0x8
 718 00a2 07       		.byte	0x7
 719 00a3 37000000 		.4byte	.LASF13
 720 00a7 03       		.uleb128 0x3
 721 00a8 7B060000 		.4byte	.LASF14
 722 00ac 04       		.byte	0x4
 723 00ad 18       		.byte	0x18
 724 00ae 13       		.byte	0x13
 725 00af 46000000 		.4byte	0x46
 726 00b3 03       		.uleb128 0x3
 727 00b4 56010000 		.4byte	.LASF15
 728 00b8 04       		.byte	0x4
 729 00b9 24       		.byte	0x24
ARM GAS  /var/folders/l5/0x54b2c10074c8bt31ycjvl80000gp/T//cc73C8xp.s 			page 14


 730 00ba 14       		.byte	0x14
 731 00bb 60000000 		.4byte	0x60
 732 00bf 03       		.uleb128 0x3
 733 00c0 98040000 		.4byte	.LASF16
 734 00c4 04       		.byte	0x4
 735 00c5 2C       		.byte	0x2c
 736 00c6 13       		.byte	0x13
 737 00c7 73000000 		.4byte	0x73
 738 00cb 03       		.uleb128 0x3
 739 00cc 76050000 		.4byte	.LASF17
 740 00d0 04       		.byte	0x4
 741 00d1 30       		.byte	0x30
 742 00d2 14       		.byte	0x14
 743 00d3 86000000 		.4byte	0x86
 744 00d7 03       		.uleb128 0x3
 745 00d8 EC000000 		.4byte	.LASF18
 746 00dc 05       		.byte	0x5
 747 00dd 29       		.byte	0x29
 748 00de 19       		.byte	0x19
 749 00df BF000000 		.4byte	0xbf
 750 00e3 03       		.uleb128 0x3
 751 00e4 31030000 		.4byte	.LASF19
 752 00e8 05       		.byte	0x5
 753 00e9 2A       		.byte	0x2a
 754 00ea 19       		.byte	0x19
 755 00eb A7000000 		.4byte	0xa7
 756 00ef 03       		.uleb128 0x3
 757 00f0 4D010000 		.4byte	.LASF20
 758 00f4 05       		.byte	0x5
 759 00f5 2B       		.byte	0x2b
 760 00f6 19       		.byte	0x19
 761 00f7 A7000000 		.4byte	0xa7
 762 00fb 03       		.uleb128 0x3
 763 00fc 67040000 		.4byte	.LASF21
 764 0100 05       		.byte	0x5
 765 0101 2C       		.byte	0x2c
 766 0102 19       		.byte	0x19
 767 0103 A7000000 		.4byte	0xa7
 768 0107 03       		.uleb128 0x3
 769 0108 16010000 		.4byte	.LASF22
 770 010c 05       		.byte	0x5
 771 010d 2D       		.byte	0x2d
 772 010e 19       		.byte	0x19
 773 010f A7000000 		.4byte	0xa7
 774 0113 03       		.uleb128 0x3
 775 0114 89040000 		.4byte	.LASF23
 776 0118 05       		.byte	0x5
 777 0119 2E       		.byte	0x2e
 778 011a 19       		.byte	0x19
 779 011b CB000000 		.4byte	0xcb
 780 011f 03       		.uleb128 0x3
 781 0120 4B020000 		.4byte	.LASF24
 782 0124 05       		.byte	0x5
 783 0125 2F       		.byte	0x2f
 784 0126 19       		.byte	0x19
 785 0127 BF000000 		.4byte	0xbf
 786 012b 03       		.uleb128 0x3
ARM GAS  /var/folders/l5/0x54b2c10074c8bt31ycjvl80000gp/T//cc73C8xp.s 			page 15


 787 012c 45030000 		.4byte	.LASF25
 788 0130 05       		.byte	0x5
 789 0131 31       		.byte	0x31
 790 0132 19       		.byte	0x19
 791 0133 CB000000 		.4byte	0xcb
 792 0137 03       		.uleb128 0x3
 793 0138 F3050000 		.4byte	.LASF26
 794 013c 05       		.byte	0x5
 795 013d 33       		.byte	0x33
 796 013e 19       		.byte	0x19
 797 013f CB000000 		.4byte	0xcb
 798 0143 05       		.uleb128 0x5
 799 0144 37010000 		.4byte	0x137
 800 0148 03       		.uleb128 0x3
 801 0149 37050000 		.4byte	.LASF27
 802 014d 06       		.byte	0x6
 803 014e 23       		.byte	0x23
 804 014f 17       		.byte	0x17
 805 0150 54010000 		.4byte	0x154
 806 0154 06       		.uleb128 0x6
 807 0155 37050000 		.4byte	.LASF27
 808 0159 44       		.byte	0x44
 809 015a 07       		.byte	0x7
 810 015b 57       		.byte	0x57
 811 015c 08       		.byte	0x8
 812 015d 59020000 		.4byte	0x259
 813 0161 07       		.uleb128 0x7
 814 0162 05050000 		.4byte	.LASF28
 815 0166 07       		.byte	0x7
 816 0167 58       		.byte	0x58
 817 0168 1A       		.byte	0x1a
 818 0169 7D020000 		.4byte	0x27d
 819 016d 00       		.byte	0
 820 016e 07       		.uleb128 0x7
 821 016f 7A040000 		.4byte	.LASF29
 822 0173 07       		.byte	0x7
 823 0174 5A       		.byte	0x5a
 824 0175 1A       		.byte	0x1a
 825 0176 7D020000 		.4byte	0x27d
 826 017a 04       		.byte	0x4
 827 017b 07       		.uleb128 0x7
 828 017c 92000000 		.4byte	.LASF30
 829 0180 07       		.byte	0x7
 830 0181 5C       		.byte	0x5c
 831 0182 19       		.byte	0x19
 832 0183 13010000 		.4byte	0x113
 833 0187 08       		.byte	0x8
 834 0188 07       		.uleb128 0x7
 835 0189 C3060000 		.4byte	.LASF31
 836 018d 07       		.byte	0x7
 837 018e 5D       		.byte	0x5d
 838 018f 19       		.byte	0x19
 839 0190 4D030000 		.4byte	0x34d
 840 0194 0C       		.byte	0xc
 841 0195 07       		.uleb128 0x7
 842 0196 7D010000 		.4byte	.LASF32
 843 019a 07       		.byte	0x7
ARM GAS  /var/folders/l5/0x54b2c10074c8bt31ycjvl80000gp/T//cc73C8xp.s 			page 16


 844 019b 5F       		.byte	0x5f
 845 019c 1A       		.byte	0x1a
 846 019d 7D020000 		.4byte	0x27d
 847 01a1 10       		.byte	0x10
 848 01a2 07       		.uleb128 0x7
 849 01a3 C0030000 		.4byte	.LASF33
 850 01a7 07       		.byte	0x7
 851 01a8 60       		.byte	0x60
 852 01a9 1A       		.byte	0x1a
 853 01aa 7D020000 		.4byte	0x27d
 854 01ae 14       		.byte	0x14
 855 01af 07       		.uleb128 0x7
 856 01b0 8A060000 		.4byte	.LASF34
 857 01b4 07       		.byte	0x7
 858 01b5 67       		.byte	0x67
 859 01b6 1A       		.byte	0x1a
 860 01b7 09060000 		.4byte	0x609
 861 01bb 18       		.byte	0x18
 862 01bc 07       		.uleb128 0x7
 863 01bd CD040000 		.4byte	.LASF35
 864 01c1 07       		.byte	0x7
 865 01c2 72       		.byte	0x72
 866 01c3 19       		.byte	0x19
 867 01c4 EF000000 		.4byte	0xef
 868 01c8 1C       		.byte	0x1c
 869 01c9 07       		.uleb128 0x7
 870 01ca 22050000 		.4byte	.LASF36
 871 01ce 07       		.byte	0x7
 872 01cf 76       		.byte	0x76
 873 01d0 19       		.byte	0x19
 874 01d1 E3000000 		.4byte	0xe3
 875 01d5 1D       		.byte	0x1d
 876 01d6 07       		.uleb128 0x7
 877 01d7 5C060000 		.4byte	.LASF37
 878 01db 07       		.byte	0x7
 879 01dc 7B       		.byte	0x7b
 880 01dd 19       		.byte	0x19
 881 01de FB000000 		.4byte	0xfb
 882 01e2 1E       		.byte	0x1e
 883 01e3 07       		.uleb128 0x7
 884 01e4 D5040000 		.4byte	.LASF38
 885 01e8 07       		.byte	0x7
 886 01e9 81       		.byte	0x81
 887 01ea 19       		.byte	0x19
 888 01eb 07010000 		.4byte	0x107
 889 01ef 1F       		.byte	0x1f
 890 01f0 07       		.uleb128 0x7
 891 01f1 1D060000 		.4byte	.LASF39
 892 01f5 07       		.byte	0x7
 893 01f6 88       		.byte	0x88
 894 01f7 19       		.byte	0x19
 895 01f8 43010000 		.4byte	0x143
 896 01fc 20       		.byte	0x20
 897 01fd 08       		.uleb128 0x8
 898 01fe 705F7500 		.ascii	"p_u\000"
 899 0202 07       		.byte	0x7
 900 0203 AD       		.byte	0xad
ARM GAS  /var/folders/l5/0x54b2c10074c8bt31ycjvl80000gp/T//cc73C8xp.s 			page 17


 901 0204 19       		.byte	0x19
 902 0205 CF050000 		.4byte	0x5cf
 903 0209 24       		.byte	0x24
 904 020a 07       		.uleb128 0x7
 905 020b C9060000 		.4byte	.LASF40
 906 020f 07       		.byte	0x7
 907 0210 B2       		.byte	0xb2
 908 0211 19       		.byte	0x19
 909 0212 A6020000 		.4byte	0x2a6
 910 0216 28       		.byte	0x28
 911 0217 07       		.uleb128 0x7
 912 0218 2B060000 		.4byte	.LASF41
 913 021c 07       		.byte	0x7
 914 021d B8       		.byte	0xb8
 915 021e 19       		.byte	0x19
 916 021f 83020000 		.4byte	0x283
 917 0223 2C       		.byte	0x2c
 918 0224 07       		.uleb128 0x7
 919 0225 00000000 		.4byte	.LASF42
 920 0229 07       		.byte	0x7
 921 022a BC       		.byte	0xbc
 922 022b 19       		.byte	0x19
 923 022c 1F010000 		.4byte	0x11f
 924 0230 34       		.byte	0x34
 925 0231 07       		.uleb128 0x7
 926 0232 60050000 		.4byte	.LASF43
 927 0236 07       		.byte	0x7
 928 0237 C2       		.byte	0xc2
 929 0238 19       		.byte	0x19
 930 0239 2B010000 		.4byte	0x12b
 931 023d 38       		.byte	0x38
 932 023e 07       		.uleb128 0x7
 933 023f B9040000 		.4byte	.LASF44
 934 0243 07       		.byte	0x7
 935 0244 C9       		.byte	0xc9
 936 0245 1A       		.byte	0x1a
 937 0246 1B060000 		.4byte	0x61b
 938 024a 3C       		.byte	0x3c
 939 024b 07       		.uleb128 0x7
 940 024c FD050000 		.4byte	.LASF45
 941 0250 07       		.byte	0x7
 942 0251 CD       		.byte	0xcd
 943 0252 19       		.byte	0x19
 944 0253 13010000 		.4byte	0x113
 945 0257 40       		.byte	0x40
 946 0258 00       		.byte	0
 947 0259 09       		.uleb128 0x9
 948 025a 08       		.byte	0x8
 949 025b 06       		.byte	0x6
 950 025c 5A       		.byte	0x5a
 951 025d 09       		.byte	0x9
 952 025e 7D020000 		.4byte	0x27d
 953 0262 07       		.uleb128 0x7
 954 0263 05050000 		.4byte	.LASF28
 955 0267 06       		.byte	0x6
 956 0268 5B       		.byte	0x5b
 957 0269 1A       		.byte	0x1a
ARM GAS  /var/folders/l5/0x54b2c10074c8bt31ycjvl80000gp/T//cc73C8xp.s 			page 18


 958 026a 7D020000 		.4byte	0x27d
 959 026e 00       		.byte	0
 960 026f 07       		.uleb128 0x7
 961 0270 7A040000 		.4byte	.LASF29
 962 0274 06       		.byte	0x6
 963 0275 5D       		.byte	0x5d
 964 0276 1A       		.byte	0x1a
 965 0277 7D020000 		.4byte	0x27d
 966 027b 04       		.byte	0x4
 967 027c 00       		.byte	0
 968 027d 0A       		.uleb128 0xa
 969 027e 04       		.byte	0x4
 970 027f 48010000 		.4byte	0x148
 971 0283 03       		.uleb128 0x3
 972 0284 D7030000 		.4byte	.LASF46
 973 0288 06       		.byte	0x6
 974 0289 5F       		.byte	0x5f
 975 028a 03       		.byte	0x3
 976 028b 59020000 		.4byte	0x259
 977 028f 09       		.uleb128 0x9
 978 0290 04       		.byte	0x4
 979 0291 06       		.byte	0x6
 980 0292 64       		.byte	0x64
 981 0293 09       		.byte	0x9
 982 0294 A6020000 		.4byte	0x2a6
 983 0298 07       		.uleb128 0x7
 984 0299 05050000 		.4byte	.LASF28
 985 029d 06       		.byte	0x6
 986 029e 66       		.byte	0x66
 987 029f 16       		.byte	0x16
 988 02a0 7D020000 		.4byte	0x27d
 989 02a4 00       		.byte	0
 990 02a5 00       		.byte	0
 991 02a6 03       		.uleb128 0x3
 992 02a7 39030000 		.4byte	.LASF47
 993 02ab 06       		.byte	0x6
 994 02ac 69       		.byte	0x69
 995 02ad 03       		.byte	0x3
 996 02ae 8F020000 		.4byte	0x28f
 997 02b2 03       		.uleb128 0x3
 998 02b3 63030000 		.4byte	.LASF48
 999 02b7 08       		.byte	0x8
 1000 02b8 9D       		.byte	0x9d
 1001 02b9 12       		.byte	0x12
 1002 02ba CB000000 		.4byte	0xcb
 1003 02be 03       		.uleb128 0x3
 1004 02bf A0010000 		.4byte	.LASF49
 1005 02c3 08       		.byte	0x8
 1006 02c4 A2       		.byte	0xa2
 1007 02c5 0F       		.byte	0xf
 1008 02c6 CA020000 		.4byte	0x2ca
 1009 02ca 0B       		.uleb128 0xb
 1010 02cb 04       		.byte	0x4
 1011 02cc 0C       		.uleb128 0xc
 1012 02cd CA020000 		.4byte	0x2ca
 1013 02d1 06       		.uleb128 0x6
 1014 02d2 24060000 		.4byte	.LASF50
ARM GAS  /var/folders/l5/0x54b2c10074c8bt31ycjvl80000gp/T//cc73C8xp.s 			page 19


 1015 02d6 24       		.byte	0x24
 1016 02d7 08       		.byte	0x8
 1017 02d8 B9       		.byte	0xb9
 1018 02d9 08       		.byte	0x8
 1019 02da 4D030000 		.4byte	0x34d
 1020 02de 08       		.uleb128 0x8
 1021 02df 723400   		.ascii	"r4\000"
 1022 02e2 08       		.byte	0x8
 1023 02e3 BA       		.byte	0xba
 1024 02e4 11       		.byte	0x11
 1025 02e5 BE020000 		.4byte	0x2be
 1026 02e9 00       		.byte	0
 1027 02ea 08       		.uleb128 0x8
 1028 02eb 723500   		.ascii	"r5\000"
 1029 02ee 08       		.byte	0x8
 1030 02ef BB       		.byte	0xbb
 1031 02f0 11       		.byte	0x11
 1032 02f1 BE020000 		.4byte	0x2be
 1033 02f5 04       		.byte	0x4
 1034 02f6 08       		.uleb128 0x8
 1035 02f7 723600   		.ascii	"r6\000"
 1036 02fa 08       		.byte	0x8
 1037 02fb BC       		.byte	0xbc
 1038 02fc 11       		.byte	0x11
 1039 02fd BE020000 		.4byte	0x2be
 1040 0301 08       		.byte	0x8
 1041 0302 08       		.uleb128 0x8
 1042 0303 723700   		.ascii	"r7\000"
 1043 0306 08       		.byte	0x8
 1044 0307 BD       		.byte	0xbd
 1045 0308 11       		.byte	0x11
 1046 0309 BE020000 		.4byte	0x2be
 1047 030d 0C       		.byte	0xc
 1048 030e 08       		.uleb128 0x8
 1049 030f 723800   		.ascii	"r8\000"
 1050 0312 08       		.byte	0x8
 1051 0313 BE       		.byte	0xbe
 1052 0314 11       		.byte	0x11
 1053 0315 BE020000 		.4byte	0x2be
 1054 0319 10       		.byte	0x10
 1055 031a 08       		.uleb128 0x8
 1056 031b 723900   		.ascii	"r9\000"
 1057 031e 08       		.byte	0x8
 1058 031f BF       		.byte	0xbf
 1059 0320 11       		.byte	0x11
 1060 0321 BE020000 		.4byte	0x2be
 1061 0325 14       		.byte	0x14
 1062 0326 08       		.uleb128 0x8
 1063 0327 72313000 		.ascii	"r10\000"
 1064 032b 08       		.byte	0x8
 1065 032c C0       		.byte	0xc0
 1066 032d 11       		.byte	0x11
 1067 032e BE020000 		.4byte	0x2be
 1068 0332 18       		.byte	0x18
 1069 0333 08       		.uleb128 0x8
 1070 0334 72313100 		.ascii	"r11\000"
 1071 0338 08       		.byte	0x8
ARM GAS  /var/folders/l5/0x54b2c10074c8bt31ycjvl80000gp/T//cc73C8xp.s 			page 20


 1072 0339 C1       		.byte	0xc1
 1073 033a 11       		.byte	0x11
 1074 033b BE020000 		.4byte	0x2be
 1075 033f 1C       		.byte	0x1c
 1076 0340 08       		.uleb128 0x8
 1077 0341 6C7200   		.ascii	"lr\000"
 1078 0344 08       		.byte	0x8
 1079 0345 C2       		.byte	0xc2
 1080 0346 11       		.byte	0x11
 1081 0347 BE020000 		.4byte	0x2be
 1082 034b 20       		.byte	0x20
 1083 034c 00       		.byte	0
 1084 034d 06       		.uleb128 0x6
 1085 034e 2B020000 		.4byte	.LASF51
 1086 0352 04       		.byte	0x4
 1087 0353 08       		.byte	0x8
 1088 0354 CA       		.byte	0xca
 1089 0355 08       		.byte	0x8
 1090 0356 68030000 		.4byte	0x368
 1091 035a 08       		.uleb128 0x8
 1092 035b 72313300 		.ascii	"r13\000"
 1093 035f 08       		.byte	0x8
 1094 0360 CB       		.byte	0xcb
 1095 0361 12       		.byte	0x12
 1096 0362 68030000 		.4byte	0x368
 1097 0366 00       		.byte	0
 1098 0367 00       		.byte	0
 1099 0368 0A       		.uleb128 0xa
 1100 0369 04       		.byte	0x4
 1101 036a D1020000 		.4byte	0x2d1
 1102 036e 03       		.uleb128 0x3
 1103 036f 0F020000 		.4byte	.LASF52
 1104 0373 09       		.byte	0x9
 1105 0374 4E       		.byte	0x4e
 1106 0375 10       		.byte	0x10
 1107 0376 7A030000 		.4byte	0x37a
 1108 037a 0A       		.uleb128 0xa
 1109 037b 04       		.byte	0x4
 1110 037c 80030000 		.4byte	0x380
 1111 0380 0D       		.uleb128 0xd
 1112 0381 8B030000 		.4byte	0x38b
 1113 0385 0E       		.uleb128 0xe
 1114 0386 CA020000 		.4byte	0x2ca
 1115 038a 00       		.byte	0
 1116 038b 03       		.uleb128 0x3
 1117 038c 93050000 		.4byte	.LASF53
 1118 0390 09       		.byte	0x9
 1119 0391 53       		.byte	0x53
 1120 0392 1D       		.byte	0x1d
 1121 0393 97030000 		.4byte	0x397
 1122 0397 06       		.uleb128 0x6
 1123 0398 93050000 		.4byte	.LASF53
 1124 039c 14       		.byte	0x14
 1125 039d 09       		.byte	0x9
 1126 039e 5A       		.byte	0x5a
 1127 039f 08       		.byte	0x8
 1128 03a0 E6030000 		.4byte	0x3e6
ARM GAS  /var/folders/l5/0x54b2c10074c8bt31ycjvl80000gp/T//cc73C8xp.s 			page 21


 1129 03a4 07       		.uleb128 0x7
 1130 03a5 C4010000 		.4byte	.LASF54
 1131 03a9 09       		.byte	0x9
 1132 03aa 5B       		.byte	0x5b
 1133 03ab 1A       		.byte	0x1a
 1134 03ac E6030000 		.4byte	0x3e6
 1135 03b0 00       		.byte	0
 1136 03b1 07       		.uleb128 0x7
 1137 03b2 A9010000 		.4byte	.LASF55
 1138 03b6 09       		.byte	0x9
 1139 03b7 5D       		.byte	0x5d
 1140 03b8 1A       		.byte	0x1a
 1141 03b9 E6030000 		.4byte	0x3e6
 1142 03bd 04       		.byte	0x4
 1143 03be 07       		.uleb128 0x7
 1144 03bf 82030000 		.4byte	.LASF56
 1145 03c3 09       		.byte	0x9
 1146 03c4 5F       		.byte	0x5f
 1147 03c5 19       		.byte	0x19
 1148 03c6 37010000 		.4byte	0x137
 1149 03ca 08       		.byte	0x8
 1150 03cb 07       		.uleb128 0x7
 1151 03cc 93030000 		.4byte	.LASF57
 1152 03d0 09       		.byte	0x9
 1153 03d1 60       		.byte	0x60
 1154 03d2 19       		.byte	0x19
 1155 03d3 6E030000 		.4byte	0x36e
 1156 03d7 0C       		.byte	0xc
 1157 03d8 07       		.uleb128 0x7
 1158 03d9 0C050000 		.4byte	.LASF58
 1159 03dd 09       		.byte	0x9
 1160 03de 62       		.byte	0x62
 1161 03df 1A       		.byte	0x1a
 1162 03e0 CA020000 		.4byte	0x2ca
 1163 03e4 10       		.byte	0x10
 1164 03e5 00       		.byte	0
 1165 03e6 0A       		.uleb128 0xa
 1166 03e7 04       		.byte	0x4
 1167 03e8 8B030000 		.4byte	0x38b
 1168 03ec 09       		.uleb128 0x9
 1169 03ed 10       		.byte	0x10
 1170 03ee 09       		.byte	0x9
 1171 03ef 6C       		.byte	0x6c
 1172 03f0 09       		.byte	0x9
 1173 03f1 2A040000 		.4byte	0x42a
 1174 03f5 07       		.uleb128 0x7
 1175 03f6 C4010000 		.4byte	.LASF54
 1176 03fa 09       		.byte	0x9
 1177 03fb 6D       		.byte	0x6d
 1178 03fc 1A       		.byte	0x1a
 1179 03fd E6030000 		.4byte	0x3e6
 1180 0401 00       		.byte	0
 1181 0402 07       		.uleb128 0x7
 1182 0403 A9010000 		.4byte	.LASF55
 1183 0407 09       		.byte	0x9
 1184 0408 6F       		.byte	0x6f
 1185 0409 1A       		.byte	0x1a
ARM GAS  /var/folders/l5/0x54b2c10074c8bt31ycjvl80000gp/T//cc73C8xp.s 			page 22


 1186 040a E6030000 		.4byte	0x3e6
 1187 040e 04       		.byte	0x4
 1188 040f 07       		.uleb128 0x7
 1189 0410 82030000 		.4byte	.LASF56
 1190 0414 09       		.byte	0x9
 1191 0415 71       		.byte	0x71
 1192 0416 19       		.byte	0x19
 1193 0417 37010000 		.4byte	0x137
 1194 041b 08       		.byte	0x8
 1195 041c 07       		.uleb128 0x7
 1196 041d 9E060000 		.4byte	.LASF59
 1197 0421 09       		.byte	0x9
 1198 0422 72       		.byte	0x72
 1199 0423 19       		.byte	0x19
 1200 0424 43010000 		.4byte	0x143
 1201 0428 0C       		.byte	0xc
 1202 0429 00       		.byte	0
 1203 042a 03       		.uleb128 0x3
 1204 042b B4060000 		.4byte	.LASF60
 1205 042f 09       		.byte	0x9
 1206 0430 73       		.byte	0x73
 1207 0431 03       		.byte	0x3
 1208 0432 EC030000 		.4byte	0x3ec
 1209 0436 0F       		.uleb128 0xf
 1210 0437 23000000 		.4byte	.LASF68
 1211 043b 09       		.byte	0x9
 1212 043c D1       		.byte	0xd1
 1213 043d 0F       		.byte	0xf
 1214 043e 2A040000 		.4byte	0x42a
 1215 0442 09       		.uleb128 0x9
 1216 0443 1C       		.byte	0x1c
 1217 0444 0A       		.byte	0xa
 1218 0445 57       		.byte	0x57
 1219 0446 09       		.byte	0x9
 1220 0447 9A040000 		.4byte	0x49a
 1221 044b 07       		.uleb128 0x7
 1222 044c 8B050000 		.4byte	.LASF61
 1223 0450 0A       		.byte	0xa
 1224 0451 58       		.byte	0x58
 1225 0452 19       		.byte	0x19
 1226 0453 83020000 		.4byte	0x283
 1227 0457 00       		.byte	0
 1228 0458 07       		.uleb128 0x7
 1229 0459 EB040000 		.4byte	.LASF62
 1230 045d 0A       		.byte	0xa
 1231 045e 59       		.byte	0x59
 1232 045f 19       		.byte	0x19
 1233 0460 13010000 		.4byte	0x113
 1234 0464 08       		.byte	0x8
 1235 0465 07       		.uleb128 0x7
 1236 0466 D1030000 		.4byte	.LASF63
 1237 046a 0A       		.byte	0xa
 1238 046b 5B       		.byte	0x5b
 1239 046c 19       		.byte	0x19
 1240 046d 4D030000 		.4byte	0x34d
 1241 0471 0C       		.byte	0xc
 1242 0472 07       		.uleb128 0x7
ARM GAS  /var/folders/l5/0x54b2c10074c8bt31ycjvl80000gp/T//cc73C8xp.s 			page 23


 1243 0473 51020000 		.4byte	.LASF64
 1244 0477 0A       		.byte	0xa
 1245 0478 5E       		.byte	0x5e
 1246 0479 1A       		.byte	0x1a
 1247 047a 7D020000 		.4byte	0x27d
 1248 047e 10       		.byte	0x10
 1249 047f 07       		.uleb128 0x7
 1250 0480 54040000 		.4byte	.LASF65
 1251 0484 0A       		.byte	0xa
 1252 0485 5F       		.byte	0x5f
 1253 0486 1A       		.byte	0x1a
 1254 0487 7D020000 		.4byte	0x27d
 1255 048b 14       		.byte	0x14
 1256 048c 07       		.uleb128 0x7
 1257 048d 4A040000 		.4byte	.LASF66
 1258 0491 0A       		.byte	0xa
 1259 0492 62       		.byte	0x62
 1260 0493 1A       		.byte	0x1a
 1261 0494 7D020000 		.4byte	0x27d
 1262 0498 18       		.byte	0x18
 1263 0499 00       		.byte	0
 1264 049a 03       		.uleb128 0x3
 1265 049b 63060000 		.4byte	.LASF67
 1266 049f 0A       		.byte	0xa
 1267 04a0 64       		.byte	0x64
 1268 04a1 03       		.byte	0x3
 1269 04a2 42040000 		.4byte	0x442
 1270 04a6 0F       		.uleb128 0xf
 1271 04a7 75060000 		.4byte	.LASF69
 1272 04ab 0A       		.byte	0xa
 1273 04ac 68       		.byte	0x68
 1274 04ad 12       		.byte	0x12
 1275 04ae 9A040000 		.4byte	0x49a
 1276 04b2 06       		.uleb128 0x6
 1277 04b3 51030000 		.4byte	.LASF70
 1278 04b7 10       		.byte	0x10
 1279 04b8 0B       		.byte	0xb
 1280 04b9 25       		.byte	0x25
 1281 04ba 10       		.byte	0x10
 1282 04bb E7040000 		.4byte	0x4e7
 1283 04bf 07       		.uleb128 0x7
 1284 04c0 F3000000 		.4byte	.LASF71
 1285 04c4 0B       		.byte	0xb
 1286 04c5 26       		.byte	0x26
 1287 04c6 19       		.byte	0x19
 1288 04c7 83020000 		.4byte	0x283
 1289 04cb 00       		.byte	0
 1290 04cc 07       		.uleb128 0x7
 1291 04cd BB060000 		.4byte	.LASF72
 1292 04d1 0B       		.byte	0xb
 1293 04d2 28       		.byte	0x28
 1294 04d3 1A       		.byte	0x1a
 1295 04d4 7D020000 		.4byte	0x27d
 1296 04d8 08       		.byte	0x8
 1297 04d9 07       		.uleb128 0x7
 1298 04da EC050000 		.4byte	.LASF73
 1299 04de 0B       		.byte	0xb
ARM GAS  /var/folders/l5/0x54b2c10074c8bt31ycjvl80000gp/T//cc73C8xp.s 			page 24


 1300 04df 2A       		.byte	0x2a
 1301 04e0 1A       		.byte	0x1a
 1302 04e1 E7040000 		.4byte	0x4e7
 1303 04e5 0C       		.byte	0xc
 1304 04e6 00       		.byte	0
 1305 04e7 0A       		.uleb128 0xa
 1306 04e8 04       		.byte	0x4
 1307 04e9 B2040000 		.4byte	0x4b2
 1308 04ed 03       		.uleb128 0x3
 1309 04ee 51030000 		.4byte	.LASF70
 1310 04f2 0B       		.byte	0xb
 1311 04f3 2C       		.byte	0x2c
 1312 04f4 03       		.byte	0x3
 1313 04f5 B2040000 		.4byte	0x4b2
 1314 04f9 03       		.uleb128 0x3
 1315 04fa 2A000000 		.4byte	.LASF74
 1316 04fe 0C       		.byte	0xc
 1317 04ff 25       		.byte	0x25
 1318 0500 11       		.byte	0x11
 1319 0501 05050000 		.4byte	0x505
 1320 0505 0A       		.uleb128 0xa
 1321 0506 04       		.byte	0x4
 1322 0507 0B050000 		.4byte	0x50b
 1323 050b 10       		.uleb128 0x10
 1324 050c CA020000 		.4byte	0x2ca
 1325 0510 1A050000 		.4byte	0x51a
 1326 0514 0E       		.uleb128 0xe
 1327 0515 2C000000 		.4byte	0x2c
 1328 0519 00       		.byte	0
 1329 051a 03       		.uleb128 0x3
 1330 051b 5C040000 		.4byte	.LASF75
 1331 051f 0D       		.byte	0xd
 1332 0520 2D       		.byte	0x2d
 1333 0521 1C       		.byte	0x1c
 1334 0522 26050000 		.4byte	0x526
 1335 0526 06       		.uleb128 0x6
 1336 0527 D9060000 		.4byte	.LASF76
 1337 052b 1C       		.byte	0x1c
 1338 052c 0D       		.byte	0xd
 1339 052d 40       		.byte	0x40
 1340 052e 08       		.byte	0x8
 1341 052f 5B050000 		.4byte	0x55b
 1342 0533 07       		.uleb128 0x7
 1343 0534 AE040000 		.4byte	.LASF77
 1344 0538 0D       		.byte	0xd
 1345 0539 41       		.byte	0x41
 1346 053a 19       		.byte	0x19
 1347 053b F9040000 		.4byte	0x4f9
 1348 053f 00       		.byte	0
 1349 0540 07       		.uleb128 0x7
 1350 0541 65000000 		.4byte	.LASF78
 1351 0545 0D       		.byte	0xd
 1352 0546 43       		.byte	0x43
 1353 0547 19       		.byte	0x19
 1354 0548 7D050000 		.4byte	0x57d
 1355 054c 04       		.byte	0x4
 1356 054d 07       		.uleb128 0x7
ARM GAS  /var/folders/l5/0x54b2c10074c8bt31ycjvl80000gp/T//cc73C8xp.s 			page 25


 1357 054e C9000000 		.4byte	.LASF79
 1358 0552 0D       		.byte	0xd
 1359 0553 45       		.byte	0x45
 1360 0554 19       		.byte	0x19
 1361 0555 ED040000 		.4byte	0x4ed
 1362 0559 0C       		.byte	0xc
 1363 055a 00       		.byte	0
 1364 055b 11       		.uleb128 0x11
 1365 055c 04       		.byte	0x4
 1366 055d 0D       		.byte	0xd
 1367 055e 35       		.byte	0x35
 1368 055f 05       		.byte	0x5
 1369 0560 7D050000 		.4byte	0x57d
 1370 0564 12       		.uleb128 0x12
 1371 0565 8D000000 		.4byte	.LASF80
 1372 0569 0D       		.byte	0xd
 1373 056a 36       		.byte	0x36
 1374 056b 1A       		.byte	0x1a
 1375 056c A1050000 		.4byte	0x5a1
 1376 0570 12       		.uleb128 0x12
 1377 0571 A0050000 		.4byte	.LASF81
 1378 0575 0D       		.byte	0xd
 1379 0576 37       		.byte	0x37
 1380 0577 1A       		.byte	0x1a
 1381 0578 A7050000 		.4byte	0x5a7
 1382 057c 00       		.byte	0
 1383 057d 13       		.uleb128 0x13
 1384 057e F2040000 		.4byte	.LASF115
 1385 0582 08       		.byte	0x8
 1386 0583 0D       		.byte	0xd
 1387 0584 32       		.byte	0x32
 1388 0585 07       		.byte	0x7
 1389 0586 A1050000 		.4byte	0x5a1
 1390 058a 12       		.uleb128 0x12
 1391 058b B1010000 		.4byte	.LASF82
 1392 058f 0D       		.byte	0xd
 1393 0590 33       		.byte	0x33
 1394 0591 0E       		.byte	0xe
 1395 0592 B2020000 		.4byte	0x2b2
 1396 0596 14       		.uleb128 0x14
 1397 0597 6800     		.ascii	"h\000"
 1398 0599 0D       		.byte	0xd
 1399 059a 3A       		.byte	0x3a
 1400 059b 05       		.byte	0x5
 1401 059c AD050000 		.4byte	0x5ad
 1402 05a0 00       		.byte	0
 1403 05a1 0A       		.uleb128 0xa
 1404 05a2 04       		.byte	0x4
 1405 05a3 7D050000 		.4byte	0x57d
 1406 05a7 0A       		.uleb128 0xa
 1407 05a8 04       		.byte	0x4
 1408 05a9 1A050000 		.4byte	0x51a
 1409 05ad 09       		.uleb128 0x9
 1410 05ae 08       		.byte	0x8
 1411 05af 0D       		.byte	0xd
 1412 05b0 34       		.byte	0x34
 1413 05b1 03       		.byte	0x3
ARM GAS  /var/folders/l5/0x54b2c10074c8bt31ycjvl80000gp/T//cc73C8xp.s 			page 26


 1414 05b2 CF050000 		.4byte	0x5cf
 1415 05b6 08       		.uleb128 0x8
 1416 05b7 7500     		.ascii	"u\000"
 1417 05b9 0D       		.byte	0xd
 1418 05ba 38       		.byte	0x38
 1419 05bb 07       		.byte	0x7
 1420 05bc 5B050000 		.4byte	0x55b
 1421 05c0 00       		.byte	0
 1422 05c1 07       		.uleb128 0x7
 1423 05c2 33020000 		.4byte	.LASF83
 1424 05c6 0D       		.byte	0xd
 1425 05c7 39       		.byte	0x39
 1426 05c8 19       		.byte	0x19
 1427 05c9 2C000000 		.4byte	0x2c
 1428 05cd 04       		.byte	0x4
 1429 05ce 00       		.byte	0
 1430 05cf 11       		.uleb128 0x11
 1431 05d0 04       		.byte	0x4
 1432 05d1 07       		.byte	0x7
 1433 05d2 8F       		.byte	0x8f
 1434 05d3 03       		.byte	0x3
 1435 05d4 09060000 		.4byte	0x609
 1436 05d8 12       		.uleb128 0x12
 1437 05d9 12000000 		.4byte	.LASF84
 1438 05dd 07       		.byte	0x7
 1439 05de 96       		.byte	0x96
 1440 05df 19       		.byte	0x19
 1441 05e0 1F010000 		.4byte	0x11f
 1442 05e4 12       		.uleb128 0x12
 1443 05e5 5C000000 		.4byte	.LASF85
 1444 05e9 07       		.byte	0x7
 1445 05ea 9D       		.byte	0x9d
 1446 05eb 19       		.byte	0x19
 1447 05ec 1F010000 		.4byte	0x11f
 1448 05f0 12       		.uleb128 0x12
 1449 05f1 83060000 		.4byte	.LASF86
 1450 05f5 07       		.byte	0x7
 1451 05f6 A4       		.byte	0xa4
 1452 05f7 1A       		.byte	0x1a
 1453 05f8 CA020000 		.4byte	0x2ca
 1454 05fc 12       		.uleb128 0x12
 1455 05fd FE040000 		.4byte	.LASF87
 1456 0601 07       		.byte	0x7
 1457 0602 AB       		.byte	0xab
 1458 0603 19       		.byte	0x19
 1459 0604 2B010000 		.4byte	0x12b
 1460 0608 00       		.byte	0
 1461 0609 0A       		.uleb128 0xa
 1462 060a 04       		.byte	0x4
 1463 060b 16060000 		.4byte	0x616
 1464 060f 04       		.uleb128 0x4
 1465 0610 01       		.byte	0x1
 1466 0611 08       		.byte	0x8
 1467 0612 A5050000 		.4byte	.LASF88
 1468 0616 0C       		.uleb128 0xc
 1469 0617 0F060000 		.4byte	0x60f
 1470 061b 0A       		.uleb128 0xa
ARM GAS  /var/folders/l5/0x54b2c10074c8bt31ycjvl80000gp/T//cc73C8xp.s 			page 27


 1471 061c 04       		.byte	0x4
 1472 061d ED040000 		.4byte	0x4ed
 1473 0621 09       		.uleb128 0x9
 1474 0622 16       		.byte	0x16
 1475 0623 0E       		.byte	0xe
 1476 0624 25       		.byte	0x25
 1477 0625 09       		.byte	0x9
 1478 0626 15070000 		.4byte	0x715
 1479 062a 07       		.uleb128 0x7
 1480 062b 18020000 		.4byte	.LASF89
 1481 062f 0E       		.byte	0xe
 1482 0630 26       		.byte	0x26
 1483 0631 0D       		.byte	0xd
 1484 0632 15070000 		.4byte	0x715
 1485 0636 00       		.byte	0
 1486 0637 07       		.uleb128 0x7
 1487 0638 6E030000 		.4byte	.LASF90
 1488 063c 0E       		.byte	0xe
 1489 063d 27       		.byte	0x27
 1490 063e 0D       		.byte	0xd
 1491 063f A7000000 		.4byte	0xa7
 1492 0643 04       		.byte	0x4
 1493 0644 07       		.uleb128 0x7
 1494 0645 26040000 		.4byte	.LASF91
 1495 0649 0E       		.byte	0xe
 1496 064a 28       		.byte	0x28
 1497 064b 0D       		.byte	0xd
 1498 064c A7000000 		.4byte	0xa7
 1499 0650 05       		.byte	0x5
 1500 0651 07       		.uleb128 0x7
 1501 0652 A9060000 		.4byte	.LASF92
 1502 0656 0E       		.byte	0xe
 1503 0657 29       		.byte	0x29
 1504 0658 0D       		.byte	0xd
 1505 0659 B3000000 		.4byte	0xb3
 1506 065d 06       		.byte	0x6
 1507 065e 07       		.uleb128 0x7
 1508 065f 6F040000 		.4byte	.LASF93
 1509 0663 0E       		.byte	0xe
 1510 0664 2A       		.byte	0x2a
 1511 0665 0D       		.byte	0xd
 1512 0666 A7000000 		.4byte	0xa7
 1513 066a 08       		.byte	0x8
 1514 066b 07       		.uleb128 0x7
 1515 066c 9B030000 		.4byte	.LASF94
 1516 0670 0E       		.byte	0xe
 1517 0671 2B       		.byte	0x2b
 1518 0672 0D       		.byte	0xd
 1519 0673 A7000000 		.4byte	0xa7
 1520 0677 09       		.byte	0x9
 1521 0678 07       		.uleb128 0x7
 1522 0679 4E000000 		.4byte	.LASF95
 1523 067d 0E       		.byte	0xe
 1524 067e 2C       		.byte	0x2c
 1525 067f 0D       		.byte	0xd
 1526 0680 A7000000 		.4byte	0xa7
 1527 0684 0A       		.byte	0xa
ARM GAS  /var/folders/l5/0x54b2c10074c8bt31ycjvl80000gp/T//cc73C8xp.s 			page 28


 1528 0685 07       		.uleb128 0x7
 1529 0686 7F050000 		.4byte	.LASF96
 1530 068a 0E       		.byte	0xe
 1531 068b 2D       		.byte	0x2d
 1532 068c 0D       		.byte	0xd
 1533 068d A7000000 		.4byte	0xa7
 1534 0691 0B       		.byte	0xb
 1535 0692 07       		.uleb128 0x7
 1536 0693 51060000 		.4byte	.LASF97
 1537 0697 0E       		.byte	0xe
 1538 0698 2E       		.byte	0x2e
 1539 0699 0D       		.byte	0xd
 1540 069a A7000000 		.4byte	0xa7
 1541 069e 0C       		.byte	0xc
 1542 069f 07       		.uleb128 0x7
 1543 06a0 4A050000 		.4byte	.LASF98
 1544 06a4 0E       		.byte	0xe
 1545 06a5 2F       		.byte	0x2f
 1546 06a6 0D       		.byte	0xd
 1547 06a7 A7000000 		.4byte	0xa7
 1548 06ab 0D       		.byte	0xd
 1549 06ac 07       		.uleb128 0x7
 1550 06ad CC010000 		.4byte	.LASF99
 1551 06b1 0E       		.byte	0xe
 1552 06b2 30       		.byte	0x30
 1553 06b3 0D       		.byte	0xd
 1554 06b4 A7000000 		.4byte	0xa7
 1555 06b8 0E       		.byte	0xe
 1556 06b9 07       		.uleb128 0x7
 1557 06ba A7030000 		.4byte	.LASF100
 1558 06be 0E       		.byte	0xe
 1559 06bf 31       		.byte	0x31
 1560 06c0 0D       		.byte	0xd
 1561 06c1 A7000000 		.4byte	0xa7
 1562 06c5 0F       		.byte	0xf
 1563 06c6 07       		.uleb128 0x7
 1564 06c7 CF000000 		.4byte	.LASF101
 1565 06cb 0E       		.byte	0xe
 1566 06cc 32       		.byte	0x32
 1567 06cd 0D       		.byte	0xd
 1568 06ce A7000000 		.4byte	0xa7
 1569 06d2 10       		.byte	0x10
 1570 06d3 07       		.uleb128 0x7
 1571 06d4 99000000 		.4byte	.LASF102
 1572 06d8 0E       		.byte	0xe
 1573 06d9 34       		.byte	0x34
 1574 06da 0D       		.byte	0xd
 1575 06db A7000000 		.4byte	0xa7
 1576 06df 11       		.byte	0x11
 1577 06e0 07       		.uleb128 0x7
 1578 06e1 DF000000 		.4byte	.LASF103
 1579 06e5 0E       		.byte	0xe
 1580 06e6 35       		.byte	0x35
 1581 06e7 0D       		.byte	0xd
 1582 06e8 A7000000 		.4byte	0xa7
 1583 06ec 12       		.byte	0x12
 1584 06ed 07       		.uleb128 0x7
ARM GAS  /var/folders/l5/0x54b2c10074c8bt31ycjvl80000gp/T//cc73C8xp.s 			page 29


 1585 06ee 76030000 		.4byte	.LASF104
 1586 06f2 0E       		.byte	0xe
 1587 06f3 36       		.byte	0x36
 1588 06f4 0D       		.byte	0xd
 1589 06f5 A7000000 		.4byte	0xa7
 1590 06f9 13       		.byte	0x13
 1591 06fa 07       		.uleb128 0x7
 1592 06fb 13050000 		.4byte	.LASF105
 1593 06ff 0E       		.byte	0xe
 1594 0700 37       		.byte	0x37
 1595 0701 0D       		.byte	0xd
 1596 0702 A7000000 		.4byte	0xa7
 1597 0706 14       		.byte	0x14
 1598 0707 07       		.uleb128 0x7
 1599 0708 DF040000 		.4byte	.LASF106
 1600 070c 0E       		.byte	0xe
 1601 070d 39       		.byte	0x39
 1602 070e 0D       		.byte	0xd
 1603 070f A7000000 		.4byte	0xa7
 1604 0713 15       		.byte	0x15
 1605 0714 00       		.byte	0
 1606 0715 15       		.uleb128 0x15
 1607 0716 0F060000 		.4byte	0x60f
 1608 071a 25070000 		.4byte	0x725
 1609 071e 16       		.uleb128 0x16
 1610 071f 38000000 		.4byte	0x38
 1611 0723 03       		.byte	0x3
 1612 0724 00       		.byte	0
 1613 0725 03       		.uleb128 0x3
 1614 0726 5F010000 		.4byte	.LASF107
 1615 072a 0E       		.byte	0xe
 1616 072b 3A       		.byte	0x3a
 1617 072c 03       		.byte	0x3
 1618 072d 21060000 		.4byte	0x621
 1619 0731 0C       		.uleb128 0xc
 1620 0732 25070000 		.4byte	0x725
 1621 0736 0F       		.uleb128 0xf
 1622 0737 EB010000 		.4byte	.LASF108
 1623 073b 0E       		.byte	0xe
 1624 073c 77       		.byte	0x77
 1625 073d 1D       		.byte	0x1d
 1626 073e 31070000 		.4byte	0x731
 1627 0742 15       		.uleb128 0x15
 1628 0743 B2020000 		.4byte	0x2b2
 1629 0747 52070000 		.4byte	0x752
 1630 074b 16       		.uleb128 0x16
 1631 074c 38000000 		.4byte	0x38
 1632 0750 26       		.byte	0x26
 1633 0751 00       		.byte	0
 1634 0752 0F       		.uleb128 0xf
 1635 0753 85010000 		.4byte	.LASF109
 1636 0757 0F       		.byte	0xf
 1637 0758 82       		.byte	0x82
 1638 0759 08       		.byte	0x8
 1639 075a 42070000 		.4byte	0x742
 1640 075e 06       		.uleb128 0x6
 1641 075f 57050000 		.4byte	.LASF110
ARM GAS  /var/folders/l5/0x54b2c10074c8bt31ycjvl80000gp/T//cc73C8xp.s 			page 30


 1642 0763 10       		.byte	0x10
 1643 0764 10       		.byte	0x10
 1644 0765 3F       		.byte	0x3f
 1645 0766 08       		.byte	0x8
 1646 0767 A0070000 		.4byte	0x7a0
 1647 076b 07       		.uleb128 0x7
 1648 076c 26020000 		.4byte	.LASF111
 1649 0770 10       		.byte	0x10
 1650 0771 40       		.byte	0x40
 1651 0772 0F       		.byte	0xf
 1652 0773 09060000 		.4byte	0x609
 1653 0777 00       		.byte	0
 1654 0778 07       		.uleb128 0x7
 1655 0779 2E040000 		.4byte	.LASF112
 1656 077d 10       		.byte	0x10
 1657 077e 41       		.byte	0x41
 1658 077f 0A       		.byte	0xa
 1659 0780 A6070000 		.4byte	0x7a6
 1660 0784 04       		.byte	0x4
 1661 0785 07       		.uleb128 0x7
 1662 0786 A6000000 		.4byte	.LASF113
 1663 078a 10       		.byte	0x10
 1664 078b 42       		.byte	0x42
 1665 078c 0A       		.byte	0xa
 1666 078d A6070000 		.4byte	0x7a6
 1667 0791 08       		.byte	0x8
 1668 0792 07       		.uleb128 0x7
 1669 0793 81040000 		.4byte	.LASF114
 1670 0797 10       		.byte	0x10
 1671 0798 43       		.byte	0x43
 1672 0799 0A       		.byte	0xa
 1673 079a A6070000 		.4byte	0x7a6
 1674 079e 0C       		.byte	0xc
 1675 079f 00       		.byte	0
 1676 07a0 0C       		.uleb128 0xc
 1677 07a1 5E070000 		.4byte	0x75e
 1678 07a5 17       		.uleb128 0x17
 1679 07a6 0A       		.uleb128 0xa
 1680 07a7 04       		.byte	0x4
 1681 07a8 A5070000 		.4byte	0x7a5
 1682 07ac 18       		.uleb128 0x18
 1683 07ad 7805     		.2byte	0x578
 1684 07af 10       		.byte	0x10
 1685 07b0 48       		.byte	0x48
 1686 07b1 03       		.byte	0x3
 1687 07b2 F7070000 		.4byte	0x7f7
 1688 07b6 08       		.uleb128 0x8
 1689 07b7 543000   		.ascii	"T0\000"
 1690 07ba 10       		.byte	0x10
 1691 07bb 49       		.byte	0x49
 1692 07bc 05       		.byte	0x5
 1693 07bd F7070000 		.4byte	0x7f7
 1694 07c1 00       		.byte	0
 1695 07c2 19       		.uleb128 0x19
 1696 07c3 543100   		.ascii	"T1\000"
 1697 07c6 10       		.byte	0x10
 1698 07c7 4A       		.byte	0x4a
ARM GAS  /var/folders/l5/0x54b2c10074c8bt31ycjvl80000gp/T//cc73C8xp.s 			page 31


 1699 07c8 05       		.byte	0x5
 1700 07c9 F7070000 		.4byte	0x7f7
 1701 07cd 1801     		.2byte	0x118
 1702 07cf 19       		.uleb128 0x19
 1703 07d0 543200   		.ascii	"T2\000"
 1704 07d3 10       		.byte	0x10
 1705 07d4 4B       		.byte	0x4b
 1706 07d5 05       		.byte	0x5
 1707 07d6 F7070000 		.4byte	0x7f7
 1708 07da 3002     		.2byte	0x230
 1709 07dc 19       		.uleb128 0x19
 1710 07dd 543300   		.ascii	"T3\000"
 1711 07e0 10       		.byte	0x10
 1712 07e1 4C       		.byte	0x4c
 1713 07e2 05       		.byte	0x5
 1714 07e3 F7070000 		.4byte	0x7f7
 1715 07e7 4803     		.2byte	0x348
 1716 07e9 19       		.uleb128 0x19
 1717 07ea 543400   		.ascii	"T4\000"
 1718 07ed 10       		.byte	0x10
 1719 07ee 4D       		.byte	0x4d
 1720 07ef 05       		.byte	0x5
 1721 07f0 F7070000 		.4byte	0x7f7
 1722 07f4 6004     		.2byte	0x460
 1723 07f6 00       		.byte	0
 1724 07f7 15       		.uleb128 0x15
 1725 07f8 B2020000 		.4byte	0x2b2
 1726 07fc 07080000 		.4byte	0x807
 1727 0800 16       		.uleb128 0x16
 1728 0801 38000000 		.4byte	0x38
 1729 0805 45       		.byte	0x45
 1730 0806 00       		.byte	0
 1731 0807 1A       		.uleb128 0x1a
 1732 0808 AA050000 		.4byte	.LASF116
 1733 080c 7805     		.2byte	0x578
 1734 080e 10       		.byte	0x10
 1735 080f 47       		.byte	0x47
 1736 0810 07       		.byte	0x7
 1737 0811 2D080000 		.4byte	0x82d
 1738 0815 14       		.uleb128 0x14
 1739 0816 776100   		.ascii	"wa\000"
 1740 0819 10       		.byte	0x10
 1741 081a 4E       		.byte	0x4e
 1742 081b 05       		.byte	0x5
 1743 081c AC070000 		.4byte	0x7ac
 1744 0820 12       		.uleb128 0x12
 1745 0821 76010000 		.4byte	.LASF117
 1746 0825 10       		.byte	0x10
 1747 0826 4F       		.byte	0x4f
 1748 0827 0B       		.byte	0xb
 1749 0828 2D080000 		.4byte	0x82d
 1750 082c 00       		.byte	0
 1751 082d 15       		.uleb128 0x15
 1752 082e A7000000 		.4byte	0xa7
 1753 0832 3E080000 		.4byte	0x83e
 1754 0836 1B       		.uleb128 0x1b
 1755 0837 38000000 		.4byte	0x38
ARM GAS  /var/folders/l5/0x54b2c10074c8bt31ycjvl80000gp/T//cc73C8xp.s 			page 32


 1756 083b 7705     		.2byte	0x577
 1757 083d 00       		.byte	0
 1758 083e 15       		.uleb128 0x15
 1759 083f 7D020000 		.4byte	0x27d
 1760 0843 4E080000 		.4byte	0x84e
 1761 0847 16       		.uleb128 0x16
 1762 0848 38000000 		.4byte	0x38
 1763 084c 04       		.byte	0x4
 1764 084d 00       		.byte	0
 1765 084e 0F       		.uleb128 0xf
 1766 084f 29030000 		.4byte	.LASF118
 1767 0853 10       		.byte	0x10
 1768 0854 A9       		.byte	0xa9
 1769 0855 10       		.byte	0x10
 1770 0856 3E080000 		.4byte	0x83e
 1771 085a 0F       		.uleb128 0xf
 1772 085b 6C000000 		.4byte	.LASF119
 1773 085f 10       		.byte	0x10
 1774 0860 AA       		.byte	0xaa
 1775 0861 1B       		.byte	0x1b
 1776 0862 07080000 		.4byte	0x807
 1777 0866 15       		.uleb128 0x15
 1778 0867 CC020000 		.4byte	0x2cc
 1779 086b 71080000 		.4byte	0x871
 1780 086f 1C       		.uleb128 0x1c
 1781 0870 00       		.byte	0
 1782 0871 0C       		.uleb128 0xc
 1783 0872 66080000 		.4byte	0x866
 1784 0876 1D       		.uleb128 0x1d
 1785 0877 776100   		.ascii	"wa\000"
 1786 087a 10       		.byte	0x10
 1787 087b AB       		.byte	0xab
 1788 087c 18       		.byte	0x18
 1789 087d 71080000 		.4byte	0x871
 1790 0881 0F       		.uleb128 0xf
 1791 0882 F4010000 		.4byte	.LASF120
 1792 0886 10       		.byte	0x10
 1793 0887 AC       		.byte	0xac
 1794 0888 0F       		.byte	0xf
 1795 0889 D7000000 		.4byte	0xd7
 1796 088d 1E       		.uleb128 0x1e
 1797 088e D3060000 		.4byte	.LASF127
 1798 0892 01       		.byte	0x1
 1799 0893 3A       		.byte	0x3a
 1800 0894 13       		.byte	0x13
 1801 0895 1A050000 		.4byte	0x51a
 1802 0899 05       		.uleb128 0x5
 1803 089a 03       		.byte	0x3
 1804 089b 00000000 		.4byte	heap1
 1805 089f 1F       		.uleb128 0x1f
 1806 08a0 8A030000 		.4byte	.LASF121
 1807 08a4 01       		.byte	0x1
 1808 08a5 79       		.byte	0x79
 1809 08a6 1A       		.byte	0x1a
 1810 08a7 A0070000 		.4byte	0x7a0
 1811 08ab 05       		.uleb128 0x5
 1812 08ac 03       		.byte	0x3
ARM GAS  /var/folders/l5/0x54b2c10074c8bt31ycjvl80000gp/T//cc73C8xp.s 			page 33


 1813 08ad 00000000 		.4byte	testdyn1
 1814 08b1 1F       		.uleb128 0x1f
 1815 08b2 C8030000 		.4byte	.LASF122
 1816 08b6 01       		.byte	0x1
 1817 08b7 F2       		.byte	0xf2
 1818 08b8 1A       		.byte	0x1a
 1819 08b9 A0070000 		.4byte	0x7a0
 1820 08bd 05       		.uleb128 0x5
 1821 08be 03       		.byte	0x3
 1822 08bf 00000000 		.4byte	testdyn3
 1823 08c3 15       		.uleb128 0x15
 1824 08c4 DE080000 		.4byte	0x8de
 1825 08c8 D3080000 		.4byte	0x8d3
 1826 08cc 16       		.uleb128 0x16
 1827 08cd 38000000 		.4byte	0x38
 1828 08d1 02       		.byte	0x2
 1829 08d2 00       		.byte	0
 1830 08d3 0C       		.uleb128 0xc
 1831 08d4 C3080000 		.4byte	0x8c3
 1832 08d8 0A       		.uleb128 0xa
 1833 08d9 04       		.byte	0x4
 1834 08da A0070000 		.4byte	0x7a0
 1835 08de 0C       		.uleb128 0xc
 1836 08df D8080000 		.4byte	0x8d8
 1837 08e3 1F       		.uleb128 0x1f
 1838 08e4 12060000 		.4byte	.LASF123
 1839 08e8 01       		.byte	0x1
 1840 08e9 FE       		.byte	0xfe
 1841 08ea 25       		.byte	0x25
 1842 08eb D3080000 		.4byte	0x8d3
 1843 08ef 05       		.uleb128 0x5
 1844 08f0 03       		.byte	0x3
 1845 08f1 00000000 		.4byte	patterndyn
 1846 08f5 20       		.uleb128 0x20
 1847 08f6 B3030000 		.4byte	.LASF125
 1848 08fa 01       		.byte	0x1
 1849 08fb D4       		.byte	0xd4
 1850 08fc 0D       		.byte	0xd
 1851 08fd 00000000 		.4byte	.LFB12
 1852 0901 D0010000 		.4byte	.LFE12-.LFB12
 1853 0905 01       		.uleb128 0x1
 1854 0906 9C       		.byte	0x9c
 1855 0907 040B0000 		.4byte	0xb04
 1856 090b 21       		.uleb128 0x21
 1857 090c 747000   		.ascii	"tp\000"
 1858 090f 01       		.byte	0x1
 1859 0910 D5       		.byte	0xd5
 1860 0911 0B       		.byte	0xb
 1861 0912 7D020000 		.4byte	0x27d
 1862 0916 04000000 		.4byte	.LLST6
 1863 091a 00000000 		.4byte	.LVUS6
 1864 091e 22       		.uleb128 0x22
 1865 091f 0D000000 		.4byte	.LASF128
 1866 0923 01       		.byte	0x1
 1867 0924 D6       		.byte	0xd6
 1868 0925 0B       		.byte	0xb
 1869 0926 13010000 		.4byte	0x113
ARM GAS  /var/folders/l5/0x54b2c10074c8bt31ycjvl80000gp/T//cc73C8xp.s 			page 34


 1870 092a 23       		.uleb128 0x23
 1871 092b 30000000 		.4byte	.LVL29
 1872 092f B50D0000 		.4byte	0xdb5
 1873 0933 5B090000 		.4byte	0x95b
 1874 0937 24       		.uleb128 0x24
 1875 0938 01       		.uleb128 0x1
 1876 0939 50       		.byte	0x50
 1877 093a 05       		.uleb128 0x5
 1878 093b 03       		.byte	0x3
 1879 093c 00000000 		.4byte	.LANCHOR0
 1880 0940 24       		.uleb128 0x24
 1881 0941 01       		.uleb128 0x1
 1882 0942 51       		.byte	0x51
 1883 0943 03       		.uleb128 0x3
 1884 0944 0A       		.byte	0xa
 1885 0945 1801     		.2byte	0x118
 1886 0947 24       		.uleb128 0x24
 1887 0948 01       		.uleb128 0x1
 1888 0949 53       		.byte	0x53
 1889 094a 05       		.uleb128 0x5
 1890 094b 03       		.byte	0x3
 1891 094c 00000000 		.4byte	thread
 1892 0950 24       		.uleb128 0x24
 1893 0951 02       		.uleb128 0x2
 1894 0952 7D       		.byte	0x7d
 1895 0953 00       		.sleb128 0
 1896 0954 05       		.uleb128 0x5
 1897 0955 03       		.byte	0x3
 1898 0956 00000000 		.4byte	.LC0
 1899 095a 00       		.byte	0
 1900 095b 23       		.uleb128 0x23
 1901 095c 4C000000 		.4byte	.LVL32
 1902 0960 C10D0000 		.4byte	0xdc1
 1903 0964 6E090000 		.4byte	0x96e
 1904 0968 24       		.uleb128 0x24
 1905 0969 01       		.uleb128 0x1
 1906 096a 50       		.byte	0x50
 1907 096b 01       		.uleb128 0x1
 1908 096c 31       		.byte	0x31
 1909 096d 00       		.byte	0
 1910 096e 23       		.uleb128 0x23
 1911 096f 64000000 		.4byte	.LVL34
 1912 0973 CD0D0000 		.4byte	0xdcd
 1913 0977 82090000 		.4byte	0x982
 1914 097b 24       		.uleb128 0x24
 1915 097c 01       		.uleb128 0x1
 1916 097d 50       		.byte	0x50
 1917 097e 02       		.uleb128 0x2
 1918 097f 74       		.byte	0x74
 1919 0980 00       		.sleb128 0
 1920 0981 00       		.byte	0
 1921 0982 23       		.uleb128 0x23
 1922 0983 7C000000 		.4byte	.LVL35
 1923 0987 C10D0000 		.4byte	0xdc1
 1924 098b 95090000 		.4byte	0x995
 1925 098f 24       		.uleb128 0x24
 1926 0990 01       		.uleb128 0x1
ARM GAS  /var/folders/l5/0x54b2c10074c8bt31ycjvl80000gp/T//cc73C8xp.s 			page 35


 1927 0991 50       		.byte	0x50
 1928 0992 01       		.uleb128 0x1
 1929 0993 32       		.byte	0x32
 1930 0994 00       		.byte	0
 1931 0995 23       		.uleb128 0x23
 1932 0996 8C000000 		.4byte	.LVL36
 1933 099a D90D0000 		.4byte	0xdd9
 1934 099e A9090000 		.4byte	0x9a9
 1935 09a2 24       		.uleb128 0x24
 1936 09a3 01       		.uleb128 0x1
 1937 09a4 50       		.byte	0x50
 1938 09a5 02       		.uleb128 0x2
 1939 09a6 74       		.byte	0x74
 1940 09a7 00       		.sleb128 0
 1941 09a8 00       		.byte	0
 1942 09a9 23       		.uleb128 0x23
 1943 09aa A4000000 		.4byte	.LVL37
 1944 09ae C10D0000 		.4byte	0xdc1
 1945 09b2 BC090000 		.4byte	0x9bc
 1946 09b6 24       		.uleb128 0x24
 1947 09b7 01       		.uleb128 0x1
 1948 09b8 50       		.byte	0x50
 1949 09b9 01       		.uleb128 0x1
 1950 09ba 33       		.byte	0x33
 1951 09bb 00       		.byte	0
 1952 09bc 23       		.uleb128 0x23
 1953 09bd B4000000 		.4byte	.LVL38
 1954 09c1 0C0B0000 		.4byte	0xb0c
 1955 09c5 D0090000 		.4byte	0x9d0
 1956 09c9 24       		.uleb128 0x24
 1957 09ca 01       		.uleb128 0x1
 1958 09cb 50       		.byte	0x50
 1959 09cc 02       		.uleb128 0x2
 1960 09cd 74       		.byte	0x74
 1961 09ce 00       		.sleb128 0
 1962 09cf 00       		.byte	0
 1963 09d0 23       		.uleb128 0x23
 1964 09d1 C0000000 		.4byte	.LVL39
 1965 09d5 C10D0000 		.4byte	0xdc1
 1966 09d9 E3090000 		.4byte	0x9e3
 1967 09dd 24       		.uleb128 0x24
 1968 09de 01       		.uleb128 0x1
 1969 09df 50       		.byte	0x50
 1970 09e0 01       		.uleb128 0x1
 1971 09e1 34       		.byte	0x34
 1972 09e2 00       		.byte	0
 1973 09e3 23       		.uleb128 0x23
 1974 09e4 D0000000 		.4byte	.LVL40
 1975 09e8 0C0B0000 		.4byte	0xb0c
 1976 09ec F7090000 		.4byte	0x9f7
 1977 09f0 24       		.uleb128 0x24
 1978 09f1 01       		.uleb128 0x1
 1979 09f2 50       		.byte	0x50
 1980 09f3 02       		.uleb128 0x2
 1981 09f4 74       		.byte	0x74
 1982 09f5 00       		.sleb128 0
 1983 09f6 00       		.byte	0
ARM GAS  /var/folders/l5/0x54b2c10074c8bt31ycjvl80000gp/T//cc73C8xp.s 			page 36


 1984 09f7 23       		.uleb128 0x23
 1985 09f8 DC000000 		.4byte	.LVL41
 1986 09fc C10D0000 		.4byte	0xdc1
 1987 0a00 0A0A0000 		.4byte	0xa0a
 1988 0a04 24       		.uleb128 0x24
 1989 0a05 01       		.uleb128 0x1
 1990 0a06 50       		.byte	0x50
 1991 0a07 01       		.uleb128 0x1
 1992 0a08 35       		.byte	0x35
 1993 0a09 00       		.byte	0
 1994 0a0a 23       		.uleb128 0x23
 1995 0a0b EC000000 		.4byte	.LVL42
 1996 0a0f D90D0000 		.4byte	0xdd9
 1997 0a13 1E0A0000 		.4byte	0xa1e
 1998 0a17 24       		.uleb128 0x24
 1999 0a18 01       		.uleb128 0x1
 2000 0a19 50       		.byte	0x50
 2001 0a1a 02       		.uleb128 0x2
 2002 0a1b 74       		.byte	0x74
 2003 0a1c 00       		.sleb128 0
 2004 0a1d 00       		.byte	0
 2005 0a1e 23       		.uleb128 0x23
 2006 0a1f 00010000 		.4byte	.LVL43
 2007 0a23 C10D0000 		.4byte	0xdc1
 2008 0a27 310A0000 		.4byte	0xa31
 2009 0a2b 24       		.uleb128 0x24
 2010 0a2c 01       		.uleb128 0x1
 2011 0a2d 50       		.byte	0x50
 2012 0a2e 01       		.uleb128 0x1
 2013 0a2f 36       		.byte	0x36
 2014 0a30 00       		.byte	0
 2015 0a31 23       		.uleb128 0x23
 2016 0a32 1C010000 		.4byte	.LVL44
 2017 0a36 C10D0000 		.4byte	0xdc1
 2018 0a3a 440A0000 		.4byte	0xa44
 2019 0a3e 24       		.uleb128 0x24
 2020 0a3f 01       		.uleb128 0x1
 2021 0a40 50       		.byte	0x50
 2022 0a41 01       		.uleb128 0x1
 2023 0a42 37       		.byte	0x37
 2024 0a43 00       		.byte	0
 2025 0a44 23       		.uleb128 0x23
 2026 0a45 2C010000 		.4byte	.LVL45
 2027 0a49 0C0B0000 		.4byte	0xb0c
 2028 0a4d 580A0000 		.4byte	0xa58
 2029 0a51 24       		.uleb128 0x24
 2030 0a52 01       		.uleb128 0x1
 2031 0a53 50       		.byte	0x50
 2032 0a54 02       		.uleb128 0x2
 2033 0a55 74       		.byte	0x74
 2034 0a56 00       		.sleb128 0
 2035 0a57 00       		.byte	0
 2036 0a58 23       		.uleb128 0x23
 2037 0a59 38010000 		.4byte	.LVL46
 2038 0a5d C10D0000 		.4byte	0xdc1
 2039 0a61 6B0A0000 		.4byte	0xa6b
 2040 0a65 24       		.uleb128 0x24
ARM GAS  /var/folders/l5/0x54b2c10074c8bt31ycjvl80000gp/T//cc73C8xp.s 			page 37


 2041 0a66 01       		.uleb128 0x1
 2042 0a67 50       		.byte	0x50
 2043 0a68 01       		.uleb128 0x1
 2044 0a69 38       		.byte	0x38
 2045 0a6a 00       		.byte	0
 2046 0a6b 23       		.uleb128 0x23
 2047 0a6c 48010000 		.4byte	.LVL47
 2048 0a70 0C0B0000 		.4byte	0xb0c
 2049 0a74 7F0A0000 		.4byte	0xa7f
 2050 0a78 24       		.uleb128 0x24
 2051 0a79 01       		.uleb128 0x1
 2052 0a7a 50       		.byte	0x50
 2053 0a7b 02       		.uleb128 0x2
 2054 0a7c 74       		.byte	0x74
 2055 0a7d 00       		.sleb128 0
 2056 0a7e 00       		.byte	0
 2057 0a7f 23       		.uleb128 0x23
 2058 0a80 54010000 		.4byte	.LVL48
 2059 0a84 C10D0000 		.4byte	0xdc1
 2060 0a88 920A0000 		.4byte	0xa92
 2061 0a8c 24       		.uleb128 0x24
 2062 0a8d 01       		.uleb128 0x1
 2063 0a8e 50       		.byte	0x50
 2064 0a8f 01       		.uleb128 0x1
 2065 0a90 39       		.byte	0x39
 2066 0a91 00       		.byte	0
 2067 0a92 23       		.uleb128 0x23
 2068 0a93 64010000 		.4byte	.LVL49
 2069 0a97 E50D0000 		.4byte	0xde5
 2070 0a9b A60A0000 		.4byte	0xaa6
 2071 0a9f 24       		.uleb128 0x24
 2072 0aa0 01       		.uleb128 0x1
 2073 0aa1 50       		.byte	0x50
 2074 0aa2 02       		.uleb128 0x2
 2075 0aa3 08       		.byte	0x8
 2076 0aa4 32       		.byte	0x32
 2077 0aa5 00       		.byte	0
 2078 0aa6 23       		.uleb128 0x23
 2079 0aa7 7C010000 		.4byte	.LVL50
 2080 0aab C10D0000 		.4byte	0xdc1
 2081 0aaf B90A0000 		.4byte	0xab9
 2082 0ab3 24       		.uleb128 0x24
 2083 0ab4 01       		.uleb128 0x1
 2084 0ab5 50       		.byte	0x50
 2085 0ab6 01       		.uleb128 0x1
 2086 0ab7 3A       		.byte	0x3a
 2087 0ab8 00       		.byte	0
 2088 0ab9 23       		.uleb128 0x23
 2089 0aba 8C010000 		.4byte	.LVL51
 2090 0abe 0C0B0000 		.4byte	0xb0c
 2091 0ac2 CD0A0000 		.4byte	0xacd
 2092 0ac6 24       		.uleb128 0x24
 2093 0ac7 01       		.uleb128 0x1
 2094 0ac8 50       		.byte	0x50
 2095 0ac9 02       		.uleb128 0x2
 2096 0aca 74       		.byte	0x74
 2097 0acb 00       		.sleb128 0
ARM GAS  /var/folders/l5/0x54b2c10074c8bt31ycjvl80000gp/T//cc73C8xp.s 			page 38


 2098 0acc 00       		.byte	0
 2099 0acd 23       		.uleb128 0x23
 2100 0ace 98010000 		.4byte	.LVL52
 2101 0ad2 C10D0000 		.4byte	0xdc1
 2102 0ad6 E00A0000 		.4byte	0xae0
 2103 0ada 24       		.uleb128 0x24
 2104 0adb 01       		.uleb128 0x1
 2105 0adc 50       		.byte	0x50
 2106 0add 01       		.uleb128 0x1
 2107 0ade 3B       		.byte	0x3b
 2108 0adf 00       		.byte	0
 2109 0ae0 23       		.uleb128 0x23
 2110 0ae1 A8010000 		.4byte	.LVL53
 2111 0ae5 0C0B0000 		.4byte	0xb0c
 2112 0ae9 F40A0000 		.4byte	0xaf4
 2113 0aed 24       		.uleb128 0x24
 2114 0aee 01       		.uleb128 0x1
 2115 0aef 50       		.byte	0x50
 2116 0af0 02       		.uleb128 0x2
 2117 0af1 74       		.byte	0x74
 2118 0af2 00       		.sleb128 0
 2119 0af3 00       		.byte	0
 2120 0af4 25       		.uleb128 0x25
 2121 0af5 C0010000 		.4byte	.LVL55
 2122 0af9 C10D0000 		.4byte	0xdc1
 2123 0afd 24       		.uleb128 0x24
 2124 0afe 01       		.uleb128 0x1
 2125 0aff 50       		.byte	0x50
 2126 0b00 01       		.uleb128 0x1
 2127 0b01 3C       		.byte	0x3c
 2128 0b02 00       		.byte	0
 2129 0b03 00       		.byte	0
 2130 0b04 26       		.uleb128 0x26
 2131 0b05 C2050000 		.4byte	.LASF149
 2132 0b09 01       		.byte	0x1
 2133 0b0a CF       		.byte	0xcf
 2134 0b0b 0D       		.byte	0xd
 2135 0b0c 27       		.uleb128 0x27
 2136 0b0d 6D060000 		.4byte	.LASF130
 2137 0b11 01       		.byte	0x1
 2138 0b12 C3       		.byte	0xc3
 2139 0b13 0F       		.byte	0xf
 2140 0b14 D7000000 		.4byte	0xd7
 2141 0b18 00000000 		.4byte	.LFB10
 2142 0b1c 34000000 		.4byte	.LFE10-.LFB10
 2143 0b20 01       		.uleb128 0x1
 2144 0b21 9C       		.byte	0x9c
 2145 0b22 740B0000 		.4byte	0xb74
 2146 0b26 28       		.uleb128 0x28
 2147 0b27 747000   		.ascii	"tp\000"
 2148 0b2a 01       		.byte	0x1
 2149 0b2b C3       		.byte	0xc3
 2150 0b2c 1F       		.byte	0x1f
 2151 0b2d 7D020000 		.4byte	0x27d
 2152 0b31 26000000 		.4byte	.LLST3
 2153 0b35 22000000 		.4byte	.LVUS3
 2154 0b39 21       		.uleb128 0x21
ARM GAS  /var/folders/l5/0x54b2c10074c8bt31ycjvl80000gp/T//cc73C8xp.s 			page 39


 2155 0b3a 66747000 		.ascii	"ftp\000"
 2156 0b3e 01       		.byte	0x1
 2157 0b3f C4       		.byte	0xc4
 2158 0b40 0B       		.byte	0xb
 2159 0b41 7D020000 		.4byte	0x27d
 2160 0b45 4A000000 		.4byte	.LLST4
 2161 0b49 44000000 		.4byte	.LVUS4
 2162 0b4d 29       		.uleb128 0x29
 2163 0b4e 4B060000 		.4byte	.LASF124
 2164 0b52 01       		.byte	0x1
 2165 0b53 C5       		.byte	0xc5
 2166 0b54 0A       		.byte	0xa
 2167 0b55 D7000000 		.4byte	0xd7
 2168 0b59 77000000 		.4byte	.LLST5
 2169 0b5d 73000000 		.4byte	.LVUS5
 2170 0b61 2A       		.uleb128 0x2a
 2171 0b62 0C000000 		.4byte	.LVL22
 2172 0b66 F20D0000 		.4byte	0xdf2
 2173 0b6a 2A       		.uleb128 0x2a
 2174 0b6b 24000000 		.4byte	.LVL25
 2175 0b6f FE0D0000 		.4byte	0xdfe
 2176 0b73 00       		.byte	0
 2177 0b74 20       		.uleb128 0x20
 2178 0b75 69010000 		.4byte	.LASF126
 2179 0b79 01       		.byte	0x1
 2180 0b7a 57       		.byte	0x57
 2181 0b7b 0D       		.byte	0xd
 2182 0b7c 00000000 		.4byte	.LFB9
 2183 0b80 80010000 		.4byte	.LFE9-.LFB9
 2184 0b84 01       		.uleb128 0x1
 2185 0b85 9C       		.byte	0x9c
 2186 0b86 4E0D0000 		.4byte	0xd4e
 2187 0b8a 2B       		.uleb128 0x2b
 2188 0b8b 6E00     		.ascii	"n\000"
 2189 0b8d 01       		.byte	0x1
 2190 0b8e 58       		.byte	0x58
 2191 0b8f 0A       		.byte	0xa
 2192 0b90 2C000000 		.4byte	0x2c
 2193 0b94 02       		.uleb128 0x2
 2194 0b95 91       		.byte	0x91
 2195 0b96 68       		.sleb128 -24
 2196 0b97 2B       		.uleb128 0x2b
 2197 0b98 737A00   		.ascii	"sz\000"
 2198 0b9b 01       		.byte	0x1
 2199 0b9c 58       		.byte	0x58
 2200 0b9d 0D       		.byte	0xd
 2201 0b9e 2C000000 		.4byte	0x2c
 2202 0ba2 02       		.uleb128 0x2
 2203 0ba3 91       		.byte	0x91
 2204 0ba4 6C       		.sleb128 -20
 2205 0ba5 21       		.uleb128 0x21
 2206 0ba6 703100   		.ascii	"p1\000"
 2207 0ba9 01       		.byte	0x1
 2208 0baa 59       		.byte	0x59
 2209 0bab 09       		.byte	0x9
 2210 0bac CA020000 		.4byte	0x2ca
 2211 0bb0 9A000000 		.4byte	.LLST0
ARM GAS  /var/folders/l5/0x54b2c10074c8bt31ycjvl80000gp/T//cc73C8xp.s 			page 40


 2212 0bb4 96000000 		.4byte	.LVUS0
 2213 0bb8 29       		.uleb128 0x29
 2214 0bb9 0D000000 		.4byte	.LASF128
 2215 0bbd 01       		.byte	0x1
 2216 0bbe 5A       		.byte	0x5a
 2217 0bbf 0B       		.byte	0xb
 2218 0bc0 13010000 		.4byte	0x113
 2219 0bc4 BA000000 		.4byte	.LLST1
 2220 0bc8 B8000000 		.4byte	.LVUS1
 2221 0bcc 23       		.uleb128 0x23
 2222 0bcd 20000000 		.4byte	.LVL1
 2223 0bd1 0A0E0000 		.4byte	0xe0a
 2224 0bd5 E90B0000 		.4byte	0xbe9
 2225 0bd9 24       		.uleb128 0x24
 2226 0bda 01       		.uleb128 0x1
 2227 0bdb 50       		.byte	0x50
 2228 0bdc 05       		.uleb128 0x5
 2229 0bdd 03       		.byte	0x3
 2230 0bde 00000000 		.4byte	.LANCHOR0
 2231 0be2 24       		.uleb128 0x24
 2232 0be3 01       		.uleb128 0x1
 2233 0be4 51       		.byte	0x51
 2234 0be5 02       		.uleb128 0x2
 2235 0be6 91       		.byte	0x91
 2236 0be7 64       		.sleb128 -28
 2237 0be8 00       		.byte	0
 2238 0be9 23       		.uleb128 0x23
 2239 0bea 3C000000 		.4byte	.LVL2
 2240 0bee B50D0000 		.4byte	0xdb5
 2241 0bf2 200C0000 		.4byte	0xc20
 2242 0bf6 24       		.uleb128 0x24
 2243 0bf7 01       		.uleb128 0x1
 2244 0bf8 50       		.byte	0x50
 2245 0bf9 05       		.uleb128 0x5
 2246 0bfa 03       		.byte	0x3
 2247 0bfb 00000000 		.4byte	.LANCHOR0
 2248 0bff 24       		.uleb128 0x24
 2249 0c00 01       		.uleb128 0x1
 2250 0c01 51       		.byte	0x51
 2251 0c02 03       		.uleb128 0x3
 2252 0c03 0A       		.byte	0xa
 2253 0c04 1801     		.2byte	0x118
 2254 0c06 24       		.uleb128 0x24
 2255 0c07 01       		.uleb128 0x1
 2256 0c08 52       		.byte	0x52
 2257 0c09 02       		.uleb128 0x2
 2258 0c0a 75       		.byte	0x75
 2259 0c0b 7F       		.sleb128 -1
 2260 0c0c 24       		.uleb128 0x24
 2261 0c0d 01       		.uleb128 0x1
 2262 0c0e 53       		.byte	0x53
 2263 0c0f 05       		.uleb128 0x5
 2264 0c10 03       		.byte	0x3
 2265 0c11 00000000 		.4byte	thread
 2266 0c15 24       		.uleb128 0x24
 2267 0c16 02       		.uleb128 0x2
 2268 0c17 7D       		.byte	0x7d
ARM GAS  /var/folders/l5/0x54b2c10074c8bt31ycjvl80000gp/T//cc73C8xp.s 			page 41


 2269 0c18 00       		.sleb128 0
 2270 0c19 05       		.uleb128 0x5
 2271 0c1a 03       		.byte	0x3
 2272 0c1b 00000000 		.4byte	.LC0
 2273 0c1f 00       		.byte	0
 2274 0c20 23       		.uleb128 0x23
 2275 0c21 60000000 		.4byte	.LVL3
 2276 0c25 B50D0000 		.4byte	0xdb5
 2277 0c29 570C0000 		.4byte	0xc57
 2278 0c2d 24       		.uleb128 0x24
 2279 0c2e 01       		.uleb128 0x1
 2280 0c2f 50       		.byte	0x50
 2281 0c30 05       		.uleb128 0x5
 2282 0c31 03       		.byte	0x3
 2283 0c32 00000000 		.4byte	.LANCHOR0
 2284 0c36 24       		.uleb128 0x24
 2285 0c37 01       		.uleb128 0x1
 2286 0c38 51       		.byte	0x51
 2287 0c39 03       		.uleb128 0x3
 2288 0c3a 0A       		.byte	0xa
 2289 0c3b 1801     		.2byte	0x118
 2290 0c3d 24       		.uleb128 0x24
 2291 0c3e 01       		.uleb128 0x1
 2292 0c3f 52       		.byte	0x52
 2293 0c40 02       		.uleb128 0x2
 2294 0c41 75       		.byte	0x75
 2295 0c42 7E       		.sleb128 -2
 2296 0c43 24       		.uleb128 0x24
 2297 0c44 01       		.uleb128 0x1
 2298 0c45 53       		.byte	0x53
 2299 0c46 05       		.uleb128 0x5
 2300 0c47 03       		.byte	0x3
 2301 0c48 00000000 		.4byte	thread
 2302 0c4c 24       		.uleb128 0x24
 2303 0c4d 02       		.uleb128 0x2
 2304 0c4e 7D       		.byte	0x7d
 2305 0c4f 00       		.sleb128 0
 2306 0c50 05       		.uleb128 0x5
 2307 0c51 03       		.byte	0x3
 2308 0c52 04000000 		.4byte	.LC1
 2309 0c56 00       		.byte	0
 2310 0c57 23       		.uleb128 0x23
 2311 0c58 70000000 		.4byte	.LVL4
 2312 0c5c 0A0E0000 		.4byte	0xe0a
 2313 0c60 740C0000 		.4byte	0xc74
 2314 0c64 24       		.uleb128 0x24
 2315 0c65 01       		.uleb128 0x1
 2316 0c66 50       		.byte	0x50
 2317 0c67 05       		.uleb128 0x5
 2318 0c68 03       		.byte	0x3
 2319 0c69 00000000 		.4byte	.LANCHOR0
 2320 0c6d 24       		.uleb128 0x24
 2321 0c6e 01       		.uleb128 0x1
 2322 0c6f 51       		.byte	0x51
 2323 0c70 02       		.uleb128 0x2
 2324 0c71 91       		.byte	0x91
 2325 0c72 60       		.sleb128 -32
ARM GAS  /var/folders/l5/0x54b2c10074c8bt31ycjvl80000gp/T//cc73C8xp.s 			page 42


 2326 0c73 00       		.byte	0
 2327 0c74 23       		.uleb128 0x23
 2328 0c75 7C000000 		.4byte	.LVL5
 2329 0c79 160E0000 		.4byte	0xe16
 2330 0c7d 8B0C0000 		.4byte	0xc8b
 2331 0c81 24       		.uleb128 0x24
 2332 0c82 01       		.uleb128 0x1
 2333 0c83 50       		.byte	0x50
 2334 0c84 05       		.uleb128 0x5
 2335 0c85 03       		.byte	0x3
 2336 0c86 00000000 		.4byte	.LANCHOR0
 2337 0c8a 00       		.byte	0
 2338 0c8b 23       		.uleb128 0x23
 2339 0c8c 9C000000 		.4byte	.LVL8
 2340 0c90 B50D0000 		.4byte	0xdb5
 2341 0c94 C20C0000 		.4byte	0xcc2
 2342 0c98 24       		.uleb128 0x24
 2343 0c99 01       		.uleb128 0x1
 2344 0c9a 50       		.byte	0x50
 2345 0c9b 05       		.uleb128 0x5
 2346 0c9c 03       		.byte	0x3
 2347 0c9d 00000000 		.4byte	.LANCHOR0
 2348 0ca1 24       		.uleb128 0x24
 2349 0ca2 01       		.uleb128 0x1
 2350 0ca3 51       		.byte	0x51
 2351 0ca4 03       		.uleb128 0x3
 2352 0ca5 0A       		.byte	0xa
 2353 0ca6 1801     		.2byte	0x118
 2354 0ca8 24       		.uleb128 0x24
 2355 0ca9 01       		.uleb128 0x1
 2356 0caa 52       		.byte	0x52
 2357 0cab 02       		.uleb128 0x2
 2358 0cac 75       		.byte	0x75
 2359 0cad 7D       		.sleb128 -3
 2360 0cae 24       		.uleb128 0x24
 2361 0caf 01       		.uleb128 0x1
 2362 0cb0 53       		.byte	0x53
 2363 0cb1 05       		.uleb128 0x5
 2364 0cb2 03       		.byte	0x3
 2365 0cb3 00000000 		.4byte	thread
 2366 0cb7 24       		.uleb128 0x24
 2367 0cb8 02       		.uleb128 0x2
 2368 0cb9 7D       		.byte	0x7d
 2369 0cba 00       		.sleb128 0
 2370 0cbb 05       		.uleb128 0x5
 2371 0cbc 03       		.byte	0x3
 2372 0cbd 08000000 		.4byte	.LC2
 2373 0cc1 00       		.byte	0
 2374 0cc2 23       		.uleb128 0x23
 2375 0cc3 A8000000 		.4byte	.LVL9
 2376 0cc7 220E0000 		.4byte	0xe22
 2377 0ccb D60C0000 		.4byte	0xcd6
 2378 0ccf 24       		.uleb128 0x24
 2379 0cd0 01       		.uleb128 0x1
 2380 0cd1 50       		.byte	0x50
 2381 0cd2 02       		.uleb128 0x2
 2382 0cd3 76       		.byte	0x76
ARM GAS  /var/folders/l5/0x54b2c10074c8bt31ycjvl80000gp/T//cc73C8xp.s 			page 43


 2383 0cd4 00       		.sleb128 0
 2384 0cd5 00       		.byte	0
 2385 0cd6 23       		.uleb128 0x23
 2386 0cd7 D8000000 		.4byte	.LVL10
 2387 0cdb C10D0000 		.4byte	0xdc1
 2388 0cdf E90C0000 		.4byte	0xce9
 2389 0ce3 24       		.uleb128 0x24
 2390 0ce4 01       		.uleb128 0x1
 2391 0ce5 50       		.byte	0x50
 2392 0ce6 01       		.uleb128 0x1
 2393 0ce7 31       		.byte	0x31
 2394 0ce8 00       		.byte	0
 2395 0ce9 2A       		.uleb128 0x2a
 2396 0cea EC000000 		.4byte	.LVL12
 2397 0cee 2E0E0000 		.4byte	0xe2e
 2398 0cf2 23       		.uleb128 0x23
 2399 0cf3 F8000000 		.4byte	.LVL13
 2400 0cf7 3A0E0000 		.4byte	0xe3a
 2401 0cfb 0E0D0000 		.4byte	0xd0e
 2402 0cff 24       		.uleb128 0x24
 2403 0d00 01       		.uleb128 0x1
 2404 0d01 50       		.byte	0x50
 2405 0d02 01       		.uleb128 0x1
 2406 0d03 32       		.byte	0x32
 2407 0d04 24       		.uleb128 0x24
 2408 0d05 01       		.uleb128 0x1
 2409 0d06 51       		.byte	0x51
 2410 0d07 05       		.uleb128 0x5
 2411 0d08 03       		.byte	0x3
 2412 0d09 0C000000 		.4byte	.LC3
 2413 0d0d 00       		.byte	0
 2414 0d0e 23       		.uleb128 0x23
 2415 0d0f 0C010000 		.4byte	.LVL14
 2416 0d13 0A0E0000 		.4byte	0xe0a
 2417 0d17 2B0D0000 		.4byte	0xd2b
 2418 0d1b 24       		.uleb128 0x24
 2419 0d1c 01       		.uleb128 0x1
 2420 0d1d 50       		.byte	0x50
 2421 0d1e 05       		.uleb128 0x5
 2422 0d1f 03       		.byte	0x3
 2423 0d20 00000000 		.4byte	.LANCHOR0
 2424 0d24 24       		.uleb128 0x24
 2425 0d25 01       		.uleb128 0x1
 2426 0d26 51       		.byte	0x51
 2427 0d27 02       		.uleb128 0x2
 2428 0d28 91       		.byte	0x91
 2429 0d29 60       		.sleb128 -32
 2430 0d2a 00       		.byte	0
 2431 0d2b 23       		.uleb128 0x23
 2432 0d2c 20010000 		.4byte	.LVL15
 2433 0d30 C10D0000 		.4byte	0xdc1
 2434 0d34 3E0D0000 		.4byte	0xd3e
 2435 0d38 24       		.uleb128 0x24
 2436 0d39 01       		.uleb128 0x1
 2437 0d3a 50       		.byte	0x50
 2438 0d3b 01       		.uleb128 0x1
 2439 0d3c 33       		.byte	0x33
ARM GAS  /var/folders/l5/0x54b2c10074c8bt31ycjvl80000gp/T//cc73C8xp.s 			page 44


 2440 0d3d 00       		.byte	0
 2441 0d3e 2C       		.uleb128 0x2c
 2442 0d3f 44010000 		.4byte	.LVL16
 2443 0d43 C10D0000 		.4byte	0xdc1
 2444 0d47 24       		.uleb128 0x24
 2445 0d48 01       		.uleb128 0x1
 2446 0d49 50       		.byte	0x50
 2447 0d4a 01       		.uleb128 0x1
 2448 0d4b 34       		.byte	0x34
 2449 0d4c 00       		.byte	0
 2450 0d4d 00       		.byte	0
 2451 0d4e 20       		.uleb128 0x20
 2452 0d4f 04020000 		.4byte	.LASF129
 2453 0d53 01       		.byte	0x1
 2454 0d54 52       		.byte	0x52
 2455 0d55 0D       		.byte	0xd
 2456 0d56 00000000 		.4byte	.LFB8
 2457 0d5a 1C000000 		.4byte	.LFE8-.LFB8
 2458 0d5e 01       		.uleb128 0x1
 2459 0d5f 9C       		.byte	0x9c
 2460 0d60 7F0D0000 		.4byte	0xd7f
 2461 0d64 25       		.uleb128 0x25
 2462 0d65 10000000 		.4byte	.LVL20
 2463 0d69 460E0000 		.4byte	0xe46
 2464 0d6d 24       		.uleb128 0x24
 2465 0d6e 01       		.uleb128 0x1
 2466 0d6f 50       		.byte	0x50
 2467 0d70 05       		.uleb128 0x5
 2468 0d71 03       		.byte	0x3
 2469 0d72 00000000 		.4byte	.LANCHOR0
 2470 0d76 24       		.uleb128 0x24
 2471 0d77 01       		.uleb128 0x1
 2472 0d78 52       		.byte	0x52
 2473 0d79 03       		.uleb128 0x3
 2474 0d7a 0A       		.byte	0xa
 2475 0d7b 7805     		.2byte	0x578
 2476 0d7d 00       		.byte	0
 2477 0d7e 00       		.byte	0
 2478 0d7f 27       		.uleb128 0x27
 2479 0d80 91040000 		.4byte	.LASF131
 2480 0d84 01       		.byte	0x1
 2481 0d85 4B       		.byte	0x4b
 2482 0d86 0E       		.byte	0xe
 2483 0d87 1F010000 		.4byte	0x11f
 2484 0d8b 00000000 		.4byte	.LFB7
 2485 0d8f 14000000 		.4byte	.LFE7-.LFB7
 2486 0d93 01       		.uleb128 0x1
 2487 0d94 9C       		.byte	0x9c
 2488 0d95 B50D0000 		.4byte	0xdb5
 2489 0d99 28       		.uleb128 0x28
 2490 0d9a 7000     		.ascii	"p\000"
 2491 0d9c 01       		.byte	0x1
 2492 0d9d 4B       		.byte	0x4b
 2493 0d9e 1B       		.byte	0x1b
 2494 0d9f CA020000 		.4byte	0x2ca
 2495 0da3 D1000000 		.4byte	.LLST2
 2496 0da7 CD000000 		.4byte	.LVUS2
ARM GAS  /var/folders/l5/0x54b2c10074c8bt31ycjvl80000gp/T//cc73C8xp.s 			page 45


 2497 0dab 2A       		.uleb128 0x2a
 2498 0dac 0C000000 		.4byte	.LVL19
 2499 0db0 520E0000 		.4byte	0xe52
 2500 0db4 00       		.byte	0
 2501 0db5 2D       		.uleb128 0x2d
 2502 0db6 29010000 		.4byte	.LASF132
 2503 0dba 29010000 		.4byte	.LASF132
 2504 0dbe 11       		.byte	0x11
 2505 0dbf 35       		.byte	0x35
 2506 0dc0 0B       		.byte	0xb
 2507 0dc1 2D       		.uleb128 0x2d
 2508 0dc2 91060000 		.4byte	.LASF133
 2509 0dc6 91060000 		.4byte	.LASF133
 2510 0dca 10       		.byte	0x10
 2511 0dcb 5C       		.byte	0x5c
 2512 0dcc 0A       		.byte	0xa
 2513 0dcd 2D       		.uleb128 0x2d
 2514 0dce 57030000 		.4byte	.LASF134
 2515 0dd2 57030000 		.4byte	.LASF134
 2516 0dd6 11       		.byte	0x11
 2517 0dd7 32       		.byte	0x32
 2518 0dd8 0B       		.byte	0xb
 2519 0dd9 2D       		.uleb128 0x2d
 2520 0dda 2A050000 		.4byte	.LASF135
 2521 0dde 2A050000 		.4byte	.LASF135
 2522 0de2 11       		.byte	0x11
 2523 0de3 33       		.byte	0x33
 2524 0de4 08       		.byte	0x8
 2525 0de5 2E       		.uleb128 0x2e
 2526 0de6 6B050000 		.4byte	.LASF136
 2527 0dea 6B050000 		.4byte	.LASF136
 2528 0dee 07       		.byte	0x7
 2529 0def 6901     		.2byte	0x169
 2530 0df1 08       		.byte	0x8
 2531 0df2 2D       		.uleb128 0x2d
 2532 0df3 71000000 		.4byte	.LASF137
 2533 0df7 71000000 		.4byte	.LASF137
 2534 0dfb 0E       		.byte	0xe
 2535 0dfc 78       		.byte	0x78
 2536 0dfd 0B       		.byte	0xb
 2537 0dfe 2D       		.uleb128 0x2d
 2538 0dff 3D010000 		.4byte	.LASF138
 2539 0e03 3D010000 		.4byte	.LASF138
 2540 0e07 0E       		.byte	0xe
 2541 0e08 79       		.byte	0x79
 2542 0e09 0B       		.byte	0xb
 2543 0e0a 2D       		.uleb128 0x2d
 2544 0e0b CD050000 		.4byte	.LASF139
 2545 0e0f CD050000 		.4byte	.LASF139
 2546 0e13 0D       		.byte	0xd
 2547 0e14 54       		.byte	0x54
 2548 0e15 0A       		.byte	0xa
 2549 0e16 2D       		.uleb128 0x2d
 2550 0e17 3E050000 		.4byte	.LASF140
 2551 0e1b 3E050000 		.4byte	.LASF140
 2552 0e1f 0D       		.byte	0xd
 2553 0e20 52       		.byte	0x52
ARM GAS  /var/folders/l5/0x54b2c10074c8bt31ycjvl80000gp/T//cc73C8xp.s 			page 46


 2554 0e21 09       		.byte	0x9
 2555 0e22 2D       		.uleb128 0x2d
 2556 0e23 0B010000 		.4byte	.LASF141
 2557 0e27 0B010000 		.4byte	.LASF141
 2558 0e2b 0D       		.byte	0xd
 2559 0e2c 53       		.byte	0x53
 2560 0e2d 08       		.byte	0x8
 2561 0e2e 2D       		.uleb128 0x2d
 2562 0e2f DA050000 		.4byte	.LASF142
 2563 0e33 DA050000 		.4byte	.LASF142
 2564 0e37 10       		.byte	0x10
 2565 0e38 60       		.byte	0x60
 2566 0e39 08       		.byte	0x8
 2567 0e3a 2D       		.uleb128 0x2d
 2568 0e3b 34040000 		.4byte	.LASF143
 2569 0e3f 34040000 		.4byte	.LASF143
 2570 0e43 10       		.byte	0x10
 2571 0e44 5D       		.byte	0x5d
 2572 0e45 0A       		.byte	0xa
 2573 0e46 2D       		.uleb128 0x2d
 2574 0e47 82000000 		.4byte	.LASF144
 2575 0e4b 82000000 		.4byte	.LASF144
 2576 0e4f 0D       		.byte	0xd
 2577 0e50 50       		.byte	0x50
 2578 0e51 08       		.byte	0x8
 2579 0e52 2D       		.uleb128 0x2d
 2580 0e53 FB000000 		.4byte	.LASF145
 2581 0e57 FB000000 		.4byte	.LASF145
 2582 0e5b 10       		.byte	0x10
 2583 0e5c 5A       		.byte	0x5a
 2584 0e5d 08       		.byte	0x8
 2585 0e5e 00       		.byte	0
 2586              		.section	.debug_abbrev,"",%progbits
 2587              	.Ldebug_abbrev0:
 2588 0000 01       		.uleb128 0x1
 2589 0001 11       		.uleb128 0x11
 2590 0002 01       		.byte	0x1
 2591 0003 25       		.uleb128 0x25
 2592 0004 0E       		.uleb128 0xe
 2593 0005 13       		.uleb128 0x13
 2594 0006 0B       		.uleb128 0xb
 2595 0007 03       		.uleb128 0x3
 2596 0008 0E       		.uleb128 0xe
 2597 0009 1B       		.uleb128 0x1b
 2598 000a 0E       		.uleb128 0xe
 2599 000b 55       		.uleb128 0x55
 2600 000c 17       		.uleb128 0x17
 2601 000d 11       		.uleb128 0x11
 2602 000e 01       		.uleb128 0x1
 2603 000f 10       		.uleb128 0x10
 2604 0010 17       		.uleb128 0x17
 2605 0011 00       		.byte	0
 2606 0012 00       		.byte	0
 2607 0013 02       		.uleb128 0x2
 2608 0014 24       		.uleb128 0x24
 2609 0015 00       		.byte	0
 2610 0016 0B       		.uleb128 0xb
ARM GAS  /var/folders/l5/0x54b2c10074c8bt31ycjvl80000gp/T//cc73C8xp.s 			page 47


 2611 0017 0B       		.uleb128 0xb
 2612 0018 3E       		.uleb128 0x3e
 2613 0019 0B       		.uleb128 0xb
 2614 001a 03       		.uleb128 0x3
 2615 001b 08       		.uleb128 0x8
 2616 001c 00       		.byte	0
 2617 001d 00       		.byte	0
 2618 001e 03       		.uleb128 0x3
 2619 001f 16       		.uleb128 0x16
 2620 0020 00       		.byte	0
 2621 0021 03       		.uleb128 0x3
 2622 0022 0E       		.uleb128 0xe
 2623 0023 3A       		.uleb128 0x3a
 2624 0024 0B       		.uleb128 0xb
 2625 0025 3B       		.uleb128 0x3b
 2626 0026 0B       		.uleb128 0xb
 2627 0027 39       		.uleb128 0x39
 2628 0028 0B       		.uleb128 0xb
 2629 0029 49       		.uleb128 0x49
 2630 002a 13       		.uleb128 0x13
 2631 002b 00       		.byte	0
 2632 002c 00       		.byte	0
 2633 002d 04       		.uleb128 0x4
 2634 002e 24       		.uleb128 0x24
 2635 002f 00       		.byte	0
 2636 0030 0B       		.uleb128 0xb
 2637 0031 0B       		.uleb128 0xb
 2638 0032 3E       		.uleb128 0x3e
 2639 0033 0B       		.uleb128 0xb
 2640 0034 03       		.uleb128 0x3
 2641 0035 0E       		.uleb128 0xe
 2642 0036 00       		.byte	0
 2643 0037 00       		.byte	0
 2644 0038 05       		.uleb128 0x5
 2645 0039 35       		.uleb128 0x35
 2646 003a 00       		.byte	0
 2647 003b 49       		.uleb128 0x49
 2648 003c 13       		.uleb128 0x13
 2649 003d 00       		.byte	0
 2650 003e 00       		.byte	0
 2651 003f 06       		.uleb128 0x6
 2652 0040 13       		.uleb128 0x13
 2653 0041 01       		.byte	0x1
 2654 0042 03       		.uleb128 0x3
 2655 0043 0E       		.uleb128 0xe
 2656 0044 0B       		.uleb128 0xb
 2657 0045 0B       		.uleb128 0xb
 2658 0046 3A       		.uleb128 0x3a
 2659 0047 0B       		.uleb128 0xb
 2660 0048 3B       		.uleb128 0x3b
 2661 0049 0B       		.uleb128 0xb
 2662 004a 39       		.uleb128 0x39
 2663 004b 0B       		.uleb128 0xb
 2664 004c 01       		.uleb128 0x1
 2665 004d 13       		.uleb128 0x13
 2666 004e 00       		.byte	0
 2667 004f 00       		.byte	0
ARM GAS  /var/folders/l5/0x54b2c10074c8bt31ycjvl80000gp/T//cc73C8xp.s 			page 48


 2668 0050 07       		.uleb128 0x7
 2669 0051 0D       		.uleb128 0xd
 2670 0052 00       		.byte	0
 2671 0053 03       		.uleb128 0x3
 2672 0054 0E       		.uleb128 0xe
 2673 0055 3A       		.uleb128 0x3a
 2674 0056 0B       		.uleb128 0xb
 2675 0057 3B       		.uleb128 0x3b
 2676 0058 0B       		.uleb128 0xb
 2677 0059 39       		.uleb128 0x39
 2678 005a 0B       		.uleb128 0xb
 2679 005b 49       		.uleb128 0x49
 2680 005c 13       		.uleb128 0x13
 2681 005d 38       		.uleb128 0x38
 2682 005e 0B       		.uleb128 0xb
 2683 005f 00       		.byte	0
 2684 0060 00       		.byte	0
 2685 0061 08       		.uleb128 0x8
 2686 0062 0D       		.uleb128 0xd
 2687 0063 00       		.byte	0
 2688 0064 03       		.uleb128 0x3
 2689 0065 08       		.uleb128 0x8
 2690 0066 3A       		.uleb128 0x3a
 2691 0067 0B       		.uleb128 0xb
 2692 0068 3B       		.uleb128 0x3b
 2693 0069 0B       		.uleb128 0xb
 2694 006a 39       		.uleb128 0x39
 2695 006b 0B       		.uleb128 0xb
 2696 006c 49       		.uleb128 0x49
 2697 006d 13       		.uleb128 0x13
 2698 006e 38       		.uleb128 0x38
 2699 006f 0B       		.uleb128 0xb
 2700 0070 00       		.byte	0
 2701 0071 00       		.byte	0
 2702 0072 09       		.uleb128 0x9
 2703 0073 13       		.uleb128 0x13
 2704 0074 01       		.byte	0x1
 2705 0075 0B       		.uleb128 0xb
 2706 0076 0B       		.uleb128 0xb
 2707 0077 3A       		.uleb128 0x3a
 2708 0078 0B       		.uleb128 0xb
 2709 0079 3B       		.uleb128 0x3b
 2710 007a 0B       		.uleb128 0xb
 2711 007b 39       		.uleb128 0x39
 2712 007c 0B       		.uleb128 0xb
 2713 007d 01       		.uleb128 0x1
 2714 007e 13       		.uleb128 0x13
 2715 007f 00       		.byte	0
 2716 0080 00       		.byte	0
 2717 0081 0A       		.uleb128 0xa
 2718 0082 0F       		.uleb128 0xf
 2719 0083 00       		.byte	0
 2720 0084 0B       		.uleb128 0xb
 2721 0085 0B       		.uleb128 0xb
 2722 0086 49       		.uleb128 0x49
 2723 0087 13       		.uleb128 0x13
 2724 0088 00       		.byte	0
ARM GAS  /var/folders/l5/0x54b2c10074c8bt31ycjvl80000gp/T//cc73C8xp.s 			page 49


 2725 0089 00       		.byte	0
 2726 008a 0B       		.uleb128 0xb
 2727 008b 0F       		.uleb128 0xf
 2728 008c 00       		.byte	0
 2729 008d 0B       		.uleb128 0xb
 2730 008e 0B       		.uleb128 0xb
 2731 008f 00       		.byte	0
 2732 0090 00       		.byte	0
 2733 0091 0C       		.uleb128 0xc
 2734 0092 26       		.uleb128 0x26
 2735 0093 00       		.byte	0
 2736 0094 49       		.uleb128 0x49
 2737 0095 13       		.uleb128 0x13
 2738 0096 00       		.byte	0
 2739 0097 00       		.byte	0
 2740 0098 0D       		.uleb128 0xd
 2741 0099 15       		.uleb128 0x15
 2742 009a 01       		.byte	0x1
 2743 009b 27       		.uleb128 0x27
 2744 009c 19       		.uleb128 0x19
 2745 009d 01       		.uleb128 0x1
 2746 009e 13       		.uleb128 0x13
 2747 009f 00       		.byte	0
 2748 00a0 00       		.byte	0
 2749 00a1 0E       		.uleb128 0xe
 2750 00a2 05       		.uleb128 0x5
 2751 00a3 00       		.byte	0
 2752 00a4 49       		.uleb128 0x49
 2753 00a5 13       		.uleb128 0x13
 2754 00a6 00       		.byte	0
 2755 00a7 00       		.byte	0
 2756 00a8 0F       		.uleb128 0xf
 2757 00a9 34       		.uleb128 0x34
 2758 00aa 00       		.byte	0
 2759 00ab 03       		.uleb128 0x3
 2760 00ac 0E       		.uleb128 0xe
 2761 00ad 3A       		.uleb128 0x3a
 2762 00ae 0B       		.uleb128 0xb
 2763 00af 3B       		.uleb128 0x3b
 2764 00b0 0B       		.uleb128 0xb
 2765 00b1 39       		.uleb128 0x39
 2766 00b2 0B       		.uleb128 0xb
 2767 00b3 49       		.uleb128 0x49
 2768 00b4 13       		.uleb128 0x13
 2769 00b5 3F       		.uleb128 0x3f
 2770 00b6 19       		.uleb128 0x19
 2771 00b7 3C       		.uleb128 0x3c
 2772 00b8 19       		.uleb128 0x19
 2773 00b9 00       		.byte	0
 2774 00ba 00       		.byte	0
 2775 00bb 10       		.uleb128 0x10
 2776 00bc 15       		.uleb128 0x15
 2777 00bd 01       		.byte	0x1
 2778 00be 27       		.uleb128 0x27
 2779 00bf 19       		.uleb128 0x19
 2780 00c0 49       		.uleb128 0x49
 2781 00c1 13       		.uleb128 0x13
ARM GAS  /var/folders/l5/0x54b2c10074c8bt31ycjvl80000gp/T//cc73C8xp.s 			page 50


 2782 00c2 01       		.uleb128 0x1
 2783 00c3 13       		.uleb128 0x13
 2784 00c4 00       		.byte	0
 2785 00c5 00       		.byte	0
 2786 00c6 11       		.uleb128 0x11
 2787 00c7 17       		.uleb128 0x17
 2788 00c8 01       		.byte	0x1
 2789 00c9 0B       		.uleb128 0xb
 2790 00ca 0B       		.uleb128 0xb
 2791 00cb 3A       		.uleb128 0x3a
 2792 00cc 0B       		.uleb128 0xb
 2793 00cd 3B       		.uleb128 0x3b
 2794 00ce 0B       		.uleb128 0xb
 2795 00cf 39       		.uleb128 0x39
 2796 00d0 0B       		.uleb128 0xb
 2797 00d1 01       		.uleb128 0x1
 2798 00d2 13       		.uleb128 0x13
 2799 00d3 00       		.byte	0
 2800 00d4 00       		.byte	0
 2801 00d5 12       		.uleb128 0x12
 2802 00d6 0D       		.uleb128 0xd
 2803 00d7 00       		.byte	0
 2804 00d8 03       		.uleb128 0x3
 2805 00d9 0E       		.uleb128 0xe
 2806 00da 3A       		.uleb128 0x3a
 2807 00db 0B       		.uleb128 0xb
 2808 00dc 3B       		.uleb128 0x3b
 2809 00dd 0B       		.uleb128 0xb
 2810 00de 39       		.uleb128 0x39
 2811 00df 0B       		.uleb128 0xb
 2812 00e0 49       		.uleb128 0x49
 2813 00e1 13       		.uleb128 0x13
 2814 00e2 00       		.byte	0
 2815 00e3 00       		.byte	0
 2816 00e4 13       		.uleb128 0x13
 2817 00e5 17       		.uleb128 0x17
 2818 00e6 01       		.byte	0x1
 2819 00e7 03       		.uleb128 0x3
 2820 00e8 0E       		.uleb128 0xe
 2821 00e9 0B       		.uleb128 0xb
 2822 00ea 0B       		.uleb128 0xb
 2823 00eb 3A       		.uleb128 0x3a
 2824 00ec 0B       		.uleb128 0xb
 2825 00ed 3B       		.uleb128 0x3b
 2826 00ee 0B       		.uleb128 0xb
 2827 00ef 39       		.uleb128 0x39
 2828 00f0 0B       		.uleb128 0xb
 2829 00f1 01       		.uleb128 0x1
 2830 00f2 13       		.uleb128 0x13
 2831 00f3 00       		.byte	0
 2832 00f4 00       		.byte	0
 2833 00f5 14       		.uleb128 0x14
 2834 00f6 0D       		.uleb128 0xd
 2835 00f7 00       		.byte	0
 2836 00f8 03       		.uleb128 0x3
 2837 00f9 08       		.uleb128 0x8
 2838 00fa 3A       		.uleb128 0x3a
ARM GAS  /var/folders/l5/0x54b2c10074c8bt31ycjvl80000gp/T//cc73C8xp.s 			page 51


 2839 00fb 0B       		.uleb128 0xb
 2840 00fc 3B       		.uleb128 0x3b
 2841 00fd 0B       		.uleb128 0xb
 2842 00fe 39       		.uleb128 0x39
 2843 00ff 0B       		.uleb128 0xb
 2844 0100 49       		.uleb128 0x49
 2845 0101 13       		.uleb128 0x13
 2846 0102 00       		.byte	0
 2847 0103 00       		.byte	0
 2848 0104 15       		.uleb128 0x15
 2849 0105 01       		.uleb128 0x1
 2850 0106 01       		.byte	0x1
 2851 0107 49       		.uleb128 0x49
 2852 0108 13       		.uleb128 0x13
 2853 0109 01       		.uleb128 0x1
 2854 010a 13       		.uleb128 0x13
 2855 010b 00       		.byte	0
 2856 010c 00       		.byte	0
 2857 010d 16       		.uleb128 0x16
 2858 010e 21       		.uleb128 0x21
 2859 010f 00       		.byte	0
 2860 0110 49       		.uleb128 0x49
 2861 0111 13       		.uleb128 0x13
 2862 0112 2F       		.uleb128 0x2f
 2863 0113 0B       		.uleb128 0xb
 2864 0114 00       		.byte	0
 2865 0115 00       		.byte	0
 2866 0116 17       		.uleb128 0x17
 2867 0117 15       		.uleb128 0x15
 2868 0118 00       		.byte	0
 2869 0119 27       		.uleb128 0x27
 2870 011a 19       		.uleb128 0x19
 2871 011b 00       		.byte	0
 2872 011c 00       		.byte	0
 2873 011d 18       		.uleb128 0x18
 2874 011e 13       		.uleb128 0x13
 2875 011f 01       		.byte	0x1
 2876 0120 0B       		.uleb128 0xb
 2877 0121 05       		.uleb128 0x5
 2878 0122 3A       		.uleb128 0x3a
 2879 0123 0B       		.uleb128 0xb
 2880 0124 3B       		.uleb128 0x3b
 2881 0125 0B       		.uleb128 0xb
 2882 0126 39       		.uleb128 0x39
 2883 0127 0B       		.uleb128 0xb
 2884 0128 01       		.uleb128 0x1
 2885 0129 13       		.uleb128 0x13
 2886 012a 00       		.byte	0
 2887 012b 00       		.byte	0
 2888 012c 19       		.uleb128 0x19
 2889 012d 0D       		.uleb128 0xd
 2890 012e 00       		.byte	0
 2891 012f 03       		.uleb128 0x3
 2892 0130 08       		.uleb128 0x8
 2893 0131 3A       		.uleb128 0x3a
 2894 0132 0B       		.uleb128 0xb
 2895 0133 3B       		.uleb128 0x3b
ARM GAS  /var/folders/l5/0x54b2c10074c8bt31ycjvl80000gp/T//cc73C8xp.s 			page 52


 2896 0134 0B       		.uleb128 0xb
 2897 0135 39       		.uleb128 0x39
 2898 0136 0B       		.uleb128 0xb
 2899 0137 49       		.uleb128 0x49
 2900 0138 13       		.uleb128 0x13
 2901 0139 38       		.uleb128 0x38
 2902 013a 05       		.uleb128 0x5
 2903 013b 00       		.byte	0
 2904 013c 00       		.byte	0
 2905 013d 1A       		.uleb128 0x1a
 2906 013e 17       		.uleb128 0x17
 2907 013f 01       		.byte	0x1
 2908 0140 03       		.uleb128 0x3
 2909 0141 0E       		.uleb128 0xe
 2910 0142 0B       		.uleb128 0xb
 2911 0143 05       		.uleb128 0x5
 2912 0144 3A       		.uleb128 0x3a
 2913 0145 0B       		.uleb128 0xb
 2914 0146 3B       		.uleb128 0x3b
 2915 0147 0B       		.uleb128 0xb
 2916 0148 39       		.uleb128 0x39
 2917 0149 0B       		.uleb128 0xb
 2918 014a 01       		.uleb128 0x1
 2919 014b 13       		.uleb128 0x13
 2920 014c 00       		.byte	0
 2921 014d 00       		.byte	0
 2922 014e 1B       		.uleb128 0x1b
 2923 014f 21       		.uleb128 0x21
 2924 0150 00       		.byte	0
 2925 0151 49       		.uleb128 0x49
 2926 0152 13       		.uleb128 0x13
 2927 0153 2F       		.uleb128 0x2f
 2928 0154 05       		.uleb128 0x5
 2929 0155 00       		.byte	0
 2930 0156 00       		.byte	0
 2931 0157 1C       		.uleb128 0x1c
 2932 0158 21       		.uleb128 0x21
 2933 0159 00       		.byte	0
 2934 015a 00       		.byte	0
 2935 015b 00       		.byte	0
 2936 015c 1D       		.uleb128 0x1d
 2937 015d 34       		.uleb128 0x34
 2938 015e 00       		.byte	0
 2939 015f 03       		.uleb128 0x3
 2940 0160 08       		.uleb128 0x8
 2941 0161 3A       		.uleb128 0x3a
 2942 0162 0B       		.uleb128 0xb
 2943 0163 3B       		.uleb128 0x3b
 2944 0164 0B       		.uleb128 0xb
 2945 0165 39       		.uleb128 0x39
 2946 0166 0B       		.uleb128 0xb
 2947 0167 49       		.uleb128 0x49
 2948 0168 13       		.uleb128 0x13
 2949 0169 3F       		.uleb128 0x3f
 2950 016a 19       		.uleb128 0x19
 2951 016b 3C       		.uleb128 0x3c
 2952 016c 19       		.uleb128 0x19
ARM GAS  /var/folders/l5/0x54b2c10074c8bt31ycjvl80000gp/T//cc73C8xp.s 			page 53


 2953 016d 00       		.byte	0
 2954 016e 00       		.byte	0
 2955 016f 1E       		.uleb128 0x1e
 2956 0170 34       		.uleb128 0x34
 2957 0171 00       		.byte	0
 2958 0172 03       		.uleb128 0x3
 2959 0173 0E       		.uleb128 0xe
 2960 0174 3A       		.uleb128 0x3a
 2961 0175 0B       		.uleb128 0xb
 2962 0176 3B       		.uleb128 0x3b
 2963 0177 0B       		.uleb128 0xb
 2964 0178 39       		.uleb128 0x39
 2965 0179 0B       		.uleb128 0xb
 2966 017a 49       		.uleb128 0x49
 2967 017b 13       		.uleb128 0x13
 2968 017c 02       		.uleb128 0x2
 2969 017d 18       		.uleb128 0x18
 2970 017e 00       		.byte	0
 2971 017f 00       		.byte	0
 2972 0180 1F       		.uleb128 0x1f
 2973 0181 34       		.uleb128 0x34
 2974 0182 00       		.byte	0
 2975 0183 03       		.uleb128 0x3
 2976 0184 0E       		.uleb128 0xe
 2977 0185 3A       		.uleb128 0x3a
 2978 0186 0B       		.uleb128 0xb
 2979 0187 3B       		.uleb128 0x3b
 2980 0188 0B       		.uleb128 0xb
 2981 0189 39       		.uleb128 0x39
 2982 018a 0B       		.uleb128 0xb
 2983 018b 49       		.uleb128 0x49
 2984 018c 13       		.uleb128 0x13
 2985 018d 3F       		.uleb128 0x3f
 2986 018e 19       		.uleb128 0x19
 2987 018f 02       		.uleb128 0x2
 2988 0190 18       		.uleb128 0x18
 2989 0191 00       		.byte	0
 2990 0192 00       		.byte	0
 2991 0193 20       		.uleb128 0x20
 2992 0194 2E       		.uleb128 0x2e
 2993 0195 01       		.byte	0x1
 2994 0196 03       		.uleb128 0x3
 2995 0197 0E       		.uleb128 0xe
 2996 0198 3A       		.uleb128 0x3a
 2997 0199 0B       		.uleb128 0xb
 2998 019a 3B       		.uleb128 0x3b
 2999 019b 0B       		.uleb128 0xb
 3000 019c 39       		.uleb128 0x39
 3001 019d 0B       		.uleb128 0xb
 3002 019e 27       		.uleb128 0x27
 3003 019f 19       		.uleb128 0x19
 3004 01a0 11       		.uleb128 0x11
 3005 01a1 01       		.uleb128 0x1
 3006 01a2 12       		.uleb128 0x12
 3007 01a3 06       		.uleb128 0x6
 3008 01a4 40       		.uleb128 0x40
 3009 01a5 18       		.uleb128 0x18
ARM GAS  /var/folders/l5/0x54b2c10074c8bt31ycjvl80000gp/T//cc73C8xp.s 			page 54


 3010 01a6 9742     		.uleb128 0x2117
 3011 01a8 19       		.uleb128 0x19
 3012 01a9 01       		.uleb128 0x1
 3013 01aa 13       		.uleb128 0x13
 3014 01ab 00       		.byte	0
 3015 01ac 00       		.byte	0
 3016 01ad 21       		.uleb128 0x21
 3017 01ae 34       		.uleb128 0x34
 3018 01af 00       		.byte	0
 3019 01b0 03       		.uleb128 0x3
 3020 01b1 08       		.uleb128 0x8
 3021 01b2 3A       		.uleb128 0x3a
 3022 01b3 0B       		.uleb128 0xb
 3023 01b4 3B       		.uleb128 0x3b
 3024 01b5 0B       		.uleb128 0xb
 3025 01b6 39       		.uleb128 0x39
 3026 01b7 0B       		.uleb128 0xb
 3027 01b8 49       		.uleb128 0x49
 3028 01b9 13       		.uleb128 0x13
 3029 01ba 02       		.uleb128 0x2
 3030 01bb 17       		.uleb128 0x17
 3031 01bc B742     		.uleb128 0x2137
 3032 01be 17       		.uleb128 0x17
 3033 01bf 00       		.byte	0
 3034 01c0 00       		.byte	0
 3035 01c1 22       		.uleb128 0x22
 3036 01c2 34       		.uleb128 0x34
 3037 01c3 00       		.byte	0
 3038 01c4 03       		.uleb128 0x3
 3039 01c5 0E       		.uleb128 0xe
 3040 01c6 3A       		.uleb128 0x3a
 3041 01c7 0B       		.uleb128 0xb
 3042 01c8 3B       		.uleb128 0x3b
 3043 01c9 0B       		.uleb128 0xb
 3044 01ca 39       		.uleb128 0x39
 3045 01cb 0B       		.uleb128 0xb
 3046 01cc 49       		.uleb128 0x49
 3047 01cd 13       		.uleb128 0x13
 3048 01ce 00       		.byte	0
 3049 01cf 00       		.byte	0
 3050 01d0 23       		.uleb128 0x23
 3051 01d1 898201   		.uleb128 0x4109
 3052 01d4 01       		.byte	0x1
 3053 01d5 11       		.uleb128 0x11
 3054 01d6 01       		.uleb128 0x1
 3055 01d7 31       		.uleb128 0x31
 3056 01d8 13       		.uleb128 0x13
 3057 01d9 01       		.uleb128 0x1
 3058 01da 13       		.uleb128 0x13
 3059 01db 00       		.byte	0
 3060 01dc 00       		.byte	0
 3061 01dd 24       		.uleb128 0x24
 3062 01de 8A8201   		.uleb128 0x410a
 3063 01e1 00       		.byte	0
 3064 01e2 02       		.uleb128 0x2
 3065 01e3 18       		.uleb128 0x18
 3066 01e4 9142     		.uleb128 0x2111
ARM GAS  /var/folders/l5/0x54b2c10074c8bt31ycjvl80000gp/T//cc73C8xp.s 			page 55


 3067 01e6 18       		.uleb128 0x18
 3068 01e7 00       		.byte	0
 3069 01e8 00       		.byte	0
 3070 01e9 25       		.uleb128 0x25
 3071 01ea 898201   		.uleb128 0x4109
 3072 01ed 01       		.byte	0x1
 3073 01ee 11       		.uleb128 0x11
 3074 01ef 01       		.uleb128 0x1
 3075 01f0 9542     		.uleb128 0x2115
 3076 01f2 19       		.uleb128 0x19
 3077 01f3 31       		.uleb128 0x31
 3078 01f4 13       		.uleb128 0x13
 3079 01f5 00       		.byte	0
 3080 01f6 00       		.byte	0
 3081 01f7 26       		.uleb128 0x26
 3082 01f8 2E       		.uleb128 0x2e
 3083 01f9 00       		.byte	0
 3084 01fa 03       		.uleb128 0x3
 3085 01fb 0E       		.uleb128 0xe
 3086 01fc 3A       		.uleb128 0x3a
 3087 01fd 0B       		.uleb128 0xb
 3088 01fe 3B       		.uleb128 0x3b
 3089 01ff 0B       		.uleb128 0xb
 3090 0200 39       		.uleb128 0x39
 3091 0201 0B       		.uleb128 0xb
 3092 0202 27       		.uleb128 0x27
 3093 0203 19       		.uleb128 0x19
 3094 0204 00       		.byte	0
 3095 0205 00       		.byte	0
 3096 0206 27       		.uleb128 0x27
 3097 0207 2E       		.uleb128 0x2e
 3098 0208 01       		.byte	0x1
 3099 0209 03       		.uleb128 0x3
 3100 020a 0E       		.uleb128 0xe
 3101 020b 3A       		.uleb128 0x3a
 3102 020c 0B       		.uleb128 0xb
 3103 020d 3B       		.uleb128 0x3b
 3104 020e 0B       		.uleb128 0xb
 3105 020f 39       		.uleb128 0x39
 3106 0210 0B       		.uleb128 0xb
 3107 0211 27       		.uleb128 0x27
 3108 0212 19       		.uleb128 0x19
 3109 0213 49       		.uleb128 0x49
 3110 0214 13       		.uleb128 0x13
 3111 0215 11       		.uleb128 0x11
 3112 0216 01       		.uleb128 0x1
 3113 0217 12       		.uleb128 0x12
 3114 0218 06       		.uleb128 0x6
 3115 0219 40       		.uleb128 0x40
 3116 021a 18       		.uleb128 0x18
 3117 021b 9742     		.uleb128 0x2117
 3118 021d 19       		.uleb128 0x19
 3119 021e 01       		.uleb128 0x1
 3120 021f 13       		.uleb128 0x13
 3121 0220 00       		.byte	0
 3122 0221 00       		.byte	0
 3123 0222 28       		.uleb128 0x28
ARM GAS  /var/folders/l5/0x54b2c10074c8bt31ycjvl80000gp/T//cc73C8xp.s 			page 56


 3124 0223 05       		.uleb128 0x5
 3125 0224 00       		.byte	0
 3126 0225 03       		.uleb128 0x3
 3127 0226 08       		.uleb128 0x8
 3128 0227 3A       		.uleb128 0x3a
 3129 0228 0B       		.uleb128 0xb
 3130 0229 3B       		.uleb128 0x3b
 3131 022a 0B       		.uleb128 0xb
 3132 022b 39       		.uleb128 0x39
 3133 022c 0B       		.uleb128 0xb
 3134 022d 49       		.uleb128 0x49
 3135 022e 13       		.uleb128 0x13
 3136 022f 02       		.uleb128 0x2
 3137 0230 17       		.uleb128 0x17
 3138 0231 B742     		.uleb128 0x2137
 3139 0233 17       		.uleb128 0x17
 3140 0234 00       		.byte	0
 3141 0235 00       		.byte	0
 3142 0236 29       		.uleb128 0x29
 3143 0237 34       		.uleb128 0x34
 3144 0238 00       		.byte	0
 3145 0239 03       		.uleb128 0x3
 3146 023a 0E       		.uleb128 0xe
 3147 023b 3A       		.uleb128 0x3a
 3148 023c 0B       		.uleb128 0xb
 3149 023d 3B       		.uleb128 0x3b
 3150 023e 0B       		.uleb128 0xb
 3151 023f 39       		.uleb128 0x39
 3152 0240 0B       		.uleb128 0xb
 3153 0241 49       		.uleb128 0x49
 3154 0242 13       		.uleb128 0x13
 3155 0243 02       		.uleb128 0x2
 3156 0244 17       		.uleb128 0x17
 3157 0245 B742     		.uleb128 0x2137
 3158 0247 17       		.uleb128 0x17
 3159 0248 00       		.byte	0
 3160 0249 00       		.byte	0
 3161 024a 2A       		.uleb128 0x2a
 3162 024b 898201   		.uleb128 0x4109
 3163 024e 00       		.byte	0
 3164 024f 11       		.uleb128 0x11
 3165 0250 01       		.uleb128 0x1
 3166 0251 31       		.uleb128 0x31
 3167 0252 13       		.uleb128 0x13
 3168 0253 00       		.byte	0
 3169 0254 00       		.byte	0
 3170 0255 2B       		.uleb128 0x2b
 3171 0256 34       		.uleb128 0x34
 3172 0257 00       		.byte	0
 3173 0258 03       		.uleb128 0x3
 3174 0259 08       		.uleb128 0x8
 3175 025a 3A       		.uleb128 0x3a
 3176 025b 0B       		.uleb128 0xb
 3177 025c 3B       		.uleb128 0x3b
 3178 025d 0B       		.uleb128 0xb
 3179 025e 39       		.uleb128 0x39
 3180 025f 0B       		.uleb128 0xb
ARM GAS  /var/folders/l5/0x54b2c10074c8bt31ycjvl80000gp/T//cc73C8xp.s 			page 57


 3181 0260 49       		.uleb128 0x49
 3182 0261 13       		.uleb128 0x13
 3183 0262 02       		.uleb128 0x2
 3184 0263 18       		.uleb128 0x18
 3185 0264 00       		.byte	0
 3186 0265 00       		.byte	0
 3187 0266 2C       		.uleb128 0x2c
 3188 0267 898201   		.uleb128 0x4109
 3189 026a 01       		.byte	0x1
 3190 026b 11       		.uleb128 0x11
 3191 026c 01       		.uleb128 0x1
 3192 026d 31       		.uleb128 0x31
 3193 026e 13       		.uleb128 0x13
 3194 026f 00       		.byte	0
 3195 0270 00       		.byte	0
 3196 0271 2D       		.uleb128 0x2d
 3197 0272 2E       		.uleb128 0x2e
 3198 0273 00       		.byte	0
 3199 0274 3F       		.uleb128 0x3f
 3200 0275 19       		.uleb128 0x19
 3201 0276 3C       		.uleb128 0x3c
 3202 0277 19       		.uleb128 0x19
 3203 0278 6E       		.uleb128 0x6e
 3204 0279 0E       		.uleb128 0xe
 3205 027a 03       		.uleb128 0x3
 3206 027b 0E       		.uleb128 0xe
 3207 027c 3A       		.uleb128 0x3a
 3208 027d 0B       		.uleb128 0xb
 3209 027e 3B       		.uleb128 0x3b
 3210 027f 0B       		.uleb128 0xb
 3211 0280 39       		.uleb128 0x39
 3212 0281 0B       		.uleb128 0xb
 3213 0282 00       		.byte	0
 3214 0283 00       		.byte	0
 3215 0284 2E       		.uleb128 0x2e
 3216 0285 2E       		.uleb128 0x2e
 3217 0286 00       		.byte	0
 3218 0287 3F       		.uleb128 0x3f
 3219 0288 19       		.uleb128 0x19
 3220 0289 3C       		.uleb128 0x3c
 3221 028a 19       		.uleb128 0x19
 3222 028b 6E       		.uleb128 0x6e
 3223 028c 0E       		.uleb128 0xe
 3224 028d 03       		.uleb128 0x3
 3225 028e 0E       		.uleb128 0xe
 3226 028f 3A       		.uleb128 0x3a
 3227 0290 0B       		.uleb128 0xb
 3228 0291 3B       		.uleb128 0x3b
 3229 0292 05       		.uleb128 0x5
 3230 0293 39       		.uleb128 0x39
 3231 0294 0B       		.uleb128 0xb
 3232 0295 00       		.byte	0
 3233 0296 00       		.byte	0
 3234 0297 00       		.byte	0
 3235              		.section	.debug_loc,"",%progbits
 3236              	.Ldebug_loc0:
 3237              	.LVUS6:
ARM GAS  /var/folders/l5/0x54b2c10074c8bt31ycjvl80000gp/T//cc73C8xp.s 			page 58


 3238 0000 00       		.uleb128 .LVU87
 3239 0001 00       		.uleb128 .LVU88
 3240 0002 00       		.uleb128 .LVU88
 3241 0003 00       		.uleb128 .LVU117
 3242              	.LLST6:
 3243 0004 38000000 		.4byte	.LVL30
 3244 0008 3C000000 		.4byte	.LVL31
 3245 000c 0100     		.2byte	0x1
 3246 000e 50       		.byte	0x50
 3247 000f 3C000000 		.4byte	.LVL31
 3248 0013 BC010000 		.4byte	.LVL54
 3249 0017 0100     		.2byte	0x1
 3250 0019 54       		.byte	0x54
 3251 001a 00000000 		.4byte	0
 3252 001e 00000000 		.4byte	0
 3253              	.LVUS3:
 3254 0022 00       		.uleb128 0
 3255 0023 00       		.uleb128 .LVU62
 3256 0024 00       		.uleb128 .LVU62
 3257 0025 00       		.uleb128 0
 3258              	.LLST3:
 3259 0026 00000000 		.4byte	.LVL21
 3260 002a 0B000000 		.4byte	.LVL22-1
 3261 002e 0100     		.2byte	0x1
 3262 0030 50       		.byte	0x50
 3263 0031 0B000000 		.4byte	.LVL22-1
 3264 0035 34000000 		.4byte	.LFE10
 3265 0039 0100     		.2byte	0x1
 3266 003b 55       		.byte	0x55
 3267 003c 00000000 		.4byte	0
 3268 0040 00000000 		.4byte	0
 3269              	.LVUS4:
 3270 0044 00       		.uleb128 .LVU64
 3271 0045 00       		.uleb128 .LVU70
 3272 0046 00       		.uleb128 .LVU70
 3273 0047 00       		.uleb128 .LVU73
 3274 0048 00       		.uleb128 .LVU73
 3275 0049 00       		.uleb128 0
 3276              	.LLST4:
 3277 004a 14000000 		.4byte	.LVL23
 3278 004e 23000000 		.4byte	.LVL25-1
 3279 0052 0100     		.2byte	0x1
 3280 0054 50       		.byte	0x50
 3281 0055 24000000 		.4byte	.LVL25
 3282 0059 30000000 		.4byte	.LVL26
 3283 005d 0100     		.2byte	0x1
 3284 005f 50       		.byte	0x50
 3285 0060 30000000 		.4byte	.LVL26
 3286 0064 34000000 		.4byte	.LFE10
 3287 0068 0100     		.2byte	0x1
 3288 006a 53       		.byte	0x53
 3289 006b 00000000 		.4byte	0
 3290 006f 00000000 		.4byte	0
 3291              	.LVUS5:
 3292 0073 03       		.uleb128 .LVU58
 3293 0074 00       		.uleb128 .LVU64
 3294 0075 00       		.uleb128 .LVU64
ARM GAS  /var/folders/l5/0x54b2c10074c8bt31ycjvl80000gp/T//cc73C8xp.s 			page 59


 3295 0076 00       		.uleb128 0
 3296              	.LLST5:
 3297 0077 00000000 		.4byte	.LVL21
 3298 007b 14000000 		.4byte	.LVL23
 3299 007f 0200     		.2byte	0x2
 3300 0081 30       		.byte	0x30
 3301 0082 9F       		.byte	0x9f
 3302 0083 14000000 		.4byte	.LVL23
 3303 0087 34000000 		.4byte	.LFE10
 3304 008b 0100     		.2byte	0x1
 3305 008d 54       		.byte	0x54
 3306 008e 00000000 		.4byte	0
 3307 0092 00000000 		.4byte	0
 3308              	.LVUS0:
 3309 0096 00       		.uleb128 .LVU27
 3310 0097 00       		.uleb128 .LVU29
 3311 0098 00       		.uleb128 .LVU29
 3312 0099 00       		.uleb128 0
 3313              	.LLST0:
 3314 009a 88000000 		.4byte	.LVL6
 3315 009e 94000000 		.4byte	.LVL7
 3316 00a2 0100     		.2byte	0x1
 3317 00a4 50       		.byte	0x50
 3318 00a5 94000000 		.4byte	.LVL7
 3319 00a9 80010000 		.4byte	.LFE9
 3320 00ad 0100     		.2byte	0x1
 3321 00af 56       		.byte	0x56
 3322 00b0 00000000 		.4byte	0
 3323 00b4 00000000 		.4byte	0
 3324              	.LVUS1:
 3325 00b8 00       		.uleb128 .LVU10
 3326 00b9 00       		.uleb128 0
 3327              	.LLST1:
 3328 00ba 1C000000 		.4byte	.LVL0
 3329 00be 80010000 		.4byte	.LFE9
 3330 00c2 0100     		.2byte	0x1
 3331 00c4 55       		.byte	0x55
 3332 00c5 00000000 		.4byte	0
 3333 00c9 00000000 		.4byte	0
 3334              	.LVUS2:
 3335 00cd 00       		.uleb128 0
 3336 00ce 00       		.uleb128 .LVU50
 3337 00cf 00       		.uleb128 .LVU50
 3338 00d0 00       		.uleb128 0
 3339              	.LLST2:
 3340 00d1 00000000 		.4byte	.LVL17
 3341 00d5 08000000 		.4byte	.LVL18
 3342 00d9 0100     		.2byte	0x1
 3343 00db 50       		.byte	0x50
 3344 00dc 08000000 		.4byte	.LVL18
 3345 00e0 14000000 		.4byte	.LFE7
 3346 00e4 0400     		.2byte	0x4
 3347 00e6 F3       		.byte	0xf3
 3348 00e7 01       		.uleb128 0x1
 3349 00e8 50       		.byte	0x50
 3350 00e9 9F       		.byte	0x9f
 3351 00ea 00000000 		.4byte	0
ARM GAS  /var/folders/l5/0x54b2c10074c8bt31ycjvl80000gp/T//cc73C8xp.s 			page 60


 3352 00ee 00000000 		.4byte	0
 3353              		.section	.debug_aranges,"",%progbits
 3354 0000 3C000000 		.4byte	0x3c
 3355 0004 0200     		.2byte	0x2
 3356 0006 00000000 		.4byte	.Ldebug_info0
 3357 000a 04       		.byte	0x4
 3358 000b 00       		.byte	0
 3359 000c 0000     		.2byte	0
 3360 000e 0000     		.2byte	0
 3361 0010 00000000 		.4byte	.LFB9
 3362 0014 80010000 		.4byte	.LFE9-.LFB9
 3363 0018 00000000 		.4byte	.LFB7
 3364 001c 14000000 		.4byte	.LFE7-.LFB7
 3365 0020 00000000 		.4byte	.LFB8
 3366 0024 1C000000 		.4byte	.LFE8-.LFB8
 3367 0028 00000000 		.4byte	.LFB10
 3368 002c 34000000 		.4byte	.LFE10-.LFB10
 3369 0030 00000000 		.4byte	.LFB12
 3370 0034 D0010000 		.4byte	.LFE12-.LFB12
 3371 0038 00000000 		.4byte	0
 3372 003c 00000000 		.4byte	0
 3373              		.section	.debug_ranges,"",%progbits
 3374              	.Ldebug_ranges0:
 3375 0000 00000000 		.4byte	.LFB9
 3376 0004 80010000 		.4byte	.LFE9
 3377 0008 00000000 		.4byte	.LFB7
 3378 000c 14000000 		.4byte	.LFE7
 3379 0010 00000000 		.4byte	.LFB8
 3380 0014 1C000000 		.4byte	.LFE8
 3381 0018 00000000 		.4byte	.LFB10
 3382 001c 34000000 		.4byte	.LFE10
 3383 0020 00000000 		.4byte	.LFB12
 3384 0024 D0010000 		.4byte	.LFE12
 3385 0028 00000000 		.4byte	0
 3386 002c 00000000 		.4byte	0
 3387              		.section	.debug_line,"",%progbits
 3388              	.Ldebug_line0:
 3389 0000 6C040000 		.section	.debug_str,"MS",%progbits,1
 3389      03001202 
 3389      00000201 
 3389      FB0E0D00 
 3389      01010101 
 3390              	.LASF42:
 3391 0000 705F6D73 		.ascii	"p_msg\000"
 3391      6700
 3392              	.LASF2:
 3393 0006 73697A65 		.ascii	"size_t\000"
 3393      5F7400
 3394              	.LASF128:
 3395 000d 7072696F 		.ascii	"prio\000"
 3395      00
 3396              	.LASF84:
 3397 0012 7264796D 		.ascii	"rdymsg\000"
 3397      736700
 3398              	.LASF3:
 3399 0019 5F5F7569 		.ascii	"__uint8_t\000"
 3399      6E74385F 
ARM GAS  /var/folders/l5/0x54b2c10074c8bt31ycjvl80000gp/T//cc73C8xp.s 			page 61


 3399      7400
 3400              	.LASF68:
 3401 0023 76746C69 		.ascii	"vtlist\000"
 3401      737400
 3402              	.LASF74:
 3403 002a 6D656D67 		.ascii	"memgetfunc_t\000"
 3403      65746675 
 3403      6E635F74 
 3403      00
 3404              	.LASF13:
 3405 0037 6C6F6E67 		.ascii	"long long unsigned int\000"
 3405      206C6F6E 
 3405      6720756E 
 3405      7369676E 
 3405      65642069 
 3406              	.LASF95:
 3407 004e 63685F74 		.ascii	"ch_threadsize\000"
 3407      68726561 
 3407      6473697A 
 3407      6500
 3408              	.LASF85:
 3409 005c 65786974 		.ascii	"exitcode\000"
 3409      636F6465 
 3409      00
 3410              	.LASF78:
 3411 0065 685F6672 		.ascii	"h_free\000"
 3411      656500
 3412              	.LASF119:
 3413 006c 74657374 		.ascii	"test\000"
 3413      00
 3414              	.LASF137:
 3415 0071 63685265 		.ascii	"chRegFirstThread\000"
 3415      67466972 
 3415      73745468 
 3415      72656164 
 3415      00
 3416              	.LASF144:
 3417 0082 63684865 		.ascii	"chHeapInit\000"
 3417      6170496E 
 3417      697400
 3418              	.LASF80:
 3419 008d 6E657874 		.ascii	"next\000"
 3419      00
 3420              	.LASF30:
 3421 0092 705F7072 		.ascii	"p_prio\000"
 3421      696F00
 3422              	.LASF102:
 3423 0099 63665F6F 		.ascii	"cf_off_state\000"
 3423      66665F73 
 3423      74617465 
 3423      00
 3424              	.LASF113:
 3425 00a6 74656172 		.ascii	"teardown\000"
 3425      646F776E 
 3425      00
 3426              	.LASF12:
 3427 00af 6C6F6E67 		.ascii	"long long int\000"
ARM GAS  /var/folders/l5/0x54b2c10074c8bt31ycjvl80000gp/T//cc73C8xp.s 			page 62


 3427      206C6F6E 
 3427      6720696E 
 3427      7400
 3428              	.LASF1:
 3429 00bd 7369676E 		.ascii	"signed char\000"
 3429      65642063 
 3429      68617200 
 3430              	.LASF79:
 3431 00c9 685F6D74 		.ascii	"h_mtx\000"
 3431      7800
 3432              	.LASF101:
 3433 00cf 63665F6F 		.ascii	"cf_off_stklimit\000"
 3433      66665F73 
 3433      746B6C69 
 3433      6D697400 
 3434              	.LASF103:
 3435 00df 63665F6F 		.ascii	"cf_off_flags\000"
 3435      66665F66 
 3435      6C616773 
 3435      00
 3436              	.LASF18:
 3437 00ec 626F6F6C 		.ascii	"bool_t\000"
 3437      5F7400
 3438              	.LASF71:
 3439 00f3 6D5F7175 		.ascii	"m_queue\000"
 3439      65756500 
 3440              	.LASF145:
 3441 00fb 74657374 		.ascii	"test_emit_token\000"
 3441      5F656D69 
 3441      745F746F 
 3441      6B656E00 
 3442              	.LASF141:
 3443 010b 63684865 		.ascii	"chHeapFree\000"
 3443      61704672 
 3443      656500
 3444              	.LASF22:
 3445 0116 74736C69 		.ascii	"tslices_t\000"
 3445      6365735F 
 3445      7400
 3446              	.LASF9:
 3447 0120 6C6F6E67 		.ascii	"long int\000"
 3447      20696E74 
 3447      00
 3448              	.LASF132:
 3449 0129 63685468 		.ascii	"chThdCreateFromHeap\000"
 3449      64437265 
 3449      61746546 
 3449      726F6D48 
 3449      65617000 
 3450              	.LASF138:
 3451 013d 63685265 		.ascii	"chRegNextThread\000"
 3451      674E6578 
 3451      74546872 
 3451      65616400 
 3452              	.LASF20:
 3453 014d 74737461 		.ascii	"tstate_t\000"
 3453      74655F74 
ARM GAS  /var/folders/l5/0x54b2c10074c8bt31ycjvl80000gp/T//cc73C8xp.s 			page 63


 3453      00
 3454              	.LASF15:
 3455 0156 75696E74 		.ascii	"uint16_t\000"
 3455      31365F74 
 3455      00
 3456              	.LASF107:
 3457 015f 63686465 		.ascii	"chdebug_t\000"
 3457      6275675F 
 3457      7400
 3458              	.LASF126:
 3459 0169 64796E31 		.ascii	"dyn1_execute\000"
 3459      5F657865 
 3459      63757465 
 3459      00
 3460              	.LASF117:
 3461 0176 62756666 		.ascii	"buffer\000"
 3461      657200
 3462              	.LASF32:
 3463 017d 705F6E65 		.ascii	"p_newer\000"
 3463      77657200 
 3464              	.LASF109:
 3465 0185 5F69646C 		.ascii	"_idle_thread_wa\000"
 3465      655F7468 
 3465      72656164 
 3465      5F776100 
 3466              	.LASF10:
 3467 0195 5F5F7569 		.ascii	"__uint32_t\000"
 3467      6E743332 
 3467      5F7400
 3468              	.LASF49:
 3469 01a0 72656761 		.ascii	"regarm_t\000"
 3469      726D5F74 
 3469      00
 3470              	.LASF55:
 3471 01a9 76745F70 		.ascii	"vt_prev\000"
 3471      72657600 
 3472              	.LASF82:
 3473 01b1 616C6967 		.ascii	"align\000"
 3473      6E00
 3474              	.LASF0:
 3475 01b7 756E7369 		.ascii	"unsigned int\000"
 3475      676E6564 
 3475      20696E74 
 3475      00
 3476              	.LASF54:
 3477 01c4 76745F6E 		.ascii	"vt_next\000"
 3477      65787400 
 3478              	.LASF99:
 3479 01cc 63665F6F 		.ascii	"cf_off_older\000"
 3479      66665F6F 
 3479      6C646572 
 3479      00
 3480              	.LASF11:
 3481 01d9 6C6F6E67 		.ascii	"long unsigned int\000"
 3481      20756E73 
 3481      69676E65 
 3481      6420696E 
ARM GAS  /var/folders/l5/0x54b2c10074c8bt31ycjvl80000gp/T//cc73C8xp.s 			page 64


 3481      7400
 3482              	.LASF108:
 3483 01eb 63685F64 		.ascii	"ch_debug\000"
 3483      65627567 
 3483      00
 3484              	.LASF120:
 3485 01f4 74657374 		.ascii	"test_timer_done\000"
 3485      5F74696D 
 3485      65725F64 
 3485      6F6E6500 
 3486              	.LASF129:
 3487 0204 64796E31 		.ascii	"dyn1_setup\000"
 3487      5F736574 
 3487      757000
 3488              	.LASF52:
 3489 020f 76746675 		.ascii	"vtfunc_t\000"
 3489      6E635F74 
 3489      00
 3490              	.LASF89:
 3491 0218 63685F69 		.ascii	"ch_identifier\000"
 3491      64656E74 
 3491      69666965 
 3491      7200
 3492              	.LASF111:
 3493 0226 6E616D65 		.ascii	"name\000"
 3493      00
 3494              	.LASF51:
 3495 022b 636F6E74 		.ascii	"context\000"
 3495      65787400 
 3496              	.LASF83:
 3497 0233 73697A65 		.ascii	"size\000"
 3497      00
 3498              	.LASF7:
 3499 0238 73686F72 		.ascii	"short unsigned int\000"
 3499      7420756E 
 3499      7369676E 
 3499      65642069 
 3499      6E7400
 3500              	.LASF24:
 3501 024b 6D73675F 		.ascii	"msg_t\000"
 3501      7400
 3502              	.LASF64:
 3503 0251 725F6E65 		.ascii	"r_newer\000"
 3503      77657200 
 3504              	.LASF146:
 3505 0259 474E5520 		.ascii	"GNU C17 8.3.1 20190703 (release) [gcc-8-branch revi"
 3505      43313720 
 3505      382E332E 
 3505      31203230 
 3505      31393037 
 3506 028c 73696F6E 		.ascii	"sion 273027] -mcpu=arm1176jz-s -mno-thumb-interwork"
 3506      20323733 
 3506      3032375D 
 3506      202D6D63 
 3506      70753D61 
 3507 02bf 202D6D66 		.ascii	" -mfloat-abi=soft -marm -march=armv6kz -ggdb -O2 -f"
 3507      6C6F6174 
ARM GAS  /var/folders/l5/0x54b2c10074c8bt31ycjvl80000gp/T//cc73C8xp.s 			page 65


 3507      2D616269 
 3507      3D736F66 
 3507      74202D6D 
 3508 02f2 6F6D6974 		.ascii	"omit-frame-pointer -ffunction-sections -fdata-secti"
 3508      2D667261 
 3508      6D652D70 
 3508      6F696E74 
 3508      6572202D 
 3509 0325 6F6E7300 		.ascii	"ons\000"
 3510              	.LASF118:
 3511 0329 74687265 		.ascii	"threads\000"
 3511      61647300 
 3512              	.LASF19:
 3513 0331 746D6F64 		.ascii	"tmode_t\000"
 3513      655F7400 
 3514              	.LASF47:
 3515 0339 54687265 		.ascii	"ThreadsList\000"
 3515      6164734C 
 3515      69737400 
 3516              	.LASF25:
 3517 0345 6576656E 		.ascii	"eventmask_t\000"
 3517      746D6173 
 3517      6B5F7400 
 3518              	.LASF70:
 3519 0351 4D757465 		.ascii	"Mutex\000"
 3519      7800
 3520              	.LASF134:
 3521 0357 63685468 		.ascii	"chThdAddRef\000"
 3521      64416464 
 3521      52656600 
 3522              	.LASF48:
 3523 0363 73746B61 		.ascii	"stkalign_t\000"
 3523      6C69676E 
 3523      5F7400
 3524              	.LASF90:
 3525 036e 63685F7A 		.ascii	"ch_zero\000"
 3525      65726F00 
 3526              	.LASF104:
 3527 0376 63665F6F 		.ascii	"cf_off_refs\000"
 3527      66665F72 
 3527      65667300 
 3528              	.LASF56:
 3529 0382 76745F74 		.ascii	"vt_time\000"
 3529      696D6500 
 3530              	.LASF121:
 3531 038a 74657374 		.ascii	"testdyn1\000"
 3531      64796E31 
 3531      00
 3532              	.LASF57:
 3533 0393 76745F66 		.ascii	"vt_func\000"
 3533      756E6300 
 3534              	.LASF94:
 3535 039b 63685F74 		.ascii	"ch_timesize\000"
 3535      696D6573 
 3535      697A6500 
 3536              	.LASF100:
 3537 03a7 63665F6F 		.ascii	"cf_off_name\000"
ARM GAS  /var/folders/l5/0x54b2c10074c8bt31ycjvl80000gp/T//cc73C8xp.s 			page 66


 3537      66665F6E 
 3537      616D6500 
 3538              	.LASF125:
 3539 03b3 64796E33 		.ascii	"dyn3_execute\000"
 3539      5F657865 
 3539      63757465 
 3539      00
 3540              	.LASF33:
 3541 03c0 705F6F6C 		.ascii	"p_older\000"
 3541      64657200 
 3542              	.LASF122:
 3543 03c8 74657374 		.ascii	"testdyn3\000"
 3543      64796E33 
 3543      00
 3544              	.LASF63:
 3545 03d1 725F6374 		.ascii	"r_ctx\000"
 3545      7800
 3546              	.LASF46:
 3547 03d7 54687265 		.ascii	"ThreadsQueue\000"
 3547      61647351 
 3547      75657565 
 3547      00
 3548              	.LASF148:
 3549 03e4 2F557365 		.ascii	"/Users/fernandoguirado/Desktop/Chibi/ChibiOS-RPi/de"
 3549      72732F66 
 3549      65726E61 
 3549      6E646F67 
 3549      75697261 
 3550 0417 6D6F732F 		.ascii	"mos/Serial_LCD\000"
 3550      53657269 
 3550      616C5F4C 
 3550      434400
 3551              	.LASF91:
 3552 0426 63685F73 		.ascii	"ch_size\000"
 3552      697A6500 
 3553              	.LASF112:
 3554 042e 73657475 		.ascii	"setup\000"
 3554      7000
 3555              	.LASF143:
 3556 0434 5F746573 		.ascii	"_test_assert_sequence\000"
 3556      745F6173 
 3556      73657274 
 3556      5F736571 
 3556      75656E63 
 3557              	.LASF66:
 3558 044a 725F6375 		.ascii	"r_current\000"
 3558      7272656E 
 3558      7400
 3559              	.LASF65:
 3560 0454 725F6F6C 		.ascii	"r_older\000"
 3560      64657200 
 3561              	.LASF75:
 3562 045c 4D656D6F 		.ascii	"MemoryHeap\000"
 3562      72794865 
 3562      617000
 3563              	.LASF21:
 3564 0467 74726566 		.ascii	"trefs_t\000"
ARM GAS  /var/folders/l5/0x54b2c10074c8bt31ycjvl80000gp/T//cc73C8xp.s 			page 67


 3564      735F7400 
 3565              	.LASF93:
 3566 046f 63685F70 		.ascii	"ch_ptrsize\000"
 3566      74727369 
 3566      7A6500
 3567              	.LASF29:
 3568 047a 705F7072 		.ascii	"p_prev\000"
 3568      657600
 3569              	.LASF114:
 3570 0481 65786563 		.ascii	"execute\000"
 3570      75746500 
 3571              	.LASF23:
 3572 0489 74707269 		.ascii	"tprio_t\000"
 3572      6F5F7400 
 3573              	.LASF131:
 3574 0491 74687265 		.ascii	"thread\000"
 3574      616400
 3575              	.LASF16:
 3576 0498 696E7433 		.ascii	"int32_t\000"
 3576      325F7400 
 3577              	.LASF4:
 3578 04a0 756E7369 		.ascii	"unsigned char\000"
 3578      676E6564 
 3578      20636861 
 3578      7200
 3579              	.LASF77:
 3580 04ae 685F7072 		.ascii	"h_provider\000"
 3580      6F766964 
 3580      657200
 3581              	.LASF44:
 3582 04b9 705F6D74 		.ascii	"p_mtxlist\000"
 3582      786C6973 
 3582      7400
 3583              	.LASF5:
 3584 04c3 73686F72 		.ascii	"short int\000"
 3584      7420696E 
 3584      7400
 3585              	.LASF35:
 3586 04cd 705F7374 		.ascii	"p_state\000"
 3586      61746500 
 3587              	.LASF38:
 3588 04d5 705F7072 		.ascii	"p_preempt\000"
 3588      65656D70 
 3588      7400
 3589              	.LASF106:
 3590 04df 63665F6F 		.ascii	"cf_off_time\000"
 3590      66665F74 
 3590      696D6500 
 3591              	.LASF62:
 3592 04eb 725F7072 		.ascii	"r_prio\000"
 3592      696F00
 3593              	.LASF115:
 3594 04f2 68656170 		.ascii	"heap_header\000"
 3594      5F686561 
 3594      64657200 
 3595              	.LASF87:
 3596 04fe 65776D61 		.ascii	"ewmask\000"
ARM GAS  /var/folders/l5/0x54b2c10074c8bt31ycjvl80000gp/T//cc73C8xp.s 			page 68


 3596      736B00
 3597              	.LASF28:
 3598 0505 705F6E65 		.ascii	"p_next\000"
 3598      787400
 3599              	.LASF58:
 3600 050c 76745F70 		.ascii	"vt_par\000"
 3600      617200
 3601              	.LASF105:
 3602 0513 63665F6F 		.ascii	"cf_off_preempt\000"
 3602      66665F70 
 3602      7265656D 
 3602      707400
 3603              	.LASF36:
 3604 0522 705F666C 		.ascii	"p_flags\000"
 3604      61677300 
 3605              	.LASF135:
 3606 052a 63685468 		.ascii	"chThdRelease\000"
 3606      6452656C 
 3606      65617365 
 3606      00
 3607              	.LASF27:
 3608 0537 54687265 		.ascii	"Thread\000"
 3608      616400
 3609              	.LASF140:
 3610 053e 63684865 		.ascii	"chHeapAlloc\000"
 3610      6170416C 
 3610      6C6F6300 
 3611              	.LASF98:
 3612 054a 63665F6F 		.ascii	"cf_off_newer\000"
 3612      66665F6E 
 3612      65776572 
 3612      00
 3613              	.LASF110:
 3614 0557 74657374 		.ascii	"testcase\000"
 3614      63617365 
 3614      00
 3615              	.LASF43:
 3616 0560 705F6570 		.ascii	"p_epending\000"
 3616      656E6469 
 3616      6E6700
 3617              	.LASF136:
 3618 056b 63685468 		.ascii	"chThdSleep\000"
 3618      64536C65 
 3618      657000
 3619              	.LASF17:
 3620 0576 75696E74 		.ascii	"uint32_t\000"
 3620      33325F74 
 3620      00
 3621              	.LASF96:
 3622 057f 63665F6F 		.ascii	"cf_off_prio\000"
 3622      66665F70 
 3622      72696F00 
 3623              	.LASF61:
 3624 058b 725F7175 		.ascii	"r_queue\000"
 3624      65756500 
 3625              	.LASF53:
 3626 0593 56697274 		.ascii	"VirtualTimer\000"
ARM GAS  /var/folders/l5/0x54b2c10074c8bt31ycjvl80000gp/T//cc73C8xp.s 			page 69


 3626      75616C54 
 3626      696D6572 
 3626      00
 3627              	.LASF81:
 3628 05a0 68656170 		.ascii	"heap\000"
 3628      00
 3629              	.LASF88:
 3630 05a5 63686172 		.ascii	"char\000"
 3630      00
 3631              	.LASF116:
 3632 05aa 74657374 		.ascii	"test_buffers\000"
 3632      5F627566 
 3632      66657273 
 3632      00
 3633              	.LASF6:
 3634 05b7 5F5F7569 		.ascii	"__uint16_t\000"
 3634      6E743136 
 3634      5F7400
 3635              	.LASF149:
 3636 05c2 64796E33 		.ascii	"dyn3_setup\000"
 3636      5F736574 
 3636      757000
 3637              	.LASF139:
 3638 05cd 63684865 		.ascii	"chHeapStatus\000"
 3638      61705374 
 3638      61747573 
 3638      00
 3639              	.LASF142:
 3640 05da 74657374 		.ascii	"test_wait_threads\000"
 3640      5F776169 
 3640      745F7468 
 3640      72656164 
 3640      7300
 3641              	.LASF73:
 3642 05ec 6D5F6E65 		.ascii	"m_next\000"
 3642      787400
 3643              	.LASF26:
 3644 05f3 73797374 		.ascii	"systime_t\000"
 3644      696D655F 
 3644      7400
 3645              	.LASF45:
 3646 05fd 705F7265 		.ascii	"p_realprio\000"
 3646      616C7072 
 3646      696F00
 3647              	.LASF8:
 3648 0608 5F5F696E 		.ascii	"__int32_t\000"
 3648      7433325F 
 3648      7400
 3649              	.LASF123:
 3650 0612 70617474 		.ascii	"patterndyn\000"
 3650      65726E64 
 3650      796E00
 3651              	.LASF39:
 3652 061d 705F7469 		.ascii	"p_time\000"
 3652      6D6500
 3653              	.LASF50:
 3654 0624 696E7463 		.ascii	"intctx\000"
ARM GAS  /var/folders/l5/0x54b2c10074c8bt31ycjvl80000gp/T//cc73C8xp.s 			page 70


 3654      747800
 3655              	.LASF41:
 3656 062b 705F6D73 		.ascii	"p_msgqueue\000"
 3656      67717565 
 3656      756500
 3657              	.LASF147:
 3658 0636 2E2E2F2E 		.ascii	"../../test/testdyn.c\000"
 3658      2E2F7465 
 3658      73742F74 
 3658      65737464 
 3658      796E2E63 
 3659              	.LASF124:
 3660 064b 666F756E 		.ascii	"found\000"
 3660      6400
 3661              	.LASF97:
 3662 0651 63665F6F 		.ascii	"cf_off_ctx\000"
 3662      66665F63 
 3662      747800
 3663              	.LASF37:
 3664 065c 705F7265 		.ascii	"p_refs\000"
 3664      667300
 3665              	.LASF67:
 3666 0663 52656164 		.ascii	"ReadyList\000"
 3666      794C6973 
 3666      7400
 3667              	.LASF130:
 3668 066d 72656766 		.ascii	"regfind\000"
 3668      696E6400 
 3669              	.LASF69:
 3670 0675 726C6973 		.ascii	"rlist\000"
 3670      7400
 3671              	.LASF14:
 3672 067b 75696E74 		.ascii	"uint8_t\000"
 3672      385F7400 
 3673              	.LASF86:
 3674 0683 77746F62 		.ascii	"wtobjp\000"
 3674      6A7000
 3675              	.LASF34:
 3676 068a 705F6E61 		.ascii	"p_name\000"
 3676      6D6500
 3677              	.LASF133:
 3678 0691 5F746573 		.ascii	"_test_assert\000"
 3678      745F6173 
 3678      73657274 
 3678      00
 3679              	.LASF59:
 3680 069e 76745F73 		.ascii	"vt_systime\000"
 3680      79737469 
 3680      6D6500
 3681              	.LASF92:
 3682 06a9 63685F76 		.ascii	"ch_version\000"
 3682      65727369 
 3682      6F6E00
 3683              	.LASF60:
 3684 06b4 56544C69 		.ascii	"VTList\000"
 3684      737400
 3685              	.LASF72:
ARM GAS  /var/folders/l5/0x54b2c10074c8bt31ycjvl80000gp/T//cc73C8xp.s 			page 71


 3686 06bb 6D5F6F77 		.ascii	"m_owner\000"
 3686      6E657200 
 3687              	.LASF31:
 3688 06c3 705F6374 		.ascii	"p_ctx\000"
 3688      7800
 3689              	.LASF40:
 3690 06c9 705F7761 		.ascii	"p_waiting\000"
 3690      6974696E 
 3690      6700
 3691              	.LASF127:
 3692 06d3 68656170 		.ascii	"heap1\000"
 3692      3100
 3693              	.LASF76:
 3694 06d9 6D656D6F 		.ascii	"memory_heap\000"
 3694      72795F68 
 3694      65617000 
 3695              		.ident	"GCC: (GNU Tools for Arm Embedded Processors 8-2019-q3-update) 8.3.1 20190703 (release) [gc
ARM GAS  /var/folders/l5/0x54b2c10074c8bt31ycjvl80000gp/T//cc73C8xp.s 			page 72


DEFINED SYMBOLS
                            *ABS*:0000000000000000 testdyn.c
/var/folders/l5/0x54b2c10074c8bt31ycjvl80000gp/T//cc73C8xp.s:16     .text.dyn1_execute:0000000000000000 $a
/var/folders/l5/0x54b2c10074c8bt31ycjvl80000gp/T//cc73C8xp.s:22     .text.dyn1_execute:0000000000000000 dyn1_execute
/var/folders/l5/0x54b2c10074c8bt31ycjvl80000gp/T//cc73C8xp.s:196    .text.dyn1_execute:0000000000000160 $d
/var/folders/l5/0x54b2c10074c8bt31ycjvl80000gp/T//cc73C8xp.s:213    .text.thread:0000000000000000 thread
/var/folders/l5/0x54b2c10074c8bt31ycjvl80000gp/T//cc73C8xp.s:208    .text.thread:0000000000000000 $a
/var/folders/l5/0x54b2c10074c8bt31ycjvl80000gp/T//cc73C8xp.s:240    .text.dyn1_setup:0000000000000000 $a
/var/folders/l5/0x54b2c10074c8bt31ycjvl80000gp/T//cc73C8xp.s:245    .text.dyn1_setup:0000000000000000 dyn1_setup
/var/folders/l5/0x54b2c10074c8bt31ycjvl80000gp/T//cc73C8xp.s:261    .text.dyn1_setup:0000000000000010 $d
/var/folders/l5/0x54b2c10074c8bt31ycjvl80000gp/T//cc73C8xp.s:268    .text.dyn3_setup:0000000000000000 $a
/var/folders/l5/0x54b2c10074c8bt31ycjvl80000gp/T//cc73C8xp.s:273    .text.dyn3_setup:0000000000000000 dyn3_setup
/var/folders/l5/0x54b2c10074c8bt31ycjvl80000gp/T//cc73C8xp.s:284    .text.regfind:0000000000000000 $a
/var/folders/l5/0x54b2c10074c8bt31ycjvl80000gp/T//cc73C8xp.s:289    .text.regfind:0000000000000000 regfind
/var/folders/l5/0x54b2c10074c8bt31ycjvl80000gp/T//cc73C8xp.s:342    .text.dyn3_execute:0000000000000000 $a
/var/folders/l5/0x54b2c10074c8bt31ycjvl80000gp/T//cc73C8xp.s:347    .text.dyn3_execute:0000000000000000 dyn3_execute
/var/folders/l5/0x54b2c10074c8bt31ycjvl80000gp/T//cc73C8xp.s:555    .text.dyn3_execute:00000000000001c0 $d
/var/folders/l5/0x54b2c10074c8bt31ycjvl80000gp/T//cc73C8xp.s:589    .rodata.patterndyn:0000000000000000 patterndyn
/var/folders/l5/0x54b2c10074c8bt31ycjvl80000gp/T//cc73C8xp.s:613    .rodata.testdyn3:0000000000000000 testdyn3
/var/folders/l5/0x54b2c10074c8bt31ycjvl80000gp/T//cc73C8xp.s:604    .rodata.testdyn1:0000000000000000 testdyn1
/var/folders/l5/0x54b2c10074c8bt31ycjvl80000gp/T//cc73C8xp.s:566    .bss.heap1:0000000000000000 $d
/var/folders/l5/0x54b2c10074c8bt31ycjvl80000gp/T//cc73C8xp.s:570    .bss.heap1:0000000000000000 heap1
/var/folders/l5/0x54b2c10074c8bt31ycjvl80000gp/T//cc73C8xp.s:573    .rodata.dyn1_execute.str1.4:0000000000000000 $d
/var/folders/l5/0x54b2c10074c8bt31ycjvl80000gp/T//cc73C8xp.s:586    .rodata.patterndyn:0000000000000000 $d
/var/folders/l5/0x54b2c10074c8bt31ycjvl80000gp/T//cc73C8xp.s:594    .rodata.str1.4:0000000000000000 $d
/var/folders/l5/0x54b2c10074c8bt31ycjvl80000gp/T//cc73C8xp.s:601    .rodata.testdyn1:0000000000000000 $d
/var/folders/l5/0x54b2c10074c8bt31ycjvl80000gp/T//cc73C8xp.s:610    .rodata.testdyn3:0000000000000000 $d

UNDEFINED SYMBOLS
chHeapStatus
chThdCreateFromHeap
chHeapAlloc
chHeapFree
_test_assert
test_wait_threads
_test_assert_sequence
rlist
threads
test_emit_token
chHeapInit
test
chRegFirstThread
chRegNextThread
chThdAddRef
chThdRelease
chThdSleep
