ARM GAS  /var/folders/l5/0x54b2c10074c8bt31ycjvl80000gp/T//cc73C8xp.s 			page 1


   1              		.cpu arm1176jz-s
   2              		.eabi_attribute 20, 1
   3              		.eabi_attribute 21, 1
   4              		.eabi_attribute 23, 3
   5              		.eabi_attribute 24, 1
   6              		.eabi_attribute 25, 1
   7              		.eabi_attribute 26, 1
   8              		.eabi_attribute 30, 2
   9              		.eabi_attribute 34, 1
  10              		.eabi_attribute 18, 4
  11              		.file	"testdyn.c"
  12              		.text
  13              	.Ltext0:
  14              		.cfi_sections	.debug_frame
  15              		.section	.text.dyn1_execute,"ax",%progbits
  16              		.align	2
  17              		.arch armv6kz
  18              		.syntax unified
  19              		.arm
  20              		.fpu softvfp
  21              		.type	dyn1_execute, %function
  22              	dyn1_execute:
  23              	.LFB9:
  24              		.file 1 "../../test/testdyn.c"
  25              		.loc 1 87 32 view -0
  26              		.cfi_startproc
  27              		@ args = 0, pretend = 0, frame = 8
  28              		@ frame_needed = 0, uses_anonymous_args = 0
  29              		.loc 1 88 3 view .LVU1
  30              		.loc 1 89 3 view .LVU2
  31              		.loc 1 90 3 view .LVU3
  32              		.loc 1 87 32 is_stmt 0 view .LVU4
  33 0000 70402DE9 		push	{r4, r5, r6, lr}
  34              		.cfi_def_cfa_offset 16
  35              		.cfi_offset 4, -16
  36              		.cfi_offset 5, -12
  37              		.cfi_offset 6, -8
  38              		.cfi_offset 14, -4
  39              		.loc 1 90 18 view .LVU5
  40 0004 54319FE5 		ldr	r3, .L14
  41              		.loc 1 87 32 view .LVU6
  42 0008 10D04DE2 		sub	sp, sp, #16
  43              		.cfi_def_cfa_offset 32
  44              		.loc 1 90 11 view .LVU7
  45 000c 183093E5 		ldr	r3, [r3, #24]
  46              		.loc 1 92 9 view .LVU8
  47 0010 0C108DE2 		add	r1, sp, #12
  48 0014 48019FE5 		ldr	r0, .L14+4
  49              		.loc 1 90 11 view .LVU9
  50 0018 085093E5 		ldr	r5, [r3, #8]
  51              	.LVL0:
  52              		.loc 1 92 3 is_stmt 1 view .LVU10
  53              		.loc 1 92 9 is_stmt 0 view .LVU11
  54 001c FEFFFFEB 		bl	chHeapStatus
  55              	.LVL1:
  56              		.loc 1 94 3 is_stmt 1 view .LVU12
  57              		.loc 1 94 16 is_stmt 0 view .LVU13
ARM GAS  /var/folders/l5/0x54b2c10074c8bt31ycjvl80000gp/T//cc73C8xp.s 			page 2


  58 0020 40319FE5 		ldr	r3, .L14+8
  59 0024 012045E2 		sub	r2, r5, #1
  60 0028 00308DE5 		str	r3, [sp]
  61 002c 461FA0E3 		mov	r1, #280
  62 0030 34319FE5 		ldr	r3, .L14+12
  63 0034 28019FE5 		ldr	r0, .L14+4
  64 0038 FEFFFFEB 		bl	chThdCreateFromHeap
  65              	.LVL2:
  66              		.loc 1 94 14 view .LVU14
  67 003c 2C419FE5 		ldr	r4, .L14+16
  68              		.loc 1 96 16 view .LVU15
  69 0040 2C319FE5 		ldr	r3, .L14+20
  70 0044 022045E2 		sub	r2, r5, #2
  71              		.loc 1 94 14 view .LVU16
  72 0048 000084E5 		str	r0, [r4]
  73              		.loc 1 96 3 is_stmt 1 view .LVU17
  74              		.loc 1 96 16 is_stmt 0 view .LVU18
  75 004c 00308DE5 		str	r3, [sp]
  76 0050 461FA0E3 		mov	r1, #280
  77 0054 10319FE5 		ldr	r3, .L14+12
  78 0058 04019FE5 		ldr	r0, .L14+4
  79 005c FEFFFFEB 		bl	chThdCreateFromHeap
  80              	.LVL3:
  81              		.loc 1 99 9 view .LVU19
  82 0060 08108DE2 		add	r1, sp, #8
  83              		.loc 1 96 14 view .LVU20
  84 0064 040084E5 		str	r0, [r4, #4]
  85              		.loc 1 99 3 is_stmt 1 view .LVU21
  86              		.loc 1 99 9 is_stmt 0 view .LVU22
  87 0068 F4009FE5 		ldr	r0, .L14+4
  88 006c FEFFFFEB 		bl	chHeapStatus
  89              	.LVL4:
  90              		.loc 1 100 3 is_stmt 1 view .LVU23
  91              		.loc 1 100 8 is_stmt 0 view .LVU24
  92 0070 08109DE5 		ldr	r1, [sp, #8]
  93 0074 E8009FE5 		ldr	r0, .L14+4
  94 0078 FEFFFFEB 		bl	chHeapAlloc
  95              	.LVL5:
  96              		.loc 1 101 16 view .LVU25
  97 007c F4309FE5 		ldr	r3, .L14+24
  98 0080 461FA0E3 		mov	r1, #280
  99              		.loc 1 100 8 view .LVU26
 100 0084 0060A0E1 		mov	r6, r0
 101              	.LVL6:
 102              		.loc 1 101 3 is_stmt 1 view .LVU27
 103              		.loc 1 101 16 is_stmt 0 view .LVU28
 104 0088 032045E2 		sub	r2, r5, #3
 105 008c 00308DE5 		str	r3, [sp]
 106 0090 CC009FE5 		ldr	r0, .L14+4
 107              	.LVL7:
 108              		.loc 1 101 16 view .LVU29
 109 0094 D0309FE5 		ldr	r3, .L14+12
 110 0098 FEFFFFEB 		bl	chThdCreateFromHeap
 111              	.LVL8:
 112              		.loc 1 101 14 view .LVU30
 113 009c 080084E5 		str	r0, [r4, #8]
 114              		.loc 1 103 3 is_stmt 1 view .LVU31
ARM GAS  /var/folders/l5/0x54b2c10074c8bt31ycjvl80000gp/T//cc73C8xp.s 			page 3


 115 00a0 0600A0E1 		mov	r0, r6
 116 00a4 FEFFFFEB 		bl	chHeapFree
 117              	.LVL9:
 118              		.loc 1 105 3 view .LVU32
 119 00a8 001094E5 		ldr	r1, [r4]
 120 00ac 000051E3 		cmp	r1, #0
 121 00b0 0600000A 		beq	.L2
 122              		.loc 1 105 3 is_stmt 0 discriminator 1 view .LVU33
 123 00b4 041094E5 		ldr	r1, [r4, #4]
 124 00b8 000051E3 		cmp	r1, #0
 125 00bc 0300000A 		beq	.L2
 126              		.loc 1 105 3 discriminator 3 view .LVU34
 127 00c0 081094E5 		ldr	r1, [r4, #8]
 128 00c4 000051E3 		cmp	r1, #0
 129 00c8 0010A013 		movne	r1, #0
 130 00cc 1D00000A 		beq	.L12
 131              	.L2:
 132              		.loc 1 105 3 discriminator 12 view .LVU35
 133 00d0 0100A0E3 		mov	r0, #1
 134 00d4 FEFFFFEB 		bl	_test_assert
 135              	.LVL10:
 136 00d8 000050E3 		cmp	r0, #0
 137 00dc 0100000A 		beq	.L13
 138              	.L1:
 139              		.loc 1 119 1 view .LVU36
 140 00e0 10D08DE2 		add	sp, sp, #16
 141              		.cfi_remember_state
 142              		.cfi_def_cfa_offset 16
 143              		@ sp needed
 144 00e4 7080BDE8 		pop	{r4, r5, r6, pc}
 145              	.LVL11:
 146              	.L13:
 147              		.cfi_restore_state
 148              		.loc 1 110 43 is_stmt 1 view .LVU37
 149              		.loc 1 113 3 view .LVU38
 150 00e8 FEFFFFEB 		bl	test_wait_threads
 151              	.LVL12:
 152              		.loc 1 114 3 view .LVU39
 153 00ec 88109FE5 		ldr	r1, .L14+28
 154 00f0 0200A0E3 		mov	r0, #2
 155 00f4 FEFFFFEB 		bl	_test_assert_sequence
 156              	.LVL13:
 157 00f8 000050E3 		cmp	r0, #0
 158 00fc F7FFFF1A 		bne	.L1
 159              		.loc 1 114 32 discriminator 2 view .LVU40
 160              		.loc 1 117 3 discriminator 2 view .LVU41
 161 0100 08108DE2 		add	r1, sp, #8
 162 0104 58009FE5 		ldr	r0, .L14+4
 163 0108 FEFFFFEB 		bl	chHeapStatus
 164              	.LVL14:
 165 010c 011040E2 		sub	r1, r0, #1
 166 0110 111F6FE1 		clz	r1, r1
 167 0114 0300A0E3 		mov	r0, #3
 168 0118 A112A0E1 		lsr	r1, r1, #5
 169 011c FEFFFFEB 		bl	_test_assert
 170              	.LVL15:
 171 0120 000050E3 		cmp	r0, #0
ARM GAS  /var/folders/l5/0x54b2c10074c8bt31ycjvl80000gp/T//cc73C8xp.s 			page 4


 172 0124 EDFFFF1A 		bne	.L1
 173              		.loc 1 117 67 discriminator 2 view .LVU42
 174              		.loc 1 118 3 discriminator 2 view .LVU43
 175 0128 08109DE5 		ldr	r1, [sp, #8]
 176 012c 0C309DE5 		ldr	r3, [sp, #12]
 177 0130 0400A0E3 		mov	r0, #4
 178 0134 031041E0 		sub	r1, r1, r3
 179 0138 111F6FE1 		clz	r1, r1
 180 013c A112A0E1 		lsr	r1, r1, #5
 181 0140 FEFFFFEB 		bl	_test_assert
 182              	.LVL16:
 183              		.loc 1 118 3 discriminator 2 view .LVU44
 184 0144 E5FFFFEA 		b	.L1
 185              	.L12:
 186              		.loc 1 105 3 is_stmt 0 discriminator 5 view .LVU45
 187 0148 0C3094E5 		ldr	r3, [r4, #12]
 188 014c 000053E3 		cmp	r3, #0
 189 0150 10109405 		ldreq	r1, [r4, #16]
 190 0154 111F6F01 		clzeq	r1, r1
 191 0158 A112A001 		lsreq	r1, r1, #5
 192 015c DBFFFFEA 		b	.L2
 193              	.L15:
 194              		.align	2
 195              	.L14:
 196 0160 00000000 		.word	rlist
 197 0164 00000000 		.word	.LANCHOR0
 198 0168 00000000 		.word	.LC0
 199 016c 00000000 		.word	thread
 200 0170 00000000 		.word	threads
 201 0174 04000000 		.word	.LC1
 202 0178 08000000 		.word	.LC2
 203 017c 0C000000 		.word	.LC3
 204              		.cfi_endproc
 205              	.LFE9:
 206              		.size	dyn1_execute, .-dyn1_execute
 207              		.section	.text.thread,"ax",%progbits
 208              		.align	2
 209              		.syntax unified
 210              		.arm
 211              		.fpu softvfp
 212              		.type	thread, %function
 213              	thread:
 214              	.LVL17:
 215              	.LFB7:
 216              		.loc 1 75 30 is_stmt 1 view -0
 217              		.cfi_startproc
 218              		@ args = 0, pretend = 0, frame = 0
 219              		@ frame_needed = 0, uses_anonymous_args = 0
 220              		.loc 1 77 3 view .LVU47
 221              		.loc 1 75 30 is_stmt 0 view .LVU48
 222 0000 10402DE9 		push	{r4, lr}
 223              		.cfi_def_cfa_offset 8
 224              		.cfi_offset 4, -8
 225              		.cfi_offset 14, -4
 226              		.loc 1 77 3 view .LVU49
 227 0004 0000D0E5 		ldrb	r0, [r0]	@ zero_extendqisi2
 228              	.LVL18:
ARM GAS  /var/folders/l5/0x54b2c10074c8bt31ycjvl80000gp/T//cc73C8xp.s 			page 5


 229              		.loc 1 77 3 view .LVU50
 230 0008 FEFFFFEB 		bl	test_emit_token
 231              	.LVL19:
 232              		.loc 1 78 3 is_stmt 1 view .LVU51
 233              		.loc 1 79 1 is_stmt 0 view .LVU52
 234 000c 0000A0E3 		mov	r0, #0
 235 0010 1080BDE8 		pop	{r4, pc}
 236              		.cfi_endproc
 237              	.LFE7:
 238              		.size	thread, .-thread
 239              		.section	.text.dyn1_setup,"ax",%progbits
 240              		.align	2
 241              		.syntax unified
 242              		.arm
 243              		.fpu softvfp
 244              		.type	dyn1_setup, %function
 245              	dyn1_setup:
 246              	.LFB8:
 247              		.loc 1 82 30 is_stmt 1 view -0
 248              		.cfi_startproc
 249              		@ args = 0, pretend = 0, frame = 0
 250              		@ frame_needed = 0, uses_anonymous_args = 0
 251              		@ link register save eliminated.
 252              		.loc 1 84 3 view .LVU54
 253 0000 08209FE5 		ldr	r2, .L19
 254 0004 08109FE5 		ldr	r1, .L19+4
 255 0008 08009FE5 		ldr	r0, .L19+8
 256 000c FEFFFFEA 		b	chHeapInit
 257              	.LVL20:
 258              	.L20:
 259              		.align	2
 260              	.L19:
 261 0010 78050000 		.word	1400
 262 0014 00000000 		.word	test
 263 0018 00000000 		.word	.LANCHOR0
 264              		.cfi_endproc
 265              	.LFE8:
 266              		.size	dyn1_setup, .-dyn1_setup
 267              		.section	.text.dyn3_setup,"ax",%progbits
 268              		.align	2
 269              		.syntax unified
 270              		.arm
 271              		.fpu softvfp
 272              		.type	dyn3_setup, %function
 273              	dyn3_setup:
 274              	.LFB14:
 275              		.cfi_startproc
 276              		@ args = 0, pretend = 0, frame = 0
 277              		@ frame_needed = 0, uses_anonymous_args = 0
 278              		@ link register save eliminated.
 279 0000 FEFFFFEA 		b	dyn1_setup
 280              		.cfi_endproc
 281              	.LFE14:
 282              		.size	dyn3_setup, .-dyn3_setup
 283              		.section	.text.regfind,"ax",%progbits
 284              		.align	2
 285              		.syntax unified
ARM GAS  /var/folders/l5/0x54b2c10074c8bt31ycjvl80000gp/T//cc73C8xp.s 			page 6


 286              		.arm
 287              		.fpu softvfp
 288              		.type	regfind, %function
 289              	regfind:
 290              	.LVL21:
 291              	.LFB10:
 292              		.loc 1 195 35 view -0
 293              		.cfi_startproc
 294              		@ args = 0, pretend = 0, frame = 0
 295              		@ frame_needed = 0, uses_anonymous_args = 0
 296              		.loc 1 196 3 view .LVU56
 297              		.loc 1 197 3 view .LVU57
 298              		.loc 1 199 3 view .LVU58
 299              		.loc 1 195 35 is_stmt 0 view .LVU59
 300 0000 70402DE9 		push	{r4, r5, r6, lr}
 301              		.cfi_def_cfa_offset 16
 302              		.cfi_offset 4, -16
 303              		.cfi_offset 5, -12
 304              		.cfi_offset 6, -8
 305              		.cfi_offset 14, -4
 306              		.loc 1 195 35 view .LVU60
 307 0004 0050A0E1 		mov	r5, r0
 308              		.loc 1 199 9 view .LVU61
 309 0008 FEFFFFEB 		bl	chRegFirstThread
 310              	.LVL22:
 311              		.loc 1 197 10 view .LVU62
 312 000c 0040A0E3 		mov	r4, #0
 313              		.loc 1 199 9 view .LVU63
 314 0010 0030A0E1 		mov	r3, r0
 315              	.LVL23:
 316              	.L23:
 317              		.loc 1 200 3 is_stmt 1 discriminator 1 view .LVU64
 318              		.loc 1 201 5 discriminator 1 view .LVU65
 319              		.loc 1 202 11 is_stmt 0 discriminator 1 view .LVU66
 320 0014 0300A0E1 		mov	r0, r3
 321              		.loc 1 201 11 discriminator 1 view .LVU67
 322 0018 050053E1 		cmp	r3, r5
 323 001c 01408403 		orreq	r4, r4, #1
 324              	.LVL24:
 325              		.loc 1 202 5 is_stmt 1 discriminator 1 view .LVU68
 326              		.loc 1 202 11 is_stmt 0 discriminator 1 view .LVU69
 327 0020 FEFFFFEB 		bl	chRegNextThread
 328              	.LVL25:
 329              		.loc 1 203 3 discriminator 1 view .LVU70
 330 0024 003050E2 		subs	r3, r0, #0
 331 0028 F9FFFF1A 		bne	.L23
 332              		.loc 1 204 3 is_stmt 1 view .LVU71
 333              		.loc 1 205 1 is_stmt 0 view .LVU72
 334 002c 0400A0E1 		mov	r0, r4
 335              	.LVL26:
 336              		.loc 1 205 1 view .LVU73
 337 0030 7080BDE8 		pop	{r4, r5, r6, pc}
 338              		.cfi_endproc
 339              	.LFE10:
 340              		.size	regfind, .-regfind
 341              		.section	.text.dyn3_execute,"ax",%progbits
 342              		.align	2
ARM GAS  /var/folders/l5/0x54b2c10074c8bt31ycjvl80000gp/T//cc73C8xp.s 			page 7


 343              		.syntax unified
 344              		.arm
 345              		.fpu softvfp
 346              		.type	dyn3_execute, %function
 347              	dyn3_execute:
 348              	.LFB12:
 349              		.loc 1 212 32 is_stmt 1 view -0
 350              		.cfi_startproc
 351              		@ args = 0, pretend = 0, frame = 0
 352              		@ frame_needed = 0, uses_anonymous_args = 0
 353              		.loc 1 213 3 view .LVU75
 354              		.loc 1 214 3 view .LVU76
 355              	.LVL27:
 356              		.loc 1 217 3 view .LVU77
 357              		.loc 1 212 32 is_stmt 0 view .LVU78
 358 0000 10402DE9 		push	{r4, lr}
 359              		.cfi_def_cfa_offset 8
 360              		.cfi_offset 4, -8
 361              		.cfi_offset 14, -4
 362              		.loc 1 214 18 view .LVU79
 363 0004 B4319FE5 		ldr	r3, .L32
 364              		.loc 1 217 8 view .LVU80
 365 0008 B4019FE5 		ldr	r0, .L32+4
 366              		.loc 1 214 11 view .LVU81
 367 000c 182093E5 		ldr	r2, [r3, #24]
 368              		.loc 1 212 32 view .LVU82
 369 0010 08D04DE2 		sub	sp, sp, #8
 370              		.cfi_def_cfa_offset 16
 371              		.loc 1 217 8 view .LVU83
 372 0014 082092E5 		ldr	r2, [r2, #8]
 373 0018 A8319FE5 		ldr	r3, .L32+8
 374 001c 461FA0E3 		mov	r1, #280
 375 0020 012042E2 		sub	r2, r2, #1
 376 0024 00008DE5 		str	r0, [sp]
 377              	.LVL28:
 378              		.loc 1 217 8 view .LVU84
 379 0028 9C019FE5 		ldr	r0, .L32+12
 380 002c FEFFFFEB 		bl	chThdCreateFromHeap
 381              	.LVL29:
 382              		.loc 1 218 3 view .LVU85
 383 0030 1E10D0E5 		ldrb	r1, [r0, #30]	@ zero_extendqisi2
 384              		.loc 1 217 8 view .LVU86
 385 0034 0040A0E1 		mov	r4, r0
 386              	.LVL30:
 387              		.loc 1 218 3 is_stmt 1 view .LVU87
 388 0038 0100A0E3 		mov	r0, #1
 389              	.LVL31:
 390              		.loc 1 218 3 is_stmt 0 view .LVU88
 391 003c 001041E0 		sub	r1, r1, r0
 392 0040 111F6FE1 		clz	r1, r1
 393 0044 A112A0E1 		lsr	r1, r1, #5
 394 0048 FEFFFFEB 		bl	_test_assert
 395              	.LVL32:
 396 004c 000050E3 		cmp	r0, #0
 397 0050 0100000A 		beq	.L31
 398              	.L26:
 399              		.loc 1 240 1 view .LVU89
ARM GAS  /var/folders/l5/0x54b2c10074c8bt31ycjvl80000gp/T//cc73C8xp.s 			page 8


 400 0054 08D08DE2 		add	sp, sp, #8
 401              		.cfi_remember_state
 402              		.cfi_def_cfa_offset 8
 403              		@ sp needed
 404 0058 1080BDE8 		pop	{r4, pc}
 405              	.LVL33:
 406              	.L31:
 407              		.cfi_restore_state
 408              		.loc 1 218 69 is_stmt 1 discriminator 2 view .LVU90
 409              		.loc 1 219 3 discriminator 2 view .LVU91
 410 005c 0400A0E1 		mov	r0, r4
 411 0060 FEFFFFEB 		bl	chThdAddRef
 412              	.LVL34:
 413              		.loc 1 220 3 discriminator 2 view .LVU92
 414 0064 0200A0E3 		mov	r0, #2
 415 0068 1E10D4E5 		ldrb	r1, [r4, #30]	@ zero_extendqisi2
 416 006c 001041E0 		sub	r1, r1, r0
 417 0070 111F6FE1 		clz	r1, r1
 418 0074 A112A0E1 		lsr	r1, r1, #5
 419 0078 FEFFFFEB 		bl	_test_assert
 420              	.LVL35:
 421 007c 000050E3 		cmp	r0, #0
 422 0080 F3FFFF1A 		bne	.L26
 423              		.loc 1 220 65 discriminator 2 view .LVU93
 424              		.loc 1 221 3 discriminator 2 view .LVU94
 425 0084 0400A0E1 		mov	r0, r4
 426 0088 FEFFFFEB 		bl	chThdRelease
 427              	.LVL36:
 428              		.loc 1 222 3 discriminator 2 view .LVU95
 429 008c 1E10D4E5 		ldrb	r1, [r4, #30]	@ zero_extendqisi2
 430 0090 0300A0E3 		mov	r0, #3
 431 0094 011041E2 		sub	r1, r1, #1
 432 0098 111F6FE1 		clz	r1, r1
 433 009c A112A0E1 		lsr	r1, r1, #5
 434 00a0 FEFFFFEB 		bl	_test_assert
 435              	.LVL37:
 436 00a4 000050E3 		cmp	r0, #0
 437 00a8 E9FFFF1A 		bne	.L26
 438              		.loc 1 222 65 discriminator 2 view .LVU96
 439              		.loc 1 225 3 discriminator 2 view .LVU97
 440 00ac 0400A0E1 		mov	r0, r4
 441 00b0 FEFFFFEB 		bl	regfind
 442              	.LVL38:
 443 00b4 0010A0E1 		mov	r1, r0
 444 00b8 0400A0E3 		mov	r0, #4
 445 00bc FEFFFFEB 		bl	_test_assert
 446              	.LVL39:
 447 00c0 000050E3 		cmp	r0, #0
 448 00c4 E2FFFF1A 		bne	.L26
 449              		.loc 1 225 62 discriminator 2 view .LVU98
 450              		.loc 1 226 3 discriminator 2 view .LVU99
 451 00c8 0400A0E1 		mov	r0, r4
 452 00cc FEFFFFEB 		bl	regfind
 453              	.LVL40:
 454 00d0 0010A0E1 		mov	r1, r0
 455 00d4 0500A0E3 		mov	r0, #5
 456 00d8 FEFFFFEB 		bl	_test_assert
ARM GAS  /var/folders/l5/0x54b2c10074c8bt31ycjvl80000gp/T//cc73C8xp.s 			page 9


 457              	.LVL41:
 458 00dc 000050E3 		cmp	r0, #0
 459 00e0 DBFFFF1A 		bne	.L26
 460              		.loc 1 226 52 discriminator 2 view .LVU100
 461              		.loc 1 229 3 discriminator 2 view .LVU101
 462 00e4 0400A0E1 		mov	r0, r4
 463 00e8 FEFFFFEB 		bl	chThdRelease
 464              	.LVL42:
 465              		.loc 1 230 3 discriminator 2 view .LVU102
 466 00ec 1E10D4E5 		ldrb	r1, [r4, #30]	@ zero_extendqisi2
 467 00f0 0600A0E3 		mov	r0, #6
 468 00f4 111F6FE1 		clz	r1, r1
 469 00f8 A112A0E1 		lsr	r1, r1, #5
 470 00fc FEFFFFEB 		bl	_test_assert
 471              	.LVL43:
 472 0100 000050E3 		cmp	r0, #0
 473 0104 D2FFFF1A 		bne	.L26
 474              		.loc 1 230 52 discriminator 2 view .LVU103
 475              		.loc 1 231 3 discriminator 2 view .LVU104
 476 0108 1C10D4E5 		ldrb	r1, [r4, #28]	@ zero_extendqisi2
 477 010c 0700A0E3 		mov	r0, #7
 478 0110 111F6FE1 		clz	r1, r1
 479 0114 A112A0E1 		lsr	r1, r1, #5
 480 0118 FEFFFFEB 		bl	_test_assert
 481              	.LVL44:
 482 011c 000050E3 		cmp	r0, #0
 483 0120 CBFFFF1A 		bne	.L26
 484              		.loc 1 231 66 discriminator 2 view .LVU105
 485              		.loc 1 232 3 discriminator 2 view .LVU106
 486 0124 0400A0E1 		mov	r0, r4
 487 0128 FEFFFFEB 		bl	regfind
 488              	.LVL45:
 489 012c 0010A0E1 		mov	r1, r0
 490 0130 0800A0E3 		mov	r0, #8
 491 0134 FEFFFFEB 		bl	_test_assert
 492              	.LVL46:
 493 0138 000050E3 		cmp	r0, #0
 494 013c C4FFFF1A 		bne	.L26
 495              		.loc 1 232 52 discriminator 2 view .LVU107
 496              		.loc 1 233 3 discriminator 2 view .LVU108
 497 0140 0400A0E1 		mov	r0, r4
 498 0144 FEFFFFEB 		bl	regfind
 499              	.LVL47:
 500 0148 0010A0E1 		mov	r1, r0
 501 014c 0900A0E3 		mov	r0, #9
 502 0150 FEFFFFEB 		bl	_test_assert
 503              	.LVL48:
 504 0154 000050E3 		cmp	r0, #0
 505 0158 BDFFFF1A 		bne	.L26
 506              		.loc 1 233 52 discriminator 2 view .LVU109
 507              		.loc 1 234 3 discriminator 2 view .LVU110
 508 015c 3200A0E3 		mov	r0, #50
 509 0160 FEFFFFEB 		bl	chThdSleep
 510              	.LVL49:
 511              		.loc 1 235 3 discriminator 2 view .LVU111
 512 0164 1C10D4E5 		ldrb	r1, [r4, #28]	@ zero_extendqisi2
 513 0168 0A00A0E3 		mov	r0, #10
ARM GAS  /var/folders/l5/0x54b2c10074c8bt31ycjvl80000gp/T//cc73C8xp.s 			page 10


 514 016c 0E1041E2 		sub	r1, r1, #14
 515 0170 111F6FE1 		clz	r1, r1
 516 0174 A112A0E1 		lsr	r1, r1, #5
 517 0178 FEFFFFEB 		bl	_test_assert
 518              	.LVL50:
 519 017c 000050E3 		cmp	r0, #0
 520 0180 B3FFFF1A 		bne	.L26
 521              		.loc 1 235 67 discriminator 2 view .LVU112
 522              		.loc 1 238 3 discriminator 2 view .LVU113
 523 0184 0400A0E1 		mov	r0, r4
 524 0188 FEFFFFEB 		bl	regfind
 525              	.LVL51:
 526 018c 0010A0E1 		mov	r1, r0
 527 0190 0B00A0E3 		mov	r0, #11
 528 0194 FEFFFFEB 		bl	_test_assert
 529              	.LVL52:
 530 0198 000050E3 		cmp	r0, #0
 531 019c ACFFFF1A 		bne	.L26
 532              		.loc 1 238 53 discriminator 2 view .LVU114
 533              		.loc 1 239 3 discriminator 2 view .LVU115
 534 01a0 0400A0E1 		mov	r0, r4
 535 01a4 FEFFFFEB 		bl	regfind
 536              	.LVL53:
 537 01a8 101F6FE1 		clz	r1, r0
 538 01ac 0C00A0E3 		mov	r0, #12
 539 01b0 A112A0E1 		lsr	r1, r1, #5
 540              		.loc 1 240 1 is_stmt 0 discriminator 2 view .LVU116
 541 01b4 08D08DE2 		add	sp, sp, #8
 542              		.cfi_def_cfa_offset 8
 543              		@ sp needed
 544 01b8 1040BDE8 		pop	{r4, lr}
 545              		.cfi_restore 14
 546              		.cfi_restore 4
 547              		.cfi_def_cfa_offset 0
 548              	.LVL54:
 549              		.loc 1 239 3 discriminator 2 view .LVU117
 550 01bc FEFFFFEA 		b	_test_assert
 551              	.LVL55:
 552              	.L33:
 553              		.align	2
 554              	.L32:
 555 01c0 00000000 		.word	rlist
 556 01c4 00000000 		.word	.LC0
 557 01c8 00000000 		.word	thread
 558 01cc 00000000 		.word	.LANCHOR0
 559              		.cfi_endproc
 560              	.LFE12:
 561              		.size	dyn3_execute, .-dyn3_execute
 562              		.global	patterndyn
 563              		.global	testdyn3
 564              		.global	testdyn1
 565              		.section	.bss.heap1,"aw",%nobits
 566              		.align	2
 567              		.set	.LANCHOR0,. + 0
 568              		.type	heap1, %object
 569              		.size	heap1, 28
 570              	heap1:
ARM GAS  /var/folders/l5/0x54b2c10074c8bt31ycjvl80000gp/T//cc73C8xp.s 			page 11


 571 0000 00000000 		.space	28
 571      00000000 
 571      00000000 
 571      00000000 
 571      00000000 
 572              		.section	.rodata.dyn1_execute.str1.4,"aMS",%progbits,1
 573              		.align	2
 574              	.LC0:
 575 0000 4100     		.ascii	"A\000"
 576 0002 0000     		.space	2
 577              	.LC1:
 578 0004 4200     		.ascii	"B\000"
 579 0006 0000     		.space	2
 580              	.LC2:
 581 0008 4300     		.ascii	"C\000"
 582 000a 0000     		.space	2
 583              	.LC3:
 584 000c 414200   		.ascii	"AB\000"
 585              		.section	.rodata.patterndyn,"a"
 586              		.align	2
 587              		.type	patterndyn, %object
 588              		.size	patterndyn, 12
 589              	patterndyn:
 590 0000 00000000 		.word	testdyn1
 591 0004 00000000 		.word	testdyn3
 592 0008 00000000 		.word	0
 593              		.section	.rodata.str1.4,"aMS",%progbits,1
 594              		.align	2
 595              	.LC4:
 596 0000 44796E61 		.ascii	"Dynamic APIs, registry and references\000"
 596      6D696320 
 596      41504973 
 596      2C207265 
 596      67697374 
 597 0026 0000     		.space	2
 598              	.LC5:
 599 0028 44796E61 		.ascii	"Dynamic APIs, threads creation from heap\000"
 599      6D696320 
 599      41504973 
 599      2C207468 
 599      72656164 
 600              		.section	.rodata.testdyn1,"a"
 601              		.align	2
 602              		.type	testdyn1, %object
 603              		.size	testdyn1, 16
 604              	testdyn1:
 605 0000 28000000 		.word	.LC5
 606 0004 00000000 		.word	dyn1_setup
 607 0008 00000000 		.word	0
 608 000c 00000000 		.word	dyn1_execute
 609              		.section	.rodata.testdyn3,"a"
 610              		.align	2
 611              		.type	testdyn3, %object
 612              		.size	testdyn3, 16
 613              	testdyn3:
 614 0000 00000000 		.word	.LC4
 615 0004 00000000 		.word	dyn3_setup
ARM GAS  /var/folders/l5/0x54b2c10074c8bt31ycjvl80000gp/T//cc73C8xp.s 			page 12


 616 0008 00000000 		.word	0
 617 000c 00000000 		.word	dyn3_execute
 618              		.text
 619              	.Letext0:
 620              		.file 2 "/usr/local/Cellar/arm-gcc-bin/8-2019-q3-update/lib/gcc/arm-none-eabi/8.3.1/include/stddef
 621              		.file 3 "/usr/local/Cellar/arm-gcc-bin/8-2019-q3-update/arm-none-eabi/include/machine/_default_typ
 622              		.file 4 "/usr/local/Cellar/arm-gcc-bin/8-2019-q3-update/arm-none-eabi/include/sys/_stdint.h"
 623              		.file 5 "../../os/ports/GCC/ARM/chtypes.h"
 624              		.file 6 "../../os/kernel/include/chlists.h"
 625              		.file 7 "../../os/kernel/include/chthreads.h"
 626              		.file 8 "../../os/ports/GCC/ARM/chcore.h"
 627              		.file 9 "../../os/kernel/include/chvt.h"
 628              		.file 10 "../../os/kernel/include/chschd.h"
 629              		.file 11 "../../os/kernel/include/chmtx.h"
 630              		.file 12 "../../os/kernel/include/chmemcore.h"
 631              		.file 13 "../../os/kernel/include/chheap.h"
 632              		.file 14 "../../os/kernel/include/chregistry.h"
 633              		.file 15 "../../os/kernel/include/ch.h"
 634              		.file 16 "../../test/test.h"
 635              		.file 17 "../../os/kernel/include/chdynamic.h"