ARM GAS  /var/folders/l5/0x54b2c10074c8bt31ycjvl80000gp/T//ccAllaXx.s 			page 1


   1              		.cpu arm1176jz-s
   2              		.eabi_attribute 20, 1
   3              		.eabi_attribute 21, 1
   4              		.eabi_attribute 23, 3
   5              		.eabi_attribute 24, 1
   6              		.eabi_attribute 25, 1
   7              		.eabi_attribute 26, 1
   8              		.eabi_attribute 30, 2
   9              		.eabi_attribute 34, 1
  10              		.eabi_attribute 18, 4
  11              		.file	"tm.c"
  12              		.text
  13              	.Ltext0:
  14              		.cfi_sections	.debug_frame
  15              		.section	.text.tm_start,"ax",%progbits
  16              		.align	2
  17              		.arch armv6kz
  18              		.syntax unified
  19              		.arm
  20              		.fpu softvfp
  21              		.type	tm_start, %function
  22              	tm_start:
  23              	.LVL0:
  24              	.LFB7:
  25              		.file 1 "../../os/hal/src/tm.c"
  26              		.loc 1 62 44 view -0
  27              		.cfi_startproc
  28              		@ args = 0, pretend = 0, frame = 0
  29              		@ frame_needed = 0, uses_anonymous_args = 0
  30              		@ link register save eliminated.
  31              		.loc 1 64 3 view .LVU1
  32              		.loc 1 64 15 is_stmt 0 view .LVU2
  33 0000 08309FE5 		ldr	r3, .L3
  34 0004 043093E5 		ldr	r3, [r3, #4]
  35              		.loc 1 64 13 view .LVU3
  36 0008 083080E5 		str	r3, [r0, #8]
  37              		.loc 1 65 1 view .LVU4
  38 000c 1EFF2FE1 		bx	lr
  39              	.L4:
  40              		.align	2
  41              	.L3:
  42 0010 00300020 		.word	536883200
  43              		.cfi_endproc
  44              	.LFE7:
  45              		.size	tm_start, .-tm_start
  46              		.section	.text.tm_stop,"ax",%progbits
  47              		.align	2
  48              		.syntax unified
  49              		.arm
  50              		.fpu softvfp
  51              		.type	tm_stop, %function
  52              	tm_stop:
  53              	.LVL1:
  54              	.LFB8:
  55              		.loc 1 74 43 is_stmt 1 view -0
  56              		.cfi_startproc
  57              		@ args = 0, pretend = 0, frame = 0
ARM GAS  /var/folders/l5/0x54b2c10074c8bt31ycjvl80000gp/T//ccAllaXx.s 			page 2


  58              		@ frame_needed = 0, uses_anonymous_args = 0
  59              		@ link register save eliminated.
  60              		.loc 1 76 3 view .LVU6
  61              		.loc 1 76 14 is_stmt 0 view .LVU7
  62 0000 3C309FE5 		ldr	r3, .L8
  63              		.loc 1 77 31 view .LVU8
  64 0004 3C209FE5 		ldr	r2, .L8+4
  65              		.loc 1 76 14 view .LVU9
  66 0008 043093E5 		ldr	r3, [r3, #4]
  67              	.LVL2:
  68              		.loc 1 77 3 is_stmt 1 view .LVU10
  69              		.loc 1 77 31 is_stmt 0 view .LVU11
  70 000c 002092E5 		ldr	r2, [r2]
  71 0010 081090E5 		ldr	r1, [r0, #8]
  72 0014 023043E0 		sub	r3, r3, r2
  73              	.LVL3:
  74              		.loc 1 78 6 view .LVU12
  75 0018 0C2090E5 		ldr	r2, [r0, #12]
  76              		.loc 1 77 31 view .LVU13
  77 001c 013043E0 		sub	r3, r3, r1
  78              		.loc 1 78 6 view .LVU14
  79 0020 020053E1 		cmp	r3, r2
  80              		.loc 1 77 13 view .LVU15
  81 0024 083080E5 		str	r3, [r0, #8]
  82              		.loc 1 78 3 is_stmt 1 view .LVU16
  83              		.loc 1 78 6 is_stmt 0 view .LVU17
  84 0028 0100009A 		bls	.L6
  85              		.loc 1 79 7 is_stmt 1 view .LVU18
  86              		.loc 1 79 18 is_stmt 0 view .LVU19
  87 002c 0C3080E5 		str	r3, [r0, #12]
  88 0030 1EFF2FE1 		bx	lr
  89              	.L6:
  90              		.loc 1 80 8 is_stmt 1 view .LVU20
  91              		.loc 1 80 11 is_stmt 0 view .LVU21
  92 0034 102090E5 		ldr	r2, [r0, #16]
  93 0038 020053E1 		cmp	r3, r2
  94              		.loc 1 81 7 is_stmt 1 view .LVU22
  95              		.loc 1 81 17 is_stmt 0 view .LVU23
  96 003c 10308035 		strcc	r3, [r0, #16]
  97              		.loc 1 82 1 view .LVU24
  98 0040 1EFF2FE1 		bx	lr
  99              	.L9:
 100              		.align	2
 101              	.L8:
 102 0044 00300020 		.word	536883200
 103 0048 00000000 		.word	.LANCHOR0
 104              		.cfi_endproc
 105              	.LFE8:
 106              		.size	tm_stop, .-tm_stop
 107              		.section	.text.tmInit,"ax",%progbits
 108              		.align	2
 109              		.global	tmInit
 110              		.syntax unified
 111              		.arm
 112              		.fpu softvfp
 113              		.type	tmInit, %function
 114              	tmInit:
ARM GAS  /var/folders/l5/0x54b2c10074c8bt31ycjvl80000gp/T//ccAllaXx.s 			page 3


 115              	.LFB9:
 116              		.loc 1 97 19 is_stmt 1 view -0
 117              		.cfi_startproc
 118              		@ args = 0, pretend = 0, frame = 24
 119              		@ frame_needed = 0, uses_anonymous_args = 0
 120              		.loc 1 98 3 view .LVU26
 121              		.loc 1 103 3 view .LVU27
 122              		.loc 1 103 22 is_stmt 0 view .LVU28
 123 0000 0030A0E3 		mov	r3, #0
 124              	.LBB8:
 125              	.LBB9:
 126              		.loc 1 123 14 view .LVU29
 127 0004 0010E0E3 		mvn	r1, #0
 128              	.LBE9:
 129              	.LBE8:
 130              		.loc 1 97 19 view .LVU30
 131 0008 10402DE9 		push	{r4, lr}
 132              		.cfi_def_cfa_offset 8
 133              		.cfi_offset 4, -8
 134              		.cfi_offset 14, -4
 135              		.loc 1 103 22 view .LVU31
 136 000c 40409FE5 		ldr	r4, .L12
 137              		.loc 1 97 19 view .LVU32
 138 0010 18D04DE2 		sub	sp, sp, #24
 139              		.cfi_def_cfa_offset 32
 140              	.LBB14:
 141              	.LBB15:
 142              		.loc 1 64 15 view .LVU33
 143 0014 3C209FE5 		ldr	r2, .L12+4
 144              	.LBE15:
 145              	.LBE14:
 146              	.LBB19:
 147              	.LBB10:
 148              		.loc 1 121 14 view .LVU34
 149 0018 0C308DE5 		str	r3, [sp, #12]
 150              		.loc 1 122 14 view .LVU35
 151 001c 10308DE5 		str	r3, [sp, #16]
 152              	.LBE10:
 153              	.LBE19:
 154              		.loc 1 103 22 view .LVU36
 155 0020 003084E5 		str	r3, [r4]
 156              		.loc 1 104 3 is_stmt 1 view .LVU37
 157              	.LVL4:
 158              	.LBB20:
 159              	.LBI8:
 160              		.loc 1 117 6 view .LVU38
 161              	.LBB11:
 162              		.loc 1 119 3 view .LVU39
 163              		.loc 1 123 14 is_stmt 0 view .LVU40
 164 0024 14108DE5 		str	r1, [sp, #20]
 165              	.LBE11:
 166              	.LBE20:
 167              	.LBB21:
 168              	.LBB16:
 169              		.loc 1 64 15 view .LVU41
 170 0028 041092E5 		ldr	r1, [r2, #4]
 171              	.LBE16:
ARM GAS  /var/folders/l5/0x54b2c10074c8bt31ycjvl80000gp/T//ccAllaXx.s 			page 4


 172              	.LBE21:
 173              	.LBB22:
 174              	.LBB12:
 175              		.loc 1 120 14 view .LVU42
 176 002c 28309FE5 		ldr	r3, .L12+8
 177              		.loc 1 119 14 view .LVU43
 178 0030 28209FE5 		ldr	r2, .L12+12
 179              	.LBE12:
 180              	.LBE22:
 181              		.loc 1 106 3 view .LVU44
 182 0034 04008DE2 		add	r0, sp, #4
 183              	.LVL5:
 184              	.LBB23:
 185              	.LBB13:
 186              		.loc 1 120 14 view .LVU45
 187 0038 F420CDE1 		strd	r2, [sp, #4]
 188              		.loc 1 121 3 is_stmt 1 view .LVU46
 189              		.loc 1 122 3 view .LVU47
 190              		.loc 1 123 3 view .LVU48
 191              	.LVL6:
 192              		.loc 1 123 3 is_stmt 0 view .LVU49
 193              	.LBE13:
 194              	.LBE23:
 195              		.loc 1 105 3 is_stmt 1 view .LVU50
 196              	.LBB24:
 197              	.LBI14:
 198              		.loc 1 62 13 view .LVU51
 199              	.LBB17:
 200              		.loc 1 64 3 view .LVU52
 201              		.loc 1 64 3 is_stmt 0 view .LVU53
 202              	.LBE17:
 203              	.LBE24:
 204              		.loc 1 106 3 is_stmt 1 view .LVU54
 205              	.LBB25:
 206              	.LBB18:
 207              		.loc 1 64 13 is_stmt 0 view .LVU55
 208 003c 0C108DE5 		str	r1, [sp, #12]
 209              	.LBE18:
 210              	.LBE25:
 211              		.loc 1 106 3 view .LVU56
 212 0040 FEFFFFEB 		bl	tm_stop
 213              	.LVL7:
 214              		.loc 1 107 3 is_stmt 1 view .LVU57
 215              		.loc 1 107 22 is_stmt 0 view .LVU58
 216 0044 0C309DE5 		ldr	r3, [sp, #12]
 217 0048 003084E5 		str	r3, [r4]
 218              		.loc 1 108 1 view .LVU59
 219 004c 18D08DE2 		add	sp, sp, #24
 220              		.cfi_def_cfa_offset 8
 221              		@ sp needed
 222 0050 1080BDE8 		pop	{r4, pc}
 223              	.L13:
 224              		.align	2
 225              	.L12:
 226 0054 00000000 		.word	.LANCHOR0
 227 0058 00300020 		.word	536883200
 228 005c 00000000 		.word	tm_stop
ARM GAS  /var/folders/l5/0x54b2c10074c8bt31ycjvl80000gp/T//ccAllaXx.s 			page 5


 229 0060 00000000 		.word	tm_start
 230              		.cfi_endproc
 231              	.LFE9:
 232              		.size	tmInit, .-tmInit
 233              		.section	.text.tmObjectInit,"ax",%progbits
 234              		.align	2
 235              		.global	tmObjectInit
 236              		.syntax unified
 237              		.arm
 238              		.fpu softvfp
 239              		.type	tmObjectInit, %function
 240              	tmObjectInit:
 241              	.LVL8:
 242              	.LFB10:
 243              		.loc 1 117 41 is_stmt 1 view -0
 244              		.cfi_startproc
 245              		@ args = 0, pretend = 0, frame = 0
 246              		@ frame_needed = 0, uses_anonymous_args = 0
 247              		@ link register save eliminated.
 248              		.loc 1 119 3 view .LVU61
 249              		.loc 1 121 14 is_stmt 0 view .LVU62
 250 0000 0030A0E3 		mov	r3, #0
 251              		.loc 1 123 14 view .LVU63
 252 0004 0020E0E3 		mvn	r2, #0
 253              		.loc 1 119 14 view .LVU64
 254 0008 18C09FE5 		ldr	ip, .L15
 255              		.loc 1 120 14 view .LVU65
 256 000c 18109FE5 		ldr	r1, .L15+4
 257              		.loc 1 119 14 view .LVU66
 258 0010 00C080E5 		str	ip, [r0]
 259              		.loc 1 120 3 is_stmt 1 view .LVU67
 260              		.loc 1 120 14 is_stmt 0 view .LVU68
 261 0014 041080E5 		str	r1, [r0, #4]
 262              		.loc 1 121 3 is_stmt 1 view .LVU69
 263              		.loc 1 123 14 is_stmt 0 view .LVU70
 264 0018 102080E5 		str	r2, [r0, #16]
 265              		.loc 1 121 14 view .LVU71
 266 001c 083080E5 		str	r3, [r0, #8]
 267              		.loc 1 122 3 is_stmt 1 view .LVU72
 268              		.loc 1 122 14 is_stmt 0 view .LVU73
 269 0020 0C3080E5 		str	r3, [r0, #12]
 270              		.loc 1 123 3 is_stmt 1 view .LVU74
 271              		.loc 1 124 1 is_stmt 0 view .LVU75
 272 0024 1EFF2FE1 		bx	lr
 273              	.L16:
 274              		.align	2
 275              	.L15:
 276 0028 00000000 		.word	tm_start
 277 002c 00000000 		.word	tm_stop
 278              		.cfi_endproc
 279              	.LFE10:
 280              		.size	tmObjectInit, .-tmObjectInit
 281              		.section	.bss.measurement_offset,"aw",%nobits
 282              		.align	2
 283              		.set	.LANCHOR0,. + 0
 284              		.type	measurement_offset, %object
 285              		.size	measurement_offset, 4
ARM GAS  /var/folders/l5/0x54b2c10074c8bt31ycjvl80000gp/T//ccAllaXx.s 			page 6


 286              	measurement_offset:
 287 0000 00000000 		.space	4
 288              		.text
 289              	.Letext0:
 290              		.file 2 "/usr/local/Cellar/arm-gcc-bin/8-2019-q3-update/lib/gcc/arm-none-eabi/8.3.1/include/stddef
 291              		.file 3 "/usr/local/Cellar/arm-gcc-bin/8-2019-q3-update/arm-none-eabi/include/machine/_default_typ
 292              		.file 4 "/usr/local/Cellar/arm-gcc-bin/8-2019-q3-update/arm-none-eabi/include/sys/_stdint.h"
 293              		.file 5 "../../os/ports/GCC/ARM/chtypes.h"
 294              		.file 6 "../../os/kernel/include/chlists.h"
 295              		.file 7 "../../os/kernel/include/chthreads.h"
 296              		.file 8 "../../os/ports/GCC/ARM/chcore.h"
 297              		.file 9 "../../os/kernel/include/chvt.h"
 298              		.file 10 "../../os/kernel/include/chschd.h"
 299              		.file 11 "../../os/kernel/include/chmtx.h"
 300              		.file 12 "../../os/kernel/include/chevents.h"
 301              		.file 13 "../../os/kernel/include/chregistry.h"
 302              		.file 14 "../../os/kernel/include/chqueues.h"
 303              		.file 15 "../../os/kernel/include/ch.h"
 304              		.file 16 "../../os/hal/platforms/BCM2835/bcm2835.h"
 305              		.file 17 "../../os/hal/platforms/BCM2835/hal_lld.h"
 306              		.file 18 "../../os/hal/include/tm.h"
 307              		.file 19 "../../os/hal/platforms/BCM2835/pal_lld.h"
 308              		.file 20 "../../os/hal/include/i2c.h"
 309              		.file 21 "../../os/hal/platforms/BCM2835/i2c_lld.h"
 310              		.file 22 "../../os/hal/include/serial.h"
 311              		.file 23 "../../os/hal/include/spi.h"
 312              		.file 24 "../../os/hal/platforms/BCM2835/spi_lld.h"
 313              		.file 25 "../../os/hal/platforms/BCM2835/serial_lld.h"
 314              		.section	.debug_info,"",%progbits
 315              	.Ldebug_info0:
 316 0000 A90F0000 		.4byte	0xfa9
 317 0004 0400     		.2byte	0x4
 318 0006 00000000 		.4byte	.Ldebug_abbrev0
 319 000a 04       		.byte	0x4
 320 000b 01       		.uleb128 0x1
 321 000c 5D030000 		.4byte	.LASF208
 322 0010 0C       		.byte	0xc
 323 0011 0D000000 		.4byte	.LASF209
 324 0015 38050000 		.4byte	.LASF210
 325 0019 58000000 		.4byte	.Ldebug_ranges0+0x58
 326 001d 00000000 		.4byte	0
 327 0021 00000000 		.4byte	.Ldebug_line0
 328 0025 02       		.uleb128 0x2
 329 0026 04       		.byte	0x4
 330 0027 05       		.byte	0x5
 331 0028 696E7400 		.ascii	"int\000"
 332 002c 03       		.uleb128 0x3
 333 002d 29000000 		.4byte	.LASF2
 334 0031 02       		.byte	0x2
 335 0032 D8       		.byte	0xd8
 336 0033 17       		.byte	0x17
 337 0034 38000000 		.4byte	0x38
 338 0038 04       		.uleb128 0x4
 339 0039 04       		.byte	0x4
 340 003a 07       		.byte	0x7
 341 003b 73020000 		.4byte	.LASF0
 342 003f 05       		.uleb128 0x5
ARM GAS  /var/folders/l5/0x54b2c10074c8bt31ycjvl80000gp/T//ccAllaXx.s 			page 7


 343 0040 38000000 		.4byte	0x38
 344 0044 04       		.uleb128 0x4
 345 0045 01       		.byte	0x1
 346 0046 06       		.byte	0x6
 347 0047 FC000000 		.4byte	.LASF1
 348 004b 03       		.uleb128 0x3
 349 004c 43000000 		.4byte	.LASF3
 350 0050 03       		.byte	0x3
 351 0051 2B       		.byte	0x2b
 352 0052 18       		.byte	0x18
 353 0053 57000000 		.4byte	0x57
 354 0057 04       		.uleb128 0x4
 355 0058 01       		.byte	0x1
 356 0059 08       		.byte	0x8
 357 005a 31060000 		.4byte	.LASF4
 358 005e 04       		.uleb128 0x4
 359 005f 02       		.byte	0x2
 360 0060 05       		.byte	0x5
 361 0061 5E060000 		.4byte	.LASF5
 362 0065 03       		.uleb128 0x3
 363 0066 68070000 		.4byte	.LASF6
 364 006a 03       		.byte	0x3
 365 006b 39       		.byte	0x39
 366 006c 19       		.byte	0x19
 367 006d 71000000 		.4byte	0x71
 368 0071 04       		.uleb128 0x4
 369 0072 02       		.byte	0x2
 370 0073 07       		.byte	0x7
 371 0074 1D030000 		.4byte	.LASF7
 372 0078 03       		.uleb128 0x3
 373 0079 A7070000 		.4byte	.LASF8
 374 007d 03       		.byte	0x3
 375 007e 4D       		.byte	0x4d
 376 007f 18       		.byte	0x18
 377 0080 84000000 		.4byte	0x84
 378 0084 04       		.uleb128 0x4
 379 0085 04       		.byte	0x4
 380 0086 05       		.byte	0x5
 381 0087 6E010000 		.4byte	.LASF9
 382 008b 03       		.uleb128 0x3
 383 008c 2B020000 		.4byte	.LASF10
 384 0090 03       		.byte	0x3
 385 0091 4F       		.byte	0x4f
 386 0092 19       		.byte	0x19
 387 0093 97000000 		.4byte	0x97
 388 0097 04       		.uleb128 0x4
 389 0098 04       		.byte	0x4
 390 0099 07       		.byte	0x7
 391 009a AC020000 		.4byte	.LASF11
 392 009e 04       		.uleb128 0x4
 393 009f 08       		.byte	0x8
 394 00a0 05       		.byte	0x5
 395 00a1 EE000000 		.4byte	.LASF12
 396 00a5 04       		.uleb128 0x4
 397 00a6 08       		.byte	0x8
 398 00a7 07       		.byte	0x7
 399 00a8 82000000 		.4byte	.LASF13
ARM GAS  /var/folders/l5/0x54b2c10074c8bt31ycjvl80000gp/T//ccAllaXx.s 			page 8


 400 00ac 03       		.uleb128 0x3
 401 00ad 6A080000 		.4byte	.LASF14
 402 00b1 04       		.byte	0x4
 403 00b2 18       		.byte	0x18
 404 00b3 13       		.byte	0x13
 405 00b4 4B000000 		.4byte	0x4b
 406 00b8 06       		.uleb128 0x6
 407 00b9 AC000000 		.4byte	0xac
 408 00bd 03       		.uleb128 0x3
 409 00be A0010000 		.4byte	.LASF15
 410 00c2 04       		.byte	0x4
 411 00c3 24       		.byte	0x24
 412 00c4 14       		.byte	0x14
 413 00c5 65000000 		.4byte	0x65
 414 00c9 03       		.uleb128 0x3
 415 00ca 29060000 		.4byte	.LASF16
 416 00ce 04       		.byte	0x4
 417 00cf 2C       		.byte	0x2c
 418 00d0 13       		.byte	0x13
 419 00d1 78000000 		.4byte	0x78
 420 00d5 03       		.uleb128 0x3
 421 00d6 05070000 		.4byte	.LASF17
 422 00da 04       		.byte	0x4
 423 00db 30       		.byte	0x30
 424 00dc 14       		.byte	0x14
 425 00dd 8B000000 		.4byte	0x8b
 426 00e1 05       		.uleb128 0x5
 427 00e2 D5000000 		.4byte	0xd5
 428 00e6 03       		.uleb128 0x3
 429 00e7 34040000 		.4byte	.LASF18
 430 00eb 05       		.byte	0x5
 431 00ec 2A       		.byte	0x2a
 432 00ed 19       		.byte	0x19
 433 00ee AC000000 		.4byte	0xac
 434 00f2 03       		.uleb128 0x3
 435 00f3 77010000 		.4byte	.LASF19
 436 00f7 05       		.byte	0x5
 437 00f8 2B       		.byte	0x2b
 438 00f9 19       		.byte	0x19
 439 00fa AC000000 		.4byte	0xac
 440 00fe 03       		.uleb128 0x3
 441 00ff D9050000 		.4byte	.LASF20
 442 0103 05       		.byte	0x5
 443 0104 2C       		.byte	0x2c
 444 0105 19       		.byte	0x19
 445 0106 AC000000 		.4byte	0xac
 446 010a 03       		.uleb128 0x3
 447 010b 49010000 		.4byte	.LASF21
 448 010f 05       		.byte	0x5
 449 0110 2D       		.byte	0x2d
 450 0111 19       		.byte	0x19
 451 0112 AC000000 		.4byte	0xac
 452 0116 03       		.uleb128 0x3
 453 0117 08060000 		.4byte	.LASF22
 454 011b 05       		.byte	0x5
 455 011c 2E       		.byte	0x2e
 456 011d 19       		.byte	0x19
ARM GAS  /var/folders/l5/0x54b2c10074c8bt31ycjvl80000gp/T//ccAllaXx.s 			page 9


 457 011e D5000000 		.4byte	0xd5
 458 0122 03       		.uleb128 0x3
 459 0123 42030000 		.4byte	.LASF23
 460 0127 05       		.byte	0x5
 461 0128 2F       		.byte	0x2f
 462 0129 19       		.byte	0x19
 463 012a C9000000 		.4byte	0xc9
 464 012e 03       		.uleb128 0x3
 465 012f 55040000 		.4byte	.LASF24
 466 0133 05       		.byte	0x5
 467 0134 31       		.byte	0x31
 468 0135 19       		.byte	0x19
 469 0136 D5000000 		.4byte	0xd5
 470 013a 03       		.uleb128 0x3
 471 013b 12080000 		.4byte	.LASF25
 472 013f 05       		.byte	0x5
 473 0140 32       		.byte	0x32
 474 0141 19       		.byte	0x19
 475 0142 D5000000 		.4byte	0xd5
 476 0146 03       		.uleb128 0x3
 477 0147 92070000 		.4byte	.LASF26
 478 014b 05       		.byte	0x5
 479 014c 33       		.byte	0x33
 480 014d 19       		.byte	0x19
 481 014e D5000000 		.4byte	0xd5
 482 0152 05       		.uleb128 0x5
 483 0153 46010000 		.4byte	0x146
 484 0157 03       		.uleb128 0x3
 485 0158 C3060000 		.4byte	.LASF27
 486 015c 06       		.byte	0x6
 487 015d 23       		.byte	0x23
 488 015e 17       		.byte	0x17
 489 015f 63010000 		.4byte	0x163
 490 0163 07       		.uleb128 0x7
 491 0164 C3060000 		.4byte	.LASF27
 492 0168 44       		.byte	0x44
 493 0169 07       		.byte	0x7
 494 016a 57       		.byte	0x57
 495 016b 08       		.byte	0x8
 496 016c 68020000 		.4byte	0x268
 497 0170 08       		.uleb128 0x8
 498 0171 9D060000 		.4byte	.LASF28
 499 0175 07       		.byte	0x7
 500 0176 58       		.byte	0x58
 501 0177 1A       		.byte	0x1a
 502 0178 8C020000 		.4byte	0x28c
 503 017c 00       		.byte	0
 504 017d 08       		.uleb128 0x8
 505 017e 01060000 		.4byte	.LASF29
 506 0182 07       		.byte	0x7
 507 0183 5A       		.byte	0x5a
 508 0184 1A       		.byte	0x1a
 509 0185 8C020000 		.4byte	0x28c
 510 0189 04       		.byte	0x4
 511 018a 08       		.uleb128 0x8
 512 018b C3000000 		.4byte	.LASF30
 513 018f 07       		.byte	0x7
ARM GAS  /var/folders/l5/0x54b2c10074c8bt31ycjvl80000gp/T//ccAllaXx.s 			page 10


 514 0190 5C       		.byte	0x5c
 515 0191 19       		.byte	0x19
 516 0192 16010000 		.4byte	0x116
 517 0196 08       		.byte	0x8
 518 0197 08       		.uleb128 0x8
 519 0198 0E090000 		.4byte	.LASF31
 520 019c 07       		.byte	0x7
 521 019d 5D       		.byte	0x5d
 522 019e 19       		.byte	0x19
 523 019f 57030000 		.4byte	0x357
 524 01a3 0C       		.byte	0xc
 525 01a4 08       		.uleb128 0x8
 526 01a5 D2010000 		.4byte	.LASF32
 527 01a9 07       		.byte	0x7
 528 01aa 5F       		.byte	0x5f
 529 01ab 1A       		.byte	0x1a
 530 01ac 8C020000 		.4byte	0x28c
 531 01b0 10       		.byte	0x10
 532 01b1 08       		.uleb128 0x8
 533 01b2 0D050000 		.4byte	.LASF33
 534 01b6 07       		.byte	0x7
 535 01b7 60       		.byte	0x60
 536 01b8 1A       		.byte	0x1a
 537 01b9 8C020000 		.4byte	0x28c
 538 01bd 14       		.byte	0x14
 539 01be 08       		.uleb128 0x8
 540 01bf 8D080000 		.4byte	.LASF34
 541 01c3 07       		.byte	0x7
 542 01c4 67       		.byte	0x67
 543 01c5 1A       		.byte	0x1a
 544 01c6 B8050000 		.4byte	0x5b8
 545 01ca 18       		.byte	0x18
 546 01cb 08       		.uleb128 0x8
 547 01cc 68060000 		.4byte	.LASF35
 548 01d0 07       		.byte	0x7
 549 01d1 72       		.byte	0x72
 550 01d2 19       		.byte	0x19
 551 01d3 F2000000 		.4byte	0xf2
 552 01d7 1C       		.byte	0x1c
 553 01d8 08       		.uleb128 0x8
 554 01d9 BB060000 		.4byte	.LASF36
 555 01dd 07       		.byte	0x7
 556 01de 76       		.byte	0x76
 557 01df 19       		.byte	0x19
 558 01e0 E6000000 		.4byte	0xe6
 559 01e4 1D       		.byte	0x1d
 560 01e5 08       		.uleb128 0x8
 561 01e6 43080000 		.4byte	.LASF37
 562 01ea 07       		.byte	0x7
 563 01eb 7B       		.byte	0x7b
 564 01ec 19       		.byte	0x19
 565 01ed FE000000 		.4byte	0xfe
 566 01f1 1E       		.byte	0x1e
 567 01f2 08       		.uleb128 0x8
 568 01f3 70060000 		.4byte	.LASF38
 569 01f7 07       		.byte	0x7
 570 01f8 81       		.byte	0x81
ARM GAS  /var/folders/l5/0x54b2c10074c8bt31ycjvl80000gp/T//ccAllaXx.s 			page 11


 571 01f9 19       		.byte	0x19
 572 01fa 0A010000 		.4byte	0x10a
 573 01fe 1F       		.byte	0x1f
 574 01ff 08       		.uleb128 0x8
 575 0200 C5070000 		.4byte	.LASF39
 576 0204 07       		.byte	0x7
 577 0205 88       		.byte	0x88
 578 0206 19       		.byte	0x19
 579 0207 52010000 		.4byte	0x152
 580 020b 20       		.byte	0x20
 581 020c 09       		.uleb128 0x9
 582 020d 705F7500 		.ascii	"p_u\000"
 583 0211 07       		.byte	0x7
 584 0212 AD       		.byte	0xad
 585 0213 19       		.byte	0x19
 586 0214 7E050000 		.4byte	0x57e
 587 0218 24       		.byte	0x24
 588 0219 08       		.uleb128 0x8
 589 021a 14090000 		.4byte	.LASF40
 590 021e 07       		.byte	0x7
 591 021f B2       		.byte	0xb2
 592 0220 19       		.byte	0x19
 593 0221 B5020000 		.4byte	0x2b5
 594 0225 28       		.byte	0x28
 595 0226 08       		.uleb128 0x8
 596 0227 E2070000 		.4byte	.LASF41
 597 022b 07       		.byte	0x7
 598 022c B8       		.byte	0xb8
 599 022d 19       		.byte	0x19
 600 022e 92020000 		.4byte	0x292
 601 0232 2C       		.byte	0x2c
 602 0233 08       		.uleb128 0x8
 603 0234 23000000 		.4byte	.LASF42
 604 0238 07       		.byte	0x7
 605 0239 BC       		.byte	0xbc
 606 023a 19       		.byte	0x19
 607 023b 22010000 		.4byte	0x122
 608 023f 34       		.byte	0x34
 609 0240 08       		.uleb128 0x8
 610 0241 F0060000 		.4byte	.LASF43
 611 0245 07       		.byte	0x7
 612 0246 C2       		.byte	0xc2
 613 0247 19       		.byte	0x19
 614 0248 2E010000 		.4byte	0x12e
 615 024c 38       		.byte	0x38
 616 024d 08       		.uleb128 0x8
 617 024e 54060000 		.4byte	.LASF44
 618 0252 07       		.byte	0x7
 619 0253 C9       		.byte	0xc9
 620 0254 1A       		.byte	0x1a
 621 0255 CA050000 		.4byte	0x5ca
 622 0259 3C       		.byte	0x3c
 623 025a 08       		.uleb128 0x8
 624 025b 9C070000 		.4byte	.LASF45
 625 025f 07       		.byte	0x7
 626 0260 CD       		.byte	0xcd
 627 0261 19       		.byte	0x19
ARM GAS  /var/folders/l5/0x54b2c10074c8bt31ycjvl80000gp/T//ccAllaXx.s 			page 12


 628 0262 16010000 		.4byte	0x116
 629 0266 40       		.byte	0x40
 630 0267 00       		.byte	0
 631 0268 0A       		.uleb128 0xa
 632 0269 08       		.byte	0x8
 633 026a 06       		.byte	0x6
 634 026b 5A       		.byte	0x5a
 635 026c 09       		.byte	0x9
 636 026d 8C020000 		.4byte	0x28c
 637 0271 08       		.uleb128 0x8
 638 0272 9D060000 		.4byte	.LASF28
 639 0276 06       		.byte	0x6
 640 0277 5B       		.byte	0x5b
 641 0278 1A       		.byte	0x1a
 642 0279 8C020000 		.4byte	0x28c
 643 027d 00       		.byte	0
 644 027e 08       		.uleb128 0x8
 645 027f 01060000 		.4byte	.LASF29
 646 0283 06       		.byte	0x6
 647 0284 5D       		.byte	0x5d
 648 0285 1A       		.byte	0x1a
 649 0286 8C020000 		.4byte	0x28c
 650 028a 04       		.byte	0x4
 651 028b 00       		.byte	0
 652 028c 0B       		.uleb128 0xb
 653 028d 04       		.byte	0x4
 654 028e 57010000 		.4byte	0x157
 655 0292 03       		.uleb128 0x3
 656 0293 2B050000 		.4byte	.LASF46
 657 0297 06       		.byte	0x6
 658 0298 5F       		.byte	0x5f
 659 0299 03       		.byte	0x3
 660 029a 68020000 		.4byte	0x268
 661 029e 0A       		.uleb128 0xa
 662 029f 04       		.byte	0x4
 663 02a0 06       		.byte	0x6
 664 02a1 64       		.byte	0x64
 665 02a2 09       		.byte	0x9
 666 02a3 B5020000 		.4byte	0x2b5
 667 02a7 08       		.uleb128 0x8
 668 02a8 9D060000 		.4byte	.LASF28
 669 02ac 06       		.byte	0x6
 670 02ad 66       		.byte	0x66
 671 02ae 16       		.byte	0x16
 672 02af 8C020000 		.4byte	0x28c
 673 02b3 00       		.byte	0
 674 02b4 00       		.byte	0
 675 02b5 03       		.uleb128 0x3
 676 02b6 49040000 		.4byte	.LASF47
 677 02ba 06       		.byte	0x6
 678 02bb 69       		.byte	0x69
 679 02bc 03       		.byte	0x3
 680 02bd 9E020000 		.4byte	0x29e
 681 02c1 03       		.uleb128 0x3
 682 02c2 7F040000 		.4byte	.LASF48
 683 02c6 08       		.byte	0x8
 684 02c7 9D       		.byte	0x9d
ARM GAS  /var/folders/l5/0x54b2c10074c8bt31ycjvl80000gp/T//ccAllaXx.s 			page 13


 685 02c8 12       		.byte	0x12
 686 02c9 D5000000 		.4byte	0xd5
 687 02cd 03       		.uleb128 0x3
 688 02ce 36020000 		.4byte	.LASF49
 689 02d2 08       		.byte	0x8
 690 02d3 A2       		.byte	0xa2
 691 02d4 0F       		.byte	0xf
 692 02d5 D9020000 		.4byte	0x2d9
 693 02d9 0C       		.uleb128 0xc
 694 02da 04       		.byte	0x4
 695 02db 07       		.uleb128 0x7
 696 02dc DB070000 		.4byte	.LASF50
 697 02e0 24       		.byte	0x24
 698 02e1 08       		.byte	0x8
 699 02e2 B9       		.byte	0xb9
 700 02e3 08       		.byte	0x8
 701 02e4 57030000 		.4byte	0x357
 702 02e8 09       		.uleb128 0x9
 703 02e9 723400   		.ascii	"r4\000"
 704 02ec 08       		.byte	0x8
 705 02ed BA       		.byte	0xba
 706 02ee 11       		.byte	0x11
 707 02ef CD020000 		.4byte	0x2cd
 708 02f3 00       		.byte	0
 709 02f4 09       		.uleb128 0x9
 710 02f5 723500   		.ascii	"r5\000"
 711 02f8 08       		.byte	0x8
 712 02f9 BB       		.byte	0xbb
 713 02fa 11       		.byte	0x11
 714 02fb CD020000 		.4byte	0x2cd
 715 02ff 04       		.byte	0x4
 716 0300 09       		.uleb128 0x9
 717 0301 723600   		.ascii	"r6\000"
 718 0304 08       		.byte	0x8
 719 0305 BC       		.byte	0xbc
 720 0306 11       		.byte	0x11
 721 0307 CD020000 		.4byte	0x2cd
 722 030b 08       		.byte	0x8
 723 030c 09       		.uleb128 0x9
 724 030d 723700   		.ascii	"r7\000"
 725 0310 08       		.byte	0x8
 726 0311 BD       		.byte	0xbd
 727 0312 11       		.byte	0x11
 728 0313 CD020000 		.4byte	0x2cd
 729 0317 0C       		.byte	0xc
 730 0318 09       		.uleb128 0x9
 731 0319 723800   		.ascii	"r8\000"
 732 031c 08       		.byte	0x8
 733 031d BE       		.byte	0xbe
 734 031e 11       		.byte	0x11
 735 031f CD020000 		.4byte	0x2cd
 736 0323 10       		.byte	0x10
 737 0324 09       		.uleb128 0x9
 738 0325 723900   		.ascii	"r9\000"
 739 0328 08       		.byte	0x8
 740 0329 BF       		.byte	0xbf
 741 032a 11       		.byte	0x11
ARM GAS  /var/folders/l5/0x54b2c10074c8bt31ycjvl80000gp/T//ccAllaXx.s 			page 14


 742 032b CD020000 		.4byte	0x2cd
 743 032f 14       		.byte	0x14
 744 0330 09       		.uleb128 0x9
 745 0331 72313000 		.ascii	"r10\000"
 746 0335 08       		.byte	0x8
 747 0336 C0       		.byte	0xc0
 748 0337 11       		.byte	0x11
 749 0338 CD020000 		.4byte	0x2cd
 750 033c 18       		.byte	0x18
 751 033d 09       		.uleb128 0x9
 752 033e 72313100 		.ascii	"r11\000"
 753 0342 08       		.byte	0x8
 754 0343 C1       		.byte	0xc1
 755 0344 11       		.byte	0x11
 756 0345 CD020000 		.4byte	0x2cd
 757 0349 1C       		.byte	0x1c
 758 034a 09       		.uleb128 0x9
 759 034b 6C7200   		.ascii	"lr\000"
 760 034e 08       		.byte	0x8
 761 034f C2       		.byte	0xc2
 762 0350 11       		.byte	0x11
 763 0351 CD020000 		.4byte	0x2cd
 764 0355 20       		.byte	0x20
 765 0356 00       		.byte	0
 766 0357 07       		.uleb128 0x7
 767 0358 15030000 		.4byte	.LASF51
 768 035c 04       		.byte	0x4
 769 035d 08       		.byte	0x8
 770 035e CA       		.byte	0xca
 771 035f 08       		.byte	0x8
 772 0360 72030000 		.4byte	0x372
 773 0364 09       		.uleb128 0x9
 774 0365 72313300 		.ascii	"r13\000"
 775 0369 08       		.byte	0x8
 776 036a CB       		.byte	0xcb
 777 036b 12       		.byte	0x12
 778 036c 72030000 		.4byte	0x372
 779 0370 00       		.byte	0
 780 0371 00       		.byte	0
 781 0372 0B       		.uleb128 0xb
 782 0373 04       		.byte	0x4
 783 0374 DB020000 		.4byte	0x2db
 784 0378 03       		.uleb128 0x3
 785 0379 D3020000 		.4byte	.LASF52
 786 037d 09       		.byte	0x9
 787 037e 4E       		.byte	0x4e
 788 037f 10       		.byte	0x10
 789 0380 84030000 		.4byte	0x384
 790 0384 0B       		.uleb128 0xb
 791 0385 04       		.byte	0x4
 792 0386 8A030000 		.4byte	0x38a
 793 038a 0D       		.uleb128 0xd
 794 038b 95030000 		.4byte	0x395
 795 038f 0E       		.uleb128 0xe
 796 0390 D9020000 		.4byte	0x2d9
 797 0394 00       		.byte	0
 798 0395 03       		.uleb128 0x3
ARM GAS  /var/folders/l5/0x54b2c10074c8bt31ycjvl80000gp/T//ccAllaXx.s 			page 15


 799 0396 22070000 		.4byte	.LASF53
 800 039a 09       		.byte	0x9
 801 039b 53       		.byte	0x53
 802 039c 1D       		.byte	0x1d
 803 039d A1030000 		.4byte	0x3a1
 804 03a1 07       		.uleb128 0x7
 805 03a2 22070000 		.4byte	.LASF53
 806 03a6 14       		.byte	0x14
 807 03a7 09       		.byte	0x9
 808 03a8 5A       		.byte	0x5a
 809 03a9 08       		.byte	0x8
 810 03aa F0030000 		.4byte	0x3f0
 811 03ae 08       		.uleb128 0x8
 812 03af 80020000 		.4byte	.LASF54
 813 03b3 09       		.byte	0x9
 814 03b4 5B       		.byte	0x5b
 815 03b5 1A       		.byte	0x1a
 816 03b6 F0030000 		.4byte	0x3f0
 817 03ba 00       		.byte	0
 818 03bb 08       		.uleb128 0x8
 819 03bc 3F020000 		.4byte	.LASF55
 820 03c0 09       		.byte	0x9
 821 03c1 5D       		.byte	0x5d
 822 03c2 1A       		.byte	0x1a
 823 03c3 F0030000 		.4byte	0x3f0
 824 03c7 04       		.byte	0x4
 825 03c8 08       		.uleb128 0x8
 826 03c9 A9040000 		.4byte	.LASF56
 827 03cd 09       		.byte	0x9
 828 03ce 5F       		.byte	0x5f
 829 03cf 19       		.byte	0x19
 830 03d0 46010000 		.4byte	0x146
 831 03d4 08       		.byte	0x8
 832 03d5 08       		.uleb128 0x8
 833 03d6 E4040000 		.4byte	.LASF57
 834 03da 09       		.byte	0x9
 835 03db 60       		.byte	0x60
 836 03dc 19       		.byte	0x19
 837 03dd 78030000 		.4byte	0x378
 838 03e1 0C       		.byte	0xc
 839 03e2 08       		.uleb128 0x8
 840 03e3 0B080000 		.4byte	.LASF58
 841 03e7 09       		.byte	0x9
 842 03e8 62       		.byte	0x62
 843 03e9 1A       		.byte	0x1a
 844 03ea D9020000 		.4byte	0x2d9
 845 03ee 10       		.byte	0x10
 846 03ef 00       		.byte	0
 847 03f0 0B       		.uleb128 0xb
 848 03f1 04       		.byte	0x4
 849 03f2 95030000 		.4byte	0x395
 850 03f6 0A       		.uleb128 0xa
 851 03f7 10       		.byte	0x10
 852 03f8 09       		.byte	0x9
 853 03f9 6C       		.byte	0x6c
 854 03fa 09       		.byte	0x9
 855 03fb 34040000 		.4byte	0x434
ARM GAS  /var/folders/l5/0x54b2c10074c8bt31ycjvl80000gp/T//ccAllaXx.s 			page 16


 856 03ff 08       		.uleb128 0x8
 857 0400 80020000 		.4byte	.LASF54
 858 0404 09       		.byte	0x9
 859 0405 6D       		.byte	0x6d
 860 0406 1A       		.byte	0x1a
 861 0407 F0030000 		.4byte	0x3f0
 862 040b 00       		.byte	0
 863 040c 08       		.uleb128 0x8
 864 040d 3F020000 		.4byte	.LASF55
 865 0411 09       		.byte	0x9
 866 0412 6F       		.byte	0x6f
 867 0413 1A       		.byte	0x1a
 868 0414 F0030000 		.4byte	0x3f0
 869 0418 04       		.byte	0x4
 870 0419 08       		.uleb128 0x8
 871 041a A9040000 		.4byte	.LASF56
 872 041e 09       		.byte	0x9
 873 041f 71       		.byte	0x71
 874 0420 19       		.byte	0x19
 875 0421 46010000 		.4byte	0x146
 876 0425 08       		.byte	0x8
 877 0426 08       		.uleb128 0x8
 878 0427 94080000 		.4byte	.LASF59
 879 042b 09       		.byte	0x9
 880 042c 72       		.byte	0x72
 881 042d 19       		.byte	0x19
 882 042e 52010000 		.4byte	0x152
 883 0432 0C       		.byte	0xc
 884 0433 00       		.byte	0
 885 0434 03       		.uleb128 0x3
 886 0435 CD080000 		.4byte	.LASF60
 887 0439 09       		.byte	0x9
 888 043a 73       		.byte	0x73
 889 043b 03       		.byte	0x3
 890 043c F6030000 		.4byte	0x3f6
 891 0440 0F       		.uleb128 0xf
 892 0441 58000000 		.4byte	.LASF68
 893 0445 09       		.byte	0x9
 894 0446 D1       		.byte	0xd1
 895 0447 0F       		.byte	0xf
 896 0448 34040000 		.4byte	0x434
 897 044c 0A       		.uleb128 0xa
 898 044d 1C       		.byte	0x1c
 899 044e 0A       		.byte	0xa
 900 044f 57       		.byte	0x57
 901 0450 09       		.byte	0x9
 902 0451 A4040000 		.4byte	0x4a4
 903 0455 08       		.uleb128 0x8
 904 0456 1A070000 		.4byte	.LASF61
 905 045a 0A       		.byte	0xa
 906 045b 58       		.byte	0x58
 907 045c 19       		.byte	0x19
 908 045d 92020000 		.4byte	0x292
 909 0461 00       		.byte	0
 910 0462 08       		.uleb128 0x8
 911 0463 86060000 		.4byte	.LASF62
 912 0467 0A       		.byte	0xa
ARM GAS  /var/folders/l5/0x54b2c10074c8bt31ycjvl80000gp/T//ccAllaXx.s 			page 17


 913 0468 59       		.byte	0x59
 914 0469 19       		.byte	0x19
 915 046a 16010000 		.4byte	0x116
 916 046e 08       		.byte	0x8
 917 046f 08       		.uleb128 0x8
 918 0470 25050000 		.4byte	.LASF63
 919 0474 0A       		.byte	0xa
 920 0475 5B       		.byte	0x5b
 921 0476 19       		.byte	0x19
 922 0477 57030000 		.4byte	0x357
 923 047b 0C       		.byte	0xc
 924 047c 08       		.uleb128 0x8
 925 047d 4D030000 		.4byte	.LASF64
 926 0481 0A       		.byte	0xa
 927 0482 5E       		.byte	0x5e
 928 0483 1A       		.byte	0x1a
 929 0484 8C020000 		.4byte	0x28c
 930 0488 10       		.byte	0x10
 931 0489 08       		.uleb128 0x8
 932 048a 9A050000 		.4byte	.LASF65
 933 048e 0A       		.byte	0xa
 934 048f 5F       		.byte	0x5f
 935 0490 1A       		.byte	0x1a
 936 0491 8C020000 		.4byte	0x28c
 937 0495 14       		.byte	0x14
 938 0496 08       		.uleb128 0x8
 939 0497 90050000 		.4byte	.LASF66
 940 049b 0A       		.byte	0xa
 941 049c 62       		.byte	0x62
 942 049d 1A       		.byte	0x1a
 943 049e 8C020000 		.4byte	0x28c
 944 04a2 18       		.byte	0x18
 945 04a3 00       		.byte	0
 946 04a4 03       		.uleb128 0x3
 947 04a5 51080000 		.4byte	.LASF67
 948 04a9 0A       		.byte	0xa
 949 04aa 64       		.byte	0x64
 950 04ab 03       		.byte	0x3
 951 04ac 4C040000 		.4byte	0x44c
 952 04b0 0F       		.uleb128 0xf
 953 04b1 64080000 		.4byte	.LASF69
 954 04b5 0A       		.byte	0xa
 955 04b6 68       		.byte	0x68
 956 04b7 12       		.byte	0x12
 957 04b8 A4040000 		.4byte	0x4a4
 958 04bc 07       		.uleb128 0x7
 959 04bd 6C040000 		.4byte	.LASF70
 960 04c1 10       		.byte	0x10
 961 04c2 0B       		.byte	0xb
 962 04c3 25       		.byte	0x25
 963 04c4 10       		.byte	0x10
 964 04c5 F1040000 		.4byte	0x4f1
 965 04c9 08       		.uleb128 0x8
 966 04ca 36010000 		.4byte	.LASF71
 967 04ce 0B       		.byte	0xb
 968 04cf 26       		.byte	0x26
 969 04d0 19       		.byte	0x19
ARM GAS  /var/folders/l5/0x54b2c10074c8bt31ycjvl80000gp/T//ccAllaXx.s 			page 18


 970 04d1 92020000 		.4byte	0x292
 971 04d5 00       		.byte	0
 972 04d6 08       		.uleb128 0x8
 973 04d7 EA080000 		.4byte	.LASF72
 974 04db 0B       		.byte	0xb
 975 04dc 28       		.byte	0x28
 976 04dd 1A       		.byte	0x1a
 977 04de 8C020000 		.4byte	0x28c
 978 04e2 08       		.byte	0x8
 979 04e3 08       		.uleb128 0x8
 980 04e4 8B070000 		.4byte	.LASF73
 981 04e8 0B       		.byte	0xb
 982 04e9 2A       		.byte	0x2a
 983 04ea 1A       		.byte	0x1a
 984 04eb F1040000 		.4byte	0x4f1
 985 04ef 0C       		.byte	0xc
 986 04f0 00       		.byte	0
 987 04f1 0B       		.uleb128 0xb
 988 04f2 04       		.byte	0x4
 989 04f3 BC040000 		.4byte	0x4bc
 990 04f7 03       		.uleb128 0x3
 991 04f8 6C040000 		.4byte	.LASF70
 992 04fc 0B       		.byte	0xb
 993 04fd 2C       		.byte	0x2c
 994 04fe 03       		.byte	0x3
 995 04ff BC040000 		.4byte	0x4bc
 996 0503 03       		.uleb128 0x3
 997 0504 78080000 		.4byte	.LASF74
 998 0508 0C       		.byte	0xc
 999 0509 25       		.byte	0x25
 1000 050a 1E       		.byte	0x1e
 1001 050b 0F050000 		.4byte	0x50f
 1002 050f 07       		.uleb128 0x7
 1003 0510 78080000 		.4byte	.LASF74
 1004 0514 10       		.byte	0x10
 1005 0515 0C       		.byte	0xc
 1006 0516 2A       		.byte	0x2a
 1007 0517 08       		.byte	0x8
 1008 0518 51050000 		.4byte	0x551
 1009 051c 08       		.uleb128 0x8
 1010 051d 55030000 		.4byte	.LASF75
 1011 0521 0C       		.byte	0xc
 1012 0522 2B       		.byte	0x2b
 1013 0523 1A       		.byte	0x1a
 1014 0524 51050000 		.4byte	0x551
 1015 0528 00       		.byte	0
 1016 0529 08       		.uleb128 0x8
 1017 052a 3F060000 		.4byte	.LASF76
 1018 052e 0C       		.byte	0xc
 1019 052f 2E       		.byte	0x2e
 1020 0530 1A       		.byte	0x1a
 1021 0531 8C020000 		.4byte	0x28c
 1022 0535 04       		.byte	0x4
 1023 0536 08       		.uleb128 0x8
 1024 0537 A2050000 		.4byte	.LASF77
 1025 053b 0C       		.byte	0xc
 1026 053c 30       		.byte	0x30
ARM GAS  /var/folders/l5/0x54b2c10074c8bt31ycjvl80000gp/T//ccAllaXx.s 			page 19


 1027 053d 19       		.byte	0x19
 1028 053e 2E010000 		.4byte	0x12e
 1029 0542 08       		.byte	0x8
 1030 0543 08       		.uleb128 0x8
 1031 0544 4B060000 		.4byte	.LASF78
 1032 0548 0C       		.byte	0xc
 1033 0549 33       		.byte	0x33
 1034 054a 19       		.byte	0x19
 1035 054b 3A010000 		.4byte	0x13a
 1036 054f 0C       		.byte	0xc
 1037 0550 00       		.byte	0
 1038 0551 0B       		.uleb128 0xb
 1039 0552 04       		.byte	0x4
 1040 0553 03050000 		.4byte	0x503
 1041 0557 07       		.uleb128 0x7
 1042 0558 67020000 		.4byte	.LASF79
 1043 055c 04       		.byte	0x4
 1044 055d 0C       		.byte	0xc
 1045 055e 3A       		.byte	0x3a
 1046 055f 10       		.byte	0x10
 1047 0560 72050000 		.4byte	0x572
 1048 0564 08       		.uleb128 0x8
 1049 0565 9F080000 		.4byte	.LASF80
 1050 0569 0C       		.byte	0xc
 1051 056a 3B       		.byte	0x3b
 1052 056b 1A       		.byte	0x1a
 1053 056c 51050000 		.4byte	0x551
 1054 0570 00       		.byte	0
 1055 0571 00       		.byte	0
 1056 0572 03       		.uleb128 0x3
 1057 0573 67020000 		.4byte	.LASF79
 1058 0577 0C       		.byte	0xc
 1059 0578 3E       		.byte	0x3e
 1060 0579 03       		.byte	0x3
 1061 057a 57050000 		.4byte	0x557
 1062 057e 10       		.uleb128 0x10
 1063 057f 04       		.byte	0x4
 1064 0580 07       		.byte	0x7
 1065 0581 8F       		.byte	0x8f
 1066 0582 03       		.byte	0x3
 1067 0583 B8050000 		.4byte	0x5b8
 1068 0587 11       		.uleb128 0x11
 1069 0588 30000000 		.4byte	.LASF81
 1070 058c 07       		.byte	0x7
 1071 058d 96       		.byte	0x96
 1072 058e 19       		.byte	0x19
 1073 058f 22010000 		.4byte	0x122
 1074 0593 11       		.uleb128 0x11
 1075 0594 A7000000 		.4byte	.LASF82
 1076 0598 07       		.byte	0x7
 1077 0599 9D       		.byte	0x9d
 1078 059a 19       		.byte	0x19
 1079 059b 22010000 		.4byte	0x122
 1080 059f 11       		.uleb128 0x11
 1081 05a0 86080000 		.4byte	.LASF83
 1082 05a4 07       		.byte	0x7
 1083 05a5 A4       		.byte	0xa4
ARM GAS  /var/folders/l5/0x54b2c10074c8bt31ycjvl80000gp/T//ccAllaXx.s 			page 20


 1084 05a6 1A       		.byte	0x1a
 1085 05a7 D9020000 		.4byte	0x2d9
 1086 05ab 11       		.uleb128 0x11
 1087 05ac 96060000 		.4byte	.LASF84
 1088 05b0 07       		.byte	0x7
 1089 05b1 AB       		.byte	0xab
 1090 05b2 19       		.byte	0x19
 1091 05b3 2E010000 		.4byte	0x12e
 1092 05b7 00       		.byte	0
 1093 05b8 0B       		.uleb128 0xb
 1094 05b9 04       		.byte	0x4
 1095 05ba C5050000 		.4byte	0x5c5
 1096 05be 04       		.uleb128 0x4
 1097 05bf 01       		.byte	0x1
 1098 05c0 08       		.byte	0x8
 1099 05c1 4F070000 		.4byte	.LASF85
 1100 05c5 06       		.uleb128 0x6
 1101 05c6 BE050000 		.4byte	0x5be
 1102 05ca 0B       		.uleb128 0xb
 1103 05cb 04       		.byte	0x4
 1104 05cc F7040000 		.4byte	0x4f7
 1105 05d0 0B       		.uleb128 0xb
 1106 05d1 04       		.byte	0x4
 1107 05d2 D6050000 		.4byte	0x5d6
 1108 05d6 12       		.uleb128 0x12
 1109 05d7 22010000 		.4byte	0x122
 1110 05db E5050000 		.4byte	0x5e5
 1111 05df 0E       		.uleb128 0xe
 1112 05e0 D9020000 		.4byte	0x2d9
 1113 05e4 00       		.byte	0
 1114 05e5 0A       		.uleb128 0xa
 1115 05e6 16       		.byte	0x16
 1116 05e7 0D       		.byte	0xd
 1117 05e8 25       		.byte	0x25
 1118 05e9 09       		.byte	0x9
 1119 05ea D9060000 		.4byte	0x6d9
 1120 05ee 08       		.uleb128 0x8
 1121 05ef DC020000 		.4byte	.LASF86
 1122 05f3 0D       		.byte	0xd
 1123 05f4 26       		.byte	0x26
 1124 05f5 0D       		.byte	0xd
 1125 05f6 D9060000 		.4byte	0x6d9
 1126 05fa 00       		.byte	0
 1127 05fb 08       		.uleb128 0x8
 1128 05fc 8A040000 		.4byte	.LASF87
 1129 0600 0D       		.byte	0xd
 1130 0601 27       		.byte	0x27
 1131 0602 0D       		.byte	0xd
 1132 0603 AC000000 		.4byte	0xac
 1133 0607 04       		.byte	0x4
 1134 0608 08       		.uleb128 0x8
 1135 0609 7A050000 		.4byte	.LASF88
 1136 060d 0D       		.byte	0xd
 1137 060e 28       		.byte	0x28
 1138 060f 0D       		.byte	0xd
 1139 0610 AC000000 		.4byte	0xac
 1140 0614 05       		.byte	0x5
ARM GAS  /var/folders/l5/0x54b2c10074c8bt31ycjvl80000gp/T//ccAllaXx.s 			page 21


 1141 0615 08       		.uleb128 0x8
 1142 0616 B1080000 		.4byte	.LASF89
 1143 061a 0D       		.byte	0xd
 1144 061b 29       		.byte	0x29
 1145 061c 0D       		.byte	0xd
 1146 061d BD000000 		.4byte	0xbd
 1147 0621 06       		.byte	0x6
 1148 0622 08       		.uleb128 0x8
 1149 0623 EC050000 		.4byte	.LASF90
 1150 0627 0D       		.byte	0xd
 1151 0628 2A       		.byte	0x2a
 1152 0629 0D       		.byte	0xd
 1153 062a AC000000 		.4byte	0xac
 1154 062e 08       		.byte	0x8
 1155 062f 08       		.uleb128 0x8
 1156 0630 EC040000 		.4byte	.LASF91
 1157 0634 0D       		.byte	0xd
 1158 0635 2B       		.byte	0x2b
 1159 0636 0D       		.byte	0xd
 1160 0637 AC000000 		.4byte	0xac
 1161 063b 09       		.byte	0x9
 1162 063c 08       		.uleb128 0x8
 1163 063d 99000000 		.4byte	.LASF92
 1164 0641 0D       		.byte	0xd
 1165 0642 2C       		.byte	0x2c
 1166 0643 0D       		.byte	0xd
 1167 0644 AC000000 		.4byte	0xac
 1168 0648 0A       		.byte	0xa
 1169 0649 08       		.uleb128 0x8
 1170 064a 0E070000 		.4byte	.LASF93
 1171 064e 0D       		.byte	0xd
 1172 064f 2D       		.byte	0x2d
 1173 0650 0D       		.byte	0xd
 1174 0651 AC000000 		.4byte	0xac
 1175 0655 0B       		.byte	0xb
 1176 0656 08       		.uleb128 0x8
 1177 0657 38080000 		.4byte	.LASF94
 1178 065b 0D       		.byte	0xd
 1179 065c 2E       		.byte	0x2e
 1180 065d 0D       		.byte	0xd
 1181 065e AC000000 		.4byte	0xac
 1182 0662 0C       		.byte	0xc
 1183 0663 08       		.uleb128 0x8
 1184 0664 D8060000 		.4byte	.LASF95
 1185 0668 0D       		.byte	0xd
 1186 0669 2F       		.byte	0x2f
 1187 066a 0D       		.byte	0xd
 1188 066b AC000000 		.4byte	0xac
 1189 066f 0D       		.byte	0xd
 1190 0670 08       		.uleb128 0x8
 1191 0671 00000000 		.4byte	.LASF96
 1192 0675 0D       		.byte	0xd
 1193 0676 30       		.byte	0x30
 1194 0677 0D       		.byte	0xd
 1195 0678 AC000000 		.4byte	0xac
 1196 067c 0E       		.byte	0xe
 1197 067d 08       		.uleb128 0x8
ARM GAS  /var/folders/l5/0x54b2c10074c8bt31ycjvl80000gp/T//ccAllaXx.s 			page 22


 1198 067e 01050000 		.4byte	.LASF97
 1199 0682 0D       		.byte	0xd
 1200 0683 31       		.byte	0x31
 1201 0684 0D       		.byte	0xd
 1202 0685 AC000000 		.4byte	0xac
 1203 0689 0F       		.byte	0xf
 1204 068a 08       		.uleb128 0x8
 1205 068b 08010000 		.4byte	.LASF98
 1206 068f 0D       		.byte	0xd
 1207 0690 32       		.byte	0x32
 1208 0691 0D       		.byte	0xd
 1209 0692 AC000000 		.4byte	0xac
 1210 0696 10       		.byte	0x10
 1211 0697 08       		.uleb128 0x8
 1212 0698 CA000000 		.4byte	.LASF99
 1213 069c 0D       		.byte	0xd
 1214 069d 34       		.byte	0x34
 1215 069e 0D       		.byte	0xd
 1216 069f AC000000 		.4byte	0xac
 1217 06a3 11       		.byte	0x11
 1218 06a4 08       		.uleb128 0x8
 1219 06a5 21010000 		.4byte	.LASF100
 1220 06a9 0D       		.byte	0xd
 1221 06aa 35       		.byte	0x35
 1222 06ab 0D       		.byte	0xd
 1223 06ac AC000000 		.4byte	0xac
 1224 06b0 12       		.byte	0x12
 1225 06b1 08       		.uleb128 0x8
 1226 06b2 92040000 		.4byte	.LASF101
 1227 06b6 0D       		.byte	0xd
 1228 06b7 36       		.byte	0x36
 1229 06b8 0D       		.byte	0xd
 1230 06b9 AC000000 		.4byte	0xac
 1231 06bd 13       		.byte	0x13
 1232 06be 08       		.uleb128 0x8
 1233 06bf AC060000 		.4byte	.LASF102
 1234 06c3 0D       		.byte	0xd
 1235 06c4 37       		.byte	0x37
 1236 06c5 0D       		.byte	0xd
 1237 06c6 AC000000 		.4byte	0xac
 1238 06ca 14       		.byte	0x14
 1239 06cb 08       		.uleb128 0x8
 1240 06cc 7A060000 		.4byte	.LASF103
 1241 06d0 0D       		.byte	0xd
 1242 06d1 39       		.byte	0x39
 1243 06d2 0D       		.byte	0xd
 1244 06d3 AC000000 		.4byte	0xac
 1245 06d7 15       		.byte	0x15
 1246 06d8 00       		.byte	0
 1247 06d9 13       		.uleb128 0x13
 1248 06da BE050000 		.4byte	0x5be
 1249 06de E9060000 		.4byte	0x6e9
 1250 06e2 14       		.uleb128 0x14
 1251 06e3 38000000 		.4byte	0x38
 1252 06e7 03       		.byte	0x3
 1253 06e8 00       		.byte	0
 1254 06e9 03       		.uleb128 0x3
ARM GAS  /var/folders/l5/0x54b2c10074c8bt31ycjvl80000gp/T//ccAllaXx.s 			page 23


 1255 06ea AE010000 		.4byte	.LASF104
 1256 06ee 0D       		.byte	0xd
 1257 06ef 3A       		.byte	0x3a
 1258 06f0 03       		.byte	0x3
 1259 06f1 E5050000 		.4byte	0x5e5
 1260 06f5 06       		.uleb128 0x6
 1261 06f6 E9060000 		.4byte	0x6e9
 1262 06fa 0F       		.uleb128 0xf
 1263 06fb BE020000 		.4byte	.LASF105
 1264 06ff 0D       		.byte	0xd
 1265 0700 77       		.byte	0x77
 1266 0701 1D       		.byte	0x1d
 1267 0702 F5060000 		.4byte	0x6f5
 1268 0706 03       		.uleb128 0x3
 1269 0707 72040000 		.4byte	.LASF106
 1270 070b 0E       		.byte	0xe
 1271 070c 30       		.byte	0x30
 1272 070d 1D       		.byte	0x1d
 1273 070e 12070000 		.4byte	0x712
 1274 0712 07       		.uleb128 0x7
 1275 0713 72040000 		.4byte	.LASF106
 1276 0717 24       		.byte	0x24
 1277 0718 0E       		.byte	0xe
 1278 0719 3E       		.byte	0x3e
 1279 071a 08       		.byte	0x8
 1280 071b 88070000 		.4byte	0x788
 1281 071f 08       		.uleb128 0x8
 1282 0720 E4000000 		.4byte	.LASF107
 1283 0724 0E       		.byte	0xe
 1284 0725 3F       		.byte	0x3f
 1285 0726 19       		.byte	0x19
 1286 0727 92020000 		.4byte	0x292
 1287 072b 00       		.byte	0
 1288 072c 08       		.uleb128 0x8
 1289 072d DA040000 		.4byte	.LASF108
 1290 0731 0E       		.byte	0xe
 1291 0732 40       		.byte	0x40
 1292 0733 19       		.byte	0x19
 1293 0734 2C000000 		.4byte	0x2c
 1294 0738 08       		.byte	0x8
 1295 0739 08       		.uleb128 0x8
 1296 073a 97010000 		.4byte	.LASF109
 1297 073e 0E       		.byte	0xe
 1298 073f 41       		.byte	0x41
 1299 0740 1A       		.byte	0x1a
 1300 0741 AB070000 		.4byte	0x7ab
 1301 0745 0C       		.byte	0xc
 1302 0746 08       		.uleb128 0x8
 1303 0747 7C000000 		.4byte	.LASF110
 1304 074b 0E       		.byte	0xe
 1305 074c 42       		.byte	0x42
 1306 074d 1A       		.byte	0x1a
 1307 074e AB070000 		.4byte	0x7ab
 1308 0752 10       		.byte	0x10
 1309 0753 08       		.uleb128 0x8
 1310 0754 1D050000 		.4byte	.LASF111
 1311 0758 0E       		.byte	0xe
ARM GAS  /var/folders/l5/0x54b2c10074c8bt31ycjvl80000gp/T//ccAllaXx.s 			page 24


 1312 0759 44       		.byte	0x44
 1313 075a 1A       		.byte	0x1a
 1314 075b AB070000 		.4byte	0x7ab
 1315 075f 14       		.byte	0x14
 1316 0760 08       		.uleb128 0x8
 1317 0761 10060000 		.4byte	.LASF112
 1318 0765 0E       		.byte	0xe
 1319 0766 45       		.byte	0x45
 1320 0767 1A       		.byte	0x1a
 1321 0768 AB070000 		.4byte	0x7ab
 1322 076c 18       		.byte	0x18
 1323 076d 08       		.uleb128 0x8
 1324 076e 5B080000 		.4byte	.LASF113
 1325 0772 0E       		.byte	0xe
 1326 0773 46       		.byte	0x46
 1327 0774 19       		.byte	0x19
 1328 0775 88070000 		.4byte	0x788
 1329 0779 1C       		.byte	0x1c
 1330 077a 08       		.uleb128 0x8
 1331 077b D4080000 		.4byte	.LASF114
 1332 077f 0E       		.byte	0xe
 1333 0780 47       		.byte	0x47
 1334 0781 1A       		.byte	0x1a
 1335 0782 D9020000 		.4byte	0x2d9
 1336 0786 20       		.byte	0x20
 1337 0787 00       		.byte	0
 1338 0788 03       		.uleb128 0x3
 1339 0789 F7050000 		.4byte	.LASF115
 1340 078d 0E       		.byte	0xe
 1341 078e 33       		.byte	0x33
 1342 078f 10       		.byte	0x10
 1343 0790 94070000 		.4byte	0x794
 1344 0794 0B       		.uleb128 0xb
 1345 0795 04       		.byte	0x4
 1346 0796 9A070000 		.4byte	0x79a
 1347 079a 0D       		.uleb128 0xd
 1348 079b A5070000 		.4byte	0x7a5
 1349 079f 0E       		.uleb128 0xe
 1350 07a0 A5070000 		.4byte	0x7a5
 1351 07a4 00       		.byte	0
 1352 07a5 0B       		.uleb128 0xb
 1353 07a6 04       		.byte	0x4
 1354 07a7 06070000 		.4byte	0x706
 1355 07ab 0B       		.uleb128 0xb
 1356 07ac 04       		.byte	0x4
 1357 07ad AC000000 		.4byte	0xac
 1358 07b1 03       		.uleb128 0x3
 1359 07b2 61040000 		.4byte	.LASF116
 1360 07b6 0E       		.byte	0xe
 1361 07b7 7B       		.byte	0x7b
 1362 07b8 16       		.byte	0x16
 1363 07b9 06070000 		.4byte	0x706
 1364 07bd 03       		.uleb128 0x3
 1365 07be 37000000 		.4byte	.LASF117
 1366 07c2 0E       		.byte	0xe
 1367 07c3 EE       		.byte	0xee
 1368 07c4 16       		.byte	0x16
ARM GAS  /var/folders/l5/0x54b2c10074c8bt31ycjvl80000gp/T//ccAllaXx.s 			page 25


 1369 07c5 06070000 		.4byte	0x706
 1370 07c9 12       		.uleb128 0x12
 1371 07ca 2C000000 		.4byte	0x2c
 1372 07ce E2070000 		.4byte	0x7e2
 1373 07d2 0E       		.uleb128 0xe
 1374 07d3 D9020000 		.4byte	0x2d9
 1375 07d7 0E       		.uleb128 0xe
 1376 07d8 E2070000 		.4byte	0x7e2
 1377 07dc 0E       		.uleb128 0xe
 1378 07dd 2C000000 		.4byte	0x2c
 1379 07e1 00       		.byte	0
 1380 07e2 0B       		.uleb128 0xb
 1381 07e3 04       		.byte	0x4
 1382 07e4 B8000000 		.4byte	0xb8
 1383 07e8 0B       		.uleb128 0xb
 1384 07e9 04       		.byte	0x4
 1385 07ea C9070000 		.4byte	0x7c9
 1386 07ee 12       		.uleb128 0x12
 1387 07ef 2C000000 		.4byte	0x2c
 1388 07f3 07080000 		.4byte	0x807
 1389 07f7 0E       		.uleb128 0xe
 1390 07f8 D9020000 		.4byte	0x2d9
 1391 07fc 0E       		.uleb128 0xe
 1392 07fd AB070000 		.4byte	0x7ab
 1393 0801 0E       		.uleb128 0xe
 1394 0802 2C000000 		.4byte	0x2c
 1395 0806 00       		.byte	0
 1396 0807 0B       		.uleb128 0xb
 1397 0808 04       		.byte	0x4
 1398 0809 EE070000 		.4byte	0x7ee
 1399 080d 12       		.uleb128 0x12
 1400 080e 22010000 		.4byte	0x122
 1401 0812 21080000 		.4byte	0x821
 1402 0816 0E       		.uleb128 0xe
 1403 0817 D9020000 		.4byte	0x2d9
 1404 081b 0E       		.uleb128 0xe
 1405 081c AC000000 		.4byte	0xac
 1406 0820 00       		.byte	0
 1407 0821 0B       		.uleb128 0xb
 1408 0822 04       		.byte	0x4
 1409 0823 0D080000 		.4byte	0x80d
 1410 0827 13       		.uleb128 0x13
 1411 0828 C1020000 		.4byte	0x2c1
 1412 082c 37080000 		.4byte	0x837
 1413 0830 14       		.uleb128 0x14
 1414 0831 38000000 		.4byte	0x38
 1415 0835 26       		.byte	0x26
 1416 0836 00       		.byte	0
 1417 0837 0F       		.uleb128 0xf
 1418 0838 DA010000 		.4byte	.LASF118
 1419 083c 0F       		.byte	0xf
 1420 083d 82       		.byte	0x82
 1421 083e 08       		.byte	0x8
 1422 083f 27080000 		.4byte	0x827
 1423 0843 07       		.uleb128 0x7
 1424 0844 5F000000 		.4byte	.LASF119
 1425 0848 20       		.byte	0x20
ARM GAS  /var/folders/l5/0x54b2c10074c8bt31ycjvl80000gp/T//ccAllaXx.s 			page 26


 1426 0849 10       		.byte	0x10
 1427 084a FD       		.byte	0xfd
 1428 084b 08       		.byte	0x8
 1429 084c BF080000 		.4byte	0x8bf
 1430 0850 08       		.uleb128 0x8
 1431 0851 23020000 		.4byte	.LASF120
 1432 0855 10       		.byte	0x10
 1433 0856 FE       		.byte	0xfe
 1434 0857 19       		.byte	0x19
 1435 0858 3F000000 		.4byte	0x3f
 1436 085c 00       		.byte	0
 1437 085d 08       		.uleb128 0x8
 1438 085e 4A080000 		.4byte	.LASF121
 1439 0862 10       		.byte	0x10
 1440 0863 FF       		.byte	0xff
 1441 0864 19       		.byte	0x19
 1442 0865 3F000000 		.4byte	0x3f
 1443 0869 04       		.byte	0x4
 1444 086a 15       		.uleb128 0x15
 1445 086b C2080000 		.4byte	.LASF122
 1446 086f 10       		.byte	0x10
 1447 0870 0001     		.2byte	0x100
 1448 0872 19       		.byte	0x19
 1449 0873 3F000000 		.4byte	0x3f
 1450 0877 08       		.byte	0x8
 1451 0878 15       		.uleb128 0x15
 1452 0879 47020000 		.4byte	.LASF123
 1453 087d 10       		.byte	0x10
 1454 087e 0101     		.2byte	0x101
 1455 0880 19       		.byte	0x19
 1456 0881 3F000000 		.4byte	0x3f
 1457 0885 0C       		.byte	0xc
 1458 0886 15       		.uleb128 0x15
 1459 0887 BA000000 		.4byte	.LASF124
 1460 088b 10       		.byte	0x10
 1461 088c 0201     		.2byte	0x102
 1462 088e 19       		.byte	0x19
 1463 088f 3F000000 		.4byte	0x3f
 1464 0893 10       		.byte	0x10
 1465 0894 15       		.uleb128 0x15
 1466 0895 BA040000 		.4byte	.LASF125
 1467 0899 10       		.byte	0x10
 1468 089a 0301     		.2byte	0x103
 1469 089c 19       		.byte	0x19
 1470 089d 3F000000 		.4byte	0x3f
 1471 08a1 14       		.byte	0x14
 1472 08a2 15       		.uleb128 0x15
 1473 08a3 87010000 		.4byte	.LASF126
 1474 08a7 10       		.byte	0x10
 1475 08a8 0401     		.2byte	0x104
 1476 08aa 19       		.byte	0x19
 1477 08ab 3F000000 		.4byte	0x3f
 1478 08af 18       		.byte	0x18
 1479 08b0 15       		.uleb128 0x15
 1480 08b1 26090000 		.4byte	.LASF127
 1481 08b5 10       		.byte	0x10
 1482 08b6 0501     		.2byte	0x105
ARM GAS  /var/folders/l5/0x54b2c10074c8bt31ycjvl80000gp/T//ccAllaXx.s 			page 27


 1483 08b8 19       		.byte	0x19
 1484 08b9 3F000000 		.4byte	0x3f
 1485 08bd 1C       		.byte	0x1c
 1486 08be 00       		.byte	0
 1487 08bf 16       		.uleb128 0x16
 1488 08c0 5F000000 		.4byte	.LASF119
 1489 08c4 10       		.byte	0x10
 1490 08c5 0801     		.2byte	0x108
 1491 08c7 1C       		.byte	0x1c
 1492 08c8 43080000 		.4byte	0x843
 1493 08cc 03       		.uleb128 0x3
 1494 08cd 6B000000 		.4byte	.LASF128
 1495 08d1 11       		.byte	0x11
 1496 08d2 45       		.byte	0x45
 1497 08d3 12       		.byte	0x12
 1498 08d4 D5000000 		.4byte	0xd5
 1499 08d8 12       		.uleb128 0x12
 1500 08d9 22010000 		.4byte	0x122
 1501 08dd F1080000 		.4byte	0x8f1
 1502 08e1 0E       		.uleb128 0xe
 1503 08e2 D9020000 		.4byte	0x2d9
 1504 08e6 0E       		.uleb128 0xe
 1505 08e7 AC000000 		.4byte	0xac
 1506 08eb 0E       		.uleb128 0xe
 1507 08ec 46010000 		.4byte	0x146
 1508 08f0 00       		.byte	0
 1509 08f1 0B       		.uleb128 0xb
 1510 08f2 04       		.byte	0x4
 1511 08f3 D8080000 		.4byte	0x8d8
 1512 08f7 12       		.uleb128 0x12
 1513 08f8 22010000 		.4byte	0x122
 1514 08fc 0B090000 		.4byte	0x90b
 1515 0900 0E       		.uleb128 0xe
 1516 0901 D9020000 		.4byte	0x2d9
 1517 0905 0E       		.uleb128 0xe
 1518 0906 46010000 		.4byte	0x146
 1519 090a 00       		.byte	0
 1520 090b 0B       		.uleb128 0xb
 1521 090c 04       		.byte	0x4
 1522 090d F7080000 		.4byte	0x8f7
 1523 0911 12       		.uleb128 0x12
 1524 0912 2C000000 		.4byte	0x2c
 1525 0916 2F090000 		.4byte	0x92f
 1526 091a 0E       		.uleb128 0xe
 1527 091b D9020000 		.4byte	0x2d9
 1528 091f 0E       		.uleb128 0xe
 1529 0920 E2070000 		.4byte	0x7e2
 1530 0924 0E       		.uleb128 0xe
 1531 0925 2C000000 		.4byte	0x2c
 1532 0929 0E       		.uleb128 0xe
 1533 092a 46010000 		.4byte	0x146
 1534 092e 00       		.byte	0
 1535 092f 0B       		.uleb128 0xb
 1536 0930 04       		.byte	0x4
 1537 0931 11090000 		.4byte	0x911
 1538 0935 12       		.uleb128 0x12
 1539 0936 2C000000 		.4byte	0x2c
ARM GAS  /var/folders/l5/0x54b2c10074c8bt31ycjvl80000gp/T//ccAllaXx.s 			page 28


 1540 093a 53090000 		.4byte	0x953
 1541 093e 0E       		.uleb128 0xe
 1542 093f D9020000 		.4byte	0x2d9
 1543 0943 0E       		.uleb128 0xe
 1544 0944 AB070000 		.4byte	0x7ab
 1545 0948 0E       		.uleb128 0xe
 1546 0949 2C000000 		.4byte	0x2c
 1547 094d 0E       		.uleb128 0xe
 1548 094e 46010000 		.4byte	0x146
 1549 0952 00       		.byte	0
 1550 0953 0B       		.uleb128 0xb
 1551 0954 04       		.byte	0x4
 1552 0955 35090000 		.4byte	0x935
 1553 0959 03       		.uleb128 0x3
 1554 095a EA020000 		.4byte	.LASF129
 1555 095e 12       		.byte	0x12
 1556 095f 3E       		.byte	0x3e
 1557 0960 20       		.byte	0x20
 1558 0961 65090000 		.4byte	0x965
 1559 0965 07       		.uleb128 0x7
 1560 0966 EA020000 		.4byte	.LASF129
 1561 096a 14       		.byte	0x14
 1562 096b 12       		.byte	0x12
 1563 096c 43       		.byte	0x43
 1564 096d 08       		.byte	0x8
 1565 096e B4090000 		.4byte	0x9b4
 1566 0972 08       		.uleb128 0x8
 1567 0973 BC080000 		.4byte	.LASF130
 1568 0977 12       		.byte	0x12
 1569 0978 44       		.byte	0x44
 1570 0979 0A       		.byte	0xa
 1571 097a C5090000 		.4byte	0x9c5
 1572 097e 00       		.byte	0
 1573 097f 08       		.uleb128 0x8
 1574 0980 DB080000 		.4byte	.LASF131
 1575 0984 12       		.byte	0x12
 1576 0985 45       		.byte	0x45
 1577 0986 0A       		.byte	0xa
 1578 0987 C5090000 		.4byte	0x9c5
 1579 098b 04       		.byte	0x4
 1580 098c 08       		.uleb128 0x8
 1581 098d 48030000 		.4byte	.LASF132
 1582 0991 12       		.byte	0x12
 1583 0992 46       		.byte	0x46
 1584 0993 18       		.byte	0x18
 1585 0994 CC080000 		.4byte	0x8cc
 1586 0998 08       		.byte	0x8
 1587 0999 08       		.uleb128 0x8
 1588 099a 8A050000 		.4byte	.LASF133
 1589 099e 12       		.byte	0x12
 1590 099f 47       		.byte	0x47
 1591 09a0 18       		.byte	0x18
 1592 09a1 CC080000 		.4byte	0x8cc
 1593 09a5 0C       		.byte	0xc
 1594 09a6 08       		.uleb128 0x8
 1595 09a7 7B070000 		.4byte	.LASF134
 1596 09ab 12       		.byte	0x12
ARM GAS  /var/folders/l5/0x54b2c10074c8bt31ycjvl80000gp/T//ccAllaXx.s 			page 29


 1597 09ac 48       		.byte	0x48
 1598 09ad 18       		.byte	0x18
 1599 09ae CC080000 		.4byte	0x8cc
 1600 09b2 10       		.byte	0x10
 1601 09b3 00       		.byte	0
 1602 09b4 0D       		.uleb128 0xd
 1603 09b5 BF090000 		.4byte	0x9bf
 1604 09b9 0E       		.uleb128 0xe
 1605 09ba BF090000 		.4byte	0x9bf
 1606 09be 00       		.byte	0
 1607 09bf 0B       		.uleb128 0xb
 1608 09c0 04       		.byte	0x4
 1609 09c1 59090000 		.4byte	0x959
 1610 09c5 0B       		.uleb128 0xb
 1611 09c6 04       		.byte	0x4
 1612 09c7 B4090000 		.4byte	0x9b4
 1613 09cb 0A       		.uleb128 0xa
 1614 09cc 18       		.byte	0x18
 1615 09cd 13       		.byte	0x13
 1616 09ce 2A       		.byte	0x2a
 1617 09cf 09       		.byte	0x9
 1618 09d0 230A0000 		.4byte	0xa23
 1619 09d4 08       		.uleb128 0x8
 1620 09d5 72080000 		.4byte	.LASF135
 1621 09d9 13       		.byte	0x13
 1622 09da 2F       		.byte	0x2f
 1623 09db 15       		.byte	0x15
 1624 09dc D5000000 		.4byte	0xd5
 1625 09e0 00       		.byte	0
 1626 09e1 08       		.uleb128 0x8
 1627 09e2 B1050000 		.4byte	.LASF136
 1628 09e6 13       		.byte	0x13
 1629 09e7 31       		.byte	0x31
 1630 09e8 16       		.byte	0x16
 1631 09e9 230A0000 		.4byte	0xa23
 1632 09ed 04       		.byte	0x4
 1633 09ee 08       		.uleb128 0x8
 1634 09ef 3C030000 		.4byte	.LASF137
 1635 09f3 13       		.byte	0x13
 1636 09f4 32       		.byte	0x32
 1637 09f5 16       		.byte	0x16
 1638 09f6 230A0000 		.4byte	0xa23
 1639 09fa 08       		.byte	0x8
 1640 09fb 08       		.uleb128 0x8
 1641 09fc 9E040000 		.4byte	.LASF138
 1642 0a00 13       		.byte	0x13
 1643 0a01 33       		.byte	0x33
 1644 0a02 16       		.byte	0x16
 1645 0a03 230A0000 		.4byte	0xa23
 1646 0a07 0C       		.byte	0xc
 1647 0a08 08       		.uleb128 0x8
 1648 0a09 B7050000 		.4byte	.LASF139
 1649 0a0d 13       		.byte	0x13
 1650 0a0e 34       		.byte	0x34
 1651 0a0f 16       		.byte	0x16
 1652 0a10 230A0000 		.4byte	0xa23
 1653 0a14 10       		.byte	0x10
ARM GAS  /var/folders/l5/0x54b2c10074c8bt31ycjvl80000gp/T//ccAllaXx.s 			page 30


 1654 0a15 08       		.uleb128 0x8
 1655 0a16 8D060000 		.4byte	.LASF140
 1656 0a1a 13       		.byte	0x13
 1657 0a1b 35       		.byte	0x35
 1658 0a1c 10       		.byte	0x10
 1659 0a1d 38000000 		.4byte	0x38
 1660 0a21 14       		.byte	0x14
 1661 0a22 00       		.byte	0
 1662 0a23 0B       		.uleb128 0xb
 1663 0a24 04       		.byte	0x4
 1664 0a25 E1000000 		.4byte	0xe1
 1665 0a29 03       		.uleb128 0x3
 1666 0a2a 30030000 		.4byte	.LASF141
 1667 0a2e 13       		.byte	0x13
 1668 0a2f 37       		.byte	0x37
 1669 0a30 03       		.byte	0x3
 1670 0a31 CB090000 		.4byte	0x9cb
 1671 0a35 17       		.uleb128 0x17
 1672 0a36 00       		.byte	0
 1673 0a37 13       		.byte	0x13
 1674 0a38 43       		.byte	0x43
 1675 0a39 09       		.byte	0x9
 1676 0a3a 03       		.uleb128 0x3
 1677 0a3b E0080000 		.4byte	.LASF142
 1678 0a3f 13       		.byte	0x13
 1679 0a40 45       		.byte	0x45
 1680 0a41 03       		.byte	0x3
 1681 0a42 350A0000 		.4byte	0xa35
 1682 0a46 06       		.uleb128 0x6
 1683 0a47 3A0A0000 		.4byte	0xa3a
 1684 0a4b 0F       		.uleb128 0xf
 1685 0a4c 82050000 		.4byte	.LASF143
 1686 0a50 13       		.byte	0x13
 1687 0a51 6D       		.byte	0x6d
 1688 0a52 14       		.byte	0x14
 1689 0a53 290A0000 		.4byte	0xa29
 1690 0a57 0F       		.uleb128 0xf
 1691 0a58 A4060000 		.4byte	.LASF144
 1692 0a5c 13       		.byte	0x13
 1693 0a5d 6E       		.byte	0x6e
 1694 0a5e 14       		.byte	0x14
 1695 0a5f 290A0000 		.4byte	0xa29
 1696 0a63 0F       		.uleb128 0xf
 1697 0a64 FB080000 		.4byte	.LASF145
 1698 0a68 13       		.byte	0x13
 1699 0a69 75       		.byte	0x75
 1700 0a6a 18       		.byte	0x18
 1701 0a6b 460A0000 		.4byte	0xa46
 1702 0a6f 18       		.uleb128 0x18
 1703 0a70 07       		.byte	0x7
 1704 0a71 01       		.byte	0x1
 1705 0a72 57000000 		.4byte	0x57
 1706 0a76 14       		.byte	0x14
 1707 0a77 54       		.byte	0x54
 1708 0a78 0E       		.byte	0xe
 1709 0a79 A20A0000 		.4byte	0xaa2
 1710 0a7d 19       		.uleb128 0x19
ARM GAS  /var/folders/l5/0x54b2c10074c8bt31ycjvl80000gp/T//ccAllaXx.s 			page 31


 1711 0a7e 53010000 		.4byte	.LASF146
 1712 0a82 00       		.byte	0
 1713 0a83 19       		.uleb128 0x19
 1714 0a84 B1040000 		.4byte	.LASF147
 1715 0a88 01       		.byte	0x1
 1716 0a89 19       		.uleb128 0x19
 1717 0a8a B1070000 		.4byte	.LASF148
 1718 0a8e 02       		.byte	0x2
 1719 0a8f 19       		.uleb128 0x19
 1720 0a90 B8010000 		.4byte	.LASF149
 1721 0a94 03       		.byte	0x3
 1722 0a95 19       		.uleb128 0x19
 1723 0a96 3C070000 		.4byte	.LASF150
 1724 0a9a 04       		.byte	0x4
 1725 0a9b 19       		.uleb128 0x19
 1726 0a9c E5060000 		.4byte	.LASF151
 1727 0aa0 05       		.byte	0x5
 1728 0aa1 00       		.byte	0
 1729 0aa2 03       		.uleb128 0x3
 1730 0aa3 E1050000 		.4byte	.LASF152
 1731 0aa7 14       		.byte	0x14
 1732 0aa8 5B       		.byte	0x5b
 1733 0aa9 03       		.byte	0x3
 1734 0aaa 6F0A0000 		.4byte	0xa6f
 1735 0aae 03       		.uleb128 0x3
 1736 0aaf BB070000 		.4byte	.LASF153
 1737 0ab3 15       		.byte	0x15
 1738 0ab4 38       		.byte	0x38
 1739 0ab5 1A       		.byte	0x1a
 1740 0ab6 BA0A0000 		.4byte	0xaba
 1741 0aba 07       		.uleb128 0x7
 1742 0abb BB070000 		.4byte	.LASF153
 1743 0abf 40       		.byte	0x40
 1744 0ac0 15       		.byte	0x15
 1745 0ac1 62       		.byte	0x62
 1746 0ac2 08       		.byte	0x8
 1747 0ac3 710B0000 		.4byte	0xb71
 1748 0ac7 08       		.uleb128 0x8
 1749 0ac8 68010000 		.4byte	.LASF154
 1750 0acc 15       		.byte	0x15
 1751 0acd 64       		.byte	0x64
 1752 0ace 1D       		.byte	0x1d
 1753 0acf A20A0000 		.4byte	0xaa2
 1754 0ad3 00       		.byte	0
 1755 0ad4 08       		.uleb128 0x8
 1756 0ad5 61070000 		.4byte	.LASF155
 1757 0ad9 15       		.byte	0x15
 1758 0ada 66       		.byte	0x66
 1759 0adb 1E       		.byte	0x1e
 1760 0adc B10B0000 		.4byte	0xbb1
 1761 0ae0 04       		.byte	0x4
 1762 0ae1 08       		.uleb128 0x8
 1763 0ae2 9E020000 		.4byte	.LASF156
 1764 0ae6 15       		.byte	0x15
 1765 0ae7 68       		.byte	0x68
 1766 0ae8 1D       		.byte	0x1d
 1767 0ae9 710B0000 		.4byte	0xb71
ARM GAS  /var/folders/l5/0x54b2c10074c8bt31ycjvl80000gp/T//ccAllaXx.s 			page 32


 1768 0aed 08       		.byte	0x8
 1769 0aee 08       		.uleb128 0x8
 1770 0aef DD000000 		.4byte	.LASF157
 1771 0af3 15       		.byte	0x15
 1772 0af4 6A       		.byte	0x6a
 1773 0af5 1E       		.byte	0x1e
 1774 0af6 B70B0000 		.4byte	0xbb7
 1775 0afa 0C       		.byte	0xc
 1776 0afb 08       		.uleb128 0x8
 1777 0afc 23060000 		.4byte	.LASF158
 1778 0b00 15       		.byte	0x15
 1779 0b01 6D       		.byte	0x6d
 1780 0b02 1D       		.byte	0x1d
 1781 0b03 F7040000 		.4byte	0x4f7
 1782 0b07 10       		.byte	0x10
 1783 0b08 08       		.uleb128 0x8
 1784 0b09 80010000 		.4byte	.LASF159
 1785 0b0d 15       		.byte	0x15
 1786 0b0e 77       		.byte	0x77
 1787 0b0f 1E       		.byte	0x1e
 1788 0b10 8C020000 		.4byte	0x28c
 1789 0b14 20       		.byte	0x20
 1790 0b15 08       		.uleb128 0x8
 1791 0b16 3E010000 		.4byte	.LASF160
 1792 0b1a 15       		.byte	0x15
 1793 0b1b 7B       		.byte	0x7b
 1794 0b1c 1D       		.byte	0x1d
 1795 0b1d 7D0B0000 		.4byte	0xb7d
 1796 0b21 24       		.byte	0x24
 1797 0b22 08       		.uleb128 0x8
 1798 0b23 88020000 		.4byte	.LASF161
 1799 0b27 15       		.byte	0x15
 1800 0b28 7F       		.byte	0x7f
 1801 0b29 1E       		.byte	0x1e
 1802 0b2a E2070000 		.4byte	0x7e2
 1803 0b2e 28       		.byte	0x28
 1804 0b2f 08       		.uleb128 0x8
 1805 0b30 1E090000 		.4byte	.LASF162
 1806 0b34 15       		.byte	0x15
 1807 0b35 83       		.byte	0x83
 1808 0b36 1D       		.byte	0x1d
 1809 0b37 2C000000 		.4byte	0x2c
 1810 0b3b 2C       		.byte	0x2c
 1811 0b3c 08       		.uleb128 0x8
 1812 0b3d 32080000 		.4byte	.LASF163
 1813 0b41 15       		.byte	0x15
 1814 0b42 87       		.byte	0x87
 1815 0b43 1D       		.byte	0x1d
 1816 0b44 2C000000 		.4byte	0x2c
 1817 0b48 30       		.byte	0x30
 1818 0b49 08       		.uleb128 0x8
 1819 0b4a 76000000 		.4byte	.LASF164
 1820 0b4e 15       		.byte	0x15
 1821 0b4f 8B       		.byte	0x8b
 1822 0b50 1E       		.byte	0x1e
 1823 0b51 AB070000 		.4byte	0x7ab
 1824 0b55 34       		.byte	0x34
ARM GAS  /var/folders/l5/0x54b2c10074c8bt31ycjvl80000gp/T//ccAllaXx.s 			page 33


 1825 0b56 08       		.uleb128 0x8
 1826 0b57 15050000 		.4byte	.LASF165
 1827 0b5b 15       		.byte	0x15
 1828 0b5c 8F       		.byte	0x8f
 1829 0b5d 1D       		.byte	0x1d
 1830 0b5e 2C000000 		.4byte	0x2c
 1831 0b62 38       		.byte	0x38
 1832 0b63 08       		.uleb128 0x8
 1833 0b64 91010000 		.4byte	.LASF166
 1834 0b68 15       		.byte	0x15
 1835 0b69 93       		.byte	0x93
 1836 0b6a 1D       		.byte	0x1d
 1837 0b6b 2C000000 		.4byte	0x2c
 1838 0b6f 3C       		.byte	0x3c
 1839 0b70 00       		.byte	0
 1840 0b71 03       		.uleb128 0x3
 1841 0b72 18060000 		.4byte	.LASF167
 1842 0b76 15       		.byte	0x15
 1843 0b77 42       		.byte	0x42
 1844 0b78 12       		.byte	0x12
 1845 0b79 D5000000 		.4byte	0xd5
 1846 0b7d 03       		.uleb128 0x3
 1847 0b7e 5E010000 		.4byte	.LASF168
 1848 0b82 15       		.byte	0x15
 1849 0b83 48       		.byte	0x48
 1850 0b84 12       		.byte	0x12
 1851 0b85 BD000000 		.4byte	0xbd
 1852 0b89 0A       		.uleb128 0xa
 1853 0b8a 04       		.byte	0x4
 1854 0b8b 15       		.byte	0x15
 1855 0b8c 57       		.byte	0x57
 1856 0b8d 09       		.byte	0x9
 1857 0b8e A00B0000 		.4byte	0xba0
 1858 0b92 08       		.uleb128 0x8
 1859 0b93 F8040000 		.4byte	.LASF169
 1860 0b97 15       		.byte	0x15
 1861 0b98 59       		.byte	0x59
 1862 0b99 1D       		.byte	0x1d
 1863 0b9a D5000000 		.4byte	0xd5
 1864 0b9e 00       		.byte	0
 1865 0b9f 00       		.byte	0
 1866 0ba0 03       		.uleb128 0x3
 1867 0ba1 1E080000 		.4byte	.LASF170
 1868 0ba5 15       		.byte	0x15
 1869 0ba6 5B       		.byte	0x5b
 1870 0ba7 03       		.byte	0x3
 1871 0ba8 890B0000 		.4byte	0xb89
 1872 0bac 06       		.uleb128 0x6
 1873 0bad A00B0000 		.4byte	0xba0
 1874 0bb1 0B       		.uleb128 0xb
 1875 0bb2 04       		.byte	0x4
 1876 0bb3 AC0B0000 		.4byte	0xbac
 1877 0bb7 0B       		.uleb128 0xb
 1878 0bb8 04       		.byte	0x4
 1879 0bb9 BF080000 		.4byte	0x8bf
 1880 0bbd 0F       		.uleb128 0xf
 1881 0bbe 62020000 		.4byte	.LASF171
ARM GAS  /var/folders/l5/0x54b2c10074c8bt31ycjvl80000gp/T//ccAllaXx.s 			page 34


 1882 0bc2 15       		.byte	0x15
 1883 0bc3 A6       		.byte	0xa6
 1884 0bc4 12       		.byte	0x12
 1885 0bc5 AE0A0000 		.4byte	0xaae
 1886 0bc9 18       		.uleb128 0x18
 1887 0bca 07       		.byte	0x7
 1888 0bcb 01       		.byte	0x1
 1889 0bcc 57000000 		.4byte	0x57
 1890 0bd0 16       		.byte	0x16
 1891 0bd1 5D       		.byte	0x5d
 1892 0bd2 0E       		.byte	0xe
 1893 0bd3 EA0B0000 		.4byte	0xbea
 1894 0bd7 19       		.uleb128 0x19
 1895 0bd8 FB060000 		.4byte	.LASF172
 1896 0bdc 00       		.byte	0
 1897 0bdd 19       		.uleb128 0x19
 1898 0bde 2E010000 		.4byte	.LASF173
 1899 0be2 01       		.byte	0x1
 1900 0be3 19       		.uleb128 0x19
 1901 0be4 ED070000 		.4byte	.LASF174
 1902 0be8 02       		.byte	0x2
 1903 0be9 00       		.byte	0
 1904 0bea 03       		.uleb128 0x3
 1905 0beb 28080000 		.4byte	.LASF175
 1906 0bef 16       		.byte	0x16
 1907 0bf0 61       		.byte	0x61
 1908 0bf1 03       		.byte	0x3
 1909 0bf2 C90B0000 		.4byte	0xbc9
 1910 0bf6 03       		.uleb128 0x3
 1911 0bf7 2F070000 		.4byte	.LASF176
 1912 0bfb 16       		.byte	0x16
 1913 0bfc 66       		.byte	0x66
 1914 0bfd 1D       		.byte	0x1d
 1915 0bfe 020C0000 		.4byte	0xc02
 1916 0c02 07       		.uleb128 0x7
 1917 0c03 2F070000 		.4byte	.LASF176
 1918 0c07 74       		.byte	0x74
 1919 0c08 16       		.byte	0x16
 1920 0c09 80       		.byte	0x80
 1921 0c0a 08       		.byte	0x8
 1922 0c0b 690C0000 		.4byte	0xc69
 1923 0c0f 09       		.uleb128 0x9
 1924 0c10 766D7400 		.ascii	"vmt\000"
 1925 0c14 16       		.byte	0x16
 1926 0c15 82       		.byte	0x82
 1927 0c16 21       		.byte	0x21
 1928 0c17 F00C0000 		.4byte	0xcf0
 1929 0c1b 00       		.byte	0
 1930 0c1c 08       		.uleb128 0x8
 1931 0c1d 0F030000 		.4byte	.LASF177
 1932 0c21 16       		.byte	0x16
 1933 0c22 83       		.byte	0x83
 1934 0c23 03       		.byte	0x3
 1935 0c24 72050000 		.4byte	0x572
 1936 0c28 04       		.byte	0x4
 1937 0c29 08       		.uleb128 0x8
 1938 0c2a 68010000 		.4byte	.LASF154
ARM GAS  /var/folders/l5/0x54b2c10074c8bt31ycjvl80000gp/T//ccAllaXx.s 			page 35


 1939 0c2e 16       		.byte	0x16
 1940 0c2f 83       		.byte	0x83
 1941 0c30 03       		.byte	0x3
 1942 0c31 EA0B0000 		.4byte	0xbea
 1943 0c35 08       		.byte	0x8
 1944 0c36 08       		.uleb128 0x8
 1945 0c37 A5020000 		.4byte	.LASF178
 1946 0c3b 16       		.byte	0x16
 1947 0c3c 83       		.byte	0x83
 1948 0c3d 03       		.byte	0x3
 1949 0c3e B1070000 		.4byte	0x7b1
 1950 0c42 0C       		.byte	0xc
 1951 0c43 08       		.uleb128 0x8
 1952 0c44 AA050000 		.4byte	.LASF179
 1953 0c48 16       		.byte	0x16
 1954 0c49 83       		.byte	0x83
 1955 0c4a 03       		.byte	0x3
 1956 0c4b BD070000 		.4byte	0x7bd
 1957 0c4f 30       		.byte	0x30
 1958 0c50 09       		.uleb128 0x9
 1959 0c51 696200   		.ascii	"ib\000"
 1960 0c54 16       		.byte	0x16
 1961 0c55 83       		.byte	0x83
 1962 0c56 03       		.byte	0x3
 1963 0c57 F60C0000 		.4byte	0xcf6
 1964 0c5b 54       		.byte	0x54
 1965 0c5c 09       		.uleb128 0x9
 1966 0c5d 6F6200   		.ascii	"ob\000"
 1967 0c60 16       		.byte	0x16
 1968 0c61 83       		.byte	0x83
 1969 0c62 03       		.byte	0x3
 1970 0c63 F60C0000 		.4byte	0xcf6
 1971 0c67 64       		.byte	0x64
 1972 0c68 00       		.byte	0
 1973 0c69 1A       		.uleb128 0x1a
 1974 0c6a 53443100 		.ascii	"SD1\000"
 1975 0c6e 19       		.byte	0x19
 1976 0c6f 62       		.byte	0x62
 1977 0c70 15       		.byte	0x15
 1978 0c71 F60B0000 		.4byte	0xbf6
 1979 0c75 07       		.uleb128 0x7
 1980 0c76 8E020000 		.4byte	.LASF180
 1981 0c7a 20       		.byte	0x20
 1982 0c7b 16       		.byte	0x16
 1983 0c7c 75       		.byte	0x75
 1984 0c7d 08       		.byte	0x8
 1985 0c7e EB0C0000 		.4byte	0xceb
 1986 0c82 08       		.uleb128 0x8
 1987 0c83 43010000 		.4byte	.LASF181
 1988 0c87 16       		.byte	0x16
 1989 0c88 76       		.byte	0x76
 1990 0c89 03       		.byte	0x3
 1991 0c8a E8070000 		.4byte	0x7e8
 1992 0c8e 00       		.byte	0
 1993 0c8f 08       		.uleb128 0x8
 1994 0c90 4A070000 		.4byte	.LASF182
 1995 0c94 16       		.byte	0x16
ARM GAS  /var/folders/l5/0x54b2c10074c8bt31ycjvl80000gp/T//ccAllaXx.s 			page 36


 1996 0c95 76       		.byte	0x76
 1997 0c96 03       		.byte	0x3
 1998 0c97 07080000 		.4byte	0x807
 1999 0c9b 04       		.byte	0x4
 2000 0c9c 09       		.uleb128 0x9
 2001 0c9d 70757400 		.ascii	"put\000"
 2002 0ca1 16       		.byte	0x16
 2003 0ca2 76       		.byte	0x76
 2004 0ca3 03       		.byte	0x3
 2005 0ca4 21080000 		.4byte	0x821
 2006 0ca8 08       		.byte	0x8
 2007 0ca9 09       		.uleb128 0x9
 2008 0caa 67657400 		.ascii	"get\000"
 2009 0cae 16       		.byte	0x16
 2010 0caf 76       		.byte	0x76
 2011 0cb0 03       		.byte	0x3
 2012 0cb1 D0050000 		.4byte	0x5d0
 2013 0cb5 0C       		.byte	0xc
 2014 0cb6 08       		.uleb128 0x8
 2015 0cb7 A4040000 		.4byte	.LASF183
 2016 0cbb 16       		.byte	0x16
 2017 0cbc 76       		.byte	0x76
 2018 0cbd 03       		.byte	0x3
 2019 0cbe F1080000 		.4byte	0x8f1
 2020 0cc2 10       		.byte	0x10
 2021 0cc3 08       		.uleb128 0x8
 2022 0cc4 CE020000 		.4byte	.LASF184
 2023 0cc8 16       		.byte	0x16
 2024 0cc9 76       		.byte	0x76
 2025 0cca 03       		.byte	0x3
 2026 0ccb 0B090000 		.4byte	0x90b
 2027 0ccf 14       		.byte	0x14
 2028 0cd0 08       		.uleb128 0x8
 2029 0cd1 2D040000 		.4byte	.LASF185
 2030 0cd5 16       		.byte	0x16
 2031 0cd6 76       		.byte	0x76
 2032 0cd7 03       		.byte	0x3
 2033 0cd8 2F090000 		.4byte	0x92f
 2034 0cdc 18       		.byte	0x18
 2035 0cdd 08       		.uleb128 0x8
 2036 0cde D7000000 		.4byte	.LASF186
 2037 0ce2 16       		.byte	0x16
 2038 0ce3 76       		.byte	0x76
 2039 0ce4 03       		.byte	0x3
 2040 0ce5 53090000 		.4byte	0x953
 2041 0ce9 1C       		.byte	0x1c
 2042 0cea 00       		.byte	0
 2043 0ceb 06       		.uleb128 0x6
 2044 0cec 750C0000 		.4byte	0xc75
 2045 0cf0 0B       		.uleb128 0xb
 2046 0cf1 04       		.byte	0x4
 2047 0cf2 EB0C0000 		.4byte	0xceb
 2048 0cf6 13       		.uleb128 0x13
 2049 0cf7 AC000000 		.4byte	0xac
 2050 0cfb 060D0000 		.4byte	0xd06
 2051 0cff 14       		.uleb128 0x14
 2052 0d00 38000000 		.4byte	0x38
ARM GAS  /var/folders/l5/0x54b2c10074c8bt31ycjvl80000gp/T//ccAllaXx.s 			page 37


 2053 0d04 0F       		.byte	0xf
 2054 0d05 00       		.byte	0
 2055 0d06 18       		.uleb128 0x18
 2056 0d07 07       		.byte	0x7
 2057 0d08 01       		.byte	0x1
 2058 0d09 57000000 		.4byte	0x57
 2059 0d0d 17       		.byte	0x17
 2060 0d0e 4E       		.byte	0x4e
 2061 0d0f 0E       		.byte	0xe
 2062 0d10 330D0000 		.4byte	0xd33
 2063 0d14 19       		.uleb128 0x19
 2064 0d15 00080000 		.4byte	.LASF187
 2065 0d19 00       		.byte	0
 2066 0d1a 19       		.uleb128 0x19
 2067 0d1b 18010000 		.4byte	.LASF188
 2068 0d1f 01       		.byte	0x1
 2069 0d20 19       		.uleb128 0x19
 2070 0d21 F6070000 		.4byte	.LASF189
 2071 0d25 02       		.byte	0x2
 2072 0d26 19       		.uleb128 0x19
 2073 0d27 4D000000 		.4byte	.LASF190
 2074 0d2b 03       		.byte	0x3
 2075 0d2c 19       		.uleb128 0x19
 2076 0d2d 54070000 		.4byte	.LASF191
 2077 0d31 04       		.byte	0x4
 2078 0d32 00       		.byte	0
 2079 0d33 03       		.uleb128 0x3
 2080 0d34 80070000 		.4byte	.LASF192
 2081 0d38 17       		.byte	0x17
 2082 0d39 54       		.byte	0x54
 2083 0d3a 03       		.byte	0x3
 2084 0d3b 060D0000 		.4byte	0xd06
 2085 0d3f 03       		.uleb128 0x3
 2086 0d40 B0000000 		.4byte	.LASF193
 2087 0d44 18       		.byte	0x18
 2088 0d45 35       		.byte	0x35
 2089 0d46 1A       		.byte	0x1a
 2090 0d47 4B0D0000 		.4byte	0xd4b
 2091 0d4b 07       		.uleb128 0x7
 2092 0d4c B0000000 		.4byte	.LASF193
 2093 0d50 28       		.byte	0x28
 2094 0d51 18       		.byte	0x18
 2095 0d52 7C       		.byte	0x7c
 2096 0d53 08       		.byte	0x8
 2097 0d54 B40D0000 		.4byte	0xdb4
 2098 0d58 08       		.uleb128 0x8
 2099 0d59 68010000 		.4byte	.LASF154
 2100 0d5d 18       		.byte	0x18
 2101 0d5e 80       		.byte	0x80
 2102 0d5f 19       		.byte	0x19
 2103 0d60 330D0000 		.4byte	0xd33
 2104 0d64 00       		.byte	0
 2105 0d65 08       		.uleb128 0x8
 2106 0d66 61070000 		.4byte	.LASF155
 2107 0d6a 18       		.byte	0x18
 2108 0d6b 84       		.byte	0x84
 2109 0d6c 1A       		.byte	0x1a
ARM GAS  /var/folders/l5/0x54b2c10074c8bt31ycjvl80000gp/T//ccAllaXx.s 			page 38


 2110 0d6d 670E0000 		.4byte	0xe67
 2111 0d71 04       		.byte	0x4
 2112 0d72 08       		.uleb128 0x8
 2113 0d73 80010000 		.4byte	.LASF159
 2114 0d77 18       		.byte	0x18
 2115 0d78 89       		.byte	0x89
 2116 0d79 1A       		.byte	0x1a
 2117 0d7a 8C020000 		.4byte	0x28c
 2118 0d7e 08       		.byte	0x8
 2119 0d7f 08       		.uleb128 0x8
 2120 0d80 23060000 		.4byte	.LASF158
 2121 0d84 18       		.byte	0x18
 2122 0d85 90       		.byte	0x90
 2123 0d86 19       		.byte	0x19
 2124 0d87 F7040000 		.4byte	0x4f7
 2125 0d8b 0C       		.byte	0xc
 2126 0d8c 08       		.uleb128 0x8
 2127 0d8d 76000000 		.4byte	.LASF164
 2128 0d91 18       		.byte	0x18
 2129 0d92 98       		.byte	0x98
 2130 0d93 1A       		.byte	0x1a
 2131 0d94 D9020000 		.4byte	0x2d9
 2132 0d98 1C       		.byte	0x1c
 2133 0d99 08       		.uleb128 0x8
 2134 0d9a 88020000 		.4byte	.LASF161
 2135 0d9e 18       		.byte	0x18
 2136 0d9f 9D       		.byte	0x9d
 2137 0da0 1A       		.byte	0x1a
 2138 0da1 6D0E0000 		.4byte	0xe6d
 2139 0da5 20       		.byte	0x20
 2140 0da6 08       		.uleb128 0x8
 2141 0da7 F1010000 		.4byte	.LASF194
 2142 0dab 18       		.byte	0x18
 2143 0dac A2       		.byte	0xa2
 2144 0dad 17       		.byte	0x17
 2145 0dae 2C000000 		.4byte	0x2c
 2146 0db2 24       		.byte	0x24
 2147 0db3 00       		.byte	0
 2148 0db4 03       		.uleb128 0x3
 2149 0db5 54020000 		.4byte	.LASF195
 2150 0db9 18       		.byte	0x18
 2151 0dba 3D       		.byte	0x3d
 2152 0dbb 10       		.byte	0x10
 2153 0dbc C00D0000 		.4byte	0xdc0
 2154 0dc0 0B       		.uleb128 0xb
 2155 0dc1 04       		.byte	0x4
 2156 0dc2 C60D0000 		.4byte	0xdc6
 2157 0dc6 0D       		.uleb128 0xd
 2158 0dc7 D10D0000 		.4byte	0xdd1
 2159 0dcb 0E       		.uleb128 0xe
 2160 0dcc D10D0000 		.4byte	0xdd1
 2161 0dd0 00       		.byte	0
 2162 0dd1 0B       		.uleb128 0xb
 2163 0dd2 04       		.byte	0x4
 2164 0dd3 3F0D0000 		.4byte	0xd3f
 2165 0dd7 0A       		.uleb128 0xa
 2166 0dd8 10       		.byte	0x10
ARM GAS  /var/folders/l5/0x54b2c10074c8bt31ycjvl80000gp/T//ccAllaXx.s 			page 39


 2167 0dd9 18       		.byte	0x18
 2168 0dda 44       		.byte	0x44
 2169 0ddb 09       		.byte	0x9
 2170 0ddc 560E0000 		.4byte	0xe56
 2171 0de0 08       		.uleb128 0x8
 2172 0de1 EA010000 		.4byte	.LASF196
 2173 0de5 18       		.byte	0x18
 2174 0de6 48       		.byte	0x48
 2175 0de7 19       		.byte	0x19
 2176 0de8 B40D0000 		.4byte	0xdb4
 2177 0dec 00       		.byte	0
 2178 0ded 08       		.uleb128 0x8
 2179 0dee C0050000 		.4byte	.LASF197
 2180 0df2 18       		.byte	0x18
 2181 0df3 4F       		.byte	0x4f
 2182 0df4 19       		.byte	0x19
 2183 0df5 AC000000 		.4byte	0xac
 2184 0df9 04       		.byte	0x4
 2185 0dfa 08       		.uleb128 0x8
 2186 0dfb CD050000 		.4byte	.LASF198
 2187 0dff 18       		.byte	0x18
 2188 0e00 52       		.byte	0x52
 2189 0e01 19       		.byte	0x19
 2190 0e02 AC000000 		.4byte	0xac
 2191 0e06 05       		.byte	0x5
 2192 0e07 08       		.uleb128 0x8
 2193 0e08 FA020000 		.4byte	.LASF199
 2194 0e0c 18       		.byte	0x18
 2195 0e0d 58       		.byte	0x58
 2196 0e0e 19       		.byte	0x19
 2197 0e0f AC000000 		.4byte	0xac
 2198 0e13 06       		.byte	0x6
 2199 0e14 08       		.uleb128 0x8
 2200 0e15 F7010000 		.4byte	.LASF200
 2201 0e19 18       		.byte	0x18
 2202 0e1a 5E       		.byte	0x5e
 2203 0e1b 19       		.byte	0x19
 2204 0e1c AC000000 		.4byte	0xac
 2205 0e20 07       		.byte	0x7
 2206 0e21 08       		.uleb128 0x8
 2207 0e22 0D020000 		.4byte	.LASF201
 2208 0e26 18       		.byte	0x18
 2209 0e27 64       		.byte	0x64
 2210 0e28 19       		.byte	0x19
 2211 0e29 AC000000 		.4byte	0xac
 2212 0e2d 08       		.byte	0x8
 2213 0e2e 08       		.uleb128 0x8
 2214 0e2f CC070000 		.4byte	.LASF202
 2215 0e33 18       		.byte	0x18
 2216 0e34 6A       		.byte	0x6a
 2217 0e35 19       		.byte	0x19
 2218 0e36 AC000000 		.4byte	0xac
 2219 0e3a 09       		.byte	0x9
 2220 0e3b 08       		.uleb128 0x8
 2221 0e3c C6010000 		.4byte	.LASF203
 2222 0e40 18       		.byte	0x18
 2223 0e41 70       		.byte	0x70
ARM GAS  /var/folders/l5/0x54b2c10074c8bt31ycjvl80000gp/T//ccAllaXx.s 			page 40


 2224 0e42 19       		.byte	0x19
 2225 0e43 AC000000 		.4byte	0xac
 2226 0e47 0A       		.byte	0xa
 2227 0e48 08       		.uleb128 0x8
 2228 0e49 CA060000 		.4byte	.LASF204
 2229 0e4d 18       		.byte	0x18
 2230 0e4e 73       		.byte	0x73
 2231 0e4f 19       		.byte	0x19
 2232 0e50 D5000000 		.4byte	0xd5
 2233 0e54 0C       		.byte	0xc
 2234 0e55 00       		.byte	0
 2235 0e56 03       		.uleb128 0x3
 2236 0e57 A7080000 		.4byte	.LASF205
 2237 0e5b 18       		.byte	0x18
 2238 0e5c 75       		.byte	0x75
 2239 0e5d 03       		.byte	0x3
 2240 0e5e D70D0000 		.4byte	0xdd7
 2241 0e62 06       		.uleb128 0x6
 2242 0e63 560E0000 		.4byte	0xe56
 2243 0e67 0B       		.uleb128 0xb
 2244 0e68 04       		.byte	0x4
 2245 0e69 620E0000 		.4byte	0xe62
 2246 0e6d 0B       		.uleb128 0xb
 2247 0e6e 04       		.byte	0x4
 2248 0e6f 730E0000 		.4byte	0xe73
 2249 0e73 1B       		.uleb128 0x1b
 2250 0e74 0F       		.uleb128 0xf
 2251 0e75 A9010000 		.4byte	.LASF206
 2252 0e79 18       		.byte	0x18
 2253 0e7a B6       		.byte	0xb6
 2254 0e7b 14       		.byte	0x14
 2255 0e7c 3F0D0000 		.4byte	0xd3f
 2256 0e80 1C       		.uleb128 0x1c
 2257 0e81 C7040000 		.4byte	.LASF207
 2258 0e85 01       		.byte	0x1
 2259 0e86 31       		.byte	0x31
 2260 0e87 13       		.byte	0x13
 2261 0e88 CC080000 		.4byte	0x8cc
 2262 0e8c 05       		.uleb128 0x5
 2263 0e8d 03       		.byte	0x3
 2264 0e8e 00000000 		.4byte	measurement_offset
 2265 0e92 1D       		.uleb128 0x1d
 2266 0e93 3C040000 		.4byte	.LASF211
 2267 0e97 01       		.byte	0x1
 2268 0e98 75       		.byte	0x75
 2269 0e99 06       		.byte	0x6
 2270 0e9a 01       		.byte	0x1
 2271 0e9b AC0E0000 		.4byte	0xeac
 2272 0e9f 1E       		.uleb128 0x1e
 2273 0ea0 746D7000 		.ascii	"tmp\000"
 2274 0ea4 01       		.byte	0x1
 2275 0ea5 75       		.byte	0x75
 2276 0ea6 24       		.byte	0x24
 2277 0ea7 BF090000 		.4byte	0x9bf
 2278 0eab 00       		.byte	0
 2279 0eac 1F       		.uleb128 0x1f
 2280 0ead C7020000 		.4byte	.LASF212
ARM GAS  /var/folders/l5/0x54b2c10074c8bt31ycjvl80000gp/T//ccAllaXx.s 			page 41


 2281 0eb1 01       		.byte	0x1
 2282 0eb2 61       		.byte	0x61
 2283 0eb3 06       		.byte	0x6
 2284 0eb4 00000000 		.4byte	.LFB9
 2285 0eb8 64000000 		.4byte	.LFE9-.LFB9
 2286 0ebc 01       		.uleb128 0x1
 2287 0ebd 9C       		.byte	0x9c
 2288 0ebe 270F0000 		.4byte	0xf27
 2289 0ec2 20       		.uleb128 0x20
 2290 0ec3 746D00   		.ascii	"tm\000"
 2291 0ec6 01       		.byte	0x1
 2292 0ec7 62       		.byte	0x62
 2293 0ec8 13       		.byte	0x13
 2294 0ec9 59090000 		.4byte	0x959
 2295 0ecd 02       		.uleb128 0x2
 2296 0ece 91       		.byte	0x91
 2297 0ecf 64       		.sleb128 -28
 2298 0ed0 21       		.uleb128 0x21
 2299 0ed1 920E0000 		.4byte	0xe92
 2300 0ed5 24000000 		.4byte	.LBI8
 2301 0ed9 01       		.byte	.LVU38
 2302 0eda 00000000 		.4byte	.Ldebug_ranges0+0
 2303 0ede 01       		.byte	0x1
 2304 0edf 68       		.byte	0x68
 2305 0ee0 03       		.byte	0x3
 2306 0ee1 F30E0000 		.4byte	0xef3
 2307 0ee5 22       		.uleb128 0x22
 2308 0ee6 9F0E0000 		.4byte	0xe9f
 2309 0eea 04000000 		.4byte	.LLST1
 2310 0eee 00000000 		.4byte	.LVUS1
 2311 0ef2 00       		.byte	0
 2312 0ef3 21       		.uleb128 0x21
 2313 0ef4 600F0000 		.4byte	0xf60
 2314 0ef8 3C000000 		.4byte	.LBI14
 2315 0efc 05       		.byte	.LVU51
 2316 0efd 30000000 		.4byte	.Ldebug_ranges0+0x30
 2317 0f01 01       		.byte	0x1
 2318 0f02 69       		.byte	0x69
 2319 0f03 03       		.byte	0x3
 2320 0f04 160F0000 		.4byte	0xf16
 2321 0f08 22       		.uleb128 0x22
 2322 0f09 6D0F0000 		.4byte	0xf6d
 2323 0f0d 26000000 		.4byte	.LLST2
 2324 0f11 24000000 		.4byte	.LVUS2
 2325 0f15 00       		.byte	0
 2326 0f16 23       		.uleb128 0x23
 2327 0f17 44000000 		.4byte	.LVL7
 2328 0f1b 270F0000 		.4byte	0xf27
 2329 0f1f 24       		.uleb128 0x24
 2330 0f20 01       		.uleb128 0x1
 2331 0f21 50       		.byte	0x50
 2332 0f22 02       		.uleb128 0x2
 2333 0f23 70       		.byte	0x70
 2334 0f24 00       		.sleb128 0
 2335 0f25 00       		.byte	0
 2336 0f26 00       		.byte	0
 2337 0f27 25       		.uleb128 0x25
ARM GAS  /var/folders/l5/0x54b2c10074c8bt31ycjvl80000gp/T//ccAllaXx.s 			page 42


 2338 0f28 73070000 		.4byte	.LASF213
 2339 0f2c 01       		.byte	0x1
 2340 0f2d 4A       		.byte	0x4a
 2341 0f2e 0D       		.byte	0xd
 2342 0f2f 00000000 		.4byte	.LFB8
 2343 0f33 4C000000 		.4byte	.LFE8-.LFB8
 2344 0f37 01       		.uleb128 0x1
 2345 0f38 9C       		.byte	0x9c
 2346 0f39 600F0000 		.4byte	0xf60
 2347 0f3d 26       		.uleb128 0x26
 2348 0f3e 746D7000 		.ascii	"tmp\000"
 2349 0f42 01       		.byte	0x1
 2350 0f43 4A       		.byte	0x4a
 2351 0f44 26       		.byte	0x26
 2352 0f45 BF090000 		.4byte	0x9bf
 2353 0f49 01       		.uleb128 0x1
 2354 0f4a 50       		.byte	0x50
 2355 0f4b 27       		.uleb128 0x27
 2356 0f4c 6E6F7700 		.ascii	"now\000"
 2357 0f50 01       		.byte	0x1
 2358 0f51 4C       		.byte	0x4c
 2359 0f52 0E       		.byte	0xe
 2360 0f53 CC080000 		.4byte	0x8cc
 2361 0f57 3B000000 		.4byte	.LLST0
 2362 0f5b 39000000 		.4byte	.LVUS0
 2363 0f5f 00       		.byte	0
 2364 0f60 28       		.uleb128 0x28
 2365 0f61 F2080000 		.4byte	.LASF214
 2366 0f65 01       		.byte	0x1
 2367 0f66 3E       		.byte	0x3e
 2368 0f67 0D       		.byte	0xd
 2369 0f68 01       		.byte	0x1
 2370 0f69 7A0F0000 		.4byte	0xf7a
 2371 0f6d 1E       		.uleb128 0x1e
 2372 0f6e 746D7000 		.ascii	"tmp\000"
 2373 0f72 01       		.byte	0x1
 2374 0f73 3E       		.byte	0x3e
 2375 0f74 27       		.byte	0x27
 2376 0f75 BF090000 		.4byte	0x9bf
 2377 0f79 00       		.byte	0
 2378 0f7a 29       		.uleb128 0x29
 2379 0f7b 600F0000 		.4byte	0xf60
 2380 0f7f 00000000 		.4byte	.LFB7
 2381 0f83 14000000 		.4byte	.LFE7-.LFB7
 2382 0f87 01       		.uleb128 0x1
 2383 0f88 9C       		.byte	0x9c
 2384 0f89 950F0000 		.4byte	0xf95
 2385 0f8d 2A       		.uleb128 0x2a
 2386 0f8e 6D0F0000 		.4byte	0xf6d
 2387 0f92 01       		.uleb128 0x1
 2388 0f93 50       		.byte	0x50
 2389 0f94 00       		.byte	0
 2390 0f95 2B       		.uleb128 0x2b
 2391 0f96 920E0000 		.4byte	0xe92
 2392 0f9a 00000000 		.4byte	.LFB10
 2393 0f9e 30000000 		.4byte	.LFE10-.LFB10
 2394 0fa2 01       		.uleb128 0x1
ARM GAS  /var/folders/l5/0x54b2c10074c8bt31ycjvl80000gp/T//ccAllaXx.s 			page 43


 2395 0fa3 9C       		.byte	0x9c
 2396 0fa4 2A       		.uleb128 0x2a
 2397 0fa5 9F0E0000 		.4byte	0xe9f
 2398 0fa9 01       		.uleb128 0x1
 2399 0faa 50       		.byte	0x50
 2400 0fab 00       		.byte	0
 2401 0fac 00       		.byte	0
 2402              		.section	.debug_abbrev,"",%progbits
 2403              	.Ldebug_abbrev0:
 2404 0000 01       		.uleb128 0x1
 2405 0001 11       		.uleb128 0x11
 2406 0002 01       		.byte	0x1
 2407 0003 25       		.uleb128 0x25
 2408 0004 0E       		.uleb128 0xe
 2409 0005 13       		.uleb128 0x13
 2410 0006 0B       		.uleb128 0xb
 2411 0007 03       		.uleb128 0x3
 2412 0008 0E       		.uleb128 0xe
 2413 0009 1B       		.uleb128 0x1b
 2414 000a 0E       		.uleb128 0xe
 2415 000b 55       		.uleb128 0x55
 2416 000c 17       		.uleb128 0x17
 2417 000d 11       		.uleb128 0x11
 2418 000e 01       		.uleb128 0x1
 2419 000f 10       		.uleb128 0x10
 2420 0010 17       		.uleb128 0x17
 2421 0011 00       		.byte	0
 2422 0012 00       		.byte	0
 2423 0013 02       		.uleb128 0x2
 2424 0014 24       		.uleb128 0x24
 2425 0015 00       		.byte	0
 2426 0016 0B       		.uleb128 0xb
 2427 0017 0B       		.uleb128 0xb
 2428 0018 3E       		.uleb128 0x3e
 2429 0019 0B       		.uleb128 0xb
 2430 001a 03       		.uleb128 0x3
 2431 001b 08       		.uleb128 0x8
 2432 001c 00       		.byte	0
 2433 001d 00       		.byte	0
 2434 001e 03       		.uleb128 0x3
 2435 001f 16       		.uleb128 0x16
 2436 0020 00       		.byte	0
 2437 0021 03       		.uleb128 0x3
 2438 0022 0E       		.uleb128 0xe
 2439 0023 3A       		.uleb128 0x3a
 2440 0024 0B       		.uleb128 0xb
 2441 0025 3B       		.uleb128 0x3b
 2442 0026 0B       		.uleb128 0xb
 2443 0027 39       		.uleb128 0x39
 2444 0028 0B       		.uleb128 0xb
 2445 0029 49       		.uleb128 0x49
 2446 002a 13       		.uleb128 0x13
 2447 002b 00       		.byte	0
 2448 002c 00       		.byte	0
 2449 002d 04       		.uleb128 0x4
 2450 002e 24       		.uleb128 0x24
 2451 002f 00       		.byte	0
ARM GAS  /var/folders/l5/0x54b2c10074c8bt31ycjvl80000gp/T//ccAllaXx.s 			page 44


 2452 0030 0B       		.uleb128 0xb
 2453 0031 0B       		.uleb128 0xb
 2454 0032 3E       		.uleb128 0x3e
 2455 0033 0B       		.uleb128 0xb
 2456 0034 03       		.uleb128 0x3
 2457 0035 0E       		.uleb128 0xe
 2458 0036 00       		.byte	0
 2459 0037 00       		.byte	0
 2460 0038 05       		.uleb128 0x5
 2461 0039 35       		.uleb128 0x35
 2462 003a 00       		.byte	0
 2463 003b 49       		.uleb128 0x49
 2464 003c 13       		.uleb128 0x13
 2465 003d 00       		.byte	0
 2466 003e 00       		.byte	0
 2467 003f 06       		.uleb128 0x6
 2468 0040 26       		.uleb128 0x26
 2469 0041 00       		.byte	0
 2470 0042 49       		.uleb128 0x49
 2471 0043 13       		.uleb128 0x13
 2472 0044 00       		.byte	0
 2473 0045 00       		.byte	0
 2474 0046 07       		.uleb128 0x7
 2475 0047 13       		.uleb128 0x13
 2476 0048 01       		.byte	0x1
 2477 0049 03       		.uleb128 0x3
 2478 004a 0E       		.uleb128 0xe
 2479 004b 0B       		.uleb128 0xb
 2480 004c 0B       		.uleb128 0xb
 2481 004d 3A       		.uleb128 0x3a
 2482 004e 0B       		.uleb128 0xb
 2483 004f 3B       		.uleb128 0x3b
 2484 0050 0B       		.uleb128 0xb
 2485 0051 39       		.uleb128 0x39
 2486 0052 0B       		.uleb128 0xb
 2487 0053 01       		.uleb128 0x1
 2488 0054 13       		.uleb128 0x13
 2489 0055 00       		.byte	0
 2490 0056 00       		.byte	0
 2491 0057 08       		.uleb128 0x8
 2492 0058 0D       		.uleb128 0xd
 2493 0059 00       		.byte	0
 2494 005a 03       		.uleb128 0x3
 2495 005b 0E       		.uleb128 0xe
 2496 005c 3A       		.uleb128 0x3a
 2497 005d 0B       		.uleb128 0xb
 2498 005e 3B       		.uleb128 0x3b
 2499 005f 0B       		.uleb128 0xb
 2500 0060 39       		.uleb128 0x39
 2501 0061 0B       		.uleb128 0xb
 2502 0062 49       		.uleb128 0x49
 2503 0063 13       		.uleb128 0x13
 2504 0064 38       		.uleb128 0x38
 2505 0065 0B       		.uleb128 0xb
 2506 0066 00       		.byte	0
 2507 0067 00       		.byte	0
 2508 0068 09       		.uleb128 0x9
ARM GAS  /var/folders/l5/0x54b2c10074c8bt31ycjvl80000gp/T//ccAllaXx.s 			page 45


 2509 0069 0D       		.uleb128 0xd
 2510 006a 00       		.byte	0
 2511 006b 03       		.uleb128 0x3
 2512 006c 08       		.uleb128 0x8
 2513 006d 3A       		.uleb128 0x3a
 2514 006e 0B       		.uleb128 0xb
 2515 006f 3B       		.uleb128 0x3b
 2516 0070 0B       		.uleb128 0xb
 2517 0071 39       		.uleb128 0x39
 2518 0072 0B       		.uleb128 0xb
 2519 0073 49       		.uleb128 0x49
 2520 0074 13       		.uleb128 0x13
 2521 0075 38       		.uleb128 0x38
 2522 0076 0B       		.uleb128 0xb
 2523 0077 00       		.byte	0
 2524 0078 00       		.byte	0
 2525 0079 0A       		.uleb128 0xa
 2526 007a 13       		.uleb128 0x13
 2527 007b 01       		.byte	0x1
 2528 007c 0B       		.uleb128 0xb
 2529 007d 0B       		.uleb128 0xb
 2530 007e 3A       		.uleb128 0x3a
 2531 007f 0B       		.uleb128 0xb
 2532 0080 3B       		.uleb128 0x3b
 2533 0081 0B       		.uleb128 0xb
 2534 0082 39       		.uleb128 0x39
 2535 0083 0B       		.uleb128 0xb
 2536 0084 01       		.uleb128 0x1
 2537 0085 13       		.uleb128 0x13
 2538 0086 00       		.byte	0
 2539 0087 00       		.byte	0
 2540 0088 0B       		.uleb128 0xb
 2541 0089 0F       		.uleb128 0xf
 2542 008a 00       		.byte	0
 2543 008b 0B       		.uleb128 0xb
 2544 008c 0B       		.uleb128 0xb
 2545 008d 49       		.uleb128 0x49
 2546 008e 13       		.uleb128 0x13
 2547 008f 00       		.byte	0
 2548 0090 00       		.byte	0
 2549 0091 0C       		.uleb128 0xc
 2550 0092 0F       		.uleb128 0xf
 2551 0093 00       		.byte	0
 2552 0094 0B       		.uleb128 0xb
 2553 0095 0B       		.uleb128 0xb
 2554 0096 00       		.byte	0
 2555 0097 00       		.byte	0
 2556 0098 0D       		.uleb128 0xd
 2557 0099 15       		.uleb128 0x15
 2558 009a 01       		.byte	0x1
 2559 009b 27       		.uleb128 0x27
 2560 009c 19       		.uleb128 0x19
 2561 009d 01       		.uleb128 0x1
 2562 009e 13       		.uleb128 0x13
 2563 009f 00       		.byte	0
 2564 00a0 00       		.byte	0
 2565 00a1 0E       		.uleb128 0xe
ARM GAS  /var/folders/l5/0x54b2c10074c8bt31ycjvl80000gp/T//ccAllaXx.s 			page 46


 2566 00a2 05       		.uleb128 0x5
 2567 00a3 00       		.byte	0
 2568 00a4 49       		.uleb128 0x49
 2569 00a5 13       		.uleb128 0x13
 2570 00a6 00       		.byte	0
 2571 00a7 00       		.byte	0
 2572 00a8 0F       		.uleb128 0xf
 2573 00a9 34       		.uleb128 0x34
 2574 00aa 00       		.byte	0
 2575 00ab 03       		.uleb128 0x3
 2576 00ac 0E       		.uleb128 0xe
 2577 00ad 3A       		.uleb128 0x3a
 2578 00ae 0B       		.uleb128 0xb
 2579 00af 3B       		.uleb128 0x3b
 2580 00b0 0B       		.uleb128 0xb
 2581 00b1 39       		.uleb128 0x39
 2582 00b2 0B       		.uleb128 0xb
 2583 00b3 49       		.uleb128 0x49
 2584 00b4 13       		.uleb128 0x13
 2585 00b5 3F       		.uleb128 0x3f
 2586 00b6 19       		.uleb128 0x19
 2587 00b7 3C       		.uleb128 0x3c
 2588 00b8 19       		.uleb128 0x19
 2589 00b9 00       		.byte	0
 2590 00ba 00       		.byte	0
 2591 00bb 10       		.uleb128 0x10
 2592 00bc 17       		.uleb128 0x17
 2593 00bd 01       		.byte	0x1
 2594 00be 0B       		.uleb128 0xb
 2595 00bf 0B       		.uleb128 0xb
 2596 00c0 3A       		.uleb128 0x3a
 2597 00c1 0B       		.uleb128 0xb
 2598 00c2 3B       		.uleb128 0x3b
 2599 00c3 0B       		.uleb128 0xb
 2600 00c4 39       		.uleb128 0x39
 2601 00c5 0B       		.uleb128 0xb
 2602 00c6 01       		.uleb128 0x1
 2603 00c7 13       		.uleb128 0x13
 2604 00c8 00       		.byte	0
 2605 00c9 00       		.byte	0
 2606 00ca 11       		.uleb128 0x11
 2607 00cb 0D       		.uleb128 0xd
 2608 00cc 00       		.byte	0
 2609 00cd 03       		.uleb128 0x3
 2610 00ce 0E       		.uleb128 0xe
 2611 00cf 3A       		.uleb128 0x3a
 2612 00d0 0B       		.uleb128 0xb
 2613 00d1 3B       		.uleb128 0x3b
 2614 00d2 0B       		.uleb128 0xb
 2615 00d3 39       		.uleb128 0x39
 2616 00d4 0B       		.uleb128 0xb
 2617 00d5 49       		.uleb128 0x49
 2618 00d6 13       		.uleb128 0x13
 2619 00d7 00       		.byte	0
 2620 00d8 00       		.byte	0
 2621 00d9 12       		.uleb128 0x12
 2622 00da 15       		.uleb128 0x15
ARM GAS  /var/folders/l5/0x54b2c10074c8bt31ycjvl80000gp/T//ccAllaXx.s 			page 47


 2623 00db 01       		.byte	0x1
 2624 00dc 27       		.uleb128 0x27
 2625 00dd 19       		.uleb128 0x19
 2626 00de 49       		.uleb128 0x49
 2627 00df 13       		.uleb128 0x13
 2628 00e0 01       		.uleb128 0x1
 2629 00e1 13       		.uleb128 0x13
 2630 00e2 00       		.byte	0
 2631 00e3 00       		.byte	0
 2632 00e4 13       		.uleb128 0x13
 2633 00e5 01       		.uleb128 0x1
 2634 00e6 01       		.byte	0x1
 2635 00e7 49       		.uleb128 0x49
 2636 00e8 13       		.uleb128 0x13
 2637 00e9 01       		.uleb128 0x1
 2638 00ea 13       		.uleb128 0x13
 2639 00eb 00       		.byte	0
 2640 00ec 00       		.byte	0
 2641 00ed 14       		.uleb128 0x14
 2642 00ee 21       		.uleb128 0x21
 2643 00ef 00       		.byte	0
 2644 00f0 49       		.uleb128 0x49
 2645 00f1 13       		.uleb128 0x13
 2646 00f2 2F       		.uleb128 0x2f
 2647 00f3 0B       		.uleb128 0xb
 2648 00f4 00       		.byte	0
 2649 00f5 00       		.byte	0
 2650 00f6 15       		.uleb128 0x15
 2651 00f7 0D       		.uleb128 0xd
 2652 00f8 00       		.byte	0
 2653 00f9 03       		.uleb128 0x3
 2654 00fa 0E       		.uleb128 0xe
 2655 00fb 3A       		.uleb128 0x3a
 2656 00fc 0B       		.uleb128 0xb
 2657 00fd 3B       		.uleb128 0x3b
 2658 00fe 05       		.uleb128 0x5
 2659 00ff 39       		.uleb128 0x39
 2660 0100 0B       		.uleb128 0xb
 2661 0101 49       		.uleb128 0x49
 2662 0102 13       		.uleb128 0x13
 2663 0103 38       		.uleb128 0x38
 2664 0104 0B       		.uleb128 0xb
 2665 0105 00       		.byte	0
 2666 0106 00       		.byte	0
 2667 0107 16       		.uleb128 0x16
 2668 0108 16       		.uleb128 0x16
 2669 0109 00       		.byte	0
 2670 010a 03       		.uleb128 0x3
 2671 010b 0E       		.uleb128 0xe
 2672 010c 3A       		.uleb128 0x3a
 2673 010d 0B       		.uleb128 0xb
 2674 010e 3B       		.uleb128 0x3b
 2675 010f 05       		.uleb128 0x5
 2676 0110 39       		.uleb128 0x39
 2677 0111 0B       		.uleb128 0xb
 2678 0112 49       		.uleb128 0x49
 2679 0113 13       		.uleb128 0x13
ARM GAS  /var/folders/l5/0x54b2c10074c8bt31ycjvl80000gp/T//ccAllaXx.s 			page 48


 2680 0114 00       		.byte	0
 2681 0115 00       		.byte	0
 2682 0116 17       		.uleb128 0x17
 2683 0117 13       		.uleb128 0x13
 2684 0118 00       		.byte	0
 2685 0119 0B       		.uleb128 0xb
 2686 011a 0B       		.uleb128 0xb
 2687 011b 3A       		.uleb128 0x3a
 2688 011c 0B       		.uleb128 0xb
 2689 011d 3B       		.uleb128 0x3b
 2690 011e 0B       		.uleb128 0xb
 2691 011f 39       		.uleb128 0x39
 2692 0120 0B       		.uleb128 0xb
 2693 0121 00       		.byte	0
 2694 0122 00       		.byte	0
 2695 0123 18       		.uleb128 0x18
 2696 0124 04       		.uleb128 0x4
 2697 0125 01       		.byte	0x1
 2698 0126 3E       		.uleb128 0x3e
 2699 0127 0B       		.uleb128 0xb
 2700 0128 0B       		.uleb128 0xb
 2701 0129 0B       		.uleb128 0xb
 2702 012a 49       		.uleb128 0x49
 2703 012b 13       		.uleb128 0x13
 2704 012c 3A       		.uleb128 0x3a
 2705 012d 0B       		.uleb128 0xb
 2706 012e 3B       		.uleb128 0x3b
 2707 012f 0B       		.uleb128 0xb
 2708 0130 39       		.uleb128 0x39
 2709 0131 0B       		.uleb128 0xb
 2710 0132 01       		.uleb128 0x1
 2711 0133 13       		.uleb128 0x13
 2712 0134 00       		.byte	0
 2713 0135 00       		.byte	0
 2714 0136 19       		.uleb128 0x19
 2715 0137 28       		.uleb128 0x28
 2716 0138 00       		.byte	0
 2717 0139 03       		.uleb128 0x3
 2718 013a 0E       		.uleb128 0xe
 2719 013b 1C       		.uleb128 0x1c
 2720 013c 0B       		.uleb128 0xb
 2721 013d 00       		.byte	0
 2722 013e 00       		.byte	0
 2723 013f 1A       		.uleb128 0x1a
 2724 0140 34       		.uleb128 0x34
 2725 0141 00       		.byte	0
 2726 0142 03       		.uleb128 0x3
 2727 0143 08       		.uleb128 0x8
 2728 0144 3A       		.uleb128 0x3a
 2729 0145 0B       		.uleb128 0xb
 2730 0146 3B       		.uleb128 0x3b
 2731 0147 0B       		.uleb128 0xb
 2732 0148 39       		.uleb128 0x39
 2733 0149 0B       		.uleb128 0xb
 2734 014a 49       		.uleb128 0x49
 2735 014b 13       		.uleb128 0x13
 2736 014c 3F       		.uleb128 0x3f
ARM GAS  /var/folders/l5/0x54b2c10074c8bt31ycjvl80000gp/T//ccAllaXx.s 			page 49


 2737 014d 19       		.uleb128 0x19
 2738 014e 3C       		.uleb128 0x3c
 2739 014f 19       		.uleb128 0x19
 2740 0150 00       		.byte	0
 2741 0151 00       		.byte	0
 2742 0152 1B       		.uleb128 0x1b
 2743 0153 26       		.uleb128 0x26
 2744 0154 00       		.byte	0
 2745 0155 00       		.byte	0
 2746 0156 00       		.byte	0
 2747 0157 1C       		.uleb128 0x1c
 2748 0158 34       		.uleb128 0x34
 2749 0159 00       		.byte	0
 2750 015a 03       		.uleb128 0x3
 2751 015b 0E       		.uleb128 0xe
 2752 015c 3A       		.uleb128 0x3a
 2753 015d 0B       		.uleb128 0xb
 2754 015e 3B       		.uleb128 0x3b
 2755 015f 0B       		.uleb128 0xb
 2756 0160 39       		.uleb128 0x39
 2757 0161 0B       		.uleb128 0xb
 2758 0162 49       		.uleb128 0x49
 2759 0163 13       		.uleb128 0x13
 2760 0164 02       		.uleb128 0x2
 2761 0165 18       		.uleb128 0x18
 2762 0166 00       		.byte	0
 2763 0167 00       		.byte	0
 2764 0168 1D       		.uleb128 0x1d
 2765 0169 2E       		.uleb128 0x2e
 2766 016a 01       		.byte	0x1
 2767 016b 3F       		.uleb128 0x3f
 2768 016c 19       		.uleb128 0x19
 2769 016d 03       		.uleb128 0x3
 2770 016e 0E       		.uleb128 0xe
 2771 016f 3A       		.uleb128 0x3a
 2772 0170 0B       		.uleb128 0xb
 2773 0171 3B       		.uleb128 0x3b
 2774 0172 0B       		.uleb128 0xb
 2775 0173 39       		.uleb128 0x39
 2776 0174 0B       		.uleb128 0xb
 2777 0175 27       		.uleb128 0x27
 2778 0176 19       		.uleb128 0x19
 2779 0177 20       		.uleb128 0x20
 2780 0178 0B       		.uleb128 0xb
 2781 0179 01       		.uleb128 0x1
 2782 017a 13       		.uleb128 0x13
 2783 017b 00       		.byte	0
 2784 017c 00       		.byte	0
 2785 017d 1E       		.uleb128 0x1e
 2786 017e 05       		.uleb128 0x5
 2787 017f 00       		.byte	0
 2788 0180 03       		.uleb128 0x3
 2789 0181 08       		.uleb128 0x8
 2790 0182 3A       		.uleb128 0x3a
 2791 0183 0B       		.uleb128 0xb
 2792 0184 3B       		.uleb128 0x3b
 2793 0185 0B       		.uleb128 0xb
ARM GAS  /var/folders/l5/0x54b2c10074c8bt31ycjvl80000gp/T//ccAllaXx.s 			page 50


 2794 0186 39       		.uleb128 0x39
 2795 0187 0B       		.uleb128 0xb
 2796 0188 49       		.uleb128 0x49
 2797 0189 13       		.uleb128 0x13
 2798 018a 00       		.byte	0
 2799 018b 00       		.byte	0
 2800 018c 1F       		.uleb128 0x1f
 2801 018d 2E       		.uleb128 0x2e
 2802 018e 01       		.byte	0x1
 2803 018f 3F       		.uleb128 0x3f
 2804 0190 19       		.uleb128 0x19
 2805 0191 03       		.uleb128 0x3
 2806 0192 0E       		.uleb128 0xe
 2807 0193 3A       		.uleb128 0x3a
 2808 0194 0B       		.uleb128 0xb
 2809 0195 3B       		.uleb128 0x3b
 2810 0196 0B       		.uleb128 0xb
 2811 0197 39       		.uleb128 0x39
 2812 0198 0B       		.uleb128 0xb
 2813 0199 27       		.uleb128 0x27
 2814 019a 19       		.uleb128 0x19
 2815 019b 11       		.uleb128 0x11
 2816 019c 01       		.uleb128 0x1
 2817 019d 12       		.uleb128 0x12
 2818 019e 06       		.uleb128 0x6
 2819 019f 40       		.uleb128 0x40
 2820 01a0 18       		.uleb128 0x18
 2821 01a1 9742     		.uleb128 0x2117
 2822 01a3 19       		.uleb128 0x19
 2823 01a4 01       		.uleb128 0x1
 2824 01a5 13       		.uleb128 0x13
 2825 01a6 00       		.byte	0
 2826 01a7 00       		.byte	0
 2827 01a8 20       		.uleb128 0x20
 2828 01a9 34       		.uleb128 0x34
 2829 01aa 00       		.byte	0
 2830 01ab 03       		.uleb128 0x3
 2831 01ac 08       		.uleb128 0x8
 2832 01ad 3A       		.uleb128 0x3a
 2833 01ae 0B       		.uleb128 0xb
 2834 01af 3B       		.uleb128 0x3b
 2835 01b0 0B       		.uleb128 0xb
 2836 01b1 39       		.uleb128 0x39
 2837 01b2 0B       		.uleb128 0xb
 2838 01b3 49       		.uleb128 0x49
 2839 01b4 13       		.uleb128 0x13
 2840 01b5 02       		.uleb128 0x2
 2841 01b6 18       		.uleb128 0x18
 2842 01b7 00       		.byte	0
 2843 01b8 00       		.byte	0
 2844 01b9 21       		.uleb128 0x21
 2845 01ba 1D       		.uleb128 0x1d
 2846 01bb 01       		.byte	0x1
 2847 01bc 31       		.uleb128 0x31
 2848 01bd 13       		.uleb128 0x13
 2849 01be 52       		.uleb128 0x52
 2850 01bf 01       		.uleb128 0x1
ARM GAS  /var/folders/l5/0x54b2c10074c8bt31ycjvl80000gp/T//ccAllaXx.s 			page 51


 2851 01c0 B842     		.uleb128 0x2138
 2852 01c2 0B       		.uleb128 0xb
 2853 01c3 55       		.uleb128 0x55
 2854 01c4 17       		.uleb128 0x17
 2855 01c5 58       		.uleb128 0x58
 2856 01c6 0B       		.uleb128 0xb
 2857 01c7 59       		.uleb128 0x59
 2858 01c8 0B       		.uleb128 0xb
 2859 01c9 57       		.uleb128 0x57
 2860 01ca 0B       		.uleb128 0xb
 2861 01cb 01       		.uleb128 0x1
 2862 01cc 13       		.uleb128 0x13
 2863 01cd 00       		.byte	0
 2864 01ce 00       		.byte	0
 2865 01cf 22       		.uleb128 0x22
 2866 01d0 05       		.uleb128 0x5
 2867 01d1 00       		.byte	0
 2868 01d2 31       		.uleb128 0x31
 2869 01d3 13       		.uleb128 0x13
 2870 01d4 02       		.uleb128 0x2
 2871 01d5 17       		.uleb128 0x17
 2872 01d6 B742     		.uleb128 0x2137
 2873 01d8 17       		.uleb128 0x17
 2874 01d9 00       		.byte	0
 2875 01da 00       		.byte	0
 2876 01db 23       		.uleb128 0x23
 2877 01dc 898201   		.uleb128 0x4109
 2878 01df 01       		.byte	0x1
 2879 01e0 11       		.uleb128 0x11
 2880 01e1 01       		.uleb128 0x1
 2881 01e2 31       		.uleb128 0x31
 2882 01e3 13       		.uleb128 0x13
 2883 01e4 00       		.byte	0
 2884 01e5 00       		.byte	0
 2885 01e6 24       		.uleb128 0x24
 2886 01e7 8A8201   		.uleb128 0x410a
 2887 01ea 00       		.byte	0
 2888 01eb 02       		.uleb128 0x2
 2889 01ec 18       		.uleb128 0x18
 2890 01ed 9142     		.uleb128 0x2111
 2891 01ef 18       		.uleb128 0x18
 2892 01f0 00       		.byte	0
 2893 01f1 00       		.byte	0
 2894 01f2 25       		.uleb128 0x25
 2895 01f3 2E       		.uleb128 0x2e
 2896 01f4 01       		.byte	0x1
 2897 01f5 03       		.uleb128 0x3
 2898 01f6 0E       		.uleb128 0xe
 2899 01f7 3A       		.uleb128 0x3a
 2900 01f8 0B       		.uleb128 0xb
 2901 01f9 3B       		.uleb128 0x3b
 2902 01fa 0B       		.uleb128 0xb
 2903 01fb 39       		.uleb128 0x39
 2904 01fc 0B       		.uleb128 0xb
 2905 01fd 27       		.uleb128 0x27
 2906 01fe 19       		.uleb128 0x19
 2907 01ff 11       		.uleb128 0x11
ARM GAS  /var/folders/l5/0x54b2c10074c8bt31ycjvl80000gp/T//ccAllaXx.s 			page 52


 2908 0200 01       		.uleb128 0x1
 2909 0201 12       		.uleb128 0x12
 2910 0202 06       		.uleb128 0x6
 2911 0203 40       		.uleb128 0x40
 2912 0204 18       		.uleb128 0x18
 2913 0205 9742     		.uleb128 0x2117
 2914 0207 19       		.uleb128 0x19
 2915 0208 01       		.uleb128 0x1
 2916 0209 13       		.uleb128 0x13
 2917 020a 00       		.byte	0
 2918 020b 00       		.byte	0
 2919 020c 26       		.uleb128 0x26
 2920 020d 05       		.uleb128 0x5
 2921 020e 00       		.byte	0
 2922 020f 03       		.uleb128 0x3
 2923 0210 08       		.uleb128 0x8
 2924 0211 3A       		.uleb128 0x3a
 2925 0212 0B       		.uleb128 0xb
 2926 0213 3B       		.uleb128 0x3b
 2927 0214 0B       		.uleb128 0xb
 2928 0215 39       		.uleb128 0x39
 2929 0216 0B       		.uleb128 0xb
 2930 0217 49       		.uleb128 0x49
 2931 0218 13       		.uleb128 0x13
 2932 0219 02       		.uleb128 0x2
 2933 021a 18       		.uleb128 0x18
 2934 021b 00       		.byte	0
 2935 021c 00       		.byte	0
 2936 021d 27       		.uleb128 0x27
 2937 021e 34       		.uleb128 0x34
 2938 021f 00       		.byte	0
 2939 0220 03       		.uleb128 0x3
 2940 0221 08       		.uleb128 0x8
 2941 0222 3A       		.uleb128 0x3a
 2942 0223 0B       		.uleb128 0xb
 2943 0224 3B       		.uleb128 0x3b
 2944 0225 0B       		.uleb128 0xb
 2945 0226 39       		.uleb128 0x39
 2946 0227 0B       		.uleb128 0xb
 2947 0228 49       		.uleb128 0x49
 2948 0229 13       		.uleb128 0x13
 2949 022a 02       		.uleb128 0x2
 2950 022b 17       		.uleb128 0x17
 2951 022c B742     		.uleb128 0x2137
 2952 022e 17       		.uleb128 0x17
 2953 022f 00       		.byte	0
 2954 0230 00       		.byte	0
 2955 0231 28       		.uleb128 0x28
 2956 0232 2E       		.uleb128 0x2e
 2957 0233 01       		.byte	0x1
 2958 0234 03       		.uleb128 0x3
 2959 0235 0E       		.uleb128 0xe
 2960 0236 3A       		.uleb128 0x3a
 2961 0237 0B       		.uleb128 0xb
 2962 0238 3B       		.uleb128 0x3b
 2963 0239 0B       		.uleb128 0xb
 2964 023a 39       		.uleb128 0x39
ARM GAS  /var/folders/l5/0x54b2c10074c8bt31ycjvl80000gp/T//ccAllaXx.s 			page 53


 2965 023b 0B       		.uleb128 0xb
 2966 023c 27       		.uleb128 0x27
 2967 023d 19       		.uleb128 0x19
 2968 023e 20       		.uleb128 0x20
 2969 023f 0B       		.uleb128 0xb
 2970 0240 01       		.uleb128 0x1
 2971 0241 13       		.uleb128 0x13
 2972 0242 00       		.byte	0
 2973 0243 00       		.byte	0
 2974 0244 29       		.uleb128 0x29
 2975 0245 2E       		.uleb128 0x2e
 2976 0246 01       		.byte	0x1
 2977 0247 31       		.uleb128 0x31
 2978 0248 13       		.uleb128 0x13
 2979 0249 11       		.uleb128 0x11
 2980 024a 01       		.uleb128 0x1
 2981 024b 12       		.uleb128 0x12
 2982 024c 06       		.uleb128 0x6
 2983 024d 40       		.uleb128 0x40
 2984 024e 18       		.uleb128 0x18
 2985 024f 9742     		.uleb128 0x2117
 2986 0251 19       		.uleb128 0x19
 2987 0252 01       		.uleb128 0x1
 2988 0253 13       		.uleb128 0x13
 2989 0254 00       		.byte	0
 2990 0255 00       		.byte	0
 2991 0256 2A       		.uleb128 0x2a
 2992 0257 05       		.uleb128 0x5
 2993 0258 00       		.byte	0
 2994 0259 31       		.uleb128 0x31
 2995 025a 13       		.uleb128 0x13
 2996 025b 02       		.uleb128 0x2
 2997 025c 18       		.uleb128 0x18
 2998 025d 00       		.byte	0
 2999 025e 00       		.byte	0
 3000 025f 2B       		.uleb128 0x2b
 3001 0260 2E       		.uleb128 0x2e
 3002 0261 01       		.byte	0x1
 3003 0262 31       		.uleb128 0x31
 3004 0263 13       		.uleb128 0x13
 3005 0264 11       		.uleb128 0x11
 3006 0265 01       		.uleb128 0x1
 3007 0266 12       		.uleb128 0x12
 3008 0267 06       		.uleb128 0x6
 3009 0268 40       		.uleb128 0x40
 3010 0269 18       		.uleb128 0x18
 3011 026a 9742     		.uleb128 0x2117
 3012 026c 19       		.uleb128 0x19
 3013 026d 00       		.byte	0
 3014 026e 00       		.byte	0
 3015 026f 00       		.byte	0
 3016              		.section	.debug_loc,"",%progbits
 3017              	.Ldebug_loc0:
 3018              	.LVUS1:
 3019 0000 01       		.uleb128 .LVU38
 3020 0001 00       		.uleb128 .LVU45
 3021 0002 00       		.uleb128 .LVU45
ARM GAS  /var/folders/l5/0x54b2c10074c8bt31ycjvl80000gp/T//ccAllaXx.s 			page 54


 3022 0003 03       		.uleb128 .LVU49
 3023              	.LLST1:
 3024 0004 24000000 		.4byte	.LVL4
 3025 0008 38000000 		.4byte	.LVL5
 3026 000c 0300     		.2byte	0x3
 3027 000e 91       		.byte	0x91
 3028 000f 5C       		.sleb128 -36
 3029 0010 9F       		.byte	0x9f
 3030 0011 38000000 		.4byte	.LVL5
 3031 0015 3C000000 		.4byte	.LVL6
 3032 0019 0100     		.2byte	0x1
 3033 001b 50       		.byte	0x50
 3034 001c 00000000 		.4byte	0
 3035 0020 00000000 		.4byte	0
 3036              	.LVUS2:
 3037 0024 05       		.uleb128 .LVU51
 3038 0025 07       		.uleb128 .LVU53
 3039              	.LLST2:
 3040 0026 3C000000 		.4byte	.LVL6
 3041 002a 3C000000 		.4byte	.LVL6
 3042 002e 0100     		.2byte	0x1
 3043 0030 50       		.byte	0x50
 3044 0031 00000000 		.4byte	0
 3045 0035 00000000 		.4byte	0
 3046              	.LVUS0:
 3047 0039 00       		.uleb128 .LVU10
 3048 003a 00       		.uleb128 .LVU12
 3049              	.LLST0:
 3050 003b 0C000000 		.4byte	.LVL2
 3051 003f 18000000 		.4byte	.LVL3
 3052 0043 0100     		.2byte	0x1
 3053 0045 53       		.byte	0x53
 3054 0046 00000000 		.4byte	0
 3055 004a 00000000 		.4byte	0
 3056              		.section	.debug_aranges,"",%progbits
 3057 0000 34000000 		.4byte	0x34
 3058 0004 0200     		.2byte	0x2
 3059 0006 00000000 		.4byte	.Ldebug_info0
 3060 000a 04       		.byte	0x4
 3061 000b 00       		.byte	0
 3062 000c 0000     		.2byte	0
 3063 000e 0000     		.2byte	0
 3064 0010 00000000 		.4byte	.LFB7
 3065 0014 14000000 		.4byte	.LFE7-.LFB7
 3066 0018 00000000 		.4byte	.LFB8
 3067 001c 4C000000 		.4byte	.LFE8-.LFB8
 3068 0020 00000000 		.4byte	.LFB9
 3069 0024 64000000 		.4byte	.LFE9-.LFB9
 3070 0028 00000000 		.4byte	.LFB10
 3071 002c 30000000 		.4byte	.LFE10-.LFB10
 3072 0030 00000000 		.4byte	0
 3073 0034 00000000 		.4byte	0
 3074              		.section	.debug_ranges,"",%progbits
 3075              	.Ldebug_ranges0:
 3076 0000 04000000 		.4byte	.LBB8
 3077 0004 08000000 		.4byte	.LBE8
 3078 0008 18000000 		.4byte	.LBB19
ARM GAS  /var/folders/l5/0x54b2c10074c8bt31ycjvl80000gp/T//ccAllaXx.s 			page 55


 3079 000c 20000000 		.4byte	.LBE19
 3080 0010 24000000 		.4byte	.LBB20
 3081 0014 28000000 		.4byte	.LBE20
 3082 0018 2C000000 		.4byte	.LBB22
 3083 001c 34000000 		.4byte	.LBE22
 3084 0020 38000000 		.4byte	.LBB23
 3085 0024 3C000000 		.4byte	.LBE23
 3086 0028 00000000 		.4byte	0
 3087 002c 00000000 		.4byte	0
 3088 0030 14000000 		.4byte	.LBB14
 3089 0034 18000000 		.4byte	.LBE14
 3090 0038 28000000 		.4byte	.LBB21
 3091 003c 2C000000 		.4byte	.LBE21
 3092 0040 3C000000 		.4byte	.LBB24
 3093 0044 3C000000 		.4byte	.LBE24
 3094 0048 3C000000 		.4byte	.LBB25
 3095 004c 40000000 		.4byte	.LBE25
 3096 0050 00000000 		.4byte	0
 3097 0054 00000000 		.4byte	0
 3098 0058 00000000 		.4byte	.LFB7
 3099 005c 14000000 		.4byte	.LFE7
 3100 0060 00000000 		.4byte	.LFB8
 3101 0064 4C000000 		.4byte	.LFE8
 3102 0068 00000000 		.4byte	.LFB9
 3103 006c 64000000 		.4byte	.LFE9
 3104 0070 00000000 		.4byte	.LFB10
 3105 0074 30000000 		.4byte	.LFE10
 3106 0078 00000000 		.4byte	0
 3107 007c 00000000 		.4byte	0
 3108              		.section	.debug_line,"",%progbits
 3109              	.Ldebug_line0:
 3110 0000 ED030000 		.section	.debug_str,"MS",%progbits,1
 3110      0300A602 
 3110      00000201 
 3110      FB0E0D00 
 3110      01010101 
 3111              	.LASF96:
 3112 0000 63665F6F 		.ascii	"cf_off_older\000"
 3112      66665F6F 
 3112      6C646572 
 3112      00
 3113              	.LASF209:
 3114 000d 2E2E2F2E 		.ascii	"../../os/hal/src/tm.c\000"
 3114      2E2F6F73 
 3114      2F68616C 
 3114      2F737263 
 3114      2F746D2E 
 3115              	.LASF42:
 3116 0023 705F6D73 		.ascii	"p_msg\000"
 3116      6700
 3117              	.LASF2:
 3118 0029 73697A65 		.ascii	"size_t\000"
 3118      5F7400
 3119              	.LASF81:
 3120 0030 7264796D 		.ascii	"rdymsg\000"
 3120      736700
 3121              	.LASF117:
ARM GAS  /var/folders/l5/0x54b2c10074c8bt31ycjvl80000gp/T//ccAllaXx.s 			page 56


 3122 0037 4F757470 		.ascii	"OutputQueue\000"
 3122      75745175 
 3122      65756500 
 3123              	.LASF3:
 3124 0043 5F5F7569 		.ascii	"__uint8_t\000"
 3124      6E74385F 
 3124      7400
 3125              	.LASF190:
 3126 004d 5350495F 		.ascii	"SPI_ACTIVE\000"
 3126      41435449 
 3126      564500
 3127              	.LASF68:
 3128 0058 76746C69 		.ascii	"vtlist\000"
 3128      737400
 3129              	.LASF119:
 3130 005f 62736364 		.ascii	"bscdevice_t\000"
 3130      65766963 
 3130      655F7400 
 3131              	.LASF128:
 3132 006b 68616C72 		.ascii	"halrtcnt_t\000"
 3132      74636E74 
 3132      5F7400
 3133              	.LASF164:
 3134 0076 72786275 		.ascii	"rxbuf\000"
 3134      6600
 3135              	.LASF110:
 3136 007c 715F746F 		.ascii	"q_top\000"
 3136      7000
 3137              	.LASF13:
 3138 0082 6C6F6E67 		.ascii	"long long unsigned int\000"
 3138      206C6F6E 
 3138      6720756E 
 3138      7369676E 
 3138      65642069 
 3139              	.LASF92:
 3140 0099 63685F74 		.ascii	"ch_threadsize\000"
 3140      68726561 
 3140      6473697A 
 3140      6500
 3141              	.LASF82:
 3142 00a7 65786974 		.ascii	"exitcode\000"
 3142      636F6465 
 3142      00
 3143              	.LASF193:
 3144 00b0 53504944 		.ascii	"SPIDriver\000"
 3144      72697665 
 3144      7200
 3145              	.LASF124:
 3146 00ba 64617461 		.ascii	"dataFifo\000"
 3146      4669666F 
 3146      00
 3147              	.LASF30:
 3148 00c3 705F7072 		.ascii	"p_prio\000"
 3148      696F00
 3149              	.LASF99:
 3150 00ca 63665F6F 		.ascii	"cf_off_state\000"
 3150      66665F73 
ARM GAS  /var/folders/l5/0x54b2c10074c8bt31ycjvl80000gp/T//ccAllaXx.s 			page 57


 3150      74617465 
 3150      00
 3151              	.LASF186:
 3152 00d7 72656164 		.ascii	"readt\000"
 3152      7400
 3153              	.LASF157:
 3154 00dd 64657669 		.ascii	"device\000"
 3154      636500
 3155              	.LASF107:
 3156 00e4 715F7761 		.ascii	"q_waiting\000"
 3156      6974696E 
 3156      6700
 3157              	.LASF12:
 3158 00ee 6C6F6E67 		.ascii	"long long int\000"
 3158      206C6F6E 
 3158      6720696E 
 3158      7400
 3159              	.LASF1:
 3160 00fc 7369676E 		.ascii	"signed char\000"
 3160      65642063 
 3160      68617200 
 3161              	.LASF98:
 3162 0108 63665F6F 		.ascii	"cf_off_stklimit\000"
 3162      66665F73 
 3162      746B6C69 
 3162      6D697400 
 3163              	.LASF188:
 3164 0118 5350495F 		.ascii	"SPI_STOP\000"
 3164      53544F50 
 3164      00
 3165              	.LASF100:
 3166 0121 63665F6F 		.ascii	"cf_off_flags\000"
 3166      66665F66 
 3166      6C616773 
 3166      00
 3167              	.LASF173:
 3168 012e 53445F53 		.ascii	"SD_STOP\000"
 3168      544F5000 
 3169              	.LASF71:
 3170 0136 6D5F7175 		.ascii	"m_queue\000"
 3170      65756500 
 3171              	.LASF160:
 3172 013e 61646472 		.ascii	"addr\000"
 3172      00
 3173              	.LASF181:
 3174 0143 77726974 		.ascii	"write\000"
 3174      6500
 3175              	.LASF21:
 3176 0149 74736C69 		.ascii	"tslices_t\000"
 3176      6365735F 
 3176      7400
 3177              	.LASF146:
 3178 0153 4932435F 		.ascii	"I2C_UNINIT\000"
 3178      554E494E 
 3178      495400
 3179              	.LASF168:
 3180 015e 69326361 		.ascii	"i2caddr_t\000"
ARM GAS  /var/folders/l5/0x54b2c10074c8bt31ycjvl80000gp/T//ccAllaXx.s 			page 58


 3180      6464725F 
 3180      7400
 3181              	.LASF154:
 3182 0168 73746174 		.ascii	"state\000"
 3182      6500
 3183              	.LASF9:
 3184 016e 6C6F6E67 		.ascii	"long int\000"
 3184      20696E74 
 3184      00
 3185              	.LASF19:
 3186 0177 74737461 		.ascii	"tstate_t\000"
 3186      74655F74 
 3186      00
 3187              	.LASF159:
 3188 0180 74687265 		.ascii	"thread\000"
 3188      616400
 3189              	.LASF126:
 3190 0187 64617461 		.ascii	"dataDelay\000"
 3190      44656C61 
 3190      7900
 3191              	.LASF166:
 3192 0191 72786964 		.ascii	"rxidx\000"
 3192      7800
 3193              	.LASF109:
 3194 0197 715F6275 		.ascii	"q_buffer\000"
 3194      66666572 
 3194      00
 3195              	.LASF15:
 3196 01a0 75696E74 		.ascii	"uint16_t\000"
 3196      31365F74 
 3196      00
 3197              	.LASF206:
 3198 01a9 53504930 		.ascii	"SPI0\000"
 3198      00
 3199              	.LASF104:
 3200 01ae 63686465 		.ascii	"chdebug_t\000"
 3200      6275675F 
 3200      7400
 3201              	.LASF149:
 3202 01b8 4932435F 		.ascii	"I2C_ACTIVE_TX\000"
 3202      41435449 
 3202      56455F54 
 3202      5800
 3203              	.LASF203:
 3204 01c6 636C6F63 		.ascii	"clock_phase\000"
 3204      6B5F7068 
 3204      61736500 
 3205              	.LASF32:
 3206 01d2 705F6E65 		.ascii	"p_newer\000"
 3206      77657200 
 3207              	.LASF118:
 3208 01da 5F69646C 		.ascii	"_idle_thread_wa\000"
 3208      655F7468 
 3208      72656164 
 3208      5F776100 
 3209              	.LASF196:
 3210 01ea 656E645F 		.ascii	"end_cb\000"
ARM GAS  /var/folders/l5/0x54b2c10074c8bt31ycjvl80000gp/T//ccAllaXx.s 			page 59


 3210      636200
 3211              	.LASF194:
 3212 01f1 7478636E 		.ascii	"txcnt\000"
 3212      7400
 3213              	.LASF200:
 3214 01f7 63686970 		.ascii	"chip_select_polarity0\000"
 3214      5F73656C 
 3214      6563745F 
 3214      706F6C61 
 3214      72697479 
 3215              	.LASF201:
 3216 020d 63686970 		.ascii	"chip_select_polarity1\000"
 3216      5F73656C 
 3216      6563745F 
 3216      706F6C61 
 3216      72697479 
 3217              	.LASF120:
 3218 0223 636F6E74 		.ascii	"control\000"
 3218      726F6C00 
 3219              	.LASF10:
 3220 022b 5F5F7569 		.ascii	"__uint32_t\000"
 3220      6E743332 
 3220      5F7400
 3221              	.LASF49:
 3222 0236 72656761 		.ascii	"regarm_t\000"
 3222      726D5F74 
 3222      00
 3223              	.LASF55:
 3224 023f 76745F70 		.ascii	"vt_prev\000"
 3224      72657600 
 3225              	.LASF123:
 3226 0247 736C6176 		.ascii	"slaveAddress\000"
 3226      65416464 
 3226      72657373 
 3226      00
 3227              	.LASF195:
 3228 0254 73706963 		.ascii	"spicallback_t\000"
 3228      616C6C62 
 3228      61636B5F 
 3228      7400
 3229              	.LASF171:
 3230 0262 49324330 		.ascii	"I2C0\000"
 3230      00
 3231              	.LASF79:
 3232 0267 4576656E 		.ascii	"EventSource\000"
 3232      74536F75 
 3232      72636500 
 3233              	.LASF0:
 3234 0273 756E7369 		.ascii	"unsigned int\000"
 3234      676E6564 
 3234      20696E74 
 3234      00
 3235              	.LASF54:
 3236 0280 76745F6E 		.ascii	"vt_next\000"
 3236      65787400 
 3237              	.LASF161:
 3238 0288 74786275 		.ascii	"txbuf\000"
ARM GAS  /var/folders/l5/0x54b2c10074c8bt31ycjvl80000gp/T//ccAllaXx.s 			page 60


 3238      6600
 3239              	.LASF180:
 3240 028e 53657269 		.ascii	"SerialDriverVMT\000"
 3240      616C4472 
 3240      69766572 
 3240      564D5400 
 3241              	.LASF156:
 3242 029e 6572726F 		.ascii	"errors\000"
 3242      727300
 3243              	.LASF178:
 3244 02a5 69717565 		.ascii	"iqueue\000"
 3244      756500
 3245              	.LASF11:
 3246 02ac 6C6F6E67 		.ascii	"long unsigned int\000"
 3246      20756E73 
 3246      69676E65 
 3246      6420696E 
 3246      7400
 3247              	.LASF105:
 3248 02be 63685F64 		.ascii	"ch_debug\000"
 3248      65627567 
 3248      00
 3249              	.LASF212:
 3250 02c7 746D496E 		.ascii	"tmInit\000"
 3250      697400
 3251              	.LASF184:
 3252 02ce 67657474 		.ascii	"gett\000"
 3252      00
 3253              	.LASF52:
 3254 02d3 76746675 		.ascii	"vtfunc_t\000"
 3254      6E635F74 
 3254      00
 3255              	.LASF86:
 3256 02dc 63685F69 		.ascii	"ch_identifier\000"
 3256      64656E74 
 3256      69666965 
 3256      7200
 3257              	.LASF129:
 3258 02ea 54696D65 		.ascii	"TimeMeasurement\000"
 3258      4D656173 
 3258      7572656D 
 3258      656E7400 
 3259              	.LASF199:
 3260 02fa 63686970 		.ascii	"chip_select_polarity\000"
 3260      5F73656C 
 3260      6563745F 
 3260      706F6C61 
 3260      72697479 
 3261              	.LASF177:
 3262 030f 6576656E 		.ascii	"event\000"
 3262      7400
 3263              	.LASF51:
 3264 0315 636F6E74 		.ascii	"context\000"
 3264      65787400 
 3265              	.LASF7:
 3266 031d 73686F72 		.ascii	"short unsigned int\000"
 3266      7420756E 
ARM GAS  /var/folders/l5/0x54b2c10074c8bt31ycjvl80000gp/T//ccAllaXx.s 			page 61


 3266      7369676E 
 3266      65642069 
 3266      6E7400
 3267              	.LASF141:
 3268 0330 6770696F 		.ascii	"gpio_port_t\000"
 3268      5F706F72 
 3268      745F7400 
 3269              	.LASF137:
 3270 033c 6770636C 		.ascii	"gpclr\000"
 3270      7200
 3271              	.LASF23:
 3272 0342 6D73675F 		.ascii	"msg_t\000"
 3272      7400
 3273              	.LASF132:
 3274 0348 6C617374 		.ascii	"last\000"
 3274      00
 3275              	.LASF64:
 3276 034d 725F6E65 		.ascii	"r_newer\000"
 3276      77657200 
 3277              	.LASF75:
 3278 0355 656C5F6E 		.ascii	"el_next\000"
 3278      65787400 
 3279              	.LASF208:
 3280 035d 474E5520 		.ascii	"GNU C17 8.3.1 20190703 (release) [gcc-8-branch revi"
 3280      43313720 
 3280      382E332E 
 3280      31203230 
 3280      31393037 
 3281 0390 73696F6E 		.ascii	"sion 273027] -mcpu=arm1176jz-s -mno-thumb-interwork"
 3281      20323733 
 3281      3032375D 
 3281      202D6D63 
 3281      70753D61 
 3282 03c3 202D6D66 		.ascii	" -mfloat-abi=soft -marm -march=armv6kz -ggdb -O2 -f"
 3282      6C6F6174 
 3282      2D616269 
 3282      3D736F66 
 3282      74202D6D 
 3283 03f6 6F6D6974 		.ascii	"omit-frame-pointer -ffunction-sections -fdata-secti"
 3283      2D667261 
 3283      6D652D70 
 3283      6F696E74 
 3283      6572202D 
 3284 0429 6F6E7300 		.ascii	"ons\000"
 3285              	.LASF185:
 3286 042d 77726974 		.ascii	"writet\000"
 3286      657400
 3287              	.LASF18:
 3288 0434 746D6F64 		.ascii	"tmode_t\000"
 3288      655F7400 
 3289              	.LASF211:
 3290 043c 746D4F62 		.ascii	"tmObjectInit\000"
 3290      6A656374 
 3290      496E6974 
 3290      00
 3291              	.LASF47:
 3292 0449 54687265 		.ascii	"ThreadsList\000"
ARM GAS  /var/folders/l5/0x54b2c10074c8bt31ycjvl80000gp/T//ccAllaXx.s 			page 62


 3292      6164734C 
 3292      69737400 
 3293              	.LASF24:
 3294 0455 6576656E 		.ascii	"eventmask_t\000"
 3294      746D6173 
 3294      6B5F7400 
 3295              	.LASF116:
 3296 0461 496E7075 		.ascii	"InputQueue\000"
 3296      74517565 
 3296      756500
 3297              	.LASF70:
 3298 046c 4D757465 		.ascii	"Mutex\000"
 3298      7800
 3299              	.LASF106:
 3300 0472 47656E65 		.ascii	"GenericQueue\000"
 3300      72696351 
 3300      75657565 
 3300      00
 3301              	.LASF48:
 3302 047f 73746B61 		.ascii	"stkalign_t\000"
 3302      6C69676E 
 3302      5F7400
 3303              	.LASF87:
 3304 048a 63685F7A 		.ascii	"ch_zero\000"
 3304      65726F00 
 3305              	.LASF101:
 3306 0492 63665F6F 		.ascii	"cf_off_refs\000"
 3306      66665F72 
 3306      65667300 
 3307              	.LASF138:
 3308 049e 67706C65 		.ascii	"gplev\000"
 3308      7600
 3309              	.LASF183:
 3310 04a4 70757474 		.ascii	"putt\000"
 3310      00
 3311              	.LASF56:
 3312 04a9 76745F74 		.ascii	"vt_time\000"
 3312      696D6500 
 3313              	.LASF147:
 3314 04b1 4932435F 		.ascii	"I2C_STOP\000"
 3314      53544F50 
 3314      00
 3315              	.LASF125:
 3316 04ba 636C6F63 		.ascii	"clockDivider\000"
 3316      6B446976 
 3316      69646572 
 3316      00
 3317              	.LASF207:
 3318 04c7 6D656173 		.ascii	"measurement_offset\000"
 3318      7572656D 
 3318      656E745F 
 3318      6F666673 
 3318      657400
 3319              	.LASF108:
 3320 04da 715F636F 		.ascii	"q_counter\000"
 3320      756E7465 
 3320      7200
ARM GAS  /var/folders/l5/0x54b2c10074c8bt31ycjvl80000gp/T//ccAllaXx.s 			page 63


 3321              	.LASF57:
 3322 04e4 76745F66 		.ascii	"vt_func\000"
 3322      756E6300 
 3323              	.LASF91:
 3324 04ec 63685F74 		.ascii	"ch_timesize\000"
 3324      696D6573 
 3324      697A6500 
 3325              	.LASF169:
 3326 04f8 69635F73 		.ascii	"ic_speed\000"
 3326      70656564 
 3326      00
 3327              	.LASF97:
 3328 0501 63665F6F 		.ascii	"cf_off_name\000"
 3328      66665F6E 
 3328      616D6500 
 3329              	.LASF33:
 3330 050d 705F6F6C 		.ascii	"p_older\000"
 3330      64657200 
 3331              	.LASF165:
 3332 0515 72786279 		.ascii	"rxbytes\000"
 3332      74657300 
 3333              	.LASF111:
 3334 051d 715F7772 		.ascii	"q_wrptr\000"
 3334      70747200 
 3335              	.LASF63:
 3336 0525 725F6374 		.ascii	"r_ctx\000"
 3336      7800
 3337              	.LASF46:
 3338 052b 54687265 		.ascii	"ThreadsQueue\000"
 3338      61647351 
 3338      75657565 
 3338      00
 3339              	.LASF210:
 3340 0538 2F557365 		.ascii	"/Users/fernandoguirado/Desktop/Chibi/ChibiOS-RPi/de"
 3340      72732F66 
 3340      65726E61 
 3340      6E646F67 
 3340      75697261 
 3341 056b 6D6F732F 		.ascii	"mos/Serial_LCD\000"
 3341      53657269 
 3341      616C5F4C 
 3341      434400
 3342              	.LASF88:
 3343 057a 63685F73 		.ascii	"ch_size\000"
 3343      697A6500 
 3344              	.LASF143:
 3345 0582 494F504F 		.ascii	"IOPORT0\000"
 3345      52543000 
 3346              	.LASF133:
 3347 058a 776F7273 		.ascii	"worst\000"
 3347      7400
 3348              	.LASF66:
 3349 0590 725F6375 		.ascii	"r_current\000"
 3349      7272656E 
 3349      7400
 3350              	.LASF65:
 3351 059a 725F6F6C 		.ascii	"r_older\000"
ARM GAS  /var/folders/l5/0x54b2c10074c8bt31ycjvl80000gp/T//ccAllaXx.s 			page 64


 3351      64657200 
 3352              	.LASF77:
 3353 05a2 656C5F6D 		.ascii	"el_mask\000"
 3353      61736B00 
 3354              	.LASF179:
 3355 05aa 6F717565 		.ascii	"oqueue\000"
 3355      756500
 3356              	.LASF136:
 3357 05b1 67707365 		.ascii	"gpset\000"
 3357      7400
 3358              	.LASF139:
 3359 05b7 67707075 		.ascii	"gppudclk\000"
 3359      64636C6B 
 3359      00
 3360              	.LASF197:
 3361 05c0 6C6F7373 		.ascii	"lossiEnabled\000"
 3361      69456E61 
 3361      626C6564 
 3361      00
 3362              	.LASF198:
 3363 05cd 63686970 		.ascii	"chip_select\000"
 3363      5F73656C 
 3363      65637400 
 3364              	.LASF20:
 3365 05d9 74726566 		.ascii	"trefs_t\000"
 3365      735F7400 
 3366              	.LASF152:
 3367 05e1 69326373 		.ascii	"i2cstate_t\000"
 3367      74617465 
 3367      5F7400
 3368              	.LASF90:
 3369 05ec 63685F70 		.ascii	"ch_ptrsize\000"
 3369      74727369 
 3369      7A6500
 3370              	.LASF115:
 3371 05f7 716E6F74 		.ascii	"qnotify_t\000"
 3371      6966795F 
 3371      7400
 3372              	.LASF29:
 3373 0601 705F7072 		.ascii	"p_prev\000"
 3373      657600
 3374              	.LASF22:
 3375 0608 74707269 		.ascii	"tprio_t\000"
 3375      6F5F7400 
 3376              	.LASF112:
 3377 0610 715F7264 		.ascii	"q_rdptr\000"
 3377      70747200 
 3378              	.LASF167:
 3379 0618 69326366 		.ascii	"i2cflags_t\000"
 3379      6C616773 
 3379      5F7400
 3380              	.LASF158:
 3381 0623 6D757465 		.ascii	"mutex\000"
 3381      7800
 3382              	.LASF16:
 3383 0629 696E7433 		.ascii	"int32_t\000"
 3383      325F7400 
ARM GAS  /var/folders/l5/0x54b2c10074c8bt31ycjvl80000gp/T//ccAllaXx.s 			page 65


 3384              	.LASF4:
 3385 0631 756E7369 		.ascii	"unsigned char\000"
 3385      676E6564 
 3385      20636861 
 3385      7200
 3386              	.LASF76:
 3387 063f 656C5F6C 		.ascii	"el_listener\000"
 3387      69737465 
 3387      6E657200 
 3388              	.LASF78:
 3389 064b 656C5F66 		.ascii	"el_flags\000"
 3389      6C616773 
 3389      00
 3390              	.LASF44:
 3391 0654 705F6D74 		.ascii	"p_mtxlist\000"
 3391      786C6973 
 3391      7400
 3392              	.LASF5:
 3393 065e 73686F72 		.ascii	"short int\000"
 3393      7420696E 
 3393      7400
 3394              	.LASF35:
 3395 0668 705F7374 		.ascii	"p_state\000"
 3395      61746500 
 3396              	.LASF38:
 3397 0670 705F7072 		.ascii	"p_preempt\000"
 3397      65656D70 
 3397      7400
 3398              	.LASF103:
 3399 067a 63665F6F 		.ascii	"cf_off_time\000"
 3399      66665F74 
 3399      696D6500 
 3400              	.LASF62:
 3401 0686 725F7072 		.ascii	"r_prio\000"
 3401      696F00
 3402              	.LASF140:
 3403 068d 70696E5F 		.ascii	"pin_base\000"
 3403      62617365 
 3403      00
 3404              	.LASF84:
 3405 0696 65776D61 		.ascii	"ewmask\000"
 3405      736B00
 3406              	.LASF28:
 3407 069d 705F6E65 		.ascii	"p_next\000"
 3407      787400
 3408              	.LASF144:
 3409 06a4 494F504F 		.ascii	"IOPORT1\000"
 3409      52543100 
 3410              	.LASF102:
 3411 06ac 63665F6F 		.ascii	"cf_off_preempt\000"
 3411      66665F70 
 3411      7265656D 
 3411      707400
 3412              	.LASF36:
 3413 06bb 705F666C 		.ascii	"p_flags\000"
 3413      61677300 
 3414              	.LASF27:
ARM GAS  /var/folders/l5/0x54b2c10074c8bt31ycjvl80000gp/T//ccAllaXx.s 			page 66


 3415 06c3 54687265 		.ascii	"Thread\000"
 3415      616400
 3416              	.LASF204:
 3417 06ca 636C6F63 		.ascii	"clock_divider\000"
 3417      6B5F6469 
 3417      76696465 
 3417      7200
 3418              	.LASF95:
 3419 06d8 63665F6F 		.ascii	"cf_off_newer\000"
 3419      66665F6E 
 3419      65776572 
 3419      00
 3420              	.LASF151:
 3421 06e5 4932435F 		.ascii	"I2C_LOCKED\000"
 3421      4C4F434B 
 3421      454400
 3422              	.LASF43:
 3423 06f0 705F6570 		.ascii	"p_epending\000"
 3423      656E6469 
 3423      6E6700
 3424              	.LASF172:
 3425 06fb 53445F55 		.ascii	"SD_UNINIT\000"
 3425      4E494E49 
 3425      5400
 3426              	.LASF17:
 3427 0705 75696E74 		.ascii	"uint32_t\000"
 3427      33325F74 
 3427      00
 3428              	.LASF93:
 3429 070e 63665F6F 		.ascii	"cf_off_prio\000"
 3429      66665F70 
 3429      72696F00 
 3430              	.LASF61:
 3431 071a 725F7175 		.ascii	"r_queue\000"
 3431      65756500 
 3432              	.LASF53:
 3433 0722 56697274 		.ascii	"VirtualTimer\000"
 3433      75616C54 
 3433      696D6572 
 3433      00
 3434              	.LASF176:
 3435 072f 53657269 		.ascii	"SerialDriver\000"
 3435      616C4472 
 3435      69766572 
 3435      00
 3436              	.LASF150:
 3437 073c 4932435F 		.ascii	"I2C_ACTIVE_RX\000"
 3437      41435449 
 3437      56455F52 
 3437      5800
 3438              	.LASF182:
 3439 074a 72656164 		.ascii	"read\000"
 3439      00
 3440              	.LASF85:
 3441 074f 63686172 		.ascii	"char\000"
 3441      00
 3442              	.LASF191:
ARM GAS  /var/folders/l5/0x54b2c10074c8bt31ycjvl80000gp/T//ccAllaXx.s 			page 67


 3443 0754 5350495F 		.ascii	"SPI_COMPLETE\000"
 3443      434F4D50 
 3443      4C455445 
 3443      00
 3444              	.LASF155:
 3445 0761 636F6E66 		.ascii	"config\000"
 3445      696700
 3446              	.LASF6:
 3447 0768 5F5F7569 		.ascii	"__uint16_t\000"
 3447      6E743136 
 3447      5F7400
 3448              	.LASF213:
 3449 0773 746D5F73 		.ascii	"tm_stop\000"
 3449      746F7000 
 3450              	.LASF134:
 3451 077b 62657374 		.ascii	"best\000"
 3451      00
 3452              	.LASF192:
 3453 0780 73706973 		.ascii	"spistate_t\000"
 3453      74617465 
 3453      5F7400
 3454              	.LASF73:
 3455 078b 6D5F6E65 		.ascii	"m_next\000"
 3455      787400
 3456              	.LASF26:
 3457 0792 73797374 		.ascii	"systime_t\000"
 3457      696D655F 
 3457      7400
 3458              	.LASF45:
 3459 079c 705F7265 		.ascii	"p_realprio\000"
 3459      616C7072 
 3459      696F00
 3460              	.LASF8:
 3461 07a7 5F5F696E 		.ascii	"__int32_t\000"
 3461      7433325F 
 3461      7400
 3462              	.LASF148:
 3463 07b1 4932435F 		.ascii	"I2C_READY\000"
 3463      52454144 
 3463      5900
 3464              	.LASF153:
 3465 07bb 49324344 		.ascii	"I2CDriver\000"
 3465      72697665 
 3465      7200
 3466              	.LASF39:
 3467 07c5 705F7469 		.ascii	"p_time\000"
 3467      6D6500
 3468              	.LASF202:
 3469 07cc 636C6F63 		.ascii	"clock_polarity\000"
 3469      6B5F706F 
 3469      6C617269 
 3469      747900
 3470              	.LASF50:
 3471 07db 696E7463 		.ascii	"intctx\000"
 3471      747800
 3472              	.LASF41:
 3473 07e2 705F6D73 		.ascii	"p_msgqueue\000"
ARM GAS  /var/folders/l5/0x54b2c10074c8bt31ycjvl80000gp/T//ccAllaXx.s 			page 68


 3473      67717565 
 3473      756500
 3474              	.LASF174:
 3475 07ed 53445F52 		.ascii	"SD_READY\000"
 3475      45414459 
 3475      00
 3476              	.LASF189:
 3477 07f6 5350495F 		.ascii	"SPI_READY\000"
 3477      52454144 
 3477      5900
 3478              	.LASF187:
 3479 0800 5350495F 		.ascii	"SPI_UNINIT\000"
 3479      554E494E 
 3479      495400
 3480              	.LASF58:
 3481 080b 76745F70 		.ascii	"vt_par\000"
 3481      617200
 3482              	.LASF25:
 3483 0812 666C6167 		.ascii	"flagsmask_t\000"
 3483      736D6173 
 3483      6B5F7400 
 3484              	.LASF170:
 3485 081e 49324343 		.ascii	"I2CConfig\000"
 3485      6F6E6669 
 3485      6700
 3486              	.LASF175:
 3487 0828 73647374 		.ascii	"sdstate_t\000"
 3487      6174655F 
 3487      7400
 3488              	.LASF163:
 3489 0832 74786964 		.ascii	"txidx\000"
 3489      7800
 3490              	.LASF94:
 3491 0838 63665F6F 		.ascii	"cf_off_ctx\000"
 3491      66665F63 
 3491      747800
 3492              	.LASF37:
 3493 0843 705F7265 		.ascii	"p_refs\000"
 3493      667300
 3494              	.LASF121:
 3495 084a 73746174 		.ascii	"status\000"
 3495      757300
 3496              	.LASF67:
 3497 0851 52656164 		.ascii	"ReadyList\000"
 3497      794C6973 
 3497      7400
 3498              	.LASF113:
 3499 085b 715F6E6F 		.ascii	"q_notify\000"
 3499      74696679 
 3499      00
 3500              	.LASF69:
 3501 0864 726C6973 		.ascii	"rlist\000"
 3501      7400
 3502              	.LASF14:
 3503 086a 75696E74 		.ascii	"uint8_t\000"
 3503      385F7400 
 3504              	.LASF135:
ARM GAS  /var/folders/l5/0x54b2c10074c8bt31ycjvl80000gp/T//ccAllaXx.s 			page 69


 3505 0872 6C617463 		.ascii	"latch\000"
 3505      6800
 3506              	.LASF74:
 3507 0878 4576656E 		.ascii	"EventListener\000"
 3507      744C6973 
 3507      74656E65 
 3507      7200
 3508              	.LASF83:
 3509 0886 77746F62 		.ascii	"wtobjp\000"
 3509      6A7000
 3510              	.LASF34:
 3511 088d 705F6E61 		.ascii	"p_name\000"
 3511      6D6500
 3512              	.LASF59:
 3513 0894 76745F73 		.ascii	"vt_systime\000"
 3513      79737469 
 3513      6D6500
 3514              	.LASF80:
 3515 089f 65735F6E 		.ascii	"es_next\000"
 3515      65787400 
 3516              	.LASF205:
 3517 08a7 53504943 		.ascii	"SPIConfig\000"
 3517      6F6E6669 
 3517      6700
 3518              	.LASF89:
 3519 08b1 63685F76 		.ascii	"ch_version\000"
 3519      65727369 
 3519      6F6E00
 3520              	.LASF130:
 3521 08bc 73746172 		.ascii	"start\000"
 3521      7400
 3522              	.LASF122:
 3523 08c2 64617461 		.ascii	"dataLength\000"
 3523      4C656E67 
 3523      746800
 3524              	.LASF60:
 3525 08cd 56544C69 		.ascii	"VTList\000"
 3525      737400
 3526              	.LASF114:
 3527 08d4 715F6C69 		.ascii	"q_link\000"
 3527      6E6B00
 3528              	.LASF131:
 3529 08db 73746F70 		.ascii	"stop\000"
 3529      00
 3530              	.LASF142:
 3531 08e0 50414C43 		.ascii	"PALConfig\000"
 3531      6F6E6669 
 3531      6700
 3532              	.LASF72:
 3533 08ea 6D5F6F77 		.ascii	"m_owner\000"
 3533      6E657200 
 3534              	.LASF214:
 3535 08f2 746D5F73 		.ascii	"tm_start\000"
 3535      74617274 
 3535      00
 3536              	.LASF145:
 3537 08fb 70616C5F 		.ascii	"pal_default_config\000"
ARM GAS  /var/folders/l5/0x54b2c10074c8bt31ycjvl80000gp/T//ccAllaXx.s 			page 70


 3537      64656661 
 3537      756C745F 
 3537      636F6E66 
 3537      696700
 3538              	.LASF31:
 3539 090e 705F6374 		.ascii	"p_ctx\000"
 3539      7800
 3540              	.LASF40:
 3541 0914 705F7761 		.ascii	"p_waiting\000"
 3541      6974696E 
 3541      6700
 3542              	.LASF162:
 3543 091e 74786279 		.ascii	"txbytes\000"
 3543      74657300 
 3544              	.LASF127:
 3545 0926 636C6F63 		.ascii	"clockStretchTimeout\000"
 3545      6B537472 
 3545      65746368 
 3545      54696D65 
 3545      6F757400 
 3546              		.ident	"GCC: (GNU Tools for Arm Embedded Processors 8-2019-q3-update) 8.3.1 20190703 (release) [gc
ARM GAS  /var/folders/l5/0x54b2c10074c8bt31ycjvl80000gp/T//ccAllaXx.s 			page 71


DEFINED SYMBOLS
                            *ABS*:0000000000000000 tm.c
/var/folders/l5/0x54b2c10074c8bt31ycjvl80000gp/T//ccAllaXx.s:16     .text.tm_start:0000000000000000 $a
/var/folders/l5/0x54b2c10074c8bt31ycjvl80000gp/T//ccAllaXx.s:22     .text.tm_start:0000000000000000 tm_start
/var/folders/l5/0x54b2c10074c8bt31ycjvl80000gp/T//ccAllaXx.s:42     .text.tm_start:0000000000000010 $d
/var/folders/l5/0x54b2c10074c8bt31ycjvl80000gp/T//ccAllaXx.s:47     .text.tm_stop:0000000000000000 $a
/var/folders/l5/0x54b2c10074c8bt31ycjvl80000gp/T//ccAllaXx.s:52     .text.tm_stop:0000000000000000 tm_stop
/var/folders/l5/0x54b2c10074c8bt31ycjvl80000gp/T//ccAllaXx.s:102    .text.tm_stop:0000000000000044 $d
/var/folders/l5/0x54b2c10074c8bt31ycjvl80000gp/T//ccAllaXx.s:108    .text.tmInit:0000000000000000 $a
/var/folders/l5/0x54b2c10074c8bt31ycjvl80000gp/T//ccAllaXx.s:114    .text.tmInit:0000000000000000 tmInit
/var/folders/l5/0x54b2c10074c8bt31ycjvl80000gp/T//ccAllaXx.s:226    .text.tmInit:0000000000000054 $d
/var/folders/l5/0x54b2c10074c8bt31ycjvl80000gp/T//ccAllaXx.s:234    .text.tmObjectInit:0000000000000000 $a
/var/folders/l5/0x54b2c10074c8bt31ycjvl80000gp/T//ccAllaXx.s:240    .text.tmObjectInit:0000000000000000 tmObjectInit
/var/folders/l5/0x54b2c10074c8bt31ycjvl80000gp/T//ccAllaXx.s:276    .text.tmObjectInit:0000000000000028 $d
/var/folders/l5/0x54b2c10074c8bt31ycjvl80000gp/T//ccAllaXx.s:282    .bss.measurement_offset:0000000000000000 $d
/var/folders/l5/0x54b2c10074c8bt31ycjvl80000gp/T//ccAllaXx.s:286    .bss.measurement_offset:0000000000000000 measurement_offset

NO UNDEFINED SYMBOLS
