ARM GAS  /var/folders/l5/0x54b2c10074c8bt31ycjvl80000gp/T//ccAllaXx.s 			page 1


   1              		.cpu arm1176jz-s
   2              		.eabi_attribute 20, 1
   3              		.eabi_attribute 21, 1
   4              		.eabi_attribute 23, 3
   5              		.eabi_attribute 24, 1
   6              		.eabi_attribute 25, 1
   7              		.eabi_attribute 26, 1
   8              		.eabi_attribute 30, 2
   9              		.eabi_attribute 34, 1
  10              		.eabi_attribute 18, 4
  11              		.file	"tm.c"
  12              		.text
  13              	.Ltext0:
  14              		.cfi_sections	.debug_frame
  15              		.section	.text.tm_start,"ax",%progbits
  16              		.align	2
  17              		.arch armv6kz
  18              		.syntax unified
  19              		.arm
  20              		.fpu softvfp
  21              		.type	tm_start, %function
  22              	tm_start:
  23              	.LVL0:
  24              	.LFB7:
  25              		.file 1 "../../os/hal/src/tm.c"
  26              		.loc 1 62 44 view -0
  27              		.cfi_startproc
  28              		@ args = 0, pretend = 0, frame = 0
  29              		@ frame_needed = 0, uses_anonymous_args = 0
  30              		@ link register save eliminated.
  31              		.loc 1 64 3 view .LVU1
  32              		.loc 1 64 15 is_stmt 0 view .LVU2
  33 0000 08309FE5 		ldr	r3, .L3
  34 0004 043093E5 		ldr	r3, [r3, #4]
  35              		.loc 1 64 13 view .LVU3
  36 0008 083080E5 		str	r3, [r0, #8]
  37              		.loc 1 65 1 view .LVU4
  38 000c 1EFF2FE1 		bx	lr
  39              	.L4:
  40              		.align	2
  41              	.L3:
  42 0010 00300020 		.word	536883200
  43              		.cfi_endproc
  44              	.LFE7:
  45              		.size	tm_start, .-tm_start
  46              		.section	.text.tm_stop,"ax",%progbits
  47              		.align	2
  48              		.syntax unified
  49              		.arm
  50              		.fpu softvfp
  51              		.type	tm_stop, %function
  52              	tm_stop:
  53              	.LVL1:
  54              	.LFB8:
  55              		.loc 1 74 43 is_stmt 1 view -0
  56              		.cfi_startproc
  57              		@ args = 0, pretend = 0, frame = 0
ARM GAS  /var/folders/l5/0x54b2c10074c8bt31ycjvl80000gp/T//ccAllaXx.s 			page 2


  58              		@ frame_needed = 0, uses_anonymous_args = 0
  59              		@ link register save eliminated.
  60              		.loc 1 76 3 view .LVU6
  61              		.loc 1 76 14 is_stmt 0 view .LVU7
  62 0000 3C309FE5 		ldr	r3, .L8
  63              		.loc 1 77 31 view .LVU8
  64 0004 3C209FE5 		ldr	r2, .L8+4
  65              		.loc 1 76 14 view .LVU9
  66 0008 043093E5 		ldr	r3, [r3, #4]
  67              	.LVL2:
  68              		.loc 1 77 3 is_stmt 1 view .LVU10
  69              		.loc 1 77 31 is_stmt 0 view .LVU11
  70 000c 002092E5 		ldr	r2, [r2]
  71 0010 081090E5 		ldr	r1, [r0, #8]
  72 0014 023043E0 		sub	r3, r3, r2
  73              	.LVL3:
  74              		.loc 1 78 6 view .LVU12
  75 0018 0C2090E5 		ldr	r2, [r0, #12]
  76              		.loc 1 77 31 view .LVU13
  77 001c 013043E0 		sub	r3, r3, r1
  78              		.loc 1 78 6 view .LVU14
  79 0020 020053E1 		cmp	r3, r2
  80              		.loc 1 77 13 view .LVU15
  81 0024 083080E5 		str	r3, [r0, #8]
  82              		.loc 1 78 3 is_stmt 1 view .LVU16
  83              		.loc 1 78 6 is_stmt 0 view .LVU17
  84 0028 0100009A 		bls	.L6
  85              		.loc 1 79 7 is_stmt 1 view .LVU18
  86              		.loc 1 79 18 is_stmt 0 view .LVU19
  87 002c 0C3080E5 		str	r3, [r0, #12]
  88 0030 1EFF2FE1 		bx	lr
  89              	.L6:
  90              		.loc 1 80 8 is_stmt 1 view .LVU20
  91              		.loc 1 80 11 is_stmt 0 view .LVU21
  92 0034 102090E5 		ldr	r2, [r0, #16]
  93 0038 020053E1 		cmp	r3, r2
  94              		.loc 1 81 7 is_stmt 1 view .LVU22
  95              		.loc 1 81 17 is_stmt 0 view .LVU23
  96 003c 10308035 		strcc	r3, [r0, #16]
  97              		.loc 1 82 1 view .LVU24
  98 0040 1EFF2FE1 		bx	lr
  99              	.L9:
 100              		.align	2
 101              	.L8:
 102 0044 00300020 		.word	536883200
 103 0048 00000000 		.word	.LANCHOR0
 104              		.cfi_endproc
 105              	.LFE8:
 106              		.size	tm_stop, .-tm_stop
 107              		.section	.text.tmInit,"ax",%progbits
 108              		.align	2
 109              		.global	tmInit
 110              		.syntax unified
 111              		.arm
 112              		.fpu softvfp
 113              		.type	tmInit, %function
 114              	tmInit:
ARM GAS  /var/folders/l5/0x54b2c10074c8bt31ycjvl80000gp/T//ccAllaXx.s 			page 3


 115              	.LFB9:
 116              		.loc 1 97 19 is_stmt 1 view -0
 117              		.cfi_startproc
 118              		@ args = 0, pretend = 0, frame = 24
 119              		@ frame_needed = 0, uses_anonymous_args = 0
 120              		.loc 1 98 3 view .LVU26
 121              		.loc 1 103 3 view .LVU27
 122              		.loc 1 103 22 is_stmt 0 view .LVU28
 123 0000 0030A0E3 		mov	r3, #0
 124              	.LBB8:
 125              	.LBB9:
 126              		.loc 1 123 14 view .LVU29
 127 0004 0010E0E3 		mvn	r1, #0
 128              	.LBE9:
 129              	.LBE8:
 130              		.loc 1 97 19 view .LVU30
 131 0008 10402DE9 		push	{r4, lr}
 132              		.cfi_def_cfa_offset 8
 133              		.cfi_offset 4, -8
 134              		.cfi_offset 14, -4
 135              		.loc 1 103 22 view .LVU31
 136 000c 40409FE5 		ldr	r4, .L12
 137              		.loc 1 97 19 view .LVU32
 138 0010 18D04DE2 		sub	sp, sp, #24
 139              		.cfi_def_cfa_offset 32
 140              	.LBB14:
 141              	.LBB15:
 142              		.loc 1 64 15 view .LVU33
 143 0014 3C209FE5 		ldr	r2, .L12+4
 144              	.LBE15:
 145              	.LBE14:
 146              	.LBB19:
 147              	.LBB10:
 148              		.loc 1 121 14 view .LVU34
 149 0018 0C308DE5 		str	r3, [sp, #12]
 150              		.loc 1 122 14 view .LVU35
 151 001c 10308DE5 		str	r3, [sp, #16]
 152              	.LBE10:
 153              	.LBE19:
 154              		.loc 1 103 22 view .LVU36
 155 0020 003084E5 		str	r3, [r4]
 156              		.loc 1 104 3 is_stmt 1 view .LVU37
 157              	.LVL4:
 158              	.LBB20:
 159              	.LBI8:
 160              		.loc 1 117 6 view .LVU38
 161              	.LBB11:
 162              		.loc 1 119 3 view .LVU39
 163              		.loc 1 123 14 is_stmt 0 view .LVU40
 164 0024 14108DE5 		str	r1, [sp, #20]
 165              	.LBE11:
 166              	.LBE20:
 167              	.LBB21:
 168              	.LBB16:
 169              		.loc 1 64 15 view .LVU41
 170 0028 041092E5 		ldr	r1, [r2, #4]
 171              	.LBE16:
ARM GAS  /var/folders/l5/0x54b2c10074c8bt31ycjvl80000gp/T//ccAllaXx.s 			page 4


 172              	.LBE21:
 173              	.LBB22:
 174              	.LBB12:
 175              		.loc 1 120 14 view .LVU42
 176 002c 28309FE5 		ldr	r3, .L12+8
 177              		.loc 1 119 14 view .LVU43
 178 0030 28209FE5 		ldr	r2, .L12+12
 179              	.LBE12:
 180              	.LBE22:
 181              		.loc 1 106 3 view .LVU44
 182 0034 04008DE2 		add	r0, sp, #4
 183              	.LVL5:
 184              	.LBB23:
 185              	.LBB13:
 186              		.loc 1 120 14 view .LVU45
 187 0038 F420CDE1 		strd	r2, [sp, #4]
 188              		.loc 1 121 3 is_stmt 1 view .LVU46
 189              		.loc 1 122 3 view .LVU47
 190              		.loc 1 123 3 view .LVU48
 191              	.LVL6:
 192              		.loc 1 123 3 is_stmt 0 view .LVU49
 193              	.LBE13:
 194              	.LBE23:
 195              		.loc 1 105 3 is_stmt 1 view .LVU50
 196              	.LBB24:
 197              	.LBI14:
 198              		.loc 1 62 13 view .LVU51
 199              	.LBB17:
 200              		.loc 1 64 3 view .LVU52
 201              		.loc 1 64 3 is_stmt 0 view .LVU53
 202              	.LBE17:
 203              	.LBE24:
 204              		.loc 1 106 3 is_stmt 1 view .LVU54
 205              	.LBB25:
 206              	.LBB18:
 207              		.loc 1 64 13 is_stmt 0 view .LVU55
 208 003c 0C108DE5 		str	r1, [sp, #12]
 209              	.LBE18:
 210              	.LBE25:
 211              		.loc 1 106 3 view .LVU56
 212 0040 FEFFFFEB 		bl	tm_stop
 213              	.LVL7:
 214              		.loc 1 107 3 is_stmt 1 view .LVU57
 215              		.loc 1 107 22 is_stmt 0 view .LVU58
 216 0044 0C309DE5 		ldr	r3, [sp, #12]
 217 0048 003084E5 		str	r3, [r4]
 218              		.loc 1 108 1 view .LVU59
 219 004c 18D08DE2 		add	sp, sp, #24
 220              		.cfi_def_cfa_offset 8
 221              		@ sp needed
 222 0050 1080BDE8 		pop	{r4, pc}
 223              	.L13:
 224              		.align	2
 225              	.L12:
 226 0054 00000000 		.word	.LANCHOR0
 227 0058 00300020 		.word	536883200
 228 005c 00000000 		.word	tm_stop
ARM GAS  /var/folders/l5/0x54b2c10074c8bt31ycjvl80000gp/T//ccAllaXx.s 			page 5


 229 0060 00000000 		.word	tm_start
 230              		.cfi_endproc
 231              	.LFE9:
 232              		.size	tmInit, .-tmInit
 233              		.section	.text.tmObjectInit,"ax",%progbits
 234              		.align	2
 235              		.global	tmObjectInit
 236              		.syntax unified
 237              		.arm
 238              		.fpu softvfp
 239              		.type	tmObjectInit, %function
 240              	tmObjectInit:
 241              	.LVL8:
 242              	.LFB10:
 243              		.loc 1 117 41 is_stmt 1 view -0
 244              		.cfi_startproc
 245              		@ args = 0, pretend = 0, frame = 0
 246              		@ frame_needed = 0, uses_anonymous_args = 0
 247              		@ link register save eliminated.
 248              		.loc 1 119 3 view .LVU61
 249              		.loc 1 121 14 is_stmt 0 view .LVU62
 250 0000 0030A0E3 		mov	r3, #0
 251              		.loc 1 123 14 view .LVU63
 252 0004 0020E0E3 		mvn	r2, #0
 253              		.loc 1 119 14 view .LVU64
 254 0008 18C09FE5 		ldr	ip, .L15
 255              		.loc 1 120 14 view .LVU65
 256 000c 18109FE5 		ldr	r1, .L15+4
 257              		.loc 1 119 14 view .LVU66
 258 0010 00C080E5 		str	ip, [r0]
 259              		.loc 1 120 3 is_stmt 1 view .LVU67
 260              		.loc 1 120 14 is_stmt 0 view .LVU68
 261 0014 041080E5 		str	r1, [r0, #4]
 262              		.loc 1 121 3 is_stmt 1 view .LVU69
 263              		.loc 1 123 14 is_stmt 0 view .LVU70
 264 0018 102080E5 		str	r2, [r0, #16]
 265              		.loc 1 121 14 view .LVU71
 266 001c 083080E5 		str	r3, [r0, #8]
 267              		.loc 1 122 3 is_stmt 1 view .LVU72
 268              		.loc 1 122 14 is_stmt 0 view .LVU73
 269 0020 0C3080E5 		str	r3, [r0, #12]
 270              		.loc 1 123 3 is_stmt 1 view .LVU74
 271              		.loc 1 124 1 is_stmt 0 view .LVU75
 272 0024 1EFF2FE1 		bx	lr
 273              	.L16:
 274              		.align	2
 275              	.L15:
 276 0028 00000000 		.word	tm_start
 277 002c 00000000 		.word	tm_stop
 278              		.cfi_endproc
 279              	.LFE10:
 280              		.size	tmObjectInit, .-tmObjectInit
 281              		.section	.bss.measurement_offset,"aw",%nobits
 282              		.align	2
 283              		.set	.LANCHOR0,. + 0
 284              		.type	measurement_offset, %object
 285              		.size	measurement_offset, 4
ARM GAS  /var/folders/l5/0x54b2c10074c8bt31ycjvl80000gp/T//ccAllaXx.s 			page 6


 286              	measurement_offset:
 287 0000 00000000 		.space	4
 288              		.text
 289              	.Letext0:
 290              		.file 2 "/usr/local/Cellar/arm-gcc-bin/8-2019-q3-update/lib/gcc/arm-none-eabi/8.3.1/include/stddef
 291              		.file 3 "/usr/local/Cellar/arm-gcc-bin/8-2019-q3-update/arm-none-eabi/include/machine/_default_typ
 292              		.file 4 "/usr/local/Cellar/arm-gcc-bin/8-2019-q3-update/arm-none-eabi/include/sys/_stdint.h"
 293              		.file 5 "../../os/ports/GCC/ARM/chtypes.h"
 294              		.file 6 "../../os/kernel/include/chlists.h"
 295              		.file 7 "../../os/kernel/include/chthreads.h"
 296              		.file 8 "../../os/ports/GCC/ARM/chcore.h"
 297              		.file 9 "../../os/kernel/include/chvt.h"
 298              		.file 10 "../../os/kernel/include/chschd.h"
 299              		.file 11 "../../os/kernel/include/chmtx.h"
 300              		.file 12 "../../os/kernel/include/chevents.h"
 301              		.file 13 "../../os/kernel/include/chregistry.h"
 302              		.file 14 "../../os/kernel/include/chqueues.h"
 303              		.file 15 "../../os/kernel/include/ch.h"
 304              		.file 16 "../../os/hal/platforms/BCM2835/bcm2835.h"
 305              		.file 17 "../../os/hal/platforms/BCM2835/hal_lld.h"
 306              		.file 18 "../../os/hal/include/tm.h"
 307              		.file 19 "../../os/hal/platforms/BCM2835/pal_lld.h"
 308              		.file 20 "../../os/hal/include/i2c.h"
 309              		.file 21 "../../os/hal/platforms/BCM2835/i2c_lld.h"
 310              		.file 22 "../../os/hal/include/serial.h"
 311              		.file 23 "../../os/hal/include/spi.h"
 312              		.file 24 "../../os/hal/platforms/BCM2835/spi_lld.h"
 313              		.file 25 "../../os/hal/platforms/BCM2835/serial_lld.h"