
build/ch.elf:     file format elf32-littlearm
build/ch.elf
architecture: armv6kz, flags 0x00000112:
EXEC_P, HAS_SYMS, D_PAGED
start address 0x00008000

Program Header:
    LOAD off    0x00000000 vaddr 0x00000000 paddr 0x00000000 align 2**16
         filesz 0x0000b3c8 memsz 0x0000b760 flags rwx
private flags = 5000200: [Version5 EABI] [soft-float ABI]

Sections:
Idx Name          Size      VMA       LMA       File off  Algn
  0 .text         000033c8  00008000  00008000  00008000  2**4
                  CONTENTS, ALLOC, LOAD, READONLY, CODE
  1 .data         00000000  0000b3c8  0000b3c8  0000b3c8  2**0
                  CONTENTS, ALLOC, LOAD, DATA
  2 .bss          00000398  0000b3c8  0000b3c8  0000b3c8  2**2
                  ALLOC
  3 .ARM.attributes 0000002b  00000000  00000000  0000b3c8  2**0
                  CONTENTS, READONLY
  4 .comment      00000076  00000000  00000000  0000b3f3  2**0
                  CONTENTS, READONLY
  5 .debug_info   00015387  00000000  00000000  0000b469  2**0
                  CONTENTS, READONLY, DEBUGGING
  6 .debug_abbrev 00003c98  00000000  00000000  000207f0  2**0
                  CONTENTS, READONLY, DEBUGGING
  7 .debug_loc    00004e75  00000000  00000000  00024488  2**0
                  CONTENTS, READONLY, DEBUGGING
  8 .debug_aranges 000007a8  00000000  00000000  000292fd  2**0
                  CONTENTS, READONLY, DEBUGGING
  9 .debug_ranges 00000d28  00000000  00000000  00029aa5  2**0
                  CONTENTS, READONLY, DEBUGGING
 10 .debug_line   00007def  00000000  00000000  0002a7cd  2**0
                  CONTENTS, READONLY, DEBUGGING
 11 .debug_str    0000178d  00000000  00000000  000325bc  2**0
                  CONTENTS, READONLY, DEBUGGING
 12 .debug_frame  00001530  00000000  00000000  00033d4c  2**2
                  CONTENTS, READONLY, DEBUGGING
SYMBOL TABLE:
00008000 l    d  .text	00000000 .text
0000b3c8 l    d  .data	00000000 .data
0000b3c8 l    d  .bss	00000000 .bss
00000000 l    d  .ARM.attributes	00000000 .ARM.attributes
00000000 l    d  .comment	00000000 .comment
00000000 l    d  .debug_info	00000000 .debug_info
00000000 l    d  .debug_abbrev	00000000 .debug_abbrev
00000000 l    d  .debug_loc	00000000 .debug_loc
00000000 l    d  .debug_aranges	00000000 .debug_aranges
00000000 l    d  .debug_ranges	00000000 .debug_ranges
00000000 l    d  .debug_line	00000000 .debug_line
00000000 l    d  .debug_str	00000000 .debug_str
00000000 l    d  .debug_frame	00000000 .debug_frame
00000000 l    df *ABS*	00000000 build/obj/vectors.o
00008000 l       .text	00000000 _start
00008020 l       .text	00000000 _reset
00008024 l       .text	00000000 _undefined
00008028 l       .text	00000000 _swi
0000802c l       .text	00000000 _prefetch
00008030 l       .text	00000000 _abort
00008038 l       .text	00000000 _irq
0000803c l       .text	00000000 _fiq
00000000 l    df *ABS*	00000000 build/obj/crt0.o
00000010 l       *ABS*	00000000 MODE_USR
00000011 l       *ABS*	00000000 MODE_FIQ
00000012 l       *ABS*	00000000 MODE_IRQ
00000013 l       *ABS*	00000000 MODE_SVC
00000017 l       *ABS*	00000000 MODE_ABT
0000001b l       *ABS*	00000000 MODE_UND
0000001f l       *ABS*	00000000 MODE_SYS
00000080 l       *ABS*	00000000 I_BIT
00000040 l       *ABS*	00000000 F_BIT
000080ac l       .text	00000000 bssloop
000080c0 l       .text	00000000 .loop
000080c4 l       .text	00000000 hwinit0
00000000 l    df *ABS*	00000000 build/obj/chcoreasm.o
00000010 l       *ABS*	00000000 MODE_USR
00000011 l       *ABS*	00000000 MODE_FIQ
00000012 l       *ABS*	00000000 MODE_IRQ
00000013 l       *ABS*	00000000 MODE_SVC
00000017 l       *ABS*	00000000 MODE_ABT
0000001b l       *ABS*	00000000 MODE_UND
0000001f l       *ABS*	00000000 MODE_SYS
00000080 l       *ABS*	00000000 I_BIT
00000040 l       *ABS*	00000000 F_BIT
00000000 l    df *ABS*	00000000 _udivsi3.o
000081c0 l       .text	00000000 .udivsi3_skip_div0_test
00000000 l    df *ABS*	00000000 _dvmd_tls.o
00000000 l    df *ABS*	00000000 _arm_addsubdf3.o
00000000 l    df *ABS*	00000000 _arm_muldivdf3.o
00000000 l    df *ABS*	00000000 _arm_fixdfsi.o
00000000 l    df *ABS*	00000000 _arm_truncdfsf2.o
00000000 l    df *ABS*	00000000 _arm_cmpsf2.o
00000000 l    df *ABS*	00000000 _arm_fixsfsi.o
00000000 l    df *ABS*	00000000 chsys.c
0000b3c8 l     O .bss	00000044 mainthread.4816
00000000 l    df *ABS*	00000000 chvt.c
00000000 l    df *ABS*	00000000 chschd.c
00009050 l     F .text	000000b0 wakeup
00000000 l    df *ABS*	00000000 chthreads.c
00000000 l    df *ABS*	00000000 chdynamic.c
00000000 l    df *ABS*	00000000 chmtx.c
00000000 l    df *ABS*	00000000 chevents.c
00000000 l    df *ABS*	00000000 chqueues.c
000099b0 l     F .text	0000003c qwait
00000000 l    df *ABS*	00000000 chmemcore.c
0000b40c l     O .bss	00000004 endmem
0000b410 l     O .bss	00000004 nextmem
00000000 l    df *ABS*	00000000 chheap.c
0000b414 l     O .bss	0000001c default_heap
00000000 l    df *ABS*	00000000 hal.c
00000000 l    df *ABS*	00000000 i2c.c
00000000 l    df *ABS*	00000000 serial.c
00009fd0 l     F .text	00000008 readt
00009fe0 l     F .text	0000000c read
00009ff0 l     F .text	00000008 writet
0000a000 l     F .text	0000000c write
0000a010 l     F .text	00000008 gett
0000a020 l     F .text	0000000c get
0000a030 l     F .text	00000008 putt
0000a040 l     F .text	0000000c put
0000b340 l     O .text	00000020 vmt
00000000 l    df *ABS*	00000000 spi.c
00000000 l    df *ABS*	00000000 tm.c
0000a1a0 l     F .text	00000014 tm_start
0000a1c0 l     F .text	0000004c tm_stop
0000b430 l     O .bss	00000004 measurement_offset
00000000 l    df *ABS*	00000000 hal_lld.c
00000000 l    df *ABS*	00000000 pal_lld.c
0000a310 l     F .text	00000040 set_gpio_in.isra.0
00000000 l    df *ABS*	00000000 serial_lld.c
0000a3f0 l     F .text	00000018 output_notify
0000b360 l     O .text	00000004 default_config
00000000 l    df *ABS*	00000000 i2c_lld.c
00000000 l    df *ABS*	00000000 spi_lld.c
00000000 l    df *ABS*	00000000 bcm2835.c
00000000 l    df *ABS*	00000000 board.c
00000000 l    df *ABS*	00000000 chprintf.c
00000000 l    df *ABS*	00000000 main.c
0000b130 l     F .text	000000c8 Thread_LCD
0000b434 l     O .bss	00000118 waThread_LCD
00000000 l    df *ABS*	00000000 chregistry.c
0000b370 g     O .text	00000000 pal_default_config
00008ee0 g     F .text	00000090 chSysTimerHandlerI
00009610 g     F .text	00000008 chThdExit
00009970 g     F .text	00000040 chEvtBroadcastFlagsI
000091d0 g     F .text	00000074 chSchGoSleepTimeoutS
00009fa0 g     F .text	00000004 i2cInit
000096e0 g     F .text	00000180 chMtxLockS
000086b4 g     F .text	00000060 .hidden __floatdidf
00009eb0 g     F .text	000000b8 chHeapFree
0000a720 g     F .text	0000017c spi_lld_serve_interrupt
000081b0 g       .text	00000000 get_cpsr
0000b3c8 g       .text	00000000 __exidx_end
00008de0 g     F .text	0000005c .hidden __fixsfsi
00009180 g     F .text	00000044 chSchGoSleepS
00008180  w      .text	00000000 UndHandler
0000b760 g       *ABS*	00000000 __heap_base__
0000b6b8 g     O .bss	00000040 I2C1
0000b6f8 g     O .bss	00000040 I2C0
0000b3c8 g       .text	00000000 _etext
0000b614 g     O .bss	00000018 IOPORT1
0000049c g       *ABS*	00000000 __stacks_total_size__
00009250 g     F .text	000000ac chSchWakeupS
0000a0e0 g     F .text	0000004c sdIncomingDataI
00009cc0 g     F .text	00000080 chOQGetI
00009100 g     F .text	00000024 _scheduler_init
000094d0 g     F .text	000000a8 chThdCreateStatic
00008dbc g     F .text	00000018 .hidden __aeabi_fcmpgt
00008630 g     F .text	00000028 .hidden __floatsidf
00009130 g     F .text	00000048 chSchReadyI
00008f70 g     F .text	00000024 _vt_init
000081c0 g     F .text	000000f4 .hidden __udivsi3
00009e80 g     F .text	00000028 _heap_init
00009f70 g     F .text	0000002c halInit
00008cc8 g     F .text	0000006c .hidden __lesf2
0000b3c8 g       .bss	00000000 _bss_start
00009350 g     F .text	00000078 chSchDoRescheduleBehind
06007b44 g       *ABS*	00000000 __heap_end__
0000860c g     F .text	00000024 .hidden __aeabi_ui2d
0000b62c g     O .bss	00000018 IOPORT0
000082f0 g     F .text	00000000 .hidden __aeabi_drsub
00000004 g       *ABS*	00000000 __abt_stack_size__
00008040 g       .text	00000000 ResetHandler
00009b40 g     F .text	000000a8 chIQReadTimeout
0000a2c0 g     F .text	00000050 hal_lld_init
00008658 g     F .text	00000048 .hidden __extendsfdf2
000089b0 g     F .text	0000020c .hidden __aeabi_ddiv
000082fc g     F .text	00000310 .hidden __adddf3
00008cd0 g     F .text	00000064 .hidden __nesf2
0000a8a0 g     F .text	0000000c spi_lld_init
0000b3c8 g       .text	00000000 __exidx_start
00008720 g     F .text	00000290 .hidden __aeabi_dmul
0000a8b0 g     F .text	0000004c bcm2835_gpio_fnsel
000095a0 g     F .text	00000064 chThdExitS
0000860c g     F .text	00000024 .hidden __floatunsidf
0000b738 g     O .bss	00000028 SPI0
00008c20 g     F .text	000000a0 .hidden __aeabi_d2f
00008fa0 g     F .text	00000064 chVTSetI
0000b760 g       .bss	00000000 _bss_end
00008da4 g     F .text	00000018 .hidden __aeabi_fcmpge
00008bc0 g     F .text	0000005c .hidden __fixdfsi
0000a4c0 g     F .text	00000018 sd_lld_init
00008cc0 g     F .text	00000074 .hidden __gtsf2
000082fc g     F .text	00000310 .hidden __aeabi_dadd
00009860 g     F .text	00000014 chMtxLock
00008d8c g     F .text	00000018 .hidden __aeabi_fcmple
000086a0 g     F .text	00000074 .hidden __aeabi_ul2d
00009440 g     F .text	00000020 chSchDoReschedule
00008e60 g     F .text	00000078 chSysInit
00009580 g     F .text	0000001c chThdSleep
000099f0 g     F .text	00000038 chIQInit
0000a130 g     F .text	00000034 sdRequestDataI
0000a180 g     F .text	0000001c spiObjectInit
0000a350 g     F .text	00000098 _pal_lld_init
0000a050 g     F .text	00000004 sdInit
000082f8 g     F .text	00000314 .hidden __aeabi_dsub
00009df0 g     F .text	00000034 _core_init
000086a0 g     F .text	00000074 .hidden __floatundidf
0000a0c0 g     F .text	00000020 sdStart
00000080 g       *ABS*	00000000 __irq_stack_size__
000080f0 g       .text	00000000 _port_switch_arm
00000400 g       *ABS*	00000000 __sys_stack_size__
05ffffe0 g       *ABS*	00000000 __ram_size__
00008de0 g     F .text	0000005c .hidden __aeabi_f2iz
00008cd0 g     F .text	00000064 .hidden __eqsf2
000081a0 g       .text	00000000 arm_enable_irq
0000b5e8 g     O .bss	00000010 vtlist
00009e30 g     F .text	00000044 chCoreAlloc
00008630 g     F .text	00000028 .hidden __aeabi_i2d
0000a5b0 g     F .text	0000014c i2c_lld_serve_interrupt
000082e0  w    F .text	00000004 .hidden __aeabi_ldiv0
000089b0 g     F .text	0000020c .hidden __divdf3
00008720 g     F .text	00000290 .hidden __muldf3
0000b3c8 g       *ABS*	00000000 _textdata
00008000 g       .text	00000000 _text
00008180  w      .text	00000000 PrefetchHandler
00008cd0 g     F .text	00000064 .hidden __cmpsf2
0000b200 g     F .text	00000110 main
0000b5f8 g     O .bss	0000001c rlist
00008cc8 g     F .text	0000006c .hidden __ltsf2
0000a170 g     F .text	00000004 spiInit
000081c0 g     F .text	00000000 .hidden __aeabi_uidiv
00008c20 g     F .text	000000a0 .hidden __truncdfsf2
000086b4 g     F .text	00000060 .hidden __aeabi_l2d
000096c0 g     F .text	00000014 chMtxInit
00008e40 g     F .text	00000020 _idle_thread
00009d40 g     F .text	000000b0 chOQWriteTimeout
00008d44 g     F .text	00000018 .hidden __aeabi_cfcmple
0000b320 g     O .text	00000016 ch_debug
0000a950 g     F .text	000007e0 chprintf
00009920 g     F .text	00000050 chEvtSignalI
00008000 g       .text	00000000 __ram_start__
00008160 g       .text	00000000 _port_thread_start
0000a900 g     F .text	0000003c bcm2835_delay
000093d0 g     F .text	00000070 chSchDoRescheduleAhead
0000a700 g     F .text	0000001c i2c_lld_init
00008cc0 g     F .text	00000074 .hidden __gesf2
00008d5c g     F .text	00000018 .hidden __aeabi_fcmpeq
00009fb0 g     F .text	00000018 i2cObjectInit
00009670 g     F .text	00000050 chThdRelease
00008d34 g     F .text	00000028 .hidden __aeabi_cfrcmple
0000b54c g     O .bss	0000009c _idle_thread_wa
00009bf0 g     F .text	00000034 chOQInit
00009ac0 g     F .text	00000074 chIQGetTimeout
0000b3c8 g       .data	00000000 _data
00008100 g       .text	00000000 _port_irq_common
00008180  w      .text	00000000 AbortHandler
00009a30 g     F .text	00000088 chIQPutI
0000a210 g     F .text	00000064 tmInit
00008d74 g     F .text	00000018 .hidden __aeabi_fcmplt
00009880 g     F .text	000000a0 chMtxUnlock
000082b4 g     F .text	00000020 .hidden __aeabi_uidivmod
0000b3c8 g       .data	00000000 _edata
06007fe0 g       *ABS*	00000000 __ram_end__
0000b760 g       .bss	00000000 _end
00009010 g     F .text	0000003c chVTResetI
00008180 g       .text	00000000 _unhandled_exception
0000a060 g     F .text	00000060 sdObjectInit
06007b44 g       *ABS*	00000000 __main_thread_stack_base__
0000a410 g     F .text	000000a8 sd_lld_serve_interrupt
0000a280 g     F .text	00000040 IrqHandler
00008bc0 g     F .text	0000005c .hidden __aeabi_d2iz
00008d44 g     F .text	00000018 .hidden __aeabi_cfcmpeq
00008180  w      .text	00000000 SwiHandler
000082e0  w    F .text	00000004 .hidden __aeabi_idiv0
00009620 g     F .text	00000050 chThdWait
00009300 g     F .text	00000044 chSchIsPreemptionRequired
0000b644 g     O .bss	00000074 SD1
00000010 g       *ABS*	00000000 __fiq_stack_size__
00009460 g     F .text	0000006c _thread_init
00000004 g       *ABS*	00000000 __svc_stack_size__
00000004 g       *ABS*	00000000 __und_stack_size__
00009c30 g     F .text	0000008c chOQPutTimeout
00008658 g     F .text	00000048 .hidden __aeabi_f2d
0000a940 g     F .text	00000004 boardInit
0000a4e0 g     F .text	000000c4 sd_lld_start
000080c0  w      .text	00000000 _main_exit_handler
000082f8 g     F .text	00000314 .hidden __subdf3
00008184 g       .text	00000000 __early_init
00008180  w      .text	00000000 FiqHandler



Disassembly of section .text:

00008000 <__ram_start__>:
    8000:	e59ff018 	ldr	pc, [pc, #24]	; 8020 <_reset>
    8004:	e59ff018 	ldr	pc, [pc, #24]	; 8024 <_undefined>
    8008:	e59ff018 	ldr	pc, [pc, #24]	; 8028 <_swi>
    800c:	e59ff018 	ldr	pc, [pc, #24]	; 802c <_prefetch>
    8010:	e59ff018 	ldr	pc, [pc, #24]	; 8030 <_abort>
    8014:	e320f000 	nop	{0}
    8018:	e59ff018 	ldr	pc, [pc, #24]	; 8038 <_irq>
    801c:	e59ff018 	ldr	pc, [pc, #24]	; 803c <_fiq>

00008020 <_reset>:
    8020:	00008040 	andeq	r8, r0, r0, asr #32

00008024 <_undefined>:
    8024:	00008180 	andeq	r8, r0, r0, lsl #3

00008028 <_swi>:
    8028:	00008180 	andeq	r8, r0, r0, lsl #3

0000802c <_prefetch>:
    802c:	00008180 	andeq	r8, r0, r0, lsl #3

00008030 <_abort>:
    8030:	00008180 	andeq	r8, r0, r0, lsl #3
    8034:	00000000 	andeq	r0, r0, r0

00008038 <_irq>:
    8038:	0000a280 	andeq	sl, r0, r0, lsl #5

0000803c <_fiq>:
    803c:	00008180 	andeq	r8, r0, r0, lsl #3

00008040 <ResetHandler>:
    8040:	e59f0080 	ldr	r0, [pc, #128]	; 80c8 <hwinit0+0x4>
    8044:	e321f0db 	msr	CPSR_c, #219, 0	; 0xdb
    8048:	e1a0d000 	mov	sp, r0
    804c:	e59f1078 	ldr	r1, [pc, #120]	; 80cc <hwinit0+0x8>
    8050:	e0400001 	sub	r0, r0, r1
    8054:	e321f0d7 	msr	CPSR_c, #215, 0	; 0xd7
    8058:	e1a0d000 	mov	sp, r0
    805c:	e59f106c 	ldr	r1, [pc, #108]	; 80d0 <hwinit0+0xc>
    8060:	e0400001 	sub	r0, r0, r1
    8064:	e321f0d1 	msr	CPSR_c, #209, 0	; 0xd1
    8068:	e1a0d000 	mov	sp, r0
    806c:	e59f1060 	ldr	r1, [pc, #96]	; 80d4 <hwinit0+0x10>
    8070:	e0400001 	sub	r0, r0, r1
    8074:	e321f0d2 	msr	CPSR_c, #210, 0	; 0xd2
    8078:	e1a0d000 	mov	sp, r0
    807c:	e59f1054 	ldr	r1, [pc, #84]	; 80d8 <hwinit0+0x14>
    8080:	e0400001 	sub	r0, r0, r1
    8084:	e321f0d3 	msr	CPSR_c, #211, 0	; 0xd3
    8088:	e1a0d000 	mov	sp, r0
    808c:	e59f1048 	ldr	r1, [pc, #72]	; 80dc <hwinit0+0x18>
    8090:	e0400001 	sub	r0, r0, r1
    8094:	e321f0df 	msr	CPSR_c, #223, 0	; 0xdf
    8098:	e1a0d000 	mov	sp, r0
    809c:	eb000038 	bl	8184 <__early_init>
    80a0:	e3a00000 	mov	r0, #0, 0
    80a4:	e59f1034 	ldr	r1, [pc, #52]	; 80e0 <hwinit0+0x1c>
    80a8:	e59f2034 	ldr	r2, [pc, #52]	; 80e4 <hwinit0+0x20>

000080ac <bssloop>:
    80ac:	e1510002 	cmp	r1, r2
    80b0:	34810004 	strcc	r0, [r1], #4
    80b4:	3afffffc 	bcc	80ac <bssloop>
    80b8:	eb000c50 	bl	b200 <main>
    80bc:	eaffffff 	b	80c0 <_main_exit_handler>

000080c0 <_main_exit_handler>:
    80c0:	eafffffe 	b	80c0 <_main_exit_handler>

000080c4 <hwinit0>:
    80c4:	e12fff1e 	bx	lr
    80c8:	06007fe0 	streq	r7, [r0], -r0, ror #31
    80cc:	00000004 	andeq	r0, r0, r4
    80d0:	00000004 	andeq	r0, r0, r4
    80d4:	00000010 	andeq	r0, r0, r0, lsl r0
    80d8:	00000080 	andeq	r0, r0, r0, lsl #1
    80dc:	00000004 	andeq	r0, r0, r4
    80e0:	0000b3c8 	andeq	fp, r0, r8, asr #7
    80e4:	0000b760 	andeq	fp, r0, r0, ror #14
	...

000080f0 <_port_switch_arm>:
    80f0:	e92d4ff0 	push	{r4, r5, r6, r7, r8, r9, sl, fp, lr}
    80f4:	e581d00c 	str	sp, [r1, #12]
    80f8:	e590d00c 	ldr	sp, [r0, #12]
    80fc:	e8bd8ff0 	pop	{r4, r5, r6, r7, r8, r9, sl, fp, pc}

00008100 <_port_irq_common>:
    8100:	eb00047e 	bl	9300 <chSchIsPreemptionRequired>
    8104:	e3500000 	cmp	r0, #0, 0
    8108:	08bd500f 	popeq	{r0, r1, r2, r3, ip, lr}
    810c:	025ef004 	subseq	pc, lr, #4, 0
    8110:	e8bd500f 	pop	{r0, r1, r2, r3, ip, lr}
    8114:	e321f09f 	msr	CPSR_c, #159, 0	; 0x9f
    8118:	e92d500f 	push	{r0, r1, r2, r3, ip, lr}
    811c:	e321f092 	msr	CPSR_c, #146, 0	; 0x92
    8120:	e14f0000 	mrs	r0, SPSR
    8124:	e1a0100e 	mov	r1, lr
    8128:	e321f09f 	msr	CPSR_c, #159, 0	; 0x9f
    812c:	e92d0003 	push	{r0, r1}
    8130:	eb0004c2 	bl	9440 <chSchDoReschedule>
    8134:	e8bd0003 	pop	{r0, r1}
    8138:	e321f092 	msr	CPSR_c, #146, 0	; 0x92
    813c:	e16ff000 	msr	SPSR_fsxc, r0
    8140:	e1a0e001 	mov	lr, r1
    8144:	e321f09f 	msr	CPSR_c, #159, 0	; 0x9f
    8148:	e8bd500f 	pop	{r0, r1, r2, r3, ip, lr}
    814c:	e321f092 	msr	CPSR_c, #146, 0	; 0x92
    8150:	e25ef004 	subs	pc, lr, #4, 0
    8154:	e320f000 	nop	{0}
    8158:	e320f000 	nop	{0}
    815c:	e320f000 	nop	{0}

00008160 <_port_thread_start>:
    8160:	e321f01f 	msr	CPSR_c, #31, 0
    8164:	e1a00005 	mov	r0, r5
    8168:	e1a0e00f 	mov	lr, pc
    816c:	e12fff14 	bx	r4
    8170:	eb000526 	bl	9610 <chThdExit>
	...

00008180 <_unhandled_exception>:
    8180:	eafffffe 	b	8180 <_unhandled_exception>

00008184 <__early_init>:
    8184:	e3a00902 	mov	r0, #32768	; 0x8000
    8188:	e3a01000 	mov	r1, #0, 0
    818c:	e8b003fc 	ldm	r0!, {r2, r3, r4, r5, r6, r7, r8, r9}
    8190:	e8a103fc 	stmia	r1!, {r2, r3, r4, r5, r6, r7, r8, r9}
    8194:	e8b003fc 	ldm	r0!, {r2, r3, r4, r5, r6, r7, r8, r9}
    8198:	e8a103fc 	stmia	r1!, {r2, r3, r4, r5, r6, r7, r8, r9}
    819c:	e12fff1e 	bx	lr

000081a0 <arm_enable_irq>:
    81a0:	e10f0000 	mrs	r0, CPSR
    81a4:	e3c00080 	bic	r0, r0, #128, 0	; 0x80
    81a8:	e121f000 	msr	CPSR_c, r0
    81ac:	e12fff1e 	bx	lr

000081b0 <get_cpsr>:
    81b0:	e10f0000 	mrs	r0, CPSR
    81b4:	e12fff1e 	bx	lr
	...

000081c0 <__udivsi3>:
    81c0:	e2512001 	subs	r2, r1, #1, 0
    81c4:	012fff1e 	bxeq	lr
    81c8:	3a000036 	bcc	82a8 <__udivsi3+0xe8>
    81cc:	e1500001 	cmp	r0, r1
    81d0:	9a000022 	bls	8260 <__udivsi3+0xa0>
    81d4:	e1110002 	tst	r1, r2
    81d8:	0a000023 	beq	826c <__udivsi3+0xac>
    81dc:	e311020e 	tst	r1, #-536870912	; 0xe0000000
    81e0:	01a01181 	lsleq	r1, r1, #3
    81e4:	03a03008 	moveq	r3, #8, 0
    81e8:	13a03001 	movne	r3, #1, 0
    81ec:	e3510201 	cmp	r1, #268435456	; 0x10000000
    81f0:	31510000 	cmpcc	r1, r0
    81f4:	31a01201 	lslcc	r1, r1, #4
    81f8:	31a03203 	lslcc	r3, r3, #4
    81fc:	3afffffa 	bcc	81ec <__udivsi3+0x2c>
    8200:	e3510102 	cmp	r1, #-2147483648	; 0x80000000
    8204:	31510000 	cmpcc	r1, r0
    8208:	31a01081 	lslcc	r1, r1, #1
    820c:	31a03083 	lslcc	r3, r3, #1
    8210:	3afffffa 	bcc	8200 <__udivsi3+0x40>
    8214:	e3a02000 	mov	r2, #0, 0
    8218:	e1500001 	cmp	r0, r1
    821c:	20400001 	subcs	r0, r0, r1
    8220:	21822003 	orrcs	r2, r2, r3
    8224:	e15000a1 	cmp	r0, r1, lsr #1
    8228:	204000a1 	subcs	r0, r0, r1, lsr #1
    822c:	218220a3 	orrcs	r2, r2, r3, lsr #1
    8230:	e1500121 	cmp	r0, r1, lsr #2
    8234:	20400121 	subcs	r0, r0, r1, lsr #2
    8238:	21822123 	orrcs	r2, r2, r3, lsr #2
    823c:	e15001a1 	cmp	r0, r1, lsr #3
    8240:	204001a1 	subcs	r0, r0, r1, lsr #3
    8244:	218221a3 	orrcs	r2, r2, r3, lsr #3
    8248:	e3500000 	cmp	r0, #0, 0
    824c:	11b03223 	lsrsne	r3, r3, #4
    8250:	11a01221 	lsrne	r1, r1, #4
    8254:	1affffef 	bne	8218 <__udivsi3+0x58>
    8258:	e1a00002 	mov	r0, r2
    825c:	e12fff1e 	bx	lr
    8260:	03a00001 	moveq	r0, #1, 0
    8264:	13a00000 	movne	r0, #0, 0
    8268:	e12fff1e 	bx	lr
    826c:	e3510801 	cmp	r1, #65536	; 0x10000
    8270:	21a01821 	lsrcs	r1, r1, #16
    8274:	23a02010 	movcs	r2, #16, 0
    8278:	33a02000 	movcc	r2, #0, 0
    827c:	e3510c01 	cmp	r1, #256	; 0x100
    8280:	21a01421 	lsrcs	r1, r1, #8
    8284:	22822008 	addcs	r2, r2, #8, 0
    8288:	e3510010 	cmp	r1, #16, 0
    828c:	21a01221 	lsrcs	r1, r1, #4
    8290:	22822004 	addcs	r2, r2, #4, 0
    8294:	e3510004 	cmp	r1, #4, 0
    8298:	82822003 	addhi	r2, r2, #3, 0
    829c:	908220a1 	addls	r2, r2, r1, lsr #1
    82a0:	e1a00230 	lsr	r0, r0, r2
    82a4:	e12fff1e 	bx	lr
    82a8:	e3500000 	cmp	r0, #0, 0
    82ac:	13e00000 	mvnne	r0, #0, 0
    82b0:	ea00000a 	b	82e0 <__aeabi_idiv0>

000082b4 <__aeabi_uidivmod>:
    82b4:	e3510000 	cmp	r1, #0, 0
    82b8:	0afffffa 	beq	82a8 <__udivsi3+0xe8>
    82bc:	e92d4003 	push	{r0, r1, lr}
    82c0:	ebffffbe 	bl	81c0 <__udivsi3>
    82c4:	e8bd4006 	pop	{r1, r2, lr}
    82c8:	e0030092 	mul	r3, r2, r0
    82cc:	e0411003 	sub	r1, r1, r3
    82d0:	e12fff1e 	bx	lr
	...

000082e0 <__aeabi_idiv0>:
    82e0:	e12fff1e 	bx	lr
	...

000082f0 <__aeabi_drsub>:
    82f0:	e2211102 	eor	r1, r1, #-2147483648	; 0x80000000
    82f4:	ea000000 	b	82fc <__adddf3>

000082f8 <__aeabi_dsub>:
    82f8:	e2233102 	eor	r3, r3, #-2147483648	; 0x80000000

000082fc <__adddf3>:
    82fc:	e92d4030 	push	{r4, r5, lr}
    8300:	e1a04081 	lsl	r4, r1, #1
    8304:	e1a05083 	lsl	r5, r3, #1
    8308:	e1340005 	teq	r4, r5
    830c:	01300002 	teqeq	r0, r2
    8310:	1194c000 	orrsne	ip, r4, r0
    8314:	1195c002 	orrsne	ip, r5, r2
    8318:	11f0cac4 	mvnsne	ip, r4, asr #21
    831c:	11f0cac5 	mvnsne	ip, r5, asr #21
    8320:	0a00008c 	beq	8558 <__adddf3+0x25c>
    8324:	e1a04aa4 	lsr	r4, r4, #21
    8328:	e0745aa5 	rsbs	r5, r4, r5, lsr #21
    832c:	b2655000 	rsblt	r5, r5, #0, 0
    8330:	da000006 	ble	8350 <__adddf3+0x54>
    8334:	e0844005 	add	r4, r4, r5
    8338:	e0202002 	eor	r2, r0, r2
    833c:	e0213003 	eor	r3, r1, r3
    8340:	e0220000 	eor	r0, r2, r0
    8344:	e0231001 	eor	r1, r3, r1
    8348:	e0202002 	eor	r2, r0, r2
    834c:	e0213003 	eor	r3, r1, r3
    8350:	e3550036 	cmp	r5, #54, 0	; 0x36
    8354:	88bd4030 	pophi	{r4, r5, lr}
    8358:	812fff1e 	bxhi	lr
    835c:	e3110102 	tst	r1, #-2147483648	; 0x80000000
    8360:	e1a01601 	lsl	r1, r1, #12
    8364:	e3a0c601 	mov	ip, #1048576	; 0x100000
    8368:	e18c1621 	orr	r1, ip, r1, lsr #12
    836c:	0a000001 	beq	8378 <__adddf3+0x7c>
    8370:	e2700000 	rsbs	r0, r0, #0, 0
    8374:	e2e11000 	rsc	r1, r1, #0, 0
    8378:	e3130102 	tst	r3, #-2147483648	; 0x80000000
    837c:	e1a03603 	lsl	r3, r3, #12
    8380:	e18c3623 	orr	r3, ip, r3, lsr #12
    8384:	0a000001 	beq	8390 <__adddf3+0x94>
    8388:	e2722000 	rsbs	r2, r2, #0, 0
    838c:	e2e33000 	rsc	r3, r3, #0, 0
    8390:	e1340005 	teq	r4, r5
    8394:	0a000069 	beq	8540 <__adddf3+0x244>
    8398:	e2444001 	sub	r4, r4, #1, 0
    839c:	e275e020 	rsbs	lr, r5, #32, 0
    83a0:	ba000005 	blt	83bc <__adddf3+0xc0>
    83a4:	e1a0ce12 	lsl	ip, r2, lr
    83a8:	e0900532 	adds	r0, r0, r2, lsr r5
    83ac:	e2a11000 	adc	r1, r1, #0, 0
    83b0:	e0900e13 	adds	r0, r0, r3, lsl lr
    83b4:	e0b11553 	adcs	r1, r1, r3, asr r5
    83b8:	ea000006 	b	83d8 <__adddf3+0xdc>
    83bc:	e2455020 	sub	r5, r5, #32, 0
    83c0:	e28ee020 	add	lr, lr, #32, 0
    83c4:	e3520001 	cmp	r2, #1, 0
    83c8:	e1a0ce13 	lsl	ip, r3, lr
    83cc:	238cc002 	orrcs	ip, ip, #2, 0
    83d0:	e0900553 	adds	r0, r0, r3, asr r5
    83d4:	e0b11fc3 	adcs	r1, r1, r3, asr #31
    83d8:	e2015102 	and	r5, r1, #-2147483648	; 0x80000000
    83dc:	5a000002 	bpl	83ec <__adddf3+0xf0>
    83e0:	e27cc000 	rsbs	ip, ip, #0, 0
    83e4:	e2f00000 	rscs	r0, r0, #0, 0
    83e8:	e2e11000 	rsc	r1, r1, #0, 0
    83ec:	e3510601 	cmp	r1, #1048576	; 0x100000
    83f0:	3a00000f 	bcc	8434 <__adddf3+0x138>
    83f4:	e3510602 	cmp	r1, #2097152	; 0x200000
    83f8:	3a000006 	bcc	8418 <__adddf3+0x11c>
    83fc:	e1b010a1 	lsrs	r1, r1, #1
    8400:	e1b00060 	rrxs	r0, r0
    8404:	e1a0c06c 	rrx	ip, ip
    8408:	e2844001 	add	r4, r4, #1, 0
    840c:	e1a02a84 	lsl	r2, r4, #21
    8410:	e3720501 	cmn	r2, #4194304	; 0x400000
    8414:	2a00006b 	bcs	85c8 <__adddf3+0x2cc>
    8418:	e35c0102 	cmp	ip, #-2147483648	; 0x80000000
    841c:	01b0c0a0 	lsrseq	ip, r0, #1
    8420:	e2b00000 	adcs	r0, r0, #0, 0
    8424:	e0a11a04 	adc	r1, r1, r4, lsl #20
    8428:	e1811005 	orr	r1, r1, r5
    842c:	e8bd4030 	pop	{r4, r5, lr}
    8430:	e12fff1e 	bx	lr
    8434:	e1b0c08c 	lsls	ip, ip, #1
    8438:	e0b00000 	adcs	r0, r0, r0
    843c:	e0a11001 	adc	r1, r1, r1
    8440:	e3110601 	tst	r1, #1048576	; 0x100000
    8444:	e2444001 	sub	r4, r4, #1, 0
    8448:	1afffff2 	bne	8418 <__adddf3+0x11c>
    844c:	e3310000 	teq	r1, #0, 0
    8450:	13a03014 	movne	r3, #20, 0
    8454:	03a03034 	moveq	r3, #52, 0	; 0x34
    8458:	01a01000 	moveq	r1, r0
    845c:	03a00000 	moveq	r0, #0, 0
    8460:	e1a02001 	mov	r2, r1
    8464:	e3520801 	cmp	r2, #65536	; 0x10000
    8468:	21a02822 	lsrcs	r2, r2, #16
    846c:	22433010 	subcs	r3, r3, #16, 0
    8470:	e3520c01 	cmp	r2, #256	; 0x100
    8474:	21a02422 	lsrcs	r2, r2, #8
    8478:	22433008 	subcs	r3, r3, #8, 0
    847c:	e3520010 	cmp	r2, #16, 0
    8480:	21a02222 	lsrcs	r2, r2, #4
    8484:	22433004 	subcs	r3, r3, #4, 0
    8488:	e3520004 	cmp	r2, #4, 0
    848c:	22433002 	subcs	r3, r3, #2, 0
    8490:	304330a2 	subcc	r3, r3, r2, lsr #1
    8494:	e04331a2 	sub	r3, r3, r2, lsr #3
    8498:	e2532020 	subs	r2, r3, #32, 0
    849c:	aa000007 	bge	84c0 <__adddf3+0x1c4>
    84a0:	e292200c 	adds	r2, r2, #12, 0
    84a4:	da000004 	ble	84bc <__adddf3+0x1c0>
    84a8:	e282c014 	add	ip, r2, #20, 0
    84ac:	e262200c 	rsb	r2, r2, #12, 0
    84b0:	e1a00c11 	lsl	r0, r1, ip
    84b4:	e1a01231 	lsr	r1, r1, r2
    84b8:	ea000004 	b	84d0 <__adddf3+0x1d4>
    84bc:	e2822014 	add	r2, r2, #20, 0
    84c0:	d262c020 	rsble	ip, r2, #32, 0
    84c4:	e1a01211 	lsl	r1, r1, r2
    84c8:	d1811c30 	orrle	r1, r1, r0, lsr ip
    84cc:	d1a00210 	lslle	r0, r0, r2
    84d0:	e0544003 	subs	r4, r4, r3
    84d4:	a0811a04 	addge	r1, r1, r4, lsl #20
    84d8:	a1811005 	orrge	r1, r1, r5
    84dc:	a8bd4030 	popge	{r4, r5, lr}
    84e0:	a12fff1e 	bxge	lr
    84e4:	e1e04004 	mvn	r4, r4
    84e8:	e254401f 	subs	r4, r4, #31, 0
    84ec:	aa00000f 	bge	8530 <__adddf3+0x234>
    84f0:	e294400c 	adds	r4, r4, #12, 0
    84f4:	ca000006 	bgt	8514 <__adddf3+0x218>
    84f8:	e2844014 	add	r4, r4, #20, 0
    84fc:	e2642020 	rsb	r2, r4, #32, 0
    8500:	e1a00430 	lsr	r0, r0, r4
    8504:	e1800211 	orr	r0, r0, r1, lsl r2
    8508:	e1851431 	orr	r1, r5, r1, lsr r4
    850c:	e8bd4030 	pop	{r4, r5, lr}
    8510:	e12fff1e 	bx	lr
    8514:	e264400c 	rsb	r4, r4, #12, 0
    8518:	e2642020 	rsb	r2, r4, #32, 0
    851c:	e1a00230 	lsr	r0, r0, r2
    8520:	e1800411 	orr	r0, r0, r1, lsl r4
    8524:	e1a01005 	mov	r1, r5
    8528:	e8bd4030 	pop	{r4, r5, lr}
    852c:	e12fff1e 	bx	lr
    8530:	e1a00431 	lsr	r0, r1, r4
    8534:	e1a01005 	mov	r1, r5
    8538:	e8bd4030 	pop	{r4, r5, lr}
    853c:	e12fff1e 	bx	lr
    8540:	e3340000 	teq	r4, #0, 0
    8544:	e2233601 	eor	r3, r3, #1048576	; 0x100000
    8548:	02211601 	eoreq	r1, r1, #1048576	; 0x100000
    854c:	02844001 	addeq	r4, r4, #1, 0
    8550:	12455001 	subne	r5, r5, #1, 0
    8554:	eaffff8f 	b	8398 <__adddf3+0x9c>
    8558:	e1f0cac4 	mvns	ip, r4, asr #21
    855c:	11f0cac5 	mvnsne	ip, r5, asr #21
    8560:	0a00001d 	beq	85dc <__adddf3+0x2e0>
    8564:	e1340005 	teq	r4, r5
    8568:	01300002 	teqeq	r0, r2
    856c:	0a000004 	beq	8584 <__adddf3+0x288>
    8570:	e194c000 	orrs	ip, r4, r0
    8574:	01a01003 	moveq	r1, r3
    8578:	01a00002 	moveq	r0, r2
    857c:	e8bd4030 	pop	{r4, r5, lr}
    8580:	e12fff1e 	bx	lr
    8584:	e1310003 	teq	r1, r3
    8588:	13a01000 	movne	r1, #0, 0
    858c:	13a00000 	movne	r0, #0, 0
    8590:	18bd4030 	popne	{r4, r5, lr}
    8594:	112fff1e 	bxne	lr
    8598:	e1b0caa4 	lsrs	ip, r4, #21
    859c:	1a000004 	bne	85b4 <__adddf3+0x2b8>
    85a0:	e1b00080 	lsls	r0, r0, #1
    85a4:	e0b11001 	adcs	r1, r1, r1
    85a8:	23811102 	orrcs	r1, r1, #-2147483648	; 0x80000000
    85ac:	e8bd4030 	pop	{r4, r5, lr}
    85b0:	e12fff1e 	bx	lr
    85b4:	e2944501 	adds	r4, r4, #4194304	; 0x400000
    85b8:	32811601 	addcc	r1, r1, #1048576	; 0x100000
    85bc:	38bd4030 	popcc	{r4, r5, lr}
    85c0:	312fff1e 	bxcc	lr
    85c4:	e2015102 	and	r5, r1, #-2147483648	; 0x80000000
    85c8:	e385147f 	orr	r1, r5, #2130706432	; 0x7f000000
    85cc:	e381160f 	orr	r1, r1, #15728640	; 0xf00000
    85d0:	e3a00000 	mov	r0, #0, 0
    85d4:	e8bd4030 	pop	{r4, r5, lr}
    85d8:	e12fff1e 	bx	lr
    85dc:	e1f0cac4 	mvns	ip, r4, asr #21
    85e0:	11a01003 	movne	r1, r3
    85e4:	11a00002 	movne	r0, r2
    85e8:	01f0cac5 	mvnseq	ip, r5, asr #21
    85ec:	11a03001 	movne	r3, r1
    85f0:	11a02000 	movne	r2, r0
    85f4:	e1904601 	orrs	r4, r0, r1, lsl #12
    85f8:	01925603 	orrseq	r5, r2, r3, lsl #12
    85fc:	01310003 	teqeq	r1, r3
    8600:	13811702 	orrne	r1, r1, #524288	; 0x80000
    8604:	e8bd4030 	pop	{r4, r5, lr}
    8608:	e12fff1e 	bx	lr

0000860c <__aeabi_ui2d>:
    860c:	e3300000 	teq	r0, #0, 0
    8610:	03a01000 	moveq	r1, #0, 0
    8614:	012fff1e 	bxeq	lr
    8618:	e92d4030 	push	{r4, r5, lr}
    861c:	e3a04b01 	mov	r4, #1024	; 0x400
    8620:	e2844032 	add	r4, r4, #50, 0	; 0x32
    8624:	e3a05000 	mov	r5, #0, 0
    8628:	e3a01000 	mov	r1, #0, 0
    862c:	eaffff86 	b	844c <__adddf3+0x150>

00008630 <__aeabi_i2d>:
    8630:	e3300000 	teq	r0, #0, 0
    8634:	03a01000 	moveq	r1, #0, 0
    8638:	012fff1e 	bxeq	lr
    863c:	e92d4030 	push	{r4, r5, lr}
    8640:	e3a04b01 	mov	r4, #1024	; 0x400
    8644:	e2844032 	add	r4, r4, #50, 0	; 0x32
    8648:	e2105102 	ands	r5, r0, #-2147483648	; 0x80000000
    864c:	42600000 	rsbmi	r0, r0, #0, 0
    8650:	e3a01000 	mov	r1, #0, 0
    8654:	eaffff7c 	b	844c <__adddf3+0x150>

00008658 <__aeabi_f2d>:
    8658:	e1b02080 	lsls	r2, r0, #1
    865c:	e1a011c2 	asr	r1, r2, #3
    8660:	e1a01061 	rrx	r1, r1
    8664:	e1a00e02 	lsl	r0, r2, #28
    8668:	121234ff 	andsne	r3, r2, #-16777216	; 0xff000000
    866c:	133304ff 	teqne	r3, #-16777216	; 0xff000000
    8670:	1221130e 	eorne	r1, r1, #939524096	; 0x38000000
    8674:	112fff1e 	bxne	lr
    8678:	e3d224ff 	bics	r2, r2, #-16777216	; 0xff000000
    867c:	012fff1e 	bxeq	lr
    8680:	e33304ff 	teq	r3, #-16777216	; 0xff000000
    8684:	03811702 	orreq	r1, r1, #524288	; 0x80000
    8688:	012fff1e 	bxeq	lr
    868c:	e92d4030 	push	{r4, r5, lr}
    8690:	e3a04d0e 	mov	r4, #896	; 0x380
    8694:	e2015102 	and	r5, r1, #-2147483648	; 0x80000000
    8698:	e3c11102 	bic	r1, r1, #-2147483648	; 0x80000000
    869c:	eaffff6a 	b	844c <__adddf3+0x150>

000086a0 <__aeabi_ul2d>:
    86a0:	e1902001 	orrs	r2, r0, r1
    86a4:	012fff1e 	bxeq	lr
    86a8:	e92d4030 	push	{r4, r5, lr}
    86ac:	e3a05000 	mov	r5, #0, 0
    86b0:	ea000006 	b	86d0 <__aeabi_l2d+0x1c>

000086b4 <__aeabi_l2d>:
    86b4:	e1902001 	orrs	r2, r0, r1
    86b8:	012fff1e 	bxeq	lr
    86bc:	e92d4030 	push	{r4, r5, lr}
    86c0:	e2115102 	ands	r5, r1, #-2147483648	; 0x80000000
    86c4:	5a000001 	bpl	86d0 <__aeabi_l2d+0x1c>
    86c8:	e2700000 	rsbs	r0, r0, #0, 0
    86cc:	e2e11000 	rsc	r1, r1, #0, 0
    86d0:	e3a04b01 	mov	r4, #1024	; 0x400
    86d4:	e2844032 	add	r4, r4, #50, 0	; 0x32
    86d8:	e1b0cb21 	lsrs	ip, r1, #22
    86dc:	0affff42 	beq	83ec <__adddf3+0xf0>
    86e0:	e3a02003 	mov	r2, #3, 0
    86e4:	e1b0c1ac 	lsrs	ip, ip, #3
    86e8:	12822003 	addne	r2, r2, #3, 0
    86ec:	e1b0c1ac 	lsrs	ip, ip, #3
    86f0:	12822003 	addne	r2, r2, #3, 0
    86f4:	e08221ac 	add	r2, r2, ip, lsr #3
    86f8:	e2623020 	rsb	r3, r2, #32, 0
    86fc:	e1a0c310 	lsl	ip, r0, r3
    8700:	e1a00230 	lsr	r0, r0, r2
    8704:	e1800311 	orr	r0, r0, r1, lsl r3
    8708:	e1a01231 	lsr	r1, r1, r2
    870c:	e0844002 	add	r4, r4, r2
    8710:	eaffff35 	b	83ec <__adddf3+0xf0>
	...

00008720 <__aeabi_dmul>:
    8720:	e92d4070 	push	{r4, r5, r6, lr}
    8724:	e3a0c0ff 	mov	ip, #255, 0	; 0xff
    8728:	e38ccc07 	orr	ip, ip, #1792	; 0x700
    872c:	e01c4a21 	ands	r4, ip, r1, lsr #20
    8730:	101c5a23 	andsne	r5, ip, r3, lsr #20
    8734:	1134000c 	teqne	r4, ip
    8738:	1135000c 	teqne	r5, ip
    873c:	0b000075 	bleq	8918 <__aeabi_dmul+0x1f8>
    8740:	e0844005 	add	r4, r4, r5
    8744:	e0216003 	eor	r6, r1, r3
    8748:	e1c11a8c 	bic	r1, r1, ip, lsl #21
    874c:	e1c33a8c 	bic	r3, r3, ip, lsl #21
    8750:	e1905601 	orrs	r5, r0, r1, lsl #12
    8754:	11925603 	orrsne	r5, r2, r3, lsl #12
    8758:	e3811601 	orr	r1, r1, #1048576	; 0x100000
    875c:	e3833601 	orr	r3, r3, #1048576	; 0x100000
    8760:	0a00001d 	beq	87dc <__aeabi_dmul+0xbc>
    8764:	e08ec290 	umull	ip, lr, r0, r2
    8768:	e3a05000 	mov	r5, #0, 0
    876c:	e0a5e291 	umlal	lr, r5, r1, r2
    8770:	e2062102 	and	r2, r6, #-2147483648	; 0x80000000
    8774:	e0a5e390 	umlal	lr, r5, r0, r3
    8778:	e3a06000 	mov	r6, #0, 0
    877c:	e0a65391 	umlal	r5, r6, r1, r3
    8780:	e33c0000 	teq	ip, #0, 0
    8784:	138ee001 	orrne	lr, lr, #1, 0
    8788:	e24440ff 	sub	r4, r4, #255, 0	; 0xff
    878c:	e3560c02 	cmp	r6, #512	; 0x200
    8790:	e2c44c03 	sbc	r4, r4, #768	; 0x300
    8794:	2a000002 	bcs	87a4 <__aeabi_dmul+0x84>
    8798:	e1b0e08e 	lsls	lr, lr, #1
    879c:	e0b55005 	adcs	r5, r5, r5
    87a0:	e0a66006 	adc	r6, r6, r6
    87a4:	e1821586 	orr	r1, r2, r6, lsl #11
    87a8:	e1811aa5 	orr	r1, r1, r5, lsr #21
    87ac:	e1a00585 	lsl	r0, r5, #11
    87b0:	e1800aae 	orr	r0, r0, lr, lsr #21
    87b4:	e1a0e58e 	lsl	lr, lr, #11
    87b8:	e254c0fd 	subs	ip, r4, #253, 0	; 0xfd
    87bc:	835c0c07 	cmphi	ip, #1792	; 0x700
    87c0:	8a000011 	bhi	880c <__aeabi_dmul+0xec>
    87c4:	e35e0102 	cmp	lr, #-2147483648	; 0x80000000
    87c8:	01b0e0a0 	lsrseq	lr, r0, #1
    87cc:	e2b00000 	adcs	r0, r0, #0, 0
    87d0:	e0a11a04 	adc	r1, r1, r4, lsl #20
    87d4:	e8bd4070 	pop	{r4, r5, r6, lr}
    87d8:	e12fff1e 	bx	lr
    87dc:	e2066102 	and	r6, r6, #-2147483648	; 0x80000000
    87e0:	e1861001 	orr	r1, r6, r1
    87e4:	e1800002 	orr	r0, r0, r2
    87e8:	e0211003 	eor	r1, r1, r3
    87ec:	e05440ac 	subs	r4, r4, ip, lsr #1
    87f0:	c074500c 	rsbsgt	r5, r4, ip
    87f4:	c1811a04 	orrgt	r1, r1, r4, lsl #20
    87f8:	c8bd4070 	popgt	{r4, r5, r6, lr}
    87fc:	c12fff1e 	bxgt	lr
    8800:	e3811601 	orr	r1, r1, #1048576	; 0x100000
    8804:	e3a0e000 	mov	lr, #0, 0
    8808:	e2544001 	subs	r4, r4, #1, 0
    880c:	ca00005d 	bgt	8988 <__aeabi_dmul+0x268>
    8810:	e3740036 	cmn	r4, #54, 0	; 0x36
    8814:	d3a00000 	movle	r0, #0, 0
    8818:	d2011102 	andle	r1, r1, #-2147483648	; 0x80000000
    881c:	d8bd4070 	pople	{r4, r5, r6, lr}
    8820:	d12fff1e 	bxle	lr
    8824:	e2644000 	rsb	r4, r4, #0, 0
    8828:	e2544020 	subs	r4, r4, #32, 0
    882c:	aa00001a 	bge	889c <__aeabi_dmul+0x17c>
    8830:	e294400c 	adds	r4, r4, #12, 0
    8834:	ca00000c 	bgt	886c <__aeabi_dmul+0x14c>
    8838:	e2844014 	add	r4, r4, #20, 0
    883c:	e2645020 	rsb	r5, r4, #32, 0
    8840:	e1a03510 	lsl	r3, r0, r5
    8844:	e1a00430 	lsr	r0, r0, r4
    8848:	e1800511 	orr	r0, r0, r1, lsl r5
    884c:	e2012102 	and	r2, r1, #-2147483648	; 0x80000000
    8850:	e3c11102 	bic	r1, r1, #-2147483648	; 0x80000000
    8854:	e0900fa3 	adds	r0, r0, r3, lsr #31
    8858:	e0a21431 	adc	r1, r2, r1, lsr r4
    885c:	e19ee083 	orrs	lr, lr, r3, lsl #1
    8860:	01c00fa3 	biceq	r0, r0, r3, lsr #31
    8864:	e8bd4070 	pop	{r4, r5, r6, lr}
    8868:	e12fff1e 	bx	lr
    886c:	e264400c 	rsb	r4, r4, #12, 0
    8870:	e2645020 	rsb	r5, r4, #32, 0
    8874:	e1a03410 	lsl	r3, r0, r4
    8878:	e1a00530 	lsr	r0, r0, r5
    887c:	e1800411 	orr	r0, r0, r1, lsl r4
    8880:	e2011102 	and	r1, r1, #-2147483648	; 0x80000000
    8884:	e0900fa3 	adds	r0, r0, r3, lsr #31
    8888:	e2a11000 	adc	r1, r1, #0, 0
    888c:	e19ee083 	orrs	lr, lr, r3, lsl #1
    8890:	01c00fa3 	biceq	r0, r0, r3, lsr #31
    8894:	e8bd4070 	pop	{r4, r5, r6, lr}
    8898:	e12fff1e 	bx	lr
    889c:	e2645020 	rsb	r5, r4, #32, 0
    88a0:	e18ee510 	orr	lr, lr, r0, lsl r5
    88a4:	e1a03430 	lsr	r3, r0, r4
    88a8:	e1833511 	orr	r3, r3, r1, lsl r5
    88ac:	e1a00431 	lsr	r0, r1, r4
    88b0:	e2011102 	and	r1, r1, #-2147483648	; 0x80000000
    88b4:	e1c00431 	bic	r0, r0, r1, lsr r4
    88b8:	e0800fa3 	add	r0, r0, r3, lsr #31
    88bc:	e19ee083 	orrs	lr, lr, r3, lsl #1
    88c0:	01c00fa3 	biceq	r0, r0, r3, lsr #31
    88c4:	e8bd4070 	pop	{r4, r5, r6, lr}
    88c8:	e12fff1e 	bx	lr
    88cc:	e3340000 	teq	r4, #0, 0
    88d0:	1a000008 	bne	88f8 <__aeabi_dmul+0x1d8>
    88d4:	e2016102 	and	r6, r1, #-2147483648	; 0x80000000
    88d8:	e1b00080 	lsls	r0, r0, #1
    88dc:	e0a11001 	adc	r1, r1, r1
    88e0:	e3110601 	tst	r1, #1048576	; 0x100000
    88e4:	02444001 	subeq	r4, r4, #1, 0
    88e8:	0afffffa 	beq	88d8 <__aeabi_dmul+0x1b8>
    88ec:	e1811006 	orr	r1, r1, r6
    88f0:	e3350000 	teq	r5, #0, 0
    88f4:	112fff1e 	bxne	lr
    88f8:	e2036102 	and	r6, r3, #-2147483648	; 0x80000000
    88fc:	e1b02082 	lsls	r2, r2, #1
    8900:	e0a33003 	adc	r3, r3, r3
    8904:	e3130601 	tst	r3, #1048576	; 0x100000
    8908:	02455001 	subeq	r5, r5, #1, 0
    890c:	0afffffa 	beq	88fc <__aeabi_dmul+0x1dc>
    8910:	e1833006 	orr	r3, r3, r6
    8914:	e12fff1e 	bx	lr
    8918:	e134000c 	teq	r4, ip
    891c:	e00c5a23 	and	r5, ip, r3, lsr #20
    8920:	1135000c 	teqne	r5, ip
    8924:	0a000007 	beq	8948 <__aeabi_dmul+0x228>
    8928:	e1906081 	orrs	r6, r0, r1, lsl #1
    892c:	11926083 	orrsne	r6, r2, r3, lsl #1
    8930:	1affffe5 	bne	88cc <__aeabi_dmul+0x1ac>
    8934:	e0211003 	eor	r1, r1, r3
    8938:	e2011102 	and	r1, r1, #-2147483648	; 0x80000000
    893c:	e3a00000 	mov	r0, #0, 0
    8940:	e8bd4070 	pop	{r4, r5, r6, lr}
    8944:	e12fff1e 	bx	lr
    8948:	e1906081 	orrs	r6, r0, r1, lsl #1
    894c:	01a00002 	moveq	r0, r2
    8950:	01a01003 	moveq	r1, r3
    8954:	11926083 	orrsne	r6, r2, r3, lsl #1
    8958:	0a000010 	beq	89a0 <__aeabi_dmul+0x280>
    895c:	e134000c 	teq	r4, ip
    8960:	1a000001 	bne	896c <__aeabi_dmul+0x24c>
    8964:	e1906601 	orrs	r6, r0, r1, lsl #12
    8968:	1a00000c 	bne	89a0 <__aeabi_dmul+0x280>
    896c:	e135000c 	teq	r5, ip
    8970:	1a000003 	bne	8984 <__aeabi_dmul+0x264>
    8974:	e1926603 	orrs	r6, r2, r3, lsl #12
    8978:	11a00002 	movne	r0, r2
    897c:	11a01003 	movne	r1, r3
    8980:	1a000006 	bne	89a0 <__aeabi_dmul+0x280>
    8984:	e0211003 	eor	r1, r1, r3
    8988:	e2011102 	and	r1, r1, #-2147483648	; 0x80000000
    898c:	e381147f 	orr	r1, r1, #2130706432	; 0x7f000000
    8990:	e381160f 	orr	r1, r1, #15728640	; 0xf00000
    8994:	e3a00000 	mov	r0, #0, 0
    8998:	e8bd4070 	pop	{r4, r5, r6, lr}
    899c:	e12fff1e 	bx	lr
    89a0:	e381147f 	orr	r1, r1, #2130706432	; 0x7f000000
    89a4:	e381173e 	orr	r1, r1, #16252928	; 0xf80000
    89a8:	e8bd4070 	pop	{r4, r5, r6, lr}
    89ac:	e12fff1e 	bx	lr

000089b0 <__aeabi_ddiv>:
    89b0:	e92d4070 	push	{r4, r5, r6, lr}
    89b4:	e3a0c0ff 	mov	ip, #255, 0	; 0xff
    89b8:	e38ccc07 	orr	ip, ip, #1792	; 0x700
    89bc:	e01c4a21 	ands	r4, ip, r1, lsr #20
    89c0:	101c5a23 	andsne	r5, ip, r3, lsr #20
    89c4:	1134000c 	teqne	r4, ip
    89c8:	1135000c 	teqne	r5, ip
    89cc:	0b00005e 	bleq	8b4c <__aeabi_ddiv+0x19c>
    89d0:	e0444005 	sub	r4, r4, r5
    89d4:	e021e003 	eor	lr, r1, r3
    89d8:	e1925603 	orrs	r5, r2, r3, lsl #12
    89dc:	e1a01601 	lsl	r1, r1, #12
    89e0:	0a00004c 	beq	8b18 <__aeabi_ddiv+0x168>
    89e4:	e1a03603 	lsl	r3, r3, #12
    89e8:	e3a05201 	mov	r5, #268435456	; 0x10000000
    89ec:	e1853223 	orr	r3, r5, r3, lsr #4
    89f0:	e1833c22 	orr	r3, r3, r2, lsr #24
    89f4:	e1a02402 	lsl	r2, r2, #8
    89f8:	e1855221 	orr	r5, r5, r1, lsr #4
    89fc:	e1855c20 	orr	r5, r5, r0, lsr #24
    8a00:	e1a06400 	lsl	r6, r0, #8
    8a04:	e20e1102 	and	r1, lr, #-2147483648	; 0x80000000
    8a08:	e1550003 	cmp	r5, r3
    8a0c:	01560002 	cmpeq	r6, r2
    8a10:	e2a440fd 	adc	r4, r4, #253, 0	; 0xfd
    8a14:	e2844c03 	add	r4, r4, #768	; 0x300
    8a18:	2a000001 	bcs	8a24 <__aeabi_ddiv+0x74>
    8a1c:	e1b030a3 	lsrs	r3, r3, #1
    8a20:	e1a02062 	rrx	r2, r2
    8a24:	e0566002 	subs	r6, r6, r2
    8a28:	e0c55003 	sbc	r5, r5, r3
    8a2c:	e1b030a3 	lsrs	r3, r3, #1
    8a30:	e1a02062 	rrx	r2, r2
    8a34:	e3a00601 	mov	r0, #1048576	; 0x100000
    8a38:	e3a0c702 	mov	ip, #524288	; 0x80000
    8a3c:	e056e002 	subs	lr, r6, r2
    8a40:	e0d5e003 	sbcs	lr, r5, r3
    8a44:	20466002 	subcs	r6, r6, r2
    8a48:	21a0500e 	movcs	r5, lr
    8a4c:	2180000c 	orrcs	r0, r0, ip
    8a50:	e1b030a3 	lsrs	r3, r3, #1
    8a54:	e1a02062 	rrx	r2, r2
    8a58:	e056e002 	subs	lr, r6, r2
    8a5c:	e0d5e003 	sbcs	lr, r5, r3
    8a60:	20466002 	subcs	r6, r6, r2
    8a64:	21a0500e 	movcs	r5, lr
    8a68:	218000ac 	orrcs	r0, r0, ip, lsr #1
    8a6c:	e1b030a3 	lsrs	r3, r3, #1
    8a70:	e1a02062 	rrx	r2, r2
    8a74:	e056e002 	subs	lr, r6, r2
    8a78:	e0d5e003 	sbcs	lr, r5, r3
    8a7c:	20466002 	subcs	r6, r6, r2
    8a80:	21a0500e 	movcs	r5, lr
    8a84:	2180012c 	orrcs	r0, r0, ip, lsr #2
    8a88:	e1b030a3 	lsrs	r3, r3, #1
    8a8c:	e1a02062 	rrx	r2, r2
    8a90:	e056e002 	subs	lr, r6, r2
    8a94:	e0d5e003 	sbcs	lr, r5, r3
    8a98:	20466002 	subcs	r6, r6, r2
    8a9c:	21a0500e 	movcs	r5, lr
    8aa0:	218001ac 	orrcs	r0, r0, ip, lsr #3
    8aa4:	e195e006 	orrs	lr, r5, r6
    8aa8:	0a00000d 	beq	8ae4 <__aeabi_ddiv+0x134>
    8aac:	e1a05205 	lsl	r5, r5, #4
    8ab0:	e1855e26 	orr	r5, r5, r6, lsr #28
    8ab4:	e1a06206 	lsl	r6, r6, #4
    8ab8:	e1a03183 	lsl	r3, r3, #3
    8abc:	e1833ea2 	orr	r3, r3, r2, lsr #29
    8ac0:	e1a02182 	lsl	r2, r2, #3
    8ac4:	e1b0c22c 	lsrs	ip, ip, #4
    8ac8:	1affffdb 	bne	8a3c <__aeabi_ddiv+0x8c>
    8acc:	e3110601 	tst	r1, #1048576	; 0x100000
    8ad0:	1a000006 	bne	8af0 <__aeabi_ddiv+0x140>
    8ad4:	e1811000 	orr	r1, r1, r0
    8ad8:	e3a00000 	mov	r0, #0, 0
    8adc:	e3a0c102 	mov	ip, #-2147483648	; 0x80000000
    8ae0:	eaffffd5 	b	8a3c <__aeabi_ddiv+0x8c>
    8ae4:	e3110601 	tst	r1, #1048576	; 0x100000
    8ae8:	01811000 	orreq	r1, r1, r0
    8aec:	03a00000 	moveq	r0, #0, 0
    8af0:	e254c0fd 	subs	ip, r4, #253, 0	; 0xfd
    8af4:	835c0c07 	cmphi	ip, #1792	; 0x700
    8af8:	8affff43 	bhi	880c <__aeabi_dmul+0xec>
    8afc:	e055c003 	subs	ip, r5, r3
    8b00:	0056c002 	subseq	ip, r6, r2
    8b04:	01b0c0a0 	lsrseq	ip, r0, #1
    8b08:	e2b00000 	adcs	r0, r0, #0, 0
    8b0c:	e0a11a04 	adc	r1, r1, r4, lsl #20
    8b10:	e8bd4070 	pop	{r4, r5, r6, lr}
    8b14:	e12fff1e 	bx	lr
    8b18:	e20ee102 	and	lr, lr, #-2147483648	; 0x80000000
    8b1c:	e18e1621 	orr	r1, lr, r1, lsr #12
    8b20:	e09440ac 	adds	r4, r4, ip, lsr #1
    8b24:	c074500c 	rsbsgt	r5, r4, ip
    8b28:	c1811a04 	orrgt	r1, r1, r4, lsl #20
    8b2c:	c8bd4070 	popgt	{r4, r5, r6, lr}
    8b30:	c12fff1e 	bxgt	lr
    8b34:	e3811601 	orr	r1, r1, #1048576	; 0x100000
    8b38:	e3a0e000 	mov	lr, #0, 0
    8b3c:	e2544001 	subs	r4, r4, #1, 0
    8b40:	eaffff31 	b	880c <__aeabi_dmul+0xec>
    8b44:	e185e006 	orr	lr, r5, r6
    8b48:	eaffff2f 	b	880c <__aeabi_dmul+0xec>
    8b4c:	e00c5a23 	and	r5, ip, r3, lsr #20
    8b50:	e134000c 	teq	r4, ip
    8b54:	0135000c 	teqeq	r5, ip
    8b58:	0affff90 	beq	89a0 <__aeabi_dmul+0x280>
    8b5c:	e134000c 	teq	r4, ip
    8b60:	1a000006 	bne	8b80 <__aeabi_ddiv+0x1d0>
    8b64:	e1904601 	orrs	r4, r0, r1, lsl #12
    8b68:	1affff8c 	bne	89a0 <__aeabi_dmul+0x280>
    8b6c:	e135000c 	teq	r5, ip
    8b70:	1affff83 	bne	8984 <__aeabi_dmul+0x264>
    8b74:	e1a00002 	mov	r0, r2
    8b78:	e1a01003 	mov	r1, r3
    8b7c:	eaffff87 	b	89a0 <__aeabi_dmul+0x280>
    8b80:	e135000c 	teq	r5, ip
    8b84:	1a000004 	bne	8b9c <__aeabi_ddiv+0x1ec>
    8b88:	e1925603 	orrs	r5, r2, r3, lsl #12
    8b8c:	0affff68 	beq	8934 <__aeabi_dmul+0x214>
    8b90:	e1a00002 	mov	r0, r2
    8b94:	e1a01003 	mov	r1, r3
    8b98:	eaffff80 	b	89a0 <__aeabi_dmul+0x280>
    8b9c:	e1906081 	orrs	r6, r0, r1, lsl #1
    8ba0:	11926083 	orrsne	r6, r2, r3, lsl #1
    8ba4:	1affff48 	bne	88cc <__aeabi_dmul+0x1ac>
    8ba8:	e1904081 	orrs	r4, r0, r1, lsl #1
    8bac:	1affff74 	bne	8984 <__aeabi_dmul+0x264>
    8bb0:	e1925083 	orrs	r5, r2, r3, lsl #1
    8bb4:	1affff5e 	bne	8934 <__aeabi_dmul+0x214>
    8bb8:	eaffff78 	b	89a0 <__aeabi_dmul+0x280>
    8bbc:	00000000 	andeq	r0, r0, r0

00008bc0 <__aeabi_d2iz>:
    8bc0:	e1a02081 	lsl	r2, r1, #1
    8bc4:	e2922602 	adds	r2, r2, #2097152	; 0x200000
    8bc8:	2a00000c 	bcs	8c00 <__aeabi_d2iz+0x40>
    8bcc:	5a000009 	bpl	8bf8 <__aeabi_d2iz+0x38>
    8bd0:	e3e03e3e 	mvn	r3, #992	; 0x3e0
    8bd4:	e0532ac2 	subs	r2, r3, r2, asr #21
    8bd8:	9a00000a 	bls	8c08 <__aeabi_d2iz+0x48>
    8bdc:	e1a03581 	lsl	r3, r1, #11
    8be0:	e3833102 	orr	r3, r3, #-2147483648	; 0x80000000
    8be4:	e1833aa0 	orr	r3, r3, r0, lsr #21
    8be8:	e3110102 	tst	r1, #-2147483648	; 0x80000000
    8bec:	e1a00233 	lsr	r0, r3, r2
    8bf0:	12600000 	rsbne	r0, r0, #0, 0
    8bf4:	e12fff1e 	bx	lr
    8bf8:	e3a00000 	mov	r0, #0, 0
    8bfc:	e12fff1e 	bx	lr
    8c00:	e1900601 	orrs	r0, r0, r1, lsl #12
    8c04:	1a000002 	bne	8c14 <__aeabi_d2iz+0x54>
    8c08:	e2110102 	ands	r0, r1, #-2147483648	; 0x80000000
    8c0c:	03e00102 	mvneq	r0, #-2147483648	; 0x80000000
    8c10:	e12fff1e 	bx	lr
    8c14:	e3a00000 	mov	r0, #0, 0
    8c18:	e12fff1e 	bx	lr
    8c1c:	00000000 	andeq	r0, r0, r0

00008c20 <__aeabi_d2f>:
    8c20:	e1a02081 	lsl	r2, r1, #1
    8c24:	e2523207 	subs	r3, r2, #1879048192	; 0x70000000
    8c28:	2253c602 	subscs	ip, r3, #2097152	; 0x200000
    8c2c:	227cc57f 	rsbscs	ip, ip, #532676608	; 0x1fc00000
    8c30:	9a000006 	bls	8c50 <__aeabi_d2f+0x30>
    8c34:	e201c102 	and	ip, r1, #-2147483648	; 0x80000000
    8c38:	e1a02180 	lsl	r2, r0, #3
    8c3c:	e18c0ea0 	orr	r0, ip, r0, lsr #29
    8c40:	e3520102 	cmp	r2, #-2147483648	; 0x80000000
    8c44:	e0a00103 	adc	r0, r0, r3, lsl #2
    8c48:	03c00001 	biceq	r0, r0, #1, 0
    8c4c:	e12fff1e 	bx	lr
    8c50:	e3110101 	tst	r1, #1073741824	; 0x40000000
    8c54:	1a00000f 	bne	8c98 <__aeabi_d2f+0x78>
    8c58:	e293262e 	adds	r2, r3, #48234496	; 0x2e00000
    8c5c:	b2010102 	andlt	r0, r1, #-2147483648	; 0x80000000
    8c60:	b12fff1e 	bxlt	lr
    8c64:	e3811601 	orr	r1, r1, #1048576	; 0x100000
    8c68:	e1a02aa2 	lsr	r2, r2, #21
    8c6c:	e2622018 	rsb	r2, r2, #24, 0
    8c70:	e262c020 	rsb	ip, r2, #32, 0
    8c74:	e1b03c10 	lsls	r3, r0, ip
    8c78:	e1a00230 	lsr	r0, r0, r2
    8c7c:	13800001 	orrne	r0, r0, #1, 0
    8c80:	e1a03581 	lsl	r3, r1, #11
    8c84:	e1a035a3 	lsr	r3, r3, #11
    8c88:	e1800c13 	orr	r0, r0, r3, lsl ip
    8c8c:	e1a03233 	lsr	r3, r3, r2
    8c90:	e1a03083 	lsl	r3, r3, #1
    8c94:	eaffffe6 	b	8c34 <__aeabi_d2f+0x14>
    8c98:	e1f03ac2 	mvns	r3, r2, asr #21
    8c9c:	1a000003 	bne	8cb0 <__aeabi_d2f+0x90>
    8ca0:	e1903601 	orrs	r3, r0, r1, lsl #12
    8ca4:	13a0047f 	movne	r0, #2130706432	; 0x7f000000
    8ca8:	13800503 	orrne	r0, r0, #12582912	; 0xc00000
    8cac:	112fff1e 	bxne	lr
    8cb0:	e2010102 	and	r0, r1, #-2147483648	; 0x80000000
    8cb4:	e380047f 	orr	r0, r0, #2130706432	; 0x7f000000
    8cb8:	e3800502 	orr	r0, r0, #8388608	; 0x800000
    8cbc:	e12fff1e 	bx	lr

00008cc0 <__gesf2>:
    8cc0:	e3e0c000 	mvn	ip, #0, 0
    8cc4:	ea000002 	b	8cd4 <__cmpsf2+0x4>

00008cc8 <__lesf2>:
    8cc8:	e3a0c001 	mov	ip, #1, 0
    8ccc:	ea000000 	b	8cd4 <__cmpsf2+0x4>

00008cd0 <__cmpsf2>:
    8cd0:	e3a0c001 	mov	ip, #1, 0
    8cd4:	e52dc004 	push	{ip}		; (str ip, [sp, #-4]!)
    8cd8:	e1a02080 	lsl	r2, r0, #1
    8cdc:	e1a03081 	lsl	r3, r1, #1
    8ce0:	e1f0cc42 	mvns	ip, r2, asr #24
    8ce4:	11f0cc43 	mvnsne	ip, r3, asr #24
    8ce8:	0a000007 	beq	8d0c <__cmpsf2+0x3c>
    8cec:	e28dd004 	add	sp, sp, #4, 0
    8cf0:	e192c0a3 	orrs	ip, r2, r3, lsr #1
    8cf4:	11300001 	teqne	r0, r1
    8cf8:	50520003 	subspl	r0, r2, r3
    8cfc:	81a00fc1 	asrhi	r0, r1, #31
    8d00:	31e00fc1 	mvncc	r0, r1, asr #31
    8d04:	13800001 	orrne	r0, r0, #1, 0
    8d08:	e12fff1e 	bx	lr
    8d0c:	e1f0cc42 	mvns	ip, r2, asr #24
    8d10:	1a000001 	bne	8d1c <__cmpsf2+0x4c>
    8d14:	e1b0c480 	lsls	ip, r0, #9
    8d18:	1a000003 	bne	8d2c <__cmpsf2+0x5c>
    8d1c:	e1f0cc43 	mvns	ip, r3, asr #24
    8d20:	1afffff1 	bne	8cec <__cmpsf2+0x1c>
    8d24:	e1b0c481 	lsls	ip, r1, #9
    8d28:	0affffef 	beq	8cec <__cmpsf2+0x1c>
    8d2c:	e49d0004 	pop	{r0}		; (ldr r0, [sp], #4)
    8d30:	e12fff1e 	bx	lr

00008d34 <__aeabi_cfrcmple>:
    8d34:	e1a0c000 	mov	ip, r0
    8d38:	e1a00001 	mov	r0, r1
    8d3c:	e1a0100c 	mov	r1, ip
    8d40:	eaffffff 	b	8d44 <__aeabi_cfcmpeq>

00008d44 <__aeabi_cfcmpeq>:
    8d44:	e92d400f 	push	{r0, r1, r2, r3, lr}
    8d48:	ebffffe0 	bl	8cd0 <__cmpsf2>
    8d4c:	e3500000 	cmp	r0, #0, 0
    8d50:	43700000 	cmnmi	r0, #0, 0
    8d54:	e8bd400f 	pop	{r0, r1, r2, r3, lr}
    8d58:	e12fff1e 	bx	lr

00008d5c <__aeabi_fcmpeq>:
    8d5c:	e52de008 	str	lr, [sp, #-8]!
    8d60:	ebfffff7 	bl	8d44 <__aeabi_cfcmpeq>
    8d64:	03a00001 	moveq	r0, #1, 0
    8d68:	13a00000 	movne	r0, #0, 0
    8d6c:	e49de008 	ldr	lr, [sp], #8
    8d70:	e12fff1e 	bx	lr

00008d74 <__aeabi_fcmplt>:
    8d74:	e52de008 	str	lr, [sp, #-8]!
    8d78:	ebfffff1 	bl	8d44 <__aeabi_cfcmpeq>
    8d7c:	33a00001 	movcc	r0, #1, 0
    8d80:	23a00000 	movcs	r0, #0, 0
    8d84:	e49de008 	ldr	lr, [sp], #8
    8d88:	e12fff1e 	bx	lr

00008d8c <__aeabi_fcmple>:
    8d8c:	e52de008 	str	lr, [sp, #-8]!
    8d90:	ebffffeb 	bl	8d44 <__aeabi_cfcmpeq>
    8d94:	93a00001 	movls	r0, #1, 0
    8d98:	83a00000 	movhi	r0, #0, 0
    8d9c:	e49de008 	ldr	lr, [sp], #8
    8da0:	e12fff1e 	bx	lr

00008da4 <__aeabi_fcmpge>:
    8da4:	e52de008 	str	lr, [sp, #-8]!
    8da8:	ebffffe1 	bl	8d34 <__aeabi_cfrcmple>
    8dac:	93a00001 	movls	r0, #1, 0
    8db0:	83a00000 	movhi	r0, #0, 0
    8db4:	e49de008 	ldr	lr, [sp], #8
    8db8:	e12fff1e 	bx	lr

00008dbc <__aeabi_fcmpgt>:
    8dbc:	e52de008 	str	lr, [sp, #-8]!
    8dc0:	ebffffdb 	bl	8d34 <__aeabi_cfrcmple>
    8dc4:	33a00001 	movcc	r0, #1, 0
    8dc8:	23a00000 	movcs	r0, #0, 0
    8dcc:	e49de008 	ldr	lr, [sp], #8
    8dd0:	e12fff1e 	bx	lr
	...

00008de0 <__aeabi_f2iz>:
    8de0:	e1a02080 	lsl	r2, r0, #1
    8de4:	e352047f 	cmp	r2, #2130706432	; 0x7f000000
    8de8:	3a000008 	bcc	8e10 <__aeabi_f2iz+0x30>
    8dec:	e3a0309e 	mov	r3, #158, 0	; 0x9e
    8df0:	e0532c22 	subs	r2, r3, r2, lsr #24
    8df4:	9a000007 	bls	8e18 <__aeabi_f2iz+0x38>
    8df8:	e1a03400 	lsl	r3, r0, #8
    8dfc:	e3833102 	orr	r3, r3, #-2147483648	; 0x80000000
    8e00:	e3100102 	tst	r0, #-2147483648	; 0x80000000
    8e04:	e1a00233 	lsr	r0, r3, r2
    8e08:	12600000 	rsbne	r0, r0, #0, 0
    8e0c:	e12fff1e 	bx	lr
    8e10:	e3a00000 	mov	r0, #0, 0
    8e14:	e12fff1e 	bx	lr
    8e18:	e3720061 	cmn	r2, #97, 0	; 0x61
    8e1c:	1a000001 	bne	8e28 <__aeabi_f2iz+0x48>
    8e20:	e1b02480 	lsls	r2, r0, #9
    8e24:	1a000002 	bne	8e34 <__aeabi_f2iz+0x54>
    8e28:	e2100102 	ands	r0, r0, #-2147483648	; 0x80000000
    8e2c:	03e00102 	mvneq	r0, #-2147483648	; 0x80000000
    8e30:	e12fff1e 	bx	lr
    8e34:	e3a00000 	mov	r0, #0, 0
    8e38:	e12fff1e 	bx	lr
    8e3c:	00000000 	andeq	r0, r0, r0

00008e40 <_idle_thread>:
    8e40:	e59f3010 	ldr	r3, [pc, #16]	; 8e58 <_idle_thread+0x18>
    8e44:	e59f2010 	ldr	r2, [pc, #16]	; 8e5c <_idle_thread+0x1c>
    8e48:	e5933018 	ldr	r3, [r3, #24]
    8e4c:	e5832018 	str	r2, [r3, #24]
    8e50:	ee070f90 	mcr	15, 0, r0, cr7, cr0, {4}
    8e54:	eafffffd 	b	8e50 <_idle_thread+0x10>
    8e58:	0000b5f8 	strdeq	fp, [r0], -r8
    8e5c:	0000b310 	andeq	fp, r0, r0, lsl r3

00008e60 <chSysInit>:
    8e60:	e52de004 	push	{lr}		; (str lr, [sp, #-4]!)
    8e64:	e24dd00c 	sub	sp, sp, #12, 0
    8e68:	eb0000a4 	bl	9100 <_scheduler_init>
    8e6c:	eb00003f 	bl	8f70 <_vt_init>
    8e70:	eb0003de 	bl	9df0 <_core_init>
    8e74:	eb000401 	bl	9e80 <_heap_init>
    8e78:	e3a01040 	mov	r1, #64, 0	; 0x40
    8e7c:	e59f0040 	ldr	r0, [pc, #64]	; 8ec4 <chSysInit+0x64>
    8e80:	eb000176 	bl	9460 <_thread_init>
    8e84:	e3a02001 	mov	r2, #1, 0
    8e88:	e59f3038 	ldr	r3, [pc, #56]	; 8ec8 <chSysInit+0x68>
    8e8c:	e5c0201c 	strb	r2, [r0, #28]
    8e90:	e5830018 	str	r0, [r3, #24]
    8e94:	e321f01f 	msr	CPSR_c, #31, 0
    8e98:	e3a01000 	mov	r1, #0, 0
    8e9c:	e5933018 	ldr	r3, [r3, #24]
    8ea0:	e59f0024 	ldr	r0, [pc, #36]	; 8ecc <chSysInit+0x6c>
    8ea4:	e5830018 	str	r0, [r3, #24]
    8ea8:	e58d1000 	str	r1, [sp]
    8eac:	e59f301c 	ldr	r3, [pc, #28]	; 8ed0 <chSysInit+0x70>
    8eb0:	e3a0109c 	mov	r1, #156, 0	; 0x9c
    8eb4:	e59f0018 	ldr	r0, [pc, #24]	; 8ed4 <chSysInit+0x74>
    8eb8:	eb000184 	bl	94d0 <chThdCreateStatic>
    8ebc:	e28dd00c 	add	sp, sp, #12, 0
    8ec0:	e49df004 	pop	{pc}		; (ldr pc, [sp], #4)
    8ec4:	0000b3c8 	andeq	fp, r0, r8, asr #7
    8ec8:	0000b5f8 	strdeq	fp, [r0], -r8
    8ecc:	0000b320 	andeq	fp, r0, r0, lsr #6
    8ed0:	00008e40 	andeq	r8, r0, r0, asr #28
    8ed4:	0000b54c 	andeq	fp, r0, ip, asr #10
	...

00008ee0 <chSysTimerHandlerI>:
    8ee0:	e92d4070 	push	{r4, r5, r6, lr}
    8ee4:	e59f307c 	ldr	r3, [pc, #124]	; 8f68 <chSysTimerHandlerI+0x88>
    8ee8:	e59f407c 	ldr	r4, [pc, #124]	; 8f6c <chSysTimerHandlerI+0x8c>
    8eec:	e5933018 	ldr	r3, [r3, #24]
    8ef0:	e5d3201f 	ldrb	r2, [r3, #31]
    8ef4:	e3520000 	cmp	r2, #0, 0
    8ef8:	12422001 	subne	r2, r2, #1, 0
    8efc:	15c3201f 	strbne	r2, [r3, #31]
    8f00:	e5932020 	ldr	r2, [r3, #32]
    8f04:	e2822001 	add	r2, r2, #1, 0
    8f08:	e5832020 	str	r2, [r3, #32]
    8f0c:	e594200c 	ldr	r2, [r4, #12]
    8f10:	e5943000 	ldr	r3, [r4]
    8f14:	e2822001 	add	r2, r2, #1, 0
    8f18:	e1530004 	cmp	r3, r4
    8f1c:	e584200c 	str	r2, [r4, #12]
    8f20:	08bd8070 	popeq	{r4, r5, r6, pc}
    8f24:	e5935008 	ldr	r5, [r3, #8]
    8f28:	e2455001 	sub	r5, r5, #1, 0
    8f2c:	e3550000 	cmp	r5, #0, 0
    8f30:	e5835008 	str	r5, [r3, #8]
    8f34:	18bd8070 	popne	{r4, r5, r6, pc}
    8f38:	e5932000 	ldr	r2, [r3]
    8f3c:	e593100c 	ldr	r1, [r3, #12]
    8f40:	e5930010 	ldr	r0, [r3, #16]
    8f44:	e583500c 	str	r5, [r3, #12]
    8f48:	e5842000 	str	r2, [r4]
    8f4c:	e5824004 	str	r4, [r2, #4]
    8f50:	e12fff31 	blx	r1
    8f54:	e5943000 	ldr	r3, [r4]
    8f58:	e5932008 	ldr	r2, [r3, #8]
    8f5c:	e3520000 	cmp	r2, #0, 0
    8f60:	0afffff4 	beq	8f38 <chSysTimerHandlerI+0x58>
    8f64:	e8bd8070 	pop	{r4, r5, r6, pc}
    8f68:	0000b5f8 	strdeq	fp, [r0], -r8
    8f6c:	0000b5e8 	andeq	fp, r0, r8, ror #11

00008f70 <_vt_init>:
    8f70:	e3e01000 	mvn	r1, #0, 0
    8f74:	e3a02000 	mov	r2, #0, 0
    8f78:	e59f3010 	ldr	r3, [pc, #16]	; 8f90 <_vt_init+0x20>
    8f7c:	e5831008 	str	r1, [r3, #8]
    8f80:	e5833004 	str	r3, [r3, #4]
    8f84:	e5833000 	str	r3, [r3]
    8f88:	e583200c 	str	r2, [r3, #12]
    8f8c:	e12fff1e 	bx	lr
    8f90:	0000b5e8 	andeq	fp, r0, r8, ror #11
	...

00008fa0 <chVTSetI>:
    8fa0:	e59fc058 	ldr	ip, [pc, #88]	; 9000 <chVTSetI+0x60>
    8fa4:	e5803010 	str	r3, [r0, #16]
    8fa8:	e59c3000 	ldr	r3, [ip]
    8fac:	e580200c 	str	r2, [r0, #12]
    8fb0:	e5932008 	ldr	r2, [r3, #8]
    8fb4:	e1510002 	cmp	r1, r2
    8fb8:	9a000004 	bls	8fd0 <chVTSetI+0x30>
    8fbc:	e5933000 	ldr	r3, [r3]
    8fc0:	e0411002 	sub	r1, r1, r2
    8fc4:	e5932008 	ldr	r2, [r3, #8]
    8fc8:	e1520001 	cmp	r2, r1
    8fcc:	3afffffa 	bcc	8fbc <chVTSetI+0x1c>
    8fd0:	e5932004 	ldr	r2, [r3, #4]
    8fd4:	e5803000 	str	r3, [r0]
    8fd8:	e5802004 	str	r2, [r0, #4]
    8fdc:	e5830004 	str	r0, [r3, #4]
    8fe0:	e5902004 	ldr	r2, [r0, #4]
    8fe4:	e153000c 	cmp	r3, ip
    8fe8:	e5820000 	str	r0, [r2]
    8fec:	e5801008 	str	r1, [r0, #8]
    8ff0:	15932008 	ldrne	r2, [r3, #8]
    8ff4:	10421001 	subne	r1, r2, r1
    8ff8:	15831008 	strne	r1, [r3, #8]
    8ffc:	e12fff1e 	bx	lr
    9000:	0000b5e8 	andeq	fp, r0, r8, ror #11
	...

00009010 <chVTResetI>:
    9010:	e5903000 	ldr	r3, [r0]
    9014:	e59f202c 	ldr	r2, [pc, #44]	; 9048 <chVTResetI+0x38>
    9018:	e1530002 	cmp	r3, r2
    901c:	15932008 	ldrne	r2, [r3, #8]
    9020:	15901008 	ldrne	r1, [r0, #8]
    9024:	10822001 	addne	r2, r2, r1
    9028:	e3a01000 	mov	r1, #0, 0
    902c:	15832008 	strne	r2, [r3, #8]
    9030:	e5902004 	ldr	r2, [r0, #4]
    9034:	e5823000 	str	r3, [r2]
    9038:	e5903000 	ldr	r3, [r0]
    903c:	e5832004 	str	r2, [r3, #4]
    9040:	e580100c 	str	r1, [r0, #12]
    9044:	e12fff1e 	bx	lr
    9048:	0000b5e8 	andeq	fp, r0, r8, ror #11
    904c:	00000000 	andeq	r0, r0, r0

00009050 <wakeup>:
    9050:	e5d0301c 	ldrb	r3, [r0, #28]
    9054:	e353000d 	cmp	r3, #13, 0
    9058:	979ff103 	ldrls	pc, [pc, r3, lsl #2]
    905c:	ea000015 	b	90b8 <wakeup+0x68>
    9060:	000090f8 	strdeq	r9, [r0], -r8
    9064:	000090b8 	strheq	r9, [r0], -r8
    9068:	000090b8 	strheq	r9, [r0], -r8
    906c:	00009098 	muleq	r0, r8, r0
    9070:	000090b8 	strheq	r9, [r0], -r8
    9074:	000090a8 	andeq	r9, r0, r8, lsr #1
    9078:	000090b8 	strheq	r9, [r0], -r8
    907c:	000090b8 	strheq	r9, [r0], -r8
    9080:	000090b8 	strheq	r9, [r0], -r8
    9084:	000090b8 	strheq	r9, [r0], -r8
    9088:	000090b8 	strheq	r9, [r0], -r8
    908c:	000090b8 	strheq	r9, [r0], -r8
    9090:	000090b8 	strheq	r9, [r0], -r8
    9094:	000090a8 	andeq	r9, r0, r8, lsr #1
    9098:	e5902024 	ldr	r2, [r0, #36]	; 0x24
    909c:	e5923008 	ldr	r3, [r2, #8]
    90a0:	e2833001 	add	r3, r3, #1, 0
    90a4:	e5823008 	str	r3, [r2, #8]
    90a8:	e5902004 	ldr	r2, [r0, #4]
    90ac:	e5903000 	ldr	r3, [r0]
    90b0:	e5823000 	str	r3, [r2]
    90b4:	e5832004 	str	r2, [r3, #4]
    90b8:	e3e0c000 	mvn	ip, #0, 0
    90bc:	e3a02000 	mov	r2, #0, 0
    90c0:	e5901008 	ldr	r1, [r0, #8]
    90c4:	e59f3030 	ldr	r3, [pc, #48]	; 90fc <wakeup+0xac>
    90c8:	e580c024 	str	ip, [r0, #36]	; 0x24
    90cc:	e5c0201c 	strb	r2, [r0, #28]
    90d0:	e5933000 	ldr	r3, [r3]
    90d4:	e5932008 	ldr	r2, [r3, #8]
    90d8:	e1520001 	cmp	r2, r1
    90dc:	2afffffb 	bcs	90d0 <wakeup+0x80>
    90e0:	e5932004 	ldr	r2, [r3, #4]
    90e4:	e5803000 	str	r3, [r0]
    90e8:	e5802004 	str	r2, [r0, #4]
    90ec:	e5830004 	str	r0, [r3, #4]
    90f0:	e5903004 	ldr	r3, [r0, #4]
    90f4:	e5830000 	str	r0, [r3]
    90f8:	e12fff1e 	bx	lr
    90fc:	0000b5f8 	strdeq	fp, [r0], -r8

00009100 <_scheduler_init>:
    9100:	e3a02000 	mov	r2, #0, 0
    9104:	e59f3014 	ldr	r3, [pc, #20]	; 9120 <_scheduler_init+0x20>
    9108:	e5832008 	str	r2, [r3, #8]
    910c:	e5833004 	str	r3, [r3, #4]
    9110:	e5833000 	str	r3, [r3]
    9114:	e5833014 	str	r3, [r3, #20]
    9118:	e5833010 	str	r3, [r3, #16]
    911c:	e12fff1e 	bx	lr
    9120:	0000b5f8 	strdeq	fp, [r0], -r8
	...

00009130 <chSchReadyI>:
    9130:	e3a02000 	mov	r2, #0, 0
    9134:	e1a0c000 	mov	ip, r0
    9138:	e5901008 	ldr	r1, [r0, #8]
    913c:	e59f3030 	ldr	r3, [pc, #48]	; 9174 <chSchReadyI+0x44>
    9140:	e5c0201c 	strb	r2, [r0, #28]
    9144:	e5933000 	ldr	r3, [r3]
    9148:	e5932008 	ldr	r2, [r3, #8]
    914c:	e1520001 	cmp	r2, r1
    9150:	2afffffb 	bcs	9144 <chSchReadyI+0x14>
    9154:	e5932004 	ldr	r2, [r3, #4]
    9158:	e58c3000 	str	r3, [ip]
    915c:	e58c2004 	str	r2, [ip, #4]
    9160:	e583c004 	str	ip, [r3, #4]
    9164:	e59c3004 	ldr	r3, [ip, #4]
    9168:	e1a0000c 	mov	r0, ip
    916c:	e583c000 	str	ip, [r3]
    9170:	e12fff1e 	bx	lr
    9174:	0000b5f8 	strdeq	fp, [r0], -r8
	...

00009180 <chSchGoSleepS>:
    9180:	e3a0c014 	mov	ip, #20, 0
    9184:	e52de004 	push	{lr}		; (str lr, [sp, #-4]!)
    9188:	e3a0e001 	mov	lr, #1, 0
    918c:	e59f302c 	ldr	r3, [pc, #44]	; 91c0 <chSchGoSleepS+0x40>
    9190:	e5931018 	ldr	r1, [r3, #24]
    9194:	e5932000 	ldr	r2, [r3]
    9198:	e5c1001c 	strb	r0, [r1, #28]
    919c:	e5c1c01f 	strb	ip, [r1, #31]
    91a0:	e592c000 	ldr	ip, [r2]
    91a4:	e1a00002 	mov	r0, r2
    91a8:	e58c3004 	str	r3, [ip, #4]
    91ac:	e5c2e01c 	strb	lr, [r2, #28]
    91b0:	e583c000 	str	ip, [r3]
    91b4:	e49de004 	pop	{lr}		; (ldr lr, [sp], #4)
    91b8:	e5832018 	str	r2, [r3, #24]
    91bc:	eafffbcb 	b	80f0 <_port_switch_arm>
    91c0:	0000b5f8 	strdeq	fp, [r0], -r8
	...

000091d0 <chSchGoSleepTimeoutS>:
    91d0:	e92d4030 	push	{r4, r5, lr}
    91d4:	e3710001 	cmn	r1, #1, 0
    91d8:	e24dd01c 	sub	sp, sp, #28, 0
    91dc:	0a000010 	beq	9224 <chSchGoSleepTimeoutS+0x54>
    91e0:	e1a05000 	mov	r5, r0
    91e4:	e59f4050 	ldr	r4, [pc, #80]	; 923c <chSchGoSleepTimeoutS+0x6c>
    91e8:	e28d0004 	add	r0, sp, #4, 0
    91ec:	e5943018 	ldr	r3, [r4, #24]
    91f0:	e59f2048 	ldr	r2, [pc, #72]	; 9240 <chSchGoSleepTimeoutS+0x70>
    91f4:	ebffff69 	bl	8fa0 <chVTSetI>
    91f8:	e1a00005 	mov	r0, r5
    91fc:	ebffffdf 	bl	9180 <chSchGoSleepS>
    9200:	e59d3010 	ldr	r3, [sp, #16]
    9204:	e3530000 	cmp	r3, #0, 0
    9208:	0a000001 	beq	9214 <chSchGoSleepTimeoutS+0x44>
    920c:	e28d0004 	add	r0, sp, #4, 0
    9210:	ebffff7e 	bl	9010 <chVTResetI>
    9214:	e5943018 	ldr	r3, [r4, #24]
    9218:	e5930024 	ldr	r0, [r3, #36]	; 0x24
    921c:	e28dd01c 	add	sp, sp, #28, 0
    9220:	e8bd8030 	pop	{r4, r5, pc}
    9224:	ebffffd5 	bl	9180 <chSchGoSleepS>
    9228:	e59f400c 	ldr	r4, [pc, #12]	; 923c <chSchGoSleepTimeoutS+0x6c>
    922c:	e5943018 	ldr	r3, [r4, #24]
    9230:	e5930024 	ldr	r0, [r3, #36]	; 0x24
    9234:	e28dd01c 	add	sp, sp, #28, 0
    9238:	e8bd8030 	pop	{r4, r5, pc}
    923c:	0000b5f8 	strdeq	fp, [r0], -r8
    9240:	00009050 	andeq	r9, r0, r0, asr r0
	...

00009250 <chSchWakeupS>:
    9250:	e59f30a0 	ldr	r3, [pc, #160]	; 92f8 <chSchWakeupS+0xa8>
    9254:	e92d4010 	push	{r4, lr}
    9258:	e5934018 	ldr	r4, [r3, #24]
    925c:	e590e008 	ldr	lr, [r0, #8]
    9260:	e1a0c000 	mov	ip, r0
    9264:	e5801024 	str	r1, [r0, #36]	; 0x24
    9268:	e5940008 	ldr	r0, [r4, #8]
    926c:	e15e0000 	cmp	lr, r0
    9270:	8a00000c 	bhi	92a8 <chSchWakeupS+0x58>
    9274:	e3a02000 	mov	r2, #0, 0
    9278:	e5cc201c 	strb	r2, [ip, #28]
    927c:	e5933000 	ldr	r3, [r3]
    9280:	e5932008 	ldr	r2, [r3, #8]
    9284:	e15e0002 	cmp	lr, r2
    9288:	9afffffb 	bls	927c <chSchWakeupS+0x2c>
    928c:	e5932004 	ldr	r2, [r3, #4]
    9290:	e58c3000 	str	r3, [ip]
    9294:	e58c2004 	str	r2, [ip, #4]
    9298:	e583c004 	str	ip, [r3, #4]
    929c:	e59c3004 	ldr	r3, [ip, #4]
    92a0:	e583c000 	str	ip, [r3]
    92a4:	e8bd8010 	pop	{r4, pc}
    92a8:	e3a01000 	mov	r1, #0, 0
    92ac:	e1a02003 	mov	r2, r3
    92b0:	e5c4101c 	strb	r1, [r4, #28]
    92b4:	e5922000 	ldr	r2, [r2]
    92b8:	e5921008 	ldr	r1, [r2, #8]
    92bc:	e1500001 	cmp	r0, r1
    92c0:	9afffffb 	bls	92b4 <chSchWakeupS+0x64>
    92c4:	e3a0e001 	mov	lr, #1, 0
    92c8:	e5921004 	ldr	r1, [r2, #4]
    92cc:	e5842000 	str	r2, [r4]
    92d0:	e5841004 	str	r1, [r4, #4]
    92d4:	e5824004 	str	r4, [r2, #4]
    92d8:	e5942004 	ldr	r2, [r4, #4]
    92dc:	e1a01004 	mov	r1, r4
    92e0:	e5824000 	str	r4, [r2]
    92e4:	e5cce01c 	strb	lr, [ip, #28]
    92e8:	e1a0000c 	mov	r0, ip
    92ec:	e8bd4010 	pop	{r4, lr}
    92f0:	e583c018 	str	ip, [r3, #24]
    92f4:	eafffb7d 	b	80f0 <_port_switch_arm>
    92f8:	0000b5f8 	strdeq	fp, [r0], -r8
    92fc:	00000000 	andeq	r0, r0, r0

00009300 <chSchIsPreemptionRequired>:
    9300:	e59f2038 	ldr	r2, [pc, #56]	; 9340 <chSchIsPreemptionRequired+0x40>
    9304:	e5923018 	ldr	r3, [r2, #24]
    9308:	e5921000 	ldr	r1, [r2]
    930c:	e5d3201f 	ldrb	r2, [r3, #31]
    9310:	e5910008 	ldr	r0, [r1, #8]
    9314:	e3520000 	cmp	r2, #0, 0
    9318:	e5933008 	ldr	r3, [r3, #8]
    931c:	0a000003 	beq	9330 <chSchIsPreemptionRequired+0x30>
    9320:	e1500003 	cmp	r0, r3
    9324:	93a00000 	movls	r0, #0, 0
    9328:	83a00001 	movhi	r0, #1, 0
    932c:	e12fff1e 	bx	lr
    9330:	e1500003 	cmp	r0, r3
    9334:	33a00000 	movcc	r0, #0, 0
    9338:	23a00001 	movcs	r0, #1, 0
    933c:	e12fff1e 	bx	lr
    9340:	0000b5f8 	strdeq	fp, [r0], -r8
	...

00009350 <chSchDoRescheduleBehind>:
    9350:	e92d4030 	push	{r4, r5, lr}
    9354:	e3a05001 	mov	r5, #1, 0
    9358:	e3a04014 	mov	r4, #20, 0
    935c:	e3a0e000 	mov	lr, #0, 0
    9360:	e59f205c 	ldr	r2, [pc, #92]	; 93c4 <chSchDoRescheduleBehind+0x74>
    9364:	e5920000 	ldr	r0, [r2]
    9368:	e5921018 	ldr	r1, [r2, #24]
    936c:	e590c000 	ldr	ip, [r0]
    9370:	e1a03000 	mov	r3, r0
    9374:	e58c2004 	str	r2, [ip, #4]
    9378:	e5c0501c 	strb	r5, [r0, #28]
    937c:	e582c000 	str	ip, [r2]
    9380:	e5820018 	str	r0, [r2, #24]
    9384:	e591c008 	ldr	ip, [r1, #8]
    9388:	e5c1401f 	strb	r4, [r1, #31]
    938c:	e5c1e01c 	strb	lr, [r1, #28]
    9390:	ea000000 	b	9398 <chSchDoRescheduleBehind+0x48>
    9394:	e5933000 	ldr	r3, [r3]
    9398:	e5932008 	ldr	r2, [r3, #8]
    939c:	e152000c 	cmp	r2, ip
    93a0:	2afffffb 	bcs	9394 <chSchDoRescheduleBehind+0x44>
    93a4:	e8bd4030 	pop	{r4, r5, lr}
    93a8:	e5932004 	ldr	r2, [r3, #4]
    93ac:	e5813000 	str	r3, [r1]
    93b0:	e5812004 	str	r2, [r1, #4]
    93b4:	e5831004 	str	r1, [r3, #4]
    93b8:	e5913004 	ldr	r3, [r1, #4]
    93bc:	e5831000 	str	r1, [r3]
    93c0:	eafffb4a 	b	80f0 <_port_switch_arm>
    93c4:	0000b5f8 	strdeq	fp, [r0], -r8
	...

000093d0 <chSchDoRescheduleAhead>:
    93d0:	e92d4010 	push	{r4, lr}
    93d4:	e3a04001 	mov	r4, #1, 0
    93d8:	e3a0e000 	mov	lr, #0, 0
    93dc:	e59f2058 	ldr	r2, [pc, #88]	; 943c <chSchDoRescheduleAhead+0x6c>
    93e0:	e5920000 	ldr	r0, [r2]
    93e4:	e5921018 	ldr	r1, [r2, #24]
    93e8:	e590c000 	ldr	ip, [r0]
    93ec:	e1a03000 	mov	r3, r0
    93f0:	e58c2004 	str	r2, [ip, #4]
    93f4:	e5c0401c 	strb	r4, [r0, #28]
    93f8:	e582c000 	str	ip, [r2]
    93fc:	e5c1e01c 	strb	lr, [r1, #28]
    9400:	e591c008 	ldr	ip, [r1, #8]
    9404:	e5820018 	str	r0, [r2, #24]
    9408:	ea000000 	b	9410 <chSchDoRescheduleAhead+0x40>
    940c:	e5933000 	ldr	r3, [r3]
    9410:	e5932008 	ldr	r2, [r3, #8]
    9414:	e152000c 	cmp	r2, ip
    9418:	8afffffb 	bhi	940c <chSchDoRescheduleAhead+0x3c>
    941c:	e8bd4010 	pop	{r4, lr}
    9420:	e5932004 	ldr	r2, [r3, #4]
    9424:	e5813000 	str	r3, [r1]
    9428:	e5812004 	str	r2, [r1, #4]
    942c:	e5831004 	str	r1, [r3, #4]
    9430:	e5913004 	ldr	r3, [r1, #4]
    9434:	e5831000 	str	r1, [r3]
    9438:	eafffb2c 	b	80f0 <_port_switch_arm>
    943c:	0000b5f8 	strdeq	fp, [r0], -r8

00009440 <chSchDoReschedule>:
    9440:	e59f3014 	ldr	r3, [pc, #20]	; 945c <chSchDoReschedule+0x1c>
    9444:	e5933018 	ldr	r3, [r3, #24]
    9448:	e5d3301f 	ldrb	r3, [r3, #31]
    944c:	e3530000 	cmp	r3, #0, 0
    9450:	1a000000 	bne	9458 <chSchDoReschedule+0x18>
    9454:	eaffffbd 	b	9350 <chSchDoRescheduleBehind>
    9458:	eaffffdc 	b	93d0 <chSchDoRescheduleAhead>
    945c:	0000b5f8 	strdeq	fp, [r0], -r8

00009460 <_thread_init>:
    9460:	e92d4070 	push	{r4, r5, r6, lr}
    9464:	e3a02000 	mov	r2, #0, 0
    9468:	e3a06002 	mov	r6, #2, 0
    946c:	e3a05014 	mov	r5, #20, 0
    9470:	e3a04001 	mov	r4, #1, 0
    9474:	e59fc04c 	ldr	ip, [pc, #76]	; 94c8 <_thread_init+0x68>
    9478:	e5801008 	str	r1, [r0, #8]
    947c:	e59ce014 	ldr	lr, [ip, #20]
    9480:	e5801040 	str	r1, [r0, #64]	; 0x40
    9484:	e580c010 	str	ip, [r0, #16]
    9488:	e580e014 	str	lr, [r0, #20]
    948c:	e280102c 	add	r1, r0, #44, 0	; 0x2c
    9490:	e58c0014 	str	r0, [ip, #20]
    9494:	e280c028 	add	ip, r0, #40, 0	; 0x28
    9498:	e1c061bc 	strh	r6, [r0, #28]
    949c:	e5c0501f 	strb	r5, [r0, #31]
    94a0:	e5c0401e 	strb	r4, [r0, #30]
    94a4:	e580203c 	str	r2, [r0, #60]	; 0x3c
    94a8:	e5802038 	str	r2, [r0, #56]	; 0x38
    94ac:	e5802020 	str	r2, [r0, #32]
    94b0:	e5802018 	str	r2, [r0, #24]
    94b4:	e58e0010 	str	r0, [lr, #16]
    94b8:	e580c028 	str	ip, [r0, #40]	; 0x28
    94bc:	e5801030 	str	r1, [r0, #48]	; 0x30
    94c0:	e580102c 	str	r1, [r0, #44]	; 0x2c
    94c4:	e8bd8070 	pop	{r4, r5, r6, pc}
    94c8:	0000b5f8 	strdeq	fp, [r0], -r8
    94cc:	00000000 	andeq	r0, r0, r0

000094d0 <chThdCreateStatic>:
    94d0:	e92d41f0 	push	{r4, r5, r6, r7, r8, lr}
    94d4:	e59d8018 	ldr	r8, [sp, #24]
    94d8:	e1a04000 	mov	r4, r0
    94dc:	e321f09f 	msr	CPSR_c, #159, 0	; 0x9f
    94e0:	e3a05002 	mov	r5, #2, 0
    94e4:	e3a0c000 	mov	ip, #0, 0
    94e8:	e3a07014 	mov	r7, #20, 0
    94ec:	e3a06001 	mov	r6, #1, 0
    94f0:	e2411024 	sub	r1, r1, #36, 0	; 0x24
    94f4:	e080e001 	add	lr, r0, r1
    94f8:	e580e00c 	str	lr, [r0, #12]
    94fc:	e7803001 	str	r3, [r0, r1]
    9500:	e59f3068 	ldr	r3, [pc, #104]	; 9570 <chThdCreateStatic+0xa0>
    9504:	e59f1068 	ldr	r1, [pc, #104]	; 9574 <chThdCreateStatic+0xa4>
    9508:	e58e8004 	str	r8, [lr, #4]
    950c:	e58e1020 	str	r1, [lr, #32]
    9510:	e593e014 	ldr	lr, [r3, #20]
    9514:	e5802008 	str	r2, [r0, #8]
    9518:	e5802040 	str	r2, [r0, #64]	; 0x40
    951c:	e1c051bc 	strh	r5, [r0, #28]
    9520:	e280202c 	add	r2, r0, #44, 0	; 0x2c
    9524:	e2805028 	add	r5, r0, #40, 0	; 0x28
    9528:	e5803010 	str	r3, [r0, #16]
    952c:	e580e014 	str	lr, [r0, #20]
    9530:	e5c0701f 	strb	r7, [r0, #31]
    9534:	e5c0601e 	strb	r6, [r0, #30]
    9538:	e580c03c 	str	ip, [r0, #60]	; 0x3c
    953c:	e5830014 	str	r0, [r3, #20]
    9540:	e580c038 	str	ip, [r0, #56]	; 0x38
    9544:	e580c020 	str	ip, [r0, #32]
    9548:	e580c018 	str	ip, [r0, #24]
    954c:	e1a0100c 	mov	r1, ip
    9550:	e58e0010 	str	r0, [lr, #16]
    9554:	e5805028 	str	r5, [r0, #40]	; 0x28
    9558:	e5802030 	str	r2, [r0, #48]	; 0x30
    955c:	e580202c 	str	r2, [r0, #44]	; 0x2c
    9560:	ebffff3a 	bl	9250 <chSchWakeupS>
    9564:	e321f01f 	msr	CPSR_c, #31, 0
    9568:	e1a00004 	mov	r0, r4
    956c:	e8bd81f0 	pop	{r4, r5, r6, r7, r8, pc}
    9570:	0000b5f8 	strdeq	fp, [r0], -r8
    9574:	00008160 	andeq	r8, r0, r0, ror #2
	...

00009580 <chThdSleep>:
    9580:	e92d4010 	push	{r4, lr}
    9584:	e1a01000 	mov	r1, r0
    9588:	e321f09f 	msr	CPSR_c, #159, 0	; 0x9f
    958c:	e3a00006 	mov	r0, #6, 0
    9590:	ebffff0e 	bl	91d0 <chSchGoSleepTimeoutS>
    9594:	e321f01f 	msr	CPSR_c, #31, 0
    9598:	e8bd8010 	pop	{r4, pc}
    959c:	00000000 	andeq	r0, r0, r0

000095a0 <chThdExitS>:
    95a0:	e59f3058 	ldr	r3, [pc, #88]	; 9600 <chThdExitS+0x60>
    95a4:	e92d4070 	push	{r4, r5, r6, lr}
    95a8:	e5934018 	ldr	r4, [r3, #24]
    95ac:	e1a05004 	mov	r5, r4
    95b0:	e5b53028 	ldr	r3, [r5, #40]!	; 0x28
    95b4:	e5840024 	str	r0, [r4, #36]	; 0x24
    95b8:	e1550003 	cmp	r5, r3
    95bc:	0a000006 	beq	95dc <chThdExitS+0x3c>
    95c0:	e5932000 	ldr	r2, [r3]
    95c4:	e1a00003 	mov	r0, r3
    95c8:	e5842028 	str	r2, [r4, #40]	; 0x28
    95cc:	ebfffed7 	bl	9130 <chSchReadyI>
    95d0:	e5943028 	ldr	r3, [r4, #40]	; 0x28
    95d4:	e1530005 	cmp	r3, r5
    95d8:	1afffff8 	bne	95c0 <chThdExitS+0x20>
    95dc:	e5d4301d 	ldrb	r3, [r4, #29]
    95e0:	e3a0000e 	mov	r0, #14, 0
    95e4:	e3130003 	tst	r3, #3, 0
    95e8:	05942014 	ldreq	r2, [r4, #20]
    95ec:	05943010 	ldreq	r3, [r4, #16]
    95f0:	e8bd4070 	pop	{r4, r5, r6, lr}
    95f4:	05823010 	streq	r3, [r2, #16]
    95f8:	05832014 	streq	r2, [r3, #20]
    95fc:	eafffedf 	b	9180 <chSchGoSleepS>
    9600:	0000b5f8 	strdeq	fp, [r0], -r8
	...

00009610 <chThdExit>:
    9610:	e321f09f 	msr	CPSR_c, #159, 0	; 0x9f
    9614:	eaffffe1 	b	95a0 <chThdExitS>
	...

00009620 <chThdWait>:
    9620:	e92d4070 	push	{r4, r5, r6, lr}
    9624:	e1a04000 	mov	r4, r0
    9628:	e321f09f 	msr	CPSR_c, #159, 0	; 0x9f
    962c:	e5d0301c 	ldrb	r3, [r0, #28]
    9630:	e353000e 	cmp	r3, #14, 0
    9634:	0a000006 	beq	9654 <chThdWait+0x34>
    9638:	e59f302c 	ldr	r3, [pc, #44]	; 966c <chThdWait+0x4c>
    963c:	e5902028 	ldr	r2, [r0, #40]	; 0x28
    9640:	e5933018 	ldr	r3, [r3, #24]
    9644:	e3a00007 	mov	r0, #7, 0
    9648:	e5832000 	str	r2, [r3]
    964c:	e5843028 	str	r3, [r4, #40]	; 0x28
    9650:	ebfffeca 	bl	9180 <chSchGoSleepS>
    9654:	e5945024 	ldr	r5, [r4, #36]	; 0x24
    9658:	e321f01f 	msr	CPSR_c, #31, 0
    965c:	e1a00004 	mov	r0, r4
    9660:	eb000002 	bl	9670 <chThdRelease>
    9664:	e1a00005 	mov	r0, r5
    9668:	e8bd8070 	pop	{r4, r5, r6, pc}
    966c:	0000b5f8 	strdeq	fp, [r0], -r8

00009670 <chThdRelease>:
    9670:	e321f09f 	msr	CPSR_c, #159, 0	; 0x9f
    9674:	e5d0301e 	ldrb	r3, [r0, #30]
    9678:	e2433001 	sub	r3, r3, #1, 0
    967c:	e6ef3073 	uxtb	r3, r3
    9680:	e5c0301e 	strb	r3, [r0, #30]
    9684:	e321f01f 	msr	CPSR_c, #31, 0
    9688:	e3530000 	cmp	r3, #0, 0
    968c:	112fff1e 	bxne	lr
    9690:	e5d0301c 	ldrb	r3, [r0, #28]
    9694:	e353000e 	cmp	r3, #14, 0
    9698:	112fff1e 	bxne	lr
    969c:	e5d0301d 	ldrb	r3, [r0, #29]
    96a0:	e2033003 	and	r3, r3, #3, 0
    96a4:	e3530001 	cmp	r3, #1, 0
    96a8:	112fff1e 	bxne	lr
    96ac:	e5901014 	ldr	r1, [r0, #20]
    96b0:	e5903010 	ldr	r3, [r0, #16]
    96b4:	e5813010 	str	r3, [r1, #16]
    96b8:	e5831014 	str	r1, [r3, #20]
    96bc:	ea0001fb 	b	9eb0 <chHeapFree>

000096c0 <chMtxInit>:
    96c0:	e3a03000 	mov	r3, #0, 0
    96c4:	e5800004 	str	r0, [r0, #4]
    96c8:	e5800000 	str	r0, [r0]
    96cc:	e5803008 	str	r3, [r0, #8]
    96d0:	e12fff1e 	bx	lr
	...

000096e0 <chMtxLockS>:
    96e0:	e5902008 	ldr	r2, [r0, #8]
    96e4:	e59f3170 	ldr	r3, [pc, #368]	; 985c <chMtxLockS+0x17c>
    96e8:	e3520000 	cmp	r2, #0, 0
    96ec:	e92d4070 	push	{r4, r5, r6, lr}
    96f0:	e5934018 	ldr	r4, [r3, #24]
    96f4:	0a00001f 	beq	9778 <chMtxLockS+0x98>
    96f8:	e5941008 	ldr	r1, [r4, #8]
    96fc:	e5923008 	ldr	r3, [r2, #8]
    9700:	e1a05000 	mov	r5, r0
    9704:	e1530001 	cmp	r3, r1
    9708:	2a000007 	bcs	972c <chMtxLockS+0x4c>
    970c:	e5d2301c 	ldrb	r3, [r2, #28]
    9710:	e5821008 	str	r1, [r2, #8]
    9714:	e3530004 	cmp	r3, #4, 0
    9718:	0a000036 	beq	97f8 <chMtxLockS+0x118>
    971c:	e3530005 	cmp	r3, #5, 0
    9720:	0a000020 	beq	97a8 <chMtxLockS+0xc8>
    9724:	e3530000 	cmp	r3, #0, 0
    9728:	0a000017 	beq	978c <chMtxLockS+0xac>
    972c:	e1a03005 	mov	r3, r5
    9730:	ea000003 	b	9744 <chMtxLockS+0x64>
    9734:	e5931008 	ldr	r1, [r3, #8]
    9738:	e5942008 	ldr	r2, [r4, #8]
    973c:	e1510002 	cmp	r1, r2
    9740:	3a000002 	bcc	9750 <chMtxLockS+0x70>
    9744:	e5933000 	ldr	r3, [r3]
    9748:	e1550003 	cmp	r5, r3
    974c:	1afffff8 	bne	9734 <chMtxLockS+0x54>
    9750:	e5932004 	ldr	r2, [r3, #4]
    9754:	e5843000 	str	r3, [r4]
    9758:	e5842004 	str	r2, [r4, #4]
    975c:	e5834004 	str	r4, [r3, #4]
    9760:	e5943004 	ldr	r3, [r4, #4]
    9764:	e3a00004 	mov	r0, #4, 0
    9768:	e5834000 	str	r4, [r3]
    976c:	e5845024 	str	r5, [r4, #36]	; 0x24
    9770:	e8bd4070 	pop	{r4, r5, r6, lr}
    9774:	eafffe81 	b	9180 <chSchGoSleepS>
    9778:	e594303c 	ldr	r3, [r4, #60]	; 0x3c
    977c:	e5804008 	str	r4, [r0, #8]
    9780:	e580300c 	str	r3, [r0, #12]
    9784:	e584003c 	str	r0, [r4, #60]	; 0x3c
    9788:	e8bd8070 	pop	{r4, r5, r6, pc}
    978c:	e5921004 	ldr	r1, [r2, #4]
    9790:	e5923000 	ldr	r3, [r2]
    9794:	e1a00002 	mov	r0, r2
    9798:	e5813000 	str	r3, [r1]
    979c:	e5831004 	str	r1, [r3, #4]
    97a0:	ebfffe62 	bl	9130 <chSchReadyI>
    97a4:	eaffffe0 	b	972c <chMtxLockS+0x4c>
    97a8:	e592c024 	ldr	ip, [r2, #36]	; 0x24
    97ac:	e592e004 	ldr	lr, [r2, #4]
    97b0:	e5920000 	ldr	r0, [r2]
    97b4:	e1a0300c 	mov	r3, ip
    97b8:	e58e0000 	str	r0, [lr]
    97bc:	e580e004 	str	lr, [r0, #4]
    97c0:	ea000002 	b	97d0 <chMtxLockS+0xf0>
    97c4:	e5930008 	ldr	r0, [r3, #8]
    97c8:	e1510000 	cmp	r1, r0
    97cc:	8a000002 	bhi	97dc <chMtxLockS+0xfc>
    97d0:	e5933000 	ldr	r3, [r3]
    97d4:	e15c0003 	cmp	ip, r3
    97d8:	1afffff9 	bne	97c4 <chMtxLockS+0xe4>
    97dc:	e5931004 	ldr	r1, [r3, #4]
    97e0:	e5823000 	str	r3, [r2]
    97e4:	e5821004 	str	r1, [r2, #4]
    97e8:	e5832004 	str	r2, [r3, #4]
    97ec:	e5923004 	ldr	r3, [r2, #4]
    97f0:	e5832000 	str	r2, [r3]
    97f4:	eaffffcc 	b	972c <chMtxLockS+0x4c>
    97f8:	e592c024 	ldr	ip, [r2, #36]	; 0x24
    97fc:	e592e004 	ldr	lr, [r2, #4]
    9800:	e5920000 	ldr	r0, [r2]
    9804:	e1a0300c 	mov	r3, ip
    9808:	e58e0000 	str	r0, [lr]
    980c:	e580e004 	str	lr, [r0, #4]
    9810:	ea000002 	b	9820 <chMtxLockS+0x140>
    9814:	e5930008 	ldr	r0, [r3, #8]
    9818:	e1510000 	cmp	r1, r0
    981c:	8a000002 	bhi	982c <chMtxLockS+0x14c>
    9820:	e5933000 	ldr	r3, [r3]
    9824:	e15c0003 	cmp	ip, r3
    9828:	1afffff9 	bne	9814 <chMtxLockS+0x134>
    982c:	e5931004 	ldr	r1, [r3, #4]
    9830:	e5823000 	str	r3, [r2]
    9834:	e5821004 	str	r1, [r2, #4]
    9838:	e5832004 	str	r2, [r3, #4]
    983c:	e5923004 	ldr	r3, [r2, #4]
    9840:	e5941008 	ldr	r1, [r4, #8]
    9844:	e5832000 	str	r2, [r3]
    9848:	e59c2008 	ldr	r2, [ip, #8]
    984c:	e5923008 	ldr	r3, [r2, #8]
    9850:	e1530001 	cmp	r3, r1
    9854:	3affffac 	bcc	970c <chMtxLockS+0x2c>
    9858:	eaffffb3 	b	972c <chMtxLockS+0x4c>
    985c:	0000b5f8 	strdeq	fp, [r0], -r8

00009860 <chMtxLock>:
    9860:	e92d4010 	push	{r4, lr}
    9864:	e321f09f 	msr	CPSR_c, #159, 0	; 0x9f
    9868:	ebffff9c 	bl	96e0 <chMtxLockS>
    986c:	e321f01f 	msr	CPSR_c, #31, 0
    9870:	e8bd8010 	pop	{r4, pc}
	...

00009880 <chMtxUnlock>:
    9880:	e59f3094 	ldr	r3, [pc, #148]	; 991c <chMtxUnlock+0x9c>
    9884:	e92d4010 	push	{r4, lr}
    9888:	e5930018 	ldr	r0, [r3, #24]
    988c:	e321f09f 	msr	CPSR_c, #159, 0	; 0x9f
    9890:	e590403c 	ldr	r4, [r0, #60]	; 0x3c
    9894:	e594c000 	ldr	ip, [r4]
    9898:	e594300c 	ldr	r3, [r4, #12]
    989c:	e15c0004 	cmp	ip, r4
    98a0:	e580303c 	str	r3, [r0, #60]	; 0x3c
    98a4:	0a000019 	beq	9910 <chMtxUnlock+0x90>
    98a8:	e3530000 	cmp	r3, #0, 0
    98ac:	e5901040 	ldr	r1, [r0, #64]	; 0x40
    98b0:	0a000008 	beq	98d8 <chMtxUnlock+0x58>
    98b4:	e5932000 	ldr	r2, [r3]
    98b8:	e1520003 	cmp	r2, r3
    98bc:	0a000002 	beq	98cc <chMtxUnlock+0x4c>
    98c0:	e5922008 	ldr	r2, [r2, #8]
    98c4:	e1510002 	cmp	r1, r2
    98c8:	31a01002 	movcc	r1, r2
    98cc:	e593300c 	ldr	r3, [r3, #12]
    98d0:	e3530000 	cmp	r3, #0, 0
    98d4:	1afffff6 	bne	98b4 <chMtxUnlock+0x34>
    98d8:	e59c203c 	ldr	r2, [ip, #60]	; 0x3c
    98dc:	e59c3000 	ldr	r3, [ip]
    98e0:	e5801008 	str	r1, [r0, #8]
    98e4:	e5843000 	str	r3, [r4]
    98e8:	e1a0000c 	mov	r0, ip
    98ec:	e5834004 	str	r4, [r3, #4]
    98f0:	e3a01000 	mov	r1, #0, 0
    98f4:	e584c008 	str	ip, [r4, #8]
    98f8:	e584200c 	str	r2, [r4, #12]
    98fc:	e58c403c 	str	r4, [ip, #60]	; 0x3c
    9900:	ebfffe52 	bl	9250 <chSchWakeupS>
    9904:	e321f01f 	msr	CPSR_c, #31, 0
    9908:	e1a00004 	mov	r0, r4
    990c:	e8bd8010 	pop	{r4, pc}
    9910:	e3a03000 	mov	r3, #0, 0
    9914:	e5843008 	str	r3, [r4, #8]
    9918:	eafffff9 	b	9904 <chMtxUnlock+0x84>
    991c:	0000b5f8 	strdeq	fp, [r0], -r8

00009920 <chEvtSignalI>:
    9920:	e5903038 	ldr	r3, [r0, #56]	; 0x38
    9924:	e5d0201c 	ldrb	r2, [r0, #28]
    9928:	e1811003 	orr	r1, r1, r3
    992c:	e3520008 	cmp	r2, #8, 0
    9930:	e5801038 	str	r1, [r0, #56]	; 0x38
    9934:	0a000009 	beq	9960 <chEvtSignalI+0x40>
    9938:	e3520009 	cmp	r2, #9, 0
    993c:	112fff1e 	bxne	lr
    9940:	e5903024 	ldr	r3, [r0, #36]	; 0x24
    9944:	e1d33001 	bics	r3, r3, r1
    9948:	112fff1e 	bxne	lr
    994c:	e92d4010 	push	{r4, lr}
    9950:	ebfffdf6 	bl	9130 <chSchReadyI>
    9954:	e3a03000 	mov	r3, #0, 0
    9958:	e5803024 	str	r3, [r0, #36]	; 0x24
    995c:	e8bd8010 	pop	{r4, pc}
    9960:	e5903024 	ldr	r3, [r0, #36]	; 0x24
    9964:	e1110003 	tst	r1, r3
    9968:	012fff1e 	bxeq	lr
    996c:	eafffff6 	b	994c <chEvtSignalI+0x2c>

00009970 <chEvtBroadcastFlagsI>:
    9970:	e92d4070 	push	{r4, r5, r6, lr}
    9974:	e5904000 	ldr	r4, [r0]
    9978:	e1500004 	cmp	r0, r4
    997c:	08bd8070 	popeq	{r4, r5, r6, pc}
    9980:	e1a05000 	mov	r5, r0
    9984:	e1a06001 	mov	r6, r1
    9988:	e594300c 	ldr	r3, [r4, #12]
    998c:	e5941008 	ldr	r1, [r4, #8]
    9990:	e1833006 	orr	r3, r3, r6
    9994:	e584300c 	str	r3, [r4, #12]
    9998:	e5940004 	ldr	r0, [r4, #4]
    999c:	ebffffdf 	bl	9920 <chEvtSignalI>
    99a0:	e5944000 	ldr	r4, [r4]
    99a4:	e1550004 	cmp	r5, r4
    99a8:	1afffff6 	bne	9988 <chEvtBroadcastFlagsI+0x18>
    99ac:	e8bd8070 	pop	{r4, r5, r6, pc}

000099b0 <qwait>:
    99b0:	e3510000 	cmp	r1, #0, 0
    99b4:	e1a02000 	mov	r2, r0
    99b8:	0a000008 	beq	99e0 <qwait+0x30>
    99bc:	e59f3024 	ldr	r3, [pc, #36]	; 99e8 <qwait+0x38>
    99c0:	e590c004 	ldr	ip, [r0, #4]
    99c4:	e5933018 	ldr	r3, [r3, #24]
    99c8:	e3a0000d 	mov	r0, #13, 0
    99cc:	e5832024 	str	r2, [r3, #36]	; 0x24
    99d0:	e8831004 	stm	r3, {r2, ip}
    99d4:	e5823004 	str	r3, [r2, #4]
    99d8:	e58c3000 	str	r3, [ip]
    99dc:	eafffdfb 	b	91d0 <chSchGoSleepTimeoutS>
    99e0:	e3e00000 	mvn	r0, #0, 0
    99e4:	e12fff1e 	bx	lr
    99e8:	0000b5f8 	strdeq	fp, [r0], -r8
    99ec:	00000000 	andeq	r0, r0, r0

000099f0 <chIQInit>:
    99f0:	e52de004 	push	{lr}		; (str lr, [sp, #-4]!)
    99f4:	e3a0e000 	mov	lr, #0, 0
    99f8:	e59dc004 	ldr	ip, [sp, #4]
    99fc:	e0812002 	add	r2, r1, r2
    9a00:	e5802010 	str	r2, [r0, #16]
    9a04:	e5800004 	str	r0, [r0, #4]
    9a08:	e5800000 	str	r0, [r0]
    9a0c:	e5801014 	str	r1, [r0, #20]
    9a10:	e5801018 	str	r1, [r0, #24]
    9a14:	e580100c 	str	r1, [r0, #12]
    9a18:	e580301c 	str	r3, [r0, #28]
    9a1c:	e580e008 	str	lr, [r0, #8]
    9a20:	e580c020 	str	ip, [r0, #32]
    9a24:	e49df004 	pop	{pc}		; (ldr pc, [sp], #4)
	...

00009a30 <chIQPutI>:
    9a30:	e1c021d4 	ldrd	r2, [r0, #20]
    9a34:	e1520003 	cmp	r2, r3
    9a38:	e5903008 	ldr	r3, [r0, #8]
    9a3c:	0a000019 	beq	9aa8 <chIQPutI+0x78>
    9a40:	e2833001 	add	r3, r3, #1, 0
    9a44:	e282c001 	add	ip, r2, #1, 0
    9a48:	e580c014 	str	ip, [r0, #20]
    9a4c:	e5803008 	str	r3, [r0, #8]
    9a50:	e5c21000 	strb	r1, [r2]
    9a54:	e5902014 	ldr	r2, [r0, #20]
    9a58:	e5903010 	ldr	r3, [r0, #16]
    9a5c:	e1520003 	cmp	r2, r3
    9a60:	2590300c 	ldrcs	r3, [r0, #12]
    9a64:	e5902000 	ldr	r2, [r0]
    9a68:	25803014 	strcs	r3, [r0, #20]
    9a6c:	e1520000 	cmp	r2, r0
    9a70:	0a00000a 	beq	9aa0 <chIQPutI+0x70>
    9a74:	e1a03000 	mov	r3, r0
    9a78:	e5921000 	ldr	r1, [r2]
    9a7c:	e92d4010 	push	{r4, lr}
    9a80:	e1a00002 	mov	r0, r2
    9a84:	e5831000 	str	r1, [r3]
    9a88:	e5813004 	str	r3, [r1, #4]
    9a8c:	ebfffda7 	bl	9130 <chSchReadyI>
    9a90:	e3a03000 	mov	r3, #0, 0
    9a94:	e5803024 	str	r3, [r0, #36]	; 0x24
    9a98:	e1a00003 	mov	r0, r3
    9a9c:	e8bd8010 	pop	{r4, pc}
    9aa0:	e3a00000 	mov	r0, #0, 0
    9aa4:	e12fff1e 	bx	lr
    9aa8:	e3530000 	cmp	r3, #0, 0
    9aac:	0affffe3 	beq	9a40 <chIQPutI+0x10>
    9ab0:	e3e00003 	mvn	r0, #3, 0
    9ab4:	e12fff1e 	bx	lr
	...

00009ac0 <chIQGetTimeout>:
    9ac0:	e92d4070 	push	{r4, r5, r6, lr}
    9ac4:	e1a05001 	mov	r5, r1
    9ac8:	e1a04000 	mov	r4, r0
    9acc:	e321f09f 	msr	CPSR_c, #159, 0	; 0x9f
    9ad0:	e590301c 	ldr	r3, [r0, #28]
    9ad4:	e3530000 	cmp	r3, #0, 0
    9ad8:	0a000006 	beq	9af8 <chIQGetTimeout+0x38>
    9adc:	e12fff33 	blx	r3
    9ae0:	ea000004 	b	9af8 <chIQGetTimeout+0x38>
    9ae4:	e1a01005 	mov	r1, r5
    9ae8:	e1a00004 	mov	r0, r4
    9aec:	ebffffaf 	bl	99b0 <qwait>
    9af0:	e3500000 	cmp	r0, #0, 0
    9af4:	ba00000c 	blt	9b2c <chIQGetTimeout+0x6c>
    9af8:	e5943008 	ldr	r3, [r4, #8]
    9afc:	e3530000 	cmp	r3, #0, 0
    9b00:	0afffff7 	beq	9ae4 <chIQGetTimeout+0x24>
    9b04:	e5942018 	ldr	r2, [r4, #24]
    9b08:	e5940010 	ldr	r0, [r4, #16]
    9b0c:	e2821001 	add	r1, r2, #1, 0
    9b10:	e2433001 	sub	r3, r3, #1, 0
    9b14:	e1510000 	cmp	r1, r0
    9b18:	e5843008 	str	r3, [r4, #8]
    9b1c:	2594300c 	ldrcs	r3, [r4, #12]
    9b20:	e5841018 	str	r1, [r4, #24]
    9b24:	e5d20000 	ldrb	r0, [r2]
    9b28:	25843018 	strcs	r3, [r4, #24]
    9b2c:	e321f01f 	msr	CPSR_c, #31, 0
    9b30:	e8bd8070 	pop	{r4, r5, r6, pc}
	...

00009b40 <chIQReadTimeout>:
    9b40:	e92d47f0 	push	{r4, r5, r6, r7, r8, r9, sl, lr}
    9b44:	e1a04000 	mov	r4, r0
    9b48:	e1a08001 	mov	r8, r1
    9b4c:	e1a09002 	mov	r9, r2
    9b50:	e1a05003 	mov	r5, r3
    9b54:	e590701c 	ldr	r7, [r0, #28]
    9b58:	e321f09f 	msr	CPSR_c, #159, 0	; 0x9f
    9b5c:	e3a06000 	mov	r6, #0, 0
    9b60:	e3570000 	cmp	r7, #0, 0
    9b64:	0a000007 	beq	9b88 <chIQReadTimeout+0x48>
    9b68:	e1a00004 	mov	r0, r4
    9b6c:	e12fff37 	blx	r7
    9b70:	ea000004 	b	9b88 <chIQReadTimeout+0x48>
    9b74:	e1a01005 	mov	r1, r5
    9b78:	e1a00004 	mov	r0, r4
    9b7c:	ebffff8b 	bl	99b0 <qwait>
    9b80:	e3500000 	cmp	r0, #0, 0
    9b84:	1a000014 	bne	9bdc <chIQReadTimeout+0x9c>
    9b88:	e5943008 	ldr	r3, [r4, #8]
    9b8c:	e3530000 	cmp	r3, #0, 0
    9b90:	0afffff7 	beq	9b74 <chIQReadTimeout+0x34>
    9b94:	e5942018 	ldr	r2, [r4, #24]
    9b98:	e2433001 	sub	r3, r3, #1, 0
    9b9c:	e2821001 	add	r1, r2, #1, 0
    9ba0:	e5841018 	str	r1, [r4, #24]
    9ba4:	e5843008 	str	r3, [r4, #8]
    9ba8:	e5d23000 	ldrb	r3, [r2]
    9bac:	e4c83001 	strb	r3, [r8], #1
    9bb0:	e5943010 	ldr	r3, [r4, #16]
    9bb4:	e5942018 	ldr	r2, [r4, #24]
    9bb8:	e1520003 	cmp	r2, r3
    9bbc:	2594300c 	ldrcs	r3, [r4, #12]
    9bc0:	25843018 	strcs	r3, [r4, #24]
    9bc4:	e321f01f 	msr	CPSR_c, #31, 0
    9bc8:	e2866001 	add	r6, r6, #1, 0
    9bcc:	e1590006 	cmp	r9, r6
    9bd0:	0a000002 	beq	9be0 <chIQReadTimeout+0xa0>
    9bd4:	e321f09f 	msr	CPSR_c, #159, 0	; 0x9f
    9bd8:	eaffffe0 	b	9b60 <chIQReadTimeout+0x20>
    9bdc:	e321f01f 	msr	CPSR_c, #31, 0
    9be0:	e1a00006 	mov	r0, r6
    9be4:	e8bd87f0 	pop	{r4, r5, r6, r7, r8, r9, sl, pc}
	...

00009bf0 <chOQInit>:
    9bf0:	e52de004 	push	{lr}		; (str lr, [sp, #-4]!)
    9bf4:	e59dc004 	ldr	ip, [sp, #4]
    9bf8:	e081e002 	add	lr, r1, r2
    9bfc:	e5800004 	str	r0, [r0, #4]
    9c00:	e5800000 	str	r0, [r0]
    9c04:	e5802008 	str	r2, [r0, #8]
    9c08:	e580e010 	str	lr, [r0, #16]
    9c0c:	e5801014 	str	r1, [r0, #20]
    9c10:	e5801018 	str	r1, [r0, #24]
    9c14:	e580100c 	str	r1, [r0, #12]
    9c18:	e580301c 	str	r3, [r0, #28]
    9c1c:	e580c020 	str	ip, [r0, #32]
    9c20:	e49df004 	pop	{pc}		; (ldr pc, [sp], #4)
	...

00009c30 <chOQPutTimeout>:
    9c30:	e92d4070 	push	{r4, r5, r6, lr}
    9c34:	e1a04000 	mov	r4, r0
    9c38:	e1a06001 	mov	r6, r1
    9c3c:	e1a05002 	mov	r5, r2
    9c40:	e321f09f 	msr	CPSR_c, #159, 0	; 0x9f
    9c44:	ea000004 	b	9c5c <chOQPutTimeout+0x2c>
    9c48:	e1a01005 	mov	r1, r5
    9c4c:	e1a00004 	mov	r0, r4
    9c50:	ebffff56 	bl	99b0 <qwait>
    9c54:	e3500000 	cmp	r0, #0, 0
    9c58:	ba000015 	blt	9cb4 <chOQPutTimeout+0x84>
    9c5c:	e5943008 	ldr	r3, [r4, #8]
    9c60:	e3530000 	cmp	r3, #0, 0
    9c64:	0afffff7 	beq	9c48 <chOQPutTimeout+0x18>
    9c68:	e5942014 	ldr	r2, [r4, #20]
    9c6c:	e2433001 	sub	r3, r3, #1, 0
    9c70:	e2821001 	add	r1, r2, #1, 0
    9c74:	e5841014 	str	r1, [r4, #20]
    9c78:	e5843008 	str	r3, [r4, #8]
    9c7c:	e5c26000 	strb	r6, [r2]
    9c80:	e5943010 	ldr	r3, [r4, #16]
    9c84:	e5942014 	ldr	r2, [r4, #20]
    9c88:	e1520003 	cmp	r2, r3
    9c8c:	2594300c 	ldrcs	r3, [r4, #12]
    9c90:	25843014 	strcs	r3, [r4, #20]
    9c94:	e594301c 	ldr	r3, [r4, #28]
    9c98:	e3530000 	cmp	r3, #0, 0
    9c9c:	0a000001 	beq	9ca8 <chOQPutTimeout+0x78>
    9ca0:	e1a00004 	mov	r0, r4
    9ca4:	e12fff33 	blx	r3
    9ca8:	e321f01f 	msr	CPSR_c, #31, 0
    9cac:	e3a00000 	mov	r0, #0, 0
    9cb0:	e8bd8070 	pop	{r4, r5, r6, pc}
    9cb4:	e321f01f 	msr	CPSR_c, #31, 0
    9cb8:	e8bd8070 	pop	{r4, r5, r6, pc}
    9cbc:	00000000 	andeq	r0, r0, r0

00009cc0 <chOQGetI>:
    9cc0:	e5902018 	ldr	r2, [r0, #24]
    9cc4:	e5901014 	ldr	r1, [r0, #20]
    9cc8:	e5903008 	ldr	r3, [r0, #8]
    9ccc:	e1510002 	cmp	r1, r2
    9cd0:	0a000016 	beq	9d30 <chOQGetI+0x70>
    9cd4:	e92d4010 	push	{r4, lr}
    9cd8:	e590c010 	ldr	ip, [r0, #16]
    9cdc:	e2833001 	add	r3, r3, #1, 0
    9ce0:	e2821001 	add	r1, r2, #1, 0
    9ce4:	e151000c 	cmp	r1, ip
    9ce8:	e5803008 	str	r3, [r0, #8]
    9cec:	e5801018 	str	r1, [r0, #24]
    9cf0:	e5d24000 	ldrb	r4, [r2]
    9cf4:	2590300c 	ldrcs	r3, [r0, #12]
    9cf8:	e5902000 	ldr	r2, [r0]
    9cfc:	25803018 	strcs	r3, [r0, #24]
    9d00:	e1520000 	cmp	r2, r0
    9d04:	0a000007 	beq	9d28 <chOQGetI+0x68>
    9d08:	e1a03000 	mov	r3, r0
    9d0c:	e5921000 	ldr	r1, [r2]
    9d10:	e1a00002 	mov	r0, r2
    9d14:	e5831000 	str	r1, [r3]
    9d18:	e5813004 	str	r3, [r1, #4]
    9d1c:	ebfffd03 	bl	9130 <chSchReadyI>
    9d20:	e3a03000 	mov	r3, #0, 0
    9d24:	e5803024 	str	r3, [r0, #36]	; 0x24
    9d28:	e1a00004 	mov	r0, r4
    9d2c:	e8bd8010 	pop	{r4, pc}
    9d30:	e3530000 	cmp	r3, #0, 0
    9d34:	0affffe6 	beq	9cd4 <chOQGetI+0x14>
    9d38:	e3e00002 	mvn	r0, #2, 0
    9d3c:	e12fff1e 	bx	lr

00009d40 <chOQWriteTimeout>:
    9d40:	e92d47f0 	push	{r4, r5, r6, r7, r8, r9, sl, lr}
    9d44:	e1a04000 	mov	r4, r0
    9d48:	e1a05001 	mov	r5, r1
    9d4c:	e1a06002 	mov	r6, r2
    9d50:	e1a09003 	mov	r9, r3
    9d54:	e590801c 	ldr	r8, [r0, #28]
    9d58:	e321f09f 	msr	CPSR_c, #159, 0	; 0x9f
    9d5c:	e3a07000 	mov	r7, #0, 0
    9d60:	e5943008 	ldr	r3, [r4, #8]
    9d64:	e3530000 	cmp	r3, #0, 0
    9d68:	e2432001 	sub	r2, r3, #1, 0
    9d6c:	0a000017 	beq	9dd0 <chOQWriteTimeout+0x90>
    9d70:	e5943014 	ldr	r3, [r4, #20]
    9d74:	e5842008 	str	r2, [r4, #8]
    9d78:	e2832001 	add	r2, r3, #1, 0
    9d7c:	e5842014 	str	r2, [r4, #20]
    9d80:	e4d52001 	ldrb	r2, [r5], #1
    9d84:	e5c32000 	strb	r2, [r3]
    9d88:	e5943010 	ldr	r3, [r4, #16]
    9d8c:	e5942014 	ldr	r2, [r4, #20]
    9d90:	e1520003 	cmp	r2, r3
    9d94:	2594300c 	ldrcs	r3, [r4, #12]
    9d98:	25843014 	strcs	r3, [r4, #20]
    9d9c:	e3580000 	cmp	r8, #0, 0
    9da0:	0a000001 	beq	9dac <chOQWriteTimeout+0x6c>
    9da4:	e1a00004 	mov	r0, r4
    9da8:	e12fff38 	blx	r8
    9dac:	e321f01f 	msr	CPSR_c, #31, 0
    9db0:	e2566001 	subs	r6, r6, #1, 0
    9db4:	e2877001 	add	r7, r7, #1, 0
    9db8:	0a00000a 	beq	9de8 <chOQWriteTimeout+0xa8>
    9dbc:	e321f09f 	msr	CPSR_c, #159, 0	; 0x9f
    9dc0:	e5943008 	ldr	r3, [r4, #8]
    9dc4:	e3530000 	cmp	r3, #0, 0
    9dc8:	e2432001 	sub	r2, r3, #1, 0
    9dcc:	1affffe7 	bne	9d70 <chOQWriteTimeout+0x30>
    9dd0:	e1a01009 	mov	r1, r9
    9dd4:	e1a00004 	mov	r0, r4
    9dd8:	ebfffef4 	bl	99b0 <qwait>
    9ddc:	e3500000 	cmp	r0, #0, 0
    9de0:	0affffde 	beq	9d60 <chOQWriteTimeout+0x20>
    9de4:	e321f01f 	msr	CPSR_c, #31, 0
    9de8:	e1a00007 	mov	r0, r7
    9dec:	e8bd87f0 	pop	{r4, r5, r6, r7, r8, r9, sl, pc}

00009df0 <_core_init>:
    9df0:	e59f201c 	ldr	r2, [pc, #28]	; 9e14 <_core_init+0x24>
    9df4:	e59f301c 	ldr	r3, [pc, #28]	; 9e18 <_core_init+0x28>
    9df8:	e59f001c 	ldr	r0, [pc, #28]	; 9e1c <_core_init+0x2c>
    9dfc:	e59f101c 	ldr	r1, [pc, #28]	; 9e20 <_core_init+0x30>
    9e00:	e3c22003 	bic	r2, r2, #3, 0
    9e04:	e3c33003 	bic	r3, r3, #3, 0
    9e08:	e5802000 	str	r2, [r0]
    9e0c:	e5813000 	str	r3, [r1]
    9e10:	e12fff1e 	bx	lr
    9e14:	0000b763 	andeq	fp, r0, r3, ror #14
    9e18:	06007b44 	streq	r7, [r0], -r4, asr #22
    9e1c:	0000b410 	andeq	fp, r0, r0, lsl r4
    9e20:	0000b40c 	andeq	fp, r0, ip, lsl #8
	...

00009e30 <chCoreAlloc>:
    9e30:	e1a03000 	mov	r3, r0
    9e34:	e321f09f 	msr	CPSR_c, #159, 0	; 0x9f
    9e38:	e59f102c 	ldr	r1, [pc, #44]	; 9e6c <chCoreAlloc+0x3c>
    9e3c:	e59f202c 	ldr	r2, [pc, #44]	; 9e70 <chCoreAlloc+0x40>
    9e40:	e5910000 	ldr	r0, [r1]
    9e44:	e5922000 	ldr	r2, [r2]
    9e48:	e2833003 	add	r3, r3, #3, 0
    9e4c:	e3c33003 	bic	r3, r3, #3, 0
    9e50:	e0422000 	sub	r2, r2, r0
    9e54:	e1530002 	cmp	r3, r2
    9e58:	90803003 	addls	r3, r0, r3
    9e5c:	95813000 	strls	r3, [r1]
    9e60:	83a00000 	movhi	r0, #0, 0
    9e64:	e321f01f 	msr	CPSR_c, #31, 0
    9e68:	e12fff1e 	bx	lr
    9e6c:	0000b410 	andeq	fp, r0, r0, lsl r4
    9e70:	0000b40c 	andeq	fp, r0, ip, lsl #8
	...

00009e80 <_heap_init>:
    9e80:	e3a02000 	mov	r2, #0, 0
    9e84:	e59f3014 	ldr	r3, [pc, #20]	; 9ea0 <_heap_init+0x20>
    9e88:	e59f1014 	ldr	r1, [pc, #20]	; 9ea4 <_heap_init+0x24>
    9e8c:	e283000c 	add	r0, r3, #12, 0
    9e90:	e5832004 	str	r2, [r3, #4]
    9e94:	e5832008 	str	r2, [r3, #8]
    9e98:	e5831000 	str	r1, [r3]
    9e9c:	eafffe07 	b	96c0 <chMtxInit>
    9ea0:	0000b414 	andeq	fp, r0, r4, lsl r4
    9ea4:	00009e30 	andeq	r9, r0, r0, lsr lr
	...

00009eb0 <chHeapFree>:
    9eb0:	e92d4070 	push	{r4, r5, r6, lr}
    9eb4:	e1a06000 	mov	r6, r0
    9eb8:	e5100008 	ldr	r0, [r0, #-8]
    9ebc:	e2464008 	sub	r4, r6, #8, 0
    9ec0:	e2805004 	add	r5, r0, #4, 0
    9ec4:	e280000c 	add	r0, r0, #12, 0
    9ec8:	ebfffe64 	bl	9860 <chMtxLock>
    9ecc:	e1a03005 	mov	r3, r5
    9ed0:	ea000002 	b	9ee0 <chHeapFree+0x30>
    9ed4:	e1540002 	cmp	r4, r2
    9ed8:	3a00000a 	bcc	9f08 <chHeapFree+0x58>
    9edc:	e1a03002 	mov	r3, r2
    9ee0:	e0432005 	sub	r2, r3, r5
    9ee4:	e16f2f12 	clz	r2, r2
    9ee8:	e1a022a2 	lsr	r2, r2, #5
    9eec:	e1530004 	cmp	r3, r4
    9ef0:	33822001 	orrcc	r2, r2, #1, 0
    9ef4:	e3520000 	cmp	r2, #0, 0
    9ef8:	e5932000 	ldr	r2, [r3]
    9efc:	0afffff6 	beq	9edc <chHeapFree+0x2c>
    9f00:	e3520000 	cmp	r2, #0, 0
    9f04:	1afffff2 	bne	9ed4 <chHeapFree+0x24>
    9f08:	e5062008 	str	r2, [r6, #-8]
    9f0c:	e5162004 	ldr	r2, [r6, #-4]
    9f10:	e5834000 	str	r4, [r3]
    9f14:	e5161008 	ldr	r1, [r6, #-8]
    9f18:	e0860002 	add	r0, r6, r2
    9f1c:	e1510000 	cmp	r1, r0
    9f20:	05910004 	ldreq	r0, [r1, #4]
    9f24:	02822008 	addeq	r2, r2, #8, 0
    9f28:	05911000 	ldreq	r1, [r1]
    9f2c:	00802002 	addeq	r2, r0, r2
    9f30:	09060006 	stmdbeq	r6, {r1, r2}
    9f34:	e5931004 	ldr	r1, [r3, #4]
    9f38:	e2812008 	add	r2, r1, #8, 0
    9f3c:	e0832002 	add	r2, r3, r2
    9f40:	e1540002 	cmp	r4, r2
    9f44:	0a000001 	beq	9f50 <chHeapFree+0xa0>
    9f48:	e8bd4070 	pop	{r4, r5, r6, lr}
    9f4c:	eafffe4b 	b	9880 <chMtxUnlock>
    9f50:	e9160005 	ldmdb	r6, {r0, r2}
    9f54:	e2822008 	add	r2, r2, #8, 0
    9f58:	e0821001 	add	r1, r2, r1
    9f5c:	e1c300f0 	strd	r0, [r3]
    9f60:	e8bd4070 	pop	{r4, r5, r6, lr}
    9f64:	eafffe45 	b	9880 <chMtxUnlock>
	...

00009f70 <halInit>:
    9f70:	e92d4010 	push	{r4, lr}
    9f74:	eb0000d1 	bl	a2c0 <hal_lld_init>
    9f78:	eb0000a4 	bl	a210 <tmInit>
    9f7c:	e59f0014 	ldr	r0, [pc, #20]	; 9f98 <halInit+0x28>
    9f80:	eb0000f2 	bl	a350 <_pal_lld_init>
    9f84:	eb000005 	bl	9fa0 <i2cInit>
    9f88:	eb000030 	bl	a050 <sdInit>
    9f8c:	eb000077 	bl	a170 <spiInit>
    9f90:	e8bd4010 	pop	{r4, lr}
    9f94:	ea000269 	b	a940 <boardInit>
    9f98:	0000b370 	andeq	fp, r0, r0, ror r3
    9f9c:	00000000 	andeq	r0, r0, r0

00009fa0 <i2cInit>:
    9fa0:	ea0001d6 	b	a700 <i2c_lld_init>
	...

00009fb0 <i2cObjectInit>:
    9fb0:	e3a02001 	mov	r2, #1, 0
    9fb4:	e3a03000 	mov	r3, #0, 0
    9fb8:	e5c02000 	strb	r2, [r0]
    9fbc:	e5803004 	str	r3, [r0, #4]
    9fc0:	e2800010 	add	r0, r0, #16, 0
    9fc4:	eafffdbd 	b	96c0 <chMtxInit>
	...

00009fd0 <readt>:
    9fd0:	e280000c 	add	r0, r0, #12, 0
    9fd4:	eafffed9 	b	9b40 <chIQReadTimeout>
	...

00009fe0 <read>:
    9fe0:	e280000c 	add	r0, r0, #12, 0
    9fe4:	e3e03000 	mvn	r3, #0, 0
    9fe8:	eafffed4 	b	9b40 <chIQReadTimeout>
    9fec:	00000000 	andeq	r0, r0, r0

00009ff0 <writet>:
    9ff0:	e2800030 	add	r0, r0, #48, 0	; 0x30
    9ff4:	eaffff51 	b	9d40 <chOQWriteTimeout>
	...

0000a000 <write>:
    a000:	e2800030 	add	r0, r0, #48, 0	; 0x30
    a004:	e3e03000 	mvn	r3, #0, 0
    a008:	eaffff4c 	b	9d40 <chOQWriteTimeout>
    a00c:	00000000 	andeq	r0, r0, r0

0000a010 <gett>:
    a010:	e280000c 	add	r0, r0, #12, 0
    a014:	eafffea9 	b	9ac0 <chIQGetTimeout>
	...

0000a020 <get>:
    a020:	e280000c 	add	r0, r0, #12, 0
    a024:	e3e01000 	mvn	r1, #0, 0
    a028:	eafffea4 	b	9ac0 <chIQGetTimeout>
    a02c:	00000000 	andeq	r0, r0, r0

0000a030 <putt>:
    a030:	e2800030 	add	r0, r0, #48, 0	; 0x30
    a034:	eafffefd 	b	9c30 <chOQPutTimeout>
	...

0000a040 <put>:
    a040:	e2800030 	add	r0, r0, #48, 0	; 0x30
    a044:	e3e02000 	mvn	r2, #0, 0
    a048:	eafffef8 	b	9c30 <chOQPutTimeout>
    a04c:	00000000 	andeq	r0, r0, r0

0000a050 <sdInit>:
    a050:	ea00011a 	b	a4c0 <sd_lld_init>
	...

0000a060 <sdObjectInit>:
    a060:	e92d4030 	push	{r4, r5, lr}
    a064:	e3a0c001 	mov	ip, #1, 0
    a068:	e1a04000 	mov	r4, r0
    a06c:	e1a05002 	mov	r5, r2
    a070:	e59f3044 	ldr	r3, [pc, #68]	; a0bc <sdObjectInit+0x5c>
    a074:	e24dd00c 	sub	sp, sp, #12, 0
    a078:	e58d0000 	str	r0, [sp]
    a07c:	e4803004 	str	r3, [r0], #4
    a080:	e5840004 	str	r0, [r4, #4]
    a084:	e1a03001 	mov	r3, r1
    a088:	e5c4c008 	strb	ip, [r4, #8]
    a08c:	e2841054 	add	r1, r4, #84, 0	; 0x54
    a090:	e284000c 	add	r0, r4, #12, 0
    a094:	e3a02010 	mov	r2, #16, 0
    a098:	ebfffe54 	bl	99f0 <chIQInit>
    a09c:	e58d4000 	str	r4, [sp]
    a0a0:	e1a03005 	mov	r3, r5
    a0a4:	e2841064 	add	r1, r4, #100, 0	; 0x64
    a0a8:	e2840030 	add	r0, r4, #48, 0	; 0x30
    a0ac:	e3a02010 	mov	r2, #16, 0
    a0b0:	ebfffece 	bl	9bf0 <chOQInit>
    a0b4:	e28dd00c 	add	sp, sp, #12, 0
    a0b8:	e8bd8030 	pop	{r4, r5, pc}
    a0bc:	0000b340 	andeq	fp, r0, r0, asr #6

0000a0c0 <sdStart>:
    a0c0:	e92d4010 	push	{r4, lr}
    a0c4:	e1a04000 	mov	r4, r0
    a0c8:	e321f09f 	msr	CPSR_c, #159, 0	; 0x9f
    a0cc:	eb000103 	bl	a4e0 <sd_lld_start>
    a0d0:	e3a03002 	mov	r3, #2, 0
    a0d4:	e5c43008 	strb	r3, [r4, #8]
    a0d8:	e321f01f 	msr	CPSR_c, #31, 0
    a0dc:	e8bd8010 	pop	{r4, pc}

0000a0e0 <sdIncomingDataI>:
    a0e0:	e5903014 	ldr	r3, [r0, #20]
    a0e4:	e92d4070 	push	{r4, r5, r6, lr}
    a0e8:	e3530000 	cmp	r3, #0, 0
    a0ec:	e1a04000 	mov	r4, r0
    a0f0:	e1a05001 	mov	r5, r1
    a0f4:	0a000008 	beq	a11c <sdIncomingDataI+0x3c>
    a0f8:	e1a01005 	mov	r1, r5
    a0fc:	e284000c 	add	r0, r4, #12, 0
    a100:	ebfffe4a 	bl	9a30 <chIQPutI>
    a104:	e3500000 	cmp	r0, #0, 0
    a108:	a8bd8070 	popge	{r4, r5, r6, pc}
    a10c:	e2840004 	add	r0, r4, #4, 0
    a110:	e3a01080 	mov	r1, #128, 0	; 0x80
    a114:	e8bd4070 	pop	{r4, r5, r6, lr}
    a118:	eafffe14 	b	9970 <chEvtBroadcastFlagsI>
    a11c:	e3a01004 	mov	r1, #4, 0
    a120:	e0800001 	add	r0, r0, r1
    a124:	ebfffe11 	bl	9970 <chEvtBroadcastFlagsI>
    a128:	eafffff2 	b	a0f8 <sdIncomingDataI+0x18>
    a12c:	00000000 	andeq	r0, r0, r0

0000a130 <sdRequestDataI>:
    a130:	e92d4070 	push	{r4, r5, r6, lr}
    a134:	e1a04000 	mov	r4, r0
    a138:	e2800030 	add	r0, r0, #48, 0	; 0x30
    a13c:	ebfffedf 	bl	9cc0 <chOQGetI>
    a140:	e2505000 	subs	r5, r0, #0, 0
    a144:	ba000001 	blt	a150 <sdRequestDataI+0x20>
    a148:	e1a00005 	mov	r0, r5
    a14c:	e8bd8070 	pop	{r4, r5, r6, pc}
    a150:	e2840004 	add	r0, r4, #4, 0
    a154:	e3a01008 	mov	r1, #8, 0
    a158:	ebfffe04 	bl	9970 <chEvtBroadcastFlagsI>
    a15c:	e1a00005 	mov	r0, r5
    a160:	e8bd8070 	pop	{r4, r5, r6, pc}
	...

0000a170 <spiInit>:
    a170:	ea0001ca 	b	a8a0 <spi_lld_init>
	...

0000a180 <spiObjectInit>:
    a180:	e3a03000 	mov	r3, #0, 0
    a184:	e3a02001 	mov	r2, #1, 0
    a188:	e5803004 	str	r3, [r0, #4]
    a18c:	e5c02000 	strb	r2, [r0]
    a190:	e5803008 	str	r3, [r0, #8]
    a194:	e280000c 	add	r0, r0, #12, 0
    a198:	eafffd48 	b	96c0 <chMtxInit>
    a19c:	00000000 	andeq	r0, r0, r0

0000a1a0 <tm_start>:
    a1a0:	e59f3008 	ldr	r3, [pc, #8]	; a1b0 <tm_start+0x10>
    a1a4:	e5933004 	ldr	r3, [r3, #4]
    a1a8:	e5803008 	str	r3, [r0, #8]
    a1ac:	e12fff1e 	bx	lr
    a1b0:	20003000 	andcs	r3, r0, r0
	...

0000a1c0 <tm_stop>:
    a1c0:	e59f303c 	ldr	r3, [pc, #60]	; a204 <tm_stop+0x44>
    a1c4:	e59f203c 	ldr	r2, [pc, #60]	; a208 <tm_stop+0x48>
    a1c8:	e5933004 	ldr	r3, [r3, #4]
    a1cc:	e5922000 	ldr	r2, [r2]
    a1d0:	e5901008 	ldr	r1, [r0, #8]
    a1d4:	e0433002 	sub	r3, r3, r2
    a1d8:	e590200c 	ldr	r2, [r0, #12]
    a1dc:	e0433001 	sub	r3, r3, r1
    a1e0:	e1530002 	cmp	r3, r2
    a1e4:	e5803008 	str	r3, [r0, #8]
    a1e8:	9a000001 	bls	a1f4 <tm_stop+0x34>
    a1ec:	e580300c 	str	r3, [r0, #12]
    a1f0:	e12fff1e 	bx	lr
    a1f4:	e5902010 	ldr	r2, [r0, #16]
    a1f8:	e1530002 	cmp	r3, r2
    a1fc:	35803010 	strcc	r3, [r0, #16]
    a200:	e12fff1e 	bx	lr
    a204:	20003000 	andcs	r3, r0, r0
    a208:	0000b430 	andeq	fp, r0, r0, lsr r4
    a20c:	00000000 	andeq	r0, r0, r0

0000a210 <tmInit>:
    a210:	e3a03000 	mov	r3, #0, 0
    a214:	e3e01000 	mvn	r1, #0, 0
    a218:	e92d4010 	push	{r4, lr}
    a21c:	e59f4040 	ldr	r4, [pc, #64]	; a264 <tmInit+0x54>
    a220:	e24dd018 	sub	sp, sp, #24, 0
    a224:	e59f203c 	ldr	r2, [pc, #60]	; a268 <tmInit+0x58>
    a228:	e58d300c 	str	r3, [sp, #12]
    a22c:	e58d3010 	str	r3, [sp, #16]
    a230:	e5843000 	str	r3, [r4]
    a234:	e58d1014 	str	r1, [sp, #20]
    a238:	e5921004 	ldr	r1, [r2, #4]
    a23c:	e59f3028 	ldr	r3, [pc, #40]	; a26c <tmInit+0x5c>
    a240:	e59f2028 	ldr	r2, [pc, #40]	; a270 <tmInit+0x60>
    a244:	e28d0004 	add	r0, sp, #4, 0
    a248:	e1cd20f4 	strd	r2, [sp, #4]
    a24c:	e58d100c 	str	r1, [sp, #12]
    a250:	ebffffda 	bl	a1c0 <tm_stop>
    a254:	e59d300c 	ldr	r3, [sp, #12]
    a258:	e5843000 	str	r3, [r4]
    a25c:	e28dd018 	add	sp, sp, #24, 0
    a260:	e8bd8010 	pop	{r4, pc}
    a264:	0000b430 	andeq	fp, r0, r0, lsr r4
    a268:	20003000 	andcs	r3, r0, r0
    a26c:	0000a1c0 	andeq	sl, r0, r0, asr #3
    a270:	0000a1a0 	andeq	sl, r0, r0, lsr #3
	...

0000a280 <IrqHandler>:
    a280:	e92d500f 	push	{r0, r1, r2, r3, ip, lr}
    a284:	ebfffb15 	bl	8ee0 <chSysTimerHandlerI>
    a288:	e3a02000 	mov	r2, #0, 0
    a28c:	e59f301c 	ldr	r3, [pc, #28]	; a2b0 <IrqHandler+0x30>
    a290:	e59f001c 	ldr	r0, [pc, #28]	; a2b4 <IrqHandler+0x34>
    a294:	e583240c 	str	r2, [r3, #1036]	; 0x40c
    a298:	eb00005c 	bl	a410 <sd_lld_serve_interrupt>
    a29c:	e59f0014 	ldr	r0, [pc, #20]	; a2b8 <IrqHandler+0x38>
    a2a0:	eb0000c2 	bl	a5b0 <i2c_lld_serve_interrupt>
    a2a4:	e59f0010 	ldr	r0, [pc, #16]	; a2bc <IrqHandler+0x3c>
    a2a8:	eb00011c 	bl	a720 <spi_lld_serve_interrupt>
    a2ac:	eafff793 	b	8100 <_port_irq_common>
    a2b0:	2000b000 	andcs	fp, r0, r0
    a2b4:	0000b644 	andeq	fp, r0, r4, asr #12
    a2b8:	0000b6f8 	strdeq	fp, [r0], -r8
    a2bc:	0000b738 	andeq	fp, r0, r8, lsr r7

0000a2c0 <hal_lld_init>:
    a2c0:	e52de004 	push	{lr}		; (str lr, [sp, #-4]!)
    a2c4:	e3a0c0f9 	mov	ip, #249, 0	; 0xf9
    a2c8:	e3a0e83e 	mov	lr, #4063232	; 0x3e0000
    a2cc:	e3a00000 	mov	r0, #0, 0
    a2d0:	e59f302c 	ldr	r3, [pc, #44]	; a304 <hal_lld_init+0x44>
    a2d4:	e59f202c 	ldr	r2, [pc, #44]	; a308 <hal_lld_init+0x48>
    a2d8:	e59f102c 	ldr	r1, [pc, #44]	; a30c <hal_lld_init+0x4c>
    a2dc:	e583e408 	str	lr, [r3, #1032]	; 0x408
    a2e0:	e5832400 	str	r2, [r3, #1024]	; 0x400
    a2e4:	e5832418 	str	r2, [r3, #1048]	; 0x418
    a2e8:	e583c41c 	str	ip, [r3, #1052]	; 0x41c
    a2ec:	e583040c 	str	r0, [r3, #1036]	; 0x40c
    a2f0:	e5831408 	str	r1, [r3, #1032]	; 0x408
    a2f4:	e5932218 	ldr	r2, [r3, #536]	; 0x218
    a2f8:	e3822001 	orr	r2, r2, #1, 0
    a2fc:	e5832218 	str	r2, [r3, #536]	; 0x218
    a300:	e49df004 	pop	{pc}		; (ldr pc, [sp], #4)
    a304:	2000b000 	andcs	fp, r0, r0
    a308:	000003e7 	andeq	r0, r0, r7, ror #7
    a30c:	003e00a2 	eorseq	r0, lr, r2, lsr #1

0000a310 <set_gpio_in.isra.0>:
    a310:	e92d4070 	push	{r4, r5, r6, lr}
    a314:	e1a06000 	mov	r6, r0
    a318:	e1a05001 	mov	r5, r1
    a31c:	e3a04000 	mov	r4, #0, 0
    a320:	ea000003 	b	a334 <set_gpio_in.isra.0+0x24>
    a324:	e2844001 	add	r4, r4, #1, 0
    a328:	e3540020 	cmp	r4, #32, 0
    a32c:	e1a050a5 	lsr	r5, r5, #1
    a330:	08bd8070 	popeq	{r4, r5, r6, pc}
    a334:	e3150001 	tst	r5, #1, 0
    a338:	0afffff9 	beq	a324 <set_gpio_in.isra.0+0x14>
    a33c:	e5960000 	ldr	r0, [r6]
    a340:	e3a01000 	mov	r1, #0, 0
    a344:	e0840000 	add	r0, r4, r0
    a348:	eb000158 	bl	a8b0 <bcm2835_gpio_fnsel>
    a34c:	eafffff4 	b	a324 <set_gpio_in.isra.0+0x14>

0000a350 <_pal_lld_init>:
    a350:	e59f3068 	ldr	r3, [pc, #104]	; a3c0 <_pal_lld_init+0x70>
    a354:	e59f1068 	ldr	r1, [pc, #104]	; a3c4 <_pal_lld_init+0x74>
    a358:	e92d4010 	push	{r4, lr}
    a35c:	e59fc064 	ldr	ip, [pc, #100]	; a3c8 <_pal_lld_init+0x78>
    a360:	e59fe064 	ldr	lr, [pc, #100]	; a3cc <_pal_lld_init+0x7c>
    a364:	e59f2064 	ldr	r2, [pc, #100]	; a3d0 <_pal_lld_init+0x80>
    a368:	e2830014 	add	r0, r3, #20, 0
    a36c:	e5831004 	str	r1, [r3, #4]
    a370:	e3e01000 	mvn	r1, #0, 0
    a374:	e583e008 	str	lr, [r3, #8]
    a378:	e583c00c 	str	ip, [r3, #12]
    a37c:	e5832010 	str	r2, [r3, #16]
    a380:	ebffffe2 	bl	a310 <set_gpio_in.isra.0>
    a384:	e59f3048 	ldr	r3, [pc, #72]	; a3d4 <_pal_lld_init+0x84>
    a388:	e3a02020 	mov	r2, #32, 0
    a38c:	e1a00003 	mov	r0, r3
    a390:	e59f1040 	ldr	r1, [pc, #64]	; a3d8 <_pal_lld_init+0x88>
    a394:	e59fe040 	ldr	lr, [pc, #64]	; a3dc <_pal_lld_init+0x8c>
    a398:	e5a02014 	str	r2, [r0, #20]!
    a39c:	e59fc03c 	ldr	ip, [pc, #60]	; a3e0 <_pal_lld_init+0x90>
    a3a0:	e59f203c 	ldr	r2, [pc, #60]	; a3e4 <_pal_lld_init+0x94>
    a3a4:	e5831004 	str	r1, [r3, #4]
    a3a8:	e583e008 	str	lr, [r3, #8]
    a3ac:	e3e01000 	mvn	r1, #0, 0
    a3b0:	e8bd4010 	pop	{r4, lr}
    a3b4:	e583c00c 	str	ip, [r3, #12]
    a3b8:	e5832010 	str	r2, [r3, #16]
    a3bc:	eaffffd3 	b	a310 <set_gpio_in.isra.0>
    a3c0:	0000b62c 	andeq	fp, r0, ip, lsr #12
    a3c4:	2020001c 	eorcs	r0, r0, ip, lsl r0
    a3c8:	20200034 	eorcs	r0, r0, r4, lsr r0
    a3cc:	20200028 	eorcs	r0, r0, r8, lsr #32
    a3d0:	20200098 	mlacs	r0, r8, r0, r0
    a3d4:	0000b614 	andeq	fp, r0, r4, lsl r6
    a3d8:	20200020 	eorcs	r0, r0, r0, lsr #32
    a3dc:	2020002c 	eorcs	r0, r0, ip, lsr #32
    a3e0:	20200038 	eorcs	r0, r0, r8, lsr r0
    a3e4:	2020009c 	mlacs	r0, ip, r0, r0
	...

0000a3f0 <output_notify>:
    a3f0:	e59f200c 	ldr	r2, [pc, #12]	; a404 <output_notify+0x14>
    a3f4:	e5923044 	ldr	r3, [r2, #68]	; 0x44
    a3f8:	e3833002 	orr	r3, r3, #2, 0
    a3fc:	e5823044 	str	r3, [r2, #68]	; 0x44
    a400:	e12fff1e 	bx	lr
    a404:	20215000 	eorcs	r5, r1, r0
	...

0000a410 <sd_lld_serve_interrupt>:
    a410:	e59f209c 	ldr	r2, [pc, #156]	; a4b4 <sd_lld_serve_interrupt+0xa4>
    a414:	e92d4070 	push	{r4, r5, r6, lr}
    a418:	e5923048 	ldr	r3, [r2, #72]	; 0x48
    a41c:	e1a05000 	mov	r5, r0
    a420:	e2033007 	and	r3, r3, #7, 0
    a424:	e3530004 	cmp	r3, #4, 0
    a428:	0a000011 	beq	a474 <sd_lld_serve_interrupt+0x64>
    a42c:	e59f4080 	ldr	r4, [pc, #128]	; a4b4 <sd_lld_serve_interrupt+0xa4>
    a430:	e5943048 	ldr	r3, [r4, #72]	; 0x48
    a434:	e2033007 	and	r3, r3, #7, 0
    a438:	e3530002 	cmp	r3, #2, 0
    a43c:	18bd8070 	popne	{r4, r5, r6, pc}
    a440:	e5943054 	ldr	r3, [r4, #84]	; 0x54
    a444:	e3130020 	tst	r3, #32, 0
    a448:	0afffffc 	beq	a440 <sd_lld_serve_interrupt+0x30>
    a44c:	e1a00005 	mov	r0, r5
    a450:	ebffff36 	bl	a130 <sdRequestDataI>
    a454:	e3500000 	cmp	r0, #0, 0
    a458:	ba000011 	blt	a4a4 <sd_lld_serve_interrupt+0x94>
    a45c:	e59f2050 	ldr	r2, [pc, #80]	; a4b4 <sd_lld_serve_interrupt+0xa4>
    a460:	e5923054 	ldr	r3, [r2, #84]	; 0x54
    a464:	e3130020 	tst	r3, #32, 0
    a468:	0afffffc 	beq	a460 <sd_lld_serve_interrupt+0x50>
    a46c:	e5820040 	str	r0, [r2, #64]	; 0x40
    a470:	e8bd8070 	pop	{r4, r5, r6, pc}
    a474:	e5923054 	ldr	r3, [r2, #84]	; 0x54
    a478:	e3130001 	tst	r3, #1, 0
    a47c:	0afffffc 	beq	a474 <sd_lld_serve_interrupt+0x64>
    a480:	e59f402c 	ldr	r4, [pc, #44]	; a4b4 <sd_lld_serve_interrupt+0xa4>
    a484:	e5941040 	ldr	r1, [r4, #64]	; 0x40
    a488:	e1a00005 	mov	r0, r5
    a48c:	e6ef1071 	uxtb	r1, r1
    a490:	ebffff12 	bl	a0e0 <sdIncomingDataI>
    a494:	e5943054 	ldr	r3, [r4, #84]	; 0x54
    a498:	e3130001 	tst	r3, #1, 0
    a49c:	1afffff8 	bne	a484 <sd_lld_serve_interrupt+0x74>
    a4a0:	eaffffe1 	b	a42c <sd_lld_serve_interrupt+0x1c>
    a4a4:	e5943044 	ldr	r3, [r4, #68]	; 0x44
    a4a8:	e3c33002 	bic	r3, r3, #2, 0
    a4ac:	e5843044 	str	r3, [r4, #68]	; 0x44
    a4b0:	e8bd8070 	pop	{r4, r5, r6, pc}
    a4b4:	20215000 	eorcs	r5, r1, r0
	...

0000a4c0 <sd_lld_init>:
    a4c0:	e59f2008 	ldr	r2, [pc, #8]	; a4d0 <sd_lld_init+0x10>
    a4c4:	e3a01000 	mov	r1, #0, 0
    a4c8:	e59f0004 	ldr	r0, [pc, #4]	; a4d4 <sd_lld_init+0x14>
    a4cc:	eafffee3 	b	a060 <sdObjectInit>
    a4d0:	0000a3f0 	strdeq	sl, [r0], -r0
    a4d4:	0000b644 	andeq	fp, r0, r4, asr #12
	...

0000a4e0 <sd_lld_start>:
    a4e0:	e92d47f0 	push	{r4, r5, r6, r7, r8, r9, sl, lr}
    a4e4:	e3a05000 	mov	r5, #0, 0
    a4e8:	e59f30a0 	ldr	r3, [pc, #160]	; a590 <sd_lld_start+0xb0>
    a4ec:	e1510005 	cmp	r1, r5
    a4f0:	01a01003 	moveq	r1, r3
    a4f4:	e3a02005 	mov	r2, #5, 0
    a4f8:	e3a030c6 	mov	r3, #198, 0	; 0xc6
    a4fc:	e3a09003 	mov	r9, #3, 0
    a500:	e3a08202 	mov	r8, #536870912	; 0x20000000
    a504:	e3a00001 	mov	r0, #1, 0
    a508:	e59f4084 	ldr	r4, [pc, #132]	; a594 <sd_lld_start+0xb4>
    a50c:	e59f7084 	ldr	r7, [pc, #132]	; a598 <sd_lld_start+0xb8>
    a510:	e59f6084 	ldr	r6, [pc, #132]	; a59c <sd_lld_start+0xbc>
    a514:	e587821c 	str	r8, [r7, #540]	; 0x21c
    a518:	e5840004 	str	r0, [r4, #4]
    a51c:	e5845044 	str	r5, [r4, #68]	; 0x44
    a520:	e5845060 	str	r5, [r4, #96]	; 0x60
    a524:	e584904c 	str	r9, [r4, #76]	; 0x4c
    a528:	e5845050 	str	r5, [r4, #80]	; 0x50
    a52c:	e5842044 	str	r2, [r4, #68]	; 0x44
    a530:	e5843048 	str	r3, [r4, #72]	; 0x48
    a534:	e5911000 	ldr	r1, [r1]
    a538:	e59f0060 	ldr	r0, [pc, #96]	; a5a0 <sd_lld_start+0xc0>
    a53c:	e1a01911 	lsl	r1, r1, r9
    a540:	ebfff71e 	bl	81c0 <__udivsi3>
    a544:	e2400001 	sub	r0, r0, #1, 0
    a548:	e5840068 	str	r0, [r4, #104]	; 0x68
    a54c:	e3a01002 	mov	r1, #2, 0
    a550:	e3a0000e 	mov	r0, #14, 0
    a554:	eb0000d5 	bl	a8b0 <bcm2835_gpio_fnsel>
    a558:	e3a01002 	mov	r1, #2, 0
    a55c:	e3a0000f 	mov	r0, #15, 0
    a560:	eb0000d2 	bl	a8b0 <bcm2835_gpio_fnsel>
    a564:	e3a00096 	mov	r0, #150, 0	; 0x96
    a568:	e5865094 	str	r5, [r6, #148]	; 0x94
    a56c:	eb0000e3 	bl	a900 <bcm2835_delay>
    a570:	e3a03903 	mov	r3, #49152	; 0xc000
    a574:	e3a00096 	mov	r0, #150, 0	; 0x96
    a578:	e5863098 	str	r3, [r6, #152]	; 0x98
    a57c:	eb0000df 	bl	a900 <bcm2835_delay>
    a580:	e5865098 	str	r5, [r6, #152]	; 0x98
    a584:	e5849060 	str	r9, [r4, #96]	; 0x60
    a588:	e5878210 	str	r8, [r7, #528]	; 0x210
    a58c:	e8bd87f0 	pop	{r4, r5, r6, r7, r8, r9, sl, pc}
    a590:	0000b360 	andeq	fp, r0, r0, ror #6
    a594:	20215000 	eorcs	r5, r1, r0
    a598:	2000b000 	andcs	fp, r0, r0
    a59c:	20200000 	eorcs	r0, r0, r0
    a5a0:	0ee6b280 	cdpeq	2, 14, cr11, cr6, cr0, {4}
	...

0000a5b0 <i2c_lld_serve_interrupt>:
    a5b0:	e590200c 	ldr	r2, [r0, #12]
    a5b4:	e5921004 	ldr	r1, [r2, #4]
    a5b8:	e3110c03 	tst	r1, #768	; 0x300
    a5bc:	0a000008 	beq	a5e4 <i2c_lld_serve_interrupt+0x34>
    a5c0:	e5903020 	ldr	r3, [r0, #32]
    a5c4:	e3530000 	cmp	r3, #0, 0
    a5c8:	012fff1e 	bxeq	lr
    a5cc:	e3a01000 	mov	r1, #0, 0
    a5d0:	e3e02001 	mvn	r2, #1, 0
    a5d4:	e5801020 	str	r1, [r0, #32]
    a5d8:	e1a00003 	mov	r0, r3
    a5dc:	e5832024 	str	r2, [r3, #36]	; 0x24
    a5e0:	eafffad2 	b	9130 <chSchReadyI>
    a5e4:	e3110002 	tst	r1, #2, 0
    a5e8:	e52de004 	push	{lr}		; (str lr, [sp, #-4]!)
    a5ec:	0a00001a 	beq	a65c <i2c_lld_serve_interrupt+0xac>
    a5f0:	e3110020 	tst	r1, #32, 0
    a5f4:	0a00000c 	beq	a62c <i2c_lld_serve_interrupt+0x7c>
    a5f8:	e590303c 	ldr	r3, [r0, #60]	; 0x3c
    a5fc:	e5901038 	ldr	r1, [r0, #56]	; 0x38
    a600:	e1510003 	cmp	r1, r3
    a604:	9a000008 	bls	a62c <i2c_lld_serve_interrupt+0x7c>
    a608:	e592c010 	ldr	ip, [r2, #16]
    a60c:	e5901034 	ldr	r1, [r0, #52]	; 0x34
    a610:	e283e001 	add	lr, r3, #1, 0
    a614:	e580e03c 	str	lr, [r0, #60]	; 0x3c
    a618:	e7c1c003 	strb	ip, [r1, r3]
    a61c:	e590303c 	ldr	r3, [r0, #60]	; 0x3c
    a620:	e5901038 	ldr	r1, [r0, #56]	; 0x38
    a624:	e1530001 	cmp	r3, r1
    a628:	3afffff6 	bcc	a608 <i2c_lld_serve_interrupt+0x58>
    a62c:	e3a01000 	mov	r1, #0, 0
    a630:	e5903020 	ldr	r3, [r0, #32]
    a634:	e59fc0bc 	ldr	ip, [pc, #188]	; a6f8 <i2c_lld_serve_interrupt+0x148>
    a638:	e1530001 	cmp	r3, r1
    a63c:	e5821000 	str	r1, [r2]
    a640:	e582c004 	str	ip, [r2, #4]
    a644:	049df004 	popeq	{pc}		; (ldreq pc, [sp], #4)
    a648:	e5801020 	str	r1, [r0, #32]
    a64c:	e49de004 	pop	{lr}		; (ldr lr, [sp], #4)
    a650:	e1a00003 	mov	r0, r3
    a654:	e5831024 	str	r1, [r3, #36]	; 0x24
    a658:	eafffab4 	b	9130 <chSchReadyI>
    a65c:	e3110004 	tst	r1, #4, 0
    a660:	0a000012 	beq	a6b0 <i2c_lld_serve_interrupt+0x100>
    a664:	e5903030 	ldr	r3, [r0, #48]	; 0x30
    a668:	e590c02c 	ldr	ip, [r0, #44]	; 0x2c
    a66c:	e153000c 	cmp	r3, ip
    a670:	249df004 	popcs	{pc}		; (ldrcs pc, [sp], #4)
    a674:	e3110010 	tst	r1, #16, 0
    a678:	049df004 	popeq	{pc}		; (ldreq pc, [sp], #4)
    a67c:	e590e028 	ldr	lr, [r0, #40]	; 0x28
    a680:	e2433001 	sub	r3, r3, #1, 0
    a684:	e24cc001 	sub	ip, ip, #1, 0
    a688:	e08e3003 	add	r3, lr, r3
    a68c:	e08ec00c 	add	ip, lr, ip
    a690:	e26ee002 	rsb	lr, lr, #2, 0
    a694:	e08e1003 	add	r1, lr, r3
    a698:	e5801030 	str	r1, [r0, #48]	; 0x30
    a69c:	e5f31001 	ldrb	r1, [r3, #1]!
    a6a0:	e153000c 	cmp	r3, ip
    a6a4:	e5821010 	str	r1, [r2, #16]
    a6a8:	1afffff9 	bne	a694 <i2c_lld_serve_interrupt+0xe4>
    a6ac:	e49df004 	pop	{pc}		; (ldr pc, [sp], #4)
    a6b0:	e3110008 	tst	r1, #8, 0
    a6b4:	049df004 	popeq	{pc}		; (ldreq pc, [sp], #4)
    a6b8:	e590303c 	ldr	r3, [r0, #60]	; 0x3c
    a6bc:	e590c038 	ldr	ip, [r0, #56]	; 0x38
    a6c0:	e15c0003 	cmp	ip, r3
    a6c4:	949df004 	popls	{pc}		; (ldrls pc, [sp], #4)
    a6c8:	e3110020 	tst	r1, #32, 0
    a6cc:	049df004 	popeq	{pc}		; (ldreq pc, [sp], #4)
    a6d0:	e592c010 	ldr	ip, [r2, #16]
    a6d4:	e5901034 	ldr	r1, [r0, #52]	; 0x34
    a6d8:	e283e001 	add	lr, r3, #1, 0
    a6dc:	e580e03c 	str	lr, [r0, #60]	; 0x3c
    a6e0:	e7c1c003 	strb	ip, [r1, r3]
    a6e4:	e590303c 	ldr	r3, [r0, #60]	; 0x3c
    a6e8:	e5901038 	ldr	r1, [r0, #56]	; 0x38
    a6ec:	e1530001 	cmp	r3, r1
    a6f0:	3afffff6 	bcc	a6d0 <i2c_lld_serve_interrupt+0x120>
    a6f4:	e49df004 	pop	{pc}		; (ldr pc, [sp], #4)
    a6f8:	00000302 	andeq	r0, r0, r2, lsl #6
    a6fc:	00000000 	andeq	r0, r0, r0

0000a700 <i2c_lld_init>:
    a700:	e59f300c 	ldr	r3, [pc, #12]	; a714 <i2c_lld_init+0x14>
    a704:	e59f200c 	ldr	r2, [pc, #12]	; a718 <i2c_lld_init+0x18>
    a708:	e1a00003 	mov	r0, r3
    a70c:	e583200c 	str	r2, [r3, #12]
    a710:	eafffe26 	b	9fb0 <i2cObjectInit>
    a714:	0000b6f8 	strdeq	fp, [r0], -r8
    a718:	20804000 	addcs	r4, r0, r0
    a71c:	00000000 	andeq	r0, r0, r0

0000a720 <spi_lld_serve_interrupt>:
    a720:	e59f316c 	ldr	r3, [pc, #364]	; a894 <spi_lld_serve_interrupt+0x174>
    a724:	e5933208 	ldr	r3, [r3, #520]	; 0x208
    a728:	e3130501 	tst	r3, #4194304	; 0x400000
    a72c:	012fff1e 	bxeq	lr
    a730:	e59f3160 	ldr	r3, [pc, #352]	; a898 <spi_lld_serve_interrupt+0x178>
    a734:	e92d4010 	push	{r4, lr}
    a738:	e5932000 	ldr	r2, [r3]
    a73c:	e1a04000 	mov	r4, r0
    a740:	e3120801 	tst	r2, #65536	; 0x10000
    a744:	0a000017 	beq	a7a8 <spi_lld_serve_interrupt+0x88>
    a748:	e5902024 	ldr	r2, [r0, #36]	; 0x24
    a74c:	e3520000 	cmp	r2, #0, 0
    a750:	0a000024 	beq	a7e8 <spi_lld_serve_interrupt+0xc8>
    a754:	e5901004 	ldr	r1, [r0, #4]
    a758:	e5900020 	ldr	r0, [r0, #32]
    a75c:	e5d11004 	ldrb	r1, [r1, #4]
    a760:	e3510000 	cmp	r1, #0, 0
    a764:	e5931000 	ldr	r1, [r3]
    a768:	0a000039 	beq	a854 <spi_lld_serve_interrupt+0x134>
    a76c:	e3110701 	tst	r1, #262144	; 0x40000
    a770:	0a00000c 	beq	a7a8 <spi_lld_serve_interrupt+0x88>
    a774:	e1a01000 	mov	r1, r0
    a778:	ea000001 	b	a784 <spi_lld_serve_interrupt+0x64>
    a77c:	e3520000 	cmp	r2, #0, 0
    a780:	0a000007 	beq	a7a4 <spi_lld_serve_interrupt+0x84>
    a784:	e3500000 	cmp	r0, #0, 0
    a788:	01a0c000 	moveq	ip, r0
    a78c:	10d1c0b2 	ldrhne	ip, [r1], #2
    a790:	e2422002 	sub	r2, r2, #2, 0
    a794:	e583c004 	str	ip, [r3, #4]
    a798:	e593c000 	ldr	ip, [r3]
    a79c:	e31c0701 	tst	ip, #262144	; 0x40000
    a7a0:	1afffff5 	bne	a77c <spi_lld_serve_interrupt+0x5c>
    a7a4:	e5842024 	str	r2, [r4, #36]	; 0x24
    a7a8:	e59f30e8 	ldr	r3, [pc, #232]	; a898 <spi_lld_serve_interrupt+0x178>
    a7ac:	e5932000 	ldr	r2, [r3]
    a7b0:	e3120702 	tst	r2, #524288	; 0x80000
    a7b4:	08bd8010 	popeq	{r4, pc}
    a7b8:	e5932000 	ldr	r2, [r3]
    a7bc:	e3120802 	tst	r2, #131072	; 0x20000
    a7c0:	08bd8010 	popeq	{r4, pc}
    a7c4:	e594201c 	ldr	r2, [r4, #28]
    a7c8:	e5931004 	ldr	r1, [r3, #4]
    a7cc:	e3520000 	cmp	r2, #0, 0
    a7d0:	15c21000 	strbne	r1, [r2]
    a7d4:	eafffff7 	b	a7b8 <spi_lld_serve_interrupt+0x98>
    a7d8:	e594201c 	ldr	r2, [r4, #28]
    a7dc:	e5931004 	ldr	r1, [r3, #4]
    a7e0:	e3520000 	cmp	r2, #0, 0
    a7e4:	15c21000 	strbne	r1, [r2]
    a7e8:	e5932000 	ldr	r2, [r3]
    a7ec:	e3120802 	tst	r2, #131072	; 0x20000
    a7f0:	1afffff8 	bne	a7d8 <spi_lld_serve_interrupt+0xb8>
    a7f4:	e5941004 	ldr	r1, [r4, #4]
    a7f8:	e5932000 	ldr	r2, [r3]
    a7fc:	e5911000 	ldr	r1, [r1]
    a800:	e3c22d1a 	bic	r2, r2, #1664	; 0x680
    a804:	e3510000 	cmp	r1, #0, 0
    a808:	e5832000 	str	r2, [r3]
    a80c:	0a00000d 	beq	a848 <spi_lld_serve_interrupt+0x128>
    a810:	e3a03004 	mov	r3, #4, 0
    a814:	e1a00004 	mov	r0, r4
    a818:	e5c43000 	strb	r3, [r4]
    a81c:	e12fff31 	blx	r1
    a820:	e5d43000 	ldrb	r3, [r4]
    a824:	e3530004 	cmp	r3, #4, 0
    a828:	0a000006 	beq	a848 <spi_lld_serve_interrupt+0x128>
    a82c:	e5940008 	ldr	r0, [r4, #8]
    a830:	e3500000 	cmp	r0, #0, 0
    a834:	0affffdb 	beq	a7a8 <spi_lld_serve_interrupt+0x88>
    a838:	e3a03000 	mov	r3, #0, 0
    a83c:	e5843008 	str	r3, [r4, #8]
    a840:	ebfffa3a 	bl	9130 <chSchReadyI>
    a844:	eaffffd7 	b	a7a8 <spi_lld_serve_interrupt+0x88>
    a848:	e3a03002 	mov	r3, #2, 0
    a84c:	e5c43000 	strb	r3, [r4]
    a850:	eafffff5 	b	a82c <spi_lld_serve_interrupt+0x10c>
    a854:	e3110701 	tst	r1, #262144	; 0x40000
    a858:	0affffd2 	beq	a7a8 <spi_lld_serve_interrupt+0x88>
    a85c:	e1a01000 	mov	r1, r0
    a860:	ea000001 	b	a86c <spi_lld_serve_interrupt+0x14c>
    a864:	e3520000 	cmp	r2, #0, 0
    a868:	0affffce 	beq	a7a8 <spi_lld_serve_interrupt+0x88>
    a86c:	e3500000 	cmp	r0, #0, 0
    a870:	01a0c000 	moveq	ip, r0
    a874:	14d1c001 	ldrbne	ip, [r1], #1
    a878:	e2422001 	sub	r2, r2, #1, 0
    a87c:	e583c004 	str	ip, [r3, #4]
    a880:	e593c000 	ldr	ip, [r3]
    a884:	e5842024 	str	r2, [r4, #36]	; 0x24
    a888:	e31c0701 	tst	ip, #262144	; 0x40000
    a88c:	1afffff4 	bne	a864 <spi_lld_serve_interrupt+0x144>
    a890:	eaffffc4 	b	a7a8 <spi_lld_serve_interrupt+0x88>
    a894:	2000b000 	andcs	fp, r0, r0
    a898:	20204000 	eorcs	r4, r0, r0
    a89c:	00000000 	andeq	r0, r0, r0

0000a8a0 <spi_lld_init>:
    a8a0:	e59f0000 	ldr	r0, [pc]	; a8a8 <spi_lld_init+0x8>
    a8a4:	eafffe35 	b	a180 <spiObjectInit>
    a8a8:	0000b738 	andeq	fp, r0, r8, lsr r7
    a8ac:	00000000 	andeq	r0, r0, r0

0000a8b0 <bcm2835_gpio_fnsel>:
    a8b0:	e52de004 	push	{lr}		; (str lr, [sp, #-4]!)
    a8b4:	e3a0e007 	mov	lr, #7, 0
    a8b8:	e59f2038 	ldr	r2, [pc, #56]	; a8f8 <bcm2835_gpio_fnsel+0x48>
    a8bc:	e0823092 	umull	r3, r2, r2, r0
    a8c0:	e1a021a2 	lsr	r2, r2, #3
    a8c4:	e1a0c102 	lsl	ip, r2, #2
    a8c8:	e28c3202 	add	r3, ip, #536870912	; 0x20000000
    a8cc:	e2833602 	add	r3, r3, #2097152	; 0x200000
    a8d0:	e08c2002 	add	r2, ip, r2
    a8d4:	e0400082 	sub	r0, r0, r2, lsl #1
    a8d8:	e5932000 	ldr	r2, [r3]
    a8dc:	e0800080 	add	r0, r0, r0, lsl #1
    a8e0:	e1c2201e 	bic	r2, r2, lr, lsl r0
    a8e4:	e5832000 	str	r2, [r3]
    a8e8:	e5932000 	ldr	r2, [r3]
    a8ec:	e1821011 	orr	r1, r2, r1, lsl r0
    a8f0:	e5831000 	str	r1, [r3]
    a8f4:	e49df004 	pop	{pc}		; (ldr pc, [sp], #4)
    a8f8:	cccccccd 	stclgt	12, cr12, [ip], {205}	; 0xcd
    a8fc:	00000000 	andeq	r0, r0, r0

0000a900 <bcm2835_delay>:
    a900:	e3a03000 	mov	r3, #0, 0
    a904:	e24dd008 	sub	sp, sp, #8, 0
    a908:	e58d3004 	str	r3, [sp, #4]
    a90c:	e58d3004 	str	r3, [sp, #4]
    a910:	e59d3004 	ldr	r3, [sp, #4]
    a914:	e1500003 	cmp	r0, r3
    a918:	9a000005 	bls	a934 <bcm2835_delay+0x34>
    a91c:	e59d3004 	ldr	r3, [sp, #4]
    a920:	e2833001 	add	r3, r3, #1, 0
    a924:	e58d3004 	str	r3, [sp, #4]
    a928:	e59d3004 	ldr	r3, [sp, #4]
    a92c:	e1530000 	cmp	r3, r0
    a930:	3afffff9 	bcc	a91c <bcm2835_delay+0x1c>
    a934:	e28dd008 	add	sp, sp, #8, 0
    a938:	e12fff1e 	bx	lr
    a93c:	00000000 	andeq	r0, r0, r0

0000a940 <boardInit>:
    a940:	e12fff1e 	bx	lr
	...

0000a950 <chprintf>:
    a950:	e92d000e 	push	{r1, r2, r3}
    a954:	e92d4ff0 	push	{r4, r5, r6, r7, r8, r9, sl, fp, lr}
    a958:	e1a05000 	mov	r5, r0
    a95c:	e24dd028 	sub	sp, sp, #40, 0	; 0x28
    a960:	e28d3050 	add	r3, sp, #80, 0	; 0x50
    a964:	e59da04c 	ldr	sl, [sp, #76]	; 0x4c
    a968:	e58d300c 	str	r3, [sp, #12]
    a96c:	e1a0200a 	mov	r2, sl
    a970:	e4d21001 	ldrb	r1, [r2], #1
    a974:	e3510000 	cmp	r1, #0, 0
    a978:	0a00000a 	beq	a9a8 <chprintf+0x58>
    a97c:	e3510025 	cmp	r1, #37, 0	; 0x25
    a980:	0a00000c 	beq	a9b8 <chprintf+0x68>
    a984:	e1a0a002 	mov	sl, r2
    a988:	e5953000 	ldr	r3, [r5]
    a98c:	e1a00005 	mov	r0, r5
    a990:	e5933008 	ldr	r3, [r3, #8]
    a994:	e12fff33 	blx	r3
    a998:	e1a0200a 	mov	r2, sl
    a99c:	e4d21001 	ldrb	r1, [r2], #1
    a9a0:	e3510000 	cmp	r1, #0, 0
    a9a4:	1afffff4 	bne	a97c <chprintf+0x2c>
    a9a8:	e28dd028 	add	sp, sp, #40, 0	; 0x28
    a9ac:	e8bd4ff0 	pop	{r4, r5, r6, r7, r8, r9, sl, fp, lr}
    a9b0:	e28dd00c 	add	sp, sp, #12, 0
    a9b4:	e12fff1e 	bx	lr
    a9b8:	e3a0c000 	mov	ip, #0, 0
    a9bc:	e5da1001 	ldrb	r1, [sl, #1]
    a9c0:	e1a0400c 	mov	r4, ip
    a9c4:	e351002d 	cmp	r1, #45, 0	; 0x2d
    a9c8:	05da1002 	ldrbeq	r1, [sl, #2]
    a9cc:	028a2002 	addeq	r2, sl, #2, 0
    a9d0:	03a08001 	moveq	r8, #1, 0
    a9d4:	13a08000 	movne	r8, #0, 0
    a9d8:	e351002e 	cmp	r1, #46, 0	; 0x2e
    a9dc:	05d21001 	ldrbeq	r1, [r2, #1]
    a9e0:	02822001 	addeq	r2, r2, #1, 0
    a9e4:	03a07030 	moveq	r7, #48, 0	; 0x30
    a9e8:	13a07020 	movne	r7, #32, 0
    a9ec:	e59d000c 	ldr	r0, [sp, #12]
    a9f0:	e2822001 	add	r2, r2, #1, 0
    a9f4:	ea000004 	b	aa0c <chprintf+0xbc>
    a9f8:	e3a0c001 	mov	ip, #1, 0
    a9fc:	e4903004 	ldr	r3, [r0], #4
    aa00:	e6ef3073 	uxtb	r3, r3
    aa04:	e4d21001 	ldrb	r1, [r2], #1
    aa08:	e083408e 	add	r4, r3, lr, lsl #1
    aa0c:	e2413030 	sub	r3, r1, #48, 0	; 0x30
    aa10:	e6ef3073 	uxtb	r3, r3
    aa14:	e3530009 	cmp	r3, #9, 0
    aa18:	e084e104 	add	lr, r4, r4, lsl #2
    aa1c:	e1a0a002 	mov	sl, r2
    aa20:	9afffff7 	bls	aa04 <chprintf+0xb4>
    aa24:	e351002a 	cmp	r1, #42, 0	; 0x2a
    aa28:	0afffff2 	beq	a9f8 <chprintf+0xa8>
    aa2c:	e35c0000 	cmp	ip, #0, 0
    aa30:	158d000c 	strne	r0, [sp, #12]
    aa34:	e351002e 	cmp	r1, #46, 0	; 0x2e
    aa38:	13a00000 	movne	r0, #0, 0
    aa3c:	0a000132 	beq	af0c <chprintf+0x5bc>
    aa40:	e20130df 	and	r3, r1, #223, 0	; 0xdf
    aa44:	e353004c 	cmp	r3, #76, 0	; 0x4c
    aa48:	1a00003c 	bne	ab40 <chprintf+0x1f0>
    aa4c:	e5da3000 	ldrb	r3, [sl]
    aa50:	e3530000 	cmp	r3, #0, 0
    aa54:	11a01003 	movne	r1, r3
    aa58:	e2413044 	sub	r3, r1, #68, 0	; 0x44
    aa5c:	128aa001 	addne	sl, sl, #1, 0
    aa60:	e3530034 	cmp	r3, #52, 0	; 0x34
    aa64:	979ff103 	ldrls	pc, [pc, r3, lsl #2]
    aa68:	ea00011b 	b	aedc <chprintf+0x58c>
    aa6c:	0000afcc 	andeq	sl, r0, ip, asr #31
    aa70:	0000aedc 	ldrdeq	sl, [r0], -ip
    aa74:	0000aedc 	ldrdeq	sl, [r0], -ip
    aa78:	0000aedc 	ldrdeq	sl, [r0], -ip
    aa7c:	0000aedc 	ldrdeq	sl, [r0], -ip
    aa80:	0000aedc 	ldrdeq	sl, [r0], -ip
    aa84:	0000aedc 	ldrdeq	sl, [r0], -ip
    aa88:	0000aedc 	ldrdeq	sl, [r0], -ip
    aa8c:	0000aedc 	ldrdeq	sl, [r0], -ip
    aa90:	0000aedc 	ldrdeq	sl, [r0], -ip
    aa94:	0000aedc 	ldrdeq	sl, [r0], -ip
    aa98:	0000b064 	andeq	fp, r0, r4, rrx
    aa9c:	0000aedc 	ldrdeq	sl, [r0], -ip
    aaa0:	0000aedc 	ldrdeq	sl, [r0], -ip
    aaa4:	0000aedc 	ldrdeq	sl, [r0], -ip
    aaa8:	0000aedc 	ldrdeq	sl, [r0], -ip
    aaac:	0000aedc 	ldrdeq	sl, [r0], -ip
    aab0:	0000b054 	andeq	fp, r0, r4, asr r0
    aab4:	0000aedc 	ldrdeq	sl, [r0], -ip
    aab8:	0000aedc 	ldrdeq	sl, [r0], -ip
    aabc:	0000b074 	andeq	fp, r0, r4, ror r0
    aac0:	0000aedc 	ldrdeq	sl, [r0], -ip
    aac4:	0000aedc 	ldrdeq	sl, [r0], -ip
    aac8:	0000aedc 	ldrdeq	sl, [r0], -ip
    aacc:	0000aedc 	ldrdeq	sl, [r0], -ip
    aad0:	0000aedc 	ldrdeq	sl, [r0], -ip
    aad4:	0000aedc 	ldrdeq	sl, [r0], -ip
    aad8:	0000aedc 	ldrdeq	sl, [r0], -ip
    aadc:	0000aedc 	ldrdeq	sl, [r0], -ip
    aae0:	0000aedc 	ldrdeq	sl, [r0], -ip
    aae4:	0000aedc 	ldrdeq	sl, [r0], -ip
    aae8:	0000aeb4 			; <UNDEFINED> instruction: 0x0000aeb4
    aaec:	0000afcc 	andeq	sl, r0, ip, asr #31
    aaf0:	0000aedc 	ldrdeq	sl, [r0], -ip
    aaf4:	0000acac 	andeq	sl, r0, ip, lsr #25
    aaf8:	0000aedc 	ldrdeq	sl, [r0], -ip
    aafc:	0000aedc 	ldrdeq	sl, [r0], -ip
    ab00:	0000aedc 	ldrdeq	sl, [r0], -ip
    ab04:	0000aedc 	ldrdeq	sl, [r0], -ip
    ab08:	0000aedc 	ldrdeq	sl, [r0], -ip
    ab0c:	0000aedc 	ldrdeq	sl, [r0], -ip
    ab10:	0000aedc 	ldrdeq	sl, [r0], -ip
    ab14:	0000aedc 	ldrdeq	sl, [r0], -ip
    ab18:	0000b064 	andeq	fp, r0, r4, rrx
    ab1c:	0000aedc 	ldrdeq	sl, [r0], -ip
    ab20:	0000aedc 	ldrdeq	sl, [r0], -ip
    ab24:	0000aedc 	ldrdeq	sl, [r0], -ip
    ab28:	0000ac2c 	andeq	sl, r0, ip, lsr #24
    ab2c:	0000aedc 	ldrdeq	sl, [r0], -ip
    ab30:	0000b054 	andeq	fp, r0, r4, asr r0
    ab34:	0000aedc 	ldrdeq	sl, [r0], -ip
    ab38:	0000aedc 	ldrdeq	sl, [r0], -ip
    ab3c:	0000b074 	andeq	fp, r0, r4, ror r0
    ab40:	e2413041 	sub	r3, r1, #65, 0	; 0x41
    ab44:	e2412044 	sub	r2, r1, #68, 0	; 0x44
    ab48:	e6ef3073 	uxtb	r3, r3
    ab4c:	e3520034 	cmp	r2, #52, 0	; 0x34
    ab50:	979ff102 	ldrls	pc, [pc, r2, lsl #2]
    ab54:	ea0000e0 	b	aedc <chprintf+0x58c>
    ab58:	0000b084 	andeq	fp, r0, r4, lsl #1
    ab5c:	0000aedc 	ldrdeq	sl, [r0], -ip
    ab60:	0000aedc 	ldrdeq	sl, [r0], -ip
    ab64:	0000aedc 	ldrdeq	sl, [r0], -ip
    ab68:	0000aedc 	ldrdeq	sl, [r0], -ip
    ab6c:	0000aedc 	ldrdeq	sl, [r0], -ip
    ab70:	0000aedc 	ldrdeq	sl, [r0], -ip
    ab74:	0000aedc 	ldrdeq	sl, [r0], -ip
    ab78:	0000aedc 	ldrdeq	sl, [r0], -ip
    ab7c:	0000aedc 	ldrdeq	sl, [r0], -ip
    ab80:	0000aedc 	ldrdeq	sl, [r0], -ip
    ab84:	0000b0a0 	andeq	fp, r0, r0, lsr #1
    ab88:	0000aedc 	ldrdeq	sl, [r0], -ip
    ab8c:	0000aedc 	ldrdeq	sl, [r0], -ip
    ab90:	0000aedc 	ldrdeq	sl, [r0], -ip
    ab94:	0000aedc 	ldrdeq	sl, [r0], -ip
    ab98:	0000aedc 	ldrdeq	sl, [r0], -ip
    ab9c:	0000af58 	andeq	sl, r0, r8, asr pc
    aba0:	0000aedc 	ldrdeq	sl, [r0], -ip
    aba4:	0000aedc 	ldrdeq	sl, [r0], -ip
    aba8:	0000b0a8 	andeq	fp, r0, r8, lsr #1
    abac:	0000aedc 	ldrdeq	sl, [r0], -ip
    abb0:	0000aedc 	ldrdeq	sl, [r0], -ip
    abb4:	0000aedc 	ldrdeq	sl, [r0], -ip
    abb8:	0000aedc 	ldrdeq	sl, [r0], -ip
    abbc:	0000aedc 	ldrdeq	sl, [r0], -ip
    abc0:	0000aedc 	ldrdeq	sl, [r0], -ip
    abc4:	0000aedc 	ldrdeq	sl, [r0], -ip
    abc8:	0000aedc 	ldrdeq	sl, [r0], -ip
    abcc:	0000aedc 	ldrdeq	sl, [r0], -ip
    abd0:	0000aedc 	ldrdeq	sl, [r0], -ip
    abd4:	0000aeb4 			; <UNDEFINED> instruction: 0x0000aeb4
    abd8:	0000b084 	andeq	fp, r0, r4, lsl #1
    abdc:	0000aedc 	ldrdeq	sl, [r0], -ip
    abe0:	0000acac 	andeq	sl, r0, ip, lsr #25
    abe4:	0000aedc 	ldrdeq	sl, [r0], -ip
    abe8:	0000aedc 	ldrdeq	sl, [r0], -ip
    abec:	0000aedc 	ldrdeq	sl, [r0], -ip
    abf0:	0000aedc 	ldrdeq	sl, [r0], -ip
    abf4:	0000aedc 	ldrdeq	sl, [r0], -ip
    abf8:	0000aedc 	ldrdeq	sl, [r0], -ip
    abfc:	0000aedc 	ldrdeq	sl, [r0], -ip
    ac00:	0000aedc 	ldrdeq	sl, [r0], -ip
    ac04:	0000b0a0 	andeq	fp, r0, r0, lsr #1
    ac08:	0000aedc 	ldrdeq	sl, [r0], -ip
    ac0c:	0000aedc 	ldrdeq	sl, [r0], -ip
    ac10:	0000aedc 	ldrdeq	sl, [r0], -ip
    ac14:	0000ac2c 	andeq	sl, r0, ip, lsr #24
    ac18:	0000aedc 	ldrdeq	sl, [r0], -ip
    ac1c:	0000af58 	andeq	sl, r0, r8, asr pc
    ac20:	0000aedc 	ldrdeq	sl, [r0], -ip
    ac24:	0000aedc 	ldrdeq	sl, [r0], -ip
    ac28:	0000b0a8 	andeq	fp, r0, r8, lsr #1
    ac2c:	e59d300c 	ldr	r3, [sp, #12]
    ac30:	e5936000 	ldr	r6, [r3]
    ac34:	e2833004 	add	r3, r3, #4, 0
    ac38:	e3560000 	cmp	r6, #0, 0
    ac3c:	e58d300c 	str	r3, [sp, #12]
    ac40:	0a00011a 	beq	b0b0 <chprintf+0x760>
    ac44:	e59f24d4 	ldr	r2, [pc, #1236]	; b120 <chprintf+0x7d0>
    ac48:	e5d63000 	ldrb	r3, [r6]
    ac4c:	e3500000 	cmp	r0, #0, 0
    ac50:	01a00002 	moveq	r0, r2
    ac54:	e3530000 	cmp	r3, #0, 0
    ac58:	0a000123 	beq	b0ec <chprintf+0x79c>
    ac5c:	e1a09006 	mov	r9, r6
    ac60:	ea000003 	b	ac74 <chprintf+0x324>
    ac64:	e1e03009 	mvn	r3, r9
    ac68:	e0863003 	add	r3, r6, r3
    ac6c:	e1730000 	cmn	r3, r0
    ac70:	4a000002 	bmi	ac80 <chprintf+0x330>
    ac74:	e5f93001 	ldrb	r3, [r9, #1]!
    ac78:	e3530000 	cmp	r3, #0, 0
    ac7c:	1afffff8 	bne	ac64 <chprintf+0x314>
    ac80:	e0492006 	sub	r2, r9, r6
    ac84:	e0549002 	subs	r9, r4, r2
    ac88:	e242b001 	sub	fp, r2, #1, 0
    ac8c:	e3a07020 	mov	r7, #32, 0
    ac90:	5a00005f 	bpl	ae14 <chprintf+0x4c4>
    ac94:	e3580000 	cmp	r8, #0, 0
    ac98:	1a000097 	bne	aefc <chprintf+0x5ac>
    ac9c:	e35b0000 	cmp	fp, #0, 0
    aca0:	a1a09008 	movge	r9, r8
    aca4:	aa00006f 	bge	ae68 <chprintf+0x518>
    aca8:	eaffff2f 	b	a96c <chprintf+0x1c>
    acac:	e59d300c 	ldr	r3, [sp, #12]
    acb0:	e2833007 	add	r3, r3, #7, 0
    acb4:	e3c33007 	bic	r3, r3, #7, 0
    acb8:	e2832008 	add	r2, r3, #8, 0
    acbc:	e1c300d0 	ldrd	r0, [r3]
    acc0:	e58d200c 	str	r2, [sp, #12]
    acc4:	ebfff7d5 	bl	8c20 <__aeabi_d2f>
    acc8:	e3a01000 	mov	r1, #0, 0
    accc:	e1a0b000 	mov	fp, r0
    acd0:	ebfff827 	bl	8d74 <__aeabi_fcmplt>
    acd4:	e3500000 	cmp	r0, #0, 0
    acd8:	13a0302d 	movne	r3, #45, 0	; 0x2d
    acdc:	128bb102 	addne	fp, fp, #-2147483648	; 0x80000000
    ace0:	028d6010 	addeq	r6, sp, #16, 0
    ace4:	e1a0000b 	mov	r0, fp
    ace8:	128d9011 	addne	r9, sp, #17, 0
    acec:	01a09006 	moveq	r9, r6
    acf0:	15cd3010 	strbne	r3, [sp, #16]
    acf4:	128d6010 	addne	r6, sp, #16, 0
    acf8:	ebfff656 	bl	8658 <__aeabi_f2d>
    acfc:	e1cd00f0 	strd	r0, [sp]
    ad00:	e1a0000b 	mov	r0, fp
    ad04:	ebfff835 	bl	8de0 <__aeabi_f2iz>
    ad08:	e289c00b 	add	ip, r9, #11, 0
    ad0c:	e1a02000 	mov	r2, r0
    ad10:	e1a0e00c 	mov	lr, ip
    ad14:	e59f3408 	ldr	r3, [pc, #1032]	; b124 <chprintf+0x7d4>
    ad18:	e3520009 	cmp	r2, #9, 0
    ad1c:	e0831293 	umull	r1, r3, r3, r2
    ad20:	e1a031a3 	lsr	r3, r3, #3
    ad24:	e1a01003 	mov	r1, r3
    ad28:	e0833103 	add	r3, r3, r3, lsl #2
    ad2c:	e0423083 	sub	r3, r2, r3, lsl #1
    ad30:	e2833030 	add	r3, r3, #48, 0	; 0x30
    ad34:	e6ef3073 	uxtb	r3, r3
    ad38:	e56e3001 	strb	r3, [lr, #-1]!
    ad3c:	e1a02001 	mov	r2, r1
    ad40:	8afffff3 	bhi	ad14 <chprintf+0x3c4>
    ad44:	e04cc00e 	sub	ip, ip, lr
    ad48:	e1a0100e 	mov	r1, lr
    ad4c:	e1a02009 	mov	r2, r9
    ad50:	e089e00c 	add	lr, r9, ip
    ad54:	ea000000 	b	ad5c <chprintf+0x40c>
    ad58:	e5f13001 	ldrb	r3, [r1, #1]!
    ad5c:	e4c23001 	strb	r3, [r2], #1
    ad60:	e152000e 	cmp	r2, lr
    ad64:	1afffffb 	bne	ad58 <chprintf+0x408>
    ad68:	e3a0302e 	mov	r3, #46, 0	; 0x2e
    ad6c:	e24cc001 	sub	ip, ip, #1, 0
    ad70:	e5c23000 	strb	r3, [r2]
    ad74:	e089900c 	add	r9, r9, ip
    ad78:	ebfff62c 	bl	8630 <__aeabi_i2d>
    ad7c:	e1a02000 	mov	r2, r0
    ad80:	e1a03001 	mov	r3, r1
    ad84:	e1cd00d0 	ldrd	r0, [sp]
    ad88:	ebfff55a 	bl	82f8 <__aeabi_dsub>
    ad8c:	e3a02000 	mov	r2, #0, 0
    ad90:	e59f3390 	ldr	r3, [pc, #912]	; b128 <chprintf+0x7d8>
    ad94:	ebfff661 	bl	8720 <__aeabi_dmul>
    ad98:	e289b00d 	add	fp, r9, #13, 0
    ad9c:	ebfff787 	bl	8bc0 <__aeabi_d2iz>
    ada0:	e1a0100b 	mov	r1, fp
    ada4:	e2892002 	add	r2, r9, #2, 0
    ada8:	e289e008 	add	lr, r9, #8, 0
    adac:	e59f3370 	ldr	r3, [pc, #880]	; b124 <chprintf+0x7d4>
    adb0:	e083c093 	umull	ip, r3, r3, r0
    adb4:	e1a031a3 	lsr	r3, r3, #3
    adb8:	e1a0c003 	mov	ip, r3
    adbc:	e0833103 	add	r3, r3, r3, lsl #2
    adc0:	e0403083 	sub	r3, r0, r3, lsl #1
    adc4:	e2833030 	add	r3, r3, #48, 0	; 0x30
    adc8:	e6ef3073 	uxtb	r3, r3
    adcc:	e5613001 	strb	r3, [r1, #-1]!
    add0:	e151000e 	cmp	r1, lr
    add4:	e1a0000c 	mov	r0, ip
    add8:	1afffff3 	bne	adac <chprintf+0x45c>
    addc:	e04bb001 	sub	fp, fp, r1
    ade0:	e28bc002 	add	ip, fp, #2, 0
    ade4:	e1a00002 	mov	r0, r2
    ade8:	e089900c 	add	r9, r9, ip
    adec:	ea000000 	b	adf4 <chprintf+0x4a4>
    adf0:	e5f13001 	ldrb	r3, [r1, #1]!
    adf4:	e4c03001 	strb	r3, [r0], #1
    adf8:	e1500009 	cmp	r0, r9
    adfc:	1afffffb 	bne	adf0 <chprintf+0x4a0>
    ae00:	e082200b 	add	r2, r2, fp
    ae04:	e0422006 	sub	r2, r2, r6
    ae08:	e242b001 	sub	fp, r2, #1, 0
    ae0c:	e0549002 	subs	r9, r4, r2
    ae10:	4affff9f 	bmi	ac94 <chprintf+0x344>
    ae14:	e3580000 	cmp	r8, #0, 0
    ae18:	1a000034 	bne	aef0 <chprintf+0x5a0>
    ae1c:	e3590000 	cmp	r9, #0, 0
    ae20:	e0429004 	sub	r9, r2, r4
    ae24:	0a000031 	beq	aef0 <chprintf+0x5a0>
    ae28:	e5d62000 	ldrb	r2, [r6]
    ae2c:	e5953000 	ldr	r3, [r5]
    ae30:	e352002d 	cmp	r2, #45, 0	; 0x2d
    ae34:	03570030 	cmpeq	r7, #48, 0	; 0x30
    ae38:	e5933008 	ldr	r3, [r3, #8]
    ae3c:	1a000002 	bne	ae4c <chprintf+0x4fc>
    ae40:	ea00009f 	b	b0c4 <chprintf+0x774>
    ae44:	e5953000 	ldr	r3, [r5]
    ae48:	e5933008 	ldr	r3, [r3, #8]
    ae4c:	e1a01007 	mov	r1, r7
    ae50:	e1a00005 	mov	r0, r5
    ae54:	e12fff33 	blx	r3
    ae58:	e2999001 	adds	r9, r9, #1, 0
    ae5c:	1afffff8 	bne	ae44 <chprintf+0x4f4>
    ae60:	e35b0000 	cmp	fp, #0, 0
    ae64:	bafffec0 	blt	a96c <chprintf+0x1c>
    ae68:	e086b00b 	add	fp, r6, fp
    ae6c:	e5953000 	ldr	r3, [r5]
    ae70:	e4d61001 	ldrb	r1, [r6], #1
    ae74:	e5933008 	ldr	r3, [r3, #8]
    ae78:	e1a00005 	mov	r0, r5
    ae7c:	e12fff33 	blx	r3
    ae80:	e04b3006 	sub	r3, fp, r6
    ae84:	e3530000 	cmp	r3, #0, 0
    ae88:	aafffff7 	bge	ae6c <chprintf+0x51c>
    ae8c:	e3590000 	cmp	r9, #0, 0
    ae90:	0afffeb5 	beq	a96c <chprintf+0x1c>
    ae94:	e5953000 	ldr	r3, [r5]
    ae98:	e1a01007 	mov	r1, r7
    ae9c:	e5933008 	ldr	r3, [r3, #8]
    aea0:	e1a00005 	mov	r0, r5
    aea4:	e12fff33 	blx	r3
    aea8:	e2599001 	subs	r9, r9, #1, 0
    aeac:	1afffff8 	bne	ae94 <chprintf+0x544>
    aeb0:	eafffead 	b	a96c <chprintf+0x1c>
    aeb4:	e59d300c 	ldr	r3, [sp, #12]
    aeb8:	e3a02001 	mov	r2, #1, 0
    aebc:	e5931000 	ldr	r1, [r3]
    aec0:	e2833004 	add	r3, r3, #4, 0
    aec4:	e5cd1010 	strb	r1, [sp, #16]
    aec8:	e58d300c 	str	r3, [sp, #12]
    aecc:	e3a0b000 	mov	fp, #0, 0
    aed0:	e3a07020 	mov	r7, #32, 0
    aed4:	e28d6010 	add	r6, sp, #16, 0
    aed8:	eaffffcb 	b	ae0c <chprintf+0x4bc>
    aedc:	e3a02001 	mov	r2, #1, 0
    aee0:	e3a0b000 	mov	fp, #0, 0
    aee4:	e5cd1010 	strb	r1, [sp, #16]
    aee8:	e28d6010 	add	r6, sp, #16, 0
    aeec:	eaffffc6 	b	ae0c <chprintf+0x4bc>
    aef0:	e35b0000 	cmp	fp, #0, 0
    aef4:	aaffffdb 	bge	ae68 <chprintf+0x518>
    aef8:	eaffffe3 	b	ae8c <chprintf+0x53c>
    aefc:	e35b0000 	cmp	fp, #0, 0
    af00:	a3a09000 	movge	r9, #0, 0
    af04:	aaffffd7 	bge	ae68 <chprintf+0x518>
    af08:	eafffe97 	b	a96c <chprintf+0x1c>
    af0c:	e3a0e000 	mov	lr, #0, 0
    af10:	e59d200c 	ldr	r2, [sp, #12]
    af14:	e1a0000e 	mov	r0, lr
    af18:	ea000003 	b	af2c <chprintf+0x5dc>
    af1c:	e3a0e001 	mov	lr, #1, 0
    af20:	e4923004 	ldr	r3, [r2], #4
    af24:	e6ef3073 	uxtb	r3, r3
    af28:	e083008c 	add	r0, r3, ip, lsl #1
    af2c:	e4da1001 	ldrb	r1, [sl], #1
    af30:	e080c100 	add	ip, r0, r0, lsl #2
    af34:	e2413030 	sub	r3, r1, #48, 0	; 0x30
    af38:	e6ef3073 	uxtb	r3, r3
    af3c:	e3530009 	cmp	r3, #9, 0
    af40:	9afffff8 	bls	af28 <chprintf+0x5d8>
    af44:	e351002a 	cmp	r1, #42, 0	; 0x2a
    af48:	0afffff3 	beq	af1c <chprintf+0x5cc>
    af4c:	e35e0000 	cmp	lr, #0, 0
    af50:	158d200c 	strne	r2, [sp, #12]
    af54:	eafffeb9 	b	aa40 <chprintf+0xf0>
    af58:	e3a0600a 	mov	r6, #10, 0
    af5c:	e59d200c 	ldr	r2, [sp, #12]
    af60:	e4920004 	ldr	r0, [r2], #4
    af64:	e58d200c 	str	r2, [sp, #12]
    af68:	e28db01b 	add	fp, sp, #27, 0
    af6c:	ea000000 	b	af74 <chprintf+0x624>
    af70:	e1a0b001 	mov	fp, r1
    af74:	e1a01006 	mov	r1, r6
    af78:	e1a09000 	mov	r9, r0
    af7c:	ebfff4cc 	bl	82b4 <__aeabi_uidivmod>
    af80:	e2813030 	add	r3, r1, #48, 0	; 0x30
    af84:	e3530039 	cmp	r3, #57, 0	; 0x39
    af88:	c2813037 	addgt	r3, r1, #55, 0	; 0x37
    af8c:	e6ef3073 	uxtb	r3, r3
    af90:	e1590006 	cmp	r9, r6
    af94:	e54b3001 	strb	r3, [fp, #-1]
    af98:	e24b1001 	sub	r1, fp, #1, 0
    af9c:	2afffff3 	bcs	af70 <chprintf+0x620>
    afa0:	e28d201b 	add	r2, sp, #27, 0
    afa4:	e28d6010 	add	r6, sp, #16, 0
    afa8:	e0422001 	sub	r2, r2, r1
    afac:	e1a00006 	mov	r0, r6
    afb0:	e0811002 	add	r1, r1, r2
    afb4:	ea000000 	b	afbc <chprintf+0x66c>
    afb8:	e4db3001 	ldrb	r3, [fp], #1
    afbc:	e151000b 	cmp	r1, fp
    afc0:	e4c03001 	strb	r3, [r0], #1
    afc4:	1afffffb 	bne	afb8 <chprintf+0x668>
    afc8:	eaffff8e 	b	ae08 <chprintf+0x4b8>
    afcc:	e59d200c 	ldr	r2, [sp, #12]
    afd0:	e2823004 	add	r3, r2, #4, 0
    afd4:	e592e000 	ldr	lr, [r2]
    afd8:	e58d300c 	str	r3, [sp, #12]
    afdc:	e35e0000 	cmp	lr, #0, 0
    afe0:	a28d6010 	addge	r6, sp, #16, 0
    afe4:	a1a02006 	movge	r2, r6
    afe8:	b3a0302d 	movlt	r3, #45, 0	; 0x2d
    afec:	b28d2011 	addlt	r2, sp, #17, 0
    aff0:	e282c00b 	add	ip, r2, #11, 0
    aff4:	b26ee000 	rsblt	lr, lr, #0, 0
    aff8:	b5cd3010 	strblt	r3, [sp, #16]
    affc:	b28d6010 	addlt	r6, sp, #16, 0
    b000:	e1a0000c 	mov	r0, ip
    b004:	ea000000 	b	b00c <chprintf+0x6bc>
    b008:	e1a0e001 	mov	lr, r1
    b00c:	e59f3110 	ldr	r3, [pc, #272]	; b124 <chprintf+0x7d4>
    b010:	e35e0009 	cmp	lr, #9, 0
    b014:	e0813e93 	umull	r3, r1, r3, lr
    b018:	e1a011a1 	lsr	r1, r1, #3
    b01c:	e0813101 	add	r3, r1, r1, lsl #2
    b020:	e04e3083 	sub	r3, lr, r3, lsl #1
    b024:	e2833030 	add	r3, r3, #48, 0	; 0x30
    b028:	e6ef3073 	uxtb	r3, r3
    b02c:	e5603001 	strb	r3, [r0, #-1]!
    b030:	cafffff4 	bgt	b008 <chprintf+0x6b8>
    b034:	e04c1000 	sub	r1, ip, r0
    b038:	e0821001 	add	r1, r2, r1
    b03c:	ea000000 	b	b044 <chprintf+0x6f4>
    b040:	e5f03001 	ldrb	r3, [r0, #1]!
    b044:	e4c23001 	strb	r3, [r2], #1
    b048:	e1520001 	cmp	r2, r1
    b04c:	1afffffb 	bne	b040 <chprintf+0x6f0>
    b050:	eaffff6b 	b	ae04 <chprintf+0x4b4>
    b054:	e59d200c 	ldr	r2, [sp, #12]
    b058:	e3a0600a 	mov	r6, #10, 0
    b05c:	e4920004 	ldr	r0, [r2], #4
    b060:	eaffffbf 	b	af64 <chprintf+0x614>
    b064:	e59d200c 	ldr	r2, [sp, #12]
    b068:	e3a06008 	mov	r6, #8, 0
    b06c:	e4920004 	ldr	r0, [r2], #4
    b070:	eaffffbb 	b	af64 <chprintf+0x614>
    b074:	e59d200c 	ldr	r2, [sp, #12]
    b078:	e3a06010 	mov	r6, #16, 0
    b07c:	e4920004 	ldr	r0, [r2], #4
    b080:	eaffffb7 	b	af64 <chprintf+0x614>
    b084:	e59d200c 	ldr	r2, [sp, #12]
    b088:	e3530019 	cmp	r3, #25, 0
    b08c:	e1a03002 	mov	r3, r2
    b090:	e493e004 	ldr	lr, [r3], #4
    b094:	858d300c 	strhi	r3, [sp, #12]
    b098:	8affffcf 	bhi	afdc <chprintf+0x68c>
    b09c:	eaffffcb 	b	afd0 <chprintf+0x680>
    b0a0:	e3a06008 	mov	r6, #8, 0
    b0a4:	eaffffac 	b	af5c <chprintf+0x60c>
    b0a8:	e3a06010 	mov	r6, #16, 0
    b0ac:	eaffffaa 	b	af5c <chprintf+0x60c>
    b0b0:	e3500000 	cmp	r0, #0, 0
    b0b4:	1a00000a 	bne	b0e4 <chprintf+0x794>
    b0b8:	e59f0060 	ldr	r0, [pc, #96]	; b120 <chprintf+0x7d0>
    b0bc:	e59f6068 	ldr	r6, [pc, #104]	; b12c <chprintf+0x7dc>
    b0c0:	eafffee5 	b	ac5c <chprintf+0x30c>
    b0c4:	e3a0102d 	mov	r1, #45, 0	; 0x2d
    b0c8:	e1a00005 	mov	r0, r5
    b0cc:	e12fff33 	blx	r3
    b0d0:	e5953000 	ldr	r3, [r5]
    b0d4:	e2866001 	add	r6, r6, #1, 0
    b0d8:	e5933008 	ldr	r3, [r3, #8]
    b0dc:	e24bb001 	sub	fp, fp, #1, 0
    b0e0:	eaffff59 	b	ae4c <chprintf+0x4fc>
    b0e4:	e59f6040 	ldr	r6, [pc, #64]	; b12c <chprintf+0x7dc>
    b0e8:	eafffedb 	b	ac5c <chprintf+0x30c>
    b0ec:	e3580000 	cmp	r8, #0, 0
    b0f0:	11a09004 	movne	r9, r4
    b0f4:	13a07020 	movne	r7, #32, 0
    b0f8:	1affff63 	bne	ae8c <chprintf+0x53c>
    b0fc:	e3540000 	cmp	r4, #0, 0
    b100:	e2649000 	rsb	r9, r4, #0, 0
    b104:	03a07020 	moveq	r7, #32, 0
    b108:	0affff5f 	beq	ae8c <chprintf+0x53c>
    b10c:	e5953000 	ldr	r3, [r5]
    b110:	e3a07020 	mov	r7, #32, 0
    b114:	e5933008 	ldr	r3, [r3, #8]
    b118:	e3e0b000 	mvn	fp, #0, 0
    b11c:	eaffff4a 	b	ae4c <chprintf+0x4fc>
    b120:	00007fff 	strdeq	r7, [r0], -pc	; <UNPREDICTABLE>
    b124:	cccccccd 	stclgt	12, cr12, [ip], {205}	; 0xcd
    b128:	40f86a00 	rscsmi	r6, r8, r0, lsl #20
    b12c:	0000b370 	andeq	fp, r0, r0, ror r3

0000b130 <Thread_LCD>:
    b130:	e92d41f0 	push	{r4, r5, r6, r7, r8, lr}
    b134:	e3a05000 	mov	r5, #0, 0
    b138:	e59f30a8 	ldr	r3, [pc, #168]	; b1e8 <Thread_LCD+0xb8>
    b13c:	e59f20a8 	ldr	r2, [pc, #168]	; b1ec <Thread_LCD+0xbc>
    b140:	e5933018 	ldr	r3, [r3, #24]
    b144:	e59f40a4 	ldr	r4, [pc, #164]	; b1f0 <Thread_LCD+0xc0>
    b148:	e59f70a4 	ldr	r7, [pc, #164]	; b1f4 <Thread_LCD+0xc4>
    b14c:	e5832018 	str	r2, [r3, #24]
    b150:	e2446030 	sub	r6, r4, #48, 0	; 0x30
    b154:	e3e02000 	mvn	r2, #0, 0
    b158:	e3a0107c 	mov	r1, #124, 0	; 0x7c
    b15c:	e1a00004 	mov	r0, r4
    b160:	ebfffab2 	bl	9c30 <chOQPutTimeout>
    b164:	e3e02000 	mvn	r2, #0, 0
    b168:	e3a01018 	mov	r1, #24, 0
    b16c:	e1a00004 	mov	r0, r4
    b170:	ebfffaae 	bl	9c30 <chOQPutTimeout>
    b174:	e3e02000 	mvn	r2, #0, 0
    b178:	e3a01020 	mov	r1, #32, 0
    b17c:	e1a00004 	mov	r0, r4
    b180:	ebfffaaa 	bl	9c30 <chOQPutTimeout>
    b184:	e3a0000a 	mov	r0, #10, 0
    b188:	ebfff8fc 	bl	9580 <chThdSleep>
    b18c:	e3e02000 	mvn	r2, #0, 0
    b190:	e3a0107c 	mov	r1, #124, 0	; 0x7c
    b194:	e1a00004 	mov	r0, r4
    b198:	ebfffaa4 	bl	9c30 <chOQPutTimeout>
    b19c:	e3e02000 	mvn	r2, #0, 0
    b1a0:	e3a01019 	mov	r1, #25, 0
    b1a4:	e1a00004 	mov	r0, r4
    b1a8:	ebfffaa0 	bl	9c30 <chOQPutTimeout>
    b1ac:	e3e02000 	mvn	r2, #0, 0
    b1b0:	e3a01020 	mov	r1, #32, 0
    b1b4:	e1a00004 	mov	r0, r4
    b1b8:	ebfffa9c 	bl	9c30 <chOQPutTimeout>
    b1bc:	e3a0000a 	mov	r0, #10, 0
    b1c0:	ebfff8ee 	bl	9580 <chThdSleep>
    b1c4:	e1a02005 	mov	r2, r5
    b1c8:	e1a00006 	mov	r0, r6
    b1cc:	e1a01007 	mov	r1, r7
    b1d0:	ebfffdde 	bl	a950 <chprintf>
    b1d4:	e2855001 	add	r5, r5, #1, 0
    b1d8:	e3a00e7d 	mov	r0, #2000	; 0x7d0
    b1dc:	e6ff5075 	uxth	r5, r5
    b1e0:	ebfff8e6 	bl	9580 <chThdSleep>
    b1e4:	eaffffda 	b	b154 <Thread_LCD+0x24>
    b1e8:	0000b5f8 	strdeq	fp, [r0], -r8
    b1ec:	0000b380 	andeq	fp, r0, r0, lsl #7
    b1f0:	0000b674 	andeq	fp, r0, r4, ror r6
    b1f4:	0000b38c 	andeq	fp, r0, ip, lsl #7
	...

0000b200 <main>:
    b200:	e92d4070 	push	{r4, r5, r6, lr}
    b204:	e3a06000 	mov	r6, #0, 0
    b208:	e24dd020 	sub	sp, sp, #32, 0
    b20c:	ebfffb57 	bl	9f70 <halInit>
    b210:	ebfff712 	bl	8e60 <chSysInit>
    b214:	e59fe0dc 	ldr	lr, [pc, #220]	; b2f8 <main+0xf8>
    b218:	e28dc00c 	add	ip, sp, #12, 0
    b21c:	e8be000f 	ldm	lr!, {r0, r1, r2, r3}
    b220:	e8ac000f 	stmia	ip!, {r0, r1, r2, r3}
    b224:	e59f50d0 	ldr	r5, [pc, #208]	; b2fc <main+0xfc>
    b228:	e59e3000 	ldr	r3, [lr]
    b22c:	e1a00005 	mov	r0, r5
    b230:	e1a01006 	mov	r1, r6
    b234:	e1cc30b0 	strh	r3, [ip]
    b238:	e2854030 	add	r4, r5, #48, 0	; 0x30
    b23c:	ebfffb9f 	bl	a0c0 <sdStart>
    b240:	e1a00005 	mov	r0, r5
    b244:	e59f10b4 	ldr	r1, [pc, #180]	; b300 <main+0x100>
    b248:	ebfffdc0 	bl	a950 <chprintf>
    b24c:	e1a00004 	mov	r0, r4
    b250:	e3e02000 	mvn	r2, #0, 0
    b254:	e3a0107c 	mov	r1, #124, 0	; 0x7c
    b258:	ebfffa74 	bl	9c30 <chOQPutTimeout>
    b25c:	e1a00004 	mov	r0, r4
    b260:	e3e02000 	mvn	r2, #0, 0
    b264:	e3a01018 	mov	r1, #24, 0
    b268:	ebfffa70 	bl	9c30 <chOQPutTimeout>
    b26c:	e1a01006 	mov	r1, r6
    b270:	e3e02000 	mvn	r2, #0, 0
    b274:	e1a00004 	mov	r0, r4
    b278:	ebfffa6c 	bl	9c30 <chOQPutTimeout>
    b27c:	e3a0000a 	mov	r0, #10, 0
    b280:	ebfff8be 	bl	9580 <chThdSleep>
    b284:	e1a00004 	mov	r0, r4
    b288:	e3e02000 	mvn	r2, #0, 0
    b28c:	e3a0107c 	mov	r1, #124, 0	; 0x7c
    b290:	ebfffa66 	bl	9c30 <chOQPutTimeout>
    b294:	e1a00004 	mov	r0, r4
    b298:	e3e02000 	mvn	r2, #0, 0
    b29c:	e3a01019 	mov	r1, #25, 0
    b2a0:	ebfffa62 	bl	9c30 <chOQPutTimeout>
    b2a4:	e3e02000 	mvn	r2, #0, 0
    b2a8:	e3a0100a 	mov	r1, #10, 0
    b2ac:	e1a00004 	mov	r0, r4
    b2b0:	ebfffa5e 	bl	9c30 <chOQPutTimeout>
    b2b4:	e3a0000a 	mov	r0, #10, 0
    b2b8:	ebfff8b0 	bl	9580 <chThdSleep>
    b2bc:	e1a00005 	mov	r0, r5
    b2c0:	e28d100c 	add	r1, sp, #12, 0
    b2c4:	ebfffda1 	bl	a950 <chprintf>
    b2c8:	e3a0207f 	mov	r2, #127, 0	; 0x7f
    b2cc:	e3a01f46 	mov	r1, #280	; 0x118
    b2d0:	e58d6000 	str	r6, [sp]
    b2d4:	e59f3028 	ldr	r3, [pc, #40]	; b304 <main+0x104>
    b2d8:	e59f0028 	ldr	r0, [pc, #40]	; b308 <main+0x108>
    b2dc:	ebfff87b 	bl	94d0 <chThdCreateStatic>
    b2e0:	e59f3024 	ldr	r3, [pc, #36]	; b30c <main+0x10c>
    b2e4:	e5930018 	ldr	r0, [r3, #24]
    b2e8:	ebfff8cc 	bl	9620 <chThdWait>
    b2ec:	e1a00006 	mov	r0, r6
    b2f0:	e28dd020 	add	sp, sp, #32, 0
    b2f4:	e8bd8070 	pop	{r4, r5, r6, pc}
    b2f8:	0000b3b4 			; <UNDEFINED> instruction: 0x0000b3b4
    b2fc:	0000b644 	andeq	fp, r0, r4, asr #12
    b300:	0000b3a0 	andeq	fp, r0, r0, lsr #7
    b304:	0000b130 	andeq	fp, r0, r0, lsr r1
    b308:	0000b434 	andeq	fp, r0, r4, lsr r4
    b30c:	0000b5f8 	strdeq	fp, [r0], -r8
    b310:	656c6469 	strbvs	r6, [ip, #-1129]!	; 0xfffffb97
	...

0000b320 <ch_debug>:
    b320:	6e69616d 	powvsez	f6, f1, #5.0
    b324:	11411600 	cmpne	r1, r0, lsl #12
    b328:	08440404 	stmdaeq	r4, {r2, sl}^
    b32c:	1814100c 	ldmdane	r4, {r2, r3, ip}
    b330:	1e1d1c00 	cdpne	12, 1, cr1, cr13, cr0, {0}
    b334:	0000201f 	andeq	r2, r0, pc, lsl r0
	...

0000b340 <vmt>:
    b340:	0000a000 	andeq	sl, r0, r0
    b344:	00009fe0 	andeq	r9, r0, r0, ror #31
    b348:	0000a040 	andeq	sl, r0, r0, asr #32
    b34c:	0000a020 	andeq	sl, r0, r0, lsr #32
    b350:	0000a030 	andeq	sl, r0, r0, lsr r0
    b354:	0000a010 	andeq	sl, r0, r0, lsl r0
    b358:	00009ff0 	strdeq	r9, [r0], -r0
    b35c:	00009fd0 	ldrdeq	r9, [r0], -r0

0000b360 <default_config>:
    b360:	0001c200 	andeq	ip, r1, r0, lsl #4
	...

0000b370 <pal_default_config>:
    b370:	6c756e28 	ldclvs	14, cr6, [r5], #-160	; 0xffffff60
    b374:	0000296c 	andeq	r2, r0, ip, ror #18
	...
    b380:	69726553 	ldmdbvs	r2!, {r0, r1, r4, r6, r8, sl, sp, lr}^
    b384:	72506c61 	subsvc	r6, r0, #24832	; 0x6100
    b388:	00746e69 	rsbseq	r6, r4, r9, ror #28
    b38c:	72657449 	rsbvc	r7, r5, #1224736768	; 0x49000000
    b390:	25203a2e 	strcs	r3, [r0, #-2606]!	; 0xfffff5d2
    b394:	00000075 	andeq	r0, r0, r5, ror r0
	...
    b3a0:	6e69614d 	powvsem	f6, f1, #5.0
    b3a4:	44532820 	ldrbmi	r2, [r3], #-2080	; 0xfffff7e0
    b3a8:	74732031 	ldrbtvc	r2, [r3], #-49	; 0xffffffcf
    b3ac:	65747261 	ldrbvs	r7, [r4, #-609]!	; 0xfffffd9f
    b3b0:	00002964 	andeq	r2, r0, r4, ror #18
    b3b4:	6c6c6548 	cfstr64vs	mvdx6, [ip], #-288	; 0xfffffee0
    b3b8:	6843206f 	stmdavs	r3, {r0, r1, r2, r3, r5, r6, sp}^
    b3bc:	2d696269 	sfmcs	f6, 2, [r9, #-420]!	; 0xfffffe5c
    b3c0:	6c726f57 	ldclvs	15, cr6, [r2], #-348	; 0xfffffea4
    b3c4:	00000064 	andeq	r0, r0, r4, rrx
