ARM GAS  /tmp/ccB9oAha.s 			page 1


   1              		.cpu arm1176jz-s
   2              		.eabi_attribute 20, 1
   3              		.eabi_attribute 21, 1
   4              		.eabi_attribute 23, 3
   5              		.eabi_attribute 24, 1
   6              		.eabi_attribute 25, 1
   7              		.eabi_attribute 26, 1
   8              		.eabi_attribute 30, 2
   9              		.eabi_attribute 34, 1
  10              		.eabi_attribute 18, 4
  11              		.file	"main.c"
  12              		.text
  13              	.Ltext0:
  14              		.cfi_sections	.debug_frame
  15              		.section	.text.startup.main,"ax",%progbits
  16              		.align	2
  17              		.global	main
  18              		.arch armv6kz
  19              		.syntax unified
  20              		.arm
  21              		.fpu softvfp
  22              		.type	main, %function
  23              	main:
  24              	.LFB8:
  25              		.file 1 "main.c"
  26              		.loc 1 131 1 view -0
  27              		.cfi_startproc
  28              		@ args = 0, pretend = 0, frame = 8
  29              		@ frame_needed = 0, uses_anonymous_args = 0
  30              		.loc 1 132 3 view .LVU1
  31              		.loc 1 131 1 is_stmt 0 view .LVU2
  32 0000 10402DE9 		push	{r4, lr}
  33              		.cfi_def_cfa_offset 8
  34              		.cfi_offset 4, -8
  35              		.cfi_offset 14, -4
  36              		.loc 1 148 3 view .LVU3
  37 0004 0040A0E3 		mov	r4, #0
  38              		.loc 1 131 1 view .LVU4
  39 0008 10D04DE2 		sub	sp, sp, #16
  40              		.cfi_def_cfa_offset 24
  41              		.loc 1 132 3 view .LVU5
  42 000c FEFFFFEB 		bl	halInit
  43              	.LVL0:
  44              		.loc 1 133 3 is_stmt 1 view .LVU6
  45 0010 FEFFFFEB 		bl	chSysInit
  46              	.LVL1:
  47              		.loc 1 135 3 view .LVU7
  48 0014 FF20A0E3 		mov	r2, #255
  49 0018 0214A0E3 		mov	r1, #33554432
  50 001c 48009FE5 		ldr	r0, .L4
  51 0020 FEFFFFEB 		bl	_pal_lld_setgroupmode
  52              	.LVL2:
  53              		.loc 1 137 3 view .LVU8
  54 0024 0410A0E1 		mov	r1, r4
  55 0028 40009FE5 		ldr	r0, .L4+4
  56 002c FEFFFFEB 		bl	sdStart
  57              	.LVL3:
ARM GAS  /tmp/ccB9oAha.s 			page 2


  58              		.loc 1 141 3 view .LVU9
  59              		.loc 1 142 3 view .LVU10
  60 0030 0C108DE2 		add	r1, sp, #12
  61 0034 38009FE5 		ldr	r0, .L4+8
  62 0038 FEFFFFEB 		bl	i2cStart
  63              	.LVL4:
  64              		.loc 1 148 3 view .LVU11
  65 003c 7F20A0E3 		mov	r2, #127
  66 0040 461FA0E3 		mov	r1, #280
  67 0044 2C309FE5 		ldr	r3, .L4+12
  68 0048 00408DE5 		str	r4, [sp]
  69 004c 28009FE5 		ldr	r0, .L4+16
  70 0050 FEFFFFEB 		bl	chThdCreateStatic
  71              	.LVL5:
  72              		.loc 1 151 3 view .LVU12
  73 0054 24309FE5 		ldr	r3, .L4+20
  74 0058 180093E5 		ldr	r0, [r3, #24]
  75 005c FEFFFFEB 		bl	chThdWait
  76              	.LVL6:
  77              		.loc 1 153 3 view .LVU13
  78              		.loc 1 154 1 is_stmt 0 view .LVU14
  79 0060 0400A0E1 		mov	r0, r4
  80 0064 10D08DE2 		add	sp, sp, #16
  81              		.cfi_def_cfa_offset 8
  82              		@ sp needed
  83 0068 1080BDE8 		pop	{r4, pc}
  84              	.L5:
  85              		.align	2
  86              	.L4:
  87 006c 00000000 		.word	IOPORT0
  88 0070 00000000 		.word	SD1
  89 0074 00000000 		.word	I2C0
  90 0078 00000000 		.word	Thread_I2C
  91 007c 00000000 		.word	.LANCHOR0
  92 0080 00000000 		.word	rlist
  93              		.cfi_endproc
  94              	.LFE8:
  95              		.size	main, .-main
  96              		.section	.text.clear_screen,"ax",%progbits
  97              		.align	2
  98              		.global	clear_screen
  99              		.syntax unified
 100              		.arm
 101              		.fpu softvfp
 102              		.type	clear_screen, %function
 103              	clear_screen:
 104              	.LFB9:
 105              		.loc 1 157 1 is_stmt 1 view -0
 106              		.cfi_startproc
 107              		@ args = 0, pretend = 0, frame = 0
 108              		@ frame_needed = 0, uses_anonymous_args = 0
 109              		.loc 1 158 3 view .LVU16
 110              		.loc 1 157 1 is_stmt 0 view .LVU17
 111 0000 10402DE9 		push	{r4, lr}
 112              		.cfi_def_cfa_offset 8
 113              		.cfi_offset 4, -8
 114              		.cfi_offset 14, -4
ARM GAS  /tmp/ccB9oAha.s 			page 3


 115              		.loc 1 158 3 view .LVU18
 116 0004 20409FE5 		ldr	r4, .L8
 117 0008 0020E0E3 		mvn	r2, #0
 118 000c 0400A0E1 		mov	r0, r4
 119 0010 7C10A0E3 		mov	r1, #124
 120 0014 FEFFFFEB 		bl	chOQPutTimeout
 121              	.LVL7:
 122              		.loc 1 159 3 is_stmt 1 view .LVU19
 123 0018 0400A0E1 		mov	r0, r4
 124              		.loc 1 160 1 is_stmt 0 view .LVU20
 125 001c 1040BDE8 		pop	{r4, lr}
 126              		.cfi_restore 14
 127              		.cfi_restore 4
 128              		.cfi_def_cfa_offset 0
 129              		.loc 1 159 3 view .LVU21
 130 0020 0020E0E3 		mvn	r2, #0
 131 0024 0010A0E3 		mov	r1, #0
 132 0028 FEFFFFEA 		b	chOQPutTimeout
 133              	.LVL8:
 134              	.L9:
 135              		.align	2
 136              	.L8:
 137 002c 30000000 		.word	SD1+48
 138              		.cfi_endproc
 139              	.LFE9:
 140              		.size	clear_screen, .-clear_screen
 141              		.section	.text.set_x,"ax",%progbits
 142              		.align	2
 143              		.global	set_x
 144              		.syntax unified
 145              		.arm
 146              		.fpu softvfp
 147              		.type	set_x, %function
 148              	set_x:
 149              	.LVL9:
 150              	.LFB10:
 151              		.loc 1 163 1 is_stmt 1 view -0
 152              		.cfi_startproc
 153              		@ args = 0, pretend = 0, frame = 0
 154              		@ frame_needed = 0, uses_anonymous_args = 0
 155              		.loc 1 164 3 view .LVU23
 156              		.loc 1 163 1 is_stmt 0 view .LVU24
 157 0000 70402DE9 		push	{r4, r5, r6, lr}
 158              		.cfi_def_cfa_offset 16
 159              		.cfi_offset 4, -16
 160              		.cfi_offset 5, -12
 161              		.cfi_offset 6, -8
 162              		.cfi_offset 14, -4
 163              		.loc 1 163 1 view .LVU25
 164 0004 0050A0E1 		mov	r5, r0
 165              		.loc 1 164 3 view .LVU26
 166 0008 38409FE5 		ldr	r4, .L12
 167 000c 0020E0E3 		mvn	r2, #0
 168 0010 0400A0E1 		mov	r0, r4
 169              	.LVL10:
 170              		.loc 1 164 3 view .LVU27
 171 0014 7C10A0E3 		mov	r1, #124
ARM GAS  /tmp/ccB9oAha.s 			page 4


 172 0018 FEFFFFEB 		bl	chOQPutTimeout
 173              	.LVL11:
 174              		.loc 1 165 3 is_stmt 1 view .LVU28
 175 001c 0400A0E1 		mov	r0, r4
 176 0020 0020E0E3 		mvn	r2, #0
 177 0024 1810A0E3 		mov	r1, #24
 178 0028 FEFFFFEB 		bl	chOQPutTimeout
 179              	.LVL12:
 180              		.loc 1 166 3 view .LVU29
 181 002c 0510A0E1 		mov	r1, r5
 182 0030 0400A0E1 		mov	r0, r4
 183 0034 0020E0E3 		mvn	r2, #0
 184 0038 FEFFFFEB 		bl	chOQPutTimeout
 185              	.LVL13:
 186              		.loc 1 167 3 view .LVU30
 187              		.loc 1 168 1 is_stmt 0 view .LVU31
 188 003c 7040BDE8 		pop	{r4, r5, r6, lr}
 189              		.cfi_restore 14
 190              		.cfi_restore 6
 191              		.cfi_restore 5
 192              		.cfi_restore 4
 193              		.cfi_def_cfa_offset 0
 194              		.loc 1 167 3 view .LVU32
 195 0040 0A00A0E3 		mov	r0, #10
 196 0044 FEFFFFEA 		b	chThdSleep
 197              	.LVL14:
 198              	.L13:
 199              		.align	2
 200              	.L12:
 201 0048 30000000 		.word	SD1+48
 202              		.cfi_endproc
 203              	.LFE10:
 204              		.size	set_x, .-set_x
 205              		.section	.text.set_y,"ax",%progbits
 206              		.align	2
 207              		.global	set_y
 208              		.syntax unified
 209              		.arm
 210              		.fpu softvfp
 211              		.type	set_y, %function
 212              	set_y:
 213              	.LVL15:
 214              	.LFB11:
 215              		.loc 1 171 1 is_stmt 1 view -0
 216              		.cfi_startproc
 217              		@ args = 0, pretend = 0, frame = 0
 218              		@ frame_needed = 0, uses_anonymous_args = 0
 219              		.loc 1 172 3 view .LVU34
 220              		.loc 1 171 1 is_stmt 0 view .LVU35
 221 0000 70402DE9 		push	{r4, r5, r6, lr}
 222              		.cfi_def_cfa_offset 16
 223              		.cfi_offset 4, -16
 224              		.cfi_offset 5, -12
 225              		.cfi_offset 6, -8
 226              		.cfi_offset 14, -4
 227              		.loc 1 171 1 view .LVU36
 228 0004 0050A0E1 		mov	r5, r0
ARM GAS  /tmp/ccB9oAha.s 			page 5


 229              		.loc 1 172 3 view .LVU37
 230 0008 38409FE5 		ldr	r4, .L16
 231 000c 0020E0E3 		mvn	r2, #0
 232 0010 0400A0E1 		mov	r0, r4
 233              	.LVL16:
 234              		.loc 1 172 3 view .LVU38
 235 0014 7C10A0E3 		mov	r1, #124
 236 0018 FEFFFFEB 		bl	chOQPutTimeout
 237              	.LVL17:
 238              		.loc 1 173 3 is_stmt 1 view .LVU39
 239 001c 0400A0E1 		mov	r0, r4
 240 0020 0020E0E3 		mvn	r2, #0
 241 0024 1910A0E3 		mov	r1, #25
 242 0028 FEFFFFEB 		bl	chOQPutTimeout
 243              	.LVL18:
 244              		.loc 1 174 3 view .LVU40
 245 002c 0510A0E1 		mov	r1, r5
 246 0030 0400A0E1 		mov	r0, r4
 247 0034 0020E0E3 		mvn	r2, #0
 248 0038 FEFFFFEB 		bl	chOQPutTimeout
 249              	.LVL19:
 250              		.loc 1 175 3 view .LVU41
 251              		.loc 1 176 1 is_stmt 0 view .LVU42
 252 003c 7040BDE8 		pop	{r4, r5, r6, lr}
 253              		.cfi_restore 14
 254              		.cfi_restore 6
 255              		.cfi_restore 5
 256              		.cfi_restore 4
 257              		.cfi_def_cfa_offset 0
 258              		.loc 1 175 3 view .LVU43
 259 0040 0A00A0E3 		mov	r0, #10
 260 0044 FEFFFFEA 		b	chThdSleep
 261              	.LVL20:
 262              	.L17:
 263              		.align	2
 264              	.L16:
 265 0048 30000000 		.word	SD1+48
 266              		.cfi_endproc
 267              	.LFE11:
 268              		.size	set_y, .-set_y
 269              		.section	.rodata.Thread_I2C.str1.4,"aMS",%progbits,1
 270              		.align	2
 271              	.LC0:
 272 0000 52656164 		.ascii	"Read all the information in I2C\000"
 272      20616C6C 
 272      20746865 
 272      20696E66 
 272      6F726D61 
 273              		.align	2
 274              	.LC1:
 275 0020 54696D65 		.ascii	"Timeout\000"
 275      6F757400 
 276              		.align	2
 277              	.LC2:
 278 0028 52656365 		.ascii	"Received %d\000"
 278      69766564 
 278      20256400 
ARM GAS  /tmp/ccB9oAha.s 			page 6


 279              		.align	2
 280              	.LC3:
 281 0034 52657365 		.ascii	"Reset: %d\000"
 281      743A2025 
 281      6400
 282 003e 0000     		.align	2
 283              	.LC4:
 284 0040 466C6167 		.ascii	"Flags: %d\000"
 284      733A2025 
 284      6400
 285 004a 0000     		.align	2
 286              	.LC5:
 287 004c 44656661 		.ascii	"Default, should not happen\000"
 287      756C742C 
 287      2073686F 
 287      756C6420 
 287      6E6F7420 
 288 0067 00       		.align	2
 289              	.LC6:
 290 0068 63686172 		.ascii	"char\000"
 290      00
 291              		.section	.text.Thread_I2C,"ax",%progbits
 292              		.align	2
 293              		.syntax unified
 294              		.arm
 295              		.fpu softvfp
 296              		.type	Thread_I2C, %function
 297              	Thread_I2C:
 298              	.LVL21:
 299              	.LFB7:
 300              		.loc 1 85 1 is_stmt 1 view -0
 301              		.cfi_startproc
 302              		@ args = 0, pretend = 0, frame = 8
 303              		@ frame_needed = 0, uses_anonymous_args = 0
 304              		.loc 1 86 3 view .LVU45
 305              		.loc 1 87 3 view .LVU46
 306              		.loc 1 85 1 is_stmt 0 view .LVU47
 307 0000 F0472DE9 		push	{r4, r5, r6, r7, r8, r9, r10, lr}
 308              		.cfi_def_cfa_offset 32
 309              		.cfi_offset 4, -32
 310              		.cfi_offset 5, -28
 311              		.cfi_offset 6, -24
 312              		.cfi_offset 7, -20
 313              		.cfi_offset 8, -16
 314              		.cfi_offset 9, -12
 315              		.cfi_offset 10, -8
 316              		.cfi_offset 14, -4
 317              		.loc 1 87 3 view .LVU48
 318 0004 3C319FE5 		ldr	r3, .L29
 319 0008 3CE19FE5 		ldr	lr, .L29+4
 320 000c 18C093E5 		ldr	ip, [r3, #24]
 321              		.loc 1 88 16 view .LVU49
 322 0010 38019FE5 		ldr	r0, .L29+8
 323              	.LVL22:
 324              		.loc 1 88 16 view .LVU50
 325 0014 38319FE5 		ldr	r3, .L29+12
 326              		.loc 1 89 19 view .LVU51
ARM GAS  /tmp/ccB9oAha.s 			page 7


 327 0018 38119FE5 		ldr	r1, .L29+16
 328              		.loc 1 90 19 view .LVU52
 329 001c 38219FE5 		ldr	r2, .L29+20
 330              		.loc 1 85 1 view .LVU53
 331 0020 18D04DE2 		sub	sp, sp, #24
 332              		.cfi_def_cfa_offset 56
 333              	.LBB10:
 334              		.loc 1 97 17 view .LVU54
 335 0024 34619FE5 		ldr	r6, .L29+24
 336              	.LBB11:
 337              		.loc 1 104 7 view .LVU55
 338 0028 34A19FE5 		ldr	r10, .L29+28
 339 002c 34519FE5 		ldr	r5, .L29+32
 340              		.loc 1 107 7 view .LVU56
 341 0030 34919FE5 		ldr	r9, .L29+36
 342              		.loc 1 116 7 view .LVU57
 343 0034 34819FE5 		ldr	r8, .L29+40
 344              	.LBE11:
 345              	.LBE10:
 346              		.loc 1 87 3 view .LVU58
 347 0038 18E08CE5 		str	lr, [ip, #24]
 348              		.loc 1 88 3 is_stmt 1 view .LVU59
 349              		.loc 1 88 16 is_stmt 0 view .LVU60
 350 003c 000083E5 		str	r0, [r3]	@ float
 351              		.loc 1 89 3 is_stmt 1 view .LVU61
 352              		.loc 1 89 19 is_stmt 0 view .LVU62
 353 0040 041083E5 		str	r1, [r3, #4]	@ float
 354              		.loc 1 90 3 is_stmt 1 view .LVU63
 355              		.loc 1 90 19 is_stmt 0 view .LVU64
 356 0044 082083E5 		str	r2, [r3, #8]	@ float
 357 0048 17708DE2 		add	r7, sp, #23
 358 004c 0F0000EA 		b	.L24
 359              	.LVL23:
 360              	.L28:
 361              	.LBB23:
 362              		.loc 1 101 5 view .LVU65
 363 0050 020074E3 		cmn	r4, #2
 364 0054 2B00000A 		beq	.L27
 365              	.LBB16:
 366              		.loc 1 116 7 view .LVU66
 367 0058 0810A0E1 		mov	r1, r8
 368 005c 0500A0E1 		mov	r0, r5
 369 0060 FEFFFFEB 		bl	chprintf
 370              	.LVL24:
 371              		.loc 1 117 7 is_stmt 1 view .LVU67
 372              	.L23:
 373              		.loc 1 117 7 is_stmt 0 view .LVU68
 374              	.LBE16:
 375              		.loc 1 119 5 is_stmt 1 view .LVU69
 376              	.LBB17:
 377              	.LBI17:
 378              		.loc 1 178 6 view .LVU70
 379              	.LBB18:
 380              		.loc 1 180 3 view .LVU71
 381 0064 0000A0E3 		mov	r0, #0
 382 0068 FEFFFFEB 		bl	set_x
 383              	.LVL25:
ARM GAS  /tmp/ccB9oAha.s 			page 8


 384              		.loc 1 181 3 view .LVU72
 385 006c 0700A0E3 		mov	r0, #7
 386 0070 FEFFFFEB 		bl	set_y
 387              	.LVL26:
 388              		.loc 1 181 3 is_stmt 0 view .LVU73
 389              	.LBE18:
 390              	.LBE17:
 391              		.loc 1 120 5 is_stmt 1 view .LVU74
 392 0074 0500A0E1 		mov	r0, r5
 393 0078 1720DDE5 		ldrb	r2, [sp, #23]	@ zero_extendqisi2
 394 007c F0109FE5 		ldr	r1, .L29+44
 395 0080 FEFFFFEB 		bl	chprintf
 396              	.LVL27:
 397              		.loc 1 121 5 view .LVU75
 398 0084 EC009FE5 		ldr	r0, .L29+48
 399 0088 FEFFFFEB 		bl	chThdSleep
 400              	.LVL28:
 401              		.loc 1 122 5 view .LVU76
 402 008c FEFFFFEB 		bl	clear_screen
 403              	.LVL29:
 404              	.LBE23:
 405              		.loc 1 92 9 view .LVU77
 406              	.L24:
 407              		.loc 1 91 3 view .LVU78
 408              		.loc 1 92 3 view .LVU79
 409              	.LBB24:
 410              		.loc 1 97 5 view .LVU80
 411              		.loc 1 97 17 is_stmt 0 view .LVU81
 412 0090 0030A0E3 		mov	r3, #0
 413 0094 0120A0E3 		mov	r2, #1
 414 0098 DC109FE5 		ldr	r1, .L29+52
 415 009c 04208DE5 		str	r2, [sp, #4]
 416 00a0 08108DE5 		str	r1, [sp, #8]
 417 00a4 0320A0E1 		mov	r2, r3
 418 00a8 3310A0E3 		mov	r1, #51
 419 00ac 0600A0E1 		mov	r0, r6
 420 00b0 00708DE5 		str	r7, [sp]
 421 00b4 FEFFFFEB 		bl	i2cMasterTransmitTimeout
 422              	.LVL30:
 423 00b8 0040A0E1 		mov	r4, r0
 424              	.LVL31:
 425              		.loc 1 99 5 is_stmt 1 view .LVU82
 426 00bc 320EA0E3 		mov	r0, #800
 427              	.LVL32:
 428              		.loc 1 99 5 is_stmt 0 view .LVU83
 429 00c0 FEFFFFEB 		bl	chThdSleep
 430              	.LVL33:
 431              		.loc 1 100 5 is_stmt 1 view .LVU84
 432              	.LBB19:
 433              	.LBI19:
 434              		.loc 1 178 6 view .LVU85
 435              	.LBB20:
 436              		.loc 1 180 3 view .LVU86
 437 00c4 0000A0E3 		mov	r0, #0
 438 00c8 FEFFFFEB 		bl	set_x
 439              	.LVL34:
 440              		.loc 1 181 3 view .LVU87
ARM GAS  /tmp/ccB9oAha.s 			page 9


 441 00cc 3D00A0E3 		mov	r0, #61
 442 00d0 FEFFFFEB 		bl	set_y
 443              	.LVL35:
 444              		.loc 1 181 3 is_stmt 0 view .LVU88
 445              	.LBE20:
 446              	.LBE19:
 447              		.loc 1 101 5 is_stmt 1 view .LVU89
 448 00d4 010074E3 		cmn	r4, #1
 449 00d8 0600000A 		beq	.L19
 450              	.LBB21:
 451              		.loc 1 116 7 view .LVU90
 452              	.LBE21:
 453              		.loc 1 101 5 is_stmt 0 view .LVU91
 454 00dc 000054E3 		cmp	r4, #0
 455 00e0 DAFFFF1A 		bne	.L28
 456              	.LBB22:
 457              		.loc 1 107 7 is_stmt 1 view .LVU92
 458 00e4 0910A0E1 		mov	r1, r9
 459 00e8 0500A0E1 		mov	r0, r5
 460 00ec 1720DDE5 		ldrb	r2, [sp, #23]	@ zero_extendqisi2
 461 00f0 FEFFFFEB 		bl	chprintf
 462              	.LVL36:
 463              		.loc 1 108 7 view .LVU93
 464 00f4 DAFFFFEA 		b	.L23
 465              	.L19:
 466              		.loc 1 104 7 view .LVU94
 467 00f8 0A10A0E1 		mov	r1, r10
 468 00fc 0500A0E1 		mov	r0, r5
 469 0100 FEFFFFEB 		bl	chprintf
 470              	.LVL37:
 471              		.loc 1 105 7 view .LVU95
 472 0104 D6FFFFEA 		b	.L23
 473              	.L27:
 474              		.loc 1 110 7 view .LVU96
 475 0108 0420A0E1 		mov	r2, r4
 476 010c 6C109FE5 		ldr	r1, .L29+56
 477 0110 0500A0E1 		mov	r0, r5
 478 0114 FEFFFFEB 		bl	chprintf
 479              	.LVL38:
 480              		.loc 1 111 7 view .LVU97
 481              		.loc 1 111 29 is_stmt 0 view .LVU98
 482 0118 0600A0E1 		mov	r0, r6
 483 011c FEFFFFEB 		bl	i2cGetErrors
 484              	.LVL39:
 485 0120 0040A0E1 		mov	r4, r0
 486              	.LVL40:
 487              	.LBB12:
 488              	.LBB13:
 489              		.loc 1 180 3 view .LVU99
 490 0124 0000A0E3 		mov	r0, #0
 491              	.LVL41:
 492              		.loc 1 180 3 view .LVU100
 493              	.LBE13:
 494              	.LBE12:
 495              		.loc 1 112 7 is_stmt 1 view .LVU101
 496              	.LBB15:
 497              	.LBI12:
ARM GAS  /tmp/ccB9oAha.s 			page 10


 498              		.loc 1 178 6 view .LVU102
 499              	.LBB14:
 500              		.loc 1 180 3 view .LVU103
 501 0128 FEFFFFEB 		bl	set_x
 502              	.LVL42:
 503              		.loc 1 181 3 view .LVU104
 504 012c 2D00A0E3 		mov	r0, #45
 505 0130 FEFFFFEB 		bl	set_y
 506              	.LVL43:
 507              		.loc 1 181 3 is_stmt 0 view .LVU105
 508              	.LBE14:
 509              	.LBE15:
 510              		.loc 1 113 7 is_stmt 1 view .LVU106
 511 0134 0420A0E1 		mov	r2, r4
 512 0138 0500A0E1 		mov	r0, r5
 513 013c 40109FE5 		ldr	r1, .L29+60
 514 0140 FEFFFFEB 		bl	chprintf
 515              	.LVL44:
 516              		.loc 1 114 7 view .LVU107
 517 0144 C6FFFFEA 		b	.L23
 518              	.L30:
 519              		.align	2
 520              	.L29:
 521 0148 00000000 		.word	rlist
 522 014c 00000000 		.word	.LC0
 523 0150 C3F5A83E 		.word	1051260355
 524 0154 00000000 		.word	dt1
 525 0158 B81E1540 		.word	1075125944
 526 015c CDCC0C3F 		.word	1057803469
 527 0160 00000000 		.word	I2C0
 528 0164 20000000 		.word	.LC1
 529 0168 00000000 		.word	SD1
 530 016c 28000000 		.word	.LC2
 531 0170 4C000000 		.word	.LC5
 532 0174 68000000 		.word	.LC6
 533 0178 10270000 		.word	10000
 534 017c 88130000 		.word	5000
 535 0180 34000000 		.word	.LC3
 536 0184 40000000 		.word	.LC4
 537              	.LBE22:
 538              	.LBE24:
 539              		.cfi_endproc
 540              	.LFE7:
 541              		.size	Thread_I2C, .-Thread_I2C
 542              		.section	.text.set_position,"ax",%progbits
 543              		.align	2
 544              		.global	set_position
 545              		.syntax unified
 546              		.arm
 547              		.fpu softvfp
 548              		.type	set_position, %function
 549              	set_position:
 550              	.LVL45:
 551              	.LFB12:
 552              		.loc 1 179 1 view -0
 553              		.cfi_startproc
 554              		@ args = 0, pretend = 0, frame = 0
ARM GAS  /tmp/ccB9oAha.s 			page 11


 555              		@ frame_needed = 0, uses_anonymous_args = 0
 556              		.loc 1 180 3 view .LVU109
 557              		.loc 1 179 1 is_stmt 0 view .LVU110
 558 0000 10402DE9 		push	{r4, lr}
 559              		.cfi_def_cfa_offset 8
 560              		.cfi_offset 4, -8
 561              		.cfi_offset 14, -4
 562              		.loc 1 179 1 view .LVU111
 563 0004 0140A0E1 		mov	r4, r1
 564              		.loc 1 180 3 view .LVU112
 565 0008 FEFFFFEB 		bl	set_x
 566              	.LVL46:
 567              		.loc 1 181 3 is_stmt 1 view .LVU113
 568 000c 0400A0E1 		mov	r0, r4
 569              		.loc 1 182 1 is_stmt 0 view .LVU114
 570 0010 1040BDE8 		pop	{r4, lr}
 571              		.cfi_restore 14
 572              		.cfi_restore 4
 573              		.cfi_def_cfa_offset 0
 574              		.loc 1 181 3 view .LVU115
 575 0014 FEFFFFEA 		b	set_y
 576              	.LVL47:
 577              		.cfi_endproc
 578              	.LFE12:
 579              		.size	set_position, .-set_position
 580              		.comm	dt2,12,4
 581              		.comm	dt1,12,4
 582              		.section	.bss.waThread_I2C,"aw",%nobits
 583              		.align	2
 584              		.set	.LANCHOR0,. + 0
 585              		.type	waThread_I2C, %object
 586              		.size	waThread_I2C, 280
 587              	waThread_I2C:
 588 0000 00000000 		.space	280
 588      00000000 
 588      00000000 
 588      00000000 
 588      00000000 
 589              		.text
 590              	.Letext0:
 591              		.file 2 "/usr/lib/gcc/arm-none-eabi/9.2.1/include/stddef.h"
 592              		.file 3 "/usr/lib/gcc/arm-none-eabi/9.2.1/include/stdint.h"
 593              		.file 4 "../../os/ports/GCC/ARM/chtypes.h"
 594              		.file 5 "../../os/kernel/include/chlists.h"
 595              		.file 6 "../../os/kernel/include/chthreads.h"
 596              		.file 7 "../../os/ports/GCC/ARM/chcore.h"
 597              		.file 8 "../../os/kernel/include/chvt.h"
 598              		.file 9 "../../os/kernel/include/chschd.h"
 599              		.file 10 "../../os/kernel/include/chmtx.h"
 600              		.file 11 "../../os/kernel/include/chevents.h"
 601              		.file 12 "../../os/kernel/include/chregistry.h"
 602              		.file 13 "../../os/kernel/include/chqueues.h"
 603              		.file 14 "../../os/kernel/include/chstreams.h"
 604              		.file 15 "../../os/kernel/include/ch.h"
 605              		.file 16 "../../os/hal/platforms/BCM2835/bcm2835.h"
 606              		.file 17 "../../os/hal/platforms/BCM2835/pal_lld.h"
 607              		.file 18 "../../os/hal/include/i2c.h"
ARM GAS  /tmp/ccB9oAha.s 			page 12


 608              		.file 19 "../../os/hal/platforms/BCM2835/i2c_lld.h"
 609              		.file 20 "../../os/hal/include/serial.h"
 610              		.file 21 "../../os/hal/include/spi.h"
 611              		.file 22 "../../os/hal/platforms/BCM2835/spi_lld.h"
 612              		.file 23 "../../os/hal/platforms/BCM2835/serial_lld.h"
 613              		.file 24 "../../os/hal/include/hal.h"
 614              		.file 25 "../../os/kernel/include/chsys.h"
 615              		.file 26 "../../os/various/chprintf.h"