
build/ch.elf:     file format elf32-littlearm
build/ch.elf
architecture: armv6kz, flags 0x00000112:
EXEC_P, HAS_SYMS, D_PAGED
start address 0x00008000

Program Header:
    LOAD off    0x00000000 vaddr 0x00000000 paddr 0x00000000 align 2**16
         filesz 0x0000c544 memsz 0x0000cd98 flags rwx
private flags = 0x5000200: [Version5 EABI] [soft-float ABI]

Sections:
Idx Name          Size      VMA       LMA       File off  Algn
  0 .text         00004544  00008000  00008000  00008000  2**4
                  CONTENTS, ALLOC, LOAD, READONLY, CODE
  1 .data         00000000  0000c544  0000c544  0000c544  2**0
                  CONTENTS, ALLOC, LOAD, DATA
  2 .bss          00000854  0000c544  0000c544  0000c544  2**2
                  ALLOC
  3 .ARM.attributes 0000002b  00000000  00000000  0000c544  2**0
                  CONTENTS, READONLY
  4 .comment      00000059  00000000  00000000  0000c56f  2**0
                  CONTENTS, READONLY
  5 .debug_info   00016638  00000000  00000000  0000c5c8  2**0
                  CONTENTS, READONLY, DEBUGGING, OCTETS
  6 .debug_abbrev 000040cc  00000000  00000000  00022c00  2**0
                  CONTENTS, READONLY, DEBUGGING, OCTETS
  7 .debug_loc    00005df8  00000000  00000000  00026ccc  2**0
                  CONTENTS, READONLY, DEBUGGING, OCTETS
  8 .debug_aranges 00000978  00000000  00000000  0002cac8  2**3
                  CONTENTS, READONLY, DEBUGGING, OCTETS
  9 .debug_ranges 00000fc8  00000000  00000000  0002d440  2**0
                  CONTENTS, READONLY, DEBUGGING, OCTETS
 10 .debug_line   00007abe  00000000  00000000  0002e408  2**0
                  CONTENTS, READONLY, DEBUGGING, OCTETS
 11 .debug_str    00001e1d  00000000  00000000  00035ec6  2**0
                  CONTENTS, READONLY, DEBUGGING, OCTETS
 12 .debug_frame  000015f8  00000000  00000000  00037ce4  2**2
                  CONTENTS, READONLY, DEBUGGING, OCTETS
SYMBOL TABLE:
00008000 l    d  .text	00000000 .text
0000c544 l    d  .data	00000000 .data
0000c544 l    d  .bss	00000000 .bss
00000000 l    d  .ARM.attributes	00000000 .ARM.attributes
00000000 l    d  .comment	00000000 .comment
00000000 l    d  .debug_info	00000000 .debug_info
00000000 l    d  .debug_abbrev	00000000 .debug_abbrev
00000000 l    d  .debug_loc	00000000 .debug_loc
00000000 l    d  .debug_aranges	00000000 .debug_aranges
00000000 l    d  .debug_ranges	00000000 .debug_ranges
00000000 l    d  .debug_line	00000000 .debug_line
00000000 l    d  .debug_str	00000000 .debug_str
00000000 l    d  .debug_frame	00000000 .debug_frame
00000000 l    df *ABS*	00000000 vectors.o
00008000 l       .text	00000000 _start
00008020 l       .text	00000000 _reset
00008024 l       .text	00000000 _undefined
00008028 l       .text	00000000 _swi
0000802c l       .text	00000000 _prefetch
00008030 l       .text	00000000 _abort
00008038 l       .text	00000000 _irq
0000803c l       .text	00000000 _fiq
00000000 l    df *ABS*	00000000 crt0.o
00000010 l       *ABS*	00000000 MODE_USR
00000011 l       *ABS*	00000000 MODE_FIQ
00000012 l       *ABS*	00000000 MODE_IRQ
00000013 l       *ABS*	00000000 MODE_SVC
00000017 l       *ABS*	00000000 MODE_ABT
0000001b l       *ABS*	00000000 MODE_UND
0000001f l       *ABS*	00000000 MODE_SYS
00000080 l       *ABS*	00000000 I_BIT
00000040 l       *ABS*	00000000 F_BIT
000080ac l       .text	00000000 bssloop
000080c0 l       .text	00000000 .loop
000080c4 l       .text	00000000 hwinit0
00000000 l    df *ABS*	00000000 chcoreasm.o
00000010 l       *ABS*	00000000 MODE_USR
00000011 l       *ABS*	00000000 MODE_FIQ
00000012 l       *ABS*	00000000 MODE_IRQ
00000013 l       *ABS*	00000000 MODE_SVC
00000017 l       *ABS*	00000000 MODE_ABT
0000001b l       *ABS*	00000000 MODE_UND
0000001f l       *ABS*	00000000 MODE_SYS
00000080 l       *ABS*	00000000 I_BIT
00000040 l       *ABS*	00000000 F_BIT
00000000 l    df *ABS*	00000000 _arm_muldf3.o
00000000 l    df *ABS*	00000000 _udivsi3.o
00008450 l       .text	00000000 .udivsi3_skip_div0_test
00000000 l    df *ABS*	00000000 _dvmd_tls.o
00000000 l    df *ABS*	00000000 _arm_addsubdf3.o
00000000 l    df *ABS*	00000000 _arm_fixdfsi.o
00000000 l    df *ABS*	00000000 _arm_truncdfsf2.o
00000000 l    df *ABS*	00000000 _arm_addsubsf3.o
00000000 l    df *ABS*	00000000 _arm_muldivsf3.o
00000000 l    df *ABS*	00000000 _arm_cmpsf2.o
00000000 l    df *ABS*	00000000 _arm_fixsfsi.o
00000000 l    df *ABS*	00000000 chsys.c
0000c544 l     O .bss	00000044 mainthread.4744
00000000 l    df *ABS*	00000000 chvt.c
00000000 l    df *ABS*	00000000 chschd.c
000093e0 l     F .text	000000b0 wakeup
00000000 l    df *ABS*	00000000 chthreads.c
00000000 l    df *ABS*	00000000 chdynamic.c
00000000 l    df *ABS*	00000000 chmtx.c
00000000 l    df *ABS*	00000000 chevents.c
00000000 l    df *ABS*	00000000 chqueues.c
00009d20 l     F .text	0000003c qwait
00000000 l    df *ABS*	00000000 chmemcore.c
0000c588 l     O .bss	00000004 endmem
0000c58c l     O .bss	00000004 nextmem
00000000 l    df *ABS*	00000000 chheap.c
0000c590 l     O .bss	0000001c default_heap
00000000 l    df *ABS*	00000000 hal.c
00000000 l    df *ABS*	00000000 i2c.c
00000000 l    df *ABS*	00000000 serial.c
0000a400 l     F .text	00000008 readt
0000a410 l     F .text	0000000c read
0000a420 l     F .text	00000008 writet
0000a430 l     F .text	0000000c write
0000a440 l     F .text	00000008 gett
0000a450 l     F .text	0000000c get
0000a460 l     F .text	00000008 putt
0000a470 l     F .text	0000000c put
0000c410 l     O .text	00000020 vmt
00000000 l    df *ABS*	00000000 spi.c
00000000 l    df *ABS*	00000000 tm.c
0000a5d0 l     F .text	00000014 tm_start
0000a5f0 l     F .text	0000004c tm_stop
0000c5ac l     O .bss	00000004 measurement_offset
00000000 l    df *ABS*	00000000 hal_lld.c
00000000 l    df *ABS*	00000000 pal_lld.c
0000a740 l     F .text	00000040 set_gpio_in.isra.0
00000000 l    df *ABS*	00000000 serial_lld.c
0000a820 l     F .text	00000018 output_notify
0000c430 l     O .text	00000004 default_config
00000000 l    df *ABS*	00000000 i2c_lld.c
0000a9e0 l     F .text	00000070 i2c_lld_safety_timeout
00000000 l    df *ABS*	00000000 spi_lld.c
00000000 l    df *ABS*	00000000 bcm2835.c
00000000 l    df *ABS*	00000000 board.c
00000000 l    df *ABS*	00000000 chprintf.c
00000000 l    df *ABS*	00000000 main.c
0000bd30 l     F .text	00000054 Thread_I2C
0000c3a0 l     F .text	00000034 Thread_LED1
0000bfc0 l     F .text	00000270 Thread_LCD
0000c5b0 l     O .bss	00000198 waThread_I2C
0000c748 l     O .bss	00000118 waThread_LCD
0000c860 l     O .bss	00000118 waThread_LED1
0000c530 l     O .text	00000014 CSWTCH.26
00000000 l    df *ABS*	00000000 chregistry.c
0000c440 g     O .text	00000000 pal_default_config
00009280 g     F .text	00000090 chSysTimerHandlerI
00009980 g     F .text	00000008 chThdExit
00009ce0 g     F .text	00000040 chEvtBroadcastFlagsI
00009550 g     F .text	00000074 chSchGoSleepTimeoutS
0000a310 g     F .text	00000004 i2cInit
0000c230 g     F .text	000000b4 add_data
00009a50 g     F .text	0000017c chMtxLockS
00008944 g     F .text	00000060 .hidden __floatdidf
0000a220 g     F .text	000000b8 chHeapFree
0000cb8c g     O .bss	00000004 msgDt1
00008ef8 g     F .text	00000160 .hidden __divsf3
0000ae70 g     F .text	00000174 spi_lld_serve_interrupt
0000bc50 g     F .text	00000064 receiveSilentDt2
000081b0 g       .text	00000000 get_cpsr
0000cb90 g     O .bss	0000000c dt2
0000c544 g       .text	00000000 __exidx_end
00009180 g     F .text	0000005c .hidden __fixsfsi
00009500 g     F .text	00000044 chSchGoSleepS
00008180  w      .text	00000000 UndHandler
0000a390 g     F .text	00000008 i2cGetErrors
0000cd98 g       *ABS*	00000000 __heap_base__
0000cae4 g     O .bss	00000040 I2C1
0000cb24 g     O .bss	00000040 I2C0
0000c544 g       .text	00000000 _etext
0000ca40 g     O .bss	00000018 IOPORT1
0000ac20 g     F .text	00000034 i2c_lld_stop
0000049c g       *ABS*	00000000 __stacks_total_size__
00008abc g     F .text	000001bc .hidden __aeabi_fadd
00008ab8 g     F .text	000001c0 .hidden __subsf3
000095d0 g     F .text	000000a0 chSchWakeupS
0000a510 g     F .text	0000004c sdIncomingDataI
0000a030 g     F .text	0000007c chOQGetI
00009490 g     F .text	00000024 _scheduler_init
00009840 g     F .text	000000a8 chThdCreateStatic
0000915c g     F .text	00000018 .hidden __aeabi_fcmpgt
000088c0 g     F .text	00000028 .hidden __floatsidf
0000cb9c g     O .bss	00000004 num_dtp
000094c0 g     F .text	00000040 chSchReadyI
0000a340 g     F .text	00000024 i2cStart
00009310 g     F .text	00000024 _vt_init
00008450 g     F .text	000000f4 .hidden __udivsi3
0000a1f0 g     F .text	00000028 _heap_init
00008c80 g     F .text	00000020 .hidden __aeabi_i2f
0000a2e0 g     F .text	0000002c halInit
00009068 g     F .text	0000006c .hidden __lesf2
0000b890 g     F .text	000001e0 get_min_value
0000c544 g       .bss	00000000 _bss_start
000096c0 g     F .text	00000078 chSchDoRescheduleBehind
06007b44 g       *ABS*	00000000 __heap_end__
0000889c g     F .text	00000024 .hidden __aeabi_ui2d
0000cba0 g     O .bss	00000004 length
0000ca58 g     O .bss	00000018 IOPORT0
00008580 g     F .text	00000000 .hidden __aeabi_drsub
00000004 g       *ABS*	00000000 __abt_stack_size__
00008040 g       .text	00000000 ResetHandler
00009eb0 g     F .text	000000a8 chIQReadTimeout
0000b860 g     F .text	00000030 display_float
0000a6f0 g     F .text	00000050 hal_lld_init
000088e8 g     F .text	00000048 .hidden __extendsfdf2
0000858c g     F .text	00000310 .hidden __adddf3
00009070 g     F .text	00000064 .hidden __nesf2
0000aff0 g     F .text	0000000c spi_lld_init
0000c544 g       .text	00000000 __exidx_start
000081c0  w    F .text	00000290 .hidden __aeabi_dmul
0000b000 g     F .text	0000004c bcm2835_gpio_fnsel
00009910 g     F .text	00000064 chThdExitS
0000889c g     F .text	00000024 .hidden __floatunsidf
0000cb64 g     O .bss	00000028 SPI0
0000a370 g     F .text	00000020 i2cStop
00008a10 g     F .text	000000a0 .hidden __aeabi_d2f
00009340 g     F .text	00000060 chVTSetI
0000cd98 g       .bss	00000000 _bss_end
00008ab8 g     F .text	000001c0 .hidden __aeabi_fsub
00009144 g     F .text	00000018 .hidden __aeabi_fcmpge
000089b0 g     F .text	0000005c .hidden __fixdfsi
0000a8f0 g     F .text	00000018 sd_lld_init
00008cb0 g     F .text	000000ac .hidden __floatdisf
00009060 g     F .text	00000074 .hidden __gtsf2
0000858c g     F .text	00000310 .hidden __aeabi_dadd
0000ac60 g     F .text	000000cc i2c_lld_master_receive_timeout
0000bcc0 g     F .text	00000068 receiveSilentDt1
00009bd0 g     F .text	00000014 chMtxLock
0000912c g     F .text	00000018 .hidden __aeabi_fcmple
00008930 g     F .text	00000074 .hidden __aeabi_ul2d
000097b0 g     F .text	00000020 chSchDoReschedule
00009200 g     F .text	00000078 chSysInit
000098f0 g     F .text	0000001c chThdSleep
00009d60 g     F .text	00000038 chIQInit
0000ba70 g     F .text	000001e0 get_max_value
0000a560 g     F .text	00000034 sdRequestDataI
0000c2f0 g     F .text	000000a8 printDataDt1
0000a5b0 g     F .text	0000001c spiObjectInit
0000a780 g     F .text	00000098 _pal_lld_init
0000a480 g     F .text	00000004 sdInit
00008588 g     F .text	00000314 .hidden __aeabi_dsub
0000a160 g     F .text	00000034 _core_init
00008930 g     F .text	00000074 .hidden __floatundidf
0000a4f0 g     F .text	00000020 sdStart
00000080 g       *ABS*	00000000 __irq_stack_size__
00008c80 g     F .text	00000020 .hidden __floatsisf
000080f0 g       .text	00000000 _port_switch_arm
00000400 g       *ABS*	00000000 __sys_stack_size__
05ffffe0 g       *ABS*	00000000 __ram_size__
00009180 g     F .text	0000005c .hidden __aeabi_f2iz
00009070 g     F .text	00000064 .hidden __eqsf2
000081a0 g       .text	00000000 arm_enable_irq
0000ca14 g     O .bss	00000010 vtlist
0000a1a0 g     F .text	00000044 chCoreAlloc
00008ef8 g     F .text	00000160 .hidden __aeabi_fdiv
000088c0 g     F .text	00000028 .hidden __aeabi_i2d
0000cba4 g     O .bss	000001e0 data_units
00008ca0 g     F .text	000000bc .hidden __floatundisf
0000aa50 g     F .text	00000140 i2c_lld_serve_interrupt
00008570  w    F .text	00000004 .hidden __aeabi_ldiv0
00008c78 g     F .text	00000028 .hidden __aeabi_ui2f
000081c0  w    F .text	00000290 .hidden __muldf3
0000c544 g       *ABS*	00000000 _textdata
00008000 g       .text	00000000 _text
00008180  w      .text	00000000 PrefetchHandler
00009070 g     F .text	00000064 .hidden __cmpsf2
0000cd84 g     O .bss	00000004 data
0000bd90 g     F .text	000000bc main
00008cb0 g     F .text	000000ac .hidden __aeabi_l2f
0000ca24 g     O .bss	0000001c rlist
00009068 g     F .text	0000006c .hidden __ltsf2
0000a5a0 g     F .text	00000004 spiInit
00008450 g     F .text	00000000 .hidden __aeabi_uidiv
0000ad30 g     F .text	0000013c i2c_lld_master_transmit_timeout
00008a10 g     F .text	000000a0 .hidden __truncdfsf2
00008944 g     F .text	00000060 .hidden __aeabi_l2d
0000be50 g     F .text	0000004c set_x
0000cd88 g     O .bss	00000004 msgDt2
00009a30 g     F .text	00000014 chMtxInit
00008ca0 g     F .text	000000bc .hidden __aeabi_ul2f
000091e0 g     F .text	00000020 _idle_thread
0000a0b0 g     F .text	000000b0 chOQWriteTimeout
000090e4 g     F .text	00000018 .hidden __aeabi_cfcmple
0000c3f0 g     O .text	00000016 ch_debug
00008d60 g     F .text	00000198 .hidden __mulsf3
0000b0a0 g     F .text	000007b8 chprintf
00009c90 g     F .text	00000050 chEvtSignalI
00008000 g       .text	00000000 __ram_start__
00008160 g       .text	00000000 _port_thread_start
0000b050 g     F .text	0000003c bcm2835_delay
00009740 g     F .text	00000070 chSchDoRescheduleAhead
0000bef0 g     F .text	00000098 drawLine
0000a3a0 g     F .text	0000005c i2cMasterTransmitTimeout
0000ab90 g     F .text	00000018 i2c_lld_init
00009060 g     F .text	00000074 .hidden __gesf2
00008ab0 g     F .text	000001c8 .hidden __aeabi_frsub
000090fc g     F .text	00000018 .hidden __aeabi_fcmpeq
0000a320 g     F .text	00000018 i2cObjectInit
00008d60 g     F .text	00000198 .hidden __aeabi_fmul
000099e0 g     F .text	00000050 chThdRelease
000090d4 g     F .text	00000028 .hidden __aeabi_cfrcmple
0000c978 g     O .bss	0000009c _idle_thread_wa
00009f60 g     F .text	00000034 chOQInit
00009e30 g     F .text	00000074 chIQGetTimeout
0000c544 g       .data	00000000 _data
00008100 g       .text	00000000 _port_irq_common
00008180  w      .text	00000000 AbortHandler
00009da0 g     F .text	0000008c chIQPutI
0000a640 g     F .text	00000064 tmInit
00009114 g     F .text	00000018 .hidden __aeabi_fcmplt
00009bf0 g     F .text	0000009c chMtxUnlock
00008544 g     F .text	00000020 .hidden __aeabi_uidivmod
0000c544 g       .data	00000000 _edata
06007fe0 g       *ABS*	00000000 __ram_end__
0000cd98 g       .bss	00000000 _end
0000abb0 g     F .text	00000068 i2c_lld_start
000093a0 g     F .text	0000003c chVTResetI
00008180 g       .text	00000000 _unhandled_exception
0000a490 g     F .text	00000060 sdObjectInit
06007b44 g       *ABS*	00000000 __main_thread_stack_base__
0000a840 g     F .text	000000a8 sd_lld_serve_interrupt
00008c78 g     F .text	00000028 .hidden __floatunsisf
0000a6b0 g     F .text	00000040 IrqHandler
000089b0 g     F .text	0000005c .hidden __aeabi_d2iz
000090e4 g     F .text	00000018 .hidden __aeabi_cfcmpeq
00008180  w      .text	00000000 SwiHandler
00008570  w    F .text	00000004 .hidden __aeabi_idiv0
00009990 g     F .text	00000050 chThdWait
00009670 g     F .text	00000044 chSchIsPreemptionRequired
0000ca70 g     O .bss	00000074 SD1
00000010 g       *ABS*	00000000 __fiq_stack_size__
000097d0 g     F .text	0000006c _thread_init
00000004 g       *ABS*	00000000 __svc_stack_size__
00000004 g       *ABS*	00000000 __und_stack_size__
00009fa0 g     F .text	0000008c chOQPutTimeout
0000bea0 g     F .text	0000004c set_y
000088e8 g     F .text	00000048 .hidden __aeabi_f2d
0000b090 g     F .text	00000004 boardInit
0000a910 g     F .text	000000c4 sd_lld_start
000080c0  w      .text	00000000 _main_exit_handler
0000bf90 g     F .text	00000030 clear_screen
00008588 g     F .text	00000314 .hidden __subdf3
0000cd8c g     O .bss	0000000c dt1
00008184 g       .text	00000000 __early_init
00008abc g     F .text	000001bc .hidden __addsf3
00008180  w      .text	00000000 FiqHandler



Disassembly of section .text:

00008000 <__ram_start__>:
    8000:	e59ff018 	ldr	pc, [pc, #24]	; 8020 <_reset>
    8004:	e59ff018 	ldr	pc, [pc, #24]	; 8024 <_undefined>
    8008:	e59ff018 	ldr	pc, [pc, #24]	; 8028 <_swi>
    800c:	e59ff018 	ldr	pc, [pc, #24]	; 802c <_prefetch>
    8010:	e59ff018 	ldr	pc, [pc, #24]	; 8030 <_abort>
    8014:	e320f000 	nop	{0}
    8018:	e59ff018 	ldr	pc, [pc, #24]	; 8038 <_irq>
    801c:	e59ff018 	ldr	pc, [pc, #24]	; 803c <_fiq>

00008020 <_reset>:
    8020:	00008040 	andeq	r8, r0, r0, asr #32

00008024 <_undefined>:
    8024:	00008180 	andeq	r8, r0, r0, lsl #3

00008028 <_swi>:
    8028:	00008180 	andeq	r8, r0, r0, lsl #3

0000802c <_prefetch>:
    802c:	00008180 	andeq	r8, r0, r0, lsl #3

00008030 <_abort>:
    8030:	00008180 	andeq	r8, r0, r0, lsl #3
    8034:	00000000 	andeq	r0, r0, r0

00008038 <_irq>:
    8038:	0000a6b0 			; <UNDEFINED> instruction: 0x0000a6b0

0000803c <_fiq>:
    803c:	00008180 	andeq	r8, r0, r0, lsl #3

00008040 <ResetHandler>:
    8040:	e59f0080 	ldr	r0, [pc, #128]	; 80c8 <hwinit0+0x4>
    8044:	e321f0db 	msr	CPSR_c, #219	; 0xdb
    8048:	e1a0d000 	mov	sp, r0
    804c:	e59f1078 	ldr	r1, [pc, #120]	; 80cc <hwinit0+0x8>
    8050:	e0400001 	sub	r0, r0, r1
    8054:	e321f0d7 	msr	CPSR_c, #215	; 0xd7
    8058:	e1a0d000 	mov	sp, r0
    805c:	e59f106c 	ldr	r1, [pc, #108]	; 80d0 <hwinit0+0xc>
    8060:	e0400001 	sub	r0, r0, r1
    8064:	e321f0d1 	msr	CPSR_c, #209	; 0xd1
    8068:	e1a0d000 	mov	sp, r0
    806c:	e59f1060 	ldr	r1, [pc, #96]	; 80d4 <hwinit0+0x10>
    8070:	e0400001 	sub	r0, r0, r1
    8074:	e321f0d2 	msr	CPSR_c, #210	; 0xd2
    8078:	e1a0d000 	mov	sp, r0
    807c:	e59f1054 	ldr	r1, [pc, #84]	; 80d8 <hwinit0+0x14>
    8080:	e0400001 	sub	r0, r0, r1
    8084:	e321f0d3 	msr	CPSR_c, #211	; 0xd3
    8088:	e1a0d000 	mov	sp, r0
    808c:	e59f1048 	ldr	r1, [pc, #72]	; 80dc <hwinit0+0x18>
    8090:	e0400001 	sub	r0, r0, r1
    8094:	e321f0df 	msr	CPSR_c, #223	; 0xdf
    8098:	e1a0d000 	mov	sp, r0
    809c:	eb000038 	bl	8184 <__early_init>
    80a0:	e3a00000 	mov	r0, #0
    80a4:	e59f1034 	ldr	r1, [pc, #52]	; 80e0 <hwinit0+0x1c>
    80a8:	e59f2034 	ldr	r2, [pc, #52]	; 80e4 <hwinit0+0x20>

000080ac <bssloop>:
    80ac:	e1510002 	cmp	r1, r2
    80b0:	34810004 	strcc	r0, [r1], #4
    80b4:	3afffffc 	bcc	80ac <bssloop>
    80b8:	eb000f34 	bl	bd90 <main>
    80bc:	eaffffff 	b	80c0 <_main_exit_handler>

000080c0 <_main_exit_handler>:
    80c0:	eafffffe 	b	80c0 <_main_exit_handler>

000080c4 <hwinit0>:
    80c4:	e12fff1e 	bx	lr
    80c8:	06007fe0 	streq	r7, [r0], -r0, ror #31
    80cc:	00000004 	andeq	r0, r0, r4
    80d0:	00000004 	andeq	r0, r0, r4
    80d4:	00000010 	andeq	r0, r0, r0, lsl r0
    80d8:	00000080 	andeq	r0, r0, r0, lsl #1
    80dc:	00000004 	andeq	r0, r0, r4
    80e0:	0000c544 	andeq	ip, r0, r4, asr #10
    80e4:	0000cd98 	muleq	r0, r8, sp
	...

000080f0 <_port_switch_arm>:
    80f0:	e92d4ff0 	push	{r4, r5, r6, r7, r8, r9, sl, fp, lr}
    80f4:	e581d00c 	str	sp, [r1, #12]
    80f8:	e590d00c 	ldr	sp, [r0, #12]
    80fc:	e8bd8ff0 	pop	{r4, r5, r6, r7, r8, r9, sl, fp, pc}

00008100 <_port_irq_common>:
    8100:	eb00055a 	bl	9670 <chSchIsPreemptionRequired>
    8104:	e3500000 	cmp	r0, #0
    8108:	08bd500f 	popeq	{r0, r1, r2, r3, ip, lr}
    810c:	025ef004 	subseq	pc, lr, #4
    8110:	e8bd500f 	pop	{r0, r1, r2, r3, ip, lr}
    8114:	e321f09f 	msr	CPSR_c, #159	; 0x9f
    8118:	e92d500f 	push	{r0, r1, r2, r3, ip, lr}
    811c:	e321f092 	msr	CPSR_c, #146	; 0x92
    8120:	e14f0000 	mrs	r0, SPSR
    8124:	e1a0100e 	mov	r1, lr
    8128:	e321f09f 	msr	CPSR_c, #159	; 0x9f
    812c:	e92d0003 	push	{r0, r1}
    8130:	eb00059e 	bl	97b0 <chSchDoReschedule>
    8134:	e8bd0003 	pop	{r0, r1}
    8138:	e321f092 	msr	CPSR_c, #146	; 0x92
    813c:	e16ff000 	msr	SPSR_fsxc, r0
    8140:	e1a0e001 	mov	lr, r1
    8144:	e321f09f 	msr	CPSR_c, #159	; 0x9f
    8148:	e8bd500f 	pop	{r0, r1, r2, r3, ip, lr}
    814c:	e321f092 	msr	CPSR_c, #146	; 0x92
    8150:	e25ef004 	subs	pc, lr, #4
    8154:	e320f000 	nop	{0}
    8158:	e320f000 	nop	{0}
    815c:	e320f000 	nop	{0}

00008160 <_port_thread_start>:
    8160:	e321f01f 	msr	CPSR_c, #31
    8164:	e1a00005 	mov	r0, r5
    8168:	e1a0e00f 	mov	lr, pc
    816c:	e12fff14 	bx	r4
    8170:	eb000602 	bl	9980 <chThdExit>
	...

00008180 <_unhandled_exception>:
    8180:	eafffffe 	b	8180 <_unhandled_exception>

00008184 <__early_init>:
    8184:	e3a00902 	mov	r0, #32768	; 0x8000
    8188:	e3a01000 	mov	r1, #0
    818c:	e8b003fc 	ldm	r0!, {r2, r3, r4, r5, r6, r7, r8, r9}
    8190:	e8a103fc 	stmia	r1!, {r2, r3, r4, r5, r6, r7, r8, r9}
    8194:	e8b003fc 	ldm	r0!, {r2, r3, r4, r5, r6, r7, r8, r9}
    8198:	e8a103fc 	stmia	r1!, {r2, r3, r4, r5, r6, r7, r8, r9}
    819c:	e12fff1e 	bx	lr

000081a0 <arm_enable_irq>:
    81a0:	e10f0000 	mrs	r0, CPSR
    81a4:	e3c00080 	bic	r0, r0, #128	; 0x80
    81a8:	e121f000 	msr	CPSR_c, r0
    81ac:	e12fff1e 	bx	lr

000081b0 <get_cpsr>:
    81b0:	e10f0000 	mrs	r0, CPSR
    81b4:	e12fff1e 	bx	lr
	...

000081c0 <__aeabi_dmul>:
    81c0:	e92d4070 	push	{r4, r5, r6, lr}
    81c4:	e3a0c0ff 	mov	ip, #255	; 0xff
    81c8:	e38ccc07 	orr	ip, ip, #1792	; 0x700
    81cc:	e01c4a21 	ands	r4, ip, r1, lsr #20
    81d0:	101c5a23 	andsne	r5, ip, r3, lsr #20
    81d4:	1134000c 	teqne	r4, ip
    81d8:	1135000c 	teqne	r5, ip
    81dc:	0b000075 	bleq	83b8 <__aeabi_dmul+0x1f8>
    81e0:	e0844005 	add	r4, r4, r5
    81e4:	e0216003 	eor	r6, r1, r3
    81e8:	e1c11a8c 	bic	r1, r1, ip, lsl #21
    81ec:	e1c33a8c 	bic	r3, r3, ip, lsl #21
    81f0:	e1905601 	orrs	r5, r0, r1, lsl #12
    81f4:	11925603 	orrsne	r5, r2, r3, lsl #12
    81f8:	e3811601 	orr	r1, r1, #1048576	; 0x100000
    81fc:	e3833601 	orr	r3, r3, #1048576	; 0x100000
    8200:	0a00001d 	beq	827c <__aeabi_dmul+0xbc>
    8204:	e08ec290 	umull	ip, lr, r0, r2
    8208:	e3a05000 	mov	r5, #0
    820c:	e0a5e291 	umlal	lr, r5, r1, r2
    8210:	e2062102 	and	r2, r6, #-2147483648	; 0x80000000
    8214:	e0a5e390 	umlal	lr, r5, r0, r3
    8218:	e3a06000 	mov	r6, #0
    821c:	e0a65391 	umlal	r5, r6, r1, r3
    8220:	e33c0000 	teq	ip, #0
    8224:	138ee001 	orrne	lr, lr, #1
    8228:	e24440ff 	sub	r4, r4, #255	; 0xff
    822c:	e3560c02 	cmp	r6, #512	; 0x200
    8230:	e2c44c03 	sbc	r4, r4, #768	; 0x300
    8234:	2a000002 	bcs	8244 <__aeabi_dmul+0x84>
    8238:	e1b0e08e 	lsls	lr, lr, #1
    823c:	e0b55005 	adcs	r5, r5, r5
    8240:	e0a66006 	adc	r6, r6, r6
    8244:	e1821586 	orr	r1, r2, r6, lsl #11
    8248:	e1811aa5 	orr	r1, r1, r5, lsr #21
    824c:	e1a00585 	lsl	r0, r5, #11
    8250:	e1800aae 	orr	r0, r0, lr, lsr #21
    8254:	e1a0e58e 	lsl	lr, lr, #11
    8258:	e254c0fd 	subs	ip, r4, #253	; 0xfd
    825c:	835c0c07 	cmphi	ip, #1792	; 0x700
    8260:	8a000011 	bhi	82ac <__aeabi_dmul+0xec>
    8264:	e35e0102 	cmp	lr, #-2147483648	; 0x80000000
    8268:	01b0e0a0 	lsrseq	lr, r0, #1
    826c:	e2b00000 	adcs	r0, r0, #0
    8270:	e0a11a04 	adc	r1, r1, r4, lsl #20
    8274:	e8bd4070 	pop	{r4, r5, r6, lr}
    8278:	e12fff1e 	bx	lr
    827c:	e2066102 	and	r6, r6, #-2147483648	; 0x80000000
    8280:	e1861001 	orr	r1, r6, r1
    8284:	e1800002 	orr	r0, r0, r2
    8288:	e0211003 	eor	r1, r1, r3
    828c:	e05440ac 	subs	r4, r4, ip, lsr #1
    8290:	c074500c 	rsbsgt	r5, r4, ip
    8294:	c1811a04 	orrgt	r1, r1, r4, lsl #20
    8298:	c8bd4070 	popgt	{r4, r5, r6, lr}
    829c:	c12fff1e 	bxgt	lr
    82a0:	e3811601 	orr	r1, r1, #1048576	; 0x100000
    82a4:	e3a0e000 	mov	lr, #0
    82a8:	e2544001 	subs	r4, r4, #1
    82ac:	ca00005d 	bgt	8428 <__aeabi_dmul+0x268>
    82b0:	e3740036 	cmn	r4, #54	; 0x36
    82b4:	d3a00000 	movle	r0, #0
    82b8:	d2011102 	andle	r1, r1, #-2147483648	; 0x80000000
    82bc:	d8bd4070 	pople	{r4, r5, r6, lr}
    82c0:	d12fff1e 	bxle	lr
    82c4:	e2644000 	rsb	r4, r4, #0
    82c8:	e2544020 	subs	r4, r4, #32
    82cc:	aa00001a 	bge	833c <__aeabi_dmul+0x17c>
    82d0:	e294400c 	adds	r4, r4, #12
    82d4:	ca00000c 	bgt	830c <__aeabi_dmul+0x14c>
    82d8:	e2844014 	add	r4, r4, #20
    82dc:	e2645020 	rsb	r5, r4, #32
    82e0:	e1a03510 	lsl	r3, r0, r5
    82e4:	e1a00430 	lsr	r0, r0, r4
    82e8:	e1800511 	orr	r0, r0, r1, lsl r5
    82ec:	e2012102 	and	r2, r1, #-2147483648	; 0x80000000
    82f0:	e3c11102 	bic	r1, r1, #-2147483648	; 0x80000000
    82f4:	e0900fa3 	adds	r0, r0, r3, lsr #31
    82f8:	e0a21431 	adc	r1, r2, r1, lsr r4
    82fc:	e19ee083 	orrs	lr, lr, r3, lsl #1
    8300:	01c00fa3 	biceq	r0, r0, r3, lsr #31
    8304:	e8bd4070 	pop	{r4, r5, r6, lr}
    8308:	e12fff1e 	bx	lr
    830c:	e264400c 	rsb	r4, r4, #12
    8310:	e2645020 	rsb	r5, r4, #32
    8314:	e1a03410 	lsl	r3, r0, r4
    8318:	e1a00530 	lsr	r0, r0, r5
    831c:	e1800411 	orr	r0, r0, r1, lsl r4
    8320:	e2011102 	and	r1, r1, #-2147483648	; 0x80000000
    8324:	e0900fa3 	adds	r0, r0, r3, lsr #31
    8328:	e2a11000 	adc	r1, r1, #0
    832c:	e19ee083 	orrs	lr, lr, r3, lsl #1
    8330:	01c00fa3 	biceq	r0, r0, r3, lsr #31
    8334:	e8bd4070 	pop	{r4, r5, r6, lr}
    8338:	e12fff1e 	bx	lr
    833c:	e2645020 	rsb	r5, r4, #32
    8340:	e18ee510 	orr	lr, lr, r0, lsl r5
    8344:	e1a03430 	lsr	r3, r0, r4
    8348:	e1833511 	orr	r3, r3, r1, lsl r5
    834c:	e1a00431 	lsr	r0, r1, r4
    8350:	e2011102 	and	r1, r1, #-2147483648	; 0x80000000
    8354:	e1c00431 	bic	r0, r0, r1, lsr r4
    8358:	e0800fa3 	add	r0, r0, r3, lsr #31
    835c:	e19ee083 	orrs	lr, lr, r3, lsl #1
    8360:	01c00fa3 	biceq	r0, r0, r3, lsr #31
    8364:	e8bd4070 	pop	{r4, r5, r6, lr}
    8368:	e12fff1e 	bx	lr
    836c:	e3340000 	teq	r4, #0
    8370:	1a000008 	bne	8398 <__aeabi_dmul+0x1d8>
    8374:	e2016102 	and	r6, r1, #-2147483648	; 0x80000000
    8378:	e1b00080 	lsls	r0, r0, #1
    837c:	e0a11001 	adc	r1, r1, r1
    8380:	e3110601 	tst	r1, #1048576	; 0x100000
    8384:	02444001 	subeq	r4, r4, #1
    8388:	0afffffa 	beq	8378 <__aeabi_dmul+0x1b8>
    838c:	e1811006 	orr	r1, r1, r6
    8390:	e3350000 	teq	r5, #0
    8394:	112fff1e 	bxne	lr
    8398:	e2036102 	and	r6, r3, #-2147483648	; 0x80000000
    839c:	e1b02082 	lsls	r2, r2, #1
    83a0:	e0a33003 	adc	r3, r3, r3
    83a4:	e3130601 	tst	r3, #1048576	; 0x100000
    83a8:	02455001 	subeq	r5, r5, #1
    83ac:	0afffffa 	beq	839c <__aeabi_dmul+0x1dc>
    83b0:	e1833006 	orr	r3, r3, r6
    83b4:	e12fff1e 	bx	lr
    83b8:	e134000c 	teq	r4, ip
    83bc:	e00c5a23 	and	r5, ip, r3, lsr #20
    83c0:	1135000c 	teqne	r5, ip
    83c4:	0a000007 	beq	83e8 <__aeabi_dmul+0x228>
    83c8:	e1906081 	orrs	r6, r0, r1, lsl #1
    83cc:	11926083 	orrsne	r6, r2, r3, lsl #1
    83d0:	1affffe5 	bne	836c <__aeabi_dmul+0x1ac>
    83d4:	e0211003 	eor	r1, r1, r3
    83d8:	e2011102 	and	r1, r1, #-2147483648	; 0x80000000
    83dc:	e3a00000 	mov	r0, #0
    83e0:	e8bd4070 	pop	{r4, r5, r6, lr}
    83e4:	e12fff1e 	bx	lr
    83e8:	e1906081 	orrs	r6, r0, r1, lsl #1
    83ec:	01a00002 	moveq	r0, r2
    83f0:	01a01003 	moveq	r1, r3
    83f4:	11926083 	orrsne	r6, r2, r3, lsl #1
    83f8:	0a000010 	beq	8440 <__aeabi_dmul+0x280>
    83fc:	e134000c 	teq	r4, ip
    8400:	1a000001 	bne	840c <__aeabi_dmul+0x24c>
    8404:	e1906601 	orrs	r6, r0, r1, lsl #12
    8408:	1a00000c 	bne	8440 <__aeabi_dmul+0x280>
    840c:	e135000c 	teq	r5, ip
    8410:	1a000003 	bne	8424 <__aeabi_dmul+0x264>
    8414:	e1926603 	orrs	r6, r2, r3, lsl #12
    8418:	11a00002 	movne	r0, r2
    841c:	11a01003 	movne	r1, r3
    8420:	1a000006 	bne	8440 <__aeabi_dmul+0x280>
    8424:	e0211003 	eor	r1, r1, r3
    8428:	e2011102 	and	r1, r1, #-2147483648	; 0x80000000
    842c:	e381147f 	orr	r1, r1, #2130706432	; 0x7f000000
    8430:	e381160f 	orr	r1, r1, #15728640	; 0xf00000
    8434:	e3a00000 	mov	r0, #0
    8438:	e8bd4070 	pop	{r4, r5, r6, lr}
    843c:	e12fff1e 	bx	lr
    8440:	e381147f 	orr	r1, r1, #2130706432	; 0x7f000000
    8444:	e381173e 	orr	r1, r1, #16252928	; 0xf80000
    8448:	e8bd4070 	pop	{r4, r5, r6, lr}
    844c:	e12fff1e 	bx	lr

00008450 <__udivsi3>:
    8450:	e2512001 	subs	r2, r1, #1
    8454:	012fff1e 	bxeq	lr
    8458:	3a000036 	bcc	8538 <__udivsi3+0xe8>
    845c:	e1500001 	cmp	r0, r1
    8460:	9a000022 	bls	84f0 <__udivsi3+0xa0>
    8464:	e1110002 	tst	r1, r2
    8468:	0a000023 	beq	84fc <__udivsi3+0xac>
    846c:	e311020e 	tst	r1, #-536870912	; 0xe0000000
    8470:	01a01181 	lsleq	r1, r1, #3
    8474:	03a03008 	moveq	r3, #8
    8478:	13a03001 	movne	r3, #1
    847c:	e3510201 	cmp	r1, #268435456	; 0x10000000
    8480:	31510000 	cmpcc	r1, r0
    8484:	31a01201 	lslcc	r1, r1, #4
    8488:	31a03203 	lslcc	r3, r3, #4
    848c:	3afffffa 	bcc	847c <__udivsi3+0x2c>
    8490:	e3510102 	cmp	r1, #-2147483648	; 0x80000000
    8494:	31510000 	cmpcc	r1, r0
    8498:	31a01081 	lslcc	r1, r1, #1
    849c:	31a03083 	lslcc	r3, r3, #1
    84a0:	3afffffa 	bcc	8490 <__udivsi3+0x40>
    84a4:	e3a02000 	mov	r2, #0
    84a8:	e1500001 	cmp	r0, r1
    84ac:	20400001 	subcs	r0, r0, r1
    84b0:	21822003 	orrcs	r2, r2, r3
    84b4:	e15000a1 	cmp	r0, r1, lsr #1
    84b8:	204000a1 	subcs	r0, r0, r1, lsr #1
    84bc:	218220a3 	orrcs	r2, r2, r3, lsr #1
    84c0:	e1500121 	cmp	r0, r1, lsr #2
    84c4:	20400121 	subcs	r0, r0, r1, lsr #2
    84c8:	21822123 	orrcs	r2, r2, r3, lsr #2
    84cc:	e15001a1 	cmp	r0, r1, lsr #3
    84d0:	204001a1 	subcs	r0, r0, r1, lsr #3
    84d4:	218221a3 	orrcs	r2, r2, r3, lsr #3
    84d8:	e3500000 	cmp	r0, #0
    84dc:	11b03223 	lsrsne	r3, r3, #4
    84e0:	11a01221 	lsrne	r1, r1, #4
    84e4:	1affffef 	bne	84a8 <__udivsi3+0x58>
    84e8:	e1a00002 	mov	r0, r2
    84ec:	e12fff1e 	bx	lr
    84f0:	03a00001 	moveq	r0, #1
    84f4:	13a00000 	movne	r0, #0
    84f8:	e12fff1e 	bx	lr
    84fc:	e3510801 	cmp	r1, #65536	; 0x10000
    8500:	21a01821 	lsrcs	r1, r1, #16
    8504:	23a02010 	movcs	r2, #16
    8508:	33a02000 	movcc	r2, #0
    850c:	e3510c01 	cmp	r1, #256	; 0x100
    8510:	21a01421 	lsrcs	r1, r1, #8
    8514:	22822008 	addcs	r2, r2, #8
    8518:	e3510010 	cmp	r1, #16
    851c:	21a01221 	lsrcs	r1, r1, #4
    8520:	22822004 	addcs	r2, r2, #4
    8524:	e3510004 	cmp	r1, #4
    8528:	82822003 	addhi	r2, r2, #3
    852c:	908220a1 	addls	r2, r2, r1, lsr #1
    8530:	e1a00230 	lsr	r0, r0, r2
    8534:	e12fff1e 	bx	lr
    8538:	e3500000 	cmp	r0, #0
    853c:	13e00000 	mvnne	r0, #0
    8540:	ea00000a 	b	8570 <__aeabi_idiv0>

00008544 <__aeabi_uidivmod>:
    8544:	e3510000 	cmp	r1, #0
    8548:	0afffffa 	beq	8538 <__udivsi3+0xe8>
    854c:	e92d4003 	push	{r0, r1, lr}
    8550:	ebffffbe 	bl	8450 <__udivsi3>
    8554:	e8bd4006 	pop	{r1, r2, lr}
    8558:	e0030092 	mul	r3, r2, r0
    855c:	e0411003 	sub	r1, r1, r3
    8560:	e12fff1e 	bx	lr
	...

00008570 <__aeabi_idiv0>:
    8570:	e12fff1e 	bx	lr
	...

00008580 <__aeabi_drsub>:
    8580:	e2211102 	eor	r1, r1, #-2147483648	; 0x80000000
    8584:	ea000000 	b	858c <__adddf3>

00008588 <__aeabi_dsub>:
    8588:	e2233102 	eor	r3, r3, #-2147483648	; 0x80000000

0000858c <__adddf3>:
    858c:	e92d4030 	push	{r4, r5, lr}
    8590:	e1a04081 	lsl	r4, r1, #1
    8594:	e1a05083 	lsl	r5, r3, #1
    8598:	e1340005 	teq	r4, r5
    859c:	01300002 	teqeq	r0, r2
    85a0:	1194c000 	orrsne	ip, r4, r0
    85a4:	1195c002 	orrsne	ip, r5, r2
    85a8:	11f0cac4 	mvnsne	ip, r4, asr #21
    85ac:	11f0cac5 	mvnsne	ip, r5, asr #21
    85b0:	0a00008c 	beq	87e8 <__adddf3+0x25c>
    85b4:	e1a04aa4 	lsr	r4, r4, #21
    85b8:	e0745aa5 	rsbs	r5, r4, r5, lsr #21
    85bc:	b2655000 	rsblt	r5, r5, #0
    85c0:	da000006 	ble	85e0 <__adddf3+0x54>
    85c4:	e0844005 	add	r4, r4, r5
    85c8:	e0202002 	eor	r2, r0, r2
    85cc:	e0213003 	eor	r3, r1, r3
    85d0:	e0220000 	eor	r0, r2, r0
    85d4:	e0231001 	eor	r1, r3, r1
    85d8:	e0202002 	eor	r2, r0, r2
    85dc:	e0213003 	eor	r3, r1, r3
    85e0:	e3550036 	cmp	r5, #54	; 0x36
    85e4:	88bd4030 	pophi	{r4, r5, lr}
    85e8:	812fff1e 	bxhi	lr
    85ec:	e3110102 	tst	r1, #-2147483648	; 0x80000000
    85f0:	e1a01601 	lsl	r1, r1, #12
    85f4:	e3a0c601 	mov	ip, #1048576	; 0x100000
    85f8:	e18c1621 	orr	r1, ip, r1, lsr #12
    85fc:	0a000001 	beq	8608 <__adddf3+0x7c>
    8600:	e2700000 	rsbs	r0, r0, #0
    8604:	e2e11000 	rsc	r1, r1, #0
    8608:	e3130102 	tst	r3, #-2147483648	; 0x80000000
    860c:	e1a03603 	lsl	r3, r3, #12
    8610:	e18c3623 	orr	r3, ip, r3, lsr #12
    8614:	0a000001 	beq	8620 <__adddf3+0x94>
    8618:	e2722000 	rsbs	r2, r2, #0
    861c:	e2e33000 	rsc	r3, r3, #0
    8620:	e1340005 	teq	r4, r5
    8624:	0a000069 	beq	87d0 <__adddf3+0x244>
    8628:	e2444001 	sub	r4, r4, #1
    862c:	e275e020 	rsbs	lr, r5, #32
    8630:	ba000005 	blt	864c <__adddf3+0xc0>
    8634:	e1a0ce12 	lsl	ip, r2, lr
    8638:	e0900532 	adds	r0, r0, r2, lsr r5
    863c:	e2a11000 	adc	r1, r1, #0
    8640:	e0900e13 	adds	r0, r0, r3, lsl lr
    8644:	e0b11553 	adcs	r1, r1, r3, asr r5
    8648:	ea000006 	b	8668 <__adddf3+0xdc>
    864c:	e2455020 	sub	r5, r5, #32
    8650:	e28ee020 	add	lr, lr, #32
    8654:	e3520001 	cmp	r2, #1
    8658:	e1a0ce13 	lsl	ip, r3, lr
    865c:	238cc002 	orrcs	ip, ip, #2
    8660:	e0900553 	adds	r0, r0, r3, asr r5
    8664:	e0b11fc3 	adcs	r1, r1, r3, asr #31
    8668:	e2015102 	and	r5, r1, #-2147483648	; 0x80000000
    866c:	5a000002 	bpl	867c <__adddf3+0xf0>
    8670:	e27cc000 	rsbs	ip, ip, #0
    8674:	e2f00000 	rscs	r0, r0, #0
    8678:	e2e11000 	rsc	r1, r1, #0
    867c:	e3510601 	cmp	r1, #1048576	; 0x100000
    8680:	3a00000f 	bcc	86c4 <__adddf3+0x138>
    8684:	e3510602 	cmp	r1, #2097152	; 0x200000
    8688:	3a000006 	bcc	86a8 <__adddf3+0x11c>
    868c:	e1b010a1 	lsrs	r1, r1, #1
    8690:	e1b00060 	rrxs	r0, r0
    8694:	e1a0c06c 	rrx	ip, ip
    8698:	e2844001 	add	r4, r4, #1
    869c:	e1a02a84 	lsl	r2, r4, #21
    86a0:	e3720501 	cmn	r2, #4194304	; 0x400000
    86a4:	2a00006b 	bcs	8858 <__adddf3+0x2cc>
    86a8:	e35c0102 	cmp	ip, #-2147483648	; 0x80000000
    86ac:	01b0c0a0 	lsrseq	ip, r0, #1
    86b0:	e2b00000 	adcs	r0, r0, #0
    86b4:	e0a11a04 	adc	r1, r1, r4, lsl #20
    86b8:	e1811005 	orr	r1, r1, r5
    86bc:	e8bd4030 	pop	{r4, r5, lr}
    86c0:	e12fff1e 	bx	lr
    86c4:	e1b0c08c 	lsls	ip, ip, #1
    86c8:	e0b00000 	adcs	r0, r0, r0
    86cc:	e0a11001 	adc	r1, r1, r1
    86d0:	e2544001 	subs	r4, r4, #1
    86d4:	23510601 	cmpcs	r1, #1048576	; 0x100000
    86d8:	2afffff2 	bcs	86a8 <__adddf3+0x11c>
    86dc:	e3310000 	teq	r1, #0
    86e0:	13a03014 	movne	r3, #20
    86e4:	03a03034 	moveq	r3, #52	; 0x34
    86e8:	01a01000 	moveq	r1, r0
    86ec:	03a00000 	moveq	r0, #0
    86f0:	e1a02001 	mov	r2, r1
    86f4:	e3520801 	cmp	r2, #65536	; 0x10000
    86f8:	21a02822 	lsrcs	r2, r2, #16
    86fc:	22433010 	subcs	r3, r3, #16
    8700:	e3520c01 	cmp	r2, #256	; 0x100
    8704:	21a02422 	lsrcs	r2, r2, #8
    8708:	22433008 	subcs	r3, r3, #8
    870c:	e3520010 	cmp	r2, #16
    8710:	21a02222 	lsrcs	r2, r2, #4
    8714:	22433004 	subcs	r3, r3, #4
    8718:	e3520004 	cmp	r2, #4
    871c:	22433002 	subcs	r3, r3, #2
    8720:	304330a2 	subcc	r3, r3, r2, lsr #1
    8724:	e04331a2 	sub	r3, r3, r2, lsr #3
    8728:	e2532020 	subs	r2, r3, #32
    872c:	aa000007 	bge	8750 <__adddf3+0x1c4>
    8730:	e292200c 	adds	r2, r2, #12
    8734:	da000004 	ble	874c <__adddf3+0x1c0>
    8738:	e282c014 	add	ip, r2, #20
    873c:	e262200c 	rsb	r2, r2, #12
    8740:	e1a00c11 	lsl	r0, r1, ip
    8744:	e1a01231 	lsr	r1, r1, r2
    8748:	ea000004 	b	8760 <__adddf3+0x1d4>
    874c:	e2822014 	add	r2, r2, #20
    8750:	d262c020 	rsble	ip, r2, #32
    8754:	e1a01211 	lsl	r1, r1, r2
    8758:	d1811c30 	orrle	r1, r1, r0, lsr ip
    875c:	d1a00210 	lslle	r0, r0, r2
    8760:	e0544003 	subs	r4, r4, r3
    8764:	a0811a04 	addge	r1, r1, r4, lsl #20
    8768:	a1811005 	orrge	r1, r1, r5
    876c:	a8bd4030 	popge	{r4, r5, lr}
    8770:	a12fff1e 	bxge	lr
    8774:	e1e04004 	mvn	r4, r4
    8778:	e254401f 	subs	r4, r4, #31
    877c:	aa00000f 	bge	87c0 <__adddf3+0x234>
    8780:	e294400c 	adds	r4, r4, #12
    8784:	ca000006 	bgt	87a4 <__adddf3+0x218>
    8788:	e2844014 	add	r4, r4, #20
    878c:	e2642020 	rsb	r2, r4, #32
    8790:	e1a00430 	lsr	r0, r0, r4
    8794:	e1800211 	orr	r0, r0, r1, lsl r2
    8798:	e1851431 	orr	r1, r5, r1, lsr r4
    879c:	e8bd4030 	pop	{r4, r5, lr}
    87a0:	e12fff1e 	bx	lr
    87a4:	e264400c 	rsb	r4, r4, #12
    87a8:	e2642020 	rsb	r2, r4, #32
    87ac:	e1a00230 	lsr	r0, r0, r2
    87b0:	e1800411 	orr	r0, r0, r1, lsl r4
    87b4:	e1a01005 	mov	r1, r5
    87b8:	e8bd4030 	pop	{r4, r5, lr}
    87bc:	e12fff1e 	bx	lr
    87c0:	e1a00431 	lsr	r0, r1, r4
    87c4:	e1a01005 	mov	r1, r5
    87c8:	e8bd4030 	pop	{r4, r5, lr}
    87cc:	e12fff1e 	bx	lr
    87d0:	e3340000 	teq	r4, #0
    87d4:	e2233601 	eor	r3, r3, #1048576	; 0x100000
    87d8:	02211601 	eoreq	r1, r1, #1048576	; 0x100000
    87dc:	02844001 	addeq	r4, r4, #1
    87e0:	12455001 	subne	r5, r5, #1
    87e4:	eaffff8f 	b	8628 <__adddf3+0x9c>
    87e8:	e1f0cac4 	mvns	ip, r4, asr #21
    87ec:	11f0cac5 	mvnsne	ip, r5, asr #21
    87f0:	0a00001d 	beq	886c <__adddf3+0x2e0>
    87f4:	e1340005 	teq	r4, r5
    87f8:	01300002 	teqeq	r0, r2
    87fc:	0a000004 	beq	8814 <__adddf3+0x288>
    8800:	e194c000 	orrs	ip, r4, r0
    8804:	01a01003 	moveq	r1, r3
    8808:	01a00002 	moveq	r0, r2
    880c:	e8bd4030 	pop	{r4, r5, lr}
    8810:	e12fff1e 	bx	lr
    8814:	e1310003 	teq	r1, r3
    8818:	13a01000 	movne	r1, #0
    881c:	13a00000 	movne	r0, #0
    8820:	18bd4030 	popne	{r4, r5, lr}
    8824:	112fff1e 	bxne	lr
    8828:	e1b0caa4 	lsrs	ip, r4, #21
    882c:	1a000004 	bne	8844 <__adddf3+0x2b8>
    8830:	e1b00080 	lsls	r0, r0, #1
    8834:	e0b11001 	adcs	r1, r1, r1
    8838:	23811102 	orrcs	r1, r1, #-2147483648	; 0x80000000
    883c:	e8bd4030 	pop	{r4, r5, lr}
    8840:	e12fff1e 	bx	lr
    8844:	e2944501 	adds	r4, r4, #4194304	; 0x400000
    8848:	32811601 	addcc	r1, r1, #1048576	; 0x100000
    884c:	38bd4030 	popcc	{r4, r5, lr}
    8850:	312fff1e 	bxcc	lr
    8854:	e2015102 	and	r5, r1, #-2147483648	; 0x80000000
    8858:	e385147f 	orr	r1, r5, #2130706432	; 0x7f000000
    885c:	e381160f 	orr	r1, r1, #15728640	; 0xf00000
    8860:	e3a00000 	mov	r0, #0
    8864:	e8bd4030 	pop	{r4, r5, lr}
    8868:	e12fff1e 	bx	lr
    886c:	e1f0cac4 	mvns	ip, r4, asr #21
    8870:	11a01003 	movne	r1, r3
    8874:	11a00002 	movne	r0, r2
    8878:	01f0cac5 	mvnseq	ip, r5, asr #21
    887c:	11a03001 	movne	r3, r1
    8880:	11a02000 	movne	r2, r0
    8884:	e1904601 	orrs	r4, r0, r1, lsl #12
    8888:	01925603 	orrseq	r5, r2, r3, lsl #12
    888c:	01310003 	teqeq	r1, r3
    8890:	13811702 	orrne	r1, r1, #524288	; 0x80000
    8894:	e8bd4030 	pop	{r4, r5, lr}
    8898:	e12fff1e 	bx	lr

0000889c <__aeabi_ui2d>:
    889c:	e3300000 	teq	r0, #0
    88a0:	03a01000 	moveq	r1, #0
    88a4:	012fff1e 	bxeq	lr
    88a8:	e92d4030 	push	{r4, r5, lr}
    88ac:	e3a04b01 	mov	r4, #1024	; 0x400
    88b0:	e2844032 	add	r4, r4, #50	; 0x32
    88b4:	e3a05000 	mov	r5, #0
    88b8:	e3a01000 	mov	r1, #0
    88bc:	eaffff86 	b	86dc <__adddf3+0x150>

000088c0 <__aeabi_i2d>:
    88c0:	e3300000 	teq	r0, #0
    88c4:	03a01000 	moveq	r1, #0
    88c8:	012fff1e 	bxeq	lr
    88cc:	e92d4030 	push	{r4, r5, lr}
    88d0:	e3a04b01 	mov	r4, #1024	; 0x400
    88d4:	e2844032 	add	r4, r4, #50	; 0x32
    88d8:	e2105102 	ands	r5, r0, #-2147483648	; 0x80000000
    88dc:	42600000 	rsbmi	r0, r0, #0
    88e0:	e3a01000 	mov	r1, #0
    88e4:	eaffff7c 	b	86dc <__adddf3+0x150>

000088e8 <__aeabi_f2d>:
    88e8:	e1b02080 	lsls	r2, r0, #1
    88ec:	e1a011c2 	asr	r1, r2, #3
    88f0:	e1a01061 	rrx	r1, r1
    88f4:	e1a00e02 	lsl	r0, r2, #28
    88f8:	121234ff 	andsne	r3, r2, #-16777216	; 0xff000000
    88fc:	133304ff 	teqne	r3, #-16777216	; 0xff000000
    8900:	1221130e 	eorne	r1, r1, #939524096	; 0x38000000
    8904:	112fff1e 	bxne	lr
    8908:	e3d224ff 	bics	r2, r2, #-16777216	; 0xff000000
    890c:	012fff1e 	bxeq	lr
    8910:	e33304ff 	teq	r3, #-16777216	; 0xff000000
    8914:	03811702 	orreq	r1, r1, #524288	; 0x80000
    8918:	012fff1e 	bxeq	lr
    891c:	e92d4030 	push	{r4, r5, lr}
    8920:	e3a04d0e 	mov	r4, #896	; 0x380
    8924:	e2015102 	and	r5, r1, #-2147483648	; 0x80000000
    8928:	e3c11102 	bic	r1, r1, #-2147483648	; 0x80000000
    892c:	eaffff6a 	b	86dc <__adddf3+0x150>

00008930 <__aeabi_ul2d>:
    8930:	e1902001 	orrs	r2, r0, r1
    8934:	012fff1e 	bxeq	lr
    8938:	e92d4030 	push	{r4, r5, lr}
    893c:	e3a05000 	mov	r5, #0
    8940:	ea000006 	b	8960 <__aeabi_l2d+0x1c>

00008944 <__aeabi_l2d>:
    8944:	e1902001 	orrs	r2, r0, r1
    8948:	012fff1e 	bxeq	lr
    894c:	e92d4030 	push	{r4, r5, lr}
    8950:	e2115102 	ands	r5, r1, #-2147483648	; 0x80000000
    8954:	5a000001 	bpl	8960 <__aeabi_l2d+0x1c>
    8958:	e2700000 	rsbs	r0, r0, #0
    895c:	e2e11000 	rsc	r1, r1, #0
    8960:	e3a04b01 	mov	r4, #1024	; 0x400
    8964:	e2844032 	add	r4, r4, #50	; 0x32
    8968:	e1b0cb21 	lsrs	ip, r1, #22
    896c:	0affff42 	beq	867c <__adddf3+0xf0>
    8970:	e3a02003 	mov	r2, #3
    8974:	e1b0c1ac 	lsrs	ip, ip, #3
    8978:	12822003 	addne	r2, r2, #3
    897c:	e1b0c1ac 	lsrs	ip, ip, #3
    8980:	12822003 	addne	r2, r2, #3
    8984:	e08221ac 	add	r2, r2, ip, lsr #3
    8988:	e2623020 	rsb	r3, r2, #32
    898c:	e1a0c310 	lsl	ip, r0, r3
    8990:	e1a00230 	lsr	r0, r0, r2
    8994:	e1800311 	orr	r0, r0, r1, lsl r3
    8998:	e1a01231 	lsr	r1, r1, r2
    899c:	e0844002 	add	r4, r4, r2
    89a0:	eaffff35 	b	867c <__adddf3+0xf0>
	...

000089b0 <__aeabi_d2iz>:
    89b0:	e1a02081 	lsl	r2, r1, #1
    89b4:	e2922602 	adds	r2, r2, #2097152	; 0x200000
    89b8:	2a00000c 	bcs	89f0 <__aeabi_d2iz+0x40>
    89bc:	5a000009 	bpl	89e8 <__aeabi_d2iz+0x38>
    89c0:	e3e03e3e 	mvn	r3, #992	; 0x3e0
    89c4:	e0532ac2 	subs	r2, r3, r2, asr #21
    89c8:	9a00000a 	bls	89f8 <__aeabi_d2iz+0x48>
    89cc:	e1a03581 	lsl	r3, r1, #11
    89d0:	e3833102 	orr	r3, r3, #-2147483648	; 0x80000000
    89d4:	e1833aa0 	orr	r3, r3, r0, lsr #21
    89d8:	e3110102 	tst	r1, #-2147483648	; 0x80000000
    89dc:	e1a00233 	lsr	r0, r3, r2
    89e0:	12600000 	rsbne	r0, r0, #0
    89e4:	e12fff1e 	bx	lr
    89e8:	e3a00000 	mov	r0, #0
    89ec:	e12fff1e 	bx	lr
    89f0:	e1900601 	orrs	r0, r0, r1, lsl #12
    89f4:	1a000002 	bne	8a04 <__aeabi_d2iz+0x54>
    89f8:	e2110102 	ands	r0, r1, #-2147483648	; 0x80000000
    89fc:	03e00102 	mvneq	r0, #-2147483648	; 0x80000000
    8a00:	e12fff1e 	bx	lr
    8a04:	e3a00000 	mov	r0, #0
    8a08:	e12fff1e 	bx	lr
    8a0c:	00000000 	andeq	r0, r0, r0

00008a10 <__aeabi_d2f>:
    8a10:	e1a02081 	lsl	r2, r1, #1
    8a14:	e2523207 	subs	r3, r2, #1879048192	; 0x70000000
    8a18:	2253c602 	subscs	ip, r3, #2097152	; 0x200000
    8a1c:	227cc57f 	rsbscs	ip, ip, #532676608	; 0x1fc00000
    8a20:	9a000006 	bls	8a40 <__aeabi_d2f+0x30>
    8a24:	e201c102 	and	ip, r1, #-2147483648	; 0x80000000
    8a28:	e1a02180 	lsl	r2, r0, #3
    8a2c:	e18c0ea0 	orr	r0, ip, r0, lsr #29
    8a30:	e3520102 	cmp	r2, #-2147483648	; 0x80000000
    8a34:	e0a00103 	adc	r0, r0, r3, lsl #2
    8a38:	03c00001 	biceq	r0, r0, #1
    8a3c:	e12fff1e 	bx	lr
    8a40:	e3110101 	tst	r1, #1073741824	; 0x40000000
    8a44:	1a00000f 	bne	8a88 <__aeabi_d2f+0x78>
    8a48:	e293262e 	adds	r2, r3, #48234496	; 0x2e00000
    8a4c:	b2010102 	andlt	r0, r1, #-2147483648	; 0x80000000
    8a50:	b12fff1e 	bxlt	lr
    8a54:	e3811601 	orr	r1, r1, #1048576	; 0x100000
    8a58:	e1a02aa2 	lsr	r2, r2, #21
    8a5c:	e2622018 	rsb	r2, r2, #24
    8a60:	e262c020 	rsb	ip, r2, #32
    8a64:	e1b03c10 	lsls	r3, r0, ip
    8a68:	e1a00230 	lsr	r0, r0, r2
    8a6c:	13800001 	orrne	r0, r0, #1
    8a70:	e1a03581 	lsl	r3, r1, #11
    8a74:	e1a035a3 	lsr	r3, r3, #11
    8a78:	e1800c13 	orr	r0, r0, r3, lsl ip
    8a7c:	e1a03233 	lsr	r3, r3, r2
    8a80:	e1a03083 	lsl	r3, r3, #1
    8a84:	eaffffe6 	b	8a24 <__aeabi_d2f+0x14>
    8a88:	e1f03ac2 	mvns	r3, r2, asr #21
    8a8c:	1a000003 	bne	8aa0 <__aeabi_d2f+0x90>
    8a90:	e1903601 	orrs	r3, r0, r1, lsl #12
    8a94:	13a0047f 	movne	r0, #2130706432	; 0x7f000000
    8a98:	13800503 	orrne	r0, r0, #12582912	; 0xc00000
    8a9c:	112fff1e 	bxne	lr
    8aa0:	e2010102 	and	r0, r1, #-2147483648	; 0x80000000
    8aa4:	e380047f 	orr	r0, r0, #2130706432	; 0x7f000000
    8aa8:	e3800502 	orr	r0, r0, #8388608	; 0x800000
    8aac:	e12fff1e 	bx	lr

00008ab0 <__aeabi_frsub>:
    8ab0:	e2200102 	eor	r0, r0, #-2147483648	; 0x80000000
    8ab4:	ea000000 	b	8abc <__addsf3>

00008ab8 <__aeabi_fsub>:
    8ab8:	e2211102 	eor	r1, r1, #-2147483648	; 0x80000000

00008abc <__addsf3>:
    8abc:	e1b02080 	lsls	r2, r0, #1
    8ac0:	11b03081 	lslsne	r3, r1, #1
    8ac4:	11320003 	teqne	r2, r3
    8ac8:	11f0cc42 	mvnsne	ip, r2, asr #24
    8acc:	11f0cc43 	mvnsne	ip, r3, asr #24
    8ad0:	0a000047 	beq	8bf4 <__addsf3+0x138>
    8ad4:	e1a02c22 	lsr	r2, r2, #24
    8ad8:	e0723c23 	rsbs	r3, r2, r3, lsr #24
    8adc:	c0822003 	addgt	r2, r2, r3
    8ae0:	c0201001 	eorgt	r1, r0, r1
    8ae4:	c0210000 	eorgt	r0, r1, r0
    8ae8:	c0201001 	eorgt	r1, r0, r1
    8aec:	b2633000 	rsblt	r3, r3, #0
    8af0:	e3530019 	cmp	r3, #25
    8af4:	812fff1e 	bxhi	lr
    8af8:	e3100102 	tst	r0, #-2147483648	; 0x80000000
    8afc:	e3800502 	orr	r0, r0, #8388608	; 0x800000
    8b00:	e3c004ff 	bic	r0, r0, #-16777216	; 0xff000000
    8b04:	12600000 	rsbne	r0, r0, #0
    8b08:	e3110102 	tst	r1, #-2147483648	; 0x80000000
    8b0c:	e3811502 	orr	r1, r1, #8388608	; 0x800000
    8b10:	e3c114ff 	bic	r1, r1, #-16777216	; 0xff000000
    8b14:	12611000 	rsbne	r1, r1, #0
    8b18:	e1320003 	teq	r2, r3
    8b1c:	0a00002e 	beq	8bdc <__addsf3+0x120>
    8b20:	e2422001 	sub	r2, r2, #1
    8b24:	e0900351 	adds	r0, r0, r1, asr r3
    8b28:	e2633020 	rsb	r3, r3, #32
    8b2c:	e1a01311 	lsl	r1, r1, r3
    8b30:	e2003102 	and	r3, r0, #-2147483648	; 0x80000000
    8b34:	5a000001 	bpl	8b40 <__addsf3+0x84>
    8b38:	e2711000 	rsbs	r1, r1, #0
    8b3c:	e2e00000 	rsc	r0, r0, #0
    8b40:	e3500502 	cmp	r0, #8388608	; 0x800000
    8b44:	3a00000b 	bcc	8b78 <__addsf3+0xbc>
    8b48:	e3500401 	cmp	r0, #16777216	; 0x1000000
    8b4c:	3a000004 	bcc	8b64 <__addsf3+0xa8>
    8b50:	e1b000a0 	lsrs	r0, r0, #1
    8b54:	e1a01061 	rrx	r1, r1
    8b58:	e2822001 	add	r2, r2, #1
    8b5c:	e35200fe 	cmp	r2, #254	; 0xfe
    8b60:	2a000038 	bcs	8c48 <__addsf3+0x18c>
    8b64:	e3510102 	cmp	r1, #-2147483648	; 0x80000000
    8b68:	e0a00b82 	adc	r0, r0, r2, lsl #23
    8b6c:	03c00001 	biceq	r0, r0, #1
    8b70:	e1800003 	orr	r0, r0, r3
    8b74:	e12fff1e 	bx	lr
    8b78:	e1b01081 	lsls	r1, r1, #1
    8b7c:	e0a00000 	adc	r0, r0, r0
    8b80:	e2522001 	subs	r2, r2, #1
    8b84:	23500502 	cmpcs	r0, #8388608	; 0x800000
    8b88:	2afffff5 	bcs	8b64 <__addsf3+0xa8>
    8b8c:	e1b0c620 	lsrs	ip, r0, #12
    8b90:	01a00600 	lsleq	r0, r0, #12
    8b94:	0242200c 	subeq	r2, r2, #12
    8b98:	e31008ff 	tst	r0, #16711680	; 0xff0000
    8b9c:	01a00400 	lsleq	r0, r0, #8
    8ba0:	02422008 	subeq	r2, r2, #8
    8ba4:	e310060f 	tst	r0, #15728640	; 0xf00000
    8ba8:	01a00200 	lsleq	r0, r0, #4
    8bac:	02422004 	subeq	r2, r2, #4
    8bb0:	e3100503 	tst	r0, #12582912	; 0xc00000
    8bb4:	01a00100 	lsleq	r0, r0, #2
    8bb8:	02422002 	subeq	r2, r2, #2
    8bbc:	e3500502 	cmp	r0, #8388608	; 0x800000
    8bc0:	31a00080 	lslcc	r0, r0, #1
    8bc4:	e2d22000 	sbcs	r2, r2, #0
    8bc8:	a0800b82 	addge	r0, r0, r2, lsl #23
    8bcc:	b2622000 	rsblt	r2, r2, #0
    8bd0:	a1800003 	orrge	r0, r0, r3
    8bd4:	b1830230 	orrlt	r0, r3, r0, lsr r2
    8bd8:	e12fff1e 	bx	lr
    8bdc:	e3320000 	teq	r2, #0
    8be0:	e2211502 	eor	r1, r1, #8388608	; 0x800000
    8be4:	02200502 	eoreq	r0, r0, #8388608	; 0x800000
    8be8:	02822001 	addeq	r2, r2, #1
    8bec:	12433001 	subne	r3, r3, #1
    8bf0:	eaffffca 	b	8b20 <__addsf3+0x64>
    8bf4:	e1a03081 	lsl	r3, r1, #1
    8bf8:	e1f0cc42 	mvns	ip, r2, asr #24
    8bfc:	11f0cc43 	mvnsne	ip, r3, asr #24
    8c00:	0a000013 	beq	8c54 <__addsf3+0x198>
    8c04:	e1320003 	teq	r2, r3
    8c08:	0a000002 	beq	8c18 <__addsf3+0x15c>
    8c0c:	e3320000 	teq	r2, #0
    8c10:	01a00001 	moveq	r0, r1
    8c14:	e12fff1e 	bx	lr
    8c18:	e1300001 	teq	r0, r1
    8c1c:	13a00000 	movne	r0, #0
    8c20:	112fff1e 	bxne	lr
    8c24:	e31204ff 	tst	r2, #-16777216	; 0xff000000
    8c28:	1a000002 	bne	8c38 <__addsf3+0x17c>
    8c2c:	e1b00080 	lsls	r0, r0, #1
    8c30:	23800102 	orrcs	r0, r0, #-2147483648	; 0x80000000
    8c34:	e12fff1e 	bx	lr
    8c38:	e2922402 	adds	r2, r2, #33554432	; 0x2000000
    8c3c:	32800502 	addcc	r0, r0, #8388608	; 0x800000
    8c40:	312fff1e 	bxcc	lr
    8c44:	e2003102 	and	r3, r0, #-2147483648	; 0x80000000
    8c48:	e383047f 	orr	r0, r3, #2130706432	; 0x7f000000
    8c4c:	e3800502 	orr	r0, r0, #8388608	; 0x800000
    8c50:	e12fff1e 	bx	lr
    8c54:	e1f02c42 	mvns	r2, r2, asr #24
    8c58:	11a00001 	movne	r0, r1
    8c5c:	01f03c43 	mvnseq	r3, r3, asr #24
    8c60:	11a01000 	movne	r1, r0
    8c64:	e1b02480 	lsls	r2, r0, #9
    8c68:	01b03481 	lslseq	r3, r1, #9
    8c6c:	01300001 	teqeq	r0, r1
    8c70:	13800501 	orrne	r0, r0, #4194304	; 0x400000
    8c74:	e12fff1e 	bx	lr

00008c78 <__aeabi_ui2f>:
    8c78:	e3a03000 	mov	r3, #0
    8c7c:	ea000001 	b	8c88 <__aeabi_i2f+0x8>

00008c80 <__aeabi_i2f>:
    8c80:	e2103102 	ands	r3, r0, #-2147483648	; 0x80000000
    8c84:	42600000 	rsbmi	r0, r0, #0
    8c88:	e1b0c000 	movs	ip, r0
    8c8c:	012fff1e 	bxeq	lr
    8c90:	e383344b 	orr	r3, r3, #1258291200	; 0x4b000000
    8c94:	e1a01000 	mov	r1, r0
    8c98:	e3a00000 	mov	r0, #0
    8c9c:	ea00000f 	b	8ce0 <__aeabi_l2f+0x30>

00008ca0 <__aeabi_ul2f>:
    8ca0:	e1902001 	orrs	r2, r0, r1
    8ca4:	012fff1e 	bxeq	lr
    8ca8:	e3a03000 	mov	r3, #0
    8cac:	ea000005 	b	8cc8 <__aeabi_l2f+0x18>

00008cb0 <__aeabi_l2f>:
    8cb0:	e1902001 	orrs	r2, r0, r1
    8cb4:	012fff1e 	bxeq	lr
    8cb8:	e2113102 	ands	r3, r1, #-2147483648	; 0x80000000
    8cbc:	5a000001 	bpl	8cc8 <__aeabi_l2f+0x18>
    8cc0:	e2700000 	rsbs	r0, r0, #0
    8cc4:	e2e11000 	rsc	r1, r1, #0
    8cc8:	e1b0c001 	movs	ip, r1
    8ccc:	01a0c000 	moveq	ip, r0
    8cd0:	01a01000 	moveq	r1, r0
    8cd4:	03a00000 	moveq	r0, #0
    8cd8:	e383345b 	orr	r3, r3, #1526726656	; 0x5b000000
    8cdc:	02433201 	subeq	r3, r3, #268435456	; 0x10000000
    8ce0:	e2433502 	sub	r3, r3, #8388608	; 0x800000
    8ce4:	e3a02017 	mov	r2, #23
    8ce8:	e35c0801 	cmp	ip, #65536	; 0x10000
    8cec:	21a0c82c 	lsrcs	ip, ip, #16
    8cf0:	22422010 	subcs	r2, r2, #16
    8cf4:	e35c0c01 	cmp	ip, #256	; 0x100
    8cf8:	21a0c42c 	lsrcs	ip, ip, #8
    8cfc:	22422008 	subcs	r2, r2, #8
    8d00:	e35c0010 	cmp	ip, #16
    8d04:	21a0c22c 	lsrcs	ip, ip, #4
    8d08:	22422004 	subcs	r2, r2, #4
    8d0c:	e35c0004 	cmp	ip, #4
    8d10:	22422002 	subcs	r2, r2, #2
    8d14:	304220ac 	subcc	r2, r2, ip, lsr #1
    8d18:	e05221ac 	subs	r2, r2, ip, lsr #3
    8d1c:	e0433b82 	sub	r3, r3, r2, lsl #23
    8d20:	ba000006 	blt	8d40 <__aeabi_l2f+0x90>
    8d24:	e0833211 	add	r3, r3, r1, lsl r2
    8d28:	e1a0c210 	lsl	ip, r0, r2
    8d2c:	e2622020 	rsb	r2, r2, #32
    8d30:	e35c0102 	cmp	ip, #-2147483648	; 0x80000000
    8d34:	e0a30230 	adc	r0, r3, r0, lsr r2
    8d38:	03c00001 	biceq	r0, r0, #1
    8d3c:	e12fff1e 	bx	lr
    8d40:	e2822020 	add	r2, r2, #32
    8d44:	e1a0c211 	lsl	ip, r1, r2
    8d48:	e2622020 	rsb	r2, r2, #32
    8d4c:	e190008c 	orrs	r0, r0, ip, lsl #1
    8d50:	e0a30231 	adc	r0, r3, r1, lsr r2
    8d54:	01c00fac 	biceq	r0, r0, ip, lsr #31
    8d58:	e12fff1e 	bx	lr
    8d5c:	00000000 	andeq	r0, r0, r0

00008d60 <__aeabi_fmul>:
    8d60:	e3a0c0ff 	mov	ip, #255	; 0xff
    8d64:	e01c2ba0 	ands	r2, ip, r0, lsr #23
    8d68:	101c3ba1 	andsne	r3, ip, r1, lsr #23
    8d6c:	1132000c 	teqne	r2, ip
    8d70:	1133000c 	teqne	r3, ip
    8d74:	0a00003e 	beq	8e74 <__aeabi_fmul+0x114>
    8d78:	e0822003 	add	r2, r2, r3
    8d7c:	e020c001 	eor	ip, r0, r1
    8d80:	e1b00480 	lsls	r0, r0, #9
    8d84:	11b01481 	lslsne	r1, r1, #9
    8d88:	0a000010 	beq	8dd0 <__aeabi_fmul+0x70>
    8d8c:	e3a03302 	mov	r3, #134217728	; 0x8000000
    8d90:	e18302a0 	orr	r0, r3, r0, lsr #5
    8d94:	e18312a1 	orr	r1, r3, r1, lsr #5
    8d98:	e0813190 	umull	r3, r1, r0, r1
    8d9c:	e20c0102 	and	r0, ip, #-2147483648	; 0x80000000
    8da0:	e3510502 	cmp	r1, #8388608	; 0x800000
    8da4:	31a01081 	lslcc	r1, r1, #1
    8da8:	31811fa3 	orrcc	r1, r1, r3, lsr #31
    8dac:	31a03083 	lslcc	r3, r3, #1
    8db0:	e1800001 	orr	r0, r0, r1
    8db4:	e2c2207f 	sbc	r2, r2, #127	; 0x7f
    8db8:	e35200fd 	cmp	r2, #253	; 0xfd
    8dbc:	8a00000f 	bhi	8e00 <__aeabi_fmul+0xa0>
    8dc0:	e3530102 	cmp	r3, #-2147483648	; 0x80000000
    8dc4:	e0a00b82 	adc	r0, r0, r2, lsl #23
    8dc8:	03c00001 	biceq	r0, r0, #1
    8dcc:	e12fff1e 	bx	lr
    8dd0:	e3300000 	teq	r0, #0
    8dd4:	e20cc102 	and	ip, ip, #-2147483648	; 0x80000000
    8dd8:	01a01481 	lsleq	r1, r1, #9
    8ddc:	e18c04a0 	orr	r0, ip, r0, lsr #9
    8de0:	e18004a1 	orr	r0, r0, r1, lsr #9
    8de4:	e252207f 	subs	r2, r2, #127	; 0x7f
    8de8:	c27230ff 	rsbsgt	r3, r2, #255	; 0xff
    8dec:	c1800b82 	orrgt	r0, r0, r2, lsl #23
    8df0:	c12fff1e 	bxgt	lr
    8df4:	e3800502 	orr	r0, r0, #8388608	; 0x800000
    8df8:	e3a03000 	mov	r3, #0
    8dfc:	e2522001 	subs	r2, r2, #1
    8e00:	ca000035 	bgt	8edc <__aeabi_fmul+0x17c>
    8e04:	e3720019 	cmn	r2, #25
    8e08:	d2000102 	andle	r0, r0, #-2147483648	; 0x80000000
    8e0c:	d12fff1e 	bxle	lr
    8e10:	e2622000 	rsb	r2, r2, #0
    8e14:	e1b01080 	lsls	r1, r0, #1
    8e18:	e1a01231 	lsr	r1, r1, r2
    8e1c:	e2622020 	rsb	r2, r2, #32
    8e20:	e1a0c210 	lsl	ip, r0, r2
    8e24:	e1b00061 	rrxs	r0, r1
    8e28:	e2a00000 	adc	r0, r0, #0
    8e2c:	e193308c 	orrs	r3, r3, ip, lsl #1
    8e30:	01c00fac 	biceq	r0, r0, ip, lsr #31
    8e34:	e12fff1e 	bx	lr
    8e38:	e3320000 	teq	r2, #0
    8e3c:	e200c102 	and	ip, r0, #-2147483648	; 0x80000000
    8e40:	01a00080 	lsleq	r0, r0, #1
    8e44:	03100502 	tsteq	r0, #8388608	; 0x800000
    8e48:	02422001 	subeq	r2, r2, #1
    8e4c:	0afffffb 	beq	8e40 <__aeabi_fmul+0xe0>
    8e50:	e180000c 	orr	r0, r0, ip
    8e54:	e3330000 	teq	r3, #0
    8e58:	e201c102 	and	ip, r1, #-2147483648	; 0x80000000
    8e5c:	01a01081 	lsleq	r1, r1, #1
    8e60:	03110502 	tsteq	r1, #8388608	; 0x800000
    8e64:	02433001 	subeq	r3, r3, #1
    8e68:	0afffffb 	beq	8e5c <__aeabi_fmul+0xfc>
    8e6c:	e181100c 	orr	r1, r1, ip
    8e70:	eaffffc0 	b	8d78 <__aeabi_fmul+0x18>
    8e74:	e00c3ba1 	and	r3, ip, r1, lsr #23
    8e78:	e132000c 	teq	r2, ip
    8e7c:	1133000c 	teqne	r3, ip
    8e80:	0a000005 	beq	8e9c <__aeabi_fmul+0x13c>
    8e84:	e3d0c102 	bics	ip, r0, #-2147483648	; 0x80000000
    8e88:	13d1c102 	bicsne	ip, r1, #-2147483648	; 0x80000000
    8e8c:	1affffe9 	bne	8e38 <__aeabi_fmul+0xd8>
    8e90:	e0200001 	eor	r0, r0, r1
    8e94:	e2000102 	and	r0, r0, #-2147483648	; 0x80000000
    8e98:	e12fff1e 	bx	lr
    8e9c:	e3300000 	teq	r0, #0
    8ea0:	13300102 	teqne	r0, #-2147483648	; 0x80000000
    8ea4:	01a00001 	moveq	r0, r1
    8ea8:	13310000 	teqne	r1, #0
    8eac:	13310102 	teqne	r1, #-2147483648	; 0x80000000
    8eb0:	0a00000d 	beq	8eec <__aeabi_fmul+0x18c>
    8eb4:	e132000c 	teq	r2, ip
    8eb8:	1a000001 	bne	8ec4 <__aeabi_fmul+0x164>
    8ebc:	e1b02480 	lsls	r2, r0, #9
    8ec0:	1a000009 	bne	8eec <__aeabi_fmul+0x18c>
    8ec4:	e133000c 	teq	r3, ip
    8ec8:	1a000002 	bne	8ed8 <__aeabi_fmul+0x178>
    8ecc:	e1b03481 	lsls	r3, r1, #9
    8ed0:	11a00001 	movne	r0, r1
    8ed4:	1a000004 	bne	8eec <__aeabi_fmul+0x18c>
    8ed8:	e0200001 	eor	r0, r0, r1
    8edc:	e2000102 	and	r0, r0, #-2147483648	; 0x80000000
    8ee0:	e380047f 	orr	r0, r0, #2130706432	; 0x7f000000
    8ee4:	e3800502 	orr	r0, r0, #8388608	; 0x800000
    8ee8:	e12fff1e 	bx	lr
    8eec:	e380047f 	orr	r0, r0, #2130706432	; 0x7f000000
    8ef0:	e3800503 	orr	r0, r0, #12582912	; 0xc00000
    8ef4:	e12fff1e 	bx	lr

00008ef8 <__aeabi_fdiv>:
    8ef8:	e3a0c0ff 	mov	ip, #255	; 0xff
    8efc:	e01c2ba0 	ands	r2, ip, r0, lsr #23
    8f00:	101c3ba1 	andsne	r3, ip, r1, lsr #23
    8f04:	1132000c 	teqne	r2, ip
    8f08:	1133000c 	teqne	r3, ip
    8f0c:	0a00003a 	beq	8ffc <__aeabi_fdiv+0x104>
    8f10:	e0422003 	sub	r2, r2, r3
    8f14:	e020c001 	eor	ip, r0, r1
    8f18:	e1b01481 	lsls	r1, r1, #9
    8f1c:	e1a00480 	lsl	r0, r0, #9
    8f20:	0a00001c 	beq	8f98 <__aeabi_fdiv+0xa0>
    8f24:	e3a03201 	mov	r3, #268435456	; 0x10000000
    8f28:	e1831221 	orr	r1, r3, r1, lsr #4
    8f2c:	e1833220 	orr	r3, r3, r0, lsr #4
    8f30:	e20c0102 	and	r0, ip, #-2147483648	; 0x80000000
    8f34:	e1530001 	cmp	r3, r1
    8f38:	31a03083 	lslcc	r3, r3, #1
    8f3c:	e2a2207d 	adc	r2, r2, #125	; 0x7d
    8f40:	e3a0c502 	mov	ip, #8388608	; 0x800000
    8f44:	e1530001 	cmp	r3, r1
    8f48:	20433001 	subcs	r3, r3, r1
    8f4c:	2180000c 	orrcs	r0, r0, ip
    8f50:	e15300a1 	cmp	r3, r1, lsr #1
    8f54:	204330a1 	subcs	r3, r3, r1, lsr #1
    8f58:	218000ac 	orrcs	r0, r0, ip, lsr #1
    8f5c:	e1530121 	cmp	r3, r1, lsr #2
    8f60:	20433121 	subcs	r3, r3, r1, lsr #2
    8f64:	2180012c 	orrcs	r0, r0, ip, lsr #2
    8f68:	e15301a1 	cmp	r3, r1, lsr #3
    8f6c:	204331a1 	subcs	r3, r3, r1, lsr #3
    8f70:	218001ac 	orrcs	r0, r0, ip, lsr #3
    8f74:	e1b03203 	lsls	r3, r3, #4
    8f78:	11b0c22c 	lsrsne	ip, ip, #4
    8f7c:	1afffff0 	bne	8f44 <__aeabi_fdiv+0x4c>
    8f80:	e35200fd 	cmp	r2, #253	; 0xfd
    8f84:	8affff9d 	bhi	8e00 <__aeabi_fmul+0xa0>
    8f88:	e1530001 	cmp	r3, r1
    8f8c:	e0a00b82 	adc	r0, r0, r2, lsl #23
    8f90:	03c00001 	biceq	r0, r0, #1
    8f94:	e12fff1e 	bx	lr
    8f98:	e20cc102 	and	ip, ip, #-2147483648	; 0x80000000
    8f9c:	e18c04a0 	orr	r0, ip, r0, lsr #9
    8fa0:	e292207f 	adds	r2, r2, #127	; 0x7f
    8fa4:	c27230ff 	rsbsgt	r3, r2, #255	; 0xff
    8fa8:	c1800b82 	orrgt	r0, r0, r2, lsl #23
    8fac:	c12fff1e 	bxgt	lr
    8fb0:	e3800502 	orr	r0, r0, #8388608	; 0x800000
    8fb4:	e3a03000 	mov	r3, #0
    8fb8:	e2522001 	subs	r2, r2, #1
    8fbc:	eaffff8f 	b	8e00 <__aeabi_fmul+0xa0>
    8fc0:	e3320000 	teq	r2, #0
    8fc4:	e200c102 	and	ip, r0, #-2147483648	; 0x80000000
    8fc8:	01a00080 	lsleq	r0, r0, #1
    8fcc:	03100502 	tsteq	r0, #8388608	; 0x800000
    8fd0:	02422001 	subeq	r2, r2, #1
    8fd4:	0afffffb 	beq	8fc8 <__aeabi_fdiv+0xd0>
    8fd8:	e180000c 	orr	r0, r0, ip
    8fdc:	e3330000 	teq	r3, #0
    8fe0:	e201c102 	and	ip, r1, #-2147483648	; 0x80000000
    8fe4:	01a01081 	lsleq	r1, r1, #1
    8fe8:	03110502 	tsteq	r1, #8388608	; 0x800000
    8fec:	02433001 	subeq	r3, r3, #1
    8ff0:	0afffffb 	beq	8fe4 <__aeabi_fdiv+0xec>
    8ff4:	e181100c 	orr	r1, r1, ip
    8ff8:	eaffffc4 	b	8f10 <__aeabi_fdiv+0x18>
    8ffc:	e00c3ba1 	and	r3, ip, r1, lsr #23
    9000:	e132000c 	teq	r2, ip
    9004:	1a000005 	bne	9020 <__aeabi_fdiv+0x128>
    9008:	e1b02480 	lsls	r2, r0, #9
    900c:	1affffb6 	bne	8eec <__aeabi_fmul+0x18c>
    9010:	e133000c 	teq	r3, ip
    9014:	1affffaf 	bne	8ed8 <__aeabi_fmul+0x178>
    9018:	e1a00001 	mov	r0, r1
    901c:	eaffffb2 	b	8eec <__aeabi_fmul+0x18c>
    9020:	e133000c 	teq	r3, ip
    9024:	1a000003 	bne	9038 <__aeabi_fdiv+0x140>
    9028:	e1b03481 	lsls	r3, r1, #9
    902c:	0affff97 	beq	8e90 <__aeabi_fmul+0x130>
    9030:	e1a00001 	mov	r0, r1
    9034:	eaffffac 	b	8eec <__aeabi_fmul+0x18c>
    9038:	e3d0c102 	bics	ip, r0, #-2147483648	; 0x80000000
    903c:	13d1c102 	bicsne	ip, r1, #-2147483648	; 0x80000000
    9040:	1affffde 	bne	8fc0 <__aeabi_fdiv+0xc8>
    9044:	e3d02102 	bics	r2, r0, #-2147483648	; 0x80000000
    9048:	1affffa2 	bne	8ed8 <__aeabi_fmul+0x178>
    904c:	e3d13102 	bics	r3, r1, #-2147483648	; 0x80000000
    9050:	1affff8e 	bne	8e90 <__aeabi_fmul+0x130>
    9054:	eaffffa4 	b	8eec <__aeabi_fmul+0x18c>
	...

00009060 <__gesf2>:
    9060:	e3e0c000 	mvn	ip, #0
    9064:	ea000002 	b	9074 <__cmpsf2+0x4>

00009068 <__lesf2>:
    9068:	e3a0c001 	mov	ip, #1
    906c:	ea000000 	b	9074 <__cmpsf2+0x4>

00009070 <__cmpsf2>:
    9070:	e3a0c001 	mov	ip, #1
    9074:	e52dc004 	push	{ip}		; (str ip, [sp, #-4]!)
    9078:	e1a02080 	lsl	r2, r0, #1
    907c:	e1a03081 	lsl	r3, r1, #1
    9080:	e1f0cc42 	mvns	ip, r2, asr #24
    9084:	11f0cc43 	mvnsne	ip, r3, asr #24
    9088:	0a000007 	beq	90ac <__cmpsf2+0x3c>
    908c:	e28dd004 	add	sp, sp, #4
    9090:	e192c0a3 	orrs	ip, r2, r3, lsr #1
    9094:	11300001 	teqne	r0, r1
    9098:	50520003 	subspl	r0, r2, r3
    909c:	81a00fc1 	asrhi	r0, r1, #31
    90a0:	31e00fc1 	mvncc	r0, r1, asr #31
    90a4:	13800001 	orrne	r0, r0, #1
    90a8:	e12fff1e 	bx	lr
    90ac:	e1f0cc42 	mvns	ip, r2, asr #24
    90b0:	1a000001 	bne	90bc <__cmpsf2+0x4c>
    90b4:	e1b0c480 	lsls	ip, r0, #9
    90b8:	1a000003 	bne	90cc <__cmpsf2+0x5c>
    90bc:	e1f0cc43 	mvns	ip, r3, asr #24
    90c0:	1afffff1 	bne	908c <__cmpsf2+0x1c>
    90c4:	e1b0c481 	lsls	ip, r1, #9
    90c8:	0affffef 	beq	908c <__cmpsf2+0x1c>
    90cc:	e49d0004 	pop	{r0}		; (ldr r0, [sp], #4)
    90d0:	e12fff1e 	bx	lr

000090d4 <__aeabi_cfrcmple>:
    90d4:	e1a0c000 	mov	ip, r0
    90d8:	e1a00001 	mov	r0, r1
    90dc:	e1a0100c 	mov	r1, ip
    90e0:	eaffffff 	b	90e4 <__aeabi_cfcmpeq>

000090e4 <__aeabi_cfcmpeq>:
    90e4:	e92d400f 	push	{r0, r1, r2, r3, lr}
    90e8:	ebffffe0 	bl	9070 <__cmpsf2>
    90ec:	e3500000 	cmp	r0, #0
    90f0:	43700000 	cmnmi	r0, #0
    90f4:	e8bd400f 	pop	{r0, r1, r2, r3, lr}
    90f8:	e12fff1e 	bx	lr

000090fc <__aeabi_fcmpeq>:
    90fc:	e52de008 	str	lr, [sp, #-8]!
    9100:	ebfffff7 	bl	90e4 <__aeabi_cfcmpeq>
    9104:	03a00001 	moveq	r0, #1
    9108:	13a00000 	movne	r0, #0
    910c:	e49de008 	ldr	lr, [sp], #8
    9110:	e12fff1e 	bx	lr

00009114 <__aeabi_fcmplt>:
    9114:	e52de008 	str	lr, [sp, #-8]!
    9118:	ebfffff1 	bl	90e4 <__aeabi_cfcmpeq>
    911c:	33a00001 	movcc	r0, #1
    9120:	23a00000 	movcs	r0, #0
    9124:	e49de008 	ldr	lr, [sp], #8
    9128:	e12fff1e 	bx	lr

0000912c <__aeabi_fcmple>:
    912c:	e52de008 	str	lr, [sp, #-8]!
    9130:	ebffffeb 	bl	90e4 <__aeabi_cfcmpeq>
    9134:	93a00001 	movls	r0, #1
    9138:	83a00000 	movhi	r0, #0
    913c:	e49de008 	ldr	lr, [sp], #8
    9140:	e12fff1e 	bx	lr

00009144 <__aeabi_fcmpge>:
    9144:	e52de008 	str	lr, [sp, #-8]!
    9148:	ebffffe1 	bl	90d4 <__aeabi_cfrcmple>
    914c:	93a00001 	movls	r0, #1
    9150:	83a00000 	movhi	r0, #0
    9154:	e49de008 	ldr	lr, [sp], #8
    9158:	e12fff1e 	bx	lr

0000915c <__aeabi_fcmpgt>:
    915c:	e52de008 	str	lr, [sp, #-8]!
    9160:	ebffffdb 	bl	90d4 <__aeabi_cfrcmple>
    9164:	33a00001 	movcc	r0, #1
    9168:	23a00000 	movcs	r0, #0
    916c:	e49de008 	ldr	lr, [sp], #8
    9170:	e12fff1e 	bx	lr
	...

00009180 <__aeabi_f2iz>:
    9180:	e1a02080 	lsl	r2, r0, #1
    9184:	e352047f 	cmp	r2, #2130706432	; 0x7f000000
    9188:	3a000008 	bcc	91b0 <__aeabi_f2iz+0x30>
    918c:	e3a0309e 	mov	r3, #158	; 0x9e
    9190:	e0532c22 	subs	r2, r3, r2, lsr #24
    9194:	9a000007 	bls	91b8 <__aeabi_f2iz+0x38>
    9198:	e1a03400 	lsl	r3, r0, #8
    919c:	e3833102 	orr	r3, r3, #-2147483648	; 0x80000000
    91a0:	e3100102 	tst	r0, #-2147483648	; 0x80000000
    91a4:	e1a00233 	lsr	r0, r3, r2
    91a8:	12600000 	rsbne	r0, r0, #0
    91ac:	e12fff1e 	bx	lr
    91b0:	e3a00000 	mov	r0, #0
    91b4:	e12fff1e 	bx	lr
    91b8:	e3720061 	cmn	r2, #97	; 0x61
    91bc:	1a000001 	bne	91c8 <__aeabi_f2iz+0x48>
    91c0:	e1b02480 	lsls	r2, r0, #9
    91c4:	1a000002 	bne	91d4 <__aeabi_f2iz+0x54>
    91c8:	e2100102 	ands	r0, r0, #-2147483648	; 0x80000000
    91cc:	03e00102 	mvneq	r0, #-2147483648	; 0x80000000
    91d0:	e12fff1e 	bx	lr
    91d4:	e3a00000 	mov	r0, #0
    91d8:	e12fff1e 	bx	lr
    91dc:	00000000 	andeq	r0, r0, r0

000091e0 <_idle_thread>:
    91e0:	e59f3010 	ldr	r3, [pc, #16]	; 91f8 <_idle_thread+0x18>
    91e4:	e59f2010 	ldr	r2, [pc, #16]	; 91fc <_idle_thread+0x1c>
    91e8:	e5933018 	ldr	r3, [r3, #24]
    91ec:	e5832018 	str	r2, [r3, #24]
    91f0:	ee070f90 	mcr	15, 0, r0, cr7, cr0, {4}
    91f4:	eafffffd 	b	91f0 <_idle_thread+0x10>
    91f8:	0000ca24 	andeq	ip, r0, r4, lsr #20
    91fc:	0000c3e0 	andeq	ip, r0, r0, ror #7

00009200 <chSysInit>:
    9200:	e52de004 	push	{lr}		; (str lr, [sp, #-4]!)
    9204:	e24dd00c 	sub	sp, sp, #12
    9208:	eb0000a0 	bl	9490 <_scheduler_init>
    920c:	eb00003f 	bl	9310 <_vt_init>
    9210:	eb0003d2 	bl	a160 <_core_init>
    9214:	eb0003f5 	bl	a1f0 <_heap_init>
    9218:	e3a01040 	mov	r1, #64	; 0x40
    921c:	e59f0040 	ldr	r0, [pc, #64]	; 9264 <chSysInit+0x64>
    9220:	eb00016a 	bl	97d0 <_thread_init>
    9224:	e3a02001 	mov	r2, #1
    9228:	e59f3038 	ldr	r3, [pc, #56]	; 9268 <chSysInit+0x68>
    922c:	e5c0201c 	strb	r2, [r0, #28]
    9230:	e5830018 	str	r0, [r3, #24]
    9234:	e321f01f 	msr	CPSR_c, #31
    9238:	e3a01000 	mov	r1, #0
    923c:	e5933018 	ldr	r3, [r3, #24]
    9240:	e59f0024 	ldr	r0, [pc, #36]	; 926c <chSysInit+0x6c>
    9244:	e5830018 	str	r0, [r3, #24]
    9248:	e58d1000 	str	r1, [sp]
    924c:	e59f301c 	ldr	r3, [pc, #28]	; 9270 <chSysInit+0x70>
    9250:	e3a0109c 	mov	r1, #156	; 0x9c
    9254:	e59f0018 	ldr	r0, [pc, #24]	; 9274 <chSysInit+0x74>
    9258:	eb000178 	bl	9840 <chThdCreateStatic>
    925c:	e28dd00c 	add	sp, sp, #12
    9260:	e49df004 	pop	{pc}		; (ldr pc, [sp], #4)
    9264:	0000c544 	andeq	ip, r0, r4, asr #10
    9268:	0000ca24 	andeq	ip, r0, r4, lsr #20
    926c:	0000c3f0 	strdeq	ip, [r0], -r0
    9270:	000091e0 	andeq	r9, r0, r0, ror #3
    9274:	0000c978 	andeq	ip, r0, r8, ror r9
	...

00009280 <chSysTimerHandlerI>:
    9280:	e92d4070 	push	{r4, r5, r6, lr}
    9284:	e59f307c 	ldr	r3, [pc, #124]	; 9308 <chSysTimerHandlerI+0x88>
    9288:	e59f407c 	ldr	r4, [pc, #124]	; 930c <chSysTimerHandlerI+0x8c>
    928c:	e5933018 	ldr	r3, [r3, #24]
    9290:	e5d3201f 	ldrb	r2, [r3, #31]
    9294:	e3520000 	cmp	r2, #0
    9298:	12422001 	subne	r2, r2, #1
    929c:	15c3201f 	strbne	r2, [r3, #31]
    92a0:	e5932020 	ldr	r2, [r3, #32]
    92a4:	e2822001 	add	r2, r2, #1
    92a8:	e5832020 	str	r2, [r3, #32]
    92ac:	e594200c 	ldr	r2, [r4, #12]
    92b0:	e5943000 	ldr	r3, [r4]
    92b4:	e2822001 	add	r2, r2, #1
    92b8:	e1530004 	cmp	r3, r4
    92bc:	e584200c 	str	r2, [r4, #12]
    92c0:	08bd8070 	popeq	{r4, r5, r6, pc}
    92c4:	e5935008 	ldr	r5, [r3, #8]
    92c8:	e2455001 	sub	r5, r5, #1
    92cc:	e3550000 	cmp	r5, #0
    92d0:	e5835008 	str	r5, [r3, #8]
    92d4:	18bd8070 	popne	{r4, r5, r6, pc}
    92d8:	e5932000 	ldr	r2, [r3]
    92dc:	e593100c 	ldr	r1, [r3, #12]
    92e0:	e5930010 	ldr	r0, [r3, #16]
    92e4:	e583500c 	str	r5, [r3, #12]
    92e8:	e5842000 	str	r2, [r4]
    92ec:	e5824004 	str	r4, [r2, #4]
    92f0:	e12fff31 	blx	r1
    92f4:	e5943000 	ldr	r3, [r4]
    92f8:	e5932008 	ldr	r2, [r3, #8]
    92fc:	e3520000 	cmp	r2, #0
    9300:	0afffff4 	beq	92d8 <chSysTimerHandlerI+0x58>
    9304:	e8bd8070 	pop	{r4, r5, r6, pc}
    9308:	0000ca24 	andeq	ip, r0, r4, lsr #20
    930c:	0000ca14 	andeq	ip, r0, r4, lsl sl

00009310 <_vt_init>:
    9310:	e3e01000 	mvn	r1, #0
    9314:	e3a02000 	mov	r2, #0
    9318:	e59f3010 	ldr	r3, [pc, #16]	; 9330 <_vt_init+0x20>
    931c:	e5831008 	str	r1, [r3, #8]
    9320:	e5833004 	str	r3, [r3, #4]
    9324:	e5833000 	str	r3, [r3]
    9328:	e583200c 	str	r2, [r3, #12]
    932c:	e12fff1e 	bx	lr
    9330:	0000ca14 	andeq	ip, r0, r4, lsl sl
	...

00009340 <chVTSetI>:
    9340:	e59fc054 	ldr	ip, [pc, #84]	; 939c <chVTSetI+0x5c>
    9344:	e580200c 	str	r2, [r0, #12]
    9348:	e59c2000 	ldr	r2, [ip]
    934c:	e5803010 	str	r3, [r0, #16]
    9350:	e5923008 	ldr	r3, [r2, #8]
    9354:	e1510003 	cmp	r1, r3
    9358:	9a000004 	bls	9370 <chVTSetI+0x30>
    935c:	e5922000 	ldr	r2, [r2]
    9360:	e0411003 	sub	r1, r1, r3
    9364:	e5923008 	ldr	r3, [r2, #8]
    9368:	e1530001 	cmp	r3, r1
    936c:	3afffffa 	bcc	935c <chVTSetI+0x1c>
    9370:	e5923004 	ldr	r3, [r2, #4]
    9374:	e152000c 	cmp	r2, ip
    9378:	e1c020f0 	strd	r2, [r0]
    937c:	e5820004 	str	r0, [r2, #4]
    9380:	e5903004 	ldr	r3, [r0, #4]
    9384:	e5830000 	str	r0, [r3]
    9388:	e5801008 	str	r1, [r0, #8]
    938c:	15923008 	ldrne	r3, [r2, #8]
    9390:	10431001 	subne	r1, r3, r1
    9394:	15821008 	strne	r1, [r2, #8]
    9398:	e12fff1e 	bx	lr
    939c:	0000ca14 	andeq	ip, r0, r4, lsl sl

000093a0 <chVTResetI>:
    93a0:	e5903000 	ldr	r3, [r0]
    93a4:	e59f202c 	ldr	r2, [pc, #44]	; 93d8 <chVTResetI+0x38>
    93a8:	e1530002 	cmp	r3, r2
    93ac:	15932008 	ldrne	r2, [r3, #8]
    93b0:	15901008 	ldrne	r1, [r0, #8]
    93b4:	10822001 	addne	r2, r2, r1
    93b8:	e3a01000 	mov	r1, #0
    93bc:	15832008 	strne	r2, [r3, #8]
    93c0:	e5902004 	ldr	r2, [r0, #4]
    93c4:	e5823000 	str	r3, [r2]
    93c8:	e5903000 	ldr	r3, [r0]
    93cc:	e5832004 	str	r2, [r3, #4]
    93d0:	e580100c 	str	r1, [r0, #12]
    93d4:	e12fff1e 	bx	lr
    93d8:	0000ca14 	andeq	ip, r0, r4, lsl sl
    93dc:	00000000 	andeq	r0, r0, r0

000093e0 <wakeup>:
    93e0:	e5d0301c 	ldrb	r3, [r0, #28]
    93e4:	e353000d 	cmp	r3, #13
    93e8:	979ff103 	ldrls	pc, [pc, r3, lsl #2]
    93ec:	ea000015 	b	9448 <wakeup+0x68>
    93f0:	00009488 	andeq	r9, r0, r8, lsl #9
    93f4:	00009448 	andeq	r9, r0, r8, asr #8
    93f8:	00009448 	andeq	r9, r0, r8, asr #8
    93fc:	00009428 	andeq	r9, r0, r8, lsr #8
    9400:	00009448 	andeq	r9, r0, r8, asr #8
    9404:	00009438 	andeq	r9, r0, r8, lsr r4
    9408:	00009448 	andeq	r9, r0, r8, asr #8
    940c:	00009448 	andeq	r9, r0, r8, asr #8
    9410:	00009448 	andeq	r9, r0, r8, asr #8
    9414:	00009448 	andeq	r9, r0, r8, asr #8
    9418:	00009448 	andeq	r9, r0, r8, asr #8
    941c:	00009448 	andeq	r9, r0, r8, asr #8
    9420:	00009448 	andeq	r9, r0, r8, asr #8
    9424:	00009438 	andeq	r9, r0, r8, lsr r4
    9428:	e5902024 	ldr	r2, [r0, #36]	; 0x24
    942c:	e5923008 	ldr	r3, [r2, #8]
    9430:	e2833001 	add	r3, r3, #1
    9434:	e5823008 	str	r3, [r2, #8]
    9438:	e5902004 	ldr	r2, [r0, #4]
    943c:	e5903000 	ldr	r3, [r0]
    9440:	e5823000 	str	r3, [r2]
    9444:	e5832004 	str	r2, [r3, #4]
    9448:	e3e0c000 	mvn	ip, #0
    944c:	e3a02000 	mov	r2, #0
    9450:	e5901008 	ldr	r1, [r0, #8]
    9454:	e59f3030 	ldr	r3, [pc, #48]	; 948c <wakeup+0xac>
    9458:	e580c024 	str	ip, [r0, #36]	; 0x24
    945c:	e5c0201c 	strb	r2, [r0, #28]
    9460:	e5933000 	ldr	r3, [r3]
    9464:	e5932008 	ldr	r2, [r3, #8]
    9468:	e1520001 	cmp	r2, r1
    946c:	2afffffb 	bcs	9460 <wakeup+0x80>
    9470:	e5932004 	ldr	r2, [r3, #4]
    9474:	e5803000 	str	r3, [r0]
    9478:	e5802004 	str	r2, [r0, #4]
    947c:	e5830004 	str	r0, [r3, #4]
    9480:	e5903004 	ldr	r3, [r0, #4]
    9484:	e5830000 	str	r0, [r3]
    9488:	e12fff1e 	bx	lr
    948c:	0000ca24 	andeq	ip, r0, r4, lsr #20

00009490 <_scheduler_init>:
    9490:	e3a02000 	mov	r2, #0
    9494:	e59f3014 	ldr	r3, [pc, #20]	; 94b0 <_scheduler_init+0x20>
    9498:	e5832008 	str	r2, [r3, #8]
    949c:	e5833004 	str	r3, [r3, #4]
    94a0:	e5833000 	str	r3, [r3]
    94a4:	e5833014 	str	r3, [r3, #20]
    94a8:	e5833010 	str	r3, [r3, #16]
    94ac:	e12fff1e 	bx	lr
    94b0:	0000ca24 	andeq	ip, r0, r4, lsr #20
	...

000094c0 <chSchReadyI>:
    94c0:	e3a02000 	mov	r2, #0
    94c4:	e5901008 	ldr	r1, [r0, #8]
    94c8:	e59f302c 	ldr	r3, [pc, #44]	; 94fc <chSchReadyI+0x3c>
    94cc:	e5c0201c 	strb	r2, [r0, #28]
    94d0:	e5933000 	ldr	r3, [r3]
    94d4:	e5932008 	ldr	r2, [r3, #8]
    94d8:	e1520001 	cmp	r2, r1
    94dc:	2afffffb 	bcs	94d0 <chSchReadyI+0x10>
    94e0:	e5932004 	ldr	r2, [r3, #4]
    94e4:	e5803000 	str	r3, [r0]
    94e8:	e5802004 	str	r2, [r0, #4]
    94ec:	e5830004 	str	r0, [r3, #4]
    94f0:	e5903004 	ldr	r3, [r0, #4]
    94f4:	e5830000 	str	r0, [r3]
    94f8:	e12fff1e 	bx	lr
    94fc:	0000ca24 	andeq	ip, r0, r4, lsr #20

00009500 <chSchGoSleepS>:
    9500:	e3a0c014 	mov	ip, #20
    9504:	e52de004 	push	{lr}		; (str lr, [sp, #-4]!)
    9508:	e3a0e001 	mov	lr, #1
    950c:	e59f302c 	ldr	r3, [pc, #44]	; 9540 <chSchGoSleepS+0x40>
    9510:	e5931018 	ldr	r1, [r3, #24]
    9514:	e5932000 	ldr	r2, [r3]
    9518:	e5c1001c 	strb	r0, [r1, #28]
    951c:	e5c1c01f 	strb	ip, [r1, #31]
    9520:	e592c000 	ldr	ip, [r2]
    9524:	e1a00002 	mov	r0, r2
    9528:	e58c3004 	str	r3, [ip, #4]
    952c:	e5c2e01c 	strb	lr, [r2, #28]
    9530:	e49de004 	pop	{lr}		; (ldr lr, [sp], #4)
    9534:	e583c000 	str	ip, [r3]
    9538:	e5832018 	str	r2, [r3, #24]
    953c:	eafffaeb 	b	80f0 <_port_switch_arm>
    9540:	0000ca24 	andeq	ip, r0, r4, lsr #20
	...

00009550 <chSchGoSleepTimeoutS>:
    9550:	e92d4030 	push	{r4, r5, lr}
    9554:	e3710001 	cmn	r1, #1
    9558:	e24dd01c 	sub	sp, sp, #28
    955c:	0a000010 	beq	95a4 <chSchGoSleepTimeoutS+0x54>
    9560:	e1a04000 	mov	r4, r0
    9564:	e59f5050 	ldr	r5, [pc, #80]	; 95bc <chSchGoSleepTimeoutS+0x6c>
    9568:	e59f2050 	ldr	r2, [pc, #80]	; 95c0 <chSchGoSleepTimeoutS+0x70>
    956c:	e5953018 	ldr	r3, [r5, #24]
    9570:	e28d0004 	add	r0, sp, #4
    9574:	ebffff71 	bl	9340 <chVTSetI>
    9578:	e1a00004 	mov	r0, r4
    957c:	ebffffdf 	bl	9500 <chSchGoSleepS>
    9580:	e59d3010 	ldr	r3, [sp, #16]
    9584:	e3530000 	cmp	r3, #0
    9588:	0a000001 	beq	9594 <chSchGoSleepTimeoutS+0x44>
    958c:	e28d0004 	add	r0, sp, #4
    9590:	ebffff82 	bl	93a0 <chVTResetI>
    9594:	e5953018 	ldr	r3, [r5, #24]
    9598:	e5930024 	ldr	r0, [r3, #36]	; 0x24
    959c:	e28dd01c 	add	sp, sp, #28
    95a0:	e8bd8030 	pop	{r4, r5, pc}
    95a4:	ebffffd5 	bl	9500 <chSchGoSleepS>
    95a8:	e59f500c 	ldr	r5, [pc, #12]	; 95bc <chSchGoSleepTimeoutS+0x6c>
    95ac:	e5953018 	ldr	r3, [r5, #24]
    95b0:	e5930024 	ldr	r0, [r3, #36]	; 0x24
    95b4:	e28dd01c 	add	sp, sp, #28
    95b8:	e8bd8030 	pop	{r4, r5, pc}
    95bc:	0000ca24 	andeq	ip, r0, r4, lsr #20
    95c0:	000093e0 	andeq	r9, r0, r0, ror #7
	...

000095d0 <chSchWakeupS>:
    95d0:	e59f2094 	ldr	r2, [pc, #148]	; 966c <chSchWakeupS+0x9c>
    95d4:	e92d4010 	push	{r4, lr}
    95d8:	e5924018 	ldr	r4, [r2, #24]
    95dc:	e590c008 	ldr	ip, [r0, #8]
    95e0:	e594e008 	ldr	lr, [r4, #8]
    95e4:	e5801024 	str	r1, [r0, #36]	; 0x24
    95e8:	e15c000e 	cmp	ip, lr
    95ec:	e3a01000 	mov	r1, #0
    95f0:	e1a03002 	mov	r3, r2
    95f4:	8a00000b 	bhi	9628 <chSchWakeupS+0x58>
    95f8:	e5c0101c 	strb	r1, [r0, #28]
    95fc:	e5933000 	ldr	r3, [r3]
    9600:	e5932008 	ldr	r2, [r3, #8]
    9604:	e15c0002 	cmp	ip, r2
    9608:	9afffffb 	bls	95fc <chSchWakeupS+0x2c>
    960c:	e5932004 	ldr	r2, [r3, #4]
    9610:	e5803000 	str	r3, [r0]
    9614:	e5802004 	str	r2, [r0, #4]
    9618:	e5830004 	str	r0, [r3, #4]
    961c:	e5903004 	ldr	r3, [r0, #4]
    9620:	e5830000 	str	r0, [r3]
    9624:	e8bd8010 	pop	{r4, pc}
    9628:	e5c4101c 	strb	r1, [r4, #28]
    962c:	e5933000 	ldr	r3, [r3]
    9630:	e593c008 	ldr	ip, [r3, #8]
    9634:	e15e000c 	cmp	lr, ip
    9638:	9afffffb 	bls	962c <chSchWakeupS+0x5c>
    963c:	e3a0c001 	mov	ip, #1
    9640:	e5931004 	ldr	r1, [r3, #4]
    9644:	e5843000 	str	r3, [r4]
    9648:	e5841004 	str	r1, [r4, #4]
    964c:	e5834004 	str	r4, [r3, #4]
    9650:	e5943004 	ldr	r3, [r4, #4]
    9654:	e1a01004 	mov	r1, r4
    9658:	e5834000 	str	r4, [r3]
    965c:	e5c0c01c 	strb	ip, [r0, #28]
    9660:	e8bd4010 	pop	{r4, lr}
    9664:	e5820018 	str	r0, [r2, #24]
    9668:	eafffaa0 	b	80f0 <_port_switch_arm>
    966c:	0000ca24 	andeq	ip, r0, r4, lsr #20

00009670 <chSchIsPreemptionRequired>:
    9670:	e59f2038 	ldr	r2, [pc, #56]	; 96b0 <chSchIsPreemptionRequired+0x40>
    9674:	e5923018 	ldr	r3, [r2, #24]
    9678:	e5921000 	ldr	r1, [r2]
    967c:	e5d3201f 	ldrb	r2, [r3, #31]
    9680:	e5910008 	ldr	r0, [r1, #8]
    9684:	e3520000 	cmp	r2, #0
    9688:	e5933008 	ldr	r3, [r3, #8]
    968c:	0a000003 	beq	96a0 <chSchIsPreemptionRequired+0x30>
    9690:	e1500003 	cmp	r0, r3
    9694:	93a00000 	movls	r0, #0
    9698:	83a00001 	movhi	r0, #1
    969c:	e12fff1e 	bx	lr
    96a0:	e1500003 	cmp	r0, r3
    96a4:	33a00000 	movcc	r0, #0
    96a8:	23a00001 	movcs	r0, #1
    96ac:	e12fff1e 	bx	lr
    96b0:	0000ca24 	andeq	ip, r0, r4, lsr #20
	...

000096c0 <chSchDoRescheduleBehind>:
    96c0:	e92d4030 	push	{r4, r5, lr}
    96c4:	e3a05001 	mov	r5, #1
    96c8:	e3a04014 	mov	r4, #20
    96cc:	e3a0e000 	mov	lr, #0
    96d0:	e59f205c 	ldr	r2, [pc, #92]	; 9734 <chSchDoRescheduleBehind+0x74>
    96d4:	e5920000 	ldr	r0, [r2]
    96d8:	e5921018 	ldr	r1, [r2, #24]
    96dc:	e590c000 	ldr	ip, [r0]
    96e0:	e1a03000 	mov	r3, r0
    96e4:	e58c2004 	str	r2, [ip, #4]
    96e8:	e5c0501c 	strb	r5, [r0, #28]
    96ec:	e582c000 	str	ip, [r2]
    96f0:	e5820018 	str	r0, [r2, #24]
    96f4:	e591c008 	ldr	ip, [r1, #8]
    96f8:	e5c1401f 	strb	r4, [r1, #31]
    96fc:	e5c1e01c 	strb	lr, [r1, #28]
    9700:	ea000000 	b	9708 <chSchDoRescheduleBehind+0x48>
    9704:	e5933000 	ldr	r3, [r3]
    9708:	e5932008 	ldr	r2, [r3, #8]
    970c:	e152000c 	cmp	r2, ip
    9710:	2afffffb 	bcs	9704 <chSchDoRescheduleBehind+0x44>
    9714:	e8bd4030 	pop	{r4, r5, lr}
    9718:	e5932004 	ldr	r2, [r3, #4]
    971c:	e5813000 	str	r3, [r1]
    9720:	e5812004 	str	r2, [r1, #4]
    9724:	e5831004 	str	r1, [r3, #4]
    9728:	e5913004 	ldr	r3, [r1, #4]
    972c:	e5831000 	str	r1, [r3]
    9730:	eafffa6e 	b	80f0 <_port_switch_arm>
    9734:	0000ca24 	andeq	ip, r0, r4, lsr #20
	...

00009740 <chSchDoRescheduleAhead>:
    9740:	e92d4010 	push	{r4, lr}
    9744:	e3a04001 	mov	r4, #1
    9748:	e3a0e000 	mov	lr, #0
    974c:	e59f2058 	ldr	r2, [pc, #88]	; 97ac <chSchDoRescheduleAhead+0x6c>
    9750:	e5920000 	ldr	r0, [r2]
    9754:	e5921018 	ldr	r1, [r2, #24]
    9758:	e590c000 	ldr	ip, [r0]
    975c:	e1a03000 	mov	r3, r0
    9760:	e58c2004 	str	r2, [ip, #4]
    9764:	e5c0401c 	strb	r4, [r0, #28]
    9768:	e582c000 	str	ip, [r2]
    976c:	e5c1e01c 	strb	lr, [r1, #28]
    9770:	e591c008 	ldr	ip, [r1, #8]
    9774:	e5820018 	str	r0, [r2, #24]
    9778:	ea000000 	b	9780 <chSchDoRescheduleAhead+0x40>
    977c:	e5933000 	ldr	r3, [r3]
    9780:	e5932008 	ldr	r2, [r3, #8]
    9784:	e152000c 	cmp	r2, ip
    9788:	8afffffb 	bhi	977c <chSchDoRescheduleAhead+0x3c>
    978c:	e8bd4010 	pop	{r4, lr}
    9790:	e5932004 	ldr	r2, [r3, #4]
    9794:	e5813000 	str	r3, [r1]
    9798:	e5812004 	str	r2, [r1, #4]
    979c:	e5831004 	str	r1, [r3, #4]
    97a0:	e5913004 	ldr	r3, [r1, #4]
    97a4:	e5831000 	str	r1, [r3]
    97a8:	eafffa50 	b	80f0 <_port_switch_arm>
    97ac:	0000ca24 	andeq	ip, r0, r4, lsr #20

000097b0 <chSchDoReschedule>:
    97b0:	e59f3014 	ldr	r3, [pc, #20]	; 97cc <chSchDoReschedule+0x1c>
    97b4:	e5933018 	ldr	r3, [r3, #24]
    97b8:	e5d3301f 	ldrb	r3, [r3, #31]
    97bc:	e3530000 	cmp	r3, #0
    97c0:	1a000000 	bne	97c8 <chSchDoReschedule+0x18>
    97c4:	eaffffbd 	b	96c0 <chSchDoRescheduleBehind>
    97c8:	eaffffdc 	b	9740 <chSchDoRescheduleAhead>
    97cc:	0000ca24 	andeq	ip, r0, r4, lsr #20

000097d0 <_thread_init>:
    97d0:	e92d4030 	push	{r4, r5, lr}
    97d4:	e3a0e014 	mov	lr, #20
    97d8:	e3a04001 	mov	r4, #1
    97dc:	e3a02000 	mov	r2, #0
    97e0:	e3a05002 	mov	r5, #2
    97e4:	e59fc04c 	ldr	ip, [pc, #76]	; 9838 <_thread_init+0x68>
    97e8:	e5c0e01f 	strb	lr, [r0, #31]
    97ec:	e59ce014 	ldr	lr, [ip, #20]
    97f0:	e5801008 	str	r1, [r0, #8]
    97f4:	e5801040 	str	r1, [r0, #64]	; 0x40
    97f8:	e5c0401e 	strb	r4, [r0, #30]
    97fc:	e280102c 	add	r1, r0, #44	; 0x2c
    9800:	e2804028 	add	r4, r0, #40	; 0x28
    9804:	e580c010 	str	ip, [r0, #16]
    9808:	e580e014 	str	lr, [r0, #20]
    980c:	e1c051bc 	strh	r5, [r0, #28]
    9810:	e580203c 	str	r2, [r0, #60]	; 0x3c
    9814:	e58c0014 	str	r0, [ip, #20]
    9818:	e5802038 	str	r2, [r0, #56]	; 0x38
    981c:	e5802020 	str	r2, [r0, #32]
    9820:	e5802018 	str	r2, [r0, #24]
    9824:	e58e0010 	str	r0, [lr, #16]
    9828:	e5804028 	str	r4, [r0, #40]	; 0x28
    982c:	e5801030 	str	r1, [r0, #48]	; 0x30
    9830:	e580102c 	str	r1, [r0, #44]	; 0x2c
    9834:	e8bd8030 	pop	{r4, r5, pc}
    9838:	0000ca24 	andeq	ip, r0, r4, lsr #20
    983c:	00000000 	andeq	r0, r0, r0

00009840 <chThdCreateStatic>:
    9840:	e92d41f0 	push	{r4, r5, r6, r7, r8, lr}
    9844:	e1a0c001 	mov	ip, r1
    9848:	e1a04000 	mov	r4, r0
    984c:	e59d8018 	ldr	r8, [sp, #24]
    9850:	e321f09f 	msr	CPSR_c, #159	; 0x9f
    9854:	e3a01000 	mov	r1, #0
    9858:	e3a07002 	mov	r7, #2
    985c:	e3a06014 	mov	r6, #20
    9860:	e3a05001 	mov	r5, #1
    9864:	e24cc024 	sub	ip, ip, #36	; 0x24
    9868:	e080e00c 	add	lr, r0, ip
    986c:	e580e00c 	str	lr, [r0, #12]
    9870:	e780300c 	str	r3, [r0, ip]
    9874:	e59f3064 	ldr	r3, [pc, #100]	; 98e0 <chThdCreateStatic+0xa0>
    9878:	e59fc064 	ldr	ip, [pc, #100]	; 98e4 <chThdCreateStatic+0xa4>
    987c:	e58e8004 	str	r8, [lr, #4]
    9880:	e58ec020 	str	ip, [lr, #32]
    9884:	e593c014 	ldr	ip, [r3, #20]
    9888:	e5802008 	str	r2, [r0, #8]
    988c:	e5802040 	str	r2, [r0, #64]	; 0x40
    9890:	e280e028 	add	lr, r0, #40	; 0x28
    9894:	e280202c 	add	r2, r0, #44	; 0x2c
    9898:	e5803010 	str	r3, [r0, #16]
    989c:	e580c014 	str	ip, [r0, #20]
    98a0:	e1c071bc 	strh	r7, [r0, #28]
    98a4:	e5c0601f 	strb	r6, [r0, #31]
    98a8:	e5c0501e 	strb	r5, [r0, #30]
    98ac:	e580103c 	str	r1, [r0, #60]	; 0x3c
    98b0:	e5830014 	str	r0, [r3, #20]
    98b4:	e5801038 	str	r1, [r0, #56]	; 0x38
    98b8:	e5801020 	str	r1, [r0, #32]
    98bc:	e5801018 	str	r1, [r0, #24]
    98c0:	e58c0010 	str	r0, [ip, #16]
    98c4:	e580e028 	str	lr, [r0, #40]	; 0x28
    98c8:	e5802030 	str	r2, [r0, #48]	; 0x30
    98cc:	e580202c 	str	r2, [r0, #44]	; 0x2c
    98d0:	ebffff3e 	bl	95d0 <chSchWakeupS>
    98d4:	e321f01f 	msr	CPSR_c, #31
    98d8:	e1a00004 	mov	r0, r4
    98dc:	e8bd81f0 	pop	{r4, r5, r6, r7, r8, pc}
    98e0:	0000ca24 	andeq	ip, r0, r4, lsr #20
    98e4:	00008160 	andeq	r8, r0, r0, ror #2
	...

000098f0 <chThdSleep>:
    98f0:	e1a01000 	mov	r1, r0
    98f4:	e92d4010 	push	{r4, lr}
    98f8:	e321f09f 	msr	CPSR_c, #159	; 0x9f
    98fc:	e3a00006 	mov	r0, #6
    9900:	ebffff12 	bl	9550 <chSchGoSleepTimeoutS>
    9904:	e321f01f 	msr	CPSR_c, #31
    9908:	e8bd8010 	pop	{r4, pc}
    990c:	00000000 	andeq	r0, r0, r0

00009910 <chThdExitS>:
    9910:	e59f2058 	ldr	r2, [pc, #88]	; 9970 <chThdExitS+0x60>
    9914:	e92d4070 	push	{r4, r5, r6, lr}
    9918:	e5924018 	ldr	r4, [r2, #24]
    991c:	e1a03000 	mov	r3, r0
    9920:	e1a05004 	mov	r5, r4
    9924:	e5b50028 	ldr	r0, [r5, #40]!	; 0x28
    9928:	e5843024 	str	r3, [r4, #36]	; 0x24
    992c:	e1550000 	cmp	r5, r0
    9930:	0a000005 	beq	994c <chThdExitS+0x3c>
    9934:	e5903000 	ldr	r3, [r0]
    9938:	e5843028 	str	r3, [r4, #40]	; 0x28
    993c:	ebfffedf 	bl	94c0 <chSchReadyI>
    9940:	e5940028 	ldr	r0, [r4, #40]	; 0x28
    9944:	e1500005 	cmp	r0, r5
    9948:	1afffff9 	bne	9934 <chThdExitS+0x24>
    994c:	e5d4301d 	ldrb	r3, [r4, #29]
    9950:	e3a0000e 	mov	r0, #14
    9954:	e3130003 	tst	r3, #3
    9958:	05942014 	ldreq	r2, [r4, #20]
    995c:	05943010 	ldreq	r3, [r4, #16]
    9960:	e8bd4070 	pop	{r4, r5, r6, lr}
    9964:	05823010 	streq	r3, [r2, #16]
    9968:	05832014 	streq	r2, [r3, #20]
    996c:	eafffee3 	b	9500 <chSchGoSleepS>
    9970:	0000ca24 	andeq	ip, r0, r4, lsr #20
	...

00009980 <chThdExit>:
    9980:	e321f09f 	msr	CPSR_c, #159	; 0x9f
    9984:	eaffffe1 	b	9910 <chThdExitS>
	...

00009990 <chThdWait>:
    9990:	e92d4070 	push	{r4, r5, r6, lr}
    9994:	e1a04000 	mov	r4, r0
    9998:	e321f09f 	msr	CPSR_c, #159	; 0x9f
    999c:	e5d0301c 	ldrb	r3, [r0, #28]
    99a0:	e353000e 	cmp	r3, #14
    99a4:	0a000006 	beq	99c4 <chThdWait+0x34>
    99a8:	e59f302c 	ldr	r3, [pc, #44]	; 99dc <chThdWait+0x4c>
    99ac:	e5902028 	ldr	r2, [r0, #40]	; 0x28
    99b0:	e5933018 	ldr	r3, [r3, #24]
    99b4:	e3a00007 	mov	r0, #7
    99b8:	e5832000 	str	r2, [r3]
    99bc:	e5843028 	str	r3, [r4, #40]	; 0x28
    99c0:	ebfffece 	bl	9500 <chSchGoSleepS>
    99c4:	e5945024 	ldr	r5, [r4, #36]	; 0x24
    99c8:	e321f01f 	msr	CPSR_c, #31
    99cc:	e1a00004 	mov	r0, r4
    99d0:	eb000002 	bl	99e0 <chThdRelease>
    99d4:	e1a00005 	mov	r0, r5
    99d8:	e8bd8070 	pop	{r4, r5, r6, pc}
    99dc:	0000ca24 	andeq	ip, r0, r4, lsr #20

000099e0 <chThdRelease>:
    99e0:	e321f09f 	msr	CPSR_c, #159	; 0x9f
    99e4:	e5d0301e 	ldrb	r3, [r0, #30]
    99e8:	e2433001 	sub	r3, r3, #1
    99ec:	e6ef3073 	uxtb	r3, r3
    99f0:	e5c0301e 	strb	r3, [r0, #30]
    99f4:	e321f01f 	msr	CPSR_c, #31
    99f8:	e3530000 	cmp	r3, #0
    99fc:	112fff1e 	bxne	lr
    9a00:	e5d0301c 	ldrb	r3, [r0, #28]
    9a04:	e353000e 	cmp	r3, #14
    9a08:	112fff1e 	bxne	lr
    9a0c:	e5d0301d 	ldrb	r3, [r0, #29]
    9a10:	e2033003 	and	r3, r3, #3
    9a14:	e3530001 	cmp	r3, #1
    9a18:	112fff1e 	bxne	lr
    9a1c:	e5901014 	ldr	r1, [r0, #20]
    9a20:	e5903010 	ldr	r3, [r0, #16]
    9a24:	e5813010 	str	r3, [r1, #16]
    9a28:	e5831014 	str	r1, [r3, #20]
    9a2c:	ea0001fb 	b	a220 <chHeapFree>

00009a30 <chMtxInit>:
    9a30:	e3a03000 	mov	r3, #0
    9a34:	e5800004 	str	r0, [r0, #4]
    9a38:	e5800000 	str	r0, [r0]
    9a3c:	e5803008 	str	r3, [r0, #8]
    9a40:	e12fff1e 	bx	lr
	...

00009a50 <chMtxLockS>:
    9a50:	e92d4070 	push	{r4, r5, r6, lr}
    9a54:	e1a05000 	mov	r5, r0
    9a58:	e5900008 	ldr	r0, [r0, #8]
    9a5c:	e59f3164 	ldr	r3, [pc, #356]	; 9bc8 <chMtxLockS+0x178>
    9a60:	e3500000 	cmp	r0, #0
    9a64:	e5934018 	ldr	r4, [r3, #24]
    9a68:	0a00001e 	beq	9ae8 <chMtxLockS+0x98>
    9a6c:	e5942008 	ldr	r2, [r4, #8]
    9a70:	e5903008 	ldr	r3, [r0, #8]
    9a74:	e1530002 	cmp	r3, r2
    9a78:	2a000007 	bcs	9a9c <chMtxLockS+0x4c>
    9a7c:	e5d0301c 	ldrb	r3, [r0, #28]
    9a80:	e5802008 	str	r2, [r0, #8]
    9a84:	e3530004 	cmp	r3, #4
    9a88:	0a000035 	beq	9b64 <chMtxLockS+0x114>
    9a8c:	e3530005 	cmp	r3, #5
    9a90:	0a00001f 	beq	9b14 <chMtxLockS+0xc4>
    9a94:	e3530000 	cmp	r3, #0
    9a98:	0a000017 	beq	9afc <chMtxLockS+0xac>
    9a9c:	e1a03005 	mov	r3, r5
    9aa0:	ea000003 	b	9ab4 <chMtxLockS+0x64>
    9aa4:	e5931008 	ldr	r1, [r3, #8]
    9aa8:	e5942008 	ldr	r2, [r4, #8]
    9aac:	e1510002 	cmp	r1, r2
    9ab0:	3a000002 	bcc	9ac0 <chMtxLockS+0x70>
    9ab4:	e5933000 	ldr	r3, [r3]
    9ab8:	e1550003 	cmp	r5, r3
    9abc:	1afffff8 	bne	9aa4 <chMtxLockS+0x54>
    9ac0:	e5932004 	ldr	r2, [r3, #4]
    9ac4:	e5843000 	str	r3, [r4]
    9ac8:	e5842004 	str	r2, [r4, #4]
    9acc:	e5834004 	str	r4, [r3, #4]
    9ad0:	e5943004 	ldr	r3, [r4, #4]
    9ad4:	e3a00004 	mov	r0, #4
    9ad8:	e5834000 	str	r4, [r3]
    9adc:	e5845024 	str	r5, [r4, #36]	; 0x24
    9ae0:	e8bd4070 	pop	{r4, r5, r6, lr}
    9ae4:	eafffe85 	b	9500 <chSchGoSleepS>
    9ae8:	e594303c 	ldr	r3, [r4, #60]	; 0x3c
    9aec:	e5854008 	str	r4, [r5, #8]
    9af0:	e585300c 	str	r3, [r5, #12]
    9af4:	e584503c 	str	r5, [r4, #60]	; 0x3c
    9af8:	e8bd8070 	pop	{r4, r5, r6, pc}
    9afc:	e5902004 	ldr	r2, [r0, #4]
    9b00:	e5903000 	ldr	r3, [r0]
    9b04:	e5823000 	str	r3, [r2]
    9b08:	e5832004 	str	r2, [r3, #4]
    9b0c:	ebfffe6b 	bl	94c0 <chSchReadyI>
    9b10:	eaffffe1 	b	9a9c <chMtxLockS+0x4c>
    9b14:	e590c024 	ldr	ip, [r0, #36]	; 0x24
    9b18:	e590e004 	ldr	lr, [r0, #4]
    9b1c:	e5901000 	ldr	r1, [r0]
    9b20:	e1a0300c 	mov	r3, ip
    9b24:	e58e1000 	str	r1, [lr]
    9b28:	e581e004 	str	lr, [r1, #4]
    9b2c:	ea000002 	b	9b3c <chMtxLockS+0xec>
    9b30:	e5931008 	ldr	r1, [r3, #8]
    9b34:	e1520001 	cmp	r2, r1
    9b38:	8a000002 	bhi	9b48 <chMtxLockS+0xf8>
    9b3c:	e5933000 	ldr	r3, [r3]
    9b40:	e15c0003 	cmp	ip, r3
    9b44:	1afffff9 	bne	9b30 <chMtxLockS+0xe0>
    9b48:	e5932004 	ldr	r2, [r3, #4]
    9b4c:	e5803000 	str	r3, [r0]
    9b50:	e5802004 	str	r2, [r0, #4]
    9b54:	e5830004 	str	r0, [r3, #4]
    9b58:	e5903004 	ldr	r3, [r0, #4]
    9b5c:	e5830000 	str	r0, [r3]
    9b60:	eaffffcd 	b	9a9c <chMtxLockS+0x4c>
    9b64:	e590c024 	ldr	ip, [r0, #36]	; 0x24
    9b68:	e590e004 	ldr	lr, [r0, #4]
    9b6c:	e5901000 	ldr	r1, [r0]
    9b70:	e1a0300c 	mov	r3, ip
    9b74:	e58e1000 	str	r1, [lr]
    9b78:	e581e004 	str	lr, [r1, #4]
    9b7c:	ea000002 	b	9b8c <chMtxLockS+0x13c>
    9b80:	e5931008 	ldr	r1, [r3, #8]
    9b84:	e1520001 	cmp	r2, r1
    9b88:	8a000002 	bhi	9b98 <chMtxLockS+0x148>
    9b8c:	e5933000 	ldr	r3, [r3]
    9b90:	e15c0003 	cmp	ip, r3
    9b94:	1afffff9 	bne	9b80 <chMtxLockS+0x130>
    9b98:	e5932004 	ldr	r2, [r3, #4]
    9b9c:	e5803000 	str	r3, [r0]
    9ba0:	e5802004 	str	r2, [r0, #4]
    9ba4:	e5830004 	str	r0, [r3, #4]
    9ba8:	e5903004 	ldr	r3, [r0, #4]
    9bac:	e5942008 	ldr	r2, [r4, #8]
    9bb0:	e5830000 	str	r0, [r3]
    9bb4:	e59c0008 	ldr	r0, [ip, #8]
    9bb8:	e5903008 	ldr	r3, [r0, #8]
    9bbc:	e1530002 	cmp	r3, r2
    9bc0:	3affffad 	bcc	9a7c <chMtxLockS+0x2c>
    9bc4:	eaffffb4 	b	9a9c <chMtxLockS+0x4c>
    9bc8:	0000ca24 	andeq	ip, r0, r4, lsr #20
    9bcc:	00000000 	andeq	r0, r0, r0

00009bd0 <chMtxLock>:
    9bd0:	e92d4010 	push	{r4, lr}
    9bd4:	e321f09f 	msr	CPSR_c, #159	; 0x9f
    9bd8:	ebffff9c 	bl	9a50 <chMtxLockS>
    9bdc:	e321f01f 	msr	CPSR_c, #31
    9be0:	e8bd8010 	pop	{r4, pc}
	...

00009bf0 <chMtxUnlock>:
    9bf0:	e59f3090 	ldr	r3, [pc, #144]	; 9c88 <chMtxUnlock+0x98>
    9bf4:	e92d4010 	push	{r4, lr}
    9bf8:	e593c018 	ldr	ip, [r3, #24]
    9bfc:	e321f09f 	msr	CPSR_c, #159	; 0x9f
    9c00:	e59c403c 	ldr	r4, [ip, #60]	; 0x3c
    9c04:	e5940000 	ldr	r0, [r4]
    9c08:	e594300c 	ldr	r3, [r4, #12]
    9c0c:	e1500004 	cmp	r0, r4
    9c10:	e58c303c 	str	r3, [ip, #60]	; 0x3c
    9c14:	0a000018 	beq	9c7c <chMtxUnlock+0x8c>
    9c18:	e3530000 	cmp	r3, #0
    9c1c:	e59c1040 	ldr	r1, [ip, #64]	; 0x40
    9c20:	0a000008 	beq	9c48 <chMtxUnlock+0x58>
    9c24:	e5932000 	ldr	r2, [r3]
    9c28:	e1520003 	cmp	r2, r3
    9c2c:	0a000002 	beq	9c3c <chMtxUnlock+0x4c>
    9c30:	e5922008 	ldr	r2, [r2, #8]
    9c34:	e1510002 	cmp	r1, r2
    9c38:	31a01002 	movcc	r1, r2
    9c3c:	e593300c 	ldr	r3, [r3, #12]
    9c40:	e3530000 	cmp	r3, #0
    9c44:	1afffff6 	bne	9c24 <chMtxUnlock+0x34>
    9c48:	e590203c 	ldr	r2, [r0, #60]	; 0x3c
    9c4c:	e5903000 	ldr	r3, [r0]
    9c50:	e58c1008 	str	r1, [ip, #8]
    9c54:	e5843000 	str	r3, [r4]
    9c58:	e3a01000 	mov	r1, #0
    9c5c:	e5834004 	str	r4, [r3, #4]
    9c60:	e5840008 	str	r0, [r4, #8]
    9c64:	e584200c 	str	r2, [r4, #12]
    9c68:	e580403c 	str	r4, [r0, #60]	; 0x3c
    9c6c:	ebfffe57 	bl	95d0 <chSchWakeupS>
    9c70:	e321f01f 	msr	CPSR_c, #31
    9c74:	e1a00004 	mov	r0, r4
    9c78:	e8bd8010 	pop	{r4, pc}
    9c7c:	e3a03000 	mov	r3, #0
    9c80:	e5843008 	str	r3, [r4, #8]
    9c84:	eafffff9 	b	9c70 <chMtxUnlock+0x80>
    9c88:	0000ca24 	andeq	ip, r0, r4, lsr #20
    9c8c:	00000000 	andeq	r0, r0, r0

00009c90 <chEvtSignalI>:
    9c90:	e5902038 	ldr	r2, [r0, #56]	; 0x38
    9c94:	e5d0301c 	ldrb	r3, [r0, #28]
    9c98:	e1811002 	orr	r1, r1, r2
    9c9c:	e3530008 	cmp	r3, #8
    9ca0:	e5801038 	str	r1, [r0, #56]	; 0x38
    9ca4:	0a000009 	beq	9cd0 <chEvtSignalI+0x40>
    9ca8:	e3530009 	cmp	r3, #9
    9cac:	112fff1e 	bxne	lr
    9cb0:	e5903024 	ldr	r3, [r0, #36]	; 0x24
    9cb4:	e1d33001 	bics	r3, r3, r1
    9cb8:	112fff1e 	bxne	lr
    9cbc:	e92d4010 	push	{r4, lr}
    9cc0:	ebfffdfe 	bl	94c0 <chSchReadyI>
    9cc4:	e3a03000 	mov	r3, #0
    9cc8:	e5803024 	str	r3, [r0, #36]	; 0x24
    9ccc:	e8bd8010 	pop	{r4, pc}
    9cd0:	e5903024 	ldr	r3, [r0, #36]	; 0x24
    9cd4:	e1110003 	tst	r1, r3
    9cd8:	012fff1e 	bxeq	lr
    9cdc:	eafffff6 	b	9cbc <chEvtSignalI+0x2c>

00009ce0 <chEvtBroadcastFlagsI>:
    9ce0:	e92d4070 	push	{r4, r5, r6, lr}
    9ce4:	e5904000 	ldr	r4, [r0]
    9ce8:	e1500004 	cmp	r0, r4
    9cec:	08bd8070 	popeq	{r4, r5, r6, pc}
    9cf0:	e1a05000 	mov	r5, r0
    9cf4:	e1a06001 	mov	r6, r1
    9cf8:	e594300c 	ldr	r3, [r4, #12]
    9cfc:	e5941008 	ldr	r1, [r4, #8]
    9d00:	e1833006 	orr	r3, r3, r6
    9d04:	e5940004 	ldr	r0, [r4, #4]
    9d08:	e584300c 	str	r3, [r4, #12]
    9d0c:	ebffffdf 	bl	9c90 <chEvtSignalI>
    9d10:	e5944000 	ldr	r4, [r4]
    9d14:	e1550004 	cmp	r5, r4
    9d18:	1afffff6 	bne	9cf8 <chEvtBroadcastFlagsI+0x18>
    9d1c:	e8bd8070 	pop	{r4, r5, r6, pc}

00009d20 <qwait>:
    9d20:	e3510000 	cmp	r1, #0
    9d24:	e1a03000 	mov	r3, r0
    9d28:	0a000008 	beq	9d50 <qwait+0x30>
    9d2c:	e59f2024 	ldr	r2, [pc, #36]	; 9d58 <qwait+0x38>
    9d30:	e590c004 	ldr	ip, [r0, #4]
    9d34:	e5922018 	ldr	r2, [r2, #24]
    9d38:	e3a0000d 	mov	r0, #13
    9d3c:	e8821008 	stm	r2, {r3, ip}
    9d40:	e5823024 	str	r3, [r2, #36]	; 0x24
    9d44:	e5832004 	str	r2, [r3, #4]
    9d48:	e58c2000 	str	r2, [ip]
    9d4c:	eafffdff 	b	9550 <chSchGoSleepTimeoutS>
    9d50:	e3e00000 	mvn	r0, #0
    9d54:	e12fff1e 	bx	lr
    9d58:	0000ca24 	andeq	ip, r0, r4, lsr #20
    9d5c:	00000000 	andeq	r0, r0, r0

00009d60 <chIQInit>:
    9d60:	e52de004 	push	{lr}		; (str lr, [sp, #-4]!)
    9d64:	e3a0e000 	mov	lr, #0
    9d68:	e59dc004 	ldr	ip, [sp, #4]
    9d6c:	e0812002 	add	r2, r1, r2
    9d70:	e5800004 	str	r0, [r0, #4]
    9d74:	e5800000 	str	r0, [r0]
    9d78:	e5801014 	str	r1, [r0, #20]
    9d7c:	e5801018 	str	r1, [r0, #24]
    9d80:	e580100c 	str	r1, [r0, #12]
    9d84:	e5802010 	str	r2, [r0, #16]
    9d88:	e580301c 	str	r3, [r0, #28]
    9d8c:	e580e008 	str	lr, [r0, #8]
    9d90:	e580c020 	str	ip, [r0, #32]
    9d94:	e49df004 	pop	{pc}		; (ldr pc, [sp], #4)
	...

00009da0 <chIQPutI>:
    9da0:	e1a03000 	mov	r3, r0
    9da4:	e5900014 	ldr	r0, [r0, #20]
    9da8:	e5932018 	ldr	r2, [r3, #24]
    9dac:	e1500002 	cmp	r0, r2
    9db0:	e5932008 	ldr	r2, [r3, #8]
    9db4:	0a000018 	beq	9e1c <chIQPutI+0x7c>
    9db8:	e2822001 	add	r2, r2, #1
    9dbc:	e280c001 	add	ip, r0, #1
    9dc0:	e583c014 	str	ip, [r3, #20]
    9dc4:	e5832008 	str	r2, [r3, #8]
    9dc8:	e5c01000 	strb	r1, [r0]
    9dcc:	e5932010 	ldr	r2, [r3, #16]
    9dd0:	e5931014 	ldr	r1, [r3, #20]
    9dd4:	e5930000 	ldr	r0, [r3]
    9dd8:	e1510002 	cmp	r1, r2
    9ddc:	2593200c 	ldrcs	r2, [r3, #12]
    9de0:	25832014 	strcs	r2, [r3, #20]
    9de4:	e1500003 	cmp	r0, r3
    9de8:	0a000009 	beq	9e14 <chIQPutI+0x74>
    9dec:	e5902000 	ldr	r2, [r0]
    9df0:	e92d4010 	push	{r4, lr}
    9df4:	e5832000 	str	r2, [r3]
    9df8:	e5823004 	str	r3, [r2, #4]
    9dfc:	ebfffdaf 	bl	94c0 <chSchReadyI>
    9e00:	e3a02000 	mov	r2, #0
    9e04:	e1a03000 	mov	r3, r0
    9e08:	e1a00002 	mov	r0, r2
    9e0c:	e5832024 	str	r2, [r3, #36]	; 0x24
    9e10:	e8bd8010 	pop	{r4, pc}
    9e14:	e3a00000 	mov	r0, #0
    9e18:	e12fff1e 	bx	lr
    9e1c:	e3520000 	cmp	r2, #0
    9e20:	0affffe4 	beq	9db8 <chIQPutI+0x18>
    9e24:	e3e00003 	mvn	r0, #3
    9e28:	e12fff1e 	bx	lr
    9e2c:	00000000 	andeq	r0, r0, r0

00009e30 <chIQGetTimeout>:
    9e30:	e92d4070 	push	{r4, r5, r6, lr}
    9e34:	e1a05001 	mov	r5, r1
    9e38:	e1a04000 	mov	r4, r0
    9e3c:	e321f09f 	msr	CPSR_c, #159	; 0x9f
    9e40:	e590301c 	ldr	r3, [r0, #28]
    9e44:	e3530000 	cmp	r3, #0
    9e48:	0a000006 	beq	9e68 <chIQGetTimeout+0x38>
    9e4c:	e12fff33 	blx	r3
    9e50:	ea000004 	b	9e68 <chIQGetTimeout+0x38>
    9e54:	e1a01005 	mov	r1, r5
    9e58:	e1a00004 	mov	r0, r4
    9e5c:	ebffffaf 	bl	9d20 <qwait>
    9e60:	e3500000 	cmp	r0, #0
    9e64:	ba00000c 	blt	9e9c <chIQGetTimeout+0x6c>
    9e68:	e5943008 	ldr	r3, [r4, #8]
    9e6c:	e3530000 	cmp	r3, #0
    9e70:	0afffff7 	beq	9e54 <chIQGetTimeout+0x24>
    9e74:	e5942018 	ldr	r2, [r4, #24]
    9e78:	e5940010 	ldr	r0, [r4, #16]
    9e7c:	e2821001 	add	r1, r2, #1
    9e80:	e2433001 	sub	r3, r3, #1
    9e84:	e1510000 	cmp	r1, r0
    9e88:	e5843008 	str	r3, [r4, #8]
    9e8c:	2594300c 	ldrcs	r3, [r4, #12]
    9e90:	e5841018 	str	r1, [r4, #24]
    9e94:	e5d20000 	ldrb	r0, [r2]
    9e98:	25843018 	strcs	r3, [r4, #24]
    9e9c:	e321f01f 	msr	CPSR_c, #31
    9ea0:	e8bd8070 	pop	{r4, r5, r6, pc}
	...

00009eb0 <chIQReadTimeout>:
    9eb0:	e92d47f0 	push	{r4, r5, r6, r7, r8, r9, sl, lr}
    9eb4:	e1a04000 	mov	r4, r0
    9eb8:	e1a07001 	mov	r7, r1
    9ebc:	e1a09002 	mov	r9, r2
    9ec0:	e1a05003 	mov	r5, r3
    9ec4:	e590801c 	ldr	r8, [r0, #28]
    9ec8:	e321f09f 	msr	CPSR_c, #159	; 0x9f
    9ecc:	e3a06000 	mov	r6, #0
    9ed0:	e3580000 	cmp	r8, #0
    9ed4:	0a000007 	beq	9ef8 <chIQReadTimeout+0x48>
    9ed8:	e1a00004 	mov	r0, r4
    9edc:	e12fff38 	blx	r8
    9ee0:	ea000004 	b	9ef8 <chIQReadTimeout+0x48>
    9ee4:	e1a01005 	mov	r1, r5
    9ee8:	e1a00004 	mov	r0, r4
    9eec:	ebffff8b 	bl	9d20 <qwait>
    9ef0:	e3500000 	cmp	r0, #0
    9ef4:	1a000014 	bne	9f4c <chIQReadTimeout+0x9c>
    9ef8:	e5940008 	ldr	r0, [r4, #8]
    9efc:	e3500000 	cmp	r0, #0
    9f00:	0afffff7 	beq	9ee4 <chIQReadTimeout+0x34>
    9f04:	e5943018 	ldr	r3, [r4, #24]
    9f08:	e2400001 	sub	r0, r0, #1
    9f0c:	e2832001 	add	r2, r3, #1
    9f10:	e5842018 	str	r2, [r4, #24]
    9f14:	e5840008 	str	r0, [r4, #8]
    9f18:	e5d33000 	ldrb	r3, [r3]
    9f1c:	e4c73001 	strb	r3, [r7], #1
    9f20:	e5943010 	ldr	r3, [r4, #16]
    9f24:	e5942018 	ldr	r2, [r4, #24]
    9f28:	e1520003 	cmp	r2, r3
    9f2c:	2594300c 	ldrcs	r3, [r4, #12]
    9f30:	25843018 	strcs	r3, [r4, #24]
    9f34:	e321f01f 	msr	CPSR_c, #31
    9f38:	e2866001 	add	r6, r6, #1
    9f3c:	e1590006 	cmp	r9, r6
    9f40:	0a000002 	beq	9f50 <chIQReadTimeout+0xa0>
    9f44:	e321f09f 	msr	CPSR_c, #159	; 0x9f
    9f48:	eaffffe0 	b	9ed0 <chIQReadTimeout+0x20>
    9f4c:	e321f01f 	msr	CPSR_c, #31
    9f50:	e1a00006 	mov	r0, r6
    9f54:	e8bd87f0 	pop	{r4, r5, r6, r7, r8, r9, sl, pc}
	...

00009f60 <chOQInit>:
    9f60:	e52de004 	push	{lr}		; (str lr, [sp, #-4]!)
    9f64:	e59dc004 	ldr	ip, [sp, #4]
    9f68:	e081e002 	add	lr, r1, r2
    9f6c:	e5800004 	str	r0, [r0, #4]
    9f70:	e5800000 	str	r0, [r0]
    9f74:	e5802008 	str	r2, [r0, #8]
    9f78:	e580e010 	str	lr, [r0, #16]
    9f7c:	e5801014 	str	r1, [r0, #20]
    9f80:	e5801018 	str	r1, [r0, #24]
    9f84:	e580100c 	str	r1, [r0, #12]
    9f88:	e580301c 	str	r3, [r0, #28]
    9f8c:	e580c020 	str	ip, [r0, #32]
    9f90:	e49df004 	pop	{pc}		; (ldr pc, [sp], #4)
	...

00009fa0 <chOQPutTimeout>:
    9fa0:	e92d4070 	push	{r4, r5, r6, lr}
    9fa4:	e1a04000 	mov	r4, r0
    9fa8:	e1a06001 	mov	r6, r1
    9fac:	e1a05002 	mov	r5, r2
    9fb0:	e321f09f 	msr	CPSR_c, #159	; 0x9f
    9fb4:	ea000004 	b	9fcc <chOQPutTimeout+0x2c>
    9fb8:	e1a01005 	mov	r1, r5
    9fbc:	e1a00004 	mov	r0, r4
    9fc0:	ebffff56 	bl	9d20 <qwait>
    9fc4:	e3500000 	cmp	r0, #0
    9fc8:	ba000015 	blt	a024 <chOQPutTimeout+0x84>
    9fcc:	e5943008 	ldr	r3, [r4, #8]
    9fd0:	e3530000 	cmp	r3, #0
    9fd4:	0afffff7 	beq	9fb8 <chOQPutTimeout+0x18>
    9fd8:	e5942014 	ldr	r2, [r4, #20]
    9fdc:	e2433001 	sub	r3, r3, #1
    9fe0:	e2821001 	add	r1, r2, #1
    9fe4:	e5841014 	str	r1, [r4, #20]
    9fe8:	e5843008 	str	r3, [r4, #8]
    9fec:	e5c26000 	strb	r6, [r2]
    9ff0:	e5943010 	ldr	r3, [r4, #16]
    9ff4:	e5942014 	ldr	r2, [r4, #20]
    9ff8:	e1520003 	cmp	r2, r3
    9ffc:	2594300c 	ldrcs	r3, [r4, #12]
    a000:	25843014 	strcs	r3, [r4, #20]
    a004:	e594301c 	ldr	r3, [r4, #28]
    a008:	e3530000 	cmp	r3, #0
    a00c:	0a000001 	beq	a018 <chOQPutTimeout+0x78>
    a010:	e1a00004 	mov	r0, r4
    a014:	e12fff33 	blx	r3
    a018:	e321f01f 	msr	CPSR_c, #31
    a01c:	e3a00000 	mov	r0, #0
    a020:	e8bd8070 	pop	{r4, r5, r6, pc}
    a024:	e321f01f 	msr	CPSR_c, #31
    a028:	e8bd8070 	pop	{r4, r5, r6, pc}
    a02c:	00000000 	andeq	r0, r0, r0

0000a030 <chOQGetI>:
    a030:	e5902014 	ldr	r2, [r0, #20]
    a034:	e5901018 	ldr	r1, [r0, #24]
    a038:	e1a03000 	mov	r3, r0
    a03c:	e1520001 	cmp	r2, r1
    a040:	e5902008 	ldr	r2, [r0, #8]
    a044:	0a000014 	beq	a09c <chOQGetI+0x6c>
    a048:	e92d4010 	push	{r4, lr}
    a04c:	e593c010 	ldr	ip, [r3, #16]
    a050:	e2810001 	add	r0, r1, #1
    a054:	e150000c 	cmp	r0, ip
    a058:	e2822001 	add	r2, r2, #1
    a05c:	e5830018 	str	r0, [r3, #24]
    a060:	e5832008 	str	r2, [r3, #8]
    a064:	e5930000 	ldr	r0, [r3]
    a068:	2593200c 	ldrcs	r2, [r3, #12]
    a06c:	e5d14000 	ldrb	r4, [r1]
    a070:	25832018 	strcs	r2, [r3, #24]
    a074:	e1500003 	cmp	r0, r3
    a078:	0a000005 	beq	a094 <chOQGetI+0x64>
    a07c:	e5902000 	ldr	r2, [r0]
    a080:	e5832000 	str	r2, [r3]
    a084:	e5823004 	str	r3, [r2, #4]
    a088:	ebfffd0c 	bl	94c0 <chSchReadyI>
    a08c:	e3a03000 	mov	r3, #0
    a090:	e5803024 	str	r3, [r0, #36]	; 0x24
    a094:	e1a00004 	mov	r0, r4
    a098:	e8bd8010 	pop	{r4, pc}
    a09c:	e3520000 	cmp	r2, #0
    a0a0:	0affffe8 	beq	a048 <chOQGetI+0x18>
    a0a4:	e3e00002 	mvn	r0, #2
    a0a8:	e12fff1e 	bx	lr
    a0ac:	00000000 	andeq	r0, r0, r0

0000a0b0 <chOQWriteTimeout>:
    a0b0:	e92d47f0 	push	{r4, r5, r6, r7, r8, r9, sl, lr}
    a0b4:	e1a04000 	mov	r4, r0
    a0b8:	e1a05001 	mov	r5, r1
    a0bc:	e1a06002 	mov	r6, r2
    a0c0:	e1a09003 	mov	r9, r3
    a0c4:	e590801c 	ldr	r8, [r0, #28]
    a0c8:	e321f09f 	msr	CPSR_c, #159	; 0x9f
    a0cc:	e3a07000 	mov	r7, #0
    a0d0:	e5940008 	ldr	r0, [r4, #8]
    a0d4:	e3500000 	cmp	r0, #0
    a0d8:	e2403001 	sub	r3, r0, #1
    a0dc:	0a000017 	beq	a140 <chOQWriteTimeout+0x90>
    a0e0:	e5942014 	ldr	r2, [r4, #20]
    a0e4:	e5843008 	str	r3, [r4, #8]
    a0e8:	e2823001 	add	r3, r2, #1
    a0ec:	e5843014 	str	r3, [r4, #20]
    a0f0:	e4d53001 	ldrb	r3, [r5], #1
    a0f4:	e5c23000 	strb	r3, [r2]
    a0f8:	e5943010 	ldr	r3, [r4, #16]
    a0fc:	e5942014 	ldr	r2, [r4, #20]
    a100:	e1520003 	cmp	r2, r3
    a104:	2594300c 	ldrcs	r3, [r4, #12]
    a108:	25843014 	strcs	r3, [r4, #20]
    a10c:	e3580000 	cmp	r8, #0
    a110:	0a000001 	beq	a11c <chOQWriteTimeout+0x6c>
    a114:	e1a00004 	mov	r0, r4
    a118:	e12fff38 	blx	r8
    a11c:	e321f01f 	msr	CPSR_c, #31
    a120:	e2566001 	subs	r6, r6, #1
    a124:	e2877001 	add	r7, r7, #1
    a128:	0a00000a 	beq	a158 <chOQWriteTimeout+0xa8>
    a12c:	e321f09f 	msr	CPSR_c, #159	; 0x9f
    a130:	e5940008 	ldr	r0, [r4, #8]
    a134:	e3500000 	cmp	r0, #0
    a138:	e2403001 	sub	r3, r0, #1
    a13c:	1affffe7 	bne	a0e0 <chOQWriteTimeout+0x30>
    a140:	e1a01009 	mov	r1, r9
    a144:	e1a00004 	mov	r0, r4
    a148:	ebfffef4 	bl	9d20 <qwait>
    a14c:	e3500000 	cmp	r0, #0
    a150:	0affffde 	beq	a0d0 <chOQWriteTimeout+0x20>
    a154:	e321f01f 	msr	CPSR_c, #31
    a158:	e1a00007 	mov	r0, r7
    a15c:	e8bd87f0 	pop	{r4, r5, r6, r7, r8, r9, sl, pc}

0000a160 <_core_init>:
    a160:	e59f201c 	ldr	r2, [pc, #28]	; a184 <_core_init+0x24>
    a164:	e59f301c 	ldr	r3, [pc, #28]	; a188 <_core_init+0x28>
    a168:	e59f001c 	ldr	r0, [pc, #28]	; a18c <_core_init+0x2c>
    a16c:	e59f101c 	ldr	r1, [pc, #28]	; a190 <_core_init+0x30>
    a170:	e3c22003 	bic	r2, r2, #3
    a174:	e3c33003 	bic	r3, r3, #3
    a178:	e5802000 	str	r2, [r0]
    a17c:	e5813000 	str	r3, [r1]
    a180:	e12fff1e 	bx	lr
    a184:	0000cd9b 	muleq	r0, fp, sp
    a188:	06007b44 	streq	r7, [r0], -r4, asr #22
    a18c:	0000c58c 	andeq	ip, r0, ip, lsl #11
    a190:	0000c588 	andeq	ip, r0, r8, lsl #11
	...

0000a1a0 <chCoreAlloc>:
    a1a0:	e1a03000 	mov	r3, r0
    a1a4:	e321f09f 	msr	CPSR_c, #159	; 0x9f
    a1a8:	e59f102c 	ldr	r1, [pc, #44]	; a1dc <chCoreAlloc+0x3c>
    a1ac:	e59f202c 	ldr	r2, [pc, #44]	; a1e0 <chCoreAlloc+0x40>
    a1b0:	e5910000 	ldr	r0, [r1]
    a1b4:	e5922000 	ldr	r2, [r2]
    a1b8:	e2833003 	add	r3, r3, #3
    a1bc:	e3c33003 	bic	r3, r3, #3
    a1c0:	e0422000 	sub	r2, r2, r0
    a1c4:	e1530002 	cmp	r3, r2
    a1c8:	90803003 	addls	r3, r0, r3
    a1cc:	83a00000 	movhi	r0, #0
    a1d0:	95813000 	strls	r3, [r1]
    a1d4:	e321f01f 	msr	CPSR_c, #31
    a1d8:	e12fff1e 	bx	lr
    a1dc:	0000c58c 	andeq	ip, r0, ip, lsl #11
    a1e0:	0000c588 	andeq	ip, r0, r8, lsl #11
	...

0000a1f0 <_heap_init>:
    a1f0:	e3a02000 	mov	r2, #0
    a1f4:	e59f3014 	ldr	r3, [pc, #20]	; a210 <_heap_init+0x20>
    a1f8:	e59f1014 	ldr	r1, [pc, #20]	; a214 <_heap_init+0x24>
    a1fc:	e283000c 	add	r0, r3, #12
    a200:	e5832004 	str	r2, [r3, #4]
    a204:	e5832008 	str	r2, [r3, #8]
    a208:	e5831000 	str	r1, [r3]
    a20c:	eafffe07 	b	9a30 <chMtxInit>
    a210:	0000c590 	muleq	r0, r0, r5
    a214:	0000a1a0 	andeq	sl, r0, r0, lsr #3
	...

0000a220 <chHeapFree>:
    a220:	e92d4070 	push	{r4, r5, r6, lr}
    a224:	e1a06000 	mov	r6, r0
    a228:	e5100008 	ldr	r0, [r0, #-8]
    a22c:	e2464008 	sub	r4, r6, #8
    a230:	e2805004 	add	r5, r0, #4
    a234:	e280000c 	add	r0, r0, #12
    a238:	ebfffe64 	bl	9bd0 <chMtxLock>
    a23c:	e1a03005 	mov	r3, r5
    a240:	ea000002 	b	a250 <chHeapFree+0x30>
    a244:	e1520004 	cmp	r2, r4
    a248:	8a00000a 	bhi	a278 <chHeapFree+0x58>
    a24c:	e1a03002 	mov	r3, r2
    a250:	e0432005 	sub	r2, r3, r5
    a254:	e16f2f12 	clz	r2, r2
    a258:	e1a022a2 	lsr	r2, r2, #5
    a25c:	e1530004 	cmp	r3, r4
    a260:	33822001 	orrcc	r2, r2, #1
    a264:	e3520000 	cmp	r2, #0
    a268:	e5932000 	ldr	r2, [r3]
    a26c:	0afffff6 	beq	a24c <chHeapFree+0x2c>
    a270:	e3520000 	cmp	r2, #0
    a274:	1afffff2 	bne	a244 <chHeapFree+0x24>
    a278:	e5062008 	str	r2, [r6, #-8]
    a27c:	e5162004 	ldr	r2, [r6, #-4]
    a280:	e5834000 	str	r4, [r3]
    a284:	e5161008 	ldr	r1, [r6, #-8]
    a288:	e0860002 	add	r0, r6, r2
    a28c:	e1510000 	cmp	r1, r0
    a290:	05910004 	ldreq	r0, [r1, #4]
    a294:	02822008 	addeq	r2, r2, #8
    a298:	05911000 	ldreq	r1, [r1]
    a29c:	00802002 	addeq	r2, r0, r2
    a2a0:	09060006 	stmdbeq	r6, {r1, r2}
    a2a4:	e5931004 	ldr	r1, [r3, #4]
    a2a8:	e2812008 	add	r2, r1, #8
    a2ac:	e0832002 	add	r2, r3, r2
    a2b0:	e1540002 	cmp	r4, r2
    a2b4:	0a000001 	beq	a2c0 <chHeapFree+0xa0>
    a2b8:	e8bd4070 	pop	{r4, r5, r6, lr}
    a2bc:	eafffe4b 	b	9bf0 <chMtxUnlock>
    a2c0:	e9160005 	ldmdb	r6, {r0, r2}
    a2c4:	e2822008 	add	r2, r2, #8
    a2c8:	e0821001 	add	r1, r2, r1
    a2cc:	e1c300f0 	strd	r0, [r3]
    a2d0:	e8bd4070 	pop	{r4, r5, r6, lr}
    a2d4:	eafffe45 	b	9bf0 <chMtxUnlock>
	...

0000a2e0 <halInit>:
    a2e0:	e92d4010 	push	{r4, lr}
    a2e4:	eb000101 	bl	a6f0 <hal_lld_init>
    a2e8:	eb0000d4 	bl	a640 <tmInit>
    a2ec:	e59f0014 	ldr	r0, [pc, #20]	; a308 <halInit+0x28>
    a2f0:	eb000122 	bl	a780 <_pal_lld_init>
    a2f4:	eb000005 	bl	a310 <i2cInit>
    a2f8:	eb000060 	bl	a480 <sdInit>
    a2fc:	eb0000a7 	bl	a5a0 <spiInit>
    a300:	e8bd4010 	pop	{r4, lr}
    a304:	ea000361 	b	b090 <boardInit>
    a308:	0000c440 	andeq	ip, r0, r0, asr #8
    a30c:	00000000 	andeq	r0, r0, r0

0000a310 <i2cInit>:
    a310:	ea00021e 	b	ab90 <i2c_lld_init>
	...

0000a320 <i2cObjectInit>:
    a320:	e3a02001 	mov	r2, #1
    a324:	e3a03000 	mov	r3, #0
    a328:	e5c02000 	strb	r2, [r0]
    a32c:	e5803004 	str	r3, [r0, #4]
    a330:	e2800010 	add	r0, r0, #16
    a334:	eafffdbd 	b	9a30 <chMtxInit>
	...

0000a340 <i2cStart>:
    a340:	e92d4010 	push	{r4, lr}
    a344:	e1a04000 	mov	r4, r0
    a348:	e321f09f 	msr	CPSR_c, #159	; 0x9f
    a34c:	e5801004 	str	r1, [r0, #4]
    a350:	eb000216 	bl	abb0 <i2c_lld_start>
    a354:	e3a03002 	mov	r3, #2
    a358:	e5c43000 	strb	r3, [r4]
    a35c:	e321f01f 	msr	CPSR_c, #31
    a360:	e8bd8010 	pop	{r4, pc}
	...

0000a370 <i2cStop>:
    a370:	e92d4010 	push	{r4, lr}
    a374:	e1a04000 	mov	r4, r0
    a378:	e321f09f 	msr	CPSR_c, #159	; 0x9f
    a37c:	eb000227 	bl	ac20 <i2c_lld_stop>
    a380:	e3a03001 	mov	r3, #1
    a384:	e5c43000 	strb	r3, [r4]
    a388:	e321f01f 	msr	CPSR_c, #31
    a38c:	e8bd8010 	pop	{r4, pc}

0000a390 <i2cGetErrors>:
    a390:	e5900008 	ldr	r0, [r0, #8]
    a394:	e12fff1e 	bx	lr
	...

0000a3a0 <i2cMasterTransmitTimeout>:
    a3a0:	e92d4070 	push	{r4, r5, r6, lr}
    a3a4:	e24dd010 	sub	sp, sp, #16
    a3a8:	e1a04000 	mov	r4, r0
    a3ac:	e59dc020 	ldr	ip, [sp, #32]
    a3b0:	e59d6028 	ldr	r6, [sp, #40]	; 0x28
    a3b4:	e321f09f 	msr	CPSR_c, #159	; 0x9f
    a3b8:	e3a0e003 	mov	lr, #3
    a3bc:	e3a05000 	mov	r5, #0
    a3c0:	e58dc000 	str	ip, [sp]
    a3c4:	e59dc024 	ldr	ip, [sp, #36]	; 0x24
    a3c8:	e58d6008 	str	r6, [sp, #8]
    a3cc:	e6efc07c 	uxtb	ip, ip
    a3d0:	e5805008 	str	r5, [r0, #8]
    a3d4:	e5c0e000 	strb	lr, [r0]
    a3d8:	e58dc004 	str	ip, [sp, #4]
    a3dc:	eb000253 	bl	ad30 <i2c_lld_master_transmit_timeout>
    a3e0:	e3700001 	cmn	r0, #1
    a3e4:	13a03002 	movne	r3, #2
    a3e8:	03a03005 	moveq	r3, #5
    a3ec:	e5c43000 	strb	r3, [r4]
    a3f0:	e321f01f 	msr	CPSR_c, #31
    a3f4:	e28dd010 	add	sp, sp, #16
    a3f8:	e8bd8070 	pop	{r4, r5, r6, pc}
    a3fc:	00000000 	andeq	r0, r0, r0

0000a400 <readt>:
    a400:	e280000c 	add	r0, r0, #12
    a404:	eafffea9 	b	9eb0 <chIQReadTimeout>
	...

0000a410 <read>:
    a410:	e3e03000 	mvn	r3, #0
    a414:	e280000c 	add	r0, r0, #12
    a418:	eafffea4 	b	9eb0 <chIQReadTimeout>
    a41c:	00000000 	andeq	r0, r0, r0

0000a420 <writet>:
    a420:	e2800030 	add	r0, r0, #48	; 0x30
    a424:	eaffff21 	b	a0b0 <chOQWriteTimeout>
	...

0000a430 <write>:
    a430:	e3e03000 	mvn	r3, #0
    a434:	e2800030 	add	r0, r0, #48	; 0x30
    a438:	eaffff1c 	b	a0b0 <chOQWriteTimeout>
    a43c:	00000000 	andeq	r0, r0, r0

0000a440 <gett>:
    a440:	e280000c 	add	r0, r0, #12
    a444:	eafffe79 	b	9e30 <chIQGetTimeout>
	...

0000a450 <get>:
    a450:	e3e01000 	mvn	r1, #0
    a454:	e280000c 	add	r0, r0, #12
    a458:	eafffe74 	b	9e30 <chIQGetTimeout>
    a45c:	00000000 	andeq	r0, r0, r0

0000a460 <putt>:
    a460:	e2800030 	add	r0, r0, #48	; 0x30
    a464:	eafffecd 	b	9fa0 <chOQPutTimeout>
	...

0000a470 <put>:
    a470:	e3e02000 	mvn	r2, #0
    a474:	e2800030 	add	r0, r0, #48	; 0x30
    a478:	eafffec8 	b	9fa0 <chOQPutTimeout>
    a47c:	00000000 	andeq	r0, r0, r0

0000a480 <sdInit>:
    a480:	ea00011a 	b	a8f0 <sd_lld_init>
	...

0000a490 <sdObjectInit>:
    a490:	e92d4030 	push	{r4, r5, lr}
    a494:	e3a0c001 	mov	ip, #1
    a498:	e1a04000 	mov	r4, r0
    a49c:	e1a05002 	mov	r5, r2
    a4a0:	e59f2044 	ldr	r2, [pc, #68]	; a4ec <sdObjectInit+0x5c>
    a4a4:	e24dd00c 	sub	sp, sp, #12
    a4a8:	e58d0000 	str	r0, [sp]
    a4ac:	e4802004 	str	r2, [r0], #4
    a4b0:	e1a03001 	mov	r3, r1
    a4b4:	e5840004 	str	r0, [r4, #4]
    a4b8:	e5c4c008 	strb	ip, [r4, #8]
    a4bc:	e2841054 	add	r1, r4, #84	; 0x54
    a4c0:	e284000c 	add	r0, r4, #12
    a4c4:	e3a02010 	mov	r2, #16
    a4c8:	ebfffe24 	bl	9d60 <chIQInit>
    a4cc:	e1a03005 	mov	r3, r5
    a4d0:	e3a02010 	mov	r2, #16
    a4d4:	e58d4000 	str	r4, [sp]
    a4d8:	e2841064 	add	r1, r4, #100	; 0x64
    a4dc:	e2840030 	add	r0, r4, #48	; 0x30
    a4e0:	ebfffe9e 	bl	9f60 <chOQInit>
    a4e4:	e28dd00c 	add	sp, sp, #12
    a4e8:	e8bd8030 	pop	{r4, r5, pc}
    a4ec:	0000c410 	andeq	ip, r0, r0, lsl r4

0000a4f0 <sdStart>:
    a4f0:	e92d4010 	push	{r4, lr}
    a4f4:	e1a04000 	mov	r4, r0
    a4f8:	e321f09f 	msr	CPSR_c, #159	; 0x9f
    a4fc:	eb000103 	bl	a910 <sd_lld_start>
    a500:	e3a03002 	mov	r3, #2
    a504:	e5c43008 	strb	r3, [r4, #8]
    a508:	e321f01f 	msr	CPSR_c, #31
    a50c:	e8bd8010 	pop	{r4, pc}

0000a510 <sdIncomingDataI>:
    a510:	e5903014 	ldr	r3, [r0, #20]
    a514:	e92d4070 	push	{r4, r5, r6, lr}
    a518:	e3530000 	cmp	r3, #0
    a51c:	e1a04000 	mov	r4, r0
    a520:	e1a05001 	mov	r5, r1
    a524:	0a000008 	beq	a54c <sdIncomingDataI+0x3c>
    a528:	e1a01005 	mov	r1, r5
    a52c:	e284000c 	add	r0, r4, #12
    a530:	ebfffe1a 	bl	9da0 <chIQPutI>
    a534:	e3500000 	cmp	r0, #0
    a538:	a8bd8070 	popge	{r4, r5, r6, pc}
    a53c:	e2840004 	add	r0, r4, #4
    a540:	e3a01080 	mov	r1, #128	; 0x80
    a544:	e8bd4070 	pop	{r4, r5, r6, lr}
    a548:	eafffde4 	b	9ce0 <chEvtBroadcastFlagsI>
    a54c:	e3a01004 	mov	r1, #4
    a550:	e0800001 	add	r0, r0, r1
    a554:	ebfffde1 	bl	9ce0 <chEvtBroadcastFlagsI>
    a558:	eafffff2 	b	a528 <sdIncomingDataI+0x18>
    a55c:	00000000 	andeq	r0, r0, r0

0000a560 <sdRequestDataI>:
    a560:	e92d4070 	push	{r4, r5, r6, lr}
    a564:	e1a05000 	mov	r5, r0
    a568:	e2800030 	add	r0, r0, #48	; 0x30
    a56c:	ebfffeaf 	bl	a030 <chOQGetI>
    a570:	e2504000 	subs	r4, r0, #0
    a574:	ba000001 	blt	a580 <sdRequestDataI+0x20>
    a578:	e1a00004 	mov	r0, r4
    a57c:	e8bd8070 	pop	{r4, r5, r6, pc}
    a580:	e2850004 	add	r0, r5, #4
    a584:	e3a01008 	mov	r1, #8
    a588:	ebfffdd4 	bl	9ce0 <chEvtBroadcastFlagsI>
    a58c:	e1a00004 	mov	r0, r4
    a590:	e8bd8070 	pop	{r4, r5, r6, pc}
	...

0000a5a0 <spiInit>:
    a5a0:	ea000292 	b	aff0 <spi_lld_init>
	...

0000a5b0 <spiObjectInit>:
    a5b0:	e3a03000 	mov	r3, #0
    a5b4:	e3a02001 	mov	r2, #1
    a5b8:	e5803004 	str	r3, [r0, #4]
    a5bc:	e5c02000 	strb	r2, [r0]
    a5c0:	e5803008 	str	r3, [r0, #8]
    a5c4:	e280000c 	add	r0, r0, #12
    a5c8:	eafffd18 	b	9a30 <chMtxInit>
    a5cc:	00000000 	andeq	r0, r0, r0

0000a5d0 <tm_start>:
    a5d0:	e59f3008 	ldr	r3, [pc, #8]	; a5e0 <tm_start+0x10>
    a5d4:	e5933004 	ldr	r3, [r3, #4]
    a5d8:	e5803008 	str	r3, [r0, #8]
    a5dc:	e12fff1e 	bx	lr
    a5e0:	20003000 	andcs	r3, r0, r0
	...

0000a5f0 <tm_stop>:
    a5f0:	e59f303c 	ldr	r3, [pc, #60]	; a634 <tm_stop+0x44>
    a5f4:	e59f203c 	ldr	r2, [pc, #60]	; a638 <tm_stop+0x48>
    a5f8:	e5933004 	ldr	r3, [r3, #4]
    a5fc:	e5922000 	ldr	r2, [r2]
    a600:	e5901008 	ldr	r1, [r0, #8]
    a604:	e0433002 	sub	r3, r3, r2
    a608:	e590200c 	ldr	r2, [r0, #12]
    a60c:	e0433001 	sub	r3, r3, r1
    a610:	e1530002 	cmp	r3, r2
    a614:	e5803008 	str	r3, [r0, #8]
    a618:	9a000001 	bls	a624 <tm_stop+0x34>
    a61c:	e580300c 	str	r3, [r0, #12]
    a620:	e12fff1e 	bx	lr
    a624:	e5902010 	ldr	r2, [r0, #16]
    a628:	e1530002 	cmp	r3, r2
    a62c:	35803010 	strcc	r3, [r0, #16]
    a630:	e12fff1e 	bx	lr
    a634:	20003000 	andcs	r3, r0, r0
    a638:	0000c5ac 	andeq	ip, r0, ip, lsr #11
    a63c:	00000000 	andeq	r0, r0, r0

0000a640 <tmInit>:
    a640:	e3a03000 	mov	r3, #0
    a644:	e3e01000 	mvn	r1, #0
    a648:	e92d4010 	push	{r4, lr}
    a64c:	e59f4040 	ldr	r4, [pc, #64]	; a694 <tmInit+0x54>
    a650:	e24dd018 	sub	sp, sp, #24
    a654:	e59f203c 	ldr	r2, [pc, #60]	; a698 <tmInit+0x58>
    a658:	e58d300c 	str	r3, [sp, #12]
    a65c:	e58d3010 	str	r3, [sp, #16]
    a660:	e5843000 	str	r3, [r4]
    a664:	e58d1014 	str	r1, [sp, #20]
    a668:	e5921004 	ldr	r1, [r2, #4]
    a66c:	e59f3028 	ldr	r3, [pc, #40]	; a69c <tmInit+0x5c>
    a670:	e59f2028 	ldr	r2, [pc, #40]	; a6a0 <tmInit+0x60>
    a674:	e28d0004 	add	r0, sp, #4
    a678:	e1cd20f4 	strd	r2, [sp, #4]
    a67c:	e58d100c 	str	r1, [sp, #12]
    a680:	ebffffda 	bl	a5f0 <tm_stop>
    a684:	e59d300c 	ldr	r3, [sp, #12]
    a688:	e5843000 	str	r3, [r4]
    a68c:	e28dd018 	add	sp, sp, #24
    a690:	e8bd8010 	pop	{r4, pc}
    a694:	0000c5ac 	andeq	ip, r0, ip, lsr #11
    a698:	20003000 	andcs	r3, r0, r0
    a69c:	0000a5f0 	strdeq	sl, [r0], -r0
    a6a0:	0000a5d0 	ldrdeq	sl, [r0], -r0
	...

0000a6b0 <IrqHandler>:
    a6b0:	e92d500f 	push	{r0, r1, r2, r3, ip, lr}
    a6b4:	ebfffaf1 	bl	9280 <chSysTimerHandlerI>
    a6b8:	e3a02000 	mov	r2, #0
    a6bc:	e59f301c 	ldr	r3, [pc, #28]	; a6e0 <IrqHandler+0x30>
    a6c0:	e59f001c 	ldr	r0, [pc, #28]	; a6e4 <IrqHandler+0x34>
    a6c4:	e583240c 	str	r2, [r3, #1036]	; 0x40c
    a6c8:	eb00005c 	bl	a840 <sd_lld_serve_interrupt>
    a6cc:	e59f0014 	ldr	r0, [pc, #20]	; a6e8 <IrqHandler+0x38>
    a6d0:	eb0000de 	bl	aa50 <i2c_lld_serve_interrupt>
    a6d4:	e59f0010 	ldr	r0, [pc, #16]	; a6ec <IrqHandler+0x3c>
    a6d8:	eb0001e4 	bl	ae70 <spi_lld_serve_interrupt>
    a6dc:	eafff687 	b	8100 <_port_irq_common>
    a6e0:	2000b000 	andcs	fp, r0, r0
    a6e4:	0000ca70 	andeq	ip, r0, r0, ror sl
    a6e8:	0000cb24 	andeq	ip, r0, r4, lsr #22
    a6ec:	0000cb64 	andeq	ip, r0, r4, ror #22

0000a6f0 <hal_lld_init>:
    a6f0:	e52de004 	push	{lr}		; (str lr, [sp, #-4]!)
    a6f4:	e3a0c0f9 	mov	ip, #249	; 0xf9
    a6f8:	e3a0e83e 	mov	lr, #4063232	; 0x3e0000
    a6fc:	e3a00000 	mov	r0, #0
    a700:	e59f302c 	ldr	r3, [pc, #44]	; a734 <hal_lld_init+0x44>
    a704:	e59f202c 	ldr	r2, [pc, #44]	; a738 <hal_lld_init+0x48>
    a708:	e59f102c 	ldr	r1, [pc, #44]	; a73c <hal_lld_init+0x4c>
    a70c:	e583e408 	str	lr, [r3, #1032]	; 0x408
    a710:	e5832400 	str	r2, [r3, #1024]	; 0x400
    a714:	e5832418 	str	r2, [r3, #1048]	; 0x418
    a718:	e583c41c 	str	ip, [r3, #1052]	; 0x41c
    a71c:	e583040c 	str	r0, [r3, #1036]	; 0x40c
    a720:	e5831408 	str	r1, [r3, #1032]	; 0x408
    a724:	e5932218 	ldr	r2, [r3, #536]	; 0x218
    a728:	e3822001 	orr	r2, r2, #1
    a72c:	e5832218 	str	r2, [r3, #536]	; 0x218
    a730:	e49df004 	pop	{pc}		; (ldr pc, [sp], #4)
    a734:	2000b000 	andcs	fp, r0, r0
    a738:	000003e7 	andeq	r0, r0, r7, ror #7
    a73c:	003e00a2 	eorseq	r0, lr, r2, lsr #1

0000a740 <set_gpio_in.isra.0>:
    a740:	e92d4070 	push	{r4, r5, r6, lr}
    a744:	e1a06000 	mov	r6, r0
    a748:	e1a05001 	mov	r5, r1
    a74c:	e3a04000 	mov	r4, #0
    a750:	ea000003 	b	a764 <set_gpio_in.isra.0+0x24>
    a754:	e2844001 	add	r4, r4, #1
    a758:	e3540020 	cmp	r4, #32
    a75c:	e1a050a5 	lsr	r5, r5, #1
    a760:	08bd8070 	popeq	{r4, r5, r6, pc}
    a764:	e3150001 	tst	r5, #1
    a768:	0afffff9 	beq	a754 <set_gpio_in.isra.0+0x14>
    a76c:	e5960000 	ldr	r0, [r6]
    a770:	e3a01000 	mov	r1, #0
    a774:	e0840000 	add	r0, r4, r0
    a778:	eb000220 	bl	b000 <bcm2835_gpio_fnsel>
    a77c:	eafffff4 	b	a754 <set_gpio_in.isra.0+0x14>

0000a780 <_pal_lld_init>:
    a780:	e59f3068 	ldr	r3, [pc, #104]	; a7f0 <_pal_lld_init+0x70>
    a784:	e59f1068 	ldr	r1, [pc, #104]	; a7f4 <_pal_lld_init+0x74>
    a788:	e92d4010 	push	{r4, lr}
    a78c:	e59fc064 	ldr	ip, [pc, #100]	; a7f8 <_pal_lld_init+0x78>
    a790:	e59fe064 	ldr	lr, [pc, #100]	; a7fc <_pal_lld_init+0x7c>
    a794:	e59f2064 	ldr	r2, [pc, #100]	; a800 <_pal_lld_init+0x80>
    a798:	e2830014 	add	r0, r3, #20
    a79c:	e5831004 	str	r1, [r3, #4]
    a7a0:	e3e01000 	mvn	r1, #0
    a7a4:	e583e008 	str	lr, [r3, #8]
    a7a8:	e583c00c 	str	ip, [r3, #12]
    a7ac:	e5832010 	str	r2, [r3, #16]
    a7b0:	ebffffe2 	bl	a740 <set_gpio_in.isra.0>
    a7b4:	e59f3048 	ldr	r3, [pc, #72]	; a804 <_pal_lld_init+0x84>
    a7b8:	e3a02020 	mov	r2, #32
    a7bc:	e1a00003 	mov	r0, r3
    a7c0:	e59f1040 	ldr	r1, [pc, #64]	; a808 <_pal_lld_init+0x88>
    a7c4:	e59fe040 	ldr	lr, [pc, #64]	; a80c <_pal_lld_init+0x8c>
    a7c8:	e59fc040 	ldr	ip, [pc, #64]	; a810 <_pal_lld_init+0x90>
    a7cc:	e5a02014 	str	r2, [r0, #20]!
    a7d0:	e59f203c 	ldr	r2, [pc, #60]	; a814 <_pal_lld_init+0x94>
    a7d4:	e5831004 	str	r1, [r3, #4]
    a7d8:	e583e008 	str	lr, [r3, #8]
    a7dc:	e3e01000 	mvn	r1, #0
    a7e0:	e8bd4010 	pop	{r4, lr}
    a7e4:	e583c00c 	str	ip, [r3, #12]
    a7e8:	e5832010 	str	r2, [r3, #16]
    a7ec:	eaffffd3 	b	a740 <set_gpio_in.isra.0>
    a7f0:	0000ca58 	andeq	ip, r0, r8, asr sl
    a7f4:	2020001c 	eorcs	r0, r0, ip, lsl r0
    a7f8:	20200034 	eorcs	r0, r0, r4, lsr r0
    a7fc:	20200028 	eorcs	r0, r0, r8, lsr #32
    a800:	20200098 	mlacs	r0, r8, r0, r0
    a804:	0000ca40 	andeq	ip, r0, r0, asr #20
    a808:	20200020 	eorcs	r0, r0, r0, lsr #32
    a80c:	2020002c 	eorcs	r0, r0, ip, lsr #32
    a810:	20200038 	eorcs	r0, r0, r8, lsr r0
    a814:	2020009c 	mlacs	r0, ip, r0, r0
	...

0000a820 <output_notify>:
    a820:	e59f200c 	ldr	r2, [pc, #12]	; a834 <output_notify+0x14>
    a824:	e5923044 	ldr	r3, [r2, #68]	; 0x44
    a828:	e3833002 	orr	r3, r3, #2
    a82c:	e5823044 	str	r3, [r2, #68]	; 0x44
    a830:	e12fff1e 	bx	lr
    a834:	20215000 	eorcs	r5, r1, r0
	...

0000a840 <sd_lld_serve_interrupt>:
    a840:	e59f209c 	ldr	r2, [pc, #156]	; a8e4 <sd_lld_serve_interrupt+0xa4>
    a844:	e92d4070 	push	{r4, r5, r6, lr}
    a848:	e5923048 	ldr	r3, [r2, #72]	; 0x48
    a84c:	e1a05000 	mov	r5, r0
    a850:	e2033007 	and	r3, r3, #7
    a854:	e3530004 	cmp	r3, #4
    a858:	0a000011 	beq	a8a4 <sd_lld_serve_interrupt+0x64>
    a85c:	e59f4080 	ldr	r4, [pc, #128]	; a8e4 <sd_lld_serve_interrupt+0xa4>
    a860:	e5943048 	ldr	r3, [r4, #72]	; 0x48
    a864:	e2033007 	and	r3, r3, #7
    a868:	e3530002 	cmp	r3, #2
    a86c:	18bd8070 	popne	{r4, r5, r6, pc}
    a870:	e5943054 	ldr	r3, [r4, #84]	; 0x54
    a874:	e3130020 	tst	r3, #32
    a878:	0afffffc 	beq	a870 <sd_lld_serve_interrupt+0x30>
    a87c:	e1a00005 	mov	r0, r5
    a880:	ebffff36 	bl	a560 <sdRequestDataI>
    a884:	e3500000 	cmp	r0, #0
    a888:	ba000011 	blt	a8d4 <sd_lld_serve_interrupt+0x94>
    a88c:	e59f2050 	ldr	r2, [pc, #80]	; a8e4 <sd_lld_serve_interrupt+0xa4>
    a890:	e5923054 	ldr	r3, [r2, #84]	; 0x54
    a894:	e3130020 	tst	r3, #32
    a898:	0afffffc 	beq	a890 <sd_lld_serve_interrupt+0x50>
    a89c:	e5820040 	str	r0, [r2, #64]	; 0x40
    a8a0:	e8bd8070 	pop	{r4, r5, r6, pc}
    a8a4:	e5923054 	ldr	r3, [r2, #84]	; 0x54
    a8a8:	e3130001 	tst	r3, #1
    a8ac:	0afffffc 	beq	a8a4 <sd_lld_serve_interrupt+0x64>
    a8b0:	e59f402c 	ldr	r4, [pc, #44]	; a8e4 <sd_lld_serve_interrupt+0xa4>
    a8b4:	e5941040 	ldr	r1, [r4, #64]	; 0x40
    a8b8:	e1a00005 	mov	r0, r5
    a8bc:	e6ef1071 	uxtb	r1, r1
    a8c0:	ebffff12 	bl	a510 <sdIncomingDataI>
    a8c4:	e5943054 	ldr	r3, [r4, #84]	; 0x54
    a8c8:	e3130001 	tst	r3, #1
    a8cc:	1afffff8 	bne	a8b4 <sd_lld_serve_interrupt+0x74>
    a8d0:	eaffffe1 	b	a85c <sd_lld_serve_interrupt+0x1c>
    a8d4:	e5943044 	ldr	r3, [r4, #68]	; 0x44
    a8d8:	e3c33002 	bic	r3, r3, #2
    a8dc:	e5843044 	str	r3, [r4, #68]	; 0x44
    a8e0:	e8bd8070 	pop	{r4, r5, r6, pc}
    a8e4:	20215000 	eorcs	r5, r1, r0
	...

0000a8f0 <sd_lld_init>:
    a8f0:	e3a01000 	mov	r1, #0
    a8f4:	e59f2004 	ldr	r2, [pc, #4]	; a900 <sd_lld_init+0x10>
    a8f8:	e59f0004 	ldr	r0, [pc, #4]	; a904 <sd_lld_init+0x14>
    a8fc:	eafffee3 	b	a490 <sdObjectInit>
    a900:	0000a820 	andeq	sl, r0, r0, lsr #16
    a904:	0000ca70 	andeq	ip, r0, r0, ror sl
	...

0000a910 <sd_lld_start>:
    a910:	e92d47f0 	push	{r4, r5, r6, r7, r8, r9, sl, lr}
    a914:	e3a05000 	mov	r5, #0
    a918:	e59f30a0 	ldr	r3, [pc, #160]	; a9c0 <sd_lld_start+0xb0>
    a91c:	e1510005 	cmp	r1, r5
    a920:	01a01003 	moveq	r1, r3
    a924:	e3a02005 	mov	r2, #5
    a928:	e3a030c6 	mov	r3, #198	; 0xc6
    a92c:	e3a09003 	mov	r9, #3
    a930:	e3a08202 	mov	r8, #536870912	; 0x20000000
    a934:	e3a00001 	mov	r0, #1
    a938:	e59f4084 	ldr	r4, [pc, #132]	; a9c4 <sd_lld_start+0xb4>
    a93c:	e59f7084 	ldr	r7, [pc, #132]	; a9c8 <sd_lld_start+0xb8>
    a940:	e59f6084 	ldr	r6, [pc, #132]	; a9cc <sd_lld_start+0xbc>
    a944:	e587821c 	str	r8, [r7, #540]	; 0x21c
    a948:	e5840004 	str	r0, [r4, #4]
    a94c:	e5845044 	str	r5, [r4, #68]	; 0x44
    a950:	e5845060 	str	r5, [r4, #96]	; 0x60
    a954:	e584904c 	str	r9, [r4, #76]	; 0x4c
    a958:	e5845050 	str	r5, [r4, #80]	; 0x50
    a95c:	e5842044 	str	r2, [r4, #68]	; 0x44
    a960:	e5843048 	str	r3, [r4, #72]	; 0x48
    a964:	e5911000 	ldr	r1, [r1]
    a968:	e59f0060 	ldr	r0, [pc, #96]	; a9d0 <sd_lld_start+0xc0>
    a96c:	e1a01911 	lsl	r1, r1, r9
    a970:	ebfff6b6 	bl	8450 <__udivsi3>
    a974:	e2400001 	sub	r0, r0, #1
    a978:	e3a01002 	mov	r1, #2
    a97c:	e5840068 	str	r0, [r4, #104]	; 0x68
    a980:	e3a0000e 	mov	r0, #14
    a984:	eb00019d 	bl	b000 <bcm2835_gpio_fnsel>
    a988:	e3a01002 	mov	r1, #2
    a98c:	e3a0000f 	mov	r0, #15
    a990:	eb00019a 	bl	b000 <bcm2835_gpio_fnsel>
    a994:	e3a00096 	mov	r0, #150	; 0x96
    a998:	e5865094 	str	r5, [r6, #148]	; 0x94
    a99c:	eb0001ab 	bl	b050 <bcm2835_delay>
    a9a0:	e3a03903 	mov	r3, #49152	; 0xc000
    a9a4:	e3a00096 	mov	r0, #150	; 0x96
    a9a8:	e5863098 	str	r3, [r6, #152]	; 0x98
    a9ac:	eb0001a7 	bl	b050 <bcm2835_delay>
    a9b0:	e5865098 	str	r5, [r6, #152]	; 0x98
    a9b4:	e5849060 	str	r9, [r4, #96]	; 0x60
    a9b8:	e5878210 	str	r8, [r7, #528]	; 0x210
    a9bc:	e8bd87f0 	pop	{r4, r5, r6, r7, r8, r9, sl, pc}
    a9c0:	0000c430 	andeq	ip, r0, r0, lsr r4
    a9c4:	20215000 	eorcs	r5, r1, r0
    a9c8:	2000b000 	andcs	fp, r0, r0
    a9cc:	20200000 	eorcs	r0, r0, r0
    a9d0:	0ee6b280 	cdpeq	2, 14, cr11, cr6, cr0, {4}
	...

0000a9e0 <i2c_lld_safety_timeout>:
    a9e0:	e1a03000 	mov	r3, r0
    a9e4:	e5900020 	ldr	r0, [r0, #32]
    a9e8:	e3500000 	cmp	r0, #0
    a9ec:	012fff1e 	bxeq	lr
    a9f0:	e593200c 	ldr	r2, [r3, #12]
    a9f4:	e52de004 	push	{lr}		; (str lr, [sp, #-4]!)
    a9f8:	e592e004 	ldr	lr, [r2, #4]
    a9fc:	e5931008 	ldr	r1, [r3, #8]
    aa00:	e31e0c02 	tst	lr, #512	; 0x200
    aa04:	e381c020 	orr	ip, r1, #32
    aa08:	13811021 	orrne	r1, r1, #33	; 0x21
    aa0c:	e583c008 	str	ip, [r3, #8]
    aa10:	15831008 	strne	r1, [r3, #8]
    aa14:	e5921004 	ldr	r1, [r2, #4]
    aa18:	e3e0c000 	mvn	ip, #0
    aa1c:	e3110c01 	tst	r1, #256	; 0x100
    aa20:	15931008 	ldrne	r1, [r3, #8]
    aa24:	e59fe020 	ldr	lr, [pc, #32]	; aa4c <i2c_lld_safety_timeout+0x6c>
    aa28:	13811004 	orrne	r1, r1, #4
    aa2c:	15831008 	strne	r1, [r3, #8]
    aa30:	e3a01000 	mov	r1, #0
    aa34:	e5821000 	str	r1, [r2]
    aa38:	e582e004 	str	lr, [r2, #4]
    aa3c:	e5831020 	str	r1, [r3, #32]
    aa40:	e49de004 	pop	{lr}		; (ldr lr, [sp], #4)
    aa44:	e580c024 	str	ip, [r0, #36]	; 0x24
    aa48:	eafffa9c 	b	94c0 <chSchReadyI>
    aa4c:	00000302 	andeq	r0, r0, r2, lsl #6

0000aa50 <i2c_lld_serve_interrupt>:
    aa50:	e590200c 	ldr	r2, [r0, #12]
    aa54:	e5921004 	ldr	r1, [r2, #4]
    aa58:	e3110c03 	tst	r1, #768	; 0x300
    aa5c:	0a000008 	beq	aa84 <i2c_lld_serve_interrupt+0x34>
    aa60:	e5903020 	ldr	r3, [r0, #32]
    aa64:	e3530000 	cmp	r3, #0
    aa68:	012fff1e 	bxeq	lr
    aa6c:	e3a01000 	mov	r1, #0
    aa70:	e3e02001 	mvn	r2, #1
    aa74:	e5801020 	str	r1, [r0, #32]
    aa78:	e1a00003 	mov	r0, r3
    aa7c:	e5832024 	str	r2, [r3, #36]	; 0x24
    aa80:	eafffa8e 	b	94c0 <chSchReadyI>
    aa84:	e3110002 	tst	r1, #2
    aa88:	e52de004 	push	{lr}		; (str lr, [sp, #-4]!)
    aa8c:	0a000017 	beq	aaf0 <i2c_lld_serve_interrupt+0xa0>
    aa90:	e3110020 	tst	r1, #32
    aa94:	1a000004 	bne	aaac <i2c_lld_serve_interrupt+0x5c>
    aa98:	ea000008 	b	aac0 <i2c_lld_serve_interrupt+0x70>
    aa9c:	e592e010 	ldr	lr, [r2, #16]
    aaa0:	e5901034 	ldr	r1, [r0, #52]	; 0x34
    aaa4:	e580c03c 	str	ip, [r0, #60]	; 0x3c
    aaa8:	e7c1e003 	strb	lr, [r1, r3]
    aaac:	e590303c 	ldr	r3, [r0, #60]	; 0x3c
    aab0:	e5901038 	ldr	r1, [r0, #56]	; 0x38
    aab4:	e283c001 	add	ip, r3, #1
    aab8:	e1530001 	cmp	r3, r1
    aabc:	3afffff6 	bcc	aa9c <i2c_lld_serve_interrupt+0x4c>
    aac0:	e3a01000 	mov	r1, #0
    aac4:	e5903020 	ldr	r3, [r0, #32]
    aac8:	e59fc0bc 	ldr	ip, [pc, #188]	; ab8c <i2c_lld_serve_interrupt+0x13c>
    aacc:	e1530001 	cmp	r3, r1
    aad0:	e5821000 	str	r1, [r2]
    aad4:	e582c004 	str	ip, [r2, #4]
    aad8:	049df004 	popeq	{pc}		; (ldreq pc, [sp], #4)
    aadc:	e5801020 	str	r1, [r0, #32]
    aae0:	e49de004 	pop	{lr}		; (ldr lr, [sp], #4)
    aae4:	e1a00003 	mov	r0, r3
    aae8:	e5831024 	str	r1, [r3, #36]	; 0x24
    aaec:	eafffa73 	b	94c0 <chSchReadyI>
    aaf0:	e3110004 	tst	r1, #4
    aaf4:	0a000012 	beq	ab44 <i2c_lld_serve_interrupt+0xf4>
    aaf8:	e5903030 	ldr	r3, [r0, #48]	; 0x30
    aafc:	e590c02c 	ldr	ip, [r0, #44]	; 0x2c
    ab00:	e15c0003 	cmp	ip, r3
    ab04:	949df004 	popls	{pc}		; (ldrls pc, [sp], #4)
    ab08:	e3110010 	tst	r1, #16
    ab0c:	049df004 	popeq	{pc}		; (ldreq pc, [sp], #4)
    ab10:	e590e028 	ldr	lr, [r0, #40]	; 0x28
    ab14:	e2433001 	sub	r3, r3, #1
    ab18:	e24cc001 	sub	ip, ip, #1
    ab1c:	e08e3003 	add	r3, lr, r3
    ab20:	e08ec00c 	add	ip, lr, ip
    ab24:	e26ee002 	rsb	lr, lr, #2
    ab28:	e08e1003 	add	r1, lr, r3
    ab2c:	e5801030 	str	r1, [r0, #48]	; 0x30
    ab30:	e5f31001 	ldrb	r1, [r3, #1]!
    ab34:	e153000c 	cmp	r3, ip
    ab38:	e5821010 	str	r1, [r2, #16]
    ab3c:	1afffff9 	bne	ab28 <i2c_lld_serve_interrupt+0xd8>
    ab40:	e49df004 	pop	{pc}		; (ldr pc, [sp], #4)
    ab44:	e3110008 	tst	r1, #8
    ab48:	049df004 	popeq	{pc}		; (ldreq pc, [sp], #4)
    ab4c:	e590303c 	ldr	r3, [r0, #60]	; 0x3c
    ab50:	e590c038 	ldr	ip, [r0, #56]	; 0x38
    ab54:	e15c0003 	cmp	ip, r3
    ab58:	949df004 	popls	{pc}		; (ldrls pc, [sp], #4)
    ab5c:	e3110020 	tst	r1, #32
    ab60:	049df004 	popeq	{pc}		; (ldreq pc, [sp], #4)
    ab64:	e592c010 	ldr	ip, [r2, #16]
    ab68:	e5901034 	ldr	r1, [r0, #52]	; 0x34
    ab6c:	e283e001 	add	lr, r3, #1
    ab70:	e580e03c 	str	lr, [r0, #60]	; 0x3c
    ab74:	e7c1c003 	strb	ip, [r1, r3]
    ab78:	e590303c 	ldr	r3, [r0, #60]	; 0x3c
    ab7c:	e5901038 	ldr	r1, [r0, #56]	; 0x38
    ab80:	e1530001 	cmp	r3, r1
    ab84:	3afffff6 	bcc	ab64 <i2c_lld_serve_interrupt+0x114>
    ab88:	e49df004 	pop	{pc}		; (ldr pc, [sp], #4)
    ab8c:	00000302 	andeq	r0, r0, r2, lsl #6

0000ab90 <i2c_lld_init>:
    ab90:	e59f0008 	ldr	r0, [pc, #8]	; aba0 <i2c_lld_init+0x10>
    ab94:	e59f3008 	ldr	r3, [pc, #8]	; aba4 <i2c_lld_init+0x14>
    ab98:	e580300c 	str	r3, [r0, #12]
    ab9c:	eafffddf 	b	a320 <i2cObjectInit>
    aba0:	0000cb24 	andeq	ip, r0, r4, lsr #22
    aba4:	20804000 	addcs	r4, r0, r0
	...

0000abb0 <i2c_lld_start>:
    abb0:	e92d4010 	push	{r4, lr}
    abb4:	e1a04000 	mov	r4, r0
    abb8:	e3a01004 	mov	r1, #4
    abbc:	e3a00002 	mov	r0, #2
    abc0:	eb00010e 	bl	b000 <bcm2835_gpio_fnsel>
    abc4:	e3a01004 	mov	r1, #4
    abc8:	e3a00003 	mov	r0, #3
    abcc:	eb00010b 	bl	b000 <bcm2835_gpio_fnsel>
    abd0:	e5942004 	ldr	r2, [r4, #4]
    abd4:	e59f3034 	ldr	r3, [pc, #52]	; ac10 <i2c_lld_start+0x60>
    abd8:	e5921000 	ldr	r1, [r2]
    abdc:	e3510000 	cmp	r1, #0
    abe0:	11510003 	cmpne	r1, r3
    abe4:	1a000004 	bne	abfc <i2c_lld_start+0x4c>
    abe8:	e594200c 	ldr	r2, [r4, #12]
    abec:	e5923000 	ldr	r3, [r2]
    abf0:	e3833902 	orr	r3, r3, #32768	; 0x8000
    abf4:	e5823000 	str	r3, [r2]
    abf8:	e8bd8010 	pop	{r4, pc}
    abfc:	e59f0010 	ldr	r0, [pc, #16]	; ac14 <i2c_lld_start+0x64>
    ac00:	ebfff612 	bl	8450 <__udivsi3>
    ac04:	e594200c 	ldr	r2, [r4, #12]
    ac08:	e5820014 	str	r0, [r2, #20]
    ac0c:	eafffff6 	b	abec <i2c_lld_start+0x3c>
    ac10:	000186a0 	andeq	r8, r1, r0, lsr #13
    ac14:	08f0d180 	ldmeq	r0!, {r7, r8, ip, lr, pc}^
	...

0000ac20 <i2c_lld_stop>:
    ac20:	e92d4010 	push	{r4, lr}
    ac24:	e1a04000 	mov	r4, r0
    ac28:	e3a01000 	mov	r1, #0
    ac2c:	e3a00002 	mov	r0, #2
    ac30:	eb0000f2 	bl	b000 <bcm2835_gpio_fnsel>
    ac34:	e3a01000 	mov	r1, #0
    ac38:	e3a00003 	mov	r0, #3
    ac3c:	eb0000ef 	bl	b000 <bcm2835_gpio_fnsel>
    ac40:	e594200c 	ldr	r2, [r4, #12]
    ac44:	e5923000 	ldr	r3, [r2]
    ac48:	e3c33902 	bic	r3, r3, #32768	; 0x8000
    ac4c:	e5823000 	str	r3, [r2]
    ac50:	e8bd8010 	pop	{r4, pc}
	...

0000ac60 <i2c_lld_master_receive_timeout>:
    ac60:	e92d41f0 	push	{r4, r5, r6, r7, r8, lr}
    ac64:	e24dd018 	sub	sp, sp, #24
    ac68:	e59d8030 	ldr	r8, [sp, #48]	; 0x30
    ac6c:	e1a04000 	mov	r4, r0
    ac70:	e3780001 	cmn	r8, #1
    ac74:	e1a06001 	mov	r6, r1
    ac78:	e1a07002 	mov	r7, r2
    ac7c:	e1a05003 	mov	r5, r3
    ac80:	0a000004 	beq	ac98 <i2c_lld_master_receive_timeout+0x38>
    ac84:	e1a03000 	mov	r3, r0
    ac88:	e1a01008 	mov	r1, r8
    ac8c:	e59f2088 	ldr	r2, [pc, #136]	; ad1c <i2c_lld_master_receive_timeout+0xbc>
    ac90:	e28d0004 	add	r0, sp, #4
    ac94:	ebfff9a9 	bl	9340 <chVTSetI>
    ac98:	e3a03000 	mov	r3, #0
    ac9c:	e594200c 	ldr	r2, [r4, #12]
    aca0:	e5843028 	str	r3, [r4, #40]	; 0x28
    aca4:	e584302c 	str	r3, [r4, #44]	; 0x2c
    aca8:	e5843030 	str	r3, [r4, #48]	; 0x30
    acac:	e584303c 	str	r3, [r4, #60]	; 0x3c
    acb0:	e59f1068 	ldr	r1, [pc, #104]	; ad20 <i2c_lld_master_receive_timeout+0xc0>
    acb4:	e59f3068 	ldr	r3, [pc, #104]	; ad24 <i2c_lld_master_receive_timeout+0xc4>
    acb8:	e1c462b4 	strh	r6, [r4, #36]	; 0x24
    acbc:	e5847034 	str	r7, [r4, #52]	; 0x34
    acc0:	e5845038 	str	r5, [r4, #56]	; 0x38
    acc4:	e582600c 	str	r6, [r2, #12]
    acc8:	e5825008 	str	r5, [r2, #8]
    accc:	e5821004 	str	r1, [r2, #4]
    acd0:	e5823000 	str	r3, [r2]
    acd4:	e321f09f 	msr	CPSR_c, #159	; 0x9f
    acd8:	e59f5048 	ldr	r5, [pc, #72]	; ad28 <i2c_lld_master_receive_timeout+0xc8>
    acdc:	e3a00002 	mov	r0, #2
    ace0:	e5953018 	ldr	r3, [r5, #24]
    ace4:	e5843020 	str	r3, [r4, #32]
    ace8:	ebfffa04 	bl	9500 <chSchGoSleepS>
    acec:	e3780001 	cmn	r8, #1
    acf0:	0a000004 	beq	ad08 <i2c_lld_master_receive_timeout+0xa8>
    acf4:	e59d3010 	ldr	r3, [sp, #16]
    acf8:	e3530000 	cmp	r3, #0
    acfc:	0a000001 	beq	ad08 <i2c_lld_master_receive_timeout+0xa8>
    ad00:	e28d0004 	add	r0, sp, #4
    ad04:	ebfff9a5 	bl	93a0 <chVTResetI>
    ad08:	e321f01f 	msr	CPSR_c, #31
    ad0c:	e5953018 	ldr	r3, [r5, #24]
    ad10:	e5930024 	ldr	r0, [r3, #36]	; 0x24
    ad14:	e28dd018 	add	sp, sp, #24
    ad18:	e8bd81f0 	pop	{r4, r5, r6, r7, r8, pc}
    ad1c:	0000a9e0 	andeq	sl, r0, r0, ror #19
    ad20:	00000302 	andeq	r0, r0, r2, lsl #6
    ad24:	00008591 	muleq	r0, r1, r5
    ad28:	0000ca24 	andeq	ip, r0, r4, lsr #20
    ad2c:	00000000 	andeq	r0, r0, r0

0000ad30 <i2c_lld_master_transmit_timeout>:
    ad30:	e92d47f0 	push	{r4, r5, r6, r7, r8, r9, sl, lr}
    ad34:	e24dd020 	sub	sp, sp, #32
    ad38:	e59d6048 	ldr	r6, [sp, #72]	; 0x48
    ad3c:	e1a04000 	mov	r4, r0
    ad40:	e3760001 	cmn	r6, #1
    ad44:	e1a05001 	mov	r5, r1
    ad48:	e1a0a002 	mov	sl, r2
    ad4c:	e1a09003 	mov	r9, r3
    ad50:	e59d8040 	ldr	r8, [sp, #64]	; 0x40
    ad54:	e5dd7044 	ldrb	r7, [sp, #68]	; 0x44
    ad58:	0a000004 	beq	ad70 <i2c_lld_master_transmit_timeout+0x40>
    ad5c:	e1a03000 	mov	r3, r0
    ad60:	e1a01006 	mov	r1, r6
    ad64:	e59f20f4 	ldr	r2, [pc, #244]	; ae60 <i2c_lld_master_transmit_timeout+0x130>
    ad68:	e28d000c 	add	r0, sp, #12
    ad6c:	ebfff973 	bl	9340 <chVTSetI>
    ad70:	e3a03000 	mov	r3, #0
    ad74:	e594200c 	ldr	r2, [r4, #12]
    ad78:	e59f10e4 	ldr	r1, [pc, #228]	; ae64 <i2c_lld_master_transmit_timeout+0x134>
    ad7c:	e5843030 	str	r3, [r4, #48]	; 0x30
    ad80:	e584303c 	str	r3, [r4, #60]	; 0x3c
    ad84:	e1c452b4 	strh	r5, [r4, #36]	; 0x24
    ad88:	e584a028 	str	sl, [r4, #40]	; 0x28
    ad8c:	e584902c 	str	r9, [r4, #44]	; 0x2c
    ad90:	e5848034 	str	r8, [r4, #52]	; 0x34
    ad94:	e5847038 	str	r7, [r4, #56]	; 0x38
    ad98:	e582500c 	str	r5, [r2, #12]
    ad9c:	e5829008 	str	r9, [r2, #8]
    ada0:	e5821004 	str	r1, [r2, #4]
    ada4:	e5923000 	ldr	r3, [r2]
    ada8:	e3833c83 	orr	r3, r3, #33536	; 0x8300
    adac:	e3833080 	orr	r3, r3, #128	; 0x80
    adb0:	e5823000 	str	r3, [r2]
    adb4:	e321f09f 	msr	CPSR_c, #159	; 0x9f
    adb8:	e59f90a8 	ldr	r9, [pc, #168]	; ae68 <i2c_lld_master_transmit_timeout+0x138>
    adbc:	e3a00002 	mov	r0, #2
    adc0:	e5993018 	ldr	r3, [r9, #24]
    adc4:	e5843020 	str	r3, [r4, #32]
    adc8:	ebfff9cc 	bl	9500 <chSchGoSleepS>
    adcc:	e3760001 	cmn	r6, #1
    add0:	0a000004 	beq	ade8 <i2c_lld_master_transmit_timeout+0xb8>
    add4:	e59d3018 	ldr	r3, [sp, #24]
    add8:	e3530000 	cmp	r3, #0
    addc:	0a000001 	beq	ade8 <i2c_lld_master_transmit_timeout+0xb8>
    ade0:	e28d000c 	add	r0, sp, #12
    ade4:	ebfff96d 	bl	93a0 <chVTResetI>
    ade8:	e321f01f 	msr	CPSR_c, #31
    adec:	e5992018 	ldr	r2, [r9, #24]
    adf0:	e2573000 	subs	r3, r7, #0
    adf4:	e5929024 	ldr	r9, [r2, #36]	; 0x24
    adf8:	13a03001 	movne	r3, #1
    adfc:	e3590000 	cmp	r9, #0
    ae00:	13a03000 	movne	r3, #0
    ae04:	e3530000 	cmp	r3, #0
    ae08:	1a000002 	bne	ae18 <i2c_lld_master_transmit_timeout+0xe8>
    ae0c:	e1a00009 	mov	r0, r9
    ae10:	e28dd020 	add	sp, sp, #32
    ae14:	e8bd87f0 	pop	{r4, r5, r6, r7, r8, r9, sl, pc}
    ae18:	e3e0c000 	mvn	ip, #0
    ae1c:	e1a03007 	mov	r3, r7
    ae20:	e1a02008 	mov	r2, r8
    ae24:	e1a01005 	mov	r1, r5
    ae28:	e1a00004 	mov	r0, r4
    ae2c:	e58dc000 	str	ip, [sp]
    ae30:	ebffff8a 	bl	ac60 <i2c_lld_master_receive_timeout>
    ae34:	e3760001 	cmn	r6, #1
    ae38:	e1a09000 	mov	r9, r0
    ae3c:	0afffff2 	beq	ae0c <i2c_lld_master_transmit_timeout+0xdc>
    ae40:	e59d3018 	ldr	r3, [sp, #24]
    ae44:	e3530000 	cmp	r3, #0
    ae48:	0affffef 	beq	ae0c <i2c_lld_master_transmit_timeout+0xdc>
    ae4c:	e28d000c 	add	r0, sp, #12
    ae50:	ebfff952 	bl	93a0 <chVTResetI>
    ae54:	e1a00009 	mov	r0, r9
    ae58:	e28dd020 	add	sp, sp, #32
    ae5c:	e8bd87f0 	pop	{r4, r5, r6, r7, r8, r9, sl, pc}
    ae60:	0000a9e0 	andeq	sl, r0, r0, ror #19
    ae64:	00000302 	andeq	r0, r0, r2, lsl #6
    ae68:	0000ca24 	andeq	ip, r0, r4, lsr #20
    ae6c:	00000000 	andeq	r0, r0, r0

0000ae70 <spi_lld_serve_interrupt>:
    ae70:	e59f3164 	ldr	r3, [pc, #356]	; afdc <spi_lld_serve_interrupt+0x16c>
    ae74:	e5933208 	ldr	r3, [r3, #520]	; 0x208
    ae78:	e3130501 	tst	r3, #4194304	; 0x400000
    ae7c:	012fff1e 	bxeq	lr
    ae80:	e59f3158 	ldr	r3, [pc, #344]	; afe0 <spi_lld_serve_interrupt+0x170>
    ae84:	e92d4010 	push	{r4, lr}
    ae88:	e5932000 	ldr	r2, [r3]
    ae8c:	e1a04000 	mov	r4, r0
    ae90:	e3120801 	tst	r2, #65536	; 0x10000
    ae94:	0a000016 	beq	aef4 <spi_lld_serve_interrupt+0x84>
    ae98:	e5902024 	ldr	r2, [r0, #36]	; 0x24
    ae9c:	e3520000 	cmp	r2, #0
    aea0:	0a000023 	beq	af34 <spi_lld_serve_interrupt+0xc4>
    aea4:	e5901004 	ldr	r1, [r0, #4]
    aea8:	e590c020 	ldr	ip, [r0, #32]
    aeac:	e5d11004 	ldrb	r1, [r1, #4]
    aeb0:	e3510000 	cmp	r1, #0
    aeb4:	e5931000 	ldr	r1, [r3]
    aeb8:	0a000038 	beq	afa0 <spi_lld_serve_interrupt+0x130>
    aebc:	e3110701 	tst	r1, #262144	; 0x40000
    aec0:	0a00000b 	beq	aef4 <spi_lld_serve_interrupt+0x84>
    aec4:	e1a0100c 	mov	r1, ip
    aec8:	e35c0000 	cmp	ip, #0
    aecc:	01a0000c 	moveq	r0, ip
    aed0:	10d100b2 	ldrhne	r0, [r1], #2
    aed4:	e2422002 	sub	r2, r2, #2
    aed8:	e5830004 	str	r0, [r3, #4]
    aedc:	e5930000 	ldr	r0, [r3]
    aee0:	e3100701 	tst	r0, #262144	; 0x40000
    aee4:	0a000001 	beq	aef0 <spi_lld_serve_interrupt+0x80>
    aee8:	e3520000 	cmp	r2, #0
    aeec:	1afffff5 	bne	aec8 <spi_lld_serve_interrupt+0x58>
    aef0:	e5842024 	str	r2, [r4, #36]	; 0x24
    aef4:	e59f30e4 	ldr	r3, [pc, #228]	; afe0 <spi_lld_serve_interrupt+0x170>
    aef8:	e5932000 	ldr	r2, [r3]
    aefc:	e3120702 	tst	r2, #524288	; 0x80000
    af00:	08bd8010 	popeq	{r4, pc}
    af04:	e5932000 	ldr	r2, [r3]
    af08:	e3120802 	tst	r2, #131072	; 0x20000
    af0c:	08bd8010 	popeq	{r4, pc}
    af10:	e594201c 	ldr	r2, [r4, #28]
    af14:	e5931004 	ldr	r1, [r3, #4]
    af18:	e3520000 	cmp	r2, #0
    af1c:	15c21000 	strbne	r1, [r2]
    af20:	eafffff7 	b	af04 <spi_lld_serve_interrupt+0x94>
    af24:	e594201c 	ldr	r2, [r4, #28]
    af28:	e5931004 	ldr	r1, [r3, #4]
    af2c:	e3520000 	cmp	r2, #0
    af30:	15c21000 	strbne	r1, [r2]
    af34:	e5932000 	ldr	r2, [r3]
    af38:	e3120802 	tst	r2, #131072	; 0x20000
    af3c:	1afffff8 	bne	af24 <spi_lld_serve_interrupt+0xb4>
    af40:	e5941004 	ldr	r1, [r4, #4]
    af44:	e5932000 	ldr	r2, [r3]
    af48:	e5911000 	ldr	r1, [r1]
    af4c:	e3c22d1a 	bic	r2, r2, #1664	; 0x680
    af50:	e3510000 	cmp	r1, #0
    af54:	e5832000 	str	r2, [r3]
    af58:	0a00000d 	beq	af94 <spi_lld_serve_interrupt+0x124>
    af5c:	e3a03004 	mov	r3, #4
    af60:	e1a00004 	mov	r0, r4
    af64:	e5c43000 	strb	r3, [r4]
    af68:	e12fff31 	blx	r1
    af6c:	e5d43000 	ldrb	r3, [r4]
    af70:	e3530004 	cmp	r3, #4
    af74:	0a000006 	beq	af94 <spi_lld_serve_interrupt+0x124>
    af78:	e5940008 	ldr	r0, [r4, #8]
    af7c:	e3500000 	cmp	r0, #0
    af80:	0affffdb 	beq	aef4 <spi_lld_serve_interrupt+0x84>
    af84:	e3a03000 	mov	r3, #0
    af88:	e5843008 	str	r3, [r4, #8]
    af8c:	ebfff94b 	bl	94c0 <chSchReadyI>
    af90:	eaffffd7 	b	aef4 <spi_lld_serve_interrupt+0x84>
    af94:	e3a03002 	mov	r3, #2
    af98:	e5c43000 	strb	r3, [r4]
    af9c:	eafffff5 	b	af78 <spi_lld_serve_interrupt+0x108>
    afa0:	e3110701 	tst	r1, #262144	; 0x40000
    afa4:	0affffd2 	beq	aef4 <spi_lld_serve_interrupt+0x84>
    afa8:	e1a0100c 	mov	r1, ip
    afac:	e35c0000 	cmp	ip, #0
    afb0:	01a0000c 	moveq	r0, ip
    afb4:	14d10001 	ldrbne	r0, [r1], #1
    afb8:	e2422001 	sub	r2, r2, #1
    afbc:	e5830004 	str	r0, [r3, #4]
    afc0:	e5930000 	ldr	r0, [r3]
    afc4:	e5842024 	str	r2, [r4, #36]	; 0x24
    afc8:	e3100701 	tst	r0, #262144	; 0x40000
    afcc:	0affffc8 	beq	aef4 <spi_lld_serve_interrupt+0x84>
    afd0:	e3520000 	cmp	r2, #0
    afd4:	1afffff4 	bne	afac <spi_lld_serve_interrupt+0x13c>
    afd8:	eaffffc5 	b	aef4 <spi_lld_serve_interrupt+0x84>
    afdc:	2000b000 	andcs	fp, r0, r0
    afe0:	20204000 	eorcs	r4, r0, r0
	...

0000aff0 <spi_lld_init>:
    aff0:	e59f0000 	ldr	r0, [pc]	; aff8 <spi_lld_init+0x8>
    aff4:	eafffd6d 	b	a5b0 <spiObjectInit>
    aff8:	0000cb64 	andeq	ip, r0, r4, ror #22
    affc:	00000000 	andeq	r0, r0, r0

0000b000 <bcm2835_gpio_fnsel>:
    b000:	e52de004 	push	{lr}		; (str lr, [sp, #-4]!)
    b004:	e3a0e007 	mov	lr, #7
    b008:	e59f3038 	ldr	r3, [pc, #56]	; b048 <bcm2835_gpio_fnsel+0x48>
    b00c:	e0832093 	umull	r2, r3, r3, r0
    b010:	e1a031a3 	lsr	r3, r3, #3
    b014:	e1a02103 	lsl	r2, r3, #2
    b018:	e2822202 	add	r2, r2, #536870912	; 0x20000000
    b01c:	e2822602 	add	r2, r2, #2097152	; 0x200000
    b020:	e0833103 	add	r3, r3, r3, lsl #2
    b024:	e592c000 	ldr	ip, [r2]
    b028:	e0400083 	sub	r0, r0, r3, lsl #1
    b02c:	e0800080 	add	r0, r0, r0, lsl #1
    b030:	e1ccc01e 	bic	ip, ip, lr, lsl r0
    b034:	e582c000 	str	ip, [r2]
    b038:	e5923000 	ldr	r3, [r2]
    b03c:	e1830011 	orr	r0, r3, r1, lsl r0
    b040:	e5820000 	str	r0, [r2]
    b044:	e49df004 	pop	{pc}		; (ldr pc, [sp], #4)
    b048:	cccccccd 	stclgt	12, cr12, [ip], {205}	; 0xcd
    b04c:	00000000 	andeq	r0, r0, r0

0000b050 <bcm2835_delay>:
    b050:	e3a03000 	mov	r3, #0
    b054:	e24dd008 	sub	sp, sp, #8
    b058:	e58d3004 	str	r3, [sp, #4]
    b05c:	e58d3004 	str	r3, [sp, #4]
    b060:	e59d3004 	ldr	r3, [sp, #4]
    b064:	e1500003 	cmp	r0, r3
    b068:	9a000005 	bls	b084 <bcm2835_delay+0x34>
    b06c:	e59d3004 	ldr	r3, [sp, #4]
    b070:	e2833001 	add	r3, r3, #1
    b074:	e58d3004 	str	r3, [sp, #4]
    b078:	e59d3004 	ldr	r3, [sp, #4]
    b07c:	e1530000 	cmp	r3, r0
    b080:	3afffff9 	bcc	b06c <bcm2835_delay+0x1c>
    b084:	e28dd008 	add	sp, sp, #8
    b088:	e12fff1e 	bx	lr
    b08c:	00000000 	andeq	r0, r0, r0

0000b090 <boardInit>:
    b090:	e12fff1e 	bx	lr
	...

0000b0a0 <chprintf>:
    b0a0:	e92d000e 	push	{r1, r2, r3}
    b0a4:	e92d4ff0 	push	{r4, r5, r6, r7, r8, r9, sl, fp, lr}
    b0a8:	e24dd028 	sub	sp, sp, #40	; 0x28
    b0ac:	e59d804c 	ldr	r8, [sp, #76]	; 0x4c
    b0b0:	e28d3050 	add	r3, sp, #80	; 0x50
    b0b4:	e1a02008 	mov	r2, r8
    b0b8:	e4d21001 	ldrb	r1, [r2], #1
    b0bc:	e58d300c 	str	r3, [sp, #12]
    b0c0:	e3510000 	cmp	r1, #0
    b0c4:	0a0000a9 	beq	b370 <chprintf+0x2d0>
    b0c8:	e1a05000 	mov	r5, r0
    b0cc:	ea000008 	b	b0f4 <chprintf+0x54>
    b0d0:	e5953000 	ldr	r3, [r5]
    b0d4:	e1a00005 	mov	r0, r5
    b0d8:	e5933008 	ldr	r3, [r3, #8]
    b0dc:	e1a08002 	mov	r8, r2
    b0e0:	e12fff33 	blx	r3
    b0e4:	e1a02008 	mov	r2, r8
    b0e8:	e4d21001 	ldrb	r1, [r2], #1
    b0ec:	e3510000 	cmp	r1, #0
    b0f0:	0a00009e 	beq	b370 <chprintf+0x2d0>
    b0f4:	e3510025 	cmp	r1, #37	; 0x25
    b0f8:	1afffff4 	bne	b0d0 <chprintf+0x30>
    b0fc:	e3a0c000 	mov	ip, #0
    b100:	e5d83001 	ldrb	r3, [r8, #1]
    b104:	e1a0400c 	mov	r4, ip
    b108:	e353002d 	cmp	r3, #45	; 0x2d
    b10c:	02882002 	addeq	r2, r8, #2
    b110:	e5d21000 	ldrb	r1, [r2]
    b114:	03a07001 	moveq	r7, #1
    b118:	13a07000 	movne	r7, #0
    b11c:	e351002e 	cmp	r1, #46	; 0x2e
    b120:	05d21001 	ldrbeq	r1, [r2, #1]
    b124:	02822001 	addeq	r2, r2, #1
    b128:	03a09030 	moveq	r9, #48	; 0x30
    b12c:	13a09020 	movne	r9, #32
    b130:	e59d000c 	ldr	r0, [sp, #12]
    b134:	e2822001 	add	r2, r2, #1
    b138:	ea000004 	b	b150 <chprintf+0xb0>
    b13c:	e3a0c001 	mov	ip, #1
    b140:	e4903004 	ldr	r3, [r0], #4
    b144:	e6ef3073 	uxtb	r3, r3
    b148:	e4d21001 	ldrb	r1, [r2], #1
    b14c:	e083408e 	add	r4, r3, lr, lsl #1
    b150:	e2413030 	sub	r3, r1, #48	; 0x30
    b154:	e6ef3073 	uxtb	r3, r3
    b158:	e3530009 	cmp	r3, #9
    b15c:	e1a08002 	mov	r8, r2
    b160:	e084e104 	add	lr, r4, r4, lsl #2
    b164:	9afffff7 	bls	b148 <chprintf+0xa8>
    b168:	e351002a 	cmp	r1, #42	; 0x2a
    b16c:	0afffff2 	beq	b13c <chprintf+0x9c>
    b170:	e35c0000 	cmp	ip, #0
    b174:	158d000c 	strne	r0, [sp, #12]
    b178:	e351002e 	cmp	r1, #46	; 0x2e
    b17c:	13a02000 	movne	r2, #0
    b180:	0a00012d 	beq	b63c <chprintf+0x59c>
    b184:	e20130df 	and	r3, r1, #223	; 0xdf
    b188:	e353004c 	cmp	r3, #76	; 0x4c
    b18c:	1a00003c 	bne	b284 <chprintf+0x1e4>
    b190:	e5d83000 	ldrb	r3, [r8]
    b194:	e3530000 	cmp	r3, #0
    b198:	11a01003 	movne	r1, r3
    b19c:	e2413044 	sub	r3, r1, #68	; 0x44
    b1a0:	12888001 	addne	r8, r8, #1
    b1a4:	e3530034 	cmp	r3, #52	; 0x34
    b1a8:	979ff103 	ldrls	pc, [pc, r3, lsl #2]
    b1ac:	ea000073 	b	b380 <chprintf+0x2e0>
    b1b0:	0000b7ac 	andeq	fp, r0, ip, lsr #15
    b1b4:	0000b380 	andeq	fp, r0, r0, lsl #7
    b1b8:	0000b380 	andeq	fp, r0, r0, lsl #7
    b1bc:	0000b380 	andeq	fp, r0, r0, lsl #7
    b1c0:	0000b380 	andeq	fp, r0, r0, lsl #7
    b1c4:	0000b380 	andeq	fp, r0, r0, lsl #7
    b1c8:	0000b380 	andeq	fp, r0, r0, lsl #7
    b1cc:	0000b380 	andeq	fp, r0, r0, lsl #7
    b1d0:	0000b380 	andeq	fp, r0, r0, lsl #7
    b1d4:	0000b380 	andeq	fp, r0, r0, lsl #7
    b1d8:	0000b380 	andeq	fp, r0, r0, lsl #7
    b1dc:	0000b7c0 	andeq	fp, r0, r0, asr #15
    b1e0:	0000b380 	andeq	fp, r0, r0, lsl #7
    b1e4:	0000b380 	andeq	fp, r0, r0, lsl #7
    b1e8:	0000b380 	andeq	fp, r0, r0, lsl #7
    b1ec:	0000b380 	andeq	fp, r0, r0, lsl #7
    b1f0:	0000b380 	andeq	fp, r0, r0, lsl #7
    b1f4:	0000b808 	andeq	fp, r0, r8, lsl #16
    b1f8:	0000b380 	andeq	fp, r0, r0, lsl #7
    b1fc:	0000b380 	andeq	fp, r0, r0, lsl #7
    b200:	0000b7e0 	andeq	fp, r0, r0, ror #15
    b204:	0000b380 	andeq	fp, r0, r0, lsl #7
    b208:	0000b380 	andeq	fp, r0, r0, lsl #7
    b20c:	0000b380 	andeq	fp, r0, r0, lsl #7
    b210:	0000b380 	andeq	fp, r0, r0, lsl #7
    b214:	0000b380 	andeq	fp, r0, r0, lsl #7
    b218:	0000b380 	andeq	fp, r0, r0, lsl #7
    b21c:	0000b380 	andeq	fp, r0, r0, lsl #7
    b220:	0000b380 	andeq	fp, r0, r0, lsl #7
    b224:	0000b380 	andeq	fp, r0, r0, lsl #7
    b228:	0000b380 	andeq	fp, r0, r0, lsl #7
    b22c:	0000b5e4 	andeq	fp, r0, r4, ror #11
    b230:	0000b7ac 	andeq	fp, r0, ip, lsr #15
    b234:	0000b380 	andeq	fp, r0, r0, lsl #7
    b238:	0000b458 	andeq	fp, r0, r8, asr r4
    b23c:	0000b380 	andeq	fp, r0, r0, lsl #7
    b240:	0000b380 	andeq	fp, r0, r0, lsl #7
    b244:	0000b380 	andeq	fp, r0, r0, lsl #7
    b248:	0000b380 	andeq	fp, r0, r0, lsl #7
    b24c:	0000b380 	andeq	fp, r0, r0, lsl #7
    b250:	0000b380 	andeq	fp, r0, r0, lsl #7
    b254:	0000b380 	andeq	fp, r0, r0, lsl #7
    b258:	0000b380 	andeq	fp, r0, r0, lsl #7
    b25c:	0000b7c0 	andeq	fp, r0, r0, asr #15
    b260:	0000b380 	andeq	fp, r0, r0, lsl #7
    b264:	0000b380 	andeq	fp, r0, r0, lsl #7
    b268:	0000b380 	andeq	fp, r0, r0, lsl #7
    b26c:	0000b3fc 	strdeq	fp, [r0], -ip
    b270:	0000b380 	andeq	fp, r0, r0, lsl #7
    b274:	0000b808 	andeq	fp, r0, r8, lsl #16
    b278:	0000b380 	andeq	fp, r0, r0, lsl #7
    b27c:	0000b380 	andeq	fp, r0, r0, lsl #7
    b280:	0000b7e0 	andeq	fp, r0, r0, ror #15
    b284:	e2413041 	sub	r3, r1, #65	; 0x41
    b288:	e2410044 	sub	r0, r1, #68	; 0x44
    b28c:	e6ef3073 	uxtb	r3, r3
    b290:	e3500034 	cmp	r0, #52	; 0x34
    b294:	979ff100 	ldrls	pc, [pc, r0, lsl #2]
    b298:	ea000038 	b	b380 <chprintf+0x2e0>
    b29c:	0000b69c 	muleq	r0, ip, r6
    b2a0:	0000b380 	andeq	fp, r0, r0, lsl #7
    b2a4:	0000b380 	andeq	fp, r0, r0, lsl #7
    b2a8:	0000b380 	andeq	fp, r0, r0, lsl #7
    b2ac:	0000b380 	andeq	fp, r0, r0, lsl #7
    b2b0:	0000b380 	andeq	fp, r0, r0, lsl #7
    b2b4:	0000b380 	andeq	fp, r0, r0, lsl #7
    b2b8:	0000b380 	andeq	fp, r0, r0, lsl #7
    b2bc:	0000b380 	andeq	fp, r0, r0, lsl #7
    b2c0:	0000b380 	andeq	fp, r0, r0, lsl #7
    b2c4:	0000b380 	andeq	fp, r0, r0, lsl #7
    b2c8:	0000b72c 	andeq	fp, r0, ip, lsr #14
    b2cc:	0000b380 	andeq	fp, r0, r0, lsl #7
    b2d0:	0000b380 	andeq	fp, r0, r0, lsl #7
    b2d4:	0000b380 	andeq	fp, r0, r0, lsl #7
    b2d8:	0000b380 	andeq	fp, r0, r0, lsl #7
    b2dc:	0000b380 	andeq	fp, r0, r0, lsl #7
    b2e0:	0000b7d8 	ldrdeq	fp, [r0], -r8
    b2e4:	0000b380 	andeq	fp, r0, r0, lsl #7
    b2e8:	0000b380 	andeq	fp, r0, r0, lsl #7
    b2ec:	0000b810 	andeq	fp, r0, r0, lsl r8
    b2f0:	0000b380 	andeq	fp, r0, r0, lsl #7
    b2f4:	0000b380 	andeq	fp, r0, r0, lsl #7
    b2f8:	0000b380 	andeq	fp, r0, r0, lsl #7
    b2fc:	0000b380 	andeq	fp, r0, r0, lsl #7
    b300:	0000b380 	andeq	fp, r0, r0, lsl #7
    b304:	0000b380 	andeq	fp, r0, r0, lsl #7
    b308:	0000b380 	andeq	fp, r0, r0, lsl #7
    b30c:	0000b380 	andeq	fp, r0, r0, lsl #7
    b310:	0000b380 	andeq	fp, r0, r0, lsl #7
    b314:	0000b380 	andeq	fp, r0, r0, lsl #7
    b318:	0000b5e4 	andeq	fp, r0, r4, ror #11
    b31c:	0000b69c 	muleq	r0, ip, r6
    b320:	0000b380 	andeq	fp, r0, r0, lsl #7
    b324:	0000b458 	andeq	fp, r0, r8, asr r4
    b328:	0000b380 	andeq	fp, r0, r0, lsl #7
    b32c:	0000b380 	andeq	fp, r0, r0, lsl #7
    b330:	0000b380 	andeq	fp, r0, r0, lsl #7
    b334:	0000b380 	andeq	fp, r0, r0, lsl #7
    b338:	0000b380 	andeq	fp, r0, r0, lsl #7
    b33c:	0000b380 	andeq	fp, r0, r0, lsl #7
    b340:	0000b380 	andeq	fp, r0, r0, lsl #7
    b344:	0000b380 	andeq	fp, r0, r0, lsl #7
    b348:	0000b72c 	andeq	fp, r0, ip, lsr #14
    b34c:	0000b380 	andeq	fp, r0, r0, lsl #7
    b350:	0000b380 	andeq	fp, r0, r0, lsl #7
    b354:	0000b380 	andeq	fp, r0, r0, lsl #7
    b358:	0000b3fc 	strdeq	fp, [r0], -ip
    b35c:	0000b380 	andeq	fp, r0, r0, lsl #7
    b360:	0000b7d8 	ldrdeq	fp, [r0], -r8
    b364:	0000b380 	andeq	fp, r0, r0, lsl #7
    b368:	0000b380 	andeq	fp, r0, r0, lsl #7
    b36c:	0000b810 	andeq	fp, r0, r0, lsl r8
    b370:	e28dd028 	add	sp, sp, #40	; 0x28
    b374:	e8bd4ff0 	pop	{r4, r5, r6, r7, r8, r9, sl, fp, lr}
    b378:	e28dd00c 	add	sp, sp, #12
    b37c:	e12fff1e 	bx	lr
    b380:	e5cd1010 	strb	r1, [sp, #16]
    b384:	e3570000 	cmp	r7, #0
    b388:	e244a001 	sub	sl, r4, #1
    b38c:	13a07000 	movne	r7, #0
    b390:	e1caafca 	bic	sl, sl, sl, asr #31
    b394:	128d6010 	addne	r6, sp, #16
    b398:	1a000004 	bne	b3b0 <chprintf+0x310>
    b39c:	e3540001 	cmp	r4, #1
    b3a0:	e26aa000 	rsb	sl, sl, #0
    b3a4:	d28d6010 	addle	r6, sp, #16
    b3a8:	d1a0a007 	movle	sl, r7
    b3ac:	ca000093 	bgt	b600 <chprintf+0x560>
    b3b0:	e0867007 	add	r7, r6, r7
    b3b4:	e5953000 	ldr	r3, [r5]
    b3b8:	e4d61001 	ldrb	r1, [r6], #1
    b3bc:	e5933008 	ldr	r3, [r3, #8]
    b3c0:	e1a00005 	mov	r0, r5
    b3c4:	e12fff33 	blx	r3
    b3c8:	e0473006 	sub	r3, r7, r6
    b3cc:	e3530000 	cmp	r3, #0
    b3d0:	aafffff7 	bge	b3b4 <chprintf+0x314>
    b3d4:	e35a0000 	cmp	sl, #0
    b3d8:	0affff41 	beq	b0e4 <chprintf+0x44>
    b3dc:	e5953000 	ldr	r3, [r5]
    b3e0:	e1a01009 	mov	r1, r9
    b3e4:	e1a00005 	mov	r0, r5
    b3e8:	e5933008 	ldr	r3, [r3, #8]
    b3ec:	e12fff33 	blx	r3
    b3f0:	e25aa001 	subs	sl, sl, #1
    b3f4:	1afffff8 	bne	b3dc <chprintf+0x33c>
    b3f8:	eaffff39 	b	b0e4 <chprintf+0x44>
    b3fc:	e59d300c 	ldr	r3, [sp, #12]
    b400:	e5936000 	ldr	r6, [r3]
    b404:	e2833004 	add	r3, r3, #4
    b408:	e3560000 	cmp	r6, #0
    b40c:	e58d300c 	str	r3, [sp, #12]
    b410:	0a00009c 	beq	b688 <chprintf+0x5e8>
    b414:	e59f142c 	ldr	r1, [pc, #1068]	; b848 <chprintf+0x7a8>
    b418:	e5d63000 	ldrb	r3, [r6]
    b41c:	e3520000 	cmp	r2, #0
    b420:	01a02001 	moveq	r2, r1
    b424:	e3530000 	cmp	r3, #0
    b428:	0a0000fc 	beq	b820 <chprintf+0x780>
    b42c:	e1a0a006 	mov	sl, r6
    b430:	ea000003 	b	b444 <chprintf+0x3a4>
    b434:	e1e0300a 	mvn	r3, sl
    b438:	e0863003 	add	r3, r6, r3
    b43c:	e1730002 	cmn	r3, r2
    b440:	4a000002 	bmi	b450 <chprintf+0x3b0>
    b444:	e5fa3001 	ldrb	r3, [sl, #1]!
    b448:	e3530000 	cmp	r3, #0
    b44c:	1afffff8 	bne	b434 <chprintf+0x394>
    b450:	e3a09020 	mov	r9, #32
    b454:	ea000055 	b	b5b0 <chprintf+0x510>
    b458:	e59d300c 	ldr	r3, [sp, #12]
    b45c:	e2833007 	add	r3, r3, #7
    b460:	e3c33007 	bic	r3, r3, #7
    b464:	e2832008 	add	r2, r3, #8
    b468:	e1c300d0 	ldrd	r0, [r3]
    b46c:	e58d200c 	str	r2, [sp, #12]
    b470:	ebfff566 	bl	8a10 <__aeabi_d2f>
    b474:	e3a01000 	mov	r1, #0
    b478:	e1a0b000 	mov	fp, r0
    b47c:	ebfff724 	bl	9114 <__aeabi_fcmplt>
    b480:	e3500000 	cmp	r0, #0
    b484:	13a0302d 	movne	r3, #45	; 0x2d
    b488:	128bb102 	addne	fp, fp, #-2147483648	; 0x80000000
    b48c:	028d6010 	addeq	r6, sp, #16
    b490:	e1a0000b 	mov	r0, fp
    b494:	01a0a006 	moveq	sl, r6
    b498:	15cd3010 	strbne	r3, [sp, #16]
    b49c:	128da011 	addne	sl, sp, #17
    b4a0:	128d6010 	addne	r6, sp, #16
    b4a4:	ebfff50f 	bl	88e8 <__aeabi_f2d>
    b4a8:	e1a02000 	mov	r2, r0
    b4ac:	e1a03001 	mov	r3, r1
    b4b0:	e1a0000b 	mov	r0, fp
    b4b4:	e1cd20f0 	strd	r2, [sp]
    b4b8:	ebfff730 	bl	9180 <__aeabi_f2iz>
    b4bc:	e28ac00b 	add	ip, sl, #11
    b4c0:	e1a02000 	mov	r2, r0
    b4c4:	e1a0e00c 	mov	lr, ip
    b4c8:	e59f337c 	ldr	r3, [pc, #892]	; b84c <chprintf+0x7ac>
    b4cc:	e3520009 	cmp	r2, #9
    b4d0:	e0831293 	umull	r1, r3, r3, r2
    b4d4:	e1a031a3 	lsr	r3, r3, #3
    b4d8:	e1a01003 	mov	r1, r3
    b4dc:	e0833103 	add	r3, r3, r3, lsl #2
    b4e0:	e0423083 	sub	r3, r2, r3, lsl #1
    b4e4:	e2833030 	add	r3, r3, #48	; 0x30
    b4e8:	e6ef3073 	uxtb	r3, r3
    b4ec:	e1a02001 	mov	r2, r1
    b4f0:	e56e3001 	strb	r3, [lr, #-1]!
    b4f4:	8afffff3 	bhi	b4c8 <chprintf+0x428>
    b4f8:	e04cc00e 	sub	ip, ip, lr
    b4fc:	e1a0100e 	mov	r1, lr
    b500:	e1a0200a 	mov	r2, sl
    b504:	e08ae00c 	add	lr, sl, ip
    b508:	ea000000 	b	b510 <chprintf+0x470>
    b50c:	e5f13001 	ldrb	r3, [r1, #1]!
    b510:	e4c23001 	strb	r3, [r2], #1
    b514:	e152000e 	cmp	r2, lr
    b518:	1afffffb 	bne	b50c <chprintf+0x46c>
    b51c:	e3a0302e 	mov	r3, #46	; 0x2e
    b520:	e24cc001 	sub	ip, ip, #1
    b524:	e5c23000 	strb	r3, [r2]
    b528:	e08aa00c 	add	sl, sl, ip
    b52c:	ebfff4e3 	bl	88c0 <__aeabi_i2d>
    b530:	e1a02000 	mov	r2, r0
    b534:	e1a03001 	mov	r3, r1
    b538:	e1cd00d0 	ldrd	r0, [sp]
    b53c:	ebfff411 	bl	8588 <__aeabi_dsub>
    b540:	e59f3308 	ldr	r3, [pc, #776]	; b850 <chprintf+0x7b0>
    b544:	e3a02000 	mov	r2, #0
    b548:	ebfff31c 	bl	81c0 <__aeabi_dmul>
    b54c:	ebfff517 	bl	89b0 <__aeabi_d2iz>
    b550:	e3a0c002 	mov	ip, #2
    b554:	e59f22f0 	ldr	r2, [pc, #752]	; b84c <chprintf+0x7ac>
    b558:	e28a1002 	add	r1, sl, #2
    b55c:	e08e3092 	umull	r3, lr, r2, r0
    b560:	e1a0e1ae 	lsr	lr, lr, #3
    b564:	e082be92 	umull	fp, r2, r2, lr
    b568:	e1a021a2 	lsr	r2, r2, #3
    b56c:	e0822c12 	add	r2, r2, r2, lsl ip
    b570:	e04e2082 	sub	r2, lr, r2, lsl #1
    b574:	e08ebc1e 	add	fp, lr, lr, lsl ip
    b578:	e040e08b 	sub	lr, r0, fp, lsl #1
    b57c:	e2822030 	add	r2, r2, #48	; 0x30
    b580:	e28ee030 	add	lr, lr, #48	; 0x30
    b584:	e6ef2072 	uxtb	r2, r2
    b588:	e5cae00c 	strb	lr, [sl, #12]
    b58c:	e5ca200b 	strb	r2, [sl, #11]
    b590:	e1a03001 	mov	r3, r1
    b594:	e28aa004 	add	sl, sl, #4
    b598:	ea000000 	b	b5a0 <chprintf+0x500>
    b59c:	e5d32009 	ldrb	r2, [r3, #9]
    b5a0:	e4c32001 	strb	r2, [r3], #1
    b5a4:	e153000a 	cmp	r3, sl
    b5a8:	1afffffb 	bne	b59c <chprintf+0x4fc>
    b5ac:	e081a00c 	add	sl, r1, ip
    b5b0:	e04a3006 	sub	r3, sl, r6
    b5b4:	e0444003 	sub	r4, r4, r3
    b5b8:	e3570000 	cmp	r7, #0
    b5bc:	e1c4afc4 	bic	sl, r4, r4, asr #31
    b5c0:	12437001 	subne	r7, r3, #1
    b5c4:	1a000003 	bne	b5d8 <chprintf+0x538>
    b5c8:	e3540000 	cmp	r4, #0
    b5cc:	e2437001 	sub	r7, r3, #1
    b5d0:	e26aa000 	rsb	sl, sl, #0
    b5d4:	ca00000a 	bgt	b604 <chprintf+0x564>
    b5d8:	e3570000 	cmp	r7, #0
    b5dc:	aaffff73 	bge	b3b0 <chprintf+0x310>
    b5e0:	eaffff7b 	b	b3d4 <chprintf+0x334>
    b5e4:	e59d300c 	ldr	r3, [sp, #12]
    b5e8:	e3a09020 	mov	r9, #32
    b5ec:	e5932000 	ldr	r2, [r3]
    b5f0:	e2833004 	add	r3, r3, #4
    b5f4:	e5cd2010 	strb	r2, [sp, #16]
    b5f8:	e58d300c 	str	r3, [sp, #12]
    b5fc:	eaffff60 	b	b384 <chprintf+0x2e4>
    b600:	e28d6010 	add	r6, sp, #16
    b604:	e5d63000 	ldrb	r3, [r6]
    b608:	e353002d 	cmp	r3, #45	; 0x2d
    b60c:	03590030 	cmpeq	r9, #48	; 0x30
    b610:	0a000074 	beq	b7e8 <chprintf+0x748>
    b614:	e5953000 	ldr	r3, [r5]
    b618:	e1a01009 	mov	r1, r9
    b61c:	e1a00005 	mov	r0, r5
    b620:	e5933008 	ldr	r3, [r3, #8]
    b624:	e12fff33 	blx	r3
    b628:	e29aa001 	adds	sl, sl, #1
    b62c:	1afffff8 	bne	b614 <chprintf+0x574>
    b630:	e3570000 	cmp	r7, #0
    b634:	aaffff5d 	bge	b3b0 <chprintf+0x310>
    b638:	eafffea9 	b	b0e4 <chprintf+0x44>
    b63c:	e3a0e000 	mov	lr, #0
    b640:	e59d000c 	ldr	r0, [sp, #12]
    b644:	e1a0200e 	mov	r2, lr
    b648:	ea000003 	b	b65c <chprintf+0x5bc>
    b64c:	e3a0e001 	mov	lr, #1
    b650:	e4903004 	ldr	r3, [r0], #4
    b654:	e6ef3073 	uxtb	r3, r3
    b658:	e083208c 	add	r2, r3, ip, lsl #1
    b65c:	e4d81001 	ldrb	r1, [r8], #1
    b660:	e082c102 	add	ip, r2, r2, lsl #2
    b664:	e2413030 	sub	r3, r1, #48	; 0x30
    b668:	e6ef3073 	uxtb	r3, r3
    b66c:	e3530009 	cmp	r3, #9
    b670:	9afffff8 	bls	b658 <chprintf+0x5b8>
    b674:	e351002a 	cmp	r1, #42	; 0x2a
    b678:	0afffff3 	beq	b64c <chprintf+0x5ac>
    b67c:	e35e0000 	cmp	lr, #0
    b680:	158d000c 	strne	r0, [sp, #12]
    b684:	eafffebe 	b	b184 <chprintf+0xe4>
    b688:	e3520000 	cmp	r2, #0
    b68c:	1a000061 	bne	b818 <chprintf+0x778>
    b690:	e59f21b0 	ldr	r2, [pc, #432]	; b848 <chprintf+0x7a8>
    b694:	e59f61b8 	ldr	r6, [pc, #440]	; b854 <chprintf+0x7b4>
    b698:	eaffff63 	b	b42c <chprintf+0x38c>
    b69c:	e3530019 	cmp	r3, #25
    b6a0:	9a000041 	bls	b7ac <chprintf+0x70c>
    b6a4:	e59d300c 	ldr	r3, [sp, #12]
    b6a8:	e2832004 	add	r2, r3, #4
    b6ac:	e5931000 	ldr	r1, [r3]
    b6b0:	e58d200c 	str	r2, [sp, #12]
    b6b4:	e3510000 	cmp	r1, #0
    b6b8:	a28d6010 	addge	r6, sp, #16
    b6bc:	a1a0c006 	movge	ip, r6
    b6c0:	b28dc011 	addlt	ip, sp, #17
    b6c4:	b3a0302d 	movlt	r3, #45	; 0x2d
    b6c8:	e28c200b 	add	r2, ip, #11
    b6cc:	e1a00002 	mov	r0, r2
    b6d0:	b2611000 	rsblt	r1, r1, #0
    b6d4:	b5cd3010 	strblt	r3, [sp, #16]
    b6d8:	b28d6010 	addlt	r6, sp, #16
    b6dc:	e59f3168 	ldr	r3, [pc, #360]	; b84c <chprintf+0x7ac>
    b6e0:	e3510009 	cmp	r1, #9
    b6e4:	e083e193 	umull	lr, r3, r3, r1
    b6e8:	e1a031a3 	lsr	r3, r3, #3
    b6ec:	e1a0e003 	mov	lr, r3
    b6f0:	e0833103 	add	r3, r3, r3, lsl #2
    b6f4:	e0413083 	sub	r3, r1, r3, lsl #1
    b6f8:	e2833030 	add	r3, r3, #48	; 0x30
    b6fc:	e6ef3073 	uxtb	r3, r3
    b700:	e1a0100e 	mov	r1, lr
    b704:	e5603001 	strb	r3, [r0, #-1]!
    b708:	cafffff3 	bgt	b6dc <chprintf+0x63c>
    b70c:	e0422000 	sub	r2, r2, r0
    b710:	e08ca002 	add	sl, ip, r2
    b714:	ea000000 	b	b71c <chprintf+0x67c>
    b718:	e5f03001 	ldrb	r3, [r0, #1]!
    b71c:	e4cc3001 	strb	r3, [ip], #1
    b720:	e15c000a 	cmp	ip, sl
    b724:	1afffffb 	bne	b718 <chprintf+0x678>
    b728:	eaffffa0 	b	b5b0 <chprintf+0x510>
    b72c:	e3a06008 	mov	r6, #8
    b730:	e3530019 	cmp	r3, #25
    b734:	9a000022 	bls	b7c4 <chprintf+0x724>
    b738:	e59d300c 	ldr	r3, [sp, #12]
    b73c:	e2832004 	add	r2, r3, #4
    b740:	e5930000 	ldr	r0, [r3]
    b744:	e58d200c 	str	r2, [sp, #12]
    b748:	e28db01b 	add	fp, sp, #27
    b74c:	ea000000 	b	b754 <chprintf+0x6b4>
    b750:	e1a0b001 	mov	fp, r1
    b754:	e1a01006 	mov	r1, r6
    b758:	e1a0a000 	mov	sl, r0
    b75c:	ebfff378 	bl	8544 <__aeabi_uidivmod>
    b760:	e2813030 	add	r3, r1, #48	; 0x30
    b764:	e3530039 	cmp	r3, #57	; 0x39
    b768:	c2813037 	addgt	r3, r1, #55	; 0x37
    b76c:	e6ef3073 	uxtb	r3, r3
    b770:	e15a0006 	cmp	sl, r6
    b774:	e54b3001 	strb	r3, [fp, #-1]
    b778:	e24b1001 	sub	r1, fp, #1
    b77c:	2afffff3 	bcs	b750 <chprintf+0x6b0>
    b780:	e28d6010 	add	r6, sp, #16
    b784:	e28d001b 	add	r0, sp, #27
    b788:	e1a02006 	mov	r2, r6
    b78c:	e040a001 	sub	sl, r0, r1
    b790:	ea000000 	b	b798 <chprintf+0x6f8>
    b794:	e4db3001 	ldrb	r3, [fp], #1
    b798:	e150000b 	cmp	r0, fp
    b79c:	e4c23001 	strb	r3, [r2], #1
    b7a0:	1afffffb 	bne	b794 <chprintf+0x6f4>
    b7a4:	e086a00a 	add	sl, r6, sl
    b7a8:	eaffff80 	b	b5b0 <chprintf+0x510>
    b7ac:	e59d300c 	ldr	r3, [sp, #12]
    b7b0:	e2832004 	add	r2, r3, #4
    b7b4:	e5931000 	ldr	r1, [r3]
    b7b8:	e58d200c 	str	r2, [sp, #12]
    b7bc:	eaffffbc 	b	b6b4 <chprintf+0x614>
    b7c0:	e3a06008 	mov	r6, #8
    b7c4:	e59d300c 	ldr	r3, [sp, #12]
    b7c8:	e2832004 	add	r2, r3, #4
    b7cc:	e5930000 	ldr	r0, [r3]
    b7d0:	e58d200c 	str	r2, [sp, #12]
    b7d4:	eaffffdb 	b	b748 <chprintf+0x6a8>
    b7d8:	e3a0600a 	mov	r6, #10
    b7dc:	eaffffd3 	b	b730 <chprintf+0x690>
    b7e0:	e3a06010 	mov	r6, #16
    b7e4:	eafffff6 	b	b7c4 <chprintf+0x724>
    b7e8:	e5953000 	ldr	r3, [r5]
    b7ec:	e3a0102d 	mov	r1, #45	; 0x2d
    b7f0:	e1a00005 	mov	r0, r5
    b7f4:	e5933008 	ldr	r3, [r3, #8]
    b7f8:	e2866001 	add	r6, r6, #1
    b7fc:	e2477001 	sub	r7, r7, #1
    b800:	e12fff33 	blx	r3
    b804:	eaffff82 	b	b614 <chprintf+0x574>
    b808:	e3a0600a 	mov	r6, #10
    b80c:	eaffffec 	b	b7c4 <chprintf+0x724>
    b810:	e3a06010 	mov	r6, #16
    b814:	eaffffc5 	b	b730 <chprintf+0x690>
    b818:	e59f6034 	ldr	r6, [pc, #52]	; b854 <chprintf+0x7b4>
    b81c:	eaffff02 	b	b42c <chprintf+0x38c>
    b820:	e3570000 	cmp	r7, #0
    b824:	11a0a004 	movne	sl, r4
    b828:	13a09020 	movne	r9, #32
    b82c:	1afffee8 	bne	b3d4 <chprintf+0x334>
    b830:	e3540000 	cmp	r4, #0
    b834:	e264a000 	rsb	sl, r4, #0
    b838:	0afffe29 	beq	b0e4 <chprintf+0x44>
    b83c:	e3a09020 	mov	r9, #32
    b840:	e3e07000 	mvn	r7, #0
    b844:	eaffff72 	b	b614 <chprintf+0x574>
    b848:	00007fff 	strdeq	r7, [r0], -pc	; <UNPREDICTABLE>
    b84c:	cccccccd 	stclgt	12, cr12, [ip], {205}	; 0xcd
    b850:	40590000 	subsmi	r0, r9, r0
    b854:	0000c440 	andeq	ip, r0, r0, asr #8
	...

0000b860 <display_float>:
    b860:	e92d4010 	push	{r4, lr}
    b864:	ebfff41f 	bl	88e8 <__aeabi_f2d>
    b868:	e1a02000 	mov	r2, r0
    b86c:	e1a03001 	mov	r3, r1
    b870:	e59f0010 	ldr	r0, [pc, #16]	; b888 <display_float+0x28>
    b874:	e59f1010 	ldr	r1, [pc, #16]	; b88c <display_float+0x2c>
    b878:	ebfffe08 	bl	b0a0 <chprintf>
    b87c:	e8bd4010 	pop	{r4, lr}
    b880:	e3a00f7d 	mov	r0, #500	; 0x1f4
    b884:	eafff819 	b	98f0 <chThdSleep>
    b888:	0000ca70 	andeq	ip, r0, r0, ror sl
    b88c:	0000c450 	andeq	ip, r0, r0, asr r4

0000b890 <get_min_value>:
    b890:	e92d41f0 	push	{r4, r5, r6, r7, r8, lr}
    b894:	e59f31cc 	ldr	r3, [pc, #460]	; ba68 <get_min_value+0x1d8>
    b898:	e59f41cc 	ldr	r4, [pc, #460]	; ba6c <get_min_value+0x1dc>
    b89c:	e3500004 	cmp	r0, #4
    b8a0:	979ff100 	ldrls	pc, [pc, r0, lsl #2]
    b8a4:	ea00005e 	b	ba24 <get_min_value+0x194>
    b8a8:	0000b904 	andeq	fp, r0, r4, lsl #18
    b8ac:	0000b9dc 	ldrdeq	fp, [r0], -ip
    b8b0:	0000b94c 	andeq	fp, r0, ip, asr #18
    b8b4:	0000b994 	muleq	r0, r4, r9
    b8b8:	0000b8bc 			; <UNDEFINED> instruction: 0x0000b8bc
    b8bc:	e5937000 	ldr	r7, [r3]
    b8c0:	e5945010 	ldr	r5, [r4, #16]
    b8c4:	e3570001 	cmp	r7, #1
    b8c8:	da00000b 	ble	b8fc <get_min_value+0x6c>
    b8cc:	e0873087 	add	r3, r7, r7, lsl #1
    b8d0:	e2447018 	sub	r7, r4, #24
    b8d4:	e0877183 	add	r7, r7, r3, lsl #3
    b8d8:	e5946028 	ldr	r6, [r4, #40]	; 0x28
    b8dc:	e1a01005 	mov	r1, r5
    b8e0:	e1a00006 	mov	r0, r6
    b8e4:	ebfff60a 	bl	9114 <__aeabi_fcmplt>
    b8e8:	e2844018 	add	r4, r4, #24
    b8ec:	e3500000 	cmp	r0, #0
    b8f0:	11a05006 	movne	r5, r6
    b8f4:	e1540007 	cmp	r4, r7
    b8f8:	1afffff6 	bne	b8d8 <get_min_value+0x48>
    b8fc:	e1a00005 	mov	r0, r5
    b900:	e8bd81f0 	pop	{r4, r5, r6, r7, r8, pc}
    b904:	e5937000 	ldr	r7, [r3]
    b908:	e5945004 	ldr	r5, [r4, #4]
    b90c:	e3570001 	cmp	r7, #1
    b910:	dafffff9 	ble	b8fc <get_min_value+0x6c>
    b914:	e0873087 	add	r3, r7, r7, lsl #1
    b918:	e2447018 	sub	r7, r4, #24
    b91c:	e0877183 	add	r7, r7, r3, lsl #3
    b920:	e594601c 	ldr	r6, [r4, #28]
    b924:	e1a01005 	mov	r1, r5
    b928:	e1a00006 	mov	r0, r6
    b92c:	ebfff5f8 	bl	9114 <__aeabi_fcmplt>
    b930:	e2844018 	add	r4, r4, #24
    b934:	e3500000 	cmp	r0, #0
    b938:	11a05006 	movne	r5, r6
    b93c:	e1540007 	cmp	r4, r7
    b940:	1afffff6 	bne	b920 <get_min_value+0x90>
    b944:	e1a00005 	mov	r0, r5
    b948:	e8bd81f0 	pop	{r4, r5, r6, r7, r8, pc}
    b94c:	e5937000 	ldr	r7, [r3]
    b950:	e5945008 	ldr	r5, [r4, #8]
    b954:	e3570001 	cmp	r7, #1
    b958:	daffffe7 	ble	b8fc <get_min_value+0x6c>
    b95c:	e0873087 	add	r3, r7, r7, lsl #1
    b960:	e2447018 	sub	r7, r4, #24
    b964:	e0877183 	add	r7, r7, r3, lsl #3
    b968:	e5946020 	ldr	r6, [r4, #32]
    b96c:	e1a01005 	mov	r1, r5
    b970:	e1a00006 	mov	r0, r6
    b974:	ebfff5e6 	bl	9114 <__aeabi_fcmplt>
    b978:	e2844018 	add	r4, r4, #24
    b97c:	e3500000 	cmp	r0, #0
    b980:	11a05006 	movne	r5, r6
    b984:	e1540007 	cmp	r4, r7
    b988:	1afffff6 	bne	b968 <get_min_value+0xd8>
    b98c:	e1a00005 	mov	r0, r5
    b990:	e8bd81f0 	pop	{r4, r5, r6, r7, r8, pc}
    b994:	e5937000 	ldr	r7, [r3]
    b998:	e594500c 	ldr	r5, [r4, #12]
    b99c:	e3570001 	cmp	r7, #1
    b9a0:	daffffd5 	ble	b8fc <get_min_value+0x6c>
    b9a4:	e0873087 	add	r3, r7, r7, lsl #1
    b9a8:	e2447018 	sub	r7, r4, #24
    b9ac:	e0877183 	add	r7, r7, r3, lsl #3
    b9b0:	e5946024 	ldr	r6, [r4, #36]	; 0x24
    b9b4:	e1a01005 	mov	r1, r5
    b9b8:	e1a00006 	mov	r0, r6
    b9bc:	ebfff5d4 	bl	9114 <__aeabi_fcmplt>
    b9c0:	e2844018 	add	r4, r4, #24
    b9c4:	e3500000 	cmp	r0, #0
    b9c8:	11a05006 	movne	r5, r6
    b9cc:	e1540007 	cmp	r4, r7
    b9d0:	1afffff6 	bne	b9b0 <get_min_value+0x120>
    b9d4:	e1a00005 	mov	r0, r5
    b9d8:	e8bd81f0 	pop	{r4, r5, r6, r7, r8, pc}
    b9dc:	e5937000 	ldr	r7, [r3]
    b9e0:	e5945000 	ldr	r5, [r4]
    b9e4:	e3570001 	cmp	r7, #1
    b9e8:	daffffc3 	ble	b8fc <get_min_value+0x6c>
    b9ec:	e0873087 	add	r3, r7, r7, lsl #1
    b9f0:	e2447018 	sub	r7, r4, #24
    b9f4:	e0877183 	add	r7, r7, r3, lsl #3
    b9f8:	e5946018 	ldr	r6, [r4, #24]
    b9fc:	e1a01005 	mov	r1, r5
    ba00:	e1a00006 	mov	r0, r6
    ba04:	ebfff5c2 	bl	9114 <__aeabi_fcmplt>
    ba08:	e2844018 	add	r4, r4, #24
    ba0c:	e3500000 	cmp	r0, #0
    ba10:	11a05006 	movne	r5, r6
    ba14:	e1540007 	cmp	r4, r7
    ba18:	1afffff6 	bne	b9f8 <get_min_value+0x168>
    ba1c:	e1a00005 	mov	r0, r5
    ba20:	e8bd81f0 	pop	{r4, r5, r6, r7, r8, pc}
    ba24:	e5933000 	ldr	r3, [r3]
    ba28:	e5945014 	ldr	r5, [r4, #20]
    ba2c:	e3530001 	cmp	r3, #1
    ba30:	daffffb1 	ble	b8fc <get_min_value+0x6c>
    ba34:	e0833083 	add	r3, r3, r3, lsl #1
    ba38:	e2446018 	sub	r6, r4, #24
    ba3c:	e0866183 	add	r6, r6, r3, lsl #3
    ba40:	e594702c 	ldr	r7, [r4, #44]	; 0x2c
    ba44:	e1a01005 	mov	r1, r5
    ba48:	e1a00007 	mov	r0, r7
    ba4c:	ebfff5b0 	bl	9114 <__aeabi_fcmplt>
    ba50:	e2844018 	add	r4, r4, #24
    ba54:	e3500000 	cmp	r0, #0
    ba58:	11a05007 	movne	r5, r7
    ba5c:	e1540006 	cmp	r4, r6
    ba60:	1afffff6 	bne	ba40 <get_min_value+0x1b0>
    ba64:	eaffffa4 	b	b8fc <get_min_value+0x6c>
    ba68:	0000cba0 	andeq	ip, r0, r0, lsr #23
    ba6c:	0000cba4 	andeq	ip, r0, r4, lsr #23

0000ba70 <get_max_value>:
    ba70:	e92d41f0 	push	{r4, r5, r6, r7, r8, lr}
    ba74:	e59f31cc 	ldr	r3, [pc, #460]	; bc48 <get_max_value+0x1d8>
    ba78:	e59f41cc 	ldr	r4, [pc, #460]	; bc4c <get_max_value+0x1dc>
    ba7c:	e3500004 	cmp	r0, #4
    ba80:	979ff100 	ldrls	pc, [pc, r0, lsl #2]
    ba84:	ea00005e 	b	bc04 <get_max_value+0x194>
    ba88:	0000bae4 	andeq	fp, r0, r4, ror #21
    ba8c:	0000bbbc 			; <UNDEFINED> instruction: 0x0000bbbc
    ba90:	0000bb2c 	andeq	fp, r0, ip, lsr #22
    ba94:	0000bb74 	andeq	fp, r0, r4, ror fp
    ba98:	0000ba9c 	muleq	r0, ip, sl
    ba9c:	e5937000 	ldr	r7, [r3]
    baa0:	e5945010 	ldr	r5, [r4, #16]
    baa4:	e3570001 	cmp	r7, #1
    baa8:	da00000b 	ble	badc <get_max_value+0x6c>
    baac:	e0873087 	add	r3, r7, r7, lsl #1
    bab0:	e2447018 	sub	r7, r4, #24
    bab4:	e0877183 	add	r7, r7, r3, lsl #3
    bab8:	e5946028 	ldr	r6, [r4, #40]	; 0x28
    babc:	e1a01005 	mov	r1, r5
    bac0:	e1a00006 	mov	r0, r6
    bac4:	ebfff5a4 	bl	915c <__aeabi_fcmpgt>
    bac8:	e2844018 	add	r4, r4, #24
    bacc:	e3500000 	cmp	r0, #0
    bad0:	11a05006 	movne	r5, r6
    bad4:	e1540007 	cmp	r4, r7
    bad8:	1afffff6 	bne	bab8 <get_max_value+0x48>
    badc:	e1a00005 	mov	r0, r5
    bae0:	e8bd81f0 	pop	{r4, r5, r6, r7, r8, pc}
    bae4:	e5937000 	ldr	r7, [r3]
    bae8:	e5945004 	ldr	r5, [r4, #4]
    baec:	e3570001 	cmp	r7, #1
    baf0:	dafffff9 	ble	badc <get_max_value+0x6c>
    baf4:	e0873087 	add	r3, r7, r7, lsl #1
    baf8:	e2447018 	sub	r7, r4, #24
    bafc:	e0877183 	add	r7, r7, r3, lsl #3
    bb00:	e594601c 	ldr	r6, [r4, #28]
    bb04:	e1a01005 	mov	r1, r5
    bb08:	e1a00006 	mov	r0, r6
    bb0c:	ebfff592 	bl	915c <__aeabi_fcmpgt>
    bb10:	e2844018 	add	r4, r4, #24
    bb14:	e3500000 	cmp	r0, #0
    bb18:	11a05006 	movne	r5, r6
    bb1c:	e1540007 	cmp	r4, r7
    bb20:	1afffff6 	bne	bb00 <get_max_value+0x90>
    bb24:	e1a00005 	mov	r0, r5
    bb28:	e8bd81f0 	pop	{r4, r5, r6, r7, r8, pc}
    bb2c:	e5937000 	ldr	r7, [r3]
    bb30:	e5945008 	ldr	r5, [r4, #8]
    bb34:	e3570001 	cmp	r7, #1
    bb38:	daffffe7 	ble	badc <get_max_value+0x6c>
    bb3c:	e0873087 	add	r3, r7, r7, lsl #1
    bb40:	e2447018 	sub	r7, r4, #24
    bb44:	e0877183 	add	r7, r7, r3, lsl #3
    bb48:	e5946020 	ldr	r6, [r4, #32]
    bb4c:	e1a01005 	mov	r1, r5
    bb50:	e1a00006 	mov	r0, r6
    bb54:	ebfff580 	bl	915c <__aeabi_fcmpgt>
    bb58:	e2844018 	add	r4, r4, #24
    bb5c:	e3500000 	cmp	r0, #0
    bb60:	11a05006 	movne	r5, r6
    bb64:	e1540007 	cmp	r4, r7
    bb68:	1afffff6 	bne	bb48 <get_max_value+0xd8>
    bb6c:	e1a00005 	mov	r0, r5
    bb70:	e8bd81f0 	pop	{r4, r5, r6, r7, r8, pc}
    bb74:	e5937000 	ldr	r7, [r3]
    bb78:	e594500c 	ldr	r5, [r4, #12]
    bb7c:	e3570001 	cmp	r7, #1
    bb80:	daffffd5 	ble	badc <get_max_value+0x6c>
    bb84:	e0873087 	add	r3, r7, r7, lsl #1
    bb88:	e2447018 	sub	r7, r4, #24
    bb8c:	e0877183 	add	r7, r7, r3, lsl #3
    bb90:	e5946024 	ldr	r6, [r4, #36]	; 0x24
    bb94:	e1a01005 	mov	r1, r5
    bb98:	e1a00006 	mov	r0, r6
    bb9c:	ebfff56e 	bl	915c <__aeabi_fcmpgt>
    bba0:	e2844018 	add	r4, r4, #24
    bba4:	e3500000 	cmp	r0, #0
    bba8:	11a05006 	movne	r5, r6
    bbac:	e1540007 	cmp	r4, r7
    bbb0:	1afffff6 	bne	bb90 <get_max_value+0x120>
    bbb4:	e1a00005 	mov	r0, r5
    bbb8:	e8bd81f0 	pop	{r4, r5, r6, r7, r8, pc}
    bbbc:	e5937000 	ldr	r7, [r3]
    bbc0:	e5945000 	ldr	r5, [r4]
    bbc4:	e3570001 	cmp	r7, #1
    bbc8:	daffffc3 	ble	badc <get_max_value+0x6c>
    bbcc:	e0873087 	add	r3, r7, r7, lsl #1
    bbd0:	e2447018 	sub	r7, r4, #24
    bbd4:	e0877183 	add	r7, r7, r3, lsl #3
    bbd8:	e5946018 	ldr	r6, [r4, #24]
    bbdc:	e1a01005 	mov	r1, r5
    bbe0:	e1a00006 	mov	r0, r6
    bbe4:	ebfff55c 	bl	915c <__aeabi_fcmpgt>
    bbe8:	e2844018 	add	r4, r4, #24
    bbec:	e3500000 	cmp	r0, #0
    bbf0:	11a05006 	movne	r5, r6
    bbf4:	e1540007 	cmp	r4, r7
    bbf8:	1afffff6 	bne	bbd8 <get_max_value+0x168>
    bbfc:	e1a00005 	mov	r0, r5
    bc00:	e8bd81f0 	pop	{r4, r5, r6, r7, r8, pc}
    bc04:	e5933000 	ldr	r3, [r3]
    bc08:	e5945014 	ldr	r5, [r4, #20]
    bc0c:	e3530001 	cmp	r3, #1
    bc10:	daffffb1 	ble	badc <get_max_value+0x6c>
    bc14:	e0833083 	add	r3, r3, r3, lsl #1
    bc18:	e2446018 	sub	r6, r4, #24
    bc1c:	e0866183 	add	r6, r6, r3, lsl #3
    bc20:	e594702c 	ldr	r7, [r4, #44]	; 0x2c
    bc24:	e1a01005 	mov	r1, r5
    bc28:	e1a00007 	mov	r0, r7
    bc2c:	ebfff54a 	bl	915c <__aeabi_fcmpgt>
    bc30:	e2844018 	add	r4, r4, #24
    bc34:	e3500000 	cmp	r0, #0
    bc38:	11a05007 	movne	r5, r7
    bc3c:	e1540006 	cmp	r4, r6
    bc40:	1afffff6 	bne	bc20 <get_max_value+0x1b0>
    bc44:	eaffffa4 	b	badc <get_max_value+0x6c>
    bc48:	0000cba0 	andeq	ip, r0, r0, lsr #23
    bc4c:	0000cba4 	andeq	ip, r0, r4, lsr #23

0000bc50 <receiveSilentDt2>:
    bc50:	e3a00ffa 	mov	r0, #1000	; 0x3e8
    bc54:	e3a0100c 	mov	r1, #12
    bc58:	e3a03001 	mov	r3, #1
    bc5c:	e52de004 	push	{lr}		; (str lr, [sp, #-4]!)
    bc60:	e59f203c 	ldr	r2, [pc, #60]	; bca4 <receiveSilentDt2+0x54>
    bc64:	e24dd01c 	sub	sp, sp, #28
    bc68:	e58d0008 	str	r0, [sp, #8]
    bc6c:	e58d1004 	str	r1, [sp, #4]
    bc70:	e58d2000 	str	r2, [sp]
    bc74:	e3a01004 	mov	r1, #4
    bc78:	e28d2017 	add	r2, sp, #23
    bc7c:	e59f0024 	ldr	r0, [pc, #36]	; bca8 <receiveSilentDt2+0x58>
    bc80:	e5cd3017 	strb	r3, [sp, #23]
    bc84:	ebfff9c5 	bl	a3a0 <i2cMasterTransmitTimeout>
    bc88:	e1a02000 	mov	r2, r0
    bc8c:	e59f3018 	ldr	r3, [pc, #24]	; bcac <receiveSilentDt2+0x5c>
    bc90:	e59f0018 	ldr	r0, [pc, #24]	; bcb0 <receiveSilentDt2+0x60>
    bc94:	e5832000 	str	r2, [r3]
    bc98:	ebfff714 	bl	98f0 <chThdSleep>
    bc9c:	e28dd01c 	add	sp, sp, #28
    bca0:	e49df004 	pop	{pc}		; (ldr pc, [sp], #4)
    bca4:	0000cb90 	muleq	r0, r0, fp
    bca8:	0000cb24 	andeq	ip, r0, r4, lsr #22
    bcac:	0000cd88 	andeq	ip, r0, r8, lsl #27
    bcb0:	00000dac 	andeq	r0, r0, ip, lsr #27
	...

0000bcc0 <receiveSilentDt1>:
    bcc0:	e3a01ffa 	mov	r1, #1000	; 0x3e8
    bcc4:	e3a0200c 	mov	r2, #12
    bcc8:	e3a0c000 	mov	ip, #0
    bccc:	e52de004 	push	{lr}		; (str lr, [sp, #-4]!)
    bcd0:	e59f3040 	ldr	r3, [pc, #64]	; bd18 <receiveSilentDt1+0x58>
    bcd4:	e24dd01c 	sub	sp, sp, #28
    bcd8:	e58d1008 	str	r1, [sp, #8]
    bcdc:	e58d2004 	str	r2, [sp, #4]
    bce0:	e3a01004 	mov	r1, #4
    bce4:	e58d3000 	str	r3, [sp]
    bce8:	e28d2017 	add	r2, sp, #23
    bcec:	e3a03001 	mov	r3, #1
    bcf0:	e59f0024 	ldr	r0, [pc, #36]	; bd1c <receiveSilentDt1+0x5c>
    bcf4:	e5cdc017 	strb	ip, [sp, #23]
    bcf8:	ebfff9a8 	bl	a3a0 <i2cMasterTransmitTimeout>
    bcfc:	e1a02000 	mov	r2, r0
    bd00:	e59f3018 	ldr	r3, [pc, #24]	; bd20 <receiveSilentDt1+0x60>
    bd04:	e59f0018 	ldr	r0, [pc, #24]	; bd24 <receiveSilentDt1+0x64>
    bd08:	e5832000 	str	r2, [r3]
    bd0c:	ebfff6f7 	bl	98f0 <chThdSleep>
    bd10:	e28dd01c 	add	sp, sp, #28
    bd14:	e49df004 	pop	{pc}		; (ldr pc, [sp], #4)
    bd18:	0000cd8c 	andeq	ip, r0, ip, lsl #27
    bd1c:	0000cb24 	andeq	ip, r0, r4, lsr #22
    bd20:	0000cb8c 	andeq	ip, r0, ip, lsl #23
    bd24:	00000dac 	andeq	r0, r0, ip, lsr #27
	...

0000bd30 <Thread_I2C>:
    bd30:	e59f3034 	ldr	r3, [pc, #52]	; bd6c <Thread_I2C+0x3c>
    bd34:	e92d4010 	push	{r4, lr}
    bd38:	e593c018 	ldr	ip, [r3, #24]
    bd3c:	e59fe02c 	ldr	lr, [pc, #44]	; bd70 <Thread_I2C+0x40>
    bd40:	e59f302c 	ldr	r3, [pc, #44]	; bd74 <Thread_I2C+0x44>
    bd44:	e59f002c 	ldr	r0, [pc, #44]	; bd78 <Thread_I2C+0x48>
    bd48:	e59f102c 	ldr	r1, [pc, #44]	; bd7c <Thread_I2C+0x4c>
    bd4c:	e59f202c 	ldr	r2, [pc, #44]	; bd80 <Thread_I2C+0x50>
    bd50:	e58ce018 	str	lr, [ip, #24]
    bd54:	e5830000 	str	r0, [r3]
    bd58:	e5831004 	str	r1, [r3, #4]
    bd5c:	e5832008 	str	r2, [r3, #8]
    bd60:	ebffffd6 	bl	bcc0 <receiveSilentDt1>
    bd64:	ebffffb9 	bl	bc50 <receiveSilentDt2>
    bd68:	eafffffc 	b	bd60 <Thread_I2C+0x30>
    bd6c:	0000ca24 	andeq	ip, r0, r4, lsr #20
    bd70:	0000c470 	andeq	ip, r0, r0, ror r4
    bd74:	0000cd8c 	andeq	ip, r0, ip, lsl #27
    bd78:	3ea8f5c3 	cdpcc	5, 10, cr15, cr8, cr3, {6}
    bd7c:	40151eb8 			; <UNDEFINED> instruction: 0x40151eb8
    bd80:	3f0ccccd 	svccc	0x000ccccd
	...

0000bd90 <main>:
    bd90:	e92d4010 	push	{r4, lr}
    bd94:	e3a04000 	mov	r4, #0
    bd98:	e24dd010 	sub	sp, sp, #16
    bd9c:	ebfff94f 	bl	a2e0 <halInit>
    bda0:	ebfff516 	bl	9200 <chSysInit>
    bda4:	e59f3078 	ldr	r3, [pc, #120]	; be24 <main+0x94>
    bda8:	e1a01004 	mov	r1, r4
    bdac:	e59f0074 	ldr	r0, [pc, #116]	; be28 <main+0x98>
    bdb0:	e5834000 	str	r4, [r3]
    bdb4:	ebfff9cd 	bl	a4f0 <sdStart>
    bdb8:	e28d100c 	add	r1, sp, #12
    bdbc:	e59f0068 	ldr	r0, [pc, #104]	; be2c <main+0x9c>
    bdc0:	ebfff95e 	bl	a340 <i2cStart>
    bdc4:	e3a0207f 	mov	r2, #127	; 0x7f
    bdc8:	e3a01f46 	mov	r1, #280	; 0x118
    bdcc:	e59f305c 	ldr	r3, [pc, #92]	; be30 <main+0xa0>
    bdd0:	e58d4000 	str	r4, [sp]
    bdd4:	e59f0058 	ldr	r0, [pc, #88]	; be34 <main+0xa4>
    bdd8:	ebfff698 	bl	9840 <chThdCreateStatic>
    bddc:	e3a0207f 	mov	r2, #127	; 0x7f
    bde0:	e3a01f46 	mov	r1, #280	; 0x118
    bde4:	e59f304c 	ldr	r3, [pc, #76]	; be38 <main+0xa8>
    bde8:	e58d4000 	str	r4, [sp]
    bdec:	e59f0048 	ldr	r0, [pc, #72]	; be3c <main+0xac>
    bdf0:	ebfff692 	bl	9840 <chThdCreateStatic>
    bdf4:	e3a020ff 	mov	r2, #255	; 0xff
    bdf8:	e3a01f66 	mov	r1, #408	; 0x198
    bdfc:	e59f303c 	ldr	r3, [pc, #60]	; be40 <main+0xb0>
    be00:	e58d4000 	str	r4, [sp]
    be04:	e59f0038 	ldr	r0, [pc, #56]	; be44 <main+0xb4>
    be08:	ebfff68c 	bl	9840 <chThdCreateStatic>
    be0c:	e59f3034 	ldr	r3, [pc, #52]	; be48 <main+0xb8>
    be10:	e5930018 	ldr	r0, [r3, #24]
    be14:	ebfff6dd 	bl	9990 <chThdWait>
    be18:	e1a00004 	mov	r0, r4
    be1c:	e28dd010 	add	sp, sp, #16
    be20:	e8bd8010 	pop	{r4, pc}
    be24:	0000cba0 	andeq	ip, r0, r0, lsr #23
    be28:	0000ca70 	andeq	ip, r0, r0, ror sl
    be2c:	0000cb24 	andeq	ip, r0, r4, lsr #22
    be30:	0000c3a0 	andeq	ip, r0, r0, lsr #7
    be34:	0000c860 	andeq	ip, r0, r0, ror #16
    be38:	0000bfc0 	andeq	fp, r0, r0, asr #31
    be3c:	0000c748 	andeq	ip, r0, r8, asr #14
    be40:	0000bd30 	andeq	fp, r0, r0, lsr sp
    be44:	0000c5b0 			; <UNDEFINED> instruction: 0x0000c5b0
    be48:	0000ca24 	andeq	ip, r0, r4, lsr #20
    be4c:	00000000 	andeq	r0, r0, r0

0000be50 <set_x>:
    be50:	e92d4070 	push	{r4, r5, r6, lr}
    be54:	e1a05000 	mov	r5, r0
    be58:	e59f4038 	ldr	r4, [pc, #56]	; be98 <set_x+0x48>
    be5c:	e3e02000 	mvn	r2, #0
    be60:	e1a00004 	mov	r0, r4
    be64:	e3a0107c 	mov	r1, #124	; 0x7c
    be68:	ebfff84c 	bl	9fa0 <chOQPutTimeout>
    be6c:	e1a00004 	mov	r0, r4
    be70:	e3e02000 	mvn	r2, #0
    be74:	e3a01018 	mov	r1, #24
    be78:	ebfff848 	bl	9fa0 <chOQPutTimeout>
    be7c:	e1a01005 	mov	r1, r5
    be80:	e1a00004 	mov	r0, r4
    be84:	e3e02000 	mvn	r2, #0
    be88:	ebfff844 	bl	9fa0 <chOQPutTimeout>
    be8c:	e8bd4070 	pop	{r4, r5, r6, lr}
    be90:	e3a0000a 	mov	r0, #10
    be94:	eafff695 	b	98f0 <chThdSleep>
    be98:	0000caa0 	andeq	ip, r0, r0, lsr #21
    be9c:	00000000 	andeq	r0, r0, r0

0000bea0 <set_y>:
    bea0:	e92d4070 	push	{r4, r5, r6, lr}
    bea4:	e1a05000 	mov	r5, r0
    bea8:	e59f4038 	ldr	r4, [pc, #56]	; bee8 <set_y+0x48>
    beac:	e3e02000 	mvn	r2, #0
    beb0:	e1a00004 	mov	r0, r4
    beb4:	e3a0107c 	mov	r1, #124	; 0x7c
    beb8:	ebfff838 	bl	9fa0 <chOQPutTimeout>
    bebc:	e1a00004 	mov	r0, r4
    bec0:	e3e02000 	mvn	r2, #0
    bec4:	e3a01019 	mov	r1, #25
    bec8:	ebfff834 	bl	9fa0 <chOQPutTimeout>
    becc:	e1a01005 	mov	r1, r5
    bed0:	e1a00004 	mov	r0, r4
    bed4:	e3e02000 	mvn	r2, #0
    bed8:	ebfff830 	bl	9fa0 <chOQPutTimeout>
    bedc:	e8bd4070 	pop	{r4, r5, r6, lr}
    bee0:	e3a0000a 	mov	r0, #10
    bee4:	eafff681 	b	98f0 <chThdSleep>
    bee8:	0000caa0 	andeq	ip, r0, r0, lsr #21
    beec:	00000000 	andeq	r0, r0, r0

0000bef0 <drawLine>:
    bef0:	e92d41f0 	push	{r4, r5, r6, r7, r8, lr}
    bef4:	e1a08000 	mov	r8, r0
    bef8:	e1a07001 	mov	r7, r1
    befc:	e1a06002 	mov	r6, r2
    bf00:	e1a05003 	mov	r5, r3
    bf04:	e59f4078 	ldr	r4, [pc, #120]	; bf84 <drawLine+0x94>
    bf08:	e3e02000 	mvn	r2, #0
    bf0c:	e1a00004 	mov	r0, r4
    bf10:	e3a0107c 	mov	r1, #124	; 0x7c
    bf14:	ebfff821 	bl	9fa0 <chOQPutTimeout>
    bf18:	e1a00004 	mov	r0, r4
    bf1c:	e3e02000 	mvn	r2, #0
    bf20:	e3a0100c 	mov	r1, #12
    bf24:	ebfff81d 	bl	9fa0 <chOQPutTimeout>
    bf28:	e1a01008 	mov	r1, r8
    bf2c:	e1a00004 	mov	r0, r4
    bf30:	e3e02000 	mvn	r2, #0
    bf34:	ebfff819 	bl	9fa0 <chOQPutTimeout>
    bf38:	e1a01007 	mov	r1, r7
    bf3c:	e1a00004 	mov	r0, r4
    bf40:	e3e02000 	mvn	r2, #0
    bf44:	ebfff815 	bl	9fa0 <chOQPutTimeout>
    bf48:	e1a01006 	mov	r1, r6
    bf4c:	e1a00004 	mov	r0, r4
    bf50:	e3e02000 	mvn	r2, #0
    bf54:	ebfff811 	bl	9fa0 <chOQPutTimeout>
    bf58:	e1a01005 	mov	r1, r5
    bf5c:	e1a00004 	mov	r0, r4
    bf60:	e3e02000 	mvn	r2, #0
    bf64:	ebfff80d 	bl	9fa0 <chOQPutTimeout>
    bf68:	e1a00004 	mov	r0, r4
    bf6c:	e3e02000 	mvn	r2, #0
    bf70:	e3a01001 	mov	r1, #1
    bf74:	ebfff809 	bl	9fa0 <chOQPutTimeout>
    bf78:	e8bd41f0 	pop	{r4, r5, r6, r7, r8, lr}
    bf7c:	e3a0000a 	mov	r0, #10
    bf80:	eafff65a 	b	98f0 <chThdSleep>
    bf84:	0000caa0 	andeq	ip, r0, r0, lsr #21
	...

0000bf90 <clear_screen>:
    bf90:	e92d4010 	push	{r4, lr}
    bf94:	e59f4020 	ldr	r4, [pc, #32]	; bfbc <clear_screen+0x2c>
    bf98:	e3e02000 	mvn	r2, #0
    bf9c:	e1a00004 	mov	r0, r4
    bfa0:	e3a0107c 	mov	r1, #124	; 0x7c
    bfa4:	ebfff7fd 	bl	9fa0 <chOQPutTimeout>
    bfa8:	e1a00004 	mov	r0, r4
    bfac:	e8bd4010 	pop	{r4, lr}
    bfb0:	e3e02000 	mvn	r2, #0
    bfb4:	e3a01000 	mov	r1, #0
    bfb8:	eafff7f8 	b	9fa0 <chOQPutTimeout>
    bfbc:	0000caa0 	andeq	ip, r0, r0, lsr #21

0000bfc0 <Thread_LCD>:
    bfc0:	e92d4ff0 	push	{r4, r5, r6, r7, r8, r9, sl, fp, lr}
    bfc4:	e3a05000 	mov	r5, #0
    bfc8:	e59f3230 	ldr	r3, [pc, #560]	; c200 <Thread_LCD+0x240>
    bfcc:	e59f2230 	ldr	r2, [pc, #560]	; c204 <Thread_LCD+0x244>
    bfd0:	e5933018 	ldr	r3, [r3, #24]
    bfd4:	e59fa22c 	ldr	sl, [pc, #556]	; c208 <Thread_LCD+0x248>
    bfd8:	e24dd00c 	sub	sp, sp, #12
    bfdc:	e5832018 	str	r2, [r3, #24]
    bfe0:	e1a00005 	mov	r0, r5
    bfe4:	ebfffe29 	bl	b890 <get_min_value>
    bfe8:	e1a07000 	mov	r7, r0
    bfec:	e1a00005 	mov	r0, r5
    bff0:	ebfffe9e 	bl	ba70 <get_max_value>
    bff4:	e1a08000 	mov	r8, r0
    bff8:	e3a00000 	mov	r0, #0
    bffc:	ebffff93 	bl	be50 <set_x>
    c000:	e3a0003d 	mov	r0, #61	; 0x3d
    c004:	ebffffa5 	bl	bea0 <set_y>
    c008:	e3550004 	cmp	r5, #4
    c00c:	d59f31f8 	ldrle	r3, [pc, #504]	; c20c <Thread_LCD+0x24c>
    c010:	c59f21f8 	ldrgt	r2, [pc, #504]	; c210 <Thread_LCD+0x250>
    c014:	d7932105 	ldrle	r2, [r3, r5, lsl #2]
    c018:	e59f31f4 	ldr	r3, [pc, #500]	; c214 <Thread_LCD+0x254>
    c01c:	e59f11f4 	ldr	r1, [pc, #500]	; c218 <Thread_LCD+0x258>
    c020:	e5933000 	ldr	r3, [r3]
    c024:	e59f01f0 	ldr	r0, [pc, #496]	; c21c <Thread_LCD+0x25c>
    c028:	ebfffc1c 	bl	b0a0 <chprintf>
    c02c:	e3a0000a 	mov	r0, #10
    c030:	ebfff62e 	bl	98f0 <chThdSleep>
    c034:	e3a0201d 	mov	r2, #29
    c038:	e3a03031 	mov	r3, #49	; 0x31
    c03c:	e1a00002 	mov	r0, r2
    c040:	e3a01000 	mov	r1, #0
    c044:	ebffffa9 	bl	bef0 <drawLine>
    c048:	e3a00000 	mov	r0, #0
    c04c:	ebffff7f 	bl	be50 <set_x>
    c050:	e3a00031 	mov	r0, #49	; 0x31
    c054:	ebffff91 	bl	bea0 <set_y>
    c058:	e1a00008 	mov	r0, r8
    c05c:	ebfffdff 	bl	b860 <display_float>
    c060:	e3a00000 	mov	r0, #0
    c064:	ebffff79 	bl	be50 <set_x>
    c068:	e3a00007 	mov	r0, #7
    c06c:	ebffff8b 	bl	bea0 <set_y>
    c070:	e1a00007 	mov	r0, r7
    c074:	ebfffdf9 	bl	b860 <display_float>
    c078:	e59f31a0 	ldr	r3, [pc, #416]	; c220 <Thread_LCD+0x260>
    c07c:	e5934000 	ldr	r4, [r3]
    c080:	e2446001 	sub	r6, r4, #1
    c084:	e3560000 	cmp	r6, #0
    c088:	da00004e 	ble	c1c8 <Thread_LCD+0x208>
    c08c:	e1a00007 	mov	r0, r7
    c090:	e3a015fe 	mov	r1, #1065353216	; 0x3f800000
    c094:	ebfff287 	bl	8ab8 <__aeabi_fsub>
    c098:	e1a07000 	mov	r7, r0
    c09c:	e3a015fe 	mov	r1, #1065353216	; 0x3f800000
    c0a0:	e1a00008 	mov	r0, r8
    c0a4:	ebfff284 	bl	8abc <__addsf3>
    c0a8:	e1a01007 	mov	r1, r7
    c0ac:	ebfff281 	bl	8ab8 <__aeabi_fsub>
    c0b0:	e1a09000 	mov	r9, r0
    c0b4:	e59f2168 	ldr	r2, [pc, #360]	; c224 <Thread_LCD+0x264>
    c0b8:	e1a03006 	mov	r3, r6
    c0bc:	e0846084 	add	r6, r4, r4, lsl #1
    c0c0:	e0826186 	add	r6, r2, r6, lsl #3
    c0c4:	e58d5004 	str	r5, [sp, #4]
    c0c8:	e59d2004 	ldr	r2, [sp, #4]
    c0cc:	e3520004 	cmp	r2, #4
    c0d0:	979ff102 	ldrls	pc, [pc, r2, lsl #2]
    c0d4:	ea000045 	b	c1f0 <Thread_LCD+0x230>
    c0d8:	0000c1b4 			; <UNDEFINED> instruction: 0x0000c1b4
    c0dc:	0000c1a4 	andeq	ip, r0, r4, lsr #3
    c0e0:	0000c194 	muleq	r0, r4, r1
    c0e4:	0000c184 	andeq	ip, r0, r4, lsl #3
    c0e8:	0000c0ec 	andeq	ip, r0, ip, ror #1
    c0ec:	e5160008 	ldr	r0, [r6, #-8]
    c0f0:	e516b020 	ldr	fp, [r6, #-32]	; 0xffffffe0
    c0f4:	e2438001 	sub	r8, r3, #1
    c0f8:	e1a01007 	mov	r1, r7
    c0fc:	e2644014 	rsb	r4, r4, #20
    c100:	e0844003 	add	r4, r4, r3
    c104:	ebfff26b 	bl	8ab8 <__aeabi_fsub>
    c108:	e1a01009 	mov	r1, r9
    c10c:	ebfff379 	bl	8ef8 <__aeabi_fdiv>
    c110:	e1a0100a 	mov	r1, sl
    c114:	ebfff311 	bl	8d60 <__aeabi_fmul>
    c118:	ebfff418 	bl	9180 <__aeabi_f2iz>
    c11c:	e1a03000 	mov	r3, r0
    c120:	e0844104 	add	r4, r4, r4, lsl #2
    c124:	e284201d 	add	r2, r4, #29
    c128:	e1a0000b 	mov	r0, fp
    c12c:	e1a01007 	mov	r1, r7
    c130:	e6efb073 	uxtb	fp, r3
    c134:	e6ef5072 	uxtb	r5, r2
    c138:	ebfff25e 	bl	8ab8 <__aeabi_fsub>
    c13c:	e1a01009 	mov	r1, r9
    c140:	ebfff36c 	bl	8ef8 <__aeabi_fdiv>
    c144:	e1a0100a 	mov	r1, sl
    c148:	ebfff304 	bl	8d60 <__aeabi_fmul>
    c14c:	ebfff40b 	bl	9180 <__aeabi_f2iz>
    c150:	e1a01000 	mov	r1, r0
    c154:	e2840018 	add	r0, r4, #24
    c158:	e1a0300b 	mov	r3, fp
    c15c:	e1a02005 	mov	r2, r5
    c160:	e6ef0070 	uxtb	r0, r0
    c164:	e6ef1071 	uxtb	r1, r1
    c168:	ebffff60 	bl	bef0 <drawLine>
    c16c:	e2583000 	subs	r3, r8, #0
    c170:	e2466018 	sub	r6, r6, #24
    c174:	0a000012 	beq	c1c4 <Thread_LCD+0x204>
    c178:	e59f20a0 	ldr	r2, [pc, #160]	; c220 <Thread_LCD+0x260>
    c17c:	e5924000 	ldr	r4, [r2]
    c180:	eaffffd0 	b	c0c8 <Thread_LCD+0x108>
    c184:	e516000c 	ldr	r0, [r6, #-12]
    c188:	e516b024 	ldr	fp, [r6, #-36]	; 0xffffffdc
    c18c:	e2438001 	sub	r8, r3, #1
    c190:	eaffffd8 	b	c0f8 <Thread_LCD+0x138>
    c194:	e5160010 	ldr	r0, [r6, #-16]
    c198:	e516b028 	ldr	fp, [r6, #-40]	; 0xffffffd8
    c19c:	e2438001 	sub	r8, r3, #1
    c1a0:	eaffffd4 	b	c0f8 <Thread_LCD+0x138>
    c1a4:	e5160018 	ldr	r0, [r6, #-24]	; 0xffffffe8
    c1a8:	e516b030 	ldr	fp, [r6, #-48]	; 0xffffffd0
    c1ac:	e2438001 	sub	r8, r3, #1
    c1b0:	eaffffd0 	b	c0f8 <Thread_LCD+0x138>
    c1b4:	e5160014 	ldr	r0, [r6, #-20]	; 0xffffffec
    c1b8:	e516b02c 	ldr	fp, [r6, #-44]	; 0xffffffd4
    c1bc:	e2438001 	sub	r8, r3, #1
    c1c0:	eaffffcc 	b	c0f8 <Thread_LCD+0x138>
    c1c4:	e59d5004 	ldr	r5, [sp, #4]
    c1c8:	e59f3058 	ldr	r3, [pc, #88]	; c228 <Thread_LCD+0x268>
    c1cc:	e2855001 	add	r5, r5, #1
    c1d0:	e0823593 	umull	r3, r2, r3, r5
    c1d4:	e3c23003 	bic	r3, r2, #3
    c1d8:	e0833122 	add	r3, r3, r2, lsr #2
    c1dc:	e59f0048 	ldr	r0, [pc, #72]	; c22c <Thread_LCD+0x26c>
    c1e0:	e0455003 	sub	r5, r5, r3
    c1e4:	ebfff5c1 	bl	98f0 <chThdSleep>
    c1e8:	ebffff68 	bl	bf90 <clear_screen>
    c1ec:	eaffff7b 	b	bfe0 <Thread_LCD+0x20>
    c1f0:	e5160004 	ldr	r0, [r6, #-4]
    c1f4:	e516b01c 	ldr	fp, [r6, #-28]	; 0xffffffe4
    c1f8:	e2438001 	sub	r8, r3, #1
    c1fc:	eaffffbd 	b	c0f8 <Thread_LCD+0x138>
    c200:	0000ca24 	andeq	ip, r0, r4, lsr #20
    c204:	0000c490 	muleq	r0, r0, r4
    c208:	42440000 	submi	r0, r4, #0
    c20c:	0000c530 	andeq	ip, r0, r0, lsr r5
    c210:	0000c460 	andeq	ip, r0, r0, ror #8
    c214:	0000cb9c 	muleq	r0, ip, fp
    c218:	0000c49c 	muleq	r0, ip, r4
    c21c:	0000ca70 	andeq	ip, r0, r0, ror sl
    c220:	0000cba0 	andeq	ip, r0, r0, lsr #23
    c224:	0000cba4 	andeq	ip, r0, r4, lsr #23
    c228:	cccccccd 	stclgt	12, cr12, [ip], {205}	; 0xcd
    c22c:	00000bb8 			; <UNDEFINED> instruction: 0x00000bb8

0000c230 <add_data>:
    c230:	e59fc0a4 	ldr	ip, [pc, #164]	; c2dc <add_data+0xac>
    c234:	e92d4ff0 	push	{r4, r5, r6, r7, r8, r9, sl, fp, lr}
    c238:	e1a0a000 	mov	sl, r0
    c23c:	e59c0000 	ldr	r0, [ip]
    c240:	e1a09001 	mov	r9, r1
    c244:	e3500013 	cmp	r0, #19
    c248:	e1a08002 	mov	r8, r2
    c24c:	e1a07003 	mov	r7, r3
    c250:	e59db024 	ldr	fp, [sp, #36]	; 0x24
    c254:	ca00000c 	bgt	c28c <add_data+0x5c>
    c258:	e59f2080 	ldr	r2, [pc, #128]	; c2e0 <add_data+0xb0>
    c25c:	e0801080 	add	r1, r0, r0, lsl #1
    c260:	e0823181 	add	r3, r2, r1, lsl #3
    c264:	e782a181 	str	sl, [r2, r1, lsl #3]
    c268:	e59d2028 	ldr	r2, [sp, #40]	; 0x28
    c26c:	e2800001 	add	r0, r0, #1
    c270:	e58c0000 	str	r0, [ip]
    c274:	e5839004 	str	r9, [r3, #4]
    c278:	e5838008 	str	r8, [r3, #8]
    c27c:	e583700c 	str	r7, [r3, #12]
    c280:	e583b010 	str	fp, [r3, #16]
    c284:	e5832014 	str	r2, [r3, #20]
    c288:	e8bd8ff0 	pop	{r4, r5, r6, r7, r8, r9, sl, fp, pc}
    c28c:	e59f604c 	ldr	r6, [pc, #76]	; c2e0 <add_data+0xb0>
    c290:	e1a04006 	mov	r4, r6
    c294:	e2865f72 	add	r5, r6, #456	; 0x1c8
    c298:	e1a0c004 	mov	ip, r4
    c29c:	e284e018 	add	lr, r4, #24
    c2a0:	e8be000f 	ldm	lr!, {r0, r1, r2, r3}
    c2a4:	e8ac000f 	stmia	ip!, {r0, r1, r2, r3}
    c2a8:	e2844018 	add	r4, r4, #24
    c2ac:	e1550004 	cmp	r5, r4
    c2b0:	e89e0003 	ldm	lr, {r0, r1}
    c2b4:	e88c0003 	stm	ip, {r0, r1}
    c2b8:	1afffff6 	bne	c298 <add_data+0x68>
    c2bc:	e59d3028 	ldr	r3, [sp, #40]	; 0x28
    c2c0:	e586a1c8 	str	sl, [r6, #456]	; 0x1c8
    c2c4:	e58691cc 	str	r9, [r6, #460]	; 0x1cc
    c2c8:	e58681d0 	str	r8, [r6, #464]	; 0x1d0
    c2cc:	e58671d4 	str	r7, [r6, #468]	; 0x1d4
    c2d0:	e586b1d8 	str	fp, [r6, #472]	; 0x1d8
    c2d4:	e58631dc 	str	r3, [r6, #476]	; 0x1dc
    c2d8:	e8bd8ff0 	pop	{r4, r5, r6, r7, r8, r9, sl, fp, pc}
    c2dc:	0000cba0 	andeq	ip, r0, r0, lsr #23
    c2e0:	0000cba4 	andeq	ip, r0, r4, lsr #23
	...

0000c2f0 <printDataDt1>:
    c2f0:	e52de004 	push	{lr}		; (str lr, [sp, #-4]!)
    c2f4:	e59f3080 	ldr	r3, [pc, #128]	; c37c <printDataDt1+0x8c>
    c2f8:	e59f0080 	ldr	r0, [pc, #128]	; c380 <printDataDt1+0x90>
    c2fc:	e5931008 	ldr	r1, [r3, #8]
    c300:	e5932004 	ldr	r2, [r3, #4]
    c304:	e24dd014 	sub	sp, sp, #20
    c308:	e58d1004 	str	r1, [sp, #4]
    c30c:	e58d2000 	str	r2, [sp]
    c310:	e5902008 	ldr	r2, [r0, #8]
    c314:	e5933000 	ldr	r3, [r3]
    c318:	e5901004 	ldr	r1, [r0, #4]
    c31c:	e5900000 	ldr	r0, [r0]
    c320:	ebffffc2 	bl	c230 <add_data>
    c324:	e59f3058 	ldr	r3, [pc, #88]	; c384 <printDataDt1+0x94>
    c328:	e5932000 	ldr	r2, [r3]
    c32c:	e3720002 	cmn	r2, #2
    c330:	0a000001 	beq	c33c <printDataDt1+0x4c>
    c334:	e28dd014 	add	sp, sp, #20
    c338:	e49df004 	pop	{pc}		; (ldr pc, [sp], #4)
    c33c:	e59f1044 	ldr	r1, [pc, #68]	; c388 <printDataDt1+0x98>
    c340:	e59f0044 	ldr	r0, [pc, #68]	; c38c <printDataDt1+0x9c>
    c344:	ebfffb55 	bl	b0a0 <chprintf>
    c348:	e59f0040 	ldr	r0, [pc, #64]	; c390 <printDataDt1+0xa0>
    c34c:	ebfff80f 	bl	a390 <i2cGetErrors>
    c350:	e59f103c 	ldr	r1, [pc, #60]	; c394 <printDataDt1+0xa4>
    c354:	e1a02000 	mov	r2, r0
    c358:	e59f002c 	ldr	r0, [pc, #44]	; c38c <printDataDt1+0x9c>
    c35c:	ebfffb4f 	bl	b0a0 <chprintf>
    c360:	e59f0028 	ldr	r0, [pc, #40]	; c390 <printDataDt1+0xa0>
    c364:	ebfff801 	bl	a370 <i2cStop>
    c368:	e59f0020 	ldr	r0, [pc, #32]	; c390 <printDataDt1+0xa0>
    c36c:	e28d100c 	add	r1, sp, #12
    c370:	ebfff7f2 	bl	a340 <i2cStart>
    c374:	e28dd014 	add	sp, sp, #20
    c378:	e49df004 	pop	{pc}		; (ldr pc, [sp], #4)
    c37c:	0000cb90 	muleq	r0, r0, fp
    c380:	0000cd8c 	andeq	ip, r0, ip, lsl #27
    c384:	0000cb8c 	andeq	ip, r0, ip, lsl #23
    c388:	0000c4b0 			; <UNDEFINED> instruction: 0x0000c4b0
    c38c:	0000ca70 	andeq	ip, r0, r0, ror sl
    c390:	0000cb24 	andeq	ip, r0, r4, lsr #22
    c394:	0000c4bc 			; <UNDEFINED> instruction: 0x0000c4bc
	...

0000c3a0 <Thread_LED1>:
    c3a0:	e59f3020 	ldr	r3, [pc, #32]	; c3c8 <Thread_LED1+0x28>
    c3a4:	e59f2020 	ldr	r2, [pc, #32]	; c3cc <Thread_LED1+0x2c>
    c3a8:	e5933018 	ldr	r3, [r3, #24]
    c3ac:	e92d4010 	push	{r4, lr}
    c3b0:	e59f4018 	ldr	r4, [pc, #24]	; c3d0 <Thread_LED1+0x30>
    c3b4:	e5832018 	str	r2, [r3, #24]
    c3b8:	ebffffcc 	bl	c2f0 <printDataDt1>
    c3bc:	e1a00004 	mov	r0, r4
    c3c0:	ebfff54a 	bl	98f0 <chThdSleep>
    c3c4:	eafffffb 	b	c3b8 <Thread_LED1+0x18>
    c3c8:	0000ca24 	andeq	ip, r0, r4, lsr #20
    c3cc:	0000c4d0 	ldrdeq	ip, [r0], -r0
    c3d0:	00000dac 	andeq	r0, r0, ip, lsr #27
	...
    c3e0:	656c6469 	strbvs	r6, [ip, #-1129]!	; 0xfffffb97
	...

0000c3f0 <ch_debug>:
    c3f0:	6e69616d 	powvsez	f6, f1, #5.0
    c3f4:	11411600 	cmpne	r1, r0, lsl #12
    c3f8:	08440404 	stmdaeq	r4, {r2, sl}^
    c3fc:	1814100c 	ldmdane	r4, {r2, r3, ip}
    c400:	1e1d1c00 	cdpne	12, 1, cr1, cr13, cr0, {0}
    c404:	0000201f 	andeq	r2, r0, pc, lsl r0
	...

0000c410 <vmt>:
    c410:	0000a430 	andeq	sl, r0, r0, lsr r4
    c414:	0000a410 	andeq	sl, r0, r0, lsl r4
    c418:	0000a470 	andeq	sl, r0, r0, ror r4
    c41c:	0000a450 	andeq	sl, r0, r0, asr r4
    c420:	0000a460 	andeq	sl, r0, r0, ror #8
    c424:	0000a440 	andeq	sl, r0, r0, asr #8
    c428:	0000a420 	andeq	sl, r0, r0, lsr #8
    c42c:	0000a400 	andeq	sl, r0, r0, lsl #8

0000c430 <default_config>:
    c430:	0001c200 	andeq	ip, r1, r0, lsl #4
	...

0000c440 <pal_default_config>:
    c440:	6c756e28 	ldclvs	14, cr6, [r5], #-160	; 0xffffff60
    c444:	0000296c 	andeq	r2, r0, ip, ror #18
	...
    c450:	00006625 	andeq	r6, r0, r5, lsr #12
	...
    c460:	65636341 	strbvs	r6, [r3, #-833]!	; 0xfffffcbf
    c464:	6f72656c 	svcvs	0x0072656c
    c468:	6574656d 	ldrbvs	r6, [r4, #-1389]!	; 0xfffffa93
    c46c:	007a2072 	rsbseq	r2, sl, r2, ror r0
    c470:	64616552 	strbtvs	r6, [r1], #-1362	; 0xfffffaae
    c474:	6c6c6120 	stfvse	f6, [ip], #-128	; 0xffffff80
    c478:	65687420 	strbvs	r7, [r8, #-1056]!	; 0xfffffbe0
    c47c:	666e6920 	strbtvs	r6, [lr], -r0, lsr #18
    c480:	616d726f 	cmnvs	sp, pc, ror #4
    c484:	6e6f6974 			; <UNDEFINED> instruction: 0x6e6f6974
    c488:	206e6920 	rsbcs	r6, lr, r0, lsr #18
    c48c:	00433249 	subeq	r3, r3, r9, asr #4
    c490:	69726553 	ldmdbvs	r2!, {r0, r1, r4, r6, r8, sl, sp, lr}^
    c494:	72506c61 	subsvc	r6, r0, #24832	; 0x6100
    c498:	00746e69 	rsbseq	r6, r4, r9, ror #28
    c49c:	25207325 	strcs	r7, [r0, #-805]!	; 0xfffffcdb
    c4a0:	00003a64 	andeq	r3, r0, r4, ror #20
	...
    c4b0:	65736552 	ldrbvs	r6, [r3, #-1362]!	; 0xfffffaae
    c4b4:	25203a74 	strcs	r3, [r0, #-2676]!	; 0xfffff58c
    c4b8:	00000064 	andeq	r0, r0, r4, rrx
    c4bc:	67616c46 	strbvs	r6, [r1, -r6, asr #24]!
    c4c0:	25203a73 	strcs	r3, [r0, #-2675]!	; 0xfffff58d
    c4c4:	00000064 	andeq	r0, r0, r4, rrx
	...
    c4d0:	6e696c62 	cdpvs	12, 6, cr6, cr9, cr2, {3}
    c4d4:	2d72656b 	cfldr64cs	mvdx6, [r2, #-428]!	; 0xfffffe54
    c4d8:	00000031 	andeq	r0, r0, r1, lsr r0
    c4dc:	00000000 	andeq	r0, r0, r0
    c4e0:	706d6554 	rsbvc	r6, sp, r4, asr r5
    c4e4:	74617265 	strbtvc	r7, [r1], #-613	; 0xfffffd9b
    c4e8:	00657275 	rsbeq	r7, r5, r5, ror r2
    c4ec:	696d7548 	stmdbvs	sp!, {r3, r6, r8, sl, ip, sp, lr}^
    c4f0:	79746964 	ldmdbvc	r4!, {r2, r5, r6, r8, fp, sp, lr}^
    c4f4:	00000000 	andeq	r0, r0, r0
    c4f8:	74616548 	strbtvc	r6, [r1], #-1352	; 0xfffffab8
    c4fc:	646e6920 	strbtvs	r6, [lr], #-2336	; 0xfffff6e0
    c500:	00007865 	andeq	r7, r0, r5, ror #16
    c504:	65636341 	strbvs	r6, [r3, #-833]!	; 0xfffffcbf
    c508:	6f72656c 	svcvs	0x0072656c
    c50c:	6574656d 	ldrbvs	r6, [r4, #-1389]!	; 0xfffffa93
    c510:	00782072 	rsbseq	r2, r8, r2, ror r0
    c514:	65636341 	strbvs	r6, [r3, #-833]!	; 0xfffffcbf
    c518:	6f72656c 	svcvs	0x0072656c
    c51c:	6574656d 	ldrbvs	r6, [r4, #-1389]!	; 0xfffffa93
    c520:	00792072 	rsbseq	r2, r9, r2, ror r0
	...

0000c530 <CSWTCH.26>:
    c530:	0000c4e0 	andeq	ip, r0, r0, ror #9
    c534:	0000c4ec 	andeq	ip, r0, ip, ror #9
    c538:	0000c4f8 	strdeq	ip, [r0], -r8
    c53c:	0000c504 	andeq	ip, r0, r4, lsl #10
    c540:	0000c514 	andeq	ip, r0, r4, lsl r5
