ARM GAS  /tmp/cctdWfct.s 			page 1


   1              		.cpu arm1176jz-s
   2              		.eabi_attribute 20, 1
   3              		.eabi_attribute 21, 1
   4              		.eabi_attribute 23, 3
   5              		.eabi_attribute 24, 1
   6              		.eabi_attribute 25, 1
   7              		.eabi_attribute 26, 1
   8              		.eabi_attribute 30, 2
   9              		.eabi_attribute 34, 1
  10              		.eabi_attribute 18, 4
  11              		.file	"chevents.c"
  12              		.text
  13              	.Ltext0:
  14              		.cfi_sections	.debug_frame
  15              		.section	.text.chEvtRegisterMask,"ax",%progbits
  16              		.align	2
  17              		.global	chEvtRegisterMask
  18              		.arch armv6kz
  19              		.syntax unified
  20              		.arm
  21              		.fpu softvfp
  22              		.type	chEvtRegisterMask, %function
  23              	chEvtRegisterMask:
  24              	.LVL0:
  25              	.LFB7:
  26              		.file 1 "../../os/kernel/src/chevents.c"
  27              		.loc 1 78 80 view -0
  28              		.cfi_startproc
  29              		@ args = 0, pretend = 0, frame = 0
  30              		@ frame_needed = 0, uses_anonymous_args = 0
  31              		.loc 1 80 3 view .LVU1
  32              		.loc 1 80 66 view .LVU2
  33              		.loc 1 82 3 view .LVU3
  34              		.loc 1 78 80 is_stmt 0 view .LVU4
  35 0000 04E02DE5 		str	lr, [sp, #-4]!
  36              		.cfi_def_cfa_offset 4
  37              		.cfi_offset 14, -4
  38              		.loc 1 82 3 view .LVU5
  39              		.syntax divided
  40              	@ 82 "../../os/kernel/src/chevents.c" 1
  41 0004 9FF021E3 		msr     CPSR_c, #0x9F
  42              	@ 0 "" 2
  43              		.loc 1 82 3 is_stmt 1 view .LVU6
  44              		.loc 1 82 14 view .LVU7
  45              		.loc 1 83 3 view .LVU8
  46              		.loc 1 87 20 is_stmt 0 view .LVU9
  47              		.arm
  48              		.syntax unified
  49 0008 0030A0E3 		mov	r3, #0
  50              		.loc 1 85 22 view .LVU10
  51 000c 1CC09FE5 		ldr	ip, .L4
  52              		.loc 1 83 20 view .LVU11
  53 0010 00E090E5 		ldr	lr, [r0]
  54              		.loc 1 85 20 view .LVU12
  55 0014 18C09CE5 		ldr	ip, [ip, #24]
  56              		.loc 1 83 20 view .LVU13
  57 0018 00E081E5 		str	lr, [r1]
ARM GAS  /tmp/cctdWfct.s 			page 2


  58              		.loc 1 84 3 is_stmt 1 view .LVU14
  59              		.loc 1 84 20 is_stmt 0 view .LVU15
  60 001c 001080E5 		str	r1, [r0]
  61              		.loc 1 85 3 is_stmt 1 view .LVU16
  62              		.loc 1 87 20 is_stmt 0 view .LVU17
  63 0020 F820C1E1 		strd	r2, [r1, #8]
  64              		.loc 1 85 20 view .LVU18
  65 0024 04C081E5 		str	ip, [r1, #4]
  66              		.loc 1 86 3 is_stmt 1 view .LVU19
  67              		.loc 1 88 3 view .LVU20
  68              		.loc 1 88 3 view .LVU21
  69              		.syntax divided
  70              	@ 88 "../../os/kernel/src/chevents.c" 1
  71 0028 1FF021E3 		msr     CPSR_c, #0x1F
  72              	@ 0 "" 2
  73              		.loc 1 88 16 view .LVU22
  74              		.loc 1 89 1 is_stmt 0 view .LVU23
  75              		.arm
  76              		.syntax unified
  77 002c 04F09DE4 		ldr	pc, [sp], #4
  78              	.L5:
  79              		.align	2
  80              	.L4:
  81 0030 00000000 		.word	rlist
  82              		.cfi_endproc
  83              	.LFE7:
  84              		.size	chEvtRegisterMask, .-chEvtRegisterMask
  85              		.section	.text.chEvtUnregister,"ax",%progbits
  86              		.align	2
  87              		.global	chEvtUnregister
  88              		.syntax unified
  89              		.arm
  90              		.fpu softvfp
  91              		.type	chEvtUnregister, %function
  92              	chEvtUnregister:
  93              	.LVL1:
  94              	.LFB8:
  95              		.loc 1 104 60 is_stmt 1 view -0
  96              		.cfi_startproc
  97              		@ args = 0, pretend = 0, frame = 0
  98              		@ frame_needed = 0, uses_anonymous_args = 0
  99              		@ link register save eliminated.
 100              		.loc 1 105 3 view .LVU25
 101              		.loc 1 107 3 view .LVU26
 102              		.loc 1 107 64 view .LVU27
 103              		.loc 1 109 3 view .LVU28
 104              		.loc 1 110 3 view .LVU29
 105              		.syntax divided
 106              	@ 110 "../../os/kernel/src/chevents.c" 1
 107 0000 9FF021E3 		msr     CPSR_c, #0x9F
 108              	@ 0 "" 2
 109              		.loc 1 110 3 view .LVU30
 110              		.loc 1 110 14 view .LVU31
 111              		.loc 1 111 3 view .LVU32
 112              		.loc 1 109 5 is_stmt 0 view .LVU33
 113              		.arm
 114              		.syntax unified
ARM GAS  /tmp/cctdWfct.s 			page 3


 115 0004 0030A0E1 		mov	r3, r0
 116              		.loc 1 111 9 view .LVU34
 117 0008 010000EA 		b	.L7
 118              	.LVL2:
 119              	.L9:
 120              		.loc 1 112 8 view .LVU35
 121 000c 010053E1 		cmp	r3, r1
 122 0010 0500000A 		beq	.L11
 123              	.LVL3:
 124              	.L7:
 125              		.loc 1 112 5 is_stmt 1 view .LVU36
 126              		.loc 1 111 21 view .LVU37
 127 0014 0320A0E1 		mov	r2, r3
 128              		.loc 1 111 11 is_stmt 0 view .LVU38
 129 0018 003093E5 		ldr	r3, [r3]
 130              	.LVL4:
 131              		.loc 1 111 21 view .LVU39
 132 001c 000053E1 		cmp	r3, r0
 133 0020 F9FFFF1A 		bne	.L9
 134              		.loc 1 118 3 is_stmt 1 view .LVU40
 135              		.loc 1 118 3 view .LVU41
 136              		.syntax divided
 137              	@ 118 "../../os/kernel/src/chevents.c" 1
 138 0024 1FF021E3 		msr     CPSR_c, #0x1F
 139              	@ 0 "" 2
 140              		.loc 1 118 16 view .LVU42
 141              		.loc 1 119 1 is_stmt 0 view .LVU43
 142              		.arm
 143              		.syntax unified
 144 0028 1EFF2FE1 		bx	lr
 145              	.L11:
 146              		.loc 1 113 7 is_stmt 1 view .LVU44
 147              		.loc 1 113 23 is_stmt 0 view .LVU45
 148 002c 003093E5 		ldr	r3, [r3]
 149              		.loc 1 113 18 view .LVU46
 150 0030 003082E5 		str	r3, [r2]
 151              		.loc 1 114 7 is_stmt 1 view .LVU47
 152              		.loc 1 118 3 view .LVU48
 153              		.loc 1 118 3 view .LVU49
 154              		.syntax divided
 155              	@ 118 "../../os/kernel/src/chevents.c" 1
 156 0034 1FF021E3 		msr     CPSR_c, #0x1F
 157              	@ 0 "" 2
 158              		.loc 1 118 16 view .LVU50
 159              		.loc 1 119 1 is_stmt 0 view .LVU51
 160              		.arm
 161              		.syntax unified
 162 0038 1EFF2FE1 		bx	lr
 163              		.cfi_endproc
 164              	.LFE8:
 165              		.size	chEvtUnregister, .-chEvtUnregister
 166              		.section	.text.chEvtGetAndClearEvents,"ax",%progbits
 167              		.align	2
 168              		.global	chEvtGetAndClearEvents
 169              		.syntax unified
 170              		.arm
 171              		.fpu softvfp
ARM GAS  /tmp/cctdWfct.s 			page 4


 172              		.type	chEvtGetAndClearEvents, %function
 173              	chEvtGetAndClearEvents:
 174              	.LVL5:
 175              	.LFB9:
 176              		.loc 1 129 54 is_stmt 1 view -0
 177              		.cfi_startproc
 178              		@ args = 0, pretend = 0, frame = 0
 179              		@ frame_needed = 0, uses_anonymous_args = 0
 180              		@ link register save eliminated.
 181              		.loc 1 130 3 view .LVU53
 182              		.loc 1 132 3 view .LVU54
 183              		.syntax divided
 184              	@ 132 "../../os/kernel/src/chevents.c" 1
 185 0000 9FF021E3 		msr     CPSR_c, #0x9F
 186              	@ 0 "" 2
 187              		.loc 1 132 3 view .LVU55
 188              		.loc 1 132 14 view .LVU56
 189              		.loc 1 134 3 view .LVU57
 190              		.loc 1 134 7 is_stmt 0 view .LVU58
 191              		.arm
 192              		.syntax unified
 193 0004 18309FE5 		ldr	r3, .L13
 194 0008 182093E5 		ldr	r2, [r3, #24]
 195              		.loc 1 134 12 view .LVU59
 196 000c 383092E5 		ldr	r3, [r2, #56]
 197              	.LVL6:
 198              		.loc 1 135 3 is_stmt 1 view .LVU60
 199              		.loc 1 135 21 is_stmt 0 view .LVU61
 200 0010 0010C3E1 		bic	r1, r3, r0
 201 0014 381082E5 		str	r1, [r2, #56]
 202              		.loc 1 137 3 is_stmt 1 view .LVU62
 203              		.loc 1 137 3 view .LVU63
 204              		.syntax divided
 205              	@ 137 "../../os/kernel/src/chevents.c" 1
 206 0018 1FF021E3 		msr     CPSR_c, #0x1F
 207              	@ 0 "" 2
 208              		.loc 1 137 16 view .LVU64
 209              		.loc 1 138 3 view .LVU65
 210              		.loc 1 139 1 is_stmt 0 view .LVU66
 211              		.arm
 212              		.syntax unified
 213 001c 030000E0 		and	r0, r0, r3
 214              	.LVL7:
 215              		.loc 1 139 1 view .LVU67
 216 0020 1EFF2FE1 		bx	lr
 217              	.L14:
 218              		.align	2
 219              	.L13:
 220 0024 00000000 		.word	rlist
 221              		.cfi_endproc
 222              	.LFE9:
 223              		.size	chEvtGetAndClearEvents, .-chEvtGetAndClearEvents
 224              		.section	.text.chEvtAddEvents,"ax",%progbits
 225              		.align	2
 226              		.global	chEvtAddEvents
 227              		.syntax unified
 228              		.arm
ARM GAS  /tmp/cctdWfct.s 			page 5


 229              		.fpu softvfp
 230              		.type	chEvtAddEvents, %function
 231              	chEvtAddEvents:
 232              	.LVL8:
 233              	.LFB10:
 234              		.loc 1 150 46 is_stmt 1 view -0
 235              		.cfi_startproc
 236              		@ args = 0, pretend = 0, frame = 0
 237              		@ frame_needed = 0, uses_anonymous_args = 0
 238              		@ link register save eliminated.
 239              		.loc 1 152 3 view .LVU69
 240              		.syntax divided
 241              	@ 152 "../../os/kernel/src/chevents.c" 1
 242 0000 9FF021E3 		msr     CPSR_c, #0x9F
 243              	@ 0 "" 2
 244              		.loc 1 152 3 view .LVU70
 245              		.loc 1 152 14 view .LVU71
 246              		.loc 1 154 3 view .LVU72
 247              		.loc 1 154 11 is_stmt 0 view .LVU73
 248              		.arm
 249              		.syntax unified
 250 0004 14309FE5 		ldr	r3, .L16
 251 0008 183093E5 		ldr	r3, [r3, #24]
 252              		.loc 1 154 29 view .LVU74
 253 000c 382093E5 		ldr	r2, [r3, #56]
 254 0010 020080E1 		orr	r0, r0, r2
 255              	.LVL9:
 256              		.loc 1 154 29 view .LVU75
 257 0014 380083E5 		str	r0, [r3, #56]
 258              	.LVL10:
 259              		.loc 1 156 3 is_stmt 1 view .LVU76
 260              		.loc 1 156 3 view .LVU77
 261              		.syntax divided
 262              	@ 156 "../../os/kernel/src/chevents.c" 1
 263 0018 1FF021E3 		msr     CPSR_c, #0x1F
 264              	@ 0 "" 2
 265              		.loc 1 156 16 view .LVU78
 266              		.loc 1 157 3 view .LVU79
 267              		.loc 1 158 1 is_stmt 0 view .LVU80
 268              		.arm
 269              		.syntax unified
 270 001c 1EFF2FE1 		bx	lr
 271              	.L17:
 272              		.align	2
 273              	.L16:
 274 0020 00000000 		.word	rlist
 275              		.cfi_endproc
 276              	.LFE10:
 277              		.size	chEvtAddEvents, .-chEvtAddEvents
 278              		.section	.text.chEvtBroadcastFlagsI,"ax",%progbits
 279              		.align	2
 280              		.global	chEvtBroadcastFlagsI
 281              		.syntax unified
 282              		.arm
 283              		.fpu softvfp
 284              		.type	chEvtBroadcastFlagsI, %function
 285              	chEvtBroadcastFlagsI:
ARM GAS  /tmp/cctdWfct.s 			page 6


 286              	.LVL11:
 287              	.LFB11:
 288              		.loc 1 177 64 is_stmt 1 view -0
 289              		.cfi_startproc
 290              		@ args = 0, pretend = 0, frame = 0
 291              		@ frame_needed = 0, uses_anonymous_args = 0
 292              		.loc 1 178 3 view .LVU82
 293              		.loc 1 180 3 view .LVU83
 294              		.loc 1 180 21 view .LVU84
 295              		.loc 1 181 3 view .LVU85
 296              		.loc 1 181 49 view .LVU86
 297              		.loc 1 183 3 view .LVU87
 298              		.loc 1 177 64 is_stmt 0 view .LVU88
 299 0000 F0412DE9 		push	{r4, r5, r6, r7, r8, lr}
 300              		.cfi_def_cfa_offset 24
 301              		.cfi_offset 4, -24
 302              		.cfi_offset 5, -20
 303              		.cfi_offset 6, -16
 304              		.cfi_offset 7, -12
 305              		.cfi_offset 8, -8
 306              		.cfi_offset 14, -4
 307              		.loc 1 183 7 view .LVU89
 308 0004 004090E5 		ldr	r4, [r0]
 309              	.LVL12:
 310              		.loc 1 184 3 is_stmt 1 view .LVU90
 311              		.loc 1 184 14 view .LVU91
 312 0008 040050E1 		cmp	r0, r4
 313 000c F081BD08 		popeq	{r4, r5, r6, r7, r8, pc}
 314 0010 0060A0E1 		mov	r6, r0
 315 0014 0170A0E1 		mov	r7, r1
 316              	.LBB6:
 317              	.LBB7:
 318              	.LBB8:
 319              	.LBB9:
 320              		.loc 1 255 33 is_stmt 0 view .LVU92
 321 0018 0050A0E3 		mov	r5, #0
 322 001c 040000EA 		b	.L23
 323              	.LVL13:
 324              	.L20:
 325              		.loc 1 255 33 view .LVU93
 326              	.LBE9:
 327              	.LBE8:
 328              		.loc 1 252 50 view .LVU94
 329 0020 090052E3 		cmp	r2, #9
 330 0024 1300000A 		beq	.L26
 331              	.LVL14:
 332              	.L22:
 333              		.loc 1 252 50 view .LVU95
 334              	.LBE7:
 335              	.LBE6:
 336              		.loc 1 187 5 is_stmt 1 view .LVU96
 337              		.loc 1 187 9 is_stmt 0 view .LVU97
 338 0028 004094E5 		ldr	r4, [r4]
 339              	.LVL15:
 340              		.loc 1 184 14 is_stmt 1 view .LVU98
 341 002c 040056E1 		cmp	r6, r4
 342 0030 F081BD08 		popeq	{r4, r5, r6, r7, r8, pc}
ARM GAS  /tmp/cctdWfct.s 			page 7


 343              	.L23:
 344              		.loc 1 185 5 view .LVU99
 345              		.loc 1 185 19 is_stmt 0 view .LVU100
 346 0034 0C3094E5 		ldr	r3, [r4, #12]
 347              		.loc 1 186 5 view .LVU101
 348 0038 040094E5 		ldr	r0, [r4, #4]
 349              		.loc 1 185 19 view .LVU102
 350 003c 073083E1 		orr	r3, r3, r7
 351 0040 0C3084E5 		str	r3, [r4, #12]
 352              		.loc 1 186 5 is_stmt 1 view .LVU103
 353              	.LVL16:
 354              	.LBB13:
 355              	.LBI6:
 356              		.loc 1 244 6 view .LVU104
 357              	.LBB12:
 358              		.loc 1 246 3 view .LVU105
 359              		.loc 1 246 21 view .LVU106
 360              		.loc 1 247 3 view .LVU107
 361              		.loc 1 247 41 view .LVU108
 362              		.loc 1 249 3 view .LVU109
 363              		.loc 1 249 18 is_stmt 0 view .LVU110
 364 0044 38C090E5 		ldr	ip, [r0, #56]
 365 0048 083094E5 		ldr	r3, [r4, #8]
 366              		.loc 1 251 11 view .LVU111
 367 004c 1C20D0E5 		ldrb	r2, [r0, #28]	@ zero_extendqisi2
 368              		.loc 1 249 18 view .LVU112
 369 0050 0C3083E1 		orr	r3, r3, ip
 370              		.loc 1 251 6 view .LVU113
 371 0054 080052E3 		cmp	r2, #8
 372              		.loc 1 249 18 view .LVU114
 373 0058 383080E5 		str	r3, [r0, #56]
 374              		.loc 1 251 3 is_stmt 1 view .LVU115
 375              		.loc 1 251 6 is_stmt 0 view .LVU116
 376 005c EFFFFF1A 		bne	.L20
 377              		.loc 1 252 25 view .LVU117
 378 0060 242090E5 		ldr	r2, [r0, #36]
 379              		.loc 1 251 43 view .LVU118
 380 0064 020013E1 		tst	r3, r2
 381 0068 EEFFFF0A 		beq	.L22
 382              	.L21:
 383              	.LVL17:
 384              	.LBB11:
 385              	.LBI8:
 386              		.loc 1 244 6 is_stmt 1 view .LVU119
 387              	.LBB10:
 388              		.loc 1 255 5 view .LVU120
 389 006c FEFFFFEB 		bl	chSchReadyI
 390              	.LVL18:
 391              		.loc 1 255 33 is_stmt 0 view .LVU121
 392 0070 245080E5 		str	r5, [r0, #36]
 393              		.loc 1 256 1 view .LVU122
 394 0074 EBFFFFEA 		b	.L22
 395              	.LVL19:
 396              	.L26:
 397              		.loc 1 256 1 view .LVU123
 398              	.LBE10:
 399              	.LBE11:
ARM GAS  /tmp/cctdWfct.s 			page 8


 400              		.loc 1 254 34 view .LVU124
 401 0078 242090E5 		ldr	r2, [r0, #36]
 402              		.loc 1 253 44 view .LVU125
 403 007c 0320D2E1 		bics	r2, r2, r3
 404 0080 E8FFFF1A 		bne	.L22
 405 0084 F8FFFFEA 		b	.L21
 406              	.LBE12:
 407              	.LBE13:
 408              		.cfi_endproc
 409              	.LFE11:
 410              		.size	chEvtBroadcastFlagsI, .-chEvtBroadcastFlagsI
 411              		.section	.text.chEvtGetAndClearFlags,"ax",%progbits
 412              		.align	2
 413              		.global	chEvtGetAndClearFlags
 414              		.syntax unified
 415              		.arm
 416              		.fpu softvfp
 417              		.type	chEvtGetAndClearFlags, %function
 418              	chEvtGetAndClearFlags:
 419              	.LVL20:
 420              	.LFB12:
 421              		.loc 1 202 55 is_stmt 1 view -0
 422              		.cfi_startproc
 423              		@ args = 0, pretend = 0, frame = 0
 424              		@ frame_needed = 0, uses_anonymous_args = 0
 425              		@ link register save eliminated.
 426              		.loc 1 203 3 view .LVU127
 427              		.loc 1 205 3 view .LVU128
 428              		.loc 1 202 55 is_stmt 0 view .LVU129
 429 0000 0030A0E1 		mov	r3, r0
 430              		.loc 1 205 3 view .LVU130
 431              		.syntax divided
 432              	@ 205 "../../os/kernel/src/chevents.c" 1
 433 0004 9FF021E3 		msr     CPSR_c, #0x9F
 434              	@ 0 "" 2
 435              		.loc 1 205 3 is_stmt 1 view .LVU131
 436              		.loc 1 205 14 view .LVU132
 437              		.loc 1 207 3 view .LVU133
 438              		.loc 1 208 17 is_stmt 0 view .LVU134
 439              		.arm
 440              		.syntax unified
 441 0008 0020A0E3 		mov	r2, #0
 442              		.loc 1 207 9 view .LVU135
 443 000c 0C0090E5 		ldr	r0, [r0, #12]
 444              	.LVL21:
 445              		.loc 1 208 3 is_stmt 1 view .LVU136
 446              		.loc 1 208 17 is_stmt 0 view .LVU137
 447 0010 0C2083E5 		str	r2, [r3, #12]
 448              		.loc 1 210 3 is_stmt 1 view .LVU138
 449              		.loc 1 210 3 view .LVU139
 450              		.syntax divided
 451              	@ 210 "../../os/kernel/src/chevents.c" 1
 452 0014 1FF021E3 		msr     CPSR_c, #0x1F
 453              	@ 0 "" 2
 454              		.loc 1 210 16 view .LVU140
 455              		.loc 1 211 3 view .LVU141
 456              		.loc 1 212 1 is_stmt 0 view .LVU142
ARM GAS  /tmp/cctdWfct.s 			page 9


 457              		.arm
 458              		.syntax unified
 459 0018 1EFF2FE1 		bx	lr
 460              		.cfi_endproc
 461              	.LFE12:
 462              		.size	chEvtGetAndClearFlags, .-chEvtGetAndClearFlags
 463              		.section	.text.chEvtSignal,"ax",%progbits
 464              		.align	2
 465              		.global	chEvtSignal
 466              		.syntax unified
 467              		.arm
 468              		.fpu softvfp
 469              		.type	chEvtSignal, %function
 470              	chEvtSignal:
 471              	.LVL22:
 472              	.LFB13:
 473              		.loc 1 222 48 is_stmt 1 view -0
 474              		.cfi_startproc
 475              		@ args = 0, pretend = 0, frame = 0
 476              		@ frame_needed = 0, uses_anonymous_args = 0
 477              		.loc 1 224 3 view .LVU144
 478              		.loc 1 224 40 view .LVU145
 479              		.loc 1 226 3 view .LVU146
 480              		.loc 1 222 48 is_stmt 0 view .LVU147
 481 0000 10402DE9 		push	{r4, lr}
 482              		.cfi_def_cfa_offset 8
 483              		.cfi_offset 4, -8
 484              		.cfi_offset 14, -4
 485              		.loc 1 226 3 view .LVU148
 486              		.syntax divided
 487              	@ 226 "../../os/kernel/src/chevents.c" 1
 488 0004 9FF021E3 		msr     CPSR_c, #0x9F
 489              	@ 0 "" 2
 490              		.loc 1 226 3 is_stmt 1 view .LVU149
 491              		.loc 1 226 14 view .LVU150
 492              		.loc 1 227 3 view .LVU151
 493              	.LVL23:
 494              		.arm
 495              		.syntax unified
 496              	.LBB18:
 497              	.LBI18:
 498              		.loc 1 244 6 view .LVU152
 499              	.LBB19:
 500              		.loc 1 246 3 view .LVU153
 501              		.loc 1 246 21 view .LVU154
 502              		.loc 1 247 3 view .LVU155
 503              		.loc 1 247 41 view .LVU156
 504              		.loc 1 249 3 view .LVU157
 505              		.loc 1 249 18 is_stmt 0 view .LVU158
 506 0008 382090E5 		ldr	r2, [r0, #56]
 507              		.loc 1 251 11 view .LVU159
 508 000c 1C30D0E5 		ldrb	r3, [r0, #28]	@ zero_extendqisi2
 509              		.loc 1 249 18 view .LVU160
 510 0010 021081E1 		orr	r1, r1, r2
 511              	.LVL24:
 512              		.loc 1 251 6 view .LVU161
 513 0014 080053E3 		cmp	r3, #8
ARM GAS  /tmp/cctdWfct.s 			page 10


 514              		.loc 1 249 18 view .LVU162
 515 0018 381080E5 		str	r1, [r0, #56]
 516              		.loc 1 251 3 is_stmt 1 view .LVU163
 517              		.loc 1 251 6 is_stmt 0 view .LVU164
 518 001c 0B00000A 		beq	.L34
 519              		.loc 1 252 50 view .LVU165
 520 0020 090053E3 		cmp	r3, #9
 521 0024 0200000A 		beq	.L35
 522              	.LVL25:
 523              	.L31:
 524              		.loc 1 252 50 view .LVU166
 525              	.LBE19:
 526              	.LBE18:
 527              		.loc 1 228 3 is_stmt 1 view .LVU167
 528 0028 FEFFFFEB 		bl	chSchRescheduleS
 529              	.LVL26:
 530              		.loc 1 229 3 view .LVU168
 531              		.loc 1 229 3 view .LVU169
 532              		.syntax divided
 533              	@ 229 "../../os/kernel/src/chevents.c" 1
 534 002c 1FF021E3 		msr     CPSR_c, #0x1F
 535              	@ 0 "" 2
 536              		.loc 1 229 16 view .LVU170
 537              		.loc 1 230 1 is_stmt 0 view .LVU171
 538              		.arm
 539              		.syntax unified
 540 0030 1080BDE8 		pop	{r4, pc}
 541              	.LVL27:
 542              	.L35:
 543              	.LBB25:
 544              	.LBB24:
 545              		.loc 1 254 34 view .LVU172
 546 0034 243090E5 		ldr	r3, [r0, #36]
 547              		.loc 1 253 44 view .LVU173
 548 0038 0130D3E1 		bics	r3, r3, r1
 549 003c F9FFFF1A 		bne	.L31
 550              	.LVL28:
 551              	.LBB20:
 552              	.LBI20:
 553              		.loc 1 244 6 is_stmt 1 view .LVU174
 554              	.LBB21:
 555              		.loc 1 255 5 view .LVU175
 556 0040 FEFFFFEB 		bl	chSchReadyI
 557              	.LVL29:
 558              		.loc 1 255 33 is_stmt 0 view .LVU176
 559 0044 0030A0E3 		mov	r3, #0
 560 0048 243080E5 		str	r3, [r0, #36]
 561              		.loc 1 256 1 view .LVU177
 562 004c F5FFFFEA 		b	.L31
 563              	.LVL30:
 564              	.L34:
 565              		.loc 1 256 1 view .LVU178
 566              	.LBE21:
 567              	.LBE20:
 568              		.loc 1 252 25 view .LVU179
 569 0050 243090E5 		ldr	r3, [r0, #36]
 570              		.loc 1 251 43 view .LVU180
ARM GAS  /tmp/cctdWfct.s 			page 11


 571 0054 030011E1 		tst	r1, r3
 572 0058 F2FFFF0A 		beq	.L31
 573              	.LVL31:
 574              	.LBB23:
 575              		.loc 1 244 6 is_stmt 1 view .LVU181
 576              	.LBB22:
 577              		.loc 1 255 5 view .LVU182
 578 005c FEFFFFEB 		bl	chSchReadyI
 579              	.LVL32:
 580              		.loc 1 255 33 is_stmt 0 view .LVU183
 581 0060 0030A0E3 		mov	r3, #0
 582 0064 243080E5 		str	r3, [r0, #36]
 583 0068 EEFFFFEA 		b	.L31
 584              	.LBE22:
 585              	.LBE23:
 586              	.LBE24:
 587              	.LBE25:
 588              		.cfi_endproc
 589              	.LFE13:
 590              		.size	chEvtSignal, .-chEvtSignal
 591              		.section	.text.chEvtSignalI,"ax",%progbits
 592              		.align	2
 593              		.global	chEvtSignalI
 594              		.syntax unified
 595              		.arm
 596              		.fpu softvfp
 597              		.type	chEvtSignalI, %function
 598              	chEvtSignalI:
 599              	.LVL33:
 600              	.LFB14:
 601              		.loc 1 244 49 is_stmt 1 view -0
 602              		.cfi_startproc
 603              		@ args = 0, pretend = 0, frame = 0
 604              		@ frame_needed = 0, uses_anonymous_args = 0
 605              		.loc 1 246 3 view .LVU185
 606              		.loc 1 246 21 view .LVU186
 607              		.loc 1 247 3 view .LVU187
 608              		.loc 1 247 41 view .LVU188
 609              		.loc 1 249 3 view .LVU189
 610              		.loc 1 249 18 is_stmt 0 view .LVU190
 611 0000 382090E5 		ldr	r2, [r0, #56]
 612              		.loc 1 251 11 view .LVU191
 613 0004 1C30D0E5 		ldrb	r3, [r0, #28]	@ zero_extendqisi2
 614              		.loc 1 249 18 view .LVU192
 615 0008 021081E1 		orr	r1, r1, r2
 616              	.LVL34:
 617              		.loc 1 251 6 view .LVU193
 618 000c 080053E3 		cmp	r3, #8
 619              		.loc 1 249 18 view .LVU194
 620 0010 381080E5 		str	r1, [r0, #56]
 621              		.loc 1 251 3 is_stmt 1 view .LVU195
 622              		.loc 1 251 6 is_stmt 0 view .LVU196
 623 0014 0900000A 		beq	.L44
 624              		.loc 1 252 50 view .LVU197
 625 0018 090053E3 		cmp	r3, #9
 626 001c 1EFF2F11 		bxne	lr
 627              		.loc 1 254 34 view .LVU198
ARM GAS  /tmp/cctdWfct.s 			page 12


 628 0020 243090E5 		ldr	r3, [r0, #36]
 629              		.loc 1 253 44 view .LVU199
 630 0024 0130D3E1 		bics	r3, r3, r1
 631 0028 1EFF2F11 		bxne	lr
 632              	.L38:
 633              	.LVL35:
 634              	.LBB28:
 635              	.LBI28:
 636              		.loc 1 244 6 is_stmt 1 view .LVU200
 637              	.LBB29:
 638              		.loc 1 255 5 view .LVU201
 639              	.LBE29:
 640              	.LBE28:
 641              		.loc 1 244 49 is_stmt 0 view .LVU202
 642 002c 10402DE9 		push	{r4, lr}
 643              		.cfi_def_cfa_offset 8
 644              		.cfi_offset 4, -8
 645              		.cfi_offset 14, -4
 646              	.LBB31:
 647              	.LBB30:
 648              		.loc 1 255 5 view .LVU203
 649 0030 FEFFFFEB 		bl	chSchReadyI
 650              	.LVL36:
 651              		.loc 1 255 33 view .LVU204
 652 0034 0030A0E3 		mov	r3, #0
 653 0038 243080E5 		str	r3, [r0, #36]
 654              	.LVL37:
 655              		.loc 1 255 33 view .LVU205
 656              	.LBE30:
 657              	.LBE31:
 658              		.loc 1 256 1 view .LVU206
 659 003c 1080BDE8 		pop	{r4, pc}
 660              	.LVL38:
 661              	.L44:
 662              		.cfi_def_cfa_offset 0
 663              		.cfi_restore 4
 664              		.cfi_restore 14
 665              		.loc 1 252 25 discriminator 1 view .LVU207
 666 0040 243090E5 		ldr	r3, [r0, #36]
 667              		.loc 1 251 43 discriminator 1 view .LVU208
 668 0044 030011E1 		tst	r1, r3
 669 0048 1EFF2F01 		bxeq	lr
 670 004c F6FFFFEA 		b	.L38
 671              		.cfi_endproc
 672              	.LFE14:
 673              		.size	chEvtSignalI, .-chEvtSignalI
 674              		.section	.text.chEvtBroadcastFlags,"ax",%progbits
 675              		.align	2
 676              		.global	chEvtBroadcastFlags
 677              		.syntax unified
 678              		.arm
 679              		.fpu softvfp
 680              		.type	chEvtBroadcastFlags, %function
 681              	chEvtBroadcastFlags:
 682              	.LVL39:
 683              	.LFB15:
 684              		.loc 1 271 63 is_stmt 1 view -0
ARM GAS  /tmp/cctdWfct.s 			page 13


 685              		.cfi_startproc
 686              		@ args = 0, pretend = 0, frame = 0
 687              		@ frame_needed = 0, uses_anonymous_args = 0
 688              		.loc 1 273 3 view .LVU210
 689              		.loc 1 271 63 is_stmt 0 view .LVU211
 690 0000 F0412DE9 		push	{r4, r5, r6, r7, r8, lr}
 691              		.cfi_def_cfa_offset 24
 692              		.cfi_offset 4, -24
 693              		.cfi_offset 5, -20
 694              		.cfi_offset 6, -16
 695              		.cfi_offset 7, -12
 696              		.cfi_offset 8, -8
 697              		.cfi_offset 14, -4
 698              		.loc 1 273 3 view .LVU212
 699              		.syntax divided
 700              	@ 273 "../../os/kernel/src/chevents.c" 1
 701 0004 9FF021E3 		msr     CPSR_c, #0x9F
 702              	@ 0 "" 2
 703              		.loc 1 273 3 is_stmt 1 view .LVU213
 704              		.loc 1 273 14 view .LVU214
 705              		.loc 1 274 3 view .LVU215
 706              	.LVL40:
 707              		.arm
 708              		.syntax unified
 709              	.LBB38:
 710              	.LBI38:
 711              		.loc 1 177 6 view .LVU216
 712              	.LBB39:
 713              		.loc 1 178 3 view .LVU217
 714              		.loc 1 180 3 view .LVU218
 715              		.loc 1 180 21 view .LVU219
 716              		.loc 1 181 3 view .LVU220
 717              		.loc 1 181 49 view .LVU221
 718              		.loc 1 183 3 view .LVU222
 719              		.loc 1 183 7 is_stmt 0 view .LVU223
 720 0008 004090E5 		ldr	r4, [r0]
 721              	.LVL41:
 722              		.loc 1 184 3 is_stmt 1 view .LVU224
 723              		.loc 1 184 14 view .LVU225
 724 000c 040050E1 		cmp	r0, r4
 725 0010 1B00000A 		beq	.L46
 726 0014 0060A0E1 		mov	r6, r0
 727 0018 0170A0E1 		mov	r7, r1
 728              	.LBB40:
 729              	.LBB41:
 730              	.LBB42:
 731              	.LBB43:
 732              		.loc 1 255 33 is_stmt 0 view .LVU226
 733 001c 0050A0E3 		mov	r5, #0
 734 0020 040000EA 		b	.L50
 735              	.LVL42:
 736              	.L47:
 737              		.loc 1 255 33 view .LVU227
 738              	.LBE43:
 739              	.LBE42:
 740              		.loc 1 252 50 view .LVU228
 741 0024 090052E3 		cmp	r2, #9
ARM GAS  /tmp/cctdWfct.s 			page 14


 742 0028 1800000A 		beq	.L53
 743              	.L49:
 744              	.LVL43:
 745              		.loc 1 252 50 view .LVU229
 746              	.LBE41:
 747              	.LBE40:
 748              		.loc 1 187 5 is_stmt 1 view .LVU230
 749              		.loc 1 187 9 is_stmt 0 view .LVU231
 750 002c 004094E5 		ldr	r4, [r4]
 751              	.LVL44:
 752              		.loc 1 184 14 is_stmt 1 view .LVU232
 753 0030 040056E1 		cmp	r6, r4
 754 0034 1200000A 		beq	.L46
 755              	.L50:
 756              		.loc 1 185 5 view .LVU233
 757              		.loc 1 185 19 is_stmt 0 view .LVU234
 758 0038 0C3094E5 		ldr	r3, [r4, #12]
 759              		.loc 1 186 5 view .LVU235
 760 003c 040094E5 		ldr	r0, [r4, #4]
 761              		.loc 1 185 19 view .LVU236
 762 0040 073083E1 		orr	r3, r3, r7
 763 0044 0C3084E5 		str	r3, [r4, #12]
 764              		.loc 1 186 5 is_stmt 1 view .LVU237
 765              	.LVL45:
 766              	.LBB51:
 767              	.LBI40:
 768              		.loc 1 244 6 view .LVU238
 769              	.LBB48:
 770              		.loc 1 246 3 view .LVU239
 771              		.loc 1 246 21 view .LVU240
 772              		.loc 1 247 3 view .LVU241
 773              		.loc 1 247 41 view .LVU242
 774              		.loc 1 249 3 view .LVU243
 775              		.loc 1 249 18 is_stmt 0 view .LVU244
 776 0048 38C090E5 		ldr	ip, [r0, #56]
 777 004c 083094E5 		ldr	r3, [r4, #8]
 778              		.loc 1 251 11 view .LVU245
 779 0050 1C20D0E5 		ldrb	r2, [r0, #28]	@ zero_extendqisi2
 780              		.loc 1 249 18 view .LVU246
 781 0054 0C3083E1 		orr	r3, r3, ip
 782              		.loc 1 251 6 view .LVU247
 783 0058 080052E3 		cmp	r2, #8
 784              		.loc 1 249 18 view .LVU248
 785 005c 383080E5 		str	r3, [r0, #56]
 786              		.loc 1 251 3 is_stmt 1 view .LVU249
 787              		.loc 1 251 6 is_stmt 0 view .LVU250
 788 0060 EFFFFF1A 		bne	.L47
 789              		.loc 1 252 25 view .LVU251
 790 0064 242090E5 		ldr	r2, [r0, #36]
 791              		.loc 1 251 43 view .LVU252
 792 0068 020013E1 		tst	r3, r2
 793 006c EEFFFF0A 		beq	.L49
 794              	.L48:
 795              	.LVL46:
 796              	.LBB46:
 797              	.LBI42:
 798              		.loc 1 244 6 is_stmt 1 view .LVU253
ARM GAS  /tmp/cctdWfct.s 			page 15


 799              	.LBB44:
 800              		.loc 1 255 5 view .LVU254
 801 0070 FEFFFFEB 		bl	chSchReadyI
 802              	.LVL47:
 803              		.loc 1 255 5 is_stmt 0 view .LVU255
 804              	.LBE44:
 805              	.LBE46:
 806              	.LBE48:
 807              	.LBE51:
 808              		.loc 1 187 9 view .LVU256
 809 0074 004094E5 		ldr	r4, [r4]
 810              	.LVL48:
 811              	.LBB52:
 812              	.LBB49:
 813              	.LBB47:
 814              	.LBB45:
 815              		.loc 1 255 33 view .LVU257
 816 0078 245080E5 		str	r5, [r0, #36]
 817              		.loc 1 255 33 view .LVU258
 818              	.LBE45:
 819              	.LBE47:
 820              	.LBE49:
 821              	.LBE52:
 822              		.loc 1 187 5 is_stmt 1 view .LVU259
 823              	.LVL49:
 824              		.loc 1 184 14 view .LVU260
 825 007c 040056E1 		cmp	r6, r4
 826 0080 ECFFFF1A 		bne	.L50
 827              	.LVL50:
 828              	.L46:
 829              		.loc 1 184 14 is_stmt 0 view .LVU261
 830              	.LBE39:
 831              	.LBE38:
 832              		.loc 1 275 3 is_stmt 1 view .LVU262
 833 0084 FEFFFFEB 		bl	chSchRescheduleS
 834              	.LVL51:
 835              		.loc 1 276 3 view .LVU263
 836              		.loc 1 276 3 view .LVU264
 837              		.syntax divided
 838              	@ 276 "../../os/kernel/src/chevents.c" 1
 839 0088 1FF021E3 		msr     CPSR_c, #0x1F
 840              	@ 0 "" 2
 841              		.loc 1 276 16 view .LVU265
 842              		.loc 1 277 1 is_stmt 0 view .LVU266
 843              		.arm
 844              		.syntax unified
 845 008c F081BDE8 		pop	{r4, r5, r6, r7, r8, pc}
 846              	.LVL52:
 847              	.L53:
 848              	.LBB55:
 849              	.LBB54:
 850              	.LBB53:
 851              	.LBB50:
 852              		.loc 1 254 34 view .LVU267
 853 0090 242090E5 		ldr	r2, [r0, #36]
 854              		.loc 1 253 44 view .LVU268
 855 0094 0320D2E1 		bics	r2, r2, r3
ARM GAS  /tmp/cctdWfct.s 			page 16


 856 0098 E3FFFF1A 		bne	.L49
 857 009c F3FFFFEA 		b	.L48
 858              	.LBE50:
 859              	.LBE53:
 860              	.LBE54:
 861              	.LBE55:
 862              		.cfi_endproc
 863              	.LFE15:
 864              		.size	chEvtBroadcastFlags, .-chEvtBroadcastFlags
 865              		.section	.text.chEvtGetAndClearFlagsI,"ax",%progbits
 866              		.align	2
 867              		.global	chEvtGetAndClearFlagsI
 868              		.syntax unified
 869              		.arm
 870              		.fpu softvfp
 871              		.type	chEvtGetAndClearFlagsI, %function
 872              	chEvtGetAndClearFlagsI:
 873              	.LVL53:
 874              	.LFB16:
 875              		.loc 1 290 56 is_stmt 1 view -0
 876              		.cfi_startproc
 877              		@ args = 0, pretend = 0, frame = 0
 878              		@ frame_needed = 0, uses_anonymous_args = 0
 879              		@ link register save eliminated.
 880              		.loc 1 291 3 view .LVU270
 881              		.loc 1 293 3 view .LVU271
 882              		.loc 1 290 56 is_stmt 0 view .LVU272
 883 0000 0030A0E1 		mov	r3, r0
 884              		.loc 1 294 17 view .LVU273
 885 0004 0020A0E3 		mov	r2, #0
 886              		.loc 1 293 9 view .LVU274
 887 0008 0C0090E5 		ldr	r0, [r0, #12]
 888              	.LVL54:
 889              		.loc 1 294 3 is_stmt 1 view .LVU275
 890              		.loc 1 294 17 is_stmt 0 view .LVU276
 891 000c 0C2083E5 		str	r2, [r3, #12]
 892              		.loc 1 296 3 is_stmt 1 view .LVU277
 893              		.loc 1 297 1 is_stmt 0 view .LVU278
 894 0010 1EFF2FE1 		bx	lr
 895              		.cfi_endproc
 896              	.LFE16:
 897              		.size	chEvtGetAndClearFlagsI, .-chEvtGetAndClearFlagsI
 898              		.section	.text.chEvtDispatch,"ax",%progbits
 899              		.align	2
 900              		.global	chEvtDispatch
 901              		.syntax unified
 902              		.arm
 903              		.fpu softvfp
 904              		.type	chEvtDispatch, %function
 905              	chEvtDispatch:
 906              	.LVL55:
 907              	.LFB17:
 908              		.loc 1 308 67 is_stmt 1 view -0
 909              		.cfi_startproc
 910              		@ args = 0, pretend = 0, frame = 0
 911              		@ frame_needed = 0, uses_anonymous_args = 0
 912              		.loc 1 309 3 view .LVU280
ARM GAS  /tmp/cctdWfct.s 			page 17


 913              		.loc 1 311 3 view .LVU281
 914              		.loc 1 311 48 view .LVU282
 915              		.loc 1 313 3 view .LVU283
 916              		.loc 1 314 3 view .LVU284
 917              		.loc 1 314 10 view .LVU285
 918              		.loc 1 308 67 is_stmt 0 view .LVU286
 919 0000 F0412DE9 		push	{r4, r5, r6, r7, r8, lr}
 920              		.cfi_def_cfa_offset 24
 921              		.cfi_offset 4, -24
 922              		.cfi_offset 5, -20
 923              		.cfi_offset 6, -16
 924              		.cfi_offset 7, -12
 925              		.cfi_offset 8, -8
 926              		.cfi_offset 14, -4
 927              		.loc 1 314 10 view .LVU287
 928 0004 005051E2 		subs	r5, r1, #0
 929 0008 F081BD08 		popeq	{r4, r5, r6, r7, r8, pc}
 930 000c 0070A0E1 		mov	r7, r0
 931              		.loc 1 313 7 view .LVU288
 932 0010 0040A0E3 		mov	r4, #0
 933              		.loc 1 315 16 view .LVU289
 934 0014 0160A0E3 		mov	r6, #1
 935              	.LVL56:
 936              	.L58:
 937              		.loc 1 315 5 is_stmt 1 view .LVU290
 938              		.loc 1 316 7 view .LVU291
 939              		.loc 1 318 34 view .LVU292
 940              		.loc 1 319 7 view .LVU293
 941              		.loc 1 322 5 view .LVU294
 942              		.loc 1 315 16 is_stmt 0 view .LVU295
 943 0018 1634A0E1 		lsl	r3, r6, r4
 944              		.loc 1 315 8 view .LVU296
 945 001c 050013E1 		tst	r3, r5
 946 0020 0900000A 		beq	.L57
 947              	.L68:
 948              		.loc 1 320 7 view .LVU297
 949 0024 0400A0E1 		mov	r0, r4
 950 0028 042197E7 		ldr	r2, [r7, r4, lsl #2]
 951              		.loc 1 319 12 view .LVU298
 952 002c 0350C5E1 		bic	r5, r5, r3
 953              	.LVL57:
 954              		.loc 1 320 7 is_stmt 1 view .LVU299
 955 0030 32FF2FE1 		blx	r2
 956              	.LVL58:
 957              		.loc 1 322 5 view .LVU300
 958              		.loc 1 314 10 is_stmt 0 view .LVU301
 959 0034 000055E3 		cmp	r5, #0
 960              		.loc 1 322 8 view .LVU302
 961 0038 014084E2 		add	r4, r4, #1
 962              	.LVL59:
 963              		.loc 1 314 10 is_stmt 1 view .LVU303
 964 003c F081BD08 		popeq	{r4, r5, r6, r7, r8, pc}
 965              		.loc 1 315 5 view .LVU304
 966              		.loc 1 316 7 view .LVU305
 967              		.loc 1 318 34 view .LVU306
 968              		.loc 1 319 7 view .LVU307
 969              		.loc 1 322 5 view .LVU308
ARM GAS  /tmp/cctdWfct.s 			page 18


 970              		.loc 1 315 16 is_stmt 0 view .LVU309
 971 0040 1634A0E1 		lsl	r3, r6, r4
 972              		.loc 1 315 8 view .LVU310
 973 0044 050013E1 		tst	r3, r5
 974 0048 F5FFFF1A 		bne	.L68
 975              	.L57:
 976              		.loc 1 322 8 view .LVU311
 977 004c 014084E2 		add	r4, r4, #1
 978              	.LVL60:
 979              		.loc 1 314 10 is_stmt 1 view .LVU312
 980              		.loc 1 314 10 is_stmt 0 view .LVU313
 981 0050 F0FFFFEA 		b	.L58
 982              		.cfi_endproc
 983              	.LFE17:
 984              		.size	chEvtDispatch, .-chEvtDispatch
 985              		.section	.text.chEvtWaitOne,"ax",%progbits
 986              		.align	2
 987              		.global	chEvtWaitOne
 988              		.syntax unified
 989              		.arm
 990              		.fpu softvfp
 991              		.type	chEvtWaitOne, %function
 992              	chEvtWaitOne:
 993              	.LVL61:
 994              	.LFB18:
 995              		.loc 1 343 44 is_stmt 1 view -0
 996              		.cfi_startproc
 997              		@ args = 0, pretend = 0, frame = 0
 998              		@ frame_needed = 0, uses_anonymous_args = 0
 999              		.loc 1 344 3 view .LVU315
 1000              		.loc 1 344 11 is_stmt 0 view .LVU316
 1001 0000 48309FE5 		ldr	r3, .L73
 1002              		.loc 1 343 44 view .LVU317
 1003 0004 70402DE9 		push	{r4, r5, r6, lr}
 1004              		.cfi_def_cfa_offset 16
 1005              		.cfi_offset 4, -16
 1006              		.cfi_offset 5, -12
 1007              		.cfi_offset 6, -8
 1008              		.cfi_offset 14, -4
 1009              		.loc 1 344 11 view .LVU318
 1010 0008 185093E5 		ldr	r5, [r3, #24]
 1011              	.LVL62:
 1012              		.loc 1 345 3 is_stmt 1 view .LVU319
 1013              		.loc 1 347 3 view .LVU320
 1014              		.syntax divided
 1015              	@ 347 "../../os/kernel/src/chevents.c" 1
 1016 000c 9FF021E3 		msr     CPSR_c, #0x9F
 1017              	@ 0 "" 2
 1018              		.loc 1 347 3 view .LVU321
 1019              		.loc 1 347 14 view .LVU322
 1020              		.loc 1 349 3 view .LVU323
 1021              		.loc 1 349 16 is_stmt 0 view .LVU324
 1022              		.arm
 1023              		.syntax unified
 1024 0010 383095E5 		ldr	r3, [r5, #56]
 1025              	.LVL63:
 1026              		.loc 1 349 6 view .LVU325
ARM GAS  /tmp/cctdWfct.s 			page 19


 1027 0014 002013E0 		ands	r2, r3, r0
 1028 0018 0500000A 		beq	.L72
 1029              	.LVL64:
 1030              	.L70:
 1031              		.loc 1 354 3 is_stmt 1 view .LVU326
 1032              		.loc 1 354 8 is_stmt 0 view .LVU327
 1033 001c 000062E2 		rsb	r0, r2, #0
 1034              		.loc 1 354 5 view .LVU328
 1035 0020 020000E0 		and	r0, r0, r2
 1036              	.LVL65:
 1037              		.loc 1 355 3 is_stmt 1 view .LVU329
 1038              		.loc 1 355 19 is_stmt 0 view .LVU330
 1039 0024 0030C3E1 		bic	r3, r3, r0
 1040 0028 383085E5 		str	r3, [r5, #56]
 1041              		.loc 1 357 3 is_stmt 1 view .LVU331
 1042              		.loc 1 357 3 view .LVU332
 1043              		.syntax divided
 1044              	@ 357 "../../os/kernel/src/chevents.c" 1
 1045 002c 1FF021E3 		msr     CPSR_c, #0x1F
 1046              	@ 0 "" 2
 1047              		.loc 1 357 16 view .LVU333
 1048              		.loc 1 358 3 view .LVU334
 1049              		.loc 1 359 1 is_stmt 0 view .LVU335
 1050              		.arm
 1051              		.syntax unified
 1052 0030 7080BDE8 		pop	{r4, r5, r6, pc}
 1053              	.LVL66:
 1054              	.L72:
 1055              		.loc 1 359 1 view .LVU336
 1056 0034 0040A0E1 		mov	r4, r0
 1057              		.loc 1 350 5 is_stmt 1 view .LVU337
 1058              		.loc 1 351 5 is_stmt 0 view .LVU338
 1059 0038 0800A0E3 		mov	r0, #8
 1060              	.LVL67:
 1061              		.loc 1 350 21 view .LVU339
 1062 003c 244085E5 		str	r4, [r5, #36]
 1063              		.loc 1 351 5 is_stmt 1 view .LVU340
 1064 0040 FEFFFFEB 		bl	chSchGoSleepS
 1065              	.LVL68:
 1066              		.loc 1 352 5 view .LVU341
 1067              		.loc 1 352 12 is_stmt 0 view .LVU342
 1068 0044 383095E5 		ldr	r3, [r5, #56]
 1069              		.loc 1 352 7 view .LVU343
 1070 0048 042003E0 		and	r2, r3, r4
 1071              	.LVL69:
 1072              		.loc 1 352 7 view .LVU344
 1073 004c F2FFFFEA 		b	.L70
 1074              	.L74:
 1075              		.align	2
 1076              	.L73:
 1077 0050 00000000 		.word	rlist
 1078              		.cfi_endproc
 1079              	.LFE18:
 1080              		.size	chEvtWaitOne, .-chEvtWaitOne
 1081              		.section	.text.chEvtWaitAny,"ax",%progbits
 1082              		.align	2
 1083              		.global	chEvtWaitAny
ARM GAS  /tmp/cctdWfct.s 			page 20


 1084              		.syntax unified
 1085              		.arm
 1086              		.fpu softvfp
 1087              		.type	chEvtWaitAny, %function
 1088              	chEvtWaitAny:
 1089              	.LVL70:
 1090              	.LFB19:
 1091              		.loc 1 372 44 is_stmt 1 view -0
 1092              		.cfi_startproc
 1093              		@ args = 0, pretend = 0, frame = 0
 1094              		@ frame_needed = 0, uses_anonymous_args = 0
 1095              		.loc 1 373 3 view .LVU346
 1096              		.loc 1 373 11 is_stmt 0 view .LVU347
 1097 0000 40309FE5 		ldr	r3, .L79
 1098              		.loc 1 372 44 view .LVU348
 1099 0004 70402DE9 		push	{r4, r5, r6, lr}
 1100              		.cfi_def_cfa_offset 16
 1101              		.cfi_offset 4, -16
 1102              		.cfi_offset 5, -12
 1103              		.cfi_offset 6, -8
 1104              		.cfi_offset 14, -4
 1105              		.loc 1 372 44 view .LVU349
 1106 0008 0040A0E1 		mov	r4, r0
 1107              		.loc 1 373 11 view .LVU350
 1108 000c 185093E5 		ldr	r5, [r3, #24]
 1109              	.LVL71:
 1110              		.loc 1 374 3 is_stmt 1 view .LVU351
 1111              		.loc 1 376 3 view .LVU352
 1112              		.syntax divided
 1113              	@ 376 "../../os/kernel/src/chevents.c" 1
 1114 0010 9FF021E3 		msr     CPSR_c, #0x9F
 1115              	@ 0 "" 2
 1116              		.loc 1 376 3 view .LVU353
 1117              		.loc 1 376 14 view .LVU354
 1118              		.loc 1 378 3 view .LVU355
 1119              		.loc 1 378 16 is_stmt 0 view .LVU356
 1120              		.arm
 1121              		.syntax unified
 1122 0014 383095E5 		ldr	r3, [r5, #56]
 1123              	.LVL72:
 1124              		.loc 1 378 6 view .LVU357
 1125 0018 000013E0 		ands	r0, r3, r0
 1126              	.LVL73:
 1127              		.loc 1 378 6 view .LVU358
 1128 001c 0300000A 		beq	.L78
 1129              	.LVL74:
 1130              	.L76:
 1131              		.loc 1 383 3 is_stmt 1 view .LVU359
 1132              		.loc 1 383 19 is_stmt 0 view .LVU360
 1133 0020 0030C3E1 		bic	r3, r3, r0
 1134 0024 383085E5 		str	r3, [r5, #56]
 1135              		.loc 1 385 3 is_stmt 1 view .LVU361
 1136              		.loc 1 385 3 view .LVU362
 1137              		.syntax divided
 1138              	@ 385 "../../os/kernel/src/chevents.c" 1
 1139 0028 1FF021E3 		msr     CPSR_c, #0x1F
 1140              	@ 0 "" 2
ARM GAS  /tmp/cctdWfct.s 			page 21


 1141              		.loc 1 385 16 view .LVU363
 1142              		.loc 1 386 3 view .LVU364
 1143              		.loc 1 387 1 is_stmt 0 view .LVU365
 1144              		.arm
 1145              		.syntax unified
 1146 002c 7080BDE8 		pop	{r4, r5, r6, pc}
 1147              	.L78:
 1148              		.loc 1 379 5 is_stmt 1 view .LVU366
 1149              		.loc 1 380 5 is_stmt 0 view .LVU367
 1150 0030 0800A0E3 		mov	r0, #8
 1151              	.LVL75:
 1152              		.loc 1 379 21 view .LVU368
 1153 0034 244085E5 		str	r4, [r5, #36]
 1154              		.loc 1 380 5 is_stmt 1 view .LVU369
 1155 0038 FEFFFFEB 		bl	chSchGoSleepS
 1156              	.LVL76:
 1157              		.loc 1 381 5 view .LVU370
 1158              		.loc 1 381 12 is_stmt 0 view .LVU371
 1159 003c 383095E5 		ldr	r3, [r5, #56]
 1160              		.loc 1 381 7 view .LVU372
 1161 0040 040003E0 		and	r0, r3, r4
 1162              	.LVL77:
 1163              		.loc 1 381 7 view .LVU373
 1164 0044 F5FFFFEA 		b	.L76
 1165              	.L80:
 1166              		.align	2
 1167              	.L79:
 1168 0048 00000000 		.word	rlist
 1169              		.cfi_endproc
 1170              	.LFE19:
 1171              		.size	chEvtWaitAny, .-chEvtWaitAny
 1172              		.section	.text.chEvtWaitAll,"ax",%progbits
 1173              		.align	2
 1174              		.global	chEvtWaitAll
 1175              		.syntax unified
 1176              		.arm
 1177              		.fpu softvfp
 1178              		.type	chEvtWaitAll, %function
 1179              	chEvtWaitAll:
 1180              	.LVL78:
 1181              	.LFB20:
 1182              		.loc 1 400 44 is_stmt 1 view -0
 1183              		.cfi_startproc
 1184              		@ args = 0, pretend = 0, frame = 0
 1185              		@ frame_needed = 0, uses_anonymous_args = 0
 1186              		.loc 1 401 3 view .LVU375
 1187              		.loc 1 401 11 is_stmt 0 view .LVU376
 1188 0000 3C309FE5 		ldr	r3, .L84
 1189              		.loc 1 400 44 view .LVU377
 1190 0004 70402DE9 		push	{r4, r5, r6, lr}
 1191              		.cfi_def_cfa_offset 16
 1192              		.cfi_offset 4, -16
 1193              		.cfi_offset 5, -12
 1194              		.cfi_offset 6, -8
 1195              		.cfi_offset 14, -4
 1196              		.loc 1 400 44 view .LVU378
 1197 0008 0040A0E1 		mov	r4, r0
ARM GAS  /tmp/cctdWfct.s 			page 22


 1198              		.loc 1 401 11 view .LVU379
 1199 000c 185093E5 		ldr	r5, [r3, #24]
 1200              	.LVL79:
 1201              		.loc 1 403 3 is_stmt 1 view .LVU380
 1202              		.syntax divided
 1203              	@ 403 "../../os/kernel/src/chevents.c" 1
 1204 0010 9FF021E3 		msr     CPSR_c, #0x9F
 1205              	@ 0 "" 2
 1206              		.loc 1 403 3 view .LVU381
 1207              		.loc 1 403 14 view .LVU382
 1208              		.loc 1 405 3 view .LVU383
 1209              		.loc 1 405 11 is_stmt 0 view .LVU384
 1210              		.arm
 1211              		.syntax unified
 1212 0014 383095E5 		ldr	r3, [r5, #56]
 1213              		.loc 1 405 6 view .LVU385
 1214 0018 0320D0E1 		bics	r2, r0, r3
 1215 001c 0300000A 		beq	.L82
 1216              		.loc 1 406 5 is_stmt 1 view .LVU386
 1217              		.loc 1 407 5 is_stmt 0 view .LVU387
 1218 0020 0900A0E3 		mov	r0, #9
 1219              	.LVL80:
 1220              		.loc 1 406 21 view .LVU388
 1221 0024 244085E5 		str	r4, [r5, #36]
 1222              		.loc 1 407 5 is_stmt 1 view .LVU389
 1223 0028 FEFFFFEB 		bl	chSchGoSleepS
 1224              	.LVL81:
 1225              		.loc 1 409 19 is_stmt 0 view .LVU390
 1226 002c 383095E5 		ldr	r3, [r5, #56]
 1227              	.L82:
 1228              		.loc 1 409 3 is_stmt 1 view .LVU391
 1229              		.loc 1 409 19 is_stmt 0 view .LVU392
 1230 0030 0430C3E1 		bic	r3, r3, r4
 1231 0034 383085E5 		str	r3, [r5, #56]
 1232              		.loc 1 411 3 is_stmt 1 view .LVU393
 1233              		.loc 1 411 3 view .LVU394
 1234              		.syntax divided
 1235              	@ 411 "../../os/kernel/src/chevents.c" 1
 1236 0038 1FF021E3 		msr     CPSR_c, #0x1F
 1237              	@ 0 "" 2
 1238              		.loc 1 411 16 view .LVU395
 1239              		.loc 1 412 3 view .LVU396
 1240              		.loc 1 413 1 is_stmt 0 view .LVU397
 1241              		.arm
 1242              		.syntax unified
 1243 003c 0400A0E1 		mov	r0, r4
 1244 0040 7080BDE8 		pop	{r4, r5, r6, pc}
 1245              	.L85:
 1246              		.align	2
 1247              	.L84:
 1248 0044 00000000 		.word	rlist
 1249              		.cfi_endproc
 1250              	.LFE20:
 1251              		.size	chEvtWaitAll, .-chEvtWaitAll
 1252              		.section	.text.chEvtWaitOneTimeout,"ax",%progbits
 1253              		.align	2
 1254              		.global	chEvtWaitOneTimeout
ARM GAS  /tmp/cctdWfct.s 			page 23


 1255              		.syntax unified
 1256              		.arm
 1257              		.fpu softvfp
 1258              		.type	chEvtWaitOneTimeout, %function
 1259              	chEvtWaitOneTimeout:
 1260              	.LVL82:
 1261              	.LFB21:
 1262              		.loc 1 439 67 is_stmt 1 view -0
 1263              		.cfi_startproc
 1264              		@ args = 0, pretend = 0, frame = 0
 1265              		@ frame_needed = 0, uses_anonymous_args = 0
 1266              		.loc 1 440 3 view .LVU399
 1267              		.loc 1 440 11 is_stmt 0 view .LVU400
 1268 0000 5C309FE5 		ldr	r3, .L93
 1269              		.loc 1 439 67 view .LVU401
 1270 0004 70402DE9 		push	{r4, r5, r6, lr}
 1271              		.cfi_def_cfa_offset 16
 1272              		.cfi_offset 4, -16
 1273              		.cfi_offset 5, -12
 1274              		.cfi_offset 6, -8
 1275              		.cfi_offset 14, -4
 1276              		.loc 1 440 11 view .LVU402
 1277 0008 186093E5 		ldr	r6, [r3, #24]
 1278              	.LVL83:
 1279              		.loc 1 441 3 is_stmt 1 view .LVU403
 1280              		.loc 1 443 3 view .LVU404
 1281              		.syntax divided
 1282              	@ 443 "../../os/kernel/src/chevents.c" 1
 1283 000c 9FF021E3 		msr     CPSR_c, #0x9F
 1284              	@ 0 "" 2
 1285              		.loc 1 443 3 view .LVU405
 1286              		.loc 1 443 14 view .LVU406
 1287              		.loc 1 445 3 view .LVU407
 1288              		.loc 1 445 16 is_stmt 0 view .LVU408
 1289              		.arm
 1290              		.syntax unified
 1291 0010 383096E5 		ldr	r3, [r6, #56]
 1292              	.LVL84:
 1293              		.loc 1 445 6 view .LVU409
 1294 0014 005013E0 		ands	r5, r3, r0
 1295 0018 0C00001A 		bne	.L87
 1296              		.loc 1 446 5 is_stmt 1 view .LVU410
 1297              		.loc 1 446 8 is_stmt 0 view .LVU411
 1298 001c 000051E3 		cmp	r1, #0
 1299 0020 0200001A 		bne	.L88
 1300              	.LVL85:
 1301              	.L92:
 1302              		.loc 1 460 3 is_stmt 1 view .LVU412
 1303              		.loc 1 460 3 view .LVU413
 1304              		.syntax divided
 1305              	@ 460 "../../os/kernel/src/chevents.c" 1
 1306 0024 1FF021E3 		msr     CPSR_c, #0x1F
 1307              	@ 0 "" 2
 1308              		.loc 1 460 16 view .LVU414
 1309              		.loc 1 461 3 view .LVU415
 1310              		.loc 1 462 1 is_stmt 0 view .LVU416
 1311              		.arm
ARM GAS  /tmp/cctdWfct.s 			page 24


 1312              		.syntax unified
 1313 0028 0500A0E1 		mov	r0, r5
 1314 002c 7080BDE8 		pop	{r4, r5, r6, pc}
 1315              	.LVL86:
 1316              	.L88:
 1317              		.loc 1 450 5 is_stmt 1 view .LVU417
 1318 0030 0040A0E1 		mov	r4, r0
 1319              		.loc 1 451 9 is_stmt 0 view .LVU418
 1320 0034 0800A0E3 		mov	r0, #8
 1321              	.LVL87:
 1322              		.loc 1 450 21 view .LVU419
 1323 0038 244086E5 		str	r4, [r6, #36]
 1324              		.loc 1 451 5 is_stmt 1 view .LVU420
 1325              		.loc 1 451 9 is_stmt 0 view .LVU421
 1326 003c FEFFFFEB 		bl	chSchGoSleepTimeoutS
 1327              	.LVL88:
 1328              		.loc 1 451 8 view .LVU422
 1329 0040 000050E3 		cmp	r0, #0
 1330 0044 F6FFFFBA 		blt	.L92
 1331              		.loc 1 455 5 is_stmt 1 view .LVU423
 1332              		.loc 1 455 12 is_stmt 0 view .LVU424
 1333 0048 383096E5 		ldr	r3, [r6, #56]
 1334              		.loc 1 455 7 view .LVU425
 1335 004c 045003E0 		and	r5, r3, r4
 1336              	.LVL89:
 1337              	.L87:
 1338              		.loc 1 457 3 is_stmt 1 view .LVU426
 1339              		.loc 1 457 8 is_stmt 0 view .LVU427
 1340 0050 002065E2 		rsb	r2, r5, #0
 1341              		.loc 1 457 5 view .LVU428
 1342 0054 025005E0 		and	r5, r5, r2
 1343              	.LVL90:
 1344              		.loc 1 458 3 is_stmt 1 view .LVU429
 1345              		.loc 1 458 19 is_stmt 0 view .LVU430
 1346 0058 0530C3E1 		bic	r3, r3, r5
 1347 005c 383086E5 		str	r3, [r6, #56]
 1348 0060 EFFFFFEA 		b	.L92
 1349              	.L94:
 1350              		.align	2
 1351              	.L93:
 1352 0064 00000000 		.word	rlist
 1353              		.cfi_endproc
 1354              	.LFE21:
 1355              		.size	chEvtWaitOneTimeout, .-chEvtWaitOneTimeout
 1356              		.section	.text.chEvtWaitAnyTimeout,"ax",%progbits
 1357              		.align	2
 1358              		.global	chEvtWaitAnyTimeout
 1359              		.syntax unified
 1360              		.arm
 1361              		.fpu softvfp
 1362              		.type	chEvtWaitAnyTimeout, %function
 1363              	chEvtWaitAnyTimeout:
 1364              	.LVL91:
 1365              	.LFB22:
 1366              		.loc 1 482 67 is_stmt 1 view -0
 1367              		.cfi_startproc
 1368              		@ args = 0, pretend = 0, frame = 0
ARM GAS  /tmp/cctdWfct.s 			page 25


 1369              		@ frame_needed = 0, uses_anonymous_args = 0
 1370              		.loc 1 483 3 view .LVU432
 1371              		.loc 1 483 11 is_stmt 0 view .LVU433
 1372 0000 54309FE5 		ldr	r3, .L102
 1373              		.loc 1 482 67 view .LVU434
 1374 0004 70402DE9 		push	{r4, r5, r6, lr}
 1375              		.cfi_def_cfa_offset 16
 1376              		.cfi_offset 4, -16
 1377              		.cfi_offset 5, -12
 1378              		.cfi_offset 6, -8
 1379              		.cfi_offset 14, -4
 1380              		.loc 1 483 11 view .LVU435
 1381 0008 185093E5 		ldr	r5, [r3, #24]
 1382              	.LVL92:
 1383              		.loc 1 484 3 is_stmt 1 view .LVU436
 1384              		.loc 1 486 3 view .LVU437
 1385              		.syntax divided
 1386              	@ 486 "../../os/kernel/src/chevents.c" 1
 1387 000c 9FF021E3 		msr     CPSR_c, #0x9F
 1388              	@ 0 "" 2
 1389              		.loc 1 486 3 view .LVU438
 1390              		.loc 1 486 14 view .LVU439
 1391              		.loc 1 488 3 view .LVU440
 1392              		.loc 1 488 16 is_stmt 0 view .LVU441
 1393              		.arm
 1394              		.syntax unified
 1395 0010 383095E5 		ldr	r3, [r5, #56]
 1396              	.LVL93:
 1397              		.loc 1 488 6 view .LVU442
 1398 0014 006013E0 		ands	r6, r3, r0
 1399 0018 0C00001A 		bne	.L96
 1400              		.loc 1 489 5 is_stmt 1 view .LVU443
 1401              		.loc 1 489 8 is_stmt 0 view .LVU444
 1402 001c 000051E3 		cmp	r1, #0
 1403 0020 0200001A 		bne	.L97
 1404              	.LVL94:
 1405              	.L101:
 1406              		.loc 1 502 3 is_stmt 1 view .LVU445
 1407              		.loc 1 502 3 view .LVU446
 1408              		.syntax divided
 1409              	@ 502 "../../os/kernel/src/chevents.c" 1
 1410 0024 1FF021E3 		msr     CPSR_c, #0x1F
 1411              	@ 0 "" 2
 1412              		.loc 1 502 16 view .LVU447
 1413              		.loc 1 503 3 view .LVU448
 1414              		.loc 1 504 1 is_stmt 0 view .LVU449
 1415              		.arm
 1416              		.syntax unified
 1417 0028 0600A0E1 		mov	r0, r6
 1418 002c 7080BDE8 		pop	{r4, r5, r6, pc}
 1419              	.LVL95:
 1420              	.L97:
 1421              		.loc 1 493 5 is_stmt 1 view .LVU450
 1422 0030 0040A0E1 		mov	r4, r0
 1423              		.loc 1 494 9 is_stmt 0 view .LVU451
 1424 0034 0800A0E3 		mov	r0, #8
 1425              	.LVL96:
ARM GAS  /tmp/cctdWfct.s 			page 26


 1426              		.loc 1 493 21 view .LVU452
 1427 0038 244085E5 		str	r4, [r5, #36]
 1428              		.loc 1 494 5 is_stmt 1 view .LVU453
 1429              		.loc 1 494 9 is_stmt 0 view .LVU454
 1430 003c FEFFFFEB 		bl	chSchGoSleepTimeoutS
 1431              	.LVL97:
 1432              		.loc 1 494 8 view .LVU455
 1433 0040 000050E3 		cmp	r0, #0
 1434 0044 F6FFFFBA 		blt	.L101
 1435              		.loc 1 498 5 is_stmt 1 view .LVU456
 1436              		.loc 1 498 12 is_stmt 0 view .LVU457
 1437 0048 383095E5 		ldr	r3, [r5, #56]
 1438              		.loc 1 498 7 view .LVU458
 1439 004c 046003E0 		and	r6, r3, r4
 1440              	.LVL98:
 1441              	.L96:
 1442              		.loc 1 500 3 is_stmt 1 view .LVU459
 1443              		.loc 1 500 19 is_stmt 0 view .LVU460
 1444 0050 0630C3E1 		bic	r3, r3, r6
 1445 0054 383085E5 		str	r3, [r5, #56]
 1446 0058 F1FFFFEA 		b	.L101
 1447              	.L103:
 1448              		.align	2
 1449              	.L102:
 1450 005c 00000000 		.word	rlist
 1451              		.cfi_endproc
 1452              	.LFE22:
 1453              		.size	chEvtWaitAnyTimeout, .-chEvtWaitAnyTimeout
 1454              		.section	.text.chEvtWaitAllTimeout,"ax",%progbits
 1455              		.align	2
 1456              		.global	chEvtWaitAllTimeout
 1457              		.syntax unified
 1458              		.arm
 1459              		.fpu softvfp
 1460              		.type	chEvtWaitAllTimeout, %function
 1461              	chEvtWaitAllTimeout:
 1462              	.LVL99:
 1463              	.LFB23:
 1464              		.loc 1 523 67 is_stmt 1 view -0
 1465              		.cfi_startproc
 1466              		@ args = 0, pretend = 0, frame = 0
 1467              		@ frame_needed = 0, uses_anonymous_args = 0
 1468              		.loc 1 524 3 view .LVU462
 1469              		.loc 1 524 11 is_stmt 0 view .LVU463
 1470 0000 58309FE5 		ldr	r3, .L110
 1471              		.loc 1 523 67 view .LVU464
 1472 0004 70402DE9 		push	{r4, r5, r6, lr}
 1473              		.cfi_def_cfa_offset 16
 1474              		.cfi_offset 4, -16
 1475              		.cfi_offset 5, -12
 1476              		.cfi_offset 6, -8
 1477              		.cfi_offset 14, -4
 1478              		.loc 1 523 67 view .LVU465
 1479 0008 0040A0E1 		mov	r4, r0
 1480              		.loc 1 524 11 view .LVU466
 1481 000c 185093E5 		ldr	r5, [r3, #24]
 1482              	.LVL100:
ARM GAS  /tmp/cctdWfct.s 			page 27


 1483              		.loc 1 526 3 is_stmt 1 view .LVU467
 1484              		.syntax divided
 1485              	@ 526 "../../os/kernel/src/chevents.c" 1
 1486 0010 9FF021E3 		msr     CPSR_c, #0x9F
 1487              	@ 0 "" 2
 1488              		.loc 1 526 3 view .LVU468
 1489              		.loc 1 526 14 view .LVU469
 1490              		.loc 1 528 3 view .LVU470
 1491              		.loc 1 528 11 is_stmt 0 view .LVU471
 1492              		.arm
 1493              		.syntax unified
 1494 0014 382095E5 		ldr	r2, [r5, #56]
 1495              		.loc 1 528 6 view .LVU472
 1496 0018 0200D4E1 		bics	r0, r4, r2
 1497              	.LVL101:
 1498              		.loc 1 528 6 view .LVU473
 1499 001c 0A00000A 		beq	.L105
 1500              		.loc 1 529 5 is_stmt 1 view .LVU474
 1501              		.loc 1 529 8 is_stmt 0 view .LVU475
 1502 0020 000051E3 		cmp	r1, #0
 1503 0024 0200001A 		bne	.L106
 1504              	.LVL102:
 1505              	.L108:
 1506              		.loc 1 535 7 is_stmt 1 view .LVU476
 1507              		.loc 1 535 7 view .LVU477
 1508              		.syntax divided
 1509              	@ 535 "../../os/kernel/src/chevents.c" 1
 1510 0028 1FF021E3 		msr     CPSR_c, #0x1F
 1511              	@ 0 "" 2
 1512              		.loc 1 535 20 view .LVU478
 1513              		.loc 1 536 7 view .LVU479
 1514              		.loc 1 536 14 is_stmt 0 view .LVU480
 1515              		.arm
 1516              		.syntax unified
 1517 002c 0000A0E3 		mov	r0, #0
 1518 0030 7080BDE8 		pop	{r4, r5, r6, pc}
 1519              	.LVL103:
 1520              	.L106:
 1521              		.loc 1 533 5 is_stmt 1 view .LVU481
 1522              		.loc 1 534 9 is_stmt 0 view .LVU482
 1523 0034 0900A0E3 		mov	r0, #9
 1524              		.loc 1 533 21 view .LVU483
 1525 0038 244085E5 		str	r4, [r5, #36]
 1526              		.loc 1 534 5 is_stmt 1 view .LVU484
 1527              		.loc 1 534 9 is_stmt 0 view .LVU485
 1528 003c FEFFFFEB 		bl	chSchGoSleepTimeoutS
 1529              	.LVL104:
 1530              		.loc 1 534 8 view .LVU486
 1531 0040 000050E3 		cmp	r0, #0
 1532 0044 F7FFFFBA 		blt	.L108
 1533              		.loc 1 539 19 view .LVU487
 1534 0048 382095E5 		ldr	r2, [r5, #56]
 1535              	.L105:
 1536              		.loc 1 539 3 is_stmt 1 view .LVU488
 1537              		.loc 1 539 19 is_stmt 0 view .LVU489
 1538 004c 0420C2E1 		bic	r2, r2, r4
 1539 0050 382085E5 		str	r2, [r5, #56]
ARM GAS  /tmp/cctdWfct.s 			page 28


 1540              		.loc 1 541 3 is_stmt 1 view .LVU490
 1541              		.loc 1 541 3 view .LVU491
 1542              		.syntax divided
 1543              	@ 541 "../../os/kernel/src/chevents.c" 1
 1544 0054 1FF021E3 		msr     CPSR_c, #0x1F
 1545              	@ 0 "" 2
 1546              		.loc 1 541 16 view .LVU492
 1547              		.loc 1 542 3 view .LVU493
 1548              		.loc 1 542 10 is_stmt 0 view .LVU494
 1549              		.arm
 1550              		.syntax unified
 1551 0058 0400A0E1 		mov	r0, r4
 1552              		.loc 1 543 1 view .LVU495
 1553 005c 7080BDE8 		pop	{r4, r5, r6, pc}
 1554              	.L111:
 1555              		.align	2
 1556              	.L110:
 1557 0060 00000000 		.word	rlist
 1558              		.cfi_endproc
 1559              	.LFE23:
 1560              		.size	chEvtWaitAllTimeout, .-chEvtWaitAllTimeout
 1561              		.text
 1562              	.Letext0:
 1563              		.file 2 "/usr/arm-none-eabi/include/machine/_default_types.h"
 1564              		.file 3 "/usr/arm-none-eabi/include/sys/_stdint.h"
 1565              		.file 4 "../../os/ports/GCC/ARM/chtypes.h"
 1566              		.file 5 "../../os/kernel/include/chlists.h"
 1567              		.file 6 "../../os/kernel/include/chthreads.h"
 1568              		.file 7 "../../os/ports/GCC/ARM/chcore.h"
 1569              		.file 8 "../../os/kernel/include/chschd.h"
 1570              		.file 9 "../../os/kernel/include/chmtx.h"
 1571              		.file 10 "../../os/kernel/include/chevents.h"