ARM GAS  /tmp/cchNvBsa.s 			page 1


   1              		.cpu arm1176jz-s
   2              		.eabi_attribute 20, 1
   3              		.eabi_attribute 21, 1
   4              		.eabi_attribute 23, 3
   5              		.eabi_attribute 24, 1
   6              		.eabi_attribute 25, 1
   7              		.eabi_attribute 26, 1
   8              		.eabi_attribute 30, 2
   9              		.eabi_attribute 34, 1
  10              		.eabi_attribute 18, 4
  11              		.file	"chheap.c"
  12              		.text
  13              	.Ltext0:
  14              		.cfi_sections	.debug_frame
  15              		.section	.text._heap_init,"ax",%progbits
  16              		.align	2
  17              		.global	_heap_init
  18              		.arch armv6kz
  19              		.syntax unified
  20              		.arm
  21              		.fpu softvfp
  22              		.type	_heap_init, %function
  23              	_heap_init:
  24              	.LFB7:
  25              		.file 1 "../../os/kernel/src/chheap.c"
  26              		.loc 1 68 23 view -0
  27              		.cfi_startproc
  28              		@ args = 0, pretend = 0, frame = 0
  29              		@ frame_needed = 0, uses_anonymous_args = 0
  30              		@ link register save eliminated.
  31              		.loc 1 69 3 view .LVU1
  32              		.loc 1 70 32 is_stmt 0 view .LVU2
  33 0000 0020A0E3 		mov	r2, #0
  34              		.loc 1 69 27 view .LVU3
  35 0004 10309FE5 		ldr	r3, .L3
  36 0008 10109FE5 		ldr	r1, .L3+4
  37              		.loc 1 73 3 view .LVU4
  38 000c 0C0083E2 		add	r0, r3, #12
  39              		.loc 1 70 32 view .LVU5
  40 0010 060083E8 		stm	r3, {r1, r2}
  41              		.loc 1 71 3 is_stmt 1 view .LVU6
  42              		.loc 1 71 30 is_stmt 0 view .LVU7
  43 0014 082083E5 		str	r2, [r3, #8]
  44              		.loc 1 73 3 is_stmt 1 view .LVU8
  45 0018 FEFFFFEA 		b	chMtxInit
  46              	.LVL0:
  47              	.L4:
  48              		.align	2
  49              	.L3:
  50 001c 00000000 		.word	.LANCHOR0
  51 0020 00000000 		.word	chCoreAlloc
  52              		.cfi_endproc
  53              	.LFE7:
  54              		.size	_heap_init, .-_heap_init
  55              		.section	.text.chHeapInit,"ax",%progbits
  56              		.align	2
  57              		.global	chHeapInit
ARM GAS  /tmp/cchNvBsa.s 			page 2


  58              		.syntax unified
  59              		.arm
  60              		.fpu softvfp
  61              		.type	chHeapInit, %function
  62              	chHeapInit:
  63              	.LVL1:
  64              	.LFB8:
  65              		.loc 1 92 60 view -0
  66              		.cfi_startproc
  67              		@ args = 0, pretend = 0, frame = 0
  68              		@ frame_needed = 0, uses_anonymous_args = 0
  69              		@ link register save eliminated.
  70              		.loc 1 93 3 view .LVU10
  71              		.loc 1 95 3 view .LVU11
  72              		.loc 1 95 72 view .LVU12
  73              		.loc 1 97 3 view .LVU13
  74              		.loc 1 97 21 is_stmt 0 view .LVU14
  75 0000 0030A0E3 		mov	r3, #0
  76              		.loc 1 101 21 view .LVU15
  77 0004 082042E2 		sub	r2, r2, #8
  78              	.LVL2:
  79              		.loc 1 99 24 view .LVU16
  80 0008 0A0080E9 		stmib	r0, {r1, r3}
  81              		.loc 1 97 21 view .LVU17
  82 000c 003080E5 		str	r3, [r0]
  83              		.loc 1 98 3 is_stmt 1 view .LVU18
  84              	.LVL3:
  85              		.loc 1 100 3 view .LVU19
  86              		.loc 1 103 3 is_stmt 0 view .LVU20
  87 0010 0C0080E2 		add	r0, r0, #12
  88              	.LVL4:
  89              		.loc 1 100 16 view .LVU21
  90 0014 003081E5 		str	r3, [r1]
  91              		.loc 1 101 3 is_stmt 1 view .LVU22
  92              		.loc 1 101 14 is_stmt 0 view .LVU23
  93 0018 042081E5 		str	r2, [r1, #4]
  94              		.loc 1 103 3 is_stmt 1 view .LVU24
  95 001c FEFFFFEA 		b	chMtxInit
  96              	.LVL5:
  97              		.loc 1 103 3 is_stmt 0 view .LVU25
  98              		.cfi_endproc
  99              	.LFE8:
 100              		.size	chHeapInit, .-chHeapInit
 101              		.section	.text.chHeapAlloc,"ax",%progbits
 102              		.align	2
 103              		.global	chHeapAlloc
 104              		.syntax unified
 105              		.arm
 106              		.fpu softvfp
 107              		.type	chHeapAlloc, %function
 108              	chHeapAlloc:
 109              	.LVL6:
 110              	.LFB9:
 111              		.loc 1 125 51 is_stmt 1 view -0
 112              		.cfi_startproc
 113              		@ args = 0, pretend = 0, frame = 0
 114              		@ frame_needed = 0, uses_anonymous_args = 0
ARM GAS  /tmp/cchNvBsa.s 			page 3


 115              		.loc 1 126 3 view .LVU27
 116              		.loc 1 128 3 view .LVU28
 117              		.loc 1 129 11 is_stmt 0 view .LVU29
 118 0000 000050E3 		cmp	r0, #0
 119              		.loc 1 125 51 view .LVU30
 120 0004 70402DE9 		push	{r4, r5, r6, lr}
 121              		.cfi_def_cfa_offset 16
 122              		.cfi_offset 4, -16
 123              		.cfi_offset 5, -12
 124              		.cfi_offset 6, -8
 125              		.cfi_offset 14, -4
 126              		.loc 1 129 11 view .LVU31
 127 0008 A0609FE5 		ldr	r6, .L21
 128 000c 0060A011 		movne	r6, r0
 129              	.LVL7:
 130              		.loc 1 131 3 is_stmt 1 view .LVU32
 131              		.loc 1 131 10 is_stmt 0 view .LVU33
 132 0010 031081E2 		add	r1, r1, #3
 133              	.LVL8:
 134              		.loc 1 133 3 view .LVU34
 135 0014 0C0086E2 		add	r0, r6, #12
 136              		.loc 1 131 8 view .LVU35
 137 0018 0350C1E3 		bic	r5, r1, #3
 138              	.LVL9:
 139              		.loc 1 132 3 is_stmt 1 view .LVU36
 140              		.loc 1 132 6 is_stmt 0 view .LVU37
 141 001c 044086E2 		add	r4, r6, #4
 142              	.LVL10:
 143              		.loc 1 133 3 is_stmt 1 view .LVU38
 144 0020 FEFFFFEB 		bl	chMtxLock
 145              	.LVL11:
 146              		.loc 1 135 3 view .LVU39
 147              		.loc 1 135 9 is_stmt 0 view .LVU40
 148 0024 020000EA 		b	.L8
 149              	.LVL12:
 150              	.L12:
 151              		.loc 1 137 14 view .LVU41
 152 0028 043094E5 		ldr	r3, [r4, #4]
 153              		.loc 1 137 8 view .LVU42
 154 002c 050053E1 		cmp	r3, r5
 155 0030 0F00002A 		bcs	.L20
 156              	.LVL13:
 157              	.L8:
 158              		.loc 1 136 5 is_stmt 1 view .LVU43
 159              		.loc 1 135 23 view .LVU44
 160 0034 0420A0E1 		mov	r2, r4
 161              		.loc 1 135 17 is_stmt 0 view .LVU45
 162 0038 004094E5 		ldr	r4, [r4]
 163              	.LVL14:
 164              		.loc 1 137 5 is_stmt 1 view .LVU46
 165              		.loc 1 135 23 is_stmt 0 view .LVU47
 166 003c 000054E3 		cmp	r4, #0
 167 0040 F8FFFF1A 		bne	.L12
 168              		.loc 1 160 3 is_stmt 1 view .LVU48
 169 0044 FEFFFFEB 		bl	chMtxUnlock
 170              	.LVL15:
 171              		.loc 1 164 3 view .LVU49
ARM GAS  /tmp/cchNvBsa.s 			page 4


 172              		.loc 1 164 12 is_stmt 0 view .LVU50
 173 0048 003096E5 		ldr	r3, [r6]
 174              		.loc 1 164 6 view .LVU51
 175 004c 000053E3 		cmp	r3, #0
 176 0050 0500000A 		beq	.L6
 177              		.loc 1 165 5 is_stmt 1 view .LVU52
 178              		.loc 1 165 10 is_stmt 0 view .LVU53
 179 0054 080085E2 		add	r0, r5, #8
 180 0058 33FF2FE1 		blx	r3
 181              	.LVL16:
 182              		.loc 1 166 5 is_stmt 1 view .LVU54
 183              		.loc 1 166 8 is_stmt 0 view .LVU55
 184 005c 000050E3 		cmp	r0, #0
 185              		.loc 1 167 7 is_stmt 1 view .LVU56
 186              		.loc 1 167 20 is_stmt 0 view .LVU57
 187 0060 00608015 		strne	r6, [r0]
 188              		.loc 1 168 7 is_stmt 1 view .LVU58
 189              		.loc 1 168 18 is_stmt 0 view .LVU59
 190 0064 04508015 		strne	r5, [r0, #4]
 191              		.loc 1 169 7 is_stmt 1 view .LVU60
 192              		.loc 1 169 9 is_stmt 0 view .LVU61
 193 0068 08408012 		addne	r4, r0, #8
 194              	.LVL17:
 195              		.loc 1 170 7 is_stmt 1 view .LVU62
 196              	.L6:
 197              		.loc 1 174 1 is_stmt 0 view .LVU63
 198 006c 0400A0E1 		mov	r0, r4
 199 0070 7080BDE8 		pop	{r4, r5, r6, pc}
 200              	.LVL18:
 201              	.L20:
 202              		.loc 1 138 7 is_stmt 1 view .LVU64
 203              		.loc 1 138 29 is_stmt 0 view .LVU65
 204 0074 081085E2 		add	r1, r5, #8
 205              		.loc 1 138 10 view .LVU66
 206 0078 010053E1 		cmp	r3, r1
 207              		.loc 1 142 31 view .LVU67
 208 007c 000094E5 		ldr	r0, [r4]
 209              		.loc 1 142 9 is_stmt 1 view .LVU68
 210              		.loc 1 146 9 view .LVU69
 211              		.loc 1 148 61 is_stmt 0 view .LVU70
 212 0080 05304320 		subcs	r3, r3, r5
 213              		.loc 1 147 22 view .LVU71
 214 0084 01008427 		strcs	r0, [r4, r1]
 215              		.loc 1 148 61 view .LVU72
 216 0088 08304322 		subcs	r3, r3, #8
 217              		.loc 1 146 12 view .LVU73
 218 008c 01108420 		addcs	r1, r4, r1
 219              	.LVL19:
 220              		.loc 1 147 9 is_stmt 1 view .LVU74
 221              		.loc 1 148 9 view .LVU75
 222              		.loc 1 148 20 is_stmt 0 view .LVU76
 223 0090 04308125 		strcs	r3, [r1, #4]
 224              		.loc 1 149 9 is_stmt 1 view .LVU77
 225              		.loc 1 142 22 is_stmt 0 view .LVU78
 226 0094 00008235 		strcc	r0, [r2]
 227              		.loc 1 149 22 view .LVU79
 228 0098 00108225 		strcs	r1, [r2]
ARM GAS  /tmp/cchNvBsa.s 			page 5


 229              		.loc 1 150 9 is_stmt 1 view .LVU80
 230              		.loc 1 150 20 is_stmt 0 view .LVU81
 231 009c 04508425 		strcs	r5, [r4, #4]
 232              		.loc 1 152 7 is_stmt 1 view .LVU82
 233              		.loc 1 152 20 is_stmt 0 view .LVU83
 234 00a0 086084E4 		str	r6, [r4], #8
 235              	.LVL20:
 236              		.loc 1 154 7 is_stmt 1 view .LVU84
 237 00a4 FEFFFFEB 		bl	chMtxUnlock
 238              	.LVL21:
 239              		.loc 1 155 7 view .LVU85
 240              		.loc 1 174 1 is_stmt 0 view .LVU86
 241 00a8 0400A0E1 		mov	r0, r4
 242 00ac 7080BDE8 		pop	{r4, r5, r6, pc}
 243              	.L22:
 244              		.align	2
 245              	.L21:
 246 00b0 00000000 		.word	.LANCHOR0
 247              		.cfi_endproc
 248              	.LFE9:
 249              		.size	chHeapAlloc, .-chHeapAlloc
 250              		.section	.text.chHeapFree,"ax",%progbits
 251              		.align	2
 252              		.global	chHeapFree
 253              		.syntax unified
 254              		.arm
 255              		.fpu softvfp
 256              		.type	chHeapFree, %function
 257              	chHeapFree:
 258              	.LVL22:
 259              	.LFB10:
 260              		.loc 1 187 26 is_stmt 1 view -0
 261              		.cfi_startproc
 262              		@ args = 0, pretend = 0, frame = 0
 263              		@ frame_needed = 0, uses_anonymous_args = 0
 264              		.loc 1 188 3 view .LVU88
 265              		.loc 1 189 3 view .LVU89
 266              		.loc 1 191 3 view .LVU90
 267              		.loc 1 191 38 view .LVU91
 268              		.loc 1 193 3 view .LVU92
 269              		.loc 1 187 26 is_stmt 0 view .LVU93
 270 0000 70402DE9 		push	{r4, r5, r6, lr}
 271              		.cfi_def_cfa_offset 16
 272              		.cfi_offset 4, -16
 273              		.cfi_offset 5, -12
 274              		.cfi_offset 6, -8
 275              		.cfi_offset 14, -4
 276              		.loc 1 187 26 view .LVU94
 277 0004 0060A0E1 		mov	r6, r0
 278              		.loc 1 194 9 view .LVU95
 279 0008 080010E5 		ldr	r0, [r0, #-8]
 280              	.LVL23:
 281              		.loc 1 193 6 view .LVU96
 282 000c 084046E2 		sub	r4, r6, #8
 283              	.LVL24:
 284              		.loc 1 194 3 is_stmt 1 view .LVU97
 285              		.loc 1 195 3 view .LVU98
ARM GAS  /tmp/cchNvBsa.s 			page 6


 286              		.loc 1 195 6 is_stmt 0 view .LVU99
 287 0010 045080E2 		add	r5, r0, #4
 288              	.LVL25:
 289              		.loc 1 196 3 is_stmt 1 view .LVU100
 290 0014 0C0080E2 		add	r0, r0, #12
 291              	.LVL26:
 292              		.loc 1 196 3 is_stmt 0 view .LVU101
 293 0018 FEFFFFEB 		bl	chMtxLock
 294              	.LVL27:
 295              		.loc 1 195 6 view .LVU102
 296 001c 0530A0E1 		mov	r3, r5
 297              	.LVL28:
 298              	.L31:
 299              		.loc 1 198 3 is_stmt 1 view .LVU103
 300              		.loc 1 199 5 view .LVU104
 301              		.loc 1 201 37 view .LVU105
 302              		.loc 1 203 5 view .LVU106
 303              		.loc 1 203 8 is_stmt 0 view .LVU107
 304 0020 052043E0 		sub	r2, r3, r5
 305 0024 122F6FE1 		clz	r2, r2
 306 0028 A222A0E1 		lsr	r2, r2, #5
 307 002c 040053E1 		cmp	r3, r4
 308 0030 01208233 		orrcc	r2, r2, #1
 309              		.loc 1 203 33 view .LVU108
 310 0034 000052E3 		cmp	r2, #0
 311 0038 0310A0E1 		mov	r1, r3
 312              		.loc 1 204 18 view .LVU109
 313 003c 003093E5 		ldr	r3, [r3]
 314              		.loc 1 203 33 view .LVU110
 315 0040 F6FFFF0A 		beq	.L31
 316              		.loc 1 203 47 discriminator 3 view .LVU111
 317 0044 000053E3 		cmp	r3, #0
 318 0048 0100000A 		beq	.L25
 319              		.loc 1 204 33 view .LVU112
 320 004c 030054E1 		cmp	r4, r3
 321 0050 F2FFFF2A 		bcs	.L31
 322              	.L25:
 323              		.loc 1 206 7 is_stmt 1 view .LVU113
 324              		.loc 1 206 20 is_stmt 0 view .LVU114
 325 0054 083006E5 		str	r3, [r6, #-8]
 326              		.loc 1 207 7 is_stmt 1 view .LVU115
 327              		.loc 1 209 11 is_stmt 0 view .LVU116
 328 0058 043016E5 		ldr	r3, [r6, #-4]
 329              		.loc 1 207 20 view .LVU117
 330 005c 004081E5 		str	r4, [r1]
 331              		.loc 1 209 7 is_stmt 1 view .LVU118
 332              		.loc 1 209 31 is_stmt 0 view .LVU119
 333 0060 082016E5 		ldr	r2, [r6, #-8]
 334              		.loc 1 209 11 view .LVU120
 335 0064 030086E0 		add	r0, r6, r3
 336              		.loc 1 209 10 view .LVU121
 337 0068 000052E1 		cmp	r2, r0
 338              		.loc 1 211 9 is_stmt 1 view .LVU122
 339              		.loc 1 211 20 is_stmt 0 view .LVU123
 340 006c 04009205 		ldreq	r0, [r2, #4]
 341 0070 08308302 		addeq	r3, r3, #8
 342              		.loc 1 212 41 view .LVU124
ARM GAS  /tmp/cchNvBsa.s 			page 7


 343 0074 00209205 		ldreq	r2, [r2]
 344              		.loc 1 211 20 view .LVU125
 345 0078 03308000 		addeq	r3, r0, r3
 346              		.loc 1 212 22 view .LVU126
 347 007c F8204601 		strdeq	r2, [r6, #-8]
 348              		.loc 1 214 7 is_stmt 1 view .LVU127
 349              		.loc 1 214 12 is_stmt 0 view .LVU128
 350 0080 042091E5 		ldr	r2, [r1, #4]
 351 0084 083082E2 		add	r3, r2, #8
 352 0088 033081E0 		add	r3, r1, r3
 353              		.loc 1 214 10 view .LVU129
 354 008c 030054E1 		cmp	r4, r3
 355              		.loc 1 216 9 is_stmt 1 view .LVU130
 356              		.loc 1 217 31 is_stmt 0 view .LVU131
 357 0090 09001609 		ldmdbeq	r6, {r0, r3}
 358              		.loc 1 216 20 view .LVU132
 359 0094 08308302 		addeq	r3, r3, #8
 360 0098 02308300 		addeq	r3, r3, r2
 361              		.loc 1 217 22 view .LVU133
 362 009c 09008108 		stmeq	r1, {r0, r3}
 363              		.loc 1 219 7 is_stmt 1 view .LVU134
 364              		.loc 1 224 3 view .LVU135
 365              		.loc 1 226 1 is_stmt 0 view .LVU136
 366 00a0 7040BDE8 		pop	{r4, r5, r6, lr}
 367              		.cfi_restore 14
 368              		.cfi_restore 6
 369              		.cfi_restore 5
 370              		.cfi_restore 4
 371              		.cfi_def_cfa_offset 0
 372              	.LVL29:
 373              		.loc 1 224 3 view .LVU137
 374 00a4 FEFFFFEA 		b	chMtxUnlock
 375              	.LVL30:
 376              		.cfi_endproc
 377              	.LFE10:
 378              		.size	chHeapFree, .-chHeapFree
 379              		.section	.text.chHeapStatus,"ax",%progbits
 380              		.align	2
 381              		.global	chHeapStatus
 382              		.syntax unified
 383              		.arm
 384              		.fpu softvfp
 385              		.type	chHeapStatus, %function
 386              	chHeapStatus:
 387              	.LVL31:
 388              	.LFB11:
 389              		.loc 1 243 55 is_stmt 1 view -0
 390              		.cfi_startproc
 391              		@ args = 0, pretend = 0, frame = 0
 392              		@ frame_needed = 0, uses_anonymous_args = 0
 393              		.loc 1 244 3 view .LVU139
 394              		.loc 1 245 3 view .LVU140
 395              		.loc 1 247 3 view .LVU141
 396              		.loc 1 248 11 is_stmt 0 view .LVU142
 397 0000 000050E3 		cmp	r0, #0
 398              		.loc 1 243 55 view .LVU143
 399 0004 70402DE9 		push	{r4, r5, r6, lr}
ARM GAS  /tmp/cchNvBsa.s 			page 8


 400              		.cfi_def_cfa_offset 16
 401              		.cfi_offset 4, -16
 402              		.cfi_offset 5, -12
 403              		.cfi_offset 6, -8
 404              		.cfi_offset 14, -4
 405              		.loc 1 248 11 view .LVU144
 406 0008 58409FE5 		ldr	r4, .L46
 407 000c 0040A011 		movne	r4, r0
 408              	.LVL32:
 409              		.loc 1 250 3 is_stmt 1 view .LVU145
 410 0010 0C0084E2 		add	r0, r4, #12
 411              		.loc 1 243 55 is_stmt 0 view .LVU146
 412 0014 0150A0E1 		mov	r5, r1
 413              		.loc 1 250 3 view .LVU147
 414 0018 FEFFFFEB 		bl	chMtxLock
 415              	.LVL33:
 416              		.loc 1 252 3 is_stmt 1 view .LVU148
 417              		.loc 1 253 3 view .LVU149
 418              		.loc 1 253 36 view .LVU150
 419              		.loc 1 253 43 is_stmt 0 view .LVU151
 420 001c 043094E5 		ldr	r3, [r4, #4]
 421              		.loc 1 253 36 view .LVU152
 422 0020 000053E3 		cmp	r3, #0
 423 0024 0C00000A 		beq	.L40
 424              		.loc 1 252 6 view .LVU153
 425 0028 0020A0E3 		mov	r2, #0
 426              		.loc 1 253 10 view .LVU154
 427 002c 0240A0E1 		mov	r4, r2
 428              	.LVL34:
 429              	.L38:
 430              		.loc 1 254 5 is_stmt 1 discriminator 3 view .LVU155
 431              		.loc 1 254 8 is_stmt 0 discriminator 3 view .LVU156
 432 0030 040093E5 		ldr	r0, [r3, #4]
 433              		.loc 1 253 43 discriminator 3 view .LVU157
 434 0034 003093E5 		ldr	r3, [r3]
 435              		.loc 1 254 8 discriminator 3 view .LVU158
 436 0038 002082E0 		add	r2, r2, r0
 437              	.LVL35:
 438              		.loc 1 253 53 is_stmt 1 discriminator 3 view .LVU159
 439              		.loc 1 253 36 is_stmt 0 discriminator 3 view .LVU160
 440 003c 000053E3 		cmp	r3, #0
 441              		.loc 1 253 51 discriminator 3 view .LVU161
 442 0040 014084E2 		add	r4, r4, #1
 443              	.LVL36:
 444              		.loc 1 253 36 is_stmt 1 discriminator 3 view .LVU162
 445 0044 F9FFFF1A 		bne	.L38
 446              	.LVL37:
 447              	.L37:
 448              		.loc 1 255 3 view .LVU163
 449              		.loc 1 255 6 is_stmt 0 view .LVU164
 450 0048 000055E3 		cmp	r5, #0
 451              		.loc 1 256 5 is_stmt 1 view .LVU165
 452              		.loc 1 256 12 is_stmt 0 view .LVU166
 453 004c 00208515 		strne	r2, [r5]
 454              		.loc 1 258 3 is_stmt 1 view .LVU167
 455 0050 FEFFFFEB 		bl	chMtxUnlock
 456              	.LVL38:
ARM GAS  /tmp/cchNvBsa.s 			page 9


 457              		.loc 1 259 3 view .LVU168
 458              		.loc 1 260 1 is_stmt 0 view .LVU169
 459 0054 0400A0E1 		mov	r0, r4
 460 0058 7080BDE8 		pop	{r4, r5, r6, pc}
 461              	.LVL39:
 462              	.L40:
 463              		.loc 1 252 6 view .LVU170
 464 005c 0320A0E1 		mov	r2, r3
 465              		.loc 1 253 10 view .LVU171
 466 0060 0340A0E1 		mov	r4, r3
 467              	.LVL40:
 468              		.loc 1 253 10 view .LVU172
 469 0064 F7FFFFEA 		b	.L37
 470              	.L47:
 471              		.align	2
 472              	.L46:
 473 0068 00000000 		.word	.LANCHOR0
 474              		.cfi_endproc
 475              	.LFE11:
 476              		.size	chHeapStatus, .-chHeapStatus
 477              		.section	.bss.default_heap,"aw",%nobits
 478              		.align	2
 479              		.set	.LANCHOR0,. + 0
 480              		.type	default_heap, %object
 481              		.size	default_heap, 28
 482              	default_heap:
 483 0000 00000000 		.space	28
 483      00000000 
 483      00000000 
 483      00000000 
 483      00000000 
 484              		.text
 485              	.Letext0:
 486              		.file 2 "/usr/lib/gcc/arm-none-eabi/11.2.0/include/stddef.h"
 487              		.file 3 "/usr/arm-none-eabi/include/machine/_default_types.h"
 488              		.file 4 "/usr/arm-none-eabi/include/sys/_stdint.h"
 489              		.file 5 "../../os/ports/GCC/ARM/chtypes.h"
 490              		.file 6 "../../os/kernel/include/chlists.h"
 491              		.file 7 "../../os/kernel/include/chthreads.h"
 492              		.file 8 "../../os/ports/GCC/ARM/chcore.h"
 493              		.file 9 "../../os/kernel/include/chmtx.h"
 494              		.file 10 "../../os/kernel/include/chmemcore.h"
 495              		.file 11 "../../os/kernel/include/chheap.h"