ARM GAS  /tmp/cccw1Yxa.s 			page 1


   1              		.cpu arm1176jz-s
   2              		.eabi_attribute 20, 1
   3              		.eabi_attribute 21, 1
   4              		.eabi_attribute 23, 3
   5              		.eabi_attribute 24, 1
   6              		.eabi_attribute 25, 1
   7              		.eabi_attribute 26, 1
   8              		.eabi_attribute 30, 2
   9              		.eabi_attribute 34, 1
  10              		.eabi_attribute 18, 4
  11              		.file	"chmboxes.c"
  12              		.text
  13              	.Ltext0:
  14              		.cfi_sections	.debug_frame
  15              		.section	.text.chMBInit,"ax",%progbits
  16              		.align	2
  17              		.global	chMBInit
  18              		.arch armv6kz
  19              		.syntax unified
  20              		.arm
  21              		.fpu softvfp
  22              		.type	chMBInit, %function
  23              	chMBInit:
  24              	.LVL0:
  25              	.LFB7:
  26              		.file 1 "../../os/kernel/src/chmboxes.c"
  27              		.loc 1 65 50 view -0
  28              		.cfi_startproc
  29              		@ args = 0, pretend = 0, frame = 0
  30              		@ frame_needed = 0, uses_anonymous_args = 0
  31              		.loc 1 67 3 view .LVU1
  32              		.loc 1 67 68 view .LVU2
  33              		.loc 1 69 3 view .LVU3
  34              		.loc 1 65 50 is_stmt 0 view .LVU4
  35 0000 0130A0E1 		mov	r3, r1
  36 0004 10402DE9 		push	{r4, lr}
  37              		.cfi_def_cfa_offset 8
  38              		.cfi_offset 4, -8
  39              		.cfi_offset 14, -4
  40              		.loc 1 65 50 view .LVU5
  41 0008 0040A0E1 		mov	r4, r0
  42 000c 0210A0E1 		mov	r1, r2
  43              	.LVL1:
  44              		.loc 1 70 17 view .LVU6
  45 0010 022183E0 		add	r2, r3, r2, lsl #2
  46              	.LVL2:
  47              		.loc 1 71 3 view .LVU7
  48 0014 1C0080E2 		add	r0, r0, #28
  49              	.LVL3:
  50              		.loc 1 69 50 view .LVU8
  51 0018 0C3084E5 		str	r3, [r4, #12]
  52              		.loc 1 69 34 view .LVU9
  53 001c 083084E5 		str	r3, [r4, #8]
  54              		.loc 1 69 18 view .LVU10
  55 0020 003084E5 		str	r3, [r4]
  56              		.loc 1 70 3 is_stmt 1 view .LVU11
  57              		.loc 1 70 15 is_stmt 0 view .LVU12
ARM GAS  /tmp/cccw1Yxa.s 			page 2


  58 0024 042084E5 		str	r2, [r4, #4]
  59              		.loc 1 71 3 is_stmt 1 view .LVU13
  60 0028 FEFFFFEB 		bl	chSemInit
  61              	.LVL4:
  62              		.loc 1 72 3 view .LVU14
  63 002c 100084E2 		add	r0, r4, #16
  64 0030 0010A0E3 		mov	r1, #0
  65              		.loc 1 73 1 is_stmt 0 view .LVU15
  66 0034 1040BDE8 		pop	{r4, lr}
  67              		.cfi_restore 14
  68              		.cfi_restore 4
  69              		.cfi_def_cfa_offset 0
  70              	.LVL5:
  71              		.loc 1 72 3 view .LVU16
  72 0038 FEFFFFEA 		b	chSemInit
  73              	.LVL6:
  74              		.loc 1 72 3 view .LVU17
  75              		.cfi_endproc
  76              	.LFE7:
  77              		.size	chMBInit, .-chMBInit
  78              		.section	.text.chMBReset,"ax",%progbits
  79              		.align	2
  80              		.global	chMBReset
  81              		.syntax unified
  82              		.arm
  83              		.fpu softvfp
  84              		.type	chMBReset, %function
  85              	chMBReset:
  86              	.LVL7:
  87              	.LFB8:
  88              		.loc 1 84 30 is_stmt 1 view -0
  89              		.cfi_startproc
  90              		@ args = 0, pretend = 0, frame = 0
  91              		@ frame_needed = 0, uses_anonymous_args = 0
  92              		.loc 1 86 3 view .LVU19
  93              		.loc 1 86 39 view .LVU20
  94              		.loc 1 88 3 view .LVU21
  95              		.loc 1 84 30 is_stmt 0 view .LVU22
  96 0000 10402DE9 		push	{r4, lr}
  97              		.cfi_def_cfa_offset 8
  98              		.cfi_offset 4, -8
  99              		.cfi_offset 14, -4
 100              		.loc 1 84 30 view .LVU23
 101 0004 0040A0E1 		mov	r4, r0
 102              		.loc 1 88 3 view .LVU24
 103              		.syntax divided
 104              	@ 88 "../../os/kernel/src/chmboxes.c" 1
 105 0008 9FF021E3 		msr     CPSR_c, #0x9F
 106              	@ 0 "" 2
 107              		.loc 1 88 3 is_stmt 1 view .LVU25
 108              		.loc 1 88 14 view .LVU26
 109              		.loc 1 89 3 view .LVU27
 110              		.loc 1 89 38 is_stmt 0 view .LVU28
 111              		.arm
 112              		.syntax unified
 113 000c 003090E5 		ldr	r3, [r0]
 114              		.loc 1 90 46 view .LVU29
ARM GAS  /tmp/cccw1Yxa.s 			page 3


 115 0010 041090E5 		ldr	r1, [r0, #4]
 116              		.loc 1 89 33 view .LVU30
 117 0014 0C3084E5 		str	r3, [r4, #12]
 118              		.loc 1 90 46 view .LVU31
 119 0018 031041E0 		sub	r1, r1, r3
 120              		.loc 1 89 17 view .LVU32
 121 001c 083084E5 		str	r3, [r4, #8]
 122              		.loc 1 90 3 is_stmt 1 view .LVU33
 123 0020 1C0080E2 		add	r0, r0, #28
 124              	.LVL8:
 125              		.loc 1 90 3 is_stmt 0 view .LVU34
 126 0024 4111A0E1 		asr	r1, r1, #2
 127 0028 FEFFFFEB 		bl	chSemResetI
 128              	.LVL9:
 129              		.loc 1 91 3 is_stmt 1 view .LVU35
 130 002c 0010A0E3 		mov	r1, #0
 131 0030 100084E2 		add	r0, r4, #16
 132 0034 FEFFFFEB 		bl	chSemResetI
 133              	.LVL10:
 134              		.loc 1 92 3 view .LVU36
 135 0038 FEFFFFEB 		bl	chSchRescheduleS
 136              	.LVL11:
 137              		.loc 1 93 3 view .LVU37
 138              		.loc 1 93 3 view .LVU38
 139              		.syntax divided
 140              	@ 93 "../../os/kernel/src/chmboxes.c" 1
 141 003c 1FF021E3 		msr     CPSR_c, #0x1F
 142              	@ 0 "" 2
 143              		.loc 1 93 16 view .LVU39
 144              		.loc 1 94 1 is_stmt 0 view .LVU40
 145              		.arm
 146              		.syntax unified
 147 0040 1080BDE8 		pop	{r4, pc}
 148              		.cfi_endproc
 149              	.LFE8:
 150              		.size	chMBReset, .-chMBReset
 151              		.section	.text.chMBPost,"ax",%progbits
 152              		.align	2
 153              		.global	chMBPost
 154              		.syntax unified
 155              		.arm
 156              		.fpu softvfp
 157              		.type	chMBPost, %function
 158              	chMBPost:
 159              	.LVL12:
 160              	.LFB9:
 161              		.loc 1 115 57 is_stmt 1 view -0
 162              		.cfi_startproc
 163              		@ args = 0, pretend = 0, frame = 0
 164              		@ frame_needed = 0, uses_anonymous_args = 0
 165              		.loc 1 115 57 is_stmt 0 view .LVU42
 166 0000 70402DE9 		push	{r4, r5, r6, lr}
 167              		.cfi_def_cfa_offset 16
 168              		.cfi_offset 4, -16
 169              		.cfi_offset 5, -12
 170              		.cfi_offset 6, -8
 171              		.cfi_offset 14, -4
ARM GAS  /tmp/cccw1Yxa.s 			page 4


 172              		.loc 1 115 57 view .LVU43
 173 0004 0160A0E1 		mov	r6, r1
 174              		.loc 1 116 3 is_stmt 1 view .LVU44
 175              		.loc 1 118 3 view .LVU45
 176              		.loc 1 115 57 is_stmt 0 view .LVU46
 177 0008 0040A0E1 		mov	r4, r0
 178 000c 0210A0E1 		mov	r1, r2
 179              	.LVL13:
 180              		.loc 1 118 3 view .LVU47
 181              		.syntax divided
 182              	@ 118 "../../os/kernel/src/chmboxes.c" 1
 183 0010 9FF021E3 		msr     CPSR_c, #0x9F
 184              	@ 0 "" 2
 185              		.loc 1 118 3 is_stmt 1 view .LVU48
 186              		.loc 1 118 14 view .LVU49
 187              		.loc 1 119 3 view .LVU50
 188              	.LVL14:
 189              		.arm
 190              		.syntax unified
 191              	.LBB6:
 192              	.LBI6:
 193              		.loc 1 143 7 view .LVU51
 194              	.LBB7:
 195              		.loc 1 144 3 view .LVU52
 196              		.loc 1 146 3 view .LVU53
 197              		.loc 1 146 21 view .LVU54
 198              		.loc 1 147 3 view .LVU55
 199              		.loc 1 147 39 view .LVU56
 200              		.loc 1 149 3 view .LVU57
 201              		.loc 1 149 12 is_stmt 0 view .LVU58
 202 0014 1C0080E2 		add	r0, r0, #28
 203              	.LVL15:
 204              		.loc 1 149 12 view .LVU59
 205 0018 FEFFFFEB 		bl	chSemWaitTimeoutS
 206              	.LVL16:
 207              		.loc 1 150 3 is_stmt 1 view .LVU60
 208              		.loc 1 150 6 is_stmt 0 view .LVU61
 209 001c 005050E2 		subs	r5, r0, #0
 210 0020 0A00001A 		bne	.L7
 211              	.LVL17:
 212              	.LBB8:
 213              	.LBI8:
 214              		.loc 1 143 7 is_stmt 1 view .LVU62
 215              	.LBB9:
 216              		.loc 1 151 5 view .LVU63
 217              		.loc 1 151 9 is_stmt 0 view .LVU64
 218 0024 082094E5 		ldr	r2, [r4, #8]
 219              		.loc 1 154 5 view .LVU65
 220 0028 100084E2 		add	r0, r4, #16
 221              	.LVL18:
 222              		.loc 1 151 19 view .LVU66
 223 002c 043082E2 		add	r3, r2, #4
 224 0030 083084E5 		str	r3, [r4, #8]
 225              		.loc 1 151 22 view .LVU67
 226 0034 006082E5 		str	r6, [r2]
 227              		.loc 1 152 5 is_stmt 1 view .LVU68
 228              		.loc 1 152 8 is_stmt 0 view .LVU69
ARM GAS  /tmp/cccw1Yxa.s 			page 5


 229 0038 042094E5 		ldr	r2, [r4, #4]
 230 003c 020053E1 		cmp	r3, r2
 231              		.loc 1 153 7 is_stmt 1 view .LVU70
 232              		.loc 1 154 5 view .LVU71
 233              		.loc 1 153 21 is_stmt 0 view .LVU72
 234 0040 00309425 		ldrcs	r3, [r4]
 235 0044 08308425 		strcs	r3, [r4, #8]
 236              		.loc 1 154 5 view .LVU73
 237 0048 FEFFFFEB 		bl	chSemSignalI
 238              	.LVL19:
 239              		.loc 1 155 5 is_stmt 1 view .LVU74
 240 004c FEFFFFEB 		bl	chSchRescheduleS
 241              	.LVL20:
 242              	.L7:
 243              		.loc 1 155 5 is_stmt 0 view .LVU75
 244              	.LBE9:
 245              	.LBE8:
 246              		.loc 1 157 3 is_stmt 1 view .LVU76
 247              		.loc 1 157 3 is_stmt 0 view .LVU77
 248              	.LBE7:
 249              	.LBE6:
 250              		.loc 1 120 3 is_stmt 1 view .LVU78
 251              		.loc 1 120 3 view .LVU79
 252              		.syntax divided
 253              	@ 120 "../../os/kernel/src/chmboxes.c" 1
 254 0050 1FF021E3 		msr     CPSR_c, #0x1F
 255              	@ 0 "" 2
 256              		.loc 1 120 16 view .LVU80
 257              		.loc 1 121 3 view .LVU81
 258              		.loc 1 122 1 is_stmt 0 view .LVU82
 259              		.arm
 260              		.syntax unified
 261 0054 0500A0E1 		mov	r0, r5
 262 0058 7080BDE8 		pop	{r4, r5, r6, pc}
 263              		.cfi_endproc
 264              	.LFE9:
 265              		.size	chMBPost, .-chMBPost
 266              		.section	.text.chMBPostS,"ax",%progbits
 267              		.align	2
 268              		.global	chMBPostS
 269              		.syntax unified
 270              		.arm
 271              		.fpu softvfp
 272              		.type	chMBPostS, %function
 273              	chMBPostS:
 274              	.LVL21:
 275              	.LFB10:
 276              		.loc 1 143 58 is_stmt 1 view -0
 277              		.cfi_startproc
 278              		@ args = 0, pretend = 0, frame = 0
 279              		@ frame_needed = 0, uses_anonymous_args = 0
 280              		.loc 1 143 58 is_stmt 0 view .LVU84
 281 0000 70402DE9 		push	{r4, r5, r6, lr}
 282              		.cfi_def_cfa_offset 16
 283              		.cfi_offset 4, -16
 284              		.cfi_offset 5, -12
 285              		.cfi_offset 6, -8
ARM GAS  /tmp/cccw1Yxa.s 			page 6


 286              		.cfi_offset 14, -4
 287              		.loc 1 143 58 view .LVU85
 288 0004 0160A0E1 		mov	r6, r1
 289 0008 0040A0E1 		mov	r4, r0
 290              		.loc 1 149 12 view .LVU86
 291 000c 0210A0E1 		mov	r1, r2
 292              	.LVL22:
 293              		.loc 1 144 3 is_stmt 1 view .LVU87
 294              		.loc 1 146 3 view .LVU88
 295              		.loc 1 146 21 view .LVU89
 296              		.loc 1 147 3 view .LVU90
 297              		.loc 1 147 39 view .LVU91
 298              		.loc 1 149 3 view .LVU92
 299              		.loc 1 149 12 is_stmt 0 view .LVU93
 300 0010 1C0080E2 		add	r0, r0, #28
 301              	.LVL23:
 302              		.loc 1 149 12 view .LVU94
 303 0014 FEFFFFEB 		bl	chSemWaitTimeoutS
 304              	.LVL24:
 305              		.loc 1 150 3 is_stmt 1 view .LVU95
 306              		.loc 1 150 6 is_stmt 0 view .LVU96
 307 0018 005050E2 		subs	r5, r0, #0
 308 001c 0A00001A 		bne	.L10
 309              	.LVL25:
 310              	.LBB12:
 311              	.LBI12:
 312              		.loc 1 143 7 is_stmt 1 view .LVU97
 313              	.LBB13:
 314              		.loc 1 151 5 view .LVU98
 315              		.loc 1 151 9 is_stmt 0 view .LVU99
 316 0020 082094E5 		ldr	r2, [r4, #8]
 317              		.loc 1 154 5 view .LVU100
 318 0024 100084E2 		add	r0, r4, #16
 319              	.LVL26:
 320              		.loc 1 151 19 view .LVU101
 321 0028 043082E2 		add	r3, r2, #4
 322 002c 083084E5 		str	r3, [r4, #8]
 323              		.loc 1 151 22 view .LVU102
 324 0030 006082E5 		str	r6, [r2]
 325              		.loc 1 152 5 is_stmt 1 view .LVU103
 326              		.loc 1 152 8 is_stmt 0 view .LVU104
 327 0034 042094E5 		ldr	r2, [r4, #4]
 328 0038 020053E1 		cmp	r3, r2
 329              		.loc 1 153 7 is_stmt 1 view .LVU105
 330              		.loc 1 154 5 view .LVU106
 331              		.loc 1 153 21 is_stmt 0 view .LVU107
 332 003c 00309425 		ldrcs	r3, [r4]
 333 0040 08308425 		strcs	r3, [r4, #8]
 334              		.loc 1 154 5 view .LVU108
 335 0044 FEFFFFEB 		bl	chSemSignalI
 336              	.LVL27:
 337              		.loc 1 155 5 is_stmt 1 view .LVU109
 338 0048 FEFFFFEB 		bl	chSchRescheduleS
 339              	.LVL28:
 340              		.loc 1 155 5 is_stmt 0 view .LVU110
 341              	.LBE13:
 342              	.LBE12:
ARM GAS  /tmp/cccw1Yxa.s 			page 7


 343              		.loc 1 157 3 is_stmt 1 view .LVU111
 344              	.L10:
 345              		.loc 1 158 1 is_stmt 0 view .LVU112
 346 004c 0500A0E1 		mov	r0, r5
 347 0050 7080BDE8 		pop	{r4, r5, r6, pc}
 348              		.cfi_endproc
 349              	.LFE10:
 350              		.size	chMBPostS, .-chMBPostS
 351              		.section	.text.chMBPostI,"ax",%progbits
 352              		.align	2
 353              		.global	chMBPostI
 354              		.syntax unified
 355              		.arm
 356              		.fpu softvfp
 357              		.type	chMBPostI, %function
 358              	chMBPostI:
 359              	.LVL29:
 360              	.LFB11:
 361              		.loc 1 174 42 is_stmt 1 view -0
 362              		.cfi_startproc
 363              		@ args = 0, pretend = 0, frame = 0
 364              		@ frame_needed = 0, uses_anonymous_args = 0
 365              		.loc 1 176 3 view .LVU114
 366              		.loc 1 176 21 view .LVU115
 367              		.loc 1 177 3 view .LVU116
 368              		.loc 1 177 39 view .LVU117
 369              		.loc 1 179 3 view .LVU118
 370              		.loc 1 179 7 is_stmt 0 view .LVU119
 371 0000 243090E5 		ldr	r3, [r0, #36]
 372              		.loc 1 179 6 view .LVU120
 373 0004 000053E3 		cmp	r3, #0
 374 0008 0E0000DA 		ble	.L17
 375              		.loc 1 181 3 is_stmt 1 view .LVU121
 376              		.loc 1 182 7 is_stmt 0 view .LVU122
 377 000c 08C090E5 		ldr	ip, [r0, #8]
 378              		.loc 1 181 3 view .LVU123
 379 0010 013043E2 		sub	r3, r3, #1
 380              		.loc 1 174 42 view .LVU124
 381 0014 10402DE9 		push	{r4, lr}
 382              		.cfi_def_cfa_offset 8
 383              		.cfi_offset 4, -8
 384              		.cfi_offset 14, -4
 385              		.loc 1 181 3 view .LVU125
 386 0018 243080E5 		str	r3, [r0, #36]
 387              		.loc 1 182 3 is_stmt 1 view .LVU126
 388              		.loc 1 183 6 is_stmt 0 view .LVU127
 389 001c 043090E5 		ldr	r3, [r0, #4]
 390              		.loc 1 182 17 view .LVU128
 391 0020 04208CE2 		add	r2, ip, #4
 392              		.loc 1 183 6 view .LVU129
 393 0024 030052E1 		cmp	r2, r3
 394              		.loc 1 184 19 view .LVU130
 395 0028 00309025 		ldrcs	r3, [r0]
 396              		.loc 1 182 17 view .LVU131
 397 002c 082080E5 		str	r2, [r0, #8]
 398              		.loc 1 182 20 view .LVU132
 399 0030 00108CE5 		str	r1, [ip]
ARM GAS  /tmp/cccw1Yxa.s 			page 8


 400              		.loc 1 183 3 is_stmt 1 view .LVU133
 401              		.loc 1 184 5 view .LVU134
 402              		.loc 1 185 3 view .LVU135
 403 0034 100080E2 		add	r0, r0, #16
 404              	.LVL30:
 405              		.loc 1 184 19 is_stmt 0 view .LVU136
 406 0038 08300025 		strcs	r3, [r0, #-8]
 407              		.loc 1 185 3 view .LVU137
 408 003c FEFFFFEB 		bl	chSemSignalI
 409              	.LVL31:
 410              		.loc 1 186 3 is_stmt 1 view .LVU138
 411              		.loc 1 186 10 is_stmt 0 view .LVU139
 412 0040 0000A0E3 		mov	r0, #0
 413              		.loc 1 187 1 view .LVU140
 414 0044 1080BDE8 		pop	{r4, pc}
 415              	.LVL32:
 416              	.L17:
 417              		.cfi_def_cfa_offset 0
 418              		.cfi_restore 4
 419              		.cfi_restore 14
 420              		.loc 1 180 12 view .LVU141
 421 0048 0000E0E3 		mvn	r0, #0
 422              	.LVL33:
 423              		.loc 1 187 1 view .LVU142
 424 004c 1EFF2FE1 		bx	lr
 425              		.cfi_endproc
 426              	.LFE11:
 427              		.size	chMBPostI, .-chMBPostI
 428              		.section	.text.chMBPostAhead,"ax",%progbits
 429              		.align	2
 430              		.global	chMBPostAhead
 431              		.syntax unified
 432              		.arm
 433              		.fpu softvfp
 434              		.type	chMBPostAhead, %function
 435              	chMBPostAhead:
 436              	.LVL34:
 437              	.LFB12:
 438              		.loc 1 208 62 is_stmt 1 view -0
 439              		.cfi_startproc
 440              		@ args = 0, pretend = 0, frame = 0
 441              		@ frame_needed = 0, uses_anonymous_args = 0
 442              		.loc 1 208 62 is_stmt 0 view .LVU144
 443 0000 70402DE9 		push	{r4, r5, r6, lr}
 444              		.cfi_def_cfa_offset 16
 445              		.cfi_offset 4, -16
 446              		.cfi_offset 5, -12
 447              		.cfi_offset 6, -8
 448              		.cfi_offset 14, -4
 449              		.loc 1 208 62 view .LVU145
 450 0004 0160A0E1 		mov	r6, r1
 451              		.loc 1 209 3 is_stmt 1 view .LVU146
 452              		.loc 1 211 3 view .LVU147
 453              		.loc 1 208 62 is_stmt 0 view .LVU148
 454 0008 0040A0E1 		mov	r4, r0
 455 000c 0210A0E1 		mov	r1, r2
 456              	.LVL35:
ARM GAS  /tmp/cccw1Yxa.s 			page 9


 457              		.loc 1 211 3 view .LVU149
 458              		.syntax divided
 459              	@ 211 "../../os/kernel/src/chmboxes.c" 1
 460 0010 9FF021E3 		msr     CPSR_c, #0x9F
 461              	@ 0 "" 2
 462              		.loc 1 211 3 is_stmt 1 view .LVU150
 463              		.loc 1 211 14 view .LVU151
 464              		.loc 1 212 3 view .LVU152
 465              	.LVL36:
 466              		.arm
 467              		.syntax unified
 468              	.LBB18:
 469              	.LBI18:
 470              		.loc 1 236 7 view .LVU153
 471              	.LBB19:
 472              		.loc 1 237 3 view .LVU154
 473              		.loc 1 239 3 view .LVU155
 474              		.loc 1 239 21 view .LVU156
 475              		.loc 1 240 3 view .LVU157
 476              		.loc 1 240 44 view .LVU158
 477              		.loc 1 242 3 view .LVU159
 478              		.loc 1 242 12 is_stmt 0 view .LVU160
 479 0014 1C0080E2 		add	r0, r0, #28
 480              	.LVL37:
 481              		.loc 1 242 12 view .LVU161
 482 0018 FEFFFFEB 		bl	chSemWaitTimeoutS
 483              	.LVL38:
 484              		.loc 1 243 3 is_stmt 1 view .LVU162
 485              		.loc 1 243 6 is_stmt 0 view .LVU163
 486 001c 005050E2 		subs	r5, r0, #0
 487 0020 0B00001A 		bne	.L23
 488              	.LVL39:
 489              	.LBB20:
 490              	.LBI20:
 491              		.loc 1 236 7 is_stmt 1 view .LVU164
 492              	.LBB21:
 493              		.loc 1 244 5 view .LVU165
 494              		.loc 1 244 9 is_stmt 0 view .LVU166
 495 0024 0C3094E5 		ldr	r3, [r4, #12]
 496              		.loc 1 244 8 view .LVU167
 497 0028 002094E5 		ldr	r2, [r4]
 498              		.loc 1 244 9 view .LVU168
 499 002c 043043E2 		sub	r3, r3, #4
 500              		.loc 1 244 8 view .LVU169
 501 0030 020053E1 		cmp	r3, r2
 502 0034 0C3084E5 		str	r3, [r4, #12]
 503              		.loc 1 245 7 is_stmt 1 view .LVU170
 504              		.loc 1 246 5 view .LVU171
 505              		.loc 1 245 35 is_stmt 0 view .LVU172
 506 0038 04309435 		ldrcc	r3, [r4, #4]
 507              		.loc 1 247 5 view .LVU173
 508 003c 100084E2 		add	r0, r4, #16
 509              	.LVL40:
 510              		.loc 1 245 35 view .LVU174
 511 0040 04304332 		subcc	r3, r3, #4
 512              		.loc 1 245 21 view .LVU175
 513 0044 0C308435 		strcc	r3, [r4, #12]
ARM GAS  /tmp/cccw1Yxa.s 			page 10


 514              		.loc 1 246 20 view .LVU176
 515 0048 006083E5 		str	r6, [r3]
 516              		.loc 1 247 5 is_stmt 1 view .LVU177
 517 004c FEFFFFEB 		bl	chSemSignalI
 518              	.LVL41:
 519              		.loc 1 248 5 view .LVU178
 520 0050 FEFFFFEB 		bl	chSchRescheduleS
 521              	.LVL42:
 522              	.L23:
 523              		.loc 1 248 5 is_stmt 0 view .LVU179
 524              	.LBE21:
 525              	.LBE20:
 526              		.loc 1 250 3 is_stmt 1 view .LVU180
 527              		.loc 1 250 3 is_stmt 0 view .LVU181
 528              	.LBE19:
 529              	.LBE18:
 530              		.loc 1 213 3 is_stmt 1 view .LVU182
 531              		.loc 1 213 3 view .LVU183
 532              		.syntax divided
 533              	@ 213 "../../os/kernel/src/chmboxes.c" 1
 534 0054 1FF021E3 		msr     CPSR_c, #0x1F
 535              	@ 0 "" 2
 536              		.loc 1 213 16 view .LVU184
 537              		.loc 1 214 3 view .LVU185
 538              		.loc 1 215 1 is_stmt 0 view .LVU186
 539              		.arm
 540              		.syntax unified
 541 0058 0500A0E1 		mov	r0, r5
 542 005c 7080BDE8 		pop	{r4, r5, r6, pc}
 543              		.cfi_endproc
 544              	.LFE12:
 545              		.size	chMBPostAhead, .-chMBPostAhead
 546              		.section	.text.chMBPostAheadS,"ax",%progbits
 547              		.align	2
 548              		.global	chMBPostAheadS
 549              		.syntax unified
 550              		.arm
 551              		.fpu softvfp
 552              		.type	chMBPostAheadS, %function
 553              	chMBPostAheadS:
 554              	.LVL43:
 555              	.LFB13:
 556              		.loc 1 236 63 is_stmt 1 view -0
 557              		.cfi_startproc
 558              		@ args = 0, pretend = 0, frame = 0
 559              		@ frame_needed = 0, uses_anonymous_args = 0
 560              		.loc 1 236 63 is_stmt 0 view .LVU188
 561 0000 70402DE9 		push	{r4, r5, r6, lr}
 562              		.cfi_def_cfa_offset 16
 563              		.cfi_offset 4, -16
 564              		.cfi_offset 5, -12
 565              		.cfi_offset 6, -8
 566              		.cfi_offset 14, -4
 567              		.loc 1 236 63 view .LVU189
 568 0004 0160A0E1 		mov	r6, r1
 569 0008 0040A0E1 		mov	r4, r0
 570              		.loc 1 242 12 view .LVU190
ARM GAS  /tmp/cccw1Yxa.s 			page 11


 571 000c 0210A0E1 		mov	r1, r2
 572              	.LVL44:
 573              		.loc 1 237 3 is_stmt 1 view .LVU191
 574              		.loc 1 239 3 view .LVU192
 575              		.loc 1 239 21 view .LVU193
 576              		.loc 1 240 3 view .LVU194
 577              		.loc 1 240 44 view .LVU195
 578              		.loc 1 242 3 view .LVU196
 579              		.loc 1 242 12 is_stmt 0 view .LVU197
 580 0010 1C0080E2 		add	r0, r0, #28
 581              	.LVL45:
 582              		.loc 1 242 12 view .LVU198
 583 0014 FEFFFFEB 		bl	chSemWaitTimeoutS
 584              	.LVL46:
 585              		.loc 1 243 3 is_stmt 1 view .LVU199
 586              		.loc 1 243 6 is_stmt 0 view .LVU200
 587 0018 005050E2 		subs	r5, r0, #0
 588 001c 0B00001A 		bne	.L26
 589              	.LVL47:
 590              	.LBB24:
 591              	.LBI24:
 592              		.loc 1 236 7 is_stmt 1 view .LVU201
 593              	.LBB25:
 594              		.loc 1 244 5 view .LVU202
 595              		.loc 1 244 9 is_stmt 0 view .LVU203
 596 0020 0C3094E5 		ldr	r3, [r4, #12]
 597              		.loc 1 244 8 view .LVU204
 598 0024 002094E5 		ldr	r2, [r4]
 599              		.loc 1 244 9 view .LVU205
 600 0028 043043E2 		sub	r3, r3, #4
 601              		.loc 1 244 8 view .LVU206
 602 002c 020053E1 		cmp	r3, r2
 603 0030 0C3084E5 		str	r3, [r4, #12]
 604              		.loc 1 245 7 is_stmt 1 view .LVU207
 605              		.loc 1 246 5 view .LVU208
 606              		.loc 1 245 35 is_stmt 0 view .LVU209
 607 0034 04309435 		ldrcc	r3, [r4, #4]
 608              		.loc 1 247 5 view .LVU210
 609 0038 100084E2 		add	r0, r4, #16
 610              	.LVL48:
 611              		.loc 1 245 35 view .LVU211
 612 003c 04304332 		subcc	r3, r3, #4
 613              		.loc 1 245 21 view .LVU212
 614 0040 0C308435 		strcc	r3, [r4, #12]
 615              		.loc 1 246 20 view .LVU213
 616 0044 006083E5 		str	r6, [r3]
 617              		.loc 1 247 5 is_stmt 1 view .LVU214
 618 0048 FEFFFFEB 		bl	chSemSignalI
 619              	.LVL49:
 620              		.loc 1 248 5 view .LVU215
 621 004c FEFFFFEB 		bl	chSchRescheduleS
 622              	.LVL50:
 623              		.loc 1 248 5 is_stmt 0 view .LVU216
 624              	.LBE25:
 625              	.LBE24:
 626              		.loc 1 250 3 is_stmt 1 view .LVU217
 627              	.L26:
ARM GAS  /tmp/cccw1Yxa.s 			page 12


 628              		.loc 1 251 1 is_stmt 0 view .LVU218
 629 0050 0500A0E1 		mov	r0, r5
 630 0054 7080BDE8 		pop	{r4, r5, r6, pc}
 631              		.cfi_endproc
 632              	.LFE13:
 633              		.size	chMBPostAheadS, .-chMBPostAheadS
 634              		.section	.text.chMBPostAheadI,"ax",%progbits
 635              		.align	2
 636              		.global	chMBPostAheadI
 637              		.syntax unified
 638              		.arm
 639              		.fpu softvfp
 640              		.type	chMBPostAheadI, %function
 641              	chMBPostAheadI:
 642              	.LVL51:
 643              	.LFB14:
 644              		.loc 1 267 47 is_stmt 1 view -0
 645              		.cfi_startproc
 646              		@ args = 0, pretend = 0, frame = 0
 647              		@ frame_needed = 0, uses_anonymous_args = 0
 648              		.loc 1 269 3 view .LVU220
 649              		.loc 1 269 21 view .LVU221
 650              		.loc 1 270 3 view .LVU222
 651              		.loc 1 270 44 view .LVU223
 652              		.loc 1 272 3 view .LVU224
 653              		.loc 1 272 7 is_stmt 0 view .LVU225
 654 0000 242090E5 		ldr	r2, [r0, #36]
 655              		.loc 1 272 6 view .LVU226
 656 0004 000052E3 		cmp	r2, #0
 657 0008 0F0000DA 		ble	.L33
 658              		.loc 1 274 3 is_stmt 1 view .LVU227
 659              		.loc 1 275 7 is_stmt 0 view .LVU228
 660 000c 0C3090E5 		ldr	r3, [r0, #12]
 661              		.loc 1 275 6 view .LVU229
 662 0010 00C090E5 		ldr	ip, [r0]
 663              		.loc 1 275 7 view .LVU230
 664 0014 043043E2 		sub	r3, r3, #4
 665              		.loc 1 275 6 view .LVU231
 666 0018 0C0053E1 		cmp	r3, ip
 667              		.loc 1 267 47 view .LVU232
 668 001c 10402DE9 		push	{r4, lr}
 669              		.cfi_def_cfa_offset 8
 670              		.cfi_offset 4, -8
 671              		.cfi_offset 14, -4
 672              		.loc 1 275 6 view .LVU233
 673 0020 0C3080E5 		str	r3, [r0, #12]
 674              		.loc 1 276 33 view .LVU234
 675 0024 04309035 		ldrcc	r3, [r0, #4]
 676              		.loc 1 274 3 view .LVU235
 677 0028 012042E2 		sub	r2, r2, #1
 678              		.loc 1 276 33 view .LVU236
 679 002c 04304332 		subcc	r3, r3, #4
 680              		.loc 1 274 3 view .LVU237
 681 0030 242080E5 		str	r2, [r0, #36]
 682              		.loc 1 275 3 is_stmt 1 view .LVU238
 683              		.loc 1 276 5 view .LVU239
 684              		.loc 1 277 3 view .LVU240
ARM GAS  /tmp/cccw1Yxa.s 			page 13


 685              		.loc 1 276 19 is_stmt 0 view .LVU241
 686 0034 0C308035 		strcc	r3, [r0, #12]
 687              		.loc 1 277 18 view .LVU242
 688 0038 001083E5 		str	r1, [r3]
 689              		.loc 1 278 3 is_stmt 1 view .LVU243
 690 003c 100080E2 		add	r0, r0, #16
 691              	.LVL52:
 692              		.loc 1 278 3 is_stmt 0 view .LVU244
 693 0040 FEFFFFEB 		bl	chSemSignalI
 694              	.LVL53:
 695              		.loc 1 279 3 is_stmt 1 view .LVU245
 696              		.loc 1 279 10 is_stmt 0 view .LVU246
 697 0044 0000A0E3 		mov	r0, #0
 698              		.loc 1 280 1 view .LVU247
 699 0048 1080BDE8 		pop	{r4, pc}
 700              	.LVL54:
 701              	.L33:
 702              		.cfi_def_cfa_offset 0
 703              		.cfi_restore 4
 704              		.cfi_restore 14
 705              		.loc 1 273 12 view .LVU248
 706 004c 0000E0E3 		mvn	r0, #0
 707              	.LVL55:
 708              		.loc 1 280 1 view .LVU249
 709 0050 1EFF2FE1 		bx	lr
 710              		.cfi_endproc
 711              	.LFE14:
 712              		.size	chMBPostAheadI, .-chMBPostAheadI
 713              		.section	.text.chMBFetch,"ax",%progbits
 714              		.align	2
 715              		.global	chMBFetch
 716              		.syntax unified
 717              		.arm
 718              		.fpu softvfp
 719              		.type	chMBFetch, %function
 720              	chMBFetch:
 721              	.LVL56:
 722              	.LFB15:
 723              		.loc 1 301 60 is_stmt 1 view -0
 724              		.cfi_startproc
 725              		@ args = 0, pretend = 0, frame = 0
 726              		@ frame_needed = 0, uses_anonymous_args = 0
 727              		.loc 1 301 60 is_stmt 0 view .LVU251
 728 0000 70402DE9 		push	{r4, r5, r6, lr}
 729              		.cfi_def_cfa_offset 16
 730              		.cfi_offset 4, -16
 731              		.cfi_offset 5, -12
 732              		.cfi_offset 6, -8
 733              		.cfi_offset 14, -4
 734              		.loc 1 301 60 view .LVU252
 735 0004 0160A0E1 		mov	r6, r1
 736              		.loc 1 302 3 is_stmt 1 view .LVU253
 737              		.loc 1 304 3 view .LVU254
 738              		.loc 1 301 60 is_stmt 0 view .LVU255
 739 0008 0040A0E1 		mov	r4, r0
 740 000c 0210A0E1 		mov	r1, r2
 741              	.LVL57:
ARM GAS  /tmp/cccw1Yxa.s 			page 14


 742              		.loc 1 304 3 view .LVU256
 743              		.syntax divided
 744              	@ 304 "../../os/kernel/src/chmboxes.c" 1
 745 0010 9FF021E3 		msr     CPSR_c, #0x9F
 746              	@ 0 "" 2
 747              		.loc 1 304 3 is_stmt 1 view .LVU257
 748              		.loc 1 304 14 view .LVU258
 749              		.loc 1 305 3 view .LVU259
 750              	.LVL58:
 751              		.arm
 752              		.syntax unified
 753              	.LBB30:
 754              	.LBI30:
 755              		.loc 1 329 7 view .LVU260
 756              	.LBB31:
 757              		.loc 1 330 3 view .LVU261
 758              		.loc 1 332 3 view .LVU262
 759              		.loc 1 332 21 view .LVU263
 760              		.loc 1 333 3 view .LVU264
 761              		.loc 1 333 60 view .LVU265
 762              		.loc 1 335 3 view .LVU266
 763              		.loc 1 335 12 is_stmt 0 view .LVU267
 764 0014 100080E2 		add	r0, r0, #16
 765              	.LVL59:
 766              		.loc 1 335 12 view .LVU268
 767 0018 FEFFFFEB 		bl	chSemWaitTimeoutS
 768              	.LVL60:
 769              		.loc 1 336 3 is_stmt 1 view .LVU269
 770              		.loc 1 336 6 is_stmt 0 view .LVU270
 771 001c 005050E2 		subs	r5, r0, #0
 772 0020 0B00001A 		bne	.L39
 773              	.LVL61:
 774              	.LBB32:
 775              	.LBI32:
 776              		.loc 1 329 7 is_stmt 1 view .LVU271
 777              	.LBB33:
 778              		.loc 1 337 5 view .LVU272
 779              		.loc 1 337 17 is_stmt 0 view .LVU273
 780 0024 0C2094E5 		ldr	r2, [r4, #12]
 781              		.loc 1 340 5 view .LVU274
 782 0028 1C0084E2 		add	r0, r4, #28
 783              	.LVL62:
 784              		.loc 1 337 27 view .LVU275
 785 002c 043082E2 		add	r3, r2, #4
 786              		.loc 1 337 13 view .LVU276
 787 0030 002092E5 		ldr	r2, [r2]
 788              		.loc 1 337 27 view .LVU277
 789 0034 0C3084E5 		str	r3, [r4, #12]
 790              		.loc 1 337 11 view .LVU278
 791 0038 002086E5 		str	r2, [r6]
 792              		.loc 1 338 5 is_stmt 1 view .LVU279
 793              		.loc 1 338 8 is_stmt 0 view .LVU280
 794 003c 042094E5 		ldr	r2, [r4, #4]
 795 0040 020053E1 		cmp	r3, r2
 796              		.loc 1 339 7 is_stmt 1 view .LVU281
 797              		.loc 1 340 5 view .LVU282
 798              		.loc 1 339 21 is_stmt 0 view .LVU283
ARM GAS  /tmp/cccw1Yxa.s 			page 15


 799 0044 00309425 		ldrcs	r3, [r4]
 800 0048 0C308425 		strcs	r3, [r4, #12]
 801              		.loc 1 340 5 view .LVU284
 802 004c FEFFFFEB 		bl	chSemSignalI
 803              	.LVL63:
 804              		.loc 1 341 5 is_stmt 1 view .LVU285
 805 0050 FEFFFFEB 		bl	chSchRescheduleS
 806              	.LVL64:
 807              	.L39:
 808              		.loc 1 341 5 is_stmt 0 view .LVU286
 809              	.LBE33:
 810              	.LBE32:
 811              		.loc 1 343 3 is_stmt 1 view .LVU287
 812              		.loc 1 343 3 is_stmt 0 view .LVU288
 813              	.LBE31:
 814              	.LBE30:
 815              		.loc 1 306 3 is_stmt 1 view .LVU289
 816              		.loc 1 306 3 view .LVU290
 817              		.syntax divided
 818              	@ 306 "../../os/kernel/src/chmboxes.c" 1
 819 0054 1FF021E3 		msr     CPSR_c, #0x1F
 820              	@ 0 "" 2
 821              		.loc 1 306 16 view .LVU291
 822              		.loc 1 307 3 view .LVU292
 823              		.loc 1 308 1 is_stmt 0 view .LVU293
 824              		.arm
 825              		.syntax unified
 826 0058 0500A0E1 		mov	r0, r5
 827 005c 7080BDE8 		pop	{r4, r5, r6, pc}
 828              		.cfi_endproc
 829              	.LFE15:
 830              		.size	chMBFetch, .-chMBFetch
 831              		.section	.text.chMBFetchS,"ax",%progbits
 832              		.align	2
 833              		.global	chMBFetchS
 834              		.syntax unified
 835              		.arm
 836              		.fpu softvfp
 837              		.type	chMBFetchS, %function
 838              	chMBFetchS:
 839              	.LVL65:
 840              	.LFB16:
 841              		.loc 1 329 61 is_stmt 1 view -0
 842              		.cfi_startproc
 843              		@ args = 0, pretend = 0, frame = 0
 844              		@ frame_needed = 0, uses_anonymous_args = 0
 845              		.loc 1 329 61 is_stmt 0 view .LVU295
 846 0000 70402DE9 		push	{r4, r5, r6, lr}
 847              		.cfi_def_cfa_offset 16
 848              		.cfi_offset 4, -16
 849              		.cfi_offset 5, -12
 850              		.cfi_offset 6, -8
 851              		.cfi_offset 14, -4
 852              		.loc 1 329 61 view .LVU296
 853 0004 0160A0E1 		mov	r6, r1
 854 0008 0040A0E1 		mov	r4, r0
 855              		.loc 1 335 12 view .LVU297
ARM GAS  /tmp/cccw1Yxa.s 			page 16


 856 000c 0210A0E1 		mov	r1, r2
 857              	.LVL66:
 858              		.loc 1 330 3 is_stmt 1 view .LVU298
 859              		.loc 1 332 3 view .LVU299
 860              		.loc 1 332 21 view .LVU300
 861              		.loc 1 333 3 view .LVU301
 862              		.loc 1 333 60 view .LVU302
 863              		.loc 1 335 3 view .LVU303
 864              		.loc 1 335 12 is_stmt 0 view .LVU304
 865 0010 100080E2 		add	r0, r0, #16
 866              	.LVL67:
 867              		.loc 1 335 12 view .LVU305
 868 0014 FEFFFFEB 		bl	chSemWaitTimeoutS
 869              	.LVL68:
 870              		.loc 1 336 3 is_stmt 1 view .LVU306
 871              		.loc 1 336 6 is_stmt 0 view .LVU307
 872 0018 005050E2 		subs	r5, r0, #0
 873 001c 0B00001A 		bne	.L42
 874              	.LVL69:
 875              	.LBB36:
 876              	.LBI36:
 877              		.loc 1 329 7 is_stmt 1 view .LVU308
 878              	.LBB37:
 879              		.loc 1 337 5 view .LVU309
 880              		.loc 1 337 17 is_stmt 0 view .LVU310
 881 0020 0C2094E5 		ldr	r2, [r4, #12]
 882              		.loc 1 340 5 view .LVU311
 883 0024 1C0084E2 		add	r0, r4, #28
 884              	.LVL70:
 885              		.loc 1 337 27 view .LVU312
 886 0028 043082E2 		add	r3, r2, #4
 887              		.loc 1 337 13 view .LVU313
 888 002c 002092E5 		ldr	r2, [r2]
 889              		.loc 1 337 27 view .LVU314
 890 0030 0C3084E5 		str	r3, [r4, #12]
 891              		.loc 1 337 11 view .LVU315
 892 0034 002086E5 		str	r2, [r6]
 893              		.loc 1 338 5 is_stmt 1 view .LVU316
 894              		.loc 1 338 8 is_stmt 0 view .LVU317
 895 0038 042094E5 		ldr	r2, [r4, #4]
 896 003c 020053E1 		cmp	r3, r2
 897              		.loc 1 339 7 is_stmt 1 view .LVU318
 898              		.loc 1 340 5 view .LVU319
 899              		.loc 1 339 21 is_stmt 0 view .LVU320
 900 0040 00309425 		ldrcs	r3, [r4]
 901 0044 0C308425 		strcs	r3, [r4, #12]
 902              		.loc 1 340 5 view .LVU321
 903 0048 FEFFFFEB 		bl	chSemSignalI
 904              	.LVL71:
 905              		.loc 1 341 5 is_stmt 1 view .LVU322
 906 004c FEFFFFEB 		bl	chSchRescheduleS
 907              	.LVL72:
 908              		.loc 1 341 5 is_stmt 0 view .LVU323
 909              	.LBE37:
 910              	.LBE36:
 911              		.loc 1 343 3 is_stmt 1 view .LVU324
 912              	.L42:
ARM GAS  /tmp/cccw1Yxa.s 			page 17


 913              		.loc 1 344 1 is_stmt 0 view .LVU325
 914 0050 0500A0E1 		mov	r0, r5
 915 0054 7080BDE8 		pop	{r4, r5, r6, pc}
 916              		.cfi_endproc
 917              	.LFE16:
 918              		.size	chMBFetchS, .-chMBFetchS
 919              		.section	.text.chMBFetchI,"ax",%progbits
 920              		.align	2
 921              		.global	chMBFetchI
 922              		.syntax unified
 923              		.arm
 924              		.fpu softvfp
 925              		.type	chMBFetchI, %function
 926              	chMBFetchI:
 927              	.LVL73:
 928              	.LFB17:
 929              		.loc 1 360 45 is_stmt 1 view -0
 930              		.cfi_startproc
 931              		@ args = 0, pretend = 0, frame = 0
 932              		@ frame_needed = 0, uses_anonymous_args = 0
 933              		.loc 1 362 3 view .LVU327
 934              		.loc 1 362 21 view .LVU328
 935              		.loc 1 363 3 view .LVU329
 936              		.loc 1 363 60 view .LVU330
 937              		.loc 1 365 3 view .LVU331
 938              		.loc 1 365 7 is_stmt 0 view .LVU332
 939 0000 183090E5 		ldr	r3, [r0, #24]
 940              		.loc 1 365 6 view .LVU333
 941 0004 000053E3 		cmp	r3, #0
 942 0008 0F0000DA 		ble	.L49
 943              		.loc 1 367 3 is_stmt 1 view .LVU334
 944              		.loc 1 368 15 is_stmt 0 view .LVU335
 945 000c 0C2090E5 		ldr	r2, [r0, #12]
 946              		.loc 1 367 3 view .LVU336
 947 0010 013043E2 		sub	r3, r3, #1
 948              		.loc 1 360 45 view .LVU337
 949 0014 10402DE9 		push	{r4, lr}
 950              		.cfi_def_cfa_offset 8
 951              		.cfi_offset 4, -8
 952              		.cfi_offset 14, -4
 953              		.loc 1 367 3 view .LVU338
 954 0018 183080E5 		str	r3, [r0, #24]
 955              		.loc 1 368 3 is_stmt 1 view .LVU339
 956              		.loc 1 368 25 is_stmt 0 view .LVU340
 957 001c 043082E2 		add	r3, r2, #4
 958              		.loc 1 368 11 view .LVU341
 959 0020 002092E5 		ldr	r2, [r2]
 960              		.loc 1 368 25 view .LVU342
 961 0024 0C3080E5 		str	r3, [r0, #12]
 962              		.loc 1 368 9 view .LVU343
 963 0028 002081E5 		str	r2, [r1]
 964              		.loc 1 369 3 is_stmt 1 view .LVU344
 965              		.loc 1 369 6 is_stmt 0 view .LVU345
 966 002c 042090E5 		ldr	r2, [r0, #4]
 967              		.loc 1 371 3 view .LVU346
 968 0030 1C0080E2 		add	r0, r0, #28
 969              	.LVL74:
ARM GAS  /tmp/cccw1Yxa.s 			page 18


 970              		.loc 1 369 6 view .LVU347
 971 0034 020053E1 		cmp	r3, r2
 972              		.loc 1 370 5 is_stmt 1 view .LVU348
 973              		.loc 1 371 3 view .LVU349
 974              		.loc 1 370 19 is_stmt 0 view .LVU350
 975 0038 1C301025 		ldrcs	r3, [r0, #-28]
 976 003c 10300025 		strcs	r3, [r0, #-16]
 977              		.loc 1 371 3 view .LVU351
 978 0040 FEFFFFEB 		bl	chSemSignalI
 979              	.LVL75:
 980              		.loc 1 372 3 is_stmt 1 view .LVU352
 981              		.loc 1 372 10 is_stmt 0 view .LVU353
 982 0044 0000A0E3 		mov	r0, #0
 983              		.loc 1 373 1 view .LVU354
 984 0048 1080BDE8 		pop	{r4, pc}
 985              	.LVL76:
 986              	.L49:
 987              		.cfi_def_cfa_offset 0
 988              		.cfi_restore 4
 989              		.cfi_restore 14
 990              		.loc 1 366 12 view .LVU355
 991 004c 0000E0E3 		mvn	r0, #0
 992              	.LVL77:
 993              		.loc 1 373 1 view .LVU356
 994 0050 1EFF2FE1 		bx	lr
 995              		.cfi_endproc
 996              	.LFE17:
 997              		.size	chMBFetchI, .-chMBFetchI
 998              		.text
 999              	.Letext0:
 1000              		.file 2 "/usr/arm-none-eabi/include/machine/_default_types.h"
 1001              		.file 3 "/usr/arm-none-eabi/include/sys/_stdint.h"
 1002              		.file 4 "../../os/ports/GCC/ARM/chtypes.h"
 1003              		.file 5 "../../os/kernel/include/chlists.h"
 1004              		.file 6 "../../os/kernel/include/chthreads.h"
 1005              		.file 7 "../../os/ports/GCC/ARM/chcore.h"
 1006              		.file 8 "../../os/kernel/include/chsem.h"
 1007              		.file 9 "../../os/kernel/include/chmtx.h"
 1008              		.file 10 "../../os/kernel/include/chmboxes.h"
 1009              		.file 11 "../../os/kernel/include/chschd.h"
 1010              		.section	.debug_info,"",%progbits
 1011              	.Ldebug_info0:
 1012 0000 060D0000 		.4byte	0xd06
 1013 0004 0500     		.2byte	0x5
 1014 0006 01       		.byte	0x1
 1015 0007 04       		.byte	0x4
 1016 0008 00000000 		.4byte	.Ldebug_abbrev0
 1017 000c 23       		.uleb128 0x23
 1018 000d C2010000 		.4byte	.LASF84
 1019 0011 1D       		.byte	0x1d
 1020 0012 DC000000 		.4byte	.LASF85
 1021 0016 74020000 		.4byte	.LASF86
 1022 001a 0C000000 		.4byte	.LLRL64
 1023 001e 00000000 		.4byte	0
 1024 0022 00000000 		.4byte	.Ldebug_line0
 1025 0026 24       		.uleb128 0x24
 1026 0027 04       		.byte	0x4
ARM GAS  /tmp/cccw1Yxa.s 			page 19


 1027 0028 05       		.byte	0x5
 1028 0029 696E7400 		.ascii	"int\000"
 1029 002d 06       		.uleb128 0x6
 1030 002e 04       		.byte	0x4
 1031 002f 07       		.byte	0x7
 1032 0030 26010000 		.4byte	.LASF0
 1033 0034 06       		.uleb128 0x6
 1034 0035 01       		.byte	0x1
 1035 0036 06       		.byte	0x6
 1036 0037 9C000000 		.4byte	.LASF1
 1037 003b 04       		.uleb128 0x4
 1038 003c 1A000000 		.4byte	.LASF5
 1039 0040 02       		.byte	0x2
 1040 0041 2B       		.byte	0x2b
 1041 0042 18       		.byte	0x18
 1042 0043 47000000 		.4byte	0x47
 1043 0047 06       		.uleb128 0x6
 1044 0048 01       		.byte	0x1
 1045 0049 08       		.byte	0x8
 1046 004a E1020000 		.4byte	.LASF2
 1047 004e 06       		.uleb128 0x6
 1048 004f 02       		.byte	0x2
 1049 0050 05       		.byte	0x5
 1050 0051 00030000 		.4byte	.LASF3
 1051 0055 06       		.uleb128 0x6
 1052 0056 02       		.byte	0x2
 1053 0057 07       		.byte	0x7
 1054 0058 68010000 		.4byte	.LASF4
 1055 005c 04       		.uleb128 0x4
 1056 005d 89030000 		.4byte	.LASF6
 1057 0061 02       		.byte	0x2
 1058 0062 4D       		.byte	0x4d
 1059 0063 18       		.byte	0x18
 1060 0064 68000000 		.4byte	0x68
 1061 0068 06       		.uleb128 0x6
 1062 0069 04       		.byte	0x4
 1063 006a 05       		.byte	0x5
 1064 006b BA000000 		.4byte	.LASF7
 1065 006f 04       		.uleb128 0x4
 1066 0070 0C010000 		.4byte	.LASF8
 1067 0074 02       		.byte	0x2
 1068 0075 4F       		.byte	0x4f
 1069 0076 19       		.byte	0x19
 1070 0077 7B000000 		.4byte	0x7b
 1071 007b 06       		.uleb128 0x6
 1072 007c 04       		.byte	0x4
 1073 007d 07       		.byte	0x7
 1074 007e 3C010000 		.4byte	.LASF9
 1075 0082 06       		.uleb128 0x6
 1076 0083 08       		.byte	0x8
 1077 0084 05       		.byte	0x5
 1078 0085 8E000000 		.4byte	.LASF10
 1079 0089 06       		.uleb128 0x6
 1080 008a 08       		.byte	0x8
 1081 008b 07       		.byte	0x7
 1082 008c 4F000000 		.4byte	.LASF11
 1083 0090 04       		.uleb128 0x4
ARM GAS  /tmp/cccw1Yxa.s 			page 20


 1084 0091 EC030000 		.4byte	.LASF12
 1085 0095 03       		.byte	0x3
 1086 0096 18       		.byte	0x18
 1087 0097 13       		.byte	0x13
 1088 0098 3B000000 		.4byte	0x3b
 1089 009c 04       		.uleb128 0x4
 1090 009d D9020000 		.4byte	.LASF13
 1091 00a1 03       		.byte	0x3
 1092 00a2 2C       		.byte	0x2c
 1093 00a3 13       		.byte	0x13
 1094 00a4 5C000000 		.4byte	0x5c
 1095 00a8 04       		.uleb128 0x4
 1096 00a9 4D030000 		.4byte	.LASF14
 1097 00ad 03       		.byte	0x3
 1098 00ae 30       		.byte	0x30
 1099 00af 14       		.byte	0x14
 1100 00b0 6F000000 		.4byte	0x6f
 1101 00b4 04       		.uleb128 0x4
 1102 00b5 97010000 		.4byte	.LASF15
 1103 00b9 04       		.byte	0x4
 1104 00ba 2A       		.byte	0x2a
 1105 00bb 19       		.byte	0x19
 1106 00bc 90000000 		.4byte	0x90
 1107 00c0 04       		.uleb128 0x4
 1108 00c1 C3000000 		.4byte	.LASF16
 1109 00c5 04       		.byte	0x4
 1110 00c6 2B       		.byte	0x2b
 1111 00c7 19       		.byte	0x19
 1112 00c8 90000000 		.4byte	0x90
 1113 00cc 04       		.uleb128 0x4
 1114 00cd C2020000 		.4byte	.LASF17
 1115 00d1 04       		.byte	0x4
 1116 00d2 2C       		.byte	0x2c
 1117 00d3 19       		.byte	0x19
 1118 00d4 90000000 		.4byte	0x90
 1119 00d8 04       		.uleb128 0x4
 1120 00d9 B0000000 		.4byte	.LASF18
 1121 00dd 04       		.byte	0x4
 1122 00de 2D       		.byte	0x2d
 1123 00df 19       		.byte	0x19
 1124 00e0 90000000 		.4byte	0x90
 1125 00e4 04       		.uleb128 0x4
 1126 00e5 D1020000 		.4byte	.LASF19
 1127 00e9 04       		.byte	0x4
 1128 00ea 2E       		.byte	0x2e
 1129 00eb 19       		.byte	0x19
 1130 00ec A8000000 		.4byte	0xa8
 1131 00f0 04       		.uleb128 0x4
 1132 00f1 86010000 		.4byte	.LASF20
 1133 00f5 04       		.byte	0x4
 1134 00f6 2F       		.byte	0x2f
 1135 00f7 19       		.byte	0x19
 1136 00f8 9C000000 		.4byte	0x9c
 1137 00fc 04       		.uleb128 0x4
 1138 00fd AB010000 		.4byte	.LASF21
 1139 0101 04       		.byte	0x4
 1140 0102 31       		.byte	0x31
ARM GAS  /tmp/cccw1Yxa.s 			page 21


 1141 0103 19       		.byte	0x19
 1142 0104 A8000000 		.4byte	0xa8
 1143 0108 04       		.uleb128 0x4
 1144 0109 74030000 		.4byte	.LASF22
 1145 010d 04       		.byte	0x4
 1146 010e 33       		.byte	0x33
 1147 010f 19       		.byte	0x19
 1148 0110 A8000000 		.4byte	0xa8
 1149 0114 25       		.uleb128 0x25
 1150 0115 08010000 		.4byte	0x108
 1151 0119 04       		.uleb128 0x4
 1152 011a 20010000 		.4byte	.LASF23
 1153 011e 04       		.byte	0x4
 1154 011f 34       		.byte	0x34
 1155 0120 19       		.byte	0x19
 1156 0121 9C000000 		.4byte	0x9c
 1157 0125 04       		.uleb128 0x4
 1158 0126 3B030000 		.4byte	.LASF24
 1159 012a 05       		.byte	0x5
 1160 012b 23       		.byte	0x23
 1161 012c 17       		.byte	0x17
 1162 012d 31010000 		.4byte	0x131
 1163 0131 0F       		.uleb128 0xf
 1164 0132 3B030000 		.4byte	.LASF24
 1165 0136 44       		.byte	0x44
 1166 0137 06       		.byte	0x6
 1167 0138 57       		.byte	0x57
 1168 0139 08       		.byte	0x8
 1169 013a 36020000 		.4byte	0x236
 1170 013e 02       		.uleb128 0x2
 1171 013f 23030000 		.4byte	.LASF25
 1172 0143 06       		.byte	0x6
 1173 0144 58       		.byte	0x58
 1174 0145 1A       		.byte	0x1a
 1175 0146 59020000 		.4byte	0x259
 1176 014a 00       		.byte	0
 1177 014b 02       		.uleb128 0x2
 1178 014c CA020000 		.4byte	.LASF26
 1179 0150 06       		.byte	0x6
 1180 0151 5A       		.byte	0x5a
 1181 0152 1A       		.byte	0x1a
 1182 0153 59020000 		.4byte	0x259
 1183 0157 04       		.byte	0x4
 1184 0158 02       		.uleb128 0x2
 1185 0159 87000000 		.4byte	.LASF27
 1186 015d 06       		.byte	0x6
 1187 015e 5C       		.byte	0x5c
 1188 015f 19       		.byte	0x19
 1189 0160 E4000000 		.4byte	0xe4
 1190 0164 08       		.byte	0x8
 1191 0165 02       		.uleb128 0x2
 1192 0166 0A040000 		.4byte	.LASF28
 1193 016a 06       		.byte	0x6
 1194 016b 5D       		.byte	0x5d
 1195 016c 19       		.byte	0x19
 1196 016d 16030000 		.4byte	0x316
 1197 0171 0C       		.byte	0xc
ARM GAS  /tmp/cccw1Yxa.s 			page 22


 1198 0172 02       		.uleb128 0x2
 1199 0173 CC000000 		.4byte	.LASF29
 1200 0177 06       		.byte	0x6
 1201 0178 5F       		.byte	0x5f
 1202 0179 1A       		.byte	0x1a
 1203 017a 59020000 		.4byte	0x259
 1204 017e 10       		.byte	0x10
 1205 017f 02       		.uleb128 0x2
 1206 0180 9E020000 		.4byte	.LASF30
 1207 0184 06       		.byte	0x6
 1208 0185 60       		.byte	0x60
 1209 0186 1A       		.byte	0x1a
 1210 0187 59020000 		.4byte	0x259
 1211 018b 14       		.byte	0x14
 1212 018c 02       		.uleb128 0x2
 1213 018d FB030000 		.4byte	.LASF31
 1214 0191 06       		.byte	0x6
 1215 0192 67       		.byte	0x67
 1216 0193 1A       		.byte	0x1a
 1217 0194 4E040000 		.4byte	0x44e
 1218 0198 18       		.byte	0x18
 1219 0199 02       		.uleb128 0x2
 1220 019a 0A030000 		.4byte	.LASF32
 1221 019e 06       		.byte	0x6
 1222 019f 72       		.byte	0x72
 1223 01a0 19       		.byte	0x19
 1224 01a1 C0000000 		.4byte	0xc0
 1225 01a5 1C       		.byte	0x1c
 1226 01a6 02       		.uleb128 0x2
 1227 01a7 2A030000 		.4byte	.LASF33
 1228 01ab 06       		.byte	0x6
 1229 01ac 76       		.byte	0x76
 1230 01ad 19       		.byte	0x19
 1231 01ae B4000000 		.4byte	0xb4
 1232 01b2 1D       		.byte	0x1d
 1233 01b3 02       		.uleb128 0x2
 1234 01b4 D9030000 		.4byte	.LASF34
 1235 01b8 06       		.byte	0x6
 1236 01b9 7B       		.byte	0x7b
 1237 01ba 19       		.byte	0x19
 1238 01bb CC000000 		.4byte	0xcc
 1239 01bf 1E       		.byte	0x1e
 1240 01c0 02       		.uleb128 0x2
 1241 01c1 12030000 		.4byte	.LASF35
 1242 01c5 06       		.byte	0x6
 1243 01c6 81       		.byte	0x81
 1244 01c7 19       		.byte	0x19
 1245 01c8 D8000000 		.4byte	0xd8
 1246 01cc 1F       		.byte	0x1f
 1247 01cd 02       		.uleb128 0x2
 1248 01ce 93030000 		.4byte	.LASF36
 1249 01d2 06       		.byte	0x6
 1250 01d3 88       		.byte	0x88
 1251 01d4 19       		.byte	0x19
 1252 01d5 14010000 		.4byte	0x114
 1253 01d9 20       		.byte	0x20
 1254 01da 05       		.uleb128 0x5
ARM GAS  /tmp/cccw1Yxa.s 			page 23


 1255 01db 705F7500 		.ascii	"p_u\000"
 1256 01df 06       		.byte	0x6
 1257 01e0 AD       		.byte	0xad
 1258 01e1 19       		.byte	0x19
 1259 01e2 18040000 		.4byte	0x418
 1260 01e6 24       		.byte	0x24
 1261 01e7 02       		.uleb128 0x2
 1262 01e8 10040000 		.4byte	.LASF37
 1263 01ec 06       		.byte	0x6
 1264 01ed B2       		.byte	0xb2
 1265 01ee 19       		.byte	0x19
 1266 01ef 80020000 		.4byte	0x280
 1267 01f3 28       		.byte	0x28
 1268 01f4 02       		.uleb128 0x2
 1269 01f5 AF030000 		.4byte	.LASF38
 1270 01f9 06       		.byte	0x6
 1271 01fa B8       		.byte	0xb8
 1272 01fb 19       		.byte	0x19
 1273 01fc 5E020000 		.4byte	0x25e
 1274 0200 2C       		.byte	0x2c
 1275 0201 02       		.uleb128 0x2
 1276 0202 00000000 		.4byte	.LASF39
 1277 0206 06       		.byte	0x6
 1278 0207 BC       		.byte	0xbc
 1279 0208 19       		.byte	0x19
 1280 0209 F0000000 		.4byte	0xf0
 1281 020d 34       		.byte	0x34
 1282 020e 02       		.uleb128 0x2
 1283 020f 42030000 		.4byte	.LASF40
 1284 0213 06       		.byte	0x6
 1285 0214 C2       		.byte	0xc2
 1286 0215 19       		.byte	0x19
 1287 0216 FC000000 		.4byte	0xfc
 1288 021a 38       		.byte	0x38
 1289 021b 02       		.uleb128 0x2
 1290 021c F6020000 		.4byte	.LASF41
 1291 0220 06       		.byte	0x6
 1292 0221 C9       		.byte	0xc9
 1293 0222 1A       		.byte	0x1a
 1294 0223 5F040000 		.4byte	0x45f
 1295 0227 3C       		.byte	0x3c
 1296 0228 02       		.uleb128 0x2
 1297 0229 7E030000 		.4byte	.LASF42
 1298 022d 06       		.byte	0x6
 1299 022e CD       		.byte	0xcd
 1300 022f 19       		.byte	0x19
 1301 0230 E4000000 		.4byte	0xe4
 1302 0234 40       		.byte	0x40
 1303 0235 00       		.byte	0
 1304 0236 14       		.uleb128 0x14
 1305 0237 08       		.byte	0x8
 1306 0238 05       		.byte	0x5
 1307 0239 5A       		.byte	0x5a
 1308 023a 59020000 		.4byte	0x259
 1309 023e 02       		.uleb128 0x2
 1310 023f 23030000 		.4byte	.LASF25
 1311 0243 05       		.byte	0x5
ARM GAS  /tmp/cccw1Yxa.s 			page 24


 1312 0244 5B       		.byte	0x5b
 1313 0245 1A       		.byte	0x1a
 1314 0246 59020000 		.4byte	0x259
 1315 024a 00       		.byte	0
 1316 024b 02       		.uleb128 0x2
 1317 024c CA020000 		.4byte	.LASF26
 1318 0250 05       		.byte	0x5
 1319 0251 5D       		.byte	0x5d
 1320 0252 1A       		.byte	0x1a
 1321 0253 59020000 		.4byte	0x259
 1322 0257 04       		.byte	0x4
 1323 0258 00       		.byte	0
 1324 0259 0A       		.uleb128 0xa
 1325 025a 25010000 		.4byte	0x125
 1326 025e 04       		.uleb128 0x4
 1327 025f A6020000 		.4byte	.LASF43
 1328 0263 05       		.byte	0x5
 1329 0264 5F       		.byte	0x5f
 1330 0265 03       		.byte	0x3
 1331 0266 36020000 		.4byte	0x236
 1332 026a 14       		.uleb128 0x14
 1333 026b 04       		.byte	0x4
 1334 026c 05       		.byte	0x5
 1335 026d 64       		.byte	0x64
 1336 026e 80020000 		.4byte	0x280
 1337 0272 02       		.uleb128 0x2
 1338 0273 23030000 		.4byte	.LASF25
 1339 0277 05       		.byte	0x5
 1340 0278 66       		.byte	0x66
 1341 0279 16       		.byte	0x16
 1342 027a 59020000 		.4byte	0x259
 1343 027e 00       		.byte	0
 1344 027f 00       		.byte	0
 1345 0280 04       		.uleb128 0x4
 1346 0281 9F010000 		.4byte	.LASF44
 1347 0285 05       		.byte	0x5
 1348 0286 69       		.byte	0x69
 1349 0287 03       		.byte	0x3
 1350 0288 6A020000 		.4byte	0x26a
 1351 028c 04       		.uleb128 0x4
 1352 028d 17010000 		.4byte	.LASF45
 1353 0291 07       		.byte	0x7
 1354 0292 A2       		.byte	0xa2
 1355 0293 0F       		.byte	0xf
 1356 0294 98020000 		.4byte	0x298
 1357 0298 26       		.uleb128 0x26
 1358 0299 04       		.byte	0x4
 1359 029a 0F       		.uleb128 0xf
 1360 029b A8030000 		.4byte	.LASF46
 1361 029f 24       		.byte	0x24
 1362 02a0 07       		.byte	0x7
 1363 02a1 B9       		.byte	0xb9
 1364 02a2 08       		.byte	0x8
 1365 02a3 16030000 		.4byte	0x316
 1366 02a7 05       		.uleb128 0x5
 1367 02a8 723400   		.ascii	"r4\000"
 1368 02ab 07       		.byte	0x7
ARM GAS  /tmp/cccw1Yxa.s 			page 25


 1369 02ac BA       		.byte	0xba
 1370 02ad 11       		.byte	0x11
 1371 02ae 8C020000 		.4byte	0x28c
 1372 02b2 00       		.byte	0
 1373 02b3 05       		.uleb128 0x5
 1374 02b4 723500   		.ascii	"r5\000"
 1375 02b7 07       		.byte	0x7
 1376 02b8 BB       		.byte	0xbb
 1377 02b9 11       		.byte	0x11
 1378 02ba 8C020000 		.4byte	0x28c
 1379 02be 04       		.byte	0x4
 1380 02bf 05       		.uleb128 0x5
 1381 02c0 723600   		.ascii	"r6\000"
 1382 02c3 07       		.byte	0x7
 1383 02c4 BC       		.byte	0xbc
 1384 02c5 11       		.byte	0x11
 1385 02c6 8C020000 		.4byte	0x28c
 1386 02ca 08       		.byte	0x8
 1387 02cb 05       		.uleb128 0x5
 1388 02cc 723700   		.ascii	"r7\000"
 1389 02cf 07       		.byte	0x7
 1390 02d0 BD       		.byte	0xbd
 1391 02d1 11       		.byte	0x11
 1392 02d2 8C020000 		.4byte	0x28c
 1393 02d6 0C       		.byte	0xc
 1394 02d7 05       		.uleb128 0x5
 1395 02d8 723800   		.ascii	"r8\000"
 1396 02db 07       		.byte	0x7
 1397 02dc BE       		.byte	0xbe
 1398 02dd 11       		.byte	0x11
 1399 02de 8C020000 		.4byte	0x28c
 1400 02e2 10       		.byte	0x10
 1401 02e3 05       		.uleb128 0x5
 1402 02e4 723900   		.ascii	"r9\000"
 1403 02e7 07       		.byte	0x7
 1404 02e8 BF       		.byte	0xbf
 1405 02e9 11       		.byte	0x11
 1406 02ea 8C020000 		.4byte	0x28c
 1407 02ee 14       		.byte	0x14
 1408 02ef 05       		.uleb128 0x5
 1409 02f0 72313000 		.ascii	"r10\000"
 1410 02f4 07       		.byte	0x7
 1411 02f5 C0       		.byte	0xc0
 1412 02f6 11       		.byte	0x11
 1413 02f7 8C020000 		.4byte	0x28c
 1414 02fb 18       		.byte	0x18
 1415 02fc 05       		.uleb128 0x5
 1416 02fd 72313100 		.ascii	"r11\000"
 1417 0301 07       		.byte	0x7
 1418 0302 C1       		.byte	0xc1
 1419 0303 11       		.byte	0x11
 1420 0304 8C020000 		.4byte	0x28c
 1421 0308 1C       		.byte	0x1c
 1422 0309 05       		.uleb128 0x5
 1423 030a 6C7200   		.ascii	"lr\000"
 1424 030d 07       		.byte	0x7
 1425 030e C2       		.byte	0xc2
ARM GAS  /tmp/cccw1Yxa.s 			page 26


 1426 030f 11       		.byte	0x11
 1427 0310 8C020000 		.4byte	0x28c
 1428 0314 20       		.byte	0x20
 1429 0315 00       		.byte	0
 1430 0316 0F       		.uleb128 0xf
 1431 0317 60010000 		.4byte	.LASF47
 1432 031b 04       		.byte	0x4
 1433 031c 07       		.byte	0x7
 1434 031d CA       		.byte	0xca
 1435 031e 08       		.byte	0x8
 1436 031f 31030000 		.4byte	0x331
 1437 0323 05       		.uleb128 0x5
 1438 0324 72313300 		.ascii	"r13\000"
 1439 0328 07       		.byte	0x7
 1440 0329 CB       		.byte	0xcb
 1441 032a 12       		.byte	0x12
 1442 032b 31030000 		.4byte	0x331
 1443 032f 00       		.byte	0
 1444 0330 00       		.byte	0
 1445 0331 0A       		.uleb128 0xa
 1446 0332 9A020000 		.4byte	0x29a
 1447 0336 0F       		.uleb128 0xf
 1448 0337 C4030000 		.4byte	.LASF48
 1449 033b 0C       		.byte	0xc
 1450 033c 08       		.byte	0x8
 1451 033d 25       		.byte	0x25
 1452 033e 10       		.byte	0x10
 1453 033f 5E030000 		.4byte	0x35e
 1454 0343 02       		.uleb128 0x2
 1455 0344 D4000000 		.4byte	.LASF49
 1456 0348 08       		.byte	0x8
 1457 0349 26       		.byte	0x26
 1458 034a 19       		.byte	0x19
 1459 034b 5E020000 		.4byte	0x25e
 1460 034f 00       		.byte	0
 1461 0350 02       		.uleb128 0x2
 1462 0351 5A010000 		.4byte	.LASF50
 1463 0355 08       		.byte	0x8
 1464 0356 28       		.byte	0x28
 1465 0357 19       		.byte	0x19
 1466 0358 19010000 		.4byte	0x119
 1467 035c 08       		.byte	0x8
 1468 035d 00       		.byte	0
 1469 035e 04       		.uleb128 0x4
 1470 035f C4030000 		.4byte	.LASF48
 1471 0363 08       		.byte	0x8
 1472 0364 29       		.byte	0x29
 1473 0365 03       		.byte	0x3
 1474 0366 36030000 		.4byte	0x336
 1475 036a 0F       		.uleb128 0xf
 1476 036b B7010000 		.4byte	.LASF51
 1477 036f 10       		.byte	0x10
 1478 0370 09       		.byte	0x9
 1479 0371 25       		.byte	0x25
 1480 0372 10       		.byte	0x10
 1481 0373 9F030000 		.4byte	0x39f
 1482 0377 02       		.uleb128 0x2
ARM GAS  /tmp/cccw1Yxa.s 			page 27


 1483 0378 A8000000 		.4byte	.LASF52
 1484 037c 09       		.byte	0x9
 1485 037d 26       		.byte	0x26
 1486 037e 19       		.byte	0x19
 1487 037f 5E020000 		.4byte	0x25e
 1488 0383 00       		.byte	0
 1489 0384 02       		.uleb128 0x2
 1490 0385 02040000 		.4byte	.LASF53
 1491 0389 09       		.byte	0x9
 1492 038a 28       		.byte	0x28
 1493 038b 1A       		.byte	0x1a
 1494 038c 59020000 		.4byte	0x259
 1495 0390 08       		.byte	0x8
 1496 0391 02       		.uleb128 0x2
 1497 0392 6D030000 		.4byte	.LASF54
 1498 0396 09       		.byte	0x9
 1499 0397 2A       		.byte	0x2a
 1500 0398 1A       		.byte	0x1a
 1501 0399 9F030000 		.4byte	0x39f
 1502 039d 0C       		.byte	0xc
 1503 039e 00       		.byte	0
 1504 039f 0A       		.uleb128 0xa
 1505 03a0 6A030000 		.4byte	0x36a
 1506 03a4 04       		.uleb128 0x4
 1507 03a5 B7010000 		.4byte	.LASF51
 1508 03a9 09       		.byte	0x9
 1509 03aa 2C       		.byte	0x2c
 1510 03ab 03       		.byte	0x3
 1511 03ac 6A030000 		.4byte	0x36a
 1512 03b0 14       		.uleb128 0x14
 1513 03b1 28       		.byte	0x28
 1514 03b2 0A       		.byte	0xa
 1515 03b3 2C       		.byte	0x2c
 1516 03b4 07040000 		.4byte	0x407
 1517 03b8 02       		.uleb128 0x2
 1518 03b9 B3020000 		.4byte	.LASF55
 1519 03bd 0A       		.byte	0xa
 1520 03be 2D       		.byte	0x2d
 1521 03bf 1A       		.byte	0x1a
 1522 03c0 07040000 		.4byte	0x407
 1523 03c4 00       		.byte	0
 1524 03c5 02       		.uleb128 0x2
 1525 03c6 EF020000 		.4byte	.LASF56
 1526 03ca 0A       		.byte	0xa
 1527 03cb 2F       		.byte	0x2f
 1528 03cc 1A       		.byte	0x1a
 1529 03cd 07040000 		.4byte	0x407
 1530 03d1 04       		.byte	0x4
 1531 03d2 02       		.uleb128 0x2
 1532 03d3 7E000000 		.4byte	.LASF57
 1533 03d7 0A       		.byte	0xa
 1534 03d8 31       		.byte	0x31
 1535 03d9 1A       		.byte	0x1a
 1536 03da 07040000 		.4byte	0x407
 1537 03de 08       		.byte	0x8
 1538 03df 02       		.uleb128 0x2
 1539 03e0 61020000 		.4byte	.LASF58
ARM GAS  /tmp/cccw1Yxa.s 			page 28


 1540 03e4 0A       		.byte	0xa
 1541 03e5 32       		.byte	0x32
 1542 03e6 1A       		.byte	0x1a
 1543 03e7 07040000 		.4byte	0x407
 1544 03eb 0C       		.byte	0xc
 1545 03ec 02       		.uleb128 0x2
 1546 03ed CE030000 		.4byte	.LASF59
 1547 03f1 0A       		.byte	0xa
 1548 03f2 33       		.byte	0x33
 1549 03f3 19       		.byte	0x19
 1550 03f4 5E030000 		.4byte	0x35e
 1551 03f8 10       		.byte	0x10
 1552 03f9 02       		.uleb128 0x2
 1553 03fa 4E010000 		.4byte	.LASF60
 1554 03fe 0A       		.byte	0xa
 1555 03ff 35       		.byte	0x35
 1556 0400 19       		.byte	0x19
 1557 0401 5E030000 		.4byte	0x35e
 1558 0405 1C       		.byte	0x1c
 1559 0406 00       		.byte	0
 1560 0407 0A       		.uleb128 0xa
 1561 0408 F0000000 		.4byte	0xf0
 1562 040c 04       		.uleb128 0x4
 1563 040d 38000000 		.4byte	.LASF61
 1564 0411 0A       		.byte	0xa
 1565 0412 37       		.byte	0x37
 1566 0413 03       		.byte	0x3
 1567 0414 B0030000 		.4byte	0x3b0
 1568 0418 27       		.uleb128 0x27
 1569 0419 04       		.byte	0x4
 1570 041a 06       		.byte	0x6
 1571 041b 8F       		.byte	0x8f
 1572 041c 03       		.byte	0x3
 1573 041d 4E040000 		.4byte	0x44e
 1574 0421 10       		.uleb128 0x10
 1575 0422 13000000 		.4byte	.LASF62
 1576 0426 96       		.byte	0x96
 1577 0427 19       		.byte	0x19
 1578 0428 F0000000 		.4byte	0xf0
 1579 042c 10       		.uleb128 0x10
 1580 042d 66000000 		.4byte	.LASF63
 1581 0431 9D       		.byte	0x9d
 1582 0432 19       		.byte	0x19
 1583 0433 F0000000 		.4byte	0xf0
 1584 0437 10       		.uleb128 0x10
 1585 0438 F4030000 		.4byte	.LASF64
 1586 043c A4       		.byte	0xa4
 1587 043d 1A       		.byte	0x1a
 1588 043e 98020000 		.4byte	0x298
 1589 0442 10       		.uleb128 0x10
 1590 0443 1C030000 		.4byte	.LASF65
 1591 0447 AB       		.byte	0xab
 1592 0448 19       		.byte	0x19
 1593 0449 FC000000 		.4byte	0xfc
 1594 044d 00       		.byte	0
 1595 044e 0A       		.uleb128 0xa
 1596 044f 5A040000 		.4byte	0x45a
ARM GAS  /tmp/cccw1Yxa.s 			page 29


 1597 0453 06       		.uleb128 0x6
 1598 0454 01       		.byte	0x1
 1599 0455 08       		.byte	0x8
 1600 0456 56030000 		.4byte	.LASF66
 1601 045a 28       		.uleb128 0x28
 1602 045b 53040000 		.4byte	0x453
 1603 045f 0A       		.uleb128 0xa
 1604 0460 A4030000 		.4byte	0x3a4
 1605 0464 15       		.uleb128 0x15
 1606 0465 06000000 		.4byte	.LASF67
 1607 0469 36       		.byte	0x36
 1608 046a 74040000 		.4byte	0x474
 1609 046e 0B       		.uleb128 0xb
 1610 046f 74040000 		.4byte	0x474
 1611 0473 00       		.byte	0
 1612 0474 0A       		.uleb128 0xa
 1613 0475 5E030000 		.4byte	0x35e
 1614 0479 29       		.uleb128 0x29
 1615 047a 5B030000 		.4byte	.LASF71
 1616 047e 08       		.byte	0x8
 1617 047f 34       		.byte	0x34
 1618 0480 09       		.byte	0x9
 1619 0481 F0000000 		.4byte	0xf0
 1620 0485 94040000 		.4byte	0x494
 1621 0489 0B       		.uleb128 0xb
 1622 048a 74040000 		.4byte	0x474
 1623 048e 0B       		.uleb128 0xb
 1624 048f 08010000 		.4byte	0x108
 1625 0493 00       		.byte	0
 1626 0494 2A       		.uleb128 0x2a
 1627 0495 FB000000 		.4byte	.LASF87
 1628 0499 0B       		.byte	0xb
 1629 049a 95       		.byte	0x95
 1630 049b 08       		.byte	0x8
 1631 049c 15       		.uleb128 0x15
 1632 049d E0030000 		.4byte	.LASF68
 1633 04a1 30       		.byte	0x30
 1634 04a2 B1040000 		.4byte	0x4b1
 1635 04a6 0B       		.uleb128 0xb
 1636 04a7 74040000 		.4byte	0x474
 1637 04ab 0B       		.uleb128 0xb
 1638 04ac 19010000 		.4byte	0x119
 1639 04b0 00       		.byte	0
 1640 04b1 15       		.uleb128 0x15
 1641 04b2 1A040000 		.4byte	.LASF69
 1642 04b6 2E       		.byte	0x2e
 1643 04b7 C6040000 		.4byte	0x4c6
 1644 04bb 0B       		.uleb128 0xb
 1645 04bc 74040000 		.4byte	0x474
 1646 04c0 0B       		.uleb128 0xb
 1647 04c1 19010000 		.4byte	0x119
 1648 04c5 00       		.byte	0
 1649 04c6 16       		.uleb128 0x16
 1650 04c7 7B010000 		.4byte	.LASF74
 1651 04cb 6801     		.2byte	0x168
 1652 04cd F0000000 		.4byte	0xf0
 1653 04d1 00000000 		.4byte	.LFB17
ARM GAS  /tmp/cccw1Yxa.s 			page 30


 1654 04d5 54000000 		.4byte	.LFE17-.LFB17
 1655 04d9 01       		.uleb128 0x1
 1656 04da 9C       		.byte	0x9c
 1657 04db 1B050000 		.4byte	0x51b
 1658 04df 11       		.uleb128 0x11
 1659 04e0 6D627000 		.ascii	"mbp\000"
 1660 04e4 6801     		.2byte	0x168
 1661 04e6 1B       		.byte	0x1b
 1662 04e7 1B050000 		.4byte	0x51b
 1663 04eb 16000000 		.4byte	.LLST62
 1664 04ef 0C000000 		.4byte	.LVUS62
 1665 04f3 17       		.uleb128 0x17
 1666 04f4 BD010000 		.4byte	.LASF70
 1667 04f8 6801     		.2byte	0x168
 1668 04fa 27       		.byte	0x27
 1669 04fb 07040000 		.4byte	0x407
 1670 04ff 43000000 		.4byte	.LLST63
 1671 0503 3D000000 		.4byte	.LVUS63
 1672 0507 08       		.uleb128 0x8
 1673 0508 44000000 		.4byte	.LVL75
 1674 050c 64040000 		.4byte	0x464
 1675 0510 03       		.uleb128 0x3
 1676 0511 01       		.uleb128 0x1
 1677 0512 50       		.byte	0x50
 1678 0513 05       		.uleb128 0x5
 1679 0514 A3       		.byte	0xa3
 1680 0515 01       		.uleb128 0x1
 1681 0516 50       		.byte	0x50
 1682 0517 23       		.byte	0x23
 1683 0518 1C       		.uleb128 0x1c
 1684 0519 00       		.byte	0
 1685 051a 00       		.byte	0
 1686 051b 0A       		.uleb128 0xa
 1687 051c 0C040000 		.4byte	0x40c
 1688 0520 2B       		.uleb128 0x2b
 1689 0521 8C010000 		.4byte	.LASF72
 1690 0525 01       		.byte	0x1
 1691 0526 4901     		.2byte	0x149
 1692 0528 07       		.byte	0x7
 1693 0529 F0000000 		.4byte	0xf0
 1694 052d 01       		.byte	0x1
 1695 052e 61050000 		.4byte	0x561
 1696 0532 2C       		.uleb128 0x2c
 1697 0533 6D627000 		.ascii	"mbp\000"
 1698 0537 01       		.byte	0x1
 1699 0538 4901     		.2byte	0x149
 1700 053a 1B       		.byte	0x1b
 1701 053b 1B050000 		.4byte	0x51b
 1702 053f 19       		.uleb128 0x19
 1703 0540 BD010000 		.4byte	.LASF70
 1704 0544 27       		.byte	0x27
 1705 0545 07040000 		.4byte	0x407
 1706 0549 19       		.uleb128 0x19
 1707 054a BD020000 		.4byte	.LASF73
 1708 054e 37       		.byte	0x37
 1709 054f 08010000 		.4byte	0x108
 1710 0553 2D       		.uleb128 0x2d
ARM GAS  /tmp/cccw1Yxa.s 			page 31


 1711 0554 13000000 		.4byte	.LASF62
 1712 0558 01       		.byte	0x1
 1713 0559 4A01     		.2byte	0x14a
 1714 055b 09       		.byte	0x9
 1715 055c F0000000 		.4byte	0xf0
 1716 0560 00       		.byte	0
 1717 0561 16       		.uleb128 0x16
 1718 0562 BA030000 		.4byte	.LASF75
 1719 0566 2D01     		.2byte	0x12d
 1720 0568 F0000000 		.4byte	0xf0
 1721 056c 00000000 		.4byte	.LFB15
 1722 0570 60000000 		.4byte	.LFE15-.LFB15
 1723 0574 01       		.uleb128 0x1
 1724 0575 9C       		.byte	0x9c
 1725 0576 8E060000 		.4byte	0x68e
 1726 057a 11       		.uleb128 0x11
 1727 057b 6D627000 		.ascii	"mbp\000"
 1728 057f 2D01     		.2byte	0x12d
 1729 0581 1A       		.byte	0x1a
 1730 0582 1B050000 		.4byte	0x51b
 1731 0586 5F000000 		.4byte	.LLST44
 1732 058a 5B000000 		.4byte	.LVUS44
 1733 058e 17       		.uleb128 0x17
 1734 058f BD010000 		.4byte	.LASF70
 1735 0593 2D01     		.2byte	0x12d
 1736 0595 26       		.byte	0x26
 1737 0596 07040000 		.4byte	0x407
 1738 059a 73000000 		.4byte	.LLST45
 1739 059e 6F000000 		.4byte	.LVUS45
 1740 05a2 17       		.uleb128 0x17
 1741 05a3 BD020000 		.4byte	.LASF73
 1742 05a7 2D01     		.2byte	0x12d
 1743 05a9 36       		.byte	0x36
 1744 05aa 08010000 		.4byte	0x108
 1745 05ae 87000000 		.4byte	.LLST46
 1746 05b2 83000000 		.4byte	.LVUS46
 1747 05b6 2E       		.uleb128 0x2e
 1748 05b7 13000000 		.4byte	.LASF62
 1749 05bb 01       		.byte	0x1
 1750 05bc 2E01     		.2byte	0x12e
 1751 05be 09       		.byte	0x9
 1752 05bf F0000000 		.4byte	0xf0
 1753 05c3 9C000000 		.4byte	.LLST47
 1754 05c7 9A000000 		.4byte	.LVUS47
 1755 05cb 2F       		.uleb128 0x2f
 1756 05cc 20050000 		.4byte	0x520
 1757 05d0 14000000 		.4byte	.LBI30
 1758 05d4 03       		.byte	.LVU260
 1759 05d5 14000000 		.4byte	.LBB30
 1760 05d9 40000000 		.4byte	.LBE30-.LBB30
 1761 05dd 01       		.byte	0x1
 1762 05de 3101     		.2byte	0x131
 1763 05e0 0C       		.byte	0xc
 1764 05e1 01       		.uleb128 0x1
 1765 05e2 49050000 		.4byte	0x549
 1766 05e6 A9000000 		.4byte	.LLST48
 1767 05ea A5000000 		.4byte	.LVUS48
ARM GAS  /tmp/cccw1Yxa.s 			page 32


 1768 05ee 01       		.uleb128 0x1
 1769 05ef 3F050000 		.4byte	0x53f
 1770 05f3 BE000000 		.4byte	.LLST49
 1771 05f7 BC000000 		.4byte	.LVUS49
 1772 05fb 01       		.uleb128 0x1
 1773 05fc 32050000 		.4byte	0x532
 1774 0600 CB000000 		.4byte	.LLST50
 1775 0604 C7000000 		.4byte	.LVUS50
 1776 0608 0D       		.uleb128 0xd
 1777 0609 53050000 		.4byte	0x553
 1778 060d DF000000 		.4byte	.LLST51
 1779 0611 DB000000 		.4byte	.LVUS51
 1780 0615 1A       		.uleb128 0x1a
 1781 0616 20050000 		.4byte	0x520
 1782 061a 24000000 		.4byte	.LBI32
 1783 061e 00       		.byte	.LVU271
 1784 061f 24000000 		.4byte	.LBB32
 1785 0623 30000000 		.4byte	.LBE32-.LBB32
 1786 0627 75060000 		.4byte	0x675
 1787 062b 01       		.uleb128 0x1
 1788 062c 49050000 		.4byte	0x549
 1789 0630 F1000000 		.4byte	.LLST52
 1790 0634 EF000000 		.4byte	.LVUS52
 1791 0638 01       		.uleb128 0x1
 1792 0639 3F050000 		.4byte	0x53f
 1793 063d FF000000 		.4byte	.LLST53
 1794 0641 FD000000 		.4byte	.LVUS53
 1795 0645 01       		.uleb128 0x1
 1796 0646 32050000 		.4byte	0x532
 1797 064a 0A010000 		.4byte	.LLST54
 1798 064e 08010000 		.4byte	.LVUS54
 1799 0652 0E       		.uleb128 0xe
 1800 0653 53050000 		.4byte	0x553
 1801 0657 09       		.uleb128 0x9
 1802 0658 50000000 		.4byte	.LVL63
 1803 065c 64040000 		.4byte	0x464
 1804 0660 6B060000 		.4byte	0x66b
 1805 0664 03       		.uleb128 0x3
 1806 0665 01       		.uleb128 0x1
 1807 0666 50       		.byte	0x50
 1808 0667 02       		.uleb128 0x2
 1809 0668 74       		.byte	0x74
 1810 0669 1C       		.sleb128 28
 1811 066a 00       		.byte	0
 1812 066b 0C       		.uleb128 0xc
 1813 066c 54000000 		.4byte	.LVL64
 1814 0670 94040000 		.4byte	0x494
 1815 0674 00       		.byte	0
 1816 0675 08       		.uleb128 0x8
 1817 0676 1C000000 		.4byte	.LVL60
 1818 067a 79040000 		.4byte	0x479
 1819 067e 03       		.uleb128 0x3
 1820 067f 01       		.uleb128 0x1
 1821 0680 50       		.byte	0x50
 1822 0681 02       		.uleb128 0x2
 1823 0682 74       		.byte	0x74
 1824 0683 10       		.sleb128 16
ARM GAS  /tmp/cccw1Yxa.s 			page 33


 1825 0684 03       		.uleb128 0x3
 1826 0685 01       		.uleb128 0x1
 1827 0686 51       		.byte	0x51
 1828 0687 03       		.uleb128 0x3
 1829 0688 A3       		.byte	0xa3
 1830 0689 01       		.uleb128 0x1
 1831 068a 52       		.byte	0x52
 1832 068b 00       		.byte	0
 1833 068c 00       		.byte	0
 1834 068d 00       		.byte	0
 1835 068e 16       		.uleb128 0x16
 1836 068f 40000000 		.4byte	.LASF76
 1837 0693 0B01     		.2byte	0x10b
 1838 0695 F0000000 		.4byte	0xf0
 1839 0699 00000000 		.4byte	.LFB14
 1840 069d 54000000 		.4byte	.LFE14-.LFB14
 1841 06a1 01       		.uleb128 0x1
 1842 06a2 9C       		.byte	0x9c
 1843 06a3 E3060000 		.4byte	0x6e3
 1844 06a7 11       		.uleb128 0x11
 1845 06a8 6D627000 		.ascii	"mbp\000"
 1846 06ac 0B01     		.2byte	0x10b
 1847 06ae 1F       		.byte	0x1f
 1848 06af 1B050000 		.4byte	0x51b
 1849 06b3 1D010000 		.4byte	.LLST42
 1850 06b7 13010000 		.4byte	.LVUS42
 1851 06bb 11       		.uleb128 0x11
 1852 06bc 6D736700 		.ascii	"msg\000"
 1853 06c0 0B01     		.2byte	0x10b
 1854 06c2 2A       		.byte	0x2a
 1855 06c3 F0000000 		.4byte	0xf0
 1856 06c7 4A010000 		.4byte	.LLST43
 1857 06cb 44010000 		.4byte	.LVUS43
 1858 06cf 08       		.uleb128 0x8
 1859 06d0 44000000 		.4byte	.LVL53
 1860 06d4 64040000 		.4byte	0x464
 1861 06d8 03       		.uleb128 0x3
 1862 06d9 01       		.uleb128 0x1
 1863 06da 50       		.byte	0x50
 1864 06db 05       		.uleb128 0x5
 1865 06dc A3       		.byte	0xa3
 1866 06dd 01       		.uleb128 0x1
 1867 06de 50       		.byte	0x50
 1868 06df 23       		.byte	0x23
 1869 06e0 10       		.uleb128 0x10
 1870 06e1 00       		.byte	0
 1871 06e2 00       		.byte	0
 1872 06e3 1B       		.uleb128 0x1b
 1873 06e4 6F000000 		.4byte	.LASF77
 1874 06e8 EC       		.byte	0xec
 1875 06e9 F0000000 		.4byte	0xf0
 1876 06ed 1D070000 		.4byte	0x71d
 1877 06f1 12       		.uleb128 0x12
 1878 06f2 6D627000 		.ascii	"mbp\000"
 1879 06f6 EC       		.byte	0xec
 1880 06f7 1F       		.byte	0x1f
 1881 06f8 1B050000 		.4byte	0x51b
ARM GAS  /tmp/cccw1Yxa.s 			page 34


 1882 06fc 12       		.uleb128 0x12
 1883 06fd 6D736700 		.ascii	"msg\000"
 1884 0701 EC       		.byte	0xec
 1885 0702 2A       		.byte	0x2a
 1886 0703 F0000000 		.4byte	0xf0
 1887 0707 1C       		.uleb128 0x1c
 1888 0708 BD020000 		.4byte	.LASF73
 1889 070c EC       		.byte	0xec
 1890 070d 39       		.byte	0x39
 1891 070e 08010000 		.4byte	0x108
 1892 0712 1D       		.uleb128 0x1d
 1893 0713 13000000 		.4byte	.LASF62
 1894 0717 ED       		.byte	0xed
 1895 0718 F0000000 		.4byte	0xf0
 1896 071c 00       		.byte	0
 1897 071d 18       		.uleb128 0x18
 1898 071e 9A030000 		.4byte	.LASF78
 1899 0722 D0       		.byte	0xd0
 1900 0723 F0000000 		.4byte	0xf0
 1901 0727 00000000 		.4byte	.LFB12
 1902 072b 60000000 		.4byte	.LFE12-.LFB12
 1903 072f 01       		.uleb128 0x1
 1904 0730 9C       		.byte	0x9c
 1905 0731 41080000 		.4byte	0x841
 1906 0735 07       		.uleb128 0x7
 1907 0736 6D627000 		.ascii	"mbp\000"
 1908 073a D0       		.byte	0xd0
 1909 073b 1E       		.byte	0x1e
 1910 073c 1B050000 		.4byte	0x51b
 1911 0740 66010000 		.4byte	.LLST24
 1912 0744 62010000 		.4byte	.LVUS24
 1913 0748 07       		.uleb128 0x7
 1914 0749 6D736700 		.ascii	"msg\000"
 1915 074d D0       		.byte	0xd0
 1916 074e 29       		.byte	0x29
 1917 074f F0000000 		.4byte	0xf0
 1918 0753 7A010000 		.4byte	.LLST25
 1919 0757 76010000 		.4byte	.LVUS25
 1920 075b 1E       		.uleb128 0x1e
 1921 075c BD020000 		.4byte	.LASF73
 1922 0760 D0       		.byte	0xd0
 1923 0761 38       		.byte	0x38
 1924 0762 08010000 		.4byte	0x108
 1925 0766 8E010000 		.4byte	.LLST26
 1926 076a 8A010000 		.4byte	.LVUS26
 1927 076e 1F       		.uleb128 0x1f
 1928 076f 13000000 		.4byte	.LASF62
 1929 0773 D1       		.byte	0xd1
 1930 0774 F0000000 		.4byte	0xf0
 1931 0778 A3010000 		.4byte	.LLST27
 1932 077c A1010000 		.4byte	.LVUS27
 1933 0780 20       		.uleb128 0x20
 1934 0781 E3060000 		.4byte	0x6e3
 1935 0785 14000000 		.4byte	.LBI18
 1936 0789 03       		.byte	.LVU153
 1937 078a 14000000 		.4byte	.LBB18
 1938 078e 40000000 		.4byte	.LBE18-.LBB18
ARM GAS  /tmp/cccw1Yxa.s 			page 35


 1939 0792 D4       		.byte	0xd4
 1940 0793 01       		.uleb128 0x1
 1941 0794 07070000 		.4byte	0x707
 1942 0798 B0010000 		.4byte	.LLST28
 1943 079c AC010000 		.4byte	.LVUS28
 1944 07a0 01       		.uleb128 0x1
 1945 07a1 FC060000 		.4byte	0x6fc
 1946 07a5 C5010000 		.4byte	.LLST29
 1947 07a9 C3010000 		.4byte	.LVUS29
 1948 07ad 01       		.uleb128 0x1
 1949 07ae F1060000 		.4byte	0x6f1
 1950 07b2 D2010000 		.4byte	.LLST30
 1951 07b6 CE010000 		.4byte	.LVUS30
 1952 07ba 0D       		.uleb128 0xd
 1953 07bb 12070000 		.4byte	0x712
 1954 07bf E6010000 		.4byte	.LLST31
 1955 07c3 E2010000 		.4byte	.LVUS31
 1956 07c7 13       		.uleb128 0x13
 1957 07c8 E3060000 		.4byte	0x6e3
 1958 07cc 24000000 		.4byte	.LBI20
 1959 07d0 00       		.byte	.LVU164
 1960 07d1 24000000 		.4byte	.LBB20
 1961 07d5 30000000 		.4byte	.LBE20-.LBB20
 1962 07d9 EC       		.byte	0xec
 1963 07da 28080000 		.4byte	0x828
 1964 07de 01       		.uleb128 0x1
 1965 07df 07070000 		.4byte	0x707
 1966 07e3 F8010000 		.4byte	.LLST32
 1967 07e7 F6010000 		.4byte	.LVUS32
 1968 07eb 01       		.uleb128 0x1
 1969 07ec FC060000 		.4byte	0x6fc
 1970 07f0 06020000 		.4byte	.LLST33
 1971 07f4 04020000 		.4byte	.LVUS33
 1972 07f8 01       		.uleb128 0x1
 1973 07f9 F1060000 		.4byte	0x6f1
 1974 07fd 11020000 		.4byte	.LLST34
 1975 0801 0F020000 		.4byte	.LVUS34
 1976 0805 0E       		.uleb128 0xe
 1977 0806 12070000 		.4byte	0x712
 1978 080a 09       		.uleb128 0x9
 1979 080b 50000000 		.4byte	.LVL41
 1980 080f 64040000 		.4byte	0x464
 1981 0813 1E080000 		.4byte	0x81e
 1982 0817 03       		.uleb128 0x3
 1983 0818 01       		.uleb128 0x1
 1984 0819 50       		.byte	0x50
 1985 081a 02       		.uleb128 0x2
 1986 081b 74       		.byte	0x74
 1987 081c 10       		.sleb128 16
 1988 081d 00       		.byte	0
 1989 081e 0C       		.uleb128 0xc
 1990 081f 54000000 		.4byte	.LVL42
 1991 0823 94040000 		.4byte	0x494
 1992 0827 00       		.byte	0
 1993 0828 08       		.uleb128 0x8
 1994 0829 1C000000 		.4byte	.LVL38
 1995 082d 79040000 		.4byte	0x479
ARM GAS  /tmp/cccw1Yxa.s 			page 36


 1996 0831 03       		.uleb128 0x3
 1997 0832 01       		.uleb128 0x1
 1998 0833 50       		.byte	0x50
 1999 0834 02       		.uleb128 0x2
 2000 0835 74       		.byte	0x74
 2001 0836 1C       		.sleb128 28
 2002 0837 03       		.uleb128 0x3
 2003 0838 01       		.uleb128 0x1
 2004 0839 51       		.byte	0x51
 2005 083a 03       		.uleb128 0x3
 2006 083b A3       		.byte	0xa3
 2007 083c 01       		.uleb128 0x1
 2008 083d 52       		.byte	0x52
 2009 083e 00       		.byte	0
 2010 083f 00       		.byte	0
 2011 0840 00       		.byte	0
 2012 0841 18       		.uleb128 0x18
 2013 0842 24000000 		.4byte	.LASF79
 2014 0846 AE       		.byte	0xae
 2015 0847 F0000000 		.4byte	0xf0
 2016 084b 00000000 		.4byte	.LFB11
 2017 084f 50000000 		.4byte	.LFE11-.LFB11
 2018 0853 01       		.uleb128 0x1
 2019 0854 9C       		.byte	0x9c
 2020 0855 93080000 		.4byte	0x893
 2021 0859 07       		.uleb128 0x7
 2022 085a 6D627000 		.ascii	"mbp\000"
 2023 085e AE       		.byte	0xae
 2024 085f 1A       		.byte	0x1a
 2025 0860 1B050000 		.4byte	0x51b
 2026 0864 24020000 		.4byte	.LLST22
 2027 0868 1A020000 		.4byte	.LVUS22
 2028 086c 07       		.uleb128 0x7
 2029 086d 6D736700 		.ascii	"msg\000"
 2030 0871 AE       		.byte	0xae
 2031 0872 25       		.byte	0x25
 2032 0873 F0000000 		.4byte	0xf0
 2033 0877 51020000 		.4byte	.LLST23
 2034 087b 4B020000 		.4byte	.LVUS23
 2035 087f 08       		.uleb128 0x8
 2036 0880 40000000 		.4byte	.LVL31
 2037 0884 64040000 		.4byte	0x464
 2038 0888 03       		.uleb128 0x3
 2039 0889 01       		.uleb128 0x1
 2040 088a 50       		.byte	0x50
 2041 088b 05       		.uleb128 0x5
 2042 088c A3       		.byte	0xa3
 2043 088d 01       		.uleb128 0x1
 2044 088e 50       		.byte	0x50
 2045 088f 23       		.byte	0x23
 2046 0890 10       		.uleb128 0x10
 2047 0891 00       		.byte	0
 2048 0892 00       		.byte	0
 2049 0893 1B       		.uleb128 0x1b
 2050 0894 2E000000 		.4byte	.LASF80
 2051 0898 8F       		.byte	0x8f
 2052 0899 F0000000 		.4byte	0xf0
ARM GAS  /tmp/cccw1Yxa.s 			page 37


 2053 089d CD080000 		.4byte	0x8cd
 2054 08a1 12       		.uleb128 0x12
 2055 08a2 6D627000 		.ascii	"mbp\000"
 2056 08a6 8F       		.byte	0x8f
 2057 08a7 1A       		.byte	0x1a
 2058 08a8 1B050000 		.4byte	0x51b
 2059 08ac 12       		.uleb128 0x12
 2060 08ad 6D736700 		.ascii	"msg\000"
 2061 08b1 8F       		.byte	0x8f
 2062 08b2 25       		.byte	0x25
 2063 08b3 F0000000 		.4byte	0xf0
 2064 08b7 1C       		.uleb128 0x1c
 2065 08b8 BD020000 		.4byte	.LASF73
 2066 08bc 8F       		.byte	0x8f
 2067 08bd 34       		.byte	0x34
 2068 08be 08010000 		.4byte	0x108
 2069 08c2 1D       		.uleb128 0x1d
 2070 08c3 13000000 		.4byte	.LASF62
 2071 08c7 90       		.byte	0x90
 2072 08c8 F0000000 		.4byte	0xf0
 2073 08cc 00       		.byte	0
 2074 08cd 18       		.uleb128 0x18
 2075 08ce 32030000 		.4byte	.LASF81
 2076 08d2 73       		.byte	0x73
 2077 08d3 F0000000 		.4byte	0xf0
 2078 08d7 00000000 		.4byte	.LFB9
 2079 08db 5C000000 		.4byte	.LFE9-.LFB9
 2080 08df 01       		.uleb128 0x1
 2081 08e0 9C       		.byte	0x9c
 2082 08e1 F1090000 		.4byte	0x9f1
 2083 08e5 07       		.uleb128 0x7
 2084 08e6 6D627000 		.ascii	"mbp\000"
 2085 08ea 73       		.byte	0x73
 2086 08eb 19       		.byte	0x19
 2087 08ec 1B050000 		.4byte	0x51b
 2088 08f0 6D020000 		.4byte	.LLST4
 2089 08f4 69020000 		.4byte	.LVUS4
 2090 08f8 07       		.uleb128 0x7
 2091 08f9 6D736700 		.ascii	"msg\000"
 2092 08fd 73       		.byte	0x73
 2093 08fe 24       		.byte	0x24
 2094 08ff F0000000 		.4byte	0xf0
 2095 0903 81020000 		.4byte	.LLST5
 2096 0907 7D020000 		.4byte	.LVUS5
 2097 090b 1E       		.uleb128 0x1e
 2098 090c BD020000 		.4byte	.LASF73
 2099 0910 73       		.byte	0x73
 2100 0911 33       		.byte	0x33
 2101 0912 08010000 		.4byte	0x108
 2102 0916 95020000 		.4byte	.LLST6
 2103 091a 91020000 		.4byte	.LVUS6
 2104 091e 1F       		.uleb128 0x1f
 2105 091f 13000000 		.4byte	.LASF62
 2106 0923 74       		.byte	0x74
 2107 0924 F0000000 		.4byte	0xf0
 2108 0928 AA020000 		.4byte	.LLST7
 2109 092c A8020000 		.4byte	.LVUS7
ARM GAS  /tmp/cccw1Yxa.s 			page 38


 2110 0930 20       		.uleb128 0x20
 2111 0931 93080000 		.4byte	0x893
 2112 0935 14000000 		.4byte	.LBI6
 2113 0939 03       		.byte	.LVU51
 2114 093a 14000000 		.4byte	.LBB6
 2115 093e 3C000000 		.4byte	.LBE6-.LBB6
 2116 0942 77       		.byte	0x77
 2117 0943 01       		.uleb128 0x1
 2118 0944 B7080000 		.4byte	0x8b7
 2119 0948 B7020000 		.4byte	.LLST8
 2120 094c B3020000 		.4byte	.LVUS8
 2121 0950 01       		.uleb128 0x1
 2122 0951 AC080000 		.4byte	0x8ac
 2123 0955 CC020000 		.4byte	.LLST9
 2124 0959 CA020000 		.4byte	.LVUS9
 2125 095d 01       		.uleb128 0x1
 2126 095e A1080000 		.4byte	0x8a1
 2127 0962 D9020000 		.4byte	.LLST10
 2128 0966 D5020000 		.4byte	.LVUS10
 2129 096a 0D       		.uleb128 0xd
 2130 096b C2080000 		.4byte	0x8c2
 2131 096f ED020000 		.4byte	.LLST11
 2132 0973 E9020000 		.4byte	.LVUS11
 2133 0977 13       		.uleb128 0x13
 2134 0978 93080000 		.4byte	0x893
 2135 097c 24000000 		.4byte	.LBI8
 2136 0980 00       		.byte	.LVU62
 2137 0981 24000000 		.4byte	.LBB8
 2138 0985 2C000000 		.4byte	.LBE8-.LBB8
 2139 0989 8F       		.byte	0x8f
 2140 098a D8090000 		.4byte	0x9d8
 2141 098e 01       		.uleb128 0x1
 2142 098f B7080000 		.4byte	0x8b7
 2143 0993 FF020000 		.4byte	.LLST12
 2144 0997 FD020000 		.4byte	.LVUS12
 2145 099b 01       		.uleb128 0x1
 2146 099c AC080000 		.4byte	0x8ac
 2147 09a0 0D030000 		.4byte	.LLST13
 2148 09a4 0B030000 		.4byte	.LVUS13
 2149 09a8 01       		.uleb128 0x1
 2150 09a9 A1080000 		.4byte	0x8a1
 2151 09ad 18030000 		.4byte	.LLST14
 2152 09b1 16030000 		.4byte	.LVUS14
 2153 09b5 0E       		.uleb128 0xe
 2154 09b6 C2080000 		.4byte	0x8c2
 2155 09ba 09       		.uleb128 0x9
 2156 09bb 4C000000 		.4byte	.LVL19
 2157 09bf 64040000 		.4byte	0x464
 2158 09c3 CE090000 		.4byte	0x9ce
 2159 09c7 03       		.uleb128 0x3
 2160 09c8 01       		.uleb128 0x1
 2161 09c9 50       		.byte	0x50
 2162 09ca 02       		.uleb128 0x2
 2163 09cb 74       		.byte	0x74
 2164 09cc 10       		.sleb128 16
 2165 09cd 00       		.byte	0
 2166 09ce 0C       		.uleb128 0xc
ARM GAS  /tmp/cccw1Yxa.s 			page 39


 2167 09cf 50000000 		.4byte	.LVL20
 2168 09d3 94040000 		.4byte	0x494
 2169 09d7 00       		.byte	0
 2170 09d8 08       		.uleb128 0x8
 2171 09d9 1C000000 		.4byte	.LVL16
 2172 09dd 79040000 		.4byte	0x479
 2173 09e1 03       		.uleb128 0x3
 2174 09e2 01       		.uleb128 0x1
 2175 09e3 50       		.byte	0x50
 2176 09e4 02       		.uleb128 0x2
 2177 09e5 74       		.byte	0x74
 2178 09e6 1C       		.sleb128 28
 2179 09e7 03       		.uleb128 0x3
 2180 09e8 01       		.uleb128 0x1
 2181 09e9 51       		.byte	0x51
 2182 09ea 03       		.uleb128 0x3
 2183 09eb A3       		.byte	0xa3
 2184 09ec 01       		.uleb128 0x1
 2185 09ed 52       		.byte	0x52
 2186 09ee 00       		.byte	0
 2187 09ef 00       		.byte	0
 2188 09f0 00       		.byte	0
 2189 09f1 21       		.uleb128 0x21
 2190 09f2 6A020000 		.4byte	.LASF82
 2191 09f6 54       		.byte	0x54
 2192 09f7 00000000 		.4byte	.LFB8
 2193 09fb 44000000 		.4byte	.LFE8-.LFB8
 2194 09ff 01       		.uleb128 0x1
 2195 0a00 9C       		.byte	0x9c
 2196 0a01 4F0A0000 		.4byte	0xa4f
 2197 0a05 07       		.uleb128 0x7
 2198 0a06 6D627000 		.ascii	"mbp\000"
 2199 0a0a 54       		.byte	0x54
 2200 0a0b 19       		.byte	0x19
 2201 0a0c 1B050000 		.4byte	0x51b
 2202 0a10 25030000 		.4byte	.LLST3
 2203 0a14 21030000 		.4byte	.LVUS3
 2204 0a18 09       		.uleb128 0x9
 2205 0a19 2C000000 		.4byte	.LVL9
 2206 0a1d 9C040000 		.4byte	0x49c
 2207 0a21 2C0A0000 		.4byte	0xa2c
 2208 0a25 03       		.uleb128 0x3
 2209 0a26 01       		.uleb128 0x1
 2210 0a27 50       		.byte	0x50
 2211 0a28 02       		.uleb128 0x2
 2212 0a29 74       		.byte	0x74
 2213 0a2a 1C       		.sleb128 28
 2214 0a2b 00       		.byte	0
 2215 0a2c 09       		.uleb128 0x9
 2216 0a2d 38000000 		.4byte	.LVL10
 2217 0a31 9C040000 		.4byte	0x49c
 2218 0a35 450A0000 		.4byte	0xa45
 2219 0a39 03       		.uleb128 0x3
 2220 0a3a 01       		.uleb128 0x1
 2221 0a3b 50       		.byte	0x50
 2222 0a3c 02       		.uleb128 0x2
 2223 0a3d 74       		.byte	0x74
ARM GAS  /tmp/cccw1Yxa.s 			page 40


 2224 0a3e 10       		.sleb128 16
 2225 0a3f 03       		.uleb128 0x3
 2226 0a40 01       		.uleb128 0x1
 2227 0a41 51       		.byte	0x51
 2228 0a42 01       		.uleb128 0x1
 2229 0a43 30       		.byte	0x30
 2230 0a44 00       		.byte	0
 2231 0a45 0C       		.uleb128 0xc
 2232 0a46 3C000000 		.4byte	.LVL11
 2233 0a4a 94040000 		.4byte	0x494
 2234 0a4e 00       		.byte	0
 2235 0a4f 21       		.uleb128 0x21
 2236 0a50 33010000 		.4byte	.LASF83
 2237 0a54 41       		.byte	0x41
 2238 0a55 00000000 		.4byte	.LFB7
 2239 0a59 3C000000 		.4byte	.LFE7-.LFB7
 2240 0a5d 01       		.uleb128 0x1
 2241 0a5e 9C       		.byte	0x9c
 2242 0a5f CE0A0000 		.4byte	0xace
 2243 0a63 07       		.uleb128 0x7
 2244 0a64 6D627000 		.ascii	"mbp\000"
 2245 0a68 41       		.byte	0x41
 2246 0a69 18       		.byte	0x18
 2247 0a6a 1B050000 		.4byte	0x51b
 2248 0a6e 3D030000 		.4byte	.LLST0
 2249 0a72 35030000 		.4byte	.LVUS0
 2250 0a76 07       		.uleb128 0x7
 2251 0a77 62756600 		.ascii	"buf\000"
 2252 0a7b 41       		.byte	0x41
 2253 0a7c 24       		.byte	0x24
 2254 0a7d 07040000 		.4byte	0x407
 2255 0a81 62030000 		.4byte	.LLST1
 2256 0a85 5C030000 		.4byte	.LVUS1
 2257 0a89 07       		.uleb128 0x7
 2258 0a8a 6E00     		.ascii	"n\000"
 2259 0a8c 41       		.byte	0x41
 2260 0a8d 2F       		.byte	0x2f
 2261 0a8e 19010000 		.4byte	0x119
 2262 0a92 80030000 		.4byte	.LLST2
 2263 0a96 7A030000 		.4byte	.LVUS2
 2264 0a9a 09       		.uleb128 0x9
 2265 0a9b 2C000000 		.4byte	.LVL4
 2266 0a9f B1040000 		.4byte	0x4b1
 2267 0aa3 B50A0000 		.4byte	0xab5
 2268 0aa7 03       		.uleb128 0x3
 2269 0aa8 01       		.uleb128 0x1
 2270 0aa9 50       		.byte	0x50
 2271 0aaa 02       		.uleb128 0x2
 2272 0aab 74       		.byte	0x74
 2273 0aac 1C       		.sleb128 28
 2274 0aad 03       		.uleb128 0x3
 2275 0aae 01       		.uleb128 0x1
 2276 0aaf 51       		.byte	0x51
 2277 0ab0 03       		.uleb128 0x3
 2278 0ab1 A3       		.byte	0xa3
 2279 0ab2 01       		.uleb128 0x1
 2280 0ab3 52       		.byte	0x52
ARM GAS  /tmp/cccw1Yxa.s 			page 41


 2281 0ab4 00       		.byte	0
 2282 0ab5 30       		.uleb128 0x30
 2283 0ab6 3C000000 		.4byte	.LVL6
 2284 0aba B1040000 		.4byte	0x4b1
 2285 0abe 03       		.uleb128 0x3
 2286 0abf 01       		.uleb128 0x1
 2287 0ac0 50       		.byte	0x50
 2288 0ac1 05       		.uleb128 0x5
 2289 0ac2 A3       		.byte	0xa3
 2290 0ac3 01       		.uleb128 0x1
 2291 0ac4 50       		.byte	0x50
 2292 0ac5 23       		.byte	0x23
 2293 0ac6 10       		.uleb128 0x10
 2294 0ac7 03       		.uleb128 0x3
 2295 0ac8 01       		.uleb128 0x1
 2296 0ac9 51       		.byte	0x51
 2297 0aca 01       		.uleb128 0x1
 2298 0acb 30       		.byte	0x30
 2299 0acc 00       		.byte	0
 2300 0acd 00       		.byte	0
 2301 0ace 22       		.uleb128 0x22
 2302 0acf 93080000 		.4byte	0x893
 2303 0ad3 00000000 		.4byte	.LFB10
 2304 0ad7 54000000 		.4byte	.LFE10-.LFB10
 2305 0adb 01       		.uleb128 0x1
 2306 0adc 9C       		.byte	0x9c
 2307 0add 8E0B0000 		.4byte	0xb8e
 2308 0ae1 01       		.uleb128 0x1
 2309 0ae2 A1080000 		.4byte	0x8a1
 2310 0ae6 9C030000 		.4byte	.LLST15
 2311 0aea 98030000 		.4byte	.LVUS15
 2312 0aee 01       		.uleb128 0x1
 2313 0aef AC080000 		.4byte	0x8ac
 2314 0af3 B0030000 		.4byte	.LLST16
 2315 0af7 AC030000 		.4byte	.LVUS16
 2316 0afb 01       		.uleb128 0x1
 2317 0afc B7080000 		.4byte	0x8b7
 2318 0b00 C4030000 		.4byte	.LLST17
 2319 0b04 C0030000 		.4byte	.LVUS17
 2320 0b08 0D       		.uleb128 0xd
 2321 0b09 C2080000 		.4byte	0x8c2
 2322 0b0d DB030000 		.4byte	.LLST18
 2323 0b11 D7030000 		.4byte	.LVUS18
 2324 0b15 13       		.uleb128 0x13
 2325 0b16 93080000 		.4byte	0x893
 2326 0b1a 20000000 		.4byte	.LBI12
 2327 0b1e 00       		.byte	.LVU97
 2328 0b1f 20000000 		.4byte	.LBB12
 2329 0b23 2C000000 		.4byte	.LBE12-.LBB12
 2330 0b27 8F       		.byte	0x8f
 2331 0b28 760B0000 		.4byte	0xb76
 2332 0b2c 01       		.uleb128 0x1
 2333 0b2d B7080000 		.4byte	0x8b7
 2334 0b31 ED030000 		.4byte	.LLST19
 2335 0b35 EB030000 		.4byte	.LVUS19
 2336 0b39 01       		.uleb128 0x1
 2337 0b3a AC080000 		.4byte	0x8ac
ARM GAS  /tmp/cccw1Yxa.s 			page 42


 2338 0b3e FB030000 		.4byte	.LLST20
 2339 0b42 F9030000 		.4byte	.LVUS20
 2340 0b46 01       		.uleb128 0x1
 2341 0b47 A1080000 		.4byte	0x8a1
 2342 0b4b 06040000 		.4byte	.LLST21
 2343 0b4f 04040000 		.4byte	.LVUS21
 2344 0b53 0E       		.uleb128 0xe
 2345 0b54 C2080000 		.4byte	0x8c2
 2346 0b58 09       		.uleb128 0x9
 2347 0b59 48000000 		.4byte	.LVL27
 2348 0b5d 64040000 		.4byte	0x464
 2349 0b61 6C0B0000 		.4byte	0xb6c
 2350 0b65 03       		.uleb128 0x3
 2351 0b66 01       		.uleb128 0x1
 2352 0b67 50       		.byte	0x50
 2353 0b68 02       		.uleb128 0x2
 2354 0b69 74       		.byte	0x74
 2355 0b6a 10       		.sleb128 16
 2356 0b6b 00       		.byte	0
 2357 0b6c 0C       		.uleb128 0xc
 2358 0b6d 4C000000 		.4byte	.LVL28
 2359 0b71 94040000 		.4byte	0x494
 2360 0b75 00       		.byte	0
 2361 0b76 08       		.uleb128 0x8
 2362 0b77 18000000 		.4byte	.LVL24
 2363 0b7b 79040000 		.4byte	0x479
 2364 0b7f 03       		.uleb128 0x3
 2365 0b80 01       		.uleb128 0x1
 2366 0b81 50       		.byte	0x50
 2367 0b82 02       		.uleb128 0x2
 2368 0b83 74       		.byte	0x74
 2369 0b84 1C       		.sleb128 28
 2370 0b85 03       		.uleb128 0x3
 2371 0b86 01       		.uleb128 0x1
 2372 0b87 51       		.byte	0x51
 2373 0b88 03       		.uleb128 0x3
 2374 0b89 A3       		.byte	0xa3
 2375 0b8a 01       		.uleb128 0x1
 2376 0b8b 52       		.byte	0x52
 2377 0b8c 00       		.byte	0
 2378 0b8d 00       		.byte	0
 2379 0b8e 22       		.uleb128 0x22
 2380 0b8f E3060000 		.4byte	0x6e3
 2381 0b93 00000000 		.4byte	.LFB13
 2382 0b97 58000000 		.4byte	.LFE13-.LFB13
 2383 0b9b 01       		.uleb128 0x1
 2384 0b9c 9C       		.byte	0x9c
 2385 0b9d 4E0C0000 		.4byte	0xc4e
 2386 0ba1 01       		.uleb128 0x1
 2387 0ba2 F1060000 		.4byte	0x6f1
 2388 0ba6 13040000 		.4byte	.LLST35
 2389 0baa 0F040000 		.4byte	.LVUS35
 2390 0bae 01       		.uleb128 0x1
 2391 0baf FC060000 		.4byte	0x6fc
 2392 0bb3 27040000 		.4byte	.LLST36
 2393 0bb7 23040000 		.4byte	.LVUS36
 2394 0bbb 01       		.uleb128 0x1
ARM GAS  /tmp/cccw1Yxa.s 			page 43


 2395 0bbc 07070000 		.4byte	0x707
 2396 0bc0 3B040000 		.4byte	.LLST37
 2397 0bc4 37040000 		.4byte	.LVUS37
 2398 0bc8 0D       		.uleb128 0xd
 2399 0bc9 12070000 		.4byte	0x712
 2400 0bcd 52040000 		.4byte	.LLST38
 2401 0bd1 4E040000 		.4byte	.LVUS38
 2402 0bd5 13       		.uleb128 0x13
 2403 0bd6 E3060000 		.4byte	0x6e3
 2404 0bda 20000000 		.4byte	.LBI24
 2405 0bde 00       		.byte	.LVU201
 2406 0bdf 20000000 		.4byte	.LBB24
 2407 0be3 30000000 		.4byte	.LBE24-.LBB24
 2408 0be7 EC       		.byte	0xec
 2409 0be8 360C0000 		.4byte	0xc36
 2410 0bec 01       		.uleb128 0x1
 2411 0bed 07070000 		.4byte	0x707
 2412 0bf1 64040000 		.4byte	.LLST39
 2413 0bf5 62040000 		.4byte	.LVUS39
 2414 0bf9 01       		.uleb128 0x1
 2415 0bfa FC060000 		.4byte	0x6fc
 2416 0bfe 72040000 		.4byte	.LLST40
 2417 0c02 70040000 		.4byte	.LVUS40
 2418 0c06 01       		.uleb128 0x1
 2419 0c07 F1060000 		.4byte	0x6f1
 2420 0c0b 7D040000 		.4byte	.LLST41
 2421 0c0f 7B040000 		.4byte	.LVUS41
 2422 0c13 0E       		.uleb128 0xe
 2423 0c14 12070000 		.4byte	0x712
 2424 0c18 09       		.uleb128 0x9
 2425 0c19 4C000000 		.4byte	.LVL49
 2426 0c1d 64040000 		.4byte	0x464
 2427 0c21 2C0C0000 		.4byte	0xc2c
 2428 0c25 03       		.uleb128 0x3
 2429 0c26 01       		.uleb128 0x1
 2430 0c27 50       		.byte	0x50
 2431 0c28 02       		.uleb128 0x2
 2432 0c29 74       		.byte	0x74
 2433 0c2a 10       		.sleb128 16
 2434 0c2b 00       		.byte	0
 2435 0c2c 0C       		.uleb128 0xc
 2436 0c2d 50000000 		.4byte	.LVL50
 2437 0c31 94040000 		.4byte	0x494
 2438 0c35 00       		.byte	0
 2439 0c36 08       		.uleb128 0x8
 2440 0c37 18000000 		.4byte	.LVL46
 2441 0c3b 79040000 		.4byte	0x479
 2442 0c3f 03       		.uleb128 0x3
 2443 0c40 01       		.uleb128 0x1
 2444 0c41 50       		.byte	0x50
 2445 0c42 02       		.uleb128 0x2
 2446 0c43 74       		.byte	0x74
 2447 0c44 1C       		.sleb128 28
 2448 0c45 03       		.uleb128 0x3
 2449 0c46 01       		.uleb128 0x1
 2450 0c47 51       		.byte	0x51
 2451 0c48 03       		.uleb128 0x3
ARM GAS  /tmp/cccw1Yxa.s 			page 44


 2452 0c49 A3       		.byte	0xa3
 2453 0c4a 01       		.uleb128 0x1
 2454 0c4b 52       		.byte	0x52
 2455 0c4c 00       		.byte	0
 2456 0c4d 00       		.byte	0
 2457 0c4e 31       		.uleb128 0x31
 2458 0c4f 20050000 		.4byte	0x520
 2459 0c53 00000000 		.4byte	.LFB16
 2460 0c57 58000000 		.4byte	.LFE16-.LFB16
 2461 0c5b 01       		.uleb128 0x1
 2462 0c5c 9C       		.byte	0x9c
 2463 0c5d 01       		.uleb128 0x1
 2464 0c5e 32050000 		.4byte	0x532
 2465 0c62 8A040000 		.4byte	.LLST55
 2466 0c66 86040000 		.4byte	.LVUS55
 2467 0c6a 01       		.uleb128 0x1
 2468 0c6b 3F050000 		.4byte	0x53f
 2469 0c6f 9E040000 		.4byte	.LLST56
 2470 0c73 9A040000 		.4byte	.LVUS56
 2471 0c77 01       		.uleb128 0x1
 2472 0c78 49050000 		.4byte	0x549
 2473 0c7c B2040000 		.4byte	.LLST57
 2474 0c80 AE040000 		.4byte	.LVUS57
 2475 0c84 0D       		.uleb128 0xd
 2476 0c85 53050000 		.4byte	0x553
 2477 0c89 C9040000 		.4byte	.LLST58
 2478 0c8d C5040000 		.4byte	.LVUS58
 2479 0c91 1A       		.uleb128 0x1a
 2480 0c92 20050000 		.4byte	0x520
 2481 0c96 20000000 		.4byte	.LBI36
 2482 0c9a 00       		.byte	.LVU308
 2483 0c9b 20000000 		.4byte	.LBB36
 2484 0c9f 30000000 		.4byte	.LBE36-.LBB36
 2485 0ca3 F10C0000 		.4byte	0xcf1
 2486 0ca7 01       		.uleb128 0x1
 2487 0ca8 49050000 		.4byte	0x549
 2488 0cac DB040000 		.4byte	.LLST59
 2489 0cb0 D9040000 		.4byte	.LVUS59
 2490 0cb4 01       		.uleb128 0x1
 2491 0cb5 3F050000 		.4byte	0x53f
 2492 0cb9 E9040000 		.4byte	.LLST60
 2493 0cbd E7040000 		.4byte	.LVUS60
 2494 0cc1 01       		.uleb128 0x1
 2495 0cc2 32050000 		.4byte	0x532
 2496 0cc6 F4040000 		.4byte	.LLST61
 2497 0cca F2040000 		.4byte	.LVUS61
 2498 0cce 0E       		.uleb128 0xe
 2499 0ccf 53050000 		.4byte	0x553
 2500 0cd3 09       		.uleb128 0x9
 2501 0cd4 4C000000 		.4byte	.LVL71
 2502 0cd8 64040000 		.4byte	0x464
 2503 0cdc E70C0000 		.4byte	0xce7
 2504 0ce0 03       		.uleb128 0x3
 2505 0ce1 01       		.uleb128 0x1
 2506 0ce2 50       		.byte	0x50
 2507 0ce3 02       		.uleb128 0x2
 2508 0ce4 74       		.byte	0x74
ARM GAS  /tmp/cccw1Yxa.s 			page 45


 2509 0ce5 1C       		.sleb128 28
 2510 0ce6 00       		.byte	0
 2511 0ce7 0C       		.uleb128 0xc
 2512 0ce8 50000000 		.4byte	.LVL72
 2513 0cec 94040000 		.4byte	0x494
 2514 0cf0 00       		.byte	0
 2515 0cf1 08       		.uleb128 0x8
 2516 0cf2 18000000 		.4byte	.LVL68
 2517 0cf6 79040000 		.4byte	0x479
 2518 0cfa 03       		.uleb128 0x3
 2519 0cfb 01       		.uleb128 0x1
 2520 0cfc 50       		.byte	0x50
 2521 0cfd 02       		.uleb128 0x2
 2522 0cfe 74       		.byte	0x74
 2523 0cff 10       		.sleb128 16
 2524 0d00 03       		.uleb128 0x3
 2525 0d01 01       		.uleb128 0x1
 2526 0d02 51       		.byte	0x51
 2527 0d03 03       		.uleb128 0x3
 2528 0d04 A3       		.byte	0xa3
 2529 0d05 01       		.uleb128 0x1
 2530 0d06 52       		.byte	0x52
 2531 0d07 00       		.byte	0
 2532 0d08 00       		.byte	0
 2533 0d09 00       		.byte	0
 2534              		.section	.debug_abbrev,"",%progbits
 2535              	.Ldebug_abbrev0:
 2536 0000 01       		.uleb128 0x1
 2537 0001 05       		.uleb128 0x5
 2538 0002 00       		.byte	0
 2539 0003 31       		.uleb128 0x31
 2540 0004 13       		.uleb128 0x13
 2541 0005 02       		.uleb128 0x2
 2542 0006 17       		.uleb128 0x17
 2543 0007 B742     		.uleb128 0x2137
 2544 0009 17       		.uleb128 0x17
 2545 000a 00       		.byte	0
 2546 000b 00       		.byte	0
 2547 000c 02       		.uleb128 0x2
 2548 000d 0D       		.uleb128 0xd
 2549 000e 00       		.byte	0
 2550 000f 03       		.uleb128 0x3
 2551 0010 0E       		.uleb128 0xe
 2552 0011 3A       		.uleb128 0x3a
 2553 0012 0B       		.uleb128 0xb
 2554 0013 3B       		.uleb128 0x3b
 2555 0014 0B       		.uleb128 0xb
 2556 0015 39       		.uleb128 0x39
 2557 0016 0B       		.uleb128 0xb
 2558 0017 49       		.uleb128 0x49
 2559 0018 13       		.uleb128 0x13
 2560 0019 38       		.uleb128 0x38
 2561 001a 0B       		.uleb128 0xb
 2562 001b 00       		.byte	0
 2563 001c 00       		.byte	0
 2564 001d 03       		.uleb128 0x3
 2565 001e 49       		.uleb128 0x49
ARM GAS  /tmp/cccw1Yxa.s 			page 46


 2566 001f 00       		.byte	0
 2567 0020 02       		.uleb128 0x2
 2568 0021 18       		.uleb128 0x18
 2569 0022 7E       		.uleb128 0x7e
 2570 0023 18       		.uleb128 0x18
 2571 0024 00       		.byte	0
 2572 0025 00       		.byte	0
 2573 0026 04       		.uleb128 0x4
 2574 0027 16       		.uleb128 0x16
 2575 0028 00       		.byte	0
 2576 0029 03       		.uleb128 0x3
 2577 002a 0E       		.uleb128 0xe
 2578 002b 3A       		.uleb128 0x3a
 2579 002c 0B       		.uleb128 0xb
 2580 002d 3B       		.uleb128 0x3b
 2581 002e 0B       		.uleb128 0xb
 2582 002f 39       		.uleb128 0x39
 2583 0030 0B       		.uleb128 0xb
 2584 0031 49       		.uleb128 0x49
 2585 0032 13       		.uleb128 0x13
 2586 0033 00       		.byte	0
 2587 0034 00       		.byte	0
 2588 0035 05       		.uleb128 0x5
 2589 0036 0D       		.uleb128 0xd
 2590 0037 00       		.byte	0
 2591 0038 03       		.uleb128 0x3
 2592 0039 08       		.uleb128 0x8
 2593 003a 3A       		.uleb128 0x3a
 2594 003b 0B       		.uleb128 0xb
 2595 003c 3B       		.uleb128 0x3b
 2596 003d 0B       		.uleb128 0xb
 2597 003e 39       		.uleb128 0x39
 2598 003f 0B       		.uleb128 0xb
 2599 0040 49       		.uleb128 0x49
 2600 0041 13       		.uleb128 0x13
 2601 0042 38       		.uleb128 0x38
 2602 0043 0B       		.uleb128 0xb
 2603 0044 00       		.byte	0
 2604 0045 00       		.byte	0
 2605 0046 06       		.uleb128 0x6
 2606 0047 24       		.uleb128 0x24
 2607 0048 00       		.byte	0
 2608 0049 0B       		.uleb128 0xb
 2609 004a 0B       		.uleb128 0xb
 2610 004b 3E       		.uleb128 0x3e
 2611 004c 0B       		.uleb128 0xb
 2612 004d 03       		.uleb128 0x3
 2613 004e 0E       		.uleb128 0xe
 2614 004f 00       		.byte	0
 2615 0050 00       		.byte	0
 2616 0051 07       		.uleb128 0x7
 2617 0052 05       		.uleb128 0x5
 2618 0053 00       		.byte	0
 2619 0054 03       		.uleb128 0x3
 2620 0055 08       		.uleb128 0x8
 2621 0056 3A       		.uleb128 0x3a
 2622 0057 21       		.uleb128 0x21
ARM GAS  /tmp/cccw1Yxa.s 			page 47


 2623 0058 01       		.sleb128 1
 2624 0059 3B       		.uleb128 0x3b
 2625 005a 0B       		.uleb128 0xb
 2626 005b 39       		.uleb128 0x39
 2627 005c 0B       		.uleb128 0xb
 2628 005d 49       		.uleb128 0x49
 2629 005e 13       		.uleb128 0x13
 2630 005f 02       		.uleb128 0x2
 2631 0060 17       		.uleb128 0x17
 2632 0061 B742     		.uleb128 0x2137
 2633 0063 17       		.uleb128 0x17
 2634 0064 00       		.byte	0
 2635 0065 00       		.byte	0
 2636 0066 08       		.uleb128 0x8
 2637 0067 48       		.uleb128 0x48
 2638 0068 01       		.byte	0x1
 2639 0069 7D       		.uleb128 0x7d
 2640 006a 01       		.uleb128 0x1
 2641 006b 7F       		.uleb128 0x7f
 2642 006c 13       		.uleb128 0x13
 2643 006d 00       		.byte	0
 2644 006e 00       		.byte	0
 2645 006f 09       		.uleb128 0x9
 2646 0070 48       		.uleb128 0x48
 2647 0071 01       		.byte	0x1
 2648 0072 7D       		.uleb128 0x7d
 2649 0073 01       		.uleb128 0x1
 2650 0074 7F       		.uleb128 0x7f
 2651 0075 13       		.uleb128 0x13
 2652 0076 01       		.uleb128 0x1
 2653 0077 13       		.uleb128 0x13
 2654 0078 00       		.byte	0
 2655 0079 00       		.byte	0
 2656 007a 0A       		.uleb128 0xa
 2657 007b 0F       		.uleb128 0xf
 2658 007c 00       		.byte	0
 2659 007d 0B       		.uleb128 0xb
 2660 007e 21       		.uleb128 0x21
 2661 007f 04       		.sleb128 4
 2662 0080 49       		.uleb128 0x49
 2663 0081 13       		.uleb128 0x13
 2664 0082 00       		.byte	0
 2665 0083 00       		.byte	0
 2666 0084 0B       		.uleb128 0xb
 2667 0085 05       		.uleb128 0x5
 2668 0086 00       		.byte	0
 2669 0087 49       		.uleb128 0x49
 2670 0088 13       		.uleb128 0x13
 2671 0089 00       		.byte	0
 2672 008a 00       		.byte	0
 2673 008b 0C       		.uleb128 0xc
 2674 008c 48       		.uleb128 0x48
 2675 008d 00       		.byte	0
 2676 008e 7D       		.uleb128 0x7d
 2677 008f 01       		.uleb128 0x1
 2678 0090 7F       		.uleb128 0x7f
 2679 0091 13       		.uleb128 0x13
ARM GAS  /tmp/cccw1Yxa.s 			page 48


 2680 0092 00       		.byte	0
 2681 0093 00       		.byte	0
 2682 0094 0D       		.uleb128 0xd
 2683 0095 34       		.uleb128 0x34
 2684 0096 00       		.byte	0
 2685 0097 31       		.uleb128 0x31
 2686 0098 13       		.uleb128 0x13
 2687 0099 02       		.uleb128 0x2
 2688 009a 17       		.uleb128 0x17
 2689 009b B742     		.uleb128 0x2137
 2690 009d 17       		.uleb128 0x17
 2691 009e 00       		.byte	0
 2692 009f 00       		.byte	0
 2693 00a0 0E       		.uleb128 0xe
 2694 00a1 34       		.uleb128 0x34
 2695 00a2 00       		.byte	0
 2696 00a3 31       		.uleb128 0x31
 2697 00a4 13       		.uleb128 0x13
 2698 00a5 00       		.byte	0
 2699 00a6 00       		.byte	0
 2700 00a7 0F       		.uleb128 0xf
 2701 00a8 13       		.uleb128 0x13
 2702 00a9 01       		.byte	0x1
 2703 00aa 03       		.uleb128 0x3
 2704 00ab 0E       		.uleb128 0xe
 2705 00ac 0B       		.uleb128 0xb
 2706 00ad 0B       		.uleb128 0xb
 2707 00ae 3A       		.uleb128 0x3a
 2708 00af 0B       		.uleb128 0xb
 2709 00b0 3B       		.uleb128 0x3b
 2710 00b1 0B       		.uleb128 0xb
 2711 00b2 39       		.uleb128 0x39
 2712 00b3 0B       		.uleb128 0xb
 2713 00b4 01       		.uleb128 0x1
 2714 00b5 13       		.uleb128 0x13
 2715 00b6 00       		.byte	0
 2716 00b7 00       		.byte	0
 2717 00b8 10       		.uleb128 0x10
 2718 00b9 0D       		.uleb128 0xd
 2719 00ba 00       		.byte	0
 2720 00bb 03       		.uleb128 0x3
 2721 00bc 0E       		.uleb128 0xe
 2722 00bd 3A       		.uleb128 0x3a
 2723 00be 21       		.uleb128 0x21
 2724 00bf 06       		.sleb128 6
 2725 00c0 3B       		.uleb128 0x3b
 2726 00c1 0B       		.uleb128 0xb
 2727 00c2 39       		.uleb128 0x39
 2728 00c3 0B       		.uleb128 0xb
 2729 00c4 49       		.uleb128 0x49
 2730 00c5 13       		.uleb128 0x13
 2731 00c6 00       		.byte	0
 2732 00c7 00       		.byte	0
 2733 00c8 11       		.uleb128 0x11
 2734 00c9 05       		.uleb128 0x5
 2735 00ca 00       		.byte	0
 2736 00cb 03       		.uleb128 0x3
ARM GAS  /tmp/cccw1Yxa.s 			page 49


 2737 00cc 08       		.uleb128 0x8
 2738 00cd 3A       		.uleb128 0x3a
 2739 00ce 21       		.uleb128 0x21
 2740 00cf 01       		.sleb128 1
 2741 00d0 3B       		.uleb128 0x3b
 2742 00d1 05       		.uleb128 0x5
 2743 00d2 39       		.uleb128 0x39
 2744 00d3 0B       		.uleb128 0xb
 2745 00d4 49       		.uleb128 0x49
 2746 00d5 13       		.uleb128 0x13
 2747 00d6 02       		.uleb128 0x2
 2748 00d7 17       		.uleb128 0x17
 2749 00d8 B742     		.uleb128 0x2137
 2750 00da 17       		.uleb128 0x17
 2751 00db 00       		.byte	0
 2752 00dc 00       		.byte	0
 2753 00dd 12       		.uleb128 0x12
 2754 00de 05       		.uleb128 0x5
 2755 00df 00       		.byte	0
 2756 00e0 03       		.uleb128 0x3
 2757 00e1 08       		.uleb128 0x8
 2758 00e2 3A       		.uleb128 0x3a
 2759 00e3 21       		.uleb128 0x21
 2760 00e4 01       		.sleb128 1
 2761 00e5 3B       		.uleb128 0x3b
 2762 00e6 0B       		.uleb128 0xb
 2763 00e7 39       		.uleb128 0x39
 2764 00e8 0B       		.uleb128 0xb
 2765 00e9 49       		.uleb128 0x49
 2766 00ea 13       		.uleb128 0x13
 2767 00eb 00       		.byte	0
 2768 00ec 00       		.byte	0
 2769 00ed 13       		.uleb128 0x13
 2770 00ee 1D       		.uleb128 0x1d
 2771 00ef 01       		.byte	0x1
 2772 00f0 31       		.uleb128 0x31
 2773 00f1 13       		.uleb128 0x13
 2774 00f2 52       		.uleb128 0x52
 2775 00f3 01       		.uleb128 0x1
 2776 00f4 B842     		.uleb128 0x2138
 2777 00f6 0B       		.uleb128 0xb
 2778 00f7 11       		.uleb128 0x11
 2779 00f8 01       		.uleb128 0x1
 2780 00f9 12       		.uleb128 0x12
 2781 00fa 06       		.uleb128 0x6
 2782 00fb 58       		.uleb128 0x58
 2783 00fc 21       		.uleb128 0x21
 2784 00fd 01       		.sleb128 1
 2785 00fe 59       		.uleb128 0x59
 2786 00ff 0B       		.uleb128 0xb
 2787 0100 57       		.uleb128 0x57
 2788 0101 21       		.uleb128 0x21
 2789 0102 07       		.sleb128 7
 2790 0103 01       		.uleb128 0x1
 2791 0104 13       		.uleb128 0x13
 2792 0105 00       		.byte	0
 2793 0106 00       		.byte	0
ARM GAS  /tmp/cccw1Yxa.s 			page 50


 2794 0107 14       		.uleb128 0x14
 2795 0108 13       		.uleb128 0x13
 2796 0109 01       		.byte	0x1
 2797 010a 0B       		.uleb128 0xb
 2798 010b 0B       		.uleb128 0xb
 2799 010c 3A       		.uleb128 0x3a
 2800 010d 0B       		.uleb128 0xb
 2801 010e 3B       		.uleb128 0x3b
 2802 010f 0B       		.uleb128 0xb
 2803 0110 39       		.uleb128 0x39
 2804 0111 21       		.uleb128 0x21
 2805 0112 09       		.sleb128 9
 2806 0113 01       		.uleb128 0x1
 2807 0114 13       		.uleb128 0x13
 2808 0115 00       		.byte	0
 2809 0116 00       		.byte	0
 2810 0117 15       		.uleb128 0x15
 2811 0118 2E       		.uleb128 0x2e
 2812 0119 01       		.byte	0x1
 2813 011a 3F       		.uleb128 0x3f
 2814 011b 19       		.uleb128 0x19
 2815 011c 03       		.uleb128 0x3
 2816 011d 0E       		.uleb128 0xe
 2817 011e 3A       		.uleb128 0x3a
 2818 011f 21       		.uleb128 0x21
 2819 0120 08       		.sleb128 8
 2820 0121 3B       		.uleb128 0x3b
 2821 0122 0B       		.uleb128 0xb
 2822 0123 39       		.uleb128 0x39
 2823 0124 21       		.uleb128 0x21
 2824 0125 08       		.sleb128 8
 2825 0126 27       		.uleb128 0x27
 2826 0127 19       		.uleb128 0x19
 2827 0128 3C       		.uleb128 0x3c
 2828 0129 19       		.uleb128 0x19
 2829 012a 01       		.uleb128 0x1
 2830 012b 13       		.uleb128 0x13
 2831 012c 00       		.byte	0
 2832 012d 00       		.byte	0
 2833 012e 16       		.uleb128 0x16
 2834 012f 2E       		.uleb128 0x2e
 2835 0130 01       		.byte	0x1
 2836 0131 3F       		.uleb128 0x3f
 2837 0132 19       		.uleb128 0x19
 2838 0133 03       		.uleb128 0x3
 2839 0134 0E       		.uleb128 0xe
 2840 0135 3A       		.uleb128 0x3a
 2841 0136 21       		.uleb128 0x21
 2842 0137 01       		.sleb128 1
 2843 0138 3B       		.uleb128 0x3b
 2844 0139 05       		.uleb128 0x5
 2845 013a 39       		.uleb128 0x39
 2846 013b 21       		.uleb128 0x21
 2847 013c 07       		.sleb128 7
 2848 013d 27       		.uleb128 0x27
 2849 013e 19       		.uleb128 0x19
 2850 013f 49       		.uleb128 0x49
ARM GAS  /tmp/cccw1Yxa.s 			page 51


 2851 0140 13       		.uleb128 0x13
 2852 0141 11       		.uleb128 0x11
 2853 0142 01       		.uleb128 0x1
 2854 0143 12       		.uleb128 0x12
 2855 0144 06       		.uleb128 0x6
 2856 0145 40       		.uleb128 0x40
 2857 0146 18       		.uleb128 0x18
 2858 0147 7A       		.uleb128 0x7a
 2859 0148 19       		.uleb128 0x19
 2860 0149 01       		.uleb128 0x1
 2861 014a 13       		.uleb128 0x13
 2862 014b 00       		.byte	0
 2863 014c 00       		.byte	0
 2864 014d 17       		.uleb128 0x17
 2865 014e 05       		.uleb128 0x5
 2866 014f 00       		.byte	0
 2867 0150 03       		.uleb128 0x3
 2868 0151 0E       		.uleb128 0xe
 2869 0152 3A       		.uleb128 0x3a
 2870 0153 21       		.uleb128 0x21
 2871 0154 01       		.sleb128 1
 2872 0155 3B       		.uleb128 0x3b
 2873 0156 05       		.uleb128 0x5
 2874 0157 39       		.uleb128 0x39
 2875 0158 0B       		.uleb128 0xb
 2876 0159 49       		.uleb128 0x49
 2877 015a 13       		.uleb128 0x13
 2878 015b 02       		.uleb128 0x2
 2879 015c 17       		.uleb128 0x17
 2880 015d B742     		.uleb128 0x2137
 2881 015f 17       		.uleb128 0x17
 2882 0160 00       		.byte	0
 2883 0161 00       		.byte	0
 2884 0162 18       		.uleb128 0x18
 2885 0163 2E       		.uleb128 0x2e
 2886 0164 01       		.byte	0x1
 2887 0165 3F       		.uleb128 0x3f
 2888 0166 19       		.uleb128 0x19
 2889 0167 03       		.uleb128 0x3
 2890 0168 0E       		.uleb128 0xe
 2891 0169 3A       		.uleb128 0x3a
 2892 016a 21       		.uleb128 0x21
 2893 016b 01       		.sleb128 1
 2894 016c 3B       		.uleb128 0x3b
 2895 016d 0B       		.uleb128 0xb
 2896 016e 39       		.uleb128 0x39
 2897 016f 21       		.uleb128 0x21
 2898 0170 07       		.sleb128 7
 2899 0171 27       		.uleb128 0x27
 2900 0172 19       		.uleb128 0x19
 2901 0173 49       		.uleb128 0x49
 2902 0174 13       		.uleb128 0x13
 2903 0175 11       		.uleb128 0x11
 2904 0176 01       		.uleb128 0x1
 2905 0177 12       		.uleb128 0x12
 2906 0178 06       		.uleb128 0x6
 2907 0179 40       		.uleb128 0x40
ARM GAS  /tmp/cccw1Yxa.s 			page 52


 2908 017a 18       		.uleb128 0x18
 2909 017b 7A       		.uleb128 0x7a
 2910 017c 19       		.uleb128 0x19
 2911 017d 01       		.uleb128 0x1
 2912 017e 13       		.uleb128 0x13
 2913 017f 00       		.byte	0
 2914 0180 00       		.byte	0
 2915 0181 19       		.uleb128 0x19
 2916 0182 05       		.uleb128 0x5
 2917 0183 00       		.byte	0
 2918 0184 03       		.uleb128 0x3
 2919 0185 0E       		.uleb128 0xe
 2920 0186 3A       		.uleb128 0x3a
 2921 0187 21       		.uleb128 0x21
 2922 0188 01       		.sleb128 1
 2923 0189 3B       		.uleb128 0x3b
 2924 018a 21       		.uleb128 0x21
 2925 018b C902     		.sleb128 329
 2926 018d 39       		.uleb128 0x39
 2927 018e 0B       		.uleb128 0xb
 2928 018f 49       		.uleb128 0x49
 2929 0190 13       		.uleb128 0x13
 2930 0191 00       		.byte	0
 2931 0192 00       		.byte	0
 2932 0193 1A       		.uleb128 0x1a
 2933 0194 1D       		.uleb128 0x1d
 2934 0195 01       		.byte	0x1
 2935 0196 31       		.uleb128 0x31
 2936 0197 13       		.uleb128 0x13
 2937 0198 52       		.uleb128 0x52
 2938 0199 01       		.uleb128 0x1
 2939 019a B842     		.uleb128 0x2138
 2940 019c 0B       		.uleb128 0xb
 2941 019d 11       		.uleb128 0x11
 2942 019e 01       		.uleb128 0x1
 2943 019f 12       		.uleb128 0x12
 2944 01a0 06       		.uleb128 0x6
 2945 01a1 58       		.uleb128 0x58
 2946 01a2 21       		.uleb128 0x21
 2947 01a3 01       		.sleb128 1
 2948 01a4 59       		.uleb128 0x59
 2949 01a5 21       		.uleb128 0x21
 2950 01a6 C902     		.sleb128 329
 2951 01a8 57       		.uleb128 0x57
 2952 01a9 21       		.uleb128 0x21
 2953 01aa 07       		.sleb128 7
 2954 01ab 01       		.uleb128 0x1
 2955 01ac 13       		.uleb128 0x13
 2956 01ad 00       		.byte	0
 2957 01ae 00       		.byte	0
 2958 01af 1B       		.uleb128 0x1b
 2959 01b0 2E       		.uleb128 0x2e
 2960 01b1 01       		.byte	0x1
 2961 01b2 3F       		.uleb128 0x3f
 2962 01b3 19       		.uleb128 0x19
 2963 01b4 03       		.uleb128 0x3
 2964 01b5 0E       		.uleb128 0xe
ARM GAS  /tmp/cccw1Yxa.s 			page 53


 2965 01b6 3A       		.uleb128 0x3a
 2966 01b7 21       		.uleb128 0x21
 2967 01b8 01       		.sleb128 1
 2968 01b9 3B       		.uleb128 0x3b
 2969 01ba 0B       		.uleb128 0xb
 2970 01bb 39       		.uleb128 0x39
 2971 01bc 21       		.uleb128 0x21
 2972 01bd 07       		.sleb128 7
 2973 01be 27       		.uleb128 0x27
 2974 01bf 19       		.uleb128 0x19
 2975 01c0 49       		.uleb128 0x49
 2976 01c1 13       		.uleb128 0x13
 2977 01c2 20       		.uleb128 0x20
 2978 01c3 21       		.uleb128 0x21
 2979 01c4 01       		.sleb128 1
 2980 01c5 01       		.uleb128 0x1
 2981 01c6 13       		.uleb128 0x13
 2982 01c7 00       		.byte	0
 2983 01c8 00       		.byte	0
 2984 01c9 1C       		.uleb128 0x1c
 2985 01ca 05       		.uleb128 0x5
 2986 01cb 00       		.byte	0
 2987 01cc 03       		.uleb128 0x3
 2988 01cd 0E       		.uleb128 0xe
 2989 01ce 3A       		.uleb128 0x3a
 2990 01cf 21       		.uleb128 0x21
 2991 01d0 01       		.sleb128 1
 2992 01d1 3B       		.uleb128 0x3b
 2993 01d2 0B       		.uleb128 0xb
 2994 01d3 39       		.uleb128 0x39
 2995 01d4 0B       		.uleb128 0xb
 2996 01d5 49       		.uleb128 0x49
 2997 01d6 13       		.uleb128 0x13
 2998 01d7 00       		.byte	0
 2999 01d8 00       		.byte	0
 3000 01d9 1D       		.uleb128 0x1d
 3001 01da 34       		.uleb128 0x34
 3002 01db 00       		.byte	0
 3003 01dc 03       		.uleb128 0x3
 3004 01dd 0E       		.uleb128 0xe
 3005 01de 3A       		.uleb128 0x3a
 3006 01df 21       		.uleb128 0x21
 3007 01e0 01       		.sleb128 1
 3008 01e1 3B       		.uleb128 0x3b
 3009 01e2 0B       		.uleb128 0xb
 3010 01e3 39       		.uleb128 0x39
 3011 01e4 21       		.uleb128 0x21
 3012 01e5 09       		.sleb128 9
 3013 01e6 49       		.uleb128 0x49
 3014 01e7 13       		.uleb128 0x13
 3015 01e8 00       		.byte	0
 3016 01e9 00       		.byte	0
 3017 01ea 1E       		.uleb128 0x1e
 3018 01eb 05       		.uleb128 0x5
 3019 01ec 00       		.byte	0
 3020 01ed 03       		.uleb128 0x3
 3021 01ee 0E       		.uleb128 0xe
ARM GAS  /tmp/cccw1Yxa.s 			page 54


 3022 01ef 3A       		.uleb128 0x3a
 3023 01f0 21       		.uleb128 0x21
 3024 01f1 01       		.sleb128 1
 3025 01f2 3B       		.uleb128 0x3b
 3026 01f3 0B       		.uleb128 0xb
 3027 01f4 39       		.uleb128 0x39
 3028 01f5 0B       		.uleb128 0xb
 3029 01f6 49       		.uleb128 0x49
 3030 01f7 13       		.uleb128 0x13
 3031 01f8 02       		.uleb128 0x2
 3032 01f9 17       		.uleb128 0x17
 3033 01fa B742     		.uleb128 0x2137
 3034 01fc 17       		.uleb128 0x17
 3035 01fd 00       		.byte	0
 3036 01fe 00       		.byte	0
 3037 01ff 1F       		.uleb128 0x1f
 3038 0200 34       		.uleb128 0x34
 3039 0201 00       		.byte	0
 3040 0202 03       		.uleb128 0x3
 3041 0203 0E       		.uleb128 0xe
 3042 0204 3A       		.uleb128 0x3a
 3043 0205 21       		.uleb128 0x21
 3044 0206 01       		.sleb128 1
 3045 0207 3B       		.uleb128 0x3b
 3046 0208 0B       		.uleb128 0xb
 3047 0209 39       		.uleb128 0x39
 3048 020a 21       		.uleb128 0x21
 3049 020b 09       		.sleb128 9
 3050 020c 49       		.uleb128 0x49
 3051 020d 13       		.uleb128 0x13
 3052 020e 02       		.uleb128 0x2
 3053 020f 17       		.uleb128 0x17
 3054 0210 B742     		.uleb128 0x2137
 3055 0212 17       		.uleb128 0x17
 3056 0213 00       		.byte	0
 3057 0214 00       		.byte	0
 3058 0215 20       		.uleb128 0x20
 3059 0216 1D       		.uleb128 0x1d
 3060 0217 01       		.byte	0x1
 3061 0218 31       		.uleb128 0x31
 3062 0219 13       		.uleb128 0x13
 3063 021a 52       		.uleb128 0x52
 3064 021b 01       		.uleb128 0x1
 3065 021c B842     		.uleb128 0x2138
 3066 021e 0B       		.uleb128 0xb
 3067 021f 11       		.uleb128 0x11
 3068 0220 01       		.uleb128 0x1
 3069 0221 12       		.uleb128 0x12
 3070 0222 06       		.uleb128 0x6
 3071 0223 58       		.uleb128 0x58
 3072 0224 21       		.uleb128 0x21
 3073 0225 01       		.sleb128 1
 3074 0226 59       		.uleb128 0x59
 3075 0227 0B       		.uleb128 0xb
 3076 0228 57       		.uleb128 0x57
 3077 0229 21       		.uleb128 0x21
 3078 022a 0C       		.sleb128 12
ARM GAS  /tmp/cccw1Yxa.s 			page 55


 3079 022b 00       		.byte	0
 3080 022c 00       		.byte	0
 3081 022d 21       		.uleb128 0x21
 3082 022e 2E       		.uleb128 0x2e
 3083 022f 01       		.byte	0x1
 3084 0230 3F       		.uleb128 0x3f
 3085 0231 19       		.uleb128 0x19
 3086 0232 03       		.uleb128 0x3
 3087 0233 0E       		.uleb128 0xe
 3088 0234 3A       		.uleb128 0x3a
 3089 0235 21       		.uleb128 0x21
 3090 0236 01       		.sleb128 1
 3091 0237 3B       		.uleb128 0x3b
 3092 0238 0B       		.uleb128 0xb
 3093 0239 39       		.uleb128 0x39
 3094 023a 21       		.uleb128 0x21
 3095 023b 06       		.sleb128 6
 3096 023c 27       		.uleb128 0x27
 3097 023d 19       		.uleb128 0x19
 3098 023e 11       		.uleb128 0x11
 3099 023f 01       		.uleb128 0x1
 3100 0240 12       		.uleb128 0x12
 3101 0241 06       		.uleb128 0x6
 3102 0242 40       		.uleb128 0x40
 3103 0243 18       		.uleb128 0x18
 3104 0244 7A       		.uleb128 0x7a
 3105 0245 19       		.uleb128 0x19
 3106 0246 01       		.uleb128 0x1
 3107 0247 13       		.uleb128 0x13
 3108 0248 00       		.byte	0
 3109 0249 00       		.byte	0
 3110 024a 22       		.uleb128 0x22
 3111 024b 2E       		.uleb128 0x2e
 3112 024c 01       		.byte	0x1
 3113 024d 31       		.uleb128 0x31
 3114 024e 13       		.uleb128 0x13
 3115 024f 11       		.uleb128 0x11
 3116 0250 01       		.uleb128 0x1
 3117 0251 12       		.uleb128 0x12
 3118 0252 06       		.uleb128 0x6
 3119 0253 40       		.uleb128 0x40
 3120 0254 18       		.uleb128 0x18
 3121 0255 7A       		.uleb128 0x7a
 3122 0256 19       		.uleb128 0x19
 3123 0257 01       		.uleb128 0x1
 3124 0258 13       		.uleb128 0x13
 3125 0259 00       		.byte	0
 3126 025a 00       		.byte	0
 3127 025b 23       		.uleb128 0x23
 3128 025c 11       		.uleb128 0x11
 3129 025d 01       		.byte	0x1
 3130 025e 25       		.uleb128 0x25
 3131 025f 0E       		.uleb128 0xe
 3132 0260 13       		.uleb128 0x13
 3133 0261 0B       		.uleb128 0xb
 3134 0262 03       		.uleb128 0x3
 3135 0263 0E       		.uleb128 0xe
ARM GAS  /tmp/cccw1Yxa.s 			page 56


 3136 0264 1B       		.uleb128 0x1b
 3137 0265 0E       		.uleb128 0xe
 3138 0266 55       		.uleb128 0x55
 3139 0267 17       		.uleb128 0x17
 3140 0268 11       		.uleb128 0x11
 3141 0269 01       		.uleb128 0x1
 3142 026a 10       		.uleb128 0x10
 3143 026b 17       		.uleb128 0x17
 3144 026c 00       		.byte	0
 3145 026d 00       		.byte	0
 3146 026e 24       		.uleb128 0x24
 3147 026f 24       		.uleb128 0x24
 3148 0270 00       		.byte	0
 3149 0271 0B       		.uleb128 0xb
 3150 0272 0B       		.uleb128 0xb
 3151 0273 3E       		.uleb128 0x3e
 3152 0274 0B       		.uleb128 0xb
 3153 0275 03       		.uleb128 0x3
 3154 0276 08       		.uleb128 0x8
 3155 0277 00       		.byte	0
 3156 0278 00       		.byte	0
 3157 0279 25       		.uleb128 0x25
 3158 027a 35       		.uleb128 0x35
 3159 027b 00       		.byte	0
 3160 027c 49       		.uleb128 0x49
 3161 027d 13       		.uleb128 0x13
 3162 027e 00       		.byte	0
 3163 027f 00       		.byte	0
 3164 0280 26       		.uleb128 0x26
 3165 0281 0F       		.uleb128 0xf
 3166 0282 00       		.byte	0
 3167 0283 0B       		.uleb128 0xb
 3168 0284 0B       		.uleb128 0xb
 3169 0285 00       		.byte	0
 3170 0286 00       		.byte	0
 3171 0287 27       		.uleb128 0x27
 3172 0288 17       		.uleb128 0x17
 3173 0289 01       		.byte	0x1
 3174 028a 0B       		.uleb128 0xb
 3175 028b 0B       		.uleb128 0xb
 3176 028c 3A       		.uleb128 0x3a
 3177 028d 0B       		.uleb128 0xb
 3178 028e 3B       		.uleb128 0x3b
 3179 028f 0B       		.uleb128 0xb
 3180 0290 39       		.uleb128 0x39
 3181 0291 0B       		.uleb128 0xb
 3182 0292 01       		.uleb128 0x1
 3183 0293 13       		.uleb128 0x13
 3184 0294 00       		.byte	0
 3185 0295 00       		.byte	0
 3186 0296 28       		.uleb128 0x28
 3187 0297 26       		.uleb128 0x26
 3188 0298 00       		.byte	0
 3189 0299 49       		.uleb128 0x49
 3190 029a 13       		.uleb128 0x13
 3191 029b 00       		.byte	0
 3192 029c 00       		.byte	0
ARM GAS  /tmp/cccw1Yxa.s 			page 57


 3193 029d 29       		.uleb128 0x29
 3194 029e 2E       		.uleb128 0x2e
 3195 029f 01       		.byte	0x1
 3196 02a0 3F       		.uleb128 0x3f
 3197 02a1 19       		.uleb128 0x19
 3198 02a2 03       		.uleb128 0x3
 3199 02a3 0E       		.uleb128 0xe
 3200 02a4 3A       		.uleb128 0x3a
 3201 02a5 0B       		.uleb128 0xb
 3202 02a6 3B       		.uleb128 0x3b
 3203 02a7 0B       		.uleb128 0xb
 3204 02a8 39       		.uleb128 0x39
 3205 02a9 0B       		.uleb128 0xb
 3206 02aa 27       		.uleb128 0x27
 3207 02ab 19       		.uleb128 0x19
 3208 02ac 49       		.uleb128 0x49
 3209 02ad 13       		.uleb128 0x13
 3210 02ae 3C       		.uleb128 0x3c
 3211 02af 19       		.uleb128 0x19
 3212 02b0 01       		.uleb128 0x1
 3213 02b1 13       		.uleb128 0x13
 3214 02b2 00       		.byte	0
 3215 02b3 00       		.byte	0
 3216 02b4 2A       		.uleb128 0x2a
 3217 02b5 2E       		.uleb128 0x2e
 3218 02b6 00       		.byte	0
 3219 02b7 3F       		.uleb128 0x3f
 3220 02b8 19       		.uleb128 0x19
 3221 02b9 03       		.uleb128 0x3
 3222 02ba 0E       		.uleb128 0xe
 3223 02bb 3A       		.uleb128 0x3a
 3224 02bc 0B       		.uleb128 0xb
 3225 02bd 3B       		.uleb128 0x3b
 3226 02be 0B       		.uleb128 0xb
 3227 02bf 39       		.uleb128 0x39
 3228 02c0 0B       		.uleb128 0xb
 3229 02c1 27       		.uleb128 0x27
 3230 02c2 19       		.uleb128 0x19
 3231 02c3 3C       		.uleb128 0x3c
 3232 02c4 19       		.uleb128 0x19
 3233 02c5 00       		.byte	0
 3234 02c6 00       		.byte	0
 3235 02c7 2B       		.uleb128 0x2b
 3236 02c8 2E       		.uleb128 0x2e
 3237 02c9 01       		.byte	0x1
 3238 02ca 3F       		.uleb128 0x3f
 3239 02cb 19       		.uleb128 0x19
 3240 02cc 03       		.uleb128 0x3
 3241 02cd 0E       		.uleb128 0xe
 3242 02ce 3A       		.uleb128 0x3a
 3243 02cf 0B       		.uleb128 0xb
 3244 02d0 3B       		.uleb128 0x3b
 3245 02d1 05       		.uleb128 0x5
 3246 02d2 39       		.uleb128 0x39
 3247 02d3 0B       		.uleb128 0xb
 3248 02d4 27       		.uleb128 0x27
 3249 02d5 19       		.uleb128 0x19
ARM GAS  /tmp/cccw1Yxa.s 			page 58


 3250 02d6 49       		.uleb128 0x49
 3251 02d7 13       		.uleb128 0x13
 3252 02d8 20       		.uleb128 0x20
 3253 02d9 0B       		.uleb128 0xb
 3254 02da 01       		.uleb128 0x1
 3255 02db 13       		.uleb128 0x13
 3256 02dc 00       		.byte	0
 3257 02dd 00       		.byte	0
 3258 02de 2C       		.uleb128 0x2c
 3259 02df 05       		.uleb128 0x5
 3260 02e0 00       		.byte	0
 3261 02e1 03       		.uleb128 0x3
 3262 02e2 08       		.uleb128 0x8
 3263 02e3 3A       		.uleb128 0x3a
 3264 02e4 0B       		.uleb128 0xb
 3265 02e5 3B       		.uleb128 0x3b
 3266 02e6 05       		.uleb128 0x5
 3267 02e7 39       		.uleb128 0x39
 3268 02e8 0B       		.uleb128 0xb
 3269 02e9 49       		.uleb128 0x49
 3270 02ea 13       		.uleb128 0x13
 3271 02eb 00       		.byte	0
 3272 02ec 00       		.byte	0
 3273 02ed 2D       		.uleb128 0x2d
 3274 02ee 34       		.uleb128 0x34
 3275 02ef 00       		.byte	0
 3276 02f0 03       		.uleb128 0x3
 3277 02f1 0E       		.uleb128 0xe
 3278 02f2 3A       		.uleb128 0x3a
 3279 02f3 0B       		.uleb128 0xb
 3280 02f4 3B       		.uleb128 0x3b
 3281 02f5 05       		.uleb128 0x5
 3282 02f6 39       		.uleb128 0x39
 3283 02f7 0B       		.uleb128 0xb
 3284 02f8 49       		.uleb128 0x49
 3285 02f9 13       		.uleb128 0x13
 3286 02fa 00       		.byte	0
 3287 02fb 00       		.byte	0
 3288 02fc 2E       		.uleb128 0x2e
 3289 02fd 34       		.uleb128 0x34
 3290 02fe 00       		.byte	0
 3291 02ff 03       		.uleb128 0x3
 3292 0300 0E       		.uleb128 0xe
 3293 0301 3A       		.uleb128 0x3a
 3294 0302 0B       		.uleb128 0xb
 3295 0303 3B       		.uleb128 0x3b
 3296 0304 05       		.uleb128 0x5
 3297 0305 39       		.uleb128 0x39
 3298 0306 0B       		.uleb128 0xb
 3299 0307 49       		.uleb128 0x49
 3300 0308 13       		.uleb128 0x13
 3301 0309 02       		.uleb128 0x2
 3302 030a 17       		.uleb128 0x17
 3303 030b B742     		.uleb128 0x2137
 3304 030d 17       		.uleb128 0x17
 3305 030e 00       		.byte	0
 3306 030f 00       		.byte	0
ARM GAS  /tmp/cccw1Yxa.s 			page 59


 3307 0310 2F       		.uleb128 0x2f
 3308 0311 1D       		.uleb128 0x1d
 3309 0312 01       		.byte	0x1
 3310 0313 31       		.uleb128 0x31
 3311 0314 13       		.uleb128 0x13
 3312 0315 52       		.uleb128 0x52
 3313 0316 01       		.uleb128 0x1
 3314 0317 B842     		.uleb128 0x2138
 3315 0319 0B       		.uleb128 0xb
 3316 031a 11       		.uleb128 0x11
 3317 031b 01       		.uleb128 0x1
 3318 031c 12       		.uleb128 0x12
 3319 031d 06       		.uleb128 0x6
 3320 031e 58       		.uleb128 0x58
 3321 031f 0B       		.uleb128 0xb
 3322 0320 59       		.uleb128 0x59
 3323 0321 05       		.uleb128 0x5
 3324 0322 57       		.uleb128 0x57
 3325 0323 0B       		.uleb128 0xb
 3326 0324 00       		.byte	0
 3327 0325 00       		.byte	0
 3328 0326 30       		.uleb128 0x30
 3329 0327 48       		.uleb128 0x48
 3330 0328 01       		.byte	0x1
 3331 0329 7D       		.uleb128 0x7d
 3332 032a 01       		.uleb128 0x1
 3333 032b 8201     		.uleb128 0x82
 3334 032d 19       		.uleb128 0x19
 3335 032e 7F       		.uleb128 0x7f
 3336 032f 13       		.uleb128 0x13
 3337 0330 00       		.byte	0
 3338 0331 00       		.byte	0
 3339 0332 31       		.uleb128 0x31
 3340 0333 2E       		.uleb128 0x2e
 3341 0334 01       		.byte	0x1
 3342 0335 31       		.uleb128 0x31
 3343 0336 13       		.uleb128 0x13
 3344 0337 11       		.uleb128 0x11
 3345 0338 01       		.uleb128 0x1
 3346 0339 12       		.uleb128 0x12
 3347 033a 06       		.uleb128 0x6
 3348 033b 40       		.uleb128 0x40
 3349 033c 18       		.uleb128 0x18
 3350 033d 7A       		.uleb128 0x7a
 3351 033e 19       		.uleb128 0x19
 3352 033f 00       		.byte	0
 3353 0340 00       		.byte	0
 3354 0341 00       		.byte	0
 3355              		.section	.debug_loclists,"",%progbits
 3356 0000 F9040000 		.4byte	.Ldebug_loc3-.Ldebug_loc2
 3357              	.Ldebug_loc2:
 3358 0004 0500     		.2byte	0x5
 3359 0006 04       		.byte	0x4
 3360 0007 00       		.byte	0
 3361 0008 00000000 		.4byte	0
 3362              	.Ldebug_loc0:
 3363              	.LVUS62:
ARM GAS  /tmp/cccw1Yxa.s 			page 60


 3364 000c 00       		.uleb128 0
 3365 000d 00       		.uleb128 .LVU347
 3366 000e 00       		.uleb128 .LVU347
 3367 000f 00       		.uleb128 .LVU352
 3368 0010 00       		.uleb128 .LVU352
 3369 0011 00       		.uleb128 .LVU355
 3370 0012 00       		.uleb128 .LVU355
 3371 0013 00       		.uleb128 .LVU356
 3372 0014 00       		.uleb128 .LVU356
 3373 0015 00       		.uleb128 0
 3374              	.LLST62:
 3375 0016 06       		.byte	0x6
 3376 0017 00000000 		.4byte	.LVL73
 3377 001b 04       		.byte	0x4
 3378 001c 00       		.uleb128 .LVL73-.LVL73
 3379 001d 34       		.uleb128 .LVL74-.LVL73
 3380 001e 01       		.uleb128 0x1
 3381 001f 50       		.byte	0x50
 3382 0020 04       		.byte	0x4
 3383 0021 34       		.uleb128 .LVL74-.LVL73
 3384 0022 43       		.uleb128 .LVL75-1-.LVL73
 3385 0023 03       		.uleb128 0x3
 3386 0024 70       		.byte	0x70
 3387 0025 64       		.sleb128 -28
 3388 0026 9F       		.byte	0x9f
 3389 0027 04       		.byte	0x4
 3390 0028 43       		.uleb128 .LVL75-1-.LVL73
 3391 0029 4C       		.uleb128 .LVL76-.LVL73
 3392 002a 04       		.uleb128 0x4
 3393 002b A3       		.byte	0xa3
 3394 002c 01       		.uleb128 0x1
 3395 002d 50       		.byte	0x50
 3396 002e 9F       		.byte	0x9f
 3397 002f 04       		.byte	0x4
 3398 0030 4C       		.uleb128 .LVL76-.LVL73
 3399 0031 50       		.uleb128 .LVL77-.LVL73
 3400 0032 01       		.uleb128 0x1
 3401 0033 50       		.byte	0x50
 3402 0034 04       		.byte	0x4
 3403 0035 50       		.uleb128 .LVL77-.LVL73
 3404 0036 54       		.uleb128 .LFE17-.LVL73
 3405 0037 04       		.uleb128 0x4
 3406 0038 A3       		.byte	0xa3
 3407 0039 01       		.uleb128 0x1
 3408 003a 50       		.byte	0x50
 3409 003b 9F       		.byte	0x9f
 3410 003c 00       		.byte	0
 3411              	.LVUS63:
 3412 003d 00       		.uleb128 0
 3413 003e 00       		.uleb128 .LVU352
 3414 003f 00       		.uleb128 .LVU352
 3415 0040 00       		.uleb128 .LVU355
 3416 0041 00       		.uleb128 .LVU355
 3417 0042 00       		.uleb128 0
 3418              	.LLST63:
 3419 0043 06       		.byte	0x6
 3420 0044 00000000 		.4byte	.LVL73
ARM GAS  /tmp/cccw1Yxa.s 			page 61


 3421 0048 04       		.byte	0x4
 3422 0049 00       		.uleb128 .LVL73-.LVL73
 3423 004a 43       		.uleb128 .LVL75-1-.LVL73
 3424 004b 01       		.uleb128 0x1
 3425 004c 51       		.byte	0x51
 3426 004d 04       		.byte	0x4
 3427 004e 43       		.uleb128 .LVL75-1-.LVL73
 3428 004f 4C       		.uleb128 .LVL76-.LVL73
 3429 0050 04       		.uleb128 0x4
 3430 0051 A3       		.byte	0xa3
 3431 0052 01       		.uleb128 0x1
 3432 0053 51       		.byte	0x51
 3433 0054 9F       		.byte	0x9f
 3434 0055 04       		.byte	0x4
 3435 0056 4C       		.uleb128 .LVL76-.LVL73
 3436 0057 54       		.uleb128 .LFE17-.LVL73
 3437 0058 01       		.uleb128 0x1
 3438 0059 51       		.byte	0x51
 3439 005a 00       		.byte	0
 3440              	.LVUS44:
 3441 005b 00       		.uleb128 0
 3442 005c 00       		.uleb128 .LVU268
 3443 005d 00       		.uleb128 .LVU268
 3444 005e 00       		.uleb128 0
 3445              	.LLST44:
 3446 005f 06       		.byte	0x6
 3447 0060 00000000 		.4byte	.LVL56
 3448 0064 04       		.byte	0x4
 3449 0065 00       		.uleb128 .LVL56-.LVL56
 3450 0066 18       		.uleb128 .LVL59-.LVL56
 3451 0067 01       		.uleb128 0x1
 3452 0068 50       		.byte	0x50
 3453 0069 04       		.byte	0x4
 3454 006a 18       		.uleb128 .LVL59-.LVL56
 3455 006b 60       		.uleb128 .LFE15-.LVL56
 3456 006c 01       		.uleb128 0x1
 3457 006d 54       		.byte	0x54
 3458 006e 00       		.byte	0
 3459              	.LVUS45:
 3460 006f 00       		.uleb128 0
 3461 0070 00       		.uleb128 .LVU256
 3462 0071 00       		.uleb128 .LVU256
 3463 0072 00       		.uleb128 0
 3464              	.LLST45:
 3465 0073 06       		.byte	0x6
 3466 0074 00000000 		.4byte	.LVL56
 3467 0078 04       		.byte	0x4
 3468 0079 00       		.uleb128 .LVL56-.LVL56
 3469 007a 10       		.uleb128 .LVL57-.LVL56
 3470 007b 01       		.uleb128 0x1
 3471 007c 51       		.byte	0x51
 3472 007d 04       		.byte	0x4
 3473 007e 10       		.uleb128 .LVL57-.LVL56
 3474 007f 60       		.uleb128 .LFE15-.LVL56
 3475 0080 01       		.uleb128 0x1
 3476 0081 56       		.byte	0x56
 3477 0082 00       		.byte	0
ARM GAS  /tmp/cccw1Yxa.s 			page 62


 3478              	.LVUS46:
 3479 0083 00       		.uleb128 0
 3480 0084 00       		.uleb128 .LVU269
 3481 0085 00       		.uleb128 .LVU269
 3482 0086 00       		.uleb128 0
 3483              	.LLST46:
 3484 0087 06       		.byte	0x6
 3485 0088 00000000 		.4byte	.LVL56
 3486 008c 04       		.byte	0x4
 3487 008d 00       		.uleb128 .LVL56-.LVL56
 3488 008e 1B       		.uleb128 .LVL60-1-.LVL56
 3489 008f 01       		.uleb128 0x1
 3490 0090 52       		.byte	0x52
 3491 0091 04       		.byte	0x4
 3492 0092 1B       		.uleb128 .LVL60-1-.LVL56
 3493 0093 60       		.uleb128 .LFE15-.LVL56
 3494 0094 04       		.uleb128 0x4
 3495 0095 A3       		.byte	0xa3
 3496 0096 01       		.uleb128 0x1
 3497 0097 52       		.byte	0x52
 3498 0098 9F       		.byte	0x9f
 3499 0099 00       		.byte	0
 3500              	.LVUS47:
 3501 009a 02       		.uleb128 .LVU288
 3502 009b 00       		.uleb128 0
 3503              	.LLST47:
 3504 009c 08       		.byte	0x8
 3505 009d 54000000 		.4byte	.LVL64
 3506 00a1 0C       		.uleb128 .LFE15-.LVL64
 3507 00a2 01       		.uleb128 0x1
 3508 00a3 55       		.byte	0x55
 3509 00a4 00       		.byte	0
 3510              	.LVUS48:
 3511 00a5 03       		.uleb128 .LVU260
 3512 00a6 00       		.uleb128 .LVU269
 3513 00a7 00       		.uleb128 .LVU269
 3514 00a8 02       		.uleb128 .LVU288
 3515              	.LLST48:
 3516 00a9 06       		.byte	0x6
 3517 00aa 14000000 		.4byte	.LVL58
 3518 00ae 04       		.byte	0x4
 3519 00af 00       		.uleb128 .LVL58-.LVL58
 3520 00b0 07       		.uleb128 .LVL60-1-.LVL58
 3521 00b1 01       		.uleb128 0x1
 3522 00b2 52       		.byte	0x52
 3523 00b3 04       		.byte	0x4
 3524 00b4 07       		.uleb128 .LVL60-1-.LVL58
 3525 00b5 40       		.uleb128 .LVL64-.LVL58
 3526 00b6 04       		.uleb128 0x4
 3527 00b7 A3       		.byte	0xa3
 3528 00b8 01       		.uleb128 0x1
 3529 00b9 52       		.byte	0x52
 3530 00ba 9F       		.byte	0x9f
 3531 00bb 00       		.byte	0
 3532              	.LVUS49:
 3533 00bc 03       		.uleb128 .LVU260
 3534 00bd 02       		.uleb128 .LVU288
ARM GAS  /tmp/cccw1Yxa.s 			page 63


 3535              	.LLST49:
 3536 00be 08       		.byte	0x8
 3537 00bf 14000000 		.4byte	.LVL58
 3538 00c3 40       		.uleb128 .LVL64-.LVL58
 3539 00c4 01       		.uleb128 0x1
 3540 00c5 56       		.byte	0x56
 3541 00c6 00       		.byte	0
 3542              	.LVUS50:
 3543 00c7 03       		.uleb128 .LVU260
 3544 00c8 00       		.uleb128 .LVU268
 3545 00c9 00       		.uleb128 .LVU268
 3546 00ca 02       		.uleb128 .LVU288
 3547              	.LLST50:
 3548 00cb 06       		.byte	0x6
 3549 00cc 14000000 		.4byte	.LVL58
 3550 00d0 04       		.byte	0x4
 3551 00d1 00       		.uleb128 .LVL58-.LVL58
 3552 00d2 04       		.uleb128 .LVL59-.LVL58
 3553 00d3 01       		.uleb128 0x1
 3554 00d4 50       		.byte	0x50
 3555 00d5 04       		.byte	0x4
 3556 00d6 04       		.uleb128 .LVL59-.LVL58
 3557 00d7 40       		.uleb128 .LVL64-.LVL58
 3558 00d8 01       		.uleb128 0x1
 3559 00d9 54       		.byte	0x54
 3560 00da 00       		.byte	0
 3561              	.LVUS51:
 3562 00db 00       		.uleb128 .LVU269
 3563 00dc 00       		.uleb128 .LVU275
 3564 00dd 00       		.uleb128 .LVU275
 3565 00de 02       		.uleb128 .LVU288
 3566              	.LLST51:
 3567 00df 06       		.byte	0x6
 3568 00e0 1C000000 		.4byte	.LVL60
 3569 00e4 04       		.byte	0x4
 3570 00e5 00       		.uleb128 .LVL60-.LVL60
 3571 00e6 10       		.uleb128 .LVL62-.LVL60
 3572 00e7 01       		.uleb128 0x1
 3573 00e8 50       		.byte	0x50
 3574 00e9 04       		.byte	0x4
 3575 00ea 10       		.uleb128 .LVL62-.LVL60
 3576 00eb 38       		.uleb128 .LVL64-.LVL60
 3577 00ec 01       		.uleb128 0x1
 3578 00ed 55       		.byte	0x55
 3579 00ee 00       		.byte	0
 3580              	.LVUS52:
 3581 00ef 01       		.uleb128 .LVU272
 3582 00f0 00       		.uleb128 .LVU286
 3583              	.LLST52:
 3584 00f1 08       		.byte	0x8
 3585 00f2 24000000 		.4byte	.LVL61
 3586 00f6 30       		.uleb128 .LVL64-.LVL61
 3587 00f7 04       		.uleb128 0x4
 3588 00f8 A3       		.byte	0xa3
 3589 00f9 01       		.uleb128 0x1
 3590 00fa 52       		.byte	0x52
 3591 00fb 9F       		.byte	0x9f
ARM GAS  /tmp/cccw1Yxa.s 			page 64


 3592 00fc 00       		.byte	0
 3593              	.LVUS53:
 3594 00fd 00       		.uleb128 .LVU271
 3595 00fe 00       		.uleb128 .LVU286
 3596              	.LLST53:
 3597 00ff 08       		.byte	0x8
 3598 0100 24000000 		.4byte	.LVL61
 3599 0104 30       		.uleb128 .LVL64-.LVL61
 3600 0105 01       		.uleb128 0x1
 3601 0106 56       		.byte	0x56
 3602 0107 00       		.byte	0
 3603              	.LVUS54:
 3604 0108 00       		.uleb128 .LVU271
 3605 0109 00       		.uleb128 .LVU286
 3606              	.LLST54:
 3607 010a 08       		.byte	0x8
 3608 010b 24000000 		.4byte	.LVL61
 3609 010f 30       		.uleb128 .LVL64-.LVL61
 3610 0110 01       		.uleb128 0x1
 3611 0111 54       		.byte	0x54
 3612 0112 00       		.byte	0
 3613              	.LVUS42:
 3614 0113 00       		.uleb128 0
 3615 0114 00       		.uleb128 .LVU244
 3616 0115 00       		.uleb128 .LVU244
 3617 0116 00       		.uleb128 .LVU245
 3618 0117 00       		.uleb128 .LVU245
 3619 0118 00       		.uleb128 .LVU248
 3620 0119 00       		.uleb128 .LVU248
 3621 011a 00       		.uleb128 .LVU249
 3622 011b 00       		.uleb128 .LVU249
 3623 011c 00       		.uleb128 0
 3624              	.LLST42:
 3625 011d 06       		.byte	0x6
 3626 011e 00000000 		.4byte	.LVL51
 3627 0122 04       		.byte	0x4
 3628 0123 00       		.uleb128 .LVL51-.LVL51
 3629 0124 40       		.uleb128 .LVL52-.LVL51
 3630 0125 01       		.uleb128 0x1
 3631 0126 50       		.byte	0x50
 3632 0127 04       		.byte	0x4
 3633 0128 40       		.uleb128 .LVL52-.LVL51
 3634 0129 43       		.uleb128 .LVL53-1-.LVL51
 3635 012a 03       		.uleb128 0x3
 3636 012b 70       		.byte	0x70
 3637 012c 70       		.sleb128 -16
 3638 012d 9F       		.byte	0x9f
 3639 012e 04       		.byte	0x4
 3640 012f 43       		.uleb128 .LVL53-1-.LVL51
 3641 0130 4C       		.uleb128 .LVL54-.LVL51
 3642 0131 04       		.uleb128 0x4
 3643 0132 A3       		.byte	0xa3
 3644 0133 01       		.uleb128 0x1
 3645 0134 50       		.byte	0x50
 3646 0135 9F       		.byte	0x9f
 3647 0136 04       		.byte	0x4
 3648 0137 4C       		.uleb128 .LVL54-.LVL51
ARM GAS  /tmp/cccw1Yxa.s 			page 65


 3649 0138 50       		.uleb128 .LVL55-.LVL51
 3650 0139 01       		.uleb128 0x1
 3651 013a 50       		.byte	0x50
 3652 013b 04       		.byte	0x4
 3653 013c 50       		.uleb128 .LVL55-.LVL51
 3654 013d 54       		.uleb128 .LFE14-.LVL51
 3655 013e 04       		.uleb128 0x4
 3656 013f A3       		.byte	0xa3
 3657 0140 01       		.uleb128 0x1
 3658 0141 50       		.byte	0x50
 3659 0142 9F       		.byte	0x9f
 3660 0143 00       		.byte	0
 3661              	.LVUS43:
 3662 0144 00       		.uleb128 0
 3663 0145 00       		.uleb128 .LVU245
 3664 0146 00       		.uleb128 .LVU245
 3665 0147 00       		.uleb128 .LVU248
 3666 0148 00       		.uleb128 .LVU248
 3667 0149 00       		.uleb128 0
 3668              	.LLST43:
 3669 014a 06       		.byte	0x6
 3670 014b 00000000 		.4byte	.LVL51
 3671 014f 04       		.byte	0x4
 3672 0150 00       		.uleb128 .LVL51-.LVL51
 3673 0151 43       		.uleb128 .LVL53-1-.LVL51
 3674 0152 01       		.uleb128 0x1
 3675 0153 51       		.byte	0x51
 3676 0154 04       		.byte	0x4
 3677 0155 43       		.uleb128 .LVL53-1-.LVL51
 3678 0156 4C       		.uleb128 .LVL54-.LVL51
 3679 0157 04       		.uleb128 0x4
 3680 0158 A3       		.byte	0xa3
 3681 0159 01       		.uleb128 0x1
 3682 015a 51       		.byte	0x51
 3683 015b 9F       		.byte	0x9f
 3684 015c 04       		.byte	0x4
 3685 015d 4C       		.uleb128 .LVL54-.LVL51
 3686 015e 54       		.uleb128 .LFE14-.LVL51
 3687 015f 01       		.uleb128 0x1
 3688 0160 51       		.byte	0x51
 3689 0161 00       		.byte	0
 3690              	.LVUS24:
 3691 0162 00       		.uleb128 0
 3692 0163 00       		.uleb128 .LVU161
 3693 0164 00       		.uleb128 .LVU161
 3694 0165 00       		.uleb128 0
 3695              	.LLST24:
 3696 0166 06       		.byte	0x6
 3697 0167 00000000 		.4byte	.LVL34
 3698 016b 04       		.byte	0x4
 3699 016c 00       		.uleb128 .LVL34-.LVL34
 3700 016d 18       		.uleb128 .LVL37-.LVL34
 3701 016e 01       		.uleb128 0x1
 3702 016f 50       		.byte	0x50
 3703 0170 04       		.byte	0x4
 3704 0171 18       		.uleb128 .LVL37-.LVL34
 3705 0172 60       		.uleb128 .LFE12-.LVL34
ARM GAS  /tmp/cccw1Yxa.s 			page 66


 3706 0173 01       		.uleb128 0x1
 3707 0174 54       		.byte	0x54
 3708 0175 00       		.byte	0
 3709              	.LVUS25:
 3710 0176 00       		.uleb128 0
 3711 0177 00       		.uleb128 .LVU149
 3712 0178 00       		.uleb128 .LVU149
 3713 0179 00       		.uleb128 0
 3714              	.LLST25:
 3715 017a 06       		.byte	0x6
 3716 017b 00000000 		.4byte	.LVL34
 3717 017f 04       		.byte	0x4
 3718 0180 00       		.uleb128 .LVL34-.LVL34
 3719 0181 10       		.uleb128 .LVL35-.LVL34
 3720 0182 01       		.uleb128 0x1
 3721 0183 51       		.byte	0x51
 3722 0184 04       		.byte	0x4
 3723 0185 10       		.uleb128 .LVL35-.LVL34
 3724 0186 60       		.uleb128 .LFE12-.LVL34
 3725 0187 01       		.uleb128 0x1
 3726 0188 56       		.byte	0x56
 3727 0189 00       		.byte	0
 3728              	.LVUS26:
 3729 018a 00       		.uleb128 0
 3730 018b 00       		.uleb128 .LVU162
 3731 018c 00       		.uleb128 .LVU162
 3732 018d 00       		.uleb128 0
 3733              	.LLST26:
 3734 018e 06       		.byte	0x6
 3735 018f 00000000 		.4byte	.LVL34
 3736 0193 04       		.byte	0x4
 3737 0194 00       		.uleb128 .LVL34-.LVL34
 3738 0195 1B       		.uleb128 .LVL38-1-.LVL34
 3739 0196 01       		.uleb128 0x1
 3740 0197 52       		.byte	0x52
 3741 0198 04       		.byte	0x4
 3742 0199 1B       		.uleb128 .LVL38-1-.LVL34
 3743 019a 60       		.uleb128 .LFE12-.LVL34
 3744 019b 04       		.uleb128 0x4
 3745 019c A3       		.byte	0xa3
 3746 019d 01       		.uleb128 0x1
 3747 019e 52       		.byte	0x52
 3748 019f 9F       		.byte	0x9f
 3749 01a0 00       		.byte	0
 3750              	.LVUS27:
 3751 01a1 02       		.uleb128 .LVU181
 3752 01a2 00       		.uleb128 0
 3753              	.LLST27:
 3754 01a3 08       		.byte	0x8
 3755 01a4 54000000 		.4byte	.LVL42
 3756 01a8 0C       		.uleb128 .LFE12-.LVL42
 3757 01a9 01       		.uleb128 0x1
 3758 01aa 55       		.byte	0x55
 3759 01ab 00       		.byte	0
 3760              	.LVUS28:
 3761 01ac 03       		.uleb128 .LVU153
 3762 01ad 00       		.uleb128 .LVU162
ARM GAS  /tmp/cccw1Yxa.s 			page 67


 3763 01ae 00       		.uleb128 .LVU162
 3764 01af 02       		.uleb128 .LVU181
 3765              	.LLST28:
 3766 01b0 06       		.byte	0x6
 3767 01b1 14000000 		.4byte	.LVL36
 3768 01b5 04       		.byte	0x4
 3769 01b6 00       		.uleb128 .LVL36-.LVL36
 3770 01b7 07       		.uleb128 .LVL38-1-.LVL36
 3771 01b8 01       		.uleb128 0x1
 3772 01b9 52       		.byte	0x52
 3773 01ba 04       		.byte	0x4
 3774 01bb 07       		.uleb128 .LVL38-1-.LVL36
 3775 01bc 40       		.uleb128 .LVL42-.LVL36
 3776 01bd 04       		.uleb128 0x4
 3777 01be A3       		.byte	0xa3
 3778 01bf 01       		.uleb128 0x1
 3779 01c0 52       		.byte	0x52
 3780 01c1 9F       		.byte	0x9f
 3781 01c2 00       		.byte	0
 3782              	.LVUS29:
 3783 01c3 03       		.uleb128 .LVU153
 3784 01c4 02       		.uleb128 .LVU181
 3785              	.LLST29:
 3786 01c5 08       		.byte	0x8
 3787 01c6 14000000 		.4byte	.LVL36
 3788 01ca 40       		.uleb128 .LVL42-.LVL36
 3789 01cb 01       		.uleb128 0x1
 3790 01cc 56       		.byte	0x56
 3791 01cd 00       		.byte	0
 3792              	.LVUS30:
 3793 01ce 03       		.uleb128 .LVU153
 3794 01cf 00       		.uleb128 .LVU161
 3795 01d0 00       		.uleb128 .LVU161
 3796 01d1 02       		.uleb128 .LVU181
 3797              	.LLST30:
 3798 01d2 06       		.byte	0x6
 3799 01d3 14000000 		.4byte	.LVL36
 3800 01d7 04       		.byte	0x4
 3801 01d8 00       		.uleb128 .LVL36-.LVL36
 3802 01d9 04       		.uleb128 .LVL37-.LVL36
 3803 01da 01       		.uleb128 0x1
 3804 01db 50       		.byte	0x50
 3805 01dc 04       		.byte	0x4
 3806 01dd 04       		.uleb128 .LVL37-.LVL36
 3807 01de 40       		.uleb128 .LVL42-.LVL36
 3808 01df 01       		.uleb128 0x1
 3809 01e0 54       		.byte	0x54
 3810 01e1 00       		.byte	0
 3811              	.LVUS31:
 3812 01e2 00       		.uleb128 .LVU162
 3813 01e3 00       		.uleb128 .LVU174
 3814 01e4 00       		.uleb128 .LVU174
 3815 01e5 02       		.uleb128 .LVU181
 3816              	.LLST31:
 3817 01e6 06       		.byte	0x6
 3818 01e7 1C000000 		.4byte	.LVL38
 3819 01eb 04       		.byte	0x4
ARM GAS  /tmp/cccw1Yxa.s 			page 68


 3820 01ec 00       		.uleb128 .LVL38-.LVL38
 3821 01ed 24       		.uleb128 .LVL40-.LVL38
 3822 01ee 01       		.uleb128 0x1
 3823 01ef 50       		.byte	0x50
 3824 01f0 04       		.byte	0x4
 3825 01f1 24       		.uleb128 .LVL40-.LVL38
 3826 01f2 38       		.uleb128 .LVL42-.LVL38
 3827 01f3 01       		.uleb128 0x1
 3828 01f4 55       		.byte	0x55
 3829 01f5 00       		.byte	0
 3830              	.LVUS32:
 3831 01f6 01       		.uleb128 .LVU165
 3832 01f7 00       		.uleb128 .LVU179
 3833              	.LLST32:
 3834 01f8 08       		.byte	0x8
 3835 01f9 24000000 		.4byte	.LVL39
 3836 01fd 30       		.uleb128 .LVL42-.LVL39
 3837 01fe 04       		.uleb128 0x4
 3838 01ff A3       		.byte	0xa3
 3839 0200 01       		.uleb128 0x1
 3840 0201 52       		.byte	0x52
 3841 0202 9F       		.byte	0x9f
 3842 0203 00       		.byte	0
 3843              	.LVUS33:
 3844 0204 00       		.uleb128 .LVU164
 3845 0205 00       		.uleb128 .LVU179
 3846              	.LLST33:
 3847 0206 08       		.byte	0x8
 3848 0207 24000000 		.4byte	.LVL39
 3849 020b 30       		.uleb128 .LVL42-.LVL39
 3850 020c 01       		.uleb128 0x1
 3851 020d 56       		.byte	0x56
 3852 020e 00       		.byte	0
 3853              	.LVUS34:
 3854 020f 00       		.uleb128 .LVU164
 3855 0210 00       		.uleb128 .LVU179
 3856              	.LLST34:
 3857 0211 08       		.byte	0x8
 3858 0212 24000000 		.4byte	.LVL39
 3859 0216 30       		.uleb128 .LVL42-.LVL39
 3860 0217 01       		.uleb128 0x1
 3861 0218 54       		.byte	0x54
 3862 0219 00       		.byte	0
 3863              	.LVUS22:
 3864 021a 00       		.uleb128 0
 3865 021b 00       		.uleb128 .LVU136
 3866 021c 00       		.uleb128 .LVU136
 3867 021d 00       		.uleb128 .LVU138
 3868 021e 00       		.uleb128 .LVU138
 3869 021f 00       		.uleb128 .LVU141
 3870 0220 00       		.uleb128 .LVU141
 3871 0221 00       		.uleb128 .LVU142
 3872 0222 00       		.uleb128 .LVU142
 3873 0223 00       		.uleb128 0
 3874              	.LLST22:
 3875 0224 06       		.byte	0x6
 3876 0225 00000000 		.4byte	.LVL29
ARM GAS  /tmp/cccw1Yxa.s 			page 69


 3877 0229 04       		.byte	0x4
 3878 022a 00       		.uleb128 .LVL29-.LVL29
 3879 022b 38       		.uleb128 .LVL30-.LVL29
 3880 022c 01       		.uleb128 0x1
 3881 022d 50       		.byte	0x50
 3882 022e 04       		.byte	0x4
 3883 022f 38       		.uleb128 .LVL30-.LVL29
 3884 0230 3F       		.uleb128 .LVL31-1-.LVL29
 3885 0231 03       		.uleb128 0x3
 3886 0232 70       		.byte	0x70
 3887 0233 70       		.sleb128 -16
 3888 0234 9F       		.byte	0x9f
 3889 0235 04       		.byte	0x4
 3890 0236 3F       		.uleb128 .LVL31-1-.LVL29
 3891 0237 48       		.uleb128 .LVL32-.LVL29
 3892 0238 04       		.uleb128 0x4
 3893 0239 A3       		.byte	0xa3
 3894 023a 01       		.uleb128 0x1
 3895 023b 50       		.byte	0x50
 3896 023c 9F       		.byte	0x9f
 3897 023d 04       		.byte	0x4
 3898 023e 48       		.uleb128 .LVL32-.LVL29
 3899 023f 4C       		.uleb128 .LVL33-.LVL29
 3900 0240 01       		.uleb128 0x1
 3901 0241 50       		.byte	0x50
 3902 0242 04       		.byte	0x4
 3903 0243 4C       		.uleb128 .LVL33-.LVL29
 3904 0244 50       		.uleb128 .LFE11-.LVL29
 3905 0245 04       		.uleb128 0x4
 3906 0246 A3       		.byte	0xa3
 3907 0247 01       		.uleb128 0x1
 3908 0248 50       		.byte	0x50
 3909 0249 9F       		.byte	0x9f
 3910 024a 00       		.byte	0
 3911              	.LVUS23:
 3912 024b 00       		.uleb128 0
 3913 024c 00       		.uleb128 .LVU138
 3914 024d 00       		.uleb128 .LVU138
 3915 024e 00       		.uleb128 .LVU141
 3916 024f 00       		.uleb128 .LVU141
 3917 0250 00       		.uleb128 0
 3918              	.LLST23:
 3919 0251 06       		.byte	0x6
 3920 0252 00000000 		.4byte	.LVL29
 3921 0256 04       		.byte	0x4
 3922 0257 00       		.uleb128 .LVL29-.LVL29
 3923 0258 3F       		.uleb128 .LVL31-1-.LVL29
 3924 0259 01       		.uleb128 0x1
 3925 025a 51       		.byte	0x51
 3926 025b 04       		.byte	0x4
 3927 025c 3F       		.uleb128 .LVL31-1-.LVL29
 3928 025d 48       		.uleb128 .LVL32-.LVL29
 3929 025e 04       		.uleb128 0x4
 3930 025f A3       		.byte	0xa3
 3931 0260 01       		.uleb128 0x1
 3932 0261 51       		.byte	0x51
 3933 0262 9F       		.byte	0x9f
ARM GAS  /tmp/cccw1Yxa.s 			page 70


 3934 0263 04       		.byte	0x4
 3935 0264 48       		.uleb128 .LVL32-.LVL29
 3936 0265 50       		.uleb128 .LFE11-.LVL29
 3937 0266 01       		.uleb128 0x1
 3938 0267 51       		.byte	0x51
 3939 0268 00       		.byte	0
 3940              	.LVUS4:
 3941 0269 00       		.uleb128 0
 3942 026a 00       		.uleb128 .LVU59
 3943 026b 00       		.uleb128 .LVU59
 3944 026c 00       		.uleb128 0
 3945              	.LLST4:
 3946 026d 06       		.byte	0x6
 3947 026e 00000000 		.4byte	.LVL12
 3948 0272 04       		.byte	0x4
 3949 0273 00       		.uleb128 .LVL12-.LVL12
 3950 0274 18       		.uleb128 .LVL15-.LVL12
 3951 0275 01       		.uleb128 0x1
 3952 0276 50       		.byte	0x50
 3953 0277 04       		.byte	0x4
 3954 0278 18       		.uleb128 .LVL15-.LVL12
 3955 0279 5C       		.uleb128 .LFE9-.LVL12
 3956 027a 01       		.uleb128 0x1
 3957 027b 54       		.byte	0x54
 3958 027c 00       		.byte	0
 3959              	.LVUS5:
 3960 027d 00       		.uleb128 0
 3961 027e 00       		.uleb128 .LVU47
 3962 027f 00       		.uleb128 .LVU47
 3963 0280 00       		.uleb128 0
 3964              	.LLST5:
 3965 0281 06       		.byte	0x6
 3966 0282 00000000 		.4byte	.LVL12
 3967 0286 04       		.byte	0x4
 3968 0287 00       		.uleb128 .LVL12-.LVL12
 3969 0288 10       		.uleb128 .LVL13-.LVL12
 3970 0289 01       		.uleb128 0x1
 3971 028a 51       		.byte	0x51
 3972 028b 04       		.byte	0x4
 3973 028c 10       		.uleb128 .LVL13-.LVL12
 3974 028d 5C       		.uleb128 .LFE9-.LVL12
 3975 028e 01       		.uleb128 0x1
 3976 028f 56       		.byte	0x56
 3977 0290 00       		.byte	0
 3978              	.LVUS6:
 3979 0291 00       		.uleb128 0
 3980 0292 00       		.uleb128 .LVU60
 3981 0293 00       		.uleb128 .LVU60
 3982 0294 00       		.uleb128 0
 3983              	.LLST6:
 3984 0295 06       		.byte	0x6
 3985 0296 00000000 		.4byte	.LVL12
 3986 029a 04       		.byte	0x4
 3987 029b 00       		.uleb128 .LVL12-.LVL12
 3988 029c 1B       		.uleb128 .LVL16-1-.LVL12
 3989 029d 01       		.uleb128 0x1
 3990 029e 52       		.byte	0x52
ARM GAS  /tmp/cccw1Yxa.s 			page 71


 3991 029f 04       		.byte	0x4
 3992 02a0 1B       		.uleb128 .LVL16-1-.LVL12
 3993 02a1 5C       		.uleb128 .LFE9-.LVL12
 3994 02a2 04       		.uleb128 0x4
 3995 02a3 A3       		.byte	0xa3
 3996 02a4 01       		.uleb128 0x1
 3997 02a5 52       		.byte	0x52
 3998 02a6 9F       		.byte	0x9f
 3999 02a7 00       		.byte	0
 4000              	.LVUS7:
 4001 02a8 02       		.uleb128 .LVU77
 4002 02a9 00       		.uleb128 0
 4003              	.LLST7:
 4004 02aa 08       		.byte	0x8
 4005 02ab 50000000 		.4byte	.LVL20
 4006 02af 0C       		.uleb128 .LFE9-.LVL20
 4007 02b0 01       		.uleb128 0x1
 4008 02b1 55       		.byte	0x55
 4009 02b2 00       		.byte	0
 4010              	.LVUS8:
 4011 02b3 03       		.uleb128 .LVU51
 4012 02b4 00       		.uleb128 .LVU60
 4013 02b5 00       		.uleb128 .LVU60
 4014 02b6 02       		.uleb128 .LVU77
 4015              	.LLST8:
 4016 02b7 06       		.byte	0x6
 4017 02b8 14000000 		.4byte	.LVL14
 4018 02bc 04       		.byte	0x4
 4019 02bd 00       		.uleb128 .LVL14-.LVL14
 4020 02be 07       		.uleb128 .LVL16-1-.LVL14
 4021 02bf 01       		.uleb128 0x1
 4022 02c0 52       		.byte	0x52
 4023 02c1 04       		.byte	0x4
 4024 02c2 07       		.uleb128 .LVL16-1-.LVL14
 4025 02c3 3C       		.uleb128 .LVL20-.LVL14
 4026 02c4 04       		.uleb128 0x4
 4027 02c5 A3       		.byte	0xa3
 4028 02c6 01       		.uleb128 0x1
 4029 02c7 52       		.byte	0x52
 4030 02c8 9F       		.byte	0x9f
 4031 02c9 00       		.byte	0
 4032              	.LVUS9:
 4033 02ca 03       		.uleb128 .LVU51
 4034 02cb 02       		.uleb128 .LVU77
 4035              	.LLST9:
 4036 02cc 08       		.byte	0x8
 4037 02cd 14000000 		.4byte	.LVL14
 4038 02d1 3C       		.uleb128 .LVL20-.LVL14
 4039 02d2 01       		.uleb128 0x1
 4040 02d3 56       		.byte	0x56
 4041 02d4 00       		.byte	0
 4042              	.LVUS10:
 4043 02d5 03       		.uleb128 .LVU51
 4044 02d6 00       		.uleb128 .LVU59
 4045 02d7 00       		.uleb128 .LVU59
 4046 02d8 02       		.uleb128 .LVU77
 4047              	.LLST10:
ARM GAS  /tmp/cccw1Yxa.s 			page 72


 4048 02d9 06       		.byte	0x6
 4049 02da 14000000 		.4byte	.LVL14
 4050 02de 04       		.byte	0x4
 4051 02df 00       		.uleb128 .LVL14-.LVL14
 4052 02e0 04       		.uleb128 .LVL15-.LVL14
 4053 02e1 01       		.uleb128 0x1
 4054 02e2 50       		.byte	0x50
 4055 02e3 04       		.byte	0x4
 4056 02e4 04       		.uleb128 .LVL15-.LVL14
 4057 02e5 3C       		.uleb128 .LVL20-.LVL14
 4058 02e6 01       		.uleb128 0x1
 4059 02e7 54       		.byte	0x54
 4060 02e8 00       		.byte	0
 4061              	.LVUS11:
 4062 02e9 00       		.uleb128 .LVU60
 4063 02ea 00       		.uleb128 .LVU66
 4064 02eb 00       		.uleb128 .LVU66
 4065 02ec 02       		.uleb128 .LVU77
 4066              	.LLST11:
 4067 02ed 06       		.byte	0x6
 4068 02ee 1C000000 		.4byte	.LVL16
 4069 02f2 04       		.byte	0x4
 4070 02f3 00       		.uleb128 .LVL16-.LVL16
 4071 02f4 10       		.uleb128 .LVL18-.LVL16
 4072 02f5 01       		.uleb128 0x1
 4073 02f6 50       		.byte	0x50
 4074 02f7 04       		.byte	0x4
 4075 02f8 10       		.uleb128 .LVL18-.LVL16
 4076 02f9 34       		.uleb128 .LVL20-.LVL16
 4077 02fa 01       		.uleb128 0x1
 4078 02fb 55       		.byte	0x55
 4079 02fc 00       		.byte	0
 4080              	.LVUS12:
 4081 02fd 01       		.uleb128 .LVU63
 4082 02fe 00       		.uleb128 .LVU75
 4083              	.LLST12:
 4084 02ff 08       		.byte	0x8
 4085 0300 24000000 		.4byte	.LVL17
 4086 0304 2C       		.uleb128 .LVL20-.LVL17
 4087 0305 04       		.uleb128 0x4
 4088 0306 A3       		.byte	0xa3
 4089 0307 01       		.uleb128 0x1
 4090 0308 52       		.byte	0x52
 4091 0309 9F       		.byte	0x9f
 4092 030a 00       		.byte	0
 4093              	.LVUS13:
 4094 030b 00       		.uleb128 .LVU62
 4095 030c 00       		.uleb128 .LVU75
 4096              	.LLST13:
 4097 030d 08       		.byte	0x8
 4098 030e 24000000 		.4byte	.LVL17
 4099 0312 2C       		.uleb128 .LVL20-.LVL17
 4100 0313 01       		.uleb128 0x1
 4101 0314 56       		.byte	0x56
 4102 0315 00       		.byte	0
 4103              	.LVUS14:
 4104 0316 00       		.uleb128 .LVU62
ARM GAS  /tmp/cccw1Yxa.s 			page 73


 4105 0317 00       		.uleb128 .LVU75
 4106              	.LLST14:
 4107 0318 08       		.byte	0x8
 4108 0319 24000000 		.4byte	.LVL17
 4109 031d 2C       		.uleb128 .LVL20-.LVL17
 4110 031e 01       		.uleb128 0x1
 4111 031f 54       		.byte	0x54
 4112 0320 00       		.byte	0
 4113              	.LVUS3:
 4114 0321 00       		.uleb128 0
 4115 0322 00       		.uleb128 .LVU34
 4116 0323 00       		.uleb128 .LVU34
 4117 0324 00       		.uleb128 0
 4118              	.LLST3:
 4119 0325 06       		.byte	0x6
 4120 0326 00000000 		.4byte	.LVL7
 4121 032a 04       		.byte	0x4
 4122 032b 00       		.uleb128 .LVL7-.LVL7
 4123 032c 24       		.uleb128 .LVL8-.LVL7
 4124 032d 01       		.uleb128 0x1
 4125 032e 50       		.byte	0x50
 4126 032f 04       		.byte	0x4
 4127 0330 24       		.uleb128 .LVL8-.LVL7
 4128 0331 44       		.uleb128 .LFE8-.LVL7
 4129 0332 01       		.uleb128 0x1
 4130 0333 54       		.byte	0x54
 4131 0334 00       		.byte	0
 4132              	.LVUS0:
 4133 0335 00       		.uleb128 0
 4134 0336 00       		.uleb128 .LVU8
 4135 0337 00       		.uleb128 .LVU8
 4136 0338 00       		.uleb128 .LVU16
 4137 0339 00       		.uleb128 .LVU16
 4138 033a 00       		.uleb128 .LVU17
 4139 033b 00       		.uleb128 .LVU17
 4140 033c 00       		.uleb128 0
 4141              	.LLST0:
 4142 033d 06       		.byte	0x6
 4143 033e 00000000 		.4byte	.LVL0
 4144 0342 04       		.byte	0x4
 4145 0343 00       		.uleb128 .LVL0-.LVL0
 4146 0344 18       		.uleb128 .LVL3-.LVL0
 4147 0345 01       		.uleb128 0x1
 4148 0346 50       		.byte	0x50
 4149 0347 04       		.byte	0x4
 4150 0348 18       		.uleb128 .LVL3-.LVL0
 4151 0349 38       		.uleb128 .LVL5-.LVL0
 4152 034a 01       		.uleb128 0x1
 4153 034b 54       		.byte	0x54
 4154 034c 04       		.byte	0x4
 4155 034d 38       		.uleb128 .LVL5-.LVL0
 4156 034e 3B       		.uleb128 .LVL6-1-.LVL0
 4157 034f 03       		.uleb128 0x3
 4158 0350 70       		.byte	0x70
 4159 0351 70       		.sleb128 -16
 4160 0352 9F       		.byte	0x9f
 4161 0353 04       		.byte	0x4
ARM GAS  /tmp/cccw1Yxa.s 			page 74


 4162 0354 3B       		.uleb128 .LVL6-1-.LVL0
 4163 0355 3C       		.uleb128 .LFE7-.LVL0
 4164 0356 04       		.uleb128 0x4
 4165 0357 A3       		.byte	0xa3
 4166 0358 01       		.uleb128 0x1
 4167 0359 50       		.byte	0x50
 4168 035a 9F       		.byte	0x9f
 4169 035b 00       		.byte	0
 4170              	.LVUS1:
 4171 035c 00       		.uleb128 0
 4172 035d 00       		.uleb128 .LVU6
 4173 035e 00       		.uleb128 .LVU6
 4174 035f 00       		.uleb128 .LVU14
 4175 0360 00       		.uleb128 .LVU14
 4176 0361 00       		.uleb128 0
 4177              	.LLST1:
 4178 0362 06       		.byte	0x6
 4179 0363 00000000 		.4byte	.LVL0
 4180 0367 04       		.byte	0x4
 4181 0368 00       		.uleb128 .LVL0-.LVL0
 4182 0369 10       		.uleb128 .LVL1-.LVL0
 4183 036a 01       		.uleb128 0x1
 4184 036b 51       		.byte	0x51
 4185 036c 04       		.byte	0x4
 4186 036d 10       		.uleb128 .LVL1-.LVL0
 4187 036e 2B       		.uleb128 .LVL4-1-.LVL0
 4188 036f 01       		.uleb128 0x1
 4189 0370 53       		.byte	0x53
 4190 0371 04       		.byte	0x4
 4191 0372 2B       		.uleb128 .LVL4-1-.LVL0
 4192 0373 3C       		.uleb128 .LFE7-.LVL0
 4193 0374 04       		.uleb128 0x4
 4194 0375 A3       		.byte	0xa3
 4195 0376 01       		.uleb128 0x1
 4196 0377 51       		.byte	0x51
 4197 0378 9F       		.byte	0x9f
 4198 0379 00       		.byte	0
 4199              	.LVUS2:
 4200 037a 00       		.uleb128 0
 4201 037b 00       		.uleb128 .LVU7
 4202 037c 00       		.uleb128 .LVU7
 4203 037d 00       		.uleb128 .LVU14
 4204 037e 00       		.uleb128 .LVU14
 4205 037f 00       		.uleb128 0
 4206              	.LLST2:
 4207 0380 06       		.byte	0x6
 4208 0381 00000000 		.4byte	.LVL0
 4209 0385 04       		.byte	0x4
 4210 0386 00       		.uleb128 .LVL0-.LVL0
 4211 0387 14       		.uleb128 .LVL2-.LVL0
 4212 0388 01       		.uleb128 0x1
 4213 0389 52       		.byte	0x52
 4214 038a 04       		.byte	0x4
 4215 038b 14       		.uleb128 .LVL2-.LVL0
 4216 038c 2B       		.uleb128 .LVL4-1-.LVL0
 4217 038d 01       		.uleb128 0x1
 4218 038e 51       		.byte	0x51
ARM GAS  /tmp/cccw1Yxa.s 			page 75


 4219 038f 04       		.byte	0x4
 4220 0390 2B       		.uleb128 .LVL4-1-.LVL0
 4221 0391 3C       		.uleb128 .LFE7-.LVL0
 4222 0392 04       		.uleb128 0x4
 4223 0393 A3       		.byte	0xa3
 4224 0394 01       		.uleb128 0x1
 4225 0395 52       		.byte	0x52
 4226 0396 9F       		.byte	0x9f
 4227 0397 00       		.byte	0
 4228              	.LVUS15:
 4229 0398 00       		.uleb128 0
 4230 0399 00       		.uleb128 .LVU94
 4231 039a 00       		.uleb128 .LVU94
 4232 039b 00       		.uleb128 0
 4233              	.LLST15:
 4234 039c 06       		.byte	0x6
 4235 039d 00000000 		.4byte	.LVL21
 4236 03a1 04       		.byte	0x4
 4237 03a2 00       		.uleb128 .LVL21-.LVL21
 4238 03a3 14       		.uleb128 .LVL23-.LVL21
 4239 03a4 01       		.uleb128 0x1
 4240 03a5 50       		.byte	0x50
 4241 03a6 04       		.byte	0x4
 4242 03a7 14       		.uleb128 .LVL23-.LVL21
 4243 03a8 54       		.uleb128 .LFE10-.LVL21
 4244 03a9 01       		.uleb128 0x1
 4245 03aa 54       		.byte	0x54
 4246 03ab 00       		.byte	0
 4247              	.LVUS16:
 4248 03ac 00       		.uleb128 0
 4249 03ad 00       		.uleb128 .LVU87
 4250 03ae 00       		.uleb128 .LVU87
 4251 03af 00       		.uleb128 0
 4252              	.LLST16:
 4253 03b0 06       		.byte	0x6
 4254 03b1 00000000 		.4byte	.LVL21
 4255 03b5 04       		.byte	0x4
 4256 03b6 00       		.uleb128 .LVL21-.LVL21
 4257 03b7 10       		.uleb128 .LVL22-.LVL21
 4258 03b8 01       		.uleb128 0x1
 4259 03b9 51       		.byte	0x51
 4260 03ba 04       		.byte	0x4
 4261 03bb 10       		.uleb128 .LVL22-.LVL21
 4262 03bc 54       		.uleb128 .LFE10-.LVL21
 4263 03bd 01       		.uleb128 0x1
 4264 03be 56       		.byte	0x56
 4265 03bf 00       		.byte	0
 4266              	.LVUS17:
 4267 03c0 00       		.uleb128 0
 4268 03c1 00       		.uleb128 .LVU95
 4269 03c2 00       		.uleb128 .LVU95
 4270 03c3 00       		.uleb128 0
 4271              	.LLST17:
 4272 03c4 06       		.byte	0x6
 4273 03c5 00000000 		.4byte	.LVL21
 4274 03c9 04       		.byte	0x4
 4275 03ca 00       		.uleb128 .LVL21-.LVL21
ARM GAS  /tmp/cccw1Yxa.s 			page 76


 4276 03cb 17       		.uleb128 .LVL24-1-.LVL21
 4277 03cc 01       		.uleb128 0x1
 4278 03cd 52       		.byte	0x52
 4279 03ce 04       		.byte	0x4
 4280 03cf 17       		.uleb128 .LVL24-1-.LVL21
 4281 03d0 54       		.uleb128 .LFE10-.LVL21
 4282 03d1 04       		.uleb128 0x4
 4283 03d2 A3       		.byte	0xa3
 4284 03d3 01       		.uleb128 0x1
 4285 03d4 52       		.byte	0x52
 4286 03d5 9F       		.byte	0x9f
 4287 03d6 00       		.byte	0
 4288              	.LVUS18:
 4289 03d7 00       		.uleb128 .LVU95
 4290 03d8 00       		.uleb128 .LVU101
 4291 03d9 00       		.uleb128 .LVU101
 4292 03da 00       		.uleb128 0
 4293              	.LLST18:
 4294 03db 06       		.byte	0x6
 4295 03dc 18000000 		.4byte	.LVL24
 4296 03e0 04       		.byte	0x4
 4297 03e1 00       		.uleb128 .LVL24-.LVL24
 4298 03e2 10       		.uleb128 .LVL26-.LVL24
 4299 03e3 01       		.uleb128 0x1
 4300 03e4 50       		.byte	0x50
 4301 03e5 04       		.byte	0x4
 4302 03e6 10       		.uleb128 .LVL26-.LVL24
 4303 03e7 3C       		.uleb128 .LFE10-.LVL24
 4304 03e8 01       		.uleb128 0x1
 4305 03e9 55       		.byte	0x55
 4306 03ea 00       		.byte	0
 4307              	.LVUS19:
 4308 03eb 01       		.uleb128 .LVU98
 4309 03ec 00       		.uleb128 .LVU110
 4310              	.LLST19:
 4311 03ed 08       		.byte	0x8
 4312 03ee 20000000 		.4byte	.LVL25
 4313 03f2 2C       		.uleb128 .LVL28-.LVL25
 4314 03f3 04       		.uleb128 0x4
 4315 03f4 A3       		.byte	0xa3
 4316 03f5 01       		.uleb128 0x1
 4317 03f6 52       		.byte	0x52
 4318 03f7 9F       		.byte	0x9f
 4319 03f8 00       		.byte	0
 4320              	.LVUS20:
 4321 03f9 00       		.uleb128 .LVU97
 4322 03fa 00       		.uleb128 .LVU110
 4323              	.LLST20:
 4324 03fb 08       		.byte	0x8
 4325 03fc 20000000 		.4byte	.LVL25
 4326 0400 2C       		.uleb128 .LVL28-.LVL25
 4327 0401 01       		.uleb128 0x1
 4328 0402 56       		.byte	0x56
 4329 0403 00       		.byte	0
 4330              	.LVUS21:
 4331 0404 00       		.uleb128 .LVU97
 4332 0405 00       		.uleb128 .LVU110
ARM GAS  /tmp/cccw1Yxa.s 			page 77


 4333              	.LLST21:
 4334 0406 08       		.byte	0x8
 4335 0407 20000000 		.4byte	.LVL25
 4336 040b 2C       		.uleb128 .LVL28-.LVL25
 4337 040c 01       		.uleb128 0x1
 4338 040d 54       		.byte	0x54
 4339 040e 00       		.byte	0
 4340              	.LVUS35:
 4341 040f 00       		.uleb128 0
 4342 0410 00       		.uleb128 .LVU198
 4343 0411 00       		.uleb128 .LVU198
 4344 0412 00       		.uleb128 0
 4345              	.LLST35:
 4346 0413 06       		.byte	0x6
 4347 0414 00000000 		.4byte	.LVL43
 4348 0418 04       		.byte	0x4
 4349 0419 00       		.uleb128 .LVL43-.LVL43
 4350 041a 14       		.uleb128 .LVL45-.LVL43
 4351 041b 01       		.uleb128 0x1
 4352 041c 50       		.byte	0x50
 4353 041d 04       		.byte	0x4
 4354 041e 14       		.uleb128 .LVL45-.LVL43
 4355 041f 58       		.uleb128 .LFE13-.LVL43
 4356 0420 01       		.uleb128 0x1
 4357 0421 54       		.byte	0x54
 4358 0422 00       		.byte	0
 4359              	.LVUS36:
 4360 0423 00       		.uleb128 0
 4361 0424 00       		.uleb128 .LVU191
 4362 0425 00       		.uleb128 .LVU191
 4363 0426 00       		.uleb128 0
 4364              	.LLST36:
 4365 0427 06       		.byte	0x6
 4366 0428 00000000 		.4byte	.LVL43
 4367 042c 04       		.byte	0x4
 4368 042d 00       		.uleb128 .LVL43-.LVL43
 4369 042e 10       		.uleb128 .LVL44-.LVL43
 4370 042f 01       		.uleb128 0x1
 4371 0430 51       		.byte	0x51
 4372 0431 04       		.byte	0x4
 4373 0432 10       		.uleb128 .LVL44-.LVL43
 4374 0433 58       		.uleb128 .LFE13-.LVL43
 4375 0434 01       		.uleb128 0x1
 4376 0435 56       		.byte	0x56
 4377 0436 00       		.byte	0
 4378              	.LVUS37:
 4379 0437 00       		.uleb128 0
 4380 0438 00       		.uleb128 .LVU199
 4381 0439 00       		.uleb128 .LVU199
 4382 043a 00       		.uleb128 0
 4383              	.LLST37:
 4384 043b 06       		.byte	0x6
 4385 043c 00000000 		.4byte	.LVL43
 4386 0440 04       		.byte	0x4
 4387 0441 00       		.uleb128 .LVL43-.LVL43
 4388 0442 17       		.uleb128 .LVL46-1-.LVL43
 4389 0443 01       		.uleb128 0x1
ARM GAS  /tmp/cccw1Yxa.s 			page 78


 4390 0444 52       		.byte	0x52
 4391 0445 04       		.byte	0x4
 4392 0446 17       		.uleb128 .LVL46-1-.LVL43
 4393 0447 58       		.uleb128 .LFE13-.LVL43
 4394 0448 04       		.uleb128 0x4
 4395 0449 A3       		.byte	0xa3
 4396 044a 01       		.uleb128 0x1
 4397 044b 52       		.byte	0x52
 4398 044c 9F       		.byte	0x9f
 4399 044d 00       		.byte	0
 4400              	.LVUS38:
 4401 044e 00       		.uleb128 .LVU199
 4402 044f 00       		.uleb128 .LVU211
 4403 0450 00       		.uleb128 .LVU211
 4404 0451 00       		.uleb128 0
 4405              	.LLST38:
 4406 0452 06       		.byte	0x6
 4407 0453 18000000 		.4byte	.LVL46
 4408 0457 04       		.byte	0x4
 4409 0458 00       		.uleb128 .LVL46-.LVL46
 4410 0459 24       		.uleb128 .LVL48-.LVL46
 4411 045a 01       		.uleb128 0x1
 4412 045b 50       		.byte	0x50
 4413 045c 04       		.byte	0x4
 4414 045d 24       		.uleb128 .LVL48-.LVL46
 4415 045e 40       		.uleb128 .LFE13-.LVL46
 4416 045f 01       		.uleb128 0x1
 4417 0460 55       		.byte	0x55
 4418 0461 00       		.byte	0
 4419              	.LVUS39:
 4420 0462 01       		.uleb128 .LVU202
 4421 0463 00       		.uleb128 .LVU216
 4422              	.LLST39:
 4423 0464 08       		.byte	0x8
 4424 0465 20000000 		.4byte	.LVL47
 4425 0469 30       		.uleb128 .LVL50-.LVL47
 4426 046a 04       		.uleb128 0x4
 4427 046b A3       		.byte	0xa3
 4428 046c 01       		.uleb128 0x1
 4429 046d 52       		.byte	0x52
 4430 046e 9F       		.byte	0x9f
 4431 046f 00       		.byte	0
 4432              	.LVUS40:
 4433 0470 00       		.uleb128 .LVU201
 4434 0471 00       		.uleb128 .LVU216
 4435              	.LLST40:
 4436 0472 08       		.byte	0x8
 4437 0473 20000000 		.4byte	.LVL47
 4438 0477 30       		.uleb128 .LVL50-.LVL47
 4439 0478 01       		.uleb128 0x1
 4440 0479 56       		.byte	0x56
 4441 047a 00       		.byte	0
 4442              	.LVUS41:
 4443 047b 00       		.uleb128 .LVU201
 4444 047c 00       		.uleb128 .LVU216
 4445              	.LLST41:
 4446 047d 08       		.byte	0x8
ARM GAS  /tmp/cccw1Yxa.s 			page 79


 4447 047e 20000000 		.4byte	.LVL47
 4448 0482 30       		.uleb128 .LVL50-.LVL47
 4449 0483 01       		.uleb128 0x1
 4450 0484 54       		.byte	0x54
 4451 0485 00       		.byte	0
 4452              	.LVUS55:
 4453 0486 00       		.uleb128 0
 4454 0487 00       		.uleb128 .LVU305
 4455 0488 00       		.uleb128 .LVU305
 4456 0489 00       		.uleb128 0
 4457              	.LLST55:
 4458 048a 06       		.byte	0x6
 4459 048b 00000000 		.4byte	.LVL65
 4460 048f 04       		.byte	0x4
 4461 0490 00       		.uleb128 .LVL65-.LVL65
 4462 0491 14       		.uleb128 .LVL67-.LVL65
 4463 0492 01       		.uleb128 0x1
 4464 0493 50       		.byte	0x50
 4465 0494 04       		.byte	0x4
 4466 0495 14       		.uleb128 .LVL67-.LVL65
 4467 0496 58       		.uleb128 .LFE16-.LVL65
 4468 0497 01       		.uleb128 0x1
 4469 0498 54       		.byte	0x54
 4470 0499 00       		.byte	0
 4471              	.LVUS56:
 4472 049a 00       		.uleb128 0
 4473 049b 00       		.uleb128 .LVU298
 4474 049c 00       		.uleb128 .LVU298
 4475 049d 00       		.uleb128 0
 4476              	.LLST56:
 4477 049e 06       		.byte	0x6
 4478 049f 00000000 		.4byte	.LVL65
 4479 04a3 04       		.byte	0x4
 4480 04a4 00       		.uleb128 .LVL65-.LVL65
 4481 04a5 10       		.uleb128 .LVL66-.LVL65
 4482 04a6 01       		.uleb128 0x1
 4483 04a7 51       		.byte	0x51
 4484 04a8 04       		.byte	0x4
 4485 04a9 10       		.uleb128 .LVL66-.LVL65
 4486 04aa 58       		.uleb128 .LFE16-.LVL65
 4487 04ab 01       		.uleb128 0x1
 4488 04ac 56       		.byte	0x56
 4489 04ad 00       		.byte	0
 4490              	.LVUS57:
 4491 04ae 00       		.uleb128 0
 4492 04af 00       		.uleb128 .LVU306
 4493 04b0 00       		.uleb128 .LVU306
 4494 04b1 00       		.uleb128 0
 4495              	.LLST57:
 4496 04b2 06       		.byte	0x6
 4497 04b3 00000000 		.4byte	.LVL65
 4498 04b7 04       		.byte	0x4
 4499 04b8 00       		.uleb128 .LVL65-.LVL65
 4500 04b9 17       		.uleb128 .LVL68-1-.LVL65
 4501 04ba 01       		.uleb128 0x1
 4502 04bb 52       		.byte	0x52
 4503 04bc 04       		.byte	0x4
ARM GAS  /tmp/cccw1Yxa.s 			page 80


 4504 04bd 17       		.uleb128 .LVL68-1-.LVL65
 4505 04be 58       		.uleb128 .LFE16-.LVL65
 4506 04bf 04       		.uleb128 0x4
 4507 04c0 A3       		.byte	0xa3
 4508 04c1 01       		.uleb128 0x1
 4509 04c2 52       		.byte	0x52
 4510 04c3 9F       		.byte	0x9f
 4511 04c4 00       		.byte	0
 4512              	.LVUS58:
 4513 04c5 00       		.uleb128 .LVU306
 4514 04c6 00       		.uleb128 .LVU312
 4515 04c7 00       		.uleb128 .LVU312
 4516 04c8 00       		.uleb128 0
 4517              	.LLST58:
 4518 04c9 06       		.byte	0x6
 4519 04ca 18000000 		.4byte	.LVL68
 4520 04ce 04       		.byte	0x4
 4521 04cf 00       		.uleb128 .LVL68-.LVL68
 4522 04d0 10       		.uleb128 .LVL70-.LVL68
 4523 04d1 01       		.uleb128 0x1
 4524 04d2 50       		.byte	0x50
 4525 04d3 04       		.byte	0x4
 4526 04d4 10       		.uleb128 .LVL70-.LVL68
 4527 04d5 40       		.uleb128 .LFE16-.LVL68
 4528 04d6 01       		.uleb128 0x1
 4529 04d7 55       		.byte	0x55
 4530 04d8 00       		.byte	0
 4531              	.LVUS59:
 4532 04d9 01       		.uleb128 .LVU309
 4533 04da 00       		.uleb128 .LVU323
 4534              	.LLST59:
 4535 04db 08       		.byte	0x8
 4536 04dc 20000000 		.4byte	.LVL69
 4537 04e0 30       		.uleb128 .LVL72-.LVL69
 4538 04e1 04       		.uleb128 0x4
 4539 04e2 A3       		.byte	0xa3
 4540 04e3 01       		.uleb128 0x1
 4541 04e4 52       		.byte	0x52
 4542 04e5 9F       		.byte	0x9f
 4543 04e6 00       		.byte	0
 4544              	.LVUS60:
 4545 04e7 00       		.uleb128 .LVU308
 4546 04e8 00       		.uleb128 .LVU323
 4547              	.LLST60:
 4548 04e9 08       		.byte	0x8
 4549 04ea 20000000 		.4byte	.LVL69
 4550 04ee 30       		.uleb128 .LVL72-.LVL69
 4551 04ef 01       		.uleb128 0x1
 4552 04f0 56       		.byte	0x56
 4553 04f1 00       		.byte	0
 4554              	.LVUS61:
 4555 04f2 00       		.uleb128 .LVU308
 4556 04f3 00       		.uleb128 .LVU323
 4557              	.LLST61:
 4558 04f4 08       		.byte	0x8
 4559 04f5 20000000 		.4byte	.LVL69
 4560 04f9 30       		.uleb128 .LVL72-.LVL69
ARM GAS  /tmp/cccw1Yxa.s 			page 81


 4561 04fa 01       		.uleb128 0x1
 4562 04fb 54       		.byte	0x54
 4563 04fc 00       		.byte	0
 4564              	.Ldebug_loc3:
 4565              		.section	.debug_aranges,"",%progbits
 4566 0000 6C000000 		.4byte	0x6c
 4567 0004 0200     		.2byte	0x2
 4568 0006 00000000 		.4byte	.Ldebug_info0
 4569 000a 04       		.byte	0x4
 4570 000b 00       		.byte	0
 4571 000c 0000     		.2byte	0
 4572 000e 0000     		.2byte	0
 4573 0010 00000000 		.4byte	.LFB7
 4574 0014 3C000000 		.4byte	.LFE7-.LFB7
 4575 0018 00000000 		.4byte	.LFB8
 4576 001c 44000000 		.4byte	.LFE8-.LFB8
 4577 0020 00000000 		.4byte	.LFB9
 4578 0024 5C000000 		.4byte	.LFE9-.LFB9
 4579 0028 00000000 		.4byte	.LFB10
 4580 002c 54000000 		.4byte	.LFE10-.LFB10
 4581 0030 00000000 		.4byte	.LFB11
 4582 0034 50000000 		.4byte	.LFE11-.LFB11
 4583 0038 00000000 		.4byte	.LFB12
 4584 003c 60000000 		.4byte	.LFE12-.LFB12
 4585 0040 00000000 		.4byte	.LFB13
 4586 0044 58000000 		.4byte	.LFE13-.LFB13
 4587 0048 00000000 		.4byte	.LFB14
 4588 004c 54000000 		.4byte	.LFE14-.LFB14
 4589 0050 00000000 		.4byte	.LFB15
 4590 0054 60000000 		.4byte	.LFE15-.LFB15
 4591 0058 00000000 		.4byte	.LFB16
 4592 005c 58000000 		.4byte	.LFE16-.LFB16
 4593 0060 00000000 		.4byte	.LFB17
 4594 0064 54000000 		.4byte	.LFE17-.LFB17
 4595 0068 00000000 		.4byte	0
 4596 006c 00000000 		.4byte	0
 4597              		.section	.debug_rnglists,"",%progbits
 4598              	.Ldebug_ranges0:
 4599 0000 4B000000 		.4byte	.Ldebug_ranges3-.Ldebug_ranges2
 4600              	.Ldebug_ranges2:
 4601 0004 0500     		.2byte	0x5
 4602 0006 04       		.byte	0x4
 4603 0007 00       		.byte	0
 4604 0008 00000000 		.4byte	0
 4605              	.LLRL64:
 4606 000c 07       		.byte	0x7
 4607 000d 00000000 		.4byte	.LFB7
 4608 0011 3C       		.uleb128 .LFE7-.LFB7
 4609 0012 07       		.byte	0x7
 4610 0013 00000000 		.4byte	.LFB8
 4611 0017 44       		.uleb128 .LFE8-.LFB8
 4612 0018 07       		.byte	0x7
 4613 0019 00000000 		.4byte	.LFB9
 4614 001d 5C       		.uleb128 .LFE9-.LFB9
 4615 001e 07       		.byte	0x7
 4616 001f 00000000 		.4byte	.LFB10
 4617 0023 54       		.uleb128 .LFE10-.LFB10
ARM GAS  /tmp/cccw1Yxa.s 			page 82


 4618 0024 07       		.byte	0x7
 4619 0025 00000000 		.4byte	.LFB11
 4620 0029 50       		.uleb128 .LFE11-.LFB11
 4621 002a 07       		.byte	0x7
 4622 002b 00000000 		.4byte	.LFB12
 4623 002f 60       		.uleb128 .LFE12-.LFB12
 4624 0030 07       		.byte	0x7
 4625 0031 00000000 		.4byte	.LFB13
 4626 0035 58       		.uleb128 .LFE13-.LFB13
 4627 0036 07       		.byte	0x7
 4628 0037 00000000 		.4byte	.LFB14
 4629 003b 54       		.uleb128 .LFE14-.LFB14
 4630 003c 07       		.byte	0x7
 4631 003d 00000000 		.4byte	.LFB15
 4632 0041 60       		.uleb128 .LFE15-.LFB15
 4633 0042 07       		.byte	0x7
 4634 0043 00000000 		.4byte	.LFB16
 4635 0047 58       		.uleb128 .LFE16-.LFB16
 4636 0048 07       		.byte	0x7
 4637 0049 00000000 		.4byte	.LFB17
 4638 004d 54       		.uleb128 .LFE17-.LFB17
 4639 004e 00       		.byte	0
 4640              	.Ldebug_ranges3:
 4641              		.section	.debug_line,"",%progbits
 4642              	.Ldebug_line0:
 4643 0000 2B060000 		.section	.debug_str,"MS",%progbits,1
 4643      03002C01 
 4643      00000201 
 4643      FB0E0D00 
 4643      01010101 
 4644              	.LASF39:
 4645 0000 705F6D73 		.ascii	"p_msg\000"
 4645      6700
 4646              	.LASF67:
 4647 0006 63685365 		.ascii	"chSemSignalI\000"
 4647      6D536967 
 4647      6E616C49 
 4647      00
 4648              	.LASF62:
 4649 0013 7264796D 		.ascii	"rdymsg\000"
 4649      736700
 4650              	.LASF5:
 4651 001a 5F5F7569 		.ascii	"__uint8_t\000"
 4651      6E74385F 
 4651      7400
 4652              	.LASF79:
 4653 0024 63684D42 		.ascii	"chMBPostI\000"
 4653      506F7374 
 4653      4900
 4654              	.LASF80:
 4655 002e 63684D42 		.ascii	"chMBPostS\000"
 4655      506F7374 
 4655      5300
 4656              	.LASF61:
 4657 0038 4D61696C 		.ascii	"Mailbox\000"
 4657      626F7800 
 4658              	.LASF76:
ARM GAS  /tmp/cccw1Yxa.s 			page 83


 4659 0040 63684D42 		.ascii	"chMBPostAheadI\000"
 4659      506F7374 
 4659      41686561 
 4659      644900
 4660              	.LASF11:
 4661 004f 6C6F6E67 		.ascii	"long long unsigned int\000"
 4661      206C6F6E 
 4661      6720756E 
 4661      7369676E 
 4661      65642069 
 4662              	.LASF63:
 4663 0066 65786974 		.ascii	"exitcode\000"
 4663      636F6465 
 4663      00
 4664              	.LASF77:
 4665 006f 63684D42 		.ascii	"chMBPostAheadS\000"
 4665      506F7374 
 4665      41686561 
 4665      645300
 4666              	.LASF57:
 4667 007e 6D625F77 		.ascii	"mb_wrptr\000"
 4667      72707472 
 4667      00
 4668              	.LASF27:
 4669 0087 705F7072 		.ascii	"p_prio\000"
 4669      696F00
 4670              	.LASF10:
 4671 008e 6C6F6E67 		.ascii	"long long int\000"
 4671      206C6F6E 
 4671      6720696E 
 4671      7400
 4672              	.LASF1:
 4673 009c 7369676E 		.ascii	"signed char\000"
 4673      65642063 
 4673      68617200 
 4674              	.LASF52:
 4675 00a8 6D5F7175 		.ascii	"m_queue\000"
 4675      65756500 
 4676              	.LASF18:
 4677 00b0 74736C69 		.ascii	"tslices_t\000"
 4677      6365735F 
 4677      7400
 4678              	.LASF7:
 4679 00ba 6C6F6E67 		.ascii	"long int\000"
 4679      20696E74 
 4679      00
 4680              	.LASF16:
 4681 00c3 74737461 		.ascii	"tstate_t\000"
 4681      74655F74 
 4681      00
 4682              	.LASF29:
 4683 00cc 705F6E65 		.ascii	"p_newer\000"
 4683      77657200 
 4684              	.LASF49:
 4685 00d4 735F7175 		.ascii	"s_queue\000"
 4685      65756500 
 4686              	.LASF85:
ARM GAS  /tmp/cccw1Yxa.s 			page 84


 4687 00dc 2E2E2F2E 		.ascii	"../../os/kernel/src/chmboxes.c\000"
 4687      2E2F6F73 
 4687      2F6B6572 
 4687      6E656C2F 
 4687      7372632F 
 4688              	.LASF87:
 4689 00fb 63685363 		.ascii	"chSchRescheduleS\000"
 4689      68526573 
 4689      63686564 
 4689      756C6553 
 4689      00
 4690              	.LASF8:
 4691 010c 5F5F7569 		.ascii	"__uint32_t\000"
 4691      6E743332 
 4691      5F7400
 4692              	.LASF45:
 4693 0117 72656761 		.ascii	"regarm_t\000"
 4693      726D5F74 
 4693      00
 4694              	.LASF23:
 4695 0120 636E745F 		.ascii	"cnt_t\000"
 4695      7400
 4696              	.LASF0:
 4697 0126 756E7369 		.ascii	"unsigned int\000"
 4697      676E6564 
 4697      20696E74 
 4697      00
 4698              	.LASF83:
 4699 0133 63684D42 		.ascii	"chMBInit\000"
 4699      496E6974 
 4699      00
 4700              	.LASF9:
 4701 013c 6C6F6E67 		.ascii	"long unsigned int\000"
 4701      20756E73 
 4701      69676E65 
 4701      6420696E 
 4701      7400
 4702              	.LASF60:
 4703 014e 6D625F65 		.ascii	"mb_emptysem\000"
 4703      6D707479 
 4703      73656D00 
 4704              	.LASF50:
 4705 015a 735F636E 		.ascii	"s_cnt\000"
 4705      7400
 4706              	.LASF47:
 4707 0160 636F6E74 		.ascii	"context\000"
 4707      65787400 
 4708              	.LASF4:
 4709 0168 73686F72 		.ascii	"short unsigned int\000"
 4709      7420756E 
 4709      7369676E 
 4709      65642069 
 4709      6E7400
 4710              	.LASF74:
 4711 017b 63684D42 		.ascii	"chMBFetchI\000"
 4711      46657463 
 4711      684900
ARM GAS  /tmp/cccw1Yxa.s 			page 85


 4712              	.LASF20:
 4713 0186 6D73675F 		.ascii	"msg_t\000"
 4713      7400
 4714              	.LASF72:
 4715 018c 63684D42 		.ascii	"chMBFetchS\000"
 4715      46657463 
 4715      685300
 4716              	.LASF15:
 4717 0197 746D6F64 		.ascii	"tmode_t\000"
 4717      655F7400 
 4718              	.LASF44:
 4719 019f 54687265 		.ascii	"ThreadsList\000"
 4719      6164734C 
 4719      69737400 
 4720              	.LASF21:
 4721 01ab 6576656E 		.ascii	"eventmask_t\000"
 4721      746D6173 
 4721      6B5F7400 
 4722              	.LASF51:
 4723 01b7 4D757465 		.ascii	"Mutex\000"
 4723      7800
 4724              	.LASF70:
 4725 01bd 6D736770 		.ascii	"msgp\000"
 4725      00
 4726              	.LASF84:
 4727 01c2 474E5520 		.ascii	"GNU C17 11.2.0 -mcpu=arm1176jz-s -mno-thumb-interwo"
 4727      43313720 
 4727      31312E32 
 4727      2E30202D 
 4727      6D637075 
 4728 01f5 726B202D 		.ascii	"rk -mfloat-abi=soft -marm -march=armv6kz -ggdb -O2 "
 4728      6D666C6F 
 4728      61742D61 
 4728      62693D73 
 4728      6F667420 
 4729 0228 2D666F6D 		.ascii	"-fomit-frame-pointer -ffunction-sections -fdata-sec"
 4729      69742D66 
 4729      72616D65 
 4729      2D706F69 
 4729      6E746572 
 4730 025b 74696F6E 		.ascii	"tions\000"
 4730      7300
 4731              	.LASF58:
 4732 0261 6D625F72 		.ascii	"mb_rdptr\000"
 4732      64707472 
 4732      00
 4733              	.LASF82:
 4734 026a 63684D42 		.ascii	"chMBReset\000"
 4734      52657365 
 4734      7400
 4735              	.LASF86:
 4736 0274 2F686F6D 		.ascii	"/home/sergi/uni/seu/ChibiOS-RPi/demos/led\000"
 4736      652F7365 
 4736      7267692F 
 4736      756E692F 
 4736      7365752F 
 4737              	.LASF30:
ARM GAS  /tmp/cccw1Yxa.s 			page 86


 4738 029e 705F6F6C 		.ascii	"p_older\000"
 4738      64657200 
 4739              	.LASF43:
 4740 02a6 54687265 		.ascii	"ThreadsQueue\000"
 4740      61647351 
 4740      75657565 
 4740      00
 4741              	.LASF55:
 4742 02b3 6D625F62 		.ascii	"mb_buffer\000"
 4742      75666665 
 4742      7200
 4743              	.LASF73:
 4744 02bd 74696D65 		.ascii	"time\000"
 4744      00
 4745              	.LASF17:
 4746 02c2 74726566 		.ascii	"trefs_t\000"
 4746      735F7400 
 4747              	.LASF26:
 4748 02ca 705F7072 		.ascii	"p_prev\000"
 4748      657600
 4749              	.LASF19:
 4750 02d1 74707269 		.ascii	"tprio_t\000"
 4750      6F5F7400 
 4751              	.LASF13:
 4752 02d9 696E7433 		.ascii	"int32_t\000"
 4752      325F7400 
 4753              	.LASF2:
 4754 02e1 756E7369 		.ascii	"unsigned char\000"
 4754      676E6564 
 4754      20636861 
 4754      7200
 4755              	.LASF56:
 4756 02ef 6D625F74 		.ascii	"mb_top\000"
 4756      6F7000
 4757              	.LASF41:
 4758 02f6 705F6D74 		.ascii	"p_mtxlist\000"
 4758      786C6973 
 4758      7400
 4759              	.LASF3:
 4760 0300 73686F72 		.ascii	"short int\000"
 4760      7420696E 
 4760      7400
 4761              	.LASF32:
 4762 030a 705F7374 		.ascii	"p_state\000"
 4762      61746500 
 4763              	.LASF35:
 4764 0312 705F7072 		.ascii	"p_preempt\000"
 4764      65656D70 
 4764      7400
 4765              	.LASF65:
 4766 031c 65776D61 		.ascii	"ewmask\000"
 4766      736B00
 4767              	.LASF25:
 4768 0323 705F6E65 		.ascii	"p_next\000"
 4768      787400
 4769              	.LASF33:
 4770 032a 705F666C 		.ascii	"p_flags\000"
ARM GAS  /tmp/cccw1Yxa.s 			page 87


 4770      61677300 
 4771              	.LASF81:
 4772 0332 63684D42 		.ascii	"chMBPost\000"
 4772      506F7374 
 4772      00
 4773              	.LASF24:
 4774 033b 54687265 		.ascii	"Thread\000"
 4774      616400
 4775              	.LASF40:
 4776 0342 705F6570 		.ascii	"p_epending\000"
 4776      656E6469 
 4776      6E6700
 4777              	.LASF14:
 4778 034d 75696E74 		.ascii	"uint32_t\000"
 4778      33325F74 
 4778      00
 4779              	.LASF66:
 4780 0356 63686172 		.ascii	"char\000"
 4780      00
 4781              	.LASF71:
 4782 035b 63685365 		.ascii	"chSemWaitTimeoutS\000"
 4782      6D576169 
 4782      7454696D 
 4782      656F7574 
 4782      5300
 4783              	.LASF54:
 4784 036d 6D5F6E65 		.ascii	"m_next\000"
 4784      787400
 4785              	.LASF22:
 4786 0374 73797374 		.ascii	"systime_t\000"
 4786      696D655F 
 4786      7400
 4787              	.LASF42:
 4788 037e 705F7265 		.ascii	"p_realprio\000"
 4788      616C7072 
 4788      696F00
 4789              	.LASF6:
 4790 0389 5F5F696E 		.ascii	"__int32_t\000"
 4790      7433325F 
 4790      7400
 4791              	.LASF36:
 4792 0393 705F7469 		.ascii	"p_time\000"
 4792      6D6500
 4793              	.LASF78:
 4794 039a 63684D42 		.ascii	"chMBPostAhead\000"
 4794      506F7374 
 4794      41686561 
 4794      6400
 4795              	.LASF46:
 4796 03a8 696E7463 		.ascii	"intctx\000"
 4796      747800
 4797              	.LASF38:
 4798 03af 705F6D73 		.ascii	"p_msgqueue\000"
 4798      67717565 
 4798      756500
 4799              	.LASF75:
 4800 03ba 63684D42 		.ascii	"chMBFetch\000"
ARM GAS  /tmp/cccw1Yxa.s 			page 88


 4800      46657463 
 4800      6800
 4801              	.LASF48:
 4802 03c4 53656D61 		.ascii	"Semaphore\000"
 4802      70686F72 
 4802      6500
 4803              	.LASF59:
 4804 03ce 6D625F66 		.ascii	"mb_fullsem\000"
 4804      756C6C73 
 4804      656D00
 4805              	.LASF34:
 4806 03d9 705F7265 		.ascii	"p_refs\000"
 4806      667300
 4807              	.LASF68:
 4808 03e0 63685365 		.ascii	"chSemResetI\000"
 4808      6D526573 
 4808      65744900 
 4809              	.LASF12:
 4810 03ec 75696E74 		.ascii	"uint8_t\000"
 4810      385F7400 
 4811              	.LASF64:
 4812 03f4 77746F62 		.ascii	"wtobjp\000"
 4812      6A7000
 4813              	.LASF31:
 4814 03fb 705F6E61 		.ascii	"p_name\000"
 4814      6D6500
 4815              	.LASF53:
 4816 0402 6D5F6F77 		.ascii	"m_owner\000"
 4816      6E657200 
 4817              	.LASF28:
 4818 040a 705F6374 		.ascii	"p_ctx\000"
 4818      7800
 4819              	.LASF37:
 4820 0410 705F7761 		.ascii	"p_waiting\000"
 4820      6974696E 
 4820      6700
 4821              	.LASF69:
 4822 041a 63685365 		.ascii	"chSemInit\000"
 4822      6D496E69 
 4822      7400
 4823              		.ident	"GCC: (Arch Repository) 11.2.0"
ARM GAS  /tmp/cccw1Yxa.s 			page 89


DEFINED SYMBOLS
                            *ABS*:0000000000000000 chmboxes.c
     /tmp/cccw1Yxa.s:16     .text.chMBInit:0000000000000000 $a
     /tmp/cccw1Yxa.s:23     .text.chMBInit:0000000000000000 chMBInit
     /tmp/cccw1Yxa.s:79     .text.chMBReset:0000000000000000 $a
     /tmp/cccw1Yxa.s:85     .text.chMBReset:0000000000000000 chMBReset
     /tmp/cccw1Yxa.s:152    .text.chMBPost:0000000000000000 $a
     /tmp/cccw1Yxa.s:158    .text.chMBPost:0000000000000000 chMBPost
     /tmp/cccw1Yxa.s:267    .text.chMBPostS:0000000000000000 $a
     /tmp/cccw1Yxa.s:273    .text.chMBPostS:0000000000000000 chMBPostS
     /tmp/cccw1Yxa.s:352    .text.chMBPostI:0000000000000000 $a
     /tmp/cccw1Yxa.s:358    .text.chMBPostI:0000000000000000 chMBPostI
     /tmp/cccw1Yxa.s:429    .text.chMBPostAhead:0000000000000000 $a
     /tmp/cccw1Yxa.s:435    .text.chMBPostAhead:0000000000000000 chMBPostAhead
     /tmp/cccw1Yxa.s:547    .text.chMBPostAheadS:0000000000000000 $a
     /tmp/cccw1Yxa.s:553    .text.chMBPostAheadS:0000000000000000 chMBPostAheadS
     /tmp/cccw1Yxa.s:635    .text.chMBPostAheadI:0000000000000000 $a
     /tmp/cccw1Yxa.s:641    .text.chMBPostAheadI:0000000000000000 chMBPostAheadI
     /tmp/cccw1Yxa.s:714    .text.chMBFetch:0000000000000000 $a
     /tmp/cccw1Yxa.s:720    .text.chMBFetch:0000000000000000 chMBFetch
     /tmp/cccw1Yxa.s:832    .text.chMBFetchS:0000000000000000 $a
     /tmp/cccw1Yxa.s:838    .text.chMBFetchS:0000000000000000 chMBFetchS
     /tmp/cccw1Yxa.s:920    .text.chMBFetchI:0000000000000000 $a
     /tmp/cccw1Yxa.s:926    .text.chMBFetchI:0000000000000000 chMBFetchI

UNDEFINED SYMBOLS
chSemInit
chSemResetI
chSchRescheduleS
chSemWaitTimeoutS
chSemSignalI
