ARM GAS  /tmp/cccw1Yxa.s 			page 1


   1              		.cpu arm1176jz-s
   2              		.eabi_attribute 20, 1
   3              		.eabi_attribute 21, 1
   4              		.eabi_attribute 23, 3
   5              		.eabi_attribute 24, 1
   6              		.eabi_attribute 25, 1
   7              		.eabi_attribute 26, 1
   8              		.eabi_attribute 30, 2
   9              		.eabi_attribute 34, 1
  10              		.eabi_attribute 18, 4
  11              		.file	"chmboxes.c"
  12              		.text
  13              	.Ltext0:
  14              		.cfi_sections	.debug_frame
  15              		.section	.text.chMBInit,"ax",%progbits
  16              		.align	2
  17              		.global	chMBInit
  18              		.arch armv6kz
  19              		.syntax unified
  20              		.arm
  21              		.fpu softvfp
  22              		.type	chMBInit, %function
  23              	chMBInit:
  24              	.LVL0:
  25              	.LFB7:
  26              		.file 1 "../../os/kernel/src/chmboxes.c"
  27              		.loc 1 65 50 view -0
  28              		.cfi_startproc
  29              		@ args = 0, pretend = 0, frame = 0
  30              		@ frame_needed = 0, uses_anonymous_args = 0
  31              		.loc 1 67 3 view .LVU1
  32              		.loc 1 67 68 view .LVU2
  33              		.loc 1 69 3 view .LVU3
  34              		.loc 1 65 50 is_stmt 0 view .LVU4
  35 0000 0130A0E1 		mov	r3, r1
  36 0004 10402DE9 		push	{r4, lr}
  37              		.cfi_def_cfa_offset 8
  38              		.cfi_offset 4, -8
  39              		.cfi_offset 14, -4
  40              		.loc 1 65 50 view .LVU5
  41 0008 0040A0E1 		mov	r4, r0
  42 000c 0210A0E1 		mov	r1, r2
  43              	.LVL1:
  44              		.loc 1 70 17 view .LVU6
  45 0010 022183E0 		add	r2, r3, r2, lsl #2
  46              	.LVL2:
  47              		.loc 1 71 3 view .LVU7
  48 0014 1C0080E2 		add	r0, r0, #28
  49              	.LVL3:
  50              		.loc 1 69 50 view .LVU8
  51 0018 0C3084E5 		str	r3, [r4, #12]
  52              		.loc 1 69 34 view .LVU9
  53 001c 083084E5 		str	r3, [r4, #8]
  54              		.loc 1 69 18 view .LVU10
  55 0020 003084E5 		str	r3, [r4]
  56              		.loc 1 70 3 is_stmt 1 view .LVU11
  57              		.loc 1 70 15 is_stmt 0 view .LVU12
ARM GAS  /tmp/cccw1Yxa.s 			page 2


  58 0024 042084E5 		str	r2, [r4, #4]
  59              		.loc 1 71 3 is_stmt 1 view .LVU13
  60 0028 FEFFFFEB 		bl	chSemInit
  61              	.LVL4:
  62              		.loc 1 72 3 view .LVU14
  63 002c 100084E2 		add	r0, r4, #16
  64 0030 0010A0E3 		mov	r1, #0
  65              		.loc 1 73 1 is_stmt 0 view .LVU15
  66 0034 1040BDE8 		pop	{r4, lr}
  67              		.cfi_restore 14
  68              		.cfi_restore 4
  69              		.cfi_def_cfa_offset 0
  70              	.LVL5:
  71              		.loc 1 72 3 view .LVU16
  72 0038 FEFFFFEA 		b	chSemInit
  73              	.LVL6:
  74              		.loc 1 72 3 view .LVU17
  75              		.cfi_endproc
  76              	.LFE7:
  77              		.size	chMBInit, .-chMBInit
  78              		.section	.text.chMBReset,"ax",%progbits
  79              		.align	2
  80              		.global	chMBReset
  81              		.syntax unified
  82              		.arm
  83              		.fpu softvfp
  84              		.type	chMBReset, %function
  85              	chMBReset:
  86              	.LVL7:
  87              	.LFB8:
  88              		.loc 1 84 30 is_stmt 1 view -0
  89              		.cfi_startproc
  90              		@ args = 0, pretend = 0, frame = 0
  91              		@ frame_needed = 0, uses_anonymous_args = 0
  92              		.loc 1 86 3 view .LVU19
  93              		.loc 1 86 39 view .LVU20
  94              		.loc 1 88 3 view .LVU21
  95              		.loc 1 84 30 is_stmt 0 view .LVU22
  96 0000 10402DE9 		push	{r4, lr}
  97              		.cfi_def_cfa_offset 8
  98              		.cfi_offset 4, -8
  99              		.cfi_offset 14, -4
 100              		.loc 1 84 30 view .LVU23
 101 0004 0040A0E1 		mov	r4, r0
 102              		.loc 1 88 3 view .LVU24
 103              		.syntax divided
 104              	@ 88 "../../os/kernel/src/chmboxes.c" 1
 105 0008 9FF021E3 		msr     CPSR_c, #0x9F
 106              	@ 0 "" 2
 107              		.loc 1 88 3 is_stmt 1 view .LVU25
 108              		.loc 1 88 14 view .LVU26
 109              		.loc 1 89 3 view .LVU27
 110              		.loc 1 89 38 is_stmt 0 view .LVU28
 111              		.arm
 112              		.syntax unified
 113 000c 003090E5 		ldr	r3, [r0]
 114              		.loc 1 90 46 view .LVU29
ARM GAS  /tmp/cccw1Yxa.s 			page 3


 115 0010 041090E5 		ldr	r1, [r0, #4]
 116              		.loc 1 89 33 view .LVU30
 117 0014 0C3084E5 		str	r3, [r4, #12]
 118              		.loc 1 90 46 view .LVU31
 119 0018 031041E0 		sub	r1, r1, r3
 120              		.loc 1 89 17 view .LVU32
 121 001c 083084E5 		str	r3, [r4, #8]
 122              		.loc 1 90 3 is_stmt 1 view .LVU33
 123 0020 1C0080E2 		add	r0, r0, #28
 124              	.LVL8:
 125              		.loc 1 90 3 is_stmt 0 view .LVU34
 126 0024 4111A0E1 		asr	r1, r1, #2
 127 0028 FEFFFFEB 		bl	chSemResetI
 128              	.LVL9:
 129              		.loc 1 91 3 is_stmt 1 view .LVU35
 130 002c 0010A0E3 		mov	r1, #0
 131 0030 100084E2 		add	r0, r4, #16
 132 0034 FEFFFFEB 		bl	chSemResetI
 133              	.LVL10:
 134              		.loc 1 92 3 view .LVU36
 135 0038 FEFFFFEB 		bl	chSchRescheduleS
 136              	.LVL11:
 137              		.loc 1 93 3 view .LVU37
 138              		.loc 1 93 3 view .LVU38
 139              		.syntax divided
 140              	@ 93 "../../os/kernel/src/chmboxes.c" 1
 141 003c 1FF021E3 		msr     CPSR_c, #0x1F
 142              	@ 0 "" 2
 143              		.loc 1 93 16 view .LVU39
 144              		.loc 1 94 1 is_stmt 0 view .LVU40
 145              		.arm
 146              		.syntax unified
 147 0040 1080BDE8 		pop	{r4, pc}
 148              		.cfi_endproc
 149              	.LFE8:
 150              		.size	chMBReset, .-chMBReset
 151              		.section	.text.chMBPost,"ax",%progbits
 152              		.align	2
 153              		.global	chMBPost
 154              		.syntax unified
 155              		.arm
 156              		.fpu softvfp
 157              		.type	chMBPost, %function
 158              	chMBPost:
 159              	.LVL12:
 160              	.LFB9:
 161              		.loc 1 115 57 is_stmt 1 view -0
 162              		.cfi_startproc
 163              		@ args = 0, pretend = 0, frame = 0
 164              		@ frame_needed = 0, uses_anonymous_args = 0
 165              		.loc 1 115 57 is_stmt 0 view .LVU42
 166 0000 70402DE9 		push	{r4, r5, r6, lr}
 167              		.cfi_def_cfa_offset 16
 168              		.cfi_offset 4, -16
 169              		.cfi_offset 5, -12
 170              		.cfi_offset 6, -8
 171              		.cfi_offset 14, -4
ARM GAS  /tmp/cccw1Yxa.s 			page 4


 172              		.loc 1 115 57 view .LVU43
 173 0004 0160A0E1 		mov	r6, r1
 174              		.loc 1 116 3 is_stmt 1 view .LVU44
 175              		.loc 1 118 3 view .LVU45
 176              		.loc 1 115 57 is_stmt 0 view .LVU46
 177 0008 0040A0E1 		mov	r4, r0
 178 000c 0210A0E1 		mov	r1, r2
 179              	.LVL13:
 180              		.loc 1 118 3 view .LVU47
 181              		.syntax divided
 182              	@ 118 "../../os/kernel/src/chmboxes.c" 1
 183 0010 9FF021E3 		msr     CPSR_c, #0x9F
 184              	@ 0 "" 2
 185              		.loc 1 118 3 is_stmt 1 view .LVU48
 186              		.loc 1 118 14 view .LVU49
 187              		.loc 1 119 3 view .LVU50
 188              	.LVL14:
 189              		.arm
 190              		.syntax unified
 191              	.LBB6:
 192              	.LBI6:
 193              		.loc 1 143 7 view .LVU51
 194              	.LBB7:
 195              		.loc 1 144 3 view .LVU52
 196              		.loc 1 146 3 view .LVU53
 197              		.loc 1 146 21 view .LVU54
 198              		.loc 1 147 3 view .LVU55
 199              		.loc 1 147 39 view .LVU56
 200              		.loc 1 149 3 view .LVU57
 201              		.loc 1 149 12 is_stmt 0 view .LVU58
 202 0014 1C0080E2 		add	r0, r0, #28
 203              	.LVL15:
 204              		.loc 1 149 12 view .LVU59
 205 0018 FEFFFFEB 		bl	chSemWaitTimeoutS
 206              	.LVL16:
 207              		.loc 1 150 3 is_stmt 1 view .LVU60
 208              		.loc 1 150 6 is_stmt 0 view .LVU61
 209 001c 005050E2 		subs	r5, r0, #0
 210 0020 0A00001A 		bne	.L7
 211              	.LVL17:
 212              	.LBB8:
 213              	.LBI8:
 214              		.loc 1 143 7 is_stmt 1 view .LVU62
 215              	.LBB9:
 216              		.loc 1 151 5 view .LVU63
 217              		.loc 1 151 9 is_stmt 0 view .LVU64
 218 0024 082094E5 		ldr	r2, [r4, #8]
 219              		.loc 1 154 5 view .LVU65
 220 0028 100084E2 		add	r0, r4, #16
 221              	.LVL18:
 222              		.loc 1 151 19 view .LVU66
 223 002c 043082E2 		add	r3, r2, #4
 224 0030 083084E5 		str	r3, [r4, #8]
 225              		.loc 1 151 22 view .LVU67
 226 0034 006082E5 		str	r6, [r2]
 227              		.loc 1 152 5 is_stmt 1 view .LVU68
 228              		.loc 1 152 8 is_stmt 0 view .LVU69
ARM GAS  /tmp/cccw1Yxa.s 			page 5


 229 0038 042094E5 		ldr	r2, [r4, #4]
 230 003c 020053E1 		cmp	r3, r2
 231              		.loc 1 153 7 is_stmt 1 view .LVU70
 232              		.loc 1 154 5 view .LVU71
 233              		.loc 1 153 21 is_stmt 0 view .LVU72
 234 0040 00309425 		ldrcs	r3, [r4]
 235 0044 08308425 		strcs	r3, [r4, #8]
 236              		.loc 1 154 5 view .LVU73
 237 0048 FEFFFFEB 		bl	chSemSignalI
 238              	.LVL19:
 239              		.loc 1 155 5 is_stmt 1 view .LVU74
 240 004c FEFFFFEB 		bl	chSchRescheduleS
 241              	.LVL20:
 242              	.L7:
 243              		.loc 1 155 5 is_stmt 0 view .LVU75
 244              	.LBE9:
 245              	.LBE8:
 246              		.loc 1 157 3 is_stmt 1 view .LVU76
 247              		.loc 1 157 3 is_stmt 0 view .LVU77
 248              	.LBE7:
 249              	.LBE6:
 250              		.loc 1 120 3 is_stmt 1 view .LVU78
 251              		.loc 1 120 3 view .LVU79
 252              		.syntax divided
 253              	@ 120 "../../os/kernel/src/chmboxes.c" 1
 254 0050 1FF021E3 		msr     CPSR_c, #0x1F
 255              	@ 0 "" 2
 256              		.loc 1 120 16 view .LVU80
 257              		.loc 1 121 3 view .LVU81
 258              		.loc 1 122 1 is_stmt 0 view .LVU82
 259              		.arm
 260              		.syntax unified
 261 0054 0500A0E1 		mov	r0, r5
 262 0058 7080BDE8 		pop	{r4, r5, r6, pc}
 263              		.cfi_endproc
 264              	.LFE9:
 265              		.size	chMBPost, .-chMBPost
 266              		.section	.text.chMBPostS,"ax",%progbits
 267              		.align	2
 268              		.global	chMBPostS
 269              		.syntax unified
 270              		.arm
 271              		.fpu softvfp
 272              		.type	chMBPostS, %function
 273              	chMBPostS:
 274              	.LVL21:
 275              	.LFB10:
 276              		.loc 1 143 58 is_stmt 1 view -0
 277              		.cfi_startproc
 278              		@ args = 0, pretend = 0, frame = 0
 279              		@ frame_needed = 0, uses_anonymous_args = 0
 280              		.loc 1 143 58 is_stmt 0 view .LVU84
 281 0000 70402DE9 		push	{r4, r5, r6, lr}
 282              		.cfi_def_cfa_offset 16
 283              		.cfi_offset 4, -16
 284              		.cfi_offset 5, -12
 285              		.cfi_offset 6, -8
ARM GAS  /tmp/cccw1Yxa.s 			page 6


 286              		.cfi_offset 14, -4
 287              		.loc 1 143 58 view .LVU85
 288 0004 0160A0E1 		mov	r6, r1
 289 0008 0040A0E1 		mov	r4, r0
 290              		.loc 1 149 12 view .LVU86
 291 000c 0210A0E1 		mov	r1, r2
 292              	.LVL22:
 293              		.loc 1 144 3 is_stmt 1 view .LVU87
 294              		.loc 1 146 3 view .LVU88
 295              		.loc 1 146 21 view .LVU89
 296              		.loc 1 147 3 view .LVU90
 297              		.loc 1 147 39 view .LVU91
 298              		.loc 1 149 3 view .LVU92
 299              		.loc 1 149 12 is_stmt 0 view .LVU93
 300 0010 1C0080E2 		add	r0, r0, #28
 301              	.LVL23:
 302              		.loc 1 149 12 view .LVU94
 303 0014 FEFFFFEB 		bl	chSemWaitTimeoutS
 304              	.LVL24:
 305              		.loc 1 150 3 is_stmt 1 view .LVU95
 306              		.loc 1 150 6 is_stmt 0 view .LVU96
 307 0018 005050E2 		subs	r5, r0, #0
 308 001c 0A00001A 		bne	.L10
 309              	.LVL25:
 310              	.LBB12:
 311              	.LBI12:
 312              		.loc 1 143 7 is_stmt 1 view .LVU97
 313              	.LBB13:
 314              		.loc 1 151 5 view .LVU98
 315              		.loc 1 151 9 is_stmt 0 view .LVU99
 316 0020 082094E5 		ldr	r2, [r4, #8]
 317              		.loc 1 154 5 view .LVU100
 318 0024 100084E2 		add	r0, r4, #16
 319              	.LVL26:
 320              		.loc 1 151 19 view .LVU101
 321 0028 043082E2 		add	r3, r2, #4
 322 002c 083084E5 		str	r3, [r4, #8]
 323              		.loc 1 151 22 view .LVU102
 324 0030 006082E5 		str	r6, [r2]
 325              		.loc 1 152 5 is_stmt 1 view .LVU103
 326              		.loc 1 152 8 is_stmt 0 view .LVU104
 327 0034 042094E5 		ldr	r2, [r4, #4]
 328 0038 020053E1 		cmp	r3, r2
 329              		.loc 1 153 7 is_stmt 1 view .LVU105
 330              		.loc 1 154 5 view .LVU106
 331              		.loc 1 153 21 is_stmt 0 view .LVU107
 332 003c 00309425 		ldrcs	r3, [r4]
 333 0040 08308425 		strcs	r3, [r4, #8]
 334              		.loc 1 154 5 view .LVU108
 335 0044 FEFFFFEB 		bl	chSemSignalI
 336              	.LVL27:
 337              		.loc 1 155 5 is_stmt 1 view .LVU109
 338 0048 FEFFFFEB 		bl	chSchRescheduleS
 339              	.LVL28:
 340              		.loc 1 155 5 is_stmt 0 view .LVU110
 341              	.LBE13:
 342              	.LBE12:
ARM GAS  /tmp/cccw1Yxa.s 			page 7


 343              		.loc 1 157 3 is_stmt 1 view .LVU111
 344              	.L10:
 345              		.loc 1 158 1 is_stmt 0 view .LVU112
 346 004c 0500A0E1 		mov	r0, r5
 347 0050 7080BDE8 		pop	{r4, r5, r6, pc}
 348              		.cfi_endproc
 349              	.LFE10:
 350              		.size	chMBPostS, .-chMBPostS
 351              		.section	.text.chMBPostI,"ax",%progbits
 352              		.align	2
 353              		.global	chMBPostI
 354              		.syntax unified
 355              		.arm
 356              		.fpu softvfp
 357              		.type	chMBPostI, %function
 358              	chMBPostI:
 359              	.LVL29:
 360              	.LFB11:
 361              		.loc 1 174 42 is_stmt 1 view -0
 362              		.cfi_startproc
 363              		@ args = 0, pretend = 0, frame = 0
 364              		@ frame_needed = 0, uses_anonymous_args = 0
 365              		.loc 1 176 3 view .LVU114
 366              		.loc 1 176 21 view .LVU115
 367              		.loc 1 177 3 view .LVU116
 368              		.loc 1 177 39 view .LVU117
 369              		.loc 1 179 3 view .LVU118
 370              		.loc 1 179 7 is_stmt 0 view .LVU119
 371 0000 243090E5 		ldr	r3, [r0, #36]
 372              		.loc 1 179 6 view .LVU120
 373 0004 000053E3 		cmp	r3, #0
 374 0008 0E0000DA 		ble	.L17
 375              		.loc 1 181 3 is_stmt 1 view .LVU121
 376              		.loc 1 182 7 is_stmt 0 view .LVU122
 377 000c 08C090E5 		ldr	ip, [r0, #8]
 378              		.loc 1 181 3 view .LVU123
 379 0010 013043E2 		sub	r3, r3, #1
 380              		.loc 1 174 42 view .LVU124
 381 0014 10402DE9 		push	{r4, lr}
 382              		.cfi_def_cfa_offset 8
 383              		.cfi_offset 4, -8
 384              		.cfi_offset 14, -4
 385              		.loc 1 181 3 view .LVU125
 386 0018 243080E5 		str	r3, [r0, #36]
 387              		.loc 1 182 3 is_stmt 1 view .LVU126
 388              		.loc 1 183 6 is_stmt 0 view .LVU127
 389 001c 043090E5 		ldr	r3, [r0, #4]
 390              		.loc 1 182 17 view .LVU128
 391 0020 04208CE2 		add	r2, ip, #4
 392              		.loc 1 183 6 view .LVU129
 393 0024 030052E1 		cmp	r2, r3
 394              		.loc 1 184 19 view .LVU130
 395 0028 00309025 		ldrcs	r3, [r0]
 396              		.loc 1 182 17 view .LVU131
 397 002c 082080E5 		str	r2, [r0, #8]
 398              		.loc 1 182 20 view .LVU132
 399 0030 00108CE5 		str	r1, [ip]
ARM GAS  /tmp/cccw1Yxa.s 			page 8


 400              		.loc 1 183 3 is_stmt 1 view .LVU133
 401              		.loc 1 184 5 view .LVU134
 402              		.loc 1 185 3 view .LVU135
 403 0034 100080E2 		add	r0, r0, #16
 404              	.LVL30:
 405              		.loc 1 184 19 is_stmt 0 view .LVU136
 406 0038 08300025 		strcs	r3, [r0, #-8]
 407              		.loc 1 185 3 view .LVU137
 408 003c FEFFFFEB 		bl	chSemSignalI
 409              	.LVL31:
 410              		.loc 1 186 3 is_stmt 1 view .LVU138
 411              		.loc 1 186 10 is_stmt 0 view .LVU139
 412 0040 0000A0E3 		mov	r0, #0
 413              		.loc 1 187 1 view .LVU140
 414 0044 1080BDE8 		pop	{r4, pc}
 415              	.LVL32:
 416              	.L17:
 417              		.cfi_def_cfa_offset 0
 418              		.cfi_restore 4
 419              		.cfi_restore 14
 420              		.loc 1 180 12 view .LVU141
 421 0048 0000E0E3 		mvn	r0, #0
 422              	.LVL33:
 423              		.loc 1 187 1 view .LVU142
 424 004c 1EFF2FE1 		bx	lr
 425              		.cfi_endproc
 426              	.LFE11:
 427              		.size	chMBPostI, .-chMBPostI
 428              		.section	.text.chMBPostAhead,"ax",%progbits
 429              		.align	2
 430              		.global	chMBPostAhead
 431              		.syntax unified
 432              		.arm
 433              		.fpu softvfp
 434              		.type	chMBPostAhead, %function
 435              	chMBPostAhead:
 436              	.LVL34:
 437              	.LFB12:
 438              		.loc 1 208 62 is_stmt 1 view -0
 439              		.cfi_startproc
 440              		@ args = 0, pretend = 0, frame = 0
 441              		@ frame_needed = 0, uses_anonymous_args = 0
 442              		.loc 1 208 62 is_stmt 0 view .LVU144
 443 0000 70402DE9 		push	{r4, r5, r6, lr}
 444              		.cfi_def_cfa_offset 16
 445              		.cfi_offset 4, -16
 446              		.cfi_offset 5, -12
 447              		.cfi_offset 6, -8
 448              		.cfi_offset 14, -4
 449              		.loc 1 208 62 view .LVU145
 450 0004 0160A0E1 		mov	r6, r1
 451              		.loc 1 209 3 is_stmt 1 view .LVU146
 452              		.loc 1 211 3 view .LVU147
 453              		.loc 1 208 62 is_stmt 0 view .LVU148
 454 0008 0040A0E1 		mov	r4, r0
 455 000c 0210A0E1 		mov	r1, r2
 456              	.LVL35:
ARM GAS  /tmp/cccw1Yxa.s 			page 9


 457              		.loc 1 211 3 view .LVU149
 458              		.syntax divided
 459              	@ 211 "../../os/kernel/src/chmboxes.c" 1
 460 0010 9FF021E3 		msr     CPSR_c, #0x9F
 461              	@ 0 "" 2
 462              		.loc 1 211 3 is_stmt 1 view .LVU150
 463              		.loc 1 211 14 view .LVU151
 464              		.loc 1 212 3 view .LVU152
 465              	.LVL36:
 466              		.arm
 467              		.syntax unified
 468              	.LBB18:
 469              	.LBI18:
 470              		.loc 1 236 7 view .LVU153
 471              	.LBB19:
 472              		.loc 1 237 3 view .LVU154
 473              		.loc 1 239 3 view .LVU155
 474              		.loc 1 239 21 view .LVU156
 475              		.loc 1 240 3 view .LVU157
 476              		.loc 1 240 44 view .LVU158
 477              		.loc 1 242 3 view .LVU159
 478              		.loc 1 242 12 is_stmt 0 view .LVU160
 479 0014 1C0080E2 		add	r0, r0, #28
 480              	.LVL37:
 481              		.loc 1 242 12 view .LVU161
 482 0018 FEFFFFEB 		bl	chSemWaitTimeoutS
 483              	.LVL38:
 484              		.loc 1 243 3 is_stmt 1 view .LVU162
 485              		.loc 1 243 6 is_stmt 0 view .LVU163
 486 001c 005050E2 		subs	r5, r0, #0
 487 0020 0B00001A 		bne	.L23
 488              	.LVL39:
 489              	.LBB20:
 490              	.LBI20:
 491              		.loc 1 236 7 is_stmt 1 view .LVU164
 492              	.LBB21:
 493              		.loc 1 244 5 view .LVU165
 494              		.loc 1 244 9 is_stmt 0 view .LVU166
 495 0024 0C3094E5 		ldr	r3, [r4, #12]
 496              		.loc 1 244 8 view .LVU167
 497 0028 002094E5 		ldr	r2, [r4]
 498              		.loc 1 244 9 view .LVU168
 499 002c 043043E2 		sub	r3, r3, #4
 500              		.loc 1 244 8 view .LVU169
 501 0030 020053E1 		cmp	r3, r2
 502 0034 0C3084E5 		str	r3, [r4, #12]
 503              		.loc 1 245 7 is_stmt 1 view .LVU170
 504              		.loc 1 246 5 view .LVU171
 505              		.loc 1 245 35 is_stmt 0 view .LVU172
 506 0038 04309435 		ldrcc	r3, [r4, #4]
 507              		.loc 1 247 5 view .LVU173
 508 003c 100084E2 		add	r0, r4, #16
 509              	.LVL40:
 510              		.loc 1 245 35 view .LVU174
 511 0040 04304332 		subcc	r3, r3, #4
 512              		.loc 1 245 21 view .LVU175
 513 0044 0C308435 		strcc	r3, [r4, #12]
ARM GAS  /tmp/cccw1Yxa.s 			page 10


 514              		.loc 1 246 20 view .LVU176
 515 0048 006083E5 		str	r6, [r3]
 516              		.loc 1 247 5 is_stmt 1 view .LVU177
 517 004c FEFFFFEB 		bl	chSemSignalI
 518              	.LVL41:
 519              		.loc 1 248 5 view .LVU178
 520 0050 FEFFFFEB 		bl	chSchRescheduleS
 521              	.LVL42:
 522              	.L23:
 523              		.loc 1 248 5 is_stmt 0 view .LVU179
 524              	.LBE21:
 525              	.LBE20:
 526              		.loc 1 250 3 is_stmt 1 view .LVU180
 527              		.loc 1 250 3 is_stmt 0 view .LVU181
 528              	.LBE19:
 529              	.LBE18:
 530              		.loc 1 213 3 is_stmt 1 view .LVU182
 531              		.loc 1 213 3 view .LVU183
 532              		.syntax divided
 533              	@ 213 "../../os/kernel/src/chmboxes.c" 1
 534 0054 1FF021E3 		msr     CPSR_c, #0x1F
 535              	@ 0 "" 2
 536              		.loc 1 213 16 view .LVU184
 537              		.loc 1 214 3 view .LVU185
 538              		.loc 1 215 1 is_stmt 0 view .LVU186
 539              		.arm
 540              		.syntax unified
 541 0058 0500A0E1 		mov	r0, r5
 542 005c 7080BDE8 		pop	{r4, r5, r6, pc}
 543              		.cfi_endproc
 544              	.LFE12:
 545              		.size	chMBPostAhead, .-chMBPostAhead
 546              		.section	.text.chMBPostAheadS,"ax",%progbits
 547              		.align	2
 548              		.global	chMBPostAheadS
 549              		.syntax unified
 550              		.arm
 551              		.fpu softvfp
 552              		.type	chMBPostAheadS, %function
 553              	chMBPostAheadS:
 554              	.LVL43:
 555              	.LFB13:
 556              		.loc 1 236 63 is_stmt 1 view -0
 557              		.cfi_startproc
 558              		@ args = 0, pretend = 0, frame = 0
 559              		@ frame_needed = 0, uses_anonymous_args = 0
 560              		.loc 1 236 63 is_stmt 0 view .LVU188
 561 0000 70402DE9 		push	{r4, r5, r6, lr}
 562              		.cfi_def_cfa_offset 16
 563              		.cfi_offset 4, -16
 564              		.cfi_offset 5, -12
 565              		.cfi_offset 6, -8
 566              		.cfi_offset 14, -4
 567              		.loc 1 236 63 view .LVU189
 568 0004 0160A0E1 		mov	r6, r1
 569 0008 0040A0E1 		mov	r4, r0
 570              		.loc 1 242 12 view .LVU190
ARM GAS  /tmp/cccw1Yxa.s 			page 11


 571 000c 0210A0E1 		mov	r1, r2
 572              	.LVL44:
 573              		.loc 1 237 3 is_stmt 1 view .LVU191
 574              		.loc 1 239 3 view .LVU192
 575              		.loc 1 239 21 view .LVU193
 576              		.loc 1 240 3 view .LVU194
 577              		.loc 1 240 44 view .LVU195
 578              		.loc 1 242 3 view .LVU196
 579              		.loc 1 242 12 is_stmt 0 view .LVU197
 580 0010 1C0080E2 		add	r0, r0, #28
 581              	.LVL45:
 582              		.loc 1 242 12 view .LVU198
 583 0014 FEFFFFEB 		bl	chSemWaitTimeoutS
 584              	.LVL46:
 585              		.loc 1 243 3 is_stmt 1 view .LVU199
 586              		.loc 1 243 6 is_stmt 0 view .LVU200
 587 0018 005050E2 		subs	r5, r0, #0
 588 001c 0B00001A 		bne	.L26
 589              	.LVL47:
 590              	.LBB24:
 591              	.LBI24:
 592              		.loc 1 236 7 is_stmt 1 view .LVU201
 593              	.LBB25:
 594              		.loc 1 244 5 view .LVU202
 595              		.loc 1 244 9 is_stmt 0 view .LVU203
 596 0020 0C3094E5 		ldr	r3, [r4, #12]
 597              		.loc 1 244 8 view .LVU204
 598 0024 002094E5 		ldr	r2, [r4]
 599              		.loc 1 244 9 view .LVU205
 600 0028 043043E2 		sub	r3, r3, #4
 601              		.loc 1 244 8 view .LVU206
 602 002c 020053E1 		cmp	r3, r2
 603 0030 0C3084E5 		str	r3, [r4, #12]
 604              		.loc 1 245 7 is_stmt 1 view .LVU207
 605              		.loc 1 246 5 view .LVU208
 606              		.loc 1 245 35 is_stmt 0 view .LVU209
 607 0034 04309435 		ldrcc	r3, [r4, #4]
 608              		.loc 1 247 5 view .LVU210
 609 0038 100084E2 		add	r0, r4, #16
 610              	.LVL48:
 611              		.loc 1 245 35 view .LVU211
 612 003c 04304332 		subcc	r3, r3, #4
 613              		.loc 1 245 21 view .LVU212
 614 0040 0C308435 		strcc	r3, [r4, #12]
 615              		.loc 1 246 20 view .LVU213
 616 0044 006083E5 		str	r6, [r3]
 617              		.loc 1 247 5 is_stmt 1 view .LVU214
 618 0048 FEFFFFEB 		bl	chSemSignalI
 619              	.LVL49:
 620              		.loc 1 248 5 view .LVU215
 621 004c FEFFFFEB 		bl	chSchRescheduleS
 622              	.LVL50:
 623              		.loc 1 248 5 is_stmt 0 view .LVU216
 624              	.LBE25:
 625              	.LBE24:
 626              		.loc 1 250 3 is_stmt 1 view .LVU217
 627              	.L26:
ARM GAS  /tmp/cccw1Yxa.s 			page 12


 628              		.loc 1 251 1 is_stmt 0 view .LVU218
 629 0050 0500A0E1 		mov	r0, r5
 630 0054 7080BDE8 		pop	{r4, r5, r6, pc}
 631              		.cfi_endproc
 632              	.LFE13:
 633              		.size	chMBPostAheadS, .-chMBPostAheadS
 634              		.section	.text.chMBPostAheadI,"ax",%progbits
 635              		.align	2
 636              		.global	chMBPostAheadI
 637              		.syntax unified
 638              		.arm
 639              		.fpu softvfp
 640              		.type	chMBPostAheadI, %function
 641              	chMBPostAheadI:
 642              	.LVL51:
 643              	.LFB14:
 644              		.loc 1 267 47 is_stmt 1 view -0
 645              		.cfi_startproc
 646              		@ args = 0, pretend = 0, frame = 0
 647              		@ frame_needed = 0, uses_anonymous_args = 0
 648              		.loc 1 269 3 view .LVU220
 649              		.loc 1 269 21 view .LVU221
 650              		.loc 1 270 3 view .LVU222
 651              		.loc 1 270 44 view .LVU223
 652              		.loc 1 272 3 view .LVU224
 653              		.loc 1 272 7 is_stmt 0 view .LVU225
 654 0000 242090E5 		ldr	r2, [r0, #36]
 655              		.loc 1 272 6 view .LVU226
 656 0004 000052E3 		cmp	r2, #0
 657 0008 0F0000DA 		ble	.L33
 658              		.loc 1 274 3 is_stmt 1 view .LVU227
 659              		.loc 1 275 7 is_stmt 0 view .LVU228
 660 000c 0C3090E5 		ldr	r3, [r0, #12]
 661              		.loc 1 275 6 view .LVU229
 662 0010 00C090E5 		ldr	ip, [r0]
 663              		.loc 1 275 7 view .LVU230
 664 0014 043043E2 		sub	r3, r3, #4
 665              		.loc 1 275 6 view .LVU231
 666 0018 0C0053E1 		cmp	r3, ip
 667              		.loc 1 267 47 view .LVU232
 668 001c 10402DE9 		push	{r4, lr}
 669              		.cfi_def_cfa_offset 8
 670              		.cfi_offset 4, -8
 671              		.cfi_offset 14, -4
 672              		.loc 1 275 6 view .LVU233
 673 0020 0C3080E5 		str	r3, [r0, #12]
 674              		.loc 1 276 33 view .LVU234
 675 0024 04309035 		ldrcc	r3, [r0, #4]
 676              		.loc 1 274 3 view .LVU235
 677 0028 012042E2 		sub	r2, r2, #1
 678              		.loc 1 276 33 view .LVU236
 679 002c 04304332 		subcc	r3, r3, #4
 680              		.loc 1 274 3 view .LVU237
 681 0030 242080E5 		str	r2, [r0, #36]
 682              		.loc 1 275 3 is_stmt 1 view .LVU238
 683              		.loc 1 276 5 view .LVU239
 684              		.loc 1 277 3 view .LVU240
ARM GAS  /tmp/cccw1Yxa.s 			page 13


 685              		.loc 1 276 19 is_stmt 0 view .LVU241
 686 0034 0C308035 		strcc	r3, [r0, #12]
 687              		.loc 1 277 18 view .LVU242
 688 0038 001083E5 		str	r1, [r3]
 689              		.loc 1 278 3 is_stmt 1 view .LVU243
 690 003c 100080E2 		add	r0, r0, #16
 691              	.LVL52:
 692              		.loc 1 278 3 is_stmt 0 view .LVU244
 693 0040 FEFFFFEB 		bl	chSemSignalI
 694              	.LVL53:
 695              		.loc 1 279 3 is_stmt 1 view .LVU245
 696              		.loc 1 279 10 is_stmt 0 view .LVU246
 697 0044 0000A0E3 		mov	r0, #0
 698              		.loc 1 280 1 view .LVU247
 699 0048 1080BDE8 		pop	{r4, pc}
 700              	.LVL54:
 701              	.L33:
 702              		.cfi_def_cfa_offset 0
 703              		.cfi_restore 4
 704              		.cfi_restore 14
 705              		.loc 1 273 12 view .LVU248
 706 004c 0000E0E3 		mvn	r0, #0
 707              	.LVL55:
 708              		.loc 1 280 1 view .LVU249
 709 0050 1EFF2FE1 		bx	lr
 710              		.cfi_endproc
 711              	.LFE14:
 712              		.size	chMBPostAheadI, .-chMBPostAheadI
 713              		.section	.text.chMBFetch,"ax",%progbits
 714              		.align	2
 715              		.global	chMBFetch
 716              		.syntax unified
 717              		.arm
 718              		.fpu softvfp
 719              		.type	chMBFetch, %function
 720              	chMBFetch:
 721              	.LVL56:
 722              	.LFB15:
 723              		.loc 1 301 60 is_stmt 1 view -0
 724              		.cfi_startproc
 725              		@ args = 0, pretend = 0, frame = 0
 726              		@ frame_needed = 0, uses_anonymous_args = 0
 727              		.loc 1 301 60 is_stmt 0 view .LVU251
 728 0000 70402DE9 		push	{r4, r5, r6, lr}
 729              		.cfi_def_cfa_offset 16
 730              		.cfi_offset 4, -16
 731              		.cfi_offset 5, -12
 732              		.cfi_offset 6, -8
 733              		.cfi_offset 14, -4
 734              		.loc 1 301 60 view .LVU252
 735 0004 0160A0E1 		mov	r6, r1
 736              		.loc 1 302 3 is_stmt 1 view .LVU253
 737              		.loc 1 304 3 view .LVU254
 738              		.loc 1 301 60 is_stmt 0 view .LVU255
 739 0008 0040A0E1 		mov	r4, r0
 740 000c 0210A0E1 		mov	r1, r2
 741              	.LVL57:
ARM GAS  /tmp/cccw1Yxa.s 			page 14


 742              		.loc 1 304 3 view .LVU256
 743              		.syntax divided
 744              	@ 304 "../../os/kernel/src/chmboxes.c" 1
 745 0010 9FF021E3 		msr     CPSR_c, #0x9F
 746              	@ 0 "" 2
 747              		.loc 1 304 3 is_stmt 1 view .LVU257
 748              		.loc 1 304 14 view .LVU258
 749              		.loc 1 305 3 view .LVU259
 750              	.LVL58:
 751              		.arm
 752              		.syntax unified
 753              	.LBB30:
 754              	.LBI30:
 755              		.loc 1 329 7 view .LVU260
 756              	.LBB31:
 757              		.loc 1 330 3 view .LVU261
 758              		.loc 1 332 3 view .LVU262
 759              		.loc 1 332 21 view .LVU263
 760              		.loc 1 333 3 view .LVU264
 761              		.loc 1 333 60 view .LVU265
 762              		.loc 1 335 3 view .LVU266
 763              		.loc 1 335 12 is_stmt 0 view .LVU267
 764 0014 100080E2 		add	r0, r0, #16
 765              	.LVL59:
 766              		.loc 1 335 12 view .LVU268
 767 0018 FEFFFFEB 		bl	chSemWaitTimeoutS
 768              	.LVL60:
 769              		.loc 1 336 3 is_stmt 1 view .LVU269
 770              		.loc 1 336 6 is_stmt 0 view .LVU270
 771 001c 005050E2 		subs	r5, r0, #0
 772 0020 0B00001A 		bne	.L39
 773              	.LVL61:
 774              	.LBB32:
 775              	.LBI32:
 776              		.loc 1 329 7 is_stmt 1 view .LVU271
 777              	.LBB33:
 778              		.loc 1 337 5 view .LVU272
 779              		.loc 1 337 17 is_stmt 0 view .LVU273
 780 0024 0C2094E5 		ldr	r2, [r4, #12]
 781              		.loc 1 340 5 view .LVU274
 782 0028 1C0084E2 		add	r0, r4, #28
 783              	.LVL62:
 784              		.loc 1 337 27 view .LVU275
 785 002c 043082E2 		add	r3, r2, #4
 786              		.loc 1 337 13 view .LVU276
 787 0030 002092E5 		ldr	r2, [r2]
 788              		.loc 1 337 27 view .LVU277
 789 0034 0C3084E5 		str	r3, [r4, #12]
 790              		.loc 1 337 11 view .LVU278
 791 0038 002086E5 		str	r2, [r6]
 792              		.loc 1 338 5 is_stmt 1 view .LVU279
 793              		.loc 1 338 8 is_stmt 0 view .LVU280
 794 003c 042094E5 		ldr	r2, [r4, #4]
 795 0040 020053E1 		cmp	r3, r2
 796              		.loc 1 339 7 is_stmt 1 view .LVU281
 797              		.loc 1 340 5 view .LVU282
 798              		.loc 1 339 21 is_stmt 0 view .LVU283
ARM GAS  /tmp/cccw1Yxa.s 			page 15


 799 0044 00309425 		ldrcs	r3, [r4]
 800 0048 0C308425 		strcs	r3, [r4, #12]
 801              		.loc 1 340 5 view .LVU284
 802 004c FEFFFFEB 		bl	chSemSignalI
 803              	.LVL63:
 804              		.loc 1 341 5 is_stmt 1 view .LVU285
 805 0050 FEFFFFEB 		bl	chSchRescheduleS
 806              	.LVL64:
 807              	.L39:
 808              		.loc 1 341 5 is_stmt 0 view .LVU286
 809              	.LBE33:
 810              	.LBE32:
 811              		.loc 1 343 3 is_stmt 1 view .LVU287
 812              		.loc 1 343 3 is_stmt 0 view .LVU288
 813              	.LBE31:
 814              	.LBE30:
 815              		.loc 1 306 3 is_stmt 1 view .LVU289
 816              		.loc 1 306 3 view .LVU290
 817              		.syntax divided
 818              	@ 306 "../../os/kernel/src/chmboxes.c" 1
 819 0054 1FF021E3 		msr     CPSR_c, #0x1F
 820              	@ 0 "" 2
 821              		.loc 1 306 16 view .LVU291
 822              		.loc 1 307 3 view .LVU292
 823              		.loc 1 308 1 is_stmt 0 view .LVU293
 824              		.arm
 825              		.syntax unified
 826 0058 0500A0E1 		mov	r0, r5
 827 005c 7080BDE8 		pop	{r4, r5, r6, pc}
 828              		.cfi_endproc
 829              	.LFE15:
 830              		.size	chMBFetch, .-chMBFetch
 831              		.section	.text.chMBFetchS,"ax",%progbits
 832              		.align	2
 833              		.global	chMBFetchS
 834              		.syntax unified
 835              		.arm
 836              		.fpu softvfp
 837              		.type	chMBFetchS, %function
 838              	chMBFetchS:
 839              	.LVL65:
 840              	.LFB16:
 841              		.loc 1 329 61 is_stmt 1 view -0
 842              		.cfi_startproc
 843              		@ args = 0, pretend = 0, frame = 0
 844              		@ frame_needed = 0, uses_anonymous_args = 0
 845              		.loc 1 329 61 is_stmt 0 view .LVU295
 846 0000 70402DE9 		push	{r4, r5, r6, lr}
 847              		.cfi_def_cfa_offset 16
 848              		.cfi_offset 4, -16
 849              		.cfi_offset 5, -12
 850              		.cfi_offset 6, -8
 851              		.cfi_offset 14, -4
 852              		.loc 1 329 61 view .LVU296
 853 0004 0160A0E1 		mov	r6, r1
 854 0008 0040A0E1 		mov	r4, r0
 855              		.loc 1 335 12 view .LVU297
ARM GAS  /tmp/cccw1Yxa.s 			page 16


 856 000c 0210A0E1 		mov	r1, r2
 857              	.LVL66:
 858              		.loc 1 330 3 is_stmt 1 view .LVU298
 859              		.loc 1 332 3 view .LVU299
 860              		.loc 1 332 21 view .LVU300
 861              		.loc 1 333 3 view .LVU301
 862              		.loc 1 333 60 view .LVU302
 863              		.loc 1 335 3 view .LVU303
 864              		.loc 1 335 12 is_stmt 0 view .LVU304
 865 0010 100080E2 		add	r0, r0, #16
 866              	.LVL67:
 867              		.loc 1 335 12 view .LVU305
 868 0014 FEFFFFEB 		bl	chSemWaitTimeoutS
 869              	.LVL68:
 870              		.loc 1 336 3 is_stmt 1 view .LVU306
 871              		.loc 1 336 6 is_stmt 0 view .LVU307
 872 0018 005050E2 		subs	r5, r0, #0
 873 001c 0B00001A 		bne	.L42
 874              	.LVL69:
 875              	.LBB36:
 876              	.LBI36:
 877              		.loc 1 329 7 is_stmt 1 view .LVU308
 878              	.LBB37:
 879              		.loc 1 337 5 view .LVU309
 880              		.loc 1 337 17 is_stmt 0 view .LVU310
 881 0020 0C2094E5 		ldr	r2, [r4, #12]
 882              		.loc 1 340 5 view .LVU311
 883 0024 1C0084E2 		add	r0, r4, #28
 884              	.LVL70:
 885              		.loc 1 337 27 view .LVU312
 886 0028 043082E2 		add	r3, r2, #4
 887              		.loc 1 337 13 view .LVU313
 888 002c 002092E5 		ldr	r2, [r2]
 889              		.loc 1 337 27 view .LVU314
 890 0030 0C3084E5 		str	r3, [r4, #12]
 891              		.loc 1 337 11 view .LVU315
 892 0034 002086E5 		str	r2, [r6]
 893              		.loc 1 338 5 is_stmt 1 view .LVU316
 894              		.loc 1 338 8 is_stmt 0 view .LVU317
 895 0038 042094E5 		ldr	r2, [r4, #4]
 896 003c 020053E1 		cmp	r3, r2
 897              		.loc 1 339 7 is_stmt 1 view .LVU318
 898              		.loc 1 340 5 view .LVU319
 899              		.loc 1 339 21 is_stmt 0 view .LVU320
 900 0040 00309425 		ldrcs	r3, [r4]
 901 0044 0C308425 		strcs	r3, [r4, #12]
 902              		.loc 1 340 5 view .LVU321
 903 0048 FEFFFFEB 		bl	chSemSignalI
 904              	.LVL71:
 905              		.loc 1 341 5 is_stmt 1 view .LVU322
 906 004c FEFFFFEB 		bl	chSchRescheduleS
 907              	.LVL72:
 908              		.loc 1 341 5 is_stmt 0 view .LVU323
 909              	.LBE37:
 910              	.LBE36:
 911              		.loc 1 343 3 is_stmt 1 view .LVU324
 912              	.L42:
ARM GAS  /tmp/cccw1Yxa.s 			page 17


 913              		.loc 1 344 1 is_stmt 0 view .LVU325
 914 0050 0500A0E1 		mov	r0, r5
 915 0054 7080BDE8 		pop	{r4, r5, r6, pc}
 916              		.cfi_endproc
 917              	.LFE16:
 918              		.size	chMBFetchS, .-chMBFetchS
 919              		.section	.text.chMBFetchI,"ax",%progbits
 920              		.align	2
 921              		.global	chMBFetchI
 922              		.syntax unified
 923              		.arm
 924              		.fpu softvfp
 925              		.type	chMBFetchI, %function
 926              	chMBFetchI:
 927              	.LVL73:
 928              	.LFB17:
 929              		.loc 1 360 45 is_stmt 1 view -0
 930              		.cfi_startproc
 931              		@ args = 0, pretend = 0, frame = 0
 932              		@ frame_needed = 0, uses_anonymous_args = 0
 933              		.loc 1 362 3 view .LVU327
 934              		.loc 1 362 21 view .LVU328
 935              		.loc 1 363 3 view .LVU329
 936              		.loc 1 363 60 view .LVU330
 937              		.loc 1 365 3 view .LVU331
 938              		.loc 1 365 7 is_stmt 0 view .LVU332
 939 0000 183090E5 		ldr	r3, [r0, #24]
 940              		.loc 1 365 6 view .LVU333
 941 0004 000053E3 		cmp	r3, #0
 942 0008 0F0000DA 		ble	.L49
 943              		.loc 1 367 3 is_stmt 1 view .LVU334
 944              		.loc 1 368 15 is_stmt 0 view .LVU335
 945 000c 0C2090E5 		ldr	r2, [r0, #12]
 946              		.loc 1 367 3 view .LVU336
 947 0010 013043E2 		sub	r3, r3, #1
 948              		.loc 1 360 45 view .LVU337
 949 0014 10402DE9 		push	{r4, lr}
 950              		.cfi_def_cfa_offset 8
 951              		.cfi_offset 4, -8
 952              		.cfi_offset 14, -4
 953              		.loc 1 367 3 view .LVU338
 954 0018 183080E5 		str	r3, [r0, #24]
 955              		.loc 1 368 3 is_stmt 1 view .LVU339
 956              		.loc 1 368 25 is_stmt 0 view .LVU340
 957 001c 043082E2 		add	r3, r2, #4
 958              		.loc 1 368 11 view .LVU341
 959 0020 002092E5 		ldr	r2, [r2]
 960              		.loc 1 368 25 view .LVU342
 961 0024 0C3080E5 		str	r3, [r0, #12]
 962              		.loc 1 368 9 view .LVU343
 963 0028 002081E5 		str	r2, [r1]
 964              		.loc 1 369 3 is_stmt 1 view .LVU344
 965              		.loc 1 369 6 is_stmt 0 view .LVU345
 966 002c 042090E5 		ldr	r2, [r0, #4]
 967              		.loc 1 371 3 view .LVU346
 968 0030 1C0080E2 		add	r0, r0, #28
 969              	.LVL74:
ARM GAS  /tmp/cccw1Yxa.s 			page 18


 970              		.loc 1 369 6 view .LVU347
 971 0034 020053E1 		cmp	r3, r2
 972              		.loc 1 370 5 is_stmt 1 view .LVU348
 973              		.loc 1 371 3 view .LVU349
 974              		.loc 1 370 19 is_stmt 0 view .LVU350
 975 0038 1C301025 		ldrcs	r3, [r0, #-28]
 976 003c 10300025 		strcs	r3, [r0, #-16]
 977              		.loc 1 371 3 view .LVU351
 978 0040 FEFFFFEB 		bl	chSemSignalI
 979              	.LVL75:
 980              		.loc 1 372 3 is_stmt 1 view .LVU352
 981              		.loc 1 372 10 is_stmt 0 view .LVU353
 982 0044 0000A0E3 		mov	r0, #0
 983              		.loc 1 373 1 view .LVU354
 984 0048 1080BDE8 		pop	{r4, pc}
 985              	.LVL76:
 986              	.L49:
 987              		.cfi_def_cfa_offset 0
 988              		.cfi_restore 4
 989              		.cfi_restore 14
 990              		.loc 1 366 12 view .LVU355
 991 004c 0000E0E3 		mvn	r0, #0
 992              	.LVL77:
 993              		.loc 1 373 1 view .LVU356
 994 0050 1EFF2FE1 		bx	lr
 995              		.cfi_endproc
 996              	.LFE17:
 997              		.size	chMBFetchI, .-chMBFetchI
 998              		.text
 999              	.Letext0:
 1000              		.file 2 "/usr/arm-none-eabi/include/machine/_default_types.h"
 1001              		.file 3 "/usr/arm-none-eabi/include/sys/_stdint.h"
 1002              		.file 4 "../../os/ports/GCC/ARM/chtypes.h"
 1003              		.file 5 "../../os/kernel/include/chlists.h"
 1004              		.file 6 "../../os/kernel/include/chthreads.h"
 1005              		.file 7 "../../os/ports/GCC/ARM/chcore.h"
 1006              		.file 8 "../../os/kernel/include/chsem.h"
 1007              		.file 9 "../../os/kernel/include/chmtx.h"
 1008              		.file 10 "../../os/kernel/include/chmboxes.h"
 1009              		.file 11 "../../os/kernel/include/chschd.h"