ARM GAS  /tmp/ccGjV6xc.s 			page 1


   1              		.cpu arm1176jz-s
   2              		.eabi_attribute 20, 1
   3              		.eabi_attribute 21, 1
   4              		.eabi_attribute 23, 3
   5              		.eabi_attribute 24, 1
   6              		.eabi_attribute 25, 1
   7              		.eabi_attribute 26, 1
   8              		.eabi_attribute 30, 2
   9              		.eabi_attribute 34, 1
  10              		.eabi_attribute 18, 4
  11              		.file	"chmemcore.c"
  12              		.text
  13              	.Ltext0:
  14              		.cfi_sections	.debug_frame
  15              		.section	.text._core_init,"ax",%progbits
  16              		.align	2
  17              		.global	_core_init
  18              		.arch armv6kz
  19              		.syntax unified
  20              		.arm
  21              		.fpu softvfp
  22              		.type	_core_init, %function
  23              	_core_init:
  24              	.LFB7:
  25              		.file 1 "../../os/kernel/src/chmemcore.c"
  26              		.loc 1 59 23 view -0
  27              		.cfi_startproc
  28              		@ args = 0, pretend = 0, frame = 0
  29              		@ frame_needed = 0, uses_anonymous_args = 0
  30              		@ link register save eliminated.
  31              		.loc 1 61 3 view .LVU1
  32              		.loc 1 62 3 view .LVU2
  33              		.loc 1 63 3 view .LVU3
  34              		.loc 1 63 24 is_stmt 0 view .LVU4
  35 0000 1C209FE5 		ldr	r2, .L3
  36              		.loc 1 64 23 view .LVU5
  37 0004 1C309FE5 		ldr	r3, .L3+4
  38              		.loc 1 63 11 view .LVU6
  39 0008 1C009FE5 		ldr	r0, .L3+8
  40              		.loc 1 64 10 view .LVU7
  41 000c 1C109FE5 		ldr	r1, .L3+12
  42              		.loc 1 63 24 view .LVU8
  43 0010 0320C2E3 		bic	r2, r2, #3
  44              		.loc 1 64 23 view .LVU9
  45 0014 0330C3E3 		bic	r3, r3, #3
  46              		.loc 1 63 11 view .LVU10
  47 0018 002080E5 		str	r2, [r0]
  48              		.loc 1 64 3 is_stmt 1 view .LVU11
  49              		.loc 1 64 10 is_stmt 0 view .LVU12
  50 001c 003081E5 		str	r3, [r1]
  51              		.loc 1 70 1 view .LVU13
  52 0020 1EFF2FE1 		bx	lr
  53              	.L4:
  54              		.align	2
  55              	.L3:
  56 0024 03000000 		.word	__heap_base__+3
  57 0028 00000000 		.word	__heap_end__
ARM GAS  /tmp/ccGjV6xc.s 			page 2


  58 002c 00000000 		.word	.LANCHOR0
  59 0030 00000000 		.word	.LANCHOR1
  60              		.cfi_endproc
  61              	.LFE7:
  62              		.size	_core_init, .-_core_init
  63              		.section	.text.chCoreAlloc,"ax",%progbits
  64              		.align	2
  65              		.global	chCoreAlloc
  66              		.syntax unified
  67              		.arm
  68              		.fpu softvfp
  69              		.type	chCoreAlloc, %function
  70              	chCoreAlloc:
  71              	.LVL0:
  72              	.LFB8:
  73              		.loc 1 84 32 is_stmt 1 view -0
  74              		.cfi_startproc
  75              		@ args = 0, pretend = 0, frame = 0
  76              		@ frame_needed = 0, uses_anonymous_args = 0
  77              		@ link register save eliminated.
  78              		.loc 1 85 3 view .LVU15
  79              		.loc 1 87 3 view .LVU16
  80              		.loc 1 84 32 is_stmt 0 view .LVU17
  81 0000 0030A0E1 		mov	r3, r0
  82              		.loc 1 87 3 view .LVU18
  83              		.syntax divided
  84              	@ 87 "../../os/kernel/src/chmemcore.c" 1
  85 0004 9FF021E3 		msr     CPSR_c, #0x9F
  86              	@ 0 "" 2
  87              		.loc 1 87 3 is_stmt 1 view .LVU19
  88              		.loc 1 87 14 view .LVU20
  89              		.loc 1 88 3 view .LVU21
  90              	.LVL1:
  91              		.arm
  92              		.syntax unified
  93              	.LBB4:
  94              	.LBI4:
  95              		.loc 1 105 7 view .LVU22
  96              	.LBB5:
  97              		.loc 1 106 3 view .LVU23
  98              		.loc 1 108 3 view .LVU24
  99              		.loc 1 108 21 view .LVU25
 100              		.loc 1 110 3 view .LVU26
 101              		.loc 1 111 23 is_stmt 0 view .LVU27
 102 0008 2C109FE5 		ldr	r1, .L8
 103 000c 2C209FE5 		ldr	r2, .L8+4
 104 0010 000091E5 		ldr	r0, [r1]
 105              	.LVL2:
 106              		.loc 1 111 23 view .LVU28
 107 0014 002092E5 		ldr	r2, [r2]
 108              		.loc 1 110 10 view .LVU29
 109 0018 033083E2 		add	r3, r3, #3
 110              	.LVL3:
 111              		.loc 1 110 8 view .LVU30
 112 001c 0330C3E3 		bic	r3, r3, #3
 113              	.LVL4:
 114              		.loc 1 111 3 is_stmt 1 view .LVU31
ARM GAS  /tmp/ccGjV6xc.s 			page 3


 115              		.loc 1 111 23 is_stmt 0 view .LVU32
 116 0020 002042E0 		sub	r2, r2, r0
 117              		.loc 1 111 6 view .LVU33
 118 0024 020053E1 		cmp	r3, r2
 119              		.loc 1 113 3 is_stmt 1 view .LVU34
 120              	.LVL5:
 121              		.loc 1 114 3 view .LVU35
 122              		.loc 1 114 11 is_stmt 0 view .LVU36
 123 0028 03308090 		addls	r3, r0, r3
 124              	.LVL6:
 125              		.loc 1 112 12 view .LVU37
 126 002c 0000A083 		movhi	r0, #0
 127              	.LVL7:
 128              		.loc 1 114 11 view .LVU38
 129 0030 00308195 		strls	r3, [r1]
 130              	.LVL8:
 131              		.loc 1 115 3 is_stmt 1 view .LVU39
 132              		.loc 1 115 3 is_stmt 0 view .LVU40
 133              	.LBE5:
 134              	.LBE4:
 135              		.loc 1 89 3 is_stmt 1 view .LVU41
 136              		.loc 1 89 3 view .LVU42
 137              		.syntax divided
 138              	@ 89 "../../os/kernel/src/chmemcore.c" 1
 139 0034 1FF021E3 		msr     CPSR_c, #0x1F
 140              	@ 0 "" 2
 141              		.loc 1 89 16 view .LVU43
 142              		.loc 1 90 3 view .LVU44
 143              		.loc 1 91 1 is_stmt 0 view .LVU45
 144              		.arm
 145              		.syntax unified
 146 0038 1EFF2FE1 		bx	lr
 147              	.L9:
 148              		.align	2
 149              	.L8:
 150 003c 00000000 		.word	.LANCHOR0
 151 0040 00000000 		.word	.LANCHOR1
 152              		.cfi_endproc
 153              	.LFE8:
 154              		.size	chCoreAlloc, .-chCoreAlloc
 155              		.section	.text.chCoreAllocI,"ax",%progbits
 156              		.align	2
 157              		.global	chCoreAllocI
 158              		.syntax unified
 159              		.arm
 160              		.fpu softvfp
 161              		.type	chCoreAllocI, %function
 162              	chCoreAllocI:
 163              	.LVL9:
 164              	.LFB9:
 165              		.loc 1 105 33 is_stmt 1 view -0
 166              		.cfi_startproc
 167              		@ args = 0, pretend = 0, frame = 0
 168              		@ frame_needed = 0, uses_anonymous_args = 0
 169              		@ link register save eliminated.
 170              		.loc 1 106 3 view .LVU47
 171              		.loc 1 108 3 view .LVU48
ARM GAS  /tmp/ccGjV6xc.s 			page 4


 172              		.loc 1 108 21 view .LVU49
 173              		.loc 1 110 3 view .LVU50
 174              		.loc 1 105 33 is_stmt 0 view .LVU51
 175 0000 0030A0E1 		mov	r3, r0
 176              		.loc 1 111 23 view .LVU52
 177 0004 28109FE5 		ldr	r1, .L13
 178 0008 28209FE5 		ldr	r2, .L13+4
 179 000c 000091E5 		ldr	r0, [r1]
 180              	.LVL10:
 181              		.loc 1 111 23 view .LVU53
 182 0010 002092E5 		ldr	r2, [r2]
 183              		.loc 1 110 10 view .LVU54
 184 0014 033083E2 		add	r3, r3, #3
 185              	.LVL11:
 186              		.loc 1 110 8 view .LVU55
 187 0018 0330C3E3 		bic	r3, r3, #3
 188              	.LVL12:
 189              		.loc 1 111 3 is_stmt 1 view .LVU56
 190              		.loc 1 111 23 is_stmt 0 view .LVU57
 191 001c 002042E0 		sub	r2, r2, r0
 192              		.loc 1 111 6 view .LVU58
 193 0020 030052E1 		cmp	r2, r3
 194              		.loc 1 113 3 is_stmt 1 view .LVU59
 195              	.LVL13:
 196              		.loc 1 114 3 view .LVU60
 197              		.loc 1 114 11 is_stmt 0 view .LVU61
 198 0024 03308020 		addcs	r3, r0, r3
 199              	.LVL14:
 200              		.loc 1 114 11 view .LVU62
 201 0028 00308125 		strcs	r3, [r1]
 202              		.loc 1 115 3 is_stmt 1 view .LVU63
 203              		.loc 1 112 12 is_stmt 0 view .LVU64
 204 002c 0000A033 		movcc	r0, #0
 205              	.LVL15:
 206              		.loc 1 116 1 view .LVU65
 207 0030 1EFF2FE1 		bx	lr
 208              	.L14:
 209              		.align	2
 210              	.L13:
 211 0034 00000000 		.word	.LANCHOR0
 212 0038 00000000 		.word	.LANCHOR1
 213              		.cfi_endproc
 214              	.LFE9:
 215              		.size	chCoreAllocI, .-chCoreAllocI
 216              		.section	.text.chCoreStatus,"ax",%progbits
 217              		.align	2
 218              		.global	chCoreStatus
 219              		.syntax unified
 220              		.arm
 221              		.fpu softvfp
 222              		.type	chCoreStatus, %function
 223              	chCoreStatus:
 224              	.LFB10:
 225              		.loc 1 125 27 is_stmt 1 view -0
 226              		.cfi_startproc
 227              		@ args = 0, pretend = 0, frame = 0
 228              		@ frame_needed = 0, uses_anonymous_args = 0
ARM GAS  /tmp/ccGjV6xc.s 			page 5


 229              		@ link register save eliminated.
 230              		.loc 1 127 3 view .LVU67
 231              		.loc 1 127 26 is_stmt 0 view .LVU68
 232 0000 10209FE5 		ldr	r2, .L16
 233 0004 10309FE5 		ldr	r3, .L16+4
 234 0008 000092E5 		ldr	r0, [r2]
 235 000c 003093E5 		ldr	r3, [r3]
 236              		.loc 1 128 1 view .LVU69
 237 0010 030040E0 		sub	r0, r0, r3
 238 0014 1EFF2FE1 		bx	lr
 239              	.L17:
 240              		.align	2
 241              	.L16:
 242 0018 00000000 		.word	.LANCHOR1
 243 001c 00000000 		.word	.LANCHOR0
 244              		.cfi_endproc
 245              	.LFE10:
 246              		.size	chCoreStatus, .-chCoreStatus
 247              		.section	.bss.endmem,"aw",%nobits
 248              		.align	2
 249              		.set	.LANCHOR1,. + 0
 250              		.type	endmem, %object
 251              		.size	endmem, 4
 252              	endmem:
 253 0000 00000000 		.space	4
 254              		.section	.bss.nextmem,"aw",%nobits
 255              		.align	2
 256              		.set	.LANCHOR0,. + 0
 257              		.type	nextmem, %object
 258              		.size	nextmem, 4
 259              	nextmem:
 260 0000 00000000 		.space	4
 261              		.text
 262              	.Letext0:
 263              		.file 2 "/usr/lib/gcc/arm-none-eabi/11.2.0/include/stddef.h"
 264              		.file 3 "/usr/arm-none-eabi/include/machine/_default_types.h"
 265              		.file 4 "/usr/arm-none-eabi/include/sys/_stdint.h"