ARM GAS  /tmp/ccGjV6xc.s 			page 1


   1              		.cpu arm1176jz-s
   2              		.eabi_attribute 20, 1
   3              		.eabi_attribute 21, 1
   4              		.eabi_attribute 23, 3
   5              		.eabi_attribute 24, 1
   6              		.eabi_attribute 25, 1
   7              		.eabi_attribute 26, 1
   8              		.eabi_attribute 30, 2
   9              		.eabi_attribute 34, 1
  10              		.eabi_attribute 18, 4
  11              		.file	"chmemcore.c"
  12              		.text
  13              	.Ltext0:
  14              		.cfi_sections	.debug_frame
  15              		.section	.text._core_init,"ax",%progbits
  16              		.align	2
  17              		.global	_core_init
  18              		.arch armv6kz
  19              		.syntax unified
  20              		.arm
  21              		.fpu softvfp
  22              		.type	_core_init, %function
  23              	_core_init:
  24              	.LFB7:
  25              		.file 1 "../../os/kernel/src/chmemcore.c"
  26              		.loc 1 59 23 view -0
  27              		.cfi_startproc
  28              		@ args = 0, pretend = 0, frame = 0
  29              		@ frame_needed = 0, uses_anonymous_args = 0
  30              		@ link register save eliminated.
  31              		.loc 1 61 3 view .LVU1
  32              		.loc 1 62 3 view .LVU2
  33              		.loc 1 63 3 view .LVU3
  34              		.loc 1 63 24 is_stmt 0 view .LVU4
  35 0000 1C209FE5 		ldr	r2, .L3
  36              		.loc 1 64 23 view .LVU5
  37 0004 1C309FE5 		ldr	r3, .L3+4
  38              		.loc 1 63 11 view .LVU6
  39 0008 1C009FE5 		ldr	r0, .L3+8
  40              		.loc 1 64 10 view .LVU7
  41 000c 1C109FE5 		ldr	r1, .L3+12
  42              		.loc 1 63 24 view .LVU8
  43 0010 0320C2E3 		bic	r2, r2, #3
  44              		.loc 1 64 23 view .LVU9
  45 0014 0330C3E3 		bic	r3, r3, #3
  46              		.loc 1 63 11 view .LVU10
  47 0018 002080E5 		str	r2, [r0]
  48              		.loc 1 64 3 is_stmt 1 view .LVU11
  49              		.loc 1 64 10 is_stmt 0 view .LVU12
  50 001c 003081E5 		str	r3, [r1]
  51              		.loc 1 70 1 view .LVU13
  52 0020 1EFF2FE1 		bx	lr
  53              	.L4:
  54              		.align	2
  55              	.L3:
  56 0024 03000000 		.word	__heap_base__+3
  57 0028 00000000 		.word	__heap_end__
ARM GAS  /tmp/ccGjV6xc.s 			page 2


  58 002c 00000000 		.word	.LANCHOR0
  59 0030 00000000 		.word	.LANCHOR1
  60              		.cfi_endproc
  61              	.LFE7:
  62              		.size	_core_init, .-_core_init
  63              		.section	.text.chCoreAlloc,"ax",%progbits
  64              		.align	2
  65              		.global	chCoreAlloc
  66              		.syntax unified
  67              		.arm
  68              		.fpu softvfp
  69              		.type	chCoreAlloc, %function
  70              	chCoreAlloc:
  71              	.LVL0:
  72              	.LFB8:
  73              		.loc 1 84 32 is_stmt 1 view -0
  74              		.cfi_startproc
  75              		@ args = 0, pretend = 0, frame = 0
  76              		@ frame_needed = 0, uses_anonymous_args = 0
  77              		@ link register save eliminated.
  78              		.loc 1 85 3 view .LVU15
  79              		.loc 1 87 3 view .LVU16
  80              		.loc 1 84 32 is_stmt 0 view .LVU17
  81 0000 0030A0E1 		mov	r3, r0
  82              		.loc 1 87 3 view .LVU18
  83              		.syntax divided
  84              	@ 87 "../../os/kernel/src/chmemcore.c" 1
  85 0004 9FF021E3 		msr     CPSR_c, #0x9F
  86              	@ 0 "" 2
  87              		.loc 1 87 3 is_stmt 1 view .LVU19
  88              		.loc 1 87 14 view .LVU20
  89              		.loc 1 88 3 view .LVU21
  90              	.LVL1:
  91              		.arm
  92              		.syntax unified
  93              	.LBB4:
  94              	.LBI4:
  95              		.loc 1 105 7 view .LVU22
  96              	.LBB5:
  97              		.loc 1 106 3 view .LVU23
  98              		.loc 1 108 3 view .LVU24
  99              		.loc 1 108 21 view .LVU25
 100              		.loc 1 110 3 view .LVU26
 101              		.loc 1 111 23 is_stmt 0 view .LVU27
 102 0008 2C109FE5 		ldr	r1, .L8
 103 000c 2C209FE5 		ldr	r2, .L8+4
 104 0010 000091E5 		ldr	r0, [r1]
 105              	.LVL2:
 106              		.loc 1 111 23 view .LVU28
 107 0014 002092E5 		ldr	r2, [r2]
 108              		.loc 1 110 10 view .LVU29
 109 0018 033083E2 		add	r3, r3, #3
 110              	.LVL3:
 111              		.loc 1 110 8 view .LVU30
 112 001c 0330C3E3 		bic	r3, r3, #3
 113              	.LVL4:
 114              		.loc 1 111 3 is_stmt 1 view .LVU31
ARM GAS  /tmp/ccGjV6xc.s 			page 3


 115              		.loc 1 111 23 is_stmt 0 view .LVU32
 116 0020 002042E0 		sub	r2, r2, r0
 117              		.loc 1 111 6 view .LVU33
 118 0024 020053E1 		cmp	r3, r2
 119              		.loc 1 113 3 is_stmt 1 view .LVU34
 120              	.LVL5:
 121              		.loc 1 114 3 view .LVU35
 122              		.loc 1 114 11 is_stmt 0 view .LVU36
 123 0028 03308090 		addls	r3, r0, r3
 124              	.LVL6:
 125              		.loc 1 112 12 view .LVU37
 126 002c 0000A083 		movhi	r0, #0
 127              	.LVL7:
 128              		.loc 1 114 11 view .LVU38
 129 0030 00308195 		strls	r3, [r1]
 130              	.LVL8:
 131              		.loc 1 115 3 is_stmt 1 view .LVU39
 132              		.loc 1 115 3 is_stmt 0 view .LVU40
 133              	.LBE5:
 134              	.LBE4:
 135              		.loc 1 89 3 is_stmt 1 view .LVU41
 136              		.loc 1 89 3 view .LVU42
 137              		.syntax divided
 138              	@ 89 "../../os/kernel/src/chmemcore.c" 1
 139 0034 1FF021E3 		msr     CPSR_c, #0x1F
 140              	@ 0 "" 2
 141              		.loc 1 89 16 view .LVU43
 142              		.loc 1 90 3 view .LVU44
 143              		.loc 1 91 1 is_stmt 0 view .LVU45
 144              		.arm
 145              		.syntax unified
 146 0038 1EFF2FE1 		bx	lr
 147              	.L9:
 148              		.align	2
 149              	.L8:
 150 003c 00000000 		.word	.LANCHOR0
 151 0040 00000000 		.word	.LANCHOR1
 152              		.cfi_endproc
 153              	.LFE8:
 154              		.size	chCoreAlloc, .-chCoreAlloc
 155              		.section	.text.chCoreAllocI,"ax",%progbits
 156              		.align	2
 157              		.global	chCoreAllocI
 158              		.syntax unified
 159              		.arm
 160              		.fpu softvfp
 161              		.type	chCoreAllocI, %function
 162              	chCoreAllocI:
 163              	.LVL9:
 164              	.LFB9:
 165              		.loc 1 105 33 is_stmt 1 view -0
 166              		.cfi_startproc
 167              		@ args = 0, pretend = 0, frame = 0
 168              		@ frame_needed = 0, uses_anonymous_args = 0
 169              		@ link register save eliminated.
 170              		.loc 1 106 3 view .LVU47
 171              		.loc 1 108 3 view .LVU48
ARM GAS  /tmp/ccGjV6xc.s 			page 4


 172              		.loc 1 108 21 view .LVU49
 173              		.loc 1 110 3 view .LVU50
 174              		.loc 1 105 33 is_stmt 0 view .LVU51
 175 0000 0030A0E1 		mov	r3, r0
 176              		.loc 1 111 23 view .LVU52
 177 0004 28109FE5 		ldr	r1, .L13
 178 0008 28209FE5 		ldr	r2, .L13+4
 179 000c 000091E5 		ldr	r0, [r1]
 180              	.LVL10:
 181              		.loc 1 111 23 view .LVU53
 182 0010 002092E5 		ldr	r2, [r2]
 183              		.loc 1 110 10 view .LVU54
 184 0014 033083E2 		add	r3, r3, #3
 185              	.LVL11:
 186              		.loc 1 110 8 view .LVU55
 187 0018 0330C3E3 		bic	r3, r3, #3
 188              	.LVL12:
 189              		.loc 1 111 3 is_stmt 1 view .LVU56
 190              		.loc 1 111 23 is_stmt 0 view .LVU57
 191 001c 002042E0 		sub	r2, r2, r0
 192              		.loc 1 111 6 view .LVU58
 193 0020 030052E1 		cmp	r2, r3
 194              		.loc 1 113 3 is_stmt 1 view .LVU59
 195              	.LVL13:
 196              		.loc 1 114 3 view .LVU60
 197              		.loc 1 114 11 is_stmt 0 view .LVU61
 198 0024 03308020 		addcs	r3, r0, r3
 199              	.LVL14:
 200              		.loc 1 114 11 view .LVU62
 201 0028 00308125 		strcs	r3, [r1]
 202              		.loc 1 115 3 is_stmt 1 view .LVU63
 203              		.loc 1 112 12 is_stmt 0 view .LVU64
 204 002c 0000A033 		movcc	r0, #0
 205              	.LVL15:
 206              		.loc 1 116 1 view .LVU65
 207 0030 1EFF2FE1 		bx	lr
 208              	.L14:
 209              		.align	2
 210              	.L13:
 211 0034 00000000 		.word	.LANCHOR0
 212 0038 00000000 		.word	.LANCHOR1
 213              		.cfi_endproc
 214              	.LFE9:
 215              		.size	chCoreAllocI, .-chCoreAllocI
 216              		.section	.text.chCoreStatus,"ax",%progbits
 217              		.align	2
 218              		.global	chCoreStatus
 219              		.syntax unified
 220              		.arm
 221              		.fpu softvfp
 222              		.type	chCoreStatus, %function
 223              	chCoreStatus:
 224              	.LFB10:
 225              		.loc 1 125 27 is_stmt 1 view -0
 226              		.cfi_startproc
 227              		@ args = 0, pretend = 0, frame = 0
 228              		@ frame_needed = 0, uses_anonymous_args = 0
ARM GAS  /tmp/ccGjV6xc.s 			page 5


 229              		@ link register save eliminated.
 230              		.loc 1 127 3 view .LVU67
 231              		.loc 1 127 26 is_stmt 0 view .LVU68
 232 0000 10209FE5 		ldr	r2, .L16
 233 0004 10309FE5 		ldr	r3, .L16+4
 234 0008 000092E5 		ldr	r0, [r2]
 235 000c 003093E5 		ldr	r3, [r3]
 236              		.loc 1 128 1 view .LVU69
 237 0010 030040E0 		sub	r0, r0, r3
 238 0014 1EFF2FE1 		bx	lr
 239              	.L17:
 240              		.align	2
 241              	.L16:
 242 0018 00000000 		.word	.LANCHOR1
 243 001c 00000000 		.word	.LANCHOR0
 244              		.cfi_endproc
 245              	.LFE10:
 246              		.size	chCoreStatus, .-chCoreStatus
 247              		.section	.bss.endmem,"aw",%nobits
 248              		.align	2
 249              		.set	.LANCHOR1,. + 0
 250              		.type	endmem, %object
 251              		.size	endmem, 4
 252              	endmem:
 253 0000 00000000 		.space	4
 254              		.section	.bss.nextmem,"aw",%nobits
 255              		.align	2
 256              		.set	.LANCHOR0,. + 0
 257              		.type	nextmem, %object
 258              		.size	nextmem, 4
 259              	nextmem:
 260 0000 00000000 		.space	4
 261              		.text
 262              	.Letext0:
 263              		.file 2 "/usr/lib/gcc/arm-none-eabi/11.2.0/include/stddef.h"
 264              		.file 3 "/usr/arm-none-eabi/include/machine/_default_types.h"
 265              		.file 4 "/usr/arm-none-eabi/include/sys/_stdint.h"
 266              		.section	.debug_info,"",%progbits
 267              	.Ldebug_info0:
 268 0000 CB010000 		.4byte	0x1cb
 269 0004 0500     		.2byte	0x5
 270 0006 01       		.byte	0x1
 271 0007 04       		.byte	0x4
 272 0008 00000000 		.4byte	.Ldebug_abbrev0
 273 000c 07       		.uleb128 0x7
 274 000d D8000000 		.4byte	.LASF17
 275 0011 1D       		.byte	0x1d
 276 0012 77010000 		.4byte	.LASF18
 277 0016 4B000000 		.4byte	.LASF19
 278 001a 0C000000 		.4byte	.LLRL6
 279 001e 00000000 		.4byte	0
 280 0022 00000000 		.4byte	.Ldebug_line0
 281 0026 08       		.uleb128 0x8
 282 0027 04       		.byte	0x4
 283 0028 05       		.byte	0x5
 284 0029 696E7400 		.ascii	"int\000"
 285 002d 02       		.uleb128 0x2
ARM GAS  /tmp/ccGjV6xc.s 			page 6


 286 002e 21000000 		.4byte	.LASF2
 287 0032 02       		.byte	0x2
 288 0033 D1       		.byte	0xd1
 289 0034 17       		.byte	0x17
 290 0035 39000000 		.4byte	0x39
 291 0039 01       		.uleb128 0x1
 292 003a 04       		.byte	0x4
 293 003b 07       		.byte	0x7
 294 003c D1010000 		.4byte	.LASF0
 295 0040 01       		.uleb128 0x1
 296 0041 01       		.byte	0x1
 297 0042 06       		.byte	0x6
 298 0043 AB010000 		.4byte	.LASF1
 299 0047 02       		.uleb128 0x2
 300 0048 9E000000 		.4byte	.LASF3
 301 004c 03       		.byte	0x3
 302 004d 2B       		.byte	0x2b
 303 004e 18       		.byte	0x18
 304 004f 53000000 		.4byte	0x53
 305 0053 01       		.uleb128 0x1
 306 0054 01       		.byte	0x1
 307 0055 08       		.byte	0x8
 308 0056 B0000000 		.4byte	.LASF4
 309 005a 01       		.uleb128 0x1
 310 005b 02       		.byte	0x2
 311 005c 05       		.byte	0x5
 312 005d C7010000 		.4byte	.LASF5
 313 0061 01       		.uleb128 0x1
 314 0062 02       		.byte	0x2
 315 0063 07       		.byte	0x7
 316 0064 0E000000 		.4byte	.LASF6
 317 0068 01       		.uleb128 0x1
 318 0069 04       		.byte	0x4
 319 006a 05       		.byte	0x5
 320 006b CF000000 		.4byte	.LASF7
 321 006f 01       		.uleb128 0x1
 322 0070 04       		.byte	0x4
 323 0071 07       		.byte	0x7
 324 0072 75000000 		.4byte	.LASF8
 325 0076 01       		.uleb128 0x1
 326 0077 08       		.byte	0x8
 327 0078 05       		.byte	0x5
 328 0079 00000000 		.4byte	.LASF9
 329 007d 01       		.uleb128 0x1
 330 007e 08       		.byte	0x8
 331 007f 07       		.byte	0x7
 332 0080 87000000 		.4byte	.LASF10
 333 0084 02       		.uleb128 0x2
 334 0085 A8000000 		.4byte	.LASF11
 335 0089 04       		.byte	0x4
 336 008a 18       		.byte	0x18
 337 008b 13       		.byte	0x13
 338 008c 47000000 		.4byte	0x47
 339 0090 09       		.uleb128 0x9
 340 0091 04       		.byte	0x4
 341 0092 01       		.uleb128 0x1
 342 0093 01       		.byte	0x1
ARM GAS  /tmp/ccGjV6xc.s 			page 7


 343 0094 08       		.byte	0x8
 344 0095 BE000000 		.4byte	.LASF12
 345 0099 0A       		.uleb128 0xa
 346 009a 04       		.byte	0x4
 347 009b 84000000 		.4byte	0x84
 348 009f 03       		.uleb128 0x3
 349 00a0 28000000 		.4byte	.LASF13
 350 00a4 33       		.byte	0x33
 351 00a5 99000000 		.4byte	0x99
 352 00a9 05       		.uleb128 0x5
 353 00aa 03       		.byte	0x3
 354 00ab 00000000 		.4byte	nextmem
 355 00af 03       		.uleb128 0x3
 356 00b0 97010000 		.4byte	.LASF14
 357 00b4 34       		.byte	0x34
 358 00b5 99000000 		.4byte	0x99
 359 00b9 05       		.uleb128 0x5
 360 00ba 03       		.byte	0x3
 361 00bb 00000000 		.4byte	endmem
 362 00bf 0B       		.uleb128 0xb
 363 00c0 DE010000 		.4byte	.LASF20
 364 00c4 01       		.byte	0x1
 365 00c5 7D       		.byte	0x7d
 366 00c6 08       		.byte	0x8
 367 00c7 2D000000 		.4byte	0x2d
 368 00cb 00000000 		.4byte	.LFB10
 369 00cf 20000000 		.4byte	.LFE10-.LFB10
 370 00d3 01       		.uleb128 0x1
 371 00d4 9C       		.byte	0x9c
 372 00d5 0C       		.uleb128 0xc
 373 00d6 9E010000 		.4byte	.LASF21
 374 00da 01       		.byte	0x1
 375 00db 69       		.byte	0x69
 376 00dc 07       		.byte	0x7
 377 00dd 90000000 		.4byte	0x90
 378 00e1 01       		.byte	0x1
 379 00e2 FD000000 		.4byte	0xfd
 380 00e6 0D       		.uleb128 0xd
 381 00e7 B7010000 		.4byte	.LASF22
 382 00eb 01       		.byte	0x1
 383 00ec 69       		.byte	0x69
 384 00ed 1B       		.byte	0x1b
 385 00ee 2D000000 		.4byte	0x2d
 386 00f2 0E       		.uleb128 0xe
 387 00f3 7000     		.ascii	"p\000"
 388 00f5 01       		.byte	0x1
 389 00f6 6A       		.byte	0x6a
 390 00f7 09       		.byte	0x9
 391 00f8 90000000 		.4byte	0x90
 392 00fc 00       		.byte	0
 393 00fd 0F       		.uleb128 0xf
 394 00fe C3000000 		.4byte	.LASF23
 395 0102 01       		.byte	0x1
 396 0103 54       		.byte	0x54
 397 0104 07       		.byte	0x7
 398 0105 90000000 		.4byte	0x90
 399 0109 00000000 		.4byte	.LFB8
ARM GAS  /tmp/ccGjV6xc.s 			page 8


 400 010d 44000000 		.4byte	.LFE8-.LFB8
 401 0111 01       		.uleb128 0x1
 402 0112 9C       		.byte	0x9c
 403 0113 6E010000 		.4byte	0x16e
 404 0117 10       		.uleb128 0x10
 405 0118 B7010000 		.4byte	.LASF22
 406 011c 01       		.byte	0x1
 407 011d 54       		.byte	0x54
 408 011e 1A       		.byte	0x1a
 409 011f 2D000000 		.4byte	0x2d
 410 0123 14000000 		.4byte	.LLST0
 411 0127 0C000000 		.4byte	.LVUS0
 412 012b 11       		.uleb128 0x11
 413 012c 7000     		.ascii	"p\000"
 414 012e 01       		.byte	0x1
 415 012f 55       		.byte	0x55
 416 0130 09       		.byte	0x9
 417 0131 90000000 		.4byte	0x90
 418 0135 35000000 		.4byte	.LLST1
 419 0139 33000000 		.4byte	.LVUS1
 420 013d 12       		.uleb128 0x12
 421 013e D5000000 		.4byte	0xd5
 422 0142 08000000 		.4byte	.LBI4
 423 0146 03       		.byte	.LVU22
 424 0147 08000000 		.4byte	.LBB4
 425 014b 2C000000 		.4byte	.LBE4-.LBB4
 426 014f 01       		.byte	0x1
 427 0150 58       		.byte	0x58
 428 0151 07       		.byte	0x7
 429 0152 04       		.uleb128 0x4
 430 0153 E6000000 		.4byte	0xe6
 431 0157 48000000 		.4byte	.LLST2
 432 015b 3E000000 		.4byte	.LVUS2
 433 015f 05       		.uleb128 0x5
 434 0160 F2000000 		.4byte	0xf2
 435 0164 75000000 		.4byte	.LLST3
 436 0168 71000000 		.4byte	.LVUS3
 437 016c 00       		.byte	0
 438 016d 00       		.byte	0
 439 016e 13       		.uleb128 0x13
 440 016f BC010000 		.4byte	.LASF24
 441 0173 01       		.byte	0x1
 442 0174 3B       		.byte	0x3b
 443 0175 06       		.byte	0x6
 444 0176 00000000 		.4byte	.LFB7
 445 017a 34000000 		.4byte	.LFE7-.LFB7
 446 017e 01       		.uleb128 0x1
 447 017f 9C       		.byte	0x9c
 448 0180 99010000 		.4byte	0x199
 449 0184 06       		.uleb128 0x6
 450 0185 3D000000 		.4byte	.LASF15
 451 0189 3D       		.byte	0x3d
 452 018a 99010000 		.4byte	0x199
 453 018e 06       		.uleb128 0x6
 454 018f 30000000 		.4byte	.LASF16
 455 0193 3E       		.byte	0x3e
 456 0194 99010000 		.4byte	0x199
ARM GAS  /tmp/ccGjV6xc.s 			page 9


 457 0198 00       		.byte	0
 458 0199 14       		.uleb128 0x14
 459 019a 84000000 		.4byte	0x84
 460 019e A4010000 		.4byte	0x1a4
 461 01a2 15       		.uleb128 0x15
 462 01a3 00       		.byte	0
 463 01a4 16       		.uleb128 0x16
 464 01a5 D5000000 		.4byte	0xd5
 465 01a9 00000000 		.4byte	.LFB9
 466 01ad 3C000000 		.4byte	.LFE9-.LFB9
 467 01b1 01       		.uleb128 0x1
 468 01b2 9C       		.byte	0x9c
 469 01b3 04       		.uleb128 0x4
 470 01b4 E6000000 		.4byte	0xe6
 471 01b8 93000000 		.4byte	.LLST4
 472 01bc 89000000 		.4byte	.LVUS4
 473 01c0 05       		.uleb128 0x5
 474 01c1 F2000000 		.4byte	0xf2
 475 01c5 BE000000 		.4byte	.LLST5
 476 01c9 BC000000 		.4byte	.LVUS5
 477 01cd 00       		.byte	0
 478 01ce 00       		.byte	0
 479              		.section	.debug_abbrev,"",%progbits
 480              	.Ldebug_abbrev0:
 481 0000 01       		.uleb128 0x1
 482 0001 24       		.uleb128 0x24
 483 0002 00       		.byte	0
 484 0003 0B       		.uleb128 0xb
 485 0004 0B       		.uleb128 0xb
 486 0005 3E       		.uleb128 0x3e
 487 0006 0B       		.uleb128 0xb
 488 0007 03       		.uleb128 0x3
 489 0008 0E       		.uleb128 0xe
 490 0009 00       		.byte	0
 491 000a 00       		.byte	0
 492 000b 02       		.uleb128 0x2
 493 000c 16       		.uleb128 0x16
 494 000d 00       		.byte	0
 495 000e 03       		.uleb128 0x3
 496 000f 0E       		.uleb128 0xe
 497 0010 3A       		.uleb128 0x3a
 498 0011 0B       		.uleb128 0xb
 499 0012 3B       		.uleb128 0x3b
 500 0013 0B       		.uleb128 0xb
 501 0014 39       		.uleb128 0x39
 502 0015 0B       		.uleb128 0xb
 503 0016 49       		.uleb128 0x49
 504 0017 13       		.uleb128 0x13
 505 0018 00       		.byte	0
 506 0019 00       		.byte	0
 507 001a 03       		.uleb128 0x3
 508 001b 34       		.uleb128 0x34
 509 001c 00       		.byte	0
 510 001d 03       		.uleb128 0x3
 511 001e 0E       		.uleb128 0xe
 512 001f 3A       		.uleb128 0x3a
 513 0020 21       		.uleb128 0x21
ARM GAS  /tmp/ccGjV6xc.s 			page 10


 514 0021 01       		.sleb128 1
 515 0022 3B       		.uleb128 0x3b
 516 0023 0B       		.uleb128 0xb
 517 0024 39       		.uleb128 0x39
 518 0025 21       		.uleb128 0x21
 519 0026 11       		.sleb128 17
 520 0027 49       		.uleb128 0x49
 521 0028 13       		.uleb128 0x13
 522 0029 02       		.uleb128 0x2
 523 002a 18       		.uleb128 0x18
 524 002b 00       		.byte	0
 525 002c 00       		.byte	0
 526 002d 04       		.uleb128 0x4
 527 002e 05       		.uleb128 0x5
 528 002f 00       		.byte	0
 529 0030 31       		.uleb128 0x31
 530 0031 13       		.uleb128 0x13
 531 0032 02       		.uleb128 0x2
 532 0033 17       		.uleb128 0x17
 533 0034 B742     		.uleb128 0x2137
 534 0036 17       		.uleb128 0x17
 535 0037 00       		.byte	0
 536 0038 00       		.byte	0
 537 0039 05       		.uleb128 0x5
 538 003a 34       		.uleb128 0x34
 539 003b 00       		.byte	0
 540 003c 31       		.uleb128 0x31
 541 003d 13       		.uleb128 0x13
 542 003e 02       		.uleb128 0x2
 543 003f 17       		.uleb128 0x17
 544 0040 B742     		.uleb128 0x2137
 545 0042 17       		.uleb128 0x17
 546 0043 00       		.byte	0
 547 0044 00       		.byte	0
 548 0045 06       		.uleb128 0x6
 549 0046 34       		.uleb128 0x34
 550 0047 00       		.byte	0
 551 0048 03       		.uleb128 0x3
 552 0049 0E       		.uleb128 0xe
 553 004a 3A       		.uleb128 0x3a
 554 004b 21       		.uleb128 0x21
 555 004c 01       		.sleb128 1
 556 004d 3B       		.uleb128 0x3b
 557 004e 0B       		.uleb128 0xb
 558 004f 39       		.uleb128 0x39
 559 0050 21       		.uleb128 0x21
 560 0051 12       		.sleb128 18
 561 0052 49       		.uleb128 0x49
 562 0053 13       		.uleb128 0x13
 563 0054 3F       		.uleb128 0x3f
 564 0055 19       		.uleb128 0x19
 565 0056 3C       		.uleb128 0x3c
 566 0057 19       		.uleb128 0x19
 567 0058 00       		.byte	0
 568 0059 00       		.byte	0
 569 005a 07       		.uleb128 0x7
 570 005b 11       		.uleb128 0x11
ARM GAS  /tmp/ccGjV6xc.s 			page 11


 571 005c 01       		.byte	0x1
 572 005d 25       		.uleb128 0x25
 573 005e 0E       		.uleb128 0xe
 574 005f 13       		.uleb128 0x13
 575 0060 0B       		.uleb128 0xb
 576 0061 03       		.uleb128 0x3
 577 0062 0E       		.uleb128 0xe
 578 0063 1B       		.uleb128 0x1b
 579 0064 0E       		.uleb128 0xe
 580 0065 55       		.uleb128 0x55
 581 0066 17       		.uleb128 0x17
 582 0067 11       		.uleb128 0x11
 583 0068 01       		.uleb128 0x1
 584 0069 10       		.uleb128 0x10
 585 006a 17       		.uleb128 0x17
 586 006b 00       		.byte	0
 587 006c 00       		.byte	0
 588 006d 08       		.uleb128 0x8
 589 006e 24       		.uleb128 0x24
 590 006f 00       		.byte	0
 591 0070 0B       		.uleb128 0xb
 592 0071 0B       		.uleb128 0xb
 593 0072 3E       		.uleb128 0x3e
 594 0073 0B       		.uleb128 0xb
 595 0074 03       		.uleb128 0x3
 596 0075 08       		.uleb128 0x8
 597 0076 00       		.byte	0
 598 0077 00       		.byte	0
 599 0078 09       		.uleb128 0x9
 600 0079 0F       		.uleb128 0xf
 601 007a 00       		.byte	0
 602 007b 0B       		.uleb128 0xb
 603 007c 0B       		.uleb128 0xb
 604 007d 00       		.byte	0
 605 007e 00       		.byte	0
 606 007f 0A       		.uleb128 0xa
 607 0080 0F       		.uleb128 0xf
 608 0081 00       		.byte	0
 609 0082 0B       		.uleb128 0xb
 610 0083 0B       		.uleb128 0xb
 611 0084 49       		.uleb128 0x49
 612 0085 13       		.uleb128 0x13
 613 0086 00       		.byte	0
 614 0087 00       		.byte	0
 615 0088 0B       		.uleb128 0xb
 616 0089 2E       		.uleb128 0x2e
 617 008a 00       		.byte	0
 618 008b 3F       		.uleb128 0x3f
 619 008c 19       		.uleb128 0x19
 620 008d 03       		.uleb128 0x3
 621 008e 0E       		.uleb128 0xe
 622 008f 3A       		.uleb128 0x3a
 623 0090 0B       		.uleb128 0xb
 624 0091 3B       		.uleb128 0x3b
 625 0092 0B       		.uleb128 0xb
 626 0093 39       		.uleb128 0x39
 627 0094 0B       		.uleb128 0xb
ARM GAS  /tmp/ccGjV6xc.s 			page 12


 628 0095 27       		.uleb128 0x27
 629 0096 19       		.uleb128 0x19
 630 0097 49       		.uleb128 0x49
 631 0098 13       		.uleb128 0x13
 632 0099 11       		.uleb128 0x11
 633 009a 01       		.uleb128 0x1
 634 009b 12       		.uleb128 0x12
 635 009c 06       		.uleb128 0x6
 636 009d 40       		.uleb128 0x40
 637 009e 18       		.uleb128 0x18
 638 009f 7A       		.uleb128 0x7a
 639 00a0 19       		.uleb128 0x19
 640 00a1 00       		.byte	0
 641 00a2 00       		.byte	0
 642 00a3 0C       		.uleb128 0xc
 643 00a4 2E       		.uleb128 0x2e
 644 00a5 01       		.byte	0x1
 645 00a6 3F       		.uleb128 0x3f
 646 00a7 19       		.uleb128 0x19
 647 00a8 03       		.uleb128 0x3
 648 00a9 0E       		.uleb128 0xe
 649 00aa 3A       		.uleb128 0x3a
 650 00ab 0B       		.uleb128 0xb
 651 00ac 3B       		.uleb128 0x3b
 652 00ad 0B       		.uleb128 0xb
 653 00ae 39       		.uleb128 0x39
 654 00af 0B       		.uleb128 0xb
 655 00b0 27       		.uleb128 0x27
 656 00b1 19       		.uleb128 0x19
 657 00b2 49       		.uleb128 0x49
 658 00b3 13       		.uleb128 0x13
 659 00b4 20       		.uleb128 0x20
 660 00b5 0B       		.uleb128 0xb
 661 00b6 01       		.uleb128 0x1
 662 00b7 13       		.uleb128 0x13
 663 00b8 00       		.byte	0
 664 00b9 00       		.byte	0
 665 00ba 0D       		.uleb128 0xd
 666 00bb 05       		.uleb128 0x5
 667 00bc 00       		.byte	0
 668 00bd 03       		.uleb128 0x3
 669 00be 0E       		.uleb128 0xe
 670 00bf 3A       		.uleb128 0x3a
 671 00c0 0B       		.uleb128 0xb
 672 00c1 3B       		.uleb128 0x3b
 673 00c2 0B       		.uleb128 0xb
 674 00c3 39       		.uleb128 0x39
 675 00c4 0B       		.uleb128 0xb
 676 00c5 49       		.uleb128 0x49
 677 00c6 13       		.uleb128 0x13
 678 00c7 00       		.byte	0
 679 00c8 00       		.byte	0
 680 00c9 0E       		.uleb128 0xe
 681 00ca 34       		.uleb128 0x34
 682 00cb 00       		.byte	0
 683 00cc 03       		.uleb128 0x3
 684 00cd 08       		.uleb128 0x8
ARM GAS  /tmp/ccGjV6xc.s 			page 13


 685 00ce 3A       		.uleb128 0x3a
 686 00cf 0B       		.uleb128 0xb
 687 00d0 3B       		.uleb128 0x3b
 688 00d1 0B       		.uleb128 0xb
 689 00d2 39       		.uleb128 0x39
 690 00d3 0B       		.uleb128 0xb
 691 00d4 49       		.uleb128 0x49
 692 00d5 13       		.uleb128 0x13
 693 00d6 00       		.byte	0
 694 00d7 00       		.byte	0
 695 00d8 0F       		.uleb128 0xf
 696 00d9 2E       		.uleb128 0x2e
 697 00da 01       		.byte	0x1
 698 00db 3F       		.uleb128 0x3f
 699 00dc 19       		.uleb128 0x19
 700 00dd 03       		.uleb128 0x3
 701 00de 0E       		.uleb128 0xe
 702 00df 3A       		.uleb128 0x3a
 703 00e0 0B       		.uleb128 0xb
 704 00e1 3B       		.uleb128 0x3b
 705 00e2 0B       		.uleb128 0xb
 706 00e3 39       		.uleb128 0x39
 707 00e4 0B       		.uleb128 0xb
 708 00e5 27       		.uleb128 0x27
 709 00e6 19       		.uleb128 0x19
 710 00e7 49       		.uleb128 0x49
 711 00e8 13       		.uleb128 0x13
 712 00e9 11       		.uleb128 0x11
 713 00ea 01       		.uleb128 0x1
 714 00eb 12       		.uleb128 0x12
 715 00ec 06       		.uleb128 0x6
 716 00ed 40       		.uleb128 0x40
 717 00ee 18       		.uleb128 0x18
 718 00ef 7A       		.uleb128 0x7a
 719 00f0 19       		.uleb128 0x19
 720 00f1 01       		.uleb128 0x1
 721 00f2 13       		.uleb128 0x13
 722 00f3 00       		.byte	0
 723 00f4 00       		.byte	0
 724 00f5 10       		.uleb128 0x10
 725 00f6 05       		.uleb128 0x5
 726 00f7 00       		.byte	0
 727 00f8 03       		.uleb128 0x3
 728 00f9 0E       		.uleb128 0xe
 729 00fa 3A       		.uleb128 0x3a
 730 00fb 0B       		.uleb128 0xb
 731 00fc 3B       		.uleb128 0x3b
 732 00fd 0B       		.uleb128 0xb
 733 00fe 39       		.uleb128 0x39
 734 00ff 0B       		.uleb128 0xb
 735 0100 49       		.uleb128 0x49
 736 0101 13       		.uleb128 0x13
 737 0102 02       		.uleb128 0x2
 738 0103 17       		.uleb128 0x17
 739 0104 B742     		.uleb128 0x2137
 740 0106 17       		.uleb128 0x17
 741 0107 00       		.byte	0
ARM GAS  /tmp/ccGjV6xc.s 			page 14


 742 0108 00       		.byte	0
 743 0109 11       		.uleb128 0x11
 744 010a 34       		.uleb128 0x34
 745 010b 00       		.byte	0
 746 010c 03       		.uleb128 0x3
 747 010d 08       		.uleb128 0x8
 748 010e 3A       		.uleb128 0x3a
 749 010f 0B       		.uleb128 0xb
 750 0110 3B       		.uleb128 0x3b
 751 0111 0B       		.uleb128 0xb
 752 0112 39       		.uleb128 0x39
 753 0113 0B       		.uleb128 0xb
 754 0114 49       		.uleb128 0x49
 755 0115 13       		.uleb128 0x13
 756 0116 02       		.uleb128 0x2
 757 0117 17       		.uleb128 0x17
 758 0118 B742     		.uleb128 0x2137
 759 011a 17       		.uleb128 0x17
 760 011b 00       		.byte	0
 761 011c 00       		.byte	0
 762 011d 12       		.uleb128 0x12
 763 011e 1D       		.uleb128 0x1d
 764 011f 01       		.byte	0x1
 765 0120 31       		.uleb128 0x31
 766 0121 13       		.uleb128 0x13
 767 0122 52       		.uleb128 0x52
 768 0123 01       		.uleb128 0x1
 769 0124 B842     		.uleb128 0x2138
 770 0126 0B       		.uleb128 0xb
 771 0127 11       		.uleb128 0x11
 772 0128 01       		.uleb128 0x1
 773 0129 12       		.uleb128 0x12
 774 012a 06       		.uleb128 0x6
 775 012b 58       		.uleb128 0x58
 776 012c 0B       		.uleb128 0xb
 777 012d 59       		.uleb128 0x59
 778 012e 0B       		.uleb128 0xb
 779 012f 57       		.uleb128 0x57
 780 0130 0B       		.uleb128 0xb
 781 0131 00       		.byte	0
 782 0132 00       		.byte	0
 783 0133 13       		.uleb128 0x13
 784 0134 2E       		.uleb128 0x2e
 785 0135 01       		.byte	0x1
 786 0136 3F       		.uleb128 0x3f
 787 0137 19       		.uleb128 0x19
 788 0138 03       		.uleb128 0x3
 789 0139 0E       		.uleb128 0xe
 790 013a 3A       		.uleb128 0x3a
 791 013b 0B       		.uleb128 0xb
 792 013c 3B       		.uleb128 0x3b
 793 013d 0B       		.uleb128 0xb
 794 013e 39       		.uleb128 0x39
 795 013f 0B       		.uleb128 0xb
 796 0140 27       		.uleb128 0x27
 797 0141 19       		.uleb128 0x19
 798 0142 11       		.uleb128 0x11
ARM GAS  /tmp/ccGjV6xc.s 			page 15


 799 0143 01       		.uleb128 0x1
 800 0144 12       		.uleb128 0x12
 801 0145 06       		.uleb128 0x6
 802 0146 40       		.uleb128 0x40
 803 0147 18       		.uleb128 0x18
 804 0148 7A       		.uleb128 0x7a
 805 0149 19       		.uleb128 0x19
 806 014a 01       		.uleb128 0x1
 807 014b 13       		.uleb128 0x13
 808 014c 00       		.byte	0
 809 014d 00       		.byte	0
 810 014e 14       		.uleb128 0x14
 811 014f 01       		.uleb128 0x1
 812 0150 01       		.byte	0x1
 813 0151 49       		.uleb128 0x49
 814 0152 13       		.uleb128 0x13
 815 0153 01       		.uleb128 0x1
 816 0154 13       		.uleb128 0x13
 817 0155 00       		.byte	0
 818 0156 00       		.byte	0
 819 0157 15       		.uleb128 0x15
 820 0158 21       		.uleb128 0x21
 821 0159 00       		.byte	0
 822 015a 00       		.byte	0
 823 015b 00       		.byte	0
 824 015c 16       		.uleb128 0x16
 825 015d 2E       		.uleb128 0x2e
 826 015e 01       		.byte	0x1
 827 015f 31       		.uleb128 0x31
 828 0160 13       		.uleb128 0x13
 829 0161 11       		.uleb128 0x11
 830 0162 01       		.uleb128 0x1
 831 0163 12       		.uleb128 0x12
 832 0164 06       		.uleb128 0x6
 833 0165 40       		.uleb128 0x40
 834 0166 18       		.uleb128 0x18
 835 0167 7A       		.uleb128 0x7a
 836 0168 19       		.uleb128 0x19
 837 0169 00       		.byte	0
 838 016a 00       		.byte	0
 839 016b 00       		.byte	0
 840              		.section	.debug_loclists,"",%progbits
 841 0000 C3000000 		.4byte	.Ldebug_loc3-.Ldebug_loc2
 842              	.Ldebug_loc2:
 843 0004 0500     		.2byte	0x5
 844 0006 04       		.byte	0x4
 845 0007 00       		.byte	0
 846 0008 00000000 		.4byte	0
 847              	.Ldebug_loc0:
 848              	.LVUS0:
 849 000c 00       		.uleb128 0
 850 000d 00       		.uleb128 .LVU28
 851 000e 00       		.uleb128 .LVU28
 852 000f 00       		.uleb128 .LVU30
 853 0010 00       		.uleb128 .LVU30
 854 0011 00       		.uleb128 .LVU31
 855 0012 00       		.uleb128 .LVU31
ARM GAS  /tmp/ccGjV6xc.s 			page 16


 856 0013 00       		.uleb128 0
 857              	.LLST0:
 858 0014 06       		.byte	0x6
 859 0015 00000000 		.4byte	.LVL0
 860 0019 04       		.byte	0x4
 861 001a 00       		.uleb128 .LVL0-.LVL0
 862 001b 14       		.uleb128 .LVL2-.LVL0
 863 001c 01       		.uleb128 0x1
 864 001d 50       		.byte	0x50
 865 001e 04       		.byte	0x4
 866 001f 14       		.uleb128 .LVL2-.LVL0
 867 0020 1C       		.uleb128 .LVL3-.LVL0
 868 0021 01       		.uleb128 0x1
 869 0022 53       		.byte	0x53
 870 0023 04       		.byte	0x4
 871 0024 1C       		.uleb128 .LVL3-.LVL0
 872 0025 20       		.uleb128 .LVL4-.LVL0
 873 0026 03       		.uleb128 0x3
 874 0027 73       		.byte	0x73
 875 0028 7D       		.sleb128 -3
 876 0029 9F       		.byte	0x9f
 877 002a 04       		.byte	0x4
 878 002b 20       		.uleb128 .LVL4-.LVL0
 879 002c 44       		.uleb128 .LFE8-.LVL0
 880 002d 04       		.uleb128 0x4
 881 002e A3       		.byte	0xa3
 882 002f 01       		.uleb128 0x1
 883 0030 50       		.byte	0x50
 884 0031 9F       		.byte	0x9f
 885 0032 00       		.byte	0
 886              	.LVUS1:
 887 0033 01       		.uleb128 .LVU40
 888 0034 00       		.uleb128 0
 889              	.LLST1:
 890 0035 08       		.byte	0x8
 891 0036 34000000 		.4byte	.LVL8
 892 003a 10       		.uleb128 .LFE8-.LVL8
 893 003b 01       		.uleb128 0x1
 894 003c 50       		.byte	0x50
 895 003d 00       		.byte	0
 896              	.LVUS2:
 897 003e 03       		.uleb128 .LVU22
 898 003f 00       		.uleb128 .LVU28
 899 0040 00       		.uleb128 .LVU28
 900 0041 00       		.uleb128 .LVU30
 901 0042 00       		.uleb128 .LVU30
 902 0043 00       		.uleb128 .LVU31
 903 0044 00       		.uleb128 .LVU31
 904 0045 00       		.uleb128 .LVU37
 905 0046 00       		.uleb128 .LVU37
 906 0047 01       		.uleb128 .LVU40
 907              	.LLST2:
 908 0048 06       		.byte	0x6
 909 0049 08000000 		.4byte	.LVL1
 910 004d 04       		.byte	0x4
 911 004e 00       		.uleb128 .LVL1-.LVL1
 912 004f 0C       		.uleb128 .LVL2-.LVL1
ARM GAS  /tmp/ccGjV6xc.s 			page 17


 913 0050 01       		.uleb128 0x1
 914 0051 50       		.byte	0x50
 915 0052 04       		.byte	0x4
 916 0053 0C       		.uleb128 .LVL2-.LVL1
 917 0054 14       		.uleb128 .LVL3-.LVL1
 918 0055 01       		.uleb128 0x1
 919 0056 53       		.byte	0x53
 920 0057 04       		.byte	0x4
 921 0058 14       		.uleb128 .LVL3-.LVL1
 922 0059 18       		.uleb128 .LVL4-.LVL1
 923 005a 03       		.uleb128 0x3
 924 005b 73       		.byte	0x73
 925 005c 7D       		.sleb128 -3
 926 005d 9F       		.byte	0x9f
 927 005e 04       		.byte	0x4
 928 005f 18       		.uleb128 .LVL4-.LVL1
 929 0060 24       		.uleb128 .LVL6-.LVL1
 930 0061 01       		.uleb128 0x1
 931 0062 53       		.byte	0x53
 932 0063 04       		.byte	0x4
 933 0064 24       		.uleb128 .LVL6-.LVL1
 934 0065 2C       		.uleb128 .LVL8-.LVL1
 935 0066 09       		.uleb128 0x9
 936 0067 A3       		.byte	0xa3
 937 0068 01       		.uleb128 0x1
 938 0069 50       		.byte	0x50
 939 006a 23       		.byte	0x23
 940 006b 03       		.uleb128 0x3
 941 006c 09       		.byte	0x9
 942 006d FC       		.byte	0xfc
 943 006e 1A       		.byte	0x1a
 944 006f 9F       		.byte	0x9f
 945 0070 00       		.byte	0
 946              	.LVUS3:
 947 0071 01       		.uleb128 .LVU35
 948 0072 00       		.uleb128 .LVU38
 949 0073 00       		.uleb128 .LVU38
 950 0074 00       		.uleb128 .LVU39
 951              	.LLST3:
 952 0075 06       		.byte	0x6
 953 0076 28000000 		.4byte	.LVL5
 954 007a 04       		.byte	0x4
 955 007b 00       		.uleb128 .LVL5-.LVL5
 956 007c 08       		.uleb128 .LVL7-.LVL5
 957 007d 01       		.uleb128 0x1
 958 007e 50       		.byte	0x50
 959 007f 04       		.byte	0x4
 960 0080 08       		.uleb128 .LVL7-.LVL5
 961 0081 0C       		.uleb128 .LVL8-.LVL5
 962 0082 05       		.uleb128 0x5
 963 0083 03       		.byte	0x3
 964 0084 00000000 		.4byte	nextmem
 965 0088 00       		.byte	0
 966              	.LVUS4:
 967 0089 00       		.uleb128 0
 968 008a 00       		.uleb128 .LVU53
 969 008b 00       		.uleb128 .LVU53
ARM GAS  /tmp/ccGjV6xc.s 			page 18


 970 008c 00       		.uleb128 .LVU55
 971 008d 00       		.uleb128 .LVU55
 972 008e 00       		.uleb128 .LVU56
 973 008f 00       		.uleb128 .LVU56
 974 0090 00       		.uleb128 .LVU62
 975 0091 00       		.uleb128 .LVU62
 976 0092 00       		.uleb128 0
 977              	.LLST4:
 978 0093 06       		.byte	0x6
 979 0094 00000000 		.4byte	.LVL9
 980 0098 04       		.byte	0x4
 981 0099 00       		.uleb128 .LVL9-.LVL9
 982 009a 10       		.uleb128 .LVL10-.LVL9
 983 009b 01       		.uleb128 0x1
 984 009c 50       		.byte	0x50
 985 009d 04       		.byte	0x4
 986 009e 10       		.uleb128 .LVL10-.LVL9
 987 009f 18       		.uleb128 .LVL11-.LVL9
 988 00a0 01       		.uleb128 0x1
 989 00a1 53       		.byte	0x53
 990 00a2 04       		.byte	0x4
 991 00a3 18       		.uleb128 .LVL11-.LVL9
 992 00a4 1C       		.uleb128 .LVL12-.LVL9
 993 00a5 03       		.uleb128 0x3
 994 00a6 73       		.byte	0x73
 995 00a7 7D       		.sleb128 -3
 996 00a8 9F       		.byte	0x9f
 997 00a9 04       		.byte	0x4
 998 00aa 1C       		.uleb128 .LVL12-.LVL9
 999 00ab 28       		.uleb128 .LVL14-.LVL9
 1000 00ac 01       		.uleb128 0x1
 1001 00ad 53       		.byte	0x53
 1002 00ae 04       		.byte	0x4
 1003 00af 28       		.uleb128 .LVL14-.LVL9
 1004 00b0 3C       		.uleb128 .LFE9-.LVL9
 1005 00b1 09       		.uleb128 0x9
 1006 00b2 A3       		.byte	0xa3
 1007 00b3 01       		.uleb128 0x1
 1008 00b4 50       		.byte	0x50
 1009 00b5 23       		.byte	0x23
 1010 00b6 03       		.uleb128 0x3
 1011 00b7 09       		.byte	0x9
 1012 00b8 FC       		.byte	0xfc
 1013 00b9 1A       		.byte	0x1a
 1014 00ba 9F       		.byte	0x9f
 1015 00bb 00       		.byte	0
 1016              	.LVUS5:
 1017 00bc 01       		.uleb128 .LVU60
 1018 00bd 00       		.uleb128 .LVU65
 1019              	.LLST5:
 1020 00be 08       		.byte	0x8
 1021 00bf 24000000 		.4byte	.LVL13
 1022 00c3 0C       		.uleb128 .LVL15-.LVL13
 1023 00c4 01       		.uleb128 0x1
 1024 00c5 50       		.byte	0x50
 1025 00c6 00       		.byte	0
 1026              	.Ldebug_loc3:
ARM GAS  /tmp/ccGjV6xc.s 			page 19


 1027              		.section	.debug_aranges,"",%progbits
 1028 0000 34000000 		.4byte	0x34
 1029 0004 0200     		.2byte	0x2
 1030 0006 00000000 		.4byte	.Ldebug_info0
 1031 000a 04       		.byte	0x4
 1032 000b 00       		.byte	0
 1033 000c 0000     		.2byte	0
 1034 000e 0000     		.2byte	0
 1035 0010 00000000 		.4byte	.LFB7
 1036 0014 34000000 		.4byte	.LFE7-.LFB7
 1037 0018 00000000 		.4byte	.LFB8
 1038 001c 44000000 		.4byte	.LFE8-.LFB8
 1039 0020 00000000 		.4byte	.LFB9
 1040 0024 3C000000 		.4byte	.LFE9-.LFB9
 1041 0028 00000000 		.4byte	.LFB10
 1042 002c 20000000 		.4byte	.LFE10-.LFB10
 1043 0030 00000000 		.4byte	0
 1044 0034 00000000 		.4byte	0
 1045              		.section	.debug_rnglists,"",%progbits
 1046              	.Ldebug_ranges0:
 1047 0000 21000000 		.4byte	.Ldebug_ranges3-.Ldebug_ranges2
 1048              	.Ldebug_ranges2:
 1049 0004 0500     		.2byte	0x5
 1050 0006 04       		.byte	0x4
 1051 0007 00       		.byte	0
 1052 0008 00000000 		.4byte	0
 1053              	.LLRL6:
 1054 000c 07       		.byte	0x7
 1055 000d 00000000 		.4byte	.LFB7
 1056 0011 34       		.uleb128 .LFE7-.LFB7
 1057 0012 07       		.byte	0x7
 1058 0013 00000000 		.4byte	.LFB8
 1059 0017 44       		.uleb128 .LFE8-.LFB8
 1060 0018 07       		.byte	0x7
 1061 0019 00000000 		.4byte	.LFB9
 1062 001d 3C       		.uleb128 .LFE9-.LFB9
 1063 001e 07       		.byte	0x7
 1064 001f 00000000 		.4byte	.LFB10
 1065 0023 20       		.uleb128 .LFE10-.LFB10
 1066 0024 00       		.byte	0
 1067              	.Ldebug_ranges3:
 1068              		.section	.debug_line,"",%progbits
 1069              	.Ldebug_line0:
 1070 0000 E0010000 		.section	.debug_str,"MS",%progbits,1
 1070      0300CF00 
 1070      00000201 
 1070      FB0E0D00 
 1070      01010101 
 1071              	.LASF9:
 1072 0000 6C6F6E67 		.ascii	"long long int\000"
 1072      206C6F6E 
 1072      6720696E 
 1072      7400
 1073              	.LASF6:
 1074 000e 73686F72 		.ascii	"short unsigned int\000"
 1074      7420756E 
 1074      7369676E 
ARM GAS  /tmp/ccGjV6xc.s 			page 20


 1074      65642069 
 1074      6E7400
 1075              	.LASF2:
 1076 0021 73697A65 		.ascii	"size_t\000"
 1076      5F7400
 1077              	.LASF13:
 1078 0028 6E657874 		.ascii	"nextmem\000"
 1078      6D656D00 
 1079              	.LASF16:
 1080 0030 5F5F6865 		.ascii	"__heap_end__\000"
 1080      61705F65 
 1080      6E645F5F 
 1080      00
 1081              	.LASF15:
 1082 003d 5F5F6865 		.ascii	"__heap_base__\000"
 1082      61705F62 
 1082      6173655F 
 1082      5F00
 1083              	.LASF19:
 1084 004b 2F686F6D 		.ascii	"/home/sergi/uni/seu/ChibiOS-RPi/demos/led\000"
 1084      652F7365 
 1084      7267692F 
 1084      756E692F 
 1084      7365752F 
 1085              	.LASF8:
 1086 0075 6C6F6E67 		.ascii	"long unsigned int\000"
 1086      20756E73 
 1086      69676E65 
 1086      6420696E 
 1086      7400
 1087              	.LASF10:
 1088 0087 6C6F6E67 		.ascii	"long long unsigned int\000"
 1088      206C6F6E 
 1088      6720756E 
 1088      7369676E 
 1088      65642069 
 1089              	.LASF3:
 1090 009e 5F5F7569 		.ascii	"__uint8_t\000"
 1090      6E74385F 
 1090      7400
 1091              	.LASF11:
 1092 00a8 75696E74 		.ascii	"uint8_t\000"
 1092      385F7400 
 1093              	.LASF4:
 1094 00b0 756E7369 		.ascii	"unsigned char\000"
 1094      676E6564 
 1094      20636861 
 1094      7200
 1095              	.LASF12:
 1096 00be 63686172 		.ascii	"char\000"
 1096      00
 1097              	.LASF23:
 1098 00c3 6368436F 		.ascii	"chCoreAlloc\000"
 1098      7265416C 
 1098      6C6F6300 
 1099              	.LASF7:
 1100 00cf 6C6F6E67 		.ascii	"long int\000"
ARM GAS  /tmp/ccGjV6xc.s 			page 21


 1100      20696E74 
 1100      00
 1101              	.LASF17:
 1102 00d8 474E5520 		.ascii	"GNU C17 11.2.0 -mcpu=arm1176jz-s -mno-thumb-interwo"
 1102      43313720 
 1102      31312E32 
 1102      2E30202D 
 1102      6D637075 
 1103 010b 726B202D 		.ascii	"rk -mfloat-abi=soft -marm -march=armv6kz -ggdb -O2 "
 1103      6D666C6F 
 1103      61742D61 
 1103      62693D73 
 1103      6F667420 
 1104 013e 2D666F6D 		.ascii	"-fomit-frame-pointer -ffunction-sections -fdata-sec"
 1104      69742D66 
 1104      72616D65 
 1104      2D706F69 
 1104      6E746572 
 1105 0171 74696F6E 		.ascii	"tions\000"
 1105      7300
 1106              	.LASF18:
 1107 0177 2E2E2F2E 		.ascii	"../../os/kernel/src/chmemcore.c\000"
 1107      2E2F6F73 
 1107      2F6B6572 
 1107      6E656C2F 
 1107      7372632F 
 1108              	.LASF14:
 1109 0197 656E646D 		.ascii	"endmem\000"
 1109      656D00
 1110              	.LASF21:
 1111 019e 6368436F 		.ascii	"chCoreAllocI\000"
 1111      7265416C 
 1111      6C6F6349 
 1111      00
 1112              	.LASF1:
 1113 01ab 7369676E 		.ascii	"signed char\000"
 1113      65642063 
 1113      68617200 
 1114              	.LASF22:
 1115 01b7 73697A65 		.ascii	"size\000"
 1115      00
 1116              	.LASF24:
 1117 01bc 5F636F72 		.ascii	"_core_init\000"
 1117      655F696E 
 1117      697400
 1118              	.LASF5:
 1119 01c7 73686F72 		.ascii	"short int\000"
 1119      7420696E 
 1119      7400
 1120              	.LASF0:
 1121 01d1 756E7369 		.ascii	"unsigned int\000"
 1121      676E6564 
 1121      20696E74 
 1121      00
 1122              	.LASF20:
 1123 01de 6368436F 		.ascii	"chCoreStatus\000"
 1123      72655374 
ARM GAS  /tmp/ccGjV6xc.s 			page 22


 1123      61747573 
 1123      00
 1124              		.ident	"GCC: (Arch Repository) 11.2.0"
ARM GAS  /tmp/ccGjV6xc.s 			page 23


DEFINED SYMBOLS
                            *ABS*:0000000000000000 chmemcore.c
     /tmp/ccGjV6xc.s:16     .text._core_init:0000000000000000 $a
     /tmp/ccGjV6xc.s:23     .text._core_init:0000000000000000 _core_init
     /tmp/ccGjV6xc.s:56     .text._core_init:0000000000000024 $d
     /tmp/ccGjV6xc.s:64     .text.chCoreAlloc:0000000000000000 $a
     /tmp/ccGjV6xc.s:70     .text.chCoreAlloc:0000000000000000 chCoreAlloc
     /tmp/ccGjV6xc.s:150    .text.chCoreAlloc:000000000000003c $d
     /tmp/ccGjV6xc.s:156    .text.chCoreAllocI:0000000000000000 $a
     /tmp/ccGjV6xc.s:162    .text.chCoreAllocI:0000000000000000 chCoreAllocI
     /tmp/ccGjV6xc.s:211    .text.chCoreAllocI:0000000000000034 $d
     /tmp/ccGjV6xc.s:217    .text.chCoreStatus:0000000000000000 $a
     /tmp/ccGjV6xc.s:223    .text.chCoreStatus:0000000000000000 chCoreStatus
     /tmp/ccGjV6xc.s:242    .text.chCoreStatus:0000000000000018 $d
     /tmp/ccGjV6xc.s:248    .bss.endmem:0000000000000000 $d
     /tmp/ccGjV6xc.s:252    .bss.endmem:0000000000000000 endmem
     /tmp/ccGjV6xc.s:255    .bss.nextmem:0000000000000000 $d
     /tmp/ccGjV6xc.s:259    .bss.nextmem:0000000000000000 nextmem

UNDEFINED SYMBOLS
__heap_base__
__heap_end__
