ARM GAS  /tmp/ccbgERSa.s 			page 1


   1              		.cpu arm1176jz-s
   2              		.eabi_attribute 20, 1
   3              		.eabi_attribute 21, 1
   4              		.eabi_attribute 23, 3
   5              		.eabi_attribute 24, 1
   6              		.eabi_attribute 25, 1
   7              		.eabi_attribute 26, 1
   8              		.eabi_attribute 30, 2
   9              		.eabi_attribute 34, 1
  10              		.eabi_attribute 18, 4
  11              		.file	"chmsg.c"
  12              		.text
  13              	.Ltext0:
  14              		.cfi_sections	.debug_frame
  15              		.section	.text.chMsgSend,"ax",%progbits
  16              		.align	2
  17              		.global	chMsgSend
  18              		.arch armv6kz
  19              		.syntax unified
  20              		.arm
  21              		.fpu softvfp
  22              		.type	chMsgSend, %function
  23              	chMsgSend:
  24              	.LVL0:
  25              	.LFB7:
  26              		.file 1 "../../os/kernel/src/chmsg.c"
  27              		.loc 1 68 40 view -0
  28              		.cfi_startproc
  29              		@ args = 0, pretend = 0, frame = 0
  30              		@ frame_needed = 0, uses_anonymous_args = 0
  31              		.loc 1 69 3 view .LVU1
  32              		.loc 1 69 11 is_stmt 0 view .LVU2
  33 0000 50309FE5 		ldr	r3, .L6
  34              		.loc 1 68 40 view .LVU3
  35 0004 10402DE9 		push	{r4, lr}
  36              		.cfi_def_cfa_offset 8
  37              		.cfi_offset 4, -8
  38              		.cfi_offset 14, -4
  39              		.loc 1 69 11 view .LVU4
  40 0008 184093E5 		ldr	r4, [r3, #24]
  41              	.LVL1:
  42              		.loc 1 71 3 is_stmt 1 view .LVU5
  43              		.loc 1 71 38 view .LVU6
  44              		.loc 1 73 3 view .LVU7
  45              		.syntax divided
  46              	@ 73 "../../os/kernel/src/chmsg.c" 1
  47 000c 9FF021E3 		msr     CPSR_c, #0x9F
  48              	@ 0 "" 2
  49              		.loc 1 73 3 view .LVU8
  50              		.loc 1 73 14 view .LVU9
  51              		.loc 1 74 3 view .LVU10
  52              		.arm
  53              		.syntax unified
  54              	.LBB6:
  55              	.LBB7:
  56              		.file 2 "../../os/kernel/include/chinline.h"
  57              		.loc 2 48 19 is_stmt 0 view .LVU11
ARM GAS  /tmp/ccbgERSa.s 			page 2


  58 0010 302090E5 		ldr	r2, [r0, #48]
  59              	.LBE7:
  60              	.LBE6:
  61              		.loc 1 75 21 view .LVU12
  62 0014 2CC080E2 		add	ip, r0, #44
  63              		.loc 1 74 14 view .LVU13
  64 0018 341084E5 		str	r1, [r4, #52]
  65              		.loc 1 75 3 is_stmt 1 view .LVU14
  66              		.loc 1 75 19 is_stmt 0 view .LVU15
  67 001c 24C084E5 		str	ip, [r4, #36]
  68              		.loc 1 76 3 is_stmt 1 view .LVU16
  69              	.LVL2:
  70              	.LBB9:
  71              	.LBI6:
  72              		.loc 2 45 20 view .LVU17
  73              	.LBB8:
  74              		.loc 2 47 3 view .LVU18
  75              		.loc 2 47 14 is_stmt 0 view .LVU19
  76 0020 00C084E5 		str	ip, [r4]
  77              		.loc 2 48 3 is_stmt 1 view .LVU20
  78              		.loc 2 48 14 is_stmt 0 view .LVU21
  79 0024 042084E5 		str	r2, [r4, #4]
  80              		.loc 2 49 3 is_stmt 1 view .LVU22
  81              		.loc 2 49 36 is_stmt 0 view .LVU23
  82 0028 304080E5 		str	r4, [r0, #48]
  83              		.loc 2 49 22 view .LVU24
  84 002c 004082E5 		str	r4, [r2]
  85              	.LVL3:
  86              		.loc 2 49 22 view .LVU25
  87              	.LBE8:
  88              	.LBE9:
  89              		.loc 1 77 3 is_stmt 1 view .LVU26
  90              		.loc 1 77 6 is_stmt 0 view .LVU27
  91 0030 1C30D0E5 		ldrb	r3, [r0, #28]	@ zero_extendqisi2
  92 0034 0C0053E3 		cmp	r3, #12
  93 0038 0400000A 		beq	.L5
  94              	.LVL4:
  95              	.L2:
  96              		.loc 1 79 3 is_stmt 1 view .LVU28
  97 003c 0A00A0E3 		mov	r0, #10
  98 0040 FEFFFFEB 		bl	chSchGoSleepS
  99              	.LVL5:
 100              		.loc 1 80 3 view .LVU29
 101              		.loc 1 80 7 is_stmt 0 view .LVU30
 102 0044 240094E5 		ldr	r0, [r4, #36]
 103              	.LVL6:
 104              		.loc 1 81 3 is_stmt 1 view .LVU31
 105              		.loc 1 81 3 view .LVU32
 106              		.syntax divided
 107              	@ 81 "../../os/kernel/src/chmsg.c" 1
 108 0048 1FF021E3 		msr     CPSR_c, #0x1F
 109              	@ 0 "" 2
 110              		.loc 1 81 16 view .LVU33
 111              		.loc 1 82 3 view .LVU34
 112              		.loc 1 83 1 is_stmt 0 view .LVU35
 113              		.arm
 114              		.syntax unified
ARM GAS  /tmp/ccbgERSa.s 			page 3


 115 004c 1080BDE8 		pop	{r4, pc}
 116              	.LVL7:
 117              	.L5:
 118              		.loc 1 78 5 is_stmt 1 view .LVU36
 119 0050 FEFFFFEB 		bl	chSchReadyI
 120              	.LVL8:
 121              		.loc 1 78 5 is_stmt 0 view .LVU37
 122 0054 F8FFFFEA 		b	.L2
 123              	.L7:
 124              		.align	2
 125              	.L6:
 126 0058 00000000 		.word	rlist
 127              		.cfi_endproc
 128              	.LFE7:
 129              		.size	chMsgSend, .-chMsgSend
 130              		.section	.text.chMsgWait,"ax",%progbits
 131              		.align	2
 132              		.global	chMsgWait
 133              		.syntax unified
 134              		.arm
 135              		.fpu softvfp
 136              		.type	chMsgWait, %function
 137              	chMsgWait:
 138              	.LFB8:
 139              		.loc 1 99 25 is_stmt 1 view -0
 140              		.cfi_startproc
 141              		@ args = 0, pretend = 0, frame = 0
 142              		@ frame_needed = 0, uses_anonymous_args = 0
 143              		.loc 1 100 3 view .LVU39
 144              		.loc 1 102 3 view .LVU40
 145              		.loc 1 99 25 is_stmt 0 view .LVU41
 146 0000 10402DE9 		push	{r4, lr}
 147              		.cfi_def_cfa_offset 8
 148              		.cfi_offset 4, -8
 149              		.cfi_offset 14, -4
 150              		.loc 1 102 3 view .LVU42
 151              		.syntax divided
 152              	@ 102 "../../os/kernel/src/chmsg.c" 1
 153 0004 9FF021E3 		msr     CPSR_c, #0x9F
 154              	@ 0 "" 2
 155              		.loc 1 102 3 is_stmt 1 view .LVU43
 156              		.loc 1 102 14 view .LVU44
 157              		.loc 1 103 3 view .LVU45
 158              		.loc 1 103 8 is_stmt 0 view .LVU46
 159              		.arm
 160              		.syntax unified
 161 0008 44409FE5 		ldr	r4, .L12
 162 000c 182094E5 		ldr	r2, [r4, #24]
 163 0010 0230A0E1 		mov	r3, r2
 164 0014 2C00B3E5 		ldr	r0, [r3, #44]!
 165              		.loc 1 103 6 view .LVU47
 166 0018 030050E1 		cmp	r0, r3
 167 001c 0600000A 		beq	.L11
 168              	.L9:
 169              		.loc 1 105 3 is_stmt 1 view .LVU48
 170              	.LVL9:
 171              	.LBB10:
ARM GAS  /tmp/ccbgERSa.s 			page 4


 172              	.LBI10:
 173              		.loc 2 52 23 view .LVU49
 174              	.LBB11:
 175              		.loc 2 53 3 view .LVU50
 176              		.loc 2 55 3 view .LVU51
 177              	.LBE11:
 178              	.LBE10:
 179              		.loc 1 106 15 is_stmt 0 view .LVU52
 180 0020 0BC0A0E3 		mov	ip, #11
 181              	.LBB14:
 182              	.LBB12:
 183              		.loc 2 55 20 view .LVU53
 184 0024 001090E5 		ldr	r1, [r0]
 185              		.loc 2 55 16 view .LVU54
 186 0028 2C1082E5 		str	r1, [r2, #44]
 187              	.LVL10:
 188              		.loc 2 55 38 view .LVU55
 189 002c 043081E5 		str	r3, [r1, #4]
 190              		.loc 2 56 3 is_stmt 1 view .LVU56
 191              	.LVL11:
 192              		.loc 2 56 3 is_stmt 0 view .LVU57
 193              	.LBE12:
 194              	.LBE14:
 195              		.loc 1 106 3 is_stmt 1 view .LVU58
 196              		.loc 1 106 15 is_stmt 0 view .LVU59
 197 0030 1CC0C0E5 		strb	ip, [r0, #28]
 198              		.loc 1 107 3 is_stmt 1 view .LVU60
 199              		.loc 1 107 3 view .LVU61
 200              		.syntax divided
 201              	@ 107 "../../os/kernel/src/chmsg.c" 1
 202 0034 1FF021E3 		msr     CPSR_c, #0x1F
 203              	@ 0 "" 2
 204              		.loc 1 107 16 view .LVU62
 205              		.loc 1 108 3 view .LVU63
 206              		.loc 1 109 1 is_stmt 0 view .LVU64
 207              		.arm
 208              		.syntax unified
 209 0038 1080BDE8 		pop	{r4, pc}
 210              	.L11:
 211              		.loc 1 104 5 is_stmt 1 view .LVU65
 212 003c 0C00A0E3 		mov	r0, #12
 213 0040 FEFFFFEB 		bl	chSchGoSleepS
 214              	.LVL12:
 215              		.loc 1 105 21 is_stmt 0 view .LVU66
 216 0044 182094E5 		ldr	r2, [r4, #24]
 217              	.LBB15:
 218              	.LBB13:
 219              		.loc 2 53 11 view .LVU67
 220 0048 2C0092E5 		ldr	r0, [r2, #44]
 221              	.LBE13:
 222              	.LBE15:
 223              		.loc 1 105 8 view .LVU68
 224 004c 2C3082E2 		add	r3, r2, #44
 225 0050 F2FFFFEA 		b	.L9
 226              	.L13:
 227              		.align	2
 228              	.L12:
ARM GAS  /tmp/ccbgERSa.s 			page 5


 229 0054 00000000 		.word	rlist
 230              		.cfi_endproc
 231              	.LFE8:
 232              		.size	chMsgWait, .-chMsgWait
 233              		.section	.text.chMsgRelease,"ax",%progbits
 234              		.align	2
 235              		.global	chMsgRelease
 236              		.syntax unified
 237              		.arm
 238              		.fpu softvfp
 239              		.type	chMsgRelease, %function
 240              	chMsgRelease:
 241              	.LVL13:
 242              	.LFB9:
 243              		.loc 1 121 42 is_stmt 1 view -0
 244              		.cfi_startproc
 245              		@ args = 0, pretend = 0, frame = 0
 246              		@ frame_needed = 0, uses_anonymous_args = 0
 247              		.loc 1 123 3 view .LVU70
 248              		.loc 1 121 42 is_stmt 0 view .LVU71
 249 0000 10402DE9 		push	{r4, lr}
 250              		.cfi_def_cfa_offset 8
 251              		.cfi_offset 4, -8
 252              		.cfi_offset 14, -4
 253              		.loc 1 123 3 view .LVU72
 254              		.syntax divided
 255              	@ 123 "../../os/kernel/src/chmsg.c" 1
 256 0004 9FF021E3 		msr     CPSR_c, #0x9F
 257              	@ 0 "" 2
 258              		.loc 1 123 3 is_stmt 1 view .LVU73
 259              		.loc 1 123 14 view .LVU74
 260              		.loc 1 124 3 view .LVU75
 261              		.loc 1 125 53 view .LVU76
 262              		.loc 1 126 3 view .LVU77
 263              		.arm
 264              		.syntax unified
 265 0008 FEFFFFEB 		bl	chSchWakeupS
 266              	.LVL14:
 267              		.loc 1 127 3 view .LVU78
 268              		.loc 1 127 3 view .LVU79
 269              		.syntax divided
 270              	@ 127 "../../os/kernel/src/chmsg.c" 1
 271 000c 1FF021E3 		msr     CPSR_c, #0x1F
 272              	@ 0 "" 2
 273              		.loc 1 127 16 view .LVU80
 274              		.loc 1 128 1 is_stmt 0 view .LVU81
 275              		.arm
 276              		.syntax unified
 277 0010 1080BDE8 		pop	{r4, pc}
 278              		.cfi_endproc
 279              	.LFE9:
 280              		.size	chMsgRelease, .-chMsgRelease
 281              		.text
 282              	.Letext0:
 283              		.file 3 "/usr/arm-none-eabi/include/machine/_default_types.h"
 284              		.file 4 "/usr/arm-none-eabi/include/sys/_stdint.h"
 285              		.file 5 "../../os/ports/GCC/ARM/chtypes.h"
ARM GAS  /tmp/ccbgERSa.s 			page 6


 286              		.file 6 "../../os/kernel/include/chlists.h"
 287              		.file 7 "../../os/kernel/include/chthreads.h"
 288              		.file 8 "../../os/ports/GCC/ARM/chcore.h"
 289              		.file 9 "../../os/kernel/include/chschd.h"
 290              		.file 10 "../../os/kernel/include/chmtx.h"