ARM GAS  /tmp/ccxnK9EA.s 			page 1


   1              		.cpu arm1176jz-s
   2              		.eabi_attribute 20, 1
   3              		.eabi_attribute 21, 1
   4              		.eabi_attribute 23, 3
   5              		.eabi_attribute 24, 1
   6              		.eabi_attribute 25, 1
   7              		.eabi_attribute 26, 1
   8              		.eabi_attribute 30, 2
   9              		.eabi_attribute 34, 1
  10              		.eabi_attribute 18, 4
  11              		.file	"chmtx.c"
  12              		.text
  13              	.Ltext0:
  14              		.cfi_sections	.debug_frame
  15              		.section	.text.chMtxInit,"ax",%progbits
  16              		.align	2
  17              		.global	chMtxInit
  18              		.arch armv6kz
  19              		.syntax unified
  20              		.arm
  21              		.fpu softvfp
  22              		.type	chMtxInit, %function
  23              	chMtxInit:
  24              	.LVL0:
  25              	.LFB7:
  26              		.file 1 "../../os/kernel/src/chmtx.c"
  27              		.loc 1 79 27 view -0
  28              		.cfi_startproc
  29              		@ args = 0, pretend = 0, frame = 0
  30              		@ frame_needed = 0, uses_anonymous_args = 0
  31              		@ link register save eliminated.
  32              		.loc 1 81 3 view .LVU1
  33              		.loc 1 81 38 view .LVU2
  34              		.loc 1 83 3 view .LVU3
  35              		.loc 1 84 15 is_stmt 0 view .LVU4
  36 0000 0030A0E3 		mov	r3, #0
  37              		.loc 1 83 3 view .LVU5
  38 0004 040080E5 		str	r0, [r0, #4]
  39 0008 000080E5 		str	r0, [r0]
  40              		.loc 1 83 27 is_stmt 1 view .LVU6
  41              		.loc 1 84 3 view .LVU7
  42              		.loc 1 84 15 is_stmt 0 view .LVU8
  43 000c 083080E5 		str	r3, [r0, #8]
  44              		.loc 1 85 1 view .LVU9
  45 0010 1EFF2FE1 		bx	lr
  46              		.cfi_endproc
  47              	.LFE7:
  48              		.size	chMtxInit, .-chMtxInit
  49              		.section	.text.chMtxLockS,"ax",%progbits
  50              		.align	2
  51              		.global	chMtxLockS
  52              		.syntax unified
  53              		.arm
  54              		.fpu softvfp
  55              		.type	chMtxLockS, %function
  56              	chMtxLockS:
  57              	.LVL1:
ARM GAS  /tmp/ccxnK9EA.s 			page 2


  58              	.LFB9:
  59              		.loc 1 114 28 is_stmt 1 view -0
  60              		.cfi_startproc
  61              		@ args = 0, pretend = 0, frame = 0
  62              		@ frame_needed = 0, uses_anonymous_args = 0
  63              		.loc 1 115 3 view .LVU11
  64              		.loc 1 114 28 is_stmt 0 view .LVU12
  65 0000 70402DE9 		push	{r4, r5, r6, lr}
  66              		.cfi_def_cfa_offset 16
  67              		.cfi_offset 4, -16
  68              		.cfi_offset 5, -12
  69              		.cfi_offset 6, -8
  70              		.cfi_offset 14, -4
  71              		.loc 1 114 28 view .LVU13
  72 0004 0050A0E1 		mov	r5, r0
  73              		.loc 1 121 9 view .LVU14
  74 0008 080090E5 		ldr	r0, [r0, #8]
  75              	.LVL2:
  76              		.loc 1 115 11 view .LVU15
  77 000c 64319FE5 		ldr	r3, .L30
  78              		.loc 1 121 6 view .LVU16
  79 0010 000050E3 		cmp	r0, #0
  80              		.loc 1 115 11 view .LVU17
  81 0014 184093E5 		ldr	r4, [r3, #24]
  82              	.LVL3:
  83              		.loc 1 117 3 is_stmt 1 view .LVU18
  84              		.loc 1 117 21 view .LVU19
  85              		.loc 1 118 3 view .LVU20
  86              		.loc 1 118 39 view .LVU21
  87              		.loc 1 121 3 view .LVU22
  88              		.loc 1 121 6 is_stmt 0 view .LVU23
  89 0018 1E00000A 		beq	.L25
  90              	.LVL4:
  91              	.LBB34:
  92              		.loc 1 128 23 is_stmt 1 view .LVU24
  93              		.loc 1 128 28 is_stmt 0 view .LVU25
  94 001c 082094E5 		ldr	r2, [r4, #8]
  95              		.loc 1 128 23 view .LVU26
  96 0020 083090E5 		ldr	r3, [r0, #8]
  97 0024 020053E1 		cmp	r3, r2
  98 0028 0700002A 		bcs	.L9
  99              	.L12:
 100              		.loc 1 130 7 is_stmt 1 view .LVU27
 101              		.loc 1 132 17 is_stmt 0 view .LVU28
 102 002c 1C30D0E5 		ldrb	r3, [r0, #28]	@ zero_extendqisi2
 103              		.loc 1 130 18 view .LVU29
 104 0030 082080E5 		str	r2, [r0, #8]
 105              		.loc 1 132 7 is_stmt 1 view .LVU30
 106 0034 040053E3 		cmp	r3, #4
 107 0038 3500000A 		beq	.L6
 108              		.loc 1 132 7 is_stmt 0 view .LVU31
 109 003c 050053E3 		cmp	r3, #5
 110 0040 1F00000A 		beq	.L7
 111 0044 000053E3 		cmp	r3, #0
 112 0048 1700000A 		beq	.L26
 113              	.LVL5:
 114              	.L9:
ARM GAS  /tmp/ccxnK9EA.s 			page 3


 115              		.loc 1 166 5 is_stmt 1 view .LVU32
 116              	.LBB35:
 117              	.LBI35:
 118              		.file 2 "../../os/kernel/include/chinline.h"
 119              		.loc 2 34 20 view .LVU33
 120              	.LBB36:
 121              		.loc 2 36 3 view .LVU34
 122              		.loc 2 36 11 is_stmt 0 view .LVU35
 123 004c 0530A0E1 		mov	r3, r5
 124 0050 030000EA 		b	.L17
 125              	.LVL6:
 126              	.L27:
 127              		.loc 2 39 34 view .LVU36
 128 0054 081093E5 		ldr	r1, [r3, #8]
 129 0058 082094E5 		ldr	r2, [r4, #8]
 130 005c 020051E1 		cmp	r1, r2
 131 0060 0200003A 		bcc	.L16
 132              	.L17:
 133              		.loc 2 37 3 is_stmt 1 view .LVU37
 134              		.loc 2 38 5 view .LVU38
 135              		.loc 2 38 8 is_stmt 0 view .LVU39
 136 0064 003093E5 		ldr	r3, [r3]
 137              	.LVL7:
 138              		.loc 2 39 34 is_stmt 1 view .LVU40
 139 0068 030055E1 		cmp	r5, r3
 140 006c F8FFFF1A 		bne	.L27
 141              	.L16:
 142              		.loc 2 40 3 view .LVU41
 143              		.loc 2 41 18 is_stmt 0 view .LVU42
 144 0070 042093E5 		ldr	r2, [r3, #4]
 145              		.loc 2 40 14 view .LVU43
 146 0074 003084E5 		str	r3, [r4]
 147              		.loc 2 41 3 is_stmt 1 view .LVU44
 148              		.loc 2 41 14 is_stmt 0 view .LVU45
 149 0078 042084E5 		str	r2, [r4, #4]
 150              		.loc 2 42 3 is_stmt 1 view .LVU46
 151              		.loc 2 42 35 is_stmt 0 view .LVU47
 152 007c 044083E5 		str	r4, [r3, #4]
 153              		.loc 2 42 22 view .LVU48
 154 0080 043094E5 		ldr	r3, [r4, #4]
 155              	.LVL8:
 156              		.loc 2 42 22 view .LVU49
 157              	.LBE36:
 158              	.LBE35:
 159              		.loc 1 168 5 view .LVU50
 160 0084 0400A0E3 		mov	r0, #4
 161              	.LBB38:
 162              	.LBB37:
 163              		.loc 2 42 22 view .LVU51
 164 0088 004083E5 		str	r4, [r3]
 165              	.LVL9:
 166              		.loc 2 42 22 view .LVU52
 167              	.LBE37:
 168              	.LBE38:
 169              		.loc 1 167 5 is_stmt 1 view .LVU53
 170              		.loc 1 167 21 is_stmt 0 view .LVU54
 171 008c 245084E5 		str	r5, [r4, #36]
ARM GAS  /tmp/ccxnK9EA.s 			page 4


 172              		.loc 1 168 5 is_stmt 1 view .LVU55
 173              	.LBE34:
 174              		.loc 1 180 1 is_stmt 0 view .LVU56
 175 0090 7040BDE8 		pop	{r4, r5, r6, lr}
 176              		.cfi_remember_state
 177              		.cfi_restore 14
 178              		.cfi_restore 6
 179              		.cfi_restore 5
 180              		.cfi_restore 4
 181              		.cfi_def_cfa_offset 0
 182              	.LVL10:
 183              	.LBB57:
 184              		.loc 1 168 5 view .LVU57
 185 0094 FEFFFFEA 		b	chSchGoSleepS
 186              	.LVL11:
 187              	.L25:
 188              		.cfi_restore_state
 189              		.loc 1 168 5 view .LVU58
 190              	.LBE57:
 191              		.loc 1 176 5 is_stmt 1 view .LVU59
 192              		.loc 1 177 16 is_stmt 0 view .LVU60
 193 0098 3C3094E5 		ldr	r3, [r4, #60]
 194              		.loc 1 176 17 view .LVU61
 195 009c 084085E5 		str	r4, [r5, #8]
 196              		.loc 1 177 5 is_stmt 1 view .LVU62
 197              		.loc 1 177 16 is_stmt 0 view .LVU63
 198 00a0 0C3085E5 		str	r3, [r5, #12]
 199              		.loc 1 178 5 is_stmt 1 view .LVU64
 200              		.loc 1 178 20 is_stmt 0 view .LVU65
 201 00a4 3C5084E5 		str	r5, [r4, #60]
 202              		.loc 1 180 1 view .LVU66
 203 00a8 7080BDE8 		pop	{r4, r5, r6, pc}
 204              	.LVL12:
 205              	.L26:
 206              	.LBB58:
 207              		.loc 1 160 9 is_stmt 1 view .LVU67
 208              	.LBB39:
 209              	.LBI39:
 210              		.loc 2 66 23 view .LVU68
 211              	.LBB40:
 212              		.loc 2 68 3 view .LVU69
 213              		.loc 2 68 5 is_stmt 0 view .LVU70
 214 00ac 042090E5 		ldr	r2, [r0, #4]
 215              		.loc 2 68 26 view .LVU71
 216 00b0 003090E5 		ldr	r3, [r0]
 217              		.loc 2 68 22 view .LVU72
 218 00b4 003082E5 		str	r3, [r2]
 219              		.loc 2 69 3 is_stmt 1 view .LVU73
 220              		.loc 2 69 22 is_stmt 0 view .LVU74
 221 00b8 042083E5 		str	r2, [r3, #4]
 222              		.loc 2 70 3 is_stmt 1 view .LVU75
 223              	.LVL13:
 224              		.loc 2 70 3 is_stmt 0 view .LVU76
 225              	.LBE40:
 226              	.LBE39:
 227              		.loc 1 160 9 view .LVU77
 228 00bc FEFFFFEB 		bl	chSchReadyI
ARM GAS  /tmp/ccxnK9EA.s 			page 5


 229              	.LVL14:
 230              		.loc 1 161 9 is_stmt 1 view .LVU78
 231 00c0 E1FFFFEA 		b	.L9
 232              	.LVL15:
 233              	.L7:
 234              		.loc 1 151 9 view .LVU79
 235              	.LBB41:
 236              	.LBI41:
 237              		.loc 2 66 23 view .LVU80
 238              	.LBB42:
 239              		.loc 2 68 3 view .LVU81
 240              	.LBE42:
 241              	.LBE41:
 242              		.loc 1 151 57 is_stmt 0 view .LVU82
 243 00c4 24C090E5 		ldr	ip, [r0, #36]
 244              	.LBB44:
 245              	.LBB43:
 246              		.loc 2 68 26 view .LVU83
 247 00c8 003090E5 		ldr	r3, [r0]
 248              		.loc 2 68 5 view .LVU84
 249 00cc 041090E5 		ldr	r1, [r0, #4]
 250              		.loc 2 68 22 view .LVU85
 251 00d0 003081E5 		str	r3, [r1]
 252              		.loc 2 69 3 is_stmt 1 view .LVU86
 253              		.loc 2 69 22 is_stmt 0 view .LVU87
 254 00d4 041083E5 		str	r1, [r3, #4]
 255              		.loc 2 70 3 is_stmt 1 view .LVU88
 256              	.LVL16:
 257              		.loc 2 70 3 is_stmt 0 view .LVU89
 258              	.LBE43:
 259              	.LBE44:
 260              	.LBB45:
 261              	.LBI45:
 262              		.loc 2 34 20 is_stmt 1 view .LVU90
 263              	.LBB46:
 264              		.loc 2 36 3 view .LVU91
 265              		.loc 2 36 11 is_stmt 0 view .LVU92
 266 00d8 0C30A0E1 		mov	r3, ip
 267 00dc 020000EA 		b	.L14
 268              	.LVL17:
 269              	.L28:
 270              		.loc 2 39 34 view .LVU93
 271 00e0 081093E5 		ldr	r1, [r3, #8]
 272 00e4 010052E1 		cmp	r2, r1
 273 00e8 0200008A 		bhi	.L13
 274              	.L14:
 275              		.loc 2 37 3 is_stmt 1 view .LVU94
 276              		.loc 2 38 5 view .LVU95
 277              		.loc 2 38 8 is_stmt 0 view .LVU96
 278 00ec 003093E5 		ldr	r3, [r3]
 279              	.LVL18:
 280              		.loc 2 39 34 is_stmt 1 view .LVU97
 281 00f0 03005CE1 		cmp	ip, r3
 282 00f4 F9FFFF1A 		bne	.L28
 283              	.L13:
 284              		.loc 2 40 3 view .LVU98
 285              		.loc 2 41 18 is_stmt 0 view .LVU99
ARM GAS  /tmp/ccxnK9EA.s 			page 6


 286 00f8 042093E5 		ldr	r2, [r3, #4]
 287              		.loc 2 40 14 view .LVU100
 288 00fc 003080E5 		str	r3, [r0]
 289              		.loc 2 41 3 is_stmt 1 view .LVU101
 290              		.loc 2 41 14 is_stmt 0 view .LVU102
 291 0100 042080E5 		str	r2, [r0, #4]
 292              		.loc 2 42 3 is_stmt 1 view .LVU103
 293              		.loc 2 42 35 is_stmt 0 view .LVU104
 294 0104 040083E5 		str	r0, [r3, #4]
 295              		.loc 2 42 22 view .LVU105
 296 0108 043090E5 		ldr	r3, [r0, #4]
 297              	.LVL19:
 298              		.loc 2 42 22 view .LVU106
 299 010c 000083E5 		str	r0, [r3]
 300              	.LVL20:
 301              		.loc 2 43 1 view .LVU107
 302 0110 CDFFFFEA 		b	.L9
 303              	.LVL21:
 304              	.L6:
 305              		.loc 2 43 1 view .LVU108
 306              	.LBE46:
 307              	.LBE45:
 308              		.loc 1 135 9 is_stmt 1 view .LVU109
 309              	.LBB47:
 310              	.LBI47:
 311              		.loc 2 66 23 view .LVU110
 312              	.LBB48:
 313              		.loc 2 68 3 view .LVU111
 314              	.LBE48:
 315              	.LBE47:
 316              		.loc 1 135 57 is_stmt 0 view .LVU112
 317 0114 24C090E5 		ldr	ip, [r0, #36]
 318              	.LBB50:
 319              	.LBB49:
 320              		.loc 2 68 26 view .LVU113
 321 0118 003090E5 		ldr	r3, [r0]
 322              		.loc 2 68 5 view .LVU114
 323 011c 041090E5 		ldr	r1, [r0, #4]
 324              		.loc 2 68 22 view .LVU115
 325 0120 003081E5 		str	r3, [r1]
 326              		.loc 2 69 3 is_stmt 1 view .LVU116
 327              		.loc 2 69 22 is_stmt 0 view .LVU117
 328 0124 041083E5 		str	r1, [r3, #4]
 329              		.loc 2 70 3 is_stmt 1 view .LVU118
 330              	.LVL22:
 331              		.loc 2 70 3 is_stmt 0 view .LVU119
 332              	.LBE49:
 333              	.LBE50:
 334              	.LBB51:
 335              	.LBI51:
 336              		.loc 2 34 20 is_stmt 1 view .LVU120
 337              	.LBB52:
 338              		.loc 2 36 3 view .LVU121
 339              		.loc 2 36 3 is_stmt 0 view .LVU122
 340              	.LBE52:
 341              	.LBE51:
 342              		.loc 1 135 57 view .LVU123
ARM GAS  /tmp/ccxnK9EA.s 			page 7


 343 0128 0C30A0E1 		mov	r3, ip
 344 012c 020000EA 		b	.L11
 345              	.LVL23:
 346              	.L29:
 347              	.LBB55:
 348              	.LBB53:
 349              		.loc 2 39 34 view .LVU124
 350 0130 081093E5 		ldr	r1, [r3, #8]
 351 0134 010052E1 		cmp	r2, r1
 352 0138 0200008A 		bhi	.L10
 353              	.L11:
 354              		.loc 2 37 3 is_stmt 1 view .LVU125
 355              		.loc 2 38 5 view .LVU126
 356              		.loc 2 38 8 is_stmt 0 view .LVU127
 357 013c 003093E5 		ldr	r3, [r3]
 358              	.LVL24:
 359              		.loc 2 39 34 is_stmt 1 view .LVU128
 360 0140 03005CE1 		cmp	ip, r3
 361 0144 F9FFFF1A 		bne	.L29
 362              	.L10:
 363              		.loc 2 40 3 view .LVU129
 364              		.loc 2 41 18 is_stmt 0 view .LVU130
 365 0148 042093E5 		ldr	r2, [r3, #4]
 366              		.loc 2 40 14 view .LVU131
 367 014c 003080E5 		str	r3, [r0]
 368              		.loc 2 41 3 is_stmt 1 view .LVU132
 369              		.loc 2 41 14 is_stmt 0 view .LVU133
 370 0150 042080E5 		str	r2, [r0, #4]
 371              		.loc 2 42 3 is_stmt 1 view .LVU134
 372              		.loc 2 42 35 is_stmt 0 view .LVU135
 373 0154 040083E5 		str	r0, [r3, #4]
 374              		.loc 2 42 22 view .LVU136
 375 0158 043090E5 		ldr	r3, [r0, #4]
 376              	.LVL25:
 377              		.loc 2 42 22 view .LVU137
 378              	.LBE53:
 379              	.LBE55:
 380              		.loc 1 128 28 view .LVU138
 381 015c 082094E5 		ldr	r2, [r4, #8]
 382              	.LBB56:
 383              	.LBB54:
 384              		.loc 2 42 22 view .LVU139
 385 0160 000083E5 		str	r0, [r3]
 386              	.LVL26:
 387              		.loc 2 42 22 view .LVU140
 388              	.LBE54:
 389              	.LBE56:
 390              		.loc 1 136 9 is_stmt 1 view .LVU141
 391              		.loc 1 136 12 is_stmt 0 view .LVU142
 392 0164 08009CE5 		ldr	r0, [ip, #8]
 393              	.LVL27:
 394              		.loc 1 137 9 is_stmt 1 view .LVU143
 395              		.loc 1 128 23 view .LVU144
 396 0168 083090E5 		ldr	r3, [r0, #8]
 397 016c 020053E1 		cmp	r3, r2
 398 0170 ADFFFF3A 		bcc	.L12
 399 0174 B4FFFFEA 		b	.L9
ARM GAS  /tmp/ccxnK9EA.s 			page 8


 400              	.L31:
 401              		.align	2
 402              	.L30:
 403 0178 00000000 		.word	rlist
 404              	.LBE58:
 405              		.cfi_endproc
 406              	.LFE9:
 407              		.size	chMtxLockS, .-chMtxLockS
 408              		.section	.text.chMtxLock,"ax",%progbits
 409              		.align	2
 410              		.global	chMtxLock
 411              		.syntax unified
 412              		.arm
 413              		.fpu softvfp
 414              		.type	chMtxLock, %function
 415              	chMtxLock:
 416              	.LVL28:
 417              	.LFB8:
 418              		.loc 1 96 27 view -0
 419              		.cfi_startproc
 420              		@ args = 0, pretend = 0, frame = 0
 421              		@ frame_needed = 0, uses_anonymous_args = 0
 422              		.loc 1 98 3 view .LVU146
 423              		.loc 1 96 27 is_stmt 0 view .LVU147
 424 0000 10402DE9 		push	{r4, lr}
 425              		.cfi_def_cfa_offset 8
 426              		.cfi_offset 4, -8
 427              		.cfi_offset 14, -4
 428              		.loc 1 98 3 view .LVU148
 429              		.syntax divided
 430              	@ 98 "../../os/kernel/src/chmtx.c" 1
 431 0004 9FF021E3 		msr     CPSR_c, #0x9F
 432              	@ 0 "" 2
 433              		.loc 1 98 3 is_stmt 1 view .LVU149
 434              		.loc 1 98 14 view .LVU150
 435              		.loc 1 100 3 view .LVU151
 436              		.arm
 437              		.syntax unified
 438 0008 FEFFFFEB 		bl	chMtxLockS
 439              	.LVL29:
 440              		.loc 1 102 3 view .LVU152
 441              		.loc 1 102 3 view .LVU153
 442              		.syntax divided
 443              	@ 102 "../../os/kernel/src/chmtx.c" 1
 444 000c 1FF021E3 		msr     CPSR_c, #0x1F
 445              	@ 0 "" 2
 446              		.loc 1 102 16 view .LVU154
 447              		.loc 1 103 1 is_stmt 0 view .LVU155
 448              		.arm
 449              		.syntax unified
 450 0010 1080BDE8 		pop	{r4, pc}
 451              		.cfi_endproc
 452              	.LFE8:
 453              		.size	chMtxLock, .-chMtxLock
 454              		.section	.text.chMtxTryLock,"ax",%progbits
 455              		.align	2
 456              		.global	chMtxTryLock
ARM GAS  /tmp/ccxnK9EA.s 			page 9


 457              		.syntax unified
 458              		.arm
 459              		.fpu softvfp
 460              		.type	chMtxTryLock, %function
 461              	chMtxTryLock:
 462              	.LVL30:
 463              	.LFB10:
 464              		.loc 1 199 32 is_stmt 1 view -0
 465              		.cfi_startproc
 466              		@ args = 0, pretend = 0, frame = 0
 467              		@ frame_needed = 0, uses_anonymous_args = 0
 468              		@ link register save eliminated.
 469              		.loc 1 200 3 view .LVU157
 470              		.loc 1 202 3 view .LVU158
 471              		.loc 1 199 32 is_stmt 0 view .LVU159
 472 0000 0030A0E1 		mov	r3, r0
 473              		.loc 1 202 3 view .LVU160
 474              		.syntax divided
 475              	@ 202 "../../os/kernel/src/chmtx.c" 1
 476 0004 9FF021E3 		msr     CPSR_c, #0x9F
 477              	@ 0 "" 2
 478              		.loc 1 202 3 is_stmt 1 view .LVU161
 479              		.loc 1 202 14 view .LVU162
 480              		.loc 1 204 3 view .LVU163
 481              	.LVL31:
 482              		.arm
 483              		.syntax unified
 484              	.LBB63:
 485              	.LBI63:
 486              		.loc 1 227 8 view .LVU164
 487              	.LBB64:
 488              		.loc 1 229 3 view .LVU165
 489              		.loc 1 229 21 view .LVU166
 490              		.loc 1 230 3 view .LVU167
 491              		.loc 1 230 42 view .LVU168
 492              		.loc 1 232 3 view .LVU169
 493              		.loc 1 232 6 is_stmt 0 view .LVU170
 494 0008 082090E5 		ldr	r2, [r0, #8]
 495 000c 000052E3 		cmp	r2, #0
 496              	.LVL32:
 497              	.LBB65:
 498              	.LBI65:
 499              		.loc 1 227 8 is_stmt 1 view .LVU171
 500              	.LBB66:
 501              		.loc 1 234 3 view .LVU172
 502              		.loc 1 234 17 is_stmt 0 view .LVU173
 503 0010 20209F05 		ldreq	r2, .L37
 504              		.loc 1 236 20 view .LVU174
 505 0014 0100A003 		moveq	r0, #1
 506              	.LVL33:
 507              		.loc 1 234 17 view .LVU175
 508 0018 18209205 		ldreq	r2, [r2, #24]
 509              	.LBE66:
 510              	.LBE65:
 511              		.loc 1 233 12 view .LVU176
 512 001c 0000A013 		movne	r0, #0
 513              	.LBB68:
ARM GAS  /tmp/ccxnK9EA.s 			page 10


 514              	.LBB67:
 515              		.loc 1 235 14 view .LVU177
 516 0020 3C109205 		ldreq	r1, [r2, #60]
 517              		.loc 1 234 15 view .LVU178
 518 0024 08208305 		streq	r2, [r3, #8]
 519              		.loc 1 235 3 is_stmt 1 view .LVU179
 520              		.loc 1 235 14 is_stmt 0 view .LVU180
 521 0028 0C108305 		streq	r1, [r3, #12]
 522              		.loc 1 236 3 is_stmt 1 view .LVU181
 523              		.loc 1 236 20 is_stmt 0 view .LVU182
 524 002c 3C308205 		streq	r3, [r2, #60]
 525              		.loc 1 237 3 is_stmt 1 view .LVU183
 526              	.LVL34:
 527              		.loc 1 237 3 is_stmt 0 view .LVU184
 528              	.LBE67:
 529              	.LBE68:
 530              	.LBE64:
 531              	.LBE63:
 532              		.loc 1 206 3 is_stmt 1 view .LVU185
 533              		.loc 1 206 3 view .LVU186
 534              		.syntax divided
 535              	@ 206 "../../os/kernel/src/chmtx.c" 1
 536 0030 1FF021E3 		msr     CPSR_c, #0x1F
 537              	@ 0 "" 2
 538              		.loc 1 206 16 view .LVU187
 539              		.loc 1 207 3 view .LVU188
 540              		.loc 1 208 1 is_stmt 0 view .LVU189
 541              		.arm
 542              		.syntax unified
 543 0034 1EFF2FE1 		bx	lr
 544              	.L38:
 545              		.align	2
 546              	.L37:
 547 0038 00000000 		.word	rlist
 548              		.cfi_endproc
 549              	.LFE10:
 550              		.size	chMtxTryLock, .-chMtxTryLock
 551              		.section	.text.chMtxTryLockS,"ax",%progbits
 552              		.align	2
 553              		.global	chMtxTryLockS
 554              		.syntax unified
 555              		.arm
 556              		.fpu softvfp
 557              		.type	chMtxTryLockS, %function
 558              	chMtxTryLockS:
 559              	.LVL35:
 560              	.LFB11:
 561              		.loc 1 227 33 is_stmt 1 view -0
 562              		.cfi_startproc
 563              		@ args = 0, pretend = 0, frame = 0
 564              		@ frame_needed = 0, uses_anonymous_args = 0
 565              		@ link register save eliminated.
 566              		.loc 1 229 3 view .LVU191
 567              		.loc 1 229 21 view .LVU192
 568              		.loc 1 230 3 view .LVU193
 569              		.loc 1 230 42 view .LVU194
 570              		.loc 1 232 3 view .LVU195
ARM GAS  /tmp/ccxnK9EA.s 			page 11


 571              		.loc 1 227 33 is_stmt 0 view .LVU196
 572 0000 0030A0E1 		mov	r3, r0
 573              		.loc 1 232 6 view .LVU197
 574 0004 082090E5 		ldr	r2, [r0, #8]
 575 0008 000052E3 		cmp	r2, #0
 576              	.LVL36:
 577              	.LBB71:
 578              	.LBI71:
 579              		.loc 1 227 8 is_stmt 1 view .LVU198
 580              	.LBB72:
 581              		.loc 1 234 3 view .LVU199
 582              		.loc 1 234 17 is_stmt 0 view .LVU200
 583 000c 1C209F05 		ldreq	r2, .L42
 584              		.loc 1 236 20 view .LVU201
 585 0010 0100A003 		moveq	r0, #1
 586              	.LVL37:
 587              		.loc 1 234 17 view .LVU202
 588 0014 18209205 		ldreq	r2, [r2, #24]
 589              	.LBE72:
 590              	.LBE71:
 591              		.loc 1 233 12 view .LVU203
 592 0018 0000A013 		movne	r0, #0
 593              	.LBB74:
 594              	.LBB73:
 595              		.loc 1 235 14 view .LVU204
 596 001c 3C109205 		ldreq	r1, [r2, #60]
 597              		.loc 1 234 15 view .LVU205
 598 0020 08208305 		streq	r2, [r3, #8]
 599              		.loc 1 235 3 is_stmt 1 view .LVU206
 600              		.loc 1 235 14 is_stmt 0 view .LVU207
 601 0024 0C108305 		streq	r1, [r3, #12]
 602              		.loc 1 236 3 is_stmt 1 view .LVU208
 603              		.loc 1 236 20 is_stmt 0 view .LVU209
 604 0028 3C308205 		streq	r3, [r2, #60]
 605              		.loc 1 237 3 is_stmt 1 view .LVU210
 606              	.LVL38:
 607              		.loc 1 237 3 is_stmt 0 view .LVU211
 608              	.LBE73:
 609              	.LBE74:
 610              		.loc 1 238 1 view .LVU212
 611 002c 1EFF2FE1 		bx	lr
 612              	.L43:
 613              		.align	2
 614              	.L42:
 615 0030 00000000 		.word	rlist
 616              		.cfi_endproc
 617              	.LFE11:
 618              		.size	chMtxTryLockS, .-chMtxTryLockS
 619              		.section	.text.chMtxUnlock,"ax",%progbits
 620              		.align	2
 621              		.global	chMtxUnlock
 622              		.syntax unified
 623              		.arm
 624              		.fpu softvfp
 625              		.type	chMtxUnlock, %function
 626              	chMtxUnlock:
 627              	.LFB12:
ARM GAS  /tmp/ccxnK9EA.s 			page 12


 628              		.loc 1 250 26 is_stmt 1 view -0
 629              		.cfi_startproc
 630              		@ args = 0, pretend = 0, frame = 0
 631              		@ frame_needed = 0, uses_anonymous_args = 0
 632              		.loc 1 251 3 view .LVU214
 633              		.loc 1 251 11 is_stmt 0 view .LVU215
 634 0000 90309FE5 		ldr	r3, .L55
 635              		.loc 1 250 26 view .LVU216
 636 0004 10402DE9 		push	{r4, lr}
 637              		.cfi_def_cfa_offset 8
 638              		.cfi_offset 4, -8
 639              		.cfi_offset 14, -4
 640              		.loc 1 251 11 view .LVU217
 641 0008 18C093E5 		ldr	ip, [r3, #24]
 642              	.LVL39:
 643              		.loc 1 252 3 is_stmt 1 view .LVU218
 644              		.loc 1 254 3 view .LVU219
 645              		.syntax divided
 646              	@ 254 "../../os/kernel/src/chmtx.c" 1
 647 000c 9FF021E3 		msr     CPSR_c, #0x9F
 648              	@ 0 "" 2
 649              		.loc 1 254 3 view .LVU220
 650              		.loc 1 254 14 view .LVU221
 651              		.loc 1 255 3 view .LVU222
 652              		.arm
 653              		.syntax unified
 654 0010 3C409CE5 		ldr	r4, [ip, #60]
 655              		.loc 1 257 42 view .LVU223
 656              		.loc 1 258 3 view .LVU224
 657              		.loc 1 260 35 view .LVU225
 658              		.loc 1 263 3 view .LVU226
 659              	.LVL40:
 660              		.loc 1 264 3 view .LVU227
 661              		.loc 1 266 7 is_stmt 0 view .LVU228
 662 0014 000094E5 		ldr	r0, [r4]
 663              		.loc 1 264 23 view .LVU229
 664 0018 0C3094E5 		ldr	r3, [r4, #12]
 665              		.loc 1 266 6 view .LVU230
 666 001c 040050E1 		cmp	r0, r4
 667              		.loc 1 264 18 view .LVU231
 668 0020 3C308CE5 		str	r3, [ip, #60]
 669              		.loc 1 266 3 is_stmt 1 view .LVU232
 670              		.loc 1 266 6 is_stmt 0 view .LVU233
 671 0024 1800000A 		beq	.L45
 672              	.LBB75:
 673              		.loc 1 267 5 is_stmt 1 view .LVU234
 674              		.loc 1 271 5 view .LVU235
 675              		.loc 1 273 15 is_stmt 0 view .LVU236
 676 0028 000053E3 		cmp	r3, #0
 677              		.loc 1 271 13 view .LVU237
 678 002c 40109CE5 		ldr	r1, [ip, #64]
 679              	.LVL41:
 680              		.loc 1 272 5 is_stmt 1 view .LVU238
 681              		.loc 1 273 5 view .LVU239
 682              		.loc 1 273 15 view .LVU240
 683 0030 0800000A 		beq	.L46
 684              	.L48:
ARM GAS  /tmp/ccxnK9EA.s 			page 13


 685              		.loc 1 277 7 view .LVU241
 686              		.loc 1 277 11 is_stmt 0 view .LVU242
 687 0034 002093E5 		ldr	r2, [r3]
 688              		.loc 1 277 10 view .LVU243
 689 0038 030052E1 		cmp	r2, r3
 690 003c 0200000A 		beq	.L47
 691              		.loc 1 277 10 view .LVU244
 692 0040 082092E5 		ldr	r2, [r2, #8]
 693 0044 020051E1 		cmp	r1, r2
 694 0048 0210A031 		movcc	r1, r2
 695              	.LVL42:
 696              	.L47:
 697              		.loc 1 279 7 is_stmt 1 view .LVU245
 698              		.loc 1 279 10 is_stmt 0 view .LVU246
 699 004c 0C3093E5 		ldr	r3, [r3, #12]
 700              	.LVL43:
 701              		.loc 1 273 15 is_stmt 1 view .LVU247
 702 0050 000053E3 		cmp	r3, #0
 703 0054 F6FFFF1A 		bne	.L48
 704              	.L46:
 705              		.loc 1 283 5 view .LVU248
 706              	.LBB76:
 707              	.LBB77:
 708              		.loc 2 55 20 is_stmt 0 view .LVU249
 709 0058 003090E5 		ldr	r3, [r0]
 710              	.LVL44:
 711              		.loc 2 55 20 view .LVU250
 712              	.LBE77:
 713              	.LBE76:
 714              		.loc 1 288 17 view .LVU251
 715 005c 3C2090E5 		ldr	r2, [r0, #60]
 716              		.loc 1 283 17 view .LVU252
 717 0060 08108CE5 		str	r1, [ip, #8]
 718              		.loc 1 286 5 is_stmt 1 view .LVU253
 719              	.LVL45:
 720              	.LBB80:
 721              	.LBI76:
 722              		.loc 2 52 23 view .LVU254
 723              	.LBB78:
 724              		.loc 2 53 3 view .LVU255
 725              		.loc 2 55 3 view .LVU256
 726              		.loc 2 55 16 is_stmt 0 view .LVU257
 727 0064 003084E5 		str	r3, [r4]
 728              	.LBE78:
 729              	.LBE80:
 730              		.loc 1 290 5 view .LVU258
 731 0068 0010A0E3 		mov	r1, #0
 732              	.LVL46:
 733              	.LBB81:
 734              	.LBB79:
 735              		.loc 2 55 38 view .LVU259
 736 006c 044083E5 		str	r4, [r3, #4]
 737              		.loc 2 56 3 is_stmt 1 view .LVU260
 738              	.LVL47:
 739              		.loc 2 56 3 is_stmt 0 view .LVU261
 740              	.LBE79:
 741              	.LBE81:
ARM GAS  /tmp/ccxnK9EA.s 			page 14


 742              		.loc 1 287 5 is_stmt 1 view .LVU262
 743              		.loc 1 287 18 is_stmt 0 view .LVU263
 744 0070 080084E5 		str	r0, [r4, #8]
 745              		.loc 1 288 5 is_stmt 1 view .LVU264
 746              		.loc 1 288 17 is_stmt 0 view .LVU265
 747 0074 0C2084E5 		str	r2, [r4, #12]
 748              		.loc 1 289 5 is_stmt 1 view .LVU266
 749              		.loc 1 289 19 is_stmt 0 view .LVU267
 750 0078 3C4080E5 		str	r4, [r0, #60]
 751              		.loc 1 290 5 is_stmt 1 view .LVU268
 752 007c FEFFFFEB 		bl	chSchWakeupS
 753              	.LVL48:
 754              	.L49:
 755              		.loc 1 290 5 is_stmt 0 view .LVU269
 756              	.LBE75:
 757              		.loc 1 294 3 is_stmt 1 view .LVU270
 758              		.loc 1 294 3 view .LVU271
 759              		.syntax divided
 760              	@ 294 "../../os/kernel/src/chmtx.c" 1
 761 0080 1FF021E3 		msr     CPSR_c, #0x1F
 762              	@ 0 "" 2
 763              		.loc 1 294 16 view .LVU272
 764              		.loc 1 295 3 view .LVU273
 765              		.loc 1 296 1 is_stmt 0 view .LVU274
 766              		.arm
 767              		.syntax unified
 768 0084 0400A0E1 		mov	r0, r4
 769 0088 1080BDE8 		pop	{r4, pc}
 770              	.LVL49:
 771              	.L45:
 772              		.loc 1 293 5 is_stmt 1 view .LVU275
 773              		.loc 1 293 18 is_stmt 0 view .LVU276
 774 008c 0030A0E3 		mov	r3, #0
 775 0090 083084E5 		str	r3, [r4, #8]
 776 0094 F9FFFFEA 		b	.L49
 777              	.L56:
 778              		.align	2
 779              	.L55:
 780 0098 00000000 		.word	rlist
 781              		.cfi_endproc
 782              	.LFE12:
 783              		.size	chMtxUnlock, .-chMtxUnlock
 784              		.section	.text.chMtxUnlockS,"ax",%progbits
 785              		.align	2
 786              		.global	chMtxUnlockS
 787              		.syntax unified
 788              		.arm
 789              		.fpu softvfp
 790              		.type	chMtxUnlockS, %function
 791              	chMtxUnlockS:
 792              	.LFB13:
 793              		.loc 1 310 27 is_stmt 1 view -0
 794              		.cfi_startproc
 795              		@ args = 0, pretend = 0, frame = 0
 796              		@ frame_needed = 0, uses_anonymous_args = 0
 797              		.loc 1 311 3 view .LVU278
 798              		.loc 1 311 11 is_stmt 0 view .LVU279
ARM GAS  /tmp/ccxnK9EA.s 			page 15


 799 0000 88309FE5 		ldr	r3, .L68
 800              		.loc 1 310 27 view .LVU280
 801 0004 10402DE9 		push	{r4, lr}
 802              		.cfi_def_cfa_offset 8
 803              		.cfi_offset 4, -8
 804              		.cfi_offset 14, -4
 805              		.loc 1 311 11 view .LVU281
 806 0008 18C093E5 		ldr	ip, [r3, #24]
 807              	.LVL50:
 808              		.loc 1 312 3 is_stmt 1 view .LVU282
 809              		.loc 1 314 3 view .LVU283
 810              		.loc 1 314 21 view .LVU284
 811              		.loc 1 315 3 view .LVU285
 812 000c 3C409CE5 		ldr	r4, [ip, #60]
 813              		.loc 1 317 42 view .LVU286
 814              		.loc 1 318 3 view .LVU287
 815              		.loc 1 320 35 view .LVU288
 816              		.loc 1 324 3 view .LVU289
 817              	.LVL51:
 818              		.loc 1 325 3 view .LVU290
 819              		.loc 1 327 7 is_stmt 0 view .LVU291
 820 0010 000094E5 		ldr	r0, [r4]
 821              		.loc 1 325 23 view .LVU292
 822 0014 0C3094E5 		ldr	r3, [r4, #12]
 823              		.loc 1 327 6 view .LVU293
 824 0018 040050E1 		cmp	r0, r4
 825              		.loc 1 325 18 view .LVU294
 826 001c 3C308CE5 		str	r3, [ip, #60]
 827              		.loc 1 327 3 is_stmt 1 view .LVU295
 828              		.loc 1 327 6 is_stmt 0 view .LVU296
 829 0020 1600000A 		beq	.L58
 830              	.LBB82:
 831              		.loc 1 328 5 is_stmt 1 view .LVU297
 832              		.loc 1 332 5 view .LVU298
 833              		.loc 1 334 15 is_stmt 0 view .LVU299
 834 0024 000053E3 		cmp	r3, #0
 835              		.loc 1 332 13 view .LVU300
 836 0028 40109CE5 		ldr	r1, [ip, #64]
 837              	.LVL52:
 838              		.loc 1 333 5 is_stmt 1 view .LVU301
 839              		.loc 1 334 5 view .LVU302
 840              		.loc 1 334 15 view .LVU303
 841 002c 0800000A 		beq	.L59
 842              	.L61:
 843              		.loc 1 338 7 view .LVU304
 844              		.loc 1 338 11 is_stmt 0 view .LVU305
 845 0030 002093E5 		ldr	r2, [r3]
 846              		.loc 1 338 10 view .LVU306
 847 0034 030052E1 		cmp	r2, r3
 848 0038 0200000A 		beq	.L60
 849              		.loc 1 338 10 view .LVU307
 850 003c 082092E5 		ldr	r2, [r2, #8]
 851 0040 020051E1 		cmp	r1, r2
 852 0044 0210A031 		movcc	r1, r2
 853              	.LVL53:
 854              	.L60:
 855              		.loc 1 340 7 is_stmt 1 view .LVU308
ARM GAS  /tmp/ccxnK9EA.s 			page 16


 856              		.loc 1 340 10 is_stmt 0 view .LVU309
 857 0048 0C3093E5 		ldr	r3, [r3, #12]
 858              	.LVL54:
 859              		.loc 1 334 15 is_stmt 1 view .LVU310
 860 004c 000053E3 		cmp	r3, #0
 861 0050 F6FFFF1A 		bne	.L61
 862              	.L59:
 863              		.loc 1 342 5 view .LVU311
 864              	.LBB83:
 865              	.LBB84:
 866              		.loc 2 55 20 is_stmt 0 view .LVU312
 867 0054 003090E5 		ldr	r3, [r0]
 868              	.LVL55:
 869              		.loc 2 55 20 view .LVU313
 870              	.LBE84:
 871              	.LBE83:
 872              		.loc 1 347 17 view .LVU314
 873 0058 3C2090E5 		ldr	r2, [r0, #60]
 874              		.loc 1 342 17 view .LVU315
 875 005c 08108CE5 		str	r1, [ip, #8]
 876              		.loc 1 345 5 is_stmt 1 view .LVU316
 877              	.LVL56:
 878              	.LBB86:
 879              	.LBI83:
 880              		.loc 2 52 23 view .LVU317
 881              	.LBB85:
 882              		.loc 2 53 3 view .LVU318
 883              		.loc 2 55 3 view .LVU319
 884              		.loc 2 55 16 is_stmt 0 view .LVU320
 885 0060 003084E5 		str	r3, [r4]
 886              		.loc 2 55 38 view .LVU321
 887 0064 044083E5 		str	r4, [r3, #4]
 888              		.loc 2 56 3 is_stmt 1 view .LVU322
 889              	.LVL57:
 890              		.loc 2 56 3 is_stmt 0 view .LVU323
 891              	.LBE85:
 892              	.LBE86:
 893              		.loc 1 346 5 is_stmt 1 view .LVU324
 894              		.loc 1 346 18 is_stmt 0 view .LVU325
 895 0068 080084E5 		str	r0, [r4, #8]
 896              		.loc 1 347 5 is_stmt 1 view .LVU326
 897              		.loc 1 347 17 is_stmt 0 view .LVU327
 898 006c 0C2084E5 		str	r2, [r4, #12]
 899              		.loc 1 348 5 is_stmt 1 view .LVU328
 900              		.loc 1 348 19 is_stmt 0 view .LVU329
 901 0070 3C4080E5 		str	r4, [r0, #60]
 902              		.loc 1 349 5 is_stmt 1 view .LVU330
 903 0074 FEFFFFEB 		bl	chSchReadyI
 904              	.LVL58:
 905              		.loc 1 349 5 is_stmt 0 view .LVU331
 906              	.LBE82:
 907              		.loc 1 354 1 view .LVU332
 908 0078 0400A0E1 		mov	r0, r4
 909 007c 1080BDE8 		pop	{r4, pc}
 910              	.LVL59:
 911              	.L58:
 912              		.loc 1 352 5 is_stmt 1 view .LVU333
ARM GAS  /tmp/ccxnK9EA.s 			page 17


 913              		.loc 1 352 18 is_stmt 0 view .LVU334
 914 0080 0030A0E3 		mov	r3, #0
 915              		.loc 1 354 1 view .LVU335
 916 0084 0400A0E1 		mov	r0, r4
 917              		.loc 1 352 18 view .LVU336
 918 0088 083084E5 		str	r3, [r4, #8]
 919              		.loc 1 353 3 is_stmt 1 view .LVU337
 920              		.loc 1 354 1 is_stmt 0 view .LVU338
 921 008c 1080BDE8 		pop	{r4, pc}
 922              	.L69:
 923              		.align	2
 924              	.L68:
 925 0090 00000000 		.word	rlist
 926              		.cfi_endproc
 927              	.LFE13:
 928              		.size	chMtxUnlockS, .-chMtxUnlockS
 929              		.section	.text.chMtxUnlockAll,"ax",%progbits
 930              		.align	2
 931              		.global	chMtxUnlockAll
 932              		.syntax unified
 933              		.arm
 934              		.fpu softvfp
 935              		.type	chMtxUnlockAll, %function
 936              	chMtxUnlockAll:
 937              	.LFB14:
 938              		.loc 1 367 27 is_stmt 1 view -0
 939              		.cfi_startproc
 940              		@ args = 0, pretend = 0, frame = 0
 941              		@ frame_needed = 0, uses_anonymous_args = 0
 942              		.loc 1 368 3 view .LVU340
 943              		.loc 1 368 11 is_stmt 0 view .LVU341
 944 0000 70309FE5 		ldr	r3, .L80
 945              		.loc 1 367 27 view .LVU342
 946 0004 70402DE9 		push	{r4, r5, r6, lr}
 947              		.cfi_def_cfa_offset 16
 948              		.cfi_offset 4, -16
 949              		.cfi_offset 5, -12
 950              		.cfi_offset 6, -8
 951              		.cfi_offset 14, -4
 952              		.loc 1 368 11 view .LVU343
 953 0008 184093E5 		ldr	r4, [r3, #24]
 954              	.LVL60:
 955              		.loc 1 370 3 is_stmt 1 view .LVU344
 956              		.syntax divided
 957              	@ 370 "../../os/kernel/src/chmtx.c" 1
 958 000c 9FF021E3 		msr     CPSR_c, #0x9F
 959              	@ 0 "" 2
 960              		.loc 1 370 3 view .LVU345
 961              		.loc 1 370 14 view .LVU346
 962              		.loc 1 371 3 view .LVU347
 963              		.loc 1 371 10 is_stmt 0 view .LVU348
 964              		.arm
 965              		.syntax unified
 966 0010 3C3094E5 		ldr	r3, [r4, #60]
 967              		.loc 1 371 6 view .LVU349
 968 0014 000053E3 		cmp	r3, #0
 969 0018 1400000A 		beq	.L71
ARM GAS  /tmp/ccxnK9EA.s 			page 18


 970              	.LBB87:
 971              		.loc 1 383 22 view .LVU350
 972 001c 0050A0E3 		mov	r5, #0
 973              	.L74:
 974              		.loc 1 383 22 view .LVU351
 975              	.LBE87:
 976              		.loc 1 372 5 is_stmt 1 view .LVU352
 977              	.LBB97:
 978              		.loc 1 373 7 view .LVU353
 979              	.LVL61:
 980              		.loc 1 374 7 view .LVU354
 981              	.LBB88:
 982              		.loc 1 376 9 view .LVU355
 983              	.LBB89:
 984              	.LBI89:
 985              		.loc 2 52 23 view .LVU356
 986              	.LBB90:
 987              		.loc 2 53 3 view .LVU357
 988              	.LBE90:
 989              	.LBE89:
 990              	.LBE88:
 991              		.loc 1 383 9 view .LVU358
 992              		.loc 1 375 11 is_stmt 0 view .LVU359
 993 0020 000093E5 		ldr	r0, [r3]
 994              	.LVL62:
 995              	.LBB95:
 996              	.LBB93:
 997              	.LBB91:
 998              		.loc 2 55 3 is_stmt 1 view .LVU360
 999              	.LBE91:
 1000              	.LBE93:
 1001              	.LBE95:
 1002              		.loc 1 374 27 is_stmt 0 view .LVU361
 1003 0024 0C2093E5 		ldr	r2, [r3, #12]
 1004              		.loc 1 375 10 view .LVU362
 1005 0028 030050E1 		cmp	r0, r3
 1006              		.loc 1 374 22 view .LVU363
 1007 002c 3C2084E5 		str	r2, [r4, #60]
 1008              	.LVL63:
 1009              		.loc 1 375 7 is_stmt 1 view .LVU364
 1010              		.loc 1 383 22 is_stmt 0 view .LVU365
 1011 0030 08508305 		streq	r5, [r3, #8]
 1012 0034 0230A001 		moveq	r3, r2
 1013              	.LVL64:
 1014              		.loc 1 375 10 view .LVU366
 1015 0038 0700000A 		beq	.L73
 1016              	.LBB96:
 1017              		.loc 1 378 21 view .LVU367
 1018 003c 3C1090E5 		ldr	r1, [r0, #60]
 1019              	.LBB94:
 1020              	.LBB92:
 1021              		.loc 2 55 20 view .LVU368
 1022 0040 002090E5 		ldr	r2, [r0]
 1023              		.loc 2 55 16 view .LVU369
 1024 0044 002083E5 		str	r2, [r3]
 1025              		.loc 2 55 38 view .LVU370
 1026 0048 043082E5 		str	r3, [r2, #4]
ARM GAS  /tmp/ccxnK9EA.s 			page 19


 1027              		.loc 2 56 3 is_stmt 1 view .LVU371
 1028              	.LVL65:
 1029              		.loc 2 56 3 is_stmt 0 view .LVU372
 1030              	.LBE92:
 1031              	.LBE94:
 1032              		.loc 1 377 9 is_stmt 1 view .LVU373
 1033              		.loc 1 378 21 is_stmt 0 view .LVU374
 1034 004c F800C3E1 		strd	r0, [r3, #8]
 1035              		.loc 1 379 9 is_stmt 1 view .LVU375
 1036              		.loc 1 379 23 is_stmt 0 view .LVU376
 1037 0050 3C3080E5 		str	r3, [r0, #60]
 1038              		.loc 1 380 9 is_stmt 1 view .LVU377
 1039 0054 FEFFFFEB 		bl	chSchReadyI
 1040              	.LVL66:
 1041              		.loc 1 380 9 is_stmt 0 view .LVU378
 1042              	.LBE96:
 1043              	.LBE97:
 1044              		.loc 1 384 17 view .LVU379
 1045 0058 3C3094E5 		ldr	r3, [r4, #60]
 1046              	.L73:
 1047              		.loc 1 384 29 is_stmt 1 view .LVU380
 1048 005c 000053E3 		cmp	r3, #0
 1049 0060 EEFFFF1A 		bne	.L74
 1050              		.loc 1 385 5 view .LVU381
 1051              		.loc 1 385 17 is_stmt 0 view .LVU382
 1052 0064 403094E5 		ldr	r3, [r4, #64]
 1053 0068 083084E5 		str	r3, [r4, #8]
 1054              		.loc 1 386 5 is_stmt 1 view .LVU383
 1055 006c FEFFFFEB 		bl	chSchRescheduleS
 1056              	.LVL67:
 1057              	.L71:
 1058              		.loc 1 388 3 view .LVU384
 1059              		.loc 1 388 3 view .LVU385
 1060              		.syntax divided
 1061              	@ 388 "../../os/kernel/src/chmtx.c" 1
 1062 0070 1FF021E3 		msr     CPSR_c, #0x1F
 1063              	@ 0 "" 2
 1064              		.loc 1 388 16 view .LVU386
 1065              		.loc 1 389 1 is_stmt 0 view .LVU387
 1066              		.arm
 1067              		.syntax unified
 1068 0074 7080BDE8 		pop	{r4, r5, r6, pc}
 1069              	.L81:
 1070              		.align	2
 1071              	.L80:
 1072 0078 00000000 		.word	rlist
 1073              		.cfi_endproc
 1074              	.LFE14:
 1075              		.size	chMtxUnlockAll, .-chMtxUnlockAll
 1076              		.text
 1077              	.Letext0:
 1078              		.file 3 "/usr/arm-none-eabi/include/machine/_default_types.h"
 1079              		.file 4 "/usr/arm-none-eabi/include/sys/_stdint.h"
 1080              		.file 5 "../../os/ports/GCC/ARM/chtypes.h"
 1081              		.file 6 "../../os/kernel/include/chlists.h"
 1082              		.file 7 "../../os/kernel/include/chthreads.h"
 1083              		.file 8 "../../os/ports/GCC/ARM/chcore.h"
ARM GAS  /tmp/ccxnK9EA.s 			page 20


 1084              		.file 9 "../../os/kernel/include/chschd.h"
 1085              		.file 10 "../../os/kernel/include/chmtx.h"