ARM GAS  /tmp/ccxnK9EA.s 			page 1


   1              		.cpu arm1176jz-s
   2              		.eabi_attribute 20, 1
   3              		.eabi_attribute 21, 1
   4              		.eabi_attribute 23, 3
   5              		.eabi_attribute 24, 1
   6              		.eabi_attribute 25, 1
   7              		.eabi_attribute 26, 1
   8              		.eabi_attribute 30, 2
   9              		.eabi_attribute 34, 1
  10              		.eabi_attribute 18, 4
  11              		.file	"chmtx.c"
  12              		.text
  13              	.Ltext0:
  14              		.cfi_sections	.debug_frame
  15              		.section	.text.chMtxInit,"ax",%progbits
  16              		.align	2
  17              		.global	chMtxInit
  18              		.arch armv6kz
  19              		.syntax unified
  20              		.arm
  21              		.fpu softvfp
  22              		.type	chMtxInit, %function
  23              	chMtxInit:
  24              	.LVL0:
  25              	.LFB7:
  26              		.file 1 "../../os/kernel/src/chmtx.c"
  27              		.loc 1 79 27 view -0
  28              		.cfi_startproc
  29              		@ args = 0, pretend = 0, frame = 0
  30              		@ frame_needed = 0, uses_anonymous_args = 0
  31              		@ link register save eliminated.
  32              		.loc 1 81 3 view .LVU1
  33              		.loc 1 81 38 view .LVU2
  34              		.loc 1 83 3 view .LVU3
  35              		.loc 1 84 15 is_stmt 0 view .LVU4
  36 0000 0030A0E3 		mov	r3, #0
  37              		.loc 1 83 3 view .LVU5
  38 0004 040080E5 		str	r0, [r0, #4]
  39 0008 000080E5 		str	r0, [r0]
  40              		.loc 1 83 27 is_stmt 1 view .LVU6
  41              		.loc 1 84 3 view .LVU7
  42              		.loc 1 84 15 is_stmt 0 view .LVU8
  43 000c 083080E5 		str	r3, [r0, #8]
  44              		.loc 1 85 1 view .LVU9
  45 0010 1EFF2FE1 		bx	lr
  46              		.cfi_endproc
  47              	.LFE7:
  48              		.size	chMtxInit, .-chMtxInit
  49              		.section	.text.chMtxLockS,"ax",%progbits
  50              		.align	2
  51              		.global	chMtxLockS
  52              		.syntax unified
  53              		.arm
  54              		.fpu softvfp
  55              		.type	chMtxLockS, %function
  56              	chMtxLockS:
  57              	.LVL1:
ARM GAS  /tmp/ccxnK9EA.s 			page 2


  58              	.LFB9:
  59              		.loc 1 114 28 is_stmt 1 view -0
  60              		.cfi_startproc
  61              		@ args = 0, pretend = 0, frame = 0
  62              		@ frame_needed = 0, uses_anonymous_args = 0
  63              		.loc 1 115 3 view .LVU11
  64              		.loc 1 114 28 is_stmt 0 view .LVU12
  65 0000 70402DE9 		push	{r4, r5, r6, lr}
  66              		.cfi_def_cfa_offset 16
  67              		.cfi_offset 4, -16
  68              		.cfi_offset 5, -12
  69              		.cfi_offset 6, -8
  70              		.cfi_offset 14, -4
  71              		.loc 1 114 28 view .LVU13
  72 0004 0050A0E1 		mov	r5, r0
  73              		.loc 1 121 9 view .LVU14
  74 0008 080090E5 		ldr	r0, [r0, #8]
  75              	.LVL2:
  76              		.loc 1 115 11 view .LVU15
  77 000c 64319FE5 		ldr	r3, .L30
  78              		.loc 1 121 6 view .LVU16
  79 0010 000050E3 		cmp	r0, #0
  80              		.loc 1 115 11 view .LVU17
  81 0014 184093E5 		ldr	r4, [r3, #24]
  82              	.LVL3:
  83              		.loc 1 117 3 is_stmt 1 view .LVU18
  84              		.loc 1 117 21 view .LVU19
  85              		.loc 1 118 3 view .LVU20
  86              		.loc 1 118 39 view .LVU21
  87              		.loc 1 121 3 view .LVU22
  88              		.loc 1 121 6 is_stmt 0 view .LVU23
  89 0018 1E00000A 		beq	.L25
  90              	.LVL4:
  91              	.LBB34:
  92              		.loc 1 128 23 is_stmt 1 view .LVU24
  93              		.loc 1 128 28 is_stmt 0 view .LVU25
  94 001c 082094E5 		ldr	r2, [r4, #8]
  95              		.loc 1 128 23 view .LVU26
  96 0020 083090E5 		ldr	r3, [r0, #8]
  97 0024 020053E1 		cmp	r3, r2
  98 0028 0700002A 		bcs	.L9
  99              	.L12:
 100              		.loc 1 130 7 is_stmt 1 view .LVU27
 101              		.loc 1 132 17 is_stmt 0 view .LVU28
 102 002c 1C30D0E5 		ldrb	r3, [r0, #28]	@ zero_extendqisi2
 103              		.loc 1 130 18 view .LVU29
 104 0030 082080E5 		str	r2, [r0, #8]
 105              		.loc 1 132 7 is_stmt 1 view .LVU30
 106 0034 040053E3 		cmp	r3, #4
 107 0038 3500000A 		beq	.L6
 108              		.loc 1 132 7 is_stmt 0 view .LVU31
 109 003c 050053E3 		cmp	r3, #5
 110 0040 1F00000A 		beq	.L7
 111 0044 000053E3 		cmp	r3, #0
 112 0048 1700000A 		beq	.L26
 113              	.LVL5:
 114              	.L9:
ARM GAS  /tmp/ccxnK9EA.s 			page 3


 115              		.loc 1 166 5 is_stmt 1 view .LVU32
 116              	.LBB35:
 117              	.LBI35:
 118              		.file 2 "../../os/kernel/include/chinline.h"
 119              		.loc 2 34 20 view .LVU33
 120              	.LBB36:
 121              		.loc 2 36 3 view .LVU34
 122              		.loc 2 36 11 is_stmt 0 view .LVU35
 123 004c 0530A0E1 		mov	r3, r5
 124 0050 030000EA 		b	.L17
 125              	.LVL6:
 126              	.L27:
 127              		.loc 2 39 34 view .LVU36
 128 0054 081093E5 		ldr	r1, [r3, #8]
 129 0058 082094E5 		ldr	r2, [r4, #8]
 130 005c 020051E1 		cmp	r1, r2
 131 0060 0200003A 		bcc	.L16
 132              	.L17:
 133              		.loc 2 37 3 is_stmt 1 view .LVU37
 134              		.loc 2 38 5 view .LVU38
 135              		.loc 2 38 8 is_stmt 0 view .LVU39
 136 0064 003093E5 		ldr	r3, [r3]
 137              	.LVL7:
 138              		.loc 2 39 34 is_stmt 1 view .LVU40
 139 0068 030055E1 		cmp	r5, r3
 140 006c F8FFFF1A 		bne	.L27
 141              	.L16:
 142              		.loc 2 40 3 view .LVU41
 143              		.loc 2 41 18 is_stmt 0 view .LVU42
 144 0070 042093E5 		ldr	r2, [r3, #4]
 145              		.loc 2 40 14 view .LVU43
 146 0074 003084E5 		str	r3, [r4]
 147              		.loc 2 41 3 is_stmt 1 view .LVU44
 148              		.loc 2 41 14 is_stmt 0 view .LVU45
 149 0078 042084E5 		str	r2, [r4, #4]
 150              		.loc 2 42 3 is_stmt 1 view .LVU46
 151              		.loc 2 42 35 is_stmt 0 view .LVU47
 152 007c 044083E5 		str	r4, [r3, #4]
 153              		.loc 2 42 22 view .LVU48
 154 0080 043094E5 		ldr	r3, [r4, #4]
 155              	.LVL8:
 156              		.loc 2 42 22 view .LVU49
 157              	.LBE36:
 158              	.LBE35:
 159              		.loc 1 168 5 view .LVU50
 160 0084 0400A0E3 		mov	r0, #4
 161              	.LBB38:
 162              	.LBB37:
 163              		.loc 2 42 22 view .LVU51
 164 0088 004083E5 		str	r4, [r3]
 165              	.LVL9:
 166              		.loc 2 42 22 view .LVU52
 167              	.LBE37:
 168              	.LBE38:
 169              		.loc 1 167 5 is_stmt 1 view .LVU53
 170              		.loc 1 167 21 is_stmt 0 view .LVU54
 171 008c 245084E5 		str	r5, [r4, #36]
ARM GAS  /tmp/ccxnK9EA.s 			page 4


 172              		.loc 1 168 5 is_stmt 1 view .LVU55
 173              	.LBE34:
 174              		.loc 1 180 1 is_stmt 0 view .LVU56
 175 0090 7040BDE8 		pop	{r4, r5, r6, lr}
 176              		.cfi_remember_state
 177              		.cfi_restore 14
 178              		.cfi_restore 6
 179              		.cfi_restore 5
 180              		.cfi_restore 4
 181              		.cfi_def_cfa_offset 0
 182              	.LVL10:
 183              	.LBB57:
 184              		.loc 1 168 5 view .LVU57
 185 0094 FEFFFFEA 		b	chSchGoSleepS
 186              	.LVL11:
 187              	.L25:
 188              		.cfi_restore_state
 189              		.loc 1 168 5 view .LVU58
 190              	.LBE57:
 191              		.loc 1 176 5 is_stmt 1 view .LVU59
 192              		.loc 1 177 16 is_stmt 0 view .LVU60
 193 0098 3C3094E5 		ldr	r3, [r4, #60]
 194              		.loc 1 176 17 view .LVU61
 195 009c 084085E5 		str	r4, [r5, #8]
 196              		.loc 1 177 5 is_stmt 1 view .LVU62
 197              		.loc 1 177 16 is_stmt 0 view .LVU63
 198 00a0 0C3085E5 		str	r3, [r5, #12]
 199              		.loc 1 178 5 is_stmt 1 view .LVU64
 200              		.loc 1 178 20 is_stmt 0 view .LVU65
 201 00a4 3C5084E5 		str	r5, [r4, #60]
 202              		.loc 1 180 1 view .LVU66
 203 00a8 7080BDE8 		pop	{r4, r5, r6, pc}
 204              	.LVL12:
 205              	.L26:
 206              	.LBB58:
 207              		.loc 1 160 9 is_stmt 1 view .LVU67
 208              	.LBB39:
 209              	.LBI39:
 210              		.loc 2 66 23 view .LVU68
 211              	.LBB40:
 212              		.loc 2 68 3 view .LVU69
 213              		.loc 2 68 5 is_stmt 0 view .LVU70
 214 00ac 042090E5 		ldr	r2, [r0, #4]
 215              		.loc 2 68 26 view .LVU71
 216 00b0 003090E5 		ldr	r3, [r0]
 217              		.loc 2 68 22 view .LVU72
 218 00b4 003082E5 		str	r3, [r2]
 219              		.loc 2 69 3 is_stmt 1 view .LVU73
 220              		.loc 2 69 22 is_stmt 0 view .LVU74
 221 00b8 042083E5 		str	r2, [r3, #4]
 222              		.loc 2 70 3 is_stmt 1 view .LVU75
 223              	.LVL13:
 224              		.loc 2 70 3 is_stmt 0 view .LVU76
 225              	.LBE40:
 226              	.LBE39:
 227              		.loc 1 160 9 view .LVU77
 228 00bc FEFFFFEB 		bl	chSchReadyI
ARM GAS  /tmp/ccxnK9EA.s 			page 5


 229              	.LVL14:
 230              		.loc 1 161 9 is_stmt 1 view .LVU78
 231 00c0 E1FFFFEA 		b	.L9
 232              	.LVL15:
 233              	.L7:
 234              		.loc 1 151 9 view .LVU79
 235              	.LBB41:
 236              	.LBI41:
 237              		.loc 2 66 23 view .LVU80
 238              	.LBB42:
 239              		.loc 2 68 3 view .LVU81
 240              	.LBE42:
 241              	.LBE41:
 242              		.loc 1 151 57 is_stmt 0 view .LVU82
 243 00c4 24C090E5 		ldr	ip, [r0, #36]
 244              	.LBB44:
 245              	.LBB43:
 246              		.loc 2 68 26 view .LVU83
 247 00c8 003090E5 		ldr	r3, [r0]
 248              		.loc 2 68 5 view .LVU84
 249 00cc 041090E5 		ldr	r1, [r0, #4]
 250              		.loc 2 68 22 view .LVU85
 251 00d0 003081E5 		str	r3, [r1]
 252              		.loc 2 69 3 is_stmt 1 view .LVU86
 253              		.loc 2 69 22 is_stmt 0 view .LVU87
 254 00d4 041083E5 		str	r1, [r3, #4]
 255              		.loc 2 70 3 is_stmt 1 view .LVU88
 256              	.LVL16:
 257              		.loc 2 70 3 is_stmt 0 view .LVU89
 258              	.LBE43:
 259              	.LBE44:
 260              	.LBB45:
 261              	.LBI45:
 262              		.loc 2 34 20 is_stmt 1 view .LVU90
 263              	.LBB46:
 264              		.loc 2 36 3 view .LVU91
 265              		.loc 2 36 11 is_stmt 0 view .LVU92
 266 00d8 0C30A0E1 		mov	r3, ip
 267 00dc 020000EA 		b	.L14
 268              	.LVL17:
 269              	.L28:
 270              		.loc 2 39 34 view .LVU93
 271 00e0 081093E5 		ldr	r1, [r3, #8]
 272 00e4 010052E1 		cmp	r2, r1
 273 00e8 0200008A 		bhi	.L13
 274              	.L14:
 275              		.loc 2 37 3 is_stmt 1 view .LVU94
 276              		.loc 2 38 5 view .LVU95
 277              		.loc 2 38 8 is_stmt 0 view .LVU96
 278 00ec 003093E5 		ldr	r3, [r3]
 279              	.LVL18:
 280              		.loc 2 39 34 is_stmt 1 view .LVU97
 281 00f0 03005CE1 		cmp	ip, r3
 282 00f4 F9FFFF1A 		bne	.L28
 283              	.L13:
 284              		.loc 2 40 3 view .LVU98
 285              		.loc 2 41 18 is_stmt 0 view .LVU99
ARM GAS  /tmp/ccxnK9EA.s 			page 6


 286 00f8 042093E5 		ldr	r2, [r3, #4]
 287              		.loc 2 40 14 view .LVU100
 288 00fc 003080E5 		str	r3, [r0]
 289              		.loc 2 41 3 is_stmt 1 view .LVU101
 290              		.loc 2 41 14 is_stmt 0 view .LVU102
 291 0100 042080E5 		str	r2, [r0, #4]
 292              		.loc 2 42 3 is_stmt 1 view .LVU103
 293              		.loc 2 42 35 is_stmt 0 view .LVU104
 294 0104 040083E5 		str	r0, [r3, #4]
 295              		.loc 2 42 22 view .LVU105
 296 0108 043090E5 		ldr	r3, [r0, #4]
 297              	.LVL19:
 298              		.loc 2 42 22 view .LVU106
 299 010c 000083E5 		str	r0, [r3]
 300              	.LVL20:
 301              		.loc 2 43 1 view .LVU107
 302 0110 CDFFFFEA 		b	.L9
 303              	.LVL21:
 304              	.L6:
 305              		.loc 2 43 1 view .LVU108
 306              	.LBE46:
 307              	.LBE45:
 308              		.loc 1 135 9 is_stmt 1 view .LVU109
 309              	.LBB47:
 310              	.LBI47:
 311              		.loc 2 66 23 view .LVU110
 312              	.LBB48:
 313              		.loc 2 68 3 view .LVU111
 314              	.LBE48:
 315              	.LBE47:
 316              		.loc 1 135 57 is_stmt 0 view .LVU112
 317 0114 24C090E5 		ldr	ip, [r0, #36]
 318              	.LBB50:
 319              	.LBB49:
 320              		.loc 2 68 26 view .LVU113
 321 0118 003090E5 		ldr	r3, [r0]
 322              		.loc 2 68 5 view .LVU114
 323 011c 041090E5 		ldr	r1, [r0, #4]
 324              		.loc 2 68 22 view .LVU115
 325 0120 003081E5 		str	r3, [r1]
 326              		.loc 2 69 3 is_stmt 1 view .LVU116
 327              		.loc 2 69 22 is_stmt 0 view .LVU117
 328 0124 041083E5 		str	r1, [r3, #4]
 329              		.loc 2 70 3 is_stmt 1 view .LVU118
 330              	.LVL22:
 331              		.loc 2 70 3 is_stmt 0 view .LVU119
 332              	.LBE49:
 333              	.LBE50:
 334              	.LBB51:
 335              	.LBI51:
 336              		.loc 2 34 20 is_stmt 1 view .LVU120
 337              	.LBB52:
 338              		.loc 2 36 3 view .LVU121
 339              		.loc 2 36 3 is_stmt 0 view .LVU122
 340              	.LBE52:
 341              	.LBE51:
 342              		.loc 1 135 57 view .LVU123
ARM GAS  /tmp/ccxnK9EA.s 			page 7


 343 0128 0C30A0E1 		mov	r3, ip
 344 012c 020000EA 		b	.L11
 345              	.LVL23:
 346              	.L29:
 347              	.LBB55:
 348              	.LBB53:
 349              		.loc 2 39 34 view .LVU124
 350 0130 081093E5 		ldr	r1, [r3, #8]
 351 0134 010052E1 		cmp	r2, r1
 352 0138 0200008A 		bhi	.L10
 353              	.L11:
 354              		.loc 2 37 3 is_stmt 1 view .LVU125
 355              		.loc 2 38 5 view .LVU126
 356              		.loc 2 38 8 is_stmt 0 view .LVU127
 357 013c 003093E5 		ldr	r3, [r3]
 358              	.LVL24:
 359              		.loc 2 39 34 is_stmt 1 view .LVU128
 360 0140 03005CE1 		cmp	ip, r3
 361 0144 F9FFFF1A 		bne	.L29
 362              	.L10:
 363              		.loc 2 40 3 view .LVU129
 364              		.loc 2 41 18 is_stmt 0 view .LVU130
 365 0148 042093E5 		ldr	r2, [r3, #4]
 366              		.loc 2 40 14 view .LVU131
 367 014c 003080E5 		str	r3, [r0]
 368              		.loc 2 41 3 is_stmt 1 view .LVU132
 369              		.loc 2 41 14 is_stmt 0 view .LVU133
 370 0150 042080E5 		str	r2, [r0, #4]
 371              		.loc 2 42 3 is_stmt 1 view .LVU134
 372              		.loc 2 42 35 is_stmt 0 view .LVU135
 373 0154 040083E5 		str	r0, [r3, #4]
 374              		.loc 2 42 22 view .LVU136
 375 0158 043090E5 		ldr	r3, [r0, #4]
 376              	.LVL25:
 377              		.loc 2 42 22 view .LVU137
 378              	.LBE53:
 379              	.LBE55:
 380              		.loc 1 128 28 view .LVU138
 381 015c 082094E5 		ldr	r2, [r4, #8]
 382              	.LBB56:
 383              	.LBB54:
 384              		.loc 2 42 22 view .LVU139
 385 0160 000083E5 		str	r0, [r3]
 386              	.LVL26:
 387              		.loc 2 42 22 view .LVU140
 388              	.LBE54:
 389              	.LBE56:
 390              		.loc 1 136 9 is_stmt 1 view .LVU141
 391              		.loc 1 136 12 is_stmt 0 view .LVU142
 392 0164 08009CE5 		ldr	r0, [ip, #8]
 393              	.LVL27:
 394              		.loc 1 137 9 is_stmt 1 view .LVU143
 395              		.loc 1 128 23 view .LVU144
 396 0168 083090E5 		ldr	r3, [r0, #8]
 397 016c 020053E1 		cmp	r3, r2
 398 0170 ADFFFF3A 		bcc	.L12
 399 0174 B4FFFFEA 		b	.L9
ARM GAS  /tmp/ccxnK9EA.s 			page 8


 400              	.L31:
 401              		.align	2
 402              	.L30:
 403 0178 00000000 		.word	rlist
 404              	.LBE58:
 405              		.cfi_endproc
 406              	.LFE9:
 407              		.size	chMtxLockS, .-chMtxLockS
 408              		.section	.text.chMtxLock,"ax",%progbits
 409              		.align	2
 410              		.global	chMtxLock
 411              		.syntax unified
 412              		.arm
 413              		.fpu softvfp
 414              		.type	chMtxLock, %function
 415              	chMtxLock:
 416              	.LVL28:
 417              	.LFB8:
 418              		.loc 1 96 27 view -0
 419              		.cfi_startproc
 420              		@ args = 0, pretend = 0, frame = 0
 421              		@ frame_needed = 0, uses_anonymous_args = 0
 422              		.loc 1 98 3 view .LVU146
 423              		.loc 1 96 27 is_stmt 0 view .LVU147
 424 0000 10402DE9 		push	{r4, lr}
 425              		.cfi_def_cfa_offset 8
 426              		.cfi_offset 4, -8
 427              		.cfi_offset 14, -4
 428              		.loc 1 98 3 view .LVU148
 429              		.syntax divided
 430              	@ 98 "../../os/kernel/src/chmtx.c" 1
 431 0004 9FF021E3 		msr     CPSR_c, #0x9F
 432              	@ 0 "" 2
 433              		.loc 1 98 3 is_stmt 1 view .LVU149
 434              		.loc 1 98 14 view .LVU150
 435              		.loc 1 100 3 view .LVU151
 436              		.arm
 437              		.syntax unified
 438 0008 FEFFFFEB 		bl	chMtxLockS
 439              	.LVL29:
 440              		.loc 1 102 3 view .LVU152
 441              		.loc 1 102 3 view .LVU153
 442              		.syntax divided
 443              	@ 102 "../../os/kernel/src/chmtx.c" 1
 444 000c 1FF021E3 		msr     CPSR_c, #0x1F
 445              	@ 0 "" 2
 446              		.loc 1 102 16 view .LVU154
 447              		.loc 1 103 1 is_stmt 0 view .LVU155
 448              		.arm
 449              		.syntax unified
 450 0010 1080BDE8 		pop	{r4, pc}
 451              		.cfi_endproc
 452              	.LFE8:
 453              		.size	chMtxLock, .-chMtxLock
 454              		.section	.text.chMtxTryLock,"ax",%progbits
 455              		.align	2
 456              		.global	chMtxTryLock
ARM GAS  /tmp/ccxnK9EA.s 			page 9


 457              		.syntax unified
 458              		.arm
 459              		.fpu softvfp
 460              		.type	chMtxTryLock, %function
 461              	chMtxTryLock:
 462              	.LVL30:
 463              	.LFB10:
 464              		.loc 1 199 32 is_stmt 1 view -0
 465              		.cfi_startproc
 466              		@ args = 0, pretend = 0, frame = 0
 467              		@ frame_needed = 0, uses_anonymous_args = 0
 468              		@ link register save eliminated.
 469              		.loc 1 200 3 view .LVU157
 470              		.loc 1 202 3 view .LVU158
 471              		.loc 1 199 32 is_stmt 0 view .LVU159
 472 0000 0030A0E1 		mov	r3, r0
 473              		.loc 1 202 3 view .LVU160
 474              		.syntax divided
 475              	@ 202 "../../os/kernel/src/chmtx.c" 1
 476 0004 9FF021E3 		msr     CPSR_c, #0x9F
 477              	@ 0 "" 2
 478              		.loc 1 202 3 is_stmt 1 view .LVU161
 479              		.loc 1 202 14 view .LVU162
 480              		.loc 1 204 3 view .LVU163
 481              	.LVL31:
 482              		.arm
 483              		.syntax unified
 484              	.LBB63:
 485              	.LBI63:
 486              		.loc 1 227 8 view .LVU164
 487              	.LBB64:
 488              		.loc 1 229 3 view .LVU165
 489              		.loc 1 229 21 view .LVU166
 490              		.loc 1 230 3 view .LVU167
 491              		.loc 1 230 42 view .LVU168
 492              		.loc 1 232 3 view .LVU169
 493              		.loc 1 232 6 is_stmt 0 view .LVU170
 494 0008 082090E5 		ldr	r2, [r0, #8]
 495 000c 000052E3 		cmp	r2, #0
 496              	.LVL32:
 497              	.LBB65:
 498              	.LBI65:
 499              		.loc 1 227 8 is_stmt 1 view .LVU171
 500              	.LBB66:
 501              		.loc 1 234 3 view .LVU172
 502              		.loc 1 234 17 is_stmt 0 view .LVU173
 503 0010 20209F05 		ldreq	r2, .L37
 504              		.loc 1 236 20 view .LVU174
 505 0014 0100A003 		moveq	r0, #1
 506              	.LVL33:
 507              		.loc 1 234 17 view .LVU175
 508 0018 18209205 		ldreq	r2, [r2, #24]
 509              	.LBE66:
 510              	.LBE65:
 511              		.loc 1 233 12 view .LVU176
 512 001c 0000A013 		movne	r0, #0
 513              	.LBB68:
ARM GAS  /tmp/ccxnK9EA.s 			page 10


 514              	.LBB67:
 515              		.loc 1 235 14 view .LVU177
 516 0020 3C109205 		ldreq	r1, [r2, #60]
 517              		.loc 1 234 15 view .LVU178
 518 0024 08208305 		streq	r2, [r3, #8]
 519              		.loc 1 235 3 is_stmt 1 view .LVU179
 520              		.loc 1 235 14 is_stmt 0 view .LVU180
 521 0028 0C108305 		streq	r1, [r3, #12]
 522              		.loc 1 236 3 is_stmt 1 view .LVU181
 523              		.loc 1 236 20 is_stmt 0 view .LVU182
 524 002c 3C308205 		streq	r3, [r2, #60]
 525              		.loc 1 237 3 is_stmt 1 view .LVU183
 526              	.LVL34:
 527              		.loc 1 237 3 is_stmt 0 view .LVU184
 528              	.LBE67:
 529              	.LBE68:
 530              	.LBE64:
 531              	.LBE63:
 532              		.loc 1 206 3 is_stmt 1 view .LVU185
 533              		.loc 1 206 3 view .LVU186
 534              		.syntax divided
 535              	@ 206 "../../os/kernel/src/chmtx.c" 1
 536 0030 1FF021E3 		msr     CPSR_c, #0x1F
 537              	@ 0 "" 2
 538              		.loc 1 206 16 view .LVU187
 539              		.loc 1 207 3 view .LVU188
 540              		.loc 1 208 1 is_stmt 0 view .LVU189
 541              		.arm
 542              		.syntax unified
 543 0034 1EFF2FE1 		bx	lr
 544              	.L38:
 545              		.align	2
 546              	.L37:
 547 0038 00000000 		.word	rlist
 548              		.cfi_endproc
 549              	.LFE10:
 550              		.size	chMtxTryLock, .-chMtxTryLock
 551              		.section	.text.chMtxTryLockS,"ax",%progbits
 552              		.align	2
 553              		.global	chMtxTryLockS
 554              		.syntax unified
 555              		.arm
 556              		.fpu softvfp
 557              		.type	chMtxTryLockS, %function
 558              	chMtxTryLockS:
 559              	.LVL35:
 560              	.LFB11:
 561              		.loc 1 227 33 is_stmt 1 view -0
 562              		.cfi_startproc
 563              		@ args = 0, pretend = 0, frame = 0
 564              		@ frame_needed = 0, uses_anonymous_args = 0
 565              		@ link register save eliminated.
 566              		.loc 1 229 3 view .LVU191
 567              		.loc 1 229 21 view .LVU192
 568              		.loc 1 230 3 view .LVU193
 569              		.loc 1 230 42 view .LVU194
 570              		.loc 1 232 3 view .LVU195
ARM GAS  /tmp/ccxnK9EA.s 			page 11


 571              		.loc 1 227 33 is_stmt 0 view .LVU196
 572 0000 0030A0E1 		mov	r3, r0
 573              		.loc 1 232 6 view .LVU197
 574 0004 082090E5 		ldr	r2, [r0, #8]
 575 0008 000052E3 		cmp	r2, #0
 576              	.LVL36:
 577              	.LBB71:
 578              	.LBI71:
 579              		.loc 1 227 8 is_stmt 1 view .LVU198
 580              	.LBB72:
 581              		.loc 1 234 3 view .LVU199
 582              		.loc 1 234 17 is_stmt 0 view .LVU200
 583 000c 1C209F05 		ldreq	r2, .L42
 584              		.loc 1 236 20 view .LVU201
 585 0010 0100A003 		moveq	r0, #1
 586              	.LVL37:
 587              		.loc 1 234 17 view .LVU202
 588 0014 18209205 		ldreq	r2, [r2, #24]
 589              	.LBE72:
 590              	.LBE71:
 591              		.loc 1 233 12 view .LVU203
 592 0018 0000A013 		movne	r0, #0
 593              	.LBB74:
 594              	.LBB73:
 595              		.loc 1 235 14 view .LVU204
 596 001c 3C109205 		ldreq	r1, [r2, #60]
 597              		.loc 1 234 15 view .LVU205
 598 0020 08208305 		streq	r2, [r3, #8]
 599              		.loc 1 235 3 is_stmt 1 view .LVU206
 600              		.loc 1 235 14 is_stmt 0 view .LVU207
 601 0024 0C108305 		streq	r1, [r3, #12]
 602              		.loc 1 236 3 is_stmt 1 view .LVU208
 603              		.loc 1 236 20 is_stmt 0 view .LVU209
 604 0028 3C308205 		streq	r3, [r2, #60]
 605              		.loc 1 237 3 is_stmt 1 view .LVU210
 606              	.LVL38:
 607              		.loc 1 237 3 is_stmt 0 view .LVU211
 608              	.LBE73:
 609              	.LBE74:
 610              		.loc 1 238 1 view .LVU212
 611 002c 1EFF2FE1 		bx	lr
 612              	.L43:
 613              		.align	2
 614              	.L42:
 615 0030 00000000 		.word	rlist
 616              		.cfi_endproc
 617              	.LFE11:
 618              		.size	chMtxTryLockS, .-chMtxTryLockS
 619              		.section	.text.chMtxUnlock,"ax",%progbits
 620              		.align	2
 621              		.global	chMtxUnlock
 622              		.syntax unified
 623              		.arm
 624              		.fpu softvfp
 625              		.type	chMtxUnlock, %function
 626              	chMtxUnlock:
 627              	.LFB12:
ARM GAS  /tmp/ccxnK9EA.s 			page 12


 628              		.loc 1 250 26 is_stmt 1 view -0
 629              		.cfi_startproc
 630              		@ args = 0, pretend = 0, frame = 0
 631              		@ frame_needed = 0, uses_anonymous_args = 0
 632              		.loc 1 251 3 view .LVU214
 633              		.loc 1 251 11 is_stmt 0 view .LVU215
 634 0000 90309FE5 		ldr	r3, .L55
 635              		.loc 1 250 26 view .LVU216
 636 0004 10402DE9 		push	{r4, lr}
 637              		.cfi_def_cfa_offset 8
 638              		.cfi_offset 4, -8
 639              		.cfi_offset 14, -4
 640              		.loc 1 251 11 view .LVU217
 641 0008 18C093E5 		ldr	ip, [r3, #24]
 642              	.LVL39:
 643              		.loc 1 252 3 is_stmt 1 view .LVU218
 644              		.loc 1 254 3 view .LVU219
 645              		.syntax divided
 646              	@ 254 "../../os/kernel/src/chmtx.c" 1
 647 000c 9FF021E3 		msr     CPSR_c, #0x9F
 648              	@ 0 "" 2
 649              		.loc 1 254 3 view .LVU220
 650              		.loc 1 254 14 view .LVU221
 651              		.loc 1 255 3 view .LVU222
 652              		.arm
 653              		.syntax unified
 654 0010 3C409CE5 		ldr	r4, [ip, #60]
 655              		.loc 1 257 42 view .LVU223
 656              		.loc 1 258 3 view .LVU224
 657              		.loc 1 260 35 view .LVU225
 658              		.loc 1 263 3 view .LVU226
 659              	.LVL40:
 660              		.loc 1 264 3 view .LVU227
 661              		.loc 1 266 7 is_stmt 0 view .LVU228
 662 0014 000094E5 		ldr	r0, [r4]
 663              		.loc 1 264 23 view .LVU229
 664 0018 0C3094E5 		ldr	r3, [r4, #12]
 665              		.loc 1 266 6 view .LVU230
 666 001c 040050E1 		cmp	r0, r4
 667              		.loc 1 264 18 view .LVU231
 668 0020 3C308CE5 		str	r3, [ip, #60]
 669              		.loc 1 266 3 is_stmt 1 view .LVU232
 670              		.loc 1 266 6 is_stmt 0 view .LVU233
 671 0024 1800000A 		beq	.L45
 672              	.LBB75:
 673              		.loc 1 267 5 is_stmt 1 view .LVU234
 674              		.loc 1 271 5 view .LVU235
 675              		.loc 1 273 15 is_stmt 0 view .LVU236
 676 0028 000053E3 		cmp	r3, #0
 677              		.loc 1 271 13 view .LVU237
 678 002c 40109CE5 		ldr	r1, [ip, #64]
 679              	.LVL41:
 680              		.loc 1 272 5 is_stmt 1 view .LVU238
 681              		.loc 1 273 5 view .LVU239
 682              		.loc 1 273 15 view .LVU240
 683 0030 0800000A 		beq	.L46
 684              	.L48:
ARM GAS  /tmp/ccxnK9EA.s 			page 13


 685              		.loc 1 277 7 view .LVU241
 686              		.loc 1 277 11 is_stmt 0 view .LVU242
 687 0034 002093E5 		ldr	r2, [r3]
 688              		.loc 1 277 10 view .LVU243
 689 0038 030052E1 		cmp	r2, r3
 690 003c 0200000A 		beq	.L47
 691              		.loc 1 277 10 view .LVU244
 692 0040 082092E5 		ldr	r2, [r2, #8]
 693 0044 020051E1 		cmp	r1, r2
 694 0048 0210A031 		movcc	r1, r2
 695              	.LVL42:
 696              	.L47:
 697              		.loc 1 279 7 is_stmt 1 view .LVU245
 698              		.loc 1 279 10 is_stmt 0 view .LVU246
 699 004c 0C3093E5 		ldr	r3, [r3, #12]
 700              	.LVL43:
 701              		.loc 1 273 15 is_stmt 1 view .LVU247
 702 0050 000053E3 		cmp	r3, #0
 703 0054 F6FFFF1A 		bne	.L48
 704              	.L46:
 705              		.loc 1 283 5 view .LVU248
 706              	.LBB76:
 707              	.LBB77:
 708              		.loc 2 55 20 is_stmt 0 view .LVU249
 709 0058 003090E5 		ldr	r3, [r0]
 710              	.LVL44:
 711              		.loc 2 55 20 view .LVU250
 712              	.LBE77:
 713              	.LBE76:
 714              		.loc 1 288 17 view .LVU251
 715 005c 3C2090E5 		ldr	r2, [r0, #60]
 716              		.loc 1 283 17 view .LVU252
 717 0060 08108CE5 		str	r1, [ip, #8]
 718              		.loc 1 286 5 is_stmt 1 view .LVU253
 719              	.LVL45:
 720              	.LBB80:
 721              	.LBI76:
 722              		.loc 2 52 23 view .LVU254
 723              	.LBB78:
 724              		.loc 2 53 3 view .LVU255
 725              		.loc 2 55 3 view .LVU256
 726              		.loc 2 55 16 is_stmt 0 view .LVU257
 727 0064 003084E5 		str	r3, [r4]
 728              	.LBE78:
 729              	.LBE80:
 730              		.loc 1 290 5 view .LVU258
 731 0068 0010A0E3 		mov	r1, #0
 732              	.LVL46:
 733              	.LBB81:
 734              	.LBB79:
 735              		.loc 2 55 38 view .LVU259
 736 006c 044083E5 		str	r4, [r3, #4]
 737              		.loc 2 56 3 is_stmt 1 view .LVU260
 738              	.LVL47:
 739              		.loc 2 56 3 is_stmt 0 view .LVU261
 740              	.LBE79:
 741              	.LBE81:
ARM GAS  /tmp/ccxnK9EA.s 			page 14


 742              		.loc 1 287 5 is_stmt 1 view .LVU262
 743              		.loc 1 287 18 is_stmt 0 view .LVU263
 744 0070 080084E5 		str	r0, [r4, #8]
 745              		.loc 1 288 5 is_stmt 1 view .LVU264
 746              		.loc 1 288 17 is_stmt 0 view .LVU265
 747 0074 0C2084E5 		str	r2, [r4, #12]
 748              		.loc 1 289 5 is_stmt 1 view .LVU266
 749              		.loc 1 289 19 is_stmt 0 view .LVU267
 750 0078 3C4080E5 		str	r4, [r0, #60]
 751              		.loc 1 290 5 is_stmt 1 view .LVU268
 752 007c FEFFFFEB 		bl	chSchWakeupS
 753              	.LVL48:
 754              	.L49:
 755              		.loc 1 290 5 is_stmt 0 view .LVU269
 756              	.LBE75:
 757              		.loc 1 294 3 is_stmt 1 view .LVU270
 758              		.loc 1 294 3 view .LVU271
 759              		.syntax divided
 760              	@ 294 "../../os/kernel/src/chmtx.c" 1
 761 0080 1FF021E3 		msr     CPSR_c, #0x1F
 762              	@ 0 "" 2
 763              		.loc 1 294 16 view .LVU272
 764              		.loc 1 295 3 view .LVU273
 765              		.loc 1 296 1 is_stmt 0 view .LVU274
 766              		.arm
 767              		.syntax unified
 768 0084 0400A0E1 		mov	r0, r4
 769 0088 1080BDE8 		pop	{r4, pc}
 770              	.LVL49:
 771              	.L45:
 772              		.loc 1 293 5 is_stmt 1 view .LVU275
 773              		.loc 1 293 18 is_stmt 0 view .LVU276
 774 008c 0030A0E3 		mov	r3, #0
 775 0090 083084E5 		str	r3, [r4, #8]
 776 0094 F9FFFFEA 		b	.L49
 777              	.L56:
 778              		.align	2
 779              	.L55:
 780 0098 00000000 		.word	rlist
 781              		.cfi_endproc
 782              	.LFE12:
 783              		.size	chMtxUnlock, .-chMtxUnlock
 784              		.section	.text.chMtxUnlockS,"ax",%progbits
 785              		.align	2
 786              		.global	chMtxUnlockS
 787              		.syntax unified
 788              		.arm
 789              		.fpu softvfp
 790              		.type	chMtxUnlockS, %function
 791              	chMtxUnlockS:
 792              	.LFB13:
 793              		.loc 1 310 27 is_stmt 1 view -0
 794              		.cfi_startproc
 795              		@ args = 0, pretend = 0, frame = 0
 796              		@ frame_needed = 0, uses_anonymous_args = 0
 797              		.loc 1 311 3 view .LVU278
 798              		.loc 1 311 11 is_stmt 0 view .LVU279
ARM GAS  /tmp/ccxnK9EA.s 			page 15


 799 0000 88309FE5 		ldr	r3, .L68
 800              		.loc 1 310 27 view .LVU280
 801 0004 10402DE9 		push	{r4, lr}
 802              		.cfi_def_cfa_offset 8
 803              		.cfi_offset 4, -8
 804              		.cfi_offset 14, -4
 805              		.loc 1 311 11 view .LVU281
 806 0008 18C093E5 		ldr	ip, [r3, #24]
 807              	.LVL50:
 808              		.loc 1 312 3 is_stmt 1 view .LVU282
 809              		.loc 1 314 3 view .LVU283
 810              		.loc 1 314 21 view .LVU284
 811              		.loc 1 315 3 view .LVU285
 812 000c 3C409CE5 		ldr	r4, [ip, #60]
 813              		.loc 1 317 42 view .LVU286
 814              		.loc 1 318 3 view .LVU287
 815              		.loc 1 320 35 view .LVU288
 816              		.loc 1 324 3 view .LVU289
 817              	.LVL51:
 818              		.loc 1 325 3 view .LVU290
 819              		.loc 1 327 7 is_stmt 0 view .LVU291
 820 0010 000094E5 		ldr	r0, [r4]
 821              		.loc 1 325 23 view .LVU292
 822 0014 0C3094E5 		ldr	r3, [r4, #12]
 823              		.loc 1 327 6 view .LVU293
 824 0018 040050E1 		cmp	r0, r4
 825              		.loc 1 325 18 view .LVU294
 826 001c 3C308CE5 		str	r3, [ip, #60]
 827              		.loc 1 327 3 is_stmt 1 view .LVU295
 828              		.loc 1 327 6 is_stmt 0 view .LVU296
 829 0020 1600000A 		beq	.L58
 830              	.LBB82:
 831              		.loc 1 328 5 is_stmt 1 view .LVU297
 832              		.loc 1 332 5 view .LVU298
 833              		.loc 1 334 15 is_stmt 0 view .LVU299
 834 0024 000053E3 		cmp	r3, #0
 835              		.loc 1 332 13 view .LVU300
 836 0028 40109CE5 		ldr	r1, [ip, #64]
 837              	.LVL52:
 838              		.loc 1 333 5 is_stmt 1 view .LVU301
 839              		.loc 1 334 5 view .LVU302
 840              		.loc 1 334 15 view .LVU303
 841 002c 0800000A 		beq	.L59
 842              	.L61:
 843              		.loc 1 338 7 view .LVU304
 844              		.loc 1 338 11 is_stmt 0 view .LVU305
 845 0030 002093E5 		ldr	r2, [r3]
 846              		.loc 1 338 10 view .LVU306
 847 0034 030052E1 		cmp	r2, r3
 848 0038 0200000A 		beq	.L60
 849              		.loc 1 338 10 view .LVU307
 850 003c 082092E5 		ldr	r2, [r2, #8]
 851 0040 020051E1 		cmp	r1, r2
 852 0044 0210A031 		movcc	r1, r2
 853              	.LVL53:
 854              	.L60:
 855              		.loc 1 340 7 is_stmt 1 view .LVU308
ARM GAS  /tmp/ccxnK9EA.s 			page 16


 856              		.loc 1 340 10 is_stmt 0 view .LVU309
 857 0048 0C3093E5 		ldr	r3, [r3, #12]
 858              	.LVL54:
 859              		.loc 1 334 15 is_stmt 1 view .LVU310
 860 004c 000053E3 		cmp	r3, #0
 861 0050 F6FFFF1A 		bne	.L61
 862              	.L59:
 863              		.loc 1 342 5 view .LVU311
 864              	.LBB83:
 865              	.LBB84:
 866              		.loc 2 55 20 is_stmt 0 view .LVU312
 867 0054 003090E5 		ldr	r3, [r0]
 868              	.LVL55:
 869              		.loc 2 55 20 view .LVU313
 870              	.LBE84:
 871              	.LBE83:
 872              		.loc 1 347 17 view .LVU314
 873 0058 3C2090E5 		ldr	r2, [r0, #60]
 874              		.loc 1 342 17 view .LVU315
 875 005c 08108CE5 		str	r1, [ip, #8]
 876              		.loc 1 345 5 is_stmt 1 view .LVU316
 877              	.LVL56:
 878              	.LBB86:
 879              	.LBI83:
 880              		.loc 2 52 23 view .LVU317
 881              	.LBB85:
 882              		.loc 2 53 3 view .LVU318
 883              		.loc 2 55 3 view .LVU319
 884              		.loc 2 55 16 is_stmt 0 view .LVU320
 885 0060 003084E5 		str	r3, [r4]
 886              		.loc 2 55 38 view .LVU321
 887 0064 044083E5 		str	r4, [r3, #4]
 888              		.loc 2 56 3 is_stmt 1 view .LVU322
 889              	.LVL57:
 890              		.loc 2 56 3 is_stmt 0 view .LVU323
 891              	.LBE85:
 892              	.LBE86:
 893              		.loc 1 346 5 is_stmt 1 view .LVU324
 894              		.loc 1 346 18 is_stmt 0 view .LVU325
 895 0068 080084E5 		str	r0, [r4, #8]
 896              		.loc 1 347 5 is_stmt 1 view .LVU326
 897              		.loc 1 347 17 is_stmt 0 view .LVU327
 898 006c 0C2084E5 		str	r2, [r4, #12]
 899              		.loc 1 348 5 is_stmt 1 view .LVU328
 900              		.loc 1 348 19 is_stmt 0 view .LVU329
 901 0070 3C4080E5 		str	r4, [r0, #60]
 902              		.loc 1 349 5 is_stmt 1 view .LVU330
 903 0074 FEFFFFEB 		bl	chSchReadyI
 904              	.LVL58:
 905              		.loc 1 349 5 is_stmt 0 view .LVU331
 906              	.LBE82:
 907              		.loc 1 354 1 view .LVU332
 908 0078 0400A0E1 		mov	r0, r4
 909 007c 1080BDE8 		pop	{r4, pc}
 910              	.LVL59:
 911              	.L58:
 912              		.loc 1 352 5 is_stmt 1 view .LVU333
ARM GAS  /tmp/ccxnK9EA.s 			page 17


 913              		.loc 1 352 18 is_stmt 0 view .LVU334
 914 0080 0030A0E3 		mov	r3, #0
 915              		.loc 1 354 1 view .LVU335
 916 0084 0400A0E1 		mov	r0, r4
 917              		.loc 1 352 18 view .LVU336
 918 0088 083084E5 		str	r3, [r4, #8]
 919              		.loc 1 353 3 is_stmt 1 view .LVU337
 920              		.loc 1 354 1 is_stmt 0 view .LVU338
 921 008c 1080BDE8 		pop	{r4, pc}
 922              	.L69:
 923              		.align	2
 924              	.L68:
 925 0090 00000000 		.word	rlist
 926              		.cfi_endproc
 927              	.LFE13:
 928              		.size	chMtxUnlockS, .-chMtxUnlockS
 929              		.section	.text.chMtxUnlockAll,"ax",%progbits
 930              		.align	2
 931              		.global	chMtxUnlockAll
 932              		.syntax unified
 933              		.arm
 934              		.fpu softvfp
 935              		.type	chMtxUnlockAll, %function
 936              	chMtxUnlockAll:
 937              	.LFB14:
 938              		.loc 1 367 27 is_stmt 1 view -0
 939              		.cfi_startproc
 940              		@ args = 0, pretend = 0, frame = 0
 941              		@ frame_needed = 0, uses_anonymous_args = 0
 942              		.loc 1 368 3 view .LVU340
 943              		.loc 1 368 11 is_stmt 0 view .LVU341
 944 0000 70309FE5 		ldr	r3, .L80
 945              		.loc 1 367 27 view .LVU342
 946 0004 70402DE9 		push	{r4, r5, r6, lr}
 947              		.cfi_def_cfa_offset 16
 948              		.cfi_offset 4, -16
 949              		.cfi_offset 5, -12
 950              		.cfi_offset 6, -8
 951              		.cfi_offset 14, -4
 952              		.loc 1 368 11 view .LVU343
 953 0008 184093E5 		ldr	r4, [r3, #24]
 954              	.LVL60:
 955              		.loc 1 370 3 is_stmt 1 view .LVU344
 956              		.syntax divided
 957              	@ 370 "../../os/kernel/src/chmtx.c" 1
 958 000c 9FF021E3 		msr     CPSR_c, #0x9F
 959              	@ 0 "" 2
 960              		.loc 1 370 3 view .LVU345
 961              		.loc 1 370 14 view .LVU346
 962              		.loc 1 371 3 view .LVU347
 963              		.loc 1 371 10 is_stmt 0 view .LVU348
 964              		.arm
 965              		.syntax unified
 966 0010 3C3094E5 		ldr	r3, [r4, #60]
 967              		.loc 1 371 6 view .LVU349
 968 0014 000053E3 		cmp	r3, #0
 969 0018 1400000A 		beq	.L71
ARM GAS  /tmp/ccxnK9EA.s 			page 18


 970              	.LBB87:
 971              		.loc 1 383 22 view .LVU350
 972 001c 0050A0E3 		mov	r5, #0
 973              	.L74:
 974              		.loc 1 383 22 view .LVU351
 975              	.LBE87:
 976              		.loc 1 372 5 is_stmt 1 view .LVU352
 977              	.LBB97:
 978              		.loc 1 373 7 view .LVU353
 979              	.LVL61:
 980              		.loc 1 374 7 view .LVU354
 981              	.LBB88:
 982              		.loc 1 376 9 view .LVU355
 983              	.LBB89:
 984              	.LBI89:
 985              		.loc 2 52 23 view .LVU356
 986              	.LBB90:
 987              		.loc 2 53 3 view .LVU357
 988              	.LBE90:
 989              	.LBE89:
 990              	.LBE88:
 991              		.loc 1 383 9 view .LVU358
 992              		.loc 1 375 11 is_stmt 0 view .LVU359
 993 0020 000093E5 		ldr	r0, [r3]
 994              	.LVL62:
 995              	.LBB95:
 996              	.LBB93:
 997              	.LBB91:
 998              		.loc 2 55 3 is_stmt 1 view .LVU360
 999              	.LBE91:
 1000              	.LBE93:
 1001              	.LBE95:
 1002              		.loc 1 374 27 is_stmt 0 view .LVU361
 1003 0024 0C2093E5 		ldr	r2, [r3, #12]
 1004              		.loc 1 375 10 view .LVU362
 1005 0028 030050E1 		cmp	r0, r3
 1006              		.loc 1 374 22 view .LVU363
 1007 002c 3C2084E5 		str	r2, [r4, #60]
 1008              	.LVL63:
 1009              		.loc 1 375 7 is_stmt 1 view .LVU364
 1010              		.loc 1 383 22 is_stmt 0 view .LVU365
 1011 0030 08508305 		streq	r5, [r3, #8]
 1012 0034 0230A001 		moveq	r3, r2
 1013              	.LVL64:
 1014              		.loc 1 375 10 view .LVU366
 1015 0038 0700000A 		beq	.L73
 1016              	.LBB96:
 1017              		.loc 1 378 21 view .LVU367
 1018 003c 3C1090E5 		ldr	r1, [r0, #60]
 1019              	.LBB94:
 1020              	.LBB92:
 1021              		.loc 2 55 20 view .LVU368
 1022 0040 002090E5 		ldr	r2, [r0]
 1023              		.loc 2 55 16 view .LVU369
 1024 0044 002083E5 		str	r2, [r3]
 1025              		.loc 2 55 38 view .LVU370
 1026 0048 043082E5 		str	r3, [r2, #4]
ARM GAS  /tmp/ccxnK9EA.s 			page 19


 1027              		.loc 2 56 3 is_stmt 1 view .LVU371
 1028              	.LVL65:
 1029              		.loc 2 56 3 is_stmt 0 view .LVU372
 1030              	.LBE92:
 1031              	.LBE94:
 1032              		.loc 1 377 9 is_stmt 1 view .LVU373
 1033              		.loc 1 378 21 is_stmt 0 view .LVU374
 1034 004c F800C3E1 		strd	r0, [r3, #8]
 1035              		.loc 1 379 9 is_stmt 1 view .LVU375
 1036              		.loc 1 379 23 is_stmt 0 view .LVU376
 1037 0050 3C3080E5 		str	r3, [r0, #60]
 1038              		.loc 1 380 9 is_stmt 1 view .LVU377
 1039 0054 FEFFFFEB 		bl	chSchReadyI
 1040              	.LVL66:
 1041              		.loc 1 380 9 is_stmt 0 view .LVU378
 1042              	.LBE96:
 1043              	.LBE97:
 1044              		.loc 1 384 17 view .LVU379
 1045 0058 3C3094E5 		ldr	r3, [r4, #60]
 1046              	.L73:
 1047              		.loc 1 384 29 is_stmt 1 view .LVU380
 1048 005c 000053E3 		cmp	r3, #0
 1049 0060 EEFFFF1A 		bne	.L74
 1050              		.loc 1 385 5 view .LVU381
 1051              		.loc 1 385 17 is_stmt 0 view .LVU382
 1052 0064 403094E5 		ldr	r3, [r4, #64]
 1053 0068 083084E5 		str	r3, [r4, #8]
 1054              		.loc 1 386 5 is_stmt 1 view .LVU383
 1055 006c FEFFFFEB 		bl	chSchRescheduleS
 1056              	.LVL67:
 1057              	.L71:
 1058              		.loc 1 388 3 view .LVU384
 1059              		.loc 1 388 3 view .LVU385
 1060              		.syntax divided
 1061              	@ 388 "../../os/kernel/src/chmtx.c" 1
 1062 0070 1FF021E3 		msr     CPSR_c, #0x1F
 1063              	@ 0 "" 2
 1064              		.loc 1 388 16 view .LVU386
 1065              		.loc 1 389 1 is_stmt 0 view .LVU387
 1066              		.arm
 1067              		.syntax unified
 1068 0074 7080BDE8 		pop	{r4, r5, r6, pc}
 1069              	.L81:
 1070              		.align	2
 1071              	.L80:
 1072 0078 00000000 		.word	rlist
 1073              		.cfi_endproc
 1074              	.LFE14:
 1075              		.size	chMtxUnlockAll, .-chMtxUnlockAll
 1076              		.text
 1077              	.Letext0:
 1078              		.file 3 "/usr/arm-none-eabi/include/machine/_default_types.h"
 1079              		.file 4 "/usr/arm-none-eabi/include/sys/_stdint.h"
 1080              		.file 5 "../../os/ports/GCC/ARM/chtypes.h"
 1081              		.file 6 "../../os/kernel/include/chlists.h"
 1082              		.file 7 "../../os/kernel/include/chthreads.h"
 1083              		.file 8 "../../os/ports/GCC/ARM/chcore.h"
ARM GAS  /tmp/ccxnK9EA.s 			page 20


 1084              		.file 9 "../../os/kernel/include/chschd.h"
 1085              		.file 10 "../../os/kernel/include/chmtx.h"
 1086              		.section	.debug_info,"",%progbits
 1087              	.Ldebug_info0:
 1088 0000 E6090000 		.4byte	0x9e6
 1089 0004 0500     		.2byte	0x5
 1090 0006 01       		.byte	0x1
 1091 0007 04       		.byte	0x4
 1092 0008 00000000 		.4byte	.Ldebug_abbrev0
 1093 000c 1F       		.uleb128 0x1f
 1094 000d 74010000 		.4byte	.LASF79
 1095 0011 1D       		.byte	0x1d
 1096 0012 3A030000 		.4byte	.LASF80
 1097 0016 1D020000 		.4byte	.LASF81
 1098 001a AD000000 		.4byte	.LLRL53
 1099 001e 00000000 		.4byte	0
 1100 0022 00000000 		.4byte	.Ldebug_line0
 1101 0026 20       		.uleb128 0x20
 1102 0027 04       		.byte	0x4
 1103 0028 05       		.byte	0x5
 1104 0029 696E7400 		.ascii	"int\000"
 1105 002d 05       		.uleb128 0x5
 1106 002e 04       		.byte	0x4
 1107 002f 07       		.byte	0x7
 1108 0030 E2000000 		.4byte	.LASF0
 1109 0034 05       		.uleb128 0x5
 1110 0035 01       		.byte	0x1
 1111 0036 06       		.byte	0x6
 1112 0037 58000000 		.4byte	.LASF1
 1113 003b 02       		.uleb128 0x2
 1114 003c 0D000000 		.4byte	.LASF5
 1115 0040 03       		.byte	0x3
 1116 0041 2B       		.byte	0x2b
 1117 0042 18       		.byte	0x18
 1118 0043 47000000 		.4byte	0x47
 1119 0047 05       		.uleb128 0x5
 1120 0048 01       		.byte	0x1
 1121 0049 08       		.byte	0x8
 1122 004a 9B020000 		.4byte	.LASF2
 1123 004e 05       		.uleb128 0x5
 1124 004f 02       		.byte	0x2
 1125 0050 05       		.byte	0x5
 1126 0051 B3020000 		.4byte	.LASF3
 1127 0055 05       		.uleb128 0x5
 1128 0056 02       		.byte	0x2
 1129 0057 07       		.byte	0x7
 1130 0058 09010000 		.4byte	.LASF4
 1131 005c 02       		.uleb128 0x2
 1132 005d 72030000 		.4byte	.LASF6
 1133 0061 03       		.byte	0x3
 1134 0062 4D       		.byte	0x4d
 1135 0063 18       		.byte	0x18
 1136 0064 68000000 		.4byte	0x68
 1137 0068 05       		.uleb128 0x5
 1138 0069 04       		.byte	0x4
 1139 006a 05       		.byte	0x5
 1140 006b 7D000000 		.4byte	.LASF7
ARM GAS  /tmp/ccxnK9EA.s 			page 21


 1141 006f 02       		.uleb128 0x2
 1142 0070 C1000000 		.4byte	.LASF8
 1143 0074 03       		.byte	0x3
 1144 0075 4F       		.byte	0x4f
 1145 0076 19       		.byte	0x19
 1146 0077 7B000000 		.4byte	0x7b
 1147 007b 05       		.uleb128 0x5
 1148 007c 04       		.byte	0x4
 1149 007d 07       		.byte	0x7
 1150 007e EF000000 		.4byte	.LASF9
 1151 0082 05       		.uleb128 0x5
 1152 0083 08       		.byte	0x8
 1153 0084 05       		.byte	0x5
 1154 0085 4A000000 		.4byte	.LASF10
 1155 0089 05       		.uleb128 0x5
 1156 008a 08       		.byte	0x8
 1157 008b 07       		.byte	0x7
 1158 008c 17000000 		.4byte	.LASF11
 1159 0090 02       		.uleb128 0x2
 1160 0091 CF030000 		.4byte	.LASF12
 1161 0095 04       		.byte	0x4
 1162 0096 18       		.byte	0x18
 1163 0097 13       		.byte	0x13
 1164 0098 3B000000 		.4byte	0x3b
 1165 009c 02       		.uleb128 0x2
 1166 009d 93020000 		.4byte	.LASF13
 1167 00a1 04       		.byte	0x4
 1168 00a2 2C       		.byte	0x2c
 1169 00a3 13       		.byte	0x13
 1170 00a4 5C000000 		.4byte	0x5c
 1171 00a8 02       		.uleb128 0x2
 1172 00a9 0C030000 		.4byte	.LASF14
 1173 00ad 04       		.byte	0x4
 1174 00ae 30       		.byte	0x30
 1175 00af 14       		.byte	0x14
 1176 00b0 6F000000 		.4byte	0x6f
 1177 00b4 02       		.uleb128 0x2
 1178 00b5 64000000 		.4byte	.LASF15
 1179 00b9 05       		.byte	0x5
 1180 00ba 29       		.byte	0x29
 1181 00bb 19       		.byte	0x19
 1182 00bc 9C000000 		.4byte	0x9c
 1183 00c0 02       		.uleb128 0x2
 1184 00c1 41010000 		.4byte	.LASF16
 1185 00c5 05       		.byte	0x5
 1186 00c6 2A       		.byte	0x2a
 1187 00c7 19       		.byte	0x19
 1188 00c8 90000000 		.4byte	0x90
 1189 00cc 02       		.uleb128 0x2
 1190 00cd 86000000 		.4byte	.LASF17
 1191 00d1 05       		.byte	0x5
 1192 00d2 2B       		.byte	0x2b
 1193 00d3 19       		.byte	0x19
 1194 00d4 90000000 		.4byte	0x90
 1195 00d8 02       		.uleb128 0x2
 1196 00d9 7C020000 		.4byte	.LASF18
 1197 00dd 05       		.byte	0x5
ARM GAS  /tmp/ccxnK9EA.s 			page 22


 1198 00de 2C       		.byte	0x2c
 1199 00df 19       		.byte	0x19
 1200 00e0 90000000 		.4byte	0x90
 1201 00e4 02       		.uleb128 0x2
 1202 00e5 73000000 		.4byte	.LASF19
 1203 00e9 05       		.byte	0x5
 1204 00ea 2D       		.byte	0x2d
 1205 00eb 19       		.byte	0x19
 1206 00ec 90000000 		.4byte	0x90
 1207 00f0 02       		.uleb128 0x2
 1208 00f1 8B020000 		.4byte	.LASF20
 1209 00f5 05       		.byte	0x5
 1210 00f6 2E       		.byte	0x2e
 1211 00f7 19       		.byte	0x19
 1212 00f8 A8000000 		.4byte	0xa8
 1213 00fc 02       		.uleb128 0x2
 1214 00fd 1C010000 		.4byte	.LASF21
 1215 0101 05       		.byte	0x5
 1216 0102 2F       		.byte	0x2f
 1217 0103 19       		.byte	0x19
 1218 0104 9C000000 		.4byte	0x9c
 1219 0108 02       		.uleb128 0x2
 1220 0109 55010000 		.4byte	.LASF22
 1221 010d 05       		.byte	0x5
 1222 010e 31       		.byte	0x31
 1223 010f 19       		.byte	0x19
 1224 0110 A8000000 		.4byte	0xa8
 1225 0114 02       		.uleb128 0x2
 1226 0115 5D030000 		.4byte	.LASF23
 1227 0119 05       		.byte	0x5
 1228 011a 33       		.byte	0x33
 1229 011b 19       		.byte	0x19
 1230 011c A8000000 		.4byte	0xa8
 1231 0120 21       		.uleb128 0x21
 1232 0121 14010000 		.4byte	0x114
 1233 0125 02       		.uleb128 0x2
 1234 0126 EC020000 		.4byte	.LASF24
 1235 012a 06       		.byte	0x6
 1236 012b 23       		.byte	0x23
 1237 012c 17       		.byte	0x17
 1238 012d 31010000 		.4byte	0x131
 1239 0131 0C       		.uleb128 0xc
 1240 0132 EC020000 		.4byte	.LASF24
 1241 0136 44       		.byte	0x44
 1242 0137 07       		.byte	0x7
 1243 0138 57       		.byte	0x57
 1244 0139 08       		.byte	0x8
 1245 013a 36020000 		.4byte	0x236
 1246 013e 01       		.uleb128 0x1
 1247 013f DD020000 		.4byte	.LASF25
 1248 0143 07       		.byte	0x7
 1249 0144 58       		.byte	0x58
 1250 0145 1A       		.byte	0x1a
 1251 0146 59020000 		.4byte	0x259
 1252 014a 00       		.byte	0
 1253 014b 01       		.uleb128 0x1
 1254 014c 84020000 		.4byte	.LASF26
ARM GAS  /tmp/ccxnK9EA.s 			page 23


 1255 0150 07       		.byte	0x7
 1256 0151 5A       		.byte	0x5a
 1257 0152 1A       		.byte	0x1a
 1258 0153 59020000 		.4byte	0x259
 1259 0157 04       		.byte	0x4
 1260 0158 01       		.uleb128 0x1
 1261 0159 43000000 		.4byte	.LASF27
 1262 015d 07       		.byte	0x7
 1263 015e 5C       		.byte	0x5c
 1264 015f 19       		.byte	0x19
 1265 0160 F0000000 		.4byte	0xf0
 1266 0164 08       		.byte	0x8
 1267 0165 01       		.uleb128 0x1
 1268 0166 ED030000 		.4byte	.LASF28
 1269 016a 07       		.byte	0x7
 1270 016b 5D       		.byte	0x5d
 1271 016c 19       		.byte	0x19
 1272 016d 16030000 		.4byte	0x316
 1273 0171 0C       		.byte	0xc
 1274 0172 01       		.uleb128 0x1
 1275 0173 A8000000 		.4byte	.LASF29
 1276 0177 07       		.byte	0x7
 1277 0178 5F       		.byte	0x5f
 1278 0179 1A       		.byte	0x1a
 1279 017a 59020000 		.4byte	0x259
 1280 017e 10       		.byte	0x10
 1281 017f 01       		.uleb128 0x1
 1282 0180 47020000 		.4byte	.LASF30
 1283 0184 07       		.byte	0x7
 1284 0185 60       		.byte	0x60
 1285 0186 1A       		.byte	0x1a
 1286 0187 59020000 		.4byte	0x259
 1287 018b 14       		.byte	0x14
 1288 018c 01       		.uleb128 0x1
 1289 018d DE030000 		.4byte	.LASF31
 1290 0191 07       		.byte	0x7
 1291 0192 67       		.byte	0x67
 1292 0193 1A       		.byte	0x1a
 1293 0194 21040000 		.4byte	0x421
 1294 0198 18       		.byte	0x18
 1295 0199 01       		.uleb128 0x1
 1296 019a BD020000 		.4byte	.LASF32
 1297 019e 07       		.byte	0x7
 1298 019f 72       		.byte	0x72
 1299 01a0 19       		.byte	0x19
 1300 01a1 CC000000 		.4byte	0xcc
 1301 01a5 1C       		.byte	0x1c
 1302 01a6 01       		.uleb128 0x1
 1303 01a7 E4020000 		.4byte	.LASF33
 1304 01ab 07       		.byte	0x7
 1305 01ac 76       		.byte	0x76
 1306 01ad 19       		.byte	0x19
 1307 01ae C0000000 		.4byte	0xc0
 1308 01b2 1D       		.byte	0x1d
 1309 01b3 01       		.uleb128 0x1
 1310 01b4 B8030000 		.4byte	.LASF34
 1311 01b8 07       		.byte	0x7
ARM GAS  /tmp/ccxnK9EA.s 			page 24


 1312 01b9 7B       		.byte	0x7b
 1313 01ba 19       		.byte	0x19
 1314 01bb D8000000 		.4byte	0xd8
 1315 01bf 1E       		.byte	0x1e
 1316 01c0 01       		.uleb128 0x1
 1317 01c1 C5020000 		.4byte	.LASF35
 1318 01c5 07       		.byte	0x7
 1319 01c6 81       		.byte	0x81
 1320 01c7 19       		.byte	0x19
 1321 01c8 E4000000 		.4byte	0xe4
 1322 01cc 1F       		.byte	0x1f
 1323 01cd 01       		.uleb128 0x1
 1324 01ce 88030000 		.4byte	.LASF36
 1325 01d2 07       		.byte	0x7
 1326 01d3 88       		.byte	0x88
 1327 01d4 19       		.byte	0x19
 1328 01d5 20010000 		.4byte	0x120
 1329 01d9 20       		.byte	0x20
 1330 01da 04       		.uleb128 0x4
 1331 01db 705F7500 		.ascii	"p_u\000"
 1332 01df 07       		.byte	0x7
 1333 01e0 AD       		.byte	0xad
 1334 01e1 19       		.byte	0x19
 1335 01e2 EB030000 		.4byte	0x3eb
 1336 01e6 24       		.byte	0x24
 1337 01e7 01       		.uleb128 0x1
 1338 01e8 F3030000 		.4byte	.LASF37
 1339 01ec 07       		.byte	0x7
 1340 01ed B2       		.byte	0xb2
 1341 01ee 19       		.byte	0x19
 1342 01ef 80020000 		.4byte	0x280
 1343 01f3 28       		.byte	0x28
 1344 01f4 01       		.uleb128 0x1
 1345 01f5 96030000 		.4byte	.LASF38
 1346 01f9 07       		.byte	0x7
 1347 01fa B8       		.byte	0xb8
 1348 01fb 19       		.byte	0x19
 1349 01fc 5E020000 		.4byte	0x25e
 1350 0200 2C       		.byte	0x2c
 1351 0201 01       		.uleb128 0x1
 1352 0202 00000000 		.4byte	.LASF39
 1353 0206 07       		.byte	0x7
 1354 0207 BC       		.byte	0xbc
 1355 0208 19       		.byte	0x19
 1356 0209 FC000000 		.4byte	0xfc
 1357 020d 34       		.byte	0x34
 1358 020e 01       		.uleb128 0x1
 1359 020f 01030000 		.4byte	.LASF40
 1360 0213 07       		.byte	0x7
 1361 0214 C2       		.byte	0xc2
 1362 0215 19       		.byte	0x19
 1363 0216 08010000 		.4byte	0x108
 1364 021a 38       		.byte	0x38
 1365 021b 01       		.uleb128 0x1
 1366 021c A9020000 		.4byte	.LASF41
 1367 0220 07       		.byte	0x7
 1368 0221 C9       		.byte	0xc9
ARM GAS  /tmp/ccxnK9EA.s 			page 25


 1369 0222 1A       		.byte	0x1a
 1370 0223 32040000 		.4byte	0x432
 1371 0227 3C       		.byte	0x3c
 1372 0228 01       		.uleb128 0x1
 1373 0229 67030000 		.4byte	.LASF42
 1374 022d 07       		.byte	0x7
 1375 022e CD       		.byte	0xcd
 1376 022f 19       		.byte	0x19
 1377 0230 F0000000 		.4byte	0xf0
 1378 0234 40       		.byte	0x40
 1379 0235 00       		.byte	0
 1380 0236 11       		.uleb128 0x11
 1381 0237 08       		.byte	0x8
 1382 0238 06       		.byte	0x6
 1383 0239 5A       		.byte	0x5a
 1384 023a 59020000 		.4byte	0x259
 1385 023e 01       		.uleb128 0x1
 1386 023f DD020000 		.4byte	.LASF25
 1387 0243 06       		.byte	0x6
 1388 0244 5B       		.byte	0x5b
 1389 0245 1A       		.byte	0x1a
 1390 0246 59020000 		.4byte	0x259
 1391 024a 00       		.byte	0
 1392 024b 01       		.uleb128 0x1
 1393 024c 84020000 		.4byte	.LASF26
 1394 0250 06       		.byte	0x6
 1395 0251 5D       		.byte	0x5d
 1396 0252 1A       		.byte	0x1a
 1397 0253 59020000 		.4byte	0x259
 1398 0257 04       		.byte	0x4
 1399 0258 00       		.byte	0
 1400 0259 08       		.uleb128 0x8
 1401 025a 25010000 		.4byte	0x125
 1402 025e 02       		.uleb128 0x2
 1403 025f 55020000 		.4byte	.LASF43
 1404 0263 06       		.byte	0x6
 1405 0264 5F       		.byte	0x5f
 1406 0265 03       		.byte	0x3
 1407 0266 36020000 		.4byte	0x236
 1408 026a 11       		.uleb128 0x11
 1409 026b 04       		.byte	0x4
 1410 026c 06       		.byte	0x6
 1411 026d 64       		.byte	0x64
 1412 026e 80020000 		.4byte	0x280
 1413 0272 01       		.uleb128 0x1
 1414 0273 DD020000 		.4byte	.LASF25
 1415 0277 06       		.byte	0x6
 1416 0278 66       		.byte	0x66
 1417 0279 16       		.byte	0x16
 1418 027a 59020000 		.4byte	0x259
 1419 027e 00       		.byte	0
 1420 027f 00       		.byte	0
 1421 0280 02       		.uleb128 0x2
 1422 0281 49010000 		.4byte	.LASF44
 1423 0285 06       		.byte	0x6
 1424 0286 69       		.byte	0x69
 1425 0287 03       		.byte	0x3
ARM GAS  /tmp/ccxnK9EA.s 			page 26


 1426 0288 6A020000 		.4byte	0x26a
 1427 028c 02       		.uleb128 0x2
 1428 028d CC000000 		.4byte	.LASF45
 1429 0291 08       		.byte	0x8
 1430 0292 A2       		.byte	0xa2
 1431 0293 0F       		.byte	0xf
 1432 0294 98020000 		.4byte	0x298
 1433 0298 22       		.uleb128 0x22
 1434 0299 04       		.byte	0x4
 1435 029a 0C       		.uleb128 0xc
 1436 029b 8F030000 		.4byte	.LASF46
 1437 029f 24       		.byte	0x24
 1438 02a0 08       		.byte	0x8
 1439 02a1 B9       		.byte	0xb9
 1440 02a2 08       		.byte	0x8
 1441 02a3 16030000 		.4byte	0x316
 1442 02a7 04       		.uleb128 0x4
 1443 02a8 723400   		.ascii	"r4\000"
 1444 02ab 08       		.byte	0x8
 1445 02ac BA       		.byte	0xba
 1446 02ad 11       		.byte	0x11
 1447 02ae 8C020000 		.4byte	0x28c
 1448 02b2 00       		.byte	0
 1449 02b3 04       		.uleb128 0x4
 1450 02b4 723500   		.ascii	"r5\000"
 1451 02b7 08       		.byte	0x8
 1452 02b8 BB       		.byte	0xbb
 1453 02b9 11       		.byte	0x11
 1454 02ba 8C020000 		.4byte	0x28c
 1455 02be 04       		.byte	0x4
 1456 02bf 04       		.uleb128 0x4
 1457 02c0 723600   		.ascii	"r6\000"
 1458 02c3 08       		.byte	0x8
 1459 02c4 BC       		.byte	0xbc
 1460 02c5 11       		.byte	0x11
 1461 02c6 8C020000 		.4byte	0x28c
 1462 02ca 08       		.byte	0x8
 1463 02cb 04       		.uleb128 0x4
 1464 02cc 723700   		.ascii	"r7\000"
 1465 02cf 08       		.byte	0x8
 1466 02d0 BD       		.byte	0xbd
 1467 02d1 11       		.byte	0x11
 1468 02d2 8C020000 		.4byte	0x28c
 1469 02d6 0C       		.byte	0xc
 1470 02d7 04       		.uleb128 0x4
 1471 02d8 723800   		.ascii	"r8\000"
 1472 02db 08       		.byte	0x8
 1473 02dc BE       		.byte	0xbe
 1474 02dd 11       		.byte	0x11
 1475 02de 8C020000 		.4byte	0x28c
 1476 02e2 10       		.byte	0x10
 1477 02e3 04       		.uleb128 0x4
 1478 02e4 723900   		.ascii	"r9\000"
 1479 02e7 08       		.byte	0x8
 1480 02e8 BF       		.byte	0xbf
 1481 02e9 11       		.byte	0x11
 1482 02ea 8C020000 		.4byte	0x28c
ARM GAS  /tmp/ccxnK9EA.s 			page 27


 1483 02ee 14       		.byte	0x14
 1484 02ef 04       		.uleb128 0x4
 1485 02f0 72313000 		.ascii	"r10\000"
 1486 02f4 08       		.byte	0x8
 1487 02f5 C0       		.byte	0xc0
 1488 02f6 11       		.byte	0x11
 1489 02f7 8C020000 		.4byte	0x28c
 1490 02fb 18       		.byte	0x18
 1491 02fc 04       		.uleb128 0x4
 1492 02fd 72313100 		.ascii	"r11\000"
 1493 0301 08       		.byte	0x8
 1494 0302 C1       		.byte	0xc1
 1495 0303 11       		.byte	0x11
 1496 0304 8C020000 		.4byte	0x28c
 1497 0308 1C       		.byte	0x1c
 1498 0309 04       		.uleb128 0x4
 1499 030a 6C7200   		.ascii	"lr\000"
 1500 030d 08       		.byte	0x8
 1501 030e C2       		.byte	0xc2
 1502 030f 11       		.byte	0x11
 1503 0310 8C020000 		.4byte	0x28c
 1504 0314 20       		.byte	0x20
 1505 0315 00       		.byte	0
 1506 0316 0C       		.uleb128 0xc
 1507 0317 01010000 		.4byte	.LASF47
 1508 031b 04       		.byte	0x4
 1509 031c 08       		.byte	0x8
 1510 031d CA       		.byte	0xca
 1511 031e 08       		.byte	0x8
 1512 031f 31030000 		.4byte	0x331
 1513 0323 04       		.uleb128 0x4
 1514 0324 72313300 		.ascii	"r13\000"
 1515 0328 08       		.byte	0x8
 1516 0329 CB       		.byte	0xcb
 1517 032a 12       		.byte	0x12
 1518 032b 31030000 		.4byte	0x331
 1519 032f 00       		.byte	0
 1520 0330 00       		.byte	0
 1521 0331 08       		.uleb128 0x8
 1522 0332 9A020000 		.4byte	0x29a
 1523 0336 11       		.uleb128 0x11
 1524 0337 1C       		.byte	0x1c
 1525 0338 09       		.byte	0x9
 1526 0339 57       		.byte	0x57
 1527 033a 8D030000 		.4byte	0x38d
 1528 033e 01       		.uleb128 0x1
 1529 033f 15030000 		.4byte	.LASF48
 1530 0343 09       		.byte	0x9
 1531 0344 58       		.byte	0x58
 1532 0345 19       		.byte	0x19
 1533 0346 5E020000 		.4byte	0x25e
 1534 034a 00       		.byte	0
 1535 034b 01       		.uleb128 0x1
 1536 034c CF020000 		.4byte	.LASF49
 1537 0350 09       		.byte	0x9
 1538 0351 59       		.byte	0x59
 1539 0352 19       		.byte	0x19
ARM GAS  /tmp/ccxnK9EA.s 			page 28


 1540 0353 F0000000 		.4byte	0xf0
 1541 0357 08       		.byte	0x8
 1542 0358 01       		.uleb128 0x1
 1543 0359 4F020000 		.4byte	.LASF50
 1544 035d 09       		.byte	0x9
 1545 035e 5B       		.byte	0x5b
 1546 035f 19       		.byte	0x19
 1547 0360 16030000 		.4byte	0x316
 1548 0364 0C       		.byte	0xc
 1549 0365 01       		.uleb128 0x1
 1550 0366 22010000 		.4byte	.LASF51
 1551 036a 09       		.byte	0x9
 1552 036b 5E       		.byte	0x5e
 1553 036c 1A       		.byte	0x1a
 1554 036d 59020000 		.4byte	0x259
 1555 0371 10       		.byte	0x10
 1556 0372 01       		.uleb128 0x1
 1557 0373 74020000 		.4byte	.LASF52
 1558 0377 09       		.byte	0x9
 1559 0378 5F       		.byte	0x5f
 1560 0379 1A       		.byte	0x1a
 1561 037a 59020000 		.4byte	0x259
 1562 037e 14       		.byte	0x14
 1563 037f 01       		.uleb128 0x1
 1564 0380 6A020000 		.4byte	.LASF53
 1565 0384 09       		.byte	0x9
 1566 0385 62       		.byte	0x62
 1567 0386 1A       		.byte	0x1a
 1568 0387 59020000 		.4byte	0x259
 1569 038b 18       		.byte	0x18
 1570 038c 00       		.byte	0
 1571 038d 02       		.uleb128 0x2
 1572 038e BF030000 		.4byte	.LASF54
 1573 0392 09       		.byte	0x9
 1574 0393 64       		.byte	0x64
 1575 0394 03       		.byte	0x3
 1576 0395 36030000 		.4byte	0x336
 1577 0399 23       		.uleb128 0x23
 1578 039a C9030000 		.4byte	.LASF66
 1579 039e 09       		.byte	0x9
 1580 039f 68       		.byte	0x68
 1581 03a0 12       		.byte	0x12
 1582 03a1 8D030000 		.4byte	0x38d
 1583 03a5 0C       		.uleb128 0xc
 1584 03a6 6E010000 		.4byte	.LASF55
 1585 03aa 10       		.byte	0x10
 1586 03ab 0A       		.byte	0xa
 1587 03ac 25       		.byte	0x25
 1588 03ad 10       		.byte	0x10
 1589 03ae DA030000 		.4byte	0x3da
 1590 03b2 01       		.uleb128 0x1
 1591 03b3 6B000000 		.4byte	.LASF56
 1592 03b7 0A       		.byte	0xa
 1593 03b8 26       		.byte	0x26
 1594 03b9 19       		.byte	0x19
 1595 03ba 5E020000 		.4byte	0x25e
 1596 03be 00       		.byte	0
ARM GAS  /tmp/ccxnK9EA.s 			page 29


 1597 03bf 01       		.uleb128 0x1
 1598 03c0 E5030000 		.4byte	.LASF57
 1599 03c4 0A       		.byte	0xa
 1600 03c5 28       		.byte	0x28
 1601 03c6 1A       		.byte	0x1a
 1602 03c7 59020000 		.4byte	0x259
 1603 03cb 08       		.byte	0x8
 1604 03cc 01       		.uleb128 0x1
 1605 03cd 56030000 		.4byte	.LASF58
 1606 03d1 0A       		.byte	0xa
 1607 03d2 2A       		.byte	0x2a
 1608 03d3 1A       		.byte	0x1a
 1609 03d4 DA030000 		.4byte	0x3da
 1610 03d8 0C       		.byte	0xc
 1611 03d9 00       		.byte	0
 1612 03da 08       		.uleb128 0x8
 1613 03db A5030000 		.4byte	0x3a5
 1614 03df 02       		.uleb128 0x2
 1615 03e0 6E010000 		.4byte	.LASF55
 1616 03e4 0A       		.byte	0xa
 1617 03e5 2C       		.byte	0x2c
 1618 03e6 03       		.byte	0x3
 1619 03e7 A5030000 		.4byte	0x3a5
 1620 03eb 24       		.uleb128 0x24
 1621 03ec 04       		.byte	0x4
 1622 03ed 07       		.byte	0x7
 1623 03ee 8F       		.byte	0x8f
 1624 03ef 03       		.byte	0x3
 1625 03f0 21040000 		.4byte	0x421
 1626 03f4 0D       		.uleb128 0xd
 1627 03f5 06000000 		.4byte	.LASF59
 1628 03f9 96       		.byte	0x96
 1629 03fa 19       		.byte	0x19
 1630 03fb FC000000 		.4byte	0xfc
 1631 03ff 0D       		.uleb128 0xd
 1632 0400 2E000000 		.4byte	.LASF60
 1633 0404 9D       		.byte	0x9d
 1634 0405 19       		.byte	0x19
 1635 0406 FC000000 		.4byte	0xfc
 1636 040a 0D       		.uleb128 0xd
 1637 040b D7030000 		.4byte	.LASF61
 1638 040f A4       		.byte	0xa4
 1639 0410 1A       		.byte	0x1a
 1640 0411 98020000 		.4byte	0x298
 1641 0415 0D       		.uleb128 0xd
 1642 0416 D6020000 		.4byte	.LASF62
 1643 041a AB       		.byte	0xab
 1644 041b 19       		.byte	0x19
 1645 041c 08010000 		.4byte	0x108
 1646 0420 00       		.byte	0
 1647 0421 08       		.uleb128 0x8
 1648 0422 2D040000 		.4byte	0x42d
 1649 0426 05       		.uleb128 0x5
 1650 0427 01       		.byte	0x1
 1651 0428 08       		.byte	0x8
 1652 0429 29030000 		.4byte	.LASF63
 1653 042d 25       		.uleb128 0x25
ARM GAS  /tmp/ccxnK9EA.s 			page 30


 1654 042e 26040000 		.4byte	0x426
 1655 0432 08       		.uleb128 0x8
 1656 0433 DF030000 		.4byte	0x3df
 1657 0437 26       		.uleb128 0x26
 1658 0438 B0000000 		.4byte	.LASF82
 1659 043c 09       		.byte	0x9
 1660 043d 95       		.byte	0x95
 1661 043e 08       		.byte	0x8
 1662 043f 16       		.uleb128 0x16
 1663 0440 A1030000 		.4byte	.LASF64
 1664 0444 92       		.byte	0x92
 1665 0445 54040000 		.4byte	0x454
 1666 0449 0E       		.uleb128 0xe
 1667 044a 59020000 		.4byte	0x259
 1668 044e 0E       		.uleb128 0xe
 1669 044f FC000000 		.4byte	0xfc
 1670 0453 00       		.byte	0
 1671 0454 16       		.uleb128 0x16
 1672 0455 F3020000 		.4byte	.LASF65
 1673 0459 8C       		.byte	0x8c
 1674 045a 64040000 		.4byte	0x464
 1675 045e 0E       		.uleb128 0xe
 1676 045f CC000000 		.4byte	0xcc
 1677 0463 00       		.byte	0
 1678 0464 27       		.uleb128 0x27
 1679 0465 1D030000 		.4byte	.LASF70
 1680 0469 09       		.byte	0x9
 1681 046a 89       		.byte	0x89
 1682 046b 0B       		.byte	0xb
 1683 046c 59020000 		.4byte	0x259
 1684 0470 7A040000 		.4byte	0x47a
 1685 0474 0E       		.uleb128 0xe
 1686 0475 59020000 		.4byte	0x259
 1687 0479 00       		.byte	0
 1688 047a 28       		.uleb128 0x28
 1689 047b 2A010000 		.4byte	.LASF73
 1690 047f 01       		.byte	0x1
 1691 0480 6F01     		.2byte	0x16f
 1692 0482 06       		.byte	0x6
 1693 0483 00000000 		.4byte	.LFB14
 1694 0487 7C000000 		.4byte	.LFE14-.LFB14
 1695 048b 01       		.uleb128 0x1
 1696 048c 9C       		.byte	0x9c
 1697 048d 25050000 		.4byte	0x525
 1698 0491 06       		.uleb128 0x6
 1699 0492 63747000 		.ascii	"ctp\000"
 1700 0496 7001     		.2byte	0x170
 1701 0498 0B       		.byte	0xb
 1702 0499 59020000 		.4byte	0x259
 1703 049d 0E000000 		.4byte	.LLST45
 1704 04a1 0C000000 		.4byte	.LVUS45
 1705 04a5 29       		.uleb128 0x29
 1706 04a6 83000000 		.4byte	.LLRL46
 1707 04aa 1B050000 		.4byte	0x51b
 1708 04ae 06       		.uleb128 0x6
 1709 04af 756D7000 		.ascii	"ump\000"
 1710 04b3 7501     		.2byte	0x175
ARM GAS  /tmp/ccxnK9EA.s 			page 31


 1711 04b5 0E       		.byte	0xe
 1712 04b6 32040000 		.4byte	0x432
 1713 04ba 19000000 		.4byte	.LLST47
 1714 04be 17000000 		.4byte	.LVUS47
 1715 04c2 07       		.uleb128 0x7
 1716 04c3 8F000000 		.4byte	.LLRL48
 1717 04c7 06       		.uleb128 0x6
 1718 04c8 747000   		.ascii	"tp\000"
 1719 04cb 7801     		.2byte	0x178
 1720 04cd 11       		.byte	0x11
 1721 04ce 59020000 		.4byte	0x259
 1722 04d2 25000000 		.4byte	.LLST49
 1723 04d6 23000000 		.4byte	.LVUS49
 1724 04da 12       		.uleb128 0x12
 1725 04db 58090000 		.4byte	0x958
 1726 04df 20000000 		.4byte	.LBI89
 1727 04e3 05       		.byte	.LVU356
 1728 04e4 9E000000 		.4byte	.LLRL50
 1729 04e8 7801     		.2byte	0x178
 1730 04ea 16       		.byte	0x16
 1731 04eb 10050000 		.4byte	0x510
 1732 04ef 03       		.uleb128 0x3
 1733 04f0 66090000 		.4byte	0x966
 1734 04f4 30000000 		.4byte	.LLST51
 1735 04f8 2E000000 		.4byte	.LVUS51
 1736 04fc 07       		.uleb128 0x7
 1737 04fd 9E000000 		.4byte	.LLRL50
 1738 0501 09       		.uleb128 0x9
 1739 0502 72090000 		.4byte	0x972
 1740 0506 3B000000 		.4byte	.LLST52
 1741 050a 39000000 		.4byte	.LVUS52
 1742 050e 00       		.byte	0
 1743 050f 00       		.byte	0
 1744 0510 0F       		.uleb128 0xf
 1745 0511 58000000 		.4byte	.LVL66
 1746 0515 64040000 		.4byte	0x464
 1747 0519 00       		.byte	0
 1748 051a 00       		.byte	0
 1749 051b 0F       		.uleb128 0xf
 1750 051c 70000000 		.4byte	.LVL67
 1751 0520 37040000 		.4byte	0x437
 1752 0524 00       		.byte	0
 1753 0525 2A       		.uleb128 0x2a
 1754 0526 D5000000 		.4byte	.LASF68
 1755 052a 01       		.byte	0x1
 1756 052b 3601     		.2byte	0x136
 1757 052d 08       		.byte	0x8
 1758 052e 32040000 		.4byte	0x432
 1759 0532 00000000 		.4byte	.LFB13
 1760 0536 94000000 		.4byte	.LFE13-.LFB13
 1761 053a 01       		.uleb128 0x1
 1762 053b 9C       		.byte	0x9c
 1763 053c EB050000 		.4byte	0x5eb
 1764 0540 06       		.uleb128 0x6
 1765 0541 63747000 		.ascii	"ctp\000"
 1766 0545 3701     		.2byte	0x137
 1767 0547 0B       		.byte	0xb
ARM GAS  /tmp/ccxnK9EA.s 			page 32


 1768 0548 59020000 		.4byte	0x259
 1769 054c 48000000 		.4byte	.LLST37
 1770 0550 44000000 		.4byte	.LVUS37
 1771 0554 06       		.uleb128 0x6
 1772 0555 756D7000 		.ascii	"ump\000"
 1773 0559 3801     		.2byte	0x138
 1774 055b 0A       		.byte	0xa
 1775 055c 32040000 		.4byte	0x432
 1776 0560 5B000000 		.4byte	.LLST38
 1777 0564 59000000 		.4byte	.LVUS38
 1778 0568 06       		.uleb128 0x6
 1779 0569 6D7000   		.ascii	"mp\000"
 1780 056c 3801     		.2byte	0x138
 1781 056e 10       		.byte	0x10
 1782 056f 32040000 		.4byte	0x432
 1783 0573 67000000 		.4byte	.LLST39
 1784 0577 65000000 		.4byte	.LVUS39
 1785 057b 17       		.uleb128 0x17
 1786 057c 24000000 		.4byte	.LBB82
 1787 0580 54000000 		.4byte	.LBE82-.LBB82
 1788 0584 06       		.uleb128 0x6
 1789 0585 747000   		.ascii	"tp\000"
 1790 0588 4801     		.2byte	0x148
 1791 058a 0D       		.byte	0xd
 1792 058b 59020000 		.4byte	0x259
 1793 058f 72000000 		.4byte	.LLST40
 1794 0593 70000000 		.4byte	.LVUS40
 1795 0597 18       		.uleb128 0x18
 1796 0598 39010000 		.4byte	.LASF67
 1797 059c 4C01     		.2byte	0x14c
 1798 059e F0000000 		.4byte	0xf0
 1799 05a2 7D000000 		.4byte	.LLST41
 1800 05a6 7B000000 		.4byte	.LVUS41
 1801 05aa 12       		.uleb128 0x12
 1802 05ab 58090000 		.4byte	0x958
 1803 05af 60000000 		.4byte	.LBI83
 1804 05b3 01       		.byte	.LVU317
 1805 05b4 77000000 		.4byte	.LLRL42
 1806 05b8 5901     		.2byte	0x159
 1807 05ba 0A       		.byte	0xa
 1808 05bb E0050000 		.4byte	0x5e0
 1809 05bf 03       		.uleb128 0x3
 1810 05c0 66090000 		.4byte	0x966
 1811 05c4 88000000 		.4byte	.LLST43
 1812 05c8 86000000 		.4byte	.LVUS43
 1813 05cc 07       		.uleb128 0x7
 1814 05cd 77000000 		.4byte	.LLRL42
 1815 05d1 09       		.uleb128 0x9
 1816 05d2 72090000 		.4byte	0x972
 1817 05d6 93000000 		.4byte	.LLST44
 1818 05da 91000000 		.4byte	.LVUS44
 1819 05de 00       		.byte	0
 1820 05df 00       		.byte	0
 1821 05e0 0F       		.uleb128 0xf
 1822 05e1 78000000 		.4byte	.LVL58
 1823 05e5 64040000 		.4byte	0x464
 1824 05e9 00       		.byte	0
ARM GAS  /tmp/ccxnK9EA.s 			page 33


 1825 05ea 00       		.byte	0
 1826 05eb 19       		.uleb128 0x19
 1827 05ec 37000000 		.4byte	.LASF69
 1828 05f0 FA       		.byte	0xfa
 1829 05f1 32040000 		.4byte	0x432
 1830 05f5 00000000 		.4byte	.LFB12
 1831 05f9 9C000000 		.4byte	.LFE12-.LFB12
 1832 05fd 01       		.uleb128 0x1
 1833 05fe 9C       		.byte	0x9c
 1834 05ff B1060000 		.4byte	0x6b1
 1835 0603 0A       		.uleb128 0xa
 1836 0604 63747000 		.ascii	"ctp\000"
 1837 0608 FB       		.byte	0xfb
 1838 0609 0B       		.byte	0xb
 1839 060a 59020000 		.4byte	0x259
 1840 060e A0000000 		.4byte	.LLST29
 1841 0612 9C000000 		.4byte	.LVUS29
 1842 0616 0A       		.uleb128 0xa
 1843 0617 756D7000 		.ascii	"ump\000"
 1844 061b FC       		.byte	0xfc
 1845 061c 0A       		.byte	0xa
 1846 061d 32040000 		.4byte	0x432
 1847 0621 B4000000 		.4byte	.LLST30
 1848 0625 B2000000 		.4byte	.LVUS30
 1849 0629 0A       		.uleb128 0xa
 1850 062a 6D7000   		.ascii	"mp\000"
 1851 062d FC       		.byte	0xfc
 1852 062e 10       		.byte	0x10
 1853 062f 32040000 		.4byte	0x432
 1854 0633 C0000000 		.4byte	.LLST31
 1855 0637 BE000000 		.4byte	.LVUS31
 1856 063b 17       		.uleb128 0x17
 1857 063c 28000000 		.4byte	.LBB75
 1858 0640 58000000 		.4byte	.LBE75-.LBB75
 1859 0644 06       		.uleb128 0x6
 1860 0645 747000   		.ascii	"tp\000"
 1861 0648 0B01     		.2byte	0x10b
 1862 064a 0D       		.byte	0xd
 1863 064b 59020000 		.4byte	0x259
 1864 064f CB000000 		.4byte	.LLST32
 1865 0653 C9000000 		.4byte	.LVUS32
 1866 0657 18       		.uleb128 0x18
 1867 0658 39010000 		.4byte	.LASF67
 1868 065c 0F01     		.2byte	0x10f
 1869 065e F0000000 		.4byte	0xf0
 1870 0662 D8000000 		.4byte	.LLST33
 1871 0666 D4000000 		.4byte	.LVUS33
 1872 066a 12       		.uleb128 0x12
 1873 066b 58090000 		.4byte	0x958
 1874 066f 64000000 		.4byte	.LBI76
 1875 0673 01       		.byte	.LVU254
 1876 0674 68000000 		.4byte	.LLRL34
 1877 0678 1E01     		.2byte	0x11e
 1878 067a 0A       		.byte	0xa
 1879 067b A0060000 		.4byte	0x6a0
 1880 067f 03       		.uleb128 0x3
 1881 0680 66090000 		.4byte	0x966
ARM GAS  /tmp/ccxnK9EA.s 			page 34


 1882 0684 EB000000 		.4byte	.LLST35
 1883 0688 E9000000 		.4byte	.LVUS35
 1884 068c 07       		.uleb128 0x7
 1885 068d 68000000 		.4byte	.LLRL34
 1886 0691 09       		.uleb128 0x9
 1887 0692 72090000 		.4byte	0x972
 1888 0696 F6000000 		.4byte	.LLST36
 1889 069a F4000000 		.4byte	.LVUS36
 1890 069e 00       		.byte	0
 1891 069f 00       		.byte	0
 1892 06a0 1A       		.uleb128 0x1a
 1893 06a1 80000000 		.4byte	.LVL48
 1894 06a5 3F040000 		.4byte	0x43f
 1895 06a9 13       		.uleb128 0x13
 1896 06aa 01       		.uleb128 0x1
 1897 06ab 51       		.byte	0x51
 1898 06ac 01       		.uleb128 0x1
 1899 06ad 30       		.byte	0x30
 1900 06ae 00       		.byte	0
 1901 06af 00       		.byte	0
 1902 06b0 00       		.byte	0
 1903 06b1 2B       		.uleb128 0x2b
 1904 06b2 9A000000 		.4byte	.LASF71
 1905 06b6 01       		.byte	0x1
 1906 06b7 E3       		.byte	0xe3
 1907 06b8 08       		.byte	0x8
 1908 06b9 B4000000 		.4byte	0xb4
 1909 06bd 01       		.byte	0x1
 1910 06be CE060000 		.4byte	0x6ce
 1911 06c2 0B       		.uleb128 0xb
 1912 06c3 6D7000   		.ascii	"mp\000"
 1913 06c6 01       		.byte	0x1
 1914 06c7 E3       		.byte	0xe3
 1915 06c8 1D       		.byte	0x1d
 1916 06c9 32040000 		.4byte	0x432
 1917 06cd 00       		.byte	0
 1918 06ce 19       		.uleb128 0x19
 1919 06cf 61010000 		.4byte	.LASF72
 1920 06d3 C7       		.byte	0xc7
 1921 06d4 B4000000 		.4byte	0xb4
 1922 06d8 00000000 		.4byte	.LFB10
 1923 06dc 3C000000 		.4byte	.LFE10-.LFB10
 1924 06e0 01       		.uleb128 0x1
 1925 06e1 9C       		.byte	0x9c
 1926 06e2 4A070000 		.4byte	0x74a
 1927 06e6 14       		.uleb128 0x14
 1928 06e7 6D7000   		.ascii	"mp\000"
 1929 06ea C7       		.byte	0xc7
 1930 06eb 1C       		.byte	0x1c
 1931 06ec 32040000 		.4byte	0x432
 1932 06f0 03010000 		.4byte	.LLST21
 1933 06f4 FF000000 		.4byte	.LVUS21
 1934 06f8 0A       		.uleb128 0xa
 1935 06f9 6200     		.ascii	"b\000"
 1936 06fb C8       		.byte	0xc8
 1937 06fc 0A       		.byte	0xa
 1938 06fd B4000000 		.4byte	0xb4
ARM GAS  /tmp/ccxnK9EA.s 			page 35


 1939 0701 15010000 		.4byte	.LLST22
 1940 0705 13010000 		.4byte	.LVUS22
 1941 0709 2C       		.uleb128 0x2c
 1942 070a B1060000 		.4byte	0x6b1
 1943 070e 08000000 		.4byte	.LBI63
 1944 0712 03       		.byte	.LVU164
 1945 0713 08000000 		.4byte	.LBB63
 1946 0717 28000000 		.4byte	.LBE63-.LBB63
 1947 071b 01       		.byte	0x1
 1948 071c CC       		.byte	0xcc
 1949 071d 07       		.byte	0x7
 1950 071e 03       		.uleb128 0x3
 1951 071f C2060000 		.4byte	0x6c2
 1952 0723 22010000 		.4byte	.LLST23
 1953 0727 1E010000 		.4byte	.LVUS23
 1954 072b 1B       		.uleb128 0x1b
 1955 072c B1060000 		.4byte	0x6b1
 1956 0730 10000000 		.4byte	.LBI65
 1957 0734 00       		.byte	.LVU171
 1958 0735 50000000 		.4byte	.LLRL24
 1959 0739 E3       		.byte	0xe3
 1960 073a 03       		.uleb128 0x3
 1961 073b C2060000 		.4byte	0x6c2
 1962 073f 36010000 		.4byte	.LLST25
 1963 0743 32010000 		.4byte	.LVUS25
 1964 0747 00       		.byte	0
 1965 0748 00       		.byte	0
 1966 0749 00       		.byte	0
 1967 074a 15       		.uleb128 0x15
 1968 074b 8F000000 		.4byte	.LASF74
 1969 074f 72       		.byte	0x72
 1970 0750 00000000 		.4byte	.LFB9
 1971 0754 7C010000 		.4byte	.LFE9-.LFB9
 1972 0758 01       		.uleb128 0x1
 1973 0759 9C       		.byte	0x9c
 1974 075a E4080000 		.4byte	0x8e4
 1975 075e 14       		.uleb128 0x14
 1976 075f 6D7000   		.ascii	"mp\000"
 1977 0762 72       		.byte	0x72
 1978 0763 18       		.byte	0x18
 1979 0764 32040000 		.4byte	0x432
 1980 0768 50010000 		.4byte	.LLST0
 1981 076c 46010000 		.4byte	.LVUS0
 1982 0770 0A       		.uleb128 0xa
 1983 0771 63747000 		.ascii	"ctp\000"
 1984 0775 73       		.byte	0x73
 1985 0776 0B       		.byte	0xb
 1986 0777 59020000 		.4byte	0x259
 1987 077b 83010000 		.4byte	.LLST1
 1988 077f 7D010000 		.4byte	.LVUS1
 1989 0783 07       		.uleb128 0x7
 1990 0784 0C000000 		.4byte	.LLRL2
 1991 0788 0A       		.uleb128 0xa
 1992 0789 747000   		.ascii	"tp\000"
 1993 078c 7D       		.byte	0x7d
 1994 078d 0D       		.byte	0xd
 1995 078e 59020000 		.4byte	0x259
ARM GAS  /tmp/ccxnK9EA.s 			page 36


 1996 0792 A1010000 		.4byte	.LLST3
 1997 0796 9B010000 		.4byte	.LVUS3
 1998 079a 10       		.uleb128 0x10
 1999 079b 81090000 		.4byte	0x981
 2000 079f 4C000000 		.4byte	.LBI35
 2001 07a3 01       		.byte	.LVU33
 2002 07a4 1D000000 		.4byte	.LLRL4
 2003 07a8 A6       		.byte	0xa6
 2004 07a9 05       		.byte	0x5
 2005 07aa DC070000 		.4byte	0x7dc
 2006 07ae 03       		.uleb128 0x3
 2007 07af 99090000 		.4byte	0x999
 2008 07b3 BC010000 		.4byte	.LLST5
 2009 07b7 BA010000 		.4byte	.LVUS5
 2010 07bb 03       		.uleb128 0x3
 2011 07bc 8E090000 		.4byte	0x98e
 2012 07c0 C7010000 		.4byte	.LLST6
 2013 07c4 C5010000 		.4byte	.LVUS6
 2014 07c8 07       		.uleb128 0x7
 2015 07c9 1D000000 		.4byte	.LLRL4
 2016 07cd 09       		.uleb128 0x9
 2017 07ce A5090000 		.4byte	0x9a5
 2018 07d2 D6010000 		.4byte	.LLST7
 2019 07d6 D0010000 		.4byte	.LVUS7
 2020 07da 00       		.byte	0
 2021 07db 00       		.byte	0
 2022 07dc 1C       		.uleb128 0x1c
 2023 07dd 3E090000 		.4byte	0x93e
 2024 07e1 AC000000 		.4byte	.LBI39
 2025 07e5 01       		.byte	.LVU68
 2026 07e6 AC000000 		.4byte	.LBB39
 2027 07ea 10000000 		.4byte	.LBE39-.LBB39
 2028 07ee A0       		.byte	0xa0
 2029 07ef 01080000 		.4byte	0x801
 2030 07f3 03       		.uleb128 0x3
 2031 07f4 4C090000 		.4byte	0x94c
 2032 07f8 EE010000 		.4byte	.LLST8
 2033 07fc EC010000 		.4byte	.LVUS8
 2034 0800 00       		.byte	0
 2035 0801 10       		.uleb128 0x10
 2036 0802 3E090000 		.4byte	0x93e
 2037 0806 C4000000 		.4byte	.LBI41
 2038 080a 01       		.byte	.LVU80
 2039 080b 29000000 		.4byte	.LLRL9
 2040 080f 97       		.byte	0x97
 2041 0810 09       		.byte	0x9
 2042 0811 23080000 		.4byte	0x823
 2043 0815 03       		.uleb128 0x3
 2044 0816 4C090000 		.4byte	0x94c
 2045 081a F9010000 		.4byte	.LLST10
 2046 081e F7010000 		.4byte	.LVUS10
 2047 0822 00       		.byte	0
 2048 0823 1C       		.uleb128 0x1c
 2049 0824 81090000 		.4byte	0x981
 2050 0828 D8000000 		.4byte	.LBI45
 2051 082c 02       		.byte	.LVU90
 2052 082d D8000000 		.4byte	.LBB45
ARM GAS  /tmp/ccxnK9EA.s 			page 37


 2053 0831 3C000000 		.4byte	.LBE45-.LBB45
 2054 0835 97       		.byte	0x97
 2055 0836 62080000 		.4byte	0x862
 2056 083a 03       		.uleb128 0x3
 2057 083b 99090000 		.4byte	0x999
 2058 083f 04020000 		.4byte	.LLST11
 2059 0843 02020000 		.4byte	.LVUS11
 2060 0847 03       		.uleb128 0x3
 2061 0848 8E090000 		.4byte	0x98e
 2062 084c 0F020000 		.4byte	.LLST12
 2063 0850 0D020000 		.4byte	.LVUS12
 2064 0854 09       		.uleb128 0x9
 2065 0855 A5090000 		.4byte	0x9a5
 2066 0859 1E020000 		.4byte	.LLST13
 2067 085d 18020000 		.4byte	.LVUS13
 2068 0861 00       		.byte	0
 2069 0862 10       		.uleb128 0x10
 2070 0863 3E090000 		.4byte	0x93e
 2071 0867 14010000 		.4byte	.LBI47
 2072 086b 02       		.byte	.LVU110
 2073 086c 35000000 		.4byte	.LLRL14
 2074 0870 87       		.byte	0x87
 2075 0871 09       		.byte	0x9
 2076 0872 84080000 		.4byte	0x884
 2077 0876 03       		.uleb128 0x3
 2078 0877 4C090000 		.4byte	0x94c
 2079 087b 36020000 		.4byte	.LLST15
 2080 087f 34020000 		.4byte	.LVUS15
 2081 0883 00       		.byte	0
 2082 0884 10       		.uleb128 0x10
 2083 0885 81090000 		.4byte	0x981
 2084 0889 28010000 		.4byte	.LBI51
 2085 088d 02       		.byte	.LVU120
 2086 088e 41000000 		.4byte	.LLRL16
 2087 0892 87       		.byte	0x87
 2088 0893 09       		.byte	0x9
 2089 0894 C6080000 		.4byte	0x8c6
 2090 0898 03       		.uleb128 0x3
 2091 0899 99090000 		.4byte	0x999
 2092 089d 41020000 		.4byte	.LLST17
 2093 08a1 3F020000 		.4byte	.LVUS17
 2094 08a5 03       		.uleb128 0x3
 2095 08a6 8E090000 		.4byte	0x98e
 2096 08aa 4C020000 		.4byte	.LLST18
 2097 08ae 4A020000 		.4byte	.LVUS18
 2098 08b2 07       		.uleb128 0x7
 2099 08b3 41000000 		.4byte	.LLRL16
 2100 08b7 09       		.uleb128 0x9
 2101 08b8 A5090000 		.4byte	0x9a5
 2102 08bc 5B020000 		.4byte	.LLST19
 2103 08c0 55020000 		.4byte	.LVUS19
 2104 08c4 00       		.byte	0
 2105 08c5 00       		.byte	0
 2106 08c6 2D       		.uleb128 0x2d
 2107 08c7 98000000 		.4byte	.LVL11
 2108 08cb 54040000 		.4byte	0x454
 2109 08cf D9080000 		.4byte	0x8d9
ARM GAS  /tmp/ccxnK9EA.s 			page 38


 2110 08d3 13       		.uleb128 0x13
 2111 08d4 01       		.uleb128 0x1
 2112 08d5 50       		.byte	0x50
 2113 08d6 01       		.uleb128 0x1
 2114 08d7 34       		.byte	0x34
 2115 08d8 00       		.byte	0
 2116 08d9 0F       		.uleb128 0xf
 2117 08da C0000000 		.4byte	.LVL14
 2118 08de 64040000 		.4byte	0x464
 2119 08e2 00       		.byte	0
 2120 08e3 00       		.byte	0
 2121 08e4 15       		.uleb128 0x15
 2122 08e5 13020000 		.4byte	.LASF75
 2123 08e9 60       		.byte	0x60
 2124 08ea 00000000 		.4byte	.LFB8
 2125 08ee 14000000 		.4byte	.LFE8-.LFB8
 2126 08f2 01       		.uleb128 0x1
 2127 08f3 9C       		.byte	0x9c
 2128 08f4 1C090000 		.4byte	0x91c
 2129 08f8 14       		.uleb128 0x14
 2130 08f9 6D7000   		.ascii	"mp\000"
 2131 08fc 60       		.byte	0x60
 2132 08fd 17       		.byte	0x17
 2133 08fe 32040000 		.4byte	0x432
 2134 0902 75020000 		.4byte	.LLST20
 2135 0906 71020000 		.4byte	.LVUS20
 2136 090a 1A       		.uleb128 0x1a
 2137 090b 0C000000 		.4byte	.LVL29
 2138 090f 4A070000 		.4byte	0x74a
 2139 0913 13       		.uleb128 0x13
 2140 0914 01       		.uleb128 0x1
 2141 0915 50       		.byte	0x50
 2142 0916 03       		.uleb128 0x3
 2143 0917 A3       		.byte	0xa3
 2144 0918 01       		.uleb128 0x1
 2145 0919 50       		.byte	0x50
 2146 091a 00       		.byte	0
 2147 091b 00       		.byte	0
 2148 091c 15       		.uleb128 0x15
 2149 091d AE030000 		.4byte	.LASF76
 2150 0921 4F       		.byte	0x4f
 2151 0922 00000000 		.4byte	.LFB7
 2152 0926 14000000 		.4byte	.LFE7-.LFB7
 2153 092a 01       		.uleb128 0x1
 2154 092b 9C       		.byte	0x9c
 2155 092c 3E090000 		.4byte	0x93e
 2156 0930 2E       		.uleb128 0x2e
 2157 0931 6D7000   		.ascii	"mp\000"
 2158 0934 01       		.byte	0x1
 2159 0935 4F       		.byte	0x4f
 2160 0936 17       		.byte	0x17
 2161 0937 32040000 		.4byte	0x432
 2162 093b 01       		.uleb128 0x1
 2163 093c 50       		.byte	0x50
 2164 093d 00       		.byte	0
 2165 093e 1D       		.uleb128 0x1d
 2166 093f 62020000 		.4byte	.LASF77
ARM GAS  /tmp/ccxnK9EA.s 			page 39


 2167 0943 42       		.byte	0x42
 2168 0944 59020000 		.4byte	0x259
 2169 0948 58090000 		.4byte	0x958
 2170 094c 0B       		.uleb128 0xb
 2171 094d 747000   		.ascii	"tp\000"
 2172 0950 02       		.byte	0x2
 2173 0951 42       		.byte	0x42
 2174 0952 27       		.byte	0x27
 2175 0953 59020000 		.4byte	0x259
 2176 0957 00       		.byte	0
 2177 0958 1D       		.uleb128 0x1d
 2178 0959 2E030000 		.4byte	.LASF78
 2179 095d 34       		.byte	0x34
 2180 095e 59020000 		.4byte	0x259
 2181 0962 7C090000 		.4byte	0x97c
 2182 0966 0B       		.uleb128 0xb
 2183 0967 74717000 		.ascii	"tqp\000"
 2184 096b 02       		.byte	0x2
 2185 096c 34       		.byte	0x34
 2186 096d 31       		.byte	0x31
 2187 096e 7C090000 		.4byte	0x97c
 2188 0972 1E       		.uleb128 0x1e
 2189 0973 747000   		.ascii	"tp\000"
 2190 0976 35       		.byte	0x35
 2191 0977 59020000 		.4byte	0x259
 2192 097b 00       		.byte	0
 2193 097c 08       		.uleb128 0x8
 2194 097d 5E020000 		.4byte	0x25e
 2195 0981 2F       		.uleb128 0x2f
 2196 0982 7C030000 		.4byte	.LASF83
 2197 0986 02       		.byte	0x2
 2198 0987 22       		.byte	0x22
 2199 0988 14       		.byte	0x14
 2200 0989 03       		.byte	0x3
 2201 098a AF090000 		.4byte	0x9af
 2202 098e 0B       		.uleb128 0xb
 2203 098f 747000   		.ascii	"tp\000"
 2204 0992 02       		.byte	0x2
 2205 0993 22       		.byte	0x22
 2206 0994 28       		.byte	0x28
 2207 0995 59020000 		.4byte	0x259
 2208 0999 0B       		.uleb128 0xb
 2209 099a 74717000 		.ascii	"tqp\000"
 2210 099e 02       		.byte	0x2
 2211 099f 22       		.byte	0x22
 2212 09a0 3A       		.byte	0x3a
 2213 09a1 7C090000 		.4byte	0x97c
 2214 09a5 1E       		.uleb128 0x1e
 2215 09a6 637000   		.ascii	"cp\000"
 2216 09a9 24       		.byte	0x24
 2217 09aa 59020000 		.4byte	0x259
 2218 09ae 00       		.byte	0
 2219 09af 30       		.uleb128 0x30
 2220 09b0 B1060000 		.4byte	0x6b1
 2221 09b4 00000000 		.4byte	.LFB11
 2222 09b8 34000000 		.4byte	.LFE11-.LFB11
 2223 09bc 01       		.uleb128 0x1
ARM GAS  /tmp/ccxnK9EA.s 			page 40


 2224 09bd 9C       		.byte	0x9c
 2225 09be 03       		.uleb128 0x3
 2226 09bf C2060000 		.4byte	0x6c2
 2227 09c3 8C020000 		.4byte	.LLST26
 2228 09c7 88020000 		.4byte	.LVUS26
 2229 09cb 1B       		.uleb128 0x1b
 2230 09cc B1060000 		.4byte	0x6b1
 2231 09d0 0C000000 		.4byte	.LBI71
 2232 09d4 00       		.byte	.LVU198
 2233 09d5 5C000000 		.4byte	.LLRL27
 2234 09d9 E3       		.byte	0xe3
 2235 09da 03       		.uleb128 0x3
 2236 09db C2060000 		.4byte	0x6c2
 2237 09df A0020000 		.4byte	.LLST28
 2238 09e3 9C020000 		.4byte	.LVUS28
 2239 09e7 00       		.byte	0
 2240 09e8 00       		.byte	0
 2241 09e9 00       		.byte	0
 2242              		.section	.debug_abbrev,"",%progbits
 2243              	.Ldebug_abbrev0:
 2244 0000 01       		.uleb128 0x1
 2245 0001 0D       		.uleb128 0xd
 2246 0002 00       		.byte	0
 2247 0003 03       		.uleb128 0x3
 2248 0004 0E       		.uleb128 0xe
 2249 0005 3A       		.uleb128 0x3a
 2250 0006 0B       		.uleb128 0xb
 2251 0007 3B       		.uleb128 0x3b
 2252 0008 0B       		.uleb128 0xb
 2253 0009 39       		.uleb128 0x39
 2254 000a 0B       		.uleb128 0xb
 2255 000b 49       		.uleb128 0x49
 2256 000c 13       		.uleb128 0x13
 2257 000d 38       		.uleb128 0x38
 2258 000e 0B       		.uleb128 0xb
 2259 000f 00       		.byte	0
 2260 0010 00       		.byte	0
 2261 0011 02       		.uleb128 0x2
 2262 0012 16       		.uleb128 0x16
 2263 0013 00       		.byte	0
 2264 0014 03       		.uleb128 0x3
 2265 0015 0E       		.uleb128 0xe
 2266 0016 3A       		.uleb128 0x3a
 2267 0017 0B       		.uleb128 0xb
 2268 0018 3B       		.uleb128 0x3b
 2269 0019 0B       		.uleb128 0xb
 2270 001a 39       		.uleb128 0x39
 2271 001b 0B       		.uleb128 0xb
 2272 001c 49       		.uleb128 0x49
 2273 001d 13       		.uleb128 0x13
 2274 001e 00       		.byte	0
 2275 001f 00       		.byte	0
 2276 0020 03       		.uleb128 0x3
 2277 0021 05       		.uleb128 0x5
 2278 0022 00       		.byte	0
 2279 0023 31       		.uleb128 0x31
 2280 0024 13       		.uleb128 0x13
ARM GAS  /tmp/ccxnK9EA.s 			page 41


 2281 0025 02       		.uleb128 0x2
 2282 0026 17       		.uleb128 0x17
 2283 0027 B742     		.uleb128 0x2137
 2284 0029 17       		.uleb128 0x17
 2285 002a 00       		.byte	0
 2286 002b 00       		.byte	0
 2287 002c 04       		.uleb128 0x4
 2288 002d 0D       		.uleb128 0xd
 2289 002e 00       		.byte	0
 2290 002f 03       		.uleb128 0x3
 2291 0030 08       		.uleb128 0x8
 2292 0031 3A       		.uleb128 0x3a
 2293 0032 0B       		.uleb128 0xb
 2294 0033 3B       		.uleb128 0x3b
 2295 0034 0B       		.uleb128 0xb
 2296 0035 39       		.uleb128 0x39
 2297 0036 0B       		.uleb128 0xb
 2298 0037 49       		.uleb128 0x49
 2299 0038 13       		.uleb128 0x13
 2300 0039 38       		.uleb128 0x38
 2301 003a 0B       		.uleb128 0xb
 2302 003b 00       		.byte	0
 2303 003c 00       		.byte	0
 2304 003d 05       		.uleb128 0x5
 2305 003e 24       		.uleb128 0x24
 2306 003f 00       		.byte	0
 2307 0040 0B       		.uleb128 0xb
 2308 0041 0B       		.uleb128 0xb
 2309 0042 3E       		.uleb128 0x3e
 2310 0043 0B       		.uleb128 0xb
 2311 0044 03       		.uleb128 0x3
 2312 0045 0E       		.uleb128 0xe
 2313 0046 00       		.byte	0
 2314 0047 00       		.byte	0
 2315 0048 06       		.uleb128 0x6
 2316 0049 34       		.uleb128 0x34
 2317 004a 00       		.byte	0
 2318 004b 03       		.uleb128 0x3
 2319 004c 08       		.uleb128 0x8
 2320 004d 3A       		.uleb128 0x3a
 2321 004e 21       		.uleb128 0x21
 2322 004f 01       		.sleb128 1
 2323 0050 3B       		.uleb128 0x3b
 2324 0051 05       		.uleb128 0x5
 2325 0052 39       		.uleb128 0x39
 2326 0053 0B       		.uleb128 0xb
 2327 0054 49       		.uleb128 0x49
 2328 0055 13       		.uleb128 0x13
 2329 0056 02       		.uleb128 0x2
 2330 0057 17       		.uleb128 0x17
 2331 0058 B742     		.uleb128 0x2137
 2332 005a 17       		.uleb128 0x17
 2333 005b 00       		.byte	0
 2334 005c 00       		.byte	0
 2335 005d 07       		.uleb128 0x7
 2336 005e 0B       		.uleb128 0xb
 2337 005f 01       		.byte	0x1
ARM GAS  /tmp/ccxnK9EA.s 			page 42


 2338 0060 55       		.uleb128 0x55
 2339 0061 17       		.uleb128 0x17
 2340 0062 00       		.byte	0
 2341 0063 00       		.byte	0
 2342 0064 08       		.uleb128 0x8
 2343 0065 0F       		.uleb128 0xf
 2344 0066 00       		.byte	0
 2345 0067 0B       		.uleb128 0xb
 2346 0068 21       		.uleb128 0x21
 2347 0069 04       		.sleb128 4
 2348 006a 49       		.uleb128 0x49
 2349 006b 13       		.uleb128 0x13
 2350 006c 00       		.byte	0
 2351 006d 00       		.byte	0
 2352 006e 09       		.uleb128 0x9
 2353 006f 34       		.uleb128 0x34
 2354 0070 00       		.byte	0
 2355 0071 31       		.uleb128 0x31
 2356 0072 13       		.uleb128 0x13
 2357 0073 02       		.uleb128 0x2
 2358 0074 17       		.uleb128 0x17
 2359 0075 B742     		.uleb128 0x2137
 2360 0077 17       		.uleb128 0x17
 2361 0078 00       		.byte	0
 2362 0079 00       		.byte	0
 2363 007a 0A       		.uleb128 0xa
 2364 007b 34       		.uleb128 0x34
 2365 007c 00       		.byte	0
 2366 007d 03       		.uleb128 0x3
 2367 007e 08       		.uleb128 0x8
 2368 007f 3A       		.uleb128 0x3a
 2369 0080 21       		.uleb128 0x21
 2370 0081 01       		.sleb128 1
 2371 0082 3B       		.uleb128 0x3b
 2372 0083 0B       		.uleb128 0xb
 2373 0084 39       		.uleb128 0x39
 2374 0085 0B       		.uleb128 0xb
 2375 0086 49       		.uleb128 0x49
 2376 0087 13       		.uleb128 0x13
 2377 0088 02       		.uleb128 0x2
 2378 0089 17       		.uleb128 0x17
 2379 008a B742     		.uleb128 0x2137
 2380 008c 17       		.uleb128 0x17
 2381 008d 00       		.byte	0
 2382 008e 00       		.byte	0
 2383 008f 0B       		.uleb128 0xb
 2384 0090 05       		.uleb128 0x5
 2385 0091 00       		.byte	0
 2386 0092 03       		.uleb128 0x3
 2387 0093 08       		.uleb128 0x8
 2388 0094 3A       		.uleb128 0x3a
 2389 0095 0B       		.uleb128 0xb
 2390 0096 3B       		.uleb128 0x3b
 2391 0097 0B       		.uleb128 0xb
 2392 0098 39       		.uleb128 0x39
 2393 0099 0B       		.uleb128 0xb
 2394 009a 49       		.uleb128 0x49
ARM GAS  /tmp/ccxnK9EA.s 			page 43


 2395 009b 13       		.uleb128 0x13
 2396 009c 00       		.byte	0
 2397 009d 00       		.byte	0
 2398 009e 0C       		.uleb128 0xc
 2399 009f 13       		.uleb128 0x13
 2400 00a0 01       		.byte	0x1
 2401 00a1 03       		.uleb128 0x3
 2402 00a2 0E       		.uleb128 0xe
 2403 00a3 0B       		.uleb128 0xb
 2404 00a4 0B       		.uleb128 0xb
 2405 00a5 3A       		.uleb128 0x3a
 2406 00a6 0B       		.uleb128 0xb
 2407 00a7 3B       		.uleb128 0x3b
 2408 00a8 0B       		.uleb128 0xb
 2409 00a9 39       		.uleb128 0x39
 2410 00aa 0B       		.uleb128 0xb
 2411 00ab 01       		.uleb128 0x1
 2412 00ac 13       		.uleb128 0x13
 2413 00ad 00       		.byte	0
 2414 00ae 00       		.byte	0
 2415 00af 0D       		.uleb128 0xd
 2416 00b0 0D       		.uleb128 0xd
 2417 00b1 00       		.byte	0
 2418 00b2 03       		.uleb128 0x3
 2419 00b3 0E       		.uleb128 0xe
 2420 00b4 3A       		.uleb128 0x3a
 2421 00b5 21       		.uleb128 0x21
 2422 00b6 07       		.sleb128 7
 2423 00b7 3B       		.uleb128 0x3b
 2424 00b8 0B       		.uleb128 0xb
 2425 00b9 39       		.uleb128 0x39
 2426 00ba 0B       		.uleb128 0xb
 2427 00bb 49       		.uleb128 0x49
 2428 00bc 13       		.uleb128 0x13
 2429 00bd 00       		.byte	0
 2430 00be 00       		.byte	0
 2431 00bf 0E       		.uleb128 0xe
 2432 00c0 05       		.uleb128 0x5
 2433 00c1 00       		.byte	0
 2434 00c2 49       		.uleb128 0x49
 2435 00c3 13       		.uleb128 0x13
 2436 00c4 00       		.byte	0
 2437 00c5 00       		.byte	0
 2438 00c6 0F       		.uleb128 0xf
 2439 00c7 48       		.uleb128 0x48
 2440 00c8 00       		.byte	0
 2441 00c9 7D       		.uleb128 0x7d
 2442 00ca 01       		.uleb128 0x1
 2443 00cb 7F       		.uleb128 0x7f
 2444 00cc 13       		.uleb128 0x13
 2445 00cd 00       		.byte	0
 2446 00ce 00       		.byte	0
 2447 00cf 10       		.uleb128 0x10
 2448 00d0 1D       		.uleb128 0x1d
 2449 00d1 01       		.byte	0x1
 2450 00d2 31       		.uleb128 0x31
 2451 00d3 13       		.uleb128 0x13
ARM GAS  /tmp/ccxnK9EA.s 			page 44


 2452 00d4 52       		.uleb128 0x52
 2453 00d5 01       		.uleb128 0x1
 2454 00d6 B842     		.uleb128 0x2138
 2455 00d8 0B       		.uleb128 0xb
 2456 00d9 55       		.uleb128 0x55
 2457 00da 17       		.uleb128 0x17
 2458 00db 58       		.uleb128 0x58
 2459 00dc 21       		.uleb128 0x21
 2460 00dd 01       		.sleb128 1
 2461 00de 59       		.uleb128 0x59
 2462 00df 0B       		.uleb128 0xb
 2463 00e0 57       		.uleb128 0x57
 2464 00e1 0B       		.uleb128 0xb
 2465 00e2 01       		.uleb128 0x1
 2466 00e3 13       		.uleb128 0x13
 2467 00e4 00       		.byte	0
 2468 00e5 00       		.byte	0
 2469 00e6 11       		.uleb128 0x11
 2470 00e7 13       		.uleb128 0x13
 2471 00e8 01       		.byte	0x1
 2472 00e9 0B       		.uleb128 0xb
 2473 00ea 0B       		.uleb128 0xb
 2474 00eb 3A       		.uleb128 0x3a
 2475 00ec 0B       		.uleb128 0xb
 2476 00ed 3B       		.uleb128 0x3b
 2477 00ee 0B       		.uleb128 0xb
 2478 00ef 39       		.uleb128 0x39
 2479 00f0 21       		.uleb128 0x21
 2480 00f1 09       		.sleb128 9
 2481 00f2 01       		.uleb128 0x1
 2482 00f3 13       		.uleb128 0x13
 2483 00f4 00       		.byte	0
 2484 00f5 00       		.byte	0
 2485 00f6 12       		.uleb128 0x12
 2486 00f7 1D       		.uleb128 0x1d
 2487 00f8 01       		.byte	0x1
 2488 00f9 31       		.uleb128 0x31
 2489 00fa 13       		.uleb128 0x13
 2490 00fb 52       		.uleb128 0x52
 2491 00fc 01       		.uleb128 0x1
 2492 00fd B842     		.uleb128 0x2138
 2493 00ff 0B       		.uleb128 0xb
 2494 0100 55       		.uleb128 0x55
 2495 0101 17       		.uleb128 0x17
 2496 0102 58       		.uleb128 0x58
 2497 0103 21       		.uleb128 0x21
 2498 0104 01       		.sleb128 1
 2499 0105 59       		.uleb128 0x59
 2500 0106 05       		.uleb128 0x5
 2501 0107 57       		.uleb128 0x57
 2502 0108 0B       		.uleb128 0xb
 2503 0109 01       		.uleb128 0x1
 2504 010a 13       		.uleb128 0x13
 2505 010b 00       		.byte	0
 2506 010c 00       		.byte	0
 2507 010d 13       		.uleb128 0x13
 2508 010e 49       		.uleb128 0x49
ARM GAS  /tmp/ccxnK9EA.s 			page 45


 2509 010f 00       		.byte	0
 2510 0110 02       		.uleb128 0x2
 2511 0111 18       		.uleb128 0x18
 2512 0112 7E       		.uleb128 0x7e
 2513 0113 18       		.uleb128 0x18
 2514 0114 00       		.byte	0
 2515 0115 00       		.byte	0
 2516 0116 14       		.uleb128 0x14
 2517 0117 05       		.uleb128 0x5
 2518 0118 00       		.byte	0
 2519 0119 03       		.uleb128 0x3
 2520 011a 08       		.uleb128 0x8
 2521 011b 3A       		.uleb128 0x3a
 2522 011c 21       		.uleb128 0x21
 2523 011d 01       		.sleb128 1
 2524 011e 3B       		.uleb128 0x3b
 2525 011f 0B       		.uleb128 0xb
 2526 0120 39       		.uleb128 0x39
 2527 0121 0B       		.uleb128 0xb
 2528 0122 49       		.uleb128 0x49
 2529 0123 13       		.uleb128 0x13
 2530 0124 02       		.uleb128 0x2
 2531 0125 17       		.uleb128 0x17
 2532 0126 B742     		.uleb128 0x2137
 2533 0128 17       		.uleb128 0x17
 2534 0129 00       		.byte	0
 2535 012a 00       		.byte	0
 2536 012b 15       		.uleb128 0x15
 2537 012c 2E       		.uleb128 0x2e
 2538 012d 01       		.byte	0x1
 2539 012e 3F       		.uleb128 0x3f
 2540 012f 19       		.uleb128 0x19
 2541 0130 03       		.uleb128 0x3
 2542 0131 0E       		.uleb128 0xe
 2543 0132 3A       		.uleb128 0x3a
 2544 0133 21       		.uleb128 0x21
 2545 0134 01       		.sleb128 1
 2546 0135 3B       		.uleb128 0x3b
 2547 0136 0B       		.uleb128 0xb
 2548 0137 39       		.uleb128 0x39
 2549 0138 21       		.uleb128 0x21
 2550 0139 06       		.sleb128 6
 2551 013a 27       		.uleb128 0x27
 2552 013b 19       		.uleb128 0x19
 2553 013c 11       		.uleb128 0x11
 2554 013d 01       		.uleb128 0x1
 2555 013e 12       		.uleb128 0x12
 2556 013f 06       		.uleb128 0x6
 2557 0140 40       		.uleb128 0x40
 2558 0141 18       		.uleb128 0x18
 2559 0142 7A       		.uleb128 0x7a
 2560 0143 19       		.uleb128 0x19
 2561 0144 01       		.uleb128 0x1
 2562 0145 13       		.uleb128 0x13
 2563 0146 00       		.byte	0
 2564 0147 00       		.byte	0
 2565 0148 16       		.uleb128 0x16
ARM GAS  /tmp/ccxnK9EA.s 			page 46


 2566 0149 2E       		.uleb128 0x2e
 2567 014a 01       		.byte	0x1
 2568 014b 3F       		.uleb128 0x3f
 2569 014c 19       		.uleb128 0x19
 2570 014d 03       		.uleb128 0x3
 2571 014e 0E       		.uleb128 0xe
 2572 014f 3A       		.uleb128 0x3a
 2573 0150 21       		.uleb128 0x21
 2574 0151 09       		.sleb128 9
 2575 0152 3B       		.uleb128 0x3b
 2576 0153 0B       		.uleb128 0xb
 2577 0154 39       		.uleb128 0x39
 2578 0155 21       		.uleb128 0x21
 2579 0156 08       		.sleb128 8
 2580 0157 27       		.uleb128 0x27
 2581 0158 19       		.uleb128 0x19
 2582 0159 3C       		.uleb128 0x3c
 2583 015a 19       		.uleb128 0x19
 2584 015b 01       		.uleb128 0x1
 2585 015c 13       		.uleb128 0x13
 2586 015d 00       		.byte	0
 2587 015e 00       		.byte	0
 2588 015f 17       		.uleb128 0x17
 2589 0160 0B       		.uleb128 0xb
 2590 0161 01       		.byte	0x1
 2591 0162 11       		.uleb128 0x11
 2592 0163 01       		.uleb128 0x1
 2593 0164 12       		.uleb128 0x12
 2594 0165 06       		.uleb128 0x6
 2595 0166 00       		.byte	0
 2596 0167 00       		.byte	0
 2597 0168 18       		.uleb128 0x18
 2598 0169 34       		.uleb128 0x34
 2599 016a 00       		.byte	0
 2600 016b 03       		.uleb128 0x3
 2601 016c 0E       		.uleb128 0xe
 2602 016d 3A       		.uleb128 0x3a
 2603 016e 21       		.uleb128 0x21
 2604 016f 01       		.sleb128 1
 2605 0170 3B       		.uleb128 0x3b
 2606 0171 05       		.uleb128 0x5
 2607 0172 39       		.uleb128 0x39
 2608 0173 21       		.uleb128 0x21
 2609 0174 0D       		.sleb128 13
 2610 0175 49       		.uleb128 0x49
 2611 0176 13       		.uleb128 0x13
 2612 0177 02       		.uleb128 0x2
 2613 0178 17       		.uleb128 0x17
 2614 0179 B742     		.uleb128 0x2137
 2615 017b 17       		.uleb128 0x17
 2616 017c 00       		.byte	0
 2617 017d 00       		.byte	0
 2618 017e 19       		.uleb128 0x19
 2619 017f 2E       		.uleb128 0x2e
 2620 0180 01       		.byte	0x1
 2621 0181 3F       		.uleb128 0x3f
 2622 0182 19       		.uleb128 0x19
ARM GAS  /tmp/ccxnK9EA.s 			page 47


 2623 0183 03       		.uleb128 0x3
 2624 0184 0E       		.uleb128 0xe
 2625 0185 3A       		.uleb128 0x3a
 2626 0186 21       		.uleb128 0x21
 2627 0187 01       		.sleb128 1
 2628 0188 3B       		.uleb128 0x3b
 2629 0189 0B       		.uleb128 0xb
 2630 018a 39       		.uleb128 0x39
 2631 018b 21       		.uleb128 0x21
 2632 018c 08       		.sleb128 8
 2633 018d 27       		.uleb128 0x27
 2634 018e 19       		.uleb128 0x19
 2635 018f 49       		.uleb128 0x49
 2636 0190 13       		.uleb128 0x13
 2637 0191 11       		.uleb128 0x11
 2638 0192 01       		.uleb128 0x1
 2639 0193 12       		.uleb128 0x12
 2640 0194 06       		.uleb128 0x6
 2641 0195 40       		.uleb128 0x40
 2642 0196 18       		.uleb128 0x18
 2643 0197 7A       		.uleb128 0x7a
 2644 0198 19       		.uleb128 0x19
 2645 0199 01       		.uleb128 0x1
 2646 019a 13       		.uleb128 0x13
 2647 019b 00       		.byte	0
 2648 019c 00       		.byte	0
 2649 019d 1A       		.uleb128 0x1a
 2650 019e 48       		.uleb128 0x48
 2651 019f 01       		.byte	0x1
 2652 01a0 7D       		.uleb128 0x7d
 2653 01a1 01       		.uleb128 0x1
 2654 01a2 7F       		.uleb128 0x7f
 2655 01a3 13       		.uleb128 0x13
 2656 01a4 00       		.byte	0
 2657 01a5 00       		.byte	0
 2658 01a6 1B       		.uleb128 0x1b
 2659 01a7 1D       		.uleb128 0x1d
 2660 01a8 01       		.byte	0x1
 2661 01a9 31       		.uleb128 0x31
 2662 01aa 13       		.uleb128 0x13
 2663 01ab 52       		.uleb128 0x52
 2664 01ac 01       		.uleb128 0x1
 2665 01ad B842     		.uleb128 0x2138
 2666 01af 0B       		.uleb128 0xb
 2667 01b0 55       		.uleb128 0x55
 2668 01b1 17       		.uleb128 0x17
 2669 01b2 58       		.uleb128 0x58
 2670 01b3 21       		.uleb128 0x21
 2671 01b4 01       		.sleb128 1
 2672 01b5 59       		.uleb128 0x59
 2673 01b6 0B       		.uleb128 0xb
 2674 01b7 57       		.uleb128 0x57
 2675 01b8 21       		.uleb128 0x21
 2676 01b9 08       		.sleb128 8
 2677 01ba 00       		.byte	0
 2678 01bb 00       		.byte	0
 2679 01bc 1C       		.uleb128 0x1c
ARM GAS  /tmp/ccxnK9EA.s 			page 48


 2680 01bd 1D       		.uleb128 0x1d
 2681 01be 01       		.byte	0x1
 2682 01bf 31       		.uleb128 0x31
 2683 01c0 13       		.uleb128 0x13
 2684 01c1 52       		.uleb128 0x52
 2685 01c2 01       		.uleb128 0x1
 2686 01c3 B842     		.uleb128 0x2138
 2687 01c5 0B       		.uleb128 0xb
 2688 01c6 11       		.uleb128 0x11
 2689 01c7 01       		.uleb128 0x1
 2690 01c8 12       		.uleb128 0x12
 2691 01c9 06       		.uleb128 0x6
 2692 01ca 58       		.uleb128 0x58
 2693 01cb 21       		.uleb128 0x21
 2694 01cc 01       		.sleb128 1
 2695 01cd 59       		.uleb128 0x59
 2696 01ce 0B       		.uleb128 0xb
 2697 01cf 57       		.uleb128 0x57
 2698 01d0 21       		.uleb128 0x21
 2699 01d1 09       		.sleb128 9
 2700 01d2 01       		.uleb128 0x1
 2701 01d3 13       		.uleb128 0x13
 2702 01d4 00       		.byte	0
 2703 01d5 00       		.byte	0
 2704 01d6 1D       		.uleb128 0x1d
 2705 01d7 2E       		.uleb128 0x2e
 2706 01d8 01       		.byte	0x1
 2707 01d9 03       		.uleb128 0x3
 2708 01da 0E       		.uleb128 0xe
 2709 01db 3A       		.uleb128 0x3a
 2710 01dc 21       		.uleb128 0x21
 2711 01dd 02       		.sleb128 2
 2712 01de 3B       		.uleb128 0x3b
 2713 01df 0B       		.uleb128 0xb
 2714 01e0 39       		.uleb128 0x39
 2715 01e1 21       		.uleb128 0x21
 2716 01e2 17       		.sleb128 23
 2717 01e3 27       		.uleb128 0x27
 2718 01e4 19       		.uleb128 0x19
 2719 01e5 49       		.uleb128 0x49
 2720 01e6 13       		.uleb128 0x13
 2721 01e7 20       		.uleb128 0x20
 2722 01e8 21       		.uleb128 0x21
 2723 01e9 03       		.sleb128 3
 2724 01ea 01       		.uleb128 0x1
 2725 01eb 13       		.uleb128 0x13
 2726 01ec 00       		.byte	0
 2727 01ed 00       		.byte	0
 2728 01ee 1E       		.uleb128 0x1e
 2729 01ef 34       		.uleb128 0x34
 2730 01f0 00       		.byte	0
 2731 01f1 03       		.uleb128 0x3
 2732 01f2 08       		.uleb128 0x8
 2733 01f3 3A       		.uleb128 0x3a
 2734 01f4 21       		.uleb128 0x21
 2735 01f5 02       		.sleb128 2
 2736 01f6 3B       		.uleb128 0x3b
ARM GAS  /tmp/ccxnK9EA.s 			page 49


 2737 01f7 0B       		.uleb128 0xb
 2738 01f8 39       		.uleb128 0x39
 2739 01f9 21       		.uleb128 0x21
 2740 01fa 0B       		.sleb128 11
 2741 01fb 49       		.uleb128 0x49
 2742 01fc 13       		.uleb128 0x13
 2743 01fd 00       		.byte	0
 2744 01fe 00       		.byte	0
 2745 01ff 1F       		.uleb128 0x1f
 2746 0200 11       		.uleb128 0x11
 2747 0201 01       		.byte	0x1
 2748 0202 25       		.uleb128 0x25
 2749 0203 0E       		.uleb128 0xe
 2750 0204 13       		.uleb128 0x13
 2751 0205 0B       		.uleb128 0xb
 2752 0206 03       		.uleb128 0x3
 2753 0207 0E       		.uleb128 0xe
 2754 0208 1B       		.uleb128 0x1b
 2755 0209 0E       		.uleb128 0xe
 2756 020a 55       		.uleb128 0x55
 2757 020b 17       		.uleb128 0x17
 2758 020c 11       		.uleb128 0x11
 2759 020d 01       		.uleb128 0x1
 2760 020e 10       		.uleb128 0x10
 2761 020f 17       		.uleb128 0x17
 2762 0210 00       		.byte	0
 2763 0211 00       		.byte	0
 2764 0212 20       		.uleb128 0x20
 2765 0213 24       		.uleb128 0x24
 2766 0214 00       		.byte	0
 2767 0215 0B       		.uleb128 0xb
 2768 0216 0B       		.uleb128 0xb
 2769 0217 3E       		.uleb128 0x3e
 2770 0218 0B       		.uleb128 0xb
 2771 0219 03       		.uleb128 0x3
 2772 021a 08       		.uleb128 0x8
 2773 021b 00       		.byte	0
 2774 021c 00       		.byte	0
 2775 021d 21       		.uleb128 0x21
 2776 021e 35       		.uleb128 0x35
 2777 021f 00       		.byte	0
 2778 0220 49       		.uleb128 0x49
 2779 0221 13       		.uleb128 0x13
 2780 0222 00       		.byte	0
 2781 0223 00       		.byte	0
 2782 0224 22       		.uleb128 0x22
 2783 0225 0F       		.uleb128 0xf
 2784 0226 00       		.byte	0
 2785 0227 0B       		.uleb128 0xb
 2786 0228 0B       		.uleb128 0xb
 2787 0229 00       		.byte	0
 2788 022a 00       		.byte	0
 2789 022b 23       		.uleb128 0x23
 2790 022c 34       		.uleb128 0x34
 2791 022d 00       		.byte	0
 2792 022e 03       		.uleb128 0x3
 2793 022f 0E       		.uleb128 0xe
ARM GAS  /tmp/ccxnK9EA.s 			page 50


 2794 0230 3A       		.uleb128 0x3a
 2795 0231 0B       		.uleb128 0xb
 2796 0232 3B       		.uleb128 0x3b
 2797 0233 0B       		.uleb128 0xb
 2798 0234 39       		.uleb128 0x39
 2799 0235 0B       		.uleb128 0xb
 2800 0236 49       		.uleb128 0x49
 2801 0237 13       		.uleb128 0x13
 2802 0238 3F       		.uleb128 0x3f
 2803 0239 19       		.uleb128 0x19
 2804 023a 3C       		.uleb128 0x3c
 2805 023b 19       		.uleb128 0x19
 2806 023c 00       		.byte	0
 2807 023d 00       		.byte	0
 2808 023e 24       		.uleb128 0x24
 2809 023f 17       		.uleb128 0x17
 2810 0240 01       		.byte	0x1
 2811 0241 0B       		.uleb128 0xb
 2812 0242 0B       		.uleb128 0xb
 2813 0243 3A       		.uleb128 0x3a
 2814 0244 0B       		.uleb128 0xb
 2815 0245 3B       		.uleb128 0x3b
 2816 0246 0B       		.uleb128 0xb
 2817 0247 39       		.uleb128 0x39
 2818 0248 0B       		.uleb128 0xb
 2819 0249 01       		.uleb128 0x1
 2820 024a 13       		.uleb128 0x13
 2821 024b 00       		.byte	0
 2822 024c 00       		.byte	0
 2823 024d 25       		.uleb128 0x25
 2824 024e 26       		.uleb128 0x26
 2825 024f 00       		.byte	0
 2826 0250 49       		.uleb128 0x49
 2827 0251 13       		.uleb128 0x13
 2828 0252 00       		.byte	0
 2829 0253 00       		.byte	0
 2830 0254 26       		.uleb128 0x26
 2831 0255 2E       		.uleb128 0x2e
 2832 0256 00       		.byte	0
 2833 0257 3F       		.uleb128 0x3f
 2834 0258 19       		.uleb128 0x19
 2835 0259 03       		.uleb128 0x3
 2836 025a 0E       		.uleb128 0xe
 2837 025b 3A       		.uleb128 0x3a
 2838 025c 0B       		.uleb128 0xb
 2839 025d 3B       		.uleb128 0x3b
 2840 025e 0B       		.uleb128 0xb
 2841 025f 39       		.uleb128 0x39
 2842 0260 0B       		.uleb128 0xb
 2843 0261 27       		.uleb128 0x27
 2844 0262 19       		.uleb128 0x19
 2845 0263 3C       		.uleb128 0x3c
 2846 0264 19       		.uleb128 0x19
 2847 0265 00       		.byte	0
 2848 0266 00       		.byte	0
 2849 0267 27       		.uleb128 0x27
 2850 0268 2E       		.uleb128 0x2e
ARM GAS  /tmp/ccxnK9EA.s 			page 51


 2851 0269 01       		.byte	0x1
 2852 026a 3F       		.uleb128 0x3f
 2853 026b 19       		.uleb128 0x19
 2854 026c 03       		.uleb128 0x3
 2855 026d 0E       		.uleb128 0xe
 2856 026e 3A       		.uleb128 0x3a
 2857 026f 0B       		.uleb128 0xb
 2858 0270 3B       		.uleb128 0x3b
 2859 0271 0B       		.uleb128 0xb
 2860 0272 39       		.uleb128 0x39
 2861 0273 0B       		.uleb128 0xb
 2862 0274 27       		.uleb128 0x27
 2863 0275 19       		.uleb128 0x19
 2864 0276 49       		.uleb128 0x49
 2865 0277 13       		.uleb128 0x13
 2866 0278 3C       		.uleb128 0x3c
 2867 0279 19       		.uleb128 0x19
 2868 027a 01       		.uleb128 0x1
 2869 027b 13       		.uleb128 0x13
 2870 027c 00       		.byte	0
 2871 027d 00       		.byte	0
 2872 027e 28       		.uleb128 0x28
 2873 027f 2E       		.uleb128 0x2e
 2874 0280 01       		.byte	0x1
 2875 0281 3F       		.uleb128 0x3f
 2876 0282 19       		.uleb128 0x19
 2877 0283 03       		.uleb128 0x3
 2878 0284 0E       		.uleb128 0xe
 2879 0285 3A       		.uleb128 0x3a
 2880 0286 0B       		.uleb128 0xb
 2881 0287 3B       		.uleb128 0x3b
 2882 0288 05       		.uleb128 0x5
 2883 0289 39       		.uleb128 0x39
 2884 028a 0B       		.uleb128 0xb
 2885 028b 27       		.uleb128 0x27
 2886 028c 19       		.uleb128 0x19
 2887 028d 11       		.uleb128 0x11
 2888 028e 01       		.uleb128 0x1
 2889 028f 12       		.uleb128 0x12
 2890 0290 06       		.uleb128 0x6
 2891 0291 40       		.uleb128 0x40
 2892 0292 18       		.uleb128 0x18
 2893 0293 7A       		.uleb128 0x7a
 2894 0294 19       		.uleb128 0x19
 2895 0295 01       		.uleb128 0x1
 2896 0296 13       		.uleb128 0x13
 2897 0297 00       		.byte	0
 2898 0298 00       		.byte	0
 2899 0299 29       		.uleb128 0x29
 2900 029a 0B       		.uleb128 0xb
 2901 029b 01       		.byte	0x1
 2902 029c 55       		.uleb128 0x55
 2903 029d 17       		.uleb128 0x17
 2904 029e 01       		.uleb128 0x1
 2905 029f 13       		.uleb128 0x13
 2906 02a0 00       		.byte	0
 2907 02a1 00       		.byte	0
ARM GAS  /tmp/ccxnK9EA.s 			page 52


 2908 02a2 2A       		.uleb128 0x2a
 2909 02a3 2E       		.uleb128 0x2e
 2910 02a4 01       		.byte	0x1
 2911 02a5 3F       		.uleb128 0x3f
 2912 02a6 19       		.uleb128 0x19
 2913 02a7 03       		.uleb128 0x3
 2914 02a8 0E       		.uleb128 0xe
 2915 02a9 3A       		.uleb128 0x3a
 2916 02aa 0B       		.uleb128 0xb
 2917 02ab 3B       		.uleb128 0x3b
 2918 02ac 05       		.uleb128 0x5
 2919 02ad 39       		.uleb128 0x39
 2920 02ae 0B       		.uleb128 0xb
 2921 02af 27       		.uleb128 0x27
 2922 02b0 19       		.uleb128 0x19
 2923 02b1 49       		.uleb128 0x49
 2924 02b2 13       		.uleb128 0x13
 2925 02b3 11       		.uleb128 0x11
 2926 02b4 01       		.uleb128 0x1
 2927 02b5 12       		.uleb128 0x12
 2928 02b6 06       		.uleb128 0x6
 2929 02b7 40       		.uleb128 0x40
 2930 02b8 18       		.uleb128 0x18
 2931 02b9 7A       		.uleb128 0x7a
 2932 02ba 19       		.uleb128 0x19
 2933 02bb 01       		.uleb128 0x1
 2934 02bc 13       		.uleb128 0x13
 2935 02bd 00       		.byte	0
 2936 02be 00       		.byte	0
 2937 02bf 2B       		.uleb128 0x2b
 2938 02c0 2E       		.uleb128 0x2e
 2939 02c1 01       		.byte	0x1
 2940 02c2 3F       		.uleb128 0x3f
 2941 02c3 19       		.uleb128 0x19
 2942 02c4 03       		.uleb128 0x3
 2943 02c5 0E       		.uleb128 0xe
 2944 02c6 3A       		.uleb128 0x3a
 2945 02c7 0B       		.uleb128 0xb
 2946 02c8 3B       		.uleb128 0x3b
 2947 02c9 0B       		.uleb128 0xb
 2948 02ca 39       		.uleb128 0x39
 2949 02cb 0B       		.uleb128 0xb
 2950 02cc 27       		.uleb128 0x27
 2951 02cd 19       		.uleb128 0x19
 2952 02ce 49       		.uleb128 0x49
 2953 02cf 13       		.uleb128 0x13
 2954 02d0 20       		.uleb128 0x20
 2955 02d1 0B       		.uleb128 0xb
 2956 02d2 01       		.uleb128 0x1
 2957 02d3 13       		.uleb128 0x13
 2958 02d4 00       		.byte	0
 2959 02d5 00       		.byte	0
 2960 02d6 2C       		.uleb128 0x2c
 2961 02d7 1D       		.uleb128 0x1d
 2962 02d8 01       		.byte	0x1
 2963 02d9 31       		.uleb128 0x31
 2964 02da 13       		.uleb128 0x13
ARM GAS  /tmp/ccxnK9EA.s 			page 53


 2965 02db 52       		.uleb128 0x52
 2966 02dc 01       		.uleb128 0x1
 2967 02dd B842     		.uleb128 0x2138
 2968 02df 0B       		.uleb128 0xb
 2969 02e0 11       		.uleb128 0x11
 2970 02e1 01       		.uleb128 0x1
 2971 02e2 12       		.uleb128 0x12
 2972 02e3 06       		.uleb128 0x6
 2973 02e4 58       		.uleb128 0x58
 2974 02e5 0B       		.uleb128 0xb
 2975 02e6 59       		.uleb128 0x59
 2976 02e7 0B       		.uleb128 0xb
 2977 02e8 57       		.uleb128 0x57
 2978 02e9 0B       		.uleb128 0xb
 2979 02ea 00       		.byte	0
 2980 02eb 00       		.byte	0
 2981 02ec 2D       		.uleb128 0x2d
 2982 02ed 48       		.uleb128 0x48
 2983 02ee 01       		.byte	0x1
 2984 02ef 7D       		.uleb128 0x7d
 2985 02f0 01       		.uleb128 0x1
 2986 02f1 8201     		.uleb128 0x82
 2987 02f3 19       		.uleb128 0x19
 2988 02f4 7F       		.uleb128 0x7f
 2989 02f5 13       		.uleb128 0x13
 2990 02f6 01       		.uleb128 0x1
 2991 02f7 13       		.uleb128 0x13
 2992 02f8 00       		.byte	0
 2993 02f9 00       		.byte	0
 2994 02fa 2E       		.uleb128 0x2e
 2995 02fb 05       		.uleb128 0x5
 2996 02fc 00       		.byte	0
 2997 02fd 03       		.uleb128 0x3
 2998 02fe 08       		.uleb128 0x8
 2999 02ff 3A       		.uleb128 0x3a
 3000 0300 0B       		.uleb128 0xb
 3001 0301 3B       		.uleb128 0x3b
 3002 0302 0B       		.uleb128 0xb
 3003 0303 39       		.uleb128 0x39
 3004 0304 0B       		.uleb128 0xb
 3005 0305 49       		.uleb128 0x49
 3006 0306 13       		.uleb128 0x13
 3007 0307 02       		.uleb128 0x2
 3008 0308 18       		.uleb128 0x18
 3009 0309 00       		.byte	0
 3010 030a 00       		.byte	0
 3011 030b 2F       		.uleb128 0x2f
 3012 030c 2E       		.uleb128 0x2e
 3013 030d 01       		.byte	0x1
 3014 030e 03       		.uleb128 0x3
 3015 030f 0E       		.uleb128 0xe
 3016 0310 3A       		.uleb128 0x3a
 3017 0311 0B       		.uleb128 0xb
 3018 0312 3B       		.uleb128 0x3b
 3019 0313 0B       		.uleb128 0xb
 3020 0314 39       		.uleb128 0x39
 3021 0315 0B       		.uleb128 0xb
ARM GAS  /tmp/ccxnK9EA.s 			page 54


 3022 0316 27       		.uleb128 0x27
 3023 0317 19       		.uleb128 0x19
 3024 0318 20       		.uleb128 0x20
 3025 0319 0B       		.uleb128 0xb
 3026 031a 01       		.uleb128 0x1
 3027 031b 13       		.uleb128 0x13
 3028 031c 00       		.byte	0
 3029 031d 00       		.byte	0
 3030 031e 30       		.uleb128 0x30
 3031 031f 2E       		.uleb128 0x2e
 3032 0320 01       		.byte	0x1
 3033 0321 31       		.uleb128 0x31
 3034 0322 13       		.uleb128 0x13
 3035 0323 11       		.uleb128 0x11
 3036 0324 01       		.uleb128 0x1
 3037 0325 12       		.uleb128 0x12
 3038 0326 06       		.uleb128 0x6
 3039 0327 40       		.uleb128 0x40
 3040 0328 18       		.uleb128 0x18
 3041 0329 7A       		.uleb128 0x7a
 3042 032a 19       		.uleb128 0x19
 3043 032b 00       		.byte	0
 3044 032c 00       		.byte	0
 3045 032d 00       		.byte	0
 3046              		.section	.debug_loclists,"",%progbits
 3047 0000 AC020000 		.4byte	.Ldebug_loc3-.Ldebug_loc2
 3048              	.Ldebug_loc2:
 3049 0004 0500     		.2byte	0x5
 3050 0006 04       		.byte	0x4
 3051 0007 00       		.byte	0
 3052 0008 00000000 		.4byte	0
 3053              	.Ldebug_loc0:
 3054              	.LVUS45:
 3055 000c 00       		.uleb128 .LVU344
 3056 000d 00       		.uleb128 0
 3057              	.LLST45:
 3058 000e 08       		.byte	0x8
 3059 000f 0C000000 		.4byte	.LVL60
 3060 0013 70       		.uleb128 .LFE14-.LVL60
 3061 0014 01       		.uleb128 0x1
 3062 0015 54       		.byte	0x54
 3063 0016 00       		.byte	0
 3064              	.LVUS47:
 3065 0017 03       		.uleb128 .LVU354
 3066 0018 00       		.uleb128 .LVU364
 3067              	.LLST47:
 3068 0019 08       		.byte	0x8
 3069 001a 20000000 		.4byte	.LVL61
 3070 001e 10       		.uleb128 .LVL63-.LVL61
 3071 001f 02       		.uleb128 0x2
 3072 0020 74       		.byte	0x74
 3073 0021 3C       		.sleb128 60
 3074 0022 00       		.byte	0
 3075              	.LVUS49:
 3076 0023 01       		.uleb128 .LVU372
 3077 0024 00       		.uleb128 .LVU378
 3078              	.LLST49:
ARM GAS  /tmp/ccxnK9EA.s 			page 55


 3079 0025 08       		.byte	0x8
 3080 0026 4C000000 		.4byte	.LVL65
 3081 002a 0B       		.uleb128 .LVL66-1-.LVL65
 3082 002b 01       		.uleb128 0x1
 3083 002c 50       		.byte	0x50
 3084 002d 00       		.byte	0
 3085              	.LVUS51:
 3086 002e 05       		.uleb128 .LVU356
 3087 002f 00       		.uleb128 .LVU366
 3088              	.LLST51:
 3089 0030 08       		.byte	0x8
 3090 0031 20000000 		.4byte	.LVL61
 3091 0035 18       		.uleb128 .LVL64-.LVL61
 3092 0036 01       		.uleb128 0x1
 3093 0037 53       		.byte	0x53
 3094 0038 00       		.byte	0
 3095              	.LVUS52:
 3096 0039 00       		.uleb128 .LVU360
 3097 003a 01       		.uleb128 .LVU372
 3098              	.LLST52:
 3099 003b 08       		.byte	0x8
 3100 003c 24000000 		.4byte	.LVL62
 3101 0040 28       		.uleb128 .LVL65-.LVL62
 3102 0041 01       		.uleb128 0x1
 3103 0042 50       		.byte	0x50
 3104 0043 00       		.byte	0
 3105              	.LVUS37:
 3106 0044 00       		.uleb128 .LVU282
 3107 0045 00       		.uleb128 .LVU331
 3108 0046 00       		.uleb128 .LVU333
 3109 0047 00       		.uleb128 0
 3110              	.LLST37:
 3111 0048 06       		.byte	0x6
 3112 0049 0C000000 		.4byte	.LVL50
 3113 004d 04       		.byte	0x4
 3114 004e 00       		.uleb128 .LVL50-.LVL50
 3115 004f 6B       		.uleb128 .LVL58-1-.LVL50
 3116 0050 01       		.uleb128 0x1
 3117 0051 5C       		.byte	0x5c
 3118 0052 04       		.byte	0x4
 3119 0053 74       		.uleb128 .LVL59-.LVL50
 3120 0054 8801     		.uleb128 .LFE13-.LVL50
 3121 0056 01       		.uleb128 0x1
 3122 0057 5C       		.byte	0x5c
 3123 0058 00       		.byte	0
 3124              	.LVUS38:
 3125 0059 04       		.uleb128 .LVU290
 3126 005a 00       		.uleb128 0
 3127              	.LLST38:
 3128 005b 08       		.byte	0x8
 3129 005c 10000000 		.4byte	.LVL51
 3130 0060 8401     		.uleb128 .LFE13-.LVL51
 3131 0062 01       		.uleb128 0x1
 3132 0063 54       		.byte	0x54
 3133 0064 00       		.byte	0
 3134              	.LVUS39:
 3135 0065 01       		.uleb128 .LVU302
ARM GAS  /tmp/ccxnK9EA.s 			page 56


 3136 0066 00       		.uleb128 .LVU313
 3137              	.LLST39:
 3138 0067 08       		.byte	0x8
 3139 0068 2C000000 		.4byte	.LVL52
 3140 006c 2C       		.uleb128 .LVL55-.LVL52
 3141 006d 01       		.uleb128 0x1
 3142 006e 53       		.byte	0x53
 3143 006f 00       		.byte	0
 3144              	.LVUS40:
 3145 0070 01       		.uleb128 .LVU323
 3146 0071 00       		.uleb128 .LVU331
 3147              	.LLST40:
 3148 0072 08       		.byte	0x8
 3149 0073 68000000 		.4byte	.LVL57
 3150 0077 0F       		.uleb128 .LVL58-1-.LVL57
 3151 0078 01       		.uleb128 0x1
 3152 0079 50       		.byte	0x50
 3153 007a 00       		.byte	0
 3154              	.LVUS41:
 3155 007b 00       		.uleb128 .LVU301
 3156 007c 00       		.uleb128 .LVU331
 3157              	.LLST41:
 3158 007d 08       		.byte	0x8
 3159 007e 2C000000 		.4byte	.LVL52
 3160 0082 4B       		.uleb128 .LVL58-1-.LVL52
 3161 0083 01       		.uleb128 0x1
 3162 0084 51       		.byte	0x51
 3163 0085 00       		.byte	0
 3164              	.LVUS43:
 3165 0086 01       		.uleb128 .LVU317
 3166 0087 01       		.uleb128 .LVU323
 3167              	.LLST43:
 3168 0088 08       		.byte	0x8
 3169 0089 60000000 		.4byte	.LVL56
 3170 008d 08       		.uleb128 .LVL57-.LVL56
 3171 008e 01       		.uleb128 0x1
 3172 008f 54       		.byte	0x54
 3173 0090 00       		.byte	0
 3174              	.LVUS44:
 3175 0091 03       		.uleb128 .LVU319
 3176 0092 01       		.uleb128 .LVU323
 3177              	.LLST44:
 3178 0093 08       		.byte	0x8
 3179 0094 60000000 		.4byte	.LVL56
 3180 0098 08       		.uleb128 .LVL57-.LVL56
 3181 0099 01       		.uleb128 0x1
 3182 009a 50       		.byte	0x50
 3183 009b 00       		.byte	0
 3184              	.LVUS29:
 3185 009c 00       		.uleb128 .LVU218
 3186 009d 00       		.uleb128 .LVU269
 3187 009e 00       		.uleb128 .LVU275
 3188 009f 00       		.uleb128 0
 3189              	.LLST29:
 3190 00a0 06       		.byte	0x6
 3191 00a1 0C000000 		.4byte	.LVL39
 3192 00a5 04       		.byte	0x4
ARM GAS  /tmp/ccxnK9EA.s 			page 57


 3193 00a6 00       		.uleb128 .LVL39-.LVL39
 3194 00a7 73       		.uleb128 .LVL48-1-.LVL39
 3195 00a8 01       		.uleb128 0x1
 3196 00a9 5C       		.byte	0x5c
 3197 00aa 04       		.byte	0x4
 3198 00ab 8001     		.uleb128 .LVL49-.LVL39
 3199 00ad 9001     		.uleb128 .LFE12-.LVL39
 3200 00af 01       		.uleb128 0x1
 3201 00b0 5C       		.byte	0x5c
 3202 00b1 00       		.byte	0
 3203              	.LVUS30:
 3204 00b2 04       		.uleb128 .LVU227
 3205 00b3 00       		.uleb128 0
 3206              	.LLST30:
 3207 00b4 08       		.byte	0x8
 3208 00b5 14000000 		.4byte	.LVL40
 3209 00b9 8801     		.uleb128 .LFE12-.LVL40
 3210 00bb 01       		.uleb128 0x1
 3211 00bc 54       		.byte	0x54
 3212 00bd 00       		.byte	0
 3213              	.LVUS31:
 3214 00be 01       		.uleb128 .LVU239
 3215 00bf 00       		.uleb128 .LVU250
 3216              	.LLST31:
 3217 00c0 08       		.byte	0x8
 3218 00c1 30000000 		.4byte	.LVL41
 3219 00c5 2C       		.uleb128 .LVL44-.LVL41
 3220 00c6 01       		.uleb128 0x1
 3221 00c7 53       		.byte	0x53
 3222 00c8 00       		.byte	0
 3223              	.LVUS32:
 3224 00c9 01       		.uleb128 .LVU261
 3225 00ca 00       		.uleb128 .LVU269
 3226              	.LLST32:
 3227 00cb 08       		.byte	0x8
 3228 00cc 70000000 		.4byte	.LVL47
 3229 00d0 0F       		.uleb128 .LVL48-1-.LVL47
 3230 00d1 01       		.uleb128 0x1
 3231 00d2 50       		.byte	0x50
 3232 00d3 00       		.byte	0
 3233              	.LVUS33:
 3234 00d4 00       		.uleb128 .LVU238
 3235 00d5 00       		.uleb128 .LVU259
 3236 00d6 00       		.uleb128 .LVU259
 3237 00d7 00       		.uleb128 .LVU269
 3238              	.LLST33:
 3239 00d8 06       		.byte	0x6
 3240 00d9 30000000 		.4byte	.LVL41
 3241 00dd 04       		.byte	0x4
 3242 00de 00       		.uleb128 .LVL41-.LVL41
 3243 00df 3C       		.uleb128 .LVL46-.LVL41
 3244 00e0 01       		.uleb128 0x1
 3245 00e1 51       		.byte	0x51
 3246 00e2 04       		.byte	0x4
 3247 00e3 3C       		.uleb128 .LVL46-.LVL41
 3248 00e4 4F       		.uleb128 .LVL48-1-.LVL41
 3249 00e5 02       		.uleb128 0x2
ARM GAS  /tmp/ccxnK9EA.s 			page 58


 3250 00e6 7C       		.byte	0x7c
 3251 00e7 08       		.sleb128 8
 3252 00e8 00       		.byte	0
 3253              	.LVUS35:
 3254 00e9 01       		.uleb128 .LVU254
 3255 00ea 01       		.uleb128 .LVU261
 3256              	.LLST35:
 3257 00eb 08       		.byte	0x8
 3258 00ec 64000000 		.4byte	.LVL45
 3259 00f0 0C       		.uleb128 .LVL47-.LVL45
 3260 00f1 01       		.uleb128 0x1
 3261 00f2 54       		.byte	0x54
 3262 00f3 00       		.byte	0
 3263              	.LVUS36:
 3264 00f4 03       		.uleb128 .LVU256
 3265 00f5 01       		.uleb128 .LVU261
 3266              	.LLST36:
 3267 00f6 08       		.byte	0x8
 3268 00f7 64000000 		.4byte	.LVL45
 3269 00fb 0C       		.uleb128 .LVL47-.LVL45
 3270 00fc 01       		.uleb128 0x1
 3271 00fd 50       		.byte	0x50
 3272 00fe 00       		.byte	0
 3273              	.LVUS21:
 3274 00ff 00       		.uleb128 0
 3275 0100 00       		.uleb128 .LVU175
 3276 0101 00       		.uleb128 .LVU175
 3277 0102 00       		.uleb128 0
 3278              	.LLST21:
 3279 0103 06       		.byte	0x6
 3280 0104 00000000 		.4byte	.LVL30
 3281 0108 04       		.byte	0x4
 3282 0109 00       		.uleb128 .LVL30-.LVL30
 3283 010a 18       		.uleb128 .LVL33-.LVL30
 3284 010b 01       		.uleb128 0x1
 3285 010c 50       		.byte	0x50
 3286 010d 04       		.byte	0x4
 3287 010e 18       		.uleb128 .LVL33-.LVL30
 3288 010f 3C       		.uleb128 .LFE10-.LVL30
 3289 0110 01       		.uleb128 0x1
 3290 0111 53       		.byte	0x53
 3291 0112 00       		.byte	0
 3292              	.LVUS22:
 3293 0113 01       		.uleb128 .LVU184
 3294 0114 00       		.uleb128 0
 3295              	.LLST22:
 3296 0115 08       		.byte	0x8
 3297 0116 30000000 		.4byte	.LVL34
 3298 011a 0C       		.uleb128 .LFE10-.LVL34
 3299 011b 01       		.uleb128 0x1
 3300 011c 50       		.byte	0x50
 3301 011d 00       		.byte	0
 3302              	.LVUS23:
 3303 011e 03       		.uleb128 .LVU164
 3304 011f 00       		.uleb128 .LVU175
 3305 0120 00       		.uleb128 .LVU175
 3306 0121 01       		.uleb128 .LVU184
ARM GAS  /tmp/ccxnK9EA.s 			page 59


 3307              	.LLST23:
 3308 0122 06       		.byte	0x6
 3309 0123 08000000 		.4byte	.LVL31
 3310 0127 04       		.byte	0x4
 3311 0128 00       		.uleb128 .LVL31-.LVL31
 3312 0129 10       		.uleb128 .LVL33-.LVL31
 3313 012a 01       		.uleb128 0x1
 3314 012b 50       		.byte	0x50
 3315 012c 04       		.byte	0x4
 3316 012d 10       		.uleb128 .LVL33-.LVL31
 3317 012e 28       		.uleb128 .LVL34-.LVL31
 3318 012f 01       		.uleb128 0x1
 3319 0130 53       		.byte	0x53
 3320 0131 00       		.byte	0
 3321              	.LVUS25:
 3322 0132 00       		.uleb128 .LVU171
 3323 0133 00       		.uleb128 .LVU175
 3324 0134 00       		.uleb128 .LVU175
 3325 0135 01       		.uleb128 .LVU184
 3326              	.LLST25:
 3327 0136 06       		.byte	0x6
 3328 0137 10000000 		.4byte	.LVL32
 3329 013b 04       		.byte	0x4
 3330 013c 00       		.uleb128 .LVL32-.LVL32
 3331 013d 08       		.uleb128 .LVL33-.LVL32
 3332 013e 01       		.uleb128 0x1
 3333 013f 50       		.byte	0x50
 3334 0140 04       		.byte	0x4
 3335 0141 08       		.uleb128 .LVL33-.LVL32
 3336 0142 20       		.uleb128 .LVL34-.LVL32
 3337 0143 01       		.uleb128 0x1
 3338 0144 53       		.byte	0x53
 3339 0145 00       		.byte	0
 3340              	.LVUS0:
 3341 0146 00       		.uleb128 0
 3342 0147 00       		.uleb128 .LVU15
 3343 0148 00       		.uleb128 .LVU15
 3344 0149 00       		.uleb128 .LVU57
 3345 014a 00       		.uleb128 .LVU57
 3346 014b 00       		.uleb128 .LVU58
 3347 014c 00       		.uleb128 .LVU58
 3348 014d 00       		.uleb128 .LVU58
 3349 014e 00       		.uleb128 .LVU58
 3350 014f 00       		.uleb128 0
 3351              	.LLST0:
 3352 0150 06       		.byte	0x6
 3353 0151 00000000 		.4byte	.LVL1
 3354 0155 04       		.byte	0x4
 3355 0156 00       		.uleb128 .LVL1-.LVL1
 3356 0157 0C       		.uleb128 .LVL2-.LVL1
 3357 0158 01       		.uleb128 0x1
 3358 0159 50       		.byte	0x50
 3359 015a 04       		.byte	0x4
 3360 015b 0C       		.uleb128 .LVL2-.LVL1
 3361 015c 9401     		.uleb128 .LVL10-.LVL1
 3362 015e 01       		.uleb128 0x1
 3363 015f 55       		.byte	0x55
ARM GAS  /tmp/ccxnK9EA.s 			page 60


 3364 0160 04       		.byte	0x4
 3365 0161 9401     		.uleb128 .LVL10-.LVL1
 3366 0163 9701     		.uleb128 .LVL11-1-.LVL1
 3367 0165 05       		.uleb128 0x5
 3368 0166 73       		.byte	0x73
 3369 0167 00       		.sleb128 0
 3370 0168 06       		.byte	0x6
 3371 0169 23       		.byte	0x23
 3372 016a 24       		.uleb128 0x24
 3373 016b 04       		.byte	0x4
 3374 016c 9701     		.uleb128 .LVL11-1-.LVL1
 3375 016e 9801     		.uleb128 .LVL11-.LVL1
 3376 0170 04       		.uleb128 0x4
 3377 0171 A3       		.byte	0xa3
 3378 0172 01       		.uleb128 0x1
 3379 0173 50       		.byte	0x50
 3380 0174 9F       		.byte	0x9f
 3381 0175 04       		.byte	0x4
 3382 0176 9801     		.uleb128 .LVL11-.LVL1
 3383 0178 FC02     		.uleb128 .LFE9-.LVL1
 3384 017a 01       		.uleb128 0x1
 3385 017b 55       		.byte	0x55
 3386 017c 00       		.byte	0
 3387              	.LVUS1:
 3388 017d 00       		.uleb128 .LVU18
 3389 017e 00       		.uleb128 .LVU57
 3390 017f 00       		.uleb128 .LVU57
 3391 0180 00       		.uleb128 .LVU58
 3392 0181 00       		.uleb128 .LVU58
 3393 0182 00       		.uleb128 0
 3394              	.LLST1:
 3395 0183 06       		.byte	0x6
 3396 0184 18000000 		.4byte	.LVL3
 3397 0188 04       		.byte	0x4
 3398 0189 00       		.uleb128 .LVL3-.LVL3
 3399 018a 7C       		.uleb128 .LVL10-.LVL3
 3400 018b 01       		.uleb128 0x1
 3401 018c 54       		.byte	0x54
 3402 018d 04       		.byte	0x4
 3403 018e 7C       		.uleb128 .LVL10-.LVL3
 3404 018f 7F       		.uleb128 .LVL11-1-.LVL3
 3405 0190 02       		.uleb128 0x2
 3406 0191 73       		.byte	0x73
 3407 0192 00       		.sleb128 0
 3408 0193 04       		.byte	0x4
 3409 0194 8001     		.uleb128 .LVL11-.LVL3
 3410 0196 E402     		.uleb128 .LFE9-.LVL3
 3411 0198 01       		.uleb128 0x1
 3412 0199 54       		.byte	0x54
 3413 019a 00       		.byte	0
 3414              	.LVUS3:
 3415 019b 00       		.uleb128 .LVU24
 3416 019c 00       		.uleb128 .LVU32
 3417 019d 00       		.uleb128 .LVU67
 3418 019e 00       		.uleb128 .LVU78
 3419 019f 00       		.uleb128 .LVU79
 3420 01a0 00       		.uleb128 0
ARM GAS  /tmp/ccxnK9EA.s 			page 61


 3421              	.LLST3:
 3422 01a1 06       		.byte	0x6
 3423 01a2 1C000000 		.4byte	.LVL4
 3424 01a6 04       		.byte	0x4
 3425 01a7 00       		.uleb128 .LVL4-.LVL4
 3426 01a8 30       		.uleb128 .LVL5-.LVL4
 3427 01a9 01       		.uleb128 0x1
 3428 01aa 50       		.byte	0x50
 3429 01ab 04       		.byte	0x4
 3430 01ac 9001     		.uleb128 .LVL12-.LVL4
 3431 01ae A301     		.uleb128 .LVL14-1-.LVL4
 3432 01b0 01       		.uleb128 0x1
 3433 01b1 50       		.byte	0x50
 3434 01b2 04       		.byte	0x4
 3435 01b3 A801     		.uleb128 .LVL15-.LVL4
 3436 01b5 E002     		.uleb128 .LFE9-.LVL4
 3437 01b7 01       		.uleb128 0x1
 3438 01b8 50       		.byte	0x50
 3439 01b9 00       		.byte	0
 3440              	.LVUS5:
 3441 01ba 01       		.uleb128 .LVU33
 3442 01bb 00       		.uleb128 .LVU52
 3443              	.LLST5:
 3444 01bc 08       		.byte	0x8
 3445 01bd 4C000000 		.4byte	.LVL5
 3446 01c1 40       		.uleb128 .LVL9-.LVL5
 3447 01c2 01       		.uleb128 0x1
 3448 01c3 55       		.byte	0x55
 3449 01c4 00       		.byte	0
 3450              	.LVUS6:
 3451 01c5 01       		.uleb128 .LVU33
 3452 01c6 00       		.uleb128 .LVU52
 3453              	.LLST6:
 3454 01c7 08       		.byte	0x8
 3455 01c8 4C000000 		.4byte	.LVL5
 3456 01cc 40       		.uleb128 .LVL9-.LVL5
 3457 01cd 01       		.uleb128 0x1
 3458 01ce 54       		.byte	0x54
 3459 01cf 00       		.byte	0
 3460              	.LVUS7:
 3461 01d0 03       		.uleb128 .LVU35
 3462 01d1 00       		.uleb128 .LVU36
 3463 01d2 00       		.uleb128 .LVU36
 3464 01d3 00       		.uleb128 .LVU49
 3465 01d4 00       		.uleb128 .LVU49
 3466 01d5 00       		.uleb128 .LVU52
 3467              	.LLST7:
 3468 01d6 06       		.byte	0x6
 3469 01d7 4C000000 		.4byte	.LVL5
 3470 01db 04       		.byte	0x4
 3471 01dc 00       		.uleb128 .LVL5-.LVL5
 3472 01dd 08       		.uleb128 .LVL6-.LVL5
 3473 01de 01       		.uleb128 0x1
 3474 01df 55       		.byte	0x55
 3475 01e0 04       		.byte	0x4
 3476 01e1 08       		.uleb128 .LVL6-.LVL5
 3477 01e2 38       		.uleb128 .LVL8-.LVL5
ARM GAS  /tmp/ccxnK9EA.s 			page 62


 3478 01e3 01       		.uleb128 0x1
 3479 01e4 53       		.byte	0x53
 3480 01e5 04       		.byte	0x4
 3481 01e6 38       		.uleb128 .LVL8-.LVL5
 3482 01e7 40       		.uleb128 .LVL9-.LVL5
 3483 01e8 02       		.uleb128 0x2
 3484 01e9 74       		.byte	0x74
 3485 01ea 00       		.sleb128 0
 3486 01eb 00       		.byte	0
 3487              	.LVUS8:
 3488 01ec 01       		.uleb128 .LVU68
 3489 01ed 01       		.uleb128 .LVU76
 3490              	.LLST8:
 3491 01ee 08       		.byte	0x8
 3492 01ef AC000000 		.4byte	.LVL12
 3493 01f3 10       		.uleb128 .LVL13-.LVL12
 3494 01f4 01       		.uleb128 0x1
 3495 01f5 50       		.byte	0x50
 3496 01f6 00       		.byte	0
 3497              	.LVUS10:
 3498 01f7 01       		.uleb128 .LVU80
 3499 01f8 01       		.uleb128 .LVU89
 3500              	.LLST10:
 3501 01f9 08       		.byte	0x8
 3502 01fa C4000000 		.4byte	.LVL15
 3503 01fe 14       		.uleb128 .LVL16-.LVL15
 3504 01ff 01       		.uleb128 0x1
 3505 0200 50       		.byte	0x50
 3506 0201 00       		.byte	0
 3507              	.LVUS11:
 3508 0202 01       		.uleb128 .LVU89
 3509 0203 00       		.uleb128 .LVU108
 3510              	.LLST11:
 3511 0204 08       		.byte	0x8
 3512 0205 D8000000 		.4byte	.LVL16
 3513 0209 3C       		.uleb128 .LVL21-.LVL16
 3514 020a 01       		.uleb128 0x1
 3515 020b 5C       		.byte	0x5c
 3516 020c 00       		.byte	0
 3517              	.LVUS12:
 3518 020d 01       		.uleb128 .LVU89
 3519 020e 00       		.uleb128 .LVU108
 3520              	.LLST12:
 3521 020f 08       		.byte	0x8
 3522 0210 D8000000 		.4byte	.LVL16
 3523 0214 3C       		.uleb128 .LVL21-.LVL16
 3524 0215 01       		.uleb128 0x1
 3525 0216 50       		.byte	0x50
 3526 0217 00       		.byte	0
 3527              	.LVUS13:
 3528 0218 04       		.uleb128 .LVU92
 3529 0219 00       		.uleb128 .LVU93
 3530 021a 00       		.uleb128 .LVU93
 3531 021b 00       		.uleb128 .LVU106
 3532 021c 00       		.uleb128 .LVU106
 3533 021d 00       		.uleb128 .LVU107
 3534              	.LLST13:
ARM GAS  /tmp/ccxnK9EA.s 			page 63


 3535 021e 06       		.byte	0x6
 3536 021f D8000000 		.4byte	.LVL16
 3537 0223 04       		.byte	0x4
 3538 0224 00       		.uleb128 .LVL16-.LVL16
 3539 0225 08       		.uleb128 .LVL17-.LVL16
 3540 0226 01       		.uleb128 0x1
 3541 0227 5C       		.byte	0x5c
 3542 0228 04       		.byte	0x4
 3543 0229 08       		.uleb128 .LVL17-.LVL16
 3544 022a 34       		.uleb128 .LVL19-.LVL16
 3545 022b 01       		.uleb128 0x1
 3546 022c 53       		.byte	0x53
 3547 022d 04       		.byte	0x4
 3548 022e 34       		.uleb128 .LVL19-.LVL16
 3549 022f 38       		.uleb128 .LVL20-.LVL16
 3550 0230 02       		.uleb128 0x2
 3551 0231 70       		.byte	0x70
 3552 0232 00       		.sleb128 0
 3553 0233 00       		.byte	0
 3554              	.LVUS15:
 3555 0234 02       		.uleb128 .LVU110
 3556 0235 01       		.uleb128 .LVU119
 3557              	.LLST15:
 3558 0236 08       		.byte	0x8
 3559 0237 14010000 		.4byte	.LVL21
 3560 023b 14       		.uleb128 .LVL22-.LVL21
 3561 023c 01       		.uleb128 0x1
 3562 023d 50       		.byte	0x50
 3563 023e 00       		.byte	0
 3564              	.LVUS17:
 3565 023f 01       		.uleb128 .LVU119
 3566 0240 00       		.uleb128 .LVU140
 3567              	.LLST17:
 3568 0241 08       		.byte	0x8
 3569 0242 28010000 		.4byte	.LVL22
 3570 0246 3C       		.uleb128 .LVL26-.LVL22
 3571 0247 01       		.uleb128 0x1
 3572 0248 5C       		.byte	0x5c
 3573 0249 00       		.byte	0
 3574              	.LVUS18:
 3575 024a 01       		.uleb128 .LVU119
 3576 024b 00       		.uleb128 .LVU140
 3577              	.LLST18:
 3578 024c 08       		.byte	0x8
 3579 024d 28010000 		.4byte	.LVL22
 3580 0251 3C       		.uleb128 .LVL26-.LVL22
 3581 0252 01       		.uleb128 0x1
 3582 0253 50       		.byte	0x50
 3583 0254 00       		.byte	0
 3584              	.LVUS19:
 3585 0255 04       		.uleb128 .LVU122
 3586 0256 00       		.uleb128 .LVU124
 3587 0257 00       		.uleb128 .LVU124
 3588 0258 00       		.uleb128 .LVU137
 3589 0259 00       		.uleb128 .LVU137
 3590 025a 00       		.uleb128 .LVU140
 3591              	.LLST19:
ARM GAS  /tmp/ccxnK9EA.s 			page 64


 3592 025b 06       		.byte	0x6
 3593 025c 28010000 		.4byte	.LVL22
 3594 0260 04       		.byte	0x4
 3595 0261 00       		.uleb128 .LVL22-.LVL22
 3596 0262 08       		.uleb128 .LVL23-.LVL22
 3597 0263 01       		.uleb128 0x1
 3598 0264 5C       		.byte	0x5c
 3599 0265 04       		.byte	0x4
 3600 0266 08       		.uleb128 .LVL23-.LVL22
 3601 0267 34       		.uleb128 .LVL25-.LVL22
 3602 0268 01       		.uleb128 0x1
 3603 0269 53       		.byte	0x53
 3604 026a 04       		.byte	0x4
 3605 026b 34       		.uleb128 .LVL25-.LVL22
 3606 026c 3C       		.uleb128 .LVL26-.LVL22
 3607 026d 02       		.uleb128 0x2
 3608 026e 70       		.byte	0x70
 3609 026f 00       		.sleb128 0
 3610 0270 00       		.byte	0
 3611              	.LVUS20:
 3612 0271 00       		.uleb128 0
 3613 0272 00       		.uleb128 .LVU152
 3614 0273 00       		.uleb128 .LVU152
 3615 0274 00       		.uleb128 0
 3616              	.LLST20:
 3617 0275 06       		.byte	0x6
 3618 0276 00000000 		.4byte	.LVL28
 3619 027a 04       		.byte	0x4
 3620 027b 00       		.uleb128 .LVL28-.LVL28
 3621 027c 0B       		.uleb128 .LVL29-1-.LVL28
 3622 027d 01       		.uleb128 0x1
 3623 027e 50       		.byte	0x50
 3624 027f 04       		.byte	0x4
 3625 0280 0B       		.uleb128 .LVL29-1-.LVL28
 3626 0281 14       		.uleb128 .LFE8-.LVL28
 3627 0282 04       		.uleb128 0x4
 3628 0283 A3       		.byte	0xa3
 3629 0284 01       		.uleb128 0x1
 3630 0285 50       		.byte	0x50
 3631 0286 9F       		.byte	0x9f
 3632 0287 00       		.byte	0
 3633              	.LVUS26:
 3634 0288 00       		.uleb128 0
 3635 0289 00       		.uleb128 .LVU202
 3636 028a 00       		.uleb128 .LVU202
 3637 028b 00       		.uleb128 0
 3638              	.LLST26:
 3639 028c 06       		.byte	0x6
 3640 028d 00000000 		.4byte	.LVL35
 3641 0291 04       		.byte	0x4
 3642 0292 00       		.uleb128 .LVL35-.LVL35
 3643 0293 14       		.uleb128 .LVL37-.LVL35
 3644 0294 01       		.uleb128 0x1
 3645 0295 50       		.byte	0x50
 3646 0296 04       		.byte	0x4
 3647 0297 14       		.uleb128 .LVL37-.LVL35
 3648 0298 34       		.uleb128 .LFE11-.LVL35
ARM GAS  /tmp/ccxnK9EA.s 			page 65


 3649 0299 01       		.uleb128 0x1
 3650 029a 53       		.byte	0x53
 3651 029b 00       		.byte	0
 3652              	.LVUS28:
 3653 029c 00       		.uleb128 .LVU198
 3654 029d 00       		.uleb128 .LVU202
 3655 029e 00       		.uleb128 .LVU202
 3656 029f 01       		.uleb128 .LVU211
 3657              	.LLST28:
 3658 02a0 06       		.byte	0x6
 3659 02a1 0C000000 		.4byte	.LVL36
 3660 02a5 04       		.byte	0x4
 3661 02a6 00       		.uleb128 .LVL36-.LVL36
 3662 02a7 08       		.uleb128 .LVL37-.LVL36
 3663 02a8 01       		.uleb128 0x1
 3664 02a9 50       		.byte	0x50
 3665 02aa 04       		.byte	0x4
 3666 02ab 08       		.uleb128 .LVL37-.LVL36
 3667 02ac 20       		.uleb128 .LVL38-.LVL36
 3668 02ad 01       		.uleb128 0x1
 3669 02ae 53       		.byte	0x53
 3670 02af 00       		.byte	0
 3671              	.Ldebug_loc3:
 3672              		.section	.debug_aranges,"",%progbits
 3673 0000 54000000 		.4byte	0x54
 3674 0004 0200     		.2byte	0x2
 3675 0006 00000000 		.4byte	.Ldebug_info0
 3676 000a 04       		.byte	0x4
 3677 000b 00       		.byte	0
 3678 000c 0000     		.2byte	0
 3679 000e 0000     		.2byte	0
 3680 0010 00000000 		.4byte	.LFB7
 3681 0014 14000000 		.4byte	.LFE7-.LFB7
 3682 0018 00000000 		.4byte	.LFB9
 3683 001c 7C010000 		.4byte	.LFE9-.LFB9
 3684 0020 00000000 		.4byte	.LFB8
 3685 0024 14000000 		.4byte	.LFE8-.LFB8
 3686 0028 00000000 		.4byte	.LFB10
 3687 002c 3C000000 		.4byte	.LFE10-.LFB10
 3688 0030 00000000 		.4byte	.LFB11
 3689 0034 34000000 		.4byte	.LFE11-.LFB11
 3690 0038 00000000 		.4byte	.LFB12
 3691 003c 9C000000 		.4byte	.LFE12-.LFB12
 3692 0040 00000000 		.4byte	.LFB13
 3693 0044 94000000 		.4byte	.LFE13-.LFB13
 3694 0048 00000000 		.4byte	.LFB14
 3695 004c 7C000000 		.4byte	.LFE14-.LFB14
 3696 0050 00000000 		.4byte	0
 3697 0054 00000000 		.4byte	0
 3698              		.section	.debug_rnglists,"",%progbits
 3699              	.Ldebug_ranges0:
 3700 0000 DD000000 		.4byte	.Ldebug_ranges3-.Ldebug_ranges2
 3701              	.Ldebug_ranges2:
 3702 0004 0500     		.2byte	0x5
 3703 0006 04       		.byte	0x4
 3704 0007 00       		.byte	0
 3705 0008 00000000 		.4byte	0
ARM GAS  /tmp/ccxnK9EA.s 			page 66


 3706              	.LLRL2:
 3707 000c 05       		.byte	0x5
 3708 000d 1C000000 		.4byte	.LBB34
 3709 0011 04       		.byte	0x4
 3710 0012 00       		.uleb128 .LBB34-.LBB34
 3711 0013 74       		.uleb128 .LBE34-.LBB34
 3712 0014 04       		.byte	0x4
 3713 0015 78       		.uleb128 .LBB57-.LBB34
 3714 0016 7C       		.uleb128 .LBE57-.LBB34
 3715 0017 04       		.byte	0x4
 3716 0018 9001     		.uleb128 .LBB58-.LBB34
 3717 001a E002     		.uleb128 .LBE58-.LBB34
 3718 001c 00       		.byte	0
 3719              	.LLRL4:
 3720 001d 05       		.byte	0x5
 3721 001e 4C000000 		.4byte	.LBB35
 3722 0022 04       		.byte	0x4
 3723 0023 00       		.uleb128 .LBB35-.LBB35
 3724 0024 38       		.uleb128 .LBE35-.LBB35
 3725 0025 04       		.byte	0x4
 3726 0026 3C       		.uleb128 .LBB38-.LBB35
 3727 0027 40       		.uleb128 .LBE38-.LBB35
 3728 0028 00       		.byte	0
 3729              	.LLRL9:
 3730 0029 05       		.byte	0x5
 3731 002a C4000000 		.4byte	.LBB41
 3732 002e 04       		.byte	0x4
 3733 002f 00       		.uleb128 .LBB41-.LBB41
 3734 0030 00       		.uleb128 .LBE41-.LBB41
 3735 0031 04       		.byte	0x4
 3736 0032 04       		.uleb128 .LBB44-.LBB41
 3737 0033 14       		.uleb128 .LBE44-.LBB41
 3738 0034 00       		.byte	0
 3739              	.LLRL14:
 3740 0035 05       		.byte	0x5
 3741 0036 14010000 		.4byte	.LBB47
 3742 003a 04       		.byte	0x4
 3743 003b 00       		.uleb128 .LBB47-.LBB47
 3744 003c 00       		.uleb128 .LBE47-.LBB47
 3745 003d 04       		.byte	0x4
 3746 003e 04       		.uleb128 .LBB50-.LBB47
 3747 003f 14       		.uleb128 .LBE50-.LBB47
 3748 0040 00       		.byte	0
 3749              	.LLRL16:
 3750 0041 05       		.byte	0x5
 3751 0042 28010000 		.4byte	.LBB51
 3752 0046 04       		.byte	0x4
 3753 0047 00       		.uleb128 .LBB51-.LBB51
 3754 0048 00       		.uleb128 .LBE51-.LBB51
 3755 0049 04       		.byte	0x4
 3756 004a 08       		.uleb128 .LBB55-.LBB51
 3757 004b 34       		.uleb128 .LBE55-.LBB51
 3758 004c 04       		.byte	0x4
 3759 004d 38       		.uleb128 .LBB56-.LBB51
 3760 004e 3C       		.uleb128 .LBE56-.LBB51
 3761 004f 00       		.byte	0
 3762              	.LLRL24:
ARM GAS  /tmp/ccxnK9EA.s 			page 67


 3763 0050 05       		.byte	0x5
 3764 0051 10000000 		.4byte	.LBB65
 3765 0055 04       		.byte	0x4
 3766 0056 00       		.uleb128 .LBB65-.LBB65
 3767 0057 0C       		.uleb128 .LBE65-.LBB65
 3768 0058 04       		.byte	0x4
 3769 0059 10       		.uleb128 .LBB68-.LBB65
 3770 005a 20       		.uleb128 .LBE68-.LBB65
 3771 005b 00       		.byte	0
 3772              	.LLRL27:
 3773 005c 05       		.byte	0x5
 3774 005d 0C000000 		.4byte	.LBB71
 3775 0061 04       		.byte	0x4
 3776 0062 00       		.uleb128 .LBB71-.LBB71
 3777 0063 0C       		.uleb128 .LBE71-.LBB71
 3778 0064 04       		.byte	0x4
 3779 0065 10       		.uleb128 .LBB74-.LBB71
 3780 0066 20       		.uleb128 .LBE74-.LBB71
 3781 0067 00       		.byte	0
 3782              	.LLRL34:
 3783 0068 05       		.byte	0x5
 3784 0069 58000000 		.4byte	.LBB76
 3785 006d 04       		.byte	0x4
 3786 006e 00       		.uleb128 .LBB76-.LBB76
 3787 006f 04       		.uleb128 .LBE76-.LBB76
 3788 0070 04       		.byte	0x4
 3789 0071 0C       		.uleb128 .LBB80-.LBB76
 3790 0072 10       		.uleb128 .LBE80-.LBB76
 3791 0073 04       		.byte	0x4
 3792 0074 14       		.uleb128 .LBB81-.LBB76
 3793 0075 18       		.uleb128 .LBE81-.LBB76
 3794 0076 00       		.byte	0
 3795              	.LLRL42:
 3796 0077 05       		.byte	0x5
 3797 0078 54000000 		.4byte	.LBB83
 3798 007c 04       		.byte	0x4
 3799 007d 00       		.uleb128 .LBB83-.LBB83
 3800 007e 04       		.uleb128 .LBE83-.LBB83
 3801 007f 04       		.byte	0x4
 3802 0080 0C       		.uleb128 .LBB86-.LBB83
 3803 0081 14       		.uleb128 .LBE86-.LBB83
 3804 0082 00       		.byte	0
 3805              	.LLRL46:
 3806 0083 05       		.byte	0x5
 3807 0084 1C000000 		.4byte	.LBB87
 3808 0088 04       		.byte	0x4
 3809 0089 00       		.uleb128 .LBB87-.LBB87
 3810 008a 04       		.uleb128 .LBE87-.LBB87
 3811 008b 04       		.byte	0x4
 3812 008c 04       		.uleb128 .LBB97-.LBB87
 3813 008d 3C       		.uleb128 .LBE97-.LBB87
 3814 008e 00       		.byte	0
 3815              	.LLRL48:
 3816 008f 05       		.byte	0x5
 3817 0090 20000000 		.4byte	.LBB88
 3818 0094 04       		.byte	0x4
 3819 0095 00       		.uleb128 .LBB88-.LBB88
ARM GAS  /tmp/ccxnK9EA.s 			page 68


 3820 0096 00       		.uleb128 .LBE88-.LBB88
 3821 0097 04       		.byte	0x4
 3822 0098 04       		.uleb128 .LBB95-.LBB88
 3823 0099 04       		.uleb128 .LBE95-.LBB88
 3824 009a 04       		.byte	0x4
 3825 009b 1C       		.uleb128 .LBB96-.LBB88
 3826 009c 38       		.uleb128 .LBE96-.LBB88
 3827 009d 00       		.byte	0
 3828              	.LLRL50:
 3829 009e 05       		.byte	0x5
 3830 009f 20000000 		.4byte	.LBB89
 3831 00a3 04       		.byte	0x4
 3832 00a4 00       		.uleb128 .LBB89-.LBB89
 3833 00a5 00       		.uleb128 .LBE89-.LBB89
 3834 00a6 04       		.byte	0x4
 3835 00a7 04       		.uleb128 .LBB93-.LBB89
 3836 00a8 04       		.uleb128 .LBE93-.LBB89
 3837 00a9 04       		.byte	0x4
 3838 00aa 20       		.uleb128 .LBB94-.LBB89
 3839 00ab 2C       		.uleb128 .LBE94-.LBB89
 3840 00ac 00       		.byte	0
 3841              	.LLRL53:
 3842 00ad 07       		.byte	0x7
 3843 00ae 00000000 		.4byte	.LFB7
 3844 00b2 14       		.uleb128 .LFE7-.LFB7
 3845 00b3 07       		.byte	0x7
 3846 00b4 00000000 		.4byte	.LFB9
 3847 00b8 FC02     		.uleb128 .LFE9-.LFB9
 3848 00ba 07       		.byte	0x7
 3849 00bb 00000000 		.4byte	.LFB8
 3850 00bf 14       		.uleb128 .LFE8-.LFB8
 3851 00c0 07       		.byte	0x7
 3852 00c1 00000000 		.4byte	.LFB10
 3853 00c5 3C       		.uleb128 .LFE10-.LFB10
 3854 00c6 07       		.byte	0x7
 3855 00c7 00000000 		.4byte	.LFB11
 3856 00cb 34       		.uleb128 .LFE11-.LFB11
 3857 00cc 07       		.byte	0x7
 3858 00cd 00000000 		.4byte	.LFB12
 3859 00d1 9C01     		.uleb128 .LFE12-.LFB12
 3860 00d3 07       		.byte	0x7
 3861 00d4 00000000 		.4byte	.LFB13
 3862 00d8 9401     		.uleb128 .LFE13-.LFB13
 3863 00da 07       		.byte	0x7
 3864 00db 00000000 		.4byte	.LFB14
 3865 00df 7C       		.uleb128 .LFE14-.LFB14
 3866 00e0 00       		.byte	0
 3867              	.Ldebug_ranges3:
 3868              		.section	.debug_line,"",%progbits
 3869              	.Ldebug_line0:
 3870 0000 3F070000 		.section	.debug_str,"MS",%progbits,1
 3870      03001E01 
 3870      00000201 
 3870      FB0E0D00 
 3870      01010101 
 3871              	.LASF39:
 3872 0000 705F6D73 		.ascii	"p_msg\000"
ARM GAS  /tmp/ccxnK9EA.s 			page 69


 3872      6700
 3873              	.LASF59:
 3874 0006 7264796D 		.ascii	"rdymsg\000"
 3874      736700
 3875              	.LASF5:
 3876 000d 5F5F7569 		.ascii	"__uint8_t\000"
 3876      6E74385F 
 3876      7400
 3877              	.LASF11:
 3878 0017 6C6F6E67 		.ascii	"long long unsigned int\000"
 3878      206C6F6E 
 3878      6720756E 
 3878      7369676E 
 3878      65642069 
 3879              	.LASF60:
 3880 002e 65786974 		.ascii	"exitcode\000"
 3880      636F6465 
 3880      00
 3881              	.LASF69:
 3882 0037 63684D74 		.ascii	"chMtxUnlock\000"
 3882      78556E6C 
 3882      6F636B00 
 3883              	.LASF27:
 3884 0043 705F7072 		.ascii	"p_prio\000"
 3884      696F00
 3885              	.LASF10:
 3886 004a 6C6F6E67 		.ascii	"long long int\000"
 3886      206C6F6E 
 3886      6720696E 
 3886      7400
 3887              	.LASF1:
 3888 0058 7369676E 		.ascii	"signed char\000"
 3888      65642063 
 3888      68617200 
 3889              	.LASF15:
 3890 0064 626F6F6C 		.ascii	"bool_t\000"
 3890      5F7400
 3891              	.LASF56:
 3892 006b 6D5F7175 		.ascii	"m_queue\000"
 3892      65756500 
 3893              	.LASF19:
 3894 0073 74736C69 		.ascii	"tslices_t\000"
 3894      6365735F 
 3894      7400
 3895              	.LASF7:
 3896 007d 6C6F6E67 		.ascii	"long int\000"
 3896      20696E74 
 3896      00
 3897              	.LASF17:
 3898 0086 74737461 		.ascii	"tstate_t\000"
 3898      74655F74 
 3898      00
 3899              	.LASF74:
 3900 008f 63684D74 		.ascii	"chMtxLockS\000"
 3900      784C6F63 
 3900      6B5300
 3901              	.LASF71:
ARM GAS  /tmp/ccxnK9EA.s 			page 70


 3902 009a 63684D74 		.ascii	"chMtxTryLockS\000"
 3902      78547279 
 3902      4C6F636B 
 3902      5300
 3903              	.LASF29:
 3904 00a8 705F6E65 		.ascii	"p_newer\000"
 3904      77657200 
 3905              	.LASF82:
 3906 00b0 63685363 		.ascii	"chSchRescheduleS\000"
 3906      68526573 
 3906      63686564 
 3906      756C6553 
 3906      00
 3907              	.LASF8:
 3908 00c1 5F5F7569 		.ascii	"__uint32_t\000"
 3908      6E743332 
 3908      5F7400
 3909              	.LASF45:
 3910 00cc 72656761 		.ascii	"regarm_t\000"
 3910      726D5F74 
 3910      00
 3911              	.LASF68:
 3912 00d5 63684D74 		.ascii	"chMtxUnlockS\000"
 3912      78556E6C 
 3912      6F636B53 
 3912      00
 3913              	.LASF0:
 3914 00e2 756E7369 		.ascii	"unsigned int\000"
 3914      676E6564 
 3914      20696E74 
 3914      00
 3915              	.LASF9:
 3916 00ef 6C6F6E67 		.ascii	"long unsigned int\000"
 3916      20756E73 
 3916      69676E65 
 3916      6420696E 
 3916      7400
 3917              	.LASF47:
 3918 0101 636F6E74 		.ascii	"context\000"
 3918      65787400 
 3919              	.LASF4:
 3920 0109 73686F72 		.ascii	"short unsigned int\000"
 3920      7420756E 
 3920      7369676E 
 3920      65642069 
 3920      6E7400
 3921              	.LASF21:
 3922 011c 6D73675F 		.ascii	"msg_t\000"
 3922      7400
 3923              	.LASF51:
 3924 0122 725F6E65 		.ascii	"r_newer\000"
 3924      77657200 
 3925              	.LASF73:
 3926 012a 63684D74 		.ascii	"chMtxUnlockAll\000"
 3926      78556E6C 
 3926      6F636B41 
 3926      6C6C00
ARM GAS  /tmp/ccxnK9EA.s 			page 71


 3927              	.LASF67:
 3928 0139 6E657770 		.ascii	"newprio\000"
 3928      72696F00 
 3929              	.LASF16:
 3930 0141 746D6F64 		.ascii	"tmode_t\000"
 3930      655F7400 
 3931              	.LASF44:
 3932 0149 54687265 		.ascii	"ThreadsList\000"
 3932      6164734C 
 3932      69737400 
 3933              	.LASF22:
 3934 0155 6576656E 		.ascii	"eventmask_t\000"
 3934      746D6173 
 3934      6B5F7400 
 3935              	.LASF72:
 3936 0161 63684D74 		.ascii	"chMtxTryLock\000"
 3936      78547279 
 3936      4C6F636B 
 3936      00
 3937              	.LASF55:
 3938 016e 4D757465 		.ascii	"Mutex\000"
 3938      7800
 3939              	.LASF79:
 3940 0174 474E5520 		.ascii	"GNU C17 11.2.0 -mcpu=arm1176jz-s -mno-thumb-interwo"
 3940      43313720 
 3940      31312E32 
 3940      2E30202D 
 3940      6D637075 
 3941 01a7 726B202D 		.ascii	"rk -mfloat-abi=soft -marm -march=armv6kz -ggdb -O2 "
 3941      6D666C6F 
 3941      61742D61 
 3941      62693D73 
 3941      6F667420 
 3942 01da 2D666F6D 		.ascii	"-fomit-frame-pointer -ffunction-sections -fdata-sec"
 3942      69742D66 
 3942      72616D65 
 3942      2D706F69 
 3942      6E746572 
 3943 020d 74696F6E 		.ascii	"tions\000"
 3943      7300
 3944              	.LASF75:
 3945 0213 63684D74 		.ascii	"chMtxLock\000"
 3945      784C6F63 
 3945      6B00
 3946              	.LASF81:
 3947 021d 2F686F6D 		.ascii	"/home/sergi/uni/seu/ChibiOS-RPi/demos/led\000"
 3947      652F7365 
 3947      7267692F 
 3947      756E692F 
 3947      7365752F 
 3948              	.LASF30:
 3949 0247 705F6F6C 		.ascii	"p_older\000"
 3949      64657200 
 3950              	.LASF50:
 3951 024f 725F6374 		.ascii	"r_ctx\000"
 3951      7800
 3952              	.LASF43:
ARM GAS  /tmp/ccxnK9EA.s 			page 72


 3953 0255 54687265 		.ascii	"ThreadsQueue\000"
 3953      61647351 
 3953      75657565 
 3953      00
 3954              	.LASF77:
 3955 0262 64657175 		.ascii	"dequeue\000"
 3955      65756500 
 3956              	.LASF53:
 3957 026a 725F6375 		.ascii	"r_current\000"
 3957      7272656E 
 3957      7400
 3958              	.LASF52:
 3959 0274 725F6F6C 		.ascii	"r_older\000"
 3959      64657200 
 3960              	.LASF18:
 3961 027c 74726566 		.ascii	"trefs_t\000"
 3961      735F7400 
 3962              	.LASF26:
 3963 0284 705F7072 		.ascii	"p_prev\000"
 3963      657600
 3964              	.LASF20:
 3965 028b 74707269 		.ascii	"tprio_t\000"
 3965      6F5F7400 
 3966              	.LASF13:
 3967 0293 696E7433 		.ascii	"int32_t\000"
 3967      325F7400 
 3968              	.LASF2:
 3969 029b 756E7369 		.ascii	"unsigned char\000"
 3969      676E6564 
 3969      20636861 
 3969      7200
 3970              	.LASF41:
 3971 02a9 705F6D74 		.ascii	"p_mtxlist\000"
 3971      786C6973 
 3971      7400
 3972              	.LASF3:
 3973 02b3 73686F72 		.ascii	"short int\000"
 3973      7420696E 
 3973      7400
 3974              	.LASF32:
 3975 02bd 705F7374 		.ascii	"p_state\000"
 3975      61746500 
 3976              	.LASF35:
 3977 02c5 705F7072 		.ascii	"p_preempt\000"
 3977      65656D70 
 3977      7400
 3978              	.LASF49:
 3979 02cf 725F7072 		.ascii	"r_prio\000"
 3979      696F00
 3980              	.LASF62:
 3981 02d6 65776D61 		.ascii	"ewmask\000"
 3981      736B00
 3982              	.LASF25:
 3983 02dd 705F6E65 		.ascii	"p_next\000"
 3983      787400
 3984              	.LASF33:
 3985 02e4 705F666C 		.ascii	"p_flags\000"
ARM GAS  /tmp/ccxnK9EA.s 			page 73


 3985      61677300 
 3986              	.LASF24:
 3987 02ec 54687265 		.ascii	"Thread\000"
 3987      616400
 3988              	.LASF65:
 3989 02f3 63685363 		.ascii	"chSchGoSleepS\000"
 3989      68476F53 
 3989      6C656570 
 3989      5300
 3990              	.LASF40:
 3991 0301 705F6570 		.ascii	"p_epending\000"
 3991      656E6469 
 3991      6E6700
 3992              	.LASF14:
 3993 030c 75696E74 		.ascii	"uint32_t\000"
 3993      33325F74 
 3993      00
 3994              	.LASF48:
 3995 0315 725F7175 		.ascii	"r_queue\000"
 3995      65756500 
 3996              	.LASF70:
 3997 031d 63685363 		.ascii	"chSchReadyI\000"
 3997      68526561 
 3997      64794900 
 3998              	.LASF63:
 3999 0329 63686172 		.ascii	"char\000"
 3999      00
 4000              	.LASF78:
 4001 032e 6669666F 		.ascii	"fifo_remove\000"
 4001      5F72656D 
 4001      6F766500 
 4002              	.LASF80:
 4003 033a 2E2E2F2E 		.ascii	"../../os/kernel/src/chmtx.c\000"
 4003      2E2F6F73 
 4003      2F6B6572 
 4003      6E656C2F 
 4003      7372632F 
 4004              	.LASF58:
 4005 0356 6D5F6E65 		.ascii	"m_next\000"
 4005      787400
 4006              	.LASF23:
 4007 035d 73797374 		.ascii	"systime_t\000"
 4007      696D655F 
 4007      7400
 4008              	.LASF42:
 4009 0367 705F7265 		.ascii	"p_realprio\000"
 4009      616C7072 
 4009      696F00
 4010              	.LASF6:
 4011 0372 5F5F696E 		.ascii	"__int32_t\000"
 4011      7433325F 
 4011      7400
 4012              	.LASF83:
 4013 037c 7072696F 		.ascii	"prio_insert\000"
 4013      5F696E73 
 4013      65727400 
 4014              	.LASF36:
ARM GAS  /tmp/ccxnK9EA.s 			page 74


 4015 0388 705F7469 		.ascii	"p_time\000"
 4015      6D6500
 4016              	.LASF46:
 4017 038f 696E7463 		.ascii	"intctx\000"
 4017      747800
 4018              	.LASF38:
 4019 0396 705F6D73 		.ascii	"p_msgqueue\000"
 4019      67717565 
 4019      756500
 4020              	.LASF64:
 4021 03a1 63685363 		.ascii	"chSchWakeupS\000"
 4021      6857616B 
 4021      65757053 
 4021      00
 4022              	.LASF76:
 4023 03ae 63684D74 		.ascii	"chMtxInit\000"
 4023      78496E69 
 4023      7400
 4024              	.LASF34:
 4025 03b8 705F7265 		.ascii	"p_refs\000"
 4025      667300
 4026              	.LASF54:
 4027 03bf 52656164 		.ascii	"ReadyList\000"
 4027      794C6973 
 4027      7400
 4028              	.LASF66:
 4029 03c9 726C6973 		.ascii	"rlist\000"
 4029      7400
 4030              	.LASF12:
 4031 03cf 75696E74 		.ascii	"uint8_t\000"
 4031      385F7400 
 4032              	.LASF61:
 4033 03d7 77746F62 		.ascii	"wtobjp\000"
 4033      6A7000
 4034              	.LASF31:
 4035 03de 705F6E61 		.ascii	"p_name\000"
 4035      6D6500
 4036              	.LASF57:
 4037 03e5 6D5F6F77 		.ascii	"m_owner\000"
 4037      6E657200 
 4038              	.LASF28:
 4039 03ed 705F6374 		.ascii	"p_ctx\000"
 4039      7800
 4040              	.LASF37:
 4041 03f3 705F7761 		.ascii	"p_waiting\000"
 4041      6974696E 
 4041      6700
 4042              		.ident	"GCC: (Arch Repository) 11.2.0"
ARM GAS  /tmp/ccxnK9EA.s 			page 75


DEFINED SYMBOLS
                            *ABS*:0000000000000000 chmtx.c
     /tmp/ccxnK9EA.s:16     .text.chMtxInit:0000000000000000 $a
     /tmp/ccxnK9EA.s:23     .text.chMtxInit:0000000000000000 chMtxInit
     /tmp/ccxnK9EA.s:50     .text.chMtxLockS:0000000000000000 $a
     /tmp/ccxnK9EA.s:56     .text.chMtxLockS:0000000000000000 chMtxLockS
     /tmp/ccxnK9EA.s:403    .text.chMtxLockS:0000000000000178 $d
     /tmp/ccxnK9EA.s:409    .text.chMtxLock:0000000000000000 $a
     /tmp/ccxnK9EA.s:415    .text.chMtxLock:0000000000000000 chMtxLock
     /tmp/ccxnK9EA.s:455    .text.chMtxTryLock:0000000000000000 $a
     /tmp/ccxnK9EA.s:461    .text.chMtxTryLock:0000000000000000 chMtxTryLock
     /tmp/ccxnK9EA.s:547    .text.chMtxTryLock:0000000000000038 $d
     /tmp/ccxnK9EA.s:552    .text.chMtxTryLockS:0000000000000000 $a
     /tmp/ccxnK9EA.s:558    .text.chMtxTryLockS:0000000000000000 chMtxTryLockS
     /tmp/ccxnK9EA.s:615    .text.chMtxTryLockS:0000000000000030 $d
     /tmp/ccxnK9EA.s:620    .text.chMtxUnlock:0000000000000000 $a
     /tmp/ccxnK9EA.s:626    .text.chMtxUnlock:0000000000000000 chMtxUnlock
     /tmp/ccxnK9EA.s:780    .text.chMtxUnlock:0000000000000098 $d
     /tmp/ccxnK9EA.s:785    .text.chMtxUnlockS:0000000000000000 $a
     /tmp/ccxnK9EA.s:791    .text.chMtxUnlockS:0000000000000000 chMtxUnlockS
     /tmp/ccxnK9EA.s:925    .text.chMtxUnlockS:0000000000000090 $d
     /tmp/ccxnK9EA.s:930    .text.chMtxUnlockAll:0000000000000000 $a
     /tmp/ccxnK9EA.s:936    .text.chMtxUnlockAll:0000000000000000 chMtxUnlockAll
     /tmp/ccxnK9EA.s:1072   .text.chMtxUnlockAll:0000000000000078 $d

UNDEFINED SYMBOLS
chSchGoSleepS
chSchReadyI
rlist
chSchWakeupS
chSchRescheduleS
