ARM GAS  /tmp/ccFpoagb.s 			page 1


   1              		.cpu arm1176jz-s
   2              		.eabi_attribute 20, 1
   3              		.eabi_attribute 21, 1
   4              		.eabi_attribute 23, 3
   5              		.eabi_attribute 24, 1
   6              		.eabi_attribute 25, 1
   7              		.eabi_attribute 26, 1
   8              		.eabi_attribute 30, 2
   9              		.eabi_attribute 34, 1
  10              		.eabi_attribute 18, 4
  11              		.file	"chprintf.c"
  12              		.text
  13              	.Ltext0:
  14              		.cfi_sections	.debug_frame
  15              		.section	.rodata.chprintf.str1.4,"aMS",%progbits,1
  16              		.align	2
  17              	.LC0:
  18 0000 286E756C 		.ascii	"(null)\000"
  18      6C2900
  19              		.global	__aeabi_d2f
  20              		.global	__aeabi_fcmplt
  21              		.global	__aeabi_f2d
  22              		.global	__aeabi_f2iz
  23              		.global	__aeabi_i2d
  24              		.global	__aeabi_dsub
  25              		.global	__aeabi_dmul
  26              		.global	__aeabi_d2iz
  27              		.global	__aeabi_uidivmod
  28              		.section	.text.chprintf,"ax",%progbits
  29              		.align	2
  30              		.global	chprintf
  31              		.arch armv6kz
  32              		.syntax unified
  33              		.arm
  34              		.fpu softvfp
  35              		.type	chprintf, %function
  36              	chprintf:
  37              	.LVL0:
  38              	.LFB10:
  39              		.file 1 "../../os/various/chprintf.c"
  40              		.loc 1 112 64 view -0
  41              		.cfi_startproc
  42              		@ args = 4, pretend = 12, frame = 48
  43              		@ frame_needed = 0, uses_anonymous_args = 1
  44              		.loc 1 113 3 view .LVU1
  45              		.loc 1 114 3 view .LVU2
  46              		.loc 1 115 3 view .LVU3
  47              		.loc 1 116 3 view .LVU4
  48              		.loc 1 117 3 view .LVU5
  49              		.loc 1 119 3 view .LVU6
  50              		.loc 1 120 3 view .LVU7
  51              		.loc 1 125 3 view .LVU8
  52              		.loc 1 112 64 is_stmt 0 view .LVU9
  53 0000 0E002DE9 		push	{r1, r2, r3}
  54              		.cfi_def_cfa_offset 12
  55              		.cfi_offset 1, -12
  56              		.cfi_offset 2, -8
ARM GAS  /tmp/ccFpoagb.s 			page 2


  57              		.cfi_offset 3, -4
  58 0004 F04F2DE9 		push	{r4, r5, r6, r7, r8, r9, r10, fp, lr}
  59              		.cfi_def_cfa_offset 48
  60              		.cfi_offset 4, -48
  61              		.cfi_offset 5, -44
  62              		.cfi_offset 6, -40
  63              		.cfi_offset 7, -36
  64              		.cfi_offset 8, -32
  65              		.cfi_offset 9, -28
  66              		.cfi_offset 10, -24
  67              		.cfi_offset 11, -20
  68              		.cfi_offset 14, -16
  69 0008 30D04DE2 		sub	sp, sp, #48
  70              		.cfi_def_cfa_offset 96
  71              		.loc 1 112 64 view .LVU10
  72 000c 54A09DE5 		ldr	r10, [sp, #84]
  73              		.loc 1 125 3 view .LVU11
  74 0010 58308DE2 		add	r3, sp, #88
  75              		.loc 1 127 13 view .LVU12
  76 0014 0A40A0E1 		mov	r4, r10
  77              		.loc 1 127 7 view .LVU13
  78 0018 0110D4E4 		ldrb	r1, [r4], #1	@ zero_extendqisi2
  79              		.loc 1 125 3 view .LVU14
  80 001c 14308DE5 		str	r3, [sp, #20]
  81              	.LVL1:
  82              		.loc 1 126 3 is_stmt 1 view .LVU15
  83              		.loc 1 127 5 view .LVU16
  84              		.loc 1 128 5 view .LVU17
  85              		.loc 1 128 8 is_stmt 0 view .LVU18
  86 0020 000051E3 		cmp	r1, #0
  87 0024 9000000A 		beq	.L1
  88 0028 0050A0E1 		mov	r5, r0
  89 002c 080000EA 		b	.L2
  90              	.LVL2:
  91              	.L122:
  92              		.loc 1 133 7 is_stmt 1 discriminator 1 view .LVU19
  93 0030 003095E5 		ldr	r3, [r5]
  94 0034 0500A0E1 		mov	r0, r5
  95 0038 083093E5 		ldr	r3, [r3, #8]
  96 003c 33FF2FE1 		blx	r3
  97              	.LVL3:
  98              		.loc 1 134 7 discriminator 1 view .LVU20
  99 0040 04A0A0E1 		mov	r10, r4
 100              	.LVL4:
 101              	.L5:
 102              		.loc 1 126 3 view .LVU21
 103              		.loc 1 127 5 view .LVU22
 104              		.loc 1 127 13 is_stmt 0 view .LVU23
 105 0044 0A40A0E1 		mov	r4, r10
 106              	.LVL5:
 107              		.loc 1 127 7 view .LVU24
 108 0048 0110D4E4 		ldrb	r1, [r4], #1	@ zero_extendqisi2
 109              	.LVL6:
 110              		.loc 1 128 5 is_stmt 1 view .LVU25
 111              		.loc 1 128 8 is_stmt 0 view .LVU26
 112 004c 000051E3 		cmp	r1, #0
 113 0050 8500000A 		beq	.L1
ARM GAS  /tmp/ccFpoagb.s 			page 3


 114              	.L2:
 115              		.loc 1 132 5 is_stmt 1 view .LVU27
 116              		.loc 1 132 8 is_stmt 0 view .LVU28
 117 0054 250051E3 		cmp	r1, #37
 118 0058 F4FFFF1A 		bne	.L122
 119              		.loc 1 136 5 is_stmt 1 view .LVU29
 120              	.LVL7:
 121              		.loc 1 137 5 view .LVU30
 122              		.loc 1 138 5 view .LVU31
 123              		.loc 1 139 5 view .LVU32
 124              		.loc 1 146 14 is_stmt 0 view .LVU33
 125 005c 00E0A0E3 		mov	lr, #0
 126              		.loc 1 139 8 view .LVU34
 127 0060 0130DAE5 		ldrb	r3, [r10, #1]	@ zero_extendqisi2
 128 0064 14009DE5 		ldr	r0, [sp, #20]
 129 0068 2D0053E3 		cmp	r3, #45
 130              		.loc 1 140 7 is_stmt 1 view .LVU35
 131              		.loc 1 140 10 is_stmt 0 view .LVU36
 132 006c 02408A02 		addeq	r4, r10, #2
 133              	.LVL8:
 134              		.loc 1 141 7 is_stmt 1 view .LVU37
 135              		.loc 1 144 9 is_stmt 0 view .LVU38
 136 0070 0010D4E5 		ldrb	r1, [r4]	@ zero_extendqisi2
 137              	.LVL9:
 138              		.loc 1 141 18 view .LVU39
 139 0074 01B0A003 		moveq	fp, #1
 140              		.loc 1 138 16 view .LVU40
 141 0078 00B0A013 		movne	fp, #0
 142              	.LVL10:
 143              		.loc 1 143 5 is_stmt 1 view .LVU41
 144              		.loc 1 144 5 view .LVU42
 145              		.loc 1 145 7 view .LVU43
 146              		.loc 1 146 7 view .LVU44
 147              		.loc 1 144 8 is_stmt 0 view .LVU45
 148 007c 2E0051E3 		cmp	r1, #46
 149              		.loc 1 150 9 view .LVU46
 150 0080 0110D405 		ldrbeq	r1, [r4, #1]	@ zero_extendqisi2
 151              		.loc 1 145 10 view .LVU47
 152 0084 01408402 		addeq	r4, r4, #1
 153              	.LVL11:
 154              		.loc 1 145 10 view .LVU48
 155 0088 012084E2 		add	r2, r4, #1
 156              		.loc 1 146 14 view .LVU49
 157 008c 3080A003 		moveq	r8, #48
 158              		.loc 1 143 12 view .LVU50
 159 0090 2080A013 		movne	r8, #32
 160              	.LVL12:
 161              		.loc 1 148 5 is_stmt 1 view .LVU51
 162              		.loc 1 148 11 is_stmt 0 view .LVU52
 163 0094 0E40A0E1 		mov	r4, lr
 164              	.LVL13:
 165              		.loc 1 148 11 view .LVU53
 166 0098 040000EA 		b	.L10
 167              	.LVL14:
 168              	.L123:
 169              		.loc 1 154 11 view .LVU54
 170 009c 01E0A0E3 		mov	lr, #1
ARM GAS  /tmp/ccFpoagb.s 			page 4


 171 00a0 043090E4 		ldr	r3, [r0], #4
 172 00a4 7330EFE6 		uxtb	r3, r3
 173              	.LVL15:
 174              	.L8:
 175              		.loc 1 157 7 is_stmt 1 view .LVU55
 176              		.loc 1 162 11 is_stmt 0 view .LVU56
 177 00a8 0110D2E4 		ldrb	r1, [r2], #1	@ zero_extendqisi2
 178              	.LVL16:
 179              		.loc 1 157 13 view .LVU57
 180 00ac 8C4083E0 		add	r4, r3, ip, lsl #1
 181              	.LVL17:
 182              		.loc 1 149 11 is_stmt 1 view .LVU58
 183              	.L10:
 184              		.loc 1 149 5 view .LVU59
 185              		.loc 1 150 7 view .LVU60
 186              		.loc 1 153 12 view .LVU61
 187              		.loc 1 154 9 view .LVU62
 188              		.loc 1 151 20 is_stmt 0 view .LVU63
 189 00b0 303041E2 		sub	r3, r1, #48
 190 00b4 7330EFE6 		uxtb	r3, r3
 191              		.loc 1 151 10 view .LVU64
 192 00b8 090053E3 		cmp	r3, #9
 193              		.loc 1 150 15 view .LVU65
 194 00bc 02A0A0E1 		mov	r10, r2
 195              	.LVL18:
 196              		.loc 1 151 7 is_stmt 1 view .LVU66
 197              		.loc 1 157 21 is_stmt 0 view .LVU67
 198 00c0 04C184E0 		add	ip, r4, r4, lsl #2
 199              		.loc 1 151 10 view .LVU68
 200 00c4 F7FFFF9A 		bls	.L8
 201              		.loc 1 153 15 view .LVU69
 202 00c8 2A0051E3 		cmp	r1, #42
 203 00cc F2FFFF0A 		beq	.L123
 204 00d0 00005EE3 		cmp	lr, #0
 205 00d4 14008D15 		strne	r0, [sp, #20]
 206              	.LVL19:
 207              		.loc 1 159 5 is_stmt 1 view .LVU70
 208              		.loc 1 160 5 view .LVU71
 209              		.loc 1 160 8 is_stmt 0 view .LVU72
 210 00d8 2E0051E3 		cmp	r1, #46
 211              		.loc 1 159 15 view .LVU73
 212 00dc 0020A013 		movne	r2, #0
 213              	.LVL20:
 214              		.loc 1 160 8 view .LVU74
 215 00e0 2F01000A 		beq	.L124
 216              	.LVL21:
 217              	.L12:
 218              		.loc 1 174 5 is_stmt 1 view .LVU75
 219              		.loc 1 174 8 is_stmt 0 view .LVU76
 220 00e4 DF3001E2 		and	r3, r1, #223
 221 00e8 4C0053E3 		cmp	r3, #76
 222 00ec 6200001A 		bne	.L17
 223              		.loc 1 175 7 is_stmt 1 view .LVU77
 224              	.LVL22:
 225              		.loc 1 176 7 view .LVU78
 226              		.loc 1 176 11 is_stmt 0 view .LVU79
 227 00f0 0030DAE5 		ldrb	r3, [r10]	@ zero_extendqisi2
ARM GAS  /tmp/ccFpoagb.s 			page 5


 228              		.loc 1 176 10 view .LVU80
 229 00f4 000053E3 		cmp	r3, #0
 230              		.loc 1 177 17 view .LVU81
 231 00f8 0310A011 		movne	r1, r3
 232              	.LVL23:
 233              		.loc 1 183 5 view .LVU82
 234 00fc 443041E2 		sub	r3, r1, #68
 235              		.loc 1 177 17 view .LVU83
 236 0100 01A08A12 		addne	r10, r10, #1
 237              	.LVL24:
 238              		.loc 1 183 5 is_stmt 1 view .LVU84
 239 0104 340053E3 		cmp	r3, #52
 240 0108 03F19F97 		ldrls	pc, [pc, r3, asl #2]
 241 010c 390000EA 		b	.L28
 242              	.L62:
 243 0110 48070000 		.word	.L92
 244 0114 F8010000 		.word	.L28
 245 0118 F8010000 		.word	.L28
 246 011c F8010000 		.word	.L28
 247 0120 F8010000 		.word	.L28
 248 0124 F8010000 		.word	.L28
 249 0128 F8010000 		.word	.L28
 250 012c F8010000 		.word	.L28
 251 0130 F8010000 		.word	.L28
 252 0134 F8010000 		.word	.L28
 253 0138 F8010000 		.word	.L28
 254 013c 1C070000 		.word	.L64
 255 0140 F8010000 		.word	.L28
 256 0144 F8010000 		.word	.L28
 257 0148 F8010000 		.word	.L28
 258 014c F8010000 		.word	.L28
 259 0150 F8010000 		.word	.L28
 260 0154 7C070000 		.word	.L63
 261 0158 F8010000 		.word	.L28
 262 015c F8010000 		.word	.L28
 263 0160 34070000 		.word	.L81
 264 0164 F8010000 		.word	.L28
 265 0168 F8010000 		.word	.L28
 266 016c F8010000 		.word	.L28
 267 0170 F8010000 		.word	.L28
 268 0174 F8010000 		.word	.L28
 269 0178 F8010000 		.word	.L28
 270 017c F8010000 		.word	.L28
 271 0180 F8010000 		.word	.L28
 272 0184 F8010000 		.word	.L28
 273 0188 F8010000 		.word	.L28
 274 018c E4010000 		.word	.L27
 275 0190 48070000 		.word	.L92
 276 0194 F8010000 		.word	.L28
 277 0198 40040000 		.word	.L25
 278 019c F8010000 		.word	.L28
 279 01a0 F8010000 		.word	.L28
 280 01a4 F8010000 		.word	.L28
 281 01a8 F8010000 		.word	.L28
 282 01ac F8010000 		.word	.L28
 283 01b0 F8010000 		.word	.L28
 284 01b4 F8010000 		.word	.L28
ARM GAS  /tmp/ccFpoagb.s 			page 6


 285 01b8 F8010000 		.word	.L28
 286 01bc 1C070000 		.word	.L64
 287 01c0 F8010000 		.word	.L28
 288 01c4 F8010000 		.word	.L28
 289 01c8 F8010000 		.word	.L28
 290 01cc B8030000 		.word	.L23
 291 01d0 F8010000 		.word	.L28
 292 01d4 7C070000 		.word	.L63
 293 01d8 F8010000 		.word	.L28
 294 01dc F8010000 		.word	.L28
 295 01e0 34070000 		.word	.L81
 296              	.LVL25:
 297              	.L27:
 298              		.loc 1 185 7 view .LVU85
 299              		.loc 1 186 7 view .LVU86
 300              		.loc 1 185 14 is_stmt 0 view .LVU87
 301 01e4 2080A0E3 		mov	r8, #32
 302              		.loc 1 186 14 view .LVU88
 303 01e8 14309DE5 		ldr	r3, [sp, #20]
 304 01ec 042083E2 		add	r2, r3, #4
 305              	.LVL26:
 306              		.loc 1 186 12 view .LVU89
 307 01f0 0010D3E5 		ldrb	r1, [r3]	@ zero_extendqisi2
 308              	.LVL27:
 309              		.loc 1 186 14 view .LVU90
 310 01f4 14208DE5 		str	r2, [sp, #20]
 311              	.LVL28:
 312              		.loc 1 187 7 is_stmt 1 view .LVU91
 313              	.L28:
 314              		.loc 1 244 8 is_stmt 0 view .LVU92
 315 01f8 00005BE3 		cmp	fp, #0
 316              		.loc 1 242 16 view .LVU93
 317 01fc 017044E2 		sub	r7, r4, #1
 318              		.loc 1 238 12 view .LVU94
 319 0200 1810CDE5 		strb	r1, [sp, #24]
 320              	.LVL29:
 321              		.loc 1 241 5 is_stmt 1 view .LVU95
 322              		.loc 1 242 5 view .LVU96
 323              		.loc 1 255 16 is_stmt 0 view .LVU97
 324 0204 0040A013 		movne	r4, #0
 325 0208 C77FC7E1 		bic	r7, r7, r7, asr #31
 326              	.LVL30:
 327              		.loc 1 244 5 is_stmt 1 view .LVU98
 328              		.loc 1 244 8 is_stmt 0 view .LVU99
 329 020c 18608D12 		addne	r6, sp, #24
 330 0210 5400000A 		beq	.L125
 331              	.LVL31:
 332              	.L66:
 333              		.loc 1 244 8 view .LVU100
 334 0214 044086E0 		add	r4, r6, r4
 335              	.L58:
 336              	.LVL32:
 337              		.loc 1 256 7 is_stmt 1 view .LVU101
 338              		.loc 1 256 7 is_stmt 0 view .LVU102
 339 0218 003095E5 		ldr	r3, [r5]
 340 021c 0110D6E4 		ldrb	r1, [r6], #1	@ zero_extendqisi2
 341              	.LVL33:
ARM GAS  /tmp/ccFpoagb.s 			page 7


 342              		.loc 1 256 7 view .LVU103
 343 0220 083093E5 		ldr	r3, [r3, #8]
 344 0224 0500A0E1 		mov	r0, r5
 345 0228 33FF2FE1 		blx	r3
 346              	.LVL34:
 347              		.loc 1 255 16 is_stmt 1 view .LVU104
 348              		.loc 1 255 16 is_stmt 0 view .LVU105
 349 022c 063044E0 		sub	r3, r4, r6
 350 0230 000053E3 		cmp	r3, #0
 351 0234 F7FFFFAA 		bge	.L58
 352              	.LVL35:
 353              	.L59:
 354              		.loc 1 258 12 is_stmt 1 view .LVU106
 355 0238 000057E3 		cmp	r7, #0
 356 023c 80FFFF0A 		beq	.L5
 357              	.L61:
 358              		.loc 1 259 7 view .LVU107
 359 0240 003095E5 		ldr	r3, [r5]
 360 0244 0810A0E1 		mov	r1, r8
 361 0248 0500A0E1 		mov	r0, r5
 362 024c 083093E5 		ldr	r3, [r3, #8]
 363 0250 33FF2FE1 		blx	r3
 364              	.LVL36:
 365              		.loc 1 260 7 view .LVU108
 366              		.loc 1 258 12 view .LVU109
 367 0254 017057E2 		subs	r7, r7, #1
 368              	.LVL37:
 369              		.loc 1 258 12 is_stmt 0 view .LVU110
 370 0258 F8FFFF1A 		bne	.L61
 371              	.LVL38:
 372              		.loc 1 126 3 is_stmt 1 view .LVU111
 373              		.loc 1 127 5 view .LVU112
 374              		.loc 1 127 13 is_stmt 0 view .LVU113
 375 025c 0A40A0E1 		mov	r4, r10
 376              	.LVL39:
 377              		.loc 1 127 7 view .LVU114
 378 0260 0110D4E4 		ldrb	r1, [r4], #1	@ zero_extendqisi2
 379              	.LVL40:
 380              		.loc 1 128 5 is_stmt 1 view .LVU115
 381              		.loc 1 128 8 is_stmt 0 view .LVU116
 382 0264 000051E3 		cmp	r1, #0
 383 0268 79FFFF1A 		bne	.L2
 384              	.LVL41:
 385              	.L1:
 386              		.loc 1 263 1 view .LVU117
 387 026c 30D08DE2 		add	sp, sp, #48
 388              		.cfi_remember_state
 389              		.cfi_def_cfa_offset 48
 390              		@ sp needed
 391 0270 F04FBDE8 		pop	{r4, r5, r6, r7, r8, r9, r10, fp, lr}
 392              		.cfi_restore 14
 393              		.cfi_restore 11
 394              		.cfi_restore 10
 395              		.cfi_restore 9
 396              		.cfi_restore 8
 397              		.cfi_restore 7
 398              		.cfi_restore 6
ARM GAS  /tmp/ccFpoagb.s 			page 8


 399              		.cfi_restore 5
 400              		.cfi_restore 4
 401              		.cfi_def_cfa_offset 12
 402              	.LVL42:
 403              		.loc 1 263 1 view .LVU118
 404 0274 0CD08DE2 		add	sp, sp, #12
 405              		.cfi_restore 3
 406              		.cfi_restore 2
 407              		.cfi_restore 1
 408              		.cfi_def_cfa_offset 0
 409 0278 1EFF2FE1 		bx	lr
 410              	.LVL43:
 411              	.L17:
 412              		.cfi_restore_state
 413              		.loc 1 180 7 is_stmt 1 view .LVU119
 414              		.loc 1 180 28 is_stmt 0 view .LVU120
 415 027c 413041E2 		sub	r3, r1, #65
 416              		.loc 1 183 5 view .LVU121
 417 0280 440041E2 		sub	r0, r1, #68
 418              		.loc 1 180 28 view .LVU122
 419 0284 7330EFE6 		uxtb	r3, r3
 420              	.LVL44:
 421              		.loc 1 183 5 is_stmt 1 view .LVU123
 422 0288 340050E3 		cmp	r0, #52
 423 028c 00F19F97 		ldrls	pc, [pc, r0, asl #2]
 424 0290 D8FFFFEA 		b	.L28
 425              	.L21:
 426 0294 04060000 		.word	.L26
 427 0298 F8010000 		.word	.L28
 428 029c F8010000 		.word	.L28
 429 02a0 F8010000 		.word	.L28
 430 02a4 F8010000 		.word	.L28
 431 02a8 F8010000 		.word	.L28
 432 02ac F8010000 		.word	.L28
 433 02b0 F8010000 		.word	.L28
 434 02b4 F8010000 		.word	.L28
 435 02b8 F8010000 		.word	.L28
 436 02bc F8010000 		.word	.L28
 437 02c0 94060000 		.word	.L24
 438 02c4 F8010000 		.word	.L28
 439 02c8 F8010000 		.word	.L28
 440 02cc F8010000 		.word	.L28
 441 02d0 F8010000 		.word	.L28
 442 02d4 F8010000 		.word	.L28
 443 02d8 40070000 		.word	.L74
 444 02dc F8010000 		.word	.L28
 445 02e0 F8010000 		.word	.L28
 446 02e4 88070000 		.word	.L20
 447 02e8 F8010000 		.word	.L28
 448 02ec F8010000 		.word	.L28
 449 02f0 F8010000 		.word	.L28
 450 02f4 F8010000 		.word	.L28
 451 02f8 F8010000 		.word	.L28
 452 02fc F8010000 		.word	.L28
 453 0300 F8010000 		.word	.L28
 454 0304 F8010000 		.word	.L28
 455 0308 F8010000 		.word	.L28
ARM GAS  /tmp/ccFpoagb.s 			page 9


 456 030c F8010000 		.word	.L28
 457 0310 E4010000 		.word	.L27
 458 0314 04060000 		.word	.L26
 459 0318 F8010000 		.word	.L28
 460 031c 40040000 		.word	.L25
 461 0320 F8010000 		.word	.L28
 462 0324 F8010000 		.word	.L28
 463 0328 F8010000 		.word	.L28
 464 032c F8010000 		.word	.L28
 465 0330 F8010000 		.word	.L28
 466 0334 F8010000 		.word	.L28
 467 0338 F8010000 		.word	.L28
 468 033c F8010000 		.word	.L28
 469 0340 94060000 		.word	.L24
 470 0344 F8010000 		.word	.L28
 471 0348 F8010000 		.word	.L28
 472 034c F8010000 		.word	.L28
 473 0350 B8030000 		.word	.L23
 474 0354 F8010000 		.word	.L28
 475 0358 40070000 		.word	.L74
 476 035c F8010000 		.word	.L28
 477 0360 F8010000 		.word	.L28
 478 0364 88070000 		.word	.L20
 479              	.LVL45:
 480              	.L125:
 481              		.loc 1 245 7 view .LVU124
 482              		.loc 1 246 8 is_stmt 0 view .LVU125
 483 0368 010054E3 		cmp	r4, #1
 484              		.loc 1 245 13 view .LVU126
 485 036c 007067E2 		rsb	r7, r7, #0
 486              	.LVL46:
 487              		.loc 1 246 5 is_stmt 1 view .LVU127
 488              		.loc 1 246 8 is_stmt 0 view .LVU128
 489 0370 0B40A0E1 		mov	r4, fp
 490              		.loc 1 245 13 view .LVU129
 491 0374 0B70A0D1 		movle	r7, fp
 492              	.LVL47:
 493              		.loc 1 246 8 view .LVU130
 494 0378 18608DE2 		add	r6, sp, #24
 495 037c A4FFFFDA 		ble	.L66
 496              	.LVL48:
 497              	.L70:
 498              		.loc 1 247 7 is_stmt 1 view .LVU131
 499              		.loc 1 247 10 is_stmt 0 view .LVU132
 500 0380 0030D6E5 		ldrb	r3, [r6]	@ zero_extendqisi2
 501              		.loc 1 247 21 view .LVU133
 502 0384 2D0053E3 		cmp	r3, #45
 503 0388 30005803 		cmpeq	r8, #48
 504 038c F200000A 		beq	.L126
 505              	.LVL49:
 506              	.L56:
 507              		.loc 1 251 7 is_stmt 1 discriminator 1 view .LVU134
 508              		.loc 1 252 9 discriminator 1 view .LVU135
 509 0390 003095E5 		ldr	r3, [r5]
 510 0394 0810A0E1 		mov	r1, r8
 511 0398 0500A0E1 		mov	r0, r5
 512 039c 083093E5 		ldr	r3, [r3, #8]
ARM GAS  /tmp/ccFpoagb.s 			page 10


 513 03a0 33FF2FE1 		blx	r3
 514              	.LVL50:
 515              		.loc 1 253 22 discriminator 1 view .LVU136
 516              		.loc 1 253 22 is_stmt 0 discriminator 1 view .LVU137
 517 03a4 017097E2 		adds	r7, r7, #1
 518              	.LVL51:
 519              		.loc 1 253 22 discriminator 1 view .LVU138
 520 03a8 F8FFFF1A 		bne	.L56
 521              	.LVL52:
 522              		.loc 1 255 16 is_stmt 1 view .LVU139
 523 03ac 000054E3 		cmp	r4, #0
 524 03b0 97FFFFAA 		bge	.L66
 525 03b4 22FFFFEA 		b	.L5
 526              	.LVL53:
 527              	.L23:
 528              		.loc 1 189 7 view .LVU140
 529              		.loc 1 190 7 view .LVU141
 530              		.loc 1 190 14 is_stmt 0 view .LVU142
 531 03b8 14309DE5 		ldr	r3, [sp, #20]
 532 03bc 006093E5 		ldr	r6, [r3]
 533 03c0 043083E2 		add	r3, r3, #4
 534              		.loc 1 190 10 view .LVU143
 535 03c4 000056E3 		cmp	r6, #0
 536              		.loc 1 190 14 view .LVU144
 537 03c8 14308DE5 		str	r3, [sp, #20]
 538              	.LVL54:
 539              		.loc 1 190 10 view .LVU145
 540 03cc 8700000A 		beq	.L29
 541              		.loc 1 194 19 view .LVU146
 542 03d0 0030D6E5 		ldrb	r3, [r6]	@ zero_extendqisi2
 543              	.LVL55:
 544              		.loc 1 192 7 is_stmt 1 view .LVU147
 545              		.loc 1 193 19 is_stmt 0 view .LVU148
 546 03d4 E4139FE5 		ldr	r1, .L133
 547              	.LVL56:
 548              		.loc 1 193 19 view .LVU149
 549 03d8 000052E3 		cmp	r2, #0
 550 03dc 0120A001 		moveq	r2, r1
 551              	.LVL57:
 552              		.loc 1 194 22 is_stmt 1 view .LVU150
 553 03e0 000053E3 		cmp	r3, #0
 554 03e4 EB00000A 		beq	.L127
 555              	.LVL58:
 556              	.L68:
 557              		.loc 1 159 15 is_stmt 0 view .LVU151
 558 03e8 06C0A0E1 		mov	ip, r6
 559 03ec 010000EA 		b	.L33
 560              	.LVL59:
 561              	.L128:
 562              		.loc 1 194 22 discriminator 3 view .LVU152
 563 03f0 020073E1 		cmn	r3, r2
 564 03f4 0400004A 		bmi	.L75
 565              	.LVL60:
 566              	.L33:
 567              		.loc 1 194 46 is_stmt 1 discriminator 4 view .LVU153
 568              		.loc 1 194 22 discriminator 4 view .LVU154
 569 03f8 0110FCE5 		ldrb	r1, [ip, #1]!	@ zero_extendqisi2
ARM GAS  /tmp/ccFpoagb.s 			page 11


 570              	.LVL61:
 571              		.loc 1 194 22 is_stmt 0 discriminator 4 view .LVU155
 572 03fc 0C3046E0 		sub	r3, r6, ip
 573 0400 000051E3 		cmp	r1, #0
 574 0404 013043E2 		sub	r3, r3, #1
 575 0408 F8FFFF1A 		bne	.L128
 576              	.L75:
 577              		.loc 1 189 14 view .LVU156
 578 040c 2080A0E3 		mov	r8, #32
 579              	.LVL62:
 580              	.L32:
 581              		.loc 1 241 5 is_stmt 1 view .LVU157
 582              		.loc 1 241 7 is_stmt 0 view .LVU158
 583 0410 06C04CE0 		sub	ip, ip, r6
 584              	.LVL63:
 585              		.loc 1 242 5 is_stmt 1 view .LVU159
 586              		.loc 1 242 16 is_stmt 0 view .LVU160
 587 0414 0C3044E0 		sub	r3, r4, ip
 588              	.LVL64:
 589              		.loc 1 244 8 view .LVU161
 590 0418 00005BE3 		cmp	fp, #0
 591              		.loc 1 255 16 view .LVU162
 592 041c 01404CE2 		sub	r4, ip, #1
 593 0420 C37FC3E1 		bic	r7, r3, r3, asr #31
 594              	.LVL65:
 595              		.loc 1 244 5 is_stmt 1 view .LVU163
 596              		.loc 1 244 8 is_stmt 0 view .LVU164
 597 0424 0200001A 		bne	.L54
 598              		.loc 1 245 7 is_stmt 1 view .LVU165
 599              		.loc 1 246 8 is_stmt 0 view .LVU166
 600 0428 000053E3 		cmp	r3, #0
 601              		.loc 1 245 13 view .LVU167
 602 042c 007067E2 		rsb	r7, r7, #0
 603              	.LVL66:
 604              		.loc 1 246 5 is_stmt 1 view .LVU168
 605              		.loc 1 246 8 is_stmt 0 view .LVU169
 606 0430 D2FFFFCA 		bgt	.L70
 607              	.L54:
 608              	.LVL67:
 609              		.loc 1 255 16 is_stmt 1 view .LVU170
 610 0434 000054E3 		cmp	r4, #0
 611 0438 75FFFFAA 		bge	.L66
 612              		.loc 1 255 16 is_stmt 0 view .LVU171
 613 043c 7DFFFFEA 		b	.L59
 614              	.LVL68:
 615              	.L25:
 616              		.loc 1 211 7 is_stmt 1 view .LVU172
 617              		.loc 1 211 19 is_stmt 0 view .LVU173
 618 0440 14309DE5 		ldr	r3, [sp, #20]
 619 0444 073083E2 		add	r3, r3, #7
 620 0448 0730C3E3 		bic	r3, r3, #7
 621 044c 082083E2 		add	r2, r3, #8
 622              	.LVL69:
 623              		.loc 1 211 9 view .LVU174
 624 0450 D000C3E1 		ldrd	r0, [r3]
 625              		.loc 1 211 19 view .LVU175
 626 0454 14208DE5 		str	r2, [sp, #20]
ARM GAS  /tmp/ccFpoagb.s 			page 12


 627              		.loc 1 211 9 view .LVU176
 628 0458 FEFFFFEB 		bl	__aeabi_d2f
 629              	.LVL70:
 630              		.loc 1 212 10 view .LVU177
 631 045c 0010A0E3 		mov	r1, #0
 632              		.loc 1 211 9 view .LVU178
 633 0460 0090A0E1 		mov	r9, r0
 634              	.LVL71:
 635              		.loc 1 212 7 is_stmt 1 view .LVU179
 636              		.loc 1 212 10 is_stmt 0 view .LVU180
 637 0464 FEFFFFEB 		bl	__aeabi_fcmplt
 638              	.LVL72:
 639              		.loc 1 212 10 view .LVU181
 640 0468 000050E3 		cmp	r0, #0
 641              		.loc 1 213 9 is_stmt 1 view .LVU182
 642              	.LVL73:
 643              		.loc 1 213 14 is_stmt 0 view .LVU183
 644 046c 2D30A013 		movne	r3, #45
 645              		.loc 1 214 11 view .LVU184
 646 0470 02918912 		addne	r9, r9, #-2147483648
 647              	.LVL74:
 648              		.loc 1 136 7 view .LVU185
 649 0474 18608D02 		addeq	r6, sp, #24
 650              		.loc 1 216 11 view .LVU186
 651 0478 0900A0E1 		mov	r0, r9
 652              		.loc 1 136 7 view .LVU187
 653 047c 0670A001 		moveq	r7, r6
 654              		.loc 1 213 14 view .LVU188
 655 0480 1830CD15 		strbne	r3, [sp, #24]
 656              		.loc 1 214 9 is_stmt 1 view .LVU189
 657              	.LVL75:
 658              		.loc 1 213 11 is_stmt 0 view .LVU190
 659 0484 19708D12 		addne	r7, sp, #25
 660 0488 18608D12 		addne	r6, sp, #24
 661              	.LVL76:
 662              		.loc 1 216 7 is_stmt 1 view .LVU191
 663              		.loc 1 216 11 is_stmt 0 view .LVU192
 664 048c FEFFFFEB 		bl	__aeabi_f2d
 665              	.LVL77:
 666              		.loc 1 216 11 view .LVU193
 667 0490 0020A0E1 		mov	r2, r0
 668 0494 0130A0E1 		mov	r3, r1
 669              	.LBB20:
 670              	.LBB21:
 671              		.loc 1 83 5 view .LVU194
 672 0498 0900A0E1 		mov	r0, r9
 673              	.LBE21:
 674              	.LBE20:
 675              		.loc 1 216 11 view .LVU195
 676 049c F820CDE1 		strd	r2, [sp, #8]
 677              	.LVL78:
 678              	.LBB31:
 679              	.LBI20:
 680              		.loc 1 79 14 is_stmt 1 view .LVU196
 681              	.LBB30:
 682              		.loc 1 80 3 view .LVU197
 683              		.loc 1 81 3 view .LVU198
ARM GAS  /tmp/ccFpoagb.s 			page 13


 684              		.loc 1 83 3 view .LVU199
 685              		.loc 1 83 5 is_stmt 0 view .LVU200
 686 04a0 FEFFFFEB 		bl	__aeabi_f2iz
 687              	.LVL79:
 688              	.LBB22:
 689              	.LBB23:
 690              		.loc 1 55 5 view .LVU201
 691 04a4 0B1087E2 		add	r1, r7, #11
 692 04a8 0120A0E1 		mov	r2, r1
 693              	.LVL80:
 694              		.loc 1 55 5 view .LVU202
 695              	.LBE23:
 696              	.LBE22:
 697              		.loc 1 84 3 is_stmt 1 view .LVU203
 698              	.LBB25:
 699              	.LBI22:
 700              		.loc 1 40 14 view .LVU204
 701              	.LBB24:
 702              		.loc 1 44 3 view .LVU205
 703              		.loc 1 45 3 view .LVU206
 704              		.loc 1 46 3 view .LVU207
 705              		.loc 1 48 3 view .LVU208
 706              		.loc 1 49 3 view .LVU209
 707              		.loc 1 55 3 view .LVU210
 708              		.loc 1 48 5 is_stmt 0 view .LVU211
 709 04ac 00C0A0E1 		mov	ip, r0
 710              	.LVL81:
 711              	.L42:
 712              		.loc 1 56 3 is_stmt 1 view .LVU212
 713              		.loc 1 57 5 view .LVU213
 714              		.loc 1 57 17 is_stmt 0 view .LVU214
 715 04b0 0C339FE5 		ldr	r3, .L133+4
 716              		.loc 1 63 26 view .LVU215
 717 04b4 09005CE3 		cmp	ip, #9
 718              		.loc 1 57 17 view .LVU216
 719 04b8 93EC83E0 		umull	lr, r3, r3, ip
 720 04bc 0CE0A0E1 		mov	lr, ip
 721 04c0 A331A0E1 		lsr	r3, r3, #3
 722 04c4 03C0A0E1 		mov	ip, r3
 723 04c8 033183E0 		add	r3, r3, r3, lsl #2
 724 04cc 83304EE0 		sub	r3, lr, r3, lsl #1
 725              	.LVL82:
 726              		.loc 1 58 5 is_stmt 1 view .LVU217
 727              		.loc 1 59 5 view .LVU218
 728              		.loc 1 61 5 view .LVU219
 729              		.loc 1 58 7 is_stmt 0 view .LVU220
 730 04d0 303083E2 		add	r3, r3, #48
 731              	.LVL83:
 732              		.loc 1 61 10 view .LVU221
 733 04d4 7330EFE6 		uxtb	r3, r3
 734              	.LVL84:
 735              		.loc 1 61 10 view .LVU222
 736 04d8 013062E5 		strb	r3, [r2, #-1]!
 737              	.LVL85:
 738              		.loc 1 62 5 is_stmt 1 view .LVU223
 739              		.loc 1 63 26 view .LVU224
 740              		.loc 1 63 26 is_stmt 0 view .LVU225
ARM GAS  /tmp/ccFpoagb.s 			page 14


 741 04dc F3FFFF8A 		bhi	.L42
 742              		.loc 1 65 3 is_stmt 1 view .LVU226
 743              		.loc 1 65 5 is_stmt 0 view .LVU227
 744 04e0 021041E0 		sub	r1, r1, r2
 745              	.LVL86:
 746              		.loc 1 65 5 view .LVU228
 747 04e4 0790A0E1 		mov	r9, r7
 748              	.LVL87:
 749              		.loc 1 65 5 view .LVU229
 750 04e8 01C087E0 		add	ip, r7, r1
 751 04ec 000000EA 		b	.L44
 752              	.LVL88:
 753              	.L129:
 754              		.loc 1 67 12 view .LVU230
 755 04f0 0130F2E5 		ldrb	r3, [r2, #1]!	@ zero_extendqisi2
 756              	.L44:
 757              		.loc 1 66 3 is_stmt 1 view .LVU231
 758              		.loc 1 67 5 view .LVU232
 759              	.LVL89:
 760              		.loc 1 67 10 is_stmt 0 view .LVU233
 761 04f4 0130C9E4 		strb	r3, [r9], #1
 762              	.LVL90:
 763              		.loc 1 68 10 is_stmt 1 view .LVU234
 764 04f8 0C0059E1 		cmp	r9, ip
 765 04fc FBFFFF1A 		bne	.L129
 766 0500 011041E2 		sub	r1, r1, #1
 767              		.loc 1 70 3 view .LVU235
 768              	.LVL91:
 769              		.loc 1 70 3 is_stmt 0 view .LVU236
 770              	.LBE24:
 771              	.LBE25:
 772              		.loc 1 85 3 is_stmt 1 view .LVU237
 773 0504 013087E0 		add	r3, r7, r1
 774 0508 04308DE5 		str	r3, [sp, #4]
 775              		.loc 1 85 8 is_stmt 0 view .LVU238
 776 050c 0970A0E1 		mov	r7, r9
 777              	.LVL92:
 778              		.loc 1 85 8 view .LVU239
 779 0510 2E30A0E3 		mov	r3, #46
 780 0514 0C30C7E4 		strb	r3, [r7], #12
 781              		.loc 1 86 12 view .LVU240
 782 0518 FEFFFFEB 		bl	__aeabi_i2d
 783              	.LVL93:
 784              		.loc 1 86 12 view .LVU241
 785 051c 0020A0E1 		mov	r2, r0
 786 0520 0130A0E1 		mov	r3, r1
 787 0524 D800CDE1 		ldrd	r0, [sp, #8]
 788 0528 FEFFFFEB 		bl	__aeabi_dsub
 789              	.LVL94:
 790              		.loc 1 86 17 view .LVU242
 791 052c 0020A0E3 		mov	r2, #0
 792 0530 90329FE5 		ldr	r3, .L133+8
 793 0534 FEFFFFEB 		bl	__aeabi_dmul
 794              	.LVL95:
 795              		.loc 1 86 5 view .LVU243
 796 0538 FEFFFFEB 		bl	__aeabi_d2iz
 797              	.LVL96:
ARM GAS  /tmp/ccFpoagb.s 			page 15


 798              	.LBB26:
 799              	.LBB27:
 800              		.loc 1 55 5 view .LVU244
 801 053c 0720A0E1 		mov	r2, r7
 802              	.LBE27:
 803              	.LBE26:
 804              		.loc 1 85 5 view .LVU245
 805 0540 04309DE5 		ldr	r3, [sp, #4]
 806 0544 079089E2 		add	r9, r9, #7
 807              	.LVL97:
 808              		.loc 1 85 5 view .LVU246
 809 0548 02E083E2 		add	lr, r3, #2
 810              	.LVL98:
 811              		.loc 1 86 3 is_stmt 1 view .LVU247
 812              		.loc 1 87 3 view .LVU248
 813              	.LBB29:
 814              	.LBI26:
 815              		.loc 1 40 14 view .LVU249
 816              	.LBB28:
 817              		.loc 1 44 3 view .LVU250
 818              		.loc 1 45 3 view .LVU251
 819              		.loc 1 46 3 view .LVU252
 820              		.loc 1 48 3 view .LVU253
 821              		.loc 1 49 3 view .LVU254
 822              		.loc 1 52 5 view .LVU255
 823              		.loc 1 55 3 view .LVU256
 824              	.L45:
 825              		.loc 1 56 3 view .LVU257
 826              		.loc 1 57 5 view .LVU258
 827              		.loc 1 57 17 is_stmt 0 view .LVU259
 828 054c 70329FE5 		ldr	r3, .L133+4
 829 0550 931083E0 		umull	r1, r3, r3, r0
 830 0554 A331A0E1 		lsr	r3, r3, #3
 831 0558 0310A0E1 		mov	r1, r3
 832 055c 033183E0 		add	r3, r3, r3, lsl #2
 833 0560 833040E0 		sub	r3, r0, r3, lsl #1
 834              	.LVL99:
 835              		.loc 1 58 5 is_stmt 1 view .LVU260
 836              		.loc 1 59 5 view .LVU261
 837              		.loc 1 61 5 view .LVU262
 838              		.loc 1 58 7 is_stmt 0 view .LVU263
 839 0564 303083E2 		add	r3, r3, #48
 840              	.LVL100:
 841              		.loc 1 61 10 view .LVU264
 842 0568 7330EFE6 		uxtb	r3, r3
 843              	.LVL101:
 844              		.loc 1 61 10 view .LVU265
 845 056c 013062E5 		strb	r3, [r2, #-1]!
 846              	.LVL102:
 847              		.loc 1 62 5 is_stmt 1 view .LVU266
 848              		.loc 1 63 26 is_stmt 0 view .LVU267
 849 0570 090052E1 		cmp	r2, r9
 850              		.loc 1 62 7 view .LVU268
 851 0574 0100A0E1 		mov	r0, r1
 852              	.LVL103:
 853              		.loc 1 63 26 is_stmt 1 view .LVU269
 854              		.loc 1 63 26 is_stmt 0 view .LVU270
ARM GAS  /tmp/ccFpoagb.s 			page 16


 855 0578 F3FFFF1A 		bne	.L45
 856              		.loc 1 65 3 is_stmt 1 view .LVU271
 857              	.LVL104:
 858              		.loc 1 65 3 is_stmt 0 view .LVU272
 859 057c 04109DE5 		ldr	r1, [sp, #4]
 860              		.loc 1 65 5 view .LVU273
 861 0580 02C047E0 		sub	ip, r7, r2
 862 0584 02C08CE2 		add	ip, ip, #2
 863 0588 0CC081E0 		add	ip, r1, ip
 864 058c 000000EA 		b	.L46
 865              	.LVL105:
 866              	.L130:
 867              		.loc 1 67 12 view .LVU274
 868 0590 0130F2E5 		ldrb	r3, [r2, #1]!	@ zero_extendqisi2
 869              	.L46:
 870              		.loc 1 66 3 is_stmt 1 view .LVU275
 871              		.loc 1 67 5 view .LVU276
 872              	.LVL106:
 873              		.loc 1 67 10 is_stmt 0 view .LVU277
 874 0594 0130CEE4 		strb	r3, [lr], #1
 875              	.LVL107:
 876              		.loc 1 68 10 is_stmt 1 view .LVU278
 877              		.loc 1 68 10 is_stmt 0 view .LVU279
 878 0598 0C005EE1 		cmp	lr, ip
 879 059c FBFFFF1A 		bne	.L130
 880 05a0 9AFFFFEA 		b	.L32
 881              	.LVL108:
 882              	.L124:
 883              		.loc 1 68 10 view .LVU280
 884              	.LBE28:
 885              	.LBE29:
 886              	.LBE30:
 887              	.LBE31:
 888              		.loc 1 160 8 view .LVU281
 889 05a4 00E0A0E3 		mov	lr, #0
 890 05a8 14009DE5 		ldr	r0, [sp, #20]
 891              		.loc 1 159 15 view .LVU282
 892 05ac 0E20A0E1 		mov	r2, lr
 893 05b0 030000EA 		b	.L15
 894              	.LVL109:
 895              	.L131:
 896              		.loc 1 166 13 view .LVU283
 897 05b4 01E0A0E3 		mov	lr, #1
 898 05b8 043090E4 		ldr	r3, [r0], #4
 899 05bc 7330EFE6 		uxtb	r3, r3
 900              	.LVL110:
 901              	.L13:
 902              		.loc 1 169 9 is_stmt 1 view .LVU284
 903              		.loc 1 170 9 view .LVU285
 904              		.loc 1 170 19 is_stmt 0 view .LVU286
 905 05c0 8C2083E0 		add	r2, r3, ip, lsl #1
 906              	.LVL111:
 907              		.loc 1 161 13 is_stmt 1 view .LVU287
 908              	.L15:
 909              		.loc 1 161 7 view .LVU288
 910              		.loc 1 162 9 view .LVU289
 911              		.loc 1 165 14 view .LVU290
ARM GAS  /tmp/ccFpoagb.s 			page 17


 912              		.loc 1 166 11 view .LVU291
 913              		.loc 1 162 11 is_stmt 0 view .LVU292
 914 05c4 0110DAE4 		ldrb	r1, [r10], #1	@ zero_extendqisi2
 915              	.LVL112:
 916              		.loc 1 163 9 is_stmt 1 view .LVU293
 917              		.loc 1 169 19 is_stmt 0 view .LVU294
 918 05c8 02C182E0 		add	ip, r2, r2, lsl #2
 919              		.loc 1 163 22 view .LVU295
 920 05cc 303041E2 		sub	r3, r1, #48
 921 05d0 7330EFE6 		uxtb	r3, r3
 922              		.loc 1 163 12 view .LVU296
 923 05d4 090053E3 		cmp	r3, #9
 924 05d8 F8FFFF9A 		bls	.L13
 925              		.loc 1 165 17 view .LVU297
 926 05dc 2A0051E3 		cmp	r1, #42
 927 05e0 F3FFFF0A 		beq	.L131
 928 05e4 00005EE3 		cmp	lr, #0
 929 05e8 14008D15 		strne	r0, [sp, #20]
 930 05ec BCFEFFEA 		b	.L12
 931              	.LVL113:
 932              	.L29:
 933              		.loc 1 192 7 is_stmt 1 view .LVU298
 934              		.loc 1 192 10 is_stmt 0 view .LVU299
 935 05f0 000052E3 		cmp	r2, #0
 936 05f4 6500001A 		bne	.L84
 937              		.loc 1 193 19 view .LVU300
 938 05f8 C0219FE5 		ldr	r2, .L133
 939              	.LVL114:
 940              		.loc 1 191 11 view .LVU301
 941 05fc C8619FE5 		ldr	r6, .L133+12
 942 0600 78FFFFEA 		b	.L68
 943              	.LVL115:
 944              	.L26:
 945              		.loc 1 199 7 is_stmt 1 view .LVU302
 946              		.loc 1 199 10 is_stmt 0 view .LVU303
 947 0604 190053E3 		cmp	r3, #25
 948              		.loc 1 202 11 view .LVU304
 949 0608 14309DE5 		ldr	r3, [sp, #20]
 950              	.LVL116:
 951              		.loc 1 202 11 view .LVU305
 952 060c 0320A0E1 		mov	r2, r3
 953              	.LVL117:
 954              		.loc 1 202 11 view .LVU306
 955 0610 04C092E4 		ldr	ip, [r2], #4
 956 0614 14208D85 		strhi	r2, [sp, #20]
 957              		.loc 1 199 10 view .LVU307
 958 0618 4B00009A 		bls	.L35
 959              	.LVL118:
 960              	.L36:
 961              		.loc 1 203 7 is_stmt 1 view .LVU308
 962              		.loc 1 203 10 is_stmt 0 view .LVU309
 963 061c 00005CE3 		cmp	ip, #0
 964              		.loc 1 204 9 is_stmt 1 view .LVU310
 965              	.LVL119:
 966              		.loc 1 136 7 is_stmt 0 view .LVU311
 967 0620 18608DA2 		addge	r6, sp, #24
 968 0624 0610A0A1 		movge	r1, r6
ARM GAS  /tmp/ccFpoagb.s 			page 18


 969              	.LVL120:
 970              		.loc 1 204 11 view .LVU312
 971 0628 19108DB2 		addlt	r1, sp, #25
 972              		.loc 1 204 14 view .LVU313
 973 062c 2D30A0B3 		movlt	r3, #45
 974              	.LBB32:
 975              	.LBB33:
 976              	.LBB34:
 977              		.loc 1 55 5 view .LVU314
 978 0630 0B2081E2 		add	r2, r1, #11
 979 0634 0200A0E1 		mov	r0, r2
 980              	.LBE34:
 981              	.LBE33:
 982              	.LBE32:
 983              		.loc 1 205 11 view .LVU315
 984 0638 00C06CB2 		rsblt	ip, ip, #0
 985              	.LVL121:
 986              		.loc 1 204 14 view .LVU316
 987 063c 1830CDB5 		strblt	r3, [sp, #24]
 988              		.loc 1 205 9 is_stmt 1 view .LVU317
 989              		.loc 1 205 9 is_stmt 0 view .LVU318
 990 0640 18608DB2 		addlt	r6, sp, #24
 991              	.LVL122:
 992              		.loc 1 207 7 is_stmt 1 view .LVU319
 993              	.LBB37:
 994              	.LBI32:
 995              		.loc 1 73 14 view .LVU320
 996              		.loc 1 75 3 view .LVU321
 997              	.LBB36:
 998              	.LBI33:
 999              		.loc 1 40 14 view .LVU322
 1000              	.LBB35:
 1001              		.loc 1 44 3 view .LVU323
 1002              		.loc 1 45 3 view .LVU324
 1003              		.loc 1 46 3 view .LVU325
 1004              		.loc 1 48 3 view .LVU326
 1005              		.loc 1 49 3 view .LVU327
 1006              		.loc 1 55 3 view .LVU328
 1007              	.L38:
 1008              		.loc 1 56 3 view .LVU329
 1009              		.loc 1 57 5 view .LVU330
 1010              		.loc 1 57 17 is_stmt 0 view .LVU331
 1011 0644 78319FE5 		ldr	r3, .L133+4
 1012              		.loc 1 63 26 view .LVU332
 1013 0648 09005CE3 		cmp	ip, #9
 1014              		.loc 1 57 17 view .LVU333
 1015 064c 93EC83E0 		umull	lr, r3, r3, ip
 1016 0650 A331A0E1 		lsr	r3, r3, #3
 1017 0654 03E0A0E1 		mov	lr, r3
 1018 0658 033183E0 		add	r3, r3, r3, lsl #2
 1019 065c 83304CE0 		sub	r3, ip, r3, lsl #1
 1020              	.LVL123:
 1021              		.loc 1 58 5 is_stmt 1 view .LVU334
 1022              		.loc 1 59 5 view .LVU335
 1023              		.loc 1 61 5 view .LVU336
 1024              		.loc 1 58 7 is_stmt 0 view .LVU337
 1025 0660 303083E2 		add	r3, r3, #48
ARM GAS  /tmp/ccFpoagb.s 			page 19


 1026              	.LVL124:
 1027              		.loc 1 61 10 view .LVU338
 1028 0664 7330EFE6 		uxtb	r3, r3
 1029              	.LVL125:
 1030              		.loc 1 62 7 view .LVU339
 1031 0668 0EC0A0E1 		mov	ip, lr
 1032              	.LVL126:
 1033              		.loc 1 61 10 view .LVU340
 1034 066c 013060E5 		strb	r3, [r0, #-1]!
 1035              	.LVL127:
 1036              		.loc 1 62 5 is_stmt 1 view .LVU341
 1037              		.loc 1 63 26 view .LVU342
 1038              		.loc 1 63 26 is_stmt 0 view .LVU343
 1039 0670 F3FFFFCA 		bgt	.L38
 1040              		.loc 1 65 3 is_stmt 1 view .LVU344
 1041              	.LVL128:
 1042              		.loc 1 65 5 is_stmt 0 view .LVU345
 1043 0674 002042E0 		sub	r2, r2, r0
 1044              	.LVL129:
 1045              		.loc 1 65 5 view .LVU346
 1046 0678 02C081E0 		add	ip, r1, r2
 1047 067c 000000EA 		b	.L39
 1048              	.LVL130:
 1049              	.L132:
 1050              		.loc 1 67 12 view .LVU347
 1051 0680 0130F0E5 		ldrb	r3, [r0, #1]!	@ zero_extendqisi2
 1052              	.L39:
 1053              		.loc 1 66 3 is_stmt 1 view .LVU348
 1054              		.loc 1 67 5 view .LVU349
 1055              	.LVL131:
 1056              		.loc 1 67 10 is_stmt 0 view .LVU350
 1057 0684 0130C1E4 		strb	r3, [r1], #1
 1058              	.LVL132:
 1059              		.loc 1 68 10 is_stmt 1 view .LVU351
 1060              		.loc 1 68 10 is_stmt 0 view .LVU352
 1061 0688 0C0051E1 		cmp	r1, ip
 1062 068c FBFFFF1A 		bne	.L132
 1063 0690 5EFFFFEA 		b	.L32
 1064              	.LVL133:
 1065              	.L24:
 1066              		.loc 1 68 10 view .LVU353
 1067              	.LBE35:
 1068              	.LBE36:
 1069              	.LBE37:
 1070              		.loc 1 183 5 view .LVU354
 1071 0694 0870A0E3 		mov	r7, #8
 1072              	.L22:
 1073              	.LVL134:
 1074              		.loc 1 231 7 is_stmt 1 view .LVU355
 1075              		.loc 1 231 10 is_stmt 0 view .LVU356
 1076 0698 190053E3 		cmp	r3, #25
 1077              		.loc 1 202 11 view .LVU357
 1078 069c 14309DE5 		ldr	r3, [sp, #20]
 1079              	.LVL135:
 1080              		.loc 1 202 11 view .LVU358
 1081 06a0 0310A0E1 		mov	r1, r3
 1082              	.LVL136:
ARM GAS  /tmp/ccFpoagb.s 			page 20


 1083              		.loc 1 202 11 view .LVU359
 1084 06a4 040091E4 		ldr	r0, [r1], #4
 1085              	.LVL137:
 1086              		.loc 1 234 11 view .LVU360
 1087 06a8 14108D85 		strhi	r1, [sp, #20]
 1088              		.loc 1 231 10 view .LVU361
 1089 06ac 1C00009A 		bls	.L48
 1090              	.L49:
 1091              	.LVL138:
 1092              		.loc 1 235 7 is_stmt 1 view .LVU362
 1093              	.LBB38:
 1094              	.LBI38:
 1095              		.loc 1 73 14 view .LVU363
 1096              		.loc 1 75 3 view .LVU364
 1097              	.LBB39:
 1098              	.LBI39:
 1099              		.loc 1 40 14 view .LVU365
 1100              	.LBB40:
 1101              		.loc 1 44 3 view .LVU366
 1102              		.loc 1 45 3 view .LVU367
 1103              		.loc 1 46 3 view .LVU368
 1104              		.loc 1 48 3 view .LVU369
 1105              		.loc 1 49 3 view .LVU370
 1106              		.loc 1 55 3 view .LVU371
 1107              		.loc 1 55 5 is_stmt 0 view .LVU372
 1108 06b0 23608DE2 		add	r6, sp, #35
 1109 06b4 000000EA 		b	.L51
 1110              	.LVL139:
 1111              	.L80:
 1112              		.loc 1 55 5 view .LVU373
 1113 06b8 0C60A0E1 		mov	r6, ip
 1114              	.LVL140:
 1115              	.L51:
 1116              		.loc 1 56 3 is_stmt 1 view .LVU374
 1117              		.loc 1 57 5 view .LVU375
 1118 06bc 0710A0E1 		mov	r1, r7
 1119              		.loc 1 57 17 is_stmt 0 view .LVU376
 1120 06c0 0090A0E1 		mov	r9, r0
 1121 06c4 FEFFFFEB 		bl	__aeabi_uidivmod
 1122              	.LVL141:
 1123              		.loc 1 60 7 is_stmt 1 view .LVU377
 1124              		.loc 1 58 7 is_stmt 0 view .LVU378
 1125 06c8 303081E2 		add	r3, r1, #48
 1126              		.loc 1 59 8 view .LVU379
 1127 06cc 390053E3 		cmp	r3, #57
 1128              		.loc 1 60 9 view .LVU380
 1129 06d0 373081C2 		addgt	r3, r1, #55
 1130              		.loc 1 61 10 view .LVU381
 1131 06d4 7330EFE6 		uxtb	r3, r3
 1132              		.loc 1 63 26 view .LVU382
 1133 06d8 070059E1 		cmp	r9, r7
 1134              		.loc 1 61 10 view .LVU383
 1135 06dc 01C046E2 		sub	ip, r6, #1
 1136              	.LVL142:
 1137              		.loc 1 58 5 is_stmt 1 view .LVU384
 1138              		.loc 1 59 5 view .LVU385
 1139              		.loc 1 61 5 view .LVU386
ARM GAS  /tmp/ccFpoagb.s 			page 21


 1140              		.loc 1 61 10 is_stmt 0 view .LVU387
 1141 06e0 013046E5 		strb	r3, [r6, #-1]
 1142              		.loc 1 62 5 is_stmt 1 view .LVU388
 1143              	.LVL143:
 1144              		.loc 1 63 26 view .LVU389
 1145              		.loc 1 63 26 is_stmt 0 view .LVU390
 1146 06e4 F3FFFF2A 		bcs	.L80
 1147              		.loc 1 65 3 is_stmt 1 view .LVU391
 1148              	.LVL144:
 1149              		.loc 1 65 5 is_stmt 0 view .LVU392
 1150 06e8 23108DE2 		add	r1, sp, #35
 1151 06ec 0620A0E1 		mov	r2, r6
 1152 06f0 18608DE2 		add	r6, sp, #24
 1153 06f4 0170A0E1 		mov	r7, r1
 1154 06f8 0CC041E0 		sub	ip, r1, ip
 1155              	.LVL145:
 1156              		.loc 1 65 5 view .LVU393
 1157 06fc 0610A0E1 		mov	r1, r6
 1158 0700 000000EA 		b	.L53
 1159              	.LVL146:
 1160              	.L52:
 1161              		.loc 1 67 12 view .LVU394
 1162 0704 0130D2E4 		ldrb	r3, [r2], #1	@ zero_extendqisi2
 1163              	.LVL147:
 1164              	.L53:
 1165              		.loc 1 66 3 is_stmt 1 view .LVU395
 1166              		.loc 1 67 5 view .LVU396
 1167              		.loc 1 68 10 is_stmt 0 view .LVU397
 1168 0708 020057E1 		cmp	r7, r2
 1169              		.loc 1 67 10 view .LVU398
 1170 070c 0130C1E4 		strb	r3, [r1], #1
 1171              	.LVL148:
 1172              		.loc 1 68 10 is_stmt 1 view .LVU399
 1173              		.loc 1 68 10 is_stmt 0 view .LVU400
 1174 0710 FBFFFF1A 		bne	.L52
 1175              	.LBE40:
 1176              	.LBE39:
 1177              	.LBE38:
 1178              		.loc 1 235 11 view .LVU401
 1179 0714 0CC086E0 		add	ip, r6, ip
 1180 0718 3CFFFFEA 		b	.L32
 1181              	.LVL149:
 1182              	.L64:
 1183              		.loc 1 231 7 is_stmt 1 view .LVU402
 1184              		.loc 1 183 5 is_stmt 0 view .LVU403
 1185 071c 0870A0E3 		mov	r7, #8
 1186 0720 14309DE5 		ldr	r3, [sp, #20]
 1187              	.LVL150:
 1188              	.L48:
 1189              		.loc 1 232 9 is_stmt 1 view .LVU404
 1190              		.loc 1 232 11 is_stmt 0 view .LVU405
 1191 0724 041083E2 		add	r1, r3, #4
 1192 0728 000093E5 		ldr	r0, [r3]
 1193 072c 14108DE5 		str	r1, [sp, #20]
 1194 0730 DEFFFFEA 		b	.L49
 1195              	.LVL151:
 1196              	.L81:
ARM GAS  /tmp/ccFpoagb.s 			page 22


 1197              		.loc 1 183 5 view .LVU406
 1198 0734 1070A0E3 		mov	r7, #16
 1199 0738 14309DE5 		ldr	r3, [sp, #20]
 1200 073c F8FFFFEA 		b	.L48
 1201              	.LVL152:
 1202              	.L74:
 1203              		.loc 1 183 5 view .LVU407
 1204 0740 0A70A0E3 		mov	r7, #10
 1205 0744 D3FFFFEA 		b	.L22
 1206              	.LVL153:
 1207              	.L92:
 1208              		.loc 1 183 5 view .LVU408
 1209 0748 14309DE5 		ldr	r3, [sp, #20]
 1210              	.LVL154:
 1211              	.L35:
 1212              		.loc 1 200 9 is_stmt 1 view .LVU409
 1213              		.loc 1 200 11 is_stmt 0 view .LVU410
 1214 074c 042083E2 		add	r2, r3, #4
 1215 0750 00C093E5 		ldr	ip, [r3]
 1216 0754 14208DE5 		str	r2, [sp, #20]
 1217 0758 AFFFFFEA 		b	.L36
 1218              	.LVL155:
 1219              	.L126:
 1220              		.loc 1 248 9 is_stmt 1 view .LVU411
 1221              		.loc 1 133 7 is_stmt 0 view .LVU412
 1222 075c 003095E5 		ldr	r3, [r5]
 1223              		.loc 1 248 9 view .LVU413
 1224 0760 2D10A0E3 		mov	r1, #45
 1225 0764 0500A0E1 		mov	r0, r5
 1226 0768 083093E5 		ldr	r3, [r3, #8]
 1227 076c 016086E2 		add	r6, r6, #1
 1228              	.LVL156:
 1229              		.loc 1 255 16 view .LVU414
 1230 0770 014044E2 		sub	r4, r4, #1
 1231              		.loc 1 248 9 view .LVU415
 1232 0774 33FF2FE1 		blx	r3
 1233              	.LVL157:
 1234              		.loc 1 249 9 is_stmt 1 view .LVU416
 1235 0778 04FFFFEA 		b	.L56
 1236              	.LVL158:
 1237              	.L63:
 1238              		.loc 1 183 5 is_stmt 0 view .LVU417
 1239 077c 0A70A0E3 		mov	r7, #10
 1240 0780 14309DE5 		ldr	r3, [sp, #20]
 1241 0784 E6FFFFEA 		b	.L48
 1242              	.LVL159:
 1243              	.L20:
 1244              		.loc 1 183 5 view .LVU418
 1245 0788 1070A0E3 		mov	r7, #16
 1246 078c C1FFFFEA 		b	.L22
 1247              	.LVL160:
 1248              	.L84:
 1249              		.loc 1 191 11 view .LVU419
 1250 0790 34609FE5 		ldr	r6, .L133+12
 1251 0794 13FFFFEA 		b	.L68
 1252              	.LVL161:
 1253              	.L127:
ARM GAS  /tmp/ccFpoagb.s 			page 23


 1254              		.loc 1 241 5 is_stmt 1 view .LVU420
 1255              		.loc 1 242 5 view .LVU421
 1256              		.loc 1 244 5 view .LVU422
 1257              		.loc 1 244 8 is_stmt 0 view .LVU423
 1258 0798 00005BE3 		cmp	fp, #0
 1259 079c 0470A011 		movne	r7, r4
 1260              		.loc 1 189 14 view .LVU424
 1261 07a0 2080A013 		movne	r8, #32
 1262              		.loc 1 244 8 view .LVU425
 1263 07a4 A3FEFF1A 		bne	.L59
 1264              		.loc 1 245 7 is_stmt 1 view .LVU426
 1265              		.loc 1 246 8 is_stmt 0 view .LVU427
 1266 07a8 000054E3 		cmp	r4, #0
 1267              		.loc 1 245 13 view .LVU428
 1268 07ac 007064E2 		rsb	r7, r4, #0
 1269              	.LVL162:
 1270              		.loc 1 246 5 is_stmt 1 view .LVU429
 1271              		.loc 1 246 8 is_stmt 0 view .LVU430
 1272 07b0 23FEFF0A 		beq	.L5
 1273              		.loc 1 189 14 view .LVU431
 1274 07b4 2080A0E3 		mov	r8, #32
 1275              		.loc 1 246 8 view .LVU432
 1276 07b8 0040E0E3 		mvn	r4, #0
 1277 07bc F3FEFFEA 		b	.L56
 1278              	.L134:
 1279              		.align	2
 1280              	.L133:
 1281 07c0 FF7F0000 		.word	32767
 1282 07c4 CDCCCCCC 		.word	-858993459
 1283 07c8 006AF840 		.word	1090021888
 1284 07cc 00000000 		.word	.LC0
 1285              		.cfi_endproc
 1286              	.LFE10:
 1287              		.size	chprintf, .-chprintf
 1288              		.text
 1289              	.Letext0:
 1290              		.file 2 "/usr/lib/gcc/arm-none-eabi/11.2.0/include/stdarg.h"
 1291              		.file 3 "/usr/lib/gcc/arm-none-eabi/11.2.0/include/stddef.h"
 1292              		.file 4 "/usr/arm-none-eabi/include/machine/_default_types.h"
 1293              		.file 5 "/usr/arm-none-eabi/include/sys/_stdint.h"
 1294              		.file 6 "../../os/ports/GCC/ARM/chtypes.h"
 1295              		.file 7 "../../os/kernel/include/chstreams.h"
 1296              		.file 8 "<built-in>"