ARM GAS  /tmp/cc4iwVme.s 			page 1


   1              		.cpu arm1176jz-s
   2              		.eabi_attribute 20, 1
   3              		.eabi_attribute 21, 1
   4              		.eabi_attribute 23, 3
   5              		.eabi_attribute 24, 1
   6              		.eabi_attribute 25, 1
   7              		.eabi_attribute 26, 1
   8              		.eabi_attribute 30, 2
   9              		.eabi_attribute 34, 1
  10              		.eabi_attribute 18, 4
  11              		.file	"chqueues.c"
  12              		.text
  13              	.Ltext0:
  14              		.cfi_sections	.debug_frame
  15              		.section	.text.chIQInit,"ax",%progbits
  16              		.align	2
  17              		.global	chIQInit
  18              		.arch armv6kz
  19              		.syntax unified
  20              		.arm
  21              		.fpu softvfp
  22              		.type	chIQInit, %function
  23              	chIQInit:
  24              	.LVL0:
  25              	.LFB8:
  26              		.file 1 "../../os/kernel/src/chqueues.c"
  27              		.loc 1 89 27 view -0
  28              		.cfi_startproc
  29              		@ args = 4, pretend = 0, frame = 0
  30              		@ frame_needed = 0, uses_anonymous_args = 0
  31              		.loc 1 91 3 view .LVU1
  32              		.loc 1 89 27 is_stmt 0 view .LVU2
  33 0000 04E02DE5 		str	lr, [sp, #-4]!
  34              		.cfi_def_cfa_offset 4
  35              		.cfi_offset 14, -4
  36              		.loc 1 92 18 view .LVU3
  37 0004 00E0A0E3 		mov	lr, #0
  38              		.loc 1 89 27 view .LVU4
  39 0008 04C09DE5 		ldr	ip, [sp, #4]
  40              		.loc 1 94 19 view .LVU5
  41 000c 022081E0 		add	r2, r1, r2
  42              	.LVL1:
  43              		.loc 1 92 18 view .LVU6
  44 0010 08E080E5 		str	lr, [r0, #8]
  45              		.loc 1 91 3 view .LVU7
  46 0014 040080E5 		str	r0, [r0, #4]
  47 0018 000080E5 		str	r0, [r0]
  48              		.loc 1 91 30 is_stmt 1 view .LVU8
  49              		.loc 1 92 3 view .LVU9
  50              		.loc 1 93 3 view .LVU10
  51              		.loc 1 93 47 is_stmt 0 view .LVU11
  52 001c 141080E5 		str	r1, [r0, #20]
  53              		.loc 1 93 32 view .LVU12
  54 0020 181080E5 		str	r1, [r0, #24]
  55              		.loc 1 93 17 view .LVU13
  56 0024 0C1080E5 		str	r1, [r0, #12]
  57              		.loc 1 94 3 is_stmt 1 view .LVU14
ARM GAS  /tmp/cc4iwVme.s 			page 2


  58              		.loc 1 94 14 is_stmt 0 view .LVU15
  59 0028 102080E5 		str	r2, [r0, #16]
  60              		.loc 1 95 3 is_stmt 1 view .LVU16
  61              		.loc 1 95 17 is_stmt 0 view .LVU17
  62 002c 1C3080E5 		str	r3, [r0, #28]
  63              		.loc 1 96 3 is_stmt 1 view .LVU18
  64              		.loc 1 96 15 is_stmt 0 view .LVU19
  65 0030 20C080E5 		str	ip, [r0, #32]
  66              		.loc 1 97 1 view .LVU20
  67 0034 04F09DE4 		ldr	pc, [sp], #4
  68              		.cfi_endproc
  69              	.LFE8:
  70              		.size	chIQInit, .-chIQInit
  71              		.section	.text.chIQResetI,"ax",%progbits
  72              		.align	2
  73              		.global	chIQResetI
  74              		.syntax unified
  75              		.arm
  76              		.fpu softvfp
  77              		.type	chIQResetI, %function
  78              	chIQResetI:
  79              	.LVL2:
  80              	.LFB9:
  81              		.loc 1 110 34 is_stmt 1 view -0
  82              		.cfi_startproc
  83              		@ args = 0, pretend = 0, frame = 0
  84              		@ frame_needed = 0, uses_anonymous_args = 0
  85              		.loc 1 112 3 view .LVU22
  86              		.loc 1 112 21 view .LVU23
  87              		.loc 1 114 3 view .LVU24
  88              		.loc 1 115 18 is_stmt 0 view .LVU25
  89 0000 0010A0E3 		mov	r1, #0
  90              		.loc 1 116 10 view .LVU26
  91 0004 003090E5 		ldr	r3, [r0]
  92              		.loc 1 114 36 view .LVU27
  93 0008 0C2090E5 		ldr	r2, [r0, #12]
  94              		.loc 1 116 10 view .LVU28
  95 000c 030050E1 		cmp	r0, r3
  96              		.loc 1 114 31 view .LVU29
  97 0010 142080E5 		str	r2, [r0, #20]
  98              		.loc 1 114 16 view .LVU30
  99 0014 182080E5 		str	r2, [r0, #24]
 100              		.loc 1 115 3 is_stmt 1 view .LVU31
 101              		.loc 1 115 18 is_stmt 0 view .LVU32
 102 0018 081080E5 		str	r1, [r0, #8]
 103              		.loc 1 116 3 is_stmt 1 view .LVU33
 104              		.loc 1 116 10 view .LVU34
 105 001c 1EFF2F01 		bxeq	lr
 106              		.loc 1 110 34 is_stmt 0 view .LVU35
 107 0020 70402DE9 		push	{r4, r5, r6, lr}
 108              		.cfi_def_cfa_offset 16
 109              		.cfi_offset 4, -16
 110              		.cfi_offset 5, -12
 111              		.cfi_offset 6, -8
 112              		.cfi_offset 14, -4
 113 0024 0040A0E1 		mov	r4, r0
 114              		.loc 1 117 59 view .LVU36
ARM GAS  /tmp/cc4iwVme.s 			page 3


 115 0028 0150E0E3 		mvn	r5, #1
 116              	.LVL3:
 117              	.L6:
 118              		.loc 1 117 5 is_stmt 1 view .LVU37
 119              	.LBB12:
 120              	.LBI12:
 121              		.file 2 "../../os/kernel/include/chinline.h"
 122              		.loc 2 52 23 view .LVU38
 123              	.LBB13:
 124              		.loc 2 53 3 view .LVU39
 125              		.loc 2 55 3 view .LVU40
 126              		.loc 2 55 20 is_stmt 0 view .LVU41
 127 002c 002093E5 		ldr	r2, [r3]
 128              	.LBE13:
 129              	.LBE12:
 130              		.loc 1 117 5 view .LVU42
 131 0030 0300A0E1 		mov	r0, r3
 132              	.LBB15:
 133              	.LBB14:
 134              		.loc 2 55 16 view .LVU43
 135 0034 002084E5 		str	r2, [r4]
 136              		.loc 2 55 38 view .LVU44
 137 0038 044082E5 		str	r4, [r2, #4]
 138              		.loc 2 56 3 is_stmt 1 view .LVU45
 139              	.LVL4:
 140              		.loc 2 56 3 is_stmt 0 view .LVU46
 141              	.LBE14:
 142              	.LBE15:
 143              		.loc 1 117 5 view .LVU47
 144 003c FEFFFFEB 		bl	chSchReadyI
 145              	.LVL5:
 146              		.loc 1 116 10 view .LVU48
 147 0040 003094E5 		ldr	r3, [r4]
 148              		.loc 1 117 59 view .LVU49
 149 0044 245080E5 		str	r5, [r0, #36]
 150              		.loc 1 116 10 is_stmt 1 view .LVU50
 151 0048 040053E1 		cmp	r3, r4
 152 004c F6FFFF1A 		bne	.L6
 153 0050 7080BDE8 		pop	{r4, r5, r6, pc}
 154              		.cfi_endproc
 155              	.LFE9:
 156              		.size	chIQResetI, .-chIQResetI
 157              		.section	.text.chIQPutI,"ax",%progbits
 158              		.align	2
 159              		.global	chIQPutI
 160              		.syntax unified
 161              		.arm
 162              		.fpu softvfp
 163              		.type	chIQPutI, %function
 164              	chIQPutI:
 165              	.LVL6:
 166              	.LFB10:
 167              		.loc 1 133 44 view -0
 168              		.cfi_startproc
 169              		@ args = 0, pretend = 0, frame = 0
 170              		@ frame_needed = 0, uses_anonymous_args = 0
 171              		.loc 1 135 3 view .LVU52
ARM GAS  /tmp/cc4iwVme.s 			page 4


 172              		.loc 1 135 21 view .LVU53
 173              		.loc 1 137 3 view .LVU54
 174              		.loc 1 133 44 is_stmt 0 view .LVU55
 175 0000 0030A0E1 		mov	r3, r0
 176              		.loc 1 137 7 view .LVU56
 177 0004 140090E5 		ldr	r0, [r0, #20]
 178              	.LVL7:
 179              		.loc 1 137 6 view .LVU57
 180 0008 18C093E5 		ldr	ip, [r3, #24]
 181              		.loc 1 137 7 view .LVU58
 182 000c 082093E5 		ldr	r2, [r3, #8]
 183              		.loc 1 137 6 view .LVU59
 184 0010 0C0050E1 		cmp	r0, ip
 185 0014 1800000A 		beq	.L22
 186              	.L13:
 187              		.loc 1 140 3 is_stmt 1 view .LVU60
 188              		.loc 1 140 17 is_stmt 0 view .LVU61
 189 0018 012082E2 		add	r2, r2, #1
 190              		.loc 1 141 16 view .LVU62
 191 001c 01C080E2 		add	ip, r0, #1
 192 0020 14C083E5 		str	ip, [r3, #20]
 193              		.loc 1 140 17 view .LVU63
 194 0024 082083E5 		str	r2, [r3, #8]
 195              		.loc 1 141 3 is_stmt 1 view .LVU64
 196              		.loc 1 141 19 is_stmt 0 view .LVU65
 197 0028 0010C0E5 		strb	r1, [r0]
 198              		.loc 1 142 3 is_stmt 1 view .LVU66
 199              		.loc 1 142 6 is_stmt 0 view .LVU67
 200 002c 102093E5 		ldr	r2, [r3, #16]
 201 0030 141093E5 		ldr	r1, [r3, #20]
 202              	.LVL8:
 203              		.loc 1 145 7 view .LVU68
 204 0034 000093E5 		ldr	r0, [r3]
 205              	.LVL9:
 206              		.loc 1 142 6 view .LVU69
 207 0038 020051E1 		cmp	r1, r2
 208              		.loc 1 143 5 is_stmt 1 view .LVU70
 209              		.loc 1 143 18 is_stmt 0 view .LVU71
 210 003c 0C209325 		ldrcs	r2, [r3, #12]
 211 0040 14208325 		strcs	r2, [r3, #20]
 212              	.LVL10:
 213              		.loc 1 145 3 is_stmt 1 view .LVU72
 214              		.loc 1 145 6 is_stmt 0 view .LVU73
 215 0044 030050E1 		cmp	r0, r3
 216 0048 0900000A 		beq	.L17
 217              		.loc 1 146 5 is_stmt 1 view .LVU74
 218              	.LVL11:
 219              	.LBB16:
 220              	.LBI16:
 221              		.loc 2 52 23 view .LVU75
 222              	.LBB17:
 223              		.loc 2 53 3 view .LVU76
 224              		.loc 2 55 3 view .LVU77
 225              		.loc 2 55 20 is_stmt 0 view .LVU78
 226 004c 002090E5 		ldr	r2, [r0]
 227              	.LBE17:
 228              	.LBE16:
ARM GAS  /tmp/cc4iwVme.s 			page 5


 229              		.loc 1 133 44 view .LVU79
 230 0050 10402DE9 		push	{r4, lr}
 231              		.cfi_def_cfa_offset 8
 232              		.cfi_offset 4, -8
 233              		.cfi_offset 14, -4
 234              	.LBB19:
 235              	.LBB18:
 236              		.loc 2 55 16 view .LVU80
 237 0054 002083E5 		str	r2, [r3]
 238              		.loc 2 55 38 view .LVU81
 239 0058 043082E5 		str	r3, [r2, #4]
 240              		.loc 2 56 3 is_stmt 1 view .LVU82
 241              	.LVL12:
 242              		.loc 2 56 3 is_stmt 0 view .LVU83
 243              	.LBE18:
 244              	.LBE19:
 245              		.loc 1 146 5 view .LVU84
 246 005c FEFFFFEB 		bl	chSchReadyI
 247              	.LVL13:
 248              		.loc 1 146 59 view .LVU85
 249 0060 0020A0E3 		mov	r2, #0
 250              		.loc 1 146 5 view .LVU86
 251 0064 0030A0E1 		mov	r3, r0
 252              		.loc 1 148 10 view .LVU87
 253 0068 0200A0E1 		mov	r0, r2
 254              		.loc 1 146 59 view .LVU88
 255 006c 242083E5 		str	r2, [r3, #36]
 256              		.loc 1 149 1 view .LVU89
 257 0070 1080BDE8 		pop	{r4, pc}
 258              	.LVL14:
 259              	.L17:
 260              		.cfi_def_cfa_offset 0
 261              		.cfi_restore 4
 262              		.cfi_restore 14
 263              		.loc 1 148 10 view .LVU90
 264 0074 0000A0E3 		mov	r0, #0
 265              		.loc 1 149 1 view .LVU91
 266 0078 1EFF2FE1 		bx	lr
 267              	.LVL15:
 268              	.L22:
 269              		.loc 1 137 7 discriminator 1 view .LVU92
 270 007c 000052E3 		cmp	r2, #0
 271 0080 E4FFFF0A 		beq	.L13
 272              		.loc 1 138 12 view .LVU93
 273 0084 0300E0E3 		mvn	r0, #3
 274 0088 1EFF2FE1 		bx	lr
 275              		.cfi_endproc
 276              	.LFE10:
 277              		.size	chIQPutI, .-chIQPutI
 278              		.section	.text.chIQGetTimeout,"ax",%progbits
 279              		.align	2
 280              		.global	chIQGetTimeout
 281              		.syntax unified
 282              		.arm
 283              		.fpu softvfp
 284              		.type	chIQGetTimeout, %function
 285              	chIQGetTimeout:
ARM GAS  /tmp/cc4iwVme.s 			page 6


 286              	.LVL16:
 287              	.LFB11:
 288              		.loc 1 171 55 is_stmt 1 view -0
 289              		.cfi_startproc
 290              		@ args = 0, pretend = 0, frame = 0
 291              		@ frame_needed = 0, uses_anonymous_args = 0
 292              		.loc 1 172 3 view .LVU95
 293              		.loc 1 174 3 view .LVU96
 294              		.loc 1 171 55 is_stmt 0 view .LVU97
 295 0000 70402DE9 		push	{r4, r5, r6, lr}
 296              		.cfi_def_cfa_offset 16
 297              		.cfi_offset 4, -16
 298              		.cfi_offset 5, -12
 299              		.cfi_offset 6, -8
 300              		.cfi_offset 14, -4
 301              		.loc 1 171 55 view .LVU98
 302 0004 0040A0E1 		mov	r4, r0
 303 0008 0150A0E1 		mov	r5, r1
 304              		.loc 1 174 3 view .LVU99
 305              		.syntax divided
 306              	@ 174 "../../os/kernel/src/chqueues.c" 1
 307 000c 9FF021E3 		msr     CPSR_c, #0x9F
 308              	@ 0 "" 2
 309              		.loc 1 174 3 is_stmt 1 view .LVU100
 310              		.loc 1 174 14 view .LVU101
 311              		.loc 1 175 3 view .LVU102
 312              		.loc 1 175 10 is_stmt 0 view .LVU103
 313              		.arm
 314              		.syntax unified
 315 0010 1C3090E5 		ldr	r3, [r0, #28]
 316              		.loc 1 175 6 view .LVU104
 317 0014 000053E3 		cmp	r3, #0
 318 0018 0000000A 		beq	.L24
 319              		.loc 1 176 5 is_stmt 1 view .LVU105
 320 001c 33FF2FE1 		blx	r3
 321              	.LVL17:
 322              	.L24:
 323              	.LBB25:
 324              	.LBB26:
 325              	.LBB27:
 326              		.loc 1 67 3 is_stmt 0 view .LVU106
 327 0020 80609FE5 		ldr	r6, .L36
 328 0024 0D0000EA 		b	.L26
 329              	.LVL18:
 330              	.L28:
 331              		.loc 1 65 6 view .LVU107
 332 0028 000055E3 		cmp	r5, #0
 333 002c 1A00000A 		beq	.L30
 334              		.loc 1 67 3 view .LVU108
 335 0030 183096E5 		ldr	r3, [r6, #24]
 336              	.LBB28:
 337              	.LBB29:
 338              		.loc 2 48 19 view .LVU109
 339 0034 042094E5 		ldr	r2, [r4, #4]
 340              	.LBE29:
 341              	.LBE28:
 342              		.loc 1 69 10 view .LVU110
ARM GAS  /tmp/cc4iwVme.s 			page 7


 343 0038 0510A0E1 		mov	r1, r5
 344              		.loc 1 67 21 view .LVU111
 345 003c 244083E5 		str	r4, [r3, #36]
 346              		.loc 1 68 3 is_stmt 1 view .LVU112
 347              	.LVL19:
 348              	.LBB32:
 349              	.LBI28:
 350              		.loc 2 45 20 view .LVU113
 351              	.LBB30:
 352              		.loc 2 47 3 view .LVU114
 353              		.loc 2 47 14 is_stmt 0 view .LVU115
 354 0040 004083E5 		str	r4, [r3]
 355              		.loc 2 48 3 is_stmt 1 view .LVU116
 356              		.loc 2 48 14 is_stmt 0 view .LVU117
 357 0044 042083E5 		str	r2, [r3, #4]
 358              		.loc 2 49 3 is_stmt 1 view .LVU118
 359              	.LBE30:
 360              	.LBE32:
 361              		.loc 1 69 10 is_stmt 0 view .LVU119
 362 0048 0D00A0E3 		mov	r0, #13
 363              	.LBB33:
 364              	.LBB31:
 365              		.loc 2 49 36 view .LVU120
 366 004c 043084E5 		str	r3, [r4, #4]
 367              		.loc 2 49 22 view .LVU121
 368 0050 003082E5 		str	r3, [r2]
 369              	.LVL20:
 370              		.loc 2 49 22 view .LVU122
 371              	.LBE31:
 372              	.LBE33:
 373              		.loc 1 69 3 is_stmt 1 view .LVU123
 374              		.loc 1 69 10 is_stmt 0 view .LVU124
 375 0054 FEFFFFEB 		bl	chSchGoSleepTimeoutS
 376              	.LVL21:
 377              		.loc 1 69 10 view .LVU125
 378              	.LBE27:
 379              	.LBE26:
 380              		.loc 1 180 8 view .LVU126
 381 0058 000050E3 		cmp	r0, #0
 382              		.loc 1 180 8 view .LVU127
 383 005c 0C0000BA 		blt	.L29
 384              	.LVL22:
 385              	.L26:
 386              		.loc 1 179 5 is_stmt 1 view .LVU128
 387              		.loc 1 180 5 view .LVU129
 388              	.LBB36:
 389              	.LBI26:
 390              		.loc 1 63 14 view .LVU130
 391              	.LBB34:
 392              		.loc 1 65 3 view .LVU131
 393              		.loc 1 67 3 view .LVU132
 394              	.LBE34:
 395              	.LBE36:
 396              	.LBE25:
 397              		.loc 1 178 10 view .LVU133
 398 0060 083094E5 		ldr	r3, [r4, #8]
 399 0064 000053E3 		cmp	r3, #0
ARM GAS  /tmp/cc4iwVme.s 			page 8


 400 0068 EEFFFF0A 		beq	.L28
 401              		.loc 1 186 3 view .LVU134
 402              		.loc 1 187 11 is_stmt 0 view .LVU135
 403 006c 181094E5 		ldr	r1, [r4, #24]
 404              		.loc 1 186 17 view .LVU136
 405 0070 013043E2 		sub	r3, r3, #1
 406 0074 083084E5 		str	r3, [r4, #8]
 407              		.loc 1 187 3 is_stmt 1 view .LVU137
 408              		.loc 1 188 6 is_stmt 0 view .LVU138
 409 0078 103094E5 		ldr	r3, [r4, #16]
 410              		.loc 1 187 20 view .LVU139
 411 007c 012081E2 		add	r2, r1, #1
 412              		.loc 1 188 6 view .LVU140
 413 0080 030052E1 		cmp	r2, r3
 414              		.loc 1 189 18 view .LVU141
 415 0084 0C309425 		ldrcs	r3, [r4, #12]
 416              		.loc 1 187 20 view .LVU142
 417 0088 182084E5 		str	r2, [r4, #24]
 418              		.loc 1 187 5 view .LVU143
 419 008c 0000D1E5 		ldrb	r0, [r1]	@ zero_extendqisi2
 420              	.LVL23:
 421              		.loc 1 188 3 is_stmt 1 view .LVU144
 422              		.loc 1 189 5 view .LVU145
 423              		.loc 1 189 18 is_stmt 0 view .LVU146
 424 0090 18308425 		strcs	r3, [r4, #24]
 425              	.LVL24:
 426              	.L29:
 427              		.loc 1 191 3 is_stmt 1 view .LVU147
 428              		.loc 1 191 3 view .LVU148
 429              		.syntax divided
 430              	@ 191 "../../os/kernel/src/chqueues.c" 1
 431 0094 1FF021E3 		msr     CPSR_c, #0x1F
 432              	@ 0 "" 2
 433              		.loc 1 191 16 view .LVU149
 434              		.loc 1 192 3 view .LVU150
 435              		.loc 1 193 1 is_stmt 0 view .LVU151
 436              		.arm
 437              		.syntax unified
 438 0098 7080BDE8 		pop	{r4, r5, r6, pc}
 439              	.LVL25:
 440              	.L30:
 441              	.LBB38:
 442              	.LBB37:
 443              	.LBB35:
 444              		.loc 1 66 12 view .LVU152
 445 009c 0000E0E3 		mvn	r0, #0
 446              	.LVL26:
 447              		.loc 1 66 12 view .LVU153
 448              	.LBE35:
 449              	.LBE37:
 450              		.loc 1 181 7 is_stmt 1 view .LVU154
 451              		.loc 1 181 7 view .LVU155
 452              	.LBE38:
 453              		.loc 1 191 3 view .LVU156
 454              		.loc 1 191 3 view .LVU157
 455              		.syntax divided
 456              	@ 191 "../../os/kernel/src/chqueues.c" 1
ARM GAS  /tmp/cc4iwVme.s 			page 9


 457 00a0 1FF021E3 		msr     CPSR_c, #0x1F
 458              	@ 0 "" 2
 459              		.loc 1 191 16 view .LVU158
 460              		.loc 1 192 3 view .LVU159
 461              		.loc 1 193 1 is_stmt 0 view .LVU160
 462              		.arm
 463              		.syntax unified
 464 00a4 7080BDE8 		pop	{r4, r5, r6, pc}
 465              	.L37:
 466              		.align	2
 467              	.L36:
 468 00a8 00000000 		.word	rlist
 469              		.cfi_endproc
 470              	.LFE11:
 471              		.size	chIQGetTimeout, .-chIQGetTimeout
 472              		.section	.text.chIQReadTimeout,"ax",%progbits
 473              		.align	2
 474              		.global	chIQReadTimeout
 475              		.syntax unified
 476              		.arm
 477              		.fpu softvfp
 478              		.type	chIQReadTimeout, %function
 479              	chIQReadTimeout:
 480              	.LVL27:
 481              	.LFB12:
 482              		.loc 1 220 50 is_stmt 1 view -0
 483              		.cfi_startproc
 484              		@ args = 0, pretend = 0, frame = 0
 485              		@ frame_needed = 0, uses_anonymous_args = 0
 486              		.loc 1 221 3 view .LVU162
 487              		.loc 1 220 50 is_stmt 0 view .LVU163
 488 0000 F0472DE9 		push	{r4, r5, r6, r7, r8, r9, r10, lr}
 489              		.cfi_def_cfa_offset 32
 490              		.cfi_offset 4, -32
 491              		.cfi_offset 5, -28
 492              		.cfi_offset 6, -24
 493              		.cfi_offset 7, -20
 494              		.cfi_offset 8, -16
 495              		.cfi_offset 9, -12
 496              		.cfi_offset 10, -8
 497              		.cfi_offset 14, -4
 498              		.loc 1 220 50 view .LVU164
 499 0004 0040A0E1 		mov	r4, r0
 500 0008 0170A0E1 		mov	r7, r1
 501 000c 0290A0E1 		mov	r9, r2
 502 0010 03A0A0E1 		mov	r10, r3
 503              		.loc 1 221 13 view .LVU165
 504 0014 1C8090E5 		ldr	r8, [r0, #28]
 505              	.LVL28:
 506              		.loc 1 222 3 is_stmt 1 view .LVU166
 507              		.loc 1 224 3 view .LVU167
 508              		.loc 1 224 39 view .LVU168
 509              		.loc 1 226 3 view .LVU169
 510              		.syntax divided
 511              	@ 226 "../../os/kernel/src/chqueues.c" 1
 512 0018 9FF021E3 		msr     CPSR_c, #0x9F
 513              	@ 0 "" 2
ARM GAS  /tmp/cc4iwVme.s 			page 10


 514              		.loc 1 222 10 is_stmt 0 view .LVU170
 515              		.arm
 516              		.syntax unified
 517 001c 0060A0E3 		mov	r6, #0
 518              	.LBB43:
 519              	.LBB44:
 520              		.loc 1 67 3 view .LVU171
 521 0020 A4509FE5 		ldr	r5, .L55
 522              	.LVL29:
 523              	.L45:
 524              		.loc 1 67 3 view .LVU172
 525              	.LBE44:
 526              	.LBE43:
 527              		.loc 1 226 3 is_stmt 1 discriminator 1 view .LVU173
 528              		.loc 1 226 14 discriminator 1 view .LVU174
 529              		.loc 1 227 3 discriminator 1 view .LVU175
 530              		.loc 1 228 5 discriminator 1 view .LVU176
 531              		.loc 1 228 8 is_stmt 0 discriminator 1 view .LVU177
 532 0024 000058E3 		cmp	r8, #0
 533 0028 0F00000A 		beq	.L41
 534              		.loc 1 229 7 is_stmt 1 view .LVU178
 535 002c 0400A0E1 		mov	r0, r4
 536 0030 38FF2FE1 		blx	r8
 537              	.LVL30:
 538 0034 0C0000EA 		b	.L41
 539              	.LVL31:
 540              	.L43:
 541              	.LBB55:
 542              	.LBB53:
 543              		.loc 1 65 6 is_stmt 0 view .LVU179
 544 0038 00005AE3 		cmp	r10, #0
 545 003c 1F00000A 		beq	.L40
 546              		.loc 1 67 3 view .LVU180
 547 0040 18C095E5 		ldr	ip, [r5, #24]
 548              	.LBB45:
 549              	.LBB46:
 550              		.loc 2 48 19 view .LVU181
 551 0044 04E094E5 		ldr	lr, [r4, #4]
 552              	.LBE46:
 553              	.LBE45:
 554              		.loc 1 69 10 view .LVU182
 555 0048 0A10A0E1 		mov	r1, r10
 556              	.LBB50:
 557              	.LBB47:
 558              		.loc 2 48 14 view .LVU183
 559 004c 10408CE8 		stm	ip, {r4, lr}
 560              	.LBE47:
 561              	.LBE50:
 562              		.loc 1 67 21 view .LVU184
 563 0050 24408CE5 		str	r4, [ip, #36]
 564              		.loc 1 68 3 is_stmt 1 view .LVU185
 565              	.LVL32:
 566              	.LBB51:
 567              	.LBI45:
 568              		.loc 2 45 20 view .LVU186
 569              	.LBB48:
 570              		.loc 2 47 3 view .LVU187
ARM GAS  /tmp/cc4iwVme.s 			page 11


 571              		.loc 2 49 3 view .LVU188
 572              	.LBE48:
 573              	.LBE51:
 574              		.loc 1 69 10 is_stmt 0 view .LVU189
 575 0054 0D00A0E3 		mov	r0, #13
 576              	.LBB52:
 577              	.LBB49:
 578              		.loc 2 49 36 view .LVU190
 579 0058 04C084E5 		str	ip, [r4, #4]
 580              		.loc 2 49 22 view .LVU191
 581 005c 00C08EE5 		str	ip, [lr]
 582              	.LVL33:
 583              		.loc 2 49 22 view .LVU192
 584              	.LBE49:
 585              	.LBE52:
 586              		.loc 1 69 3 is_stmt 1 view .LVU193
 587              		.loc 1 69 10 is_stmt 0 view .LVU194
 588 0060 FEFFFFEB 		bl	chSchGoSleepTimeoutS
 589              	.LVL34:
 590              		.loc 1 69 10 view .LVU195
 591              	.LBE53:
 592              	.LBE55:
 593              		.loc 1 232 10 view .LVU196
 594 0064 000050E3 		cmp	r0, #0
 595 0068 1400001A 		bne	.L40
 596              	.L41:
 597              		.loc 1 232 7 is_stmt 1 view .LVU197
 598              	.LVL35:
 599              	.LBB56:
 600              	.LBI43:
 601              		.loc 1 63 14 view .LVU198
 602              	.LBB54:
 603              		.loc 1 65 3 view .LVU199
 604              		.loc 1 67 3 view .LVU200
 605              	.LBE54:
 606              	.LBE56:
 607              		.loc 1 231 12 view .LVU201
 608 006c 082094E5 		ldr	r2, [r4, #8]
 609 0070 000052E3 		cmp	r2, #0
 610 0074 EFFFFF0A 		beq	.L43
 611              		.loc 1 238 5 view .LVU202
 612              		.loc 1 239 17 is_stmt 0 view .LVU203
 613 0078 183094E5 		ldr	r3, [r4, #24]
 614              		.loc 1 238 19 view .LVU204
 615 007c 012042E2 		sub	r2, r2, #1
 616 0080 082084E5 		str	r2, [r4, #8]
 617              		.loc 1 239 5 is_stmt 1 view .LVU205
 618              		.loc 1 239 26 is_stmt 0 view .LVU206
 619 0084 012083E2 		add	r2, r3, #1
 620 0088 182084E5 		str	r2, [r4, #24]
 621              	.LVL36:
 622              		.loc 1 239 13 view .LVU207
 623 008c 0030D3E5 		ldrb	r3, [r3]	@ zero_extendqisi2
 624              		.loc 1 239 11 view .LVU208
 625 0090 0130C7E4 		strb	r3, [r7], #1
 626              	.LVL37:
 627              		.loc 1 240 5 is_stmt 1 view .LVU209
ARM GAS  /tmp/cc4iwVme.s 			page 12


 628              		.loc 1 240 8 is_stmt 0 view .LVU210
 629 0094 103094E5 		ldr	r3, [r4, #16]
 630 0098 182094E5 		ldr	r2, [r4, #24]
 631 009c 030052E1 		cmp	r2, r3
 632              		.loc 1 241 7 is_stmt 1 view .LVU211
 633              		.loc 1 241 20 is_stmt 0 view .LVU212
 634 00a0 0C309425 		ldrcs	r3, [r4, #12]
 635 00a4 18308425 		strcs	r3, [r4, #24]
 636              		.loc 1 243 5 is_stmt 1 view .LVU213
 637              		.loc 1 243 5 view .LVU214
 638              		.syntax divided
 639              	@ 243 "../../os/kernel/src/chqueues.c" 1
 640 00a8 1FF021E3 		msr     CPSR_c, #0x1F
 641              	@ 0 "" 2
 642              		.loc 1 243 18 view .LVU215
 643              		.loc 1 244 5 view .LVU216
 644              		.loc 1 244 6 is_stmt 0 view .LVU217
 645              		.arm
 646              		.syntax unified
 647 00ac 016086E2 		add	r6, r6, #1
 648              	.LVL38:
 649              		.loc 1 245 5 is_stmt 1 view .LVU218
 650              		.loc 1 245 8 is_stmt 0 view .LVU219
 651 00b0 060059E1 		cmp	r9, r6
 652 00b4 0200000A 		beq	.L38
 653              		.loc 1 248 5 is_stmt 1 view .LVU220
 654              		.syntax divided
 655              	@ 248 "../../os/kernel/src/chqueues.c" 1
 656 00b8 9FF021E3 		msr     CPSR_c, #0x9F
 657              	@ 0 "" 2
 658              		.loc 1 248 5 view .LVU221
 659              		.loc 1 248 16 view .LVU222
 660              		.loc 1 227 9 view .LVU223
 661              		.loc 1 228 8 is_stmt 0 view .LVU224
 662              		.arm
 663              		.syntax unified
 664 00bc D8FFFFEA 		b	.L45
 665              	.LVL39:
 666              	.L40:
 667              		.loc 1 233 9 is_stmt 1 view .LVU225
 668              		.loc 1 233 9 view .LVU226
 669              		.syntax divided
 670              	@ 233 "../../os/kernel/src/chqueues.c" 1
 671 00c0 1FF021E3 		msr     CPSR_c, #0x1F
 672              	@ 0 "" 2
 673              		.loc 1 233 22 view .LVU227
 674              		.loc 1 234 9 view .LVU228
 675              		.arm
 676              		.syntax unified
 677              	.L38:
 678              		.loc 1 250 1 is_stmt 0 view .LVU229
 679 00c4 0600A0E1 		mov	r0, r6
 680 00c8 F087BDE8 		pop	{r4, r5, r6, r7, r8, r9, r10, pc}
 681              	.L56:
 682              		.align	2
 683              	.L55:
 684 00cc 00000000 		.word	rlist
ARM GAS  /tmp/cc4iwVme.s 			page 13


 685              		.cfi_endproc
 686              	.LFE12:
 687              		.size	chIQReadTimeout, .-chIQReadTimeout
 688              		.section	.text.chOQInit,"ax",%progbits
 689              		.align	2
 690              		.global	chOQInit
 691              		.syntax unified
 692              		.arm
 693              		.fpu softvfp
 694              		.type	chOQInit, %function
 695              	chOQInit:
 696              	.LVL40:
 697              	.LFB13:
 698              		.loc 1 269 27 is_stmt 1 view -0
 699              		.cfi_startproc
 700              		@ args = 4, pretend = 0, frame = 0
 701              		@ frame_needed = 0, uses_anonymous_args = 0
 702              		@ link register save eliminated.
 703              		.loc 1 271 3 view .LVU231
 704              		.loc 1 269 27 is_stmt 0 view .LVU232
 705 0000 00C09DE5 		ldr	ip, [sp]
 706              		.loc 1 272 18 view .LVU233
 707 0004 082080E5 		str	r2, [r0, #8]
 708              		.loc 1 274 19 view .LVU234
 709 0008 022081E0 		add	r2, r1, r2
 710              	.LVL41:
 711              		.loc 1 275 17 view .LVU235
 712 000c 1C3080E5 		str	r3, [r0, #28]
 713              		.loc 1 271 3 view .LVU236
 714 0010 040080E5 		str	r0, [r0, #4]
 715 0014 000080E5 		str	r0, [r0]
 716              		.loc 1 271 30 is_stmt 1 view .LVU237
 717              		.loc 1 272 3 view .LVU238
 718              		.loc 1 273 3 view .LVU239
 719              		.loc 1 274 14 is_stmt 0 view .LVU240
 720 0018 102080E5 		str	r2, [r0, #16]
 721              		.loc 1 273 47 view .LVU241
 722 001c 141080E5 		str	r1, [r0, #20]
 723              		.loc 1 273 32 view .LVU242
 724 0020 181080E5 		str	r1, [r0, #24]
 725              		.loc 1 273 17 view .LVU243
 726 0024 0C1080E5 		str	r1, [r0, #12]
 727              		.loc 1 274 3 is_stmt 1 view .LVU244
 728              		.loc 1 275 3 view .LVU245
 729              		.loc 1 276 3 view .LVU246
 730              		.loc 1 276 15 is_stmt 0 view .LVU247
 731 0028 20C080E5 		str	ip, [r0, #32]
 732              		.loc 1 277 1 view .LVU248
 733 002c 1EFF2FE1 		bx	lr
 734              		.cfi_endproc
 735              	.LFE13:
 736              		.size	chOQInit, .-chOQInit
 737              		.section	.text.chOQResetI,"ax",%progbits
 738              		.align	2
 739              		.global	chOQResetI
 740              		.syntax unified
 741              		.arm
ARM GAS  /tmp/cc4iwVme.s 			page 14


 742              		.fpu softvfp
 743              		.type	chOQResetI, %function
 744              	chOQResetI:
 745              	.LVL42:
 746              	.LFB14:
 747              		.loc 1 290 35 is_stmt 1 view -0
 748              		.cfi_startproc
 749              		@ args = 0, pretend = 0, frame = 0
 750              		@ frame_needed = 0, uses_anonymous_args = 0
 751              		.loc 1 292 3 view .LVU250
 752              		.loc 1 292 21 view .LVU251
 753              		.loc 1 294 3 view .LVU252
 754              		.loc 1 294 36 is_stmt 0 view .LVU253
 755 0000 0C1090E5 		ldr	r1, [r0, #12]
 756              		.loc 1 295 20 view .LVU254
 757 0004 102090E5 		ldr	r2, [r0, #16]
 758              		.loc 1 296 10 view .LVU255
 759 0008 003090E5 		ldr	r3, [r0]
 760              		.loc 1 295 20 view .LVU256
 761 000c 012042E0 		sub	r2, r2, r1
 762              		.loc 1 296 10 view .LVU257
 763 0010 030050E1 		cmp	r0, r3
 764              		.loc 1 294 31 view .LVU258
 765 0014 141080E5 		str	r1, [r0, #20]
 766              		.loc 1 294 16 view .LVU259
 767 0018 181080E5 		str	r1, [r0, #24]
 768              		.loc 1 295 3 is_stmt 1 view .LVU260
 769              		.loc 1 295 18 is_stmt 0 view .LVU261
 770 001c 082080E5 		str	r2, [r0, #8]
 771              		.loc 1 296 3 is_stmt 1 view .LVU262
 772              		.loc 1 296 10 view .LVU263
 773 0020 1EFF2F01 		bxeq	lr
 774              		.loc 1 290 35 is_stmt 0 view .LVU264
 775 0024 70402DE9 		push	{r4, r5, r6, lr}
 776              		.cfi_def_cfa_offset 16
 777              		.cfi_offset 4, -16
 778              		.cfi_offset 5, -12
 779              		.cfi_offset 6, -8
 780              		.cfi_offset 14, -4
 781 0028 0040A0E1 		mov	r4, r0
 782              		.loc 1 297 59 view .LVU265
 783 002c 0150E0E3 		mvn	r5, #1
 784              	.LVL43:
 785              	.L60:
 786              		.loc 1 297 5 is_stmt 1 view .LVU266
 787              	.LBB57:
 788              	.LBI57:
 789              		.loc 2 52 23 view .LVU267
 790              	.LBB58:
 791              		.loc 2 53 3 view .LVU268
 792              		.loc 2 55 3 view .LVU269
 793              		.loc 2 55 20 is_stmt 0 view .LVU270
 794 0030 002093E5 		ldr	r2, [r3]
 795              	.LBE58:
 796              	.LBE57:
 797              		.loc 1 297 5 view .LVU271
 798 0034 0300A0E1 		mov	r0, r3
ARM GAS  /tmp/cc4iwVme.s 			page 15


 799              	.LBB60:
 800              	.LBB59:
 801              		.loc 2 55 16 view .LVU272
 802 0038 002084E5 		str	r2, [r4]
 803              		.loc 2 55 38 view .LVU273
 804 003c 044082E5 		str	r4, [r2, #4]
 805              		.loc 2 56 3 is_stmt 1 view .LVU274
 806              	.LVL44:
 807              		.loc 2 56 3 is_stmt 0 view .LVU275
 808              	.LBE59:
 809              	.LBE60:
 810              		.loc 1 297 5 view .LVU276
 811 0040 FEFFFFEB 		bl	chSchReadyI
 812              	.LVL45:
 813              		.loc 1 296 10 view .LVU277
 814 0044 003094E5 		ldr	r3, [r4]
 815              		.loc 1 297 59 view .LVU278
 816 0048 245080E5 		str	r5, [r0, #36]
 817              		.loc 1 296 10 is_stmt 1 view .LVU279
 818 004c 040053E1 		cmp	r3, r4
 819 0050 F6FFFF1A 		bne	.L60
 820 0054 7080BDE8 		pop	{r4, r5, r6, pc}
 821              		.cfi_endproc
 822              	.LFE14:
 823              		.size	chOQResetI, .-chOQResetI
 824              		.section	.text.chOQPutTimeout,"ax",%progbits
 825              		.align	2
 826              		.global	chOQPutTimeout
 827              		.syntax unified
 828              		.arm
 829              		.fpu softvfp
 830              		.type	chOQPutTimeout, %function
 831              	chOQPutTimeout:
 832              	.LVL46:
 833              	.LFB15:
 834              		.loc 1 322 67 view -0
 835              		.cfi_startproc
 836              		@ args = 0, pretend = 0, frame = 0
 837              		@ frame_needed = 0, uses_anonymous_args = 0
 838              		.loc 1 324 3 view .LVU281
 839              		.loc 1 322 67 is_stmt 0 view .LVU282
 840 0000 F0412DE9 		push	{r4, r5, r6, r7, r8, lr}
 841              		.cfi_def_cfa_offset 24
 842              		.cfi_offset 4, -24
 843              		.cfi_offset 5, -20
 844              		.cfi_offset 6, -16
 845              		.cfi_offset 7, -12
 846              		.cfi_offset 8, -8
 847              		.cfi_offset 14, -4
 848              		.loc 1 322 67 view .LVU283
 849 0004 0040A0E1 		mov	r4, r0
 850 0008 0160A0E1 		mov	r6, r1
 851 000c 0250A0E1 		mov	r5, r2
 852              		.loc 1 324 3 view .LVU284
 853              		.syntax divided
 854              	@ 324 "../../os/kernel/src/chqueues.c" 1
 855 0010 9FF021E3 		msr     CPSR_c, #0x9F
ARM GAS  /tmp/cc4iwVme.s 			page 16


 856              	@ 0 "" 2
 857              		.loc 1 324 3 is_stmt 1 view .LVU285
 858              		.loc 1 324 14 view .LVU286
 859              		.loc 1 325 3 view .LVU287
 860              		.arm
 861              		.syntax unified
 862              	.LBB66:
 863              	.LBB67:
 864              	.LBB68:
 865              		.loc 1 67 3 is_stmt 0 view .LVU288
 866 0014 98709FE5 		ldr	r7, .L79
 867              	.LBE68:
 868              	.LBE67:
 869              	.LBE66:
 870              		.loc 1 325 9 view .LVU289
 871 0018 0C0000EA 		b	.L67
 872              	.LVL47:
 873              	.L70:
 874              	.LBB83:
 875              	.LBB80:
 876              	.LBB77:
 877              		.loc 1 65 6 view .LVU290
 878 001c 000055E3 		cmp	r5, #0
 879 0020 2000000A 		beq	.L73
 880              		.loc 1 67 3 view .LVU291
 881 0024 183097E5 		ldr	r3, [r7, #24]
 882              	.LBB69:
 883              	.LBB70:
 884              		.loc 2 48 19 view .LVU292
 885 0028 04C094E5 		ldr	ip, [r4, #4]
 886              	.LBE70:
 887              	.LBE69:
 888              		.loc 1 69 10 view .LVU293
 889 002c 0510A0E1 		mov	r1, r5
 890              	.LBB74:
 891              	.LBB71:
 892              		.loc 2 48 14 view .LVU294
 893 0030 101083E8 		stm	r3, {r4, ip}
 894              	.LBE71:
 895              	.LBE74:
 896              		.loc 1 67 21 view .LVU295
 897 0034 244083E5 		str	r4, [r3, #36]
 898              		.loc 1 68 3 is_stmt 1 view .LVU296
 899              	.LVL48:
 900              	.LBB75:
 901              	.LBI69:
 902              		.loc 2 45 20 view .LVU297
 903              	.LBB72:
 904              		.loc 2 47 3 view .LVU298
 905              		.loc 2 49 3 view .LVU299
 906              	.LBE72:
 907              	.LBE75:
 908              		.loc 1 69 10 is_stmt 0 view .LVU300
 909 0038 0D00A0E3 		mov	r0, #13
 910              	.LBB76:
 911              	.LBB73:
 912              		.loc 2 49 36 view .LVU301
ARM GAS  /tmp/cc4iwVme.s 			page 17


 913 003c 043084E5 		str	r3, [r4, #4]
 914              		.loc 2 49 22 view .LVU302
 915 0040 00308CE5 		str	r3, [ip]
 916              	.LVL49:
 917              		.loc 2 49 22 view .LVU303
 918              	.LBE73:
 919              	.LBE76:
 920              		.loc 1 69 3 is_stmt 1 view .LVU304
 921              		.loc 1 69 10 is_stmt 0 view .LVU305
 922 0044 FEFFFFEB 		bl	chSchGoSleepTimeoutS
 923              	.LVL50:
 924              		.loc 1 69 10 view .LVU306
 925              	.LBE77:
 926              	.LBE80:
 927              		.loc 1 328 8 view .LVU307
 928 0048 000050E3 		cmp	r0, #0
 929              		.loc 1 328 8 view .LVU308
 930 004c 160000BA 		blt	.L68
 931              	.LVL51:
 932              	.L67:
 933              		.loc 1 326 5 is_stmt 1 view .LVU309
 934              		.loc 1 328 5 view .LVU310
 935              	.LBB81:
 936              	.LBI67:
 937              		.loc 1 63 14 view .LVU311
 938              	.LBB78:
 939              		.loc 1 65 3 view .LVU312
 940              		.loc 1 67 3 view .LVU313
 941              	.LBE78:
 942              	.LBE81:
 943              	.LBE83:
 944              		.loc 1 325 10 view .LVU314
 945 0050 083094E5 		ldr	r3, [r4, #8]
 946 0054 000053E3 		cmp	r3, #0
 947 0058 EFFFFF0A 		beq	.L70
 948              		.loc 1 334 3 view .LVU315
 949              		.loc 1 335 7 is_stmt 0 view .LVU316
 950 005c 142094E5 		ldr	r2, [r4, #20]
 951              		.loc 1 334 17 view .LVU317
 952 0060 013043E2 		sub	r3, r3, #1
 953              		.loc 1 335 16 view .LVU318
 954 0064 011082E2 		add	r1, r2, #1
 955 0068 141084E5 		str	r1, [r4, #20]
 956              		.loc 1 334 17 view .LVU319
 957 006c 083084E5 		str	r3, [r4, #8]
 958              		.loc 1 335 3 is_stmt 1 view .LVU320
 959              		.loc 1 335 19 is_stmt 0 view .LVU321
 960 0070 0060C2E5 		strb	r6, [r2]
 961              		.loc 1 336 3 is_stmt 1 view .LVU322
 962              		.loc 1 336 6 is_stmt 0 view .LVU323
 963 0074 103094E5 		ldr	r3, [r4, #16]
 964 0078 142094E5 		ldr	r2, [r4, #20]
 965 007c 030052E1 		cmp	r2, r3
 966              		.loc 1 337 5 is_stmt 1 view .LVU324
 967              		.loc 1 337 18 is_stmt 0 view .LVU325
 968 0080 0C309425 		ldrcs	r3, [r4, #12]
 969 0084 14308425 		strcs	r3, [r4, #20]
ARM GAS  /tmp/cc4iwVme.s 			page 18


 970              		.loc 1 339 3 is_stmt 1 view .LVU326
 971              		.loc 1 339 10 is_stmt 0 view .LVU327
 972 0088 1C3094E5 		ldr	r3, [r4, #28]
 973              		.loc 1 339 6 view .LVU328
 974 008c 000053E3 		cmp	r3, #0
 975 0090 0100000A 		beq	.L72
 976              		.loc 1 340 5 is_stmt 1 view .LVU329
 977 0094 0400A0E1 		mov	r0, r4
 978 0098 33FF2FE1 		blx	r3
 979              	.LVL52:
 980              	.L72:
 981              		.loc 1 342 3 view .LVU330
 982              		.loc 1 342 3 view .LVU331
 983              		.syntax divided
 984              	@ 342 "../../os/kernel/src/chqueues.c" 1
 985 009c 1FF021E3 		msr     CPSR_c, #0x1F
 986              	@ 0 "" 2
 987              		.loc 1 342 16 view .LVU332
 988              		.loc 1 343 3 view .LVU333
 989              		.loc 1 343 10 is_stmt 0 view .LVU334
 990              		.arm
 991              		.syntax unified
 992 00a0 0000A0E3 		mov	r0, #0
 993              		.loc 1 344 1 view .LVU335
 994 00a4 F081BDE8 		pop	{r4, r5, r6, r7, r8, pc}
 995              	.L73:
 996              	.LBB84:
 997              	.LBB82:
 998              	.LBB79:
 999              		.loc 1 66 12 view .LVU336
 1000 00a8 0000E0E3 		mvn	r0, #0
 1001              	.LVL53:
 1002              	.L68:
 1003              		.loc 1 66 12 view .LVU337
 1004              	.LBE79:
 1005              	.LBE82:
 1006              		.loc 1 329 7 is_stmt 1 view .LVU338
 1007              		.loc 1 329 7 view .LVU339
 1008              		.syntax divided
 1009              	@ 329 "../../os/kernel/src/chqueues.c" 1
 1010 00ac 1FF021E3 		msr     CPSR_c, #0x1F
 1011              	@ 0 "" 2
 1012              		.loc 1 329 20 view .LVU340
 1013              		.loc 1 330 7 view .LVU341
 1014              		.loc 1 330 14 is_stmt 0 view .LVU342
 1015              		.arm
 1016              		.syntax unified
 1017 00b0 F081BDE8 		pop	{r4, r5, r6, r7, r8, pc}
 1018              	.L80:
 1019              		.align	2
 1020              	.L79:
 1021 00b4 00000000 		.word	rlist
 1022              	.LBE84:
 1023              		.cfi_endproc
 1024              	.LFE15:
 1025              		.size	chOQPutTimeout, .-chOQPutTimeout
 1026              		.section	.text.chOQGetI,"ax",%progbits
ARM GAS  /tmp/cc4iwVme.s 			page 19


 1027              		.align	2
 1028              		.global	chOQGetI
 1029              		.syntax unified
 1030              		.arm
 1031              		.fpu softvfp
 1032              		.type	chOQGetI, %function
 1033              	chOQGetI:
 1034              	.LVL54:
 1035              	.LFB16:
 1036              		.loc 1 356 34 is_stmt 1 view -0
 1037              		.cfi_startproc
 1038              		@ args = 0, pretend = 0, frame = 0
 1039              		@ frame_needed = 0, uses_anonymous_args = 0
 1040              		.loc 1 357 3 view .LVU344
 1041              		.loc 1 359 3 view .LVU345
 1042              		.loc 1 359 21 view .LVU346
 1043              		.loc 1 361 3 view .LVU347
 1044              		.loc 1 356 34 is_stmt 0 view .LVU348
 1045 0000 0030A0E1 		mov	r3, r0
 1046              		.loc 1 361 6 view .LVU349
 1047 0004 D401C0E1 		ldrd	r0, [r0, #20]
 1048              	.LVL55:
 1049              		.loc 1 361 6 view .LVU350
 1050 0008 010050E1 		cmp	r0, r1
 1051              		.loc 1 361 7 view .LVU351
 1052 000c 082093E5 		ldr	r2, [r3, #8]
 1053              		.loc 1 361 6 view .LVU352
 1054 0010 1400000A 		beq	.L90
 1055              	.L82:
 1056              		.loc 1 364 3 is_stmt 1 view .LVU353
 1057              		.loc 1 356 34 is_stmt 0 view .LVU354
 1058 0014 10402DE9 		push	{r4, lr}
 1059              		.cfi_def_cfa_offset 8
 1060              		.cfi_offset 4, -8
 1061              		.cfi_offset 14, -4
 1062              		.loc 1 366 6 view .LVU355
 1063 0018 10C093E5 		ldr	ip, [r3, #16]
 1064              		.loc 1 365 20 view .LVU356
 1065 001c 010081E2 		add	r0, r1, #1
 1066              		.loc 1 366 6 view .LVU357
 1067 0020 0C0050E1 		cmp	r0, ip
 1068              		.loc 1 364 17 view .LVU358
 1069 0024 012082E2 		add	r2, r2, #1
 1070              		.loc 1 365 20 view .LVU359
 1071 0028 180083E5 		str	r0, [r3, #24]
 1072              		.loc 1 364 17 view .LVU360
 1073 002c 082083E5 		str	r2, [r3, #8]
 1074              		.loc 1 365 3 is_stmt 1 view .LVU361
 1075              		.loc 1 369 7 is_stmt 0 view .LVU362
 1076 0030 000093E5 		ldr	r0, [r3]
 1077              		.loc 1 367 18 view .LVU363
 1078 0034 0C209325 		ldrcs	r2, [r3, #12]
 1079              		.loc 1 365 5 view .LVU364
 1080 0038 0040D1E5 		ldrb	r4, [r1]	@ zero_extendqisi2
 1081              	.LVL56:
 1082              		.loc 1 366 3 is_stmt 1 view .LVU365
 1083              		.loc 1 367 5 view .LVU366
ARM GAS  /tmp/cc4iwVme.s 			page 20


 1084              		.loc 1 367 18 is_stmt 0 view .LVU367
 1085 003c 18208325 		strcs	r2, [r3, #24]
 1086              		.loc 1 369 3 is_stmt 1 view .LVU368
 1087              		.loc 1 369 6 is_stmt 0 view .LVU369
 1088 0040 030050E1 		cmp	r0, r3
 1089 0044 0500000A 		beq	.L85
 1090              		.loc 1 370 5 is_stmt 1 view .LVU370
 1091              	.LVL57:
 1092              	.LBB85:
 1093              	.LBI85:
 1094              		.loc 2 52 23 view .LVU371
 1095              	.LBB86:
 1096              		.loc 2 53 3 view .LVU372
 1097              		.loc 2 55 3 view .LVU373
 1098              		.loc 2 55 20 is_stmt 0 view .LVU374
 1099 0048 002090E5 		ldr	r2, [r0]
 1100              		.loc 2 55 16 view .LVU375
 1101 004c 002083E5 		str	r2, [r3]
 1102              		.loc 2 55 38 view .LVU376
 1103 0050 043082E5 		str	r3, [r2, #4]
 1104              		.loc 2 56 3 is_stmt 1 view .LVU377
 1105              	.LVL58:
 1106              		.loc 2 56 3 is_stmt 0 view .LVU378
 1107              	.LBE86:
 1108              	.LBE85:
 1109              		.loc 1 370 5 view .LVU379
 1110 0054 FEFFFFEB 		bl	chSchReadyI
 1111              	.LVL59:
 1112              		.loc 1 370 59 view .LVU380
 1113 0058 0030A0E3 		mov	r3, #0
 1114 005c 243080E5 		str	r3, [r0, #36]
 1115              	.L85:
 1116              		.loc 1 372 3 is_stmt 1 view .LVU381
 1117              		.loc 1 372 10 is_stmt 0 view .LVU382
 1118 0060 0400A0E1 		mov	r0, r4
 1119              		.loc 1 373 1 view .LVU383
 1120 0064 1080BDE8 		pop	{r4, pc}
 1121              	.LVL60:
 1122              	.L90:
 1123              		.cfi_def_cfa_offset 0
 1124              		.cfi_restore 4
 1125              		.cfi_restore 14
 1126              		.loc 1 361 7 discriminator 1 view .LVU384
 1127 0068 000052E3 		cmp	r2, #0
 1128 006c E8FFFF0A 		beq	.L82
 1129              		.loc 1 362 12 view .LVU385
 1130 0070 0200E0E3 		mvn	r0, #2
 1131              		.loc 1 373 1 view .LVU386
 1132 0074 1EFF2FE1 		bx	lr
 1133              		.cfi_endproc
 1134              	.LFE16:
 1135              		.size	chOQGetI, .-chOQGetI
 1136              		.section	.text.chOQWriteTimeout,"ax",%progbits
 1137              		.align	2
 1138              		.global	chOQWriteTimeout
 1139              		.syntax unified
 1140              		.arm
ARM GAS  /tmp/cc4iwVme.s 			page 21


 1141              		.fpu softvfp
 1142              		.type	chOQWriteTimeout, %function
 1143              	chOQWriteTimeout:
 1144              	.LVL61:
 1145              	.LFB17:
 1146              		.loc 1 400 51 is_stmt 1 view -0
 1147              		.cfi_startproc
 1148              		@ args = 0, pretend = 0, frame = 0
 1149              		@ frame_needed = 0, uses_anonymous_args = 0
 1150              		.loc 1 401 3 view .LVU388
 1151              		.loc 1 400 51 is_stmt 0 view .LVU389
 1152 0000 F0472DE9 		push	{r4, r5, r6, r7, r8, r9, r10, lr}
 1153              		.cfi_def_cfa_offset 32
 1154              		.cfi_offset 4, -32
 1155              		.cfi_offset 5, -28
 1156              		.cfi_offset 6, -24
 1157              		.cfi_offset 7, -20
 1158              		.cfi_offset 8, -16
 1159              		.cfi_offset 9, -12
 1160              		.cfi_offset 10, -8
 1161              		.cfi_offset 14, -4
 1162              		.loc 1 400 51 view .LVU390
 1163 0004 0040A0E1 		mov	r4, r0
 1164 0008 0150A0E1 		mov	r5, r1
 1165 000c 0260A0E1 		mov	r6, r2
 1166 0010 0390A0E1 		mov	r9, r3
 1167              		.loc 1 401 13 view .LVU391
 1168 0014 1C8090E5 		ldr	r8, [r0, #28]
 1169              	.LVL62:
 1170              		.loc 1 402 3 is_stmt 1 view .LVU392
 1171              		.loc 1 404 3 view .LVU393
 1172              		.loc 1 404 40 view .LVU394
 1173              		.loc 1 406 3 view .LVU395
 1174              		.syntax divided
 1175              	@ 406 "../../os/kernel/src/chqueues.c" 1
 1176 0018 9FF021E3 		msr     CPSR_c, #0x9F
 1177              	@ 0 "" 2
 1178              		.loc 1 402 10 is_stmt 0 view .LVU396
 1179              		.arm
 1180              		.syntax unified
 1181 001c 0070A0E3 		mov	r7, #0
 1182              	.LBB91:
 1183              	.LBB92:
 1184              		.loc 1 67 3 view .LVU397
 1185 0020 B0A09FE5 		ldr	r10, .L108
 1186              	.LVL63:
 1187              	.L92:
 1188              		.loc 1 67 3 view .LVU398
 1189              	.LBE92:
 1190              	.LBE91:
 1191              		.loc 1 408 12 is_stmt 1 view .LVU399
 1192              		.loc 1 414 5 view .LVU400
 1193              		.loc 1 419 5 view .LVU401
 1194              		.loc 1 420 7 view .LVU402
 1195              		.loc 1 408 12 is_stmt 0 view .LVU403
 1196 0024 080094E5 		ldr	r0, [r4, #8]
 1197 0028 000050E3 		cmp	r0, #0
ARM GAS  /tmp/cc4iwVme.s 			page 22


 1198              		.loc 1 414 19 view .LVU404
 1199 002c 012040E2 		sub	r2, r0, #1
 1200              		.loc 1 408 12 view .LVU405
 1201 0030 1700000A 		beq	.L96
 1202              	.L107:
 1203              		.loc 1 417 7 is_stmt 1 view .LVU406
 1204              		.loc 1 415 9 is_stmt 0 view .LVU407
 1205 0034 143094E5 		ldr	r3, [r4, #20]
 1206              		.loc 1 414 19 view .LVU408
 1207 0038 082084E5 		str	r2, [r4, #8]
 1208              		.loc 1 415 5 is_stmt 1 view .LVU409
 1209              	.LVL64:
 1210              		.loc 1 415 18 is_stmt 0 view .LVU410
 1211 003c 012083E2 		add	r2, r3, #1
 1212 0040 142084E5 		str	r2, [r4, #20]
 1213              		.loc 1 415 23 view .LVU411
 1214 0044 0120D5E4 		ldrb	r2, [r5], #1	@ zero_extendqisi2
 1215              	.LVL65:
 1216              		.loc 1 415 21 view .LVU412
 1217 0048 0020C3E5 		strb	r2, [r3]
 1218              		.loc 1 416 5 is_stmt 1 view .LVU413
 1219              		.loc 1 416 8 is_stmt 0 view .LVU414
 1220 004c 103094E5 		ldr	r3, [r4, #16]
 1221 0050 142094E5 		ldr	r2, [r4, #20]
 1222 0054 030052E1 		cmp	r2, r3
 1223              		.loc 1 417 20 view .LVU415
 1224 0058 0C309425 		ldrcs	r3, [r4, #12]
 1225 005c 14308425 		strcs	r3, [r4, #20]
 1226              		.loc 1 419 8 view .LVU416
 1227 0060 000058E3 		cmp	r8, #0
 1228 0064 0100000A 		beq	.L98
 1229              		.loc 1 420 7 view .LVU417
 1230 0068 0400A0E1 		mov	r0, r4
 1231 006c 38FF2FE1 		blx	r8
 1232              	.LVL66:
 1233              	.L98:
 1234              		.loc 1 422 5 is_stmt 1 view .LVU418
 1235              		.loc 1 422 5 view .LVU419
 1236              		.syntax divided
 1237              	@ 422 "../../os/kernel/src/chqueues.c" 1
 1238 0070 1FF021E3 		msr     CPSR_c, #0x1F
 1239              	@ 0 "" 2
 1240              		.loc 1 422 18 view .LVU420
 1241              		.loc 1 423 5 view .LVU421
 1242              		.loc 1 426 5 view .LVU422
 1243              		.loc 1 424 8 is_stmt 0 view .LVU423
 1244              		.arm
 1245              		.syntax unified
 1246 0074 016056E2 		subs	r6, r6, #1
 1247              	.LVL67:
 1248              		.loc 1 423 6 view .LVU424
 1249 0078 017087E2 		add	r7, r7, #1
 1250              	.LVL68:
 1251              		.loc 1 424 5 is_stmt 1 view .LVU425
 1252              		.loc 1 424 8 is_stmt 0 view .LVU426
 1253 007c 1300000A 		beq	.L91
 1254              		.loc 1 426 5 view .LVU427
ARM GAS  /tmp/cc4iwVme.s 			page 23


 1255              		.syntax divided
 1256              	@ 426 "../../os/kernel/src/chqueues.c" 1
 1257 0080 9FF021E3 		msr     CPSR_c, #0x9F
 1258              	@ 0 "" 2
 1259              		.loc 1 426 5 is_stmt 1 view .LVU428
 1260              		.loc 1 426 16 view .LVU429
 1261              		.loc 1 407 9 view .LVU430
 1262              	.LVL69:
 1263              		.loc 1 408 12 view .LVU431
 1264              		.loc 1 414 5 view .LVU432
 1265              		.loc 1 419 5 view .LVU433
 1266              		.loc 1 420 7 view .LVU434
 1267              		.loc 1 408 12 is_stmt 0 view .LVU435
 1268              		.arm
 1269              		.syntax unified
 1270 0084 080094E5 		ldr	r0, [r4, #8]
 1271 0088 000050E3 		cmp	r0, #0
 1272              		.loc 1 414 19 view .LVU436
 1273 008c 012040E2 		sub	r2, r0, #1
 1274              		.loc 1 408 12 view .LVU437
 1275 0090 E7FFFF1A 		bne	.L107
 1276              	.L96:
 1277              		.loc 1 409 7 is_stmt 1 view .LVU438
 1278              	.LVL70:
 1279              	.LBB100:
 1280              	.LBI91:
 1281              		.loc 1 63 14 view .LVU439
 1282              	.LBB99:
 1283              		.loc 1 65 3 view .LVU440
 1284              		.loc 1 67 3 view .LVU441
 1285              		.loc 1 65 6 is_stmt 0 view .LVU442
 1286 0094 000059E3 		cmp	r9, #0
 1287 0098 0B00000A 		beq	.L95
 1288              		.loc 1 67 3 view .LVU443
 1289 009c 18309AE5 		ldr	r3, [r10, #24]
 1290              	.LBB93:
 1291              	.LBB94:
 1292              		.loc 2 48 19 view .LVU444
 1293 00a0 042094E5 		ldr	r2, [r4, #4]
 1294              	.LBE94:
 1295              	.LBE93:
 1296              		.loc 1 69 10 view .LVU445
 1297 00a4 0910A0E1 		mov	r1, r9
 1298              		.loc 1 67 21 view .LVU446
 1299 00a8 244083E5 		str	r4, [r3, #36]
 1300              		.loc 1 68 3 is_stmt 1 view .LVU447
 1301              	.LVL71:
 1302              	.LBB97:
 1303              	.LBI93:
 1304              		.loc 2 45 20 view .LVU448
 1305              	.LBB95:
 1306              		.loc 2 47 3 view .LVU449
 1307              		.loc 2 47 14 is_stmt 0 view .LVU450
 1308 00ac 004083E5 		str	r4, [r3]
 1309              		.loc 2 48 3 is_stmt 1 view .LVU451
 1310              		.loc 2 48 14 is_stmt 0 view .LVU452
 1311 00b0 042083E5 		str	r2, [r3, #4]
ARM GAS  /tmp/cc4iwVme.s 			page 24


 1312              		.loc 2 49 3 is_stmt 1 view .LVU453
 1313              	.LBE95:
 1314              	.LBE97:
 1315              		.loc 1 69 10 is_stmt 0 view .LVU454
 1316 00b4 0D00A0E3 		mov	r0, #13
 1317              	.LBB98:
 1318              	.LBB96:
 1319              		.loc 2 49 36 view .LVU455
 1320 00b8 043084E5 		str	r3, [r4, #4]
 1321              		.loc 2 49 22 view .LVU456
 1322 00bc 003082E5 		str	r3, [r2]
 1323              	.LVL72:
 1324              		.loc 2 49 22 view .LVU457
 1325              	.LBE96:
 1326              	.LBE98:
 1327              		.loc 1 69 3 is_stmt 1 view .LVU458
 1328              		.loc 1 69 10 is_stmt 0 view .LVU459
 1329 00c0 FEFFFFEB 		bl	chSchGoSleepTimeoutS
 1330              	.LVL73:
 1331              		.loc 1 69 10 view .LVU460
 1332              	.LBE99:
 1333              	.LBE100:
 1334              		.loc 1 409 10 view .LVU461
 1335 00c4 000050E3 		cmp	r0, #0
 1336 00c8 D5FFFF0A 		beq	.L92
 1337              	.L95:
 1338              		.loc 1 410 9 is_stmt 1 view .LVU462
 1339              		.loc 1 410 9 view .LVU463
 1340              		.syntax divided
 1341              	@ 410 "../../os/kernel/src/chqueues.c" 1
 1342 00cc 1FF021E3 		msr     CPSR_c, #0x1F
 1343              	@ 0 "" 2
 1344              		.loc 1 410 22 view .LVU464
 1345              		.loc 1 411 9 view .LVU465
 1346              	.LVL74:
 1347              		.arm
 1348              		.syntax unified
 1349              	.L91:
 1350              		.loc 1 428 1 is_stmt 0 view .LVU466
 1351 00d0 0700A0E1 		mov	r0, r7
 1352 00d4 F087BDE8 		pop	{r4, r5, r6, r7, r8, r9, r10, pc}
 1353              	.L109:
 1354              		.align	2
 1355              	.L108:
 1356 00d8 00000000 		.word	rlist
 1357              		.cfi_endproc
 1358              	.LFE17:
 1359              		.size	chOQWriteTimeout, .-chOQWriteTimeout
 1360              		.text
 1361              	.Letext0:
 1362              		.file 3 "/usr/lib/gcc/arm-none-eabi/11.2.0/include/stddef.h"
 1363              		.file 4 "/usr/arm-none-eabi/include/machine/_default_types.h"
 1364              		.file 5 "/usr/arm-none-eabi/include/sys/_stdint.h"
 1365              		.file 6 "../../os/ports/GCC/ARM/chtypes.h"
 1366              		.file 7 "../../os/kernel/include/chlists.h"
 1367              		.file 8 "../../os/kernel/include/chthreads.h"
 1368              		.file 9 "../../os/ports/GCC/ARM/chcore.h"
ARM GAS  /tmp/cc4iwVme.s 			page 25


 1369              		.file 10 "../../os/kernel/include/chschd.h"
 1370              		.file 11 "../../os/kernel/include/chmtx.h"
 1371              		.file 12 "../../os/kernel/include/chqueues.h"