ARM GAS  /tmp/cc4iwVme.s 			page 1


   1              		.cpu arm1176jz-s
   2              		.eabi_attribute 20, 1
   3              		.eabi_attribute 21, 1
   4              		.eabi_attribute 23, 3
   5              		.eabi_attribute 24, 1
   6              		.eabi_attribute 25, 1
   7              		.eabi_attribute 26, 1
   8              		.eabi_attribute 30, 2
   9              		.eabi_attribute 34, 1
  10              		.eabi_attribute 18, 4
  11              		.file	"chqueues.c"
  12              		.text
  13              	.Ltext0:
  14              		.cfi_sections	.debug_frame
  15              		.section	.text.chIQInit,"ax",%progbits
  16              		.align	2
  17              		.global	chIQInit
  18              		.arch armv6kz
  19              		.syntax unified
  20              		.arm
  21              		.fpu softvfp
  22              		.type	chIQInit, %function
  23              	chIQInit:
  24              	.LVL0:
  25              	.LFB8:
  26              		.file 1 "../../os/kernel/src/chqueues.c"
  27              		.loc 1 89 27 view -0
  28              		.cfi_startproc
  29              		@ args = 4, pretend = 0, frame = 0
  30              		@ frame_needed = 0, uses_anonymous_args = 0
  31              		.loc 1 91 3 view .LVU1
  32              		.loc 1 89 27 is_stmt 0 view .LVU2
  33 0000 04E02DE5 		str	lr, [sp, #-4]!
  34              		.cfi_def_cfa_offset 4
  35              		.cfi_offset 14, -4
  36              		.loc 1 92 18 view .LVU3
  37 0004 00E0A0E3 		mov	lr, #0
  38              		.loc 1 89 27 view .LVU4
  39 0008 04C09DE5 		ldr	ip, [sp, #4]
  40              		.loc 1 94 19 view .LVU5
  41 000c 022081E0 		add	r2, r1, r2
  42              	.LVL1:
  43              		.loc 1 92 18 view .LVU6
  44 0010 08E080E5 		str	lr, [r0, #8]
  45              		.loc 1 91 3 view .LVU7
  46 0014 040080E5 		str	r0, [r0, #4]
  47 0018 000080E5 		str	r0, [r0]
  48              		.loc 1 91 30 is_stmt 1 view .LVU8
  49              		.loc 1 92 3 view .LVU9
  50              		.loc 1 93 3 view .LVU10
  51              		.loc 1 93 47 is_stmt 0 view .LVU11
  52 001c 141080E5 		str	r1, [r0, #20]
  53              		.loc 1 93 32 view .LVU12
  54 0020 181080E5 		str	r1, [r0, #24]
  55              		.loc 1 93 17 view .LVU13
  56 0024 0C1080E5 		str	r1, [r0, #12]
  57              		.loc 1 94 3 is_stmt 1 view .LVU14
ARM GAS  /tmp/cc4iwVme.s 			page 2


  58              		.loc 1 94 14 is_stmt 0 view .LVU15
  59 0028 102080E5 		str	r2, [r0, #16]
  60              		.loc 1 95 3 is_stmt 1 view .LVU16
  61              		.loc 1 95 17 is_stmt 0 view .LVU17
  62 002c 1C3080E5 		str	r3, [r0, #28]
  63              		.loc 1 96 3 is_stmt 1 view .LVU18
  64              		.loc 1 96 15 is_stmt 0 view .LVU19
  65 0030 20C080E5 		str	ip, [r0, #32]
  66              		.loc 1 97 1 view .LVU20
  67 0034 04F09DE4 		ldr	pc, [sp], #4
  68              		.cfi_endproc
  69              	.LFE8:
  70              		.size	chIQInit, .-chIQInit
  71              		.section	.text.chIQResetI,"ax",%progbits
  72              		.align	2
  73              		.global	chIQResetI
  74              		.syntax unified
  75              		.arm
  76              		.fpu softvfp
  77              		.type	chIQResetI, %function
  78              	chIQResetI:
  79              	.LVL2:
  80              	.LFB9:
  81              		.loc 1 110 34 is_stmt 1 view -0
  82              		.cfi_startproc
  83              		@ args = 0, pretend = 0, frame = 0
  84              		@ frame_needed = 0, uses_anonymous_args = 0
  85              		.loc 1 112 3 view .LVU22
  86              		.loc 1 112 21 view .LVU23
  87              		.loc 1 114 3 view .LVU24
  88              		.loc 1 115 18 is_stmt 0 view .LVU25
  89 0000 0010A0E3 		mov	r1, #0
  90              		.loc 1 116 10 view .LVU26
  91 0004 003090E5 		ldr	r3, [r0]
  92              		.loc 1 114 36 view .LVU27
  93 0008 0C2090E5 		ldr	r2, [r0, #12]
  94              		.loc 1 116 10 view .LVU28
  95 000c 030050E1 		cmp	r0, r3
  96              		.loc 1 114 31 view .LVU29
  97 0010 142080E5 		str	r2, [r0, #20]
  98              		.loc 1 114 16 view .LVU30
  99 0014 182080E5 		str	r2, [r0, #24]
 100              		.loc 1 115 3 is_stmt 1 view .LVU31
 101              		.loc 1 115 18 is_stmt 0 view .LVU32
 102 0018 081080E5 		str	r1, [r0, #8]
 103              		.loc 1 116 3 is_stmt 1 view .LVU33
 104              		.loc 1 116 10 view .LVU34
 105 001c 1EFF2F01 		bxeq	lr
 106              		.loc 1 110 34 is_stmt 0 view .LVU35
 107 0020 70402DE9 		push	{r4, r5, r6, lr}
 108              		.cfi_def_cfa_offset 16
 109              		.cfi_offset 4, -16
 110              		.cfi_offset 5, -12
 111              		.cfi_offset 6, -8
 112              		.cfi_offset 14, -4
 113 0024 0040A0E1 		mov	r4, r0
 114              		.loc 1 117 59 view .LVU36
ARM GAS  /tmp/cc4iwVme.s 			page 3


 115 0028 0150E0E3 		mvn	r5, #1
 116              	.LVL3:
 117              	.L6:
 118              		.loc 1 117 5 is_stmt 1 view .LVU37
 119              	.LBB12:
 120              	.LBI12:
 121              		.file 2 "../../os/kernel/include/chinline.h"
 122              		.loc 2 52 23 view .LVU38
 123              	.LBB13:
 124              		.loc 2 53 3 view .LVU39
 125              		.loc 2 55 3 view .LVU40
 126              		.loc 2 55 20 is_stmt 0 view .LVU41
 127 002c 002093E5 		ldr	r2, [r3]
 128              	.LBE13:
 129              	.LBE12:
 130              		.loc 1 117 5 view .LVU42
 131 0030 0300A0E1 		mov	r0, r3
 132              	.LBB15:
 133              	.LBB14:
 134              		.loc 2 55 16 view .LVU43
 135 0034 002084E5 		str	r2, [r4]
 136              		.loc 2 55 38 view .LVU44
 137 0038 044082E5 		str	r4, [r2, #4]
 138              		.loc 2 56 3 is_stmt 1 view .LVU45
 139              	.LVL4:
 140              		.loc 2 56 3 is_stmt 0 view .LVU46
 141              	.LBE14:
 142              	.LBE15:
 143              		.loc 1 117 5 view .LVU47
 144 003c FEFFFFEB 		bl	chSchReadyI
 145              	.LVL5:
 146              		.loc 1 116 10 view .LVU48
 147 0040 003094E5 		ldr	r3, [r4]
 148              		.loc 1 117 59 view .LVU49
 149 0044 245080E5 		str	r5, [r0, #36]
 150              		.loc 1 116 10 is_stmt 1 view .LVU50
 151 0048 040053E1 		cmp	r3, r4
 152 004c F6FFFF1A 		bne	.L6
 153 0050 7080BDE8 		pop	{r4, r5, r6, pc}
 154              		.cfi_endproc
 155              	.LFE9:
 156              		.size	chIQResetI, .-chIQResetI
 157              		.section	.text.chIQPutI,"ax",%progbits
 158              		.align	2
 159              		.global	chIQPutI
 160              		.syntax unified
 161              		.arm
 162              		.fpu softvfp
 163              		.type	chIQPutI, %function
 164              	chIQPutI:
 165              	.LVL6:
 166              	.LFB10:
 167              		.loc 1 133 44 view -0
 168              		.cfi_startproc
 169              		@ args = 0, pretend = 0, frame = 0
 170              		@ frame_needed = 0, uses_anonymous_args = 0
 171              		.loc 1 135 3 view .LVU52
ARM GAS  /tmp/cc4iwVme.s 			page 4


 172              		.loc 1 135 21 view .LVU53
 173              		.loc 1 137 3 view .LVU54
 174              		.loc 1 133 44 is_stmt 0 view .LVU55
 175 0000 0030A0E1 		mov	r3, r0
 176              		.loc 1 137 7 view .LVU56
 177 0004 140090E5 		ldr	r0, [r0, #20]
 178              	.LVL7:
 179              		.loc 1 137 6 view .LVU57
 180 0008 18C093E5 		ldr	ip, [r3, #24]
 181              		.loc 1 137 7 view .LVU58
 182 000c 082093E5 		ldr	r2, [r3, #8]
 183              		.loc 1 137 6 view .LVU59
 184 0010 0C0050E1 		cmp	r0, ip
 185 0014 1800000A 		beq	.L22
 186              	.L13:
 187              		.loc 1 140 3 is_stmt 1 view .LVU60
 188              		.loc 1 140 17 is_stmt 0 view .LVU61
 189 0018 012082E2 		add	r2, r2, #1
 190              		.loc 1 141 16 view .LVU62
 191 001c 01C080E2 		add	ip, r0, #1
 192 0020 14C083E5 		str	ip, [r3, #20]
 193              		.loc 1 140 17 view .LVU63
 194 0024 082083E5 		str	r2, [r3, #8]
 195              		.loc 1 141 3 is_stmt 1 view .LVU64
 196              		.loc 1 141 19 is_stmt 0 view .LVU65
 197 0028 0010C0E5 		strb	r1, [r0]
 198              		.loc 1 142 3 is_stmt 1 view .LVU66
 199              		.loc 1 142 6 is_stmt 0 view .LVU67
 200 002c 102093E5 		ldr	r2, [r3, #16]
 201 0030 141093E5 		ldr	r1, [r3, #20]
 202              	.LVL8:
 203              		.loc 1 145 7 view .LVU68
 204 0034 000093E5 		ldr	r0, [r3]
 205              	.LVL9:
 206              		.loc 1 142 6 view .LVU69
 207 0038 020051E1 		cmp	r1, r2
 208              		.loc 1 143 5 is_stmt 1 view .LVU70
 209              		.loc 1 143 18 is_stmt 0 view .LVU71
 210 003c 0C209325 		ldrcs	r2, [r3, #12]
 211 0040 14208325 		strcs	r2, [r3, #20]
 212              	.LVL10:
 213              		.loc 1 145 3 is_stmt 1 view .LVU72
 214              		.loc 1 145 6 is_stmt 0 view .LVU73
 215 0044 030050E1 		cmp	r0, r3
 216 0048 0900000A 		beq	.L17
 217              		.loc 1 146 5 is_stmt 1 view .LVU74
 218              	.LVL11:
 219              	.LBB16:
 220              	.LBI16:
 221              		.loc 2 52 23 view .LVU75
 222              	.LBB17:
 223              		.loc 2 53 3 view .LVU76
 224              		.loc 2 55 3 view .LVU77
 225              		.loc 2 55 20 is_stmt 0 view .LVU78
 226 004c 002090E5 		ldr	r2, [r0]
 227              	.LBE17:
 228              	.LBE16:
ARM GAS  /tmp/cc4iwVme.s 			page 5


 229              		.loc 1 133 44 view .LVU79
 230 0050 10402DE9 		push	{r4, lr}
 231              		.cfi_def_cfa_offset 8
 232              		.cfi_offset 4, -8
 233              		.cfi_offset 14, -4
 234              	.LBB19:
 235              	.LBB18:
 236              		.loc 2 55 16 view .LVU80
 237 0054 002083E5 		str	r2, [r3]
 238              		.loc 2 55 38 view .LVU81
 239 0058 043082E5 		str	r3, [r2, #4]
 240              		.loc 2 56 3 is_stmt 1 view .LVU82
 241              	.LVL12:
 242              		.loc 2 56 3 is_stmt 0 view .LVU83
 243              	.LBE18:
 244              	.LBE19:
 245              		.loc 1 146 5 view .LVU84
 246 005c FEFFFFEB 		bl	chSchReadyI
 247              	.LVL13:
 248              		.loc 1 146 59 view .LVU85
 249 0060 0020A0E3 		mov	r2, #0
 250              		.loc 1 146 5 view .LVU86
 251 0064 0030A0E1 		mov	r3, r0
 252              		.loc 1 148 10 view .LVU87
 253 0068 0200A0E1 		mov	r0, r2
 254              		.loc 1 146 59 view .LVU88
 255 006c 242083E5 		str	r2, [r3, #36]
 256              		.loc 1 149 1 view .LVU89
 257 0070 1080BDE8 		pop	{r4, pc}
 258              	.LVL14:
 259              	.L17:
 260              		.cfi_def_cfa_offset 0
 261              		.cfi_restore 4
 262              		.cfi_restore 14
 263              		.loc 1 148 10 view .LVU90
 264 0074 0000A0E3 		mov	r0, #0
 265              		.loc 1 149 1 view .LVU91
 266 0078 1EFF2FE1 		bx	lr
 267              	.LVL15:
 268              	.L22:
 269              		.loc 1 137 7 discriminator 1 view .LVU92
 270 007c 000052E3 		cmp	r2, #0
 271 0080 E4FFFF0A 		beq	.L13
 272              		.loc 1 138 12 view .LVU93
 273 0084 0300E0E3 		mvn	r0, #3
 274 0088 1EFF2FE1 		bx	lr
 275              		.cfi_endproc
 276              	.LFE10:
 277              		.size	chIQPutI, .-chIQPutI
 278              		.section	.text.chIQGetTimeout,"ax",%progbits
 279              		.align	2
 280              		.global	chIQGetTimeout
 281              		.syntax unified
 282              		.arm
 283              		.fpu softvfp
 284              		.type	chIQGetTimeout, %function
 285              	chIQGetTimeout:
ARM GAS  /tmp/cc4iwVme.s 			page 6


 286              	.LVL16:
 287              	.LFB11:
 288              		.loc 1 171 55 is_stmt 1 view -0
 289              		.cfi_startproc
 290              		@ args = 0, pretend = 0, frame = 0
 291              		@ frame_needed = 0, uses_anonymous_args = 0
 292              		.loc 1 172 3 view .LVU95
 293              		.loc 1 174 3 view .LVU96
 294              		.loc 1 171 55 is_stmt 0 view .LVU97
 295 0000 70402DE9 		push	{r4, r5, r6, lr}
 296              		.cfi_def_cfa_offset 16
 297              		.cfi_offset 4, -16
 298              		.cfi_offset 5, -12
 299              		.cfi_offset 6, -8
 300              		.cfi_offset 14, -4
 301              		.loc 1 171 55 view .LVU98
 302 0004 0040A0E1 		mov	r4, r0
 303 0008 0150A0E1 		mov	r5, r1
 304              		.loc 1 174 3 view .LVU99
 305              		.syntax divided
 306              	@ 174 "../../os/kernel/src/chqueues.c" 1
 307 000c 9FF021E3 		msr     CPSR_c, #0x9F
 308              	@ 0 "" 2
 309              		.loc 1 174 3 is_stmt 1 view .LVU100
 310              		.loc 1 174 14 view .LVU101
 311              		.loc 1 175 3 view .LVU102
 312              		.loc 1 175 10 is_stmt 0 view .LVU103
 313              		.arm
 314              		.syntax unified
 315 0010 1C3090E5 		ldr	r3, [r0, #28]
 316              		.loc 1 175 6 view .LVU104
 317 0014 000053E3 		cmp	r3, #0
 318 0018 0000000A 		beq	.L24
 319              		.loc 1 176 5 is_stmt 1 view .LVU105
 320 001c 33FF2FE1 		blx	r3
 321              	.LVL17:
 322              	.L24:
 323              	.LBB25:
 324              	.LBB26:
 325              	.LBB27:
 326              		.loc 1 67 3 is_stmt 0 view .LVU106
 327 0020 80609FE5 		ldr	r6, .L36
 328 0024 0D0000EA 		b	.L26
 329              	.LVL18:
 330              	.L28:
 331              		.loc 1 65 6 view .LVU107
 332 0028 000055E3 		cmp	r5, #0
 333 002c 1A00000A 		beq	.L30
 334              		.loc 1 67 3 view .LVU108
 335 0030 183096E5 		ldr	r3, [r6, #24]
 336              	.LBB28:
 337              	.LBB29:
 338              		.loc 2 48 19 view .LVU109
 339 0034 042094E5 		ldr	r2, [r4, #4]
 340              	.LBE29:
 341              	.LBE28:
 342              		.loc 1 69 10 view .LVU110
ARM GAS  /tmp/cc4iwVme.s 			page 7


 343 0038 0510A0E1 		mov	r1, r5
 344              		.loc 1 67 21 view .LVU111
 345 003c 244083E5 		str	r4, [r3, #36]
 346              		.loc 1 68 3 is_stmt 1 view .LVU112
 347              	.LVL19:
 348              	.LBB32:
 349              	.LBI28:
 350              		.loc 2 45 20 view .LVU113
 351              	.LBB30:
 352              		.loc 2 47 3 view .LVU114
 353              		.loc 2 47 14 is_stmt 0 view .LVU115
 354 0040 004083E5 		str	r4, [r3]
 355              		.loc 2 48 3 is_stmt 1 view .LVU116
 356              		.loc 2 48 14 is_stmt 0 view .LVU117
 357 0044 042083E5 		str	r2, [r3, #4]
 358              		.loc 2 49 3 is_stmt 1 view .LVU118
 359              	.LBE30:
 360              	.LBE32:
 361              		.loc 1 69 10 is_stmt 0 view .LVU119
 362 0048 0D00A0E3 		mov	r0, #13
 363              	.LBB33:
 364              	.LBB31:
 365              		.loc 2 49 36 view .LVU120
 366 004c 043084E5 		str	r3, [r4, #4]
 367              		.loc 2 49 22 view .LVU121
 368 0050 003082E5 		str	r3, [r2]
 369              	.LVL20:
 370              		.loc 2 49 22 view .LVU122
 371              	.LBE31:
 372              	.LBE33:
 373              		.loc 1 69 3 is_stmt 1 view .LVU123
 374              		.loc 1 69 10 is_stmt 0 view .LVU124
 375 0054 FEFFFFEB 		bl	chSchGoSleepTimeoutS
 376              	.LVL21:
 377              		.loc 1 69 10 view .LVU125
 378              	.LBE27:
 379              	.LBE26:
 380              		.loc 1 180 8 view .LVU126
 381 0058 000050E3 		cmp	r0, #0
 382              		.loc 1 180 8 view .LVU127
 383 005c 0C0000BA 		blt	.L29
 384              	.LVL22:
 385              	.L26:
 386              		.loc 1 179 5 is_stmt 1 view .LVU128
 387              		.loc 1 180 5 view .LVU129
 388              	.LBB36:
 389              	.LBI26:
 390              		.loc 1 63 14 view .LVU130
 391              	.LBB34:
 392              		.loc 1 65 3 view .LVU131
 393              		.loc 1 67 3 view .LVU132
 394              	.LBE34:
 395              	.LBE36:
 396              	.LBE25:
 397              		.loc 1 178 10 view .LVU133
 398 0060 083094E5 		ldr	r3, [r4, #8]
 399 0064 000053E3 		cmp	r3, #0
ARM GAS  /tmp/cc4iwVme.s 			page 8


 400 0068 EEFFFF0A 		beq	.L28
 401              		.loc 1 186 3 view .LVU134
 402              		.loc 1 187 11 is_stmt 0 view .LVU135
 403 006c 181094E5 		ldr	r1, [r4, #24]
 404              		.loc 1 186 17 view .LVU136
 405 0070 013043E2 		sub	r3, r3, #1
 406 0074 083084E5 		str	r3, [r4, #8]
 407              		.loc 1 187 3 is_stmt 1 view .LVU137
 408              		.loc 1 188 6 is_stmt 0 view .LVU138
 409 0078 103094E5 		ldr	r3, [r4, #16]
 410              		.loc 1 187 20 view .LVU139
 411 007c 012081E2 		add	r2, r1, #1
 412              		.loc 1 188 6 view .LVU140
 413 0080 030052E1 		cmp	r2, r3
 414              		.loc 1 189 18 view .LVU141
 415 0084 0C309425 		ldrcs	r3, [r4, #12]
 416              		.loc 1 187 20 view .LVU142
 417 0088 182084E5 		str	r2, [r4, #24]
 418              		.loc 1 187 5 view .LVU143
 419 008c 0000D1E5 		ldrb	r0, [r1]	@ zero_extendqisi2
 420              	.LVL23:
 421              		.loc 1 188 3 is_stmt 1 view .LVU144
 422              		.loc 1 189 5 view .LVU145
 423              		.loc 1 189 18 is_stmt 0 view .LVU146
 424 0090 18308425 		strcs	r3, [r4, #24]
 425              	.LVL24:
 426              	.L29:
 427              		.loc 1 191 3 is_stmt 1 view .LVU147
 428              		.loc 1 191 3 view .LVU148
 429              		.syntax divided
 430              	@ 191 "../../os/kernel/src/chqueues.c" 1
 431 0094 1FF021E3 		msr     CPSR_c, #0x1F
 432              	@ 0 "" 2
 433              		.loc 1 191 16 view .LVU149
 434              		.loc 1 192 3 view .LVU150
 435              		.loc 1 193 1 is_stmt 0 view .LVU151
 436              		.arm
 437              		.syntax unified
 438 0098 7080BDE8 		pop	{r4, r5, r6, pc}
 439              	.LVL25:
 440              	.L30:
 441              	.LBB38:
 442              	.LBB37:
 443              	.LBB35:
 444              		.loc 1 66 12 view .LVU152
 445 009c 0000E0E3 		mvn	r0, #0
 446              	.LVL26:
 447              		.loc 1 66 12 view .LVU153
 448              	.LBE35:
 449              	.LBE37:
 450              		.loc 1 181 7 is_stmt 1 view .LVU154
 451              		.loc 1 181 7 view .LVU155
 452              	.LBE38:
 453              		.loc 1 191 3 view .LVU156
 454              		.loc 1 191 3 view .LVU157
 455              		.syntax divided
 456              	@ 191 "../../os/kernel/src/chqueues.c" 1
ARM GAS  /tmp/cc4iwVme.s 			page 9


 457 00a0 1FF021E3 		msr     CPSR_c, #0x1F
 458              	@ 0 "" 2
 459              		.loc 1 191 16 view .LVU158
 460              		.loc 1 192 3 view .LVU159
 461              		.loc 1 193 1 is_stmt 0 view .LVU160
 462              		.arm
 463              		.syntax unified
 464 00a4 7080BDE8 		pop	{r4, r5, r6, pc}
 465              	.L37:
 466              		.align	2
 467              	.L36:
 468 00a8 00000000 		.word	rlist
 469              		.cfi_endproc
 470              	.LFE11:
 471              		.size	chIQGetTimeout, .-chIQGetTimeout
 472              		.section	.text.chIQReadTimeout,"ax",%progbits
 473              		.align	2
 474              		.global	chIQReadTimeout
 475              		.syntax unified
 476              		.arm
 477              		.fpu softvfp
 478              		.type	chIQReadTimeout, %function
 479              	chIQReadTimeout:
 480              	.LVL27:
 481              	.LFB12:
 482              		.loc 1 220 50 is_stmt 1 view -0
 483              		.cfi_startproc
 484              		@ args = 0, pretend = 0, frame = 0
 485              		@ frame_needed = 0, uses_anonymous_args = 0
 486              		.loc 1 221 3 view .LVU162
 487              		.loc 1 220 50 is_stmt 0 view .LVU163
 488 0000 F0472DE9 		push	{r4, r5, r6, r7, r8, r9, r10, lr}
 489              		.cfi_def_cfa_offset 32
 490              		.cfi_offset 4, -32
 491              		.cfi_offset 5, -28
 492              		.cfi_offset 6, -24
 493              		.cfi_offset 7, -20
 494              		.cfi_offset 8, -16
 495              		.cfi_offset 9, -12
 496              		.cfi_offset 10, -8
 497              		.cfi_offset 14, -4
 498              		.loc 1 220 50 view .LVU164
 499 0004 0040A0E1 		mov	r4, r0
 500 0008 0170A0E1 		mov	r7, r1
 501 000c 0290A0E1 		mov	r9, r2
 502 0010 03A0A0E1 		mov	r10, r3
 503              		.loc 1 221 13 view .LVU165
 504 0014 1C8090E5 		ldr	r8, [r0, #28]
 505              	.LVL28:
 506              		.loc 1 222 3 is_stmt 1 view .LVU166
 507              		.loc 1 224 3 view .LVU167
 508              		.loc 1 224 39 view .LVU168
 509              		.loc 1 226 3 view .LVU169
 510              		.syntax divided
 511              	@ 226 "../../os/kernel/src/chqueues.c" 1
 512 0018 9FF021E3 		msr     CPSR_c, #0x9F
 513              	@ 0 "" 2
ARM GAS  /tmp/cc4iwVme.s 			page 10


 514              		.loc 1 222 10 is_stmt 0 view .LVU170
 515              		.arm
 516              		.syntax unified
 517 001c 0060A0E3 		mov	r6, #0
 518              	.LBB43:
 519              	.LBB44:
 520              		.loc 1 67 3 view .LVU171
 521 0020 A4509FE5 		ldr	r5, .L55
 522              	.LVL29:
 523              	.L45:
 524              		.loc 1 67 3 view .LVU172
 525              	.LBE44:
 526              	.LBE43:
 527              		.loc 1 226 3 is_stmt 1 discriminator 1 view .LVU173
 528              		.loc 1 226 14 discriminator 1 view .LVU174
 529              		.loc 1 227 3 discriminator 1 view .LVU175
 530              		.loc 1 228 5 discriminator 1 view .LVU176
 531              		.loc 1 228 8 is_stmt 0 discriminator 1 view .LVU177
 532 0024 000058E3 		cmp	r8, #0
 533 0028 0F00000A 		beq	.L41
 534              		.loc 1 229 7 is_stmt 1 view .LVU178
 535 002c 0400A0E1 		mov	r0, r4
 536 0030 38FF2FE1 		blx	r8
 537              	.LVL30:
 538 0034 0C0000EA 		b	.L41
 539              	.LVL31:
 540              	.L43:
 541              	.LBB55:
 542              	.LBB53:
 543              		.loc 1 65 6 is_stmt 0 view .LVU179
 544 0038 00005AE3 		cmp	r10, #0
 545 003c 1F00000A 		beq	.L40
 546              		.loc 1 67 3 view .LVU180
 547 0040 18C095E5 		ldr	ip, [r5, #24]
 548              	.LBB45:
 549              	.LBB46:
 550              		.loc 2 48 19 view .LVU181
 551 0044 04E094E5 		ldr	lr, [r4, #4]
 552              	.LBE46:
 553              	.LBE45:
 554              		.loc 1 69 10 view .LVU182
 555 0048 0A10A0E1 		mov	r1, r10
 556              	.LBB50:
 557              	.LBB47:
 558              		.loc 2 48 14 view .LVU183
 559 004c 10408CE8 		stm	ip, {r4, lr}
 560              	.LBE47:
 561              	.LBE50:
 562              		.loc 1 67 21 view .LVU184
 563 0050 24408CE5 		str	r4, [ip, #36]
 564              		.loc 1 68 3 is_stmt 1 view .LVU185
 565              	.LVL32:
 566              	.LBB51:
 567              	.LBI45:
 568              		.loc 2 45 20 view .LVU186
 569              	.LBB48:
 570              		.loc 2 47 3 view .LVU187
ARM GAS  /tmp/cc4iwVme.s 			page 11


 571              		.loc 2 49 3 view .LVU188
 572              	.LBE48:
 573              	.LBE51:
 574              		.loc 1 69 10 is_stmt 0 view .LVU189
 575 0054 0D00A0E3 		mov	r0, #13
 576              	.LBB52:
 577              	.LBB49:
 578              		.loc 2 49 36 view .LVU190
 579 0058 04C084E5 		str	ip, [r4, #4]
 580              		.loc 2 49 22 view .LVU191
 581 005c 00C08EE5 		str	ip, [lr]
 582              	.LVL33:
 583              		.loc 2 49 22 view .LVU192
 584              	.LBE49:
 585              	.LBE52:
 586              		.loc 1 69 3 is_stmt 1 view .LVU193
 587              		.loc 1 69 10 is_stmt 0 view .LVU194
 588 0060 FEFFFFEB 		bl	chSchGoSleepTimeoutS
 589              	.LVL34:
 590              		.loc 1 69 10 view .LVU195
 591              	.LBE53:
 592              	.LBE55:
 593              		.loc 1 232 10 view .LVU196
 594 0064 000050E3 		cmp	r0, #0
 595 0068 1400001A 		bne	.L40
 596              	.L41:
 597              		.loc 1 232 7 is_stmt 1 view .LVU197
 598              	.LVL35:
 599              	.LBB56:
 600              	.LBI43:
 601              		.loc 1 63 14 view .LVU198
 602              	.LBB54:
 603              		.loc 1 65 3 view .LVU199
 604              		.loc 1 67 3 view .LVU200
 605              	.LBE54:
 606              	.LBE56:
 607              		.loc 1 231 12 view .LVU201
 608 006c 082094E5 		ldr	r2, [r4, #8]
 609 0070 000052E3 		cmp	r2, #0
 610 0074 EFFFFF0A 		beq	.L43
 611              		.loc 1 238 5 view .LVU202
 612              		.loc 1 239 17 is_stmt 0 view .LVU203
 613 0078 183094E5 		ldr	r3, [r4, #24]
 614              		.loc 1 238 19 view .LVU204
 615 007c 012042E2 		sub	r2, r2, #1
 616 0080 082084E5 		str	r2, [r4, #8]
 617              		.loc 1 239 5 is_stmt 1 view .LVU205
 618              		.loc 1 239 26 is_stmt 0 view .LVU206
 619 0084 012083E2 		add	r2, r3, #1
 620 0088 182084E5 		str	r2, [r4, #24]
 621              	.LVL36:
 622              		.loc 1 239 13 view .LVU207
 623 008c 0030D3E5 		ldrb	r3, [r3]	@ zero_extendqisi2
 624              		.loc 1 239 11 view .LVU208
 625 0090 0130C7E4 		strb	r3, [r7], #1
 626              	.LVL37:
 627              		.loc 1 240 5 is_stmt 1 view .LVU209
ARM GAS  /tmp/cc4iwVme.s 			page 12


 628              		.loc 1 240 8 is_stmt 0 view .LVU210
 629 0094 103094E5 		ldr	r3, [r4, #16]
 630 0098 182094E5 		ldr	r2, [r4, #24]
 631 009c 030052E1 		cmp	r2, r3
 632              		.loc 1 241 7 is_stmt 1 view .LVU211
 633              		.loc 1 241 20 is_stmt 0 view .LVU212
 634 00a0 0C309425 		ldrcs	r3, [r4, #12]
 635 00a4 18308425 		strcs	r3, [r4, #24]
 636              		.loc 1 243 5 is_stmt 1 view .LVU213
 637              		.loc 1 243 5 view .LVU214
 638              		.syntax divided
 639              	@ 243 "../../os/kernel/src/chqueues.c" 1
 640 00a8 1FF021E3 		msr     CPSR_c, #0x1F
 641              	@ 0 "" 2
 642              		.loc 1 243 18 view .LVU215
 643              		.loc 1 244 5 view .LVU216
 644              		.loc 1 244 6 is_stmt 0 view .LVU217
 645              		.arm
 646              		.syntax unified
 647 00ac 016086E2 		add	r6, r6, #1
 648              	.LVL38:
 649              		.loc 1 245 5 is_stmt 1 view .LVU218
 650              		.loc 1 245 8 is_stmt 0 view .LVU219
 651 00b0 060059E1 		cmp	r9, r6
 652 00b4 0200000A 		beq	.L38
 653              		.loc 1 248 5 is_stmt 1 view .LVU220
 654              		.syntax divided
 655              	@ 248 "../../os/kernel/src/chqueues.c" 1
 656 00b8 9FF021E3 		msr     CPSR_c, #0x9F
 657              	@ 0 "" 2
 658              		.loc 1 248 5 view .LVU221
 659              		.loc 1 248 16 view .LVU222
 660              		.loc 1 227 9 view .LVU223
 661              		.loc 1 228 8 is_stmt 0 view .LVU224
 662              		.arm
 663              		.syntax unified
 664 00bc D8FFFFEA 		b	.L45
 665              	.LVL39:
 666              	.L40:
 667              		.loc 1 233 9 is_stmt 1 view .LVU225
 668              		.loc 1 233 9 view .LVU226
 669              		.syntax divided
 670              	@ 233 "../../os/kernel/src/chqueues.c" 1
 671 00c0 1FF021E3 		msr     CPSR_c, #0x1F
 672              	@ 0 "" 2
 673              		.loc 1 233 22 view .LVU227
 674              		.loc 1 234 9 view .LVU228
 675              		.arm
 676              		.syntax unified
 677              	.L38:
 678              		.loc 1 250 1 is_stmt 0 view .LVU229
 679 00c4 0600A0E1 		mov	r0, r6
 680 00c8 F087BDE8 		pop	{r4, r5, r6, r7, r8, r9, r10, pc}
 681              	.L56:
 682              		.align	2
 683              	.L55:
 684 00cc 00000000 		.word	rlist
ARM GAS  /tmp/cc4iwVme.s 			page 13


 685              		.cfi_endproc
 686              	.LFE12:
 687              		.size	chIQReadTimeout, .-chIQReadTimeout
 688              		.section	.text.chOQInit,"ax",%progbits
 689              		.align	2
 690              		.global	chOQInit
 691              		.syntax unified
 692              		.arm
 693              		.fpu softvfp
 694              		.type	chOQInit, %function
 695              	chOQInit:
 696              	.LVL40:
 697              	.LFB13:
 698              		.loc 1 269 27 is_stmt 1 view -0
 699              		.cfi_startproc
 700              		@ args = 4, pretend = 0, frame = 0
 701              		@ frame_needed = 0, uses_anonymous_args = 0
 702              		@ link register save eliminated.
 703              		.loc 1 271 3 view .LVU231
 704              		.loc 1 269 27 is_stmt 0 view .LVU232
 705 0000 00C09DE5 		ldr	ip, [sp]
 706              		.loc 1 272 18 view .LVU233
 707 0004 082080E5 		str	r2, [r0, #8]
 708              		.loc 1 274 19 view .LVU234
 709 0008 022081E0 		add	r2, r1, r2
 710              	.LVL41:
 711              		.loc 1 275 17 view .LVU235
 712 000c 1C3080E5 		str	r3, [r0, #28]
 713              		.loc 1 271 3 view .LVU236
 714 0010 040080E5 		str	r0, [r0, #4]
 715 0014 000080E5 		str	r0, [r0]
 716              		.loc 1 271 30 is_stmt 1 view .LVU237
 717              		.loc 1 272 3 view .LVU238
 718              		.loc 1 273 3 view .LVU239
 719              		.loc 1 274 14 is_stmt 0 view .LVU240
 720 0018 102080E5 		str	r2, [r0, #16]
 721              		.loc 1 273 47 view .LVU241
 722 001c 141080E5 		str	r1, [r0, #20]
 723              		.loc 1 273 32 view .LVU242
 724 0020 181080E5 		str	r1, [r0, #24]
 725              		.loc 1 273 17 view .LVU243
 726 0024 0C1080E5 		str	r1, [r0, #12]
 727              		.loc 1 274 3 is_stmt 1 view .LVU244
 728              		.loc 1 275 3 view .LVU245
 729              		.loc 1 276 3 view .LVU246
 730              		.loc 1 276 15 is_stmt 0 view .LVU247
 731 0028 20C080E5 		str	ip, [r0, #32]
 732              		.loc 1 277 1 view .LVU248
 733 002c 1EFF2FE1 		bx	lr
 734              		.cfi_endproc
 735              	.LFE13:
 736              		.size	chOQInit, .-chOQInit
 737              		.section	.text.chOQResetI,"ax",%progbits
 738              		.align	2
 739              		.global	chOQResetI
 740              		.syntax unified
 741              		.arm
ARM GAS  /tmp/cc4iwVme.s 			page 14


 742              		.fpu softvfp
 743              		.type	chOQResetI, %function
 744              	chOQResetI:
 745              	.LVL42:
 746              	.LFB14:
 747              		.loc 1 290 35 is_stmt 1 view -0
 748              		.cfi_startproc
 749              		@ args = 0, pretend = 0, frame = 0
 750              		@ frame_needed = 0, uses_anonymous_args = 0
 751              		.loc 1 292 3 view .LVU250
 752              		.loc 1 292 21 view .LVU251
 753              		.loc 1 294 3 view .LVU252
 754              		.loc 1 294 36 is_stmt 0 view .LVU253
 755 0000 0C1090E5 		ldr	r1, [r0, #12]
 756              		.loc 1 295 20 view .LVU254
 757 0004 102090E5 		ldr	r2, [r0, #16]
 758              		.loc 1 296 10 view .LVU255
 759 0008 003090E5 		ldr	r3, [r0]
 760              		.loc 1 295 20 view .LVU256
 761 000c 012042E0 		sub	r2, r2, r1
 762              		.loc 1 296 10 view .LVU257
 763 0010 030050E1 		cmp	r0, r3
 764              		.loc 1 294 31 view .LVU258
 765 0014 141080E5 		str	r1, [r0, #20]
 766              		.loc 1 294 16 view .LVU259
 767 0018 181080E5 		str	r1, [r0, #24]
 768              		.loc 1 295 3 is_stmt 1 view .LVU260
 769              		.loc 1 295 18 is_stmt 0 view .LVU261
 770 001c 082080E5 		str	r2, [r0, #8]
 771              		.loc 1 296 3 is_stmt 1 view .LVU262
 772              		.loc 1 296 10 view .LVU263
 773 0020 1EFF2F01 		bxeq	lr
 774              		.loc 1 290 35 is_stmt 0 view .LVU264
 775 0024 70402DE9 		push	{r4, r5, r6, lr}
 776              		.cfi_def_cfa_offset 16
 777              		.cfi_offset 4, -16
 778              		.cfi_offset 5, -12
 779              		.cfi_offset 6, -8
 780              		.cfi_offset 14, -4
 781 0028 0040A0E1 		mov	r4, r0
 782              		.loc 1 297 59 view .LVU265
 783 002c 0150E0E3 		mvn	r5, #1
 784              	.LVL43:
 785              	.L60:
 786              		.loc 1 297 5 is_stmt 1 view .LVU266
 787              	.LBB57:
 788              	.LBI57:
 789              		.loc 2 52 23 view .LVU267
 790              	.LBB58:
 791              		.loc 2 53 3 view .LVU268
 792              		.loc 2 55 3 view .LVU269
 793              		.loc 2 55 20 is_stmt 0 view .LVU270
 794 0030 002093E5 		ldr	r2, [r3]
 795              	.LBE58:
 796              	.LBE57:
 797              		.loc 1 297 5 view .LVU271
 798 0034 0300A0E1 		mov	r0, r3
ARM GAS  /tmp/cc4iwVme.s 			page 15


 799              	.LBB60:
 800              	.LBB59:
 801              		.loc 2 55 16 view .LVU272
 802 0038 002084E5 		str	r2, [r4]
 803              		.loc 2 55 38 view .LVU273
 804 003c 044082E5 		str	r4, [r2, #4]
 805              		.loc 2 56 3 is_stmt 1 view .LVU274
 806              	.LVL44:
 807              		.loc 2 56 3 is_stmt 0 view .LVU275
 808              	.LBE59:
 809              	.LBE60:
 810              		.loc 1 297 5 view .LVU276
 811 0040 FEFFFFEB 		bl	chSchReadyI
 812              	.LVL45:
 813              		.loc 1 296 10 view .LVU277
 814 0044 003094E5 		ldr	r3, [r4]
 815              		.loc 1 297 59 view .LVU278
 816 0048 245080E5 		str	r5, [r0, #36]
 817              		.loc 1 296 10 is_stmt 1 view .LVU279
 818 004c 040053E1 		cmp	r3, r4
 819 0050 F6FFFF1A 		bne	.L60
 820 0054 7080BDE8 		pop	{r4, r5, r6, pc}
 821              		.cfi_endproc
 822              	.LFE14:
 823              		.size	chOQResetI, .-chOQResetI
 824              		.section	.text.chOQPutTimeout,"ax",%progbits
 825              		.align	2
 826              		.global	chOQPutTimeout
 827              		.syntax unified
 828              		.arm
 829              		.fpu softvfp
 830              		.type	chOQPutTimeout, %function
 831              	chOQPutTimeout:
 832              	.LVL46:
 833              	.LFB15:
 834              		.loc 1 322 67 view -0
 835              		.cfi_startproc
 836              		@ args = 0, pretend = 0, frame = 0
 837              		@ frame_needed = 0, uses_anonymous_args = 0
 838              		.loc 1 324 3 view .LVU281
 839              		.loc 1 322 67 is_stmt 0 view .LVU282
 840 0000 F0412DE9 		push	{r4, r5, r6, r7, r8, lr}
 841              		.cfi_def_cfa_offset 24
 842              		.cfi_offset 4, -24
 843              		.cfi_offset 5, -20
 844              		.cfi_offset 6, -16
 845              		.cfi_offset 7, -12
 846              		.cfi_offset 8, -8
 847              		.cfi_offset 14, -4
 848              		.loc 1 322 67 view .LVU283
 849 0004 0040A0E1 		mov	r4, r0
 850 0008 0160A0E1 		mov	r6, r1
 851 000c 0250A0E1 		mov	r5, r2
 852              		.loc 1 324 3 view .LVU284
 853              		.syntax divided
 854              	@ 324 "../../os/kernel/src/chqueues.c" 1
 855 0010 9FF021E3 		msr     CPSR_c, #0x9F
ARM GAS  /tmp/cc4iwVme.s 			page 16


 856              	@ 0 "" 2
 857              		.loc 1 324 3 is_stmt 1 view .LVU285
 858              		.loc 1 324 14 view .LVU286
 859              		.loc 1 325 3 view .LVU287
 860              		.arm
 861              		.syntax unified
 862              	.LBB66:
 863              	.LBB67:
 864              	.LBB68:
 865              		.loc 1 67 3 is_stmt 0 view .LVU288
 866 0014 98709FE5 		ldr	r7, .L79
 867              	.LBE68:
 868              	.LBE67:
 869              	.LBE66:
 870              		.loc 1 325 9 view .LVU289
 871 0018 0C0000EA 		b	.L67
 872              	.LVL47:
 873              	.L70:
 874              	.LBB83:
 875              	.LBB80:
 876              	.LBB77:
 877              		.loc 1 65 6 view .LVU290
 878 001c 000055E3 		cmp	r5, #0
 879 0020 2000000A 		beq	.L73
 880              		.loc 1 67 3 view .LVU291
 881 0024 183097E5 		ldr	r3, [r7, #24]
 882              	.LBB69:
 883              	.LBB70:
 884              		.loc 2 48 19 view .LVU292
 885 0028 04C094E5 		ldr	ip, [r4, #4]
 886              	.LBE70:
 887              	.LBE69:
 888              		.loc 1 69 10 view .LVU293
 889 002c 0510A0E1 		mov	r1, r5
 890              	.LBB74:
 891              	.LBB71:
 892              		.loc 2 48 14 view .LVU294
 893 0030 101083E8 		stm	r3, {r4, ip}
 894              	.LBE71:
 895              	.LBE74:
 896              		.loc 1 67 21 view .LVU295
 897 0034 244083E5 		str	r4, [r3, #36]
 898              		.loc 1 68 3 is_stmt 1 view .LVU296
 899              	.LVL48:
 900              	.LBB75:
 901              	.LBI69:
 902              		.loc 2 45 20 view .LVU297
 903              	.LBB72:
 904              		.loc 2 47 3 view .LVU298
 905              		.loc 2 49 3 view .LVU299
 906              	.LBE72:
 907              	.LBE75:
 908              		.loc 1 69 10 is_stmt 0 view .LVU300
 909 0038 0D00A0E3 		mov	r0, #13
 910              	.LBB76:
 911              	.LBB73:
 912              		.loc 2 49 36 view .LVU301
ARM GAS  /tmp/cc4iwVme.s 			page 17


 913 003c 043084E5 		str	r3, [r4, #4]
 914              		.loc 2 49 22 view .LVU302
 915 0040 00308CE5 		str	r3, [ip]
 916              	.LVL49:
 917              		.loc 2 49 22 view .LVU303
 918              	.LBE73:
 919              	.LBE76:
 920              		.loc 1 69 3 is_stmt 1 view .LVU304
 921              		.loc 1 69 10 is_stmt 0 view .LVU305
 922 0044 FEFFFFEB 		bl	chSchGoSleepTimeoutS
 923              	.LVL50:
 924              		.loc 1 69 10 view .LVU306
 925              	.LBE77:
 926              	.LBE80:
 927              		.loc 1 328 8 view .LVU307
 928 0048 000050E3 		cmp	r0, #0
 929              		.loc 1 328 8 view .LVU308
 930 004c 160000BA 		blt	.L68
 931              	.LVL51:
 932              	.L67:
 933              		.loc 1 326 5 is_stmt 1 view .LVU309
 934              		.loc 1 328 5 view .LVU310
 935              	.LBB81:
 936              	.LBI67:
 937              		.loc 1 63 14 view .LVU311
 938              	.LBB78:
 939              		.loc 1 65 3 view .LVU312
 940              		.loc 1 67 3 view .LVU313
 941              	.LBE78:
 942              	.LBE81:
 943              	.LBE83:
 944              		.loc 1 325 10 view .LVU314
 945 0050 083094E5 		ldr	r3, [r4, #8]
 946 0054 000053E3 		cmp	r3, #0
 947 0058 EFFFFF0A 		beq	.L70
 948              		.loc 1 334 3 view .LVU315
 949              		.loc 1 335 7 is_stmt 0 view .LVU316
 950 005c 142094E5 		ldr	r2, [r4, #20]
 951              		.loc 1 334 17 view .LVU317
 952 0060 013043E2 		sub	r3, r3, #1
 953              		.loc 1 335 16 view .LVU318
 954 0064 011082E2 		add	r1, r2, #1
 955 0068 141084E5 		str	r1, [r4, #20]
 956              		.loc 1 334 17 view .LVU319
 957 006c 083084E5 		str	r3, [r4, #8]
 958              		.loc 1 335 3 is_stmt 1 view .LVU320
 959              		.loc 1 335 19 is_stmt 0 view .LVU321
 960 0070 0060C2E5 		strb	r6, [r2]
 961              		.loc 1 336 3 is_stmt 1 view .LVU322
 962              		.loc 1 336 6 is_stmt 0 view .LVU323
 963 0074 103094E5 		ldr	r3, [r4, #16]
 964 0078 142094E5 		ldr	r2, [r4, #20]
 965 007c 030052E1 		cmp	r2, r3
 966              		.loc 1 337 5 is_stmt 1 view .LVU324
 967              		.loc 1 337 18 is_stmt 0 view .LVU325
 968 0080 0C309425 		ldrcs	r3, [r4, #12]
 969 0084 14308425 		strcs	r3, [r4, #20]
ARM GAS  /tmp/cc4iwVme.s 			page 18


 970              		.loc 1 339 3 is_stmt 1 view .LVU326
 971              		.loc 1 339 10 is_stmt 0 view .LVU327
 972 0088 1C3094E5 		ldr	r3, [r4, #28]
 973              		.loc 1 339 6 view .LVU328
 974 008c 000053E3 		cmp	r3, #0
 975 0090 0100000A 		beq	.L72
 976              		.loc 1 340 5 is_stmt 1 view .LVU329
 977 0094 0400A0E1 		mov	r0, r4
 978 0098 33FF2FE1 		blx	r3
 979              	.LVL52:
 980              	.L72:
 981              		.loc 1 342 3 view .LVU330
 982              		.loc 1 342 3 view .LVU331
 983              		.syntax divided
 984              	@ 342 "../../os/kernel/src/chqueues.c" 1
 985 009c 1FF021E3 		msr     CPSR_c, #0x1F
 986              	@ 0 "" 2
 987              		.loc 1 342 16 view .LVU332
 988              		.loc 1 343 3 view .LVU333
 989              		.loc 1 343 10 is_stmt 0 view .LVU334
 990              		.arm
 991              		.syntax unified
 992 00a0 0000A0E3 		mov	r0, #0
 993              		.loc 1 344 1 view .LVU335
 994 00a4 F081BDE8 		pop	{r4, r5, r6, r7, r8, pc}
 995              	.L73:
 996              	.LBB84:
 997              	.LBB82:
 998              	.LBB79:
 999              		.loc 1 66 12 view .LVU336
 1000 00a8 0000E0E3 		mvn	r0, #0
 1001              	.LVL53:
 1002              	.L68:
 1003              		.loc 1 66 12 view .LVU337
 1004              	.LBE79:
 1005              	.LBE82:
 1006              		.loc 1 329 7 is_stmt 1 view .LVU338
 1007              		.loc 1 329 7 view .LVU339
 1008              		.syntax divided
 1009              	@ 329 "../../os/kernel/src/chqueues.c" 1
 1010 00ac 1FF021E3 		msr     CPSR_c, #0x1F
 1011              	@ 0 "" 2
 1012              		.loc 1 329 20 view .LVU340
 1013              		.loc 1 330 7 view .LVU341
 1014              		.loc 1 330 14 is_stmt 0 view .LVU342
 1015              		.arm
 1016              		.syntax unified
 1017 00b0 F081BDE8 		pop	{r4, r5, r6, r7, r8, pc}
 1018              	.L80:
 1019              		.align	2
 1020              	.L79:
 1021 00b4 00000000 		.word	rlist
 1022              	.LBE84:
 1023              		.cfi_endproc
 1024              	.LFE15:
 1025              		.size	chOQPutTimeout, .-chOQPutTimeout
 1026              		.section	.text.chOQGetI,"ax",%progbits
ARM GAS  /tmp/cc4iwVme.s 			page 19


 1027              		.align	2
 1028              		.global	chOQGetI
 1029              		.syntax unified
 1030              		.arm
 1031              		.fpu softvfp
 1032              		.type	chOQGetI, %function
 1033              	chOQGetI:
 1034              	.LVL54:
 1035              	.LFB16:
 1036              		.loc 1 356 34 is_stmt 1 view -0
 1037              		.cfi_startproc
 1038              		@ args = 0, pretend = 0, frame = 0
 1039              		@ frame_needed = 0, uses_anonymous_args = 0
 1040              		.loc 1 357 3 view .LVU344
 1041              		.loc 1 359 3 view .LVU345
 1042              		.loc 1 359 21 view .LVU346
 1043              		.loc 1 361 3 view .LVU347
 1044              		.loc 1 356 34 is_stmt 0 view .LVU348
 1045 0000 0030A0E1 		mov	r3, r0
 1046              		.loc 1 361 6 view .LVU349
 1047 0004 D401C0E1 		ldrd	r0, [r0, #20]
 1048              	.LVL55:
 1049              		.loc 1 361 6 view .LVU350
 1050 0008 010050E1 		cmp	r0, r1
 1051              		.loc 1 361 7 view .LVU351
 1052 000c 082093E5 		ldr	r2, [r3, #8]
 1053              		.loc 1 361 6 view .LVU352
 1054 0010 1400000A 		beq	.L90
 1055              	.L82:
 1056              		.loc 1 364 3 is_stmt 1 view .LVU353
 1057              		.loc 1 356 34 is_stmt 0 view .LVU354
 1058 0014 10402DE9 		push	{r4, lr}
 1059              		.cfi_def_cfa_offset 8
 1060              		.cfi_offset 4, -8
 1061              		.cfi_offset 14, -4
 1062              		.loc 1 366 6 view .LVU355
 1063 0018 10C093E5 		ldr	ip, [r3, #16]
 1064              		.loc 1 365 20 view .LVU356
 1065 001c 010081E2 		add	r0, r1, #1
 1066              		.loc 1 366 6 view .LVU357
 1067 0020 0C0050E1 		cmp	r0, ip
 1068              		.loc 1 364 17 view .LVU358
 1069 0024 012082E2 		add	r2, r2, #1
 1070              		.loc 1 365 20 view .LVU359
 1071 0028 180083E5 		str	r0, [r3, #24]
 1072              		.loc 1 364 17 view .LVU360
 1073 002c 082083E5 		str	r2, [r3, #8]
 1074              		.loc 1 365 3 is_stmt 1 view .LVU361
 1075              		.loc 1 369 7 is_stmt 0 view .LVU362
 1076 0030 000093E5 		ldr	r0, [r3]
 1077              		.loc 1 367 18 view .LVU363
 1078 0034 0C209325 		ldrcs	r2, [r3, #12]
 1079              		.loc 1 365 5 view .LVU364
 1080 0038 0040D1E5 		ldrb	r4, [r1]	@ zero_extendqisi2
 1081              	.LVL56:
 1082              		.loc 1 366 3 is_stmt 1 view .LVU365
 1083              		.loc 1 367 5 view .LVU366
ARM GAS  /tmp/cc4iwVme.s 			page 20


 1084              		.loc 1 367 18 is_stmt 0 view .LVU367
 1085 003c 18208325 		strcs	r2, [r3, #24]
 1086              		.loc 1 369 3 is_stmt 1 view .LVU368
 1087              		.loc 1 369 6 is_stmt 0 view .LVU369
 1088 0040 030050E1 		cmp	r0, r3
 1089 0044 0500000A 		beq	.L85
 1090              		.loc 1 370 5 is_stmt 1 view .LVU370
 1091              	.LVL57:
 1092              	.LBB85:
 1093              	.LBI85:
 1094              		.loc 2 52 23 view .LVU371
 1095              	.LBB86:
 1096              		.loc 2 53 3 view .LVU372
 1097              		.loc 2 55 3 view .LVU373
 1098              		.loc 2 55 20 is_stmt 0 view .LVU374
 1099 0048 002090E5 		ldr	r2, [r0]
 1100              		.loc 2 55 16 view .LVU375
 1101 004c 002083E5 		str	r2, [r3]
 1102              		.loc 2 55 38 view .LVU376
 1103 0050 043082E5 		str	r3, [r2, #4]
 1104              		.loc 2 56 3 is_stmt 1 view .LVU377
 1105              	.LVL58:
 1106              		.loc 2 56 3 is_stmt 0 view .LVU378
 1107              	.LBE86:
 1108              	.LBE85:
 1109              		.loc 1 370 5 view .LVU379
 1110 0054 FEFFFFEB 		bl	chSchReadyI
 1111              	.LVL59:
 1112              		.loc 1 370 59 view .LVU380
 1113 0058 0030A0E3 		mov	r3, #0
 1114 005c 243080E5 		str	r3, [r0, #36]
 1115              	.L85:
 1116              		.loc 1 372 3 is_stmt 1 view .LVU381
 1117              		.loc 1 372 10 is_stmt 0 view .LVU382
 1118 0060 0400A0E1 		mov	r0, r4
 1119              		.loc 1 373 1 view .LVU383
 1120 0064 1080BDE8 		pop	{r4, pc}
 1121              	.LVL60:
 1122              	.L90:
 1123              		.cfi_def_cfa_offset 0
 1124              		.cfi_restore 4
 1125              		.cfi_restore 14
 1126              		.loc 1 361 7 discriminator 1 view .LVU384
 1127 0068 000052E3 		cmp	r2, #0
 1128 006c E8FFFF0A 		beq	.L82
 1129              		.loc 1 362 12 view .LVU385
 1130 0070 0200E0E3 		mvn	r0, #2
 1131              		.loc 1 373 1 view .LVU386
 1132 0074 1EFF2FE1 		bx	lr
 1133              		.cfi_endproc
 1134              	.LFE16:
 1135              		.size	chOQGetI, .-chOQGetI
 1136              		.section	.text.chOQWriteTimeout,"ax",%progbits
 1137              		.align	2
 1138              		.global	chOQWriteTimeout
 1139              		.syntax unified
 1140              		.arm
ARM GAS  /tmp/cc4iwVme.s 			page 21


 1141              		.fpu softvfp
 1142              		.type	chOQWriteTimeout, %function
 1143              	chOQWriteTimeout:
 1144              	.LVL61:
 1145              	.LFB17:
 1146              		.loc 1 400 51 is_stmt 1 view -0
 1147              		.cfi_startproc
 1148              		@ args = 0, pretend = 0, frame = 0
 1149              		@ frame_needed = 0, uses_anonymous_args = 0
 1150              		.loc 1 401 3 view .LVU388
 1151              		.loc 1 400 51 is_stmt 0 view .LVU389
 1152 0000 F0472DE9 		push	{r4, r5, r6, r7, r8, r9, r10, lr}
 1153              		.cfi_def_cfa_offset 32
 1154              		.cfi_offset 4, -32
 1155              		.cfi_offset 5, -28
 1156              		.cfi_offset 6, -24
 1157              		.cfi_offset 7, -20
 1158              		.cfi_offset 8, -16
 1159              		.cfi_offset 9, -12
 1160              		.cfi_offset 10, -8
 1161              		.cfi_offset 14, -4
 1162              		.loc 1 400 51 view .LVU390
 1163 0004 0040A0E1 		mov	r4, r0
 1164 0008 0150A0E1 		mov	r5, r1
 1165 000c 0260A0E1 		mov	r6, r2
 1166 0010 0390A0E1 		mov	r9, r3
 1167              		.loc 1 401 13 view .LVU391
 1168 0014 1C8090E5 		ldr	r8, [r0, #28]
 1169              	.LVL62:
 1170              		.loc 1 402 3 is_stmt 1 view .LVU392
 1171              		.loc 1 404 3 view .LVU393
 1172              		.loc 1 404 40 view .LVU394
 1173              		.loc 1 406 3 view .LVU395
 1174              		.syntax divided
 1175              	@ 406 "../../os/kernel/src/chqueues.c" 1
 1176 0018 9FF021E3 		msr     CPSR_c, #0x9F
 1177              	@ 0 "" 2
 1178              		.loc 1 402 10 is_stmt 0 view .LVU396
 1179              		.arm
 1180              		.syntax unified
 1181 001c 0070A0E3 		mov	r7, #0
 1182              	.LBB91:
 1183              	.LBB92:
 1184              		.loc 1 67 3 view .LVU397
 1185 0020 B0A09FE5 		ldr	r10, .L108
 1186              	.LVL63:
 1187              	.L92:
 1188              		.loc 1 67 3 view .LVU398
 1189              	.LBE92:
 1190              	.LBE91:
 1191              		.loc 1 408 12 is_stmt 1 view .LVU399
 1192              		.loc 1 414 5 view .LVU400
 1193              		.loc 1 419 5 view .LVU401
 1194              		.loc 1 420 7 view .LVU402
 1195              		.loc 1 408 12 is_stmt 0 view .LVU403
 1196 0024 080094E5 		ldr	r0, [r4, #8]
 1197 0028 000050E3 		cmp	r0, #0
ARM GAS  /tmp/cc4iwVme.s 			page 22


 1198              		.loc 1 414 19 view .LVU404
 1199 002c 012040E2 		sub	r2, r0, #1
 1200              		.loc 1 408 12 view .LVU405
 1201 0030 1700000A 		beq	.L96
 1202              	.L107:
 1203              		.loc 1 417 7 is_stmt 1 view .LVU406
 1204              		.loc 1 415 9 is_stmt 0 view .LVU407
 1205 0034 143094E5 		ldr	r3, [r4, #20]
 1206              		.loc 1 414 19 view .LVU408
 1207 0038 082084E5 		str	r2, [r4, #8]
 1208              		.loc 1 415 5 is_stmt 1 view .LVU409
 1209              	.LVL64:
 1210              		.loc 1 415 18 is_stmt 0 view .LVU410
 1211 003c 012083E2 		add	r2, r3, #1
 1212 0040 142084E5 		str	r2, [r4, #20]
 1213              		.loc 1 415 23 view .LVU411
 1214 0044 0120D5E4 		ldrb	r2, [r5], #1	@ zero_extendqisi2
 1215              	.LVL65:
 1216              		.loc 1 415 21 view .LVU412
 1217 0048 0020C3E5 		strb	r2, [r3]
 1218              		.loc 1 416 5 is_stmt 1 view .LVU413
 1219              		.loc 1 416 8 is_stmt 0 view .LVU414
 1220 004c 103094E5 		ldr	r3, [r4, #16]
 1221 0050 142094E5 		ldr	r2, [r4, #20]
 1222 0054 030052E1 		cmp	r2, r3
 1223              		.loc 1 417 20 view .LVU415
 1224 0058 0C309425 		ldrcs	r3, [r4, #12]
 1225 005c 14308425 		strcs	r3, [r4, #20]
 1226              		.loc 1 419 8 view .LVU416
 1227 0060 000058E3 		cmp	r8, #0
 1228 0064 0100000A 		beq	.L98
 1229              		.loc 1 420 7 view .LVU417
 1230 0068 0400A0E1 		mov	r0, r4
 1231 006c 38FF2FE1 		blx	r8
 1232              	.LVL66:
 1233              	.L98:
 1234              		.loc 1 422 5 is_stmt 1 view .LVU418
 1235              		.loc 1 422 5 view .LVU419
 1236              		.syntax divided
 1237              	@ 422 "../../os/kernel/src/chqueues.c" 1
 1238 0070 1FF021E3 		msr     CPSR_c, #0x1F
 1239              	@ 0 "" 2
 1240              		.loc 1 422 18 view .LVU420
 1241              		.loc 1 423 5 view .LVU421
 1242              		.loc 1 426 5 view .LVU422
 1243              		.loc 1 424 8 is_stmt 0 view .LVU423
 1244              		.arm
 1245              		.syntax unified
 1246 0074 016056E2 		subs	r6, r6, #1
 1247              	.LVL67:
 1248              		.loc 1 423 6 view .LVU424
 1249 0078 017087E2 		add	r7, r7, #1
 1250              	.LVL68:
 1251              		.loc 1 424 5 is_stmt 1 view .LVU425
 1252              		.loc 1 424 8 is_stmt 0 view .LVU426
 1253 007c 1300000A 		beq	.L91
 1254              		.loc 1 426 5 view .LVU427
ARM GAS  /tmp/cc4iwVme.s 			page 23


 1255              		.syntax divided
 1256              	@ 426 "../../os/kernel/src/chqueues.c" 1
 1257 0080 9FF021E3 		msr     CPSR_c, #0x9F
 1258              	@ 0 "" 2
 1259              		.loc 1 426 5 is_stmt 1 view .LVU428
 1260              		.loc 1 426 16 view .LVU429
 1261              		.loc 1 407 9 view .LVU430
 1262              	.LVL69:
 1263              		.loc 1 408 12 view .LVU431
 1264              		.loc 1 414 5 view .LVU432
 1265              		.loc 1 419 5 view .LVU433
 1266              		.loc 1 420 7 view .LVU434
 1267              		.loc 1 408 12 is_stmt 0 view .LVU435
 1268              		.arm
 1269              		.syntax unified
 1270 0084 080094E5 		ldr	r0, [r4, #8]
 1271 0088 000050E3 		cmp	r0, #0
 1272              		.loc 1 414 19 view .LVU436
 1273 008c 012040E2 		sub	r2, r0, #1
 1274              		.loc 1 408 12 view .LVU437
 1275 0090 E7FFFF1A 		bne	.L107
 1276              	.L96:
 1277              		.loc 1 409 7 is_stmt 1 view .LVU438
 1278              	.LVL70:
 1279              	.LBB100:
 1280              	.LBI91:
 1281              		.loc 1 63 14 view .LVU439
 1282              	.LBB99:
 1283              		.loc 1 65 3 view .LVU440
 1284              		.loc 1 67 3 view .LVU441
 1285              		.loc 1 65 6 is_stmt 0 view .LVU442
 1286 0094 000059E3 		cmp	r9, #0
 1287 0098 0B00000A 		beq	.L95
 1288              		.loc 1 67 3 view .LVU443
 1289 009c 18309AE5 		ldr	r3, [r10, #24]
 1290              	.LBB93:
 1291              	.LBB94:
 1292              		.loc 2 48 19 view .LVU444
 1293 00a0 042094E5 		ldr	r2, [r4, #4]
 1294              	.LBE94:
 1295              	.LBE93:
 1296              		.loc 1 69 10 view .LVU445
 1297 00a4 0910A0E1 		mov	r1, r9
 1298              		.loc 1 67 21 view .LVU446
 1299 00a8 244083E5 		str	r4, [r3, #36]
 1300              		.loc 1 68 3 is_stmt 1 view .LVU447
 1301              	.LVL71:
 1302              	.LBB97:
 1303              	.LBI93:
 1304              		.loc 2 45 20 view .LVU448
 1305              	.LBB95:
 1306              		.loc 2 47 3 view .LVU449
 1307              		.loc 2 47 14 is_stmt 0 view .LVU450
 1308 00ac 004083E5 		str	r4, [r3]
 1309              		.loc 2 48 3 is_stmt 1 view .LVU451
 1310              		.loc 2 48 14 is_stmt 0 view .LVU452
 1311 00b0 042083E5 		str	r2, [r3, #4]
ARM GAS  /tmp/cc4iwVme.s 			page 24


 1312              		.loc 2 49 3 is_stmt 1 view .LVU453
 1313              	.LBE95:
 1314              	.LBE97:
 1315              		.loc 1 69 10 is_stmt 0 view .LVU454
 1316 00b4 0D00A0E3 		mov	r0, #13
 1317              	.LBB98:
 1318              	.LBB96:
 1319              		.loc 2 49 36 view .LVU455
 1320 00b8 043084E5 		str	r3, [r4, #4]
 1321              		.loc 2 49 22 view .LVU456
 1322 00bc 003082E5 		str	r3, [r2]
 1323              	.LVL72:
 1324              		.loc 2 49 22 view .LVU457
 1325              	.LBE96:
 1326              	.LBE98:
 1327              		.loc 1 69 3 is_stmt 1 view .LVU458
 1328              		.loc 1 69 10 is_stmt 0 view .LVU459
 1329 00c0 FEFFFFEB 		bl	chSchGoSleepTimeoutS
 1330              	.LVL73:
 1331              		.loc 1 69 10 view .LVU460
 1332              	.LBE99:
 1333              	.LBE100:
 1334              		.loc 1 409 10 view .LVU461
 1335 00c4 000050E3 		cmp	r0, #0
 1336 00c8 D5FFFF0A 		beq	.L92
 1337              	.L95:
 1338              		.loc 1 410 9 is_stmt 1 view .LVU462
 1339              		.loc 1 410 9 view .LVU463
 1340              		.syntax divided
 1341              	@ 410 "../../os/kernel/src/chqueues.c" 1
 1342 00cc 1FF021E3 		msr     CPSR_c, #0x1F
 1343              	@ 0 "" 2
 1344              		.loc 1 410 22 view .LVU464
 1345              		.loc 1 411 9 view .LVU465
 1346              	.LVL74:
 1347              		.arm
 1348              		.syntax unified
 1349              	.L91:
 1350              		.loc 1 428 1 is_stmt 0 view .LVU466
 1351 00d0 0700A0E1 		mov	r0, r7
 1352 00d4 F087BDE8 		pop	{r4, r5, r6, r7, r8, r9, r10, pc}
 1353              	.L109:
 1354              		.align	2
 1355              	.L108:
 1356 00d8 00000000 		.word	rlist
 1357              		.cfi_endproc
 1358              	.LFE17:
 1359              		.size	chOQWriteTimeout, .-chOQWriteTimeout
 1360              		.text
 1361              	.Letext0:
 1362              		.file 3 "/usr/lib/gcc/arm-none-eabi/11.2.0/include/stddef.h"
 1363              		.file 4 "/usr/arm-none-eabi/include/machine/_default_types.h"
 1364              		.file 5 "/usr/arm-none-eabi/include/sys/_stdint.h"
 1365              		.file 6 "../../os/ports/GCC/ARM/chtypes.h"
 1366              		.file 7 "../../os/kernel/include/chlists.h"
 1367              		.file 8 "../../os/kernel/include/chthreads.h"
 1368              		.file 9 "../../os/ports/GCC/ARM/chcore.h"
ARM GAS  /tmp/cc4iwVme.s 			page 25


 1369              		.file 10 "../../os/kernel/include/chschd.h"
 1370              		.file 11 "../../os/kernel/include/chmtx.h"
 1371              		.file 12 "../../os/kernel/include/chqueues.h"
 1372              		.section	.debug_info,"",%progbits
 1373              	.Ldebug_info0:
 1374 0000 130C0000 		.4byte	0xc13
 1375 0004 0500     		.2byte	0x5
 1376 0006 01       		.byte	0x1
 1377 0007 04       		.byte	0x4
 1378 0008 00000000 		.4byte	.Ldebug_abbrev0
 1379 000c 28       		.uleb128 0x28
 1380 000d EB010000 		.4byte	.LASF97
 1381 0011 1D       		.byte	0x1d
 1382 0012 85010000 		.4byte	.LASF98
 1383 0016 94020000 		.4byte	.LASF99
 1384 001a D0000000 		.4byte	.LLRL61
 1385 001e 00000000 		.4byte	0
 1386 0022 00000000 		.4byte	.Ldebug_line0
 1387 0026 29       		.uleb128 0x29
 1388 0027 04       		.byte	0x4
 1389 0028 05       		.byte	0x5
 1390 0029 696E7400 		.ascii	"int\000"
 1391 002d 02       		.uleb128 0x2
 1392 002e 1A000000 		.4byte	.LASF2
 1393 0032 03       		.byte	0x3
 1394 0033 D1       		.byte	0xd1
 1395 0034 17       		.byte	0x17
 1396 0035 39000000 		.4byte	0x39
 1397 0039 07       		.uleb128 0x7
 1398 003a 04       		.byte	0x4
 1399 003b 07       		.byte	0x7
 1400 003c 20010000 		.4byte	.LASF0
 1401 0040 07       		.uleb128 0x7
 1402 0041 01       		.byte	0x1
 1403 0042 06       		.byte	0x6
 1404 0043 9F000000 		.4byte	.LASF1
 1405 0047 02       		.uleb128 0x2
 1406 0048 3D000000 		.4byte	.LASF3
 1407 004c 04       		.byte	0x4
 1408 004d 2B       		.byte	0x2b
 1409 004e 18       		.byte	0x18
 1410 004f 53000000 		.4byte	0x53
 1411 0053 07       		.uleb128 0x7
 1412 0054 01       		.byte	0x1
 1413 0055 08       		.byte	0x8
 1414 0056 21030000 		.4byte	.LASF4
 1415 005a 07       		.uleb128 0x7
 1416 005b 02       		.byte	0x2
 1417 005c 05       		.byte	0x5
 1418 005d 39030000 		.4byte	.LASF5
 1419 0061 07       		.uleb128 0x7
 1420 0062 02       		.byte	0x2
 1421 0063 07       		.byte	0x7
 1422 0064 57010000 		.4byte	.LASF6
 1423 0068 02       		.uleb128 0x2
 1424 0069 D6030000 		.4byte	.LASF7
 1425 006d 04       		.byte	0x4
ARM GAS  /tmp/cc4iwVme.s 			page 26


 1426 006e 4D       		.byte	0x4d
 1427 006f 18       		.byte	0x18
 1428 0070 74000000 		.4byte	0x74
 1429 0074 07       		.uleb128 0x7
 1430 0075 04       		.byte	0x4
 1431 0076 05       		.byte	0x5
 1432 0077 CA000000 		.4byte	.LASF8
 1433 007b 02       		.uleb128 0x2
 1434 007c FE000000 		.4byte	.LASF9
 1435 0080 04       		.byte	0x4
 1436 0081 4F       		.byte	0x4f
 1437 0082 19       		.byte	0x19
 1438 0083 87000000 		.4byte	0x87
 1439 0087 07       		.uleb128 0x7
 1440 0088 04       		.byte	0x4
 1441 0089 07       		.byte	0x7
 1442 008a 38010000 		.4byte	.LASF10
 1443 008e 07       		.uleb128 0x7
 1444 008f 08       		.byte	0x8
 1445 0090 05       		.byte	0x5
 1446 0091 91000000 		.4byte	.LASF11
 1447 0095 07       		.uleb128 0x7
 1448 0096 08       		.byte	0x8
 1449 0097 07       		.byte	0x7
 1450 0098 57000000 		.4byte	.LASF12
 1451 009c 02       		.uleb128 0x2
 1452 009d 2F040000 		.4byte	.LASF13
 1453 00a1 05       		.byte	0x5
 1454 00a2 18       		.byte	0x18
 1455 00a3 13       		.byte	0x13
 1456 00a4 47000000 		.4byte	0x47
 1457 00a8 1B       		.uleb128 0x1b
 1458 00a9 9C000000 		.4byte	0x9c
 1459 00ad 02       		.uleb128 0x2
 1460 00ae 19030000 		.4byte	.LASF14
 1461 00b2 05       		.byte	0x5
 1462 00b3 2C       		.byte	0x2c
 1463 00b4 13       		.byte	0x13
 1464 00b5 68000000 		.4byte	0x68
 1465 00b9 02       		.uleb128 0x2
 1466 00ba 8C030000 		.4byte	.LASF15
 1467 00be 05       		.byte	0x5
 1468 00bf 30       		.byte	0x30
 1469 00c0 14       		.byte	0x14
 1470 00c1 7B000000 		.4byte	0x7b
 1471 00c5 02       		.uleb128 0x2
 1472 00c6 AB000000 		.4byte	.LASF16
 1473 00ca 06       		.byte	0x6
 1474 00cb 29       		.byte	0x29
 1475 00cc 19       		.byte	0x19
 1476 00cd AD000000 		.4byte	0xad
 1477 00d1 02       		.uleb128 0x2
 1478 00d2 6A030000 		.4byte	.LASF17
 1479 00d6 06       		.byte	0x6
 1480 00d7 2A       		.byte	0x2a
 1481 00d8 19       		.byte	0x19
 1482 00d9 9C000000 		.4byte	0x9c
ARM GAS  /tmp/cc4iwVme.s 			page 27


 1483 00dd 02       		.uleb128 0x2
 1484 00de D3000000 		.4byte	.LASF18
 1485 00e2 06       		.byte	0x6
 1486 00e3 2B       		.byte	0x2b
 1487 00e4 19       		.byte	0x19
 1488 00e5 9C000000 		.4byte	0x9c
 1489 00e9 02       		.uleb128 0x2
 1490 00ea F0020000 		.4byte	.LASF19
 1491 00ee 06       		.byte	0x6
 1492 00ef 2C       		.byte	0x2c
 1493 00f0 19       		.byte	0x19
 1494 00f1 9C000000 		.4byte	0x9c
 1495 00f5 02       		.uleb128 0x2
 1496 00f6 BA000000 		.4byte	.LASF20
 1497 00fa 06       		.byte	0x6
 1498 00fb 2D       		.byte	0x2d
 1499 00fc 19       		.byte	0x19
 1500 00fd 9C000000 		.4byte	0x9c
 1501 0101 02       		.uleb128 0x2
 1502 0102 09030000 		.4byte	.LASF21
 1503 0106 06       		.byte	0x6
 1504 0107 2E       		.byte	0x2e
 1505 0108 19       		.byte	0x19
 1506 0109 B9000000 		.4byte	0xb9
 1507 010d 02       		.uleb128 0x2
 1508 010e 6A010000 		.4byte	.LASF22
 1509 0112 06       		.byte	0x6
 1510 0113 2F       		.byte	0x2f
 1511 0114 19       		.byte	0x19
 1512 0115 AD000000 		.4byte	0xad
 1513 0119 02       		.uleb128 0x2
 1514 011a B0010000 		.4byte	.LASF23
 1515 011e 06       		.byte	0x6
 1516 011f 31       		.byte	0x31
 1517 0120 19       		.byte	0x19
 1518 0121 B9000000 		.4byte	0xb9
 1519 0125 02       		.uleb128 0x2
 1520 0126 C1030000 		.4byte	.LASF24
 1521 012a 06       		.byte	0x6
 1522 012b 33       		.byte	0x33
 1523 012c 19       		.byte	0x19
 1524 012d B9000000 		.4byte	0xb9
 1525 0131 2A       		.uleb128 0x2a
 1526 0132 25010000 		.4byte	0x125
 1527 0136 02       		.uleb128 0x2
 1528 0137 7A030000 		.4byte	.LASF25
 1529 013b 07       		.byte	0x7
 1530 013c 23       		.byte	0x23
 1531 013d 17       		.byte	0x17
 1532 013e 42010000 		.4byte	0x142
 1533 0142 0B       		.uleb128 0xb
 1534 0143 7A030000 		.4byte	.LASF25
 1535 0147 44       		.byte	0x44
 1536 0148 08       		.byte	0x8
 1537 0149 57       		.byte	0x57
 1538 014a 08       		.byte	0x8
 1539 014b 47020000 		.4byte	0x247
ARM GAS  /tmp/cc4iwVme.s 			page 28


 1540 014f 01       		.uleb128 0x1
 1541 0150 63030000 		.4byte	.LASF26
 1542 0154 08       		.byte	0x8
 1543 0155 58       		.byte	0x58
 1544 0156 1A       		.byte	0x1a
 1545 0157 6A020000 		.4byte	0x26a
 1546 015b 00       		.byte	0
 1547 015c 01       		.uleb128 0x1
 1548 015d 02030000 		.4byte	.LASF27
 1549 0161 08       		.byte	0x8
 1550 0162 5A       		.byte	0x5a
 1551 0163 1A       		.byte	0x1a
 1552 0164 6A020000 		.4byte	0x26a
 1553 0168 04       		.byte	0x4
 1554 0169 01       		.uleb128 0x1
 1555 016a 80000000 		.4byte	.LASF28
 1556 016e 08       		.byte	0x8
 1557 016f 5C       		.byte	0x5c
 1558 0170 19       		.byte	0x19
 1559 0171 01010000 		.4byte	0x101
 1560 0175 08       		.byte	0x8
 1561 0176 01       		.uleb128 0x1
 1562 0177 69040000 		.4byte	.LASF29
 1563 017b 08       		.byte	0x8
 1564 017c 5D       		.byte	0x5d
 1565 017d 19       		.byte	0x19
 1566 017e 27030000 		.4byte	0x327
 1567 0182 0C       		.byte	0xc
 1568 0183 01       		.uleb128 0x1
 1569 0184 F6000000 		.4byte	.LASF30
 1570 0188 08       		.byte	0x8
 1571 0189 5F       		.byte	0x5f
 1572 018a 1A       		.byte	0x1a
 1573 018b 6A020000 		.4byte	0x26a
 1574 018f 10       		.byte	0x10
 1575 0190 01       		.uleb128 0x1
 1576 0191 BE020000 		.4byte	.LASF31
 1577 0195 08       		.byte	0x8
 1578 0196 60       		.byte	0x60
 1579 0197 1A       		.byte	0x1a
 1580 0198 6A020000 		.4byte	0x26a
 1581 019c 14       		.byte	0x14
 1582 019d 01       		.uleb128 0x1
 1583 019e 3E040000 		.4byte	.LASF32
 1584 01a2 08       		.byte	0x8
 1585 01a3 67       		.byte	0x67
 1586 01a4 1A       		.byte	0x1a
 1587 01a5 32040000 		.4byte	0x432
 1588 01a9 18       		.byte	0x18
 1589 01aa 01       		.uleb128 0x1
 1590 01ab 43030000 		.4byte	.LASF33
 1591 01af 08       		.byte	0x8
 1592 01b0 72       		.byte	0x72
 1593 01b1 19       		.byte	0x19
 1594 01b2 DD000000 		.4byte	0xdd
 1595 01b6 1C       		.byte	0x1c
 1596 01b7 01       		.uleb128 0x1
ARM GAS  /tmp/cc4iwVme.s 			page 29


 1597 01b8 72030000 		.4byte	.LASF34
 1598 01bc 08       		.byte	0x8
 1599 01bd 76       		.byte	0x76
 1600 01be 19       		.byte	0x19
 1601 01bf D1000000 		.4byte	0xd1
 1602 01c3 1D       		.byte	0x1d
 1603 01c4 01       		.uleb128 0x1
 1604 01c5 0F040000 		.4byte	.LASF35
 1605 01c9 08       		.byte	0x8
 1606 01ca 7B       		.byte	0x7b
 1607 01cb 19       		.byte	0x19
 1608 01cc E9000000 		.4byte	0xe9
 1609 01d0 1E       		.byte	0x1e
 1610 01d1 01       		.uleb128 0x1
 1611 01d2 4B030000 		.4byte	.LASF36
 1612 01d6 08       		.byte	0x8
 1613 01d7 81       		.byte	0x81
 1614 01d8 19       		.byte	0x19
 1615 01d9 F5000000 		.4byte	0xf5
 1616 01dd 1F       		.byte	0x1f
 1617 01de 01       		.uleb128 0x1
 1618 01df F0030000 		.4byte	.LASF37
 1619 01e3 08       		.byte	0x8
 1620 01e4 88       		.byte	0x88
 1621 01e5 19       		.byte	0x19
 1622 01e6 31010000 		.4byte	0x131
 1623 01ea 20       		.byte	0x20
 1624 01eb 06       		.uleb128 0x6
 1625 01ec 705F7500 		.ascii	"p_u\000"
 1626 01f0 08       		.byte	0x8
 1627 01f1 AD       		.byte	0xad
 1628 01f2 19       		.byte	0x19
 1629 01f3 FC030000 		.4byte	0x3fc
 1630 01f7 24       		.byte	0x24
 1631 01f8 01       		.uleb128 0x1
 1632 01f9 6F040000 		.4byte	.LASF38
 1633 01fd 08       		.byte	0x8
 1634 01fe B2       		.byte	0xb2
 1635 01ff 19       		.byte	0x19
 1636 0200 91020000 		.4byte	0x291
 1637 0204 28       		.byte	0x28
 1638 0205 01       		.uleb128 0x1
 1639 0206 FE030000 		.4byte	.LASF39
 1640 020a 08       		.byte	0x8
 1641 020b B8       		.byte	0xb8
 1642 020c 19       		.byte	0x19
 1643 020d 6F020000 		.4byte	0x26f
 1644 0211 2C       		.byte	0x2c
 1645 0212 01       		.uleb128 0x1
 1646 0213 0F000000 		.4byte	.LASF40
 1647 0217 08       		.byte	0x8
 1648 0218 BC       		.byte	0xbc
 1649 0219 19       		.byte	0x19
 1650 021a 0D010000 		.4byte	0x10d
 1651 021e 34       		.byte	0x34
 1652 021f 01       		.uleb128 0x1
 1653 0220 81030000 		.4byte	.LASF41
ARM GAS  /tmp/cc4iwVme.s 			page 30


 1654 0224 08       		.byte	0x8
 1655 0225 C2       		.byte	0xc2
 1656 0226 19       		.byte	0x19
 1657 0227 19010000 		.4byte	0x119
 1658 022b 38       		.byte	0x38
 1659 022c 01       		.uleb128 0x1
 1660 022d 2F030000 		.4byte	.LASF42
 1661 0231 08       		.byte	0x8
 1662 0232 C9       		.byte	0xc9
 1663 0233 1A       		.byte	0x1a
 1664 0234 43040000 		.4byte	0x443
 1665 0238 3C       		.byte	0x3c
 1666 0239 01       		.uleb128 0x1
 1667 023a CB030000 		.4byte	.LASF43
 1668 023e 08       		.byte	0x8
 1669 023f CD       		.byte	0xcd
 1670 0240 19       		.byte	0x19
 1671 0241 01010000 		.4byte	0x101
 1672 0245 40       		.byte	0x40
 1673 0246 00       		.byte	0
 1674 0247 15       		.uleb128 0x15
 1675 0248 08       		.byte	0x8
 1676 0249 07       		.byte	0x7
 1677 024a 5A       		.byte	0x5a
 1678 024b 6A020000 		.4byte	0x26a
 1679 024f 01       		.uleb128 0x1
 1680 0250 63030000 		.4byte	.LASF26
 1681 0254 07       		.byte	0x7
 1682 0255 5B       		.byte	0x5b
 1683 0256 1A       		.byte	0x1a
 1684 0257 6A020000 		.4byte	0x26a
 1685 025b 00       		.byte	0
 1686 025c 01       		.uleb128 0x1
 1687 025d 02030000 		.4byte	.LASF27
 1688 0261 07       		.byte	0x7
 1689 0262 5D       		.byte	0x5d
 1690 0263 1A       		.byte	0x1a
 1691 0264 6A020000 		.4byte	0x26a
 1692 0268 04       		.byte	0x4
 1693 0269 00       		.byte	0
 1694 026a 04       		.uleb128 0x4
 1695 026b 36010000 		.4byte	0x136
 1696 026f 02       		.uleb128 0x2
 1697 0270 CC020000 		.4byte	.LASF44
 1698 0274 07       		.byte	0x7
 1699 0275 5F       		.byte	0x5f
 1700 0276 03       		.byte	0x3
 1701 0277 47020000 		.4byte	0x247
 1702 027b 15       		.uleb128 0x15
 1703 027c 04       		.byte	0x4
 1704 027d 07       		.byte	0x7
 1705 027e 64       		.byte	0x64
 1706 027f 91020000 		.4byte	0x291
 1707 0283 01       		.uleb128 0x1
 1708 0284 63030000 		.4byte	.LASF26
 1709 0288 07       		.byte	0x7
 1710 0289 66       		.byte	0x66
ARM GAS  /tmp/cc4iwVme.s 			page 31


 1711 028a 16       		.byte	0x16
 1712 028b 6A020000 		.4byte	0x26a
 1713 028f 00       		.byte	0
 1714 0290 00       		.byte	0
 1715 0291 02       		.uleb128 0x2
 1716 0292 A4010000 		.4byte	.LASF45
 1717 0296 07       		.byte	0x7
 1718 0297 69       		.byte	0x69
 1719 0298 03       		.byte	0x3
 1720 0299 7B020000 		.4byte	0x27b
 1721 029d 02       		.uleb128 0x2
 1722 029e 09010000 		.4byte	.LASF46
 1723 02a2 09       		.byte	0x9
 1724 02a3 A2       		.byte	0xa2
 1725 02a4 0F       		.byte	0xf
 1726 02a5 A9020000 		.4byte	0x2a9
 1727 02a9 2B       		.uleb128 0x2b
 1728 02aa 04       		.byte	0x4
 1729 02ab 0B       		.uleb128 0xb
 1730 02ac F7030000 		.4byte	.LASF47
 1731 02b0 24       		.byte	0x24
 1732 02b1 09       		.byte	0x9
 1733 02b2 B9       		.byte	0xb9
 1734 02b3 08       		.byte	0x8
 1735 02b4 27030000 		.4byte	0x327
 1736 02b8 06       		.uleb128 0x6
 1737 02b9 723400   		.ascii	"r4\000"
 1738 02bc 09       		.byte	0x9
 1739 02bd BA       		.byte	0xba
 1740 02be 11       		.byte	0x11
 1741 02bf 9D020000 		.4byte	0x29d
 1742 02c3 00       		.byte	0
 1743 02c4 06       		.uleb128 0x6
 1744 02c5 723500   		.ascii	"r5\000"
 1745 02c8 09       		.byte	0x9
 1746 02c9 BB       		.byte	0xbb
 1747 02ca 11       		.byte	0x11
 1748 02cb 9D020000 		.4byte	0x29d
 1749 02cf 04       		.byte	0x4
 1750 02d0 06       		.uleb128 0x6
 1751 02d1 723600   		.ascii	"r6\000"
 1752 02d4 09       		.byte	0x9
 1753 02d5 BC       		.byte	0xbc
 1754 02d6 11       		.byte	0x11
 1755 02d7 9D020000 		.4byte	0x29d
 1756 02db 08       		.byte	0x8
 1757 02dc 06       		.uleb128 0x6
 1758 02dd 723700   		.ascii	"r7\000"
 1759 02e0 09       		.byte	0x9
 1760 02e1 BD       		.byte	0xbd
 1761 02e2 11       		.byte	0x11
 1762 02e3 9D020000 		.4byte	0x29d
 1763 02e7 0C       		.byte	0xc
 1764 02e8 06       		.uleb128 0x6
 1765 02e9 723800   		.ascii	"r8\000"
 1766 02ec 09       		.byte	0x9
 1767 02ed BE       		.byte	0xbe
ARM GAS  /tmp/cc4iwVme.s 			page 32


 1768 02ee 11       		.byte	0x11
 1769 02ef 9D020000 		.4byte	0x29d
 1770 02f3 10       		.byte	0x10
 1771 02f4 06       		.uleb128 0x6
 1772 02f5 723900   		.ascii	"r9\000"
 1773 02f8 09       		.byte	0x9
 1774 02f9 BF       		.byte	0xbf
 1775 02fa 11       		.byte	0x11
 1776 02fb 9D020000 		.4byte	0x29d
 1777 02ff 14       		.byte	0x14
 1778 0300 06       		.uleb128 0x6
 1779 0301 72313000 		.ascii	"r10\000"
 1780 0305 09       		.byte	0x9
 1781 0306 C0       		.byte	0xc0
 1782 0307 11       		.byte	0x11
 1783 0308 9D020000 		.4byte	0x29d
 1784 030c 18       		.byte	0x18
 1785 030d 06       		.uleb128 0x6
 1786 030e 72313100 		.ascii	"r11\000"
 1787 0312 09       		.byte	0x9
 1788 0313 C1       		.byte	0xc1
 1789 0314 11       		.byte	0x11
 1790 0315 9D020000 		.4byte	0x29d
 1791 0319 1C       		.byte	0x1c
 1792 031a 06       		.uleb128 0x6
 1793 031b 6C7200   		.ascii	"lr\000"
 1794 031e 09       		.byte	0x9
 1795 031f C2       		.byte	0xc2
 1796 0320 11       		.byte	0x11
 1797 0321 9D020000 		.4byte	0x29d
 1798 0325 20       		.byte	0x20
 1799 0326 00       		.byte	0
 1800 0327 0B       		.uleb128 0xb
 1801 0328 4A010000 		.4byte	.LASF48
 1802 032c 04       		.byte	0x4
 1803 032d 09       		.byte	0x9
 1804 032e CA       		.byte	0xca
 1805 032f 08       		.byte	0x8
 1806 0330 42030000 		.4byte	0x342
 1807 0334 06       		.uleb128 0x6
 1808 0335 72313300 		.ascii	"r13\000"
 1809 0339 09       		.byte	0x9
 1810 033a CB       		.byte	0xcb
 1811 033b 12       		.byte	0x12
 1812 033c 42030000 		.4byte	0x342
 1813 0340 00       		.byte	0
 1814 0341 00       		.byte	0
 1815 0342 04       		.uleb128 0x4
 1816 0343 AB020000 		.4byte	0x2ab
 1817 0347 15       		.uleb128 0x15
 1818 0348 1C       		.byte	0x1c
 1819 0349 0A       		.byte	0xa
 1820 034a 57       		.byte	0x57
 1821 034b 9E030000 		.4byte	0x39e
 1822 034f 01       		.uleb128 0x1
 1823 0350 95030000 		.4byte	.LASF49
 1824 0354 0A       		.byte	0xa
ARM GAS  /tmp/cc4iwVme.s 			page 33


 1825 0355 58       		.byte	0x58
 1826 0356 19       		.byte	0x19
 1827 0357 6F020000 		.4byte	0x26f
 1828 035b 00       		.byte	0
 1829 035c 01       		.uleb128 0x1
 1830 035d 55030000 		.4byte	.LASF50
 1831 0361 0A       		.byte	0xa
 1832 0362 59       		.byte	0x59
 1833 0363 19       		.byte	0x19
 1834 0364 01010000 		.4byte	0x101
 1835 0368 08       		.byte	0x8
 1836 0369 01       		.uleb128 0x1
 1837 036a C6020000 		.4byte	.LASF51
 1838 036e 0A       		.byte	0xa
 1839 036f 5B       		.byte	0x5b
 1840 0370 19       		.byte	0x19
 1841 0371 27030000 		.4byte	0x327
 1842 0375 0C       		.byte	0xc
 1843 0376 01       		.uleb128 0x1
 1844 0377 70010000 		.4byte	.LASF52
 1845 037b 0A       		.byte	0xa
 1846 037c 5E       		.byte	0x5e
 1847 037d 1A       		.byte	0x1a
 1848 037e 6A020000 		.4byte	0x26a
 1849 0382 10       		.byte	0x10
 1850 0383 01       		.uleb128 0x1
 1851 0384 E8020000 		.4byte	.LASF53
 1852 0388 0A       		.byte	0xa
 1853 0389 5F       		.byte	0x5f
 1854 038a 1A       		.byte	0x1a
 1855 038b 6A020000 		.4byte	0x26a
 1856 038f 14       		.byte	0x14
 1857 0390 01       		.uleb128 0x1
 1858 0391 DE020000 		.4byte	.LASF54
 1859 0395 0A       		.byte	0xa
 1860 0396 62       		.byte	0x62
 1861 0397 1A       		.byte	0x1a
 1862 0398 6A020000 		.4byte	0x26a
 1863 039c 18       		.byte	0x18
 1864 039d 00       		.byte	0
 1865 039e 02       		.uleb128 0x2
 1866 039f 16040000 		.4byte	.LASF55
 1867 03a3 0A       		.byte	0xa
 1868 03a4 64       		.byte	0x64
 1869 03a5 03       		.byte	0x3
 1870 03a6 47030000 		.4byte	0x347
 1871 03aa 2C       		.uleb128 0x2c
 1872 03ab 29040000 		.4byte	.LASF80
 1873 03af 0A       		.byte	0xa
 1874 03b0 68       		.byte	0x68
 1875 03b1 12       		.byte	0x12
 1876 03b2 9E030000 		.4byte	0x39e
 1877 03b6 0B       		.uleb128 0xb
 1878 03b7 C7010000 		.4byte	.LASF56
 1879 03bb 10       		.byte	0x10
 1880 03bc 0B       		.byte	0xb
 1881 03bd 25       		.byte	0x25
ARM GAS  /tmp/cc4iwVme.s 			page 34


 1882 03be 10       		.byte	0x10
 1883 03bf EB030000 		.4byte	0x3eb
 1884 03c3 01       		.uleb128 0x1
 1885 03c4 B2000000 		.4byte	.LASF57
 1886 03c8 0B       		.byte	0xb
 1887 03c9 26       		.byte	0x26
 1888 03ca 19       		.byte	0x19
 1889 03cb 6F020000 		.4byte	0x26f
 1890 03cf 00       		.byte	0
 1891 03d0 01       		.uleb128 0x1
 1892 03d1 61040000 		.4byte	.LASF58
 1893 03d5 0B       		.byte	0xb
 1894 03d6 28       		.byte	0x28
 1895 03d7 1A       		.byte	0x1a
 1896 03d8 6A020000 		.4byte	0x26a
 1897 03dc 08       		.byte	0x8
 1898 03dd 01       		.uleb128 0x1
 1899 03de BA030000 		.4byte	.LASF59
 1900 03e2 0B       		.byte	0xb
 1901 03e3 2A       		.byte	0x2a
 1902 03e4 1A       		.byte	0x1a
 1903 03e5 EB030000 		.4byte	0x3eb
 1904 03e9 0C       		.byte	0xc
 1905 03ea 00       		.byte	0
 1906 03eb 04       		.uleb128 0x4
 1907 03ec B6030000 		.4byte	0x3b6
 1908 03f0 02       		.uleb128 0x2
 1909 03f1 C7010000 		.4byte	.LASF56
 1910 03f5 0B       		.byte	0xb
 1911 03f6 2C       		.byte	0x2c
 1912 03f7 03       		.byte	0x3
 1913 03f8 B6030000 		.4byte	0x3b6
 1914 03fc 2D       		.uleb128 0x2d
 1915 03fd 04       		.byte	0x4
 1916 03fe 08       		.byte	0x8
 1917 03ff 8F       		.byte	0x8f
 1918 0400 03       		.byte	0x3
 1919 0401 32040000 		.4byte	0x432
 1920 0405 0C       		.uleb128 0xc
 1921 0406 21000000 		.4byte	.LASF60
 1922 040a 96       		.byte	0x96
 1923 040b 19       		.byte	0x19
 1924 040c 0D010000 		.4byte	0x10d
 1925 0410 0C       		.uleb128 0xc
 1926 0411 77000000 		.4byte	.LASF61
 1927 0415 9D       		.byte	0x9d
 1928 0416 19       		.byte	0x19
 1929 0417 0D010000 		.4byte	0x10d
 1930 041b 0C       		.uleb128 0xc
 1931 041c 37040000 		.4byte	.LASF62
 1932 0420 A4       		.byte	0xa4
 1933 0421 1A       		.byte	0x1a
 1934 0422 A9020000 		.4byte	0x2a9
 1935 0426 0C       		.uleb128 0xc
 1936 0427 5C030000 		.4byte	.LASF63
 1937 042b AB       		.byte	0xab
 1938 042c 19       		.byte	0x19
ARM GAS  /tmp/cc4iwVme.s 			page 35


 1939 042d 19010000 		.4byte	0x119
 1940 0431 00       		.byte	0
 1941 0432 04       		.uleb128 0x4
 1942 0433 3E040000 		.4byte	0x43e
 1943 0437 07       		.uleb128 0x7
 1944 0438 01       		.byte	0x1
 1945 0439 08       		.byte	0x8
 1946 043a A9030000 		.4byte	.LASF64
 1947 043e 1B       		.uleb128 0x1b
 1948 043f 37040000 		.4byte	0x437
 1949 0443 04       		.uleb128 0x4
 1950 0444 F0030000 		.4byte	0x3f0
 1951 0448 02       		.uleb128 0x2
 1952 0449 CD010000 		.4byte	.LASF65
 1953 044d 0C       		.byte	0xc
 1954 044e 30       		.byte	0x30
 1955 044f 1D       		.byte	0x1d
 1956 0450 54040000 		.4byte	0x454
 1957 0454 0B       		.uleb128 0xb
 1958 0455 CD010000 		.4byte	.LASF65
 1959 0459 24       		.byte	0x24
 1960 045a 0C       		.byte	0xc
 1961 045b 3E       		.byte	0x3e
 1962 045c 08       		.byte	0x8
 1963 045d CA040000 		.4byte	0x4ca
 1964 0461 01       		.uleb128 0x1
 1965 0462 87000000 		.4byte	.LASF66
 1966 0466 0C       		.byte	0xc
 1967 0467 3F       		.byte	0x3f
 1968 0468 19       		.byte	0x19
 1969 0469 6F020000 		.4byte	0x26f
 1970 046d 00       		.byte	0
 1971 046e 01       		.uleb128 0x1
 1972 046f 8A020000 		.4byte	.LASF67
 1973 0473 0C       		.byte	0xc
 1974 0474 40       		.byte	0x40
 1975 0475 19       		.byte	0x19
 1976 0476 2D000000 		.4byte	0x2d
 1977 047a 08       		.byte	0x8
 1978 047b 01       		.uleb128 0x1
 1979 047c E5000000 		.4byte	.LASF68
 1980 0480 0C       		.byte	0xc
 1981 0481 41       		.byte	0x41
 1982 0482 1A       		.byte	0x1a
 1983 0483 EB040000 		.4byte	0x4eb
 1984 0487 0C       		.byte	0xc
 1985 0488 01       		.uleb128 0x1
 1986 0489 09040000 		.4byte	.LASF69
 1987 048d 0C       		.byte	0xc
 1988 048e 42       		.byte	0x42
 1989 048f 1A       		.byte	0x1a
 1990 0490 EB040000 		.4byte	0x4eb
 1991 0494 10       		.byte	0x10
 1992 0495 01       		.uleb128 0x1
 1993 0496 EE000000 		.4byte	.LASF70
 1994 049a 0C       		.byte	0xc
 1995 049b 44       		.byte	0x44
ARM GAS  /tmp/cc4iwVme.s 			page 36


 1996 049c 1A       		.byte	0x1a
 1997 049d EB040000 		.4byte	0x4eb
 1998 04a1 14       		.byte	0x14
 1999 04a2 01       		.uleb128 0x1
 2000 04a3 11030000 		.4byte	.LASF71
 2001 04a7 0C       		.byte	0xc
 2002 04a8 45       		.byte	0x45
 2003 04a9 1A       		.byte	0x1a
 2004 04aa EB040000 		.4byte	0x4eb
 2005 04ae 18       		.byte	0x18
 2006 04af 01       		.uleb128 0x1
 2007 04b0 20040000 		.4byte	.LASF72
 2008 04b4 0C       		.byte	0xc
 2009 04b5 46       		.byte	0x46
 2010 04b6 19       		.byte	0x19
 2011 04b7 CA040000 		.4byte	0x4ca
 2012 04bb 1C       		.byte	0x1c
 2013 04bc 01       		.uleb128 0x1
 2014 04bd 5A040000 		.4byte	.LASF73
 2015 04c1 0C       		.byte	0xc
 2016 04c2 47       		.byte	0x47
 2017 04c3 1A       		.byte	0x1a
 2018 04c4 A9020000 		.4byte	0x2a9
 2019 04c8 20       		.byte	0x20
 2020 04c9 00       		.byte	0
 2021 04ca 02       		.uleb128 0x2
 2022 04cb F8020000 		.4byte	.LASF74
 2023 04cf 0C       		.byte	0xc
 2024 04d0 33       		.byte	0x33
 2025 04d1 10       		.byte	0x10
 2026 04d2 D6040000 		.4byte	0x4d6
 2027 04d6 04       		.uleb128 0x4
 2028 04d7 DB040000 		.4byte	0x4db
 2029 04db 2E       		.uleb128 0x2e
 2030 04dc E6040000 		.4byte	0x4e6
 2031 04e0 0D       		.uleb128 0xd
 2032 04e1 E6040000 		.4byte	0x4e6
 2033 04e5 00       		.byte	0
 2034 04e6 04       		.uleb128 0x4
 2035 04e7 48040000 		.4byte	0x448
 2036 04eb 04       		.uleb128 0x4
 2037 04ec 9C000000 		.4byte	0x9c
 2038 04f0 02       		.uleb128 0x2
 2039 04f1 BC010000 		.4byte	.LASF75
 2040 04f5 0C       		.byte	0xc
 2041 04f6 7B       		.byte	0x7b
 2042 04f7 16       		.byte	0x16
 2043 04f8 48040000 		.4byte	0x448
 2044 04fc 02       		.uleb128 0x2
 2045 04fd 31000000 		.4byte	.LASF76
 2046 0501 0C       		.byte	0xc
 2047 0502 EE       		.byte	0xee
 2048 0503 16       		.byte	0x16
 2049 0504 48040000 		.4byte	0x448
 2050 0508 04       		.uleb128 0x4
 2051 0509 A8000000 		.4byte	0xa8
 2052 050d 1C       		.uleb128 0x1c
ARM GAS  /tmp/cc4iwVme.s 			page 37


 2053 050e 45040000 		.4byte	.LASF77
 2054 0512 8F       		.byte	0x8f
 2055 0513 09       		.byte	0x9
 2056 0514 0D010000 		.4byte	0x10d
 2057 0518 27050000 		.4byte	0x527
 2058 051c 0D       		.uleb128 0xd
 2059 051d DD000000 		.4byte	0xdd
 2060 0521 0D       		.uleb128 0xd
 2061 0522 25010000 		.4byte	0x125
 2062 0526 00       		.byte	0
 2063 0527 1C       		.uleb128 0x1c
 2064 0528 9D030000 		.4byte	.LASF78
 2065 052c 89       		.byte	0x89
 2066 052d 0B       		.byte	0xb
 2067 052e 6A020000 		.4byte	0x26a
 2068 0532 3C050000 		.4byte	0x53c
 2069 0536 0D       		.uleb128 0xd
 2070 0537 6A020000 		.4byte	0x26a
 2071 053b 00       		.byte	0
 2072 053c 16       		.uleb128 0x16
 2073 053d DA010000 		.4byte	.LASF81
 2074 0541 8F01     		.2byte	0x18f
 2075 0543 08       		.byte	0x8
 2076 0544 2D000000 		.4byte	0x2d
 2077 0548 00000000 		.4byte	.LFB17
 2078 054c DC000000 		.4byte	.LFE17-.LFB17
 2079 0550 01       		.uleb128 0x1
 2080 0551 9C       		.byte	0x9c
 2081 0552 45060000 		.4byte	0x645
 2082 0556 08       		.uleb128 0x8
 2083 0557 6F717000 		.ascii	"oqp\000"
 2084 055b 8F01     		.2byte	0x18f
 2085 055d 26       		.byte	0x26
 2086 055e 45060000 		.4byte	0x645
 2087 0562 10000000 		.4byte	.LLST50
 2088 0566 0C000000 		.4byte	.LVUS50
 2089 056a 08       		.uleb128 0x8
 2090 056b 627000   		.ascii	"bp\000"
 2091 056e 8F01     		.2byte	0x18f
 2092 0570 3A       		.byte	0x3a
 2093 0571 08050000 		.4byte	0x508
 2094 0575 29000000 		.4byte	.LLST51
 2095 0579 21000000 		.4byte	.LVUS51
 2096 057d 08       		.uleb128 0x8
 2097 057e 6E00     		.ascii	"n\000"
 2098 0580 9001     		.2byte	0x190
 2099 0582 20       		.byte	0x20
 2100 0583 2D000000 		.4byte	0x2d
 2101 0587 4E000000 		.4byte	.LLST52
 2102 058b 46000000 		.4byte	.LVUS52
 2103 058f 17       		.uleb128 0x17
 2104 0590 D9020000 		.4byte	.LASF79
 2105 0594 9001     		.2byte	0x190
 2106 0596 2D       		.byte	0x2d
 2107 0597 25010000 		.4byte	0x125
 2108 059b 70000000 		.4byte	.LLST53
 2109 059f 6C000000 		.4byte	.LVUS53
ARM GAS  /tmp/cc4iwVme.s 			page 38


 2110 05a3 0E       		.uleb128 0xe
 2111 05a4 6E667900 		.ascii	"nfy\000"
 2112 05a8 9101     		.2byte	0x191
 2113 05aa 0D       		.byte	0xd
 2114 05ab CA040000 		.4byte	0x4ca
 2115 05af 83000000 		.4byte	.LLST54
 2116 05b3 81000000 		.4byte	.LVUS54
 2117 05b7 0E       		.uleb128 0xe
 2118 05b8 7700     		.ascii	"w\000"
 2119 05ba 9201     		.2byte	0x192
 2120 05bc 0A       		.byte	0xa
 2121 05bd 2D000000 		.4byte	0x2d
 2122 05c1 91000000 		.4byte	.LLST55
 2123 05c5 8D000000 		.4byte	.LVUS55
 2124 05c9 1D       		.uleb128 0x1d
 2125 05ca 9E0B0000 		.4byte	0xb9e
 2126 05ce 94000000 		.4byte	.LBI91
 2127 05d2 01       		.byte	.LVU439
 2128 05d3 B4000000 		.4byte	.LLRL56
 2129 05d7 9901     		.2byte	0x199
 2130 05d9 0B       		.byte	0xb
 2131 05da 35060000 		.4byte	0x635
 2132 05de 03       		.uleb128 0x3
 2133 05df BA0B0000 		.4byte	0xbba
 2134 05e3 A5000000 		.4byte	.LLST57
 2135 05e7 A3000000 		.4byte	.LVUS57
 2136 05eb 0F       		.uleb128 0xf
 2137 05ec AF0B0000 		.4byte	0xbaf
 2138 05f0 09       		.uleb128 0x9
 2139 05f1 F50B0000 		.4byte	0xbf5
 2140 05f5 AC000000 		.4byte	.LBI93
 2141 05f9 01       		.byte	.LVU448
 2142 05fa C1000000 		.4byte	.LLRL58
 2143 05fe 44       		.byte	0x44
 2144 05ff 03       		.byte	0x3
 2145 0600 1F060000 		.4byte	0x61f
 2146 0604 03       		.uleb128 0x3
 2147 0605 090C0000 		.4byte	0xc09
 2148 0609 B0000000 		.4byte	.LLST59
 2149 060d AE000000 		.4byte	.LVUS59
 2150 0611 03       		.uleb128 0x3
 2151 0612 FE0B0000 		.4byte	0xbfe
 2152 0616 BC000000 		.4byte	.LLST60
 2153 061a BA000000 		.4byte	.LVUS60
 2154 061e 00       		.byte	0
 2155 061f 10       		.uleb128 0x10
 2156 0620 C4000000 		.4byte	.LVL73
 2157 0624 0D050000 		.4byte	0x50d
 2158 0628 05       		.uleb128 0x5
 2159 0629 01       		.uleb128 0x1
 2160 062a 50       		.byte	0x50
 2161 062b 01       		.uleb128 0x1
 2162 062c 3D       		.byte	0x3d
 2163 062d 05       		.uleb128 0x5
 2164 062e 01       		.uleb128 0x1
 2165 062f 51       		.byte	0x51
 2166 0630 02       		.uleb128 0x2
ARM GAS  /tmp/cc4iwVme.s 			page 39


 2167 0631 79       		.byte	0x79
 2168 0632 00       		.sleb128 0
 2169 0633 00       		.byte	0
 2170 0634 00       		.byte	0
 2171 0635 1E       		.uleb128 0x1e
 2172 0636 70000000 		.4byte	.LVL66
 2173 063a 02       		.uleb128 0x2
 2174 063b 78       		.byte	0x78
 2175 063c 00       		.sleb128 0
 2176 063d 05       		.uleb128 0x5
 2177 063e 01       		.uleb128 0x1
 2178 063f 50       		.byte	0x50
 2179 0640 02       		.uleb128 0x2
 2180 0641 74       		.byte	0x74
 2181 0642 00       		.sleb128 0
 2182 0643 00       		.byte	0
 2183 0644 00       		.byte	0
 2184 0645 04       		.uleb128 0x4
 2185 0646 FC040000 		.4byte	0x4fc
 2186 064a 16       		.uleb128 0x16
 2187 064b DC000000 		.4byte	.LASF82
 2188 064f 6401     		.2byte	0x164
 2189 0651 07       		.byte	0x7
 2190 0652 0D010000 		.4byte	0x10d
 2191 0656 00000000 		.4byte	.LFB16
 2192 065a 78000000 		.4byte	.LFE16-.LFB16
 2193 065e 01       		.uleb128 0x1
 2194 065f 9C       		.byte	0x9c
 2195 0660 C9060000 		.4byte	0x6c9
 2196 0664 08       		.uleb128 0x8
 2197 0665 6F717000 		.ascii	"oqp\000"
 2198 0669 6401     		.2byte	0x164
 2199 066b 1D       		.byte	0x1d
 2200 066c 45060000 		.4byte	0x645
 2201 0670 CD000000 		.4byte	.LLST46
 2202 0674 C5000000 		.4byte	.LVUS46
 2203 0678 0E       		.uleb128 0xe
 2204 0679 6200     		.ascii	"b\000"
 2205 067b 6501     		.2byte	0x165
 2206 067d 0B       		.byte	0xb
 2207 067e 9C000000 		.4byte	0x9c
 2208 0682 EC000000 		.4byte	.LLST47
 2209 0686 EA000000 		.4byte	.LVUS47
 2210 068a 2F       		.uleb128 0x2f
 2211 068b C70B0000 		.4byte	0xbc7
 2212 068f 48000000 		.4byte	.LBI85
 2213 0693 01       		.byte	.LVU371
 2214 0694 48000000 		.4byte	.LBB85
 2215 0698 0C000000 		.4byte	.LBE85-.LBB85
 2216 069c 01       		.byte	0x1
 2217 069d 7201     		.2byte	0x172
 2218 069f 05       		.byte	0x5
 2219 06a0 BF060000 		.4byte	0x6bf
 2220 06a4 03       		.uleb128 0x3
 2221 06a5 D80B0000 		.4byte	0xbd8
 2222 06a9 F7000000 		.4byte	.LLST48
 2223 06ad F5000000 		.4byte	.LVUS48
ARM GAS  /tmp/cc4iwVme.s 			page 40


 2224 06b1 11       		.uleb128 0x11
 2225 06b2 E40B0000 		.4byte	0xbe4
 2226 06b6 02010000 		.4byte	.LLST49
 2227 06ba 00010000 		.4byte	.LVUS49
 2228 06be 00       		.byte	0
 2229 06bf 12       		.uleb128 0x12
 2230 06c0 58000000 		.4byte	.LVL59
 2231 06c4 27050000 		.4byte	0x527
 2232 06c8 00       		.byte	0
 2233 06c9 16       		.uleb128 0x16
 2234 06ca 00000000 		.4byte	.LASF83
 2235 06ce 4201     		.2byte	0x142
 2236 06d0 07       		.byte	0x7
 2237 06d1 0D010000 		.4byte	0x10d
 2238 06d5 00000000 		.4byte	.LFB15
 2239 06d9 B8000000 		.4byte	.LFE15-.LFB15
 2240 06dd 01       		.uleb128 0x1
 2241 06de 9C       		.byte	0x9c
 2242 06df B1070000 		.4byte	0x7b1
 2243 06e3 08       		.uleb128 0x8
 2244 06e4 6F717000 		.ascii	"oqp\000"
 2245 06e8 4201     		.2byte	0x142
 2246 06ea 23       		.byte	0x23
 2247 06eb 45060000 		.4byte	0x645
 2248 06ef 0F010000 		.4byte	.LLST36
 2249 06f3 0B010000 		.4byte	.LVUS36
 2250 06f7 08       		.uleb128 0x8
 2251 06f8 6200     		.ascii	"b\000"
 2252 06fa 4201     		.2byte	0x142
 2253 06fc 30       		.byte	0x30
 2254 06fd 9C000000 		.4byte	0x9c
 2255 0701 24010000 		.4byte	.LLST37
 2256 0705 20010000 		.4byte	.LVUS37
 2257 0709 17       		.uleb128 0x17
 2258 070a D9020000 		.4byte	.LASF79
 2259 070e 4201     		.2byte	0x142
 2260 0710 3D       		.byte	0x3d
 2261 0711 25010000 		.4byte	0x125
 2262 0715 3C010000 		.4byte	.LLST38
 2263 0719 38010000 		.4byte	.LVUS38
 2264 071d 1F       		.uleb128 0x1f
 2265 071e 7D000000 		.4byte	.LLRL39
 2266 0722 A4070000 		.4byte	0x7a4
 2267 0726 0E       		.uleb128 0xe
 2268 0727 6D736700 		.ascii	"msg\000"
 2269 072b 4601     		.2byte	0x146
 2270 072d 0B       		.byte	0xb
 2271 072e 0D010000 		.4byte	0x10d
 2272 0732 4F010000 		.4byte	.LLST40
 2273 0736 4D010000 		.4byte	.LVUS40
 2274 073a 30       		.uleb128 0x30
 2275 073b 9E0B0000 		.4byte	0xb9e
 2276 073f 50000000 		.4byte	.LBI67
 2277 0743 02       		.byte	.LVU311
 2278 0744 8E000000 		.4byte	.LLRL41
 2279 0748 01       		.byte	0x1
 2280 0749 4801     		.2byte	0x148
ARM GAS  /tmp/cc4iwVme.s 			page 41


 2281 074b 10       		.byte	0x10
 2282 074c 03       		.uleb128 0x3
 2283 074d BA0B0000 		.4byte	0xbba
 2284 0751 5C010000 		.4byte	.LLST42
 2285 0755 58010000 		.4byte	.LVUS42
 2286 0759 0F       		.uleb128 0xf
 2287 075a AF0B0000 		.4byte	0xbaf
 2288 075e 09       		.uleb128 0x9
 2289 075f F50B0000 		.4byte	0xbf5
 2290 0763 38000000 		.4byte	.LBI69
 2291 0767 01       		.byte	.LVU297
 2292 0768 A2000000 		.4byte	.LLRL43
 2293 076c 44       		.byte	0x44
 2294 076d 03       		.byte	0x3
 2295 076e 8D070000 		.4byte	0x78d
 2296 0772 03       		.uleb128 0x3
 2297 0773 090C0000 		.4byte	0xc09
 2298 0777 6F010000 		.4byte	.LLST44
 2299 077b 6D010000 		.4byte	.LVUS44
 2300 077f 03       		.uleb128 0x3
 2301 0780 FE0B0000 		.4byte	0xbfe
 2302 0784 7B010000 		.4byte	.LLST45
 2303 0788 79010000 		.4byte	.LVUS45
 2304 078c 00       		.byte	0
 2305 078d 10       		.uleb128 0x10
 2306 078e 48000000 		.4byte	.LVL50
 2307 0792 0D050000 		.4byte	0x50d
 2308 0796 05       		.uleb128 0x5
 2309 0797 01       		.uleb128 0x1
 2310 0798 50       		.byte	0x50
 2311 0799 01       		.uleb128 0x1
 2312 079a 3D       		.byte	0x3d
 2313 079b 05       		.uleb128 0x5
 2314 079c 01       		.uleb128 0x1
 2315 079d 51       		.byte	0x51
 2316 079e 02       		.uleb128 0x2
 2317 079f 75       		.byte	0x75
 2318 07a0 00       		.sleb128 0
 2319 07a1 00       		.byte	0
 2320 07a2 00       		.byte	0
 2321 07a3 00       		.byte	0
 2322 07a4 20       		.uleb128 0x20
 2323 07a5 9C000000 		.4byte	.LVL52
 2324 07a9 05       		.uleb128 0x5
 2325 07aa 01       		.uleb128 0x1
 2326 07ab 50       		.byte	0x50
 2327 07ac 02       		.uleb128 0x2
 2328 07ad 74       		.byte	0x74
 2329 07ae 00       		.sleb128 0
 2330 07af 00       		.byte	0
 2331 07b0 00       		.byte	0
 2332 07b1 21       		.uleb128 0x21
 2333 07b2 E5030000 		.4byte	.LASF84
 2334 07b6 2201     		.2byte	0x122
 2335 07b8 00000000 		.4byte	.LFB14
 2336 07bc 58000000 		.4byte	.LFE14-.LFB14
 2337 07c0 01       		.uleb128 0x1
ARM GAS  /tmp/cc4iwVme.s 			page 42


 2338 07c1 9C       		.byte	0x9c
 2339 07c2 1A080000 		.4byte	0x81a
 2340 07c6 08       		.uleb128 0x8
 2341 07c7 6F717000 		.ascii	"oqp\000"
 2342 07cb 2201     		.2byte	0x122
 2343 07cd 1E       		.byte	0x1e
 2344 07ce 45060000 		.4byte	0x645
 2345 07d2 88010000 		.4byte	.LLST32
 2346 07d6 84010000 		.4byte	.LVUS32
 2347 07da 1D       		.uleb128 0x1d
 2348 07db C70B0000 		.4byte	0xbc7
 2349 07df 30000000 		.4byte	.LBI57
 2350 07e3 01       		.byte	.LVU267
 2351 07e4 71000000 		.4byte	.LLRL33
 2352 07e8 2901     		.2byte	0x129
 2353 07ea 05       		.byte	0x5
 2354 07eb 10080000 		.4byte	0x810
 2355 07ef 03       		.uleb128 0x3
 2356 07f0 D80B0000 		.4byte	0xbd8
 2357 07f4 9A010000 		.4byte	.LLST34
 2358 07f8 98010000 		.4byte	.LVUS34
 2359 07fc 18       		.uleb128 0x18
 2360 07fd 71000000 		.4byte	.LLRL33
 2361 0801 11       		.uleb128 0x11
 2362 0802 E40B0000 		.4byte	0xbe4
 2363 0806 A5010000 		.4byte	.LLST35
 2364 080a A3010000 		.4byte	.LVUS35
 2365 080e 00       		.byte	0
 2366 080f 00       		.byte	0
 2367 0810 12       		.uleb128 0x12
 2368 0811 44000000 		.4byte	.LVL45
 2369 0815 27050000 		.4byte	0x527
 2370 0819 00       		.byte	0
 2371 081a 21       		.uleb128 0x21
 2372 081b 6E000000 		.4byte	.LASF85
 2373 081f 0C01     		.2byte	0x10c
 2374 0821 00000000 		.4byte	.LFB13
 2375 0825 30000000 		.4byte	.LFE13-.LFB13
 2376 0829 01       		.uleb128 0x1
 2377 082a 9C       		.byte	0x9c
 2378 082b 78080000 		.4byte	0x878
 2379 082f 22       		.uleb128 0x22
 2380 0830 6F717000 		.ascii	"oqp\000"
 2381 0834 1C       		.byte	0x1c
 2382 0835 45060000 		.4byte	0x645
 2383 0839 01       		.uleb128 0x1
 2384 083a 50       		.byte	0x50
 2385 083b 22       		.uleb128 0x22
 2386 083c 627000   		.ascii	"bp\000"
 2387 083f 2A       		.byte	0x2a
 2388 0840 EB040000 		.4byte	0x4eb
 2389 0844 01       		.uleb128 0x1
 2390 0845 51       		.byte	0x51
 2391 0846 17       		.uleb128 0x17
 2392 0847 52010000 		.4byte	.LASF86
 2393 084b 0C01     		.2byte	0x10c
 2394 084d 35       		.byte	0x35
ARM GAS  /tmp/cc4iwVme.s 			page 43


 2395 084e 2D000000 		.4byte	0x2d
 2396 0852 B2010000 		.4byte	.LLST31
 2397 0856 AE010000 		.4byte	.LVUS31
 2398 085a 23       		.uleb128 0x23
 2399 085b 15000000 		.4byte	.LASF87
 2400 085f 0C01     		.2byte	0x10c
 2401 0861 45       		.byte	0x45
 2402 0862 CA040000 		.4byte	0x4ca
 2403 0866 01       		.uleb128 0x1
 2404 0867 53       		.byte	0x53
 2405 0868 23       		.uleb128 0x23
 2406 0869 12010000 		.4byte	.LASF88
 2407 086d 0D01     		.2byte	0x10d
 2408 086f 15       		.byte	0x15
 2409 0870 A9020000 		.4byte	0x2a9
 2410 0874 02       		.uleb128 0x2
 2411 0875 91       		.byte	0x91
 2412 0876 00       		.sleb128 0
 2413 0877 00       		.byte	0
 2414 0878 19       		.uleb128 0x19
 2415 0879 47000000 		.4byte	.LASF89
 2416 087d DB       		.byte	0xdb
 2417 087e 08       		.byte	0x8
 2418 087f 2D000000 		.4byte	0x2d
 2419 0883 00000000 		.4byte	.LFB12
 2420 0887 D0000000 		.4byte	.LFE12-.LFB12
 2421 088b 01       		.uleb128 0x1
 2422 088c 9C       		.byte	0x9c
 2423 088d 79090000 		.4byte	0x979
 2424 0891 0A       		.uleb128 0xa
 2425 0892 69717000 		.ascii	"iqp\000"
 2426 0896 DB       		.byte	0xdb
 2427 0897 24       		.byte	0x24
 2428 0898 79090000 		.4byte	0x979
 2429 089c C7010000 		.4byte	.LLST20
 2430 08a0 C3010000 		.4byte	.LVUS20
 2431 08a4 0A       		.uleb128 0xa
 2432 08a5 627000   		.ascii	"bp\000"
 2433 08a8 DB       		.byte	0xdb
 2434 08a9 32       		.byte	0x32
 2435 08aa EB040000 		.4byte	0x4eb
 2436 08ae E0010000 		.4byte	.LLST21
 2437 08b2 D8010000 		.4byte	.LVUS21
 2438 08b6 0A       		.uleb128 0xa
 2439 08b7 6E00     		.ascii	"n\000"
 2440 08b9 DC       		.byte	0xdc
 2441 08ba 1F       		.byte	0x1f
 2442 08bb 2D000000 		.4byte	0x2d
 2443 08bf 05020000 		.4byte	.LLST22
 2444 08c3 01020000 		.4byte	.LVUS22
 2445 08c7 1A       		.uleb128 0x1a
 2446 08c8 D9020000 		.4byte	.LASF79
 2447 08cc DC       		.byte	0xdc
 2448 08cd 2C       		.byte	0x2c
 2449 08ce 25010000 		.4byte	0x125
 2450 08d2 20020000 		.4byte	.LLST23
 2451 08d6 1C020000 		.4byte	.LVUS23
ARM GAS  /tmp/cc4iwVme.s 			page 44


 2452 08da 13       		.uleb128 0x13
 2453 08db 6E667900 		.ascii	"nfy\000"
 2454 08df DD       		.byte	0xdd
 2455 08e0 0D       		.byte	0xd
 2456 08e1 CA040000 		.4byte	0x4ca
 2457 08e5 33020000 		.4byte	.LLST24
 2458 08e9 31020000 		.4byte	.LVUS24
 2459 08ed 13       		.uleb128 0x13
 2460 08ee 7200     		.ascii	"r\000"
 2461 08f0 DE       		.byte	0xde
 2462 08f1 0A       		.byte	0xa
 2463 08f2 2D000000 		.4byte	0x2d
 2464 08f6 41020000 		.4byte	.LLST25
 2465 08fa 3D020000 		.4byte	.LVUS25
 2466 08fe 09       		.uleb128 0x9
 2467 08ff 9E0B0000 		.4byte	0xb9e
 2468 0903 6C000000 		.4byte	.LBI43
 2469 0907 01       		.byte	.LVU198
 2470 0908 50000000 		.4byte	.LLRL26
 2471 090c E8       		.byte	0xe8
 2472 090d 0B       		.byte	0xb
 2473 090e 69090000 		.4byte	0x969
 2474 0912 03       		.uleb128 0x3
 2475 0913 BA0B0000 		.4byte	0xbba
 2476 0917 57020000 		.4byte	.LLST27
 2477 091b 53020000 		.4byte	.LVUS27
 2478 091f 0F       		.uleb128 0xf
 2479 0920 AF0B0000 		.4byte	0xbaf
 2480 0924 09       		.uleb128 0x9
 2481 0925 F50B0000 		.4byte	0xbf5
 2482 0929 54000000 		.4byte	.LBI45
 2483 092d 01       		.byte	.LVU186
 2484 092e 5F000000 		.4byte	.LLRL28
 2485 0932 44       		.byte	0x44
 2486 0933 03       		.byte	0x3
 2487 0934 53090000 		.4byte	0x953
 2488 0938 03       		.uleb128 0x3
 2489 0939 090C0000 		.4byte	0xc09
 2490 093d 6A020000 		.4byte	.LLST29
 2491 0941 68020000 		.4byte	.LVUS29
 2492 0945 03       		.uleb128 0x3
 2493 0946 FE0B0000 		.4byte	0xbfe
 2494 094a 76020000 		.4byte	.LLST30
 2495 094e 74020000 		.4byte	.LVUS30
 2496 0952 00       		.byte	0
 2497 0953 10       		.uleb128 0x10
 2498 0954 64000000 		.4byte	.LVL34
 2499 0958 0D050000 		.4byte	0x50d
 2500 095c 05       		.uleb128 0x5
 2501 095d 01       		.uleb128 0x1
 2502 095e 50       		.byte	0x50
 2503 095f 01       		.uleb128 0x1
 2504 0960 3D       		.byte	0x3d
 2505 0961 05       		.uleb128 0x5
 2506 0962 01       		.uleb128 0x1
 2507 0963 51       		.byte	0x51
 2508 0964 02       		.uleb128 0x2
ARM GAS  /tmp/cc4iwVme.s 			page 45


 2509 0965 7A       		.byte	0x7a
 2510 0966 00       		.sleb128 0
 2511 0967 00       		.byte	0
 2512 0968 00       		.byte	0
 2513 0969 1E       		.uleb128 0x1e
 2514 096a 34000000 		.4byte	.LVL30
 2515 096e 02       		.uleb128 0x2
 2516 096f 78       		.byte	0x78
 2517 0970 00       		.sleb128 0
 2518 0971 05       		.uleb128 0x5
 2519 0972 01       		.uleb128 0x1
 2520 0973 50       		.byte	0x50
 2521 0974 02       		.uleb128 0x2
 2522 0975 74       		.byte	0x74
 2523 0976 00       		.sleb128 0
 2524 0977 00       		.byte	0
 2525 0978 00       		.byte	0
 2526 0979 04       		.uleb128 0x4
 2527 097a F0040000 		.4byte	0x4f0
 2528 097e 19       		.uleb128 0x19
 2529 097f 79040000 		.4byte	.LASF90
 2530 0983 AB       		.byte	0xab
 2531 0984 07       		.byte	0x7
 2532 0985 0D010000 		.4byte	0x10d
 2533 0989 00000000 		.4byte	.LFB11
 2534 098d AC000000 		.4byte	.LFE11-.LFB11
 2535 0991 01       		.uleb128 0x1
 2536 0992 9C       		.byte	0x9c
 2537 0993 600A0000 		.4byte	0xa60
 2538 0997 0A       		.uleb128 0xa
 2539 0998 69717000 		.ascii	"iqp\000"
 2540 099c AB       		.byte	0xab
 2541 099d 22       		.byte	0x22
 2542 099e 79090000 		.4byte	0x979
 2543 09a2 83020000 		.4byte	.LLST10
 2544 09a6 7F020000 		.4byte	.LVUS10
 2545 09aa 1A       		.uleb128 0x1a
 2546 09ab D9020000 		.4byte	.LASF79
 2547 09af AB       		.byte	0xab
 2548 09b0 31       		.byte	0x31
 2549 09b1 25010000 		.4byte	0x125
 2550 09b5 98020000 		.4byte	.LLST11
 2551 09b9 94020000 		.4byte	.LVUS11
 2552 09bd 13       		.uleb128 0x13
 2553 09be 6200     		.ascii	"b\000"
 2554 09c0 AC       		.byte	0xac
 2555 09c1 0B       		.byte	0xb
 2556 09c2 9C000000 		.4byte	0x9c
 2557 09c6 AB020000 		.4byte	.LLST12
 2558 09ca A9020000 		.4byte	.LVUS12
 2559 09ce 1F       		.uleb128 0x1f
 2560 09cf 24000000 		.4byte	.LLRL13
 2561 09d3 530A0000 		.4byte	0xa53
 2562 09d7 13       		.uleb128 0x13
 2563 09d8 6D736700 		.ascii	"msg\000"
 2564 09dc B3       		.byte	0xb3
 2565 09dd 0B       		.byte	0xb
ARM GAS  /tmp/cc4iwVme.s 			page 46


 2566 09de 0D010000 		.4byte	0x10d
 2567 09e2 B6020000 		.4byte	.LLST14
 2568 09e6 B4020000 		.4byte	.LVUS14
 2569 09ea 31       		.uleb128 0x31
 2570 09eb 9E0B0000 		.4byte	0xb9e
 2571 09ef 60000000 		.4byte	.LBI26
 2572 09f3 02       		.byte	.LVU130
 2573 09f4 31000000 		.4byte	.LLRL15
 2574 09f8 01       		.byte	0x1
 2575 09f9 B4       		.byte	0xb4
 2576 09fa 10       		.byte	0x10
 2577 09fb 03       		.uleb128 0x3
 2578 09fc BA0B0000 		.4byte	0xbba
 2579 0a00 C5020000 		.4byte	.LLST16
 2580 0a04 BF020000 		.4byte	.LVUS16
 2581 0a08 0F       		.uleb128 0xf
 2582 0a09 AF0B0000 		.4byte	0xbaf
 2583 0a0d 09       		.uleb128 0x9
 2584 0a0e F50B0000 		.4byte	0xbf5
 2585 0a12 40000000 		.4byte	.LBI28
 2586 0a16 01       		.byte	.LVU113
 2587 0a17 41000000 		.4byte	.LLRL17
 2588 0a1b 44       		.byte	0x44
 2589 0a1c 03       		.byte	0x3
 2590 0a1d 3C0A0000 		.4byte	0xa3c
 2591 0a21 03       		.uleb128 0x3
 2592 0a22 090C0000 		.4byte	0xc09
 2593 0a26 DC020000 		.4byte	.LLST18
 2594 0a2a DA020000 		.4byte	.LVUS18
 2595 0a2e 03       		.uleb128 0x3
 2596 0a2f FE0B0000 		.4byte	0xbfe
 2597 0a33 E8020000 		.4byte	.LLST19
 2598 0a37 E6020000 		.4byte	.LVUS19
 2599 0a3b 00       		.byte	0
 2600 0a3c 10       		.uleb128 0x10
 2601 0a3d 58000000 		.4byte	.LVL21
 2602 0a41 0D050000 		.4byte	0x50d
 2603 0a45 05       		.uleb128 0x5
 2604 0a46 01       		.uleb128 0x1
 2605 0a47 50       		.byte	0x50
 2606 0a48 01       		.uleb128 0x1
 2607 0a49 3D       		.byte	0x3d
 2608 0a4a 05       		.uleb128 0x5
 2609 0a4b 01       		.uleb128 0x1
 2610 0a4c 51       		.byte	0x51
 2611 0a4d 02       		.uleb128 0x2
 2612 0a4e 75       		.byte	0x75
 2613 0a4f 00       		.sleb128 0
 2614 0a50 00       		.byte	0
 2615 0a51 00       		.byte	0
 2616 0a52 00       		.byte	0
 2617 0a53 20       		.uleb128 0x20
 2618 0a54 20000000 		.4byte	.LVL17
 2619 0a58 05       		.uleb128 0x5
 2620 0a59 01       		.uleb128 0x1
 2621 0a5a 50       		.byte	0x50
 2622 0a5b 02       		.uleb128 0x2
ARM GAS  /tmp/cc4iwVme.s 			page 47


 2623 0a5c 74       		.byte	0x74
 2624 0a5d 00       		.sleb128 0
 2625 0a5e 00       		.byte	0
 2626 0a5f 00       		.byte	0
 2627 0a60 19       		.uleb128 0x19
 2628 0a61 17010000 		.4byte	.LASF91
 2629 0a65 85       		.byte	0x85
 2630 0a66 07       		.byte	0x7
 2631 0a67 0D010000 		.4byte	0x10d
 2632 0a6b 00000000 		.4byte	.LFB10
 2633 0a6f 8C000000 		.4byte	.LFE10-.LFB10
 2634 0a73 01       		.uleb128 0x1
 2635 0a74 9C       		.byte	0x9c
 2636 0a75 DC0A0000 		.4byte	0xadc
 2637 0a79 0A       		.uleb128 0xa
 2638 0a7a 69717000 		.ascii	"iqp\000"
 2639 0a7e 85       		.byte	0x85
 2640 0a7f 1C       		.byte	0x1c
 2641 0a80 79090000 		.4byte	0x979
 2642 0a84 F9020000 		.4byte	.LLST5
 2643 0a88 F1020000 		.4byte	.LVUS5
 2644 0a8c 0A       		.uleb128 0xa
 2645 0a8d 6200     		.ascii	"b\000"
 2646 0a8f 85       		.byte	0x85
 2647 0a90 29       		.byte	0x29
 2648 0a91 9C000000 		.4byte	0x9c
 2649 0a95 21030000 		.4byte	.LLST6
 2650 0a99 17030000 		.4byte	.LVUS6
 2651 0a9d 09       		.uleb128 0x9
 2652 0a9e C70B0000 		.4byte	0xbc7
 2653 0aa2 4C000000 		.4byte	.LBI16
 2654 0aa6 01       		.byte	.LVU75
 2655 0aa7 18000000 		.4byte	.LLRL7
 2656 0aab 92       		.byte	0x92
 2657 0aac 05       		.byte	0x5
 2658 0aad D20A0000 		.4byte	0xad2
 2659 0ab1 03       		.uleb128 0x3
 2660 0ab2 D80B0000 		.4byte	0xbd8
 2661 0ab6 48030000 		.4byte	.LLST8
 2662 0aba 46030000 		.4byte	.LVUS8
 2663 0abe 18       		.uleb128 0x18
 2664 0abf 18000000 		.4byte	.LLRL7
 2665 0ac3 11       		.uleb128 0x11
 2666 0ac4 E40B0000 		.4byte	0xbe4
 2667 0ac8 53030000 		.4byte	.LLST9
 2668 0acc 51030000 		.4byte	.LVUS9
 2669 0ad0 00       		.byte	0
 2670 0ad1 00       		.byte	0
 2671 0ad2 12       		.uleb128 0x12
 2672 0ad3 60000000 		.4byte	.LVL13
 2673 0ad7 27050000 		.4byte	0x527
 2674 0adb 00       		.byte	0
 2675 0adc 24       		.uleb128 0x24
 2676 0add 2D010000 		.4byte	.LASF92
 2677 0ae1 6E       		.byte	0x6e
 2678 0ae2 00000000 		.4byte	.LFB9
 2679 0ae6 54000000 		.4byte	.LFE9-.LFB9
ARM GAS  /tmp/cc4iwVme.s 			page 48


 2680 0aea 01       		.uleb128 0x1
 2681 0aeb 9C       		.byte	0x9c
 2682 0aec 420B0000 		.4byte	0xb42
 2683 0af0 0A       		.uleb128 0xa
 2684 0af1 69717000 		.ascii	"iqp\000"
 2685 0af5 6E       		.byte	0x6e
 2686 0af6 1D       		.byte	0x1d
 2687 0af7 79090000 		.4byte	0x979
 2688 0afb 60030000 		.4byte	.LLST1
 2689 0aff 5C030000 		.4byte	.LVUS1
 2690 0b03 09       		.uleb128 0x9
 2691 0b04 C70B0000 		.4byte	0xbc7
 2692 0b08 2C000000 		.4byte	.LBI12
 2693 0b0c 01       		.byte	.LVU38
 2694 0b0d 0C000000 		.4byte	.LLRL2
 2695 0b11 75       		.byte	0x75
 2696 0b12 05       		.byte	0x5
 2697 0b13 380B0000 		.4byte	0xb38
 2698 0b17 03       		.uleb128 0x3
 2699 0b18 D80B0000 		.4byte	0xbd8
 2700 0b1c 72030000 		.4byte	.LLST3
 2701 0b20 70030000 		.4byte	.LVUS3
 2702 0b24 18       		.uleb128 0x18
 2703 0b25 0C000000 		.4byte	.LLRL2
 2704 0b29 11       		.uleb128 0x11
 2705 0b2a E40B0000 		.4byte	0xbe4
 2706 0b2e 7D030000 		.4byte	.LLST4
 2707 0b32 7B030000 		.4byte	.LVUS4
 2708 0b36 00       		.byte	0
 2709 0b37 00       		.byte	0
 2710 0b38 12       		.uleb128 0x12
 2711 0b39 40000000 		.4byte	.LVL5
 2712 0b3d 27050000 		.4byte	0x527
 2713 0b41 00       		.byte	0
 2714 0b42 24       		.uleb128 0x24
 2715 0b43 28000000 		.4byte	.LASF93
 2716 0b47 58       		.byte	0x58
 2717 0b48 00000000 		.4byte	.LFB8
 2718 0b4c 38000000 		.4byte	.LFE8-.LFB8
 2719 0b50 01       		.uleb128 0x1
 2720 0b51 9C       		.byte	0x9c
 2721 0b52 9E0B0000 		.4byte	0xb9e
 2722 0b56 25       		.uleb128 0x25
 2723 0b57 69717000 		.ascii	"iqp\000"
 2724 0b5b 58       		.byte	0x58
 2725 0b5c 1B       		.byte	0x1b
 2726 0b5d 79090000 		.4byte	0x979
 2727 0b61 01       		.uleb128 0x1
 2728 0b62 50       		.byte	0x50
 2729 0b63 25       		.uleb128 0x25
 2730 0b64 627000   		.ascii	"bp\000"
 2731 0b67 58       		.byte	0x58
 2732 0b68 29       		.byte	0x29
 2733 0b69 EB040000 		.4byte	0x4eb
 2734 0b6d 01       		.uleb128 0x1
 2735 0b6e 51       		.byte	0x51
 2736 0b6f 1A       		.uleb128 0x1a
ARM GAS  /tmp/cc4iwVme.s 			page 49


 2737 0b70 52010000 		.4byte	.LASF86
 2738 0b74 58       		.byte	0x58
 2739 0b75 34       		.byte	0x34
 2740 0b76 2D000000 		.4byte	0x2d
 2741 0b7a 8A030000 		.4byte	.LLST0
 2742 0b7e 86030000 		.4byte	.LVUS0
 2743 0b82 26       		.uleb128 0x26
 2744 0b83 E0030000 		.4byte	.LASF94
 2745 0b87 58       		.byte	0x58
 2746 0b88 44       		.byte	0x44
 2747 0b89 CA040000 		.4byte	0x4ca
 2748 0b8d 01       		.uleb128 0x1
 2749 0b8e 53       		.byte	0x53
 2750 0b8f 26       		.uleb128 0x26
 2751 0b90 12010000 		.4byte	.LASF88
 2752 0b94 59       		.byte	0x59
 2753 0b95 15       		.byte	0x15
 2754 0b96 A9020000 		.4byte	0x2a9
 2755 0b9a 02       		.uleb128 0x2
 2756 0b9b 91       		.byte	0x91
 2757 0b9c 00       		.sleb128 0
 2758 0b9d 00       		.byte	0
 2759 0b9e 27       		.uleb128 0x27
 2760 0b9f C4000000 		.4byte	.LASF95
 2761 0ba3 01       		.byte	0x1
 2762 0ba4 3F       		.byte	0x3f
 2763 0ba5 0E       		.byte	0xe
 2764 0ba6 0D010000 		.4byte	0x10d
 2765 0baa 01       		.byte	0x1
 2766 0bab C70B0000 		.4byte	0xbc7
 2767 0baf 14       		.uleb128 0x14
 2768 0bb0 717000   		.ascii	"qp\000"
 2769 0bb3 01       		.byte	0x1
 2770 0bb4 3F       		.byte	0x3f
 2771 0bb5 22       		.byte	0x22
 2772 0bb6 E6040000 		.4byte	0x4e6
 2773 0bba 32       		.uleb128 0x32
 2774 0bbb D9020000 		.4byte	.LASF79
 2775 0bbf 01       		.byte	0x1
 2776 0bc0 3F       		.byte	0x3f
 2777 0bc1 30       		.byte	0x30
 2778 0bc2 25010000 		.4byte	0x125
 2779 0bc6 00       		.byte	0
 2780 0bc7 27       		.uleb128 0x27
 2781 0bc8 AE030000 		.4byte	.LASF96
 2782 0bcc 02       		.byte	0x2
 2783 0bcd 34       		.byte	0x34
 2784 0bce 17       		.byte	0x17
 2785 0bcf 6A020000 		.4byte	0x26a
 2786 0bd3 03       		.byte	0x3
 2787 0bd4 F00B0000 		.4byte	0xbf0
 2788 0bd8 14       		.uleb128 0x14
 2789 0bd9 74717000 		.ascii	"tqp\000"
 2790 0bdd 02       		.byte	0x2
 2791 0bde 34       		.byte	0x34
 2792 0bdf 31       		.byte	0x31
 2793 0be0 F00B0000 		.4byte	0xbf0
ARM GAS  /tmp/cc4iwVme.s 			page 50


 2794 0be4 33       		.uleb128 0x33
 2795 0be5 747000   		.ascii	"tp\000"
 2796 0be8 02       		.byte	0x2
 2797 0be9 35       		.byte	0x35
 2798 0bea 0B       		.byte	0xb
 2799 0beb 6A020000 		.4byte	0x26a
 2800 0bef 00       		.byte	0
 2801 0bf0 04       		.uleb128 0x4
 2802 0bf1 6F020000 		.4byte	0x26f
 2803 0bf5 34       		.uleb128 0x34
 2804 0bf6 78010000 		.4byte	.LASF100
 2805 0bfa 02       		.byte	0x2
 2806 0bfb 2D       		.byte	0x2d
 2807 0bfc 14       		.byte	0x14
 2808 0bfd 03       		.byte	0x3
 2809 0bfe 14       		.uleb128 0x14
 2810 0bff 747000   		.ascii	"tp\000"
 2811 0c02 02       		.byte	0x2
 2812 0c03 2D       		.byte	0x2d
 2813 0c04 29       		.byte	0x29
 2814 0c05 6A020000 		.4byte	0x26a
 2815 0c09 14       		.uleb128 0x14
 2816 0c0a 74717000 		.ascii	"tqp\000"
 2817 0c0e 02       		.byte	0x2
 2818 0c0f 2D       		.byte	0x2d
 2819 0c10 3B       		.byte	0x3b
 2820 0c11 F00B0000 		.4byte	0xbf0
 2821 0c15 00       		.byte	0
 2822 0c16 00       		.byte	0
 2823              		.section	.debug_abbrev,"",%progbits
 2824              	.Ldebug_abbrev0:
 2825 0000 01       		.uleb128 0x1
 2826 0001 0D       		.uleb128 0xd
 2827 0002 00       		.byte	0
 2828 0003 03       		.uleb128 0x3
 2829 0004 0E       		.uleb128 0xe
 2830 0005 3A       		.uleb128 0x3a
 2831 0006 0B       		.uleb128 0xb
 2832 0007 3B       		.uleb128 0x3b
 2833 0008 0B       		.uleb128 0xb
 2834 0009 39       		.uleb128 0x39
 2835 000a 0B       		.uleb128 0xb
 2836 000b 49       		.uleb128 0x49
 2837 000c 13       		.uleb128 0x13
 2838 000d 38       		.uleb128 0x38
 2839 000e 0B       		.uleb128 0xb
 2840 000f 00       		.byte	0
 2841 0010 00       		.byte	0
 2842 0011 02       		.uleb128 0x2
 2843 0012 16       		.uleb128 0x16
 2844 0013 00       		.byte	0
 2845 0014 03       		.uleb128 0x3
 2846 0015 0E       		.uleb128 0xe
 2847 0016 3A       		.uleb128 0x3a
 2848 0017 0B       		.uleb128 0xb
 2849 0018 3B       		.uleb128 0x3b
 2850 0019 0B       		.uleb128 0xb
ARM GAS  /tmp/cc4iwVme.s 			page 51


 2851 001a 39       		.uleb128 0x39
 2852 001b 0B       		.uleb128 0xb
 2853 001c 49       		.uleb128 0x49
 2854 001d 13       		.uleb128 0x13
 2855 001e 00       		.byte	0
 2856 001f 00       		.byte	0
 2857 0020 03       		.uleb128 0x3
 2858 0021 05       		.uleb128 0x5
 2859 0022 00       		.byte	0
 2860 0023 31       		.uleb128 0x31
 2861 0024 13       		.uleb128 0x13
 2862 0025 02       		.uleb128 0x2
 2863 0026 17       		.uleb128 0x17
 2864 0027 B742     		.uleb128 0x2137
 2865 0029 17       		.uleb128 0x17
 2866 002a 00       		.byte	0
 2867 002b 00       		.byte	0
 2868 002c 04       		.uleb128 0x4
 2869 002d 0F       		.uleb128 0xf
 2870 002e 00       		.byte	0
 2871 002f 0B       		.uleb128 0xb
 2872 0030 21       		.uleb128 0x21
 2873 0031 04       		.sleb128 4
 2874 0032 49       		.uleb128 0x49
 2875 0033 13       		.uleb128 0x13
 2876 0034 00       		.byte	0
 2877 0035 00       		.byte	0
 2878 0036 05       		.uleb128 0x5
 2879 0037 49       		.uleb128 0x49
 2880 0038 00       		.byte	0
 2881 0039 02       		.uleb128 0x2
 2882 003a 18       		.uleb128 0x18
 2883 003b 7E       		.uleb128 0x7e
 2884 003c 18       		.uleb128 0x18
 2885 003d 00       		.byte	0
 2886 003e 00       		.byte	0
 2887 003f 06       		.uleb128 0x6
 2888 0040 0D       		.uleb128 0xd
 2889 0041 00       		.byte	0
 2890 0042 03       		.uleb128 0x3
 2891 0043 08       		.uleb128 0x8
 2892 0044 3A       		.uleb128 0x3a
 2893 0045 0B       		.uleb128 0xb
 2894 0046 3B       		.uleb128 0x3b
 2895 0047 0B       		.uleb128 0xb
 2896 0048 39       		.uleb128 0x39
 2897 0049 0B       		.uleb128 0xb
 2898 004a 49       		.uleb128 0x49
 2899 004b 13       		.uleb128 0x13
 2900 004c 38       		.uleb128 0x38
 2901 004d 0B       		.uleb128 0xb
 2902 004e 00       		.byte	0
 2903 004f 00       		.byte	0
 2904 0050 07       		.uleb128 0x7
 2905 0051 24       		.uleb128 0x24
 2906 0052 00       		.byte	0
 2907 0053 0B       		.uleb128 0xb
ARM GAS  /tmp/cc4iwVme.s 			page 52


 2908 0054 0B       		.uleb128 0xb
 2909 0055 3E       		.uleb128 0x3e
 2910 0056 0B       		.uleb128 0xb
 2911 0057 03       		.uleb128 0x3
 2912 0058 0E       		.uleb128 0xe
 2913 0059 00       		.byte	0
 2914 005a 00       		.byte	0
 2915 005b 08       		.uleb128 0x8
 2916 005c 05       		.uleb128 0x5
 2917 005d 00       		.byte	0
 2918 005e 03       		.uleb128 0x3
 2919 005f 08       		.uleb128 0x8
 2920 0060 3A       		.uleb128 0x3a
 2921 0061 21       		.uleb128 0x21
 2922 0062 01       		.sleb128 1
 2923 0063 3B       		.uleb128 0x3b
 2924 0064 05       		.uleb128 0x5
 2925 0065 39       		.uleb128 0x39
 2926 0066 0B       		.uleb128 0xb
 2927 0067 49       		.uleb128 0x49
 2928 0068 13       		.uleb128 0x13
 2929 0069 02       		.uleb128 0x2
 2930 006a 17       		.uleb128 0x17
 2931 006b B742     		.uleb128 0x2137
 2932 006d 17       		.uleb128 0x17
 2933 006e 00       		.byte	0
 2934 006f 00       		.byte	0
 2935 0070 09       		.uleb128 0x9
 2936 0071 1D       		.uleb128 0x1d
 2937 0072 01       		.byte	0x1
 2938 0073 31       		.uleb128 0x31
 2939 0074 13       		.uleb128 0x13
 2940 0075 52       		.uleb128 0x52
 2941 0076 01       		.uleb128 0x1
 2942 0077 B842     		.uleb128 0x2138
 2943 0079 0B       		.uleb128 0xb
 2944 007a 55       		.uleb128 0x55
 2945 007b 17       		.uleb128 0x17
 2946 007c 58       		.uleb128 0x58
 2947 007d 21       		.uleb128 0x21
 2948 007e 01       		.sleb128 1
 2949 007f 59       		.uleb128 0x59
 2950 0080 0B       		.uleb128 0xb
 2951 0081 57       		.uleb128 0x57
 2952 0082 0B       		.uleb128 0xb
 2953 0083 01       		.uleb128 0x1
 2954 0084 13       		.uleb128 0x13
 2955 0085 00       		.byte	0
 2956 0086 00       		.byte	0
 2957 0087 0A       		.uleb128 0xa
 2958 0088 05       		.uleb128 0x5
 2959 0089 00       		.byte	0
 2960 008a 03       		.uleb128 0x3
 2961 008b 08       		.uleb128 0x8
 2962 008c 3A       		.uleb128 0x3a
 2963 008d 21       		.uleb128 0x21
 2964 008e 01       		.sleb128 1
ARM GAS  /tmp/cc4iwVme.s 			page 53


 2965 008f 3B       		.uleb128 0x3b
 2966 0090 0B       		.uleb128 0xb
 2967 0091 39       		.uleb128 0x39
 2968 0092 0B       		.uleb128 0xb
 2969 0093 49       		.uleb128 0x49
 2970 0094 13       		.uleb128 0x13
 2971 0095 02       		.uleb128 0x2
 2972 0096 17       		.uleb128 0x17
 2973 0097 B742     		.uleb128 0x2137
 2974 0099 17       		.uleb128 0x17
 2975 009a 00       		.byte	0
 2976 009b 00       		.byte	0
 2977 009c 0B       		.uleb128 0xb
 2978 009d 13       		.uleb128 0x13
 2979 009e 01       		.byte	0x1
 2980 009f 03       		.uleb128 0x3
 2981 00a0 0E       		.uleb128 0xe
 2982 00a1 0B       		.uleb128 0xb
 2983 00a2 0B       		.uleb128 0xb
 2984 00a3 3A       		.uleb128 0x3a
 2985 00a4 0B       		.uleb128 0xb
 2986 00a5 3B       		.uleb128 0x3b
 2987 00a6 0B       		.uleb128 0xb
 2988 00a7 39       		.uleb128 0x39
 2989 00a8 0B       		.uleb128 0xb
 2990 00a9 01       		.uleb128 0x1
 2991 00aa 13       		.uleb128 0x13
 2992 00ab 00       		.byte	0
 2993 00ac 00       		.byte	0
 2994 00ad 0C       		.uleb128 0xc
 2995 00ae 0D       		.uleb128 0xd
 2996 00af 00       		.byte	0
 2997 00b0 03       		.uleb128 0x3
 2998 00b1 0E       		.uleb128 0xe
 2999 00b2 3A       		.uleb128 0x3a
 3000 00b3 21       		.uleb128 0x21
 3001 00b4 08       		.sleb128 8
 3002 00b5 3B       		.uleb128 0x3b
 3003 00b6 0B       		.uleb128 0xb
 3004 00b7 39       		.uleb128 0x39
 3005 00b8 0B       		.uleb128 0xb
 3006 00b9 49       		.uleb128 0x49
 3007 00ba 13       		.uleb128 0x13
 3008 00bb 00       		.byte	0
 3009 00bc 00       		.byte	0
 3010 00bd 0D       		.uleb128 0xd
 3011 00be 05       		.uleb128 0x5
 3012 00bf 00       		.byte	0
 3013 00c0 49       		.uleb128 0x49
 3014 00c1 13       		.uleb128 0x13
 3015 00c2 00       		.byte	0
 3016 00c3 00       		.byte	0
 3017 00c4 0E       		.uleb128 0xe
 3018 00c5 34       		.uleb128 0x34
 3019 00c6 00       		.byte	0
 3020 00c7 03       		.uleb128 0x3
 3021 00c8 08       		.uleb128 0x8
ARM GAS  /tmp/cc4iwVme.s 			page 54


 3022 00c9 3A       		.uleb128 0x3a
 3023 00ca 21       		.uleb128 0x21
 3024 00cb 01       		.sleb128 1
 3025 00cc 3B       		.uleb128 0x3b
 3026 00cd 05       		.uleb128 0x5
 3027 00ce 39       		.uleb128 0x39
 3028 00cf 0B       		.uleb128 0xb
 3029 00d0 49       		.uleb128 0x49
 3030 00d1 13       		.uleb128 0x13
 3031 00d2 02       		.uleb128 0x2
 3032 00d3 17       		.uleb128 0x17
 3033 00d4 B742     		.uleb128 0x2137
 3034 00d6 17       		.uleb128 0x17
 3035 00d7 00       		.byte	0
 3036 00d8 00       		.byte	0
 3037 00d9 0F       		.uleb128 0xf
 3038 00da 05       		.uleb128 0x5
 3039 00db 00       		.byte	0
 3040 00dc 31       		.uleb128 0x31
 3041 00dd 13       		.uleb128 0x13
 3042 00de 00       		.byte	0
 3043 00df 00       		.byte	0
 3044 00e0 10       		.uleb128 0x10
 3045 00e1 48       		.uleb128 0x48
 3046 00e2 01       		.byte	0x1
 3047 00e3 7D       		.uleb128 0x7d
 3048 00e4 01       		.uleb128 0x1
 3049 00e5 7F       		.uleb128 0x7f
 3050 00e6 13       		.uleb128 0x13
 3051 00e7 00       		.byte	0
 3052 00e8 00       		.byte	0
 3053 00e9 11       		.uleb128 0x11
 3054 00ea 34       		.uleb128 0x34
 3055 00eb 00       		.byte	0
 3056 00ec 31       		.uleb128 0x31
 3057 00ed 13       		.uleb128 0x13
 3058 00ee 02       		.uleb128 0x2
 3059 00ef 17       		.uleb128 0x17
 3060 00f0 B742     		.uleb128 0x2137
 3061 00f2 17       		.uleb128 0x17
 3062 00f3 00       		.byte	0
 3063 00f4 00       		.byte	0
 3064 00f5 12       		.uleb128 0x12
 3065 00f6 48       		.uleb128 0x48
 3066 00f7 00       		.byte	0
 3067 00f8 7D       		.uleb128 0x7d
 3068 00f9 01       		.uleb128 0x1
 3069 00fa 7F       		.uleb128 0x7f
 3070 00fb 13       		.uleb128 0x13
 3071 00fc 00       		.byte	0
 3072 00fd 00       		.byte	0
 3073 00fe 13       		.uleb128 0x13
 3074 00ff 34       		.uleb128 0x34
 3075 0100 00       		.byte	0
 3076 0101 03       		.uleb128 0x3
 3077 0102 08       		.uleb128 0x8
 3078 0103 3A       		.uleb128 0x3a
ARM GAS  /tmp/cc4iwVme.s 			page 55


 3079 0104 21       		.uleb128 0x21
 3080 0105 01       		.sleb128 1
 3081 0106 3B       		.uleb128 0x3b
 3082 0107 0B       		.uleb128 0xb
 3083 0108 39       		.uleb128 0x39
 3084 0109 0B       		.uleb128 0xb
 3085 010a 49       		.uleb128 0x49
 3086 010b 13       		.uleb128 0x13
 3087 010c 02       		.uleb128 0x2
 3088 010d 17       		.uleb128 0x17
 3089 010e B742     		.uleb128 0x2137
 3090 0110 17       		.uleb128 0x17
 3091 0111 00       		.byte	0
 3092 0112 00       		.byte	0
 3093 0113 14       		.uleb128 0x14
 3094 0114 05       		.uleb128 0x5
 3095 0115 00       		.byte	0
 3096 0116 03       		.uleb128 0x3
 3097 0117 08       		.uleb128 0x8
 3098 0118 3A       		.uleb128 0x3a
 3099 0119 0B       		.uleb128 0xb
 3100 011a 3B       		.uleb128 0x3b
 3101 011b 0B       		.uleb128 0xb
 3102 011c 39       		.uleb128 0x39
 3103 011d 0B       		.uleb128 0xb
 3104 011e 49       		.uleb128 0x49
 3105 011f 13       		.uleb128 0x13
 3106 0120 00       		.byte	0
 3107 0121 00       		.byte	0
 3108 0122 15       		.uleb128 0x15
 3109 0123 13       		.uleb128 0x13
 3110 0124 01       		.byte	0x1
 3111 0125 0B       		.uleb128 0xb
 3112 0126 0B       		.uleb128 0xb
 3113 0127 3A       		.uleb128 0x3a
 3114 0128 0B       		.uleb128 0xb
 3115 0129 3B       		.uleb128 0x3b
 3116 012a 0B       		.uleb128 0xb
 3117 012b 39       		.uleb128 0x39
 3118 012c 21       		.uleb128 0x21
 3119 012d 09       		.sleb128 9
 3120 012e 01       		.uleb128 0x1
 3121 012f 13       		.uleb128 0x13
 3122 0130 00       		.byte	0
 3123 0131 00       		.byte	0
 3124 0132 16       		.uleb128 0x16
 3125 0133 2E       		.uleb128 0x2e
 3126 0134 01       		.byte	0x1
 3127 0135 3F       		.uleb128 0x3f
 3128 0136 19       		.uleb128 0x19
 3129 0137 03       		.uleb128 0x3
 3130 0138 0E       		.uleb128 0xe
 3131 0139 3A       		.uleb128 0x3a
 3132 013a 21       		.uleb128 0x21
 3133 013b 01       		.sleb128 1
 3134 013c 3B       		.uleb128 0x3b
 3135 013d 05       		.uleb128 0x5
ARM GAS  /tmp/cc4iwVme.s 			page 56


 3136 013e 39       		.uleb128 0x39
 3137 013f 0B       		.uleb128 0xb
 3138 0140 27       		.uleb128 0x27
 3139 0141 19       		.uleb128 0x19
 3140 0142 49       		.uleb128 0x49
 3141 0143 13       		.uleb128 0x13
 3142 0144 11       		.uleb128 0x11
 3143 0145 01       		.uleb128 0x1
 3144 0146 12       		.uleb128 0x12
 3145 0147 06       		.uleb128 0x6
 3146 0148 40       		.uleb128 0x40
 3147 0149 18       		.uleb128 0x18
 3148 014a 7A       		.uleb128 0x7a
 3149 014b 19       		.uleb128 0x19
 3150 014c 01       		.uleb128 0x1
 3151 014d 13       		.uleb128 0x13
 3152 014e 00       		.byte	0
 3153 014f 00       		.byte	0
 3154 0150 17       		.uleb128 0x17
 3155 0151 05       		.uleb128 0x5
 3156 0152 00       		.byte	0
 3157 0153 03       		.uleb128 0x3
 3158 0154 0E       		.uleb128 0xe
 3159 0155 3A       		.uleb128 0x3a
 3160 0156 21       		.uleb128 0x21
 3161 0157 01       		.sleb128 1
 3162 0158 3B       		.uleb128 0x3b
 3163 0159 05       		.uleb128 0x5
 3164 015a 39       		.uleb128 0x39
 3165 015b 0B       		.uleb128 0xb
 3166 015c 49       		.uleb128 0x49
 3167 015d 13       		.uleb128 0x13
 3168 015e 02       		.uleb128 0x2
 3169 015f 17       		.uleb128 0x17
 3170 0160 B742     		.uleb128 0x2137
 3171 0162 17       		.uleb128 0x17
 3172 0163 00       		.byte	0
 3173 0164 00       		.byte	0
 3174 0165 18       		.uleb128 0x18
 3175 0166 0B       		.uleb128 0xb
 3176 0167 01       		.byte	0x1
 3177 0168 55       		.uleb128 0x55
 3178 0169 17       		.uleb128 0x17
 3179 016a 00       		.byte	0
 3180 016b 00       		.byte	0
 3181 016c 19       		.uleb128 0x19
 3182 016d 2E       		.uleb128 0x2e
 3183 016e 01       		.byte	0x1
 3184 016f 3F       		.uleb128 0x3f
 3185 0170 19       		.uleb128 0x19
 3186 0171 03       		.uleb128 0x3
 3187 0172 0E       		.uleb128 0xe
 3188 0173 3A       		.uleb128 0x3a
 3189 0174 21       		.uleb128 0x21
 3190 0175 01       		.sleb128 1
 3191 0176 3B       		.uleb128 0x3b
 3192 0177 0B       		.uleb128 0xb
ARM GAS  /tmp/cc4iwVme.s 			page 57


 3193 0178 39       		.uleb128 0x39
 3194 0179 0B       		.uleb128 0xb
 3195 017a 27       		.uleb128 0x27
 3196 017b 19       		.uleb128 0x19
 3197 017c 49       		.uleb128 0x49
 3198 017d 13       		.uleb128 0x13
 3199 017e 11       		.uleb128 0x11
 3200 017f 01       		.uleb128 0x1
 3201 0180 12       		.uleb128 0x12
 3202 0181 06       		.uleb128 0x6
 3203 0182 40       		.uleb128 0x40
 3204 0183 18       		.uleb128 0x18
 3205 0184 7A       		.uleb128 0x7a
 3206 0185 19       		.uleb128 0x19
 3207 0186 01       		.uleb128 0x1
 3208 0187 13       		.uleb128 0x13
 3209 0188 00       		.byte	0
 3210 0189 00       		.byte	0
 3211 018a 1A       		.uleb128 0x1a
 3212 018b 05       		.uleb128 0x5
 3213 018c 00       		.byte	0
 3214 018d 03       		.uleb128 0x3
 3215 018e 0E       		.uleb128 0xe
 3216 018f 3A       		.uleb128 0x3a
 3217 0190 21       		.uleb128 0x21
 3218 0191 01       		.sleb128 1
 3219 0192 3B       		.uleb128 0x3b
 3220 0193 0B       		.uleb128 0xb
 3221 0194 39       		.uleb128 0x39
 3222 0195 0B       		.uleb128 0xb
 3223 0196 49       		.uleb128 0x49
 3224 0197 13       		.uleb128 0x13
 3225 0198 02       		.uleb128 0x2
 3226 0199 17       		.uleb128 0x17
 3227 019a B742     		.uleb128 0x2137
 3228 019c 17       		.uleb128 0x17
 3229 019d 00       		.byte	0
 3230 019e 00       		.byte	0
 3231 019f 1B       		.uleb128 0x1b
 3232 01a0 26       		.uleb128 0x26
 3233 01a1 00       		.byte	0
 3234 01a2 49       		.uleb128 0x49
 3235 01a3 13       		.uleb128 0x13
 3236 01a4 00       		.byte	0
 3237 01a5 00       		.byte	0
 3238 01a6 1C       		.uleb128 0x1c
 3239 01a7 2E       		.uleb128 0x2e
 3240 01a8 01       		.byte	0x1
 3241 01a9 3F       		.uleb128 0x3f
 3242 01aa 19       		.uleb128 0x19
 3243 01ab 03       		.uleb128 0x3
 3244 01ac 0E       		.uleb128 0xe
 3245 01ad 3A       		.uleb128 0x3a
 3246 01ae 21       		.uleb128 0x21
 3247 01af 0A       		.sleb128 10
 3248 01b0 3B       		.uleb128 0x3b
 3249 01b1 0B       		.uleb128 0xb
ARM GAS  /tmp/cc4iwVme.s 			page 58


 3250 01b2 39       		.uleb128 0x39
 3251 01b3 0B       		.uleb128 0xb
 3252 01b4 27       		.uleb128 0x27
 3253 01b5 19       		.uleb128 0x19
 3254 01b6 49       		.uleb128 0x49
 3255 01b7 13       		.uleb128 0x13
 3256 01b8 3C       		.uleb128 0x3c
 3257 01b9 19       		.uleb128 0x19
 3258 01ba 01       		.uleb128 0x1
 3259 01bb 13       		.uleb128 0x13
 3260 01bc 00       		.byte	0
 3261 01bd 00       		.byte	0
 3262 01be 1D       		.uleb128 0x1d
 3263 01bf 1D       		.uleb128 0x1d
 3264 01c0 01       		.byte	0x1
 3265 01c1 31       		.uleb128 0x31
 3266 01c2 13       		.uleb128 0x13
 3267 01c3 52       		.uleb128 0x52
 3268 01c4 01       		.uleb128 0x1
 3269 01c5 B842     		.uleb128 0x2138
 3270 01c7 0B       		.uleb128 0xb
 3271 01c8 55       		.uleb128 0x55
 3272 01c9 17       		.uleb128 0x17
 3273 01ca 58       		.uleb128 0x58
 3274 01cb 21       		.uleb128 0x21
 3275 01cc 01       		.sleb128 1
 3276 01cd 59       		.uleb128 0x59
 3277 01ce 05       		.uleb128 0x5
 3278 01cf 57       		.uleb128 0x57
 3279 01d0 0B       		.uleb128 0xb
 3280 01d1 01       		.uleb128 0x1
 3281 01d2 13       		.uleb128 0x13
 3282 01d3 00       		.byte	0
 3283 01d4 00       		.byte	0
 3284 01d5 1E       		.uleb128 0x1e
 3285 01d6 48       		.uleb128 0x48
 3286 01d7 01       		.byte	0x1
 3287 01d8 7D       		.uleb128 0x7d
 3288 01d9 01       		.uleb128 0x1
 3289 01da 8301     		.uleb128 0x83
 3290 01dc 18       		.uleb128 0x18
 3291 01dd 00       		.byte	0
 3292 01de 00       		.byte	0
 3293 01df 1F       		.uleb128 0x1f
 3294 01e0 0B       		.uleb128 0xb
 3295 01e1 01       		.byte	0x1
 3296 01e2 55       		.uleb128 0x55
 3297 01e3 17       		.uleb128 0x17
 3298 01e4 01       		.uleb128 0x1
 3299 01e5 13       		.uleb128 0x13
 3300 01e6 00       		.byte	0
 3301 01e7 00       		.byte	0
 3302 01e8 20       		.uleb128 0x20
 3303 01e9 48       		.uleb128 0x48
 3304 01ea 01       		.byte	0x1
 3305 01eb 7D       		.uleb128 0x7d
 3306 01ec 01       		.uleb128 0x1
ARM GAS  /tmp/cc4iwVme.s 			page 59


 3307 01ed 00       		.byte	0
 3308 01ee 00       		.byte	0
 3309 01ef 21       		.uleb128 0x21
 3310 01f0 2E       		.uleb128 0x2e
 3311 01f1 01       		.byte	0x1
 3312 01f2 3F       		.uleb128 0x3f
 3313 01f3 19       		.uleb128 0x19
 3314 01f4 03       		.uleb128 0x3
 3315 01f5 0E       		.uleb128 0xe
 3316 01f6 3A       		.uleb128 0x3a
 3317 01f7 21       		.uleb128 0x21
 3318 01f8 01       		.sleb128 1
 3319 01f9 3B       		.uleb128 0x3b
 3320 01fa 05       		.uleb128 0x5
 3321 01fb 39       		.uleb128 0x39
 3322 01fc 21       		.uleb128 0x21
 3323 01fd 06       		.sleb128 6
 3324 01fe 27       		.uleb128 0x27
 3325 01ff 19       		.uleb128 0x19
 3326 0200 11       		.uleb128 0x11
 3327 0201 01       		.uleb128 0x1
 3328 0202 12       		.uleb128 0x12
 3329 0203 06       		.uleb128 0x6
 3330 0204 40       		.uleb128 0x40
 3331 0205 18       		.uleb128 0x18
 3332 0206 7A       		.uleb128 0x7a
 3333 0207 19       		.uleb128 0x19
 3334 0208 01       		.uleb128 0x1
 3335 0209 13       		.uleb128 0x13
 3336 020a 00       		.byte	0
 3337 020b 00       		.byte	0
 3338 020c 22       		.uleb128 0x22
 3339 020d 05       		.uleb128 0x5
 3340 020e 00       		.byte	0
 3341 020f 03       		.uleb128 0x3
 3342 0210 08       		.uleb128 0x8
 3343 0211 3A       		.uleb128 0x3a
 3344 0212 21       		.uleb128 0x21
 3345 0213 01       		.sleb128 1
 3346 0214 3B       		.uleb128 0x3b
 3347 0215 21       		.uleb128 0x21
 3348 0216 8C02     		.sleb128 268
 3349 0218 39       		.uleb128 0x39
 3350 0219 0B       		.uleb128 0xb
 3351 021a 49       		.uleb128 0x49
 3352 021b 13       		.uleb128 0x13
 3353 021c 02       		.uleb128 0x2
 3354 021d 18       		.uleb128 0x18
 3355 021e 00       		.byte	0
 3356 021f 00       		.byte	0
 3357 0220 23       		.uleb128 0x23
 3358 0221 05       		.uleb128 0x5
 3359 0222 00       		.byte	0
 3360 0223 03       		.uleb128 0x3
 3361 0224 0E       		.uleb128 0xe
 3362 0225 3A       		.uleb128 0x3a
 3363 0226 21       		.uleb128 0x21
ARM GAS  /tmp/cc4iwVme.s 			page 60


 3364 0227 01       		.sleb128 1
 3365 0228 3B       		.uleb128 0x3b
 3366 0229 05       		.uleb128 0x5
 3367 022a 39       		.uleb128 0x39
 3368 022b 0B       		.uleb128 0xb
 3369 022c 49       		.uleb128 0x49
 3370 022d 13       		.uleb128 0x13
 3371 022e 02       		.uleb128 0x2
 3372 022f 18       		.uleb128 0x18
 3373 0230 00       		.byte	0
 3374 0231 00       		.byte	0
 3375 0232 24       		.uleb128 0x24
 3376 0233 2E       		.uleb128 0x2e
 3377 0234 01       		.byte	0x1
 3378 0235 3F       		.uleb128 0x3f
 3379 0236 19       		.uleb128 0x19
 3380 0237 03       		.uleb128 0x3
 3381 0238 0E       		.uleb128 0xe
 3382 0239 3A       		.uleb128 0x3a
 3383 023a 21       		.uleb128 0x21
 3384 023b 01       		.sleb128 1
 3385 023c 3B       		.uleb128 0x3b
 3386 023d 0B       		.uleb128 0xb
 3387 023e 39       		.uleb128 0x39
 3388 023f 21       		.uleb128 0x21
 3389 0240 06       		.sleb128 6
 3390 0241 27       		.uleb128 0x27
 3391 0242 19       		.uleb128 0x19
 3392 0243 11       		.uleb128 0x11
 3393 0244 01       		.uleb128 0x1
 3394 0245 12       		.uleb128 0x12
 3395 0246 06       		.uleb128 0x6
 3396 0247 40       		.uleb128 0x40
 3397 0248 18       		.uleb128 0x18
 3398 0249 7A       		.uleb128 0x7a
 3399 024a 19       		.uleb128 0x19
 3400 024b 01       		.uleb128 0x1
 3401 024c 13       		.uleb128 0x13
 3402 024d 00       		.byte	0
 3403 024e 00       		.byte	0
 3404 024f 25       		.uleb128 0x25
 3405 0250 05       		.uleb128 0x5
 3406 0251 00       		.byte	0
 3407 0252 03       		.uleb128 0x3
 3408 0253 08       		.uleb128 0x8
 3409 0254 3A       		.uleb128 0x3a
 3410 0255 21       		.uleb128 0x21
 3411 0256 01       		.sleb128 1
 3412 0257 3B       		.uleb128 0x3b
 3413 0258 0B       		.uleb128 0xb
 3414 0259 39       		.uleb128 0x39
 3415 025a 0B       		.uleb128 0xb
 3416 025b 49       		.uleb128 0x49
 3417 025c 13       		.uleb128 0x13
 3418 025d 02       		.uleb128 0x2
 3419 025e 18       		.uleb128 0x18
 3420 025f 00       		.byte	0
ARM GAS  /tmp/cc4iwVme.s 			page 61


 3421 0260 00       		.byte	0
 3422 0261 26       		.uleb128 0x26
 3423 0262 05       		.uleb128 0x5
 3424 0263 00       		.byte	0
 3425 0264 03       		.uleb128 0x3
 3426 0265 0E       		.uleb128 0xe
 3427 0266 3A       		.uleb128 0x3a
 3428 0267 21       		.uleb128 0x21
 3429 0268 01       		.sleb128 1
 3430 0269 3B       		.uleb128 0x3b
 3431 026a 0B       		.uleb128 0xb
 3432 026b 39       		.uleb128 0x39
 3433 026c 0B       		.uleb128 0xb
 3434 026d 49       		.uleb128 0x49
 3435 026e 13       		.uleb128 0x13
 3436 026f 02       		.uleb128 0x2
 3437 0270 18       		.uleb128 0x18
 3438 0271 00       		.byte	0
 3439 0272 00       		.byte	0
 3440 0273 27       		.uleb128 0x27
 3441 0274 2E       		.uleb128 0x2e
 3442 0275 01       		.byte	0x1
 3443 0276 03       		.uleb128 0x3
 3444 0277 0E       		.uleb128 0xe
 3445 0278 3A       		.uleb128 0x3a
 3446 0279 0B       		.uleb128 0xb
 3447 027a 3B       		.uleb128 0x3b
 3448 027b 0B       		.uleb128 0xb
 3449 027c 39       		.uleb128 0x39
 3450 027d 0B       		.uleb128 0xb
 3451 027e 27       		.uleb128 0x27
 3452 027f 19       		.uleb128 0x19
 3453 0280 49       		.uleb128 0x49
 3454 0281 13       		.uleb128 0x13
 3455 0282 20       		.uleb128 0x20
 3456 0283 0B       		.uleb128 0xb
 3457 0284 01       		.uleb128 0x1
 3458 0285 13       		.uleb128 0x13
 3459 0286 00       		.byte	0
 3460 0287 00       		.byte	0
 3461 0288 28       		.uleb128 0x28
 3462 0289 11       		.uleb128 0x11
 3463 028a 01       		.byte	0x1
 3464 028b 25       		.uleb128 0x25
 3465 028c 0E       		.uleb128 0xe
 3466 028d 13       		.uleb128 0x13
 3467 028e 0B       		.uleb128 0xb
 3468 028f 03       		.uleb128 0x3
 3469 0290 0E       		.uleb128 0xe
 3470 0291 1B       		.uleb128 0x1b
 3471 0292 0E       		.uleb128 0xe
 3472 0293 55       		.uleb128 0x55
 3473 0294 17       		.uleb128 0x17
 3474 0295 11       		.uleb128 0x11
 3475 0296 01       		.uleb128 0x1
 3476 0297 10       		.uleb128 0x10
 3477 0298 17       		.uleb128 0x17
ARM GAS  /tmp/cc4iwVme.s 			page 62


 3478 0299 00       		.byte	0
 3479 029a 00       		.byte	0
 3480 029b 29       		.uleb128 0x29
 3481 029c 24       		.uleb128 0x24
 3482 029d 00       		.byte	0
 3483 029e 0B       		.uleb128 0xb
 3484 029f 0B       		.uleb128 0xb
 3485 02a0 3E       		.uleb128 0x3e
 3486 02a1 0B       		.uleb128 0xb
 3487 02a2 03       		.uleb128 0x3
 3488 02a3 08       		.uleb128 0x8
 3489 02a4 00       		.byte	0
 3490 02a5 00       		.byte	0
 3491 02a6 2A       		.uleb128 0x2a
 3492 02a7 35       		.uleb128 0x35
 3493 02a8 00       		.byte	0
 3494 02a9 49       		.uleb128 0x49
 3495 02aa 13       		.uleb128 0x13
 3496 02ab 00       		.byte	0
 3497 02ac 00       		.byte	0
 3498 02ad 2B       		.uleb128 0x2b
 3499 02ae 0F       		.uleb128 0xf
 3500 02af 00       		.byte	0
 3501 02b0 0B       		.uleb128 0xb
 3502 02b1 0B       		.uleb128 0xb
 3503 02b2 00       		.byte	0
 3504 02b3 00       		.byte	0
 3505 02b4 2C       		.uleb128 0x2c
 3506 02b5 34       		.uleb128 0x34
 3507 02b6 00       		.byte	0
 3508 02b7 03       		.uleb128 0x3
 3509 02b8 0E       		.uleb128 0xe
 3510 02b9 3A       		.uleb128 0x3a
 3511 02ba 0B       		.uleb128 0xb
 3512 02bb 3B       		.uleb128 0x3b
 3513 02bc 0B       		.uleb128 0xb
 3514 02bd 39       		.uleb128 0x39
 3515 02be 0B       		.uleb128 0xb
 3516 02bf 49       		.uleb128 0x49
 3517 02c0 13       		.uleb128 0x13
 3518 02c1 3F       		.uleb128 0x3f
 3519 02c2 19       		.uleb128 0x19
 3520 02c3 3C       		.uleb128 0x3c
 3521 02c4 19       		.uleb128 0x19
 3522 02c5 00       		.byte	0
 3523 02c6 00       		.byte	0
 3524 02c7 2D       		.uleb128 0x2d
 3525 02c8 17       		.uleb128 0x17
 3526 02c9 01       		.byte	0x1
 3527 02ca 0B       		.uleb128 0xb
 3528 02cb 0B       		.uleb128 0xb
 3529 02cc 3A       		.uleb128 0x3a
 3530 02cd 0B       		.uleb128 0xb
 3531 02ce 3B       		.uleb128 0x3b
 3532 02cf 0B       		.uleb128 0xb
 3533 02d0 39       		.uleb128 0x39
 3534 02d1 0B       		.uleb128 0xb
ARM GAS  /tmp/cc4iwVme.s 			page 63


 3535 02d2 01       		.uleb128 0x1
 3536 02d3 13       		.uleb128 0x13
 3537 02d4 00       		.byte	0
 3538 02d5 00       		.byte	0
 3539 02d6 2E       		.uleb128 0x2e
 3540 02d7 15       		.uleb128 0x15
 3541 02d8 01       		.byte	0x1
 3542 02d9 27       		.uleb128 0x27
 3543 02da 19       		.uleb128 0x19
 3544 02db 01       		.uleb128 0x1
 3545 02dc 13       		.uleb128 0x13
 3546 02dd 00       		.byte	0
 3547 02de 00       		.byte	0
 3548 02df 2F       		.uleb128 0x2f
 3549 02e0 1D       		.uleb128 0x1d
 3550 02e1 01       		.byte	0x1
 3551 02e2 31       		.uleb128 0x31
 3552 02e3 13       		.uleb128 0x13
 3553 02e4 52       		.uleb128 0x52
 3554 02e5 01       		.uleb128 0x1
 3555 02e6 B842     		.uleb128 0x2138
 3556 02e8 0B       		.uleb128 0xb
 3557 02e9 11       		.uleb128 0x11
 3558 02ea 01       		.uleb128 0x1
 3559 02eb 12       		.uleb128 0x12
 3560 02ec 06       		.uleb128 0x6
 3561 02ed 58       		.uleb128 0x58
 3562 02ee 0B       		.uleb128 0xb
 3563 02ef 59       		.uleb128 0x59
 3564 02f0 05       		.uleb128 0x5
 3565 02f1 57       		.uleb128 0x57
 3566 02f2 0B       		.uleb128 0xb
 3567 02f3 01       		.uleb128 0x1
 3568 02f4 13       		.uleb128 0x13
 3569 02f5 00       		.byte	0
 3570 02f6 00       		.byte	0
 3571 02f7 30       		.uleb128 0x30
 3572 02f8 1D       		.uleb128 0x1d
 3573 02f9 01       		.byte	0x1
 3574 02fa 31       		.uleb128 0x31
 3575 02fb 13       		.uleb128 0x13
 3576 02fc 52       		.uleb128 0x52
 3577 02fd 01       		.uleb128 0x1
 3578 02fe B842     		.uleb128 0x2138
 3579 0300 0B       		.uleb128 0xb
 3580 0301 55       		.uleb128 0x55
 3581 0302 17       		.uleb128 0x17
 3582 0303 58       		.uleb128 0x58
 3583 0304 0B       		.uleb128 0xb
 3584 0305 59       		.uleb128 0x59
 3585 0306 05       		.uleb128 0x5
 3586 0307 57       		.uleb128 0x57
 3587 0308 0B       		.uleb128 0xb
 3588 0309 00       		.byte	0
 3589 030a 00       		.byte	0
 3590 030b 31       		.uleb128 0x31
 3591 030c 1D       		.uleb128 0x1d
ARM GAS  /tmp/cc4iwVme.s 			page 64


 3592 030d 01       		.byte	0x1
 3593 030e 31       		.uleb128 0x31
 3594 030f 13       		.uleb128 0x13
 3595 0310 52       		.uleb128 0x52
 3596 0311 01       		.uleb128 0x1
 3597 0312 B842     		.uleb128 0x2138
 3598 0314 0B       		.uleb128 0xb
 3599 0315 55       		.uleb128 0x55
 3600 0316 17       		.uleb128 0x17
 3601 0317 58       		.uleb128 0x58
 3602 0318 0B       		.uleb128 0xb
 3603 0319 59       		.uleb128 0x59
 3604 031a 0B       		.uleb128 0xb
 3605 031b 57       		.uleb128 0x57
 3606 031c 0B       		.uleb128 0xb
 3607 031d 00       		.byte	0
 3608 031e 00       		.byte	0
 3609 031f 32       		.uleb128 0x32
 3610 0320 05       		.uleb128 0x5
 3611 0321 00       		.byte	0
 3612 0322 03       		.uleb128 0x3
 3613 0323 0E       		.uleb128 0xe
 3614 0324 3A       		.uleb128 0x3a
 3615 0325 0B       		.uleb128 0xb
 3616 0326 3B       		.uleb128 0x3b
 3617 0327 0B       		.uleb128 0xb
 3618 0328 39       		.uleb128 0x39
 3619 0329 0B       		.uleb128 0xb
 3620 032a 49       		.uleb128 0x49
 3621 032b 13       		.uleb128 0x13
 3622 032c 00       		.byte	0
 3623 032d 00       		.byte	0
 3624 032e 33       		.uleb128 0x33
 3625 032f 34       		.uleb128 0x34
 3626 0330 00       		.byte	0
 3627 0331 03       		.uleb128 0x3
 3628 0332 08       		.uleb128 0x8
 3629 0333 3A       		.uleb128 0x3a
 3630 0334 0B       		.uleb128 0xb
 3631 0335 3B       		.uleb128 0x3b
 3632 0336 0B       		.uleb128 0xb
 3633 0337 39       		.uleb128 0x39
 3634 0338 0B       		.uleb128 0xb
 3635 0339 49       		.uleb128 0x49
 3636 033a 13       		.uleb128 0x13
 3637 033b 00       		.byte	0
 3638 033c 00       		.byte	0
 3639 033d 34       		.uleb128 0x34
 3640 033e 2E       		.uleb128 0x2e
 3641 033f 01       		.byte	0x1
 3642 0340 03       		.uleb128 0x3
 3643 0341 0E       		.uleb128 0xe
 3644 0342 3A       		.uleb128 0x3a
 3645 0343 0B       		.uleb128 0xb
 3646 0344 3B       		.uleb128 0x3b
 3647 0345 0B       		.uleb128 0xb
 3648 0346 39       		.uleb128 0x39
ARM GAS  /tmp/cc4iwVme.s 			page 65


 3649 0347 0B       		.uleb128 0xb
 3650 0348 27       		.uleb128 0x27
 3651 0349 19       		.uleb128 0x19
 3652 034a 20       		.uleb128 0x20
 3653 034b 0B       		.uleb128 0xb
 3654 034c 00       		.byte	0
 3655 034d 00       		.byte	0
 3656 034e 00       		.byte	0
 3657              		.section	.debug_loclists,"",%progbits
 3658 0000 99030000 		.4byte	.Ldebug_loc3-.Ldebug_loc2
 3659              	.Ldebug_loc2:
 3660 0004 0500     		.2byte	0x5
 3661 0006 04       		.byte	0x4
 3662 0007 00       		.byte	0
 3663 0008 00000000 		.4byte	0
 3664              	.Ldebug_loc0:
 3665              	.LVUS50:
 3666 000c 00       		.uleb128 0
 3667 000d 00       		.uleb128 .LVU398
 3668 000e 00       		.uleb128 .LVU398
 3669 000f 00       		.uleb128 0
 3670              	.LLST50:
 3671 0010 06       		.byte	0x6
 3672 0011 00000000 		.4byte	.LVL61
 3673 0015 04       		.byte	0x4
 3674 0016 00       		.uleb128 .LVL61-.LVL61
 3675 0017 24       		.uleb128 .LVL63-.LVL61
 3676 0018 01       		.uleb128 0x1
 3677 0019 50       		.byte	0x50
 3678 001a 04       		.byte	0x4
 3679 001b 24       		.uleb128 .LVL63-.LVL61
 3680 001c DC01     		.uleb128 .LFE17-.LVL61
 3681 001e 01       		.uleb128 0x1
 3682 001f 54       		.byte	0x54
 3683 0020 00       		.byte	0
 3684              	.LVUS51:
 3685 0021 00       		.uleb128 0
 3686 0022 00       		.uleb128 .LVU398
 3687 0023 00       		.uleb128 .LVU398
 3688 0024 01       		.uleb128 .LVU410
 3689 0025 01       		.uleb128 .LVU410
 3690 0026 00       		.uleb128 .LVU412
 3691 0027 00       		.uleb128 .LVU412
 3692 0028 00       		.uleb128 0
 3693              	.LLST51:
 3694 0029 06       		.byte	0x6
 3695 002a 00000000 		.4byte	.LVL61
 3696 002e 04       		.byte	0x4
 3697 002f 00       		.uleb128 .LVL61-.LVL61
 3698 0030 24       		.uleb128 .LVL63-.LVL61
 3699 0031 01       		.uleb128 0x1
 3700 0032 51       		.byte	0x51
 3701 0033 04       		.byte	0x4
 3702 0034 24       		.uleb128 .LVL63-.LVL61
 3703 0035 3C       		.uleb128 .LVL64-.LVL61
 3704 0036 01       		.uleb128 0x1
 3705 0037 55       		.byte	0x55
ARM GAS  /tmp/cc4iwVme.s 			page 66


 3706 0038 04       		.byte	0x4
 3707 0039 3C       		.uleb128 .LVL64-.LVL61
 3708 003a 48       		.uleb128 .LVL65-.LVL61
 3709 003b 03       		.uleb128 0x3
 3710 003c 75       		.byte	0x75
 3711 003d 01       		.sleb128 1
 3712 003e 9F       		.byte	0x9f
 3713 003f 04       		.byte	0x4
 3714 0040 48       		.uleb128 .LVL65-.LVL61
 3715 0041 DC01     		.uleb128 .LFE17-.LVL61
 3716 0043 01       		.uleb128 0x1
 3717 0044 55       		.byte	0x55
 3718 0045 00       		.byte	0
 3719              	.LVUS52:
 3720 0046 00       		.uleb128 0
 3721 0047 00       		.uleb128 .LVU398
 3722 0048 00       		.uleb128 .LVU398
 3723 0049 00       		.uleb128 .LVU424
 3724 004a 00       		.uleb128 .LVU424
 3725 004b 01       		.uleb128 .LVU426
 3726 004c 03       		.uleb128 .LVU431
 3727 004d 02       		.uleb128 .LVU466
 3728              	.LLST52:
 3729 004e 06       		.byte	0x6
 3730 004f 00000000 		.4byte	.LVL61
 3731 0053 04       		.byte	0x4
 3732 0054 00       		.uleb128 .LVL61-.LVL61
 3733 0055 24       		.uleb128 .LVL63-.LVL61
 3734 0056 01       		.uleb128 0x1
 3735 0057 52       		.byte	0x52
 3736 0058 04       		.byte	0x4
 3737 0059 24       		.uleb128 .LVL63-.LVL61
 3738 005a 78       		.uleb128 .LVL67-.LVL61
 3739 005b 01       		.uleb128 0x1
 3740 005c 56       		.byte	0x56
 3741 005d 04       		.byte	0x4
 3742 005e 78       		.uleb128 .LVL67-.LVL61
 3743 005f 7C       		.uleb128 .LVL68-.LVL61
 3744 0060 03       		.uleb128 0x3
 3745 0061 76       		.byte	0x76
 3746 0062 01       		.sleb128 1
 3747 0063 9F       		.byte	0x9f
 3748 0064 04       		.byte	0x4
 3749 0065 8401     		.uleb128 .LVL69-.LVL61
 3750 0067 D001     		.uleb128 .LVL74-.LVL61
 3751 0069 01       		.uleb128 0x1
 3752 006a 56       		.byte	0x56
 3753 006b 00       		.byte	0
 3754              	.LVUS53:
 3755 006c 00       		.uleb128 0
 3756 006d 00       		.uleb128 .LVU398
 3757 006e 00       		.uleb128 .LVU398
 3758 006f 00       		.uleb128 0
 3759              	.LLST53:
 3760 0070 06       		.byte	0x6
 3761 0071 00000000 		.4byte	.LVL61
 3762 0075 04       		.byte	0x4
ARM GAS  /tmp/cc4iwVme.s 			page 67


 3763 0076 00       		.uleb128 .LVL61-.LVL61
 3764 0077 24       		.uleb128 .LVL63-.LVL61
 3765 0078 01       		.uleb128 0x1
 3766 0079 53       		.byte	0x53
 3767 007a 04       		.byte	0x4
 3768 007b 24       		.uleb128 .LVL63-.LVL61
 3769 007c DC01     		.uleb128 .LFE17-.LVL61
 3770 007e 01       		.uleb128 0x1
 3771 007f 59       		.byte	0x59
 3772 0080 00       		.byte	0
 3773              	.LVUS54:
 3774 0081 00       		.uleb128 .LVU392
 3775 0082 00       		.uleb128 0
 3776              	.LLST54:
 3777 0083 08       		.byte	0x8
 3778 0084 18000000 		.4byte	.LVL62
 3779 0088 C401     		.uleb128 .LFE17-.LVL62
 3780 008a 01       		.uleb128 0x1
 3781 008b 58       		.byte	0x58
 3782 008c 00       		.byte	0
 3783              	.LVUS55:
 3784 008d 01       		.uleb128 .LVU393
 3785 008e 00       		.uleb128 .LVU398
 3786 008f 00       		.uleb128 .LVU398
 3787 0090 00       		.uleb128 0
 3788              	.LLST55:
 3789 0091 06       		.byte	0x6
 3790 0092 18000000 		.4byte	.LVL62
 3791 0096 04       		.byte	0x4
 3792 0097 00       		.uleb128 .LVL62-.LVL62
 3793 0098 0C       		.uleb128 .LVL63-.LVL62
 3794 0099 02       		.uleb128 0x2
 3795 009a 30       		.byte	0x30
 3796 009b 9F       		.byte	0x9f
 3797 009c 04       		.byte	0x4
 3798 009d 0C       		.uleb128 .LVL63-.LVL62
 3799 009e C401     		.uleb128 .LFE17-.LVL62
 3800 00a0 01       		.uleb128 0x1
 3801 00a1 57       		.byte	0x57
 3802 00a2 00       		.byte	0
 3803              	.LVUS57:
 3804 00a3 01       		.uleb128 .LVU439
 3805 00a4 00       		.uleb128 .LVU460
 3806              	.LLST57:
 3807 00a5 08       		.byte	0x8
 3808 00a6 94000000 		.4byte	.LVL70
 3809 00aa 30       		.uleb128 .LVL73-.LVL70
 3810 00ab 01       		.uleb128 0x1
 3811 00ac 59       		.byte	0x59
 3812 00ad 00       		.byte	0
 3813              	.LVUS59:
 3814 00ae 01       		.uleb128 .LVU448
 3815 00af 00       		.uleb128 .LVU457
 3816              	.LLST59:
 3817 00b0 08       		.byte	0x8
 3818 00b1 AC000000 		.4byte	.LVL71
 3819 00b5 14       		.uleb128 .LVL72-.LVL71
ARM GAS  /tmp/cc4iwVme.s 			page 68


 3820 00b6 02       		.uleb128 0x2
 3821 00b7 73       		.byte	0x73
 3822 00b8 24       		.sleb128 36
 3823 00b9 00       		.byte	0
 3824              	.LVUS60:
 3825 00ba 01       		.uleb128 .LVU448
 3826 00bb 00       		.uleb128 .LVU457
 3827              	.LLST60:
 3828 00bc 08       		.byte	0x8
 3829 00bd AC000000 		.4byte	.LVL71
 3830 00c1 14       		.uleb128 .LVL72-.LVL71
 3831 00c2 01       		.uleb128 0x1
 3832 00c3 53       		.byte	0x53
 3833 00c4 00       		.byte	0
 3834              	.LVUS46:
 3835 00c5 00       		.uleb128 0
 3836 00c6 00       		.uleb128 .LVU350
 3837 00c7 00       		.uleb128 .LVU350
 3838 00c8 00       		.uleb128 .LVU380
 3839 00c9 00       		.uleb128 .LVU380
 3840 00ca 00       		.uleb128 .LVU384
 3841 00cb 00       		.uleb128 .LVU384
 3842 00cc 00       		.uleb128 0
 3843              	.LLST46:
 3844 00cd 06       		.byte	0x6
 3845 00ce 00000000 		.4byte	.LVL54
 3846 00d2 04       		.byte	0x4
 3847 00d3 00       		.uleb128 .LVL54-.LVL54
 3848 00d4 08       		.uleb128 .LVL55-.LVL54
 3849 00d5 01       		.uleb128 0x1
 3850 00d6 50       		.byte	0x50
 3851 00d7 04       		.byte	0x4
 3852 00d8 08       		.uleb128 .LVL55-.LVL54
 3853 00d9 57       		.uleb128 .LVL59-1-.LVL54
 3854 00da 01       		.uleb128 0x1
 3855 00db 53       		.byte	0x53
 3856 00dc 04       		.byte	0x4
 3857 00dd 57       		.uleb128 .LVL59-1-.LVL54
 3858 00de 68       		.uleb128 .LVL60-.LVL54
 3859 00df 04       		.uleb128 0x4
 3860 00e0 A3       		.byte	0xa3
 3861 00e1 01       		.uleb128 0x1
 3862 00e2 50       		.byte	0x50
 3863 00e3 9F       		.byte	0x9f
 3864 00e4 04       		.byte	0x4
 3865 00e5 68       		.uleb128 .LVL60-.LVL54
 3866 00e6 78       		.uleb128 .LFE16-.LVL54
 3867 00e7 01       		.uleb128 0x1
 3868 00e8 53       		.byte	0x53
 3869 00e9 00       		.byte	0
 3870              	.LVUS47:
 3871 00ea 00       		.uleb128 .LVU365
 3872 00eb 00       		.uleb128 .LVU384
 3873              	.LLST47:
 3874 00ec 08       		.byte	0x8
 3875 00ed 3C000000 		.4byte	.LVL56
 3876 00f1 2C       		.uleb128 .LVL60-.LVL56
ARM GAS  /tmp/cc4iwVme.s 			page 69


 3877 00f2 01       		.uleb128 0x1
 3878 00f3 54       		.byte	0x54
 3879 00f4 00       		.byte	0
 3880              	.LVUS48:
 3881 00f5 01       		.uleb128 .LVU371
 3882 00f6 01       		.uleb128 .LVU378
 3883              	.LLST48:
 3884 00f7 08       		.byte	0x8
 3885 00f8 48000000 		.4byte	.LVL57
 3886 00fc 0C       		.uleb128 .LVL58-.LVL57
 3887 00fd 01       		.uleb128 0x1
 3888 00fe 53       		.byte	0x53
 3889 00ff 00       		.byte	0
 3890              	.LVUS49:
 3891 0100 03       		.uleb128 .LVU373
 3892 0101 01       		.uleb128 .LVU378
 3893              	.LLST49:
 3894 0102 08       		.byte	0x8
 3895 0103 48000000 		.4byte	.LVL57
 3896 0107 0C       		.uleb128 .LVL58-.LVL57
 3897 0108 01       		.uleb128 0x1
 3898 0109 50       		.byte	0x50
 3899 010a 00       		.byte	0
 3900              	.LVUS36:
 3901 010b 00       		.uleb128 0
 3902 010c 00       		.uleb128 .LVU290
 3903 010d 00       		.uleb128 .LVU290
 3904 010e 00       		.uleb128 0
 3905              	.LLST36:
 3906 010f 06       		.byte	0x6
 3907 0110 00000000 		.4byte	.LVL46
 3908 0114 04       		.byte	0x4
 3909 0115 00       		.uleb128 .LVL46-.LVL46
 3910 0116 1C       		.uleb128 .LVL47-.LVL46
 3911 0117 01       		.uleb128 0x1
 3912 0118 50       		.byte	0x50
 3913 0119 04       		.byte	0x4
 3914 011a 1C       		.uleb128 .LVL47-.LVL46
 3915 011b B801     		.uleb128 .LFE15-.LVL46
 3916 011d 01       		.uleb128 0x1
 3917 011e 54       		.byte	0x54
 3918 011f 00       		.byte	0
 3919              	.LVUS37:
 3920 0120 00       		.uleb128 0
 3921 0121 00       		.uleb128 .LVU290
 3922 0122 00       		.uleb128 .LVU290
 3923 0123 00       		.uleb128 0
 3924              	.LLST37:
 3925 0124 06       		.byte	0x6
 3926 0125 00000000 		.4byte	.LVL46
 3927 0129 04       		.byte	0x4
 3928 012a 00       		.uleb128 .LVL46-.LVL46
 3929 012b 1C       		.uleb128 .LVL47-.LVL46
 3930 012c 01       		.uleb128 0x1
 3931 012d 51       		.byte	0x51
 3932 012e 04       		.byte	0x4
 3933 012f 1C       		.uleb128 .LVL47-.LVL46
ARM GAS  /tmp/cc4iwVme.s 			page 70


 3934 0130 B801     		.uleb128 .LFE15-.LVL46
 3935 0132 04       		.uleb128 0x4
 3936 0133 A3       		.byte	0xa3
 3937 0134 01       		.uleb128 0x1
 3938 0135 51       		.byte	0x51
 3939 0136 9F       		.byte	0x9f
 3940 0137 00       		.byte	0
 3941              	.LVUS38:
 3942 0138 00       		.uleb128 0
 3943 0139 00       		.uleb128 .LVU290
 3944 013a 00       		.uleb128 .LVU290
 3945 013b 00       		.uleb128 0
 3946              	.LLST38:
 3947 013c 06       		.byte	0x6
 3948 013d 00000000 		.4byte	.LVL46
 3949 0141 04       		.byte	0x4
 3950 0142 00       		.uleb128 .LVL46-.LVL46
 3951 0143 1C       		.uleb128 .LVL47-.LVL46
 3952 0144 01       		.uleb128 0x1
 3953 0145 52       		.byte	0x52
 3954 0146 04       		.byte	0x4
 3955 0147 1C       		.uleb128 .LVL47-.LVL46
 3956 0148 B801     		.uleb128 .LFE15-.LVL46
 3957 014a 01       		.uleb128 0x1
 3958 014b 55       		.byte	0x55
 3959 014c 00       		.byte	0
 3960              	.LVUS40:
 3961 014d 00       		.uleb128 .LVU306
 3962 014e 00       		.uleb128 .LVU309
 3963              	.LLST40:
 3964 014f 08       		.byte	0x8
 3965 0150 48000000 		.4byte	.LVL50
 3966 0154 08       		.uleb128 .LVL51-.LVL50
 3967 0155 01       		.uleb128 0x1
 3968 0156 50       		.byte	0x50
 3969 0157 00       		.byte	0
 3970              	.LVUS42:
 3971 0158 00       		.uleb128 .LVU290
 3972 0159 00       		.uleb128 .LVU306
 3973 015a 02       		.uleb128 .LVU311
 3974 015b 00       		.uleb128 .LVU337
 3975              	.LLST42:
 3976 015c 06       		.byte	0x6
 3977 015d 1C000000 		.4byte	.LVL47
 3978 0161 04       		.byte	0x4
 3979 0162 00       		.uleb128 .LVL47-.LVL47
 3980 0163 2C       		.uleb128 .LVL50-.LVL47
 3981 0164 01       		.uleb128 0x1
 3982 0165 55       		.byte	0x55
 3983 0166 04       		.byte	0x4
 3984 0167 34       		.uleb128 .LVL51-.LVL47
 3985 0168 9001     		.uleb128 .LVL53-.LVL47
 3986 016a 01       		.uleb128 0x1
 3987 016b 55       		.byte	0x55
 3988 016c 00       		.byte	0
 3989              	.LVUS44:
 3990 016d 01       		.uleb128 .LVU297
ARM GAS  /tmp/cc4iwVme.s 			page 71


 3991 016e 00       		.uleb128 .LVU303
 3992              	.LLST44:
 3993 016f 08       		.byte	0x8
 3994 0170 38000000 		.4byte	.LVL48
 3995 0174 0C       		.uleb128 .LVL49-.LVL48
 3996 0175 02       		.uleb128 0x2
 3997 0176 73       		.byte	0x73
 3998 0177 00       		.sleb128 0
 3999 0178 00       		.byte	0
 4000              	.LVUS45:
 4001 0179 01       		.uleb128 .LVU297
 4002 017a 00       		.uleb128 .LVU303
 4003              	.LLST45:
 4004 017b 08       		.byte	0x8
 4005 017c 38000000 		.4byte	.LVL48
 4006 0180 0C       		.uleb128 .LVL49-.LVL48
 4007 0181 01       		.uleb128 0x1
 4008 0182 53       		.byte	0x53
 4009 0183 00       		.byte	0
 4010              	.LVUS32:
 4011 0184 00       		.uleb128 0
 4012 0185 00       		.uleb128 .LVU266
 4013 0186 00       		.uleb128 .LVU266
 4014 0187 00       		.uleb128 0
 4015              	.LLST32:
 4016 0188 06       		.byte	0x6
 4017 0189 00000000 		.4byte	.LVL42
 4018 018d 04       		.byte	0x4
 4019 018e 00       		.uleb128 .LVL42-.LVL42
 4020 018f 30       		.uleb128 .LVL43-.LVL42
 4021 0190 01       		.uleb128 0x1
 4022 0191 50       		.byte	0x50
 4023 0192 04       		.byte	0x4
 4024 0193 30       		.uleb128 .LVL43-.LVL42
 4025 0194 58       		.uleb128 .LFE14-.LVL42
 4026 0195 01       		.uleb128 0x1
 4027 0196 54       		.byte	0x54
 4028 0197 00       		.byte	0
 4029              	.LVUS34:
 4030 0198 01       		.uleb128 .LVU267
 4031 0199 01       		.uleb128 .LVU275
 4032              	.LLST34:
 4033 019a 08       		.byte	0x8
 4034 019b 30000000 		.4byte	.LVL43
 4035 019f 10       		.uleb128 .LVL44-.LVL43
 4036 01a0 01       		.uleb128 0x1
 4037 01a1 54       		.byte	0x54
 4038 01a2 00       		.byte	0
 4039              	.LVUS35:
 4040 01a3 03       		.uleb128 .LVU269
 4041 01a4 01       		.uleb128 .LVU275
 4042              	.LLST35:
 4043 01a5 08       		.byte	0x8
 4044 01a6 30000000 		.4byte	.LVL43
 4045 01aa 10       		.uleb128 .LVL44-.LVL43
 4046 01ab 01       		.uleb128 0x1
 4047 01ac 53       		.byte	0x53
ARM GAS  /tmp/cc4iwVme.s 			page 72


 4048 01ad 00       		.byte	0
 4049              	.LVUS31:
 4050 01ae 00       		.uleb128 0
 4051 01af 00       		.uleb128 .LVU235
 4052 01b0 00       		.uleb128 .LVU235
 4053 01b1 00       		.uleb128 0
 4054              	.LLST31:
 4055 01b2 06       		.byte	0x6
 4056 01b3 00000000 		.4byte	.LVL40
 4057 01b7 04       		.byte	0x4
 4058 01b8 00       		.uleb128 .LVL40-.LVL40
 4059 01b9 0C       		.uleb128 .LVL41-.LVL40
 4060 01ba 01       		.uleb128 0x1
 4061 01bb 52       		.byte	0x52
 4062 01bc 04       		.byte	0x4
 4063 01bd 0C       		.uleb128 .LVL41-.LVL40
 4064 01be 30       		.uleb128 .LFE13-.LVL40
 4065 01bf 02       		.uleb128 0x2
 4066 01c0 70       		.byte	0x70
 4067 01c1 08       		.sleb128 8
 4068 01c2 00       		.byte	0
 4069              	.LVUS20:
 4070 01c3 00       		.uleb128 0
 4071 01c4 00       		.uleb128 .LVU172
 4072 01c5 00       		.uleb128 .LVU172
 4073 01c6 00       		.uleb128 0
 4074              	.LLST20:
 4075 01c7 06       		.byte	0x6
 4076 01c8 00000000 		.4byte	.LVL27
 4077 01cc 04       		.byte	0x4
 4078 01cd 00       		.uleb128 .LVL27-.LVL27
 4079 01ce 24       		.uleb128 .LVL29-.LVL27
 4080 01cf 01       		.uleb128 0x1
 4081 01d0 50       		.byte	0x50
 4082 01d1 04       		.byte	0x4
 4083 01d2 24       		.uleb128 .LVL29-.LVL27
 4084 01d3 D001     		.uleb128 .LFE12-.LVL27
 4085 01d5 01       		.uleb128 0x1
 4086 01d6 54       		.byte	0x54
 4087 01d7 00       		.byte	0
 4088              	.LVUS21:
 4089 01d8 00       		.uleb128 0
 4090 01d9 00       		.uleb128 .LVU172
 4091 01da 00       		.uleb128 .LVU172
 4092 01db 00       		.uleb128 .LVU207
 4093 01dc 00       		.uleb128 .LVU207
 4094 01dd 00       		.uleb128 .LVU209
 4095 01de 00       		.uleb128 .LVU209
 4096 01df 00       		.uleb128 0
 4097              	.LLST21:
 4098 01e0 06       		.byte	0x6
 4099 01e1 00000000 		.4byte	.LVL27
 4100 01e5 04       		.byte	0x4
 4101 01e6 00       		.uleb128 .LVL27-.LVL27
 4102 01e7 24       		.uleb128 .LVL29-.LVL27
 4103 01e8 01       		.uleb128 0x1
 4104 01e9 51       		.byte	0x51
ARM GAS  /tmp/cc4iwVme.s 			page 73


 4105 01ea 04       		.byte	0x4
 4106 01eb 24       		.uleb128 .LVL29-.LVL27
 4107 01ec 8C01     		.uleb128 .LVL36-.LVL27
 4108 01ee 01       		.uleb128 0x1
 4109 01ef 57       		.byte	0x57
 4110 01f0 04       		.byte	0x4
 4111 01f1 8C01     		.uleb128 .LVL36-.LVL27
 4112 01f3 9401     		.uleb128 .LVL37-.LVL27
 4113 01f5 03       		.uleb128 0x3
 4114 01f6 77       		.byte	0x77
 4115 01f7 01       		.sleb128 1
 4116 01f8 9F       		.byte	0x9f
 4117 01f9 04       		.byte	0x4
 4118 01fa 9401     		.uleb128 .LVL37-.LVL27
 4119 01fc D001     		.uleb128 .LFE12-.LVL27
 4120 01fe 01       		.uleb128 0x1
 4121 01ff 57       		.byte	0x57
 4122 0200 00       		.byte	0
 4123              	.LVUS22:
 4124 0201 00       		.uleb128 0
 4125 0202 00       		.uleb128 .LVU172
 4126 0203 01       		.uleb128 .LVU219
 4127 0204 00       		.uleb128 .LVU225
 4128              	.LLST22:
 4129 0205 06       		.byte	0x6
 4130 0206 00000000 		.4byte	.LVL27
 4131 020a 04       		.byte	0x4
 4132 020b 00       		.uleb128 .LVL27-.LVL27
 4133 020c 24       		.uleb128 .LVL29-.LVL27
 4134 020d 01       		.uleb128 0x1
 4135 020e 52       		.byte	0x52
 4136 020f 04       		.byte	0x4
 4137 0210 B001     		.uleb128 .LVL38-.LVL27
 4138 0212 C001     		.uleb128 .LVL39-.LVL27
 4139 0214 06       		.uleb128 0x6
 4140 0215 79       		.byte	0x79
 4141 0216 00       		.sleb128 0
 4142 0217 76       		.byte	0x76
 4143 0218 00       		.sleb128 0
 4144 0219 1C       		.byte	0x1c
 4145 021a 9F       		.byte	0x9f
 4146 021b 00       		.byte	0
 4147              	.LVUS23:
 4148 021c 00       		.uleb128 0
 4149 021d 00       		.uleb128 .LVU172
 4150 021e 00       		.uleb128 .LVU172
 4151 021f 00       		.uleb128 0
 4152              	.LLST23:
 4153 0220 06       		.byte	0x6
 4154 0221 00000000 		.4byte	.LVL27
 4155 0225 04       		.byte	0x4
 4156 0226 00       		.uleb128 .LVL27-.LVL27
 4157 0227 24       		.uleb128 .LVL29-.LVL27
 4158 0228 01       		.uleb128 0x1
 4159 0229 53       		.byte	0x53
 4160 022a 04       		.byte	0x4
 4161 022b 24       		.uleb128 .LVL29-.LVL27
ARM GAS  /tmp/cc4iwVme.s 			page 74


 4162 022c D001     		.uleb128 .LFE12-.LVL27
 4163 022e 01       		.uleb128 0x1
 4164 022f 5A       		.byte	0x5a
 4165 0230 00       		.byte	0
 4166              	.LVUS24:
 4167 0231 00       		.uleb128 .LVU166
 4168 0232 00       		.uleb128 0
 4169              	.LLST24:
 4170 0233 08       		.byte	0x8
 4171 0234 18000000 		.4byte	.LVL28
 4172 0238 B801     		.uleb128 .LFE12-.LVL28
 4173 023a 01       		.uleb128 0x1
 4174 023b 58       		.byte	0x58
 4175 023c 00       		.byte	0
 4176              	.LVUS25:
 4177 023d 01       		.uleb128 .LVU167
 4178 023e 00       		.uleb128 .LVU172
 4179 023f 00       		.uleb128 .LVU172
 4180 0240 00       		.uleb128 0
 4181              	.LLST25:
 4182 0241 06       		.byte	0x6
 4183 0242 18000000 		.4byte	.LVL28
 4184 0246 04       		.byte	0x4
 4185 0247 00       		.uleb128 .LVL28-.LVL28
 4186 0248 0C       		.uleb128 .LVL29-.LVL28
 4187 0249 02       		.uleb128 0x2
 4188 024a 30       		.byte	0x30
 4189 024b 9F       		.byte	0x9f
 4190 024c 04       		.byte	0x4
 4191 024d 0C       		.uleb128 .LVL29-.LVL28
 4192 024e B801     		.uleb128 .LFE12-.LVL28
 4193 0250 01       		.uleb128 0x1
 4194 0251 56       		.byte	0x56
 4195 0252 00       		.byte	0
 4196              	.LVUS27:
 4197 0253 00       		.uleb128 .LVU179
 4198 0254 00       		.uleb128 .LVU195
 4199 0255 01       		.uleb128 .LVU198
 4200 0256 00       		.uleb128 .LVU225
 4201              	.LLST27:
 4202 0257 06       		.byte	0x6
 4203 0258 38000000 		.4byte	.LVL31
 4204 025c 04       		.byte	0x4
 4205 025d 00       		.uleb128 .LVL31-.LVL31
 4206 025e 2C       		.uleb128 .LVL34-.LVL31
 4207 025f 01       		.uleb128 0x1
 4208 0260 5A       		.byte	0x5a
 4209 0261 04       		.byte	0x4
 4210 0262 34       		.uleb128 .LVL35-.LVL31
 4211 0263 8801     		.uleb128 .LVL39-.LVL31
 4212 0265 01       		.uleb128 0x1
 4213 0266 5A       		.byte	0x5a
 4214 0267 00       		.byte	0
 4215              	.LVUS29:
 4216 0268 01       		.uleb128 .LVU186
 4217 0269 00       		.uleb128 .LVU192
 4218              	.LLST29:
ARM GAS  /tmp/cc4iwVme.s 			page 75


 4219 026a 08       		.byte	0x8
 4220 026b 54000000 		.4byte	.LVL32
 4221 026f 0C       		.uleb128 .LVL33-.LVL32
 4222 0270 02       		.uleb128 0x2
 4223 0271 7C       		.byte	0x7c
 4224 0272 00       		.sleb128 0
 4225 0273 00       		.byte	0
 4226              	.LVUS30:
 4227 0274 01       		.uleb128 .LVU186
 4228 0275 00       		.uleb128 .LVU192
 4229              	.LLST30:
 4230 0276 08       		.byte	0x8
 4231 0277 54000000 		.4byte	.LVL32
 4232 027b 0C       		.uleb128 .LVL33-.LVL32
 4233 027c 01       		.uleb128 0x1
 4234 027d 5C       		.byte	0x5c
 4235 027e 00       		.byte	0
 4236              	.LVUS10:
 4237 027f 00       		.uleb128 0
 4238 0280 00       		.uleb128 .LVU106
 4239 0281 00       		.uleb128 .LVU106
 4240 0282 00       		.uleb128 0
 4241              	.LLST10:
 4242 0283 06       		.byte	0x6
 4243 0284 00000000 		.4byte	.LVL16
 4244 0288 04       		.byte	0x4
 4245 0289 00       		.uleb128 .LVL16-.LVL16
 4246 028a 1F       		.uleb128 .LVL17-1-.LVL16
 4247 028b 01       		.uleb128 0x1
 4248 028c 50       		.byte	0x50
 4249 028d 04       		.byte	0x4
 4250 028e 1F       		.uleb128 .LVL17-1-.LVL16
 4251 028f AC01     		.uleb128 .LFE11-.LVL16
 4252 0291 01       		.uleb128 0x1
 4253 0292 54       		.byte	0x54
 4254 0293 00       		.byte	0
 4255              	.LVUS11:
 4256 0294 00       		.uleb128 0
 4257 0295 00       		.uleb128 .LVU106
 4258 0296 00       		.uleb128 .LVU106
 4259 0297 00       		.uleb128 0
 4260              	.LLST11:
 4261 0298 06       		.byte	0x6
 4262 0299 00000000 		.4byte	.LVL16
 4263 029d 04       		.byte	0x4
 4264 029e 00       		.uleb128 .LVL16-.LVL16
 4265 029f 1F       		.uleb128 .LVL17-1-.LVL16
 4266 02a0 01       		.uleb128 0x1
 4267 02a1 51       		.byte	0x51
 4268 02a2 04       		.byte	0x4
 4269 02a3 1F       		.uleb128 .LVL17-1-.LVL16
 4270 02a4 AC01     		.uleb128 .LFE11-.LVL16
 4271 02a6 01       		.uleb128 0x1
 4272 02a7 55       		.byte	0x55
 4273 02a8 00       		.byte	0
 4274              	.LVUS12:
 4275 02a9 00       		.uleb128 .LVU144
ARM GAS  /tmp/cc4iwVme.s 			page 76


 4276 02aa 00       		.uleb128 .LVU147
 4277              	.LLST12:
 4278 02ab 08       		.byte	0x8
 4279 02ac 90000000 		.4byte	.LVL23
 4280 02b0 04       		.uleb128 .LVL24-.LVL23
 4281 02b1 01       		.uleb128 0x1
 4282 02b2 50       		.byte	0x50
 4283 02b3 00       		.byte	0
 4284              	.LVUS14:
 4285 02b4 00       		.uleb128 .LVU125
 4286 02b5 00       		.uleb128 .LVU128
 4287              	.LLST14:
 4288 02b6 08       		.byte	0x8
 4289 02b7 58000000 		.4byte	.LVL21
 4290 02bb 08       		.uleb128 .LVL22-.LVL21
 4291 02bc 01       		.uleb128 0x1
 4292 02bd 50       		.byte	0x50
 4293 02be 00       		.byte	0
 4294              	.LVUS16:
 4295 02bf 00       		.uleb128 .LVU107
 4296 02c0 00       		.uleb128 .LVU125
 4297 02c1 02       		.uleb128 .LVU130
 4298 02c2 00       		.uleb128 .LVU147
 4299 02c3 00       		.uleb128 .LVU152
 4300 02c4 00       		.uleb128 .LVU153
 4301              	.LLST16:
 4302 02c5 06       		.byte	0x6
 4303 02c6 28000000 		.4byte	.LVL18
 4304 02ca 04       		.byte	0x4
 4305 02cb 00       		.uleb128 .LVL18-.LVL18
 4306 02cc 30       		.uleb128 .LVL21-.LVL18
 4307 02cd 01       		.uleb128 0x1
 4308 02ce 55       		.byte	0x55
 4309 02cf 04       		.byte	0x4
 4310 02d0 38       		.uleb128 .LVL22-.LVL18
 4311 02d1 6C       		.uleb128 .LVL24-.LVL18
 4312 02d2 01       		.uleb128 0x1
 4313 02d3 55       		.byte	0x55
 4314 02d4 04       		.byte	0x4
 4315 02d5 74       		.uleb128 .LVL25-.LVL18
 4316 02d6 78       		.uleb128 .LVL26-.LVL18
 4317 02d7 01       		.uleb128 0x1
 4318 02d8 55       		.byte	0x55
 4319 02d9 00       		.byte	0
 4320              	.LVUS18:
 4321 02da 01       		.uleb128 .LVU113
 4322 02db 00       		.uleb128 .LVU122
 4323              	.LLST18:
 4324 02dc 08       		.byte	0x8
 4325 02dd 40000000 		.4byte	.LVL19
 4326 02e1 14       		.uleb128 .LVL20-.LVL19
 4327 02e2 02       		.uleb128 0x2
 4328 02e3 73       		.byte	0x73
 4329 02e4 24       		.sleb128 36
 4330 02e5 00       		.byte	0
 4331              	.LVUS19:
 4332 02e6 01       		.uleb128 .LVU113
ARM GAS  /tmp/cc4iwVme.s 			page 77


 4333 02e7 00       		.uleb128 .LVU122
 4334              	.LLST19:
 4335 02e8 08       		.byte	0x8
 4336 02e9 40000000 		.4byte	.LVL19
 4337 02ed 14       		.uleb128 .LVL20-.LVL19
 4338 02ee 01       		.uleb128 0x1
 4339 02ef 53       		.byte	0x53
 4340 02f0 00       		.byte	0
 4341              	.LVUS5:
 4342 02f1 00       		.uleb128 0
 4343 02f2 00       		.uleb128 .LVU57
 4344 02f3 00       		.uleb128 .LVU57
 4345 02f4 00       		.uleb128 .LVU85
 4346 02f5 00       		.uleb128 .LVU85
 4347 02f6 00       		.uleb128 .LVU90
 4348 02f7 00       		.uleb128 .LVU90
 4349 02f8 00       		.uleb128 0
 4350              	.LLST5:
 4351 02f9 06       		.byte	0x6
 4352 02fa 00000000 		.4byte	.LVL6
 4353 02fe 04       		.byte	0x4
 4354 02ff 00       		.uleb128 .LVL6-.LVL6
 4355 0300 08       		.uleb128 .LVL7-.LVL6
 4356 0301 01       		.uleb128 0x1
 4357 0302 50       		.byte	0x50
 4358 0303 04       		.byte	0x4
 4359 0304 08       		.uleb128 .LVL7-.LVL6
 4360 0305 5F       		.uleb128 .LVL13-1-.LVL6
 4361 0306 01       		.uleb128 0x1
 4362 0307 53       		.byte	0x53
 4363 0308 04       		.byte	0x4
 4364 0309 5F       		.uleb128 .LVL13-1-.LVL6
 4365 030a 74       		.uleb128 .LVL14-.LVL6
 4366 030b 04       		.uleb128 0x4
 4367 030c A3       		.byte	0xa3
 4368 030d 01       		.uleb128 0x1
 4369 030e 50       		.byte	0x50
 4370 030f 9F       		.byte	0x9f
 4371 0310 04       		.byte	0x4
 4372 0311 74       		.uleb128 .LVL14-.LVL6
 4373 0312 8C01     		.uleb128 .LFE10-.LVL6
 4374 0314 01       		.uleb128 0x1
 4375 0315 53       		.byte	0x53
 4376 0316 00       		.byte	0
 4377              	.LVUS6:
 4378 0317 00       		.uleb128 0
 4379 0318 00       		.uleb128 .LVU68
 4380 0319 00       		.uleb128 .LVU68
 4381 031a 00       		.uleb128 .LVU69
 4382 031b 00       		.uleb128 .LVU69
 4383 031c 00       		.uleb128 .LVU72
 4384 031d 00       		.uleb128 .LVU72
 4385 031e 00       		.uleb128 .LVU92
 4386 031f 00       		.uleb128 .LVU92
 4387 0320 00       		.uleb128 0
 4388              	.LLST6:
 4389 0321 06       		.byte	0x6
ARM GAS  /tmp/cc4iwVme.s 			page 78


 4390 0322 00000000 		.4byte	.LVL6
 4391 0326 04       		.byte	0x4
 4392 0327 00       		.uleb128 .LVL6-.LVL6
 4393 0328 34       		.uleb128 .LVL8-.LVL6
 4394 0329 01       		.uleb128 0x1
 4395 032a 51       		.byte	0x51
 4396 032b 04       		.byte	0x4
 4397 032c 34       		.uleb128 .LVL8-.LVL6
 4398 032d 38       		.uleb128 .LVL9-.LVL6
 4399 032e 02       		.uleb128 0x2
 4400 032f 70       		.byte	0x70
 4401 0330 00       		.sleb128 0
 4402 0331 04       		.byte	0x4
 4403 0332 38       		.uleb128 .LVL9-.LVL6
 4404 0333 44       		.uleb128 .LVL10-.LVL6
 4405 0334 02       		.uleb128 0x2
 4406 0335 7C       		.byte	0x7c
 4407 0336 7F       		.sleb128 -1
 4408 0337 04       		.byte	0x4
 4409 0338 44       		.uleb128 .LVL10-.LVL6
 4410 0339 7C       		.uleb128 .LVL15-.LVL6
 4411 033a 04       		.uleb128 0x4
 4412 033b A3       		.byte	0xa3
 4413 033c 01       		.uleb128 0x1
 4414 033d 51       		.byte	0x51
 4415 033e 9F       		.byte	0x9f
 4416 033f 04       		.byte	0x4
 4417 0340 7C       		.uleb128 .LVL15-.LVL6
 4418 0341 8C01     		.uleb128 .LFE10-.LVL6
 4419 0343 01       		.uleb128 0x1
 4420 0344 51       		.byte	0x51
 4421 0345 00       		.byte	0
 4422              	.LVUS8:
 4423 0346 01       		.uleb128 .LVU75
 4424 0347 01       		.uleb128 .LVU83
 4425              	.LLST8:
 4426 0348 08       		.byte	0x8
 4427 0349 4C000000 		.4byte	.LVL11
 4428 034d 10       		.uleb128 .LVL12-.LVL11
 4429 034e 01       		.uleb128 0x1
 4430 034f 53       		.byte	0x53
 4431 0350 00       		.byte	0
 4432              	.LVUS9:
 4433 0351 03       		.uleb128 .LVU77
 4434 0352 01       		.uleb128 .LVU83
 4435              	.LLST9:
 4436 0353 08       		.byte	0x8
 4437 0354 4C000000 		.4byte	.LVL11
 4438 0358 10       		.uleb128 .LVL12-.LVL11
 4439 0359 01       		.uleb128 0x1
 4440 035a 50       		.byte	0x50
 4441 035b 00       		.byte	0
 4442              	.LVUS1:
 4443 035c 00       		.uleb128 0
 4444 035d 00       		.uleb128 .LVU37
 4445 035e 00       		.uleb128 .LVU37
 4446 035f 00       		.uleb128 0
ARM GAS  /tmp/cc4iwVme.s 			page 79


 4447              	.LLST1:
 4448 0360 06       		.byte	0x6
 4449 0361 00000000 		.4byte	.LVL2
 4450 0365 04       		.byte	0x4
 4451 0366 00       		.uleb128 .LVL2-.LVL2
 4452 0367 2C       		.uleb128 .LVL3-.LVL2
 4453 0368 01       		.uleb128 0x1
 4454 0369 50       		.byte	0x50
 4455 036a 04       		.byte	0x4
 4456 036b 2C       		.uleb128 .LVL3-.LVL2
 4457 036c 54       		.uleb128 .LFE9-.LVL2
 4458 036d 01       		.uleb128 0x1
 4459 036e 54       		.byte	0x54
 4460 036f 00       		.byte	0
 4461              	.LVUS3:
 4462 0370 01       		.uleb128 .LVU38
 4463 0371 01       		.uleb128 .LVU46
 4464              	.LLST3:
 4465 0372 08       		.byte	0x8
 4466 0373 2C000000 		.4byte	.LVL3
 4467 0377 10       		.uleb128 .LVL4-.LVL3
 4468 0378 01       		.uleb128 0x1
 4469 0379 54       		.byte	0x54
 4470 037a 00       		.byte	0
 4471              	.LVUS4:
 4472 037b 03       		.uleb128 .LVU40
 4473 037c 01       		.uleb128 .LVU46
 4474              	.LLST4:
 4475 037d 08       		.byte	0x8
 4476 037e 2C000000 		.4byte	.LVL3
 4477 0382 10       		.uleb128 .LVL4-.LVL3
 4478 0383 01       		.uleb128 0x1
 4479 0384 53       		.byte	0x53
 4480 0385 00       		.byte	0
 4481              	.LVUS0:
 4482 0386 00       		.uleb128 0
 4483 0387 00       		.uleb128 .LVU6
 4484 0388 00       		.uleb128 .LVU6
 4485 0389 00       		.uleb128 0
 4486              	.LLST0:
 4487 038a 06       		.byte	0x6
 4488 038b 00000000 		.4byte	.LVL0
 4489 038f 04       		.byte	0x4
 4490 0390 00       		.uleb128 .LVL0-.LVL0
 4491 0391 10       		.uleb128 .LVL1-.LVL0
 4492 0392 01       		.uleb128 0x1
 4493 0393 52       		.byte	0x52
 4494 0394 04       		.byte	0x4
 4495 0395 10       		.uleb128 .LVL1-.LVL0
 4496 0396 38       		.uleb128 .LFE8-.LVL0
 4497 0397 04       		.uleb128 0x4
 4498 0398 A3       		.byte	0xa3
 4499 0399 01       		.uleb128 0x1
 4500 039a 52       		.byte	0x52
 4501 039b 9F       		.byte	0x9f
 4502 039c 00       		.byte	0
 4503              	.Ldebug_loc3:
ARM GAS  /tmp/cc4iwVme.s 			page 80


 4504              		.section	.debug_aranges,"",%progbits
 4505 0000 64000000 		.4byte	0x64
 4506 0004 0200     		.2byte	0x2
 4507 0006 00000000 		.4byte	.Ldebug_info0
 4508 000a 04       		.byte	0x4
 4509 000b 00       		.byte	0
 4510 000c 0000     		.2byte	0
 4511 000e 0000     		.2byte	0
 4512 0010 00000000 		.4byte	.LFB8
 4513 0014 38000000 		.4byte	.LFE8-.LFB8
 4514 0018 00000000 		.4byte	.LFB9
 4515 001c 54000000 		.4byte	.LFE9-.LFB9
 4516 0020 00000000 		.4byte	.LFB10
 4517 0024 8C000000 		.4byte	.LFE10-.LFB10
 4518 0028 00000000 		.4byte	.LFB11
 4519 002c AC000000 		.4byte	.LFE11-.LFB11
 4520 0030 00000000 		.4byte	.LFB12
 4521 0034 D0000000 		.4byte	.LFE12-.LFB12
 4522 0038 00000000 		.4byte	.LFB13
 4523 003c 30000000 		.4byte	.LFE13-.LFB13
 4524 0040 00000000 		.4byte	.LFB14
 4525 0044 58000000 		.4byte	.LFE14-.LFB14
 4526 0048 00000000 		.4byte	.LFB15
 4527 004c B8000000 		.4byte	.LFE15-.LFB15
 4528 0050 00000000 		.4byte	.LFB16
 4529 0054 78000000 		.4byte	.LFE16-.LFB16
 4530 0058 00000000 		.4byte	.LFB17
 4531 005c DC000000 		.4byte	.LFE17-.LFB17
 4532 0060 00000000 		.4byte	0
 4533 0064 00000000 		.4byte	0
 4534              		.section	.debug_rnglists,"",%progbits
 4535              	.Ldebug_ranges0:
 4536 0000 0E010000 		.4byte	.Ldebug_ranges3-.Ldebug_ranges2
 4537              	.Ldebug_ranges2:
 4538 0004 0500     		.2byte	0x5
 4539 0006 04       		.byte	0x4
 4540 0007 00       		.byte	0
 4541 0008 00000000 		.4byte	0
 4542              	.LLRL2:
 4543 000c 05       		.byte	0x5
 4544 000d 2C000000 		.4byte	.LBB12
 4545 0011 04       		.byte	0x4
 4546 0012 00       		.uleb128 .LBB12-.LBB12
 4547 0013 04       		.uleb128 .LBE12-.LBB12
 4548 0014 04       		.byte	0x4
 4549 0015 08       		.uleb128 .LBB15-.LBB12
 4550 0016 10       		.uleb128 .LBE15-.LBB12
 4551 0017 00       		.byte	0
 4552              	.LLRL7:
 4553 0018 05       		.byte	0x5
 4554 0019 4C000000 		.4byte	.LBB16
 4555 001d 04       		.byte	0x4
 4556 001e 00       		.uleb128 .LBB16-.LBB16
 4557 001f 04       		.uleb128 .LBE16-.LBB16
 4558 0020 04       		.byte	0x4
 4559 0021 08       		.uleb128 .LBB19-.LBB16
 4560 0022 10       		.uleb128 .LBE19-.LBB16
ARM GAS  /tmp/cc4iwVme.s 			page 81


 4561 0023 00       		.byte	0
 4562              	.LLRL13:
 4563 0024 05       		.byte	0x5
 4564 0025 20000000 		.4byte	.LBB25
 4565 0029 04       		.byte	0x4
 4566 002a 00       		.uleb128 .LBB25-.LBB25
 4567 002b 40       		.uleb128 .LBE25-.LBB25
 4568 002c 04       		.byte	0x4
 4569 002d 7C       		.uleb128 .LBB38-.LBB25
 4570 002e 8001     		.uleb128 .LBE38-.LBB25
 4571 0030 00       		.byte	0
 4572              	.LLRL15:
 4573 0031 05       		.byte	0x5
 4574 0032 20000000 		.4byte	.LBB26
 4575 0036 04       		.byte	0x4
 4576 0037 00       		.uleb128 .LBB26-.LBB26
 4577 0038 38       		.uleb128 .LBE26-.LBB26
 4578 0039 04       		.byte	0x4
 4579 003a 40       		.uleb128 .LBB36-.LBB26
 4580 003b 40       		.uleb128 .LBE36-.LBB26
 4581 003c 04       		.byte	0x4
 4582 003d 7C       		.uleb128 .LBB37-.LBB26
 4583 003e 8001     		.uleb128 .LBE37-.LBB26
 4584 0040 00       		.byte	0
 4585              	.LLRL17:
 4586 0041 05       		.byte	0x5
 4587 0042 34000000 		.4byte	.LBB28
 4588 0046 04       		.byte	0x4
 4589 0047 00       		.uleb128 .LBB28-.LBB28
 4590 0048 04       		.uleb128 .LBE28-.LBB28
 4591 0049 04       		.byte	0x4
 4592 004a 0C       		.uleb128 .LBB32-.LBB28
 4593 004b 14       		.uleb128 .LBE32-.LBB28
 4594 004c 04       		.byte	0x4
 4595 004d 18       		.uleb128 .LBB33-.LBB28
 4596 004e 20       		.uleb128 .LBE33-.LBB28
 4597 004f 00       		.byte	0
 4598              	.LLRL26:
 4599 0050 05       		.byte	0x5
 4600 0051 20000000 		.4byte	.LBB43
 4601 0055 04       		.byte	0x4
 4602 0056 00       		.uleb128 .LBB43-.LBB43
 4603 0057 04       		.uleb128 .LBE43-.LBB43
 4604 0058 04       		.byte	0x4
 4605 0059 18       		.uleb128 .LBB55-.LBB43
 4606 005a 44       		.uleb128 .LBE55-.LBB43
 4607 005b 04       		.byte	0x4
 4608 005c 4C       		.uleb128 .LBB56-.LBB43
 4609 005d 4C       		.uleb128 .LBE56-.LBB43
 4610 005e 00       		.byte	0
 4611              	.LLRL28:
 4612 005f 05       		.byte	0x5
 4613 0060 44000000 		.4byte	.LBB45
 4614 0064 04       		.byte	0x4
 4615 0065 00       		.uleb128 .LBB45-.LBB45
 4616 0066 04       		.uleb128 .LBE45-.LBB45
 4617 0067 04       		.byte	0x4
ARM GAS  /tmp/cc4iwVme.s 			page 82


 4618 0068 08       		.uleb128 .LBB50-.LBB45
 4619 0069 0C       		.uleb128 .LBE50-.LBB45
 4620 006a 04       		.byte	0x4
 4621 006b 10       		.uleb128 .LBB51-.LBB45
 4622 006c 10       		.uleb128 .LBE51-.LBB45
 4623 006d 04       		.byte	0x4
 4624 006e 14       		.uleb128 .LBB52-.LBB45
 4625 006f 1C       		.uleb128 .LBE52-.LBB45
 4626 0070 00       		.byte	0
 4627              	.LLRL33:
 4628 0071 05       		.byte	0x5
 4629 0072 30000000 		.4byte	.LBB57
 4630 0076 04       		.byte	0x4
 4631 0077 00       		.uleb128 .LBB57-.LBB57
 4632 0078 04       		.uleb128 .LBE57-.LBB57
 4633 0079 04       		.byte	0x4
 4634 007a 08       		.uleb128 .LBB60-.LBB57
 4635 007b 10       		.uleb128 .LBE60-.LBB57
 4636 007c 00       		.byte	0
 4637              	.LLRL39:
 4638 007d 05       		.byte	0x5
 4639 007e 14000000 		.4byte	.LBB66
 4640 0082 04       		.byte	0x4
 4641 0083 00       		.uleb128 .LBB66-.LBB66
 4642 0084 04       		.uleb128 .LBE66-.LBB66
 4643 0085 04       		.byte	0x4
 4644 0086 08       		.uleb128 .LBB83-.LBB66
 4645 0087 3C       		.uleb128 .LBE83-.LBB66
 4646 0088 04       		.byte	0x4
 4647 0089 9401     		.uleb128 .LBB84-.LBB66
 4648 008b A401     		.uleb128 .LBE84-.LBB66
 4649 008d 00       		.byte	0
 4650              	.LLRL41:
 4651 008e 05       		.byte	0x5
 4652 008f 14000000 		.4byte	.LBB67
 4653 0093 04       		.byte	0x4
 4654 0094 00       		.uleb128 .LBB67-.LBB67
 4655 0095 04       		.uleb128 .LBE67-.LBB67
 4656 0096 04       		.byte	0x4
 4657 0097 08       		.uleb128 .LBB80-.LBB67
 4658 0098 34       		.uleb128 .LBE80-.LBB67
 4659 0099 04       		.byte	0x4
 4660 009a 3C       		.uleb128 .LBB81-.LBB67
 4661 009b 3C       		.uleb128 .LBE81-.LBB67
 4662 009c 04       		.byte	0x4
 4663 009d 9401     		.uleb128 .LBB82-.LBB67
 4664 009f 9801     		.uleb128 .LBE82-.LBB67
 4665 00a1 00       		.byte	0
 4666              	.LLRL43:
 4667 00a2 05       		.byte	0x5
 4668 00a3 28000000 		.4byte	.LBB69
 4669 00a7 04       		.byte	0x4
 4670 00a8 00       		.uleb128 .LBB69-.LBB69
 4671 00a9 04       		.uleb128 .LBE69-.LBB69
 4672 00aa 04       		.byte	0x4
 4673 00ab 08       		.uleb128 .LBB74-.LBB69
 4674 00ac 0C       		.uleb128 .LBE74-.LBB69
ARM GAS  /tmp/cc4iwVme.s 			page 83


 4675 00ad 04       		.byte	0x4
 4676 00ae 10       		.uleb128 .LBB75-.LBB69
 4677 00af 10       		.uleb128 .LBE75-.LBB69
 4678 00b0 04       		.byte	0x4
 4679 00b1 14       		.uleb128 .LBB76-.LBB69
 4680 00b2 1C       		.uleb128 .LBE76-.LBB69
 4681 00b3 00       		.byte	0
 4682              	.LLRL56:
 4683 00b4 05       		.byte	0x5
 4684 00b5 20000000 		.4byte	.LBB91
 4685 00b9 04       		.byte	0x4
 4686 00ba 00       		.uleb128 .LBB91-.LBB91
 4687 00bb 04       		.uleb128 .LBE91-.LBB91
 4688 00bc 04       		.byte	0x4
 4689 00bd 74       		.uleb128 .LBB100-.LBB91
 4690 00be A401     		.uleb128 .LBE100-.LBB91
 4691 00c0 00       		.byte	0
 4692              	.LLRL58:
 4693 00c1 05       		.byte	0x5
 4694 00c2 A0000000 		.4byte	.LBB93
 4695 00c6 04       		.byte	0x4
 4696 00c7 00       		.uleb128 .LBB93-.LBB93
 4697 00c8 04       		.uleb128 .LBE93-.LBB93
 4698 00c9 04       		.byte	0x4
 4699 00ca 0C       		.uleb128 .LBB97-.LBB93
 4700 00cb 14       		.uleb128 .LBE97-.LBB93
 4701 00cc 04       		.byte	0x4
 4702 00cd 18       		.uleb128 .LBB98-.LBB93
 4703 00ce 20       		.uleb128 .LBE98-.LBB93
 4704 00cf 00       		.byte	0
 4705              	.LLRL61:
 4706 00d0 07       		.byte	0x7
 4707 00d1 00000000 		.4byte	.LFB8
 4708 00d5 38       		.uleb128 .LFE8-.LFB8
 4709 00d6 07       		.byte	0x7
 4710 00d7 00000000 		.4byte	.LFB9
 4711 00db 54       		.uleb128 .LFE9-.LFB9
 4712 00dc 07       		.byte	0x7
 4713 00dd 00000000 		.4byte	.LFB10
 4714 00e1 8C01     		.uleb128 .LFE10-.LFB10
 4715 00e3 07       		.byte	0x7
 4716 00e4 00000000 		.4byte	.LFB11
 4717 00e8 AC01     		.uleb128 .LFE11-.LFB11
 4718 00ea 07       		.byte	0x7
 4719 00eb 00000000 		.4byte	.LFB12
 4720 00ef D001     		.uleb128 .LFE12-.LFB12
 4721 00f1 07       		.byte	0x7
 4722 00f2 00000000 		.4byte	.LFB13
 4723 00f6 30       		.uleb128 .LFE13-.LFB13
 4724 00f7 07       		.byte	0x7
 4725 00f8 00000000 		.4byte	.LFB14
 4726 00fc 58       		.uleb128 .LFE14-.LFB14
 4727 00fd 07       		.byte	0x7
 4728 00fe 00000000 		.4byte	.LFB15
 4729 0102 B801     		.uleb128 .LFE15-.LFB15
 4730 0104 07       		.byte	0x7
 4731 0105 00000000 		.4byte	.LFB16
ARM GAS  /tmp/cc4iwVme.s 			page 84


 4732 0109 78       		.uleb128 .LFE16-.LFB16
 4733 010a 07       		.byte	0x7
 4734 010b 00000000 		.4byte	.LFB17
 4735 010f DC01     		.uleb128 .LFE17-.LFB17
 4736 0111 00       		.byte	0
 4737              	.Ldebug_ranges3:
 4738              		.section	.debug_line,"",%progbits
 4739              	.Ldebug_line0:
 4740 0000 DB080000 		.section	.debug_str,"MS",%progbits,1
 4740      03006501 
 4740      00000201 
 4740      FB0E0D00 
 4740      01010101 
 4741              	.LASF83:
 4742 0000 63684F51 		.ascii	"chOQPutTimeout\000"
 4742      50757454 
 4742      696D656F 
 4742      757400
 4743              	.LASF40:
 4744 000f 705F6D73 		.ascii	"p_msg\000"
 4744      6700
 4745              	.LASF87:
 4746 0015 6F6E6679 		.ascii	"onfy\000"
 4746      00
 4747              	.LASF2:
 4748 001a 73697A65 		.ascii	"size_t\000"
 4748      5F7400
 4749              	.LASF60:
 4750 0021 7264796D 		.ascii	"rdymsg\000"
 4750      736700
 4751              	.LASF93:
 4752 0028 63684951 		.ascii	"chIQInit\000"
 4752      496E6974 
 4752      00
 4753              	.LASF76:
 4754 0031 4F757470 		.ascii	"OutputQueue\000"
 4754      75745175 
 4754      65756500 
 4755              	.LASF3:
 4756 003d 5F5F7569 		.ascii	"__uint8_t\000"
 4756      6E74385F 
 4756      7400
 4757              	.LASF89:
 4758 0047 63684951 		.ascii	"chIQReadTimeout\000"
 4758      52656164 
 4758      54696D65 
 4758      6F757400 
 4759              	.LASF12:
 4760 0057 6C6F6E67 		.ascii	"long long unsigned int\000"
 4760      206C6F6E 
 4760      6720756E 
 4760      7369676E 
 4760      65642069 
 4761              	.LASF85:
 4762 006e 63684F51 		.ascii	"chOQInit\000"
 4762      496E6974 
 4762      00
ARM GAS  /tmp/cc4iwVme.s 			page 85


 4763              	.LASF61:
 4764 0077 65786974 		.ascii	"exitcode\000"
 4764      636F6465 
 4764      00
 4765              	.LASF28:
 4766 0080 705F7072 		.ascii	"p_prio\000"
 4766      696F00
 4767              	.LASF66:
 4768 0087 715F7761 		.ascii	"q_waiting\000"
 4768      6974696E 
 4768      6700
 4769              	.LASF11:
 4770 0091 6C6F6E67 		.ascii	"long long int\000"
 4770      206C6F6E 
 4770      6720696E 
 4770      7400
 4771              	.LASF1:
 4772 009f 7369676E 		.ascii	"signed char\000"
 4772      65642063 
 4772      68617200 
 4773              	.LASF16:
 4774 00ab 626F6F6C 		.ascii	"bool_t\000"
 4774      5F7400
 4775              	.LASF57:
 4776 00b2 6D5F7175 		.ascii	"m_queue\000"
 4776      65756500 
 4777              	.LASF20:
 4778 00ba 74736C69 		.ascii	"tslices_t\000"
 4778      6365735F 
 4778      7400
 4779              	.LASF95:
 4780 00c4 71776169 		.ascii	"qwait\000"
 4780      7400
 4781              	.LASF8:
 4782 00ca 6C6F6E67 		.ascii	"long int\000"
 4782      20696E74 
 4782      00
 4783              	.LASF18:
 4784 00d3 74737461 		.ascii	"tstate_t\000"
 4784      74655F74 
 4784      00
 4785              	.LASF82:
 4786 00dc 63684F51 		.ascii	"chOQGetI\000"
 4786      47657449 
 4786      00
 4787              	.LASF68:
 4788 00e5 715F6275 		.ascii	"q_buffer\000"
 4788      66666572 
 4788      00
 4789              	.LASF70:
 4790 00ee 715F7772 		.ascii	"q_wrptr\000"
 4790      70747200 
 4791              	.LASF30:
 4792 00f6 705F6E65 		.ascii	"p_newer\000"
 4792      77657200 
 4793              	.LASF9:
 4794 00fe 5F5F7569 		.ascii	"__uint32_t\000"
ARM GAS  /tmp/cc4iwVme.s 			page 86


 4794      6E743332 
 4794      5F7400
 4795              	.LASF46:
 4796 0109 72656761 		.ascii	"regarm_t\000"
 4796      726D5F74 
 4796      00
 4797              	.LASF88:
 4798 0112 6C696E6B 		.ascii	"link\000"
 4798      00
 4799              	.LASF91:
 4800 0117 63684951 		.ascii	"chIQPutI\000"
 4800      50757449 
 4800      00
 4801              	.LASF0:
 4802 0120 756E7369 		.ascii	"unsigned int\000"
 4802      676E6564 
 4802      20696E74 
 4802      00
 4803              	.LASF92:
 4804 012d 63684951 		.ascii	"chIQResetI\000"
 4804      52657365 
 4804      744900
 4805              	.LASF10:
 4806 0138 6C6F6E67 		.ascii	"long unsigned int\000"
 4806      20756E73 
 4806      69676E65 
 4806      6420696E 
 4806      7400
 4807              	.LASF48:
 4808 014a 636F6E74 		.ascii	"context\000"
 4808      65787400 
 4809              	.LASF86:
 4810 0152 73697A65 		.ascii	"size\000"
 4810      00
 4811              	.LASF6:
 4812 0157 73686F72 		.ascii	"short unsigned int\000"
 4812      7420756E 
 4812      7369676E 
 4812      65642069 
 4812      6E7400
 4813              	.LASF22:
 4814 016a 6D73675F 		.ascii	"msg_t\000"
 4814      7400
 4815              	.LASF52:
 4816 0170 725F6E65 		.ascii	"r_newer\000"
 4816      77657200 
 4817              	.LASF100:
 4818 0178 71756575 		.ascii	"queue_insert\000"
 4818      655F696E 
 4818      73657274 
 4818      00
 4819              	.LASF98:
 4820 0185 2E2E2F2E 		.ascii	"../../os/kernel/src/chqueues.c\000"
 4820      2E2F6F73 
 4820      2F6B6572 
 4820      6E656C2F 
 4820      7372632F 
ARM GAS  /tmp/cc4iwVme.s 			page 87


 4821              	.LASF45:
 4822 01a4 54687265 		.ascii	"ThreadsList\000"
 4822      6164734C 
 4822      69737400 
 4823              	.LASF23:
 4824 01b0 6576656E 		.ascii	"eventmask_t\000"
 4824      746D6173 
 4824      6B5F7400 
 4825              	.LASF75:
 4826 01bc 496E7075 		.ascii	"InputQueue\000"
 4826      74517565 
 4826      756500
 4827              	.LASF56:
 4828 01c7 4D757465 		.ascii	"Mutex\000"
 4828      7800
 4829              	.LASF65:
 4830 01cd 47656E65 		.ascii	"GenericQueue\000"
 4830      72696351 
 4830      75657565 
 4830      00
 4831              	.LASF81:
 4832 01da 63684F51 		.ascii	"chOQWriteTimeout\000"
 4832      57726974 
 4832      6554696D 
 4832      656F7574 
 4832      00
 4833              	.LASF97:
 4834 01eb 474E5520 		.ascii	"GNU C17 11.2.0 -mcpu=arm1176jz-s -mno-thumb-interwo"
 4834      43313720 
 4834      31312E32 
 4834      2E30202D 
 4834      6D637075 
 4835 021e 726B202D 		.ascii	"rk -mfloat-abi=soft -marm -march=armv6kz -ggdb -O2 "
 4835      6D666C6F 
 4835      61742D61 
 4835      62693D73 
 4835      6F667420 
 4836 0251 2D666F6D 		.ascii	"-fomit-frame-pointer -ffunction-sections -fdata-sec"
 4836      69742D66 
 4836      72616D65 
 4836      2D706F69 
 4836      6E746572 
 4837 0284 74696F6E 		.ascii	"tions\000"
 4837      7300
 4838              	.LASF67:
 4839 028a 715F636F 		.ascii	"q_counter\000"
 4839      756E7465 
 4839      7200
 4840              	.LASF99:
 4841 0294 2F686F6D 		.ascii	"/home/sergi/uni/seu/ChibiOS-RPi/demos/led\000"
 4841      652F7365 
 4841      7267692F 
 4841      756E692F 
 4841      7365752F 
 4842              	.LASF31:
 4843 02be 705F6F6C 		.ascii	"p_older\000"
 4843      64657200 
ARM GAS  /tmp/cc4iwVme.s 			page 88


 4844              	.LASF51:
 4845 02c6 725F6374 		.ascii	"r_ctx\000"
 4845      7800
 4846              	.LASF44:
 4847 02cc 54687265 		.ascii	"ThreadsQueue\000"
 4847      61647351 
 4847      75657565 
 4847      00
 4848              	.LASF79:
 4849 02d9 74696D65 		.ascii	"time\000"
 4849      00
 4850              	.LASF54:
 4851 02de 725F6375 		.ascii	"r_current\000"
 4851      7272656E 
 4851      7400
 4852              	.LASF53:
 4853 02e8 725F6F6C 		.ascii	"r_older\000"
 4853      64657200 
 4854              	.LASF19:
 4855 02f0 74726566 		.ascii	"trefs_t\000"
 4855      735F7400 
 4856              	.LASF74:
 4857 02f8 716E6F74 		.ascii	"qnotify_t\000"
 4857      6966795F 
 4857      7400
 4858              	.LASF27:
 4859 0302 705F7072 		.ascii	"p_prev\000"
 4859      657600
 4860              	.LASF21:
 4861 0309 74707269 		.ascii	"tprio_t\000"
 4861      6F5F7400 
 4862              	.LASF71:
 4863 0311 715F7264 		.ascii	"q_rdptr\000"
 4863      70747200 
 4864              	.LASF14:
 4865 0319 696E7433 		.ascii	"int32_t\000"
 4865      325F7400 
 4866              	.LASF4:
 4867 0321 756E7369 		.ascii	"unsigned char\000"
 4867      676E6564 
 4867      20636861 
 4867      7200
 4868              	.LASF42:
 4869 032f 705F6D74 		.ascii	"p_mtxlist\000"
 4869      786C6973 
 4869      7400
 4870              	.LASF5:
 4871 0339 73686F72 		.ascii	"short int\000"
 4871      7420696E 
 4871      7400
 4872              	.LASF33:
 4873 0343 705F7374 		.ascii	"p_state\000"
 4873      61746500 
 4874              	.LASF36:
 4875 034b 705F7072 		.ascii	"p_preempt\000"
 4875      65656D70 
 4875      7400
ARM GAS  /tmp/cc4iwVme.s 			page 89


 4876              	.LASF50:
 4877 0355 725F7072 		.ascii	"r_prio\000"
 4877      696F00
 4878              	.LASF63:
 4879 035c 65776D61 		.ascii	"ewmask\000"
 4879      736B00
 4880              	.LASF26:
 4881 0363 705F6E65 		.ascii	"p_next\000"
 4881      787400
 4882              	.LASF17:
 4883 036a 746D6F64 		.ascii	"tmode_t\000"
 4883      655F7400 
 4884              	.LASF34:
 4885 0372 705F666C 		.ascii	"p_flags\000"
 4885      61677300 
 4886              	.LASF25:
 4887 037a 54687265 		.ascii	"Thread\000"
 4887      616400
 4888              	.LASF41:
 4889 0381 705F6570 		.ascii	"p_epending\000"
 4889      656E6469 
 4889      6E6700
 4890              	.LASF15:
 4891 038c 75696E74 		.ascii	"uint32_t\000"
 4891      33325F74 
 4891      00
 4892              	.LASF49:
 4893 0395 725F7175 		.ascii	"r_queue\000"
 4893      65756500 
 4894              	.LASF78:
 4895 039d 63685363 		.ascii	"chSchReadyI\000"
 4895      68526561 
 4895      64794900 
 4896              	.LASF64:
 4897 03a9 63686172 		.ascii	"char\000"
 4897      00
 4898              	.LASF96:
 4899 03ae 6669666F 		.ascii	"fifo_remove\000"
 4899      5F72656D 
 4899      6F766500 
 4900              	.LASF59:
 4901 03ba 6D5F6E65 		.ascii	"m_next\000"
 4901      787400
 4902              	.LASF24:
 4903 03c1 73797374 		.ascii	"systime_t\000"
 4903      696D655F 
 4903      7400
 4904              	.LASF43:
 4905 03cb 705F7265 		.ascii	"p_realprio\000"
 4905      616C7072 
 4905      696F00
 4906              	.LASF7:
 4907 03d6 5F5F696E 		.ascii	"__int32_t\000"
 4907      7433325F 
 4907      7400
 4908              	.LASF94:
 4909 03e0 696E6679 		.ascii	"infy\000"
ARM GAS  /tmp/cc4iwVme.s 			page 90


 4909      00
 4910              	.LASF84:
 4911 03e5 63684F51 		.ascii	"chOQResetI\000"
 4911      52657365 
 4911      744900
 4912              	.LASF37:
 4913 03f0 705F7469 		.ascii	"p_time\000"
 4913      6D6500
 4914              	.LASF47:
 4915 03f7 696E7463 		.ascii	"intctx\000"
 4915      747800
 4916              	.LASF39:
 4917 03fe 705F6D73 		.ascii	"p_msgqueue\000"
 4917      67717565 
 4917      756500
 4918              	.LASF69:
 4919 0409 715F746F 		.ascii	"q_top\000"
 4919      7000
 4920              	.LASF35:
 4921 040f 705F7265 		.ascii	"p_refs\000"
 4921      667300
 4922              	.LASF55:
 4923 0416 52656164 		.ascii	"ReadyList\000"
 4923      794C6973 
 4923      7400
 4924              	.LASF72:
 4925 0420 715F6E6F 		.ascii	"q_notify\000"
 4925      74696679 
 4925      00
 4926              	.LASF80:
 4927 0429 726C6973 		.ascii	"rlist\000"
 4927      7400
 4928              	.LASF13:
 4929 042f 75696E74 		.ascii	"uint8_t\000"
 4929      385F7400 
 4930              	.LASF62:
 4931 0437 77746F62 		.ascii	"wtobjp\000"
 4931      6A7000
 4932              	.LASF32:
 4933 043e 705F6E61 		.ascii	"p_name\000"
 4933      6D6500
 4934              	.LASF77:
 4935 0445 63685363 		.ascii	"chSchGoSleepTimeoutS\000"
 4935      68476F53 
 4935      6C656570 
 4935      54696D65 
 4935      6F757453 
 4936              	.LASF73:
 4937 045a 715F6C69 		.ascii	"q_link\000"
 4937      6E6B00
 4938              	.LASF58:
 4939 0461 6D5F6F77 		.ascii	"m_owner\000"
 4939      6E657200 
 4940              	.LASF29:
 4941 0469 705F6374 		.ascii	"p_ctx\000"
 4941      7800
 4942              	.LASF38:
ARM GAS  /tmp/cc4iwVme.s 			page 91


 4943 046f 705F7761 		.ascii	"p_waiting\000"
 4943      6974696E 
 4943      6700
 4944              	.LASF90:
 4945 0479 63684951 		.ascii	"chIQGetTimeout\000"
 4945      47657454 
 4945      696D656F 
 4945      757400
 4946              		.ident	"GCC: (Arch Repository) 11.2.0"
ARM GAS  /tmp/cc4iwVme.s 			page 92


DEFINED SYMBOLS
                            *ABS*:0000000000000000 chqueues.c
     /tmp/cc4iwVme.s:16     .text.chIQInit:0000000000000000 $a
     /tmp/cc4iwVme.s:23     .text.chIQInit:0000000000000000 chIQInit
     /tmp/cc4iwVme.s:72     .text.chIQResetI:0000000000000000 $a
     /tmp/cc4iwVme.s:78     .text.chIQResetI:0000000000000000 chIQResetI
     /tmp/cc4iwVme.s:158    .text.chIQPutI:0000000000000000 $a
     /tmp/cc4iwVme.s:164    .text.chIQPutI:0000000000000000 chIQPutI
     /tmp/cc4iwVme.s:279    .text.chIQGetTimeout:0000000000000000 $a
     /tmp/cc4iwVme.s:285    .text.chIQGetTimeout:0000000000000000 chIQGetTimeout
     /tmp/cc4iwVme.s:468    .text.chIQGetTimeout:00000000000000a8 $d
     /tmp/cc4iwVme.s:473    .text.chIQReadTimeout:0000000000000000 $a
     /tmp/cc4iwVme.s:479    .text.chIQReadTimeout:0000000000000000 chIQReadTimeout
     /tmp/cc4iwVme.s:684    .text.chIQReadTimeout:00000000000000cc $d
     /tmp/cc4iwVme.s:689    .text.chOQInit:0000000000000000 $a
     /tmp/cc4iwVme.s:695    .text.chOQInit:0000000000000000 chOQInit
     /tmp/cc4iwVme.s:738    .text.chOQResetI:0000000000000000 $a
     /tmp/cc4iwVme.s:744    .text.chOQResetI:0000000000000000 chOQResetI
     /tmp/cc4iwVme.s:825    .text.chOQPutTimeout:0000000000000000 $a
     /tmp/cc4iwVme.s:831    .text.chOQPutTimeout:0000000000000000 chOQPutTimeout
     /tmp/cc4iwVme.s:1021   .text.chOQPutTimeout:00000000000000b4 $d
     /tmp/cc4iwVme.s:1027   .text.chOQGetI:0000000000000000 $a
     /tmp/cc4iwVme.s:1033   .text.chOQGetI:0000000000000000 chOQGetI
     /tmp/cc4iwVme.s:1137   .text.chOQWriteTimeout:0000000000000000 $a
     /tmp/cc4iwVme.s:1143   .text.chOQWriteTimeout:0000000000000000 chOQWriteTimeout
     /tmp/cc4iwVme.s:1356   .text.chOQWriteTimeout:00000000000000d8 $d

UNDEFINED SYMBOLS
chSchReadyI
chSchGoSleepTimeoutS
rlist
