ARM GAS  /tmp/ccZTzvT8.s 			page 1


   1              		.cpu arm1176jz-s
   2              		.eabi_attribute 20, 1
   3              		.eabi_attribute 21, 1
   4              		.eabi_attribute 23, 3
   5              		.eabi_attribute 24, 1
   6              		.eabi_attribute 25, 1
   7              		.eabi_attribute 26, 1
   8              		.eabi_attribute 30, 2
   9              		.eabi_attribute 34, 1
  10              		.eabi_attribute 18, 4
  11              		.file	"chschd.c"
  12              		.text
  13              	.Ltext0:
  14              		.cfi_sections	.debug_frame
  15              		.section	.text.wakeup,"ax",%progbits
  16              		.align	2
  17              		.arch armv6kz
  18              		.syntax unified
  19              		.arm
  20              		.fpu softvfp
  21              		.type	wakeup, %function
  22              	wakeup:
  23              	.LVL0:
  24              	.LFB10:
  25              		.file 1 "../../os/kernel/src/chschd.c"
  26              		.loc 1 129 29 view -0
  27              		.cfi_startproc
  28              		@ args = 0, pretend = 0, frame = 0
  29              		@ frame_needed = 0, uses_anonymous_args = 0
  30              		@ link register save eliminated.
  31              		.loc 1 130 3 view .LVU1
  32              		.loc 1 132 3 view .LVU2
  33              		.loc 1 132 3 view .LVU3
  34              		.loc 1 132 21 view .LVU4
  35              		.loc 1 133 3 view .LVU5
  36 0000 1C30D0E5 		ldrb	r3, [r0, #28]	@ zero_extendqisi2
  37 0004 0D0053E3 		cmp	r3, #13
  38 0008 03F19F97 		ldrls	pc, [pc, r3, asl #2]
  39 000c 150000EA 		b	.L2
  40              	.L4:
  41 0010 A8000000 		.word	.L1
  42 0014 68000000 		.word	.L2
  43 0018 68000000 		.word	.L2
  44 001c 48000000 		.word	.L5
  45 0020 68000000 		.word	.L2
  46 0024 58000000 		.word	.L3
  47 0028 68000000 		.word	.L2
  48 002c 68000000 		.word	.L2
  49 0030 68000000 		.word	.L2
  50 0034 68000000 		.word	.L2
  51 0038 68000000 		.word	.L2
  52 003c 68000000 		.word	.L2
  53 0040 68000000 		.word	.L2
  54 0044 58000000 		.word	.L3
  55              	.L5:
  56              		.loc 1 143 5 view .LVU6
  57 0048 242090E5 		ldr	r2, [r0, #36]
ARM GAS  /tmp/ccZTzvT8.s 			page 2


  58 004c 083092E5 		ldr	r3, [r2, #8]
  59 0050 013083E2 		add	r3, r3, #1
  60 0054 083082E5 		str	r3, [r2, #8]
  61              	.L3:
  62              		.loc 1 153 5 view .LVU7
  63              	.LVL1:
  64              	.LBB14:
  65              	.LBI14:
  66              		.file 2 "../../os/kernel/include/chinline.h"
  67              		.loc 2 66 23 view .LVU8
  68              	.LBB15:
  69              		.loc 2 68 3 view .LVU9
  70              		.loc 2 68 5 is_stmt 0 view .LVU10
  71 0058 042090E5 		ldr	r2, [r0, #4]
  72              		.loc 2 68 26 view .LVU11
  73 005c 003090E5 		ldr	r3, [r0]
  74              		.loc 2 68 22 view .LVU12
  75 0060 003082E5 		str	r3, [r2]
  76              		.loc 2 69 3 is_stmt 1 view .LVU13
  77              		.loc 2 69 22 is_stmt 0 view .LVU14
  78 0064 042083E5 		str	r2, [r3, #4]
  79              		.loc 2 70 3 is_stmt 1 view .LVU15
  80              	.LVL2:
  81              	.L2:
  82              		.loc 2 70 3 is_stmt 0 view .LVU16
  83              	.LBE15:
  84              	.LBE14:
  85              		.loc 1 156 3 is_stmt 1 view .LVU17
  86              		.loc 1 156 18 is_stmt 0 view .LVU18
  87 0068 00C0E0E3 		mvn	ip, #0
  88              	.LBB16:
  89              	.LBB17:
  90              		.loc 1 85 15 view .LVU19
  91 006c 0020A0E3 		mov	r2, #0
  92              		.loc 1 89 28 view .LVU20
  93 0070 081090E5 		ldr	r1, [r0, #8]
  94              		.loc 1 86 6 view .LVU21
  95 0074 30309FE5 		ldr	r3, .L10
  96              	.LBE17:
  97              	.LBE16:
  98              		.loc 1 156 18 view .LVU22
  99 0078 24C080E5 		str	ip, [r0, #36]
 100              		.loc 1 157 3 is_stmt 1 view .LVU23
 101              	.LVL3:
 102              	.LBB19:
 103              	.LBI16:
 104              		.loc 1 74 9 view .LVU24
 105              	.LBB18:
 106              		.loc 1 75 3 view .LVU25
 107              		.loc 1 77 3 view .LVU26
 108              		.loc 1 77 21 view .LVU27
 109              		.loc 1 80 3 view .LVU28
 110              		.loc 1 83 31 view .LVU29
 111              		.loc 1 85 3 view .LVU30
 112              		.loc 1 85 15 is_stmt 0 view .LVU31
 113 007c 1C20C0E5 		strb	r2, [r0, #28]
 114              		.loc 1 86 3 is_stmt 1 view .LVU32
ARM GAS  /tmp/ccZTzvT8.s 			page 3


 115              	.LVL4:
 116              	.L7:
 117              		.loc 1 87 3 view .LVU33
 118              		.loc 1 88 5 view .LVU34
 119              		.loc 1 88 8 is_stmt 0 view .LVU35
 120 0080 003093E5 		ldr	r3, [r3]
 121              	.LVL5:
 122              		.loc 1 89 23 is_stmt 1 view .LVU36
 123 0084 082093E5 		ldr	r2, [r3, #8]
 124 0088 010052E1 		cmp	r2, r1
 125 008c FBFFFF2A 		bcs	.L7
 126              		.loc 1 91 3 view .LVU37
 127              		.loc 1 92 18 is_stmt 0 view .LVU38
 128 0090 042093E5 		ldr	r2, [r3, #4]
 129              		.loc 1 91 14 view .LVU39
 130 0094 003080E5 		str	r3, [r0]
 131              		.loc 1 92 3 is_stmt 1 view .LVU40
 132              		.loc 1 92 14 is_stmt 0 view .LVU41
 133 0098 042080E5 		str	r2, [r0, #4]
 134              		.loc 1 93 3 is_stmt 1 view .LVU42
 135              		.loc 1 93 35 is_stmt 0 view .LVU43
 136 009c 040083E5 		str	r0, [r3, #4]
 137              		.loc 1 93 22 view .LVU44
 138 00a0 043090E5 		ldr	r3, [r0, #4]
 139              	.LVL6:
 140              		.loc 1 93 22 view .LVU45
 141 00a4 000083E5 		str	r0, [r3]
 142              	.LVL7:
 143              		.loc 1 94 3 is_stmt 1 view .LVU46
 144              		.loc 1 94 3 is_stmt 0 view .LVU47
 145              	.LBE18:
 146              	.LBE19:
 147              		.loc 1 158 3 is_stmt 1 view .LVU48
 148              		.loc 1 158 3 view .LVU49
 149              		.loc 1 158 23 view .LVU50
 150              	.L1:
 151              		.loc 1 159 1 is_stmt 0 view .LVU51
 152 00a8 1EFF2FE1 		bx	lr
 153              	.L11:
 154              		.align	2
 155              	.L10:
 156 00ac 00000000 		.word	.LANCHOR0
 157              		.cfi_endproc
 158              	.LFE10:
 159              		.size	wakeup, .-wakeup
 160              		.section	.text._scheduler_init,"ax",%progbits
 161              		.align	2
 162              		.global	_scheduler_init
 163              		.syntax unified
 164              		.arm
 165              		.fpu softvfp
 166              		.type	_scheduler_init, %function
 167              	_scheduler_init:
 168              	.LFB7:
 169              		.loc 1 48 28 is_stmt 1 view -0
 170              		.cfi_startproc
 171              		@ args = 0, pretend = 0, frame = 0
ARM GAS  /tmp/ccZTzvT8.s 			page 4


 172              		@ frame_needed = 0, uses_anonymous_args = 0
 173              		@ link register save eliminated.
 174              		.loc 1 50 3 view .LVU53
 175              		.loc 1 51 16 is_stmt 0 view .LVU54
 176 0000 0020A0E3 		mov	r2, #0
 177              		.loc 1 50 3 view .LVU55
 178 0004 14309FE5 		ldr	r3, .L13
 179 0008 043083E5 		str	r3, [r3, #4]
 180 000c 003083E5 		str	r3, [r3]
 181              		.loc 1 50 29 is_stmt 1 view .LVU56
 182              		.loc 1 51 3 view .LVU57
 183              		.loc 1 53 33 is_stmt 0 view .LVU58
 184 0010 143083E5 		str	r3, [r3, #20]
 185              		.loc 1 53 17 view .LVU59
 186 0014 103083E5 		str	r3, [r3, #16]
 187              		.loc 1 51 16 view .LVU60
 188 0018 082083E5 		str	r2, [r3, #8]
 189              		.loc 1 53 3 is_stmt 1 view .LVU61
 190              		.loc 1 55 1 is_stmt 0 view .LVU62
 191 001c 1EFF2FE1 		bx	lr
 192              	.L14:
 193              		.align	2
 194              	.L13:
 195 0020 00000000 		.word	.LANCHOR0
 196              		.cfi_endproc
 197              	.LFE7:
 198              		.size	_scheduler_init, .-_scheduler_init
 199              		.section	.text.chSchReadyI,"ax",%progbits
 200              		.align	2
 201              		.global	chSchReadyI
 202              		.syntax unified
 203              		.arm
 204              		.fpu softvfp
 205              		.type	chSchReadyI, %function
 206              	chSchReadyI:
 207              	.LVL8:
 208              	.LFB8:
 209              		.loc 1 74 33 is_stmt 1 view -0
 210              		.cfi_startproc
 211              		@ args = 0, pretend = 0, frame = 0
 212              		@ frame_needed = 0, uses_anonymous_args = 0
 213              		@ link register save eliminated.
 214              		.loc 1 75 3 view .LVU64
 215              		.loc 1 77 3 view .LVU65
 216              		.loc 1 77 21 view .LVU66
 217              		.loc 1 80 3 view .LVU67
 218              		.loc 1 83 31 view .LVU68
 219              		.loc 1 85 3 view .LVU69
 220              		.loc 1 85 15 is_stmt 0 view .LVU70
 221 0000 0020A0E3 		mov	r2, #0
 222              		.loc 1 86 6 view .LVU71
 223 0004 30309FE5 		ldr	r3, .L18
 224              		.loc 1 89 28 view .LVU72
 225 0008 081090E5 		ldr	r1, [r0, #8]
 226              		.loc 1 85 15 view .LVU73
 227 000c 1C20C0E5 		strb	r2, [r0, #28]
 228              		.loc 1 86 3 is_stmt 1 view .LVU74
ARM GAS  /tmp/ccZTzvT8.s 			page 5


 229              	.LVL9:
 230              	.L16:
 231              		.loc 1 87 3 discriminator 1 view .LVU75
 232              		.loc 1 88 5 discriminator 1 view .LVU76
 233              		.loc 1 88 8 is_stmt 0 discriminator 1 view .LVU77
 234 0010 003093E5 		ldr	r3, [r3]
 235              	.LVL10:
 236              		.loc 1 89 23 is_stmt 1 discriminator 1 view .LVU78
 237 0014 082093E5 		ldr	r2, [r3, #8]
 238 0018 010052E1 		cmp	r2, r1
 239 001c FBFFFF2A 		bcs	.L16
 240              		.loc 1 91 3 view .LVU79
 241              		.loc 1 92 18 is_stmt 0 view .LVU80
 242 0020 042093E5 		ldr	r2, [r3, #4]
 243              		.loc 1 91 14 view .LVU81
 244 0024 003080E5 		str	r3, [r0]
 245              		.loc 1 92 3 is_stmt 1 view .LVU82
 246              		.loc 1 92 14 is_stmt 0 view .LVU83
 247 0028 042080E5 		str	r2, [r0, #4]
 248              		.loc 1 93 3 is_stmt 1 view .LVU84
 249              		.loc 1 93 35 is_stmt 0 view .LVU85
 250 002c 040083E5 		str	r0, [r3, #4]
 251              		.loc 1 93 22 view .LVU86
 252 0030 043090E5 		ldr	r3, [r0, #4]
 253              	.LVL11:
 254              		.loc 1 93 22 view .LVU87
 255 0034 000083E5 		str	r0, [r3]
 256              	.LVL12:
 257              		.loc 1 94 3 is_stmt 1 view .LVU88
 258              		.loc 1 95 1 is_stmt 0 view .LVU89
 259 0038 1EFF2FE1 		bx	lr
 260              	.L19:
 261              		.align	2
 262              	.L18:
 263 003c 00000000 		.word	.LANCHOR0
 264              		.cfi_endproc
 265              	.LFE8:
 266              		.size	chSchReadyI, .-chSchReadyI
 267              		.section	.text.chSchGoSleepS,"ax",%progbits
 268              		.align	2
 269              		.global	chSchGoSleepS
 270              		.syntax unified
 271              		.arm
 272              		.fpu softvfp
 273              		.type	chSchGoSleepS, %function
 274              	chSchGoSleepS:
 275              	.LVL13:
 276              	.LFB9:
 277              		.loc 1 108 39 is_stmt 1 view -0
 278              		.cfi_startproc
 279              		@ args = 0, pretend = 0, frame = 0
 280              		@ frame_needed = 0, uses_anonymous_args = 0
 281              		.loc 1 109 3 view .LVU91
 282              		.loc 1 111 3 view .LVU92
 283              		.loc 1 111 21 view .LVU93
 284              		.loc 1 113 3 view .LVU94
 285              		.loc 1 108 39 is_stmt 0 view .LVU95
ARM GAS  /tmp/ccZTzvT8.s 			page 6


 286 0000 04E02DE5 		str	lr, [sp, #-4]!
 287              		.cfi_def_cfa_offset 4
 288              		.cfi_offset 14, -4
 289              		.loc 1 117 18 view .LVU96
 290 0004 1420A0E3 		mov	r2, #20
 291              		.loc 1 108 39 view .LVU97
 292 0008 00E0A0E1 		mov	lr, r0
 293              		.loc 1 120 18 view .LVU98
 294 000c 01C0A0E3 		mov	ip, #1
 295              		.loc 1 113 8 view .LVU99
 296 0010 28309FE5 		ldr	r3, .L22
 297 0014 181093E5 		ldr	r1, [r3, #24]
 298              	.LVL14:
 299              	.LBB22:
 300              	.LBB23:
 301              		.loc 2 53 11 view .LVU100
 302 0018 000093E5 		ldr	r0, [r3]
 303              	.LVL15:
 304              		.loc 2 53 11 view .LVU101
 305              	.LBE23:
 306              	.LBE22:
 307              		.loc 1 113 26 view .LVU102
 308 001c 1CE0C1E5 		strb	lr, [r1, #28]
 309              		.loc 1 117 3 is_stmt 1 view .LVU103
 310              		.loc 1 117 18 is_stmt 0 view .LVU104
 311 0020 1F20C1E5 		strb	r2, [r1, #31]
 312              		.loc 1 119 3 is_stmt 1 view .LVU105
 313              	.LVL16:
 314              	.LBB26:
 315              	.LBI22:
 316              		.loc 2 52 23 view .LVU106
 317              	.LBB24:
 318              		.loc 2 53 3 view .LVU107
 319              		.loc 2 55 3 view .LVU108
 320              		.loc 2 55 20 is_stmt 0 view .LVU109
 321 0024 002090E5 		ldr	r2, [r0]
 322              		.loc 2 55 38 view .LVU110
 323 0028 043082E5 		str	r3, [r2, #4]
 324              		.loc 2 56 3 is_stmt 1 view .LVU111
 325              	.LVL17:
 326              		.loc 2 56 3 is_stmt 0 view .LVU112
 327              	.LBE24:
 328              	.LBE26:
 329              		.loc 1 120 18 view .LVU113
 330 002c 1CC0C0E5 		strb	ip, [r0, #28]
 331              		.loc 1 122 1 view .LVU114
 332 0030 04E09DE4 		ldr	lr, [sp], #4
 333              		.cfi_restore 14
 334              		.cfi_def_cfa_offset 0
 335              	.LBB27:
 336              	.LBB25:
 337              		.loc 2 55 16 view .LVU115
 338 0034 002083E5 		str	r2, [r3]
 339              	.LBE25:
 340              	.LBE27:
 341              		.loc 1 119 3 view .LVU116
 342 0038 180083E5 		str	r0, [r3, #24]
ARM GAS  /tmp/ccZTzvT8.s 			page 7


 343              		.loc 1 120 3 is_stmt 1 view .LVU117
 344              		.loc 1 121 3 view .LVU118
 345              		.loc 1 121 3 view .LVU119
 346              		.loc 1 121 3 view .LVU120
 347              		.loc 1 121 3 view .LVU121
 348 003c FEFFFFEA 		b	_port_switch_arm
 349              	.LVL18:
 350              	.L23:
 351              		.loc 1 121 3 is_stmt 0 view .LVU122
 352              		.align	2
 353              	.L22:
 354 0040 00000000 		.word	.LANCHOR0
 355              		.cfi_endproc
 356              	.LFE9:
 357              		.size	chSchGoSleepS, .-chSchGoSleepS
 358              		.section	.text.chSchGoSleepTimeoutS,"ax",%progbits
 359              		.align	2
 360              		.global	chSchGoSleepTimeoutS
 361              		.syntax unified
 362              		.arm
 363              		.fpu softvfp
 364              		.type	chSchGoSleepTimeoutS, %function
 365              	chSchGoSleepTimeoutS:
 366              	.LVL19:
 367              	.LFB11:
 368              		.loc 1 182 63 is_stmt 1 view -0
 369              		.cfi_startproc
 370              		@ args = 0, pretend = 0, frame = 24
 371              		@ frame_needed = 0, uses_anonymous_args = 0
 372              		.loc 1 184 3 view .LVU124
 373              		.loc 1 184 21 view .LVU125
 374              		.loc 1 186 3 view .LVU126
 375              		.loc 1 182 63 is_stmt 0 view .LVU127
 376 0000 30402DE9 		push	{r4, r5, lr}
 377              		.cfi_def_cfa_offset 12
 378              		.cfi_offset 4, -12
 379              		.cfi_offset 5, -8
 380              		.cfi_offset 14, -4
 381              	.LBB37:
 382              		.loc 1 189 33 view .LVU128
 383 0004 B0409FE5 		ldr	r4, .L32
 384              	.LBE37:
 385              		.loc 1 186 6 view .LVU129
 386 0008 010071E3 		cmn	r1, #1
 387              		.loc 1 182 63 view .LVU130
 388 000c 0050A0E1 		mov	r5, r0
 389              	.LBB46:
 390              		.loc 1 189 33 view .LVU131
 391 0010 183094E5 		ldr	r3, [r4, #24]
 392              	.LBE46:
 393              		.loc 1 182 63 view .LVU132
 394 0014 1CD04DE2 		sub	sp, sp, #28
 395              		.cfi_def_cfa_offset 40
 396              		.loc 1 186 6 view .LVU133
 397 0018 1700000A 		beq	.L25
 398              	.LBB47:
 399              		.loc 1 187 5 is_stmt 1 view .LVU134
ARM GAS  /tmp/ccZTzvT8.s 			page 8


 400              		.loc 1 189 5 view .LVU135
 401 001c 9C209FE5 		ldr	r2, .L32+4
 402 0020 04008DE2 		add	r0, sp, #4
 403 0024 FEFFFFEB 		bl	chVTSetI
 404              	.LVL20:
 405              		.loc 1 190 5 view .LVU136
 406              	.LBB38:
 407              	.LBI38:
 408              		.loc 1 108 6 view .LVU137
 409              	.LBB39:
 410              		.loc 1 109 3 view .LVU138
 411              		.loc 1 111 3 view .LVU139
 412              		.loc 1 111 21 view .LVU140
 413              		.loc 1 113 3 view .LVU141
 414              		.loc 1 117 18 is_stmt 0 view .LVU142
 415 0028 1430A0E3 		mov	r3, #20
 416              		.loc 1 120 18 view .LVU143
 417 002c 0120A0E3 		mov	r2, #1
 418              		.loc 1 113 8 view .LVU144
 419 0030 181094E5 		ldr	r1, [r4, #24]
 420              	.LVL21:
 421              	.LBB40:
 422              	.LBB41:
 423              		.loc 2 53 11 view .LVU145
 424 0034 000094E5 		ldr	r0, [r4]
 425              	.LBE41:
 426              	.LBE40:
 427              		.loc 1 113 26 view .LVU146
 428 0038 1C50C1E5 		strb	r5, [r1, #28]
 429              		.loc 1 117 3 is_stmt 1 view .LVU147
 430              		.loc 1 117 18 is_stmt 0 view .LVU148
 431 003c 1F30C1E5 		strb	r3, [r1, #31]
 432              		.loc 1 119 3 is_stmt 1 view .LVU149
 433              	.LVL22:
 434              	.LBB44:
 435              	.LBI40:
 436              		.loc 2 52 23 view .LVU150
 437              	.LBB42:
 438              		.loc 2 53 3 view .LVU151
 439              		.loc 2 55 3 view .LVU152
 440              		.loc 2 55 20 is_stmt 0 view .LVU153
 441 0040 003090E5 		ldr	r3, [r0]
 442              		.loc 2 55 38 view .LVU154
 443 0044 044083E5 		str	r4, [r3, #4]
 444              		.loc 2 56 3 is_stmt 1 view .LVU155
 445              	.LVL23:
 446              		.loc 2 56 3 is_stmt 0 view .LVU156
 447              	.LBE42:
 448              	.LBE44:
 449              		.loc 1 120 18 view .LVU157
 450 0048 1C20C0E5 		strb	r2, [r0, #28]
 451              	.LBB45:
 452              	.LBB43:
 453              		.loc 2 55 16 view .LVU158
 454 004c 003084E5 		str	r3, [r4]
 455              	.LBE43:
 456              	.LBE45:
ARM GAS  /tmp/ccZTzvT8.s 			page 9


 457              		.loc 1 119 3 view .LVU159
 458 0050 180084E5 		str	r0, [r4, #24]
 459              		.loc 1 120 3 is_stmt 1 view .LVU160
 460              		.loc 1 121 3 view .LVU161
 461              		.loc 1 121 3 view .LVU162
 462              		.loc 1 121 3 view .LVU163
 463              		.loc 1 121 3 view .LVU164
 464 0054 FEFFFFEB 		bl	_port_switch_arm
 465              	.LVL24:
 466              		.loc 1 121 26 view .LVU165
 467              		.loc 1 121 26 is_stmt 0 view .LVU166
 468              	.LBE39:
 469              	.LBE38:
 470              		.loc 1 191 5 is_stmt 1 view .LVU167
 471              		.loc 1 191 8 is_stmt 0 view .LVU168
 472 0058 10309DE5 		ldr	r3, [sp, #16]
 473 005c 000053E3 		cmp	r3, #0
 474 0060 0100000A 		beq	.L27
 475              		.loc 1 192 7 is_stmt 1 view .LVU169
 476 0064 04008DE2 		add	r0, sp, #4
 477 0068 FEFFFFEB 		bl	chVTResetI
 478              	.LVL25:
 479              	.L27:
 480              	.LBE47:
 481              		.loc 1 196 3 view .LVU170
 482              		.loc 1 196 20 is_stmt 0 view .LVU171
 483 006c 183094E5 		ldr	r3, [r4, #24]
 484              		.loc 1 197 1 view .LVU172
 485 0070 240093E5 		ldr	r0, [r3, #36]
 486 0074 1CD08DE2 		add	sp, sp, #28
 487              		.cfi_remember_state
 488              		.cfi_def_cfa_offset 12
 489              		@ sp needed
 490 0078 3080BDE8 		pop	{r4, r5, pc}
 491              	.LVL26:
 492              	.L25:
 493              		.cfi_restore_state
 494              		.loc 1 195 5 is_stmt 1 view .LVU173
 495              	.LBB48:
 496              	.LBI48:
 497              		.loc 1 108 6 view .LVU174
 498              	.LBB49:
 499              		.loc 1 109 3 view .LVU175
 500              		.loc 1 111 3 view .LVU176
 501              		.loc 1 111 21 view .LVU177
 502              		.loc 1 113 3 view .LVU178
 503              		.loc 1 117 18 is_stmt 0 view .LVU179
 504 007c 14C0A0E3 		mov	ip, #20
 505              		.loc 1 120 18 view .LVU180
 506 0080 0120A0E3 		mov	r2, #1
 507              	.LBB50:
 508              	.LBB51:
 509              		.loc 2 53 11 view .LVU181
 510 0084 000094E5 		ldr	r0, [r4]
 511              	.LVL27:
 512              		.loc 2 53 11 view .LVU182
 513              	.LBE51:
ARM GAS  /tmp/ccZTzvT8.s 			page 10


 514              	.LBE50:
 515              		.loc 1 113 26 view .LVU183
 516 0088 1C50C3E5 		strb	r5, [r3, #28]
 517              		.loc 1 117 3 is_stmt 1 view .LVU184
 518              		.loc 1 117 18 is_stmt 0 view .LVU185
 519 008c 1FC0C3E5 		strb	ip, [r3, #31]
 520              		.loc 1 119 3 is_stmt 1 view .LVU186
 521              	.LVL28:
 522              	.LBB55:
 523              	.LBI50:
 524              		.loc 2 52 23 view .LVU187
 525              	.LBB52:
 526              		.loc 2 53 3 view .LVU188
 527              		.loc 2 55 3 view .LVU189
 528              	.LBE52:
 529              	.LBE55:
 530              		.loc 1 121 3 is_stmt 0 view .LVU190
 531 0090 0310A0E1 		mov	r1, r3
 532              	.LVL29:
 533              	.LBB56:
 534              	.LBB53:
 535              		.loc 2 55 20 view .LVU191
 536 0094 003090E5 		ldr	r3, [r0]
 537              		.loc 2 55 38 view .LVU192
 538 0098 044083E5 		str	r4, [r3, #4]
 539              		.loc 2 56 3 is_stmt 1 view .LVU193
 540              	.LVL30:
 541              		.loc 2 56 3 is_stmt 0 view .LVU194
 542              	.LBE53:
 543              	.LBE56:
 544              		.loc 1 120 18 view .LVU195
 545 009c 1C20C0E5 		strb	r2, [r0, #28]
 546              	.LBB57:
 547              	.LBB54:
 548              		.loc 2 55 16 view .LVU196
 549 00a0 003084E5 		str	r3, [r4]
 550              	.LBE54:
 551              	.LBE57:
 552              		.loc 1 119 3 view .LVU197
 553 00a4 180084E5 		str	r0, [r4, #24]
 554              	.LVL31:
 555              		.loc 1 120 3 is_stmt 1 view .LVU198
 556              		.loc 1 121 3 view .LVU199
 557              		.loc 1 121 3 view .LVU200
 558              		.loc 1 121 3 view .LVU201
 559              		.loc 1 121 3 view .LVU202
 560 00a8 FEFFFFEB 		bl	_port_switch_arm
 561              	.LVL32:
 562              		.loc 1 121 26 view .LVU203
 563              		.loc 1 121 26 is_stmt 0 view .LVU204
 564              	.LBE49:
 565              	.LBE48:
 566              		.loc 1 196 3 is_stmt 1 view .LVU205
 567              		.loc 1 196 20 is_stmt 0 view .LVU206
 568 00ac 183094E5 		ldr	r3, [r4, #24]
 569              		.loc 1 197 1 view .LVU207
 570 00b0 240093E5 		ldr	r0, [r3, #36]
ARM GAS  /tmp/ccZTzvT8.s 			page 11


 571 00b4 1CD08DE2 		add	sp, sp, #28
 572              		.cfi_def_cfa_offset 12
 573              		@ sp needed
 574 00b8 3080BDE8 		pop	{r4, r5, pc}
 575              	.L33:
 576              		.align	2
 577              	.L32:
 578 00bc 00000000 		.word	.LANCHOR0
 579 00c0 00000000 		.word	wakeup
 580              		.cfi_endproc
 581              	.LFE11:
 582              		.size	chSchGoSleepTimeoutS, .-chSchGoSleepTimeoutS
 583              		.section	.text.chSchWakeupS,"ax",%progbits
 584              		.align	2
 585              		.global	chSchWakeupS
 586              		.syntax unified
 587              		.arm
 588              		.fpu softvfp
 589              		.type	chSchWakeupS, %function
 590              	chSchWakeupS:
 591              	.LVL33:
 592              	.LFB12:
 593              		.loc 1 218 43 is_stmt 1 view -0
 594              		.cfi_startproc
 595              		@ args = 0, pretend = 0, frame = 0
 596              		@ frame_needed = 0, uses_anonymous_args = 0
 597              		.loc 1 220 3 view .LVU209
 598              		.loc 1 220 21 view .LVU210
 599              		.loc 1 222 3 view .LVU211
 600              		.loc 1 227 22 is_stmt 0 view .LVU212
 601 0000 94209FE5 		ldr	r2, .L43
 602              		.loc 1 218 43 view .LVU213
 603 0004 10402DE9 		push	{r4, lr}
 604              		.cfi_def_cfa_offset 8
 605              		.cfi_offset 4, -8
 606              		.cfi_offset 14, -4
 607              		.loc 1 227 22 view .LVU214
 608 0008 184092E5 		ldr	r4, [r2, #24]
 609              		.loc 1 227 10 view .LVU215
 610 000c 08C090E5 		ldr	ip, [r0, #8]
 611              		.loc 1 227 27 view .LVU216
 612 0010 08E094E5 		ldr	lr, [r4, #8]
 613              	.LBB63:
 614              	.LBB64:
 615              		.loc 1 86 6 view .LVU217
 616 0014 0230A0E1 		mov	r3, r2
 617              	.LBE64:
 618              	.LBE63:
 619              		.loc 1 227 6 view .LVU218
 620 0018 0E005CE1 		cmp	ip, lr
 621              		.loc 1 222 19 view .LVU219
 622 001c 241080E5 		str	r1, [r0, #36]
 623              		.loc 1 227 3 is_stmt 1 view .LVU220
 624              	.LBB67:
 625              	.LBB65:
 626              		.loc 1 85 15 is_stmt 0 view .LVU221
 627 0020 0010A0E3 		mov	r1, #0
ARM GAS  /tmp/ccZTzvT8.s 			page 12


 628              	.LVL34:
 629              		.loc 1 85 15 view .LVU222
 630              	.LBE65:
 631              	.LBE67:
 632              		.loc 1 227 6 view .LVU223
 633 0024 0B00008A 		bhi	.L35
 634              		.loc 1 228 5 is_stmt 1 view .LVU224
 635              	.LVL35:
 636              	.LBB68:
 637              	.LBI63:
 638              		.loc 1 74 9 view .LVU225
 639              	.LBB66:
 640              		.loc 1 75 3 view .LVU226
 641              		.loc 1 77 3 view .LVU227
 642              		.loc 1 77 21 view .LVU228
 643              		.loc 1 80 3 view .LVU229
 644              		.loc 1 83 31 view .LVU230
 645              		.loc 1 85 3 view .LVU231
 646              		.loc 1 85 15 is_stmt 0 view .LVU232
 647 0028 1C10C0E5 		strb	r1, [r0, #28]
 648              		.loc 1 86 3 is_stmt 1 view .LVU233
 649              	.LVL36:
 650              	.L36:
 651              		.loc 1 87 3 view .LVU234
 652              		.loc 1 88 5 view .LVU235
 653              		.loc 1 88 8 is_stmt 0 view .LVU236
 654 002c 003093E5 		ldr	r3, [r3]
 655              	.LVL37:
 656              		.loc 1 89 23 is_stmt 1 view .LVU237
 657 0030 082093E5 		ldr	r2, [r3, #8]
 658 0034 02005CE1 		cmp	ip, r2
 659 0038 FBFFFF9A 		bls	.L36
 660              		.loc 1 91 3 view .LVU238
 661              		.loc 1 92 18 is_stmt 0 view .LVU239
 662 003c 042093E5 		ldr	r2, [r3, #4]
 663              		.loc 1 91 14 view .LVU240
 664 0040 003080E5 		str	r3, [r0]
 665              		.loc 1 92 3 is_stmt 1 view .LVU241
 666              		.loc 1 92 14 is_stmt 0 view .LVU242
 667 0044 042080E5 		str	r2, [r0, #4]
 668              		.loc 1 93 3 is_stmt 1 view .LVU243
 669              		.loc 1 93 35 is_stmt 0 view .LVU244
 670 0048 040083E5 		str	r0, [r3, #4]
 671              		.loc 1 93 22 view .LVU245
 672 004c 043090E5 		ldr	r3, [r0, #4]
 673              	.LVL38:
 674              		.loc 1 93 22 view .LVU246
 675 0050 000083E5 		str	r0, [r3]
 676              	.LVL39:
 677              		.loc 1 94 3 is_stmt 1 view .LVU247
 678              	.LBE66:
 679              	.LBE68:
 680              		.loc 1 235 1 is_stmt 0 view .LVU248
 681 0054 1080BDE8 		pop	{r4, pc}
 682              	.LVL40:
 683              	.L35:
 684              	.LBB69:
ARM GAS  /tmp/ccZTzvT8.s 			page 13


 685              		.loc 1 230 5 is_stmt 1 view .LVU249
 686              	.LBB70:
 687              	.LBI70:
 688              		.loc 1 74 9 view .LVU250
 689              	.LBB71:
 690              		.loc 1 75 3 view .LVU251
 691              		.loc 1 77 3 view .LVU252
 692              		.loc 1 77 21 view .LVU253
 693              		.loc 1 80 3 view .LVU254
 694              		.loc 1 83 31 view .LVU255
 695              		.loc 1 85 3 view .LVU256
 696              		.loc 1 85 15 is_stmt 0 view .LVU257
 697 0058 1C10C4E5 		strb	r1, [r4, #28]
 698              	.LVL41:
 699              		.loc 1 86 3 is_stmt 1 view .LVU258
 700              	.L38:
 701              		.loc 1 87 3 view .LVU259
 702              		.loc 1 88 5 view .LVU260
 703              		.loc 1 88 8 is_stmt 0 view .LVU261
 704 005c 003093E5 		ldr	r3, [r3]
 705              	.LVL42:
 706              		.loc 1 89 23 is_stmt 1 view .LVU262
 707 0060 08C093E5 		ldr	ip, [r3, #8]
 708 0064 0C005EE1 		cmp	lr, ip
 709 0068 FBFFFF9A 		bls	.L38
 710              		.loc 1 91 3 view .LVU263
 711              	.LBE71:
 712              	.LBE70:
 713              		.loc 1 232 18 is_stmt 0 view .LVU264
 714 006c 01C0A0E3 		mov	ip, #1
 715              	.LBB74:
 716              	.LBB72:
 717              		.loc 1 92 18 view .LVU265
 718 0070 041093E5 		ldr	r1, [r3, #4]
 719              		.loc 1 91 14 view .LVU266
 720 0074 003084E5 		str	r3, [r4]
 721              		.loc 1 92 3 is_stmt 1 view .LVU267
 722              		.loc 1 92 14 is_stmt 0 view .LVU268
 723 0078 041084E5 		str	r1, [r4, #4]
 724              		.loc 1 93 3 is_stmt 1 view .LVU269
 725              		.loc 1 93 35 is_stmt 0 view .LVU270
 726 007c 044083E5 		str	r4, [r3, #4]
 727              		.loc 1 93 22 view .LVU271
 728 0080 043094E5 		ldr	r3, [r4, #4]
 729              	.LVL43:
 730              		.loc 1 93 22 view .LVU272
 731              	.LBE72:
 732              	.LBE74:
 733              		.loc 1 233 5 view .LVU273
 734 0084 0410A0E1 		mov	r1, r4
 735              	.LBB75:
 736              	.LBB73:
 737              		.loc 1 93 22 view .LVU274
 738 0088 004083E5 		str	r4, [r3]
 739              	.LVL44:
 740              		.loc 1 94 3 is_stmt 1 view .LVU275
 741              		.loc 1 94 3 is_stmt 0 view .LVU276
ARM GAS  /tmp/ccZTzvT8.s 			page 14


 742              	.LBE73:
 743              	.LBE75:
 744              		.loc 1 231 5 is_stmt 1 view .LVU277
 745              		.loc 1 232 18 is_stmt 0 view .LVU278
 746 008c 1CC0C0E5 		strb	ip, [r0, #28]
 747              	.LBE69:
 748              		.loc 1 235 1 view .LVU279
 749 0090 1040BDE8 		pop	{r4, lr}
 750              		.cfi_restore 14
 751              		.cfi_restore 4
 752              		.cfi_def_cfa_offset 0
 753              	.LVL45:
 754              	.LBB76:
 755              		.loc 1 231 5 view .LVU280
 756 0094 180082E5 		str	r0, [r2, #24]
 757              		.loc 1 232 5 is_stmt 1 view .LVU281
 758              		.loc 1 233 5 view .LVU282
 759              		.loc 1 233 5 view .LVU283
 760              		.loc 1 233 5 view .LVU284
 761              		.loc 1 233 5 view .LVU285
 762 0098 FEFFFFEA 		b	_port_switch_arm
 763              	.LVL46:
 764              	.L44:
 765              		.loc 1 233 5 is_stmt 0 view .LVU286
 766              		.align	2
 767              	.L43:
 768 009c 00000000 		.word	.LANCHOR0
 769              	.LBE76:
 770              		.cfi_endproc
 771              	.LFE12:
 772              		.size	chSchWakeupS, .-chSchWakeupS
 773              		.section	.text.chSchIsPreemptionRequired,"ax",%progbits
 774              		.align	2
 775              		.global	chSchIsPreemptionRequired
 776              		.syntax unified
 777              		.arm
 778              		.fpu softvfp
 779              		.type	chSchIsPreemptionRequired, %function
 780              	chSchIsPreemptionRequired:
 781              	.LFB14:
 782              		.loc 1 269 40 is_stmt 1 view -0
 783              		.cfi_startproc
 784              		@ args = 0, pretend = 0, frame = 0
 785              		@ frame_needed = 0, uses_anonymous_args = 0
 786              		@ link register save eliminated.
 787              		.loc 1 270 3 view .LVU288
 788              		.loc 1 270 16 is_stmt 0 view .LVU289
 789 0000 38209FE5 		ldr	r2, .L48
 790              		.loc 1 271 16 view .LVU290
 791 0004 183092E5 		ldr	r3, [r2, #24]
 792              		.loc 1 270 11 view .LVU291
 793 0008 001092E5 		ldr	r1, [r2]
 794              		.loc 1 277 37 view .LVU292
 795 000c 1F20D3E5 		ldrb	r2, [r3, #31]	@ zero_extendqisi2
 796              		.loc 1 270 11 view .LVU293
 797 0010 080091E5 		ldr	r0, [r1, #8]
 798              	.LVL47:
ARM GAS  /tmp/ccZTzvT8.s 			page 15


 799              		.loc 1 271 3 is_stmt 1 view .LVU294
 800              		.loc 1 277 37 is_stmt 0 view .LVU295
 801 0014 000052E3 		cmp	r2, #0
 802              		.loc 1 271 11 view .LVU296
 803 0018 083093E5 		ldr	r3, [r3, #8]
 804              	.LVL48:
 805              		.loc 1 277 3 is_stmt 1 view .LVU297
 806              		.loc 1 277 37 is_stmt 0 view .LVU298
 807 001c 0300000A 		beq	.L46
 808              		.loc 1 277 32 discriminator 1 view .LVU299
 809 0020 030050E1 		cmp	r0, r3
 810 0024 0000A093 		movls	r0, #0
 811              	.LVL49:
 812              		.loc 1 277 32 discriminator 1 view .LVU300
 813 0028 0100A083 		movhi	r0, #1
 814 002c 1EFF2FE1 		bx	lr
 815              	.LVL50:
 816              	.L46:
 817              		.loc 1 277 42 discriminator 2 view .LVU301
 818 0030 030050E1 		cmp	r0, r3
 819 0034 0000A033 		movcc	r0, #0
 820              	.LVL51:
 821              		.loc 1 277 42 discriminator 2 view .LVU302
 822 0038 0100A023 		movcs	r0, #1
 823              		.loc 1 283 1 discriminator 2 view .LVU303
 824 003c 1EFF2FE1 		bx	lr
 825              	.L49:
 826              		.align	2
 827              	.L48:
 828 0040 00000000 		.word	.LANCHOR0
 829              		.cfi_endproc
 830              	.LFE14:
 831              		.size	chSchIsPreemptionRequired, .-chSchIsPreemptionRequired
 832              		.section	.text.chSchDoRescheduleBehind,"ax",%progbits
 833              		.align	2
 834              		.global	chSchDoRescheduleBehind
 835              		.syntax unified
 836              		.arm
 837              		.fpu softvfp
 838              		.type	chSchDoRescheduleBehind, %function
 839              	chSchDoRescheduleBehind:
 840              	.LFB15:
 841              		.loc 1 297 36 is_stmt 1 view -0
 842              		.cfi_startproc
 843              		@ args = 0, pretend = 0, frame = 0
 844              		@ frame_needed = 0, uses_anonymous_args = 0
 845              		.loc 1 298 3 view .LVU305
 846              		.loc 1 300 3 view .LVU306
 847              		.loc 1 297 36 is_stmt 0 view .LVU307
 848 0000 10402DE9 		push	{r4, lr}
 849              		.cfi_def_cfa_offset 8
 850              		.cfi_offset 4, -8
 851              		.cfi_offset 14, -4
 852              		.loc 1 303 18 view .LVU308
 853 0004 0140A0E3 		mov	r4, #1
 854              		.loc 1 305 18 view .LVU309
 855 0008 14C0A0E3 		mov	ip, #20
ARM GAS  /tmp/ccZTzvT8.s 			page 16


 856              	.LBB83:
 857              	.LBB84:
 858              		.loc 1 85 15 view .LVU310
 859 000c 00E0A0E3 		mov	lr, #0
 860              	.LBE84:
 861              	.LBE83:
 862              		.loc 1 300 7 view .LVU311
 863 0010 5C309FE5 		ldr	r3, .L55
 864              	.LBB87:
 865              	.LBB88:
 866              		.loc 2 53 11 view .LVU312
 867 0014 000093E5 		ldr	r0, [r3]
 868              	.LBE88:
 869              	.LBE87:
 870              		.loc 1 300 7 view .LVU313
 871 0018 181093E5 		ldr	r1, [r3, #24]
 872              	.LVL52:
 873              		.loc 1 302 3 is_stmt 1 view .LVU314
 874              	.LBB91:
 875              	.LBI87:
 876              		.loc 2 52 23 view .LVU315
 877              	.LBB89:
 878              		.loc 2 53 3 view .LVU316
 879              		.loc 2 55 3 view .LVU317
 880              		.loc 2 55 20 is_stmt 0 view .LVU318
 881 001c 002090E5 		ldr	r2, [r0]
 882              		.loc 2 55 38 view .LVU319
 883 0020 043082E5 		str	r3, [r2, #4]
 884              		.loc 2 56 3 is_stmt 1 view .LVU320
 885              	.LVL53:
 886              		.loc 2 56 3 is_stmt 0 view .LVU321
 887              	.LBE89:
 888              	.LBE91:
 889              		.loc 1 303 18 view .LVU322
 890 0024 1C40C0E5 		strb	r4, [r0, #28]
 891              	.LBB92:
 892              	.LBB90:
 893              		.loc 2 55 16 view .LVU323
 894 0028 002083E5 		str	r2, [r3]
 895              	.LBE90:
 896              	.LBE92:
 897              		.loc 1 302 3 view .LVU324
 898 002c 180083E5 		str	r0, [r3, #24]
 899              		.loc 1 303 3 is_stmt 1 view .LVU325
 900              		.loc 1 305 3 view .LVU326
 901              		.loc 1 305 18 is_stmt 0 view .LVU327
 902 0030 1FC0C1E5 		strb	ip, [r1, #31]
 903              		.loc 1 307 3 is_stmt 1 view .LVU328
 904              	.LVL54:
 905              	.LBB93:
 906              	.LBI83:
 907              		.loc 1 74 9 view .LVU329
 908              	.LBB85:
 909              		.loc 1 75 3 view .LVU330
 910              		.loc 1 77 3 view .LVU331
 911              		.loc 1 77 21 view .LVU332
 912              		.loc 1 80 3 view .LVU333
ARM GAS  /tmp/ccZTzvT8.s 			page 17


 913              		.loc 1 83 31 view .LVU334
 914              		.loc 1 85 3 view .LVU335
 915              		.loc 1 89 28 is_stmt 0 view .LVU336
 916 0034 0030A0E1 		mov	r3, r0
 917 0038 08C091E5 		ldr	ip, [r1, #8]
 918              		.loc 1 85 15 view .LVU337
 919 003c 1CE0C1E5 		strb	lr, [r1, #28]
 920              		.loc 1 86 3 is_stmt 1 view .LVU338
 921              	.LVL55:
 922              		.loc 1 86 3 is_stmt 0 view .LVU339
 923 0040 000000EA 		b	.L52
 924              	.LVL56:
 925              	.L54:
 926              		.loc 1 88 8 view .LVU340
 927 0044 003093E5 		ldr	r3, [r3]
 928              	.L52:
 929              		.loc 1 87 3 is_stmt 1 view .LVU341
 930              		.loc 1 88 5 view .LVU342
 931              		.loc 1 89 23 view .LVU343
 932 0048 082093E5 		ldr	r2, [r3, #8]
 933 004c 0C0052E1 		cmp	r2, ip
 934 0050 FBFFFF2A 		bcs	.L54
 935              		.loc 1 91 3 view .LVU344
 936              	.LBE85:
 937              	.LBE93:
 938              		.loc 1 309 1 is_stmt 0 view .LVU345
 939 0054 1040BDE8 		pop	{r4, lr}
 940              		.cfi_restore 14
 941              		.cfi_restore 4
 942              		.cfi_def_cfa_offset 0
 943              	.LBB94:
 944              	.LBB86:
 945              		.loc 1 92 18 view .LVU346
 946 0058 042093E5 		ldr	r2, [r3, #4]
 947              		.loc 1 91 14 view .LVU347
 948 005c 003081E5 		str	r3, [r1]
 949              		.loc 1 92 3 is_stmt 1 view .LVU348
 950              		.loc 1 92 14 is_stmt 0 view .LVU349
 951 0060 042081E5 		str	r2, [r1, #4]
 952              		.loc 1 93 3 is_stmt 1 view .LVU350
 953              		.loc 1 93 35 is_stmt 0 view .LVU351
 954 0064 041083E5 		str	r1, [r3, #4]
 955              		.loc 1 93 22 view .LVU352
 956 0068 043091E5 		ldr	r3, [r1, #4]
 957 006c 001083E5 		str	r1, [r3]
 958              		.loc 1 94 3 is_stmt 1 view .LVU353
 959              	.LVL57:
 960              		.loc 1 94 3 is_stmt 0 view .LVU354
 961              	.LBE86:
 962              	.LBE94:
 963              		.loc 1 308 3 is_stmt 1 view .LVU355
 964              		.loc 1 308 3 view .LVU356
 965              		.loc 1 308 3 view .LVU357
 966              		.loc 1 308 3 view .LVU358
 967 0070 FEFFFFEA 		b	_port_switch_arm
 968              	.LVL58:
 969              	.L56:
ARM GAS  /tmp/ccZTzvT8.s 			page 18


 970              		.loc 1 308 3 is_stmt 0 view .LVU359
 971              		.align	2
 972              	.L55:
 973 0074 00000000 		.word	.LANCHOR0
 974              		.cfi_endproc
 975              	.LFE15:
 976              		.size	chSchDoRescheduleBehind, .-chSchDoRescheduleBehind
 977              		.section	.text.chSchDoRescheduleAhead,"ax",%progbits
 978              		.align	2
 979              		.global	chSchDoRescheduleAhead
 980              		.syntax unified
 981              		.arm
 982              		.fpu softvfp
 983              		.type	chSchDoRescheduleAhead, %function
 984              	chSchDoRescheduleAhead:
 985              	.LFB16:
 986              		.loc 1 322 35 is_stmt 1 view -0
 987              		.cfi_startproc
 988              		@ args = 0, pretend = 0, frame = 0
 989              		@ frame_needed = 0, uses_anonymous_args = 0
 990              		.loc 1 323 3 view .LVU361
 991              		.loc 1 325 3 view .LVU362
 992              		.loc 1 322 35 is_stmt 0 view .LVU363
 993 0000 10402DE9 		push	{r4, lr}
 994              		.cfi_def_cfa_offset 8
 995              		.cfi_offset 4, -8
 996              		.cfi_offset 14, -4
 997              		.loc 1 328 18 view .LVU364
 998 0004 0140A0E3 		mov	r4, #1
 999              		.loc 1 330 16 view .LVU365
 1000 0008 00E0A0E3 		mov	lr, #0
 1001              		.loc 1 325 7 view .LVU366
 1002 000c 58209FE5 		ldr	r2, .L62
 1003              	.LBB95:
 1004              	.LBB96:
 1005              		.loc 2 53 11 view .LVU367
 1006 0010 000092E5 		ldr	r0, [r2]
 1007              	.LBE96:
 1008              	.LBE95:
 1009              		.loc 1 325 7 view .LVU368
 1010 0014 181092E5 		ldr	r1, [r2, #24]
 1011              	.LVL59:
 1012              		.loc 1 327 3 is_stmt 1 view .LVU369
 1013              	.LBB100:
 1014              	.LBI95:
 1015              		.loc 2 52 23 view .LVU370
 1016              	.LBB97:
 1017              		.loc 2 53 3 view .LVU371
 1018              		.loc 2 55 3 view .LVU372
 1019              		.loc 2 55 20 is_stmt 0 view .LVU373
 1020 0018 00C090E5 		ldr	ip, [r0]
 1021              	.LBE97:
 1022              	.LBE100:
 1023              		.loc 1 334 28 view .LVU374
 1024 001c 0030A0E1 		mov	r3, r0
 1025              	.LBB101:
 1026              	.LBB98:
ARM GAS  /tmp/ccZTzvT8.s 			page 19


 1027              		.loc 2 55 38 view .LVU375
 1028 0020 04208CE5 		str	r2, [ip, #4]
 1029              		.loc 2 56 3 is_stmt 1 view .LVU376
 1030              	.LVL60:
 1031              		.loc 2 56 3 is_stmt 0 view .LVU377
 1032              	.LBE98:
 1033              	.LBE101:
 1034              		.loc 1 328 18 view .LVU378
 1035 0024 1C40C0E5 		strb	r4, [r0, #28]
 1036              	.LBB102:
 1037              	.LBB99:
 1038              		.loc 2 55 16 view .LVU379
 1039 0028 00C082E5 		str	ip, [r2]
 1040              	.LBE99:
 1041              	.LBE102:
 1042              		.loc 1 327 3 view .LVU380
 1043 002c 180082E5 		str	r0, [r2, #24]
 1044              		.loc 1 328 3 is_stmt 1 view .LVU381
 1045              		.loc 1 330 3 view .LVU382
 1046              		.loc 1 334 28 is_stmt 0 view .LVU383
 1047 0030 08C091E5 		ldr	ip, [r1, #8]
 1048              		.loc 1 330 16 view .LVU384
 1049 0034 1CE0C1E5 		strb	lr, [r1, #28]
 1050              		.loc 1 331 3 is_stmt 1 view .LVU385
 1051              	.LVL61:
 1052              		.loc 1 331 3 is_stmt 0 view .LVU386
 1053 0038 000000EA 		b	.L59
 1054              	.LVL62:
 1055              	.L61:
 1056              		.loc 1 333 8 view .LVU387
 1057 003c 003093E5 		ldr	r3, [r3]
 1058              	.L59:
 1059              		.loc 1 332 3 is_stmt 1 discriminator 1 view .LVU388
 1060              		.loc 1 333 5 discriminator 1 view .LVU389
 1061              		.loc 1 334 23 discriminator 1 view .LVU390
 1062 0040 082093E5 		ldr	r2, [r3, #8]
 1063 0044 0C0052E1 		cmp	r2, ip
 1064 0048 FBFFFF8A 		bhi	.L61
 1065              		.loc 1 336 3 view .LVU391
 1066              		.loc 1 341 1 is_stmt 0 view .LVU392
 1067 004c 1040BDE8 		pop	{r4, lr}
 1068              		.cfi_restore 14
 1069              		.cfi_restore 4
 1070              		.cfi_def_cfa_offset 0
 1071              		.loc 1 337 19 view .LVU393
 1072 0050 042093E5 		ldr	r2, [r3, #4]
 1073              		.loc 1 336 15 view .LVU394
 1074 0054 003081E5 		str	r3, [r1]
 1075              		.loc 1 337 3 is_stmt 1 view .LVU395
 1076              		.loc 1 337 15 is_stmt 0 view .LVU396
 1077 0058 042081E5 		str	r2, [r1, #4]
 1078              		.loc 1 338 3 is_stmt 1 view .LVU397
 1079              		.loc 1 338 36 is_stmt 0 view .LVU398
 1080 005c 041083E5 		str	r1, [r3, #4]
 1081              		.loc 1 338 23 view .LVU399
 1082 0060 043091E5 		ldr	r3, [r1, #4]
 1083 0064 001083E5 		str	r1, [r3]
ARM GAS  /tmp/ccZTzvT8.s 			page 20


 1084              		.loc 1 340 3 is_stmt 1 view .LVU400
 1085              		.loc 1 340 3 view .LVU401
 1086              		.loc 1 340 3 view .LVU402
 1087              		.loc 1 340 3 view .LVU403
 1088 0068 FEFFFFEA 		b	_port_switch_arm
 1089              	.LVL63:
 1090              	.L63:
 1091              		.loc 1 340 3 is_stmt 0 view .LVU404
 1092              		.align	2
 1093              	.L62:
 1094 006c 00000000 		.word	.LANCHOR0
 1095              		.cfi_endproc
 1096              	.LFE16:
 1097              		.size	chSchDoRescheduleAhead, .-chSchDoRescheduleAhead
 1098              		.section	.text.chSchRescheduleS,"ax",%progbits
 1099              		.align	2
 1100              		.global	chSchRescheduleS
 1101              		.syntax unified
 1102              		.arm
 1103              		.fpu softvfp
 1104              		.type	chSchRescheduleS, %function
 1105              	chSchRescheduleS:
 1106              	.LFB13:
 1107              		.loc 1 246 29 is_stmt 1 view -0
 1108              		.cfi_startproc
 1109              		@ args = 0, pretend = 0, frame = 0
 1110              		@ frame_needed = 0, uses_anonymous_args = 0
 1111              		@ link register save eliminated.
 1112              		.loc 1 248 3 view .LVU406
 1113              		.loc 1 248 21 view .LVU407
 1114              		.loc 1 250 3 view .LVU408
 1115              		.loc 1 250 7 is_stmt 0 view .LVU409
 1116 0000 18309FE5 		ldr	r3, .L66
 1117 0004 002093E5 		ldr	r2, [r3]
 1118 0008 183093E5 		ldr	r3, [r3, #24]
 1119              		.loc 1 250 6 view .LVU410
 1120 000c 082092E5 		ldr	r2, [r2, #8]
 1121 0010 083093E5 		ldr	r3, [r3, #8]
 1122 0014 030052E1 		cmp	r2, r3
 1123 0018 1EFF2F91 		bxls	lr
 1124              		.loc 1 251 5 is_stmt 1 view .LVU411
 1125 001c FEFFFFEA 		b	chSchDoRescheduleAhead
 1126              	.LVL64:
 1127              	.L67:
 1128              		.align	2
 1129              	.L66:
 1130 0020 00000000 		.word	.LANCHOR0
 1131              		.cfi_endproc
 1132              	.LFE13:
 1133              		.size	chSchRescheduleS, .-chSchRescheduleS
 1134              		.section	.text.chSchDoReschedule,"ax",%progbits
 1135              		.align	2
 1136              		.global	chSchDoReschedule
 1137              		.syntax unified
 1138              		.arm
 1139              		.fpu softvfp
 1140              		.type	chSchDoReschedule, %function
ARM GAS  /tmp/ccZTzvT8.s 			page 21


 1141              	chSchDoReschedule:
 1142              	.LFB17:
 1143              		.loc 1 355 30 view -0
 1144              		.cfi_startproc
 1145              		@ args = 0, pretend = 0, frame = 0
 1146              		@ frame_needed = 0, uses_anonymous_args = 0
 1147              		.loc 1 360 3 view .LVU413
 1148              		.loc 1 360 7 is_stmt 0 view .LVU414
 1149 0000 78309FE5 		ldr	r3, .L76
 1150 0004 181093E5 		ldr	r1, [r3, #24]
 1151              		.loc 1 360 6 view .LVU415
 1152 0008 1F20D1E5 		ldrb	r2, [r1, #31]	@ zero_extendqisi2
 1153 000c 000052E3 		cmp	r2, #0
 1154 0010 1900001A 		bne	.L69
 1155              		.loc 1 363 5 is_stmt 1 view .LVU416
 1156              	.LBB109:
 1157              	.LBI109:
 1158              		.loc 1 297 6 view .LVU417
 1159              	.LBB110:
 1160              		.loc 1 298 3 view .LVU418
 1161              		.loc 1 300 3 view .LVU419
 1162              	.LVL65:
 1163              		.loc 1 302 3 view .LVU420
 1164              	.LBB111:
 1165              	.LBI111:
 1166              		.loc 2 52 23 view .LVU421
 1167              	.LBB112:
 1168              		.loc 2 53 3 view .LVU422
 1169              		.loc 2 53 11 is_stmt 0 view .LVU423
 1170 0014 000093E5 		ldr	r0, [r3]
 1171              	.LVL66:
 1172              		.loc 2 55 3 is_stmt 1 view .LVU424
 1173              	.LBE112:
 1174              	.LBE111:
 1175              	.LBE110:
 1176              	.LBE109:
 1177              		.loc 1 355 30 is_stmt 0 view .LVU425
 1178 0018 04E02DE5 		str	lr, [sp, #-4]!
 1179              		.cfi_def_cfa_offset 4
 1180              		.cfi_offset 14, -4
 1181              	.LBB125:
 1182              	.LBB123:
 1183              	.LBB115:
 1184              	.LBB113:
 1185              		.loc 2 55 20 view .LVU426
 1186 001c 00C090E5 		ldr	ip, [r0]
 1187              	.LBE113:
 1188              	.LBE115:
 1189              		.loc 1 305 18 view .LVU427
 1190 0020 14E0A0E3 		mov	lr, #20
 1191              	.LBB116:
 1192              	.LBB114:
 1193              		.loc 2 55 38 view .LVU428
 1194 0024 04308CE5 		str	r3, [ip, #4]
 1195              		.loc 2 56 3 is_stmt 1 view .LVU429
 1196              	.LVL67:
 1197              		.loc 2 55 16 is_stmt 0 view .LVU430
ARM GAS  /tmp/ccZTzvT8.s 			page 22


 1198 0028 00C083E5 		str	ip, [r3]
 1199              	.LBE114:
 1200              	.LBE116:
 1201              		.loc 1 303 18 view .LVU431
 1202 002c 01C0A0E3 		mov	ip, #1
 1203 0030 1CC0C0E5 		strb	ip, [r0, #28]
 1204              		.loc 1 302 3 view .LVU432
 1205 0034 180083E5 		str	r0, [r3, #24]
 1206              		.loc 1 303 3 is_stmt 1 view .LVU433
 1207              		.loc 1 305 3 view .LVU434
 1208              	.LBB117:
 1209              	.LBB118:
 1210              		.loc 1 89 28 is_stmt 0 view .LVU435
 1211 0038 08C091E5 		ldr	ip, [r1, #8]
 1212 003c 0030A0E1 		mov	r3, r0
 1213              		.loc 1 85 15 view .LVU436
 1214 0040 1C20C1E5 		strb	r2, [r1, #28]
 1215              	.LBE118:
 1216              	.LBE117:
 1217              		.loc 1 305 18 view .LVU437
 1218 0044 1FE0C1E5 		strb	lr, [r1, #31]
 1219              		.loc 1 307 3 is_stmt 1 view .LVU438
 1220              	.LVL68:
 1221              	.LBB121:
 1222              	.LBI117:
 1223              		.loc 1 74 9 view .LVU439
 1224              	.LBB119:
 1225              		.loc 1 75 3 view .LVU440
 1226              		.loc 1 77 3 view .LVU441
 1227              		.loc 1 77 21 view .LVU442
 1228              		.loc 1 80 3 view .LVU443
 1229              		.loc 1 83 31 view .LVU444
 1230              		.loc 1 85 3 view .LVU445
 1231              		.loc 1 86 3 view .LVU446
 1232              		.loc 1 86 3 is_stmt 0 view .LVU447
 1233 0048 000000EA 		b	.L71
 1234              	.LVL69:
 1235              	.L75:
 1236              		.loc 1 88 8 view .LVU448
 1237 004c 003093E5 		ldr	r3, [r3]
 1238              	.L71:
 1239              		.loc 1 87 3 is_stmt 1 view .LVU449
 1240              		.loc 1 88 5 view .LVU450
 1241              		.loc 1 89 23 view .LVU451
 1242 0050 082093E5 		ldr	r2, [r3, #8]
 1243 0054 0C0052E1 		cmp	r2, ip
 1244 0058 FBFFFF2A 		bcs	.L75
 1245              		.loc 1 91 3 view .LVU452
 1246              		.loc 1 92 18 is_stmt 0 view .LVU453
 1247 005c 042093E5 		ldr	r2, [r3, #4]
 1248              		.loc 1 91 14 view .LVU454
 1249 0060 003081E5 		str	r3, [r1]
 1250              		.loc 1 92 3 is_stmt 1 view .LVU455
 1251              		.loc 1 92 14 is_stmt 0 view .LVU456
 1252 0064 042081E5 		str	r2, [r1, #4]
 1253              		.loc 1 93 3 is_stmt 1 view .LVU457
 1254              		.loc 1 93 35 is_stmt 0 view .LVU458
ARM GAS  /tmp/ccZTzvT8.s 			page 23


 1255 0068 041083E5 		str	r1, [r3, #4]
 1256              		.loc 1 93 22 view .LVU459
 1257 006c 043091E5 		ldr	r3, [r1, #4]
 1258              	.LBE119:
 1259              	.LBE121:
 1260              	.LBE123:
 1261              	.LBE125:
 1262              		.loc 1 375 1 view .LVU460
 1263 0070 04E09DE4 		ldr	lr, [sp], #4
 1264              		.cfi_restore 14
 1265              		.cfi_def_cfa_offset 0
 1266              	.LBB126:
 1267              	.LBB124:
 1268              	.LBB122:
 1269              	.LBB120:
 1270              		.loc 1 93 22 view .LVU461
 1271 0074 001083E5 		str	r1, [r3]
 1272              		.loc 1 94 3 is_stmt 1 view .LVU462
 1273              	.LVL70:
 1274              		.loc 1 94 3 is_stmt 0 view .LVU463
 1275              	.LBE120:
 1276              	.LBE122:
 1277              		.loc 1 308 3 is_stmt 1 view .LVU464
 1278              		.loc 1 308 3 view .LVU465
 1279              		.loc 1 308 3 view .LVU466
 1280              		.loc 1 308 3 view .LVU467
 1281 0078 FEFFFFEA 		b	_port_switch_arm
 1282              	.LVL71:
 1283              	.L69:
 1284              		.loc 1 308 3 is_stmt 0 view .LVU468
 1285              	.LBE124:
 1286              	.LBE126:
 1287              		.loc 1 368 5 is_stmt 1 view .LVU469
 1288 007c FEFFFFEA 		b	chSchDoRescheduleAhead
 1289              	.LVL72:
 1290              	.L77:
 1291              		.align	2
 1292              	.L76:
 1293 0080 00000000 		.word	.LANCHOR0
 1294              		.cfi_endproc
 1295              	.LFE17:
 1296              		.size	chSchDoReschedule, .-chSchDoReschedule
 1297              		.global	rlist
 1298              		.section	.bss.rlist,"aw",%nobits
 1299              		.align	2
 1300              		.set	.LANCHOR0,. + 0
 1301              		.type	rlist, %object
 1302              		.size	rlist, 28
 1303              	rlist:
 1304 0000 00000000 		.space	28
 1304      00000000 
 1304      00000000 
 1304      00000000 
 1304      00000000 
 1305              		.text
 1306              	.Letext0:
 1307              		.file 3 "/usr/arm-none-eabi/include/machine/_default_types.h"
ARM GAS  /tmp/ccZTzvT8.s 			page 24


 1308              		.file 4 "/usr/arm-none-eabi/include/sys/_stdint.h"
 1309              		.file 5 "../../os/ports/GCC/ARM/chtypes.h"
 1310              		.file 6 "../../os/kernel/include/chlists.h"
 1311              		.file 7 "../../os/kernel/include/chthreads.h"
 1312              		.file 8 "../../os/ports/GCC/ARM/chcore.h"
 1313              		.file 9 "../../os/kernel/include/chvt.h"
 1314              		.file 10 "../../os/kernel/include/chschd.h"
 1315              		.file 11 "../../os/kernel/include/chsem.h"
 1316              		.file 12 "../../os/kernel/include/chmtx.h"
 1317              		.section	.debug_info,"",%progbits
 1318              	.Ldebug_info0:
 1319 0000 870B0000 		.4byte	0xb87
 1320 0004 0500     		.2byte	0x5
 1321 0006 01       		.byte	0x1
 1322 0007 04       		.byte	0x4
 1323 0008 00000000 		.4byte	.Ldebug_abbrev0
 1324 000c 20       		.uleb128 0x20
 1325 000d CB010000 		.4byte	.LASF91
 1326 0011 1D       		.byte	0x1d
 1327 0012 37040000 		.4byte	.LASF92
 1328 0016 92020000 		.4byte	.LASF93
 1329 001a DE000000 		.4byte	.LLRL56
 1330 001e 00000000 		.4byte	0
 1331 0022 00000000 		.4byte	.Ldebug_line0
 1332 0026 21       		.uleb128 0x21
 1333 0027 04       		.byte	0x4
 1334 0028 05       		.byte	0x5
 1335 0029 696E7400 		.ascii	"int\000"
 1336 002d 07       		.uleb128 0x7
 1337 002e 04       		.byte	0x4
 1338 002f 07       		.byte	0x7
 1339 0030 19010000 		.4byte	.LASF0
 1340 0034 07       		.uleb128 0x7
 1341 0035 01       		.byte	0x1
 1342 0036 06       		.byte	0x6
 1343 0037 73000000 		.4byte	.LASF1
 1344 003b 02       		.uleb128 0x2
 1345 003c 24000000 		.4byte	.LASF5
 1346 0040 03       		.byte	0x3
 1347 0041 2B       		.byte	0x2b
 1348 0042 18       		.byte	0x18
 1349 0043 47000000 		.4byte	0x47
 1350 0047 07       		.uleb128 0x7
 1351 0048 01       		.byte	0x1
 1352 0049 08       		.byte	0x8
 1353 004a 16030000 		.4byte	.LASF2
 1354 004e 07       		.uleb128 0x7
 1355 004f 02       		.byte	0x2
 1356 0050 05       		.byte	0x5
 1357 0051 37030000 		.4byte	.LASF3
 1358 0055 07       		.uleb128 0x7
 1359 0056 02       		.byte	0x2
 1360 0057 07       		.byte	0x7
 1361 0058 6F010000 		.4byte	.LASF4
 1362 005c 02       		.uleb128 0x2
 1363 005d F2030000 		.4byte	.LASF6
 1364 0061 03       		.byte	0x3
ARM GAS  /tmp/ccZTzvT8.s 			page 25


 1365 0062 4D       		.byte	0x4d
 1366 0063 18       		.byte	0x18
 1367 0064 68000000 		.4byte	0x68
 1368 0068 07       		.uleb128 0x7
 1369 0069 04       		.byte	0x4
 1370 006a 05       		.byte	0x5
 1371 006b 98000000 		.4byte	.LASF7
 1372 006f 02       		.uleb128 0x2
 1373 0070 E5000000 		.4byte	.LASF8
 1374 0074 03       		.byte	0x3
 1375 0075 4F       		.byte	0x4f
 1376 0076 19       		.byte	0x19
 1377 0077 7B000000 		.4byte	0x7b
 1378 007b 07       		.uleb128 0x7
 1379 007c 04       		.byte	0x4
 1380 007d 07       		.byte	0x7
 1381 007e 46010000 		.4byte	.LASF9
 1382 0082 07       		.uleb128 0x7
 1383 0083 08       		.byte	0x8
 1384 0084 05       		.byte	0x5
 1385 0085 65000000 		.4byte	.LASF10
 1386 0089 07       		.uleb128 0x7
 1387 008a 08       		.byte	0x8
 1388 008b 07       		.byte	0x7
 1389 008c 2E000000 		.4byte	.LASF11
 1390 0090 02       		.uleb128 0x2
 1391 0091 5A040000 		.4byte	.LASF12
 1392 0095 04       		.byte	0x4
 1393 0096 18       		.byte	0x18
 1394 0097 13       		.byte	0x13
 1395 0098 3B000000 		.4byte	0x3b
 1396 009c 02       		.uleb128 0x2
 1397 009d 0E030000 		.4byte	.LASF13
 1398 00a1 04       		.byte	0x4
 1399 00a2 2C       		.byte	0x2c
 1400 00a3 13       		.byte	0x13
 1401 00a4 5C000000 		.4byte	0x5c
 1402 00a8 02       		.uleb128 0x2
 1403 00a9 9B030000 		.4byte	.LASF14
 1404 00ad 04       		.byte	0x4
 1405 00ae 30       		.byte	0x30
 1406 00af 14       		.byte	0x14
 1407 00b0 6F000000 		.4byte	0x6f
 1408 00b4 02       		.uleb128 0x2
 1409 00b5 7F000000 		.4byte	.LASF15
 1410 00b9 05       		.byte	0x5
 1411 00ba 29       		.byte	0x29
 1412 00bb 19       		.byte	0x19
 1413 00bc 9C000000 		.4byte	0x9c
 1414 00c0 02       		.uleb128 0x2
 1415 00c1 9D010000 		.4byte	.LASF16
 1416 00c5 05       		.byte	0x5
 1417 00c6 2A       		.byte	0x2a
 1418 00c7 19       		.byte	0x19
 1419 00c8 90000000 		.4byte	0x90
 1420 00cc 02       		.uleb128 0x2
 1421 00cd A1000000 		.4byte	.LASF17
ARM GAS  /tmp/ccZTzvT8.s 			page 26


 1422 00d1 05       		.byte	0x5
 1423 00d2 2B       		.byte	0x2b
 1424 00d3 19       		.byte	0x19
 1425 00d4 90000000 		.4byte	0x90
 1426 00d8 02       		.uleb128 0x2
 1427 00d9 F7020000 		.4byte	.LASF18
 1428 00dd 05       		.byte	0x5
 1429 00de 2C       		.byte	0x2c
 1430 00df 19       		.byte	0x19
 1431 00e0 90000000 		.4byte	0x90
 1432 00e4 02       		.uleb128 0x2
 1433 00e5 8E000000 		.4byte	.LASF19
 1434 00e9 05       		.byte	0x5
 1435 00ea 2D       		.byte	0x2d
 1436 00eb 19       		.byte	0x19
 1437 00ec 90000000 		.4byte	0x90
 1438 00f0 02       		.uleb128 0x2
 1439 00f1 06030000 		.4byte	.LASF20
 1440 00f5 05       		.byte	0x5
 1441 00f6 2E       		.byte	0x2e
 1442 00f7 19       		.byte	0x19
 1443 00f8 A8000000 		.4byte	0xa8
 1444 00fc 02       		.uleb128 0x2
 1445 00fd 8F010000 		.4byte	.LASF21
 1446 0101 05       		.byte	0x5
 1447 0102 2F       		.byte	0x2f
 1448 0103 19       		.byte	0x19
 1449 0104 9C000000 		.4byte	0x9c
 1450 0108 02       		.uleb128 0x2
 1451 0109 B1010000 		.4byte	.LASF22
 1452 010d 05       		.byte	0x5
 1453 010e 31       		.byte	0x31
 1454 010f 19       		.byte	0x19
 1455 0110 A8000000 		.4byte	0xa8
 1456 0114 02       		.uleb128 0x2
 1457 0115 DD030000 		.4byte	.LASF23
 1458 0119 05       		.byte	0x5
 1459 011a 33       		.byte	0x33
 1460 011b 19       		.byte	0x19
 1461 011c A8000000 		.4byte	0xa8
 1462 0120 22       		.uleb128 0x22
 1463 0121 14010000 		.4byte	0x114
 1464 0125 02       		.uleb128 0x2
 1465 0126 13010000 		.4byte	.LASF24
 1466 012a 05       		.byte	0x5
 1467 012b 34       		.byte	0x34
 1468 012c 19       		.byte	0x19
 1469 012d 9C000000 		.4byte	0x9c
 1470 0131 02       		.uleb128 0x2
 1471 0132 70030000 		.4byte	.LASF25
 1472 0136 06       		.byte	0x6
 1473 0137 23       		.byte	0x23
 1474 0138 17       		.byte	0x17
 1475 0139 3D010000 		.4byte	0x13d
 1476 013d 0A       		.uleb128 0xa
 1477 013e 70030000 		.4byte	.LASF25
 1478 0142 44       		.byte	0x44
ARM GAS  /tmp/ccZTzvT8.s 			page 27


 1479 0143 07       		.byte	0x7
 1480 0144 57       		.byte	0x57
 1481 0145 08       		.byte	0x8
 1482 0146 42020000 		.4byte	0x242
 1483 014a 01       		.uleb128 0x1
 1484 014b 61030000 		.4byte	.LASF26
 1485 014f 07       		.byte	0x7
 1486 0150 58       		.byte	0x58
 1487 0151 1A       		.byte	0x1a
 1488 0152 65020000 		.4byte	0x265
 1489 0156 00       		.byte	0
 1490 0157 01       		.uleb128 0x1
 1491 0158 FF020000 		.4byte	.LASF27
 1492 015c 07       		.byte	0x7
 1493 015d 5A       		.byte	0x5a
 1494 015e 1A       		.byte	0x1a
 1495 015f 65020000 		.4byte	0x265
 1496 0163 04       		.byte	0x4
 1497 0164 01       		.uleb128 0x1
 1498 0165 4E000000 		.4byte	.LASF28
 1499 0169 07       		.byte	0x7
 1500 016a 5C       		.byte	0x5c
 1501 016b 19       		.byte	0x19
 1502 016c F0000000 		.4byte	0xf0
 1503 0170 08       		.byte	0x8
 1504 0171 01       		.uleb128 0x1
 1505 0172 8D040000 		.4byte	.LASF29
 1506 0176 07       		.byte	0x7
 1507 0177 5D       		.byte	0x5d
 1508 0178 19       		.byte	0x19
 1509 0179 22030000 		.4byte	0x322
 1510 017d 0C       		.byte	0xc
 1511 017e 01       		.uleb128 0x1
 1512 017f C4000000 		.4byte	.LASF30
 1513 0183 07       		.byte	0x7
 1514 0184 5F       		.byte	0x5f
 1515 0185 1A       		.byte	0x1a
 1516 0186 65020000 		.4byte	0x265
 1517 018a 10       		.byte	0x10
 1518 018b 01       		.uleb128 0x1
 1519 018c C5020000 		.4byte	.LASF31
 1520 0190 07       		.byte	0x7
 1521 0191 60       		.byte	0x60
 1522 0192 1A       		.byte	0x1a
 1523 0193 65020000 		.4byte	0x265
 1524 0197 14       		.byte	0x14
 1525 0198 01       		.uleb128 0x1
 1526 0199 69040000 		.4byte	.LASF32
 1527 019d 07       		.byte	0x7
 1528 019e 67       		.byte	0x67
 1529 019f 1A       		.byte	0x1a
 1530 01a0 DD040000 		.4byte	0x4dd
 1531 01a4 18       		.byte	0x18
 1532 01a5 01       		.uleb128 0x1
 1533 01a6 41030000 		.4byte	.LASF33
 1534 01aa 07       		.byte	0x7
 1535 01ab 72       		.byte	0x72
ARM GAS  /tmp/ccZTzvT8.s 			page 28


 1536 01ac 19       		.byte	0x19
 1537 01ad CC000000 		.4byte	0xcc
 1538 01b1 1C       		.byte	0x1c
 1539 01b2 01       		.uleb128 0x1
 1540 01b3 68030000 		.4byte	.LASF34
 1541 01b7 07       		.byte	0x7
 1542 01b8 76       		.byte	0x76
 1543 01b9 19       		.byte	0x19
 1544 01ba C0000000 		.4byte	0xc0
 1545 01be 1D       		.byte	0x1d
 1546 01bf 01       		.uleb128 0x1
 1547 01c0 26040000 		.4byte	.LASF35
 1548 01c4 07       		.byte	0x7
 1549 01c5 7B       		.byte	0x7b
 1550 01c6 19       		.byte	0x19
 1551 01c7 D8000000 		.4byte	0xd8
 1552 01cb 1E       		.byte	0x1e
 1553 01cc 01       		.uleb128 0x1
 1554 01cd 49030000 		.4byte	.LASF36
 1555 01d1 07       		.byte	0x7
 1556 01d2 81       		.byte	0x81
 1557 01d3 19       		.byte	0x19
 1558 01d4 E4000000 		.4byte	0xe4
 1559 01d8 1F       		.byte	0x1f
 1560 01d9 01       		.uleb128 0x1
 1561 01da FC030000 		.4byte	.LASF37
 1562 01de 07       		.byte	0x7
 1563 01df 88       		.byte	0x88
 1564 01e0 19       		.byte	0x19
 1565 01e1 20010000 		.4byte	0x120
 1566 01e5 20       		.byte	0x20
 1567 01e6 06       		.uleb128 0x6
 1568 01e7 705F7500 		.ascii	"p_u\000"
 1569 01eb 07       		.byte	0x7
 1570 01ec AD       		.byte	0xad
 1571 01ed 19       		.byte	0x19
 1572 01ee A7040000 		.4byte	0x4a7
 1573 01f2 24       		.byte	0x24
 1574 01f3 01       		.uleb128 0x1
 1575 01f4 93040000 		.4byte	.LASF38
 1576 01f8 07       		.byte	0x7
 1577 01f9 B2       		.byte	0xb2
 1578 01fa 19       		.byte	0x19
 1579 01fb 8C020000 		.4byte	0x28c
 1580 01ff 28       		.byte	0x28
 1581 0200 01       		.uleb128 0x1
 1582 0201 0A040000 		.4byte	.LASF39
 1583 0205 07       		.byte	0x7
 1584 0206 B8       		.byte	0xb8
 1585 0207 19       		.byte	0x19
 1586 0208 6A020000 		.4byte	0x26a
 1587 020c 2C       		.byte	0x2c
 1588 020d 01       		.uleb128 0x1
 1589 020e 00000000 		.4byte	.LASF40
 1590 0212 07       		.byte	0x7
 1591 0213 BC       		.byte	0xbc
 1592 0214 19       		.byte	0x19
ARM GAS  /tmp/ccZTzvT8.s 			page 29


 1593 0215 FC000000 		.4byte	0xfc
 1594 0219 34       		.byte	0x34
 1595 021a 01       		.uleb128 0x1
 1596 021b 90030000 		.4byte	.LASF41
 1597 021f 07       		.byte	0x7
 1598 0220 C2       		.byte	0xc2
 1599 0221 19       		.byte	0x19
 1600 0222 08010000 		.4byte	0x108
 1601 0226 38       		.byte	0x38
 1602 0227 01       		.uleb128 0x1
 1603 0228 2D030000 		.4byte	.LASF42
 1604 022c 07       		.byte	0x7
 1605 022d C9       		.byte	0xc9
 1606 022e 1A       		.byte	0x1a
 1607 022f EE040000 		.4byte	0x4ee
 1608 0233 3C       		.byte	0x3c
 1609 0234 01       		.uleb128 0x1
 1610 0235 E7030000 		.4byte	.LASF43
 1611 0239 07       		.byte	0x7
 1612 023a CD       		.byte	0xcd
 1613 023b 19       		.byte	0x19
 1614 023c F0000000 		.4byte	0xf0
 1615 0240 40       		.byte	0x40
 1616 0241 00       		.byte	0
 1617 0242 11       		.uleb128 0x11
 1618 0243 08       		.byte	0x8
 1619 0244 06       		.byte	0x6
 1620 0245 5A       		.byte	0x5a
 1621 0246 65020000 		.4byte	0x265
 1622 024a 01       		.uleb128 0x1
 1623 024b 61030000 		.4byte	.LASF26
 1624 024f 06       		.byte	0x6
 1625 0250 5B       		.byte	0x5b
 1626 0251 1A       		.byte	0x1a
 1627 0252 65020000 		.4byte	0x265
 1628 0256 00       		.byte	0
 1629 0257 01       		.uleb128 0x1
 1630 0258 FF020000 		.4byte	.LASF27
 1631 025c 06       		.byte	0x6
 1632 025d 5D       		.byte	0x5d
 1633 025e 1A       		.byte	0x1a
 1634 025f 65020000 		.4byte	0x265
 1635 0263 04       		.byte	0x4
 1636 0264 00       		.byte	0
 1637 0265 08       		.uleb128 0x8
 1638 0266 31010000 		.4byte	0x131
 1639 026a 02       		.uleb128 0x2
 1640 026b D3020000 		.4byte	.LASF44
 1641 026f 06       		.byte	0x6
 1642 0270 5F       		.byte	0x5f
 1643 0271 03       		.byte	0x3
 1644 0272 42020000 		.4byte	0x242
 1645 0276 11       		.uleb128 0x11
 1646 0277 04       		.byte	0x4
 1647 0278 06       		.byte	0x6
 1648 0279 64       		.byte	0x64
 1649 027a 8C020000 		.4byte	0x28c
ARM GAS  /tmp/ccZTzvT8.s 			page 30


 1650 027e 01       		.uleb128 0x1
 1651 027f 61030000 		.4byte	.LASF26
 1652 0283 06       		.byte	0x6
 1653 0284 66       		.byte	0x66
 1654 0285 16       		.byte	0x16
 1655 0286 65020000 		.4byte	0x265
 1656 028a 00       		.byte	0
 1657 028b 00       		.byte	0
 1658 028c 02       		.uleb128 0x2
 1659 028d A5010000 		.4byte	.LASF45
 1660 0291 06       		.byte	0x6
 1661 0292 69       		.byte	0x69
 1662 0293 03       		.byte	0x3
 1663 0294 76020000 		.4byte	0x276
 1664 0298 02       		.uleb128 0x2
 1665 0299 F0000000 		.4byte	.LASF46
 1666 029d 08       		.byte	0x8
 1667 029e A2       		.byte	0xa2
 1668 029f 0F       		.byte	0xf
 1669 02a0 A4020000 		.4byte	0x2a4
 1670 02a4 23       		.uleb128 0x23
 1671 02a5 04       		.byte	0x4
 1672 02a6 0A       		.uleb128 0xa
 1673 02a7 03040000 		.4byte	.LASF47
 1674 02ab 24       		.byte	0x24
 1675 02ac 08       		.byte	0x8
 1676 02ad B9       		.byte	0xb9
 1677 02ae 08       		.byte	0x8
 1678 02af 22030000 		.4byte	0x322
 1679 02b3 06       		.uleb128 0x6
 1680 02b4 723400   		.ascii	"r4\000"
 1681 02b7 08       		.byte	0x8
 1682 02b8 BA       		.byte	0xba
 1683 02b9 11       		.byte	0x11
 1684 02ba 98020000 		.4byte	0x298
 1685 02be 00       		.byte	0
 1686 02bf 06       		.uleb128 0x6
 1687 02c0 723500   		.ascii	"r5\000"
 1688 02c3 08       		.byte	0x8
 1689 02c4 BB       		.byte	0xbb
 1690 02c5 11       		.byte	0x11
 1691 02c6 98020000 		.4byte	0x298
 1692 02ca 04       		.byte	0x4
 1693 02cb 06       		.uleb128 0x6
 1694 02cc 723600   		.ascii	"r6\000"
 1695 02cf 08       		.byte	0x8
 1696 02d0 BC       		.byte	0xbc
 1697 02d1 11       		.byte	0x11
 1698 02d2 98020000 		.4byte	0x298
 1699 02d6 08       		.byte	0x8
 1700 02d7 06       		.uleb128 0x6
 1701 02d8 723700   		.ascii	"r7\000"
 1702 02db 08       		.byte	0x8
 1703 02dc BD       		.byte	0xbd
 1704 02dd 11       		.byte	0x11
 1705 02de 98020000 		.4byte	0x298
 1706 02e2 0C       		.byte	0xc
ARM GAS  /tmp/ccZTzvT8.s 			page 31


 1707 02e3 06       		.uleb128 0x6
 1708 02e4 723800   		.ascii	"r8\000"
 1709 02e7 08       		.byte	0x8
 1710 02e8 BE       		.byte	0xbe
 1711 02e9 11       		.byte	0x11
 1712 02ea 98020000 		.4byte	0x298
 1713 02ee 10       		.byte	0x10
 1714 02ef 06       		.uleb128 0x6
 1715 02f0 723900   		.ascii	"r9\000"
 1716 02f3 08       		.byte	0x8
 1717 02f4 BF       		.byte	0xbf
 1718 02f5 11       		.byte	0x11
 1719 02f6 98020000 		.4byte	0x298
 1720 02fa 14       		.byte	0x14
 1721 02fb 06       		.uleb128 0x6
 1722 02fc 72313000 		.ascii	"r10\000"
 1723 0300 08       		.byte	0x8
 1724 0301 C0       		.byte	0xc0
 1725 0302 11       		.byte	0x11
 1726 0303 98020000 		.4byte	0x298
 1727 0307 18       		.byte	0x18
 1728 0308 06       		.uleb128 0x6
 1729 0309 72313100 		.ascii	"r11\000"
 1730 030d 08       		.byte	0x8
 1731 030e C1       		.byte	0xc1
 1732 030f 11       		.byte	0x11
 1733 0310 98020000 		.4byte	0x298
 1734 0314 1C       		.byte	0x1c
 1735 0315 06       		.uleb128 0x6
 1736 0316 6C7200   		.ascii	"lr\000"
 1737 0319 08       		.byte	0x8
 1738 031a C2       		.byte	0xc2
 1739 031b 11       		.byte	0x11
 1740 031c 98020000 		.4byte	0x298
 1741 0320 20       		.byte	0x20
 1742 0321 00       		.byte	0
 1743 0322 0A       		.uleb128 0xa
 1744 0323 67010000 		.4byte	.LASF48
 1745 0327 04       		.byte	0x4
 1746 0328 08       		.byte	0x8
 1747 0329 CA       		.byte	0xca
 1748 032a 08       		.byte	0x8
 1749 032b 3D030000 		.4byte	0x33d
 1750 032f 06       		.uleb128 0x6
 1751 0330 72313300 		.ascii	"r13\000"
 1752 0334 08       		.byte	0x8
 1753 0335 CB       		.byte	0xcb
 1754 0336 12       		.byte	0x12
 1755 0337 3D030000 		.4byte	0x33d
 1756 033b 00       		.byte	0
 1757 033c 00       		.byte	0
 1758 033d 08       		.uleb128 0x8
 1759 033e A6020000 		.4byte	0x2a6
 1760 0342 02       		.uleb128 0x2
 1761 0343 58010000 		.4byte	.LASF49
 1762 0347 09       		.byte	0x9
 1763 0348 4E       		.byte	0x4e
ARM GAS  /tmp/ccZTzvT8.s 			page 32


 1764 0349 10       		.byte	0x10
 1765 034a 4E030000 		.4byte	0x34e
 1766 034e 08       		.uleb128 0x8
 1767 034f 53030000 		.4byte	0x353
 1768 0353 24       		.uleb128 0x24
 1769 0354 5E030000 		.4byte	0x35e
 1770 0358 09       		.uleb128 0x9
 1771 0359 A4020000 		.4byte	0x2a4
 1772 035d 00       		.byte	0
 1773 035e 02       		.uleb128 0x2
 1774 035f AC030000 		.4byte	.LASF50
 1775 0363 09       		.byte	0x9
 1776 0364 53       		.byte	0x53
 1777 0365 1D       		.byte	0x1d
 1778 0366 6A030000 		.4byte	0x36a
 1779 036a 0A       		.uleb128 0xa
 1780 036b AC030000 		.4byte	.LASF50
 1781 036f 14       		.byte	0x14
 1782 0370 09       		.byte	0x9
 1783 0371 5A       		.byte	0x5a
 1784 0372 08       		.byte	0x8
 1785 0373 B9030000 		.4byte	0x3b9
 1786 0377 01       		.uleb128 0x1
 1787 0378 2D010000 		.4byte	.LASF51
 1788 037c 09       		.byte	0x9
 1789 037d 5B       		.byte	0x5b
 1790 037e 1A       		.byte	0x1a
 1791 037f B9030000 		.4byte	0x3b9
 1792 0383 00       		.byte	0
 1793 0384 01       		.uleb128 0x1
 1794 0385 F9000000 		.4byte	.LASF52
 1795 0389 09       		.byte	0x9
 1796 038a 5D       		.byte	0x5d
 1797 038b 1A       		.byte	0x1a
 1798 038c B9030000 		.4byte	0x3b9
 1799 0390 04       		.byte	0x4
 1800 0391 01       		.uleb128 0x1
 1801 0392 C3010000 		.4byte	.LASF53
 1802 0396 09       		.byte	0x9
 1803 0397 5F       		.byte	0x5f
 1804 0398 19       		.byte	0x19
 1805 0399 14010000 		.4byte	0x114
 1806 039d 08       		.byte	0x8
 1807 039e 01       		.uleb128 0x1
 1808 039f 6A020000 		.4byte	.LASF54
 1809 03a3 09       		.byte	0x9
 1810 03a4 60       		.byte	0x60
 1811 03a5 19       		.byte	0x19
 1812 03a6 42030000 		.4byte	0x342
 1813 03aa 0C       		.byte	0xc
 1814 03ab 01       		.uleb128 0x1
 1815 03ac 15040000 		.4byte	.LASF55
 1816 03b0 09       		.byte	0x9
 1817 03b1 62       		.byte	0x62
 1818 03b2 1A       		.byte	0x1a
 1819 03b3 A4020000 		.4byte	0x2a4
 1820 03b7 10       		.byte	0x10
ARM GAS  /tmp/ccZTzvT8.s 			page 33


 1821 03b8 00       		.byte	0
 1822 03b9 08       		.uleb128 0x8
 1823 03ba 5E030000 		.4byte	0x35e
 1824 03be 11       		.uleb128 0x11
 1825 03bf 1C       		.byte	0x1c
 1826 03c0 0A       		.byte	0xa
 1827 03c1 57       		.byte	0x57
 1828 03c2 15040000 		.4byte	0x415
 1829 03c6 01       		.uleb128 0x1
 1830 03c7 A4030000 		.4byte	.LASF56
 1831 03cb 0A       		.byte	0xa
 1832 03cc 58       		.byte	0x58
 1833 03cd 19       		.byte	0x19
 1834 03ce 6A020000 		.4byte	0x26a
 1835 03d2 00       		.byte	0
 1836 03d3 01       		.uleb128 0x1
 1837 03d4 53030000 		.4byte	.LASF57
 1838 03d8 0A       		.byte	0xa
 1839 03d9 59       		.byte	0x59
 1840 03da 19       		.byte	0x19
 1841 03db F0000000 		.4byte	0xf0
 1842 03df 08       		.byte	0x8
 1843 03e0 01       		.uleb128 0x1
 1844 03e1 CD020000 		.4byte	.LASF58
 1845 03e5 0A       		.byte	0xa
 1846 03e6 5B       		.byte	0x5b
 1847 03e7 19       		.byte	0x19
 1848 03e8 22030000 		.4byte	0x322
 1849 03ec 0C       		.byte	0xc
 1850 03ed 01       		.uleb128 0x1
 1851 03ee 95010000 		.4byte	.LASF59
 1852 03f2 0A       		.byte	0xa
 1853 03f3 5E       		.byte	0x5e
 1854 03f4 1A       		.byte	0x1a
 1855 03f5 65020000 		.4byte	0x265
 1856 03f9 10       		.byte	0x10
 1857 03fa 01       		.uleb128 0x1
 1858 03fb EF020000 		.4byte	.LASF60
 1859 03ff 0A       		.byte	0xa
 1860 0400 5F       		.byte	0x5f
 1861 0401 1A       		.byte	0x1a
 1862 0402 65020000 		.4byte	0x265
 1863 0406 14       		.byte	0x14
 1864 0407 01       		.uleb128 0x1
 1865 0408 E5020000 		.4byte	.LASF61
 1866 040c 0A       		.byte	0xa
 1867 040d 62       		.byte	0x62
 1868 040e 1A       		.byte	0x1a
 1869 040f 65020000 		.4byte	0x265
 1870 0413 18       		.byte	0x18
 1871 0414 00       		.byte	0
 1872 0415 02       		.uleb128 0x2
 1873 0416 2D040000 		.4byte	.LASF62
 1874 041a 0A       		.byte	0xa
 1875 041b 64       		.byte	0x64
 1876 041c 03       		.byte	0x3
 1877 041d BE030000 		.4byte	0x3be
ARM GAS  /tmp/ccZTzvT8.s 			page 34


 1878 0421 25       		.uleb128 0x25
 1879 0422 54040000 		.4byte	.LASF80
 1880 0426 0A       		.byte	0xa
 1881 0427 68       		.byte	0x68
 1882 0428 12       		.byte	0x12
 1883 0429 15040000 		.4byte	0x415
 1884 042d 0A       		.uleb128 0xa
 1885 042e 1C040000 		.4byte	.LASF63
 1886 0432 0C       		.byte	0xc
 1887 0433 0B       		.byte	0xb
 1888 0434 25       		.byte	0x25
 1889 0435 10       		.byte	0x10
 1890 0436 55040000 		.4byte	0x455
 1891 043a 01       		.uleb128 0x1
 1892 043b CC000000 		.4byte	.LASF64
 1893 043f 0B       		.byte	0xb
 1894 0440 26       		.byte	0x26
 1895 0441 19       		.byte	0x19
 1896 0442 6A020000 		.4byte	0x26a
 1897 0446 00       		.byte	0
 1898 0447 01       		.uleb128 0x1
 1899 0448 61010000 		.4byte	.LASF65
 1900 044c 0B       		.byte	0xb
 1901 044d 28       		.byte	0x28
 1902 044e 19       		.byte	0x19
 1903 044f 25010000 		.4byte	0x125
 1904 0453 08       		.byte	0x8
 1905 0454 00       		.byte	0
 1906 0455 02       		.uleb128 0x2
 1907 0456 1C040000 		.4byte	.LASF63
 1908 045a 0B       		.byte	0xb
 1909 045b 29       		.byte	0x29
 1910 045c 03       		.byte	0x3
 1911 045d 2D040000 		.4byte	0x42d
 1912 0461 0A       		.uleb128 0xa
 1913 0462 BD010000 		.4byte	.LASF66
 1914 0466 10       		.byte	0x10
 1915 0467 0C       		.byte	0xc
 1916 0468 25       		.byte	0x25
 1917 0469 10       		.byte	0x10
 1918 046a 96040000 		.4byte	0x496
 1919 046e 01       		.uleb128 0x1
 1920 046f 86000000 		.4byte	.LASF67
 1921 0473 0C       		.byte	0xc
 1922 0474 26       		.byte	0x26
 1923 0475 19       		.byte	0x19
 1924 0476 6A020000 		.4byte	0x26a
 1925 047a 00       		.byte	0
 1926 047b 01       		.uleb128 0x1
 1927 047c 85040000 		.4byte	.LASF68
 1928 0480 0C       		.byte	0xc
 1929 0481 28       		.byte	0x28
 1930 0482 1A       		.byte	0x1a
 1931 0483 65020000 		.4byte	0x265
 1932 0487 08       		.byte	0x8
 1933 0488 01       		.uleb128 0x1
 1934 0489 D6030000 		.4byte	.LASF69
ARM GAS  /tmp/ccZTzvT8.s 			page 35


 1935 048d 0C       		.byte	0xc
 1936 048e 2A       		.byte	0x2a
 1937 048f 1A       		.byte	0x1a
 1938 0490 96040000 		.4byte	0x496
 1939 0494 0C       		.byte	0xc
 1940 0495 00       		.byte	0
 1941 0496 08       		.uleb128 0x8
 1942 0497 61040000 		.4byte	0x461
 1943 049b 02       		.uleb128 0x2
 1944 049c BD010000 		.4byte	.LASF66
 1945 04a0 0C       		.byte	0xc
 1946 04a1 2C       		.byte	0x2c
 1947 04a2 03       		.byte	0x3
 1948 04a3 61040000 		.4byte	0x461
 1949 04a7 26       		.uleb128 0x26
 1950 04a8 04       		.byte	0x4
 1951 04a9 07       		.byte	0x7
 1952 04aa 8F       		.byte	0x8f
 1953 04ab 03       		.byte	0x3
 1954 04ac DD040000 		.4byte	0x4dd
 1955 04b0 0E       		.uleb128 0xe
 1956 04b1 06000000 		.4byte	.LASF70
 1957 04b5 96       		.byte	0x96
 1958 04b6 19       		.byte	0x19
 1959 04b7 FC000000 		.4byte	0xfc
 1960 04bb 0E       		.uleb128 0xe
 1961 04bc 45000000 		.4byte	.LASF71
 1962 04c0 9D       		.byte	0x9d
 1963 04c1 19       		.byte	0x19
 1964 04c2 FC000000 		.4byte	0xfc
 1965 04c6 0E       		.uleb128 0xe
 1966 04c7 62040000 		.4byte	.LASF72
 1967 04cb A4       		.byte	0xa4
 1968 04cc 1A       		.byte	0x1a
 1969 04cd A4020000 		.4byte	0x2a4
 1970 04d1 0E       		.uleb128 0xe
 1971 04d2 5A030000 		.4byte	.LASF73
 1972 04d6 AB       		.byte	0xab
 1973 04d7 19       		.byte	0x19
 1974 04d8 08010000 		.4byte	0x108
 1975 04dc 00       		.byte	0
 1976 04dd 08       		.uleb128 0x8
 1977 04de E9040000 		.4byte	0x4e9
 1978 04e2 07       		.uleb128 0x7
 1979 04e3 01       		.byte	0x1
 1980 04e4 08       		.byte	0x8
 1981 04e5 B9030000 		.4byte	.LASF74
 1982 04e9 27       		.uleb128 0x27
 1983 04ea E2040000 		.4byte	0x4e2
 1984 04ee 08       		.uleb128 0x8
 1985 04ef 9B040000 		.4byte	0x49b
 1986 04f3 28       		.uleb128 0x28
 1987 04f4 21040000 		.4byte	0x421
 1988 04f8 01       		.byte	0x1
 1989 04f9 28       		.byte	0x28
 1990 04fa 0B       		.byte	0xb
 1991 04fb 05       		.uleb128 0x5
ARM GAS  /tmp/ccZTzvT8.s 			page 36


 1992 04fc 03       		.byte	0x3
 1993 04fd 00000000 		.4byte	rlist
 1994 0501 14       		.uleb128 0x14
 1995 0502 77030000 		.4byte	.LASF75
 1996 0506 DB       		.byte	0xdb
 1997 0507 11050000 		.4byte	0x511
 1998 050b 09       		.uleb128 0x9
 1999 050c B9030000 		.4byte	0x3b9
 2000 0510 00       		.byte	0
 2001 0511 14       		.uleb128 0x14
 2002 0512 BC020000 		.4byte	.LASF76
 2003 0516 DA       		.byte	0xda
 2004 0517 30050000 		.4byte	0x530
 2005 051b 09       		.uleb128 0x9
 2006 051c B9030000 		.4byte	0x3b9
 2007 0520 09       		.uleb128 0x9
 2008 0521 14010000 		.4byte	0x114
 2009 0525 09       		.uleb128 0x9
 2010 0526 42030000 		.4byte	0x342
 2011 052a 09       		.uleb128 0x9
 2012 052b A4020000 		.4byte	0x2a4
 2013 052f 00       		.byte	0
 2014 0530 29       		.uleb128 0x29
 2015 0531 35010000 		.4byte	.LASF77
 2016 0535 08       		.byte	0x8
 2017 0536 DA01     		.2byte	0x1da
 2018 0538 08       		.byte	0x8
 2019 0539 48050000 		.4byte	0x548
 2020 053d 09       		.uleb128 0x9
 2021 053e 65020000 		.4byte	0x265
 2022 0542 09       		.uleb128 0x9
 2023 0543 65020000 		.4byte	0x265
 2024 0547 00       		.byte	0
 2025 0548 15       		.uleb128 0x15
 2026 0549 01010000 		.4byte	.LASF78
 2027 054d 6301     		.2byte	0x163
 2028 054f 00000000 		.4byte	.LFB17
 2029 0553 84000000 		.4byte	.LFE17-.LFB17
 2030 0557 01       		.uleb128 0x1
 2031 0558 9C       		.byte	0x9c
 2032 0559 05060000 		.4byte	0x605
 2033 055d 0B       		.uleb128 0xb
 2034 055e 81060000 		.4byte	0x681
 2035 0562 14000000 		.4byte	.LBI109
 2036 0566 01       		.byte	.LVU417
 2037 0567 B1000000 		.4byte	.LLRL48
 2038 056b 6B01     		.2byte	0x16b
 2039 056d 05       		.byte	0x5
 2040 056e FB050000 		.4byte	0x5fb
 2041 0572 05       		.uleb128 0x5
 2042 0573 B1000000 		.4byte	.LLRL48
 2043 0577 03       		.uleb128 0x3
 2044 0578 8F060000 		.4byte	0x68f
 2045 057c 0E000000 		.4byte	.LLST49
 2046 0580 0C000000 		.4byte	.LVUS49
 2047 0584 0B       		.uleb128 0xb
 2048 0585 3A0A0000 		.4byte	0xa3a
ARM GAS  /tmp/ccZTzvT8.s 			page 37


 2049 0589 14000000 		.4byte	.LBI111
 2050 058d 05       		.byte	.LVU421
 2051 058e C0000000 		.4byte	.LLRL50
 2052 0592 2E01     		.2byte	0x12e
 2053 0594 03       		.byte	0x3
 2054 0595 BA050000 		.4byte	0x5ba
 2055 0599 04       		.uleb128 0x4
 2056 059a 480A0000 		.4byte	0xa48
 2057 059e 19000000 		.4byte	.LLST51
 2058 05a2 17000000 		.4byte	.LVUS51
 2059 05a6 05       		.uleb128 0x5
 2060 05a7 C0000000 		.4byte	.LLRL50
 2061 05ab 03       		.uleb128 0x3
 2062 05ac 540A0000 		.4byte	0xa54
 2063 05b0 29000000 		.4byte	.LLST52
 2064 05b4 27000000 		.4byte	.LVUS52
 2065 05b8 00       		.byte	0
 2066 05b9 00       		.byte	0
 2067 05ba 0B       		.uleb128 0xb
 2068 05bb E7090000 		.4byte	0x9e7
 2069 05bf 48000000 		.4byte	.LBI117
 2070 05c3 01       		.byte	.LVU439
 2071 05c4 CF000000 		.4byte	.LLRL53
 2072 05c8 3301     		.2byte	0x133
 2073 05ca 03       		.byte	0x3
 2074 05cb F0050000 		.4byte	0x5f0
 2075 05cf 04       		.uleb128 0x4
 2076 05d0 F8090000 		.4byte	0x9f8
 2077 05d4 34000000 		.4byte	.LLST54
 2078 05d8 32000000 		.4byte	.LVUS54
 2079 05dc 05       		.uleb128 0x5
 2080 05dd CF000000 		.4byte	.LLRL53
 2081 05e1 03       		.uleb128 0x3
 2082 05e2 030A0000 		.4byte	0xa03
 2083 05e6 3F000000 		.4byte	.LLST55
 2084 05ea 3D000000 		.4byte	.LVUS55
 2085 05ee 00       		.byte	0
 2086 05ef 00       		.byte	0
 2087 05f0 0C       		.uleb128 0xc
 2088 05f1 7C000000 		.4byte	.LVL71
 2089 05f5 30050000 		.4byte	0x530
 2090 05f9 00       		.byte	0
 2091 05fa 00       		.byte	0
 2092 05fb 0C       		.uleb128 0xc
 2093 05fc 80000000 		.4byte	.LVL72
 2094 0600 05060000 		.4byte	0x605
 2095 0604 00       		.byte	0
 2096 0605 15       		.uleb128 0x15
 2097 0606 0D000000 		.4byte	.LASF79
 2098 060a 4201     		.2byte	0x142
 2099 060c 00000000 		.4byte	.LFB16
 2100 0610 70000000 		.4byte	.LFE16-.LFB16
 2101 0614 01       		.uleb128 0x1
 2102 0615 9C       		.byte	0x9c
 2103 0616 81060000 		.4byte	0x681
 2104 061a 0F       		.uleb128 0xf
 2105 061b 6F747000 		.ascii	"otp\000"
ARM GAS  /tmp/ccZTzvT8.s 			page 38


 2106 061f 4301     		.2byte	0x143
 2107 0621 0B       		.byte	0xb
 2108 0622 65020000 		.4byte	0x265
 2109 0626 4F000000 		.4byte	.LLST43
 2110 062a 4D000000 		.4byte	.LVUS43
 2111 062e 0F       		.uleb128 0xf
 2112 062f 637000   		.ascii	"cp\000"
 2113 0632 4301     		.2byte	0x143
 2114 0634 11       		.byte	0x11
 2115 0635 65020000 		.4byte	0x265
 2116 0639 5A000000 		.4byte	.LLST44
 2117 063d 58000000 		.4byte	.LVUS44
 2118 0641 0B       		.uleb128 0xb
 2119 0642 3A0A0000 		.4byte	0xa3a
 2120 0646 18000000 		.4byte	.LBI95
 2121 064a 01       		.byte	.LVU370
 2122 064b 9F000000 		.4byte	.LLRL45
 2123 064f 4701     		.2byte	0x147
 2124 0651 03       		.byte	0x3
 2125 0652 77060000 		.4byte	0x677
 2126 0656 04       		.uleb128 0x4
 2127 0657 480A0000 		.4byte	0xa48
 2128 065b 6A000000 		.4byte	.LLST46
 2129 065f 68000000 		.4byte	.LVUS46
 2130 0663 05       		.uleb128 0x5
 2131 0664 9F000000 		.4byte	.LLRL45
 2132 0668 03       		.uleb128 0x3
 2133 0669 540A0000 		.4byte	0xa54
 2134 066d 7A000000 		.4byte	.LLST47
 2135 0671 78000000 		.4byte	.LVUS47
 2136 0675 00       		.byte	0
 2137 0676 00       		.byte	0
 2138 0677 0C       		.uleb128 0xc
 2139 0678 6C000000 		.4byte	.LVL63
 2140 067c 30050000 		.4byte	0x530
 2141 0680 00       		.byte	0
 2142 0681 2A       		.uleb128 0x2a
 2143 0682 7A020000 		.4byte	.LASF81
 2144 0686 01       		.byte	0x1
 2145 0687 2901     		.2byte	0x129
 2146 0689 06       		.byte	0x6
 2147 068a 01       		.byte	0x1
 2148 068b 9D060000 		.4byte	0x69d
 2149 068f 2B       		.uleb128 0x2b
 2150 0690 6F747000 		.ascii	"otp\000"
 2151 0694 01       		.byte	0x1
 2152 0695 2A01     		.2byte	0x12a
 2153 0697 0B       		.byte	0xb
 2154 0698 65020000 		.4byte	0x265
 2155 069c 00       		.byte	0
 2156 069d 2C       		.uleb128 0x2c
 2157 069e AA000000 		.4byte	.LASF84
 2158 06a2 01       		.byte	0x1
 2159 06a3 0D01     		.2byte	0x10d
 2160 06a5 08       		.byte	0x8
 2161 06a6 B4000000 		.4byte	0xb4
 2162 06aa 00000000 		.4byte	.LFB14
ARM GAS  /tmp/ccZTzvT8.s 			page 39


 2163 06ae 44000000 		.4byte	.LFE14-.LFB14
 2164 06b2 01       		.uleb128 0x1
 2165 06b3 9C       		.byte	0x9c
 2166 06b4 DF060000 		.4byte	0x6df
 2167 06b8 0F       		.uleb128 0xf
 2168 06b9 703100   		.ascii	"p1\000"
 2169 06bc 0E01     		.2byte	0x10e
 2170 06be 0B       		.byte	0xb
 2171 06bf F0000000 		.4byte	0xf0
 2172 06c3 8B000000 		.4byte	.LLST34
 2173 06c7 83000000 		.4byte	.LVUS34
 2174 06cb 0F       		.uleb128 0xf
 2175 06cc 703200   		.ascii	"p2\000"
 2176 06cf 0F01     		.2byte	0x10f
 2177 06d1 0B       		.byte	0xb
 2178 06d2 F0000000 		.4byte	0xf0
 2179 06d6 A9000000 		.4byte	.LLST35
 2180 06da A7000000 		.4byte	.LVUS35
 2181 06de 00       		.byte	0
 2182 06df 16       		.uleb128 0x16
 2183 06e0 D4000000 		.4byte	.LASF82
 2184 06e4 F6       		.byte	0xf6
 2185 06e5 00000000 		.4byte	.LFB13
 2186 06e9 24000000 		.4byte	.LFE13-.LFB13
 2187 06ed 01       		.uleb128 0x1
 2188 06ee 9C       		.byte	0x9c
 2189 06ef FD060000 		.4byte	0x6fd
 2190 06f3 0C       		.uleb128 0xc
 2191 06f4 20000000 		.4byte	.LVL64
 2192 06f8 05060000 		.4byte	0x605
 2193 06fc 00       		.byte	0
 2194 06fd 16       		.uleb128 0x16
 2195 06fe 82010000 		.4byte	.LASF83
 2196 0702 DA       		.byte	0xda
 2197 0703 00000000 		.4byte	.LFB12
 2198 0707 A0000000 		.4byte	.LFE12-.LFB12
 2199 070b 01       		.uleb128 0x1
 2200 070c 9C       		.byte	0x9c
 2201 070d CC070000 		.4byte	0x7cc
 2202 0711 17       		.uleb128 0x17
 2203 0712 6E747000 		.ascii	"ntp\000"
 2204 0716 DA       		.byte	0xda
 2205 0717 1B       		.byte	0x1b
 2206 0718 65020000 		.4byte	0x265
 2207 071c B6000000 		.4byte	.LLST24
 2208 0720 B2000000 		.4byte	.LVUS24
 2209 0724 17       		.uleb128 0x17
 2210 0725 6D736700 		.ascii	"msg\000"
 2211 0729 DA       		.byte	0xda
 2212 072a 26       		.byte	0x26
 2213 072b FC000000 		.4byte	0xfc
 2214 072f D2000000 		.4byte	.LLST25
 2215 0733 CC000000 		.4byte	.LVUS25
 2216 0737 18       		.uleb128 0x18
 2217 0738 66000000 		.4byte	.LLRL29
 2218 073c 9A070000 		.4byte	0x79a
 2219 0740 19       		.uleb128 0x19
ARM GAS  /tmp/ccZTzvT8.s 			page 40


 2220 0741 6F747000 		.ascii	"otp\000"
 2221 0745 E6       		.byte	0xe6
 2222 0746 0D       		.byte	0xd
 2223 0747 65020000 		.4byte	0x265
 2224 074b F0000000 		.4byte	.LLST30
 2225 074f EC000000 		.4byte	.LVUS30
 2226 0753 10       		.uleb128 0x10
 2227 0754 E7090000 		.4byte	0x9e7
 2228 0758 58000000 		.4byte	.LBI70
 2229 075c 01       		.byte	.LVU250
 2230 075d 72000000 		.4byte	.LLRL31
 2231 0761 E6       		.byte	0xe6
 2232 0762 13       		.byte	0x13
 2233 0763 88070000 		.4byte	0x788
 2234 0767 04       		.uleb128 0x4
 2235 0768 F8090000 		.4byte	0x9f8
 2236 076c 02010000 		.4byte	.LLST32
 2237 0770 00010000 		.4byte	.LVUS32
 2238 0774 05       		.uleb128 0x5
 2239 0775 72000000 		.4byte	.LLRL31
 2240 0779 03       		.uleb128 0x3
 2241 077a 030A0000 		.4byte	0xa03
 2242 077e 0F010000 		.4byte	.LLST33
 2243 0782 0B010000 		.4byte	.LVUS33
 2244 0786 00       		.byte	0
 2245 0787 00       		.byte	0
 2246 0788 2D       		.uleb128 0x2d
 2247 0789 9C000000 		.4byte	.LVL46
 2248 078d 30050000 		.4byte	0x530
 2249 0791 0D       		.uleb128 0xd
 2250 0792 01       		.uleb128 0x1
 2251 0793 50       		.byte	0x50
 2252 0794 03       		.uleb128 0x3
 2253 0795 A3       		.byte	0xa3
 2254 0796 01       		.uleb128 0x1
 2255 0797 50       		.byte	0x50
 2256 0798 00       		.byte	0
 2257 0799 00       		.byte	0
 2258 079a 1A       		.uleb128 0x1a
 2259 079b E7090000 		.4byte	0x9e7
 2260 079f 28000000 		.4byte	.LBI63
 2261 07a3 01       		.byte	.LVU225
 2262 07a4 57000000 		.4byte	.LLRL26
 2263 07a8 E4       		.byte	0xe4
 2264 07a9 05       		.byte	0x5
 2265 07aa 04       		.uleb128 0x4
 2266 07ab F8090000 		.4byte	0x9f8
 2267 07af 22010000 		.4byte	.LLST27
 2268 07b3 20010000 		.4byte	.LVUS27
 2269 07b7 05       		.uleb128 0x5
 2270 07b8 57000000 		.4byte	.LLRL26
 2271 07bc 03       		.uleb128 0x3
 2272 07bd 030A0000 		.4byte	0xa03
 2273 07c1 2F010000 		.4byte	.LLST28
 2274 07c5 2B010000 		.4byte	.LVUS28
 2275 07c9 00       		.byte	0
 2276 07ca 00       		.byte	0
ARM GAS  /tmp/ccZTzvT8.s 			page 41


 2277 07cb 00       		.byte	0
 2278 07cc 2E       		.uleb128 0x2e
 2279 07cd 70040000 		.4byte	.LASF85
 2280 07d1 01       		.byte	0x1
 2281 07d2 B6       		.byte	0xb6
 2282 07d3 07       		.byte	0x7
 2283 07d4 FC000000 		.4byte	0xfc
 2284 07d8 00000000 		.4byte	.LFB11
 2285 07dc C4000000 		.4byte	.LFE11-.LFB11
 2286 07e0 01       		.uleb128 0x1
 2287 07e1 9C       		.byte	0x9c
 2288 07e2 37090000 		.4byte	0x937
 2289 07e6 1B       		.uleb128 0x1b
 2290 07e7 24030000 		.4byte	.LASF86
 2291 07eb B6       		.byte	0xb6
 2292 07ec 25       		.byte	0x25
 2293 07ed CC000000 		.4byte	0xcc
 2294 07f1 48010000 		.4byte	.LLST11
 2295 07f5 40010000 		.4byte	.LVUS11
 2296 07f9 1B       		.uleb128 0x1b
 2297 07fa E0020000 		.4byte	.LASF87
 2298 07fe B6       		.byte	0xb6
 2299 07ff 39       		.byte	0x39
 2300 0800 14010000 		.4byte	0x114
 2301 0804 73010000 		.4byte	.LLST12
 2302 0808 6B010000 		.4byte	.LVUS12
 2303 080c 18       		.uleb128 0x18
 2304 080d 27000000 		.4byte	.LLRL13
 2305 0811 C8080000 		.4byte	0x8c8
 2306 0815 2F       		.uleb128 0x2f
 2307 0816 767400   		.ascii	"vt\000"
 2308 0819 01       		.byte	0x1
 2309 081a BB       		.byte	0xbb
 2310 081b 12       		.byte	0x12
 2311 081c 5E030000 		.4byte	0x35e
 2312 0820 02       		.uleb128 0x2
 2313 0821 91       		.byte	0x91
 2314 0822 5C       		.sleb128 -36
 2315 0823 1C       		.uleb128 0x1c
 2316 0824 C2090000 		.4byte	0x9c2
 2317 0828 28000000 		.4byte	.LBI38
 2318 082c 01       		.byte	.LVU137
 2319 082d 28000000 		.4byte	.LBB38
 2320 0831 30000000 		.4byte	.LBE38-.LBB38
 2321 0835 BE       		.byte	0xbe
 2322 0836 93080000 		.4byte	0x893
 2323 083a 04       		.uleb128 0x4
 2324 083b CF090000 		.4byte	0x9cf
 2325 083f 98010000 		.4byte	.LLST14
 2326 0843 96010000 		.4byte	.LVUS14
 2327 0847 03       		.uleb128 0x3
 2328 0848 DB090000 		.4byte	0x9db
 2329 084c A3010000 		.4byte	.LLST15
 2330 0850 A1010000 		.4byte	.LVUS15
 2331 0854 10       		.uleb128 0x10
 2332 0855 3A0A0000 		.4byte	0xa3a
 2333 0859 40000000 		.4byte	.LBI40
ARM GAS  /tmp/ccZTzvT8.s 			page 42


 2334 085d 01       		.byte	.LVU150
 2335 085e 36000000 		.4byte	.LLRL16
 2336 0862 77       		.byte	0x77
 2337 0863 03       		.byte	0x3
 2338 0864 89080000 		.4byte	0x889
 2339 0868 04       		.uleb128 0x4
 2340 0869 480A0000 		.4byte	0xa48
 2341 086d AE010000 		.4byte	.LLST17
 2342 0871 AC010000 		.4byte	.LVUS17
 2343 0875 05       		.uleb128 0x5
 2344 0876 36000000 		.4byte	.LLRL16
 2345 087a 03       		.uleb128 0x3
 2346 087b 540A0000 		.4byte	0xa54
 2347 087f BE010000 		.4byte	.LLST18
 2348 0883 BC010000 		.4byte	.LVUS18
 2349 0887 00       		.byte	0
 2350 0888 00       		.byte	0
 2351 0889 1D       		.uleb128 0x1d
 2352 088a 58000000 		.4byte	.LVL24
 2353 088e 30050000 		.4byte	0x530
 2354 0892 00       		.byte	0
 2355 0893 30       		.uleb128 0x30
 2356 0894 28000000 		.4byte	.LVL20
 2357 0898 11050000 		.4byte	0x511
 2358 089c B7080000 		.4byte	0x8b7
 2359 08a0 0D       		.uleb128 0xd
 2360 08a1 01       		.uleb128 0x1
 2361 08a2 50       		.byte	0x50
 2362 08a3 02       		.uleb128 0x2
 2363 08a4 91       		.byte	0x91
 2364 08a5 54       		.sleb128 -44
 2365 08a6 0D       		.uleb128 0xd
 2366 08a7 01       		.uleb128 0x1
 2367 08a8 51       		.byte	0x51
 2368 08a9 03       		.uleb128 0x3
 2369 08aa A3       		.byte	0xa3
 2370 08ab 01       		.uleb128 0x1
 2371 08ac 51       		.byte	0x51
 2372 08ad 0D       		.uleb128 0xd
 2373 08ae 01       		.uleb128 0x1
 2374 08af 52       		.byte	0x52
 2375 08b0 05       		.uleb128 0x5
 2376 08b1 03       		.byte	0x3
 2377 08b2 00000000 		.4byte	wakeup
 2378 08b6 00       		.byte	0
 2379 08b7 31       		.uleb128 0x31
 2380 08b8 6C000000 		.4byte	.LVL25
 2381 08bc 01050000 		.4byte	0x501
 2382 08c0 0D       		.uleb128 0xd
 2383 08c1 01       		.uleb128 0x1
 2384 08c2 50       		.byte	0x50
 2385 08c3 02       		.uleb128 0x2
 2386 08c4 91       		.byte	0x91
 2387 08c5 54       		.sleb128 -44
 2388 08c6 00       		.byte	0
 2389 08c7 00       		.byte	0
 2390 08c8 32       		.uleb128 0x32
ARM GAS  /tmp/ccZTzvT8.s 			page 43


 2391 08c9 C2090000 		.4byte	0x9c2
 2392 08cd 7C000000 		.4byte	.LBI48
 2393 08d1 01       		.byte	.LVU174
 2394 08d2 7C000000 		.4byte	.LBB48
 2395 08d6 30000000 		.4byte	.LBE48-.LBB48
 2396 08da 01       		.byte	0x1
 2397 08db C3       		.byte	0xc3
 2398 08dc 05       		.byte	0x5
 2399 08dd 04       		.uleb128 0x4
 2400 08de CF090000 		.4byte	0x9cf
 2401 08e2 C9010000 		.4byte	.LLST19
 2402 08e6 C7010000 		.4byte	.LVUS19
 2403 08ea 03       		.uleb128 0x3
 2404 08eb DB090000 		.4byte	0x9db
 2405 08ef D4010000 		.4byte	.LLST20
 2406 08f3 D2010000 		.4byte	.LVUS20
 2407 08f7 10       		.uleb128 0x10
 2408 08f8 3A0A0000 		.4byte	0xa3a
 2409 08fc 90000000 		.4byte	.LBI50
 2410 0900 01       		.byte	.LVU187
 2411 0901 45000000 		.4byte	.LLRL21
 2412 0905 77       		.byte	0x77
 2413 0906 03       		.byte	0x3
 2414 0907 2C090000 		.4byte	0x92c
 2415 090b 04       		.uleb128 0x4
 2416 090c 480A0000 		.4byte	0xa48
 2417 0910 E3010000 		.4byte	.LLST22
 2418 0914 E1010000 		.4byte	.LVUS22
 2419 0918 05       		.uleb128 0x5
 2420 0919 45000000 		.4byte	.LLRL21
 2421 091d 03       		.uleb128 0x3
 2422 091e 540A0000 		.4byte	0xa54
 2423 0922 F3010000 		.4byte	.LLST23
 2424 0926 F1010000 		.4byte	.LVUS23
 2425 092a 00       		.byte	0
 2426 092b 00       		.byte	0
 2427 092c 1D       		.uleb128 0x1d
 2428 092d AC000000 		.4byte	.LVL32
 2429 0931 30050000 		.4byte	0x530
 2430 0935 00       		.byte	0
 2431 0936 00       		.byte	0
 2432 0937 33       		.uleb128 0x33
 2433 0938 26010000 		.4byte	.LASF94
 2434 093c 01       		.byte	0x1
 2435 093d 81       		.byte	0x81
 2436 093e 0D       		.byte	0xd
 2437 093f 00000000 		.4byte	.LFB10
 2438 0943 B0000000 		.4byte	.LFE10-.LFB10
 2439 0947 01       		.uleb128 0x1
 2440 0948 9C       		.byte	0x9c
 2441 0949 C2090000 		.4byte	0x9c2
 2442 094d 34       		.uleb128 0x34
 2443 094e 7000     		.ascii	"p\000"
 2444 0950 01       		.byte	0x1
 2445 0951 81       		.byte	0x81
 2446 0952 1A       		.byte	0x1a
 2447 0953 A4020000 		.4byte	0x2a4
ARM GAS  /tmp/ccZTzvT8.s 			page 44


 2448 0957 01       		.uleb128 0x1
 2449 0958 50       		.byte	0x50
 2450 0959 19       		.uleb128 0x19
 2451 095a 747000   		.ascii	"tp\000"
 2452 095d 82       		.byte	0x82
 2453 095e 0B       		.byte	0xb
 2454 095f 65020000 		.4byte	0x265
 2455 0963 FE010000 		.4byte	.LLST0
 2456 0967 FC010000 		.4byte	.LVUS0
 2457 096b 1C       		.uleb128 0x1c
 2458 096c 200A0000 		.4byte	0xa20
 2459 0970 58000000 		.4byte	.LBI14
 2460 0974 01       		.byte	.LVU8
 2461 0975 58000000 		.4byte	.LBB14
 2462 0979 10000000 		.4byte	.LBE14-.LBB14
 2463 097d 99       		.byte	0x99
 2464 097e 90090000 		.4byte	0x990
 2465 0982 04       		.uleb128 0x4
 2466 0983 2E0A0000 		.4byte	0xa2e
 2467 0987 0A020000 		.4byte	.LLST1
 2468 098b 08020000 		.4byte	.LVUS1
 2469 098f 00       		.byte	0
 2470 0990 1A       		.uleb128 0x1a
 2471 0991 E7090000 		.4byte	0x9e7
 2472 0995 7C000000 		.4byte	.LBI16
 2473 0999 01       		.byte	.LVU24
 2474 099a 0C000000 		.4byte	.LLRL2
 2475 099e 9D       		.byte	0x9d
 2476 099f 03       		.byte	0x3
 2477 09a0 04       		.uleb128 0x4
 2478 09a1 F8090000 		.4byte	0x9f8
 2479 09a5 15020000 		.4byte	.LLST3
 2480 09a9 13020000 		.4byte	.LVUS3
 2481 09ad 05       		.uleb128 0x5
 2482 09ae 0C000000 		.4byte	.LLRL2
 2483 09b2 03       		.uleb128 0x3
 2484 09b3 030A0000 		.4byte	0xa03
 2485 09b7 22020000 		.4byte	.LLST4
 2486 09bb 1E020000 		.4byte	.LVUS4
 2487 09bf 00       		.byte	0
 2488 09c0 00       		.byte	0
 2489 09c1 00       		.byte	0
 2490 09c2 35       		.uleb128 0x35
 2491 09c3 82030000 		.4byte	.LASF88
 2492 09c7 01       		.byte	0x1
 2493 09c8 6C       		.byte	0x6c
 2494 09c9 06       		.byte	0x6
 2495 09ca 01       		.byte	0x1
 2496 09cb E7090000 		.4byte	0x9e7
 2497 09cf 36       		.uleb128 0x36
 2498 09d0 24030000 		.4byte	.LASF86
 2499 09d4 01       		.byte	0x1
 2500 09d5 6C       		.byte	0x6c
 2501 09d6 1D       		.byte	0x1d
 2502 09d7 CC000000 		.4byte	0xcc
 2503 09db 12       		.uleb128 0x12
 2504 09dc 6F747000 		.ascii	"otp\000"
ARM GAS  /tmp/ccZTzvT8.s 			page 45


 2505 09e0 01       		.byte	0x1
 2506 09e1 6D       		.byte	0x6d
 2507 09e2 65020000 		.4byte	0x265
 2508 09e6 00       		.byte	0
 2509 09e7 37       		.uleb128 0x37
 2510 09e8 CA030000 		.4byte	.LASF95
 2511 09ec 01       		.byte	0x1
 2512 09ed 4A       		.byte	0x4a
 2513 09ee 09       		.byte	0x9
 2514 09ef 65020000 		.4byte	0x265
 2515 09f3 01       		.byte	0x1
 2516 09f4 0E0A0000 		.4byte	0xa0e
 2517 09f8 13       		.uleb128 0x13
 2518 09f9 747000   		.ascii	"tp\000"
 2519 09fc 01       		.byte	0x1
 2520 09fd 4A       		.byte	0x4a
 2521 09fe 1D       		.byte	0x1d
 2522 09ff 65020000 		.4byte	0x265
 2523 0a03 12       		.uleb128 0x12
 2524 0a04 637000   		.ascii	"cp\000"
 2525 0a07 01       		.byte	0x1
 2526 0a08 4B       		.byte	0x4b
 2527 0a09 65020000 		.4byte	0x265
 2528 0a0d 00       		.byte	0
 2529 0a0e 38       		.uleb128 0x38
 2530 0a0f 55000000 		.4byte	.LASF96
 2531 0a13 01       		.byte	0x1
 2532 0a14 30       		.byte	0x30
 2533 0a15 06       		.byte	0x6
 2534 0a16 00000000 		.4byte	.LFB7
 2535 0a1a 24000000 		.4byte	.LFE7-.LFB7
 2536 0a1e 01       		.uleb128 0x1
 2537 0a1f 9C       		.byte	0x9c
 2538 0a20 1E       		.uleb128 0x1e
 2539 0a21 72020000 		.4byte	.LASF89
 2540 0a25 42       		.byte	0x42
 2541 0a26 65020000 		.4byte	0x265
 2542 0a2a 3A0A0000 		.4byte	0xa3a
 2543 0a2e 13       		.uleb128 0x13
 2544 0a2f 747000   		.ascii	"tp\000"
 2545 0a32 02       		.byte	0x2
 2546 0a33 42       		.byte	0x42
 2547 0a34 27       		.byte	0x27
 2548 0a35 65020000 		.4byte	0x265
 2549 0a39 00       		.byte	0
 2550 0a3a 1E       		.uleb128 0x1e
 2551 0a3b BE030000 		.4byte	.LASF90
 2552 0a3f 34       		.byte	0x34
 2553 0a40 65020000 		.4byte	0x265
 2554 0a44 5F0A0000 		.4byte	0xa5f
 2555 0a48 13       		.uleb128 0x13
 2556 0a49 74717000 		.ascii	"tqp\000"
 2557 0a4d 02       		.byte	0x2
 2558 0a4e 34       		.byte	0x34
 2559 0a4f 31       		.byte	0x31
 2560 0a50 5F0A0000 		.4byte	0xa5f
 2561 0a54 12       		.uleb128 0x12
ARM GAS  /tmp/ccZTzvT8.s 			page 46


 2562 0a55 747000   		.ascii	"tp\000"
 2563 0a58 02       		.byte	0x2
 2564 0a59 35       		.byte	0x35
 2565 0a5a 65020000 		.4byte	0x265
 2566 0a5e 00       		.byte	0
 2567 0a5f 08       		.uleb128 0x8
 2568 0a60 6A020000 		.4byte	0x26a
 2569 0a64 1F       		.uleb128 0x1f
 2570 0a65 E7090000 		.4byte	0x9e7
 2571 0a69 00000000 		.4byte	.LFB8
 2572 0a6d 40000000 		.4byte	.LFE8-.LFB8
 2573 0a71 01       		.uleb128 0x1
 2574 0a72 9C       		.byte	0x9c
 2575 0a73 8C0A0000 		.4byte	0xa8c
 2576 0a77 39       		.uleb128 0x39
 2577 0a78 F8090000 		.4byte	0x9f8
 2578 0a7c 01       		.uleb128 0x1
 2579 0a7d 50       		.byte	0x50
 2580 0a7e 03       		.uleb128 0x3
 2581 0a7f 030A0000 		.4byte	0xa03
 2582 0a83 37020000 		.4byte	.LLST5
 2583 0a87 33020000 		.4byte	.LVUS5
 2584 0a8b 00       		.byte	0
 2585 0a8c 1F       		.uleb128 0x1f
 2586 0a8d C2090000 		.4byte	0x9c2
 2587 0a91 00000000 		.4byte	.LFB9
 2588 0a95 44000000 		.4byte	.LFE9-.LFB9
 2589 0a99 01       		.uleb128 0x1
 2590 0a9a 9C       		.byte	0x9c
 2591 0a9b F80A0000 		.4byte	0xaf8
 2592 0a9f 04       		.uleb128 0x4
 2593 0aa0 CF090000 		.4byte	0x9cf
 2594 0aa4 4C020000 		.4byte	.LLST6
 2595 0aa8 48020000 		.4byte	.LVUS6
 2596 0aac 03       		.uleb128 0x3
 2597 0aad DB090000 		.4byte	0x9db
 2598 0ab1 61020000 		.4byte	.LLST7
 2599 0ab5 5F020000 		.4byte	.LVUS7
 2600 0ab9 10       		.uleb128 0x10
 2601 0aba 3A0A0000 		.4byte	0xa3a
 2602 0abe 24000000 		.4byte	.LBI22
 2603 0ac2 01       		.byte	.LVU106
 2604 0ac3 18000000 		.4byte	.LLRL8
 2605 0ac7 77       		.byte	0x77
 2606 0ac8 03       		.byte	0x3
 2607 0ac9 EE0A0000 		.4byte	0xaee
 2608 0acd 04       		.uleb128 0x4
 2609 0ace 480A0000 		.4byte	0xa48
 2610 0ad2 6C020000 		.4byte	.LLST9
 2611 0ad6 6A020000 		.4byte	.LVUS9
 2612 0ada 05       		.uleb128 0x5
 2613 0adb 18000000 		.4byte	.LLRL8
 2614 0adf 03       		.uleb128 0x3
 2615 0ae0 540A0000 		.4byte	0xa54
 2616 0ae4 7C020000 		.4byte	.LLST10
 2617 0ae8 7A020000 		.4byte	.LVUS10
 2618 0aec 00       		.byte	0
ARM GAS  /tmp/ccZTzvT8.s 			page 47


 2619 0aed 00       		.byte	0
 2620 0aee 0C       		.uleb128 0xc
 2621 0aef 40000000 		.4byte	.LVL18
 2622 0af3 30050000 		.4byte	0x530
 2623 0af7 00       		.byte	0
 2624 0af8 3A       		.uleb128 0x3a
 2625 0af9 81060000 		.4byte	0x681
 2626 0afd 00000000 		.4byte	.LFB15
 2627 0b01 78000000 		.4byte	.LFE15-.LFB15
 2628 0b05 01       		.uleb128 0x1
 2629 0b06 9C       		.byte	0x9c
 2630 0b07 03       		.uleb128 0x3
 2631 0b08 8F060000 		.4byte	0x68f
 2632 0b0c 87020000 		.4byte	.LLST36
 2633 0b10 85020000 		.4byte	.LVUS36
 2634 0b14 0B       		.uleb128 0xb
 2635 0b15 E7090000 		.4byte	0x9e7
 2636 0b19 34000000 		.4byte	.LBI83
 2637 0b1d 01       		.byte	.LVU329
 2638 0b1e 81000000 		.4byte	.LLRL37
 2639 0b22 3301     		.2byte	0x133
 2640 0b24 03       		.byte	0x3
 2641 0b25 4A0B0000 		.4byte	0xb4a
 2642 0b29 04       		.uleb128 0x4
 2643 0b2a F8090000 		.4byte	0x9f8
 2644 0b2e 92020000 		.4byte	.LLST38
 2645 0b32 90020000 		.4byte	.LVUS38
 2646 0b36 05       		.uleb128 0x5
 2647 0b37 81000000 		.4byte	.LLRL37
 2648 0b3b 03       		.uleb128 0x3
 2649 0b3c 030A0000 		.4byte	0xa03
 2650 0b40 9D020000 		.4byte	.LLST39
 2651 0b44 9B020000 		.4byte	.LVUS39
 2652 0b48 00       		.byte	0
 2653 0b49 00       		.byte	0
 2654 0b4a 0B       		.uleb128 0xb
 2655 0b4b 3A0A0000 		.4byte	0xa3a
 2656 0b4f 1C000000 		.4byte	.LBI87
 2657 0b53 01       		.byte	.LVU315
 2658 0b54 90000000 		.4byte	.LLRL40
 2659 0b58 2E01     		.2byte	0x12e
 2660 0b5a 03       		.byte	0x3
 2661 0b5b 800B0000 		.4byte	0xb80
 2662 0b5f 04       		.uleb128 0x4
 2663 0b60 480A0000 		.4byte	0xa48
 2664 0b64 AD020000 		.4byte	.LLST41
 2665 0b68 AB020000 		.4byte	.LVUS41
 2666 0b6c 05       		.uleb128 0x5
 2667 0b6d 90000000 		.4byte	.LLRL40
 2668 0b71 03       		.uleb128 0x3
 2669 0b72 540A0000 		.4byte	0xa54
 2670 0b76 BD020000 		.4byte	.LLST42
 2671 0b7a BB020000 		.4byte	.LVUS42
 2672 0b7e 00       		.byte	0
 2673 0b7f 00       		.byte	0
 2674 0b80 0C       		.uleb128 0xc
 2675 0b81 74000000 		.4byte	.LVL58
ARM GAS  /tmp/ccZTzvT8.s 			page 48


 2676 0b85 30050000 		.4byte	0x530
 2677 0b89 00       		.byte	0
 2678 0b8a 00       		.byte	0
 2679              		.section	.debug_abbrev,"",%progbits
 2680              	.Ldebug_abbrev0:
 2681 0000 01       		.uleb128 0x1
 2682 0001 0D       		.uleb128 0xd
 2683 0002 00       		.byte	0
 2684 0003 03       		.uleb128 0x3
 2685 0004 0E       		.uleb128 0xe
 2686 0005 3A       		.uleb128 0x3a
 2687 0006 0B       		.uleb128 0xb
 2688 0007 3B       		.uleb128 0x3b
 2689 0008 0B       		.uleb128 0xb
 2690 0009 39       		.uleb128 0x39
 2691 000a 0B       		.uleb128 0xb
 2692 000b 49       		.uleb128 0x49
 2693 000c 13       		.uleb128 0x13
 2694 000d 38       		.uleb128 0x38
 2695 000e 0B       		.uleb128 0xb
 2696 000f 00       		.byte	0
 2697 0010 00       		.byte	0
 2698 0011 02       		.uleb128 0x2
 2699 0012 16       		.uleb128 0x16
 2700 0013 00       		.byte	0
 2701 0014 03       		.uleb128 0x3
 2702 0015 0E       		.uleb128 0xe
 2703 0016 3A       		.uleb128 0x3a
 2704 0017 0B       		.uleb128 0xb
 2705 0018 3B       		.uleb128 0x3b
 2706 0019 0B       		.uleb128 0xb
 2707 001a 39       		.uleb128 0x39
 2708 001b 0B       		.uleb128 0xb
 2709 001c 49       		.uleb128 0x49
 2710 001d 13       		.uleb128 0x13
 2711 001e 00       		.byte	0
 2712 001f 00       		.byte	0
 2713 0020 03       		.uleb128 0x3
 2714 0021 34       		.uleb128 0x34
 2715 0022 00       		.byte	0
 2716 0023 31       		.uleb128 0x31
 2717 0024 13       		.uleb128 0x13
 2718 0025 02       		.uleb128 0x2
 2719 0026 17       		.uleb128 0x17
 2720 0027 B742     		.uleb128 0x2137
 2721 0029 17       		.uleb128 0x17
 2722 002a 00       		.byte	0
 2723 002b 00       		.byte	0
 2724 002c 04       		.uleb128 0x4
 2725 002d 05       		.uleb128 0x5
 2726 002e 00       		.byte	0
 2727 002f 31       		.uleb128 0x31
 2728 0030 13       		.uleb128 0x13
 2729 0031 02       		.uleb128 0x2
 2730 0032 17       		.uleb128 0x17
 2731 0033 B742     		.uleb128 0x2137
 2732 0035 17       		.uleb128 0x17
ARM GAS  /tmp/ccZTzvT8.s 			page 49


 2733 0036 00       		.byte	0
 2734 0037 00       		.byte	0
 2735 0038 05       		.uleb128 0x5
 2736 0039 0B       		.uleb128 0xb
 2737 003a 01       		.byte	0x1
 2738 003b 55       		.uleb128 0x55
 2739 003c 17       		.uleb128 0x17
 2740 003d 00       		.byte	0
 2741 003e 00       		.byte	0
 2742 003f 06       		.uleb128 0x6
 2743 0040 0D       		.uleb128 0xd
 2744 0041 00       		.byte	0
 2745 0042 03       		.uleb128 0x3
 2746 0043 08       		.uleb128 0x8
 2747 0044 3A       		.uleb128 0x3a
 2748 0045 0B       		.uleb128 0xb
 2749 0046 3B       		.uleb128 0x3b
 2750 0047 0B       		.uleb128 0xb
 2751 0048 39       		.uleb128 0x39
 2752 0049 0B       		.uleb128 0xb
 2753 004a 49       		.uleb128 0x49
 2754 004b 13       		.uleb128 0x13
 2755 004c 38       		.uleb128 0x38
 2756 004d 0B       		.uleb128 0xb
 2757 004e 00       		.byte	0
 2758 004f 00       		.byte	0
 2759 0050 07       		.uleb128 0x7
 2760 0051 24       		.uleb128 0x24
 2761 0052 00       		.byte	0
 2762 0053 0B       		.uleb128 0xb
 2763 0054 0B       		.uleb128 0xb
 2764 0055 3E       		.uleb128 0x3e
 2765 0056 0B       		.uleb128 0xb
 2766 0057 03       		.uleb128 0x3
 2767 0058 0E       		.uleb128 0xe
 2768 0059 00       		.byte	0
 2769 005a 00       		.byte	0
 2770 005b 08       		.uleb128 0x8
 2771 005c 0F       		.uleb128 0xf
 2772 005d 00       		.byte	0
 2773 005e 0B       		.uleb128 0xb
 2774 005f 21       		.uleb128 0x21
 2775 0060 04       		.sleb128 4
 2776 0061 49       		.uleb128 0x49
 2777 0062 13       		.uleb128 0x13
 2778 0063 00       		.byte	0
 2779 0064 00       		.byte	0
 2780 0065 09       		.uleb128 0x9
 2781 0066 05       		.uleb128 0x5
 2782 0067 00       		.byte	0
 2783 0068 49       		.uleb128 0x49
 2784 0069 13       		.uleb128 0x13
 2785 006a 00       		.byte	0
 2786 006b 00       		.byte	0
 2787 006c 0A       		.uleb128 0xa
 2788 006d 13       		.uleb128 0x13
 2789 006e 01       		.byte	0x1
ARM GAS  /tmp/ccZTzvT8.s 			page 50


 2790 006f 03       		.uleb128 0x3
 2791 0070 0E       		.uleb128 0xe
 2792 0071 0B       		.uleb128 0xb
 2793 0072 0B       		.uleb128 0xb
 2794 0073 3A       		.uleb128 0x3a
 2795 0074 0B       		.uleb128 0xb
 2796 0075 3B       		.uleb128 0x3b
 2797 0076 0B       		.uleb128 0xb
 2798 0077 39       		.uleb128 0x39
 2799 0078 0B       		.uleb128 0xb
 2800 0079 01       		.uleb128 0x1
 2801 007a 13       		.uleb128 0x13
 2802 007b 00       		.byte	0
 2803 007c 00       		.byte	0
 2804 007d 0B       		.uleb128 0xb
 2805 007e 1D       		.uleb128 0x1d
 2806 007f 01       		.byte	0x1
 2807 0080 31       		.uleb128 0x31
 2808 0081 13       		.uleb128 0x13
 2809 0082 52       		.uleb128 0x52
 2810 0083 01       		.uleb128 0x1
 2811 0084 B842     		.uleb128 0x2138
 2812 0086 0B       		.uleb128 0xb
 2813 0087 55       		.uleb128 0x55
 2814 0088 17       		.uleb128 0x17
 2815 0089 58       		.uleb128 0x58
 2816 008a 21       		.uleb128 0x21
 2817 008b 01       		.sleb128 1
 2818 008c 59       		.uleb128 0x59
 2819 008d 05       		.uleb128 0x5
 2820 008e 57       		.uleb128 0x57
 2821 008f 0B       		.uleb128 0xb
 2822 0090 01       		.uleb128 0x1
 2823 0091 13       		.uleb128 0x13
 2824 0092 00       		.byte	0
 2825 0093 00       		.byte	0
 2826 0094 0C       		.uleb128 0xc
 2827 0095 48       		.uleb128 0x48
 2828 0096 00       		.byte	0
 2829 0097 7D       		.uleb128 0x7d
 2830 0098 01       		.uleb128 0x1
 2831 0099 8201     		.uleb128 0x82
 2832 009b 19       		.uleb128 0x19
 2833 009c 7F       		.uleb128 0x7f
 2834 009d 13       		.uleb128 0x13
 2835 009e 00       		.byte	0
 2836 009f 00       		.byte	0
 2837 00a0 0D       		.uleb128 0xd
 2838 00a1 49       		.uleb128 0x49
 2839 00a2 00       		.byte	0
 2840 00a3 02       		.uleb128 0x2
 2841 00a4 18       		.uleb128 0x18
 2842 00a5 7E       		.uleb128 0x7e
 2843 00a6 18       		.uleb128 0x18
 2844 00a7 00       		.byte	0
 2845 00a8 00       		.byte	0
 2846 00a9 0E       		.uleb128 0xe
ARM GAS  /tmp/ccZTzvT8.s 			page 51


 2847 00aa 0D       		.uleb128 0xd
 2848 00ab 00       		.byte	0
 2849 00ac 03       		.uleb128 0x3
 2850 00ad 0E       		.uleb128 0xe
 2851 00ae 3A       		.uleb128 0x3a
 2852 00af 21       		.uleb128 0x21
 2853 00b0 07       		.sleb128 7
 2854 00b1 3B       		.uleb128 0x3b
 2855 00b2 0B       		.uleb128 0xb
 2856 00b3 39       		.uleb128 0x39
 2857 00b4 0B       		.uleb128 0xb
 2858 00b5 49       		.uleb128 0x49
 2859 00b6 13       		.uleb128 0x13
 2860 00b7 00       		.byte	0
 2861 00b8 00       		.byte	0
 2862 00b9 0F       		.uleb128 0xf
 2863 00ba 34       		.uleb128 0x34
 2864 00bb 00       		.byte	0
 2865 00bc 03       		.uleb128 0x3
 2866 00bd 08       		.uleb128 0x8
 2867 00be 3A       		.uleb128 0x3a
 2868 00bf 21       		.uleb128 0x21
 2869 00c0 01       		.sleb128 1
 2870 00c1 3B       		.uleb128 0x3b
 2871 00c2 05       		.uleb128 0x5
 2872 00c3 39       		.uleb128 0x39
 2873 00c4 0B       		.uleb128 0xb
 2874 00c5 49       		.uleb128 0x49
 2875 00c6 13       		.uleb128 0x13
 2876 00c7 02       		.uleb128 0x2
 2877 00c8 17       		.uleb128 0x17
 2878 00c9 B742     		.uleb128 0x2137
 2879 00cb 17       		.uleb128 0x17
 2880 00cc 00       		.byte	0
 2881 00cd 00       		.byte	0
 2882 00ce 10       		.uleb128 0x10
 2883 00cf 1D       		.uleb128 0x1d
 2884 00d0 01       		.byte	0x1
 2885 00d1 31       		.uleb128 0x31
 2886 00d2 13       		.uleb128 0x13
 2887 00d3 52       		.uleb128 0x52
 2888 00d4 01       		.uleb128 0x1
 2889 00d5 B842     		.uleb128 0x2138
 2890 00d7 0B       		.uleb128 0xb
 2891 00d8 55       		.uleb128 0x55
 2892 00d9 17       		.uleb128 0x17
 2893 00da 58       		.uleb128 0x58
 2894 00db 21       		.uleb128 0x21
 2895 00dc 01       		.sleb128 1
 2896 00dd 59       		.uleb128 0x59
 2897 00de 0B       		.uleb128 0xb
 2898 00df 57       		.uleb128 0x57
 2899 00e0 0B       		.uleb128 0xb
 2900 00e1 01       		.uleb128 0x1
 2901 00e2 13       		.uleb128 0x13
 2902 00e3 00       		.byte	0
 2903 00e4 00       		.byte	0
ARM GAS  /tmp/ccZTzvT8.s 			page 52


 2904 00e5 11       		.uleb128 0x11
 2905 00e6 13       		.uleb128 0x13
 2906 00e7 01       		.byte	0x1
 2907 00e8 0B       		.uleb128 0xb
 2908 00e9 0B       		.uleb128 0xb
 2909 00ea 3A       		.uleb128 0x3a
 2910 00eb 0B       		.uleb128 0xb
 2911 00ec 3B       		.uleb128 0x3b
 2912 00ed 0B       		.uleb128 0xb
 2913 00ee 39       		.uleb128 0x39
 2914 00ef 21       		.uleb128 0x21
 2915 00f0 09       		.sleb128 9
 2916 00f1 01       		.uleb128 0x1
 2917 00f2 13       		.uleb128 0x13
 2918 00f3 00       		.byte	0
 2919 00f4 00       		.byte	0
 2920 00f5 12       		.uleb128 0x12
 2921 00f6 34       		.uleb128 0x34
 2922 00f7 00       		.byte	0
 2923 00f8 03       		.uleb128 0x3
 2924 00f9 08       		.uleb128 0x8
 2925 00fa 3A       		.uleb128 0x3a
 2926 00fb 0B       		.uleb128 0xb
 2927 00fc 3B       		.uleb128 0x3b
 2928 00fd 0B       		.uleb128 0xb
 2929 00fe 39       		.uleb128 0x39
 2930 00ff 21       		.uleb128 0x21
 2931 0100 0B       		.sleb128 11
 2932 0101 49       		.uleb128 0x49
 2933 0102 13       		.uleb128 0x13
 2934 0103 00       		.byte	0
 2935 0104 00       		.byte	0
 2936 0105 13       		.uleb128 0x13
 2937 0106 05       		.uleb128 0x5
 2938 0107 00       		.byte	0
 2939 0108 03       		.uleb128 0x3
 2940 0109 08       		.uleb128 0x8
 2941 010a 3A       		.uleb128 0x3a
 2942 010b 0B       		.uleb128 0xb
 2943 010c 3B       		.uleb128 0x3b
 2944 010d 0B       		.uleb128 0xb
 2945 010e 39       		.uleb128 0x39
 2946 010f 0B       		.uleb128 0xb
 2947 0110 49       		.uleb128 0x49
 2948 0111 13       		.uleb128 0x13
 2949 0112 00       		.byte	0
 2950 0113 00       		.byte	0
 2951 0114 14       		.uleb128 0x14
 2952 0115 2E       		.uleb128 0x2e
 2953 0116 01       		.byte	0x1
 2954 0117 3F       		.uleb128 0x3f
 2955 0118 19       		.uleb128 0x19
 2956 0119 03       		.uleb128 0x3
 2957 011a 0E       		.uleb128 0xe
 2958 011b 3A       		.uleb128 0x3a
 2959 011c 21       		.uleb128 0x21
 2960 011d 09       		.sleb128 9
ARM GAS  /tmp/ccZTzvT8.s 			page 53


 2961 011e 3B       		.uleb128 0x3b
 2962 011f 0B       		.uleb128 0xb
 2963 0120 39       		.uleb128 0x39
 2964 0121 21       		.uleb128 0x21
 2965 0122 08       		.sleb128 8
 2966 0123 27       		.uleb128 0x27
 2967 0124 19       		.uleb128 0x19
 2968 0125 3C       		.uleb128 0x3c
 2969 0126 19       		.uleb128 0x19
 2970 0127 01       		.uleb128 0x1
 2971 0128 13       		.uleb128 0x13
 2972 0129 00       		.byte	0
 2973 012a 00       		.byte	0
 2974 012b 15       		.uleb128 0x15
 2975 012c 2E       		.uleb128 0x2e
 2976 012d 01       		.byte	0x1
 2977 012e 3F       		.uleb128 0x3f
 2978 012f 19       		.uleb128 0x19
 2979 0130 03       		.uleb128 0x3
 2980 0131 0E       		.uleb128 0xe
 2981 0132 3A       		.uleb128 0x3a
 2982 0133 21       		.uleb128 0x21
 2983 0134 01       		.sleb128 1
 2984 0135 3B       		.uleb128 0x3b
 2985 0136 05       		.uleb128 0x5
 2986 0137 39       		.uleb128 0x39
 2987 0138 21       		.uleb128 0x21
 2988 0139 06       		.sleb128 6
 2989 013a 27       		.uleb128 0x27
 2990 013b 19       		.uleb128 0x19
 2991 013c 11       		.uleb128 0x11
 2992 013d 01       		.uleb128 0x1
 2993 013e 12       		.uleb128 0x12
 2994 013f 06       		.uleb128 0x6
 2995 0140 40       		.uleb128 0x40
 2996 0141 18       		.uleb128 0x18
 2997 0142 7A       		.uleb128 0x7a
 2998 0143 19       		.uleb128 0x19
 2999 0144 01       		.uleb128 0x1
 3000 0145 13       		.uleb128 0x13
 3001 0146 00       		.byte	0
 3002 0147 00       		.byte	0
 3003 0148 16       		.uleb128 0x16
 3004 0149 2E       		.uleb128 0x2e
 3005 014a 01       		.byte	0x1
 3006 014b 3F       		.uleb128 0x3f
 3007 014c 19       		.uleb128 0x19
 3008 014d 03       		.uleb128 0x3
 3009 014e 0E       		.uleb128 0xe
 3010 014f 3A       		.uleb128 0x3a
 3011 0150 21       		.uleb128 0x21
 3012 0151 01       		.sleb128 1
 3013 0152 3B       		.uleb128 0x3b
 3014 0153 0B       		.uleb128 0xb
 3015 0154 39       		.uleb128 0x39
 3016 0155 21       		.uleb128 0x21
 3017 0156 06       		.sleb128 6
ARM GAS  /tmp/ccZTzvT8.s 			page 54


 3018 0157 27       		.uleb128 0x27
 3019 0158 19       		.uleb128 0x19
 3020 0159 11       		.uleb128 0x11
 3021 015a 01       		.uleb128 0x1
 3022 015b 12       		.uleb128 0x12
 3023 015c 06       		.uleb128 0x6
 3024 015d 40       		.uleb128 0x40
 3025 015e 18       		.uleb128 0x18
 3026 015f 7A       		.uleb128 0x7a
 3027 0160 19       		.uleb128 0x19
 3028 0161 01       		.uleb128 0x1
 3029 0162 13       		.uleb128 0x13
 3030 0163 00       		.byte	0
 3031 0164 00       		.byte	0
 3032 0165 17       		.uleb128 0x17
 3033 0166 05       		.uleb128 0x5
 3034 0167 00       		.byte	0
 3035 0168 03       		.uleb128 0x3
 3036 0169 08       		.uleb128 0x8
 3037 016a 3A       		.uleb128 0x3a
 3038 016b 21       		.uleb128 0x21
 3039 016c 01       		.sleb128 1
 3040 016d 3B       		.uleb128 0x3b
 3041 016e 0B       		.uleb128 0xb
 3042 016f 39       		.uleb128 0x39
 3043 0170 0B       		.uleb128 0xb
 3044 0171 49       		.uleb128 0x49
 3045 0172 13       		.uleb128 0x13
 3046 0173 02       		.uleb128 0x2
 3047 0174 17       		.uleb128 0x17
 3048 0175 B742     		.uleb128 0x2137
 3049 0177 17       		.uleb128 0x17
 3050 0178 00       		.byte	0
 3051 0179 00       		.byte	0
 3052 017a 18       		.uleb128 0x18
 3053 017b 0B       		.uleb128 0xb
 3054 017c 01       		.byte	0x1
 3055 017d 55       		.uleb128 0x55
 3056 017e 17       		.uleb128 0x17
 3057 017f 01       		.uleb128 0x1
 3058 0180 13       		.uleb128 0x13
 3059 0181 00       		.byte	0
 3060 0182 00       		.byte	0
 3061 0183 19       		.uleb128 0x19
 3062 0184 34       		.uleb128 0x34
 3063 0185 00       		.byte	0
 3064 0186 03       		.uleb128 0x3
 3065 0187 08       		.uleb128 0x8
 3066 0188 3A       		.uleb128 0x3a
 3067 0189 21       		.uleb128 0x21
 3068 018a 01       		.sleb128 1
 3069 018b 3B       		.uleb128 0x3b
 3070 018c 0B       		.uleb128 0xb
 3071 018d 39       		.uleb128 0x39
 3072 018e 0B       		.uleb128 0xb
 3073 018f 49       		.uleb128 0x49
 3074 0190 13       		.uleb128 0x13
ARM GAS  /tmp/ccZTzvT8.s 			page 55


 3075 0191 02       		.uleb128 0x2
 3076 0192 17       		.uleb128 0x17
 3077 0193 B742     		.uleb128 0x2137
 3078 0195 17       		.uleb128 0x17
 3079 0196 00       		.byte	0
 3080 0197 00       		.byte	0
 3081 0198 1A       		.uleb128 0x1a
 3082 0199 1D       		.uleb128 0x1d
 3083 019a 01       		.byte	0x1
 3084 019b 31       		.uleb128 0x31
 3085 019c 13       		.uleb128 0x13
 3086 019d 52       		.uleb128 0x52
 3087 019e 01       		.uleb128 0x1
 3088 019f B842     		.uleb128 0x2138
 3089 01a1 0B       		.uleb128 0xb
 3090 01a2 55       		.uleb128 0x55
 3091 01a3 17       		.uleb128 0x17
 3092 01a4 58       		.uleb128 0x58
 3093 01a5 21       		.uleb128 0x21
 3094 01a6 01       		.sleb128 1
 3095 01a7 59       		.uleb128 0x59
 3096 01a8 0B       		.uleb128 0xb
 3097 01a9 57       		.uleb128 0x57
 3098 01aa 0B       		.uleb128 0xb
 3099 01ab 00       		.byte	0
 3100 01ac 00       		.byte	0
 3101 01ad 1B       		.uleb128 0x1b
 3102 01ae 05       		.uleb128 0x5
 3103 01af 00       		.byte	0
 3104 01b0 03       		.uleb128 0x3
 3105 01b1 0E       		.uleb128 0xe
 3106 01b2 3A       		.uleb128 0x3a
 3107 01b3 21       		.uleb128 0x21
 3108 01b4 01       		.sleb128 1
 3109 01b5 3B       		.uleb128 0x3b
 3110 01b6 0B       		.uleb128 0xb
 3111 01b7 39       		.uleb128 0x39
 3112 01b8 0B       		.uleb128 0xb
 3113 01b9 49       		.uleb128 0x49
 3114 01ba 13       		.uleb128 0x13
 3115 01bb 02       		.uleb128 0x2
 3116 01bc 17       		.uleb128 0x17
 3117 01bd B742     		.uleb128 0x2137
 3118 01bf 17       		.uleb128 0x17
 3119 01c0 00       		.byte	0
 3120 01c1 00       		.byte	0
 3121 01c2 1C       		.uleb128 0x1c
 3122 01c3 1D       		.uleb128 0x1d
 3123 01c4 01       		.byte	0x1
 3124 01c5 31       		.uleb128 0x31
 3125 01c6 13       		.uleb128 0x13
 3126 01c7 52       		.uleb128 0x52
 3127 01c8 01       		.uleb128 0x1
 3128 01c9 B842     		.uleb128 0x2138
 3129 01cb 0B       		.uleb128 0xb
 3130 01cc 11       		.uleb128 0x11
 3131 01cd 01       		.uleb128 0x1
ARM GAS  /tmp/ccZTzvT8.s 			page 56


 3132 01ce 12       		.uleb128 0x12
 3133 01cf 06       		.uleb128 0x6
 3134 01d0 58       		.uleb128 0x58
 3135 01d1 21       		.uleb128 0x21
 3136 01d2 01       		.sleb128 1
 3137 01d3 59       		.uleb128 0x59
 3138 01d4 0B       		.uleb128 0xb
 3139 01d5 57       		.uleb128 0x57
 3140 01d6 21       		.uleb128 0x21
 3141 01d7 05       		.sleb128 5
 3142 01d8 01       		.uleb128 0x1
 3143 01d9 13       		.uleb128 0x13
 3144 01da 00       		.byte	0
 3145 01db 00       		.byte	0
 3146 01dc 1D       		.uleb128 0x1d
 3147 01dd 48       		.uleb128 0x48
 3148 01de 00       		.byte	0
 3149 01df 7D       		.uleb128 0x7d
 3150 01e0 01       		.uleb128 0x1
 3151 01e1 7F       		.uleb128 0x7f
 3152 01e2 13       		.uleb128 0x13
 3153 01e3 00       		.byte	0
 3154 01e4 00       		.byte	0
 3155 01e5 1E       		.uleb128 0x1e
 3156 01e6 2E       		.uleb128 0x2e
 3157 01e7 01       		.byte	0x1
 3158 01e8 03       		.uleb128 0x3
 3159 01e9 0E       		.uleb128 0xe
 3160 01ea 3A       		.uleb128 0x3a
 3161 01eb 21       		.uleb128 0x21
 3162 01ec 02       		.sleb128 2
 3163 01ed 3B       		.uleb128 0x3b
 3164 01ee 0B       		.uleb128 0xb
 3165 01ef 39       		.uleb128 0x39
 3166 01f0 21       		.uleb128 0x21
 3167 01f1 17       		.sleb128 23
 3168 01f2 27       		.uleb128 0x27
 3169 01f3 19       		.uleb128 0x19
 3170 01f4 49       		.uleb128 0x49
 3171 01f5 13       		.uleb128 0x13
 3172 01f6 20       		.uleb128 0x20
 3173 01f7 21       		.uleb128 0x21
 3174 01f8 03       		.sleb128 3
 3175 01f9 01       		.uleb128 0x1
 3176 01fa 13       		.uleb128 0x13
 3177 01fb 00       		.byte	0
 3178 01fc 00       		.byte	0
 3179 01fd 1F       		.uleb128 0x1f
 3180 01fe 2E       		.uleb128 0x2e
 3181 01ff 01       		.byte	0x1
 3182 0200 31       		.uleb128 0x31
 3183 0201 13       		.uleb128 0x13
 3184 0202 11       		.uleb128 0x11
 3185 0203 01       		.uleb128 0x1
 3186 0204 12       		.uleb128 0x12
 3187 0205 06       		.uleb128 0x6
 3188 0206 40       		.uleb128 0x40
ARM GAS  /tmp/ccZTzvT8.s 			page 57


 3189 0207 18       		.uleb128 0x18
 3190 0208 7A       		.uleb128 0x7a
 3191 0209 19       		.uleb128 0x19
 3192 020a 01       		.uleb128 0x1
 3193 020b 13       		.uleb128 0x13
 3194 020c 00       		.byte	0
 3195 020d 00       		.byte	0
 3196 020e 20       		.uleb128 0x20
 3197 020f 11       		.uleb128 0x11
 3198 0210 01       		.byte	0x1
 3199 0211 25       		.uleb128 0x25
 3200 0212 0E       		.uleb128 0xe
 3201 0213 13       		.uleb128 0x13
 3202 0214 0B       		.uleb128 0xb
 3203 0215 03       		.uleb128 0x3
 3204 0216 0E       		.uleb128 0xe
 3205 0217 1B       		.uleb128 0x1b
 3206 0218 0E       		.uleb128 0xe
 3207 0219 55       		.uleb128 0x55
 3208 021a 17       		.uleb128 0x17
 3209 021b 11       		.uleb128 0x11
 3210 021c 01       		.uleb128 0x1
 3211 021d 10       		.uleb128 0x10
 3212 021e 17       		.uleb128 0x17
 3213 021f 00       		.byte	0
 3214 0220 00       		.byte	0
 3215 0221 21       		.uleb128 0x21
 3216 0222 24       		.uleb128 0x24
 3217 0223 00       		.byte	0
 3218 0224 0B       		.uleb128 0xb
 3219 0225 0B       		.uleb128 0xb
 3220 0226 3E       		.uleb128 0x3e
 3221 0227 0B       		.uleb128 0xb
 3222 0228 03       		.uleb128 0x3
 3223 0229 08       		.uleb128 0x8
 3224 022a 00       		.byte	0
 3225 022b 00       		.byte	0
 3226 022c 22       		.uleb128 0x22
 3227 022d 35       		.uleb128 0x35
 3228 022e 00       		.byte	0
 3229 022f 49       		.uleb128 0x49
 3230 0230 13       		.uleb128 0x13
 3231 0231 00       		.byte	0
 3232 0232 00       		.byte	0
 3233 0233 23       		.uleb128 0x23
 3234 0234 0F       		.uleb128 0xf
 3235 0235 00       		.byte	0
 3236 0236 0B       		.uleb128 0xb
 3237 0237 0B       		.uleb128 0xb
 3238 0238 00       		.byte	0
 3239 0239 00       		.byte	0
 3240 023a 24       		.uleb128 0x24
 3241 023b 15       		.uleb128 0x15
 3242 023c 01       		.byte	0x1
 3243 023d 27       		.uleb128 0x27
 3244 023e 19       		.uleb128 0x19
 3245 023f 01       		.uleb128 0x1
ARM GAS  /tmp/ccZTzvT8.s 			page 58


 3246 0240 13       		.uleb128 0x13
 3247 0241 00       		.byte	0
 3248 0242 00       		.byte	0
 3249 0243 25       		.uleb128 0x25
 3250 0244 34       		.uleb128 0x34
 3251 0245 00       		.byte	0
 3252 0246 03       		.uleb128 0x3
 3253 0247 0E       		.uleb128 0xe
 3254 0248 3A       		.uleb128 0x3a
 3255 0249 0B       		.uleb128 0xb
 3256 024a 3B       		.uleb128 0x3b
 3257 024b 0B       		.uleb128 0xb
 3258 024c 39       		.uleb128 0x39
 3259 024d 0B       		.uleb128 0xb
 3260 024e 49       		.uleb128 0x49
 3261 024f 13       		.uleb128 0x13
 3262 0250 3F       		.uleb128 0x3f
 3263 0251 19       		.uleb128 0x19
 3264 0252 3C       		.uleb128 0x3c
 3265 0253 19       		.uleb128 0x19
 3266 0254 00       		.byte	0
 3267 0255 00       		.byte	0
 3268 0256 26       		.uleb128 0x26
 3269 0257 17       		.uleb128 0x17
 3270 0258 01       		.byte	0x1
 3271 0259 0B       		.uleb128 0xb
 3272 025a 0B       		.uleb128 0xb
 3273 025b 3A       		.uleb128 0x3a
 3274 025c 0B       		.uleb128 0xb
 3275 025d 3B       		.uleb128 0x3b
 3276 025e 0B       		.uleb128 0xb
 3277 025f 39       		.uleb128 0x39
 3278 0260 0B       		.uleb128 0xb
 3279 0261 01       		.uleb128 0x1
 3280 0262 13       		.uleb128 0x13
 3281 0263 00       		.byte	0
 3282 0264 00       		.byte	0
 3283 0265 27       		.uleb128 0x27
 3284 0266 26       		.uleb128 0x26
 3285 0267 00       		.byte	0
 3286 0268 49       		.uleb128 0x49
 3287 0269 13       		.uleb128 0x13
 3288 026a 00       		.byte	0
 3289 026b 00       		.byte	0
 3290 026c 28       		.uleb128 0x28
 3291 026d 34       		.uleb128 0x34
 3292 026e 00       		.byte	0
 3293 026f 47       		.uleb128 0x47
 3294 0270 13       		.uleb128 0x13
 3295 0271 3A       		.uleb128 0x3a
 3296 0272 0B       		.uleb128 0xb
 3297 0273 3B       		.uleb128 0x3b
 3298 0274 0B       		.uleb128 0xb
 3299 0275 39       		.uleb128 0x39
 3300 0276 0B       		.uleb128 0xb
 3301 0277 02       		.uleb128 0x2
 3302 0278 18       		.uleb128 0x18
ARM GAS  /tmp/ccZTzvT8.s 			page 59


 3303 0279 00       		.byte	0
 3304 027a 00       		.byte	0
 3305 027b 29       		.uleb128 0x29
 3306 027c 2E       		.uleb128 0x2e
 3307 027d 01       		.byte	0x1
 3308 027e 3F       		.uleb128 0x3f
 3309 027f 19       		.uleb128 0x19
 3310 0280 03       		.uleb128 0x3
 3311 0281 0E       		.uleb128 0xe
 3312 0282 3A       		.uleb128 0x3a
 3313 0283 0B       		.uleb128 0xb
 3314 0284 3B       		.uleb128 0x3b
 3315 0285 05       		.uleb128 0x5
 3316 0286 39       		.uleb128 0x39
 3317 0287 0B       		.uleb128 0xb
 3318 0288 27       		.uleb128 0x27
 3319 0289 19       		.uleb128 0x19
 3320 028a 3C       		.uleb128 0x3c
 3321 028b 19       		.uleb128 0x19
 3322 028c 01       		.uleb128 0x1
 3323 028d 13       		.uleb128 0x13
 3324 028e 00       		.byte	0
 3325 028f 00       		.byte	0
 3326 0290 2A       		.uleb128 0x2a
 3327 0291 2E       		.uleb128 0x2e
 3328 0292 01       		.byte	0x1
 3329 0293 3F       		.uleb128 0x3f
 3330 0294 19       		.uleb128 0x19
 3331 0295 03       		.uleb128 0x3
 3332 0296 0E       		.uleb128 0xe
 3333 0297 3A       		.uleb128 0x3a
 3334 0298 0B       		.uleb128 0xb
 3335 0299 3B       		.uleb128 0x3b
 3336 029a 05       		.uleb128 0x5
 3337 029b 39       		.uleb128 0x39
 3338 029c 0B       		.uleb128 0xb
 3339 029d 27       		.uleb128 0x27
 3340 029e 19       		.uleb128 0x19
 3341 029f 20       		.uleb128 0x20
 3342 02a0 0B       		.uleb128 0xb
 3343 02a1 01       		.uleb128 0x1
 3344 02a2 13       		.uleb128 0x13
 3345 02a3 00       		.byte	0
 3346 02a4 00       		.byte	0
 3347 02a5 2B       		.uleb128 0x2b
 3348 02a6 34       		.uleb128 0x34
 3349 02a7 00       		.byte	0
 3350 02a8 03       		.uleb128 0x3
 3351 02a9 08       		.uleb128 0x8
 3352 02aa 3A       		.uleb128 0x3a
 3353 02ab 0B       		.uleb128 0xb
 3354 02ac 3B       		.uleb128 0x3b
 3355 02ad 05       		.uleb128 0x5
 3356 02ae 39       		.uleb128 0x39
 3357 02af 0B       		.uleb128 0xb
 3358 02b0 49       		.uleb128 0x49
 3359 02b1 13       		.uleb128 0x13
ARM GAS  /tmp/ccZTzvT8.s 			page 60


 3360 02b2 00       		.byte	0
 3361 02b3 00       		.byte	0
 3362 02b4 2C       		.uleb128 0x2c
 3363 02b5 2E       		.uleb128 0x2e
 3364 02b6 01       		.byte	0x1
 3365 02b7 3F       		.uleb128 0x3f
 3366 02b8 19       		.uleb128 0x19
 3367 02b9 03       		.uleb128 0x3
 3368 02ba 0E       		.uleb128 0xe
 3369 02bb 3A       		.uleb128 0x3a
 3370 02bc 0B       		.uleb128 0xb
 3371 02bd 3B       		.uleb128 0x3b
 3372 02be 05       		.uleb128 0x5
 3373 02bf 39       		.uleb128 0x39
 3374 02c0 0B       		.uleb128 0xb
 3375 02c1 27       		.uleb128 0x27
 3376 02c2 19       		.uleb128 0x19
 3377 02c3 49       		.uleb128 0x49
 3378 02c4 13       		.uleb128 0x13
 3379 02c5 11       		.uleb128 0x11
 3380 02c6 01       		.uleb128 0x1
 3381 02c7 12       		.uleb128 0x12
 3382 02c8 06       		.uleb128 0x6
 3383 02c9 40       		.uleb128 0x40
 3384 02ca 18       		.uleb128 0x18
 3385 02cb 7A       		.uleb128 0x7a
 3386 02cc 19       		.uleb128 0x19
 3387 02cd 01       		.uleb128 0x1
 3388 02ce 13       		.uleb128 0x13
 3389 02cf 00       		.byte	0
 3390 02d0 00       		.byte	0
 3391 02d1 2D       		.uleb128 0x2d
 3392 02d2 48       		.uleb128 0x48
 3393 02d3 01       		.byte	0x1
 3394 02d4 7D       		.uleb128 0x7d
 3395 02d5 01       		.uleb128 0x1
 3396 02d6 8201     		.uleb128 0x82
 3397 02d8 19       		.uleb128 0x19
 3398 02d9 7F       		.uleb128 0x7f
 3399 02da 13       		.uleb128 0x13
 3400 02db 00       		.byte	0
 3401 02dc 00       		.byte	0
 3402 02dd 2E       		.uleb128 0x2e
 3403 02de 2E       		.uleb128 0x2e
 3404 02df 01       		.byte	0x1
 3405 02e0 3F       		.uleb128 0x3f
 3406 02e1 19       		.uleb128 0x19
 3407 02e2 03       		.uleb128 0x3
 3408 02e3 0E       		.uleb128 0xe
 3409 02e4 3A       		.uleb128 0x3a
 3410 02e5 0B       		.uleb128 0xb
 3411 02e6 3B       		.uleb128 0x3b
 3412 02e7 0B       		.uleb128 0xb
 3413 02e8 39       		.uleb128 0x39
 3414 02e9 0B       		.uleb128 0xb
 3415 02ea 27       		.uleb128 0x27
 3416 02eb 19       		.uleb128 0x19
ARM GAS  /tmp/ccZTzvT8.s 			page 61


 3417 02ec 49       		.uleb128 0x49
 3418 02ed 13       		.uleb128 0x13
 3419 02ee 11       		.uleb128 0x11
 3420 02ef 01       		.uleb128 0x1
 3421 02f0 12       		.uleb128 0x12
 3422 02f1 06       		.uleb128 0x6
 3423 02f2 40       		.uleb128 0x40
 3424 02f3 18       		.uleb128 0x18
 3425 02f4 7A       		.uleb128 0x7a
 3426 02f5 19       		.uleb128 0x19
 3427 02f6 01       		.uleb128 0x1
 3428 02f7 13       		.uleb128 0x13
 3429 02f8 00       		.byte	0
 3430 02f9 00       		.byte	0
 3431 02fa 2F       		.uleb128 0x2f
 3432 02fb 34       		.uleb128 0x34
 3433 02fc 00       		.byte	0
 3434 02fd 03       		.uleb128 0x3
 3435 02fe 08       		.uleb128 0x8
 3436 02ff 3A       		.uleb128 0x3a
 3437 0300 0B       		.uleb128 0xb
 3438 0301 3B       		.uleb128 0x3b
 3439 0302 0B       		.uleb128 0xb
 3440 0303 39       		.uleb128 0x39
 3441 0304 0B       		.uleb128 0xb
 3442 0305 49       		.uleb128 0x49
 3443 0306 13       		.uleb128 0x13
 3444 0307 02       		.uleb128 0x2
 3445 0308 18       		.uleb128 0x18
 3446 0309 00       		.byte	0
 3447 030a 00       		.byte	0
 3448 030b 30       		.uleb128 0x30
 3449 030c 48       		.uleb128 0x48
 3450 030d 01       		.byte	0x1
 3451 030e 7D       		.uleb128 0x7d
 3452 030f 01       		.uleb128 0x1
 3453 0310 7F       		.uleb128 0x7f
 3454 0311 13       		.uleb128 0x13
 3455 0312 01       		.uleb128 0x1
 3456 0313 13       		.uleb128 0x13
 3457 0314 00       		.byte	0
 3458 0315 00       		.byte	0
 3459 0316 31       		.uleb128 0x31
 3460 0317 48       		.uleb128 0x48
 3461 0318 01       		.byte	0x1
 3462 0319 7D       		.uleb128 0x7d
 3463 031a 01       		.uleb128 0x1
 3464 031b 7F       		.uleb128 0x7f
 3465 031c 13       		.uleb128 0x13
 3466 031d 00       		.byte	0
 3467 031e 00       		.byte	0
 3468 031f 32       		.uleb128 0x32
 3469 0320 1D       		.uleb128 0x1d
 3470 0321 01       		.byte	0x1
 3471 0322 31       		.uleb128 0x31
 3472 0323 13       		.uleb128 0x13
 3473 0324 52       		.uleb128 0x52
ARM GAS  /tmp/ccZTzvT8.s 			page 62


 3474 0325 01       		.uleb128 0x1
 3475 0326 B842     		.uleb128 0x2138
 3476 0328 0B       		.uleb128 0xb
 3477 0329 11       		.uleb128 0x11
 3478 032a 01       		.uleb128 0x1
 3479 032b 12       		.uleb128 0x12
 3480 032c 06       		.uleb128 0x6
 3481 032d 58       		.uleb128 0x58
 3482 032e 0B       		.uleb128 0xb
 3483 032f 59       		.uleb128 0x59
 3484 0330 0B       		.uleb128 0xb
 3485 0331 57       		.uleb128 0x57
 3486 0332 0B       		.uleb128 0xb
 3487 0333 00       		.byte	0
 3488 0334 00       		.byte	0
 3489 0335 33       		.uleb128 0x33
 3490 0336 2E       		.uleb128 0x2e
 3491 0337 01       		.byte	0x1
 3492 0338 03       		.uleb128 0x3
 3493 0339 0E       		.uleb128 0xe
 3494 033a 3A       		.uleb128 0x3a
 3495 033b 0B       		.uleb128 0xb
 3496 033c 3B       		.uleb128 0x3b
 3497 033d 0B       		.uleb128 0xb
 3498 033e 39       		.uleb128 0x39
 3499 033f 0B       		.uleb128 0xb
 3500 0340 27       		.uleb128 0x27
 3501 0341 19       		.uleb128 0x19
 3502 0342 11       		.uleb128 0x11
 3503 0343 01       		.uleb128 0x1
 3504 0344 12       		.uleb128 0x12
 3505 0345 06       		.uleb128 0x6
 3506 0346 40       		.uleb128 0x40
 3507 0347 18       		.uleb128 0x18
 3508 0348 7A       		.uleb128 0x7a
 3509 0349 19       		.uleb128 0x19
 3510 034a 01       		.uleb128 0x1
 3511 034b 13       		.uleb128 0x13
 3512 034c 00       		.byte	0
 3513 034d 00       		.byte	0
 3514 034e 34       		.uleb128 0x34
 3515 034f 05       		.uleb128 0x5
 3516 0350 00       		.byte	0
 3517 0351 03       		.uleb128 0x3
 3518 0352 08       		.uleb128 0x8
 3519 0353 3A       		.uleb128 0x3a
 3520 0354 0B       		.uleb128 0xb
 3521 0355 3B       		.uleb128 0x3b
 3522 0356 0B       		.uleb128 0xb
 3523 0357 39       		.uleb128 0x39
 3524 0358 0B       		.uleb128 0xb
 3525 0359 49       		.uleb128 0x49
 3526 035a 13       		.uleb128 0x13
 3527 035b 02       		.uleb128 0x2
 3528 035c 18       		.uleb128 0x18
 3529 035d 00       		.byte	0
 3530 035e 00       		.byte	0
ARM GAS  /tmp/ccZTzvT8.s 			page 63


 3531 035f 35       		.uleb128 0x35
 3532 0360 2E       		.uleb128 0x2e
 3533 0361 01       		.byte	0x1
 3534 0362 3F       		.uleb128 0x3f
 3535 0363 19       		.uleb128 0x19
 3536 0364 03       		.uleb128 0x3
 3537 0365 0E       		.uleb128 0xe
 3538 0366 3A       		.uleb128 0x3a
 3539 0367 0B       		.uleb128 0xb
 3540 0368 3B       		.uleb128 0x3b
 3541 0369 0B       		.uleb128 0xb
 3542 036a 39       		.uleb128 0x39
 3543 036b 0B       		.uleb128 0xb
 3544 036c 27       		.uleb128 0x27
 3545 036d 19       		.uleb128 0x19
 3546 036e 20       		.uleb128 0x20
 3547 036f 0B       		.uleb128 0xb
 3548 0370 01       		.uleb128 0x1
 3549 0371 13       		.uleb128 0x13
 3550 0372 00       		.byte	0
 3551 0373 00       		.byte	0
 3552 0374 36       		.uleb128 0x36
 3553 0375 05       		.uleb128 0x5
 3554 0376 00       		.byte	0
 3555 0377 03       		.uleb128 0x3
 3556 0378 0E       		.uleb128 0xe
 3557 0379 3A       		.uleb128 0x3a
 3558 037a 0B       		.uleb128 0xb
 3559 037b 3B       		.uleb128 0x3b
 3560 037c 0B       		.uleb128 0xb
 3561 037d 39       		.uleb128 0x39
 3562 037e 0B       		.uleb128 0xb
 3563 037f 49       		.uleb128 0x49
 3564 0380 13       		.uleb128 0x13
 3565 0381 00       		.byte	0
 3566 0382 00       		.byte	0
 3567 0383 37       		.uleb128 0x37
 3568 0384 2E       		.uleb128 0x2e
 3569 0385 01       		.byte	0x1
 3570 0386 3F       		.uleb128 0x3f
 3571 0387 19       		.uleb128 0x19
 3572 0388 03       		.uleb128 0x3
 3573 0389 0E       		.uleb128 0xe
 3574 038a 3A       		.uleb128 0x3a
 3575 038b 0B       		.uleb128 0xb
 3576 038c 3B       		.uleb128 0x3b
 3577 038d 0B       		.uleb128 0xb
 3578 038e 39       		.uleb128 0x39
 3579 038f 0B       		.uleb128 0xb
 3580 0390 27       		.uleb128 0x27
 3581 0391 19       		.uleb128 0x19
 3582 0392 49       		.uleb128 0x49
 3583 0393 13       		.uleb128 0x13
 3584 0394 20       		.uleb128 0x20
 3585 0395 0B       		.uleb128 0xb
 3586 0396 01       		.uleb128 0x1
 3587 0397 13       		.uleb128 0x13
ARM GAS  /tmp/ccZTzvT8.s 			page 64


 3588 0398 00       		.byte	0
 3589 0399 00       		.byte	0
 3590 039a 38       		.uleb128 0x38
 3591 039b 2E       		.uleb128 0x2e
 3592 039c 00       		.byte	0
 3593 039d 3F       		.uleb128 0x3f
 3594 039e 19       		.uleb128 0x19
 3595 039f 03       		.uleb128 0x3
 3596 03a0 0E       		.uleb128 0xe
 3597 03a1 3A       		.uleb128 0x3a
 3598 03a2 0B       		.uleb128 0xb
 3599 03a3 3B       		.uleb128 0x3b
 3600 03a4 0B       		.uleb128 0xb
 3601 03a5 39       		.uleb128 0x39
 3602 03a6 0B       		.uleb128 0xb
 3603 03a7 27       		.uleb128 0x27
 3604 03a8 19       		.uleb128 0x19
 3605 03a9 11       		.uleb128 0x11
 3606 03aa 01       		.uleb128 0x1
 3607 03ab 12       		.uleb128 0x12
 3608 03ac 06       		.uleb128 0x6
 3609 03ad 40       		.uleb128 0x40
 3610 03ae 18       		.uleb128 0x18
 3611 03af 7A       		.uleb128 0x7a
 3612 03b0 19       		.uleb128 0x19
 3613 03b1 00       		.byte	0
 3614 03b2 00       		.byte	0
 3615 03b3 39       		.uleb128 0x39
 3616 03b4 05       		.uleb128 0x5
 3617 03b5 00       		.byte	0
 3618 03b6 31       		.uleb128 0x31
 3619 03b7 13       		.uleb128 0x13
 3620 03b8 02       		.uleb128 0x2
 3621 03b9 18       		.uleb128 0x18
 3622 03ba 00       		.byte	0
 3623 03bb 00       		.byte	0
 3624 03bc 3A       		.uleb128 0x3a
 3625 03bd 2E       		.uleb128 0x2e
 3626 03be 01       		.byte	0x1
 3627 03bf 31       		.uleb128 0x31
 3628 03c0 13       		.uleb128 0x13
 3629 03c1 11       		.uleb128 0x11
 3630 03c2 01       		.uleb128 0x1
 3631 03c3 12       		.uleb128 0x12
 3632 03c4 06       		.uleb128 0x6
 3633 03c5 40       		.uleb128 0x40
 3634 03c6 18       		.uleb128 0x18
 3635 03c7 7A       		.uleb128 0x7a
 3636 03c8 19       		.uleb128 0x19
 3637 03c9 00       		.byte	0
 3638 03ca 00       		.byte	0
 3639 03cb 00       		.byte	0
 3640              		.section	.debug_loclists,"",%progbits
 3641 0000 C2020000 		.4byte	.Ldebug_loc3-.Ldebug_loc2
 3642              	.Ldebug_loc2:
 3643 0004 0500     		.2byte	0x5
 3644 0006 04       		.byte	0x4
ARM GAS  /tmp/ccZTzvT8.s 			page 65


 3645 0007 00       		.byte	0
 3646 0008 00000000 		.4byte	0
 3647              	.Ldebug_loc0:
 3648              	.LVUS49:
 3649 000c 04       		.uleb128 .LVU420
 3650 000d 00       		.uleb128 .LVU468
 3651              	.LLST49:
 3652 000e 08       		.byte	0x8
 3653 000f 14000000 		.4byte	.LVL65
 3654 0013 67       		.uleb128 .LVL71-1-.LVL65
 3655 0014 01       		.uleb128 0x1
 3656 0015 51       		.byte	0x51
 3657 0016 00       		.byte	0
 3658              	.LVUS51:
 3659 0017 05       		.uleb128 .LVU421
 3660 0018 01       		.uleb128 .LVU430
 3661              	.LLST51:
 3662 0019 08       		.byte	0x8
 3663 001a 14000000 		.4byte	.LVL65
 3664 001e 14       		.uleb128 .LVL67-.LVL65
 3665 001f 06       		.uleb128 0x6
 3666 0020 03       		.byte	0x3
 3667 0021 00000000 		.4byte	rlist
 3668 0025 9F       		.byte	0x9f
 3669 0026 00       		.byte	0
 3670              	.LVUS52:
 3671 0027 00       		.uleb128 .LVU424
 3672 0028 01       		.uleb128 .LVU430
 3673              	.LLST52:
 3674 0029 08       		.byte	0x8
 3675 002a 18000000 		.4byte	.LVL66
 3676 002e 10       		.uleb128 .LVL67-.LVL66
 3677 002f 01       		.uleb128 0x1
 3678 0030 50       		.byte	0x50
 3679 0031 00       		.byte	0
 3680              	.LVUS54:
 3681 0032 01       		.uleb128 .LVU439
 3682 0033 01       		.uleb128 .LVU463
 3683              	.LLST54:
 3684 0034 08       		.byte	0x8
 3685 0035 48000000 		.4byte	.LVL68
 3686 0039 30       		.uleb128 .LVL70-.LVL68
 3687 003a 01       		.uleb128 0x1
 3688 003b 51       		.byte	0x51
 3689 003c 00       		.byte	0
 3690              	.LVUS55:
 3691 003d 09       		.uleb128 .LVU447
 3692 003e 00       		.uleb128 .LVU448
 3693              	.LLST55:
 3694 003f 08       		.byte	0x8
 3695 0040 48000000 		.4byte	.LVL68
 3696 0044 04       		.uleb128 .LVL69-.LVL68
 3697 0045 06       		.uleb128 0x6
 3698 0046 03       		.byte	0x3
 3699 0047 00000000 		.4byte	rlist
 3700 004b 9F       		.byte	0x9f
 3701 004c 00       		.byte	0
ARM GAS  /tmp/ccZTzvT8.s 			page 66


 3702              	.LVUS43:
 3703 004d 00       		.uleb128 .LVU369
 3704 004e 00       		.uleb128 .LVU404
 3705              	.LLST43:
 3706 004f 08       		.byte	0x8
 3707 0050 18000000 		.4byte	.LVL59
 3708 0054 53       		.uleb128 .LVL63-1-.LVL59
 3709 0055 01       		.uleb128 0x1
 3710 0056 51       		.byte	0x51
 3711 0057 00       		.byte	0
 3712              	.LVUS44:
 3713 0058 01       		.uleb128 .LVU386
 3714 0059 00       		.uleb128 .LVU387
 3715              	.LLST44:
 3716 005a 08       		.byte	0x8
 3717 005b 38000000 		.4byte	.LVL61
 3718 005f 04       		.uleb128 .LVL62-.LVL61
 3719 0060 06       		.uleb128 0x6
 3720 0061 03       		.byte	0x3
 3721 0062 00000000 		.4byte	rlist
 3722 0066 9F       		.byte	0x9f
 3723 0067 00       		.byte	0
 3724              	.LVUS46:
 3725 0068 01       		.uleb128 .LVU370
 3726 0069 01       		.uleb128 .LVU377
 3727              	.LLST46:
 3728 006a 08       		.byte	0x8
 3729 006b 18000000 		.4byte	.LVL59
 3730 006f 0C       		.uleb128 .LVL60-.LVL59
 3731 0070 06       		.uleb128 0x6
 3732 0071 03       		.byte	0x3
 3733 0072 00000000 		.4byte	rlist
 3734 0076 9F       		.byte	0x9f
 3735 0077 00       		.byte	0
 3736              	.LVUS47:
 3737 0078 03       		.uleb128 .LVU372
 3738 0079 01       		.uleb128 .LVU377
 3739              	.LLST47:
 3740 007a 08       		.byte	0x8
 3741 007b 18000000 		.4byte	.LVL59
 3742 007f 0C       		.uleb128 .LVL60-.LVL59
 3743 0080 01       		.uleb128 0x1
 3744 0081 50       		.byte	0x50
 3745 0082 00       		.byte	0
 3746              	.LVUS34:
 3747 0083 00       		.uleb128 .LVU294
 3748 0084 00       		.uleb128 .LVU300
 3749 0085 00       		.uleb128 .LVU300
 3750 0086 00       		.uleb128 .LVU301
 3751 0087 00       		.uleb128 .LVU301
 3752 0088 00       		.uleb128 .LVU302
 3753 0089 00       		.uleb128 .LVU302
 3754 008a 00       		.uleb128 0
 3755              	.LLST34:
 3756 008b 06       		.byte	0x6
 3757 008c 14000000 		.4byte	.LVL47
 3758 0090 04       		.byte	0x4
ARM GAS  /tmp/ccZTzvT8.s 			page 67


 3759 0091 00       		.uleb128 .LVL47-.LVL47
 3760 0092 14       		.uleb128 .LVL49-.LVL47
 3761 0093 01       		.uleb128 0x1
 3762 0094 50       		.byte	0x50
 3763 0095 04       		.byte	0x4
 3764 0096 14       		.uleb128 .LVL49-.LVL47
 3765 0097 1C       		.uleb128 .LVL50-.LVL47
 3766 0098 02       		.uleb128 0x2
 3767 0099 71       		.byte	0x71
 3768 009a 08       		.sleb128 8
 3769 009b 04       		.byte	0x4
 3770 009c 1C       		.uleb128 .LVL50-.LVL47
 3771 009d 24       		.uleb128 .LVL51-.LVL47
 3772 009e 01       		.uleb128 0x1
 3773 009f 50       		.byte	0x50
 3774 00a0 04       		.byte	0x4
 3775 00a1 24       		.uleb128 .LVL51-.LVL47
 3776 00a2 30       		.uleb128 .LFE14-.LVL47
 3777 00a3 02       		.uleb128 0x2
 3778 00a4 71       		.byte	0x71
 3779 00a5 08       		.sleb128 8
 3780 00a6 00       		.byte	0
 3781              	.LVUS35:
 3782 00a7 00       		.uleb128 .LVU297
 3783 00a8 00       		.uleb128 0
 3784              	.LLST35:
 3785 00a9 08       		.byte	0x8
 3786 00aa 1C000000 		.4byte	.LVL48
 3787 00ae 28       		.uleb128 .LFE14-.LVL48
 3788 00af 01       		.uleb128 0x1
 3789 00b0 53       		.byte	0x53
 3790 00b1 00       		.byte	0
 3791              	.LVUS24:
 3792 00b2 00       		.uleb128 0
 3793 00b3 00       		.uleb128 .LVU286
 3794 00b4 00       		.uleb128 .LVU286
 3795 00b5 00       		.uleb128 0
 3796              	.LLST24:
 3797 00b6 06       		.byte	0x6
 3798 00b7 00000000 		.4byte	.LVL33
 3799 00bb 04       		.byte	0x4
 3800 00bc 00       		.uleb128 .LVL33-.LVL33
 3801 00bd 9B01     		.uleb128 .LVL46-1-.LVL33
 3802 00bf 01       		.uleb128 0x1
 3803 00c0 50       		.byte	0x50
 3804 00c1 04       		.byte	0x4
 3805 00c2 9B01     		.uleb128 .LVL46-1-.LVL33
 3806 00c4 A001     		.uleb128 .LFE12-.LVL33
 3807 00c6 04       		.uleb128 0x4
 3808 00c7 A3       		.byte	0xa3
 3809 00c8 01       		.uleb128 0x1
 3810 00c9 50       		.byte	0x50
 3811 00ca 9F       		.byte	0x9f
 3812 00cb 00       		.byte	0
 3813              	.LVUS25:
 3814 00cc 00       		.uleb128 0
 3815 00cd 00       		.uleb128 .LVU222
ARM GAS  /tmp/ccZTzvT8.s 			page 68


 3816 00ce 00       		.uleb128 .LVU222
 3817 00cf 00       		.uleb128 .LVU258
 3818 00d0 00       		.uleb128 .LVU258
 3819 00d1 00       		.uleb128 0
 3820              	.LLST25:
 3821 00d2 06       		.byte	0x6
 3822 00d3 00000000 		.4byte	.LVL33
 3823 00d7 04       		.byte	0x4
 3824 00d8 00       		.uleb128 .LVL33-.LVL33
 3825 00d9 24       		.uleb128 .LVL34-.LVL33
 3826 00da 01       		.uleb128 0x1
 3827 00db 51       		.byte	0x51
 3828 00dc 04       		.byte	0x4
 3829 00dd 24       		.uleb128 .LVL34-.LVL33
 3830 00de 5C       		.uleb128 .LVL41-.LVL33
 3831 00df 02       		.uleb128 0x2
 3832 00e0 70       		.byte	0x70
 3833 00e1 24       		.sleb128 36
 3834 00e2 04       		.byte	0x4
 3835 00e3 5C       		.uleb128 .LVL41-.LVL33
 3836 00e4 A001     		.uleb128 .LFE12-.LVL33
 3837 00e6 04       		.uleb128 0x4
 3838 00e7 A3       		.byte	0xa3
 3839 00e8 01       		.uleb128 0x1
 3840 00e9 51       		.byte	0x51
 3841 00ea 9F       		.byte	0x9f
 3842 00eb 00       		.byte	0
 3843              	.LVUS30:
 3844 00ec 01       		.uleb128 .LVU276
 3845 00ed 00       		.uleb128 .LVU280
 3846 00ee 00       		.uleb128 .LVU280
 3847 00ef 00       		.uleb128 .LVU286
 3848              	.LLST30:
 3849 00f0 06       		.byte	0x6
 3850 00f1 8C000000 		.4byte	.LVL44
 3851 00f5 04       		.byte	0x4
 3852 00f6 00       		.uleb128 .LVL44-.LVL44
 3853 00f7 08       		.uleb128 .LVL45-.LVL44
 3854 00f8 01       		.uleb128 0x1
 3855 00f9 54       		.byte	0x54
 3856 00fa 04       		.byte	0x4
 3857 00fb 08       		.uleb128 .LVL45-.LVL44
 3858 00fc 0F       		.uleb128 .LVL46-1-.LVL44
 3859 00fd 01       		.uleb128 0x1
 3860 00fe 51       		.byte	0x51
 3861 00ff 00       		.byte	0
 3862              	.LVUS32:
 3863 0100 01       		.uleb128 .LVU250
 3864 0101 01       		.uleb128 .LVU276
 3865              	.LLST32:
 3866 0102 08       		.byte	0x8
 3867 0103 58000000 		.4byte	.LVL40
 3868 0107 34       		.uleb128 .LVL44-.LVL40
 3869 0108 01       		.uleb128 0x1
 3870 0109 54       		.byte	0x54
 3871 010a 00       		.byte	0
 3872              	.LVUS33:
ARM GAS  /tmp/ccZTzvT8.s 			page 69


 3873 010b 01       		.uleb128 .LVU259
 3874 010c 00       		.uleb128 .LVU272
 3875 010d 00       		.uleb128 .LVU272
 3876 010e 00       		.uleb128 .LVU275
 3877              	.LLST33:
 3878 010f 06       		.byte	0x6
 3879 0110 5C000000 		.4byte	.LVL41
 3880 0114 04       		.byte	0x4
 3881 0115 00       		.uleb128 .LVL41-.LVL41
 3882 0116 28       		.uleb128 .LVL43-.LVL41
 3883 0117 01       		.uleb128 0x1
 3884 0118 53       		.byte	0x53
 3885 0119 04       		.byte	0x4
 3886 011a 28       		.uleb128 .LVL43-.LVL41
 3887 011b 30       		.uleb128 .LVL44-.LVL41
 3888 011c 02       		.uleb128 0x2
 3889 011d 74       		.byte	0x74
 3890 011e 00       		.sleb128 0
 3891 011f 00       		.byte	0
 3892              	.LVUS27:
 3893 0120 01       		.uleb128 .LVU225
 3894 0121 00       		.uleb128 .LVU249
 3895              	.LLST27:
 3896 0122 08       		.byte	0x8
 3897 0123 28000000 		.4byte	.LVL35
 3898 0127 30       		.uleb128 .LVL40-.LVL35
 3899 0128 01       		.uleb128 0x1
 3900 0129 50       		.byte	0x50
 3901 012a 00       		.byte	0
 3902              	.LVUS28:
 3903 012b 01       		.uleb128 .LVU234
 3904 012c 00       		.uleb128 .LVU246
 3905 012d 00       		.uleb128 .LVU246
 3906 012e 00       		.uleb128 .LVU247
 3907              	.LLST28:
 3908 012f 06       		.byte	0x6
 3909 0130 2C000000 		.4byte	.LVL36
 3910 0134 04       		.byte	0x4
 3911 0135 00       		.uleb128 .LVL36-.LVL36
 3912 0136 24       		.uleb128 .LVL38-.LVL36
 3913 0137 01       		.uleb128 0x1
 3914 0138 53       		.byte	0x53
 3915 0139 04       		.byte	0x4
 3916 013a 24       		.uleb128 .LVL38-.LVL36
 3917 013b 28       		.uleb128 .LVL39-.LVL36
 3918 013c 02       		.uleb128 0x2
 3919 013d 70       		.byte	0x70
 3920 013e 00       		.sleb128 0
 3921 013f 00       		.byte	0
 3922              	.LVUS11:
 3923 0140 00       		.uleb128 0
 3924 0141 00       		.uleb128 .LVU136
 3925 0142 00       		.uleb128 .LVU136
 3926 0143 00       		.uleb128 .LVU173
 3927 0144 00       		.uleb128 .LVU173
 3928 0145 00       		.uleb128 .LVU182
 3929 0146 00       		.uleb128 .LVU182
ARM GAS  /tmp/ccZTzvT8.s 			page 70


 3930 0147 00       		.uleb128 0
 3931              	.LLST11:
 3932 0148 06       		.byte	0x6
 3933 0149 00000000 		.4byte	.LVL19
 3934 014d 04       		.byte	0x4
 3935 014e 00       		.uleb128 .LVL19-.LVL19
 3936 014f 27       		.uleb128 .LVL20-1-.LVL19
 3937 0150 01       		.uleb128 0x1
 3938 0151 50       		.byte	0x50
 3939 0152 04       		.byte	0x4
 3940 0153 27       		.uleb128 .LVL20-1-.LVL19
 3941 0154 7C       		.uleb128 .LVL26-.LVL19
 3942 0155 04       		.uleb128 0x4
 3943 0156 A3       		.byte	0xa3
 3944 0157 01       		.uleb128 0x1
 3945 0158 50       		.byte	0x50
 3946 0159 9F       		.byte	0x9f
 3947 015a 04       		.byte	0x4
 3948 015b 7C       		.uleb128 .LVL26-.LVL19
 3949 015c 8801     		.uleb128 .LVL27-.LVL19
 3950 015e 01       		.uleb128 0x1
 3951 015f 50       		.byte	0x50
 3952 0160 04       		.byte	0x4
 3953 0161 8801     		.uleb128 .LVL27-.LVL19
 3954 0163 C401     		.uleb128 .LFE11-.LVL19
 3955 0165 04       		.uleb128 0x4
 3956 0166 A3       		.byte	0xa3
 3957 0167 01       		.uleb128 0x1
 3958 0168 50       		.byte	0x50
 3959 0169 9F       		.byte	0x9f
 3960 016a 00       		.byte	0
 3961              	.LVUS12:
 3962 016b 00       		.uleb128 0
 3963 016c 00       		.uleb128 .LVU136
 3964 016d 00       		.uleb128 .LVU136
 3965 016e 00       		.uleb128 .LVU173
 3966 016f 00       		.uleb128 .LVU173
 3967 0170 00       		.uleb128 .LVU191
 3968 0171 00       		.uleb128 .LVU191
 3969 0172 00       		.uleb128 0
 3970              	.LLST12:
 3971 0173 06       		.byte	0x6
 3972 0174 00000000 		.4byte	.LVL19
 3973 0178 04       		.byte	0x4
 3974 0179 00       		.uleb128 .LVL19-.LVL19
 3975 017a 27       		.uleb128 .LVL20-1-.LVL19
 3976 017b 01       		.uleb128 0x1
 3977 017c 51       		.byte	0x51
 3978 017d 04       		.byte	0x4
 3979 017e 27       		.uleb128 .LVL20-1-.LVL19
 3980 017f 7C       		.uleb128 .LVL26-.LVL19
 3981 0180 04       		.uleb128 0x4
 3982 0181 A3       		.byte	0xa3
 3983 0182 01       		.uleb128 0x1
 3984 0183 51       		.byte	0x51
 3985 0184 9F       		.byte	0x9f
 3986 0185 04       		.byte	0x4
ARM GAS  /tmp/ccZTzvT8.s 			page 71


 3987 0186 7C       		.uleb128 .LVL26-.LVL19
 3988 0187 9401     		.uleb128 .LVL29-.LVL19
 3989 0189 01       		.uleb128 0x1
 3990 018a 51       		.byte	0x51
 3991 018b 04       		.byte	0x4
 3992 018c 9401     		.uleb128 .LVL29-.LVL19
 3993 018e C401     		.uleb128 .LFE11-.LVL19
 3994 0190 04       		.uleb128 0x4
 3995 0191 A3       		.byte	0xa3
 3996 0192 01       		.uleb128 0x1
 3997 0193 51       		.byte	0x51
 3998 0194 9F       		.byte	0x9f
 3999 0195 00       		.byte	0
 4000              	.LVUS14:
 4001 0196 01       		.uleb128 .LVU137
 4002 0197 01       		.uleb128 .LVU166
 4003              	.LLST14:
 4004 0198 08       		.byte	0x8
 4005 0199 28000000 		.4byte	.LVL20
 4006 019d 30       		.uleb128 .LVL24-.LVL20
 4007 019e 01       		.uleb128 0x1
 4008 019f 55       		.byte	0x55
 4009 01a0 00       		.byte	0
 4010              	.LVUS15:
 4011 01a1 00       		.uleb128 .LVU145
 4012 01a2 00       		.uleb128 .LVU165
 4013              	.LLST15:
 4014 01a3 08       		.byte	0x8
 4015 01a4 34000000 		.4byte	.LVL21
 4016 01a8 23       		.uleb128 .LVL24-1-.LVL21
 4017 01a9 01       		.uleb128 0x1
 4018 01aa 51       		.byte	0x51
 4019 01ab 00       		.byte	0
 4020              	.LVUS17:
 4021 01ac 01       		.uleb128 .LVU150
 4022 01ad 01       		.uleb128 .LVU156
 4023              	.LLST17:
 4024 01ae 08       		.byte	0x8
 4025 01af 40000000 		.4byte	.LVL22
 4026 01b3 08       		.uleb128 .LVL23-.LVL22
 4027 01b4 06       		.uleb128 0x6
 4028 01b5 03       		.byte	0x3
 4029 01b6 00000000 		.4byte	rlist
 4030 01ba 9F       		.byte	0x9f
 4031 01bb 00       		.byte	0
 4032              	.LVUS18:
 4033 01bc 03       		.uleb128 .LVU152
 4034 01bd 01       		.uleb128 .LVU156
 4035              	.LLST18:
 4036 01be 08       		.byte	0x8
 4037 01bf 40000000 		.4byte	.LVL22
 4038 01c3 08       		.uleb128 .LVL23-.LVL22
 4039 01c4 01       		.uleb128 0x1
 4040 01c5 50       		.byte	0x50
 4041 01c6 00       		.byte	0
 4042              	.LVUS19:
 4043 01c7 01       		.uleb128 .LVU174
ARM GAS  /tmp/ccZTzvT8.s 			page 72


 4044 01c8 01       		.uleb128 .LVU204
 4045              	.LLST19:
 4046 01c9 08       		.byte	0x8
 4047 01ca 7C000000 		.4byte	.LVL26
 4048 01ce 30       		.uleb128 .LVL32-.LVL26
 4049 01cf 01       		.uleb128 0x1
 4050 01d0 55       		.byte	0x55
 4051 01d1 00       		.byte	0
 4052              	.LVUS20:
 4053 01d2 06       		.uleb128 .LVU179
 4054 01d3 00       		.uleb128 .LVU198
 4055              	.LLST20:
 4056 01d4 08       		.byte	0x8
 4057 01d5 7C000000 		.4byte	.LVL26
 4058 01d9 2C       		.uleb128 .LVL31-.LVL26
 4059 01da 05       		.uleb128 0x5
 4060 01db 03       		.byte	0x3
 4061 01dc 18000000 		.4byte	rlist+24
 4062 01e0 00       		.byte	0
 4063              	.LVUS22:
 4064 01e1 01       		.uleb128 .LVU187
 4065 01e2 01       		.uleb128 .LVU194
 4066              	.LLST22:
 4067 01e3 08       		.byte	0x8
 4068 01e4 90000000 		.4byte	.LVL28
 4069 01e8 0C       		.uleb128 .LVL30-.LVL28
 4070 01e9 06       		.uleb128 0x6
 4071 01ea 03       		.byte	0x3
 4072 01eb 00000000 		.4byte	rlist
 4073 01ef 9F       		.byte	0x9f
 4074 01f0 00       		.byte	0
 4075              	.LVUS23:
 4076 01f1 03       		.uleb128 .LVU189
 4077 01f2 01       		.uleb128 .LVU194
 4078              	.LLST23:
 4079 01f3 08       		.byte	0x8
 4080 01f4 90000000 		.4byte	.LVL28
 4081 01f8 0C       		.uleb128 .LVL30-.LVL28
 4082 01f9 01       		.uleb128 0x1
 4083 01fa 50       		.byte	0x50
 4084 01fb 00       		.byte	0
 4085              	.LVUS0:
 4086 01fc 02       		.uleb128 .LVU2
 4087 01fd 00       		.uleb128 0
 4088              	.LLST0:
 4089 01fe 08       		.byte	0x8
 4090 01ff 00000000 		.4byte	.LVL0
 4091 0203 B001     		.uleb128 .LFE10-.LVL0
 4092 0205 01       		.uleb128 0x1
 4093 0206 50       		.byte	0x50
 4094 0207 00       		.byte	0
 4095              	.LVUS1:
 4096 0208 01       		.uleb128 .LVU8
 4097 0209 01       		.uleb128 .LVU16
 4098              	.LLST1:
 4099 020a 08       		.byte	0x8
 4100 020b 58000000 		.4byte	.LVL1
ARM GAS  /tmp/ccZTzvT8.s 			page 73


 4101 020f 10       		.uleb128 .LVL2-.LVL1
 4102 0210 01       		.uleb128 0x1
 4103 0211 50       		.byte	0x50
 4104 0212 00       		.byte	0
 4105              	.LVUS3:
 4106 0213 01       		.uleb128 .LVU24
 4107 0214 01       		.uleb128 .LVU47
 4108              	.LLST3:
 4109 0215 08       		.byte	0x8
 4110 0216 7C000000 		.4byte	.LVL3
 4111 021a 2C       		.uleb128 .LVL7-.LVL3
 4112 021b 01       		.uleb128 0x1
 4113 021c 50       		.byte	0x50
 4114 021d 00       		.byte	0
 4115              	.LVUS4:
 4116 021e 01       		.uleb128 .LVU33
 4117 021f 00       		.uleb128 .LVU45
 4118 0220 00       		.uleb128 .LVU45
 4119 0221 00       		.uleb128 .LVU46
 4120              	.LLST4:
 4121 0222 06       		.byte	0x6
 4122 0223 80000000 		.4byte	.LVL4
 4123 0227 04       		.byte	0x4
 4124 0228 00       		.uleb128 .LVL4-.LVL4
 4125 0229 24       		.uleb128 .LVL6-.LVL4
 4126 022a 01       		.uleb128 0x1
 4127 022b 53       		.byte	0x53
 4128 022c 04       		.byte	0x4
 4129 022d 24       		.uleb128 .LVL6-.LVL4
 4130 022e 28       		.uleb128 .LVL7-.LVL4
 4131 022f 02       		.uleb128 0x2
 4132 0230 70       		.byte	0x70
 4133 0231 00       		.sleb128 0
 4134 0232 00       		.byte	0
 4135              	.LVUS5:
 4136 0233 01       		.uleb128 .LVU75
 4137 0234 00       		.uleb128 .LVU87
 4138 0235 00       		.uleb128 .LVU87
 4139 0236 00       		.uleb128 .LVU88
 4140              	.LLST5:
 4141 0237 06       		.byte	0x6
 4142 0238 10000000 		.4byte	.LVL9
 4143 023c 04       		.byte	0x4
 4144 023d 00       		.uleb128 .LVL9-.LVL9
 4145 023e 24       		.uleb128 .LVL11-.LVL9
 4146 023f 01       		.uleb128 0x1
 4147 0240 53       		.byte	0x53
 4148 0241 04       		.byte	0x4
 4149 0242 24       		.uleb128 .LVL11-.LVL9
 4150 0243 28       		.uleb128 .LVL12-.LVL9
 4151 0244 02       		.uleb128 0x2
 4152 0245 70       		.byte	0x70
 4153 0246 00       		.sleb128 0
 4154 0247 00       		.byte	0
 4155              	.LVUS6:
 4156 0248 00       		.uleb128 0
 4157 0249 00       		.uleb128 .LVU101
ARM GAS  /tmp/ccZTzvT8.s 			page 74


 4158 024a 00       		.uleb128 .LVU101
 4159 024b 00       		.uleb128 0
 4160              	.LLST6:
 4161 024c 06       		.byte	0x6
 4162 024d 00000000 		.4byte	.LVL13
 4163 0251 04       		.byte	0x4
 4164 0252 00       		.uleb128 .LVL13-.LVL13
 4165 0253 1C       		.uleb128 .LVL15-.LVL13
 4166 0254 01       		.uleb128 0x1
 4167 0255 50       		.byte	0x50
 4168 0256 04       		.byte	0x4
 4169 0257 1C       		.uleb128 .LVL15-.LVL13
 4170 0258 44       		.uleb128 .LFE9-.LVL13
 4171 0259 04       		.uleb128 0x4
 4172 025a A3       		.byte	0xa3
 4173 025b 01       		.uleb128 0x1
 4174 025c 50       		.byte	0x50
 4175 025d 9F       		.byte	0x9f
 4176 025e 00       		.byte	0
 4177              	.LVUS7:
 4178 025f 00       		.uleb128 .LVU100
 4179 0260 00       		.uleb128 .LVU122
 4180              	.LLST7:
 4181 0261 08       		.byte	0x8
 4182 0262 18000000 		.4byte	.LVL14
 4183 0266 27       		.uleb128 .LVL18-1-.LVL14
 4184 0267 01       		.uleb128 0x1
 4185 0268 51       		.byte	0x51
 4186 0269 00       		.byte	0
 4187              	.LVUS9:
 4188 026a 01       		.uleb128 .LVU106
 4189 026b 01       		.uleb128 .LVU112
 4190              	.LLST9:
 4191 026c 08       		.byte	0x8
 4192 026d 24000000 		.4byte	.LVL16
 4193 0271 08       		.uleb128 .LVL17-.LVL16
 4194 0272 06       		.uleb128 0x6
 4195 0273 03       		.byte	0x3
 4196 0274 00000000 		.4byte	rlist
 4197 0278 9F       		.byte	0x9f
 4198 0279 00       		.byte	0
 4199              	.LVUS10:
 4200 027a 03       		.uleb128 .LVU108
 4201 027b 01       		.uleb128 .LVU112
 4202              	.LLST10:
 4203 027c 08       		.byte	0x8
 4204 027d 24000000 		.4byte	.LVL16
 4205 0281 08       		.uleb128 .LVL17-.LVL16
 4206 0282 01       		.uleb128 0x1
 4207 0283 50       		.byte	0x50
 4208 0284 00       		.byte	0
 4209              	.LVUS36:
 4210 0285 00       		.uleb128 .LVU314
 4211 0286 00       		.uleb128 .LVU359
 4212              	.LLST36:
 4213 0287 08       		.byte	0x8
 4214 0288 1C000000 		.4byte	.LVL52
ARM GAS  /tmp/ccZTzvT8.s 			page 75


 4215 028c 57       		.uleb128 .LVL58-1-.LVL52
 4216 028d 01       		.uleb128 0x1
 4217 028e 51       		.byte	0x51
 4218 028f 00       		.byte	0
 4219              	.LVUS38:
 4220 0290 01       		.uleb128 .LVU329
 4221 0291 01       		.uleb128 .LVU354
 4222              	.LLST38:
 4223 0292 08       		.byte	0x8
 4224 0293 34000000 		.4byte	.LVL54
 4225 0297 3C       		.uleb128 .LVL57-.LVL54
 4226 0298 01       		.uleb128 0x1
 4227 0299 51       		.byte	0x51
 4228 029a 00       		.byte	0
 4229              	.LVUS39:
 4230 029b 01       		.uleb128 .LVU339
 4231 029c 00       		.uleb128 .LVU340
 4232              	.LLST39:
 4233 029d 08       		.byte	0x8
 4234 029e 40000000 		.4byte	.LVL55
 4235 02a2 04       		.uleb128 .LVL56-.LVL55
 4236 02a3 06       		.uleb128 0x6
 4237 02a4 03       		.byte	0x3
 4238 02a5 00000000 		.4byte	rlist
 4239 02a9 9F       		.byte	0x9f
 4240 02aa 00       		.byte	0
 4241              	.LVUS41:
 4242 02ab 01       		.uleb128 .LVU315
 4243 02ac 01       		.uleb128 .LVU321
 4244              	.LLST41:
 4245 02ad 08       		.byte	0x8
 4246 02ae 1C000000 		.4byte	.LVL52
 4247 02b2 08       		.uleb128 .LVL53-.LVL52
 4248 02b3 06       		.uleb128 0x6
 4249 02b4 03       		.byte	0x3
 4250 02b5 00000000 		.4byte	rlist
 4251 02b9 9F       		.byte	0x9f
 4252 02ba 00       		.byte	0
 4253              	.LVUS42:
 4254 02bb 03       		.uleb128 .LVU317
 4255 02bc 01       		.uleb128 .LVU321
 4256              	.LLST42:
 4257 02bd 08       		.byte	0x8
 4258 02be 1C000000 		.4byte	.LVL52
 4259 02c2 08       		.uleb128 .LVL53-.LVL52
 4260 02c3 01       		.uleb128 0x1
 4261 02c4 50       		.byte	0x50
 4262 02c5 00       		.byte	0
 4263              	.Ldebug_loc3:
 4264              		.section	.debug_aranges,"",%progbits
 4265 0000 6C000000 		.4byte	0x6c
 4266 0004 0200     		.2byte	0x2
 4267 0006 00000000 		.4byte	.Ldebug_info0
 4268 000a 04       		.byte	0x4
 4269 000b 00       		.byte	0
 4270 000c 0000     		.2byte	0
 4271 000e 0000     		.2byte	0
ARM GAS  /tmp/ccZTzvT8.s 			page 76


 4272 0010 00000000 		.4byte	.LFB10
 4273 0014 B0000000 		.4byte	.LFE10-.LFB10
 4274 0018 00000000 		.4byte	.LFB7
 4275 001c 24000000 		.4byte	.LFE7-.LFB7
 4276 0020 00000000 		.4byte	.LFB8
 4277 0024 40000000 		.4byte	.LFE8-.LFB8
 4278 0028 00000000 		.4byte	.LFB9
 4279 002c 44000000 		.4byte	.LFE9-.LFB9
 4280 0030 00000000 		.4byte	.LFB11
 4281 0034 C4000000 		.4byte	.LFE11-.LFB11
 4282 0038 00000000 		.4byte	.LFB12
 4283 003c A0000000 		.4byte	.LFE12-.LFB12
 4284 0040 00000000 		.4byte	.LFB14
 4285 0044 44000000 		.4byte	.LFE14-.LFB14
 4286 0048 00000000 		.4byte	.LFB15
 4287 004c 78000000 		.4byte	.LFE15-.LFB15
 4288 0050 00000000 		.4byte	.LFB16
 4289 0054 70000000 		.4byte	.LFE16-.LFB16
 4290 0058 00000000 		.4byte	.LFB13
 4291 005c 24000000 		.4byte	.LFE13-.LFB13
 4292 0060 00000000 		.4byte	.LFB17
 4293 0064 84000000 		.4byte	.LFE17-.LFB17
 4294 0068 00000000 		.4byte	0
 4295 006c 00000000 		.4byte	0
 4296              		.section	.debug_rnglists,"",%progbits
 4297              	.Ldebug_ranges0:
 4298 0000 21010000 		.4byte	.Ldebug_ranges3-.Ldebug_ranges2
 4299              	.Ldebug_ranges2:
 4300 0004 0500     		.2byte	0x5
 4301 0006 04       		.byte	0x4
 4302 0007 00       		.byte	0
 4303 0008 00000000 		.4byte	0
 4304              	.LLRL2:
 4305 000c 05       		.byte	0x5
 4306 000d 6C000000 		.4byte	.LBB16
 4307 0011 04       		.byte	0x4
 4308 0012 00       		.uleb128 .LBB16-.LBB16
 4309 0013 0C       		.uleb128 .LBE16-.LBB16
 4310 0014 04       		.byte	0x4
 4311 0015 10       		.uleb128 .LBB19-.LBB16
 4312 0016 3C       		.uleb128 .LBE19-.LBB16
 4313 0017 00       		.byte	0
 4314              	.LLRL8:
 4315 0018 05       		.byte	0x5
 4316 0019 18000000 		.4byte	.LBB22
 4317 001d 04       		.byte	0x4
 4318 001e 00       		.uleb128 .LBB22-.LBB22
 4319 001f 04       		.uleb128 .LBE22-.LBB22
 4320 0020 04       		.byte	0x4
 4321 0021 0C       		.uleb128 .LBB26-.LBB22
 4322 0022 14       		.uleb128 .LBE26-.LBB22
 4323 0023 04       		.byte	0x4
 4324 0024 1C       		.uleb128 .LBB27-.LBB22
 4325 0025 20       		.uleb128 .LBE27-.LBB22
 4326 0026 00       		.byte	0
 4327              	.LLRL13:
 4328 0027 05       		.byte	0x5
ARM GAS  /tmp/ccZTzvT8.s 			page 77


 4329 0028 04000000 		.4byte	.LBB37
 4330 002c 04       		.byte	0x4
 4331 002d 00       		.uleb128 .LBB37-.LBB37
 4332 002e 04       		.uleb128 .LBE37-.LBB37
 4333 002f 04       		.byte	0x4
 4334 0030 0C       		.uleb128 .LBB46-.LBB37
 4335 0031 10       		.uleb128 .LBE46-.LBB37
 4336 0032 04       		.byte	0x4
 4337 0033 18       		.uleb128 .LBB47-.LBB37
 4338 0034 68       		.uleb128 .LBE47-.LBB37
 4339 0035 00       		.byte	0
 4340              	.LLRL16:
 4341 0036 05       		.byte	0x5
 4342 0037 34000000 		.4byte	.LBB40
 4343 003b 04       		.byte	0x4
 4344 003c 00       		.uleb128 .LBB40-.LBB40
 4345 003d 04       		.uleb128 .LBE40-.LBB40
 4346 003e 04       		.byte	0x4
 4347 003f 0C       		.uleb128 .LBB44-.LBB40
 4348 0040 14       		.uleb128 .LBE44-.LBB40
 4349 0041 04       		.byte	0x4
 4350 0042 18       		.uleb128 .LBB45-.LBB40
 4351 0043 1C       		.uleb128 .LBE45-.LBB40
 4352 0044 00       		.byte	0
 4353              	.LLRL21:
 4354 0045 05       		.byte	0x5
 4355 0046 84000000 		.4byte	.LBB50
 4356 004a 04       		.byte	0x4
 4357 004b 00       		.uleb128 .LBB50-.LBB50
 4358 004c 04       		.uleb128 .LBE50-.LBB50
 4359 004d 04       		.byte	0x4
 4360 004e 0C       		.uleb128 .LBB55-.LBB50
 4361 004f 0C       		.uleb128 .LBE55-.LBB50
 4362 0050 04       		.byte	0x4
 4363 0051 10       		.uleb128 .LBB56-.LBB50
 4364 0052 18       		.uleb128 .LBE56-.LBB50
 4365 0053 04       		.byte	0x4
 4366 0054 1C       		.uleb128 .LBB57-.LBB50
 4367 0055 20       		.uleb128 .LBE57-.LBB50
 4368 0056 00       		.byte	0
 4369              	.LLRL26:
 4370 0057 05       		.byte	0x5
 4371 0058 14000000 		.4byte	.LBB63
 4372 005c 04       		.byte	0x4
 4373 005d 00       		.uleb128 .LBB63-.LBB63
 4374 005e 04       		.uleb128 .LBE63-.LBB63
 4375 005f 04       		.byte	0x4
 4376 0060 0C       		.uleb128 .LBB67-.LBB63
 4377 0061 10       		.uleb128 .LBE67-.LBB63
 4378 0062 04       		.byte	0x4
 4379 0063 14       		.uleb128 .LBB68-.LBB63
 4380 0064 40       		.uleb128 .LBE68-.LBB63
 4381 0065 00       		.byte	0
 4382              	.LLRL29:
 4383 0066 05       		.byte	0x5
 4384 0067 58000000 		.4byte	.LBB69
 4385 006b 04       		.byte	0x4
ARM GAS  /tmp/ccZTzvT8.s 			page 78


 4386 006c 00       		.uleb128 .LBB69-.LBB69
 4387 006d 38       		.uleb128 .LBE69-.LBB69
 4388 006e 04       		.byte	0x4
 4389 006f 3C       		.uleb128 .LBB76-.LBB69
 4390 0070 48       		.uleb128 .LBE76-.LBB69
 4391 0071 00       		.byte	0
 4392              	.LLRL31:
 4393 0072 05       		.byte	0x5
 4394 0073 58000000 		.4byte	.LBB70
 4395 0077 04       		.byte	0x4
 4396 0078 00       		.uleb128 .LBB70-.LBB70
 4397 0079 14       		.uleb128 .LBE70-.LBB70
 4398 007a 04       		.byte	0x4
 4399 007b 18       		.uleb128 .LBB74-.LBB70
 4400 007c 2C       		.uleb128 .LBE74-.LBB70
 4401 007d 04       		.byte	0x4
 4402 007e 30       		.uleb128 .LBB75-.LBB70
 4403 007f 34       		.uleb128 .LBE75-.LBB70
 4404 0080 00       		.byte	0
 4405              	.LLRL37:
 4406 0081 05       		.byte	0x5
 4407 0082 0C000000 		.4byte	.LBB83
 4408 0086 04       		.byte	0x4
 4409 0087 00       		.uleb128 .LBB83-.LBB83
 4410 0088 04       		.uleb128 .LBE83-.LBB83
 4411 0089 04       		.byte	0x4
 4412 008a 28       		.uleb128 .LBB93-.LBB83
 4413 008b 48       		.uleb128 .LBE93-.LBB83
 4414 008c 04       		.byte	0x4
 4415 008d 4C       		.uleb128 .LBB94-.LBB83
 4416 008e 64       		.uleb128 .LBE94-.LBB83
 4417 008f 00       		.byte	0
 4418              	.LLRL40:
 4419 0090 05       		.byte	0x5
 4420 0091 14000000 		.4byte	.LBB87
 4421 0095 04       		.byte	0x4
 4422 0096 00       		.uleb128 .LBB87-.LBB87
 4423 0097 04       		.uleb128 .LBE87-.LBB87
 4424 0098 04       		.byte	0x4
 4425 0099 08       		.uleb128 .LBB91-.LBB87
 4426 009a 10       		.uleb128 .LBE91-.LBB87
 4427 009b 04       		.byte	0x4
 4428 009c 14       		.uleb128 .LBB92-.LBB87
 4429 009d 18       		.uleb128 .LBE92-.LBB87
 4430 009e 00       		.byte	0
 4431              	.LLRL45:
 4432 009f 05       		.byte	0x5
 4433 00a0 10000000 		.4byte	.LBB95
 4434 00a4 04       		.byte	0x4
 4435 00a5 00       		.uleb128 .LBB95-.LBB95
 4436 00a6 04       		.uleb128 .LBE95-.LBB95
 4437 00a7 04       		.byte	0x4
 4438 00a8 08       		.uleb128 .LBB100-.LBB95
 4439 00a9 0C       		.uleb128 .LBE100-.LBB95
 4440 00aa 04       		.byte	0x4
 4441 00ab 10       		.uleb128 .LBB101-.LBB95
 4442 00ac 14       		.uleb128 .LBE101-.LBB95
ARM GAS  /tmp/ccZTzvT8.s 			page 79


 4443 00ad 04       		.byte	0x4
 4444 00ae 18       		.uleb128 .LBB102-.LBB95
 4445 00af 1C       		.uleb128 .LBE102-.LBB95
 4446 00b0 00       		.byte	0
 4447              	.LLRL48:
 4448 00b1 05       		.byte	0x5
 4449 00b2 14000000 		.4byte	.LBB109
 4450 00b6 04       		.byte	0x4
 4451 00b7 00       		.uleb128 .LBB109-.LBB109
 4452 00b8 04       		.uleb128 .LBE109-.LBB109
 4453 00b9 04       		.byte	0x4
 4454 00ba 08       		.uleb128 .LBB125-.LBB109
 4455 00bb 5C       		.uleb128 .LBE125-.LBB109
 4456 00bc 04       		.byte	0x4
 4457 00bd 60       		.uleb128 .LBB126-.LBB109
 4458 00be 68       		.uleb128 .LBE126-.LBB109
 4459 00bf 00       		.byte	0
 4460              	.LLRL50:
 4461 00c0 05       		.byte	0x5
 4462 00c1 14000000 		.4byte	.LBB111
 4463 00c5 04       		.byte	0x4
 4464 00c6 00       		.uleb128 .LBB111-.LBB111
 4465 00c7 04       		.uleb128 .LBE111-.LBB111
 4466 00c8 04       		.byte	0x4
 4467 00c9 08       		.uleb128 .LBB115-.LBB111
 4468 00ca 0C       		.uleb128 .LBE115-.LBB111
 4469 00cb 04       		.byte	0x4
 4470 00cc 10       		.uleb128 .LBB116-.LBB111
 4471 00cd 18       		.uleb128 .LBE116-.LBB111
 4472 00ce 00       		.byte	0
 4473              	.LLRL53:
 4474 00cf 05       		.byte	0x5
 4475 00d0 38000000 		.4byte	.LBB117
 4476 00d4 04       		.byte	0x4
 4477 00d5 00       		.uleb128 .LBB117-.LBB117
 4478 00d6 0C       		.uleb128 .LBE117-.LBB117
 4479 00d7 04       		.byte	0x4
 4480 00d8 10       		.uleb128 .LBB121-.LBB117
 4481 00d9 38       		.uleb128 .LBE121-.LBB117
 4482 00da 04       		.byte	0x4
 4483 00db 3C       		.uleb128 .LBB122-.LBB117
 4484 00dc 40       		.uleb128 .LBE122-.LBB117
 4485 00dd 00       		.byte	0
 4486              	.LLRL56:
 4487 00de 07       		.byte	0x7
 4488 00df 00000000 		.4byte	.LFB10
 4489 00e3 B001     		.uleb128 .LFE10-.LFB10
 4490 00e5 07       		.byte	0x7
 4491 00e6 00000000 		.4byte	.LFB7
 4492 00ea 24       		.uleb128 .LFE7-.LFB7
 4493 00eb 07       		.byte	0x7
 4494 00ec 00000000 		.4byte	.LFB8
 4495 00f0 40       		.uleb128 .LFE8-.LFB8
 4496 00f1 07       		.byte	0x7
 4497 00f2 00000000 		.4byte	.LFB9
 4498 00f6 44       		.uleb128 .LFE9-.LFB9
 4499 00f7 07       		.byte	0x7
ARM GAS  /tmp/ccZTzvT8.s 			page 80


 4500 00f8 00000000 		.4byte	.LFB11
 4501 00fc C401     		.uleb128 .LFE11-.LFB11
 4502 00fe 07       		.byte	0x7
 4503 00ff 00000000 		.4byte	.LFB12
 4504 0103 A001     		.uleb128 .LFE12-.LFB12
 4505 0105 07       		.byte	0x7
 4506 0106 00000000 		.4byte	.LFB14
 4507 010a 44       		.uleb128 .LFE14-.LFB14
 4508 010b 07       		.byte	0x7
 4509 010c 00000000 		.4byte	.LFB15
 4510 0110 78       		.uleb128 .LFE15-.LFB15
 4511 0111 07       		.byte	0x7
 4512 0112 00000000 		.4byte	.LFB16
 4513 0116 70       		.uleb128 .LFE16-.LFB16
 4514 0117 07       		.byte	0x7
 4515 0118 00000000 		.4byte	.LFB13
 4516 011c 24       		.uleb128 .LFE13-.LFB13
 4517 011d 07       		.byte	0x7
 4518 011e 00000000 		.4byte	.LFB17
 4519 0122 8401     		.uleb128 .LFE17-.LFB17
 4520 0124 00       		.byte	0
 4521              	.Ldebug_ranges3:
 4522              		.section	.debug_line,"",%progbits
 4523              	.Ldebug_line0:
 4524 0000 B7080000 		.section	.debug_str,"MS",%progbits,1
 4524      03003401 
 4524      00000201 
 4524      FB0E0D00 
 4524      01010101 
 4525              	.LASF40:
 4526 0000 705F6D73 		.ascii	"p_msg\000"
 4526      6700
 4527              	.LASF70:
 4528 0006 7264796D 		.ascii	"rdymsg\000"
 4528      736700
 4529              	.LASF79:
 4530 000d 63685363 		.ascii	"chSchDoRescheduleAhead\000"
 4530      68446F52 
 4530      65736368 
 4530      6564756C 
 4530      65416865 
 4531              	.LASF5:
 4532 0024 5F5F7569 		.ascii	"__uint8_t\000"
 4532      6E74385F 
 4532      7400
 4533              	.LASF11:
 4534 002e 6C6F6E67 		.ascii	"long long unsigned int\000"
 4534      206C6F6E 
 4534      6720756E 
 4534      7369676E 
 4534      65642069 
 4535              	.LASF71:
 4536 0045 65786974 		.ascii	"exitcode\000"
 4536      636F6465 
 4536      00
 4537              	.LASF28:
 4538 004e 705F7072 		.ascii	"p_prio\000"
ARM GAS  /tmp/ccZTzvT8.s 			page 81


 4538      696F00
 4539              	.LASF96:
 4540 0055 5F736368 		.ascii	"_scheduler_init\000"
 4540      6564756C 
 4540      65725F69 
 4540      6E697400 
 4541              	.LASF10:
 4542 0065 6C6F6E67 		.ascii	"long long int\000"
 4542      206C6F6E 
 4542      6720696E 
 4542      7400
 4543              	.LASF1:
 4544 0073 7369676E 		.ascii	"signed char\000"
 4544      65642063 
 4544      68617200 
 4545              	.LASF15:
 4546 007f 626F6F6C 		.ascii	"bool_t\000"
 4546      5F7400
 4547              	.LASF67:
 4548 0086 6D5F7175 		.ascii	"m_queue\000"
 4548      65756500 
 4549              	.LASF19:
 4550 008e 74736C69 		.ascii	"tslices_t\000"
 4550      6365735F 
 4550      7400
 4551              	.LASF7:
 4552 0098 6C6F6E67 		.ascii	"long int\000"
 4552      20696E74 
 4552      00
 4553              	.LASF17:
 4554 00a1 74737461 		.ascii	"tstate_t\000"
 4554      74655F74 
 4554      00
 4555              	.LASF84:
 4556 00aa 63685363 		.ascii	"chSchIsPreemptionRequired\000"
 4556      68497350 
 4556      7265656D 
 4556      7074696F 
 4556      6E526571 
 4557              	.LASF30:
 4558 00c4 705F6E65 		.ascii	"p_newer\000"
 4558      77657200 
 4559              	.LASF64:
 4560 00cc 735F7175 		.ascii	"s_queue\000"
 4560      65756500 
 4561              	.LASF82:
 4562 00d4 63685363 		.ascii	"chSchRescheduleS\000"
 4562      68526573 
 4562      63686564 
 4562      756C6553 
 4562      00
 4563              	.LASF8:
 4564 00e5 5F5F7569 		.ascii	"__uint32_t\000"
 4564      6E743332 
 4564      5F7400
 4565              	.LASF46:
 4566 00f0 72656761 		.ascii	"regarm_t\000"
ARM GAS  /tmp/ccZTzvT8.s 			page 82


 4566      726D5F74 
 4566      00
 4567              	.LASF52:
 4568 00f9 76745F70 		.ascii	"vt_prev\000"
 4568      72657600 
 4569              	.LASF78:
 4570 0101 63685363 		.ascii	"chSchDoReschedule\000"
 4570      68446F52 
 4570      65736368 
 4570      6564756C 
 4570      6500
 4571              	.LASF24:
 4572 0113 636E745F 		.ascii	"cnt_t\000"
 4572      7400
 4573              	.LASF0:
 4574 0119 756E7369 		.ascii	"unsigned int\000"
 4574      676E6564 
 4574      20696E74 
 4574      00
 4575              	.LASF94:
 4576 0126 77616B65 		.ascii	"wakeup\000"
 4576      757000
 4577              	.LASF51:
 4578 012d 76745F6E 		.ascii	"vt_next\000"
 4578      65787400 
 4579              	.LASF77:
 4580 0135 5F706F72 		.ascii	"_port_switch_arm\000"
 4580      745F7377 
 4580      69746368 
 4580      5F61726D 
 4580      00
 4581              	.LASF9:
 4582 0146 6C6F6E67 		.ascii	"long unsigned int\000"
 4582      20756E73 
 4582      69676E65 
 4582      6420696E 
 4582      7400
 4583              	.LASF49:
 4584 0158 76746675 		.ascii	"vtfunc_t\000"
 4584      6E635F74 
 4584      00
 4585              	.LASF65:
 4586 0161 735F636E 		.ascii	"s_cnt\000"
 4586      7400
 4587              	.LASF48:
 4588 0167 636F6E74 		.ascii	"context\000"
 4588      65787400 
 4589              	.LASF4:
 4590 016f 73686F72 		.ascii	"short unsigned int\000"
 4590      7420756E 
 4590      7369676E 
 4590      65642069 
 4590      6E7400
 4591              	.LASF83:
 4592 0182 63685363 		.ascii	"chSchWakeupS\000"
 4592      6857616B 
 4592      65757053 
ARM GAS  /tmp/ccZTzvT8.s 			page 83


 4592      00
 4593              	.LASF21:
 4594 018f 6D73675F 		.ascii	"msg_t\000"
 4594      7400
 4595              	.LASF59:
 4596 0195 725F6E65 		.ascii	"r_newer\000"
 4596      77657200 
 4597              	.LASF16:
 4598 019d 746D6F64 		.ascii	"tmode_t\000"
 4598      655F7400 
 4599              	.LASF45:
 4600 01a5 54687265 		.ascii	"ThreadsList\000"
 4600      6164734C 
 4600      69737400 
 4601              	.LASF22:
 4602 01b1 6576656E 		.ascii	"eventmask_t\000"
 4602      746D6173 
 4602      6B5F7400 
 4603              	.LASF66:
 4604 01bd 4D757465 		.ascii	"Mutex\000"
 4604      7800
 4605              	.LASF53:
 4606 01c3 76745F74 		.ascii	"vt_time\000"
 4606      696D6500 
 4607              	.LASF91:
 4608 01cb 474E5520 		.ascii	"GNU C17 11.2.0 -mcpu=arm1176jz-s -mno-thumb-interwo"
 4608      43313720 
 4608      31312E32 
 4608      2E30202D 
 4608      6D637075 
 4609 01fe 726B202D 		.ascii	"rk -mfloat-abi=soft -marm -march=armv6kz -ggdb -O2 "
 4609      6D666C6F 
 4609      61742D61 
 4609      62693D73 
 4609      6F667420 
 4610 0231 2D666F6D 		.ascii	"-fomit-frame-pointer -ffunction-sections -fdata-sec"
 4610      69742D66 
 4610      72616D65 
 4610      2D706F69 
 4610      6E746572 
 4611 0264 74696F6E 		.ascii	"tions\000"
 4611      7300
 4612              	.LASF54:
 4613 026a 76745F66 		.ascii	"vt_func\000"
 4613      756E6300 
 4614              	.LASF89:
 4615 0272 64657175 		.ascii	"dequeue\000"
 4615      65756500 
 4616              	.LASF81:
 4617 027a 63685363 		.ascii	"chSchDoRescheduleBehind\000"
 4617      68446F52 
 4617      65736368 
 4617      6564756C 
 4617      65426568 
 4618              	.LASF93:
 4619 0292 2F686F6D 		.ascii	"/home/sergi/uni/seu/ChibiOS-RPi/demos/led\000"
 4619      652F7365 
ARM GAS  /tmp/ccZTzvT8.s 			page 84


 4619      7267692F 
 4619      756E692F 
 4619      7365752F 
 4620              	.LASF76:
 4621 02bc 63685654 		.ascii	"chVTSetI\000"
 4621      53657449 
 4621      00
 4622              	.LASF31:
 4623 02c5 705F6F6C 		.ascii	"p_older\000"
 4623      64657200 
 4624              	.LASF58:
 4625 02cd 725F6374 		.ascii	"r_ctx\000"
 4625      7800
 4626              	.LASF44:
 4627 02d3 54687265 		.ascii	"ThreadsQueue\000"
 4627      61647351 
 4627      75657565 
 4627      00
 4628              	.LASF87:
 4629 02e0 74696D65 		.ascii	"time\000"
 4629      00
 4630              	.LASF61:
 4631 02e5 725F6375 		.ascii	"r_current\000"
 4631      7272656E 
 4631      7400
 4632              	.LASF60:
 4633 02ef 725F6F6C 		.ascii	"r_older\000"
 4633      64657200 
 4634              	.LASF18:
 4635 02f7 74726566 		.ascii	"trefs_t\000"
 4635      735F7400 
 4636              	.LASF27:
 4637 02ff 705F7072 		.ascii	"p_prev\000"
 4637      657600
 4638              	.LASF20:
 4639 0306 74707269 		.ascii	"tprio_t\000"
 4639      6F5F7400 
 4640              	.LASF13:
 4641 030e 696E7433 		.ascii	"int32_t\000"
 4641      325F7400 
 4642              	.LASF2:
 4643 0316 756E7369 		.ascii	"unsigned char\000"
 4643      676E6564 
 4643      20636861 
 4643      7200
 4644              	.LASF86:
 4645 0324 6E657773 		.ascii	"newstate\000"
 4645      74617465 
 4645      00
 4646              	.LASF42:
 4647 032d 705F6D74 		.ascii	"p_mtxlist\000"
 4647      786C6973 
 4647      7400
 4648              	.LASF3:
 4649 0337 73686F72 		.ascii	"short int\000"
 4649      7420696E 
 4649      7400
ARM GAS  /tmp/ccZTzvT8.s 			page 85


 4650              	.LASF33:
 4651 0341 705F7374 		.ascii	"p_state\000"
 4651      61746500 
 4652              	.LASF36:
 4653 0349 705F7072 		.ascii	"p_preempt\000"
 4653      65656D70 
 4653      7400
 4654              	.LASF57:
 4655 0353 725F7072 		.ascii	"r_prio\000"
 4655      696F00
 4656              	.LASF73:
 4657 035a 65776D61 		.ascii	"ewmask\000"
 4657      736B00
 4658              	.LASF26:
 4659 0361 705F6E65 		.ascii	"p_next\000"
 4659      787400
 4660              	.LASF34:
 4661 0368 705F666C 		.ascii	"p_flags\000"
 4661      61677300 
 4662              	.LASF25:
 4663 0370 54687265 		.ascii	"Thread\000"
 4663      616400
 4664              	.LASF75:
 4665 0377 63685654 		.ascii	"chVTResetI\000"
 4665      52657365 
 4665      744900
 4666              	.LASF88:
 4667 0382 63685363 		.ascii	"chSchGoSleepS\000"
 4667      68476F53 
 4667      6C656570 
 4667      5300
 4668              	.LASF41:
 4669 0390 705F6570 		.ascii	"p_epending\000"
 4669      656E6469 
 4669      6E6700
 4670              	.LASF14:
 4671 039b 75696E74 		.ascii	"uint32_t\000"
 4671      33325F74 
 4671      00
 4672              	.LASF56:
 4673 03a4 725F7175 		.ascii	"r_queue\000"
 4673      65756500 
 4674              	.LASF50:
 4675 03ac 56697274 		.ascii	"VirtualTimer\000"
 4675      75616C54 
 4675      696D6572 
 4675      00
 4676              	.LASF74:
 4677 03b9 63686172 		.ascii	"char\000"
 4677      00
 4678              	.LASF90:
 4679 03be 6669666F 		.ascii	"fifo_remove\000"
 4679      5F72656D 
 4679      6F766500 
 4680              	.LASF95:
 4681 03ca 63685363 		.ascii	"chSchReadyI\000"
 4681      68526561 
ARM GAS  /tmp/ccZTzvT8.s 			page 86


 4681      64794900 
 4682              	.LASF69:
 4683 03d6 6D5F6E65 		.ascii	"m_next\000"
 4683      787400
 4684              	.LASF23:
 4685 03dd 73797374 		.ascii	"systime_t\000"
 4685      696D655F 
 4685      7400
 4686              	.LASF43:
 4687 03e7 705F7265 		.ascii	"p_realprio\000"
 4687      616C7072 
 4687      696F00
 4688              	.LASF6:
 4689 03f2 5F5F696E 		.ascii	"__int32_t\000"
 4689      7433325F 
 4689      7400
 4690              	.LASF37:
 4691 03fc 705F7469 		.ascii	"p_time\000"
 4691      6D6500
 4692              	.LASF47:
 4693 0403 696E7463 		.ascii	"intctx\000"
 4693      747800
 4694              	.LASF39:
 4695 040a 705F6D73 		.ascii	"p_msgqueue\000"
 4695      67717565 
 4695      756500
 4696              	.LASF55:
 4697 0415 76745F70 		.ascii	"vt_par\000"
 4697      617200
 4698              	.LASF63:
 4699 041c 53656D61 		.ascii	"Semaphore\000"
 4699      70686F72 
 4699      6500
 4700              	.LASF35:
 4701 0426 705F7265 		.ascii	"p_refs\000"
 4701      667300
 4702              	.LASF62:
 4703 042d 52656164 		.ascii	"ReadyList\000"
 4703      794C6973 
 4703      7400
 4704              	.LASF92:
 4705 0437 2E2E2F2E 		.ascii	"../../os/kernel/src/chschd.c\000"
 4705      2E2F6F73 
 4705      2F6B6572 
 4705      6E656C2F 
 4705      7372632F 
 4706              	.LASF80:
 4707 0454 726C6973 		.ascii	"rlist\000"
 4707      7400
 4708              	.LASF12:
 4709 045a 75696E74 		.ascii	"uint8_t\000"
 4709      385F7400 
 4710              	.LASF72:
 4711 0462 77746F62 		.ascii	"wtobjp\000"
 4711      6A7000
 4712              	.LASF32:
 4713 0469 705F6E61 		.ascii	"p_name\000"
ARM GAS  /tmp/ccZTzvT8.s 			page 87


 4713      6D6500
 4714              	.LASF85:
 4715 0470 63685363 		.ascii	"chSchGoSleepTimeoutS\000"
 4715      68476F53 
 4715      6C656570 
 4715      54696D65 
 4715      6F757453 
 4716              	.LASF68:
 4717 0485 6D5F6F77 		.ascii	"m_owner\000"
 4717      6E657200 
 4718              	.LASF29:
 4719 048d 705F6374 		.ascii	"p_ctx\000"
 4719      7800
 4720              	.LASF38:
 4721 0493 705F7761 		.ascii	"p_waiting\000"
 4721      6974696E 
 4721      6700
 4722              		.ident	"GCC: (Arch Repository) 11.2.0"
ARM GAS  /tmp/ccZTzvT8.s 			page 88


DEFINED SYMBOLS
                            *ABS*:0000000000000000 chschd.c
     /tmp/ccZTzvT8.s:16     .text.wakeup:0000000000000000 $a
     /tmp/ccZTzvT8.s:22     .text.wakeup:0000000000000000 wakeup
     /tmp/ccZTzvT8.s:41     .text.wakeup:0000000000000010 $d
     /tmp/ccZTzvT8.s:57     .text.wakeup:0000000000000048 $a
     /tmp/ccZTzvT8.s:156    .text.wakeup:00000000000000ac $d
     /tmp/ccZTzvT8.s:161    .text._scheduler_init:0000000000000000 $a
     /tmp/ccZTzvT8.s:167    .text._scheduler_init:0000000000000000 _scheduler_init
     /tmp/ccZTzvT8.s:195    .text._scheduler_init:0000000000000020 $d
     /tmp/ccZTzvT8.s:200    .text.chSchReadyI:0000000000000000 $a
     /tmp/ccZTzvT8.s:206    .text.chSchReadyI:0000000000000000 chSchReadyI
     /tmp/ccZTzvT8.s:263    .text.chSchReadyI:000000000000003c $d
     /tmp/ccZTzvT8.s:268    .text.chSchGoSleepS:0000000000000000 $a
     /tmp/ccZTzvT8.s:274    .text.chSchGoSleepS:0000000000000000 chSchGoSleepS
     /tmp/ccZTzvT8.s:354    .text.chSchGoSleepS:0000000000000040 $d
     /tmp/ccZTzvT8.s:359    .text.chSchGoSleepTimeoutS:0000000000000000 $a
     /tmp/ccZTzvT8.s:365    .text.chSchGoSleepTimeoutS:0000000000000000 chSchGoSleepTimeoutS
     /tmp/ccZTzvT8.s:578    .text.chSchGoSleepTimeoutS:00000000000000bc $d
     /tmp/ccZTzvT8.s:584    .text.chSchWakeupS:0000000000000000 $a
     /tmp/ccZTzvT8.s:590    .text.chSchWakeupS:0000000000000000 chSchWakeupS
     /tmp/ccZTzvT8.s:768    .text.chSchWakeupS:000000000000009c $d
     /tmp/ccZTzvT8.s:774    .text.chSchIsPreemptionRequired:0000000000000000 $a
     /tmp/ccZTzvT8.s:780    .text.chSchIsPreemptionRequired:0000000000000000 chSchIsPreemptionRequired
     /tmp/ccZTzvT8.s:828    .text.chSchIsPreemptionRequired:0000000000000040 $d
     /tmp/ccZTzvT8.s:833    .text.chSchDoRescheduleBehind:0000000000000000 $a
     /tmp/ccZTzvT8.s:839    .text.chSchDoRescheduleBehind:0000000000000000 chSchDoRescheduleBehind
     /tmp/ccZTzvT8.s:973    .text.chSchDoRescheduleBehind:0000000000000074 $d
     /tmp/ccZTzvT8.s:978    .text.chSchDoRescheduleAhead:0000000000000000 $a
     /tmp/ccZTzvT8.s:984    .text.chSchDoRescheduleAhead:0000000000000000 chSchDoRescheduleAhead
     /tmp/ccZTzvT8.s:1094   .text.chSchDoRescheduleAhead:000000000000006c $d
     /tmp/ccZTzvT8.s:1099   .text.chSchRescheduleS:0000000000000000 $a
     /tmp/ccZTzvT8.s:1105   .text.chSchRescheduleS:0000000000000000 chSchRescheduleS
     /tmp/ccZTzvT8.s:1130   .text.chSchRescheduleS:0000000000000020 $d
     /tmp/ccZTzvT8.s:1135   .text.chSchDoReschedule:0000000000000000 $a
     /tmp/ccZTzvT8.s:1141   .text.chSchDoReschedule:0000000000000000 chSchDoReschedule
     /tmp/ccZTzvT8.s:1293   .text.chSchDoReschedule:0000000000000080 $d
     /tmp/ccZTzvT8.s:1303   .bss.rlist:0000000000000000 rlist
     /tmp/ccZTzvT8.s:1299   .bss.rlist:0000000000000000 $d

UNDEFINED SYMBOLS
_port_switch_arm
chVTSetI
chVTResetI
