ARM GAS  /tmp/ccZTzvT8.s 			page 1


   1              		.cpu arm1176jz-s
   2              		.eabi_attribute 20, 1
   3              		.eabi_attribute 21, 1
   4              		.eabi_attribute 23, 3
   5              		.eabi_attribute 24, 1
   6              		.eabi_attribute 25, 1
   7              		.eabi_attribute 26, 1
   8              		.eabi_attribute 30, 2
   9              		.eabi_attribute 34, 1
  10              		.eabi_attribute 18, 4
  11              		.file	"chschd.c"
  12              		.text
  13              	.Ltext0:
  14              		.cfi_sections	.debug_frame
  15              		.section	.text.wakeup,"ax",%progbits
  16              		.align	2
  17              		.arch armv6kz
  18              		.syntax unified
  19              		.arm
  20              		.fpu softvfp
  21              		.type	wakeup, %function
  22              	wakeup:
  23              	.LVL0:
  24              	.LFB10:
  25              		.file 1 "../../os/kernel/src/chschd.c"
  26              		.loc 1 129 29 view -0
  27              		.cfi_startproc
  28              		@ args = 0, pretend = 0, frame = 0
  29              		@ frame_needed = 0, uses_anonymous_args = 0
  30              		@ link register save eliminated.
  31              		.loc 1 130 3 view .LVU1
  32              		.loc 1 132 3 view .LVU2
  33              		.loc 1 132 3 view .LVU3
  34              		.loc 1 132 21 view .LVU4
  35              		.loc 1 133 3 view .LVU5
  36 0000 1C30D0E5 		ldrb	r3, [r0, #28]	@ zero_extendqisi2
  37 0004 0D0053E3 		cmp	r3, #13
  38 0008 03F19F97 		ldrls	pc, [pc, r3, asl #2]
  39 000c 150000EA 		b	.L2
  40              	.L4:
  41 0010 A8000000 		.word	.L1
  42 0014 68000000 		.word	.L2
  43 0018 68000000 		.word	.L2
  44 001c 48000000 		.word	.L5
  45 0020 68000000 		.word	.L2
  46 0024 58000000 		.word	.L3
  47 0028 68000000 		.word	.L2
  48 002c 68000000 		.word	.L2
  49 0030 68000000 		.word	.L2
  50 0034 68000000 		.word	.L2
  51 0038 68000000 		.word	.L2
  52 003c 68000000 		.word	.L2
  53 0040 68000000 		.word	.L2
  54 0044 58000000 		.word	.L3
  55              	.L5:
  56              		.loc 1 143 5 view .LVU6
  57 0048 242090E5 		ldr	r2, [r0, #36]
ARM GAS  /tmp/ccZTzvT8.s 			page 2


  58 004c 083092E5 		ldr	r3, [r2, #8]
  59 0050 013083E2 		add	r3, r3, #1
  60 0054 083082E5 		str	r3, [r2, #8]
  61              	.L3:
  62              		.loc 1 153 5 view .LVU7
  63              	.LVL1:
  64              	.LBB14:
  65              	.LBI14:
  66              		.file 2 "../../os/kernel/include/chinline.h"
  67              		.loc 2 66 23 view .LVU8
  68              	.LBB15:
  69              		.loc 2 68 3 view .LVU9
  70              		.loc 2 68 5 is_stmt 0 view .LVU10
  71 0058 042090E5 		ldr	r2, [r0, #4]
  72              		.loc 2 68 26 view .LVU11
  73 005c 003090E5 		ldr	r3, [r0]
  74              		.loc 2 68 22 view .LVU12
  75 0060 003082E5 		str	r3, [r2]
  76              		.loc 2 69 3 is_stmt 1 view .LVU13
  77              		.loc 2 69 22 is_stmt 0 view .LVU14
  78 0064 042083E5 		str	r2, [r3, #4]
  79              		.loc 2 70 3 is_stmt 1 view .LVU15
  80              	.LVL2:
  81              	.L2:
  82              		.loc 2 70 3 is_stmt 0 view .LVU16
  83              	.LBE15:
  84              	.LBE14:
  85              		.loc 1 156 3 is_stmt 1 view .LVU17
  86              		.loc 1 156 18 is_stmt 0 view .LVU18
  87 0068 00C0E0E3 		mvn	ip, #0
  88              	.LBB16:
  89              	.LBB17:
  90              		.loc 1 85 15 view .LVU19
  91 006c 0020A0E3 		mov	r2, #0
  92              		.loc 1 89 28 view .LVU20
  93 0070 081090E5 		ldr	r1, [r0, #8]
  94              		.loc 1 86 6 view .LVU21
  95 0074 30309FE5 		ldr	r3, .L10
  96              	.LBE17:
  97              	.LBE16:
  98              		.loc 1 156 18 view .LVU22
  99 0078 24C080E5 		str	ip, [r0, #36]
 100              		.loc 1 157 3 is_stmt 1 view .LVU23
 101              	.LVL3:
 102              	.LBB19:
 103              	.LBI16:
 104              		.loc 1 74 9 view .LVU24
 105              	.LBB18:
 106              		.loc 1 75 3 view .LVU25
 107              		.loc 1 77 3 view .LVU26
 108              		.loc 1 77 21 view .LVU27
 109              		.loc 1 80 3 view .LVU28
 110              		.loc 1 83 31 view .LVU29
 111              		.loc 1 85 3 view .LVU30
 112              		.loc 1 85 15 is_stmt 0 view .LVU31
 113 007c 1C20C0E5 		strb	r2, [r0, #28]
 114              		.loc 1 86 3 is_stmt 1 view .LVU32
ARM GAS  /tmp/ccZTzvT8.s 			page 3


 115              	.LVL4:
 116              	.L7:
 117              		.loc 1 87 3 view .LVU33
 118              		.loc 1 88 5 view .LVU34
 119              		.loc 1 88 8 is_stmt 0 view .LVU35
 120 0080 003093E5 		ldr	r3, [r3]
 121              	.LVL5:
 122              		.loc 1 89 23 is_stmt 1 view .LVU36
 123 0084 082093E5 		ldr	r2, [r3, #8]
 124 0088 010052E1 		cmp	r2, r1
 125 008c FBFFFF2A 		bcs	.L7
 126              		.loc 1 91 3 view .LVU37
 127              		.loc 1 92 18 is_stmt 0 view .LVU38
 128 0090 042093E5 		ldr	r2, [r3, #4]
 129              		.loc 1 91 14 view .LVU39
 130 0094 003080E5 		str	r3, [r0]
 131              		.loc 1 92 3 is_stmt 1 view .LVU40
 132              		.loc 1 92 14 is_stmt 0 view .LVU41
 133 0098 042080E5 		str	r2, [r0, #4]
 134              		.loc 1 93 3 is_stmt 1 view .LVU42
 135              		.loc 1 93 35 is_stmt 0 view .LVU43
 136 009c 040083E5 		str	r0, [r3, #4]
 137              		.loc 1 93 22 view .LVU44
 138 00a0 043090E5 		ldr	r3, [r0, #4]
 139              	.LVL6:
 140              		.loc 1 93 22 view .LVU45
 141 00a4 000083E5 		str	r0, [r3]
 142              	.LVL7:
 143              		.loc 1 94 3 is_stmt 1 view .LVU46
 144              		.loc 1 94 3 is_stmt 0 view .LVU47
 145              	.LBE18:
 146              	.LBE19:
 147              		.loc 1 158 3 is_stmt 1 view .LVU48
 148              		.loc 1 158 3 view .LVU49
 149              		.loc 1 158 23 view .LVU50
 150              	.L1:
 151              		.loc 1 159 1 is_stmt 0 view .LVU51
 152 00a8 1EFF2FE1 		bx	lr
 153              	.L11:
 154              		.align	2
 155              	.L10:
 156 00ac 00000000 		.word	.LANCHOR0
 157              		.cfi_endproc
 158              	.LFE10:
 159              		.size	wakeup, .-wakeup
 160              		.section	.text._scheduler_init,"ax",%progbits
 161              		.align	2
 162              		.global	_scheduler_init
 163              		.syntax unified
 164              		.arm
 165              		.fpu softvfp
 166              		.type	_scheduler_init, %function
 167              	_scheduler_init:
 168              	.LFB7:
 169              		.loc 1 48 28 is_stmt 1 view -0
 170              		.cfi_startproc
 171              		@ args = 0, pretend = 0, frame = 0
ARM GAS  /tmp/ccZTzvT8.s 			page 4


 172              		@ frame_needed = 0, uses_anonymous_args = 0
 173              		@ link register save eliminated.
 174              		.loc 1 50 3 view .LVU53
 175              		.loc 1 51 16 is_stmt 0 view .LVU54
 176 0000 0020A0E3 		mov	r2, #0
 177              		.loc 1 50 3 view .LVU55
 178 0004 14309FE5 		ldr	r3, .L13
 179 0008 043083E5 		str	r3, [r3, #4]
 180 000c 003083E5 		str	r3, [r3]
 181              		.loc 1 50 29 is_stmt 1 view .LVU56
 182              		.loc 1 51 3 view .LVU57
 183              		.loc 1 53 33 is_stmt 0 view .LVU58
 184 0010 143083E5 		str	r3, [r3, #20]
 185              		.loc 1 53 17 view .LVU59
 186 0014 103083E5 		str	r3, [r3, #16]
 187              		.loc 1 51 16 view .LVU60
 188 0018 082083E5 		str	r2, [r3, #8]
 189              		.loc 1 53 3 is_stmt 1 view .LVU61
 190              		.loc 1 55 1 is_stmt 0 view .LVU62
 191 001c 1EFF2FE1 		bx	lr
 192              	.L14:
 193              		.align	2
 194              	.L13:
 195 0020 00000000 		.word	.LANCHOR0
 196              		.cfi_endproc
 197              	.LFE7:
 198              		.size	_scheduler_init, .-_scheduler_init
 199              		.section	.text.chSchReadyI,"ax",%progbits
 200              		.align	2
 201              		.global	chSchReadyI
 202              		.syntax unified
 203              		.arm
 204              		.fpu softvfp
 205              		.type	chSchReadyI, %function
 206              	chSchReadyI:
 207              	.LVL8:
 208              	.LFB8:
 209              		.loc 1 74 33 is_stmt 1 view -0
 210              		.cfi_startproc
 211              		@ args = 0, pretend = 0, frame = 0
 212              		@ frame_needed = 0, uses_anonymous_args = 0
 213              		@ link register save eliminated.
 214              		.loc 1 75 3 view .LVU64
 215              		.loc 1 77 3 view .LVU65
 216              		.loc 1 77 21 view .LVU66
 217              		.loc 1 80 3 view .LVU67
 218              		.loc 1 83 31 view .LVU68
 219              		.loc 1 85 3 view .LVU69
 220              		.loc 1 85 15 is_stmt 0 view .LVU70
 221 0000 0020A0E3 		mov	r2, #0
 222              		.loc 1 86 6 view .LVU71
 223 0004 30309FE5 		ldr	r3, .L18
 224              		.loc 1 89 28 view .LVU72
 225 0008 081090E5 		ldr	r1, [r0, #8]
 226              		.loc 1 85 15 view .LVU73
 227 000c 1C20C0E5 		strb	r2, [r0, #28]
 228              		.loc 1 86 3 is_stmt 1 view .LVU74
ARM GAS  /tmp/ccZTzvT8.s 			page 5


 229              	.LVL9:
 230              	.L16:
 231              		.loc 1 87 3 discriminator 1 view .LVU75
 232              		.loc 1 88 5 discriminator 1 view .LVU76
 233              		.loc 1 88 8 is_stmt 0 discriminator 1 view .LVU77
 234 0010 003093E5 		ldr	r3, [r3]
 235              	.LVL10:
 236              		.loc 1 89 23 is_stmt 1 discriminator 1 view .LVU78
 237 0014 082093E5 		ldr	r2, [r3, #8]
 238 0018 010052E1 		cmp	r2, r1
 239 001c FBFFFF2A 		bcs	.L16
 240              		.loc 1 91 3 view .LVU79
 241              		.loc 1 92 18 is_stmt 0 view .LVU80
 242 0020 042093E5 		ldr	r2, [r3, #4]
 243              		.loc 1 91 14 view .LVU81
 244 0024 003080E5 		str	r3, [r0]
 245              		.loc 1 92 3 is_stmt 1 view .LVU82
 246              		.loc 1 92 14 is_stmt 0 view .LVU83
 247 0028 042080E5 		str	r2, [r0, #4]
 248              		.loc 1 93 3 is_stmt 1 view .LVU84
 249              		.loc 1 93 35 is_stmt 0 view .LVU85
 250 002c 040083E5 		str	r0, [r3, #4]
 251              		.loc 1 93 22 view .LVU86
 252 0030 043090E5 		ldr	r3, [r0, #4]
 253              	.LVL11:
 254              		.loc 1 93 22 view .LVU87
 255 0034 000083E5 		str	r0, [r3]
 256              	.LVL12:
 257              		.loc 1 94 3 is_stmt 1 view .LVU88
 258              		.loc 1 95 1 is_stmt 0 view .LVU89
 259 0038 1EFF2FE1 		bx	lr
 260              	.L19:
 261              		.align	2
 262              	.L18:
 263 003c 00000000 		.word	.LANCHOR0
 264              		.cfi_endproc
 265              	.LFE8:
 266              		.size	chSchReadyI, .-chSchReadyI
 267              		.section	.text.chSchGoSleepS,"ax",%progbits
 268              		.align	2
 269              		.global	chSchGoSleepS
 270              		.syntax unified
 271              		.arm
 272              		.fpu softvfp
 273              		.type	chSchGoSleepS, %function
 274              	chSchGoSleepS:
 275              	.LVL13:
 276              	.LFB9:
 277              		.loc 1 108 39 is_stmt 1 view -0
 278              		.cfi_startproc
 279              		@ args = 0, pretend = 0, frame = 0
 280              		@ frame_needed = 0, uses_anonymous_args = 0
 281              		.loc 1 109 3 view .LVU91
 282              		.loc 1 111 3 view .LVU92
 283              		.loc 1 111 21 view .LVU93
 284              		.loc 1 113 3 view .LVU94
 285              		.loc 1 108 39 is_stmt 0 view .LVU95
ARM GAS  /tmp/ccZTzvT8.s 			page 6


 286 0000 04E02DE5 		str	lr, [sp, #-4]!
 287              		.cfi_def_cfa_offset 4
 288              		.cfi_offset 14, -4
 289              		.loc 1 117 18 view .LVU96
 290 0004 1420A0E3 		mov	r2, #20
 291              		.loc 1 108 39 view .LVU97
 292 0008 00E0A0E1 		mov	lr, r0
 293              		.loc 1 120 18 view .LVU98
 294 000c 01C0A0E3 		mov	ip, #1
 295              		.loc 1 113 8 view .LVU99
 296 0010 28309FE5 		ldr	r3, .L22
 297 0014 181093E5 		ldr	r1, [r3, #24]
 298              	.LVL14:
 299              	.LBB22:
 300              	.LBB23:
 301              		.loc 2 53 11 view .LVU100
 302 0018 000093E5 		ldr	r0, [r3]
 303              	.LVL15:
 304              		.loc 2 53 11 view .LVU101
 305              	.LBE23:
 306              	.LBE22:
 307              		.loc 1 113 26 view .LVU102
 308 001c 1CE0C1E5 		strb	lr, [r1, #28]
 309              		.loc 1 117 3 is_stmt 1 view .LVU103
 310              		.loc 1 117 18 is_stmt 0 view .LVU104
 311 0020 1F20C1E5 		strb	r2, [r1, #31]
 312              		.loc 1 119 3 is_stmt 1 view .LVU105
 313              	.LVL16:
 314              	.LBB26:
 315              	.LBI22:
 316              		.loc 2 52 23 view .LVU106
 317              	.LBB24:
 318              		.loc 2 53 3 view .LVU107
 319              		.loc 2 55 3 view .LVU108
 320              		.loc 2 55 20 is_stmt 0 view .LVU109
 321 0024 002090E5 		ldr	r2, [r0]
 322              		.loc 2 55 38 view .LVU110
 323 0028 043082E5 		str	r3, [r2, #4]
 324              		.loc 2 56 3 is_stmt 1 view .LVU111
 325              	.LVL17:
 326              		.loc 2 56 3 is_stmt 0 view .LVU112
 327              	.LBE24:
 328              	.LBE26:
 329              		.loc 1 120 18 view .LVU113
 330 002c 1CC0C0E5 		strb	ip, [r0, #28]
 331              		.loc 1 122 1 view .LVU114
 332 0030 04E09DE4 		ldr	lr, [sp], #4
 333              		.cfi_restore 14
 334              		.cfi_def_cfa_offset 0
 335              	.LBB27:
 336              	.LBB25:
 337              		.loc 2 55 16 view .LVU115
 338 0034 002083E5 		str	r2, [r3]
 339              	.LBE25:
 340              	.LBE27:
 341              		.loc 1 119 3 view .LVU116
 342 0038 180083E5 		str	r0, [r3, #24]
ARM GAS  /tmp/ccZTzvT8.s 			page 7


 343              		.loc 1 120 3 is_stmt 1 view .LVU117
 344              		.loc 1 121 3 view .LVU118
 345              		.loc 1 121 3 view .LVU119
 346              		.loc 1 121 3 view .LVU120
 347              		.loc 1 121 3 view .LVU121
 348 003c FEFFFFEA 		b	_port_switch_arm
 349              	.LVL18:
 350              	.L23:
 351              		.loc 1 121 3 is_stmt 0 view .LVU122
 352              		.align	2
 353              	.L22:
 354 0040 00000000 		.word	.LANCHOR0
 355              		.cfi_endproc
 356              	.LFE9:
 357              		.size	chSchGoSleepS, .-chSchGoSleepS
 358              		.section	.text.chSchGoSleepTimeoutS,"ax",%progbits
 359              		.align	2
 360              		.global	chSchGoSleepTimeoutS
 361              		.syntax unified
 362              		.arm
 363              		.fpu softvfp
 364              		.type	chSchGoSleepTimeoutS, %function
 365              	chSchGoSleepTimeoutS:
 366              	.LVL19:
 367              	.LFB11:
 368              		.loc 1 182 63 is_stmt 1 view -0
 369              		.cfi_startproc
 370              		@ args = 0, pretend = 0, frame = 24
 371              		@ frame_needed = 0, uses_anonymous_args = 0
 372              		.loc 1 184 3 view .LVU124
 373              		.loc 1 184 21 view .LVU125
 374              		.loc 1 186 3 view .LVU126
 375              		.loc 1 182 63 is_stmt 0 view .LVU127
 376 0000 30402DE9 		push	{r4, r5, lr}
 377              		.cfi_def_cfa_offset 12
 378              		.cfi_offset 4, -12
 379              		.cfi_offset 5, -8
 380              		.cfi_offset 14, -4
 381              	.LBB37:
 382              		.loc 1 189 33 view .LVU128
 383 0004 B0409FE5 		ldr	r4, .L32
 384              	.LBE37:
 385              		.loc 1 186 6 view .LVU129
 386 0008 010071E3 		cmn	r1, #1
 387              		.loc 1 182 63 view .LVU130
 388 000c 0050A0E1 		mov	r5, r0
 389              	.LBB46:
 390              		.loc 1 189 33 view .LVU131
 391 0010 183094E5 		ldr	r3, [r4, #24]
 392              	.LBE46:
 393              		.loc 1 182 63 view .LVU132
 394 0014 1CD04DE2 		sub	sp, sp, #28
 395              		.cfi_def_cfa_offset 40
 396              		.loc 1 186 6 view .LVU133
 397 0018 1700000A 		beq	.L25
 398              	.LBB47:
 399              		.loc 1 187 5 is_stmt 1 view .LVU134
ARM GAS  /tmp/ccZTzvT8.s 			page 8


 400              		.loc 1 189 5 view .LVU135
 401 001c 9C209FE5 		ldr	r2, .L32+4
 402 0020 04008DE2 		add	r0, sp, #4
 403 0024 FEFFFFEB 		bl	chVTSetI
 404              	.LVL20:
 405              		.loc 1 190 5 view .LVU136
 406              	.LBB38:
 407              	.LBI38:
 408              		.loc 1 108 6 view .LVU137
 409              	.LBB39:
 410              		.loc 1 109 3 view .LVU138
 411              		.loc 1 111 3 view .LVU139
 412              		.loc 1 111 21 view .LVU140
 413              		.loc 1 113 3 view .LVU141
 414              		.loc 1 117 18 is_stmt 0 view .LVU142
 415 0028 1430A0E3 		mov	r3, #20
 416              		.loc 1 120 18 view .LVU143
 417 002c 0120A0E3 		mov	r2, #1
 418              		.loc 1 113 8 view .LVU144
 419 0030 181094E5 		ldr	r1, [r4, #24]
 420              	.LVL21:
 421              	.LBB40:
 422              	.LBB41:
 423              		.loc 2 53 11 view .LVU145
 424 0034 000094E5 		ldr	r0, [r4]
 425              	.LBE41:
 426              	.LBE40:
 427              		.loc 1 113 26 view .LVU146
 428 0038 1C50C1E5 		strb	r5, [r1, #28]
 429              		.loc 1 117 3 is_stmt 1 view .LVU147
 430              		.loc 1 117 18 is_stmt 0 view .LVU148
 431 003c 1F30C1E5 		strb	r3, [r1, #31]
 432              		.loc 1 119 3 is_stmt 1 view .LVU149
 433              	.LVL22:
 434              	.LBB44:
 435              	.LBI40:
 436              		.loc 2 52 23 view .LVU150
 437              	.LBB42:
 438              		.loc 2 53 3 view .LVU151
 439              		.loc 2 55 3 view .LVU152
 440              		.loc 2 55 20 is_stmt 0 view .LVU153
 441 0040 003090E5 		ldr	r3, [r0]
 442              		.loc 2 55 38 view .LVU154
 443 0044 044083E5 		str	r4, [r3, #4]
 444              		.loc 2 56 3 is_stmt 1 view .LVU155
 445              	.LVL23:
 446              		.loc 2 56 3 is_stmt 0 view .LVU156
 447              	.LBE42:
 448              	.LBE44:
 449              		.loc 1 120 18 view .LVU157
 450 0048 1C20C0E5 		strb	r2, [r0, #28]
 451              	.LBB45:
 452              	.LBB43:
 453              		.loc 2 55 16 view .LVU158
 454 004c 003084E5 		str	r3, [r4]
 455              	.LBE43:
 456              	.LBE45:
ARM GAS  /tmp/ccZTzvT8.s 			page 9


 457              		.loc 1 119 3 view .LVU159
 458 0050 180084E5 		str	r0, [r4, #24]
 459              		.loc 1 120 3 is_stmt 1 view .LVU160
 460              		.loc 1 121 3 view .LVU161
 461              		.loc 1 121 3 view .LVU162
 462              		.loc 1 121 3 view .LVU163
 463              		.loc 1 121 3 view .LVU164
 464 0054 FEFFFFEB 		bl	_port_switch_arm
 465              	.LVL24:
 466              		.loc 1 121 26 view .LVU165
 467              		.loc 1 121 26 is_stmt 0 view .LVU166
 468              	.LBE39:
 469              	.LBE38:
 470              		.loc 1 191 5 is_stmt 1 view .LVU167
 471              		.loc 1 191 8 is_stmt 0 view .LVU168
 472 0058 10309DE5 		ldr	r3, [sp, #16]
 473 005c 000053E3 		cmp	r3, #0
 474 0060 0100000A 		beq	.L27
 475              		.loc 1 192 7 is_stmt 1 view .LVU169
 476 0064 04008DE2 		add	r0, sp, #4
 477 0068 FEFFFFEB 		bl	chVTResetI
 478              	.LVL25:
 479              	.L27:
 480              	.LBE47:
 481              		.loc 1 196 3 view .LVU170
 482              		.loc 1 196 20 is_stmt 0 view .LVU171
 483 006c 183094E5 		ldr	r3, [r4, #24]
 484              		.loc 1 197 1 view .LVU172
 485 0070 240093E5 		ldr	r0, [r3, #36]
 486 0074 1CD08DE2 		add	sp, sp, #28
 487              		.cfi_remember_state
 488              		.cfi_def_cfa_offset 12
 489              		@ sp needed
 490 0078 3080BDE8 		pop	{r4, r5, pc}
 491              	.LVL26:
 492              	.L25:
 493              		.cfi_restore_state
 494              		.loc 1 195 5 is_stmt 1 view .LVU173
 495              	.LBB48:
 496              	.LBI48:
 497              		.loc 1 108 6 view .LVU174
 498              	.LBB49:
 499              		.loc 1 109 3 view .LVU175
 500              		.loc 1 111 3 view .LVU176
 501              		.loc 1 111 21 view .LVU177
 502              		.loc 1 113 3 view .LVU178
 503              		.loc 1 117 18 is_stmt 0 view .LVU179
 504 007c 14C0A0E3 		mov	ip, #20
 505              		.loc 1 120 18 view .LVU180
 506 0080 0120A0E3 		mov	r2, #1
 507              	.LBB50:
 508              	.LBB51:
 509              		.loc 2 53 11 view .LVU181
 510 0084 000094E5 		ldr	r0, [r4]
 511              	.LVL27:
 512              		.loc 2 53 11 view .LVU182
 513              	.LBE51:
ARM GAS  /tmp/ccZTzvT8.s 			page 10


 514              	.LBE50:
 515              		.loc 1 113 26 view .LVU183
 516 0088 1C50C3E5 		strb	r5, [r3, #28]
 517              		.loc 1 117 3 is_stmt 1 view .LVU184
 518              		.loc 1 117 18 is_stmt 0 view .LVU185
 519 008c 1FC0C3E5 		strb	ip, [r3, #31]
 520              		.loc 1 119 3 is_stmt 1 view .LVU186
 521              	.LVL28:
 522              	.LBB55:
 523              	.LBI50:
 524              		.loc 2 52 23 view .LVU187
 525              	.LBB52:
 526              		.loc 2 53 3 view .LVU188
 527              		.loc 2 55 3 view .LVU189
 528              	.LBE52:
 529              	.LBE55:
 530              		.loc 1 121 3 is_stmt 0 view .LVU190
 531 0090 0310A0E1 		mov	r1, r3
 532              	.LVL29:
 533              	.LBB56:
 534              	.LBB53:
 535              		.loc 2 55 20 view .LVU191
 536 0094 003090E5 		ldr	r3, [r0]
 537              		.loc 2 55 38 view .LVU192
 538 0098 044083E5 		str	r4, [r3, #4]
 539              		.loc 2 56 3 is_stmt 1 view .LVU193
 540              	.LVL30:
 541              		.loc 2 56 3 is_stmt 0 view .LVU194
 542              	.LBE53:
 543              	.LBE56:
 544              		.loc 1 120 18 view .LVU195
 545 009c 1C20C0E5 		strb	r2, [r0, #28]
 546              	.LBB57:
 547              	.LBB54:
 548              		.loc 2 55 16 view .LVU196
 549 00a0 003084E5 		str	r3, [r4]
 550              	.LBE54:
 551              	.LBE57:
 552              		.loc 1 119 3 view .LVU197
 553 00a4 180084E5 		str	r0, [r4, #24]
 554              	.LVL31:
 555              		.loc 1 120 3 is_stmt 1 view .LVU198
 556              		.loc 1 121 3 view .LVU199
 557              		.loc 1 121 3 view .LVU200
 558              		.loc 1 121 3 view .LVU201
 559              		.loc 1 121 3 view .LVU202
 560 00a8 FEFFFFEB 		bl	_port_switch_arm
 561              	.LVL32:
 562              		.loc 1 121 26 view .LVU203
 563              		.loc 1 121 26 is_stmt 0 view .LVU204
 564              	.LBE49:
 565              	.LBE48:
 566              		.loc 1 196 3 is_stmt 1 view .LVU205
 567              		.loc 1 196 20 is_stmt 0 view .LVU206
 568 00ac 183094E5 		ldr	r3, [r4, #24]
 569              		.loc 1 197 1 view .LVU207
 570 00b0 240093E5 		ldr	r0, [r3, #36]
ARM GAS  /tmp/ccZTzvT8.s 			page 11


 571 00b4 1CD08DE2 		add	sp, sp, #28
 572              		.cfi_def_cfa_offset 12
 573              		@ sp needed
 574 00b8 3080BDE8 		pop	{r4, r5, pc}
 575              	.L33:
 576              		.align	2
 577              	.L32:
 578 00bc 00000000 		.word	.LANCHOR0
 579 00c0 00000000 		.word	wakeup
 580              		.cfi_endproc
 581              	.LFE11:
 582              		.size	chSchGoSleepTimeoutS, .-chSchGoSleepTimeoutS
 583              		.section	.text.chSchWakeupS,"ax",%progbits
 584              		.align	2
 585              		.global	chSchWakeupS
 586              		.syntax unified
 587              		.arm
 588              		.fpu softvfp
 589              		.type	chSchWakeupS, %function
 590              	chSchWakeupS:
 591              	.LVL33:
 592              	.LFB12:
 593              		.loc 1 218 43 is_stmt 1 view -0
 594              		.cfi_startproc
 595              		@ args = 0, pretend = 0, frame = 0
 596              		@ frame_needed = 0, uses_anonymous_args = 0
 597              		.loc 1 220 3 view .LVU209
 598              		.loc 1 220 21 view .LVU210
 599              		.loc 1 222 3 view .LVU211
 600              		.loc 1 227 22 is_stmt 0 view .LVU212
 601 0000 94209FE5 		ldr	r2, .L43
 602              		.loc 1 218 43 view .LVU213
 603 0004 10402DE9 		push	{r4, lr}
 604              		.cfi_def_cfa_offset 8
 605              		.cfi_offset 4, -8
 606              		.cfi_offset 14, -4
 607              		.loc 1 227 22 view .LVU214
 608 0008 184092E5 		ldr	r4, [r2, #24]
 609              		.loc 1 227 10 view .LVU215
 610 000c 08C090E5 		ldr	ip, [r0, #8]
 611              		.loc 1 227 27 view .LVU216
 612 0010 08E094E5 		ldr	lr, [r4, #8]
 613              	.LBB63:
 614              	.LBB64:
 615              		.loc 1 86 6 view .LVU217
 616 0014 0230A0E1 		mov	r3, r2
 617              	.LBE64:
 618              	.LBE63:
 619              		.loc 1 227 6 view .LVU218
 620 0018 0E005CE1 		cmp	ip, lr
 621              		.loc 1 222 19 view .LVU219
 622 001c 241080E5 		str	r1, [r0, #36]
 623              		.loc 1 227 3 is_stmt 1 view .LVU220
 624              	.LBB67:
 625              	.LBB65:
 626              		.loc 1 85 15 is_stmt 0 view .LVU221
 627 0020 0010A0E3 		mov	r1, #0
ARM GAS  /tmp/ccZTzvT8.s 			page 12


 628              	.LVL34:
 629              		.loc 1 85 15 view .LVU222
 630              	.LBE65:
 631              	.LBE67:
 632              		.loc 1 227 6 view .LVU223
 633 0024 0B00008A 		bhi	.L35
 634              		.loc 1 228 5 is_stmt 1 view .LVU224
 635              	.LVL35:
 636              	.LBB68:
 637              	.LBI63:
 638              		.loc 1 74 9 view .LVU225
 639              	.LBB66:
 640              		.loc 1 75 3 view .LVU226
 641              		.loc 1 77 3 view .LVU227
 642              		.loc 1 77 21 view .LVU228
 643              		.loc 1 80 3 view .LVU229
 644              		.loc 1 83 31 view .LVU230
 645              		.loc 1 85 3 view .LVU231
 646              		.loc 1 85 15 is_stmt 0 view .LVU232
 647 0028 1C10C0E5 		strb	r1, [r0, #28]
 648              		.loc 1 86 3 is_stmt 1 view .LVU233
 649              	.LVL36:
 650              	.L36:
 651              		.loc 1 87 3 view .LVU234
 652              		.loc 1 88 5 view .LVU235
 653              		.loc 1 88 8 is_stmt 0 view .LVU236
 654 002c 003093E5 		ldr	r3, [r3]
 655              	.LVL37:
 656              		.loc 1 89 23 is_stmt 1 view .LVU237
 657 0030 082093E5 		ldr	r2, [r3, #8]
 658 0034 02005CE1 		cmp	ip, r2
 659 0038 FBFFFF9A 		bls	.L36
 660              		.loc 1 91 3 view .LVU238
 661              		.loc 1 92 18 is_stmt 0 view .LVU239
 662 003c 042093E5 		ldr	r2, [r3, #4]
 663              		.loc 1 91 14 view .LVU240
 664 0040 003080E5 		str	r3, [r0]
 665              		.loc 1 92 3 is_stmt 1 view .LVU241
 666              		.loc 1 92 14 is_stmt 0 view .LVU242
 667 0044 042080E5 		str	r2, [r0, #4]
 668              		.loc 1 93 3 is_stmt 1 view .LVU243
 669              		.loc 1 93 35 is_stmt 0 view .LVU244
 670 0048 040083E5 		str	r0, [r3, #4]
 671              		.loc 1 93 22 view .LVU245
 672 004c 043090E5 		ldr	r3, [r0, #4]
 673              	.LVL38:
 674              		.loc 1 93 22 view .LVU246
 675 0050 000083E5 		str	r0, [r3]
 676              	.LVL39:
 677              		.loc 1 94 3 is_stmt 1 view .LVU247
 678              	.LBE66:
 679              	.LBE68:
 680              		.loc 1 235 1 is_stmt 0 view .LVU248
 681 0054 1080BDE8 		pop	{r4, pc}
 682              	.LVL40:
 683              	.L35:
 684              	.LBB69:
ARM GAS  /tmp/ccZTzvT8.s 			page 13


 685              		.loc 1 230 5 is_stmt 1 view .LVU249
 686              	.LBB70:
 687              	.LBI70:
 688              		.loc 1 74 9 view .LVU250
 689              	.LBB71:
 690              		.loc 1 75 3 view .LVU251
 691              		.loc 1 77 3 view .LVU252
 692              		.loc 1 77 21 view .LVU253
 693              		.loc 1 80 3 view .LVU254
 694              		.loc 1 83 31 view .LVU255
 695              		.loc 1 85 3 view .LVU256
 696              		.loc 1 85 15 is_stmt 0 view .LVU257
 697 0058 1C10C4E5 		strb	r1, [r4, #28]
 698              	.LVL41:
 699              		.loc 1 86 3 is_stmt 1 view .LVU258
 700              	.L38:
 701              		.loc 1 87 3 view .LVU259
 702              		.loc 1 88 5 view .LVU260
 703              		.loc 1 88 8 is_stmt 0 view .LVU261
 704 005c 003093E5 		ldr	r3, [r3]
 705              	.LVL42:
 706              		.loc 1 89 23 is_stmt 1 view .LVU262
 707 0060 08C093E5 		ldr	ip, [r3, #8]
 708 0064 0C005EE1 		cmp	lr, ip
 709 0068 FBFFFF9A 		bls	.L38
 710              		.loc 1 91 3 view .LVU263
 711              	.LBE71:
 712              	.LBE70:
 713              		.loc 1 232 18 is_stmt 0 view .LVU264
 714 006c 01C0A0E3 		mov	ip, #1
 715              	.LBB74:
 716              	.LBB72:
 717              		.loc 1 92 18 view .LVU265
 718 0070 041093E5 		ldr	r1, [r3, #4]
 719              		.loc 1 91 14 view .LVU266
 720 0074 003084E5 		str	r3, [r4]
 721              		.loc 1 92 3 is_stmt 1 view .LVU267
 722              		.loc 1 92 14 is_stmt 0 view .LVU268
 723 0078 041084E5 		str	r1, [r4, #4]
 724              		.loc 1 93 3 is_stmt 1 view .LVU269
 725              		.loc 1 93 35 is_stmt 0 view .LVU270
 726 007c 044083E5 		str	r4, [r3, #4]
 727              		.loc 1 93 22 view .LVU271
 728 0080 043094E5 		ldr	r3, [r4, #4]
 729              	.LVL43:
 730              		.loc 1 93 22 view .LVU272
 731              	.LBE72:
 732              	.LBE74:
 733              		.loc 1 233 5 view .LVU273
 734 0084 0410A0E1 		mov	r1, r4
 735              	.LBB75:
 736              	.LBB73:
 737              		.loc 1 93 22 view .LVU274
 738 0088 004083E5 		str	r4, [r3]
 739              	.LVL44:
 740              		.loc 1 94 3 is_stmt 1 view .LVU275
 741              		.loc 1 94 3 is_stmt 0 view .LVU276
ARM GAS  /tmp/ccZTzvT8.s 			page 14


 742              	.LBE73:
 743              	.LBE75:
 744              		.loc 1 231 5 is_stmt 1 view .LVU277
 745              		.loc 1 232 18 is_stmt 0 view .LVU278
 746 008c 1CC0C0E5 		strb	ip, [r0, #28]
 747              	.LBE69:
 748              		.loc 1 235 1 view .LVU279
 749 0090 1040BDE8 		pop	{r4, lr}
 750              		.cfi_restore 14
 751              		.cfi_restore 4
 752              		.cfi_def_cfa_offset 0
 753              	.LVL45:
 754              	.LBB76:
 755              		.loc 1 231 5 view .LVU280
 756 0094 180082E5 		str	r0, [r2, #24]
 757              		.loc 1 232 5 is_stmt 1 view .LVU281
 758              		.loc 1 233 5 view .LVU282
 759              		.loc 1 233 5 view .LVU283
 760              		.loc 1 233 5 view .LVU284
 761              		.loc 1 233 5 view .LVU285
 762 0098 FEFFFFEA 		b	_port_switch_arm
 763              	.LVL46:
 764              	.L44:
 765              		.loc 1 233 5 is_stmt 0 view .LVU286
 766              		.align	2
 767              	.L43:
 768 009c 00000000 		.word	.LANCHOR0
 769              	.LBE76:
 770              		.cfi_endproc
 771              	.LFE12:
 772              		.size	chSchWakeupS, .-chSchWakeupS
 773              		.section	.text.chSchIsPreemptionRequired,"ax",%progbits
 774              		.align	2
 775              		.global	chSchIsPreemptionRequired
 776              		.syntax unified
 777              		.arm
 778              		.fpu softvfp
 779              		.type	chSchIsPreemptionRequired, %function
 780              	chSchIsPreemptionRequired:
 781              	.LFB14:
 782              		.loc 1 269 40 is_stmt 1 view -0
 783              		.cfi_startproc
 784              		@ args = 0, pretend = 0, frame = 0
 785              		@ frame_needed = 0, uses_anonymous_args = 0
 786              		@ link register save eliminated.
 787              		.loc 1 270 3 view .LVU288
 788              		.loc 1 270 16 is_stmt 0 view .LVU289
 789 0000 38209FE5 		ldr	r2, .L48
 790              		.loc 1 271 16 view .LVU290
 791 0004 183092E5 		ldr	r3, [r2, #24]
 792              		.loc 1 270 11 view .LVU291
 793 0008 001092E5 		ldr	r1, [r2]
 794              		.loc 1 277 37 view .LVU292
 795 000c 1F20D3E5 		ldrb	r2, [r3, #31]	@ zero_extendqisi2
 796              		.loc 1 270 11 view .LVU293
 797 0010 080091E5 		ldr	r0, [r1, #8]
 798              	.LVL47:
ARM GAS  /tmp/ccZTzvT8.s 			page 15


 799              		.loc 1 271 3 is_stmt 1 view .LVU294
 800              		.loc 1 277 37 is_stmt 0 view .LVU295
 801 0014 000052E3 		cmp	r2, #0
 802              		.loc 1 271 11 view .LVU296
 803 0018 083093E5 		ldr	r3, [r3, #8]
 804              	.LVL48:
 805              		.loc 1 277 3 is_stmt 1 view .LVU297
 806              		.loc 1 277 37 is_stmt 0 view .LVU298
 807 001c 0300000A 		beq	.L46
 808              		.loc 1 277 32 discriminator 1 view .LVU299
 809 0020 030050E1 		cmp	r0, r3
 810 0024 0000A093 		movls	r0, #0
 811              	.LVL49:
 812              		.loc 1 277 32 discriminator 1 view .LVU300
 813 0028 0100A083 		movhi	r0, #1
 814 002c 1EFF2FE1 		bx	lr
 815              	.LVL50:
 816              	.L46:
 817              		.loc 1 277 42 discriminator 2 view .LVU301
 818 0030 030050E1 		cmp	r0, r3
 819 0034 0000A033 		movcc	r0, #0
 820              	.LVL51:
 821              		.loc 1 277 42 discriminator 2 view .LVU302
 822 0038 0100A023 		movcs	r0, #1
 823              		.loc 1 283 1 discriminator 2 view .LVU303
 824 003c 1EFF2FE1 		bx	lr
 825              	.L49:
 826              		.align	2
 827              	.L48:
 828 0040 00000000 		.word	.LANCHOR0
 829              		.cfi_endproc
 830              	.LFE14:
 831              		.size	chSchIsPreemptionRequired, .-chSchIsPreemptionRequired
 832              		.section	.text.chSchDoRescheduleBehind,"ax",%progbits
 833              		.align	2
 834              		.global	chSchDoRescheduleBehind
 835              		.syntax unified
 836              		.arm
 837              		.fpu softvfp
 838              		.type	chSchDoRescheduleBehind, %function
 839              	chSchDoRescheduleBehind:
 840              	.LFB15:
 841              		.loc 1 297 36 is_stmt 1 view -0
 842              		.cfi_startproc
 843              		@ args = 0, pretend = 0, frame = 0
 844              		@ frame_needed = 0, uses_anonymous_args = 0
 845              		.loc 1 298 3 view .LVU305
 846              		.loc 1 300 3 view .LVU306
 847              		.loc 1 297 36 is_stmt 0 view .LVU307
 848 0000 10402DE9 		push	{r4, lr}
 849              		.cfi_def_cfa_offset 8
 850              		.cfi_offset 4, -8
 851              		.cfi_offset 14, -4
 852              		.loc 1 303 18 view .LVU308
 853 0004 0140A0E3 		mov	r4, #1
 854              		.loc 1 305 18 view .LVU309
 855 0008 14C0A0E3 		mov	ip, #20
ARM GAS  /tmp/ccZTzvT8.s 			page 16


 856              	.LBB83:
 857              	.LBB84:
 858              		.loc 1 85 15 view .LVU310
 859 000c 00E0A0E3 		mov	lr, #0
 860              	.LBE84:
 861              	.LBE83:
 862              		.loc 1 300 7 view .LVU311
 863 0010 5C309FE5 		ldr	r3, .L55
 864              	.LBB87:
 865              	.LBB88:
 866              		.loc 2 53 11 view .LVU312
 867 0014 000093E5 		ldr	r0, [r3]
 868              	.LBE88:
 869              	.LBE87:
 870              		.loc 1 300 7 view .LVU313
 871 0018 181093E5 		ldr	r1, [r3, #24]
 872              	.LVL52:
 873              		.loc 1 302 3 is_stmt 1 view .LVU314
 874              	.LBB91:
 875              	.LBI87:
 876              		.loc 2 52 23 view .LVU315
 877              	.LBB89:
 878              		.loc 2 53 3 view .LVU316
 879              		.loc 2 55 3 view .LVU317
 880              		.loc 2 55 20 is_stmt 0 view .LVU318
 881 001c 002090E5 		ldr	r2, [r0]
 882              		.loc 2 55 38 view .LVU319
 883 0020 043082E5 		str	r3, [r2, #4]
 884              		.loc 2 56 3 is_stmt 1 view .LVU320
 885              	.LVL53:
 886              		.loc 2 56 3 is_stmt 0 view .LVU321
 887              	.LBE89:
 888              	.LBE91:
 889              		.loc 1 303 18 view .LVU322
 890 0024 1C40C0E5 		strb	r4, [r0, #28]
 891              	.LBB92:
 892              	.LBB90:
 893              		.loc 2 55 16 view .LVU323
 894 0028 002083E5 		str	r2, [r3]
 895              	.LBE90:
 896              	.LBE92:
 897              		.loc 1 302 3 view .LVU324
 898 002c 180083E5 		str	r0, [r3, #24]
 899              		.loc 1 303 3 is_stmt 1 view .LVU325
 900              		.loc 1 305 3 view .LVU326
 901              		.loc 1 305 18 is_stmt 0 view .LVU327
 902 0030 1FC0C1E5 		strb	ip, [r1, #31]
 903              		.loc 1 307 3 is_stmt 1 view .LVU328
 904              	.LVL54:
 905              	.LBB93:
 906              	.LBI83:
 907              		.loc 1 74 9 view .LVU329
 908              	.LBB85:
 909              		.loc 1 75 3 view .LVU330
 910              		.loc 1 77 3 view .LVU331
 911              		.loc 1 77 21 view .LVU332
 912              		.loc 1 80 3 view .LVU333
ARM GAS  /tmp/ccZTzvT8.s 			page 17


 913              		.loc 1 83 31 view .LVU334
 914              		.loc 1 85 3 view .LVU335
 915              		.loc 1 89 28 is_stmt 0 view .LVU336
 916 0034 0030A0E1 		mov	r3, r0
 917 0038 08C091E5 		ldr	ip, [r1, #8]
 918              		.loc 1 85 15 view .LVU337
 919 003c 1CE0C1E5 		strb	lr, [r1, #28]
 920              		.loc 1 86 3 is_stmt 1 view .LVU338
 921              	.LVL55:
 922              		.loc 1 86 3 is_stmt 0 view .LVU339
 923 0040 000000EA 		b	.L52
 924              	.LVL56:
 925              	.L54:
 926              		.loc 1 88 8 view .LVU340
 927 0044 003093E5 		ldr	r3, [r3]
 928              	.L52:
 929              		.loc 1 87 3 is_stmt 1 view .LVU341
 930              		.loc 1 88 5 view .LVU342
 931              		.loc 1 89 23 view .LVU343
 932 0048 082093E5 		ldr	r2, [r3, #8]
 933 004c 0C0052E1 		cmp	r2, ip
 934 0050 FBFFFF2A 		bcs	.L54
 935              		.loc 1 91 3 view .LVU344
 936              	.LBE85:
 937              	.LBE93:
 938              		.loc 1 309 1 is_stmt 0 view .LVU345
 939 0054 1040BDE8 		pop	{r4, lr}
 940              		.cfi_restore 14
 941              		.cfi_restore 4
 942              		.cfi_def_cfa_offset 0
 943              	.LBB94:
 944              	.LBB86:
 945              		.loc 1 92 18 view .LVU346
 946 0058 042093E5 		ldr	r2, [r3, #4]
 947              		.loc 1 91 14 view .LVU347
 948 005c 003081E5 		str	r3, [r1]
 949              		.loc 1 92 3 is_stmt 1 view .LVU348
 950              		.loc 1 92 14 is_stmt 0 view .LVU349
 951 0060 042081E5 		str	r2, [r1, #4]
 952              		.loc 1 93 3 is_stmt 1 view .LVU350
 953              		.loc 1 93 35 is_stmt 0 view .LVU351
 954 0064 041083E5 		str	r1, [r3, #4]
 955              		.loc 1 93 22 view .LVU352
 956 0068 043091E5 		ldr	r3, [r1, #4]
 957 006c 001083E5 		str	r1, [r3]
 958              		.loc 1 94 3 is_stmt 1 view .LVU353
 959              	.LVL57:
 960              		.loc 1 94 3 is_stmt 0 view .LVU354
 961              	.LBE86:
 962              	.LBE94:
 963              		.loc 1 308 3 is_stmt 1 view .LVU355
 964              		.loc 1 308 3 view .LVU356
 965              		.loc 1 308 3 view .LVU357
 966              		.loc 1 308 3 view .LVU358
 967 0070 FEFFFFEA 		b	_port_switch_arm
 968              	.LVL58:
 969              	.L56:
ARM GAS  /tmp/ccZTzvT8.s 			page 18


 970              		.loc 1 308 3 is_stmt 0 view .LVU359
 971              		.align	2
 972              	.L55:
 973 0074 00000000 		.word	.LANCHOR0
 974              		.cfi_endproc
 975              	.LFE15:
 976              		.size	chSchDoRescheduleBehind, .-chSchDoRescheduleBehind
 977              		.section	.text.chSchDoRescheduleAhead,"ax",%progbits
 978              		.align	2
 979              		.global	chSchDoRescheduleAhead
 980              		.syntax unified
 981              		.arm
 982              		.fpu softvfp
 983              		.type	chSchDoRescheduleAhead, %function
 984              	chSchDoRescheduleAhead:
 985              	.LFB16:
 986              		.loc 1 322 35 is_stmt 1 view -0
 987              		.cfi_startproc
 988              		@ args = 0, pretend = 0, frame = 0
 989              		@ frame_needed = 0, uses_anonymous_args = 0
 990              		.loc 1 323 3 view .LVU361
 991              		.loc 1 325 3 view .LVU362
 992              		.loc 1 322 35 is_stmt 0 view .LVU363
 993 0000 10402DE9 		push	{r4, lr}
 994              		.cfi_def_cfa_offset 8
 995              		.cfi_offset 4, -8
 996              		.cfi_offset 14, -4
 997              		.loc 1 328 18 view .LVU364
 998 0004 0140A0E3 		mov	r4, #1
 999              		.loc 1 330 16 view .LVU365
 1000 0008 00E0A0E3 		mov	lr, #0
 1001              		.loc 1 325 7 view .LVU366
 1002 000c 58209FE5 		ldr	r2, .L62
 1003              	.LBB95:
 1004              	.LBB96:
 1005              		.loc 2 53 11 view .LVU367
 1006 0010 000092E5 		ldr	r0, [r2]
 1007              	.LBE96:
 1008              	.LBE95:
 1009              		.loc 1 325 7 view .LVU368
 1010 0014 181092E5 		ldr	r1, [r2, #24]
 1011              	.LVL59:
 1012              		.loc 1 327 3 is_stmt 1 view .LVU369
 1013              	.LBB100:
 1014              	.LBI95:
 1015              		.loc 2 52 23 view .LVU370
 1016              	.LBB97:
 1017              		.loc 2 53 3 view .LVU371
 1018              		.loc 2 55 3 view .LVU372
 1019              		.loc 2 55 20 is_stmt 0 view .LVU373
 1020 0018 00C090E5 		ldr	ip, [r0]
 1021              	.LBE97:
 1022              	.LBE100:
 1023              		.loc 1 334 28 view .LVU374
 1024 001c 0030A0E1 		mov	r3, r0
 1025              	.LBB101:
 1026              	.LBB98:
ARM GAS  /tmp/ccZTzvT8.s 			page 19


 1027              		.loc 2 55 38 view .LVU375
 1028 0020 04208CE5 		str	r2, [ip, #4]
 1029              		.loc 2 56 3 is_stmt 1 view .LVU376
 1030              	.LVL60:
 1031              		.loc 2 56 3 is_stmt 0 view .LVU377
 1032              	.LBE98:
 1033              	.LBE101:
 1034              		.loc 1 328 18 view .LVU378
 1035 0024 1C40C0E5 		strb	r4, [r0, #28]
 1036              	.LBB102:
 1037              	.LBB99:
 1038              		.loc 2 55 16 view .LVU379
 1039 0028 00C082E5 		str	ip, [r2]
 1040              	.LBE99:
 1041              	.LBE102:
 1042              		.loc 1 327 3 view .LVU380
 1043 002c 180082E5 		str	r0, [r2, #24]
 1044              		.loc 1 328 3 is_stmt 1 view .LVU381
 1045              		.loc 1 330 3 view .LVU382
 1046              		.loc 1 334 28 is_stmt 0 view .LVU383
 1047 0030 08C091E5 		ldr	ip, [r1, #8]
 1048              		.loc 1 330 16 view .LVU384
 1049 0034 1CE0C1E5 		strb	lr, [r1, #28]
 1050              		.loc 1 331 3 is_stmt 1 view .LVU385
 1051              	.LVL61:
 1052              		.loc 1 331 3 is_stmt 0 view .LVU386
 1053 0038 000000EA 		b	.L59
 1054              	.LVL62:
 1055              	.L61:
 1056              		.loc 1 333 8 view .LVU387
 1057 003c 003093E5 		ldr	r3, [r3]
 1058              	.L59:
 1059              		.loc 1 332 3 is_stmt 1 discriminator 1 view .LVU388
 1060              		.loc 1 333 5 discriminator 1 view .LVU389
 1061              		.loc 1 334 23 discriminator 1 view .LVU390
 1062 0040 082093E5 		ldr	r2, [r3, #8]
 1063 0044 0C0052E1 		cmp	r2, ip
 1064 0048 FBFFFF8A 		bhi	.L61
 1065              		.loc 1 336 3 view .LVU391
 1066              		.loc 1 341 1 is_stmt 0 view .LVU392
 1067 004c 1040BDE8 		pop	{r4, lr}
 1068              		.cfi_restore 14
 1069              		.cfi_restore 4
 1070              		.cfi_def_cfa_offset 0
 1071              		.loc 1 337 19 view .LVU393
 1072 0050 042093E5 		ldr	r2, [r3, #4]
 1073              		.loc 1 336 15 view .LVU394
 1074 0054 003081E5 		str	r3, [r1]
 1075              		.loc 1 337 3 is_stmt 1 view .LVU395
 1076              		.loc 1 337 15 is_stmt 0 view .LVU396
 1077 0058 042081E5 		str	r2, [r1, #4]
 1078              		.loc 1 338 3 is_stmt 1 view .LVU397
 1079              		.loc 1 338 36 is_stmt 0 view .LVU398
 1080 005c 041083E5 		str	r1, [r3, #4]
 1081              		.loc 1 338 23 view .LVU399
 1082 0060 043091E5 		ldr	r3, [r1, #4]
 1083 0064 001083E5 		str	r1, [r3]
ARM GAS  /tmp/ccZTzvT8.s 			page 20


 1084              		.loc 1 340 3 is_stmt 1 view .LVU400
 1085              		.loc 1 340 3 view .LVU401
 1086              		.loc 1 340 3 view .LVU402
 1087              		.loc 1 340 3 view .LVU403
 1088 0068 FEFFFFEA 		b	_port_switch_arm
 1089              	.LVL63:
 1090              	.L63:
 1091              		.loc 1 340 3 is_stmt 0 view .LVU404
 1092              		.align	2
 1093              	.L62:
 1094 006c 00000000 		.word	.LANCHOR0
 1095              		.cfi_endproc
 1096              	.LFE16:
 1097              		.size	chSchDoRescheduleAhead, .-chSchDoRescheduleAhead
 1098              		.section	.text.chSchRescheduleS,"ax",%progbits
 1099              		.align	2
 1100              		.global	chSchRescheduleS
 1101              		.syntax unified
 1102              		.arm
 1103              		.fpu softvfp
 1104              		.type	chSchRescheduleS, %function
 1105              	chSchRescheduleS:
 1106              	.LFB13:
 1107              		.loc 1 246 29 is_stmt 1 view -0
 1108              		.cfi_startproc
 1109              		@ args = 0, pretend = 0, frame = 0
 1110              		@ frame_needed = 0, uses_anonymous_args = 0
 1111              		@ link register save eliminated.
 1112              		.loc 1 248 3 view .LVU406
 1113              		.loc 1 248 21 view .LVU407
 1114              		.loc 1 250 3 view .LVU408
 1115              		.loc 1 250 7 is_stmt 0 view .LVU409
 1116 0000 18309FE5 		ldr	r3, .L66
 1117 0004 002093E5 		ldr	r2, [r3]
 1118 0008 183093E5 		ldr	r3, [r3, #24]
 1119              		.loc 1 250 6 view .LVU410
 1120 000c 082092E5 		ldr	r2, [r2, #8]
 1121 0010 083093E5 		ldr	r3, [r3, #8]
 1122 0014 030052E1 		cmp	r2, r3
 1123 0018 1EFF2F91 		bxls	lr
 1124              		.loc 1 251 5 is_stmt 1 view .LVU411
 1125 001c FEFFFFEA 		b	chSchDoRescheduleAhead
 1126              	.LVL64:
 1127              	.L67:
 1128              		.align	2
 1129              	.L66:
 1130 0020 00000000 		.word	.LANCHOR0
 1131              		.cfi_endproc
 1132              	.LFE13:
 1133              		.size	chSchRescheduleS, .-chSchRescheduleS
 1134              		.section	.text.chSchDoReschedule,"ax",%progbits
 1135              		.align	2
 1136              		.global	chSchDoReschedule
 1137              		.syntax unified
 1138              		.arm
 1139              		.fpu softvfp
 1140              		.type	chSchDoReschedule, %function
ARM GAS  /tmp/ccZTzvT8.s 			page 21


 1141              	chSchDoReschedule:
 1142              	.LFB17:
 1143              		.loc 1 355 30 view -0
 1144              		.cfi_startproc
 1145              		@ args = 0, pretend = 0, frame = 0
 1146              		@ frame_needed = 0, uses_anonymous_args = 0
 1147              		.loc 1 360 3 view .LVU413
 1148              		.loc 1 360 7 is_stmt 0 view .LVU414
 1149 0000 78309FE5 		ldr	r3, .L76
 1150 0004 181093E5 		ldr	r1, [r3, #24]
 1151              		.loc 1 360 6 view .LVU415
 1152 0008 1F20D1E5 		ldrb	r2, [r1, #31]	@ zero_extendqisi2
 1153 000c 000052E3 		cmp	r2, #0
 1154 0010 1900001A 		bne	.L69
 1155              		.loc 1 363 5 is_stmt 1 view .LVU416
 1156              	.LBB109:
 1157              	.LBI109:
 1158              		.loc 1 297 6 view .LVU417
 1159              	.LBB110:
 1160              		.loc 1 298 3 view .LVU418
 1161              		.loc 1 300 3 view .LVU419
 1162              	.LVL65:
 1163              		.loc 1 302 3 view .LVU420
 1164              	.LBB111:
 1165              	.LBI111:
 1166              		.loc 2 52 23 view .LVU421
 1167              	.LBB112:
 1168              		.loc 2 53 3 view .LVU422
 1169              		.loc 2 53 11 is_stmt 0 view .LVU423
 1170 0014 000093E5 		ldr	r0, [r3]
 1171              	.LVL66:
 1172              		.loc 2 55 3 is_stmt 1 view .LVU424
 1173              	.LBE112:
 1174              	.LBE111:
 1175              	.LBE110:
 1176              	.LBE109:
 1177              		.loc 1 355 30 is_stmt 0 view .LVU425
 1178 0018 04E02DE5 		str	lr, [sp, #-4]!
 1179              		.cfi_def_cfa_offset 4
 1180              		.cfi_offset 14, -4
 1181              	.LBB125:
 1182              	.LBB123:
 1183              	.LBB115:
 1184              	.LBB113:
 1185              		.loc 2 55 20 view .LVU426
 1186 001c 00C090E5 		ldr	ip, [r0]
 1187              	.LBE113:
 1188              	.LBE115:
 1189              		.loc 1 305 18 view .LVU427
 1190 0020 14E0A0E3 		mov	lr, #20
 1191              	.LBB116:
 1192              	.LBB114:
 1193              		.loc 2 55 38 view .LVU428
 1194 0024 04308CE5 		str	r3, [ip, #4]
 1195              		.loc 2 56 3 is_stmt 1 view .LVU429
 1196              	.LVL67:
 1197              		.loc 2 55 16 is_stmt 0 view .LVU430
ARM GAS  /tmp/ccZTzvT8.s 			page 22


 1198 0028 00C083E5 		str	ip, [r3]
 1199              	.LBE114:
 1200              	.LBE116:
 1201              		.loc 1 303 18 view .LVU431
 1202 002c 01C0A0E3 		mov	ip, #1
 1203 0030 1CC0C0E5 		strb	ip, [r0, #28]
 1204              		.loc 1 302 3 view .LVU432
 1205 0034 180083E5 		str	r0, [r3, #24]
 1206              		.loc 1 303 3 is_stmt 1 view .LVU433
 1207              		.loc 1 305 3 view .LVU434
 1208              	.LBB117:
 1209              	.LBB118:
 1210              		.loc 1 89 28 is_stmt 0 view .LVU435
 1211 0038 08C091E5 		ldr	ip, [r1, #8]
 1212 003c 0030A0E1 		mov	r3, r0
 1213              		.loc 1 85 15 view .LVU436
 1214 0040 1C20C1E5 		strb	r2, [r1, #28]
 1215              	.LBE118:
 1216              	.LBE117:
 1217              		.loc 1 305 18 view .LVU437
 1218 0044 1FE0C1E5 		strb	lr, [r1, #31]
 1219              		.loc 1 307 3 is_stmt 1 view .LVU438
 1220              	.LVL68:
 1221              	.LBB121:
 1222              	.LBI117:
 1223              		.loc 1 74 9 view .LVU439
 1224              	.LBB119:
 1225              		.loc 1 75 3 view .LVU440
 1226              		.loc 1 77 3 view .LVU441
 1227              		.loc 1 77 21 view .LVU442
 1228              		.loc 1 80 3 view .LVU443
 1229              		.loc 1 83 31 view .LVU444
 1230              		.loc 1 85 3 view .LVU445
 1231              		.loc 1 86 3 view .LVU446
 1232              		.loc 1 86 3 is_stmt 0 view .LVU447
 1233 0048 000000EA 		b	.L71
 1234              	.LVL69:
 1235              	.L75:
 1236              		.loc 1 88 8 view .LVU448
 1237 004c 003093E5 		ldr	r3, [r3]
 1238              	.L71:
 1239              		.loc 1 87 3 is_stmt 1 view .LVU449
 1240              		.loc 1 88 5 view .LVU450
 1241              		.loc 1 89 23 view .LVU451
 1242 0050 082093E5 		ldr	r2, [r3, #8]
 1243 0054 0C0052E1 		cmp	r2, ip
 1244 0058 FBFFFF2A 		bcs	.L75
 1245              		.loc 1 91 3 view .LVU452
 1246              		.loc 1 92 18 is_stmt 0 view .LVU453
 1247 005c 042093E5 		ldr	r2, [r3, #4]
 1248              		.loc 1 91 14 view .LVU454
 1249 0060 003081E5 		str	r3, [r1]
 1250              		.loc 1 92 3 is_stmt 1 view .LVU455
 1251              		.loc 1 92 14 is_stmt 0 view .LVU456
 1252 0064 042081E5 		str	r2, [r1, #4]
 1253              		.loc 1 93 3 is_stmt 1 view .LVU457
 1254              		.loc 1 93 35 is_stmt 0 view .LVU458
ARM GAS  /tmp/ccZTzvT8.s 			page 23


 1255 0068 041083E5 		str	r1, [r3, #4]
 1256              		.loc 1 93 22 view .LVU459
 1257 006c 043091E5 		ldr	r3, [r1, #4]
 1258              	.LBE119:
 1259              	.LBE121:
 1260              	.LBE123:
 1261              	.LBE125:
 1262              		.loc 1 375 1 view .LVU460
 1263 0070 04E09DE4 		ldr	lr, [sp], #4
 1264              		.cfi_restore 14
 1265              		.cfi_def_cfa_offset 0
 1266              	.LBB126:
 1267              	.LBB124:
 1268              	.LBB122:
 1269              	.LBB120:
 1270              		.loc 1 93 22 view .LVU461
 1271 0074 001083E5 		str	r1, [r3]
 1272              		.loc 1 94 3 is_stmt 1 view .LVU462
 1273              	.LVL70:
 1274              		.loc 1 94 3 is_stmt 0 view .LVU463
 1275              	.LBE120:
 1276              	.LBE122:
 1277              		.loc 1 308 3 is_stmt 1 view .LVU464
 1278              		.loc 1 308 3 view .LVU465
 1279              		.loc 1 308 3 view .LVU466
 1280              		.loc 1 308 3 view .LVU467
 1281 0078 FEFFFFEA 		b	_port_switch_arm
 1282              	.LVL71:
 1283              	.L69:
 1284              		.loc 1 308 3 is_stmt 0 view .LVU468
 1285              	.LBE124:
 1286              	.LBE126:
 1287              		.loc 1 368 5 is_stmt 1 view .LVU469
 1288 007c FEFFFFEA 		b	chSchDoRescheduleAhead
 1289              	.LVL72:
 1290              	.L77:
 1291              		.align	2
 1292              	.L76:
 1293 0080 00000000 		.word	.LANCHOR0
 1294              		.cfi_endproc
 1295              	.LFE17:
 1296              		.size	chSchDoReschedule, .-chSchDoReschedule
 1297              		.global	rlist
 1298              		.section	.bss.rlist,"aw",%nobits
 1299              		.align	2
 1300              		.set	.LANCHOR0,. + 0
 1301              		.type	rlist, %object
 1302              		.size	rlist, 28
 1303              	rlist:
 1304 0000 00000000 		.space	28
 1304      00000000 
 1304      00000000 
 1304      00000000 
 1304      00000000 
 1305              		.text
 1306              	.Letext0:
 1307              		.file 3 "/usr/arm-none-eabi/include/machine/_default_types.h"
ARM GAS  /tmp/ccZTzvT8.s 			page 24


 1308              		.file 4 "/usr/arm-none-eabi/include/sys/_stdint.h"
 1309              		.file 5 "../../os/ports/GCC/ARM/chtypes.h"
 1310              		.file 6 "../../os/kernel/include/chlists.h"
 1311              		.file 7 "../../os/kernel/include/chthreads.h"
 1312              		.file 8 "../../os/ports/GCC/ARM/chcore.h"
 1313              		.file 9 "../../os/kernel/include/chvt.h"
 1314              		.file 10 "../../os/kernel/include/chschd.h"
 1315              		.file 11 "../../os/kernel/include/chsem.h"
 1316              		.file 12 "../../os/kernel/include/chmtx.h"