ARM GAS  /tmp/ccPAOmlP.s 			page 1


   1              		.cpu arm1176jz-s
   2              		.eabi_attribute 20, 1
   3              		.eabi_attribute 21, 1
   4              		.eabi_attribute 23, 3
   5              		.eabi_attribute 24, 1
   6              		.eabi_attribute 25, 1
   7              		.eabi_attribute 26, 1
   8              		.eabi_attribute 30, 2
   9              		.eabi_attribute 34, 1
  10              		.eabi_attribute 18, 4
  11              		.file	"chsys.c"
  12              		.text
  13              	.Ltext0:
  14              		.cfi_sections	.debug_frame
  15              		.section	.rodata._idle_thread.str1.4,"aMS",%progbits,1
  16              		.align	2
  17              	.LC0:
  18 0000 69646C65 		.ascii	"idle\000"
  18      00
  19              		.section	.text._idle_thread,"ax",%progbits
  20              		.align	2
  21              		.global	_idle_thread
  22              		.arch armv6kz
  23              		.syntax unified
  24              		.arm
  25              		.fpu softvfp
  26              		.type	_idle_thread, %function
  27              	_idle_thread:
  28              	.LVL0:
  29              	.LFB7:
  30              		.file 1 "../../os/kernel/src/chsys.c"
  31              		.loc 1 54 28 view -0
  32              		.cfi_startproc
  33              		@ Volatile: function does not return.
  34              		@ args = 0, pretend = 0, frame = 0
  35              		@ frame_needed = 0, uses_anonymous_args = 0
  36              		@ link register save eliminated.
  37              		.loc 1 56 3 view .LVU1
  38              		.loc 1 57 3 view .LVU2
  39 0000 10309FE5 		ldr	r3, .L4
  40 0004 10209FE5 		ldr	r2, .L4+4
  41 0008 183093E5 		ldr	r3, [r3, #24]
  42 000c 182083E5 		str	r2, [r3, #24]
  43              	.L2:
  44              		.loc 1 58 3 discriminator 1 view .LVU3
  45              		.loc 1 59 5 discriminator 1 view .LVU4
  46              		.syntax divided
  47              	@ 59 "../../os/kernel/src/chsys.c" 1
  48 0010 900F07EE 		MCR p15,0,r0,c7,c0,4
  49              	@ 0 "" 2
  50              		.loc 1 59 30 discriminator 1 view .LVU5
  51              		.loc 1 60 5 discriminator 1 view .LVU6
  52              		.loc 1 60 21 discriminator 1 view .LVU7
  53              		.loc 1 58 9 discriminator 1 view .LVU8
  54              		.arm
  55              		.syntax unified
  56 0014 FDFFFFEA 		b	.L2
ARM GAS  /tmp/ccPAOmlP.s 			page 2


  57              	.L5:
  58              		.align	2
  59              	.L4:
  60 0018 00000000 		.word	rlist
  61 001c 00000000 		.word	.LC0
  62              		.cfi_endproc
  63              	.LFE7:
  64              		.size	_idle_thread, .-_idle_thread
  65              		.section	.text.chSysInit,"ax",%progbits
  66              		.align	2
  67              		.global	chSysInit
  68              		.syntax unified
  69              		.arm
  70              		.fpu softvfp
  71              		.type	chSysInit, %function
  72              	chSysInit:
  73              	.LFB8:
  74              		.loc 1 77 22 view -0
  75              		.cfi_startproc
  76              		@ args = 0, pretend = 0, frame = 0
  77              		@ frame_needed = 0, uses_anonymous_args = 0
  78              		.loc 1 78 3 view .LVU10
  79              		.loc 1 83 14 view .LVU11
  80              		.loc 1 84 3 view .LVU12
  81              		.loc 1 77 22 is_stmt 0 view .LVU13
  82 0000 04E02DE5 		str	lr, [sp, #-4]!
  83              		.cfi_def_cfa_offset 4
  84              		.cfi_offset 14, -4
  85 0004 0CD04DE2 		sub	sp, sp, #12
  86              		.cfi_def_cfa_offset 16
  87              		.loc 1 84 3 view .LVU14
  88 0008 FEFFFFEB 		bl	_scheduler_init
  89              	.LVL1:
  90              		.loc 1 85 3 is_stmt 1 view .LVU15
  91 000c FEFFFFEB 		bl	_vt_init
  92              	.LVL2:
  93              		.loc 1 87 3 view .LVU16
  94 0010 FEFFFFEB 		bl	_core_init
  95              	.LVL3:
  96              		.loc 1 90 3 view .LVU17
  97 0014 FEFFFFEB 		bl	_heap_init
  98              	.LVL4:
  99              		.loc 1 97 3 view .LVU18
 100 0018 4010A0E3 		mov	r1, #64
 101 001c 40009FE5 		ldr	r0, .L8
 102 0020 FEFFFFEB 		bl	_thread_init
 103              	.LVL5:
 104              		.loc 1 98 18 is_stmt 0 view .LVU19
 105 0024 0120A0E3 		mov	r2, #1
 106              		.loc 1 97 3 view .LVU20
 107 0028 38309FE5 		ldr	r3, .L8+4
 108              		.loc 1 98 18 view .LVU21
 109 002c 1C20C0E5 		strb	r2, [r0, #28]
 110              		.loc 1 97 3 view .LVU22
 111 0030 180083E5 		str	r0, [r3, #24]
 112              		.loc 1 98 3 is_stmt 1 view .LVU23
 113              		.loc 1 104 3 view .LVU24
ARM GAS  /tmp/ccPAOmlP.s 			page 3


 114              		.loc 1 104 3 view .LVU25
 115              		.syntax divided
 116              	@ 104 "../../os/kernel/src/chsys.c" 1
 117 0034 1FF021E3 		msr     CPSR_c, #0x1F
 118              	@ 0 "" 2
 119              		.loc 1 104 16 view .LVU26
 120              		.loc 1 108 3 view .LVU27
 121              		.loc 1 114 3 is_stmt 0 view .LVU28
 122              		.arm
 123              		.syntax unified
 124 0038 00C0A0E3 		mov	ip, #0
 125              		.loc 1 108 3 view .LVU29
 126 003c 183093E5 		ldr	r3, [r3, #24]
 127 0040 24109FE5 		ldr	r1, .L8+8
 128              		.loc 1 114 3 view .LVU30
 129 0044 24009FE5 		ldr	r0, .L8+12
 130              		.loc 1 108 3 view .LVU31
 131 0048 181083E5 		str	r1, [r3, #24]
 132              		.loc 1 114 3 is_stmt 1 view .LVU32
 133 004c 9C10A0E3 		mov	r1, #156
 134 0050 1C309FE5 		ldr	r3, .L8+16
 135 0054 00C08DE5 		str	ip, [sp]
 136 0058 FEFFFFEB 		bl	chThdCreateStatic
 137              	.LVL6:
 138              		.loc 1 117 1 is_stmt 0 view .LVU33
 139 005c 0CD08DE2 		add	sp, sp, #12
 140              		.cfi_def_cfa_offset 4
 141              		@ sp needed
 142 0060 04F09DE4 		ldr	pc, [sp], #4
 143              	.L9:
 144              		.align	2
 145              	.L8:
 146 0064 00000000 		.word	.LANCHOR0
 147 0068 00000000 		.word	rlist
 148 006c 00000000 		.word	ch_debug
 149 0070 00000000 		.word	.LANCHOR1
 150 0074 00000000 		.word	_idle_thread
 151              		.cfi_endproc
 152              	.LFE8:
 153              		.size	chSysInit, .-chSysInit
 154              		.section	.text.chSysTimerHandlerI,"ax",%progbits
 155              		.align	2
 156              		.global	chSysTimerHandlerI
 157              		.syntax unified
 158              		.arm
 159              		.fpu softvfp
 160              		.type	chSysTimerHandlerI, %function
 161              	chSysTimerHandlerI:
 162              	.LFB9:
 163              		.loc 1 130 31 is_stmt 1 view -0
 164              		.cfi_startproc
 165              		@ args = 0, pretend = 0, frame = 0
 166              		@ frame_needed = 0, uses_anonymous_args = 0
 167              		.loc 1 132 3 view .LVU35
 168              		.loc 1 132 21 view .LVU36
 169              		.loc 1 136 3 view .LVU37
 170              		.loc 1 130 31 is_stmt 0 view .LVU38
ARM GAS  /tmp/ccPAOmlP.s 			page 4


 171 0000 70402DE9 		push	{r4, r5, r6, lr}
 172              		.cfi_def_cfa_offset 16
 173              		.cfi_offset 4, -16
 174              		.cfi_offset 5, -12
 175              		.cfi_offset 6, -8
 176              		.cfi_offset 14, -4
 177              		.loc 1 136 7 view .LVU39
 178 0004 7C309FE5 		ldr	r3, .L20
 179              		.loc 1 143 3 view .LVU40
 180 0008 7C409FE5 		ldr	r4, .L20+4
 181              		.loc 1 136 7 view .LVU41
 182 000c 183093E5 		ldr	r3, [r3, #24]
 183              		.loc 1 136 12 view .LVU42
 184 0010 1F20D3E5 		ldrb	r2, [r3, #31]	@ zero_extendqisi2
 185              		.loc 1 136 6 view .LVU43
 186 0014 000052E3 		cmp	r2, #0
 187              		.loc 1 138 5 is_stmt 1 view .LVU44
 188              		.loc 1 138 21 is_stmt 0 view .LVU45
 189 0018 01204212 		subne	r2, r2, #1
 190 001c 1F20C315 		strbne	r2, [r3, #31]
 191              		.loc 1 141 3 is_stmt 1 view .LVU46
 192              		.loc 1 141 8 is_stmt 0 view .LVU47
 193 0020 202093E5 		ldr	r2, [r3, #32]
 194              		.loc 1 141 16 view .LVU48
 195 0024 012082E2 		add	r2, r2, #1
 196 0028 202083E5 		str	r2, [r3, #32]
 197              		.loc 1 143 3 is_stmt 1 view .LVU49
 198 002c 0C2094E5 		ldr	r2, [r4, #12]
 199 0030 003094E5 		ldr	r3, [r4]
 200 0034 012082E2 		add	r2, r2, #1
 201 0038 040053E1 		cmp	r3, r4
 202 003c 0C2084E5 		str	r2, [r4, #12]
 203              		.loc 1 143 3 view .LVU50
 204 0040 7080BD08 		popeq	{r4, r5, r6, pc}
 205              	.LBB2:
 206              		.loc 1 143 3 discriminator 1 view .LVU51
 207              		.loc 1 143 3 discriminator 1 view .LVU52
 208 0044 085093E5 		ldr	r5, [r3, #8]
 209 0048 015045E2 		sub	r5, r5, #1
 210 004c 000055E3 		cmp	r5, #0
 211 0050 085083E5 		str	r5, [r3, #8]
 212              		.loc 1 143 3 discriminator 1 view .LVU53
 213              	.LBB3:
 214              		.loc 1 143 3 discriminator 1 view .LVU54
 215              		.loc 1 143 3 discriminator 1 view .LVU55
 216              		.loc 1 143 3 discriminator 1 view .LVU56
 217              	.LBE3:
 218              		.loc 1 143 3 discriminator 1 view .LVU57
 219              	.LVL7:
 220              		.loc 1 143 3 is_stmt 0 discriminator 1 view .LVU58
 221 0054 7080BD18 		popne	{r4, r5, r6, pc}
 222              	.L13:
 223              	.LBB4:
 224              		.loc 1 143 3 is_stmt 1 discriminator 5 view .LVU59
 225 0058 002093E5 		ldr	r2, [r3]
 226 005c 0C1093E5 		ldr	r1, [r3, #12]
 227              	.LVL8:
ARM GAS  /tmp/ccPAOmlP.s 			page 5


 228              		.loc 1 143 3 discriminator 5 view .LVU60
 229 0060 100093E5 		ldr	r0, [r3, #16]
 230 0064 0C5083E5 		str	r5, [r3, #12]
 231              		.loc 1 143 3 discriminator 5 view .LVU61
 232 0068 002084E5 		str	r2, [r4]
 233 006c 044082E5 		str	r4, [r2, #4]
 234              		.loc 1 143 3 discriminator 5 view .LVU62
 235              		.loc 1 143 3 discriminator 5 view .LVU63
 236              		.loc 1 143 3 discriminator 5 view .LVU64
 237              		.loc 1 143 3 discriminator 5 view .LVU65
 238              		.loc 1 143 3 discriminator 5 view .LVU66
 239 0070 31FF2FE1 		blx	r1
 240              	.LVL9:
 241              		.loc 1 143 3 discriminator 5 view .LVU67
 242              		.loc 1 143 3 discriminator 5 view .LVU68
 243              		.loc 1 143 3 discriminator 5 view .LVU69
 244              	.LBE4:
 245              		.loc 1 143 3 discriminator 5 view .LVU70
 246 0074 003094E5 		ldr	r3, [r4]
 247              	.LVL10:
 248              		.loc 1 143 3 is_stmt 0 discriminator 5 view .LVU71
 249 0078 082093E5 		ldr	r2, [r3, #8]
 250 007c 000052E3 		cmp	r2, #0
 251 0080 F4FFFF0A 		beq	.L13
 252 0084 7080BDE8 		pop	{r4, r5, r6, pc}
 253              	.L21:
 254              		.align	2
 255              	.L20:
 256 0088 00000000 		.word	rlist
 257 008c 00000000 		.word	vtlist
 258              	.LBE2:
 259              		.cfi_endproc
 260              	.LFE9:
 261              		.size	chSysTimerHandlerI, .-chSysTimerHandlerI
 262              		.global	_idle_thread_wa
 263              		.section	.bss._idle_thread_wa,"aw",%nobits
 264              		.align	2
 265              		.set	.LANCHOR1,. + 0
 266              		.type	_idle_thread_wa, %object
 267              		.size	_idle_thread_wa, 156
 268              	_idle_thread_wa:
 269 0000 00000000 		.space	156
 269      00000000 
 269      00000000 
 269      00000000 
 269      00000000 
 270              		.section	.bss.mainthread.0,"aw",%nobits
 271              		.align	2
 272              		.set	.LANCHOR0,. + 0
 273              		.type	mainthread.0, %object
 274              		.size	mainthread.0, 68
 275              	mainthread.0:
 276 0000 00000000 		.space	68
 276      00000000 
 276      00000000 
 276      00000000 
 276      00000000 
ARM GAS  /tmp/ccPAOmlP.s 			page 6


 277              		.text
 278              	.Letext0:
 279              		.file 2 "/usr/lib/gcc/arm-none-eabi/11.2.0/include/stddef.h"
 280              		.file 3 "/usr/arm-none-eabi/include/machine/_default_types.h"
 281              		.file 4 "/usr/arm-none-eabi/include/sys/_stdint.h"
 282              		.file 5 "../../os/ports/GCC/ARM/chtypes.h"
 283              		.file 6 "../../os/kernel/include/chlists.h"
 284              		.file 7 "../../os/kernel/include/chthreads.h"
 285              		.file 8 "../../os/ports/GCC/ARM/chcore.h"
 286              		.file 9 "../../os/kernel/include/chvt.h"
 287              		.file 10 "../../os/kernel/include/chschd.h"
 288              		.file 11 "../../os/kernel/include/chmtx.h"
 289              		.file 12 "../../os/kernel/include/chregistry.h"
 290              		.file 13 "../../os/kernel/include/ch.h"
 291              		.file 14 "../../os/kernel/include/chheap.h"
 292              		.file 15 "../../os/kernel/include/chmemcore.h"