ARM GAS  /tmp/ccPAOmlP.s 			page 1


   1              		.cpu arm1176jz-s
   2              		.eabi_attribute 20, 1
   3              		.eabi_attribute 21, 1
   4              		.eabi_attribute 23, 3
   5              		.eabi_attribute 24, 1
   6              		.eabi_attribute 25, 1
   7              		.eabi_attribute 26, 1
   8              		.eabi_attribute 30, 2
   9              		.eabi_attribute 34, 1
  10              		.eabi_attribute 18, 4
  11              		.file	"chsys.c"
  12              		.text
  13              	.Ltext0:
  14              		.cfi_sections	.debug_frame
  15              		.section	.rodata._idle_thread.str1.4,"aMS",%progbits,1
  16              		.align	2
  17              	.LC0:
  18 0000 69646C65 		.ascii	"idle\000"
  18      00
  19              		.section	.text._idle_thread,"ax",%progbits
  20              		.align	2
  21              		.global	_idle_thread
  22              		.arch armv6kz
  23              		.syntax unified
  24              		.arm
  25              		.fpu softvfp
  26              		.type	_idle_thread, %function
  27              	_idle_thread:
  28              	.LVL0:
  29              	.LFB7:
  30              		.file 1 "../../os/kernel/src/chsys.c"
  31              		.loc 1 54 28 view -0
  32              		.cfi_startproc
  33              		@ Volatile: function does not return.
  34              		@ args = 0, pretend = 0, frame = 0
  35              		@ frame_needed = 0, uses_anonymous_args = 0
  36              		@ link register save eliminated.
  37              		.loc 1 56 3 view .LVU1
  38              		.loc 1 57 3 view .LVU2
  39 0000 10309FE5 		ldr	r3, .L4
  40 0004 10209FE5 		ldr	r2, .L4+4
  41 0008 183093E5 		ldr	r3, [r3, #24]
  42 000c 182083E5 		str	r2, [r3, #24]
  43              	.L2:
  44              		.loc 1 58 3 discriminator 1 view .LVU3
  45              		.loc 1 59 5 discriminator 1 view .LVU4
  46              		.syntax divided
  47              	@ 59 "../../os/kernel/src/chsys.c" 1
  48 0010 900F07EE 		MCR p15,0,r0,c7,c0,4
  49              	@ 0 "" 2
  50              		.loc 1 59 30 discriminator 1 view .LVU5
  51              		.loc 1 60 5 discriminator 1 view .LVU6
  52              		.loc 1 60 21 discriminator 1 view .LVU7
  53              		.loc 1 58 9 discriminator 1 view .LVU8
  54              		.arm
  55              		.syntax unified
  56 0014 FDFFFFEA 		b	.L2
ARM GAS  /tmp/ccPAOmlP.s 			page 2


  57              	.L5:
  58              		.align	2
  59              	.L4:
  60 0018 00000000 		.word	rlist
  61 001c 00000000 		.word	.LC0
  62              		.cfi_endproc
  63              	.LFE7:
  64              		.size	_idle_thread, .-_idle_thread
  65              		.section	.text.chSysInit,"ax",%progbits
  66              		.align	2
  67              		.global	chSysInit
  68              		.syntax unified
  69              		.arm
  70              		.fpu softvfp
  71              		.type	chSysInit, %function
  72              	chSysInit:
  73              	.LFB8:
  74              		.loc 1 77 22 view -0
  75              		.cfi_startproc
  76              		@ args = 0, pretend = 0, frame = 0
  77              		@ frame_needed = 0, uses_anonymous_args = 0
  78              		.loc 1 78 3 view .LVU10
  79              		.loc 1 83 14 view .LVU11
  80              		.loc 1 84 3 view .LVU12
  81              		.loc 1 77 22 is_stmt 0 view .LVU13
  82 0000 04E02DE5 		str	lr, [sp, #-4]!
  83              		.cfi_def_cfa_offset 4
  84              		.cfi_offset 14, -4
  85 0004 0CD04DE2 		sub	sp, sp, #12
  86              		.cfi_def_cfa_offset 16
  87              		.loc 1 84 3 view .LVU14
  88 0008 FEFFFFEB 		bl	_scheduler_init
  89              	.LVL1:
  90              		.loc 1 85 3 is_stmt 1 view .LVU15
  91 000c FEFFFFEB 		bl	_vt_init
  92              	.LVL2:
  93              		.loc 1 87 3 view .LVU16
  94 0010 FEFFFFEB 		bl	_core_init
  95              	.LVL3:
  96              		.loc 1 90 3 view .LVU17
  97 0014 FEFFFFEB 		bl	_heap_init
  98              	.LVL4:
  99              		.loc 1 97 3 view .LVU18
 100 0018 4010A0E3 		mov	r1, #64
 101 001c 40009FE5 		ldr	r0, .L8
 102 0020 FEFFFFEB 		bl	_thread_init
 103              	.LVL5:
 104              		.loc 1 98 18 is_stmt 0 view .LVU19
 105 0024 0120A0E3 		mov	r2, #1
 106              		.loc 1 97 3 view .LVU20
 107 0028 38309FE5 		ldr	r3, .L8+4
 108              		.loc 1 98 18 view .LVU21
 109 002c 1C20C0E5 		strb	r2, [r0, #28]
 110              		.loc 1 97 3 view .LVU22
 111 0030 180083E5 		str	r0, [r3, #24]
 112              		.loc 1 98 3 is_stmt 1 view .LVU23
 113              		.loc 1 104 3 view .LVU24
ARM GAS  /tmp/ccPAOmlP.s 			page 3


 114              		.loc 1 104 3 view .LVU25
 115              		.syntax divided
 116              	@ 104 "../../os/kernel/src/chsys.c" 1
 117 0034 1FF021E3 		msr     CPSR_c, #0x1F
 118              	@ 0 "" 2
 119              		.loc 1 104 16 view .LVU26
 120              		.loc 1 108 3 view .LVU27
 121              		.loc 1 114 3 is_stmt 0 view .LVU28
 122              		.arm
 123              		.syntax unified
 124 0038 00C0A0E3 		mov	ip, #0
 125              		.loc 1 108 3 view .LVU29
 126 003c 183093E5 		ldr	r3, [r3, #24]
 127 0040 24109FE5 		ldr	r1, .L8+8
 128              		.loc 1 114 3 view .LVU30
 129 0044 24009FE5 		ldr	r0, .L8+12
 130              		.loc 1 108 3 view .LVU31
 131 0048 181083E5 		str	r1, [r3, #24]
 132              		.loc 1 114 3 is_stmt 1 view .LVU32
 133 004c 9C10A0E3 		mov	r1, #156
 134 0050 1C309FE5 		ldr	r3, .L8+16
 135 0054 00C08DE5 		str	ip, [sp]
 136 0058 FEFFFFEB 		bl	chThdCreateStatic
 137              	.LVL6:
 138              		.loc 1 117 1 is_stmt 0 view .LVU33
 139 005c 0CD08DE2 		add	sp, sp, #12
 140              		.cfi_def_cfa_offset 4
 141              		@ sp needed
 142 0060 04F09DE4 		ldr	pc, [sp], #4
 143              	.L9:
 144              		.align	2
 145              	.L8:
 146 0064 00000000 		.word	.LANCHOR0
 147 0068 00000000 		.word	rlist
 148 006c 00000000 		.word	ch_debug
 149 0070 00000000 		.word	.LANCHOR1
 150 0074 00000000 		.word	_idle_thread
 151              		.cfi_endproc
 152              	.LFE8:
 153              		.size	chSysInit, .-chSysInit
 154              		.section	.text.chSysTimerHandlerI,"ax",%progbits
 155              		.align	2
 156              		.global	chSysTimerHandlerI
 157              		.syntax unified
 158              		.arm
 159              		.fpu softvfp
 160              		.type	chSysTimerHandlerI, %function
 161              	chSysTimerHandlerI:
 162              	.LFB9:
 163              		.loc 1 130 31 is_stmt 1 view -0
 164              		.cfi_startproc
 165              		@ args = 0, pretend = 0, frame = 0
 166              		@ frame_needed = 0, uses_anonymous_args = 0
 167              		.loc 1 132 3 view .LVU35
 168              		.loc 1 132 21 view .LVU36
 169              		.loc 1 136 3 view .LVU37
 170              		.loc 1 130 31 is_stmt 0 view .LVU38
ARM GAS  /tmp/ccPAOmlP.s 			page 4


 171 0000 70402DE9 		push	{r4, r5, r6, lr}
 172              		.cfi_def_cfa_offset 16
 173              		.cfi_offset 4, -16
 174              		.cfi_offset 5, -12
 175              		.cfi_offset 6, -8
 176              		.cfi_offset 14, -4
 177              		.loc 1 136 7 view .LVU39
 178 0004 7C309FE5 		ldr	r3, .L20
 179              		.loc 1 143 3 view .LVU40
 180 0008 7C409FE5 		ldr	r4, .L20+4
 181              		.loc 1 136 7 view .LVU41
 182 000c 183093E5 		ldr	r3, [r3, #24]
 183              		.loc 1 136 12 view .LVU42
 184 0010 1F20D3E5 		ldrb	r2, [r3, #31]	@ zero_extendqisi2
 185              		.loc 1 136 6 view .LVU43
 186 0014 000052E3 		cmp	r2, #0
 187              		.loc 1 138 5 is_stmt 1 view .LVU44
 188              		.loc 1 138 21 is_stmt 0 view .LVU45
 189 0018 01204212 		subne	r2, r2, #1
 190 001c 1F20C315 		strbne	r2, [r3, #31]
 191              		.loc 1 141 3 is_stmt 1 view .LVU46
 192              		.loc 1 141 8 is_stmt 0 view .LVU47
 193 0020 202093E5 		ldr	r2, [r3, #32]
 194              		.loc 1 141 16 view .LVU48
 195 0024 012082E2 		add	r2, r2, #1
 196 0028 202083E5 		str	r2, [r3, #32]
 197              		.loc 1 143 3 is_stmt 1 view .LVU49
 198 002c 0C2094E5 		ldr	r2, [r4, #12]
 199 0030 003094E5 		ldr	r3, [r4]
 200 0034 012082E2 		add	r2, r2, #1
 201 0038 040053E1 		cmp	r3, r4
 202 003c 0C2084E5 		str	r2, [r4, #12]
 203              		.loc 1 143 3 view .LVU50
 204 0040 7080BD08 		popeq	{r4, r5, r6, pc}
 205              	.LBB2:
 206              		.loc 1 143 3 discriminator 1 view .LVU51
 207              		.loc 1 143 3 discriminator 1 view .LVU52
 208 0044 085093E5 		ldr	r5, [r3, #8]
 209 0048 015045E2 		sub	r5, r5, #1
 210 004c 000055E3 		cmp	r5, #0
 211 0050 085083E5 		str	r5, [r3, #8]
 212              		.loc 1 143 3 discriminator 1 view .LVU53
 213              	.LBB3:
 214              		.loc 1 143 3 discriminator 1 view .LVU54
 215              		.loc 1 143 3 discriminator 1 view .LVU55
 216              		.loc 1 143 3 discriminator 1 view .LVU56
 217              	.LBE3:
 218              		.loc 1 143 3 discriminator 1 view .LVU57
 219              	.LVL7:
 220              		.loc 1 143 3 is_stmt 0 discriminator 1 view .LVU58
 221 0054 7080BD18 		popne	{r4, r5, r6, pc}
 222              	.L13:
 223              	.LBB4:
 224              		.loc 1 143 3 is_stmt 1 discriminator 5 view .LVU59
 225 0058 002093E5 		ldr	r2, [r3]
 226 005c 0C1093E5 		ldr	r1, [r3, #12]
 227              	.LVL8:
ARM GAS  /tmp/ccPAOmlP.s 			page 5


 228              		.loc 1 143 3 discriminator 5 view .LVU60
 229 0060 100093E5 		ldr	r0, [r3, #16]
 230 0064 0C5083E5 		str	r5, [r3, #12]
 231              		.loc 1 143 3 discriminator 5 view .LVU61
 232 0068 002084E5 		str	r2, [r4]
 233 006c 044082E5 		str	r4, [r2, #4]
 234              		.loc 1 143 3 discriminator 5 view .LVU62
 235              		.loc 1 143 3 discriminator 5 view .LVU63
 236              		.loc 1 143 3 discriminator 5 view .LVU64
 237              		.loc 1 143 3 discriminator 5 view .LVU65
 238              		.loc 1 143 3 discriminator 5 view .LVU66
 239 0070 31FF2FE1 		blx	r1
 240              	.LVL9:
 241              		.loc 1 143 3 discriminator 5 view .LVU67
 242              		.loc 1 143 3 discriminator 5 view .LVU68
 243              		.loc 1 143 3 discriminator 5 view .LVU69
 244              	.LBE4:
 245              		.loc 1 143 3 discriminator 5 view .LVU70
 246 0074 003094E5 		ldr	r3, [r4]
 247              	.LVL10:
 248              		.loc 1 143 3 is_stmt 0 discriminator 5 view .LVU71
 249 0078 082093E5 		ldr	r2, [r3, #8]
 250 007c 000052E3 		cmp	r2, #0
 251 0080 F4FFFF0A 		beq	.L13
 252 0084 7080BDE8 		pop	{r4, r5, r6, pc}
 253              	.L21:
 254              		.align	2
 255              	.L20:
 256 0088 00000000 		.word	rlist
 257 008c 00000000 		.word	vtlist
 258              	.LBE2:
 259              		.cfi_endproc
 260              	.LFE9:
 261              		.size	chSysTimerHandlerI, .-chSysTimerHandlerI
 262              		.global	_idle_thread_wa
 263              		.section	.bss._idle_thread_wa,"aw",%nobits
 264              		.align	2
 265              		.set	.LANCHOR1,. + 0
 266              		.type	_idle_thread_wa, %object
 267              		.size	_idle_thread_wa, 156
 268              	_idle_thread_wa:
 269 0000 00000000 		.space	156
 269      00000000 
 269      00000000 
 269      00000000 
 269      00000000 
 270              		.section	.bss.mainthread.0,"aw",%nobits
 271              		.align	2
 272              		.set	.LANCHOR0,. + 0
 273              		.type	mainthread.0, %object
 274              		.size	mainthread.0, 68
 275              	mainthread.0:
 276 0000 00000000 		.space	68
 276      00000000 
 276      00000000 
 276      00000000 
 276      00000000 
ARM GAS  /tmp/ccPAOmlP.s 			page 6


 277              		.text
 278              	.Letext0:
 279              		.file 2 "/usr/lib/gcc/arm-none-eabi/11.2.0/include/stddef.h"
 280              		.file 3 "/usr/arm-none-eabi/include/machine/_default_types.h"
 281              		.file 4 "/usr/arm-none-eabi/include/sys/_stdint.h"
 282              		.file 5 "../../os/ports/GCC/ARM/chtypes.h"
 283              		.file 6 "../../os/kernel/include/chlists.h"
 284              		.file 7 "../../os/kernel/include/chthreads.h"
 285              		.file 8 "../../os/ports/GCC/ARM/chcore.h"
 286              		.file 9 "../../os/kernel/include/chvt.h"
 287              		.file 10 "../../os/kernel/include/chschd.h"
 288              		.file 11 "../../os/kernel/include/chmtx.h"
 289              		.file 12 "../../os/kernel/include/chregistry.h"
 290              		.file 13 "../../os/kernel/include/ch.h"
 291              		.file 14 "../../os/kernel/include/chheap.h"
 292              		.file 15 "../../os/kernel/include/chmemcore.h"
 293              		.section	.debug_info,"",%progbits
 294              	.Ldebug_info0:
 295 0000 F2070000 		.4byte	0x7f2
 296 0004 0500     		.2byte	0x5
 297 0006 01       		.byte	0x1
 298 0007 04       		.byte	0x4
 299 0008 00000000 		.4byte	.Ldebug_abbrev0
 300 000c 13       		.uleb128 0x13
 301 000d 46020000 		.4byte	.LASF108
 302 0011 1D       		.byte	0x1d
 303 0012 D3040000 		.4byte	.LASF109
 304 0016 05030000 		.4byte	.LASF110
 305 001a 18000000 		.4byte	.LLRL3
 306 001e 00000000 		.4byte	0
 307 0022 00000000 		.4byte	.Ldebug_line0
 308 0026 14       		.uleb128 0x14
 309 0027 04       		.byte	0x4
 310 0028 05       		.byte	0x5
 311 0029 696E7400 		.ascii	"int\000"
 312 002d 02       		.uleb128 0x2
 313 002e 1B000000 		.4byte	.LASF2
 314 0032 02       		.byte	0x2
 315 0033 D1       		.byte	0xd1
 316 0034 17       		.byte	0x17
 317 0035 39000000 		.4byte	0x39
 318 0039 04       		.uleb128 0x4
 319 003a 04       		.byte	0x4
 320 003b 07       		.byte	0x7
 321 003c 5A010000 		.4byte	.LASF0
 322 0040 04       		.uleb128 0x4
 323 0041 01       		.byte	0x1
 324 0042 06       		.byte	0x6
 325 0043 B1000000 		.4byte	.LASF1
 326 0047 02       		.uleb128 0x2
 327 0048 29000000 		.4byte	.LASF3
 328 004c 03       		.byte	0x3
 329 004d 2B       		.byte	0x2b
 330 004e 18       		.byte	0x18
 331 004f 53000000 		.4byte	0x53
 332 0053 04       		.uleb128 0x4
 333 0054 01       		.byte	0x1
ARM GAS  /tmp/ccPAOmlP.s 			page 7


 334 0055 08       		.byte	0x8
 335 0056 9B030000 		.4byte	.LASF4
 336 005a 04       		.uleb128 0x4
 337 005b 02       		.byte	0x2
 338 005c 05       		.byte	0x5
 339 005d BE030000 		.4byte	.LASF5
 340 0061 02       		.uleb128 0x2
 341 0062 60040000 		.4byte	.LASF6
 342 0066 03       		.byte	0x3
 343 0067 39       		.byte	0x39
 344 0068 19       		.byte	0x19
 345 0069 6D000000 		.4byte	0x6d
 346 006d 04       		.uleb128 0x4
 347 006e 02       		.byte	0x2
 348 006f 07       		.byte	0x7
 349 0070 B6010000 		.4byte	.LASF7
 350 0074 02       		.uleb128 0x2
 351 0075 87040000 		.4byte	.LASF8
 352 0079 03       		.byte	0x3
 353 007a 4D       		.byte	0x4d
 354 007b 18       		.byte	0x18
 355 007c 80000000 		.4byte	0x80
 356 0080 04       		.uleb128 0x4
 357 0081 04       		.byte	0x4
 358 0082 05       		.byte	0x5
 359 0083 EC000000 		.4byte	.LASF9
 360 0087 02       		.uleb128 0x2
 361 0088 29010000 		.4byte	.LASF10
 362 008c 03       		.byte	0x3
 363 008d 4F       		.byte	0x4f
 364 008e 19       		.byte	0x19
 365 008f 93000000 		.4byte	0x93
 366 0093 04       		.uleb128 0x4
 367 0094 04       		.byte	0x4
 368 0095 07       		.byte	0x7
 369 0096 7C010000 		.4byte	.LASF11
 370 009a 04       		.uleb128 0x4
 371 009b 08       		.byte	0x8
 372 009c 05       		.byte	0x5
 373 009d A3000000 		.4byte	.LASF12
 374 00a1 04       		.uleb128 0x4
 375 00a2 08       		.byte	0x8
 376 00a3 07       		.byte	0x7
 377 00a4 4D000000 		.4byte	.LASF13
 378 00a8 02       		.uleb128 0x2
 379 00a9 EF040000 		.4byte	.LASF14
 380 00ad 04       		.byte	0x4
 381 00ae 18       		.byte	0x18
 382 00af 13       		.byte	0x13
 383 00b0 47000000 		.4byte	0x47
 384 00b4 02       		.uleb128 0x2
 385 00b5 FE000000 		.4byte	.LASF15
 386 00b9 04       		.byte	0x4
 387 00ba 24       		.byte	0x24
 388 00bb 14       		.byte	0x14
 389 00bc 61000000 		.4byte	0x61
 390 00c0 02       		.uleb128 0x2
ARM GAS  /tmp/ccPAOmlP.s 			page 8


 391 00c1 93030000 		.4byte	.LASF16
 392 00c5 04       		.byte	0x4
 393 00c6 2C       		.byte	0x2c
 394 00c7 13       		.byte	0x13
 395 00c8 74000000 		.4byte	0x74
 396 00cc 02       		.uleb128 0x2
 397 00cd 31040000 		.4byte	.LASF17
 398 00d1 04       		.byte	0x4
 399 00d2 30       		.byte	0x30
 400 00d3 14       		.byte	0x14
 401 00d4 87000000 		.4byte	0x87
 402 00d8 02       		.uleb128 0x2
 403 00d9 D7010000 		.4byte	.LASF18
 404 00dd 05       		.byte	0x5
 405 00de 2A       		.byte	0x2a
 406 00df 19       		.byte	0x19
 407 00e0 A8000000 		.4byte	0xa8
 408 00e4 02       		.uleb128 0x2
 409 00e5 F5000000 		.4byte	.LASF19
 410 00e9 05       		.byte	0x5
 411 00ea 2B       		.byte	0x2b
 412 00eb 19       		.byte	0x19
 413 00ec A8000000 		.4byte	0xa8
 414 00f0 02       		.uleb128 0x2
 415 00f1 71030000 		.4byte	.LASF20
 416 00f5 05       		.byte	0x5
 417 00f6 2C       		.byte	0x2c
 418 00f7 19       		.byte	0x19
 419 00f8 A8000000 		.4byte	0xa8
 420 00fc 02       		.uleb128 0x2
 421 00fd E2000000 		.4byte	.LASF21
 422 0101 05       		.byte	0x5
 423 0102 2D       		.byte	0x2d
 424 0103 19       		.byte	0x19
 425 0104 A8000000 		.4byte	0xa8
 426 0108 02       		.uleb128 0x2
 427 0109 8B030000 		.4byte	.LASF22
 428 010d 05       		.byte	0x5
 429 010e 2E       		.byte	0x2e
 430 010f 19       		.byte	0x19
 431 0110 CC000000 		.4byte	0xcc
 432 0114 02       		.uleb128 0x2
 433 0115 C9010000 		.4byte	.LASF23
 434 0119 05       		.byte	0x5
 435 011a 2F       		.byte	0x2f
 436 011b 19       		.byte	0x19
 437 011c C0000000 		.4byte	0xc0
 438 0120 02       		.uleb128 0x2
 439 0121 EB010000 		.4byte	.LASF24
 440 0125 05       		.byte	0x5
 441 0126 31       		.byte	0x31
 442 0127 19       		.byte	0x19
 443 0128 CC000000 		.4byte	0xcc
 444 012c 02       		.uleb128 0x2
 445 012d 72040000 		.4byte	.LASF25
 446 0131 05       		.byte	0x5
 447 0132 33       		.byte	0x33
ARM GAS  /tmp/ccPAOmlP.s 			page 9


 448 0133 19       		.byte	0x19
 449 0134 CC000000 		.4byte	0xcc
 450 0138 15       		.uleb128 0x15
 451 0139 2C010000 		.4byte	0x12c
 452 013d 02       		.uleb128 0x2
 453 013e 12040000 		.4byte	.LASF26
 454 0142 06       		.byte	0x6
 455 0143 23       		.byte	0x23
 456 0144 17       		.byte	0x17
 457 0145 49010000 		.4byte	0x149
 458 0149 08       		.uleb128 0x8
 459 014a 12040000 		.4byte	.LASF26
 460 014e 44       		.byte	0x44
 461 014f 07       		.byte	0x7
 462 0150 57       		.byte	0x57
 463 0151 08       		.byte	0x8
 464 0152 4E020000 		.4byte	0x24e
 465 0156 01       		.uleb128 0x1
 466 0157 F4030000 		.4byte	.LASF27
 467 015b 07       		.byte	0x7
 468 015c 58       		.byte	0x58
 469 015d 1A       		.byte	0x1a
 470 015e 71020000 		.4byte	0x271
 471 0162 00       		.byte	0
 472 0163 01       		.uleb128 0x1
 473 0164 84030000 		.4byte	.LASF28
 474 0168 07       		.byte	0x7
 475 0169 5A       		.byte	0x5a
 476 016a 1A       		.byte	0x1a
 477 016b 71020000 		.4byte	0x271
 478 016f 04       		.byte	0x4
 479 0170 01       		.uleb128 0x1
 480 0171 86000000 		.4byte	.LASF29
 481 0175 07       		.byte	0x7
 482 0176 5C       		.byte	0x5c
 483 0177 19       		.byte	0x19
 484 0178 08010000 		.4byte	0x108
 485 017c 08       		.byte	0x8
 486 017d 01       		.uleb128 0x1
 487 017e 2A050000 		.4byte	.LASF30
 488 0182 07       		.byte	0x7
 489 0183 5D       		.byte	0x5d
 490 0184 19       		.byte	0x19
 491 0185 3A030000 		.4byte	0x33a
 492 0189 0C       		.byte	0xc
 493 018a 01       		.uleb128 0x1
 494 018b 11010000 		.4byte	.LASF31
 495 018f 07       		.byte	0x7
 496 0190 5F       		.byte	0x5f
 497 0191 1A       		.byte	0x1a
 498 0192 71020000 		.4byte	0x271
 499 0196 10       		.byte	0x10
 500 0197 01       		.uleb128 0x1
 501 0198 2F030000 		.4byte	.LASF32
 502 019c 07       		.byte	0x7
 503 019d 60       		.byte	0x60
 504 019e 1A       		.byte	0x1a
ARM GAS  /tmp/ccPAOmlP.s 			page 10


 505 019f 71020000 		.4byte	0x271
 506 01a3 14       		.byte	0x14
 507 01a4 01       		.uleb128 0x1
 508 01a5 FE040000 		.4byte	.LASF33
 509 01a9 07       		.byte	0x7
 510 01aa 67       		.byte	0x67
 511 01ab 1A       		.byte	0x1a
 512 01ac 16050000 		.4byte	0x516
 513 01b0 18       		.byte	0x18
 514 01b1 01       		.uleb128 0x1
 515 01b2 C8030000 		.4byte	.LASF34
 516 01b6 07       		.byte	0x7
 517 01b7 72       		.byte	0x72
 518 01b8 19       		.byte	0x19
 519 01b9 E4000000 		.4byte	0xe4
 520 01bd 1C       		.byte	0x1c
 521 01be 01       		.uleb128 0x1
 522 01bf 0A040000 		.4byte	.LASF35
 523 01c3 07       		.byte	0x7
 524 01c4 76       		.byte	0x76
 525 01c5 19       		.byte	0x19
 526 01c6 D8000000 		.4byte	0xd8
 527 01ca 1D       		.byte	0x1d
 528 01cb 01       		.uleb128 0x1
 529 01cc BC040000 		.4byte	.LASF36
 530 01d0 07       		.byte	0x7
 531 01d1 7B       		.byte	0x7b
 532 01d2 19       		.byte	0x19
 533 01d3 F0000000 		.4byte	0xf0
 534 01d7 1E       		.byte	0x1e
 535 01d8 01       		.uleb128 0x1
 536 01d9 D0030000 		.4byte	.LASF37
 537 01dd 07       		.byte	0x7
 538 01de 81       		.byte	0x81
 539 01df 19       		.byte	0x19
 540 01e0 FC000000 		.4byte	0xfc
 541 01e4 1F       		.byte	0x1f
 542 01e5 01       		.uleb128 0x1
 543 01e6 91040000 		.4byte	.LASF38
 544 01ea 07       		.byte	0x7
 545 01eb 88       		.byte	0x88
 546 01ec 19       		.byte	0x19
 547 01ed 38010000 		.4byte	0x138
 548 01f1 20       		.byte	0x20
 549 01f2 03       		.uleb128 0x3
 550 01f3 705F7500 		.ascii	"p_u\000"
 551 01f7 07       		.byte	0x7
 552 01f8 AD       		.byte	0xad
 553 01f9 19       		.byte	0x19
 554 01fa E0040000 		.4byte	0x4e0
 555 01fe 24       		.byte	0x24
 556 01ff 01       		.uleb128 0x1
 557 0200 30050000 		.4byte	.LASF39
 558 0204 07       		.byte	0x7
 559 0205 B2       		.byte	0xb2
 560 0206 19       		.byte	0x19
 561 0207 98020000 		.4byte	0x298
ARM GAS  /tmp/ccPAOmlP.s 			page 11


 562 020b 28       		.byte	0x28
 563 020c 01       		.uleb128 0x1
 564 020d 9F040000 		.4byte	.LASF40
 565 0211 07       		.byte	0x7
 566 0212 B8       		.byte	0xb8
 567 0213 19       		.byte	0x19
 568 0214 76020000 		.4byte	0x276
 569 0218 2C       		.byte	0x2c
 570 0219 01       		.uleb128 0x1
 571 021a 15000000 		.4byte	.LASF41
 572 021e 07       		.byte	0x7
 573 021f BC       		.byte	0xbc
 574 0220 19       		.byte	0x19
 575 0221 14010000 		.4byte	0x114
 576 0225 34       		.byte	0x34
 577 0226 01       		.uleb128 0x1
 578 0227 26040000 		.4byte	.LASF42
 579 022b 07       		.byte	0x7
 580 022c C2       		.byte	0xc2
 581 022d 19       		.byte	0x19
 582 022e 20010000 		.4byte	0x120
 583 0232 38       		.byte	0x38
 584 0233 01       		.uleb128 0x1
 585 0234 B4030000 		.4byte	.LASF43
 586 0238 07       		.byte	0x7
 587 0239 C9       		.byte	0xc9
 588 023a 1A       		.byte	0x1a
 589 023b 27050000 		.4byte	0x527
 590 023f 3C       		.byte	0x3c
 591 0240 01       		.uleb128 0x1
 592 0241 7C040000 		.4byte	.LASF44
 593 0245 07       		.byte	0x7
 594 0246 CD       		.byte	0xcd
 595 0247 19       		.byte	0x19
 596 0248 08010000 		.4byte	0x108
 597 024c 40       		.byte	0x40
 598 024d 00       		.byte	0
 599 024e 09       		.uleb128 0x9
 600 024f 08       		.byte	0x8
 601 0250 06       		.byte	0x6
 602 0251 5A       		.byte	0x5a
 603 0252 71020000 		.4byte	0x271
 604 0256 01       		.uleb128 0x1
 605 0257 F4030000 		.4byte	.LASF27
 606 025b 06       		.byte	0x6
 607 025c 5B       		.byte	0x5b
 608 025d 1A       		.byte	0x1a
 609 025e 71020000 		.4byte	0x271
 610 0262 00       		.byte	0
 611 0263 01       		.uleb128 0x1
 612 0264 84030000 		.4byte	.LASF28
 613 0268 06       		.byte	0x6
 614 0269 5D       		.byte	0x5d
 615 026a 1A       		.byte	0x1a
 616 026b 71020000 		.4byte	0x271
 617 026f 04       		.byte	0x4
 618 0270 00       		.byte	0
ARM GAS  /tmp/ccPAOmlP.s 			page 12


 619 0271 06       		.uleb128 0x6
 620 0272 3D010000 		.4byte	0x13d
 621 0276 02       		.uleb128 0x2
 622 0277 3D030000 		.4byte	.LASF45
 623 027b 06       		.byte	0x6
 624 027c 5F       		.byte	0x5f
 625 027d 03       		.byte	0x3
 626 027e 4E020000 		.4byte	0x24e
 627 0282 09       		.uleb128 0x9
 628 0283 04       		.byte	0x4
 629 0284 06       		.byte	0x6
 630 0285 64       		.byte	0x64
 631 0286 98020000 		.4byte	0x298
 632 028a 01       		.uleb128 0x1
 633 028b F4030000 		.4byte	.LASF27
 634 028f 06       		.byte	0x6
 635 0290 66       		.byte	0x66
 636 0291 16       		.byte	0x16
 637 0292 71020000 		.4byte	0x271
 638 0296 00       		.byte	0
 639 0297 00       		.byte	0
 640 0298 02       		.uleb128 0x2
 641 0299 DF010000 		.4byte	.LASF46
 642 029d 06       		.byte	0x6
 643 029e 69       		.byte	0x69
 644 029f 03       		.byte	0x3
 645 02a0 82020000 		.4byte	0x282
 646 02a4 02       		.uleb128 0x2
 647 02a5 FD010000 		.4byte	.LASF47
 648 02a9 08       		.byte	0x8
 649 02aa 9D       		.byte	0x9d
 650 02ab 12       		.byte	0x12
 651 02ac CC000000 		.4byte	0xcc
 652 02b0 02       		.uleb128 0x2
 653 02b1 34010000 		.4byte	.LASF48
 654 02b5 08       		.byte	0x8
 655 02b6 A2       		.byte	0xa2
 656 02b7 0F       		.byte	0xf
 657 02b8 BC020000 		.4byte	0x2bc
 658 02bc 16       		.uleb128 0x16
 659 02bd 04       		.byte	0x4
 660 02be 08       		.uleb128 0x8
 661 02bf 98040000 		.4byte	.LASF49
 662 02c3 24       		.byte	0x24
 663 02c4 08       		.byte	0x8
 664 02c5 B9       		.byte	0xb9
 665 02c6 08       		.byte	0x8
 666 02c7 3A030000 		.4byte	0x33a
 667 02cb 03       		.uleb128 0x3
 668 02cc 723400   		.ascii	"r4\000"
 669 02cf 08       		.byte	0x8
 670 02d0 BA       		.byte	0xba
 671 02d1 11       		.byte	0x11
 672 02d2 B0020000 		.4byte	0x2b0
 673 02d6 00       		.byte	0
 674 02d7 03       		.uleb128 0x3
 675 02d8 723500   		.ascii	"r5\000"
ARM GAS  /tmp/ccPAOmlP.s 			page 13


 676 02db 08       		.byte	0x8
 677 02dc BB       		.byte	0xbb
 678 02dd 11       		.byte	0x11
 679 02de B0020000 		.4byte	0x2b0
 680 02e2 04       		.byte	0x4
 681 02e3 03       		.uleb128 0x3
 682 02e4 723600   		.ascii	"r6\000"
 683 02e7 08       		.byte	0x8
 684 02e8 BC       		.byte	0xbc
 685 02e9 11       		.byte	0x11
 686 02ea B0020000 		.4byte	0x2b0
 687 02ee 08       		.byte	0x8
 688 02ef 03       		.uleb128 0x3
 689 02f0 723700   		.ascii	"r7\000"
 690 02f3 08       		.byte	0x8
 691 02f4 BD       		.byte	0xbd
 692 02f5 11       		.byte	0x11
 693 02f6 B0020000 		.4byte	0x2b0
 694 02fa 0C       		.byte	0xc
 695 02fb 03       		.uleb128 0x3
 696 02fc 723800   		.ascii	"r8\000"
 697 02ff 08       		.byte	0x8
 698 0300 BE       		.byte	0xbe
 699 0301 11       		.byte	0x11
 700 0302 B0020000 		.4byte	0x2b0
 701 0306 10       		.byte	0x10
 702 0307 03       		.uleb128 0x3
 703 0308 723900   		.ascii	"r9\000"
 704 030b 08       		.byte	0x8
 705 030c BF       		.byte	0xbf
 706 030d 11       		.byte	0x11
 707 030e B0020000 		.4byte	0x2b0
 708 0312 14       		.byte	0x14
 709 0313 03       		.uleb128 0x3
 710 0314 72313000 		.ascii	"r10\000"
 711 0318 08       		.byte	0x8
 712 0319 C0       		.byte	0xc0
 713 031a 11       		.byte	0x11
 714 031b B0020000 		.4byte	0x2b0
 715 031f 18       		.byte	0x18
 716 0320 03       		.uleb128 0x3
 717 0321 72313100 		.ascii	"r11\000"
 718 0325 08       		.byte	0x8
 719 0326 C1       		.byte	0xc1
 720 0327 11       		.byte	0x11
 721 0328 B0020000 		.4byte	0x2b0
 722 032c 1C       		.byte	0x1c
 723 032d 03       		.uleb128 0x3
 724 032e 6C7200   		.ascii	"lr\000"
 725 0331 08       		.byte	0x8
 726 0332 C2       		.byte	0xc2
 727 0333 11       		.byte	0x11
 728 0334 B0020000 		.4byte	0x2b0
 729 0338 20       		.byte	0x20
 730 0339 00       		.byte	0
 731 033a 08       		.uleb128 0x8
 732 033b AE010000 		.4byte	.LASF50
ARM GAS  /tmp/ccPAOmlP.s 			page 14


 733 033f 04       		.byte	0x4
 734 0340 08       		.byte	0x8
 735 0341 CA       		.byte	0xca
 736 0342 08       		.byte	0x8
 737 0343 55030000 		.4byte	0x355
 738 0347 03       		.uleb128 0x3
 739 0348 72313300 		.ascii	"r13\000"
 740 034c 08       		.byte	0x8
 741 034d CB       		.byte	0xcb
 742 034e 12       		.byte	0x12
 743 034f 55030000 		.4byte	0x355
 744 0353 00       		.byte	0
 745 0354 00       		.byte	0
 746 0355 06       		.uleb128 0x6
 747 0356 BE020000 		.4byte	0x2be
 748 035a 02       		.uleb128 0x2
 749 035b 97010000 		.4byte	.LASF51
 750 035f 09       		.byte	0x9
 751 0360 4E       		.byte	0x4e
 752 0361 10       		.byte	0x10
 753 0362 66030000 		.4byte	0x366
 754 0366 06       		.uleb128 0x6
 755 0367 6B030000 		.4byte	0x36b
 756 036b 17       		.uleb128 0x17
 757 036c 76030000 		.4byte	0x376
 758 0370 05       		.uleb128 0x5
 759 0371 BC020000 		.4byte	0x2bc
 760 0375 00       		.byte	0
 761 0376 02       		.uleb128 0x2
 762 0377 4E040000 		.4byte	.LASF52
 763 037b 09       		.byte	0x9
 764 037c 53       		.byte	0x53
 765 037d 1D       		.byte	0x1d
 766 037e 82030000 		.4byte	0x382
 767 0382 08       		.uleb128 0x8
 768 0383 4E040000 		.4byte	.LASF52
 769 0387 14       		.byte	0x14
 770 0388 09       		.byte	0x9
 771 0389 5A       		.byte	0x5a
 772 038a 08       		.byte	0x8
 773 038b D1030000 		.4byte	0x3d1
 774 038f 01       		.uleb128 0x1
 775 0390 74010000 		.4byte	.LASF53
 776 0394 09       		.byte	0x9
 777 0395 5B       		.byte	0x5b
 778 0396 1A       		.byte	0x1a
 779 0397 D1030000 		.4byte	0x3d1
 780 039b 00       		.byte	0
 781 039c 01       		.uleb128 0x1
 782 039d 3D010000 		.4byte	.LASF54
 783 03a1 09       		.byte	0x9
 784 03a2 5D       		.byte	0x5d
 785 03a3 1A       		.byte	0x1a
 786 03a4 D1030000 		.4byte	0x3d1
 787 03a8 04       		.byte	0x4
 788 03a9 01       		.uleb128 0x1
 789 03aa 3E020000 		.4byte	.LASF55
ARM GAS  /tmp/ccPAOmlP.s 			page 15


 790 03ae 09       		.byte	0x9
 791 03af 5F       		.byte	0x5f
 792 03b0 19       		.byte	0x19
 793 03b1 2C010000 		.4byte	0x12c
 794 03b5 08       		.byte	0x8
 795 03b6 01       		.uleb128 0x1
 796 03b7 E5020000 		.4byte	.LASF56
 797 03bb 09       		.byte	0x9
 798 03bc 60       		.byte	0x60
 799 03bd 19       		.byte	0x19
 800 03be 5A030000 		.4byte	0x35a
 801 03c2 0C       		.byte	0xc
 802 03c3 01       		.uleb128 0x1
 803 03c4 AA040000 		.4byte	.LASF57
 804 03c8 09       		.byte	0x9
 805 03c9 62       		.byte	0x62
 806 03ca 1A       		.byte	0x1a
 807 03cb BC020000 		.4byte	0x2bc
 808 03cf 10       		.byte	0x10
 809 03d0 00       		.byte	0
 810 03d1 06       		.uleb128 0x6
 811 03d2 76030000 		.4byte	0x376
 812 03d6 09       		.uleb128 0x9
 813 03d7 10       		.byte	0x10
 814 03d8 09       		.byte	0x9
 815 03d9 6C       		.byte	0x6c
 816 03da 13040000 		.4byte	0x413
 817 03de 01       		.uleb128 0x1
 818 03df 74010000 		.4byte	.LASF53
 819 03e3 09       		.byte	0x9
 820 03e4 6D       		.byte	0x6d
 821 03e5 1A       		.byte	0x1a
 822 03e6 D1030000 		.4byte	0x3d1
 823 03ea 00       		.byte	0
 824 03eb 01       		.uleb128 0x1
 825 03ec 3D010000 		.4byte	.LASF54
 826 03f0 09       		.byte	0x9
 827 03f1 6F       		.byte	0x6f
 828 03f2 1A       		.byte	0x1a
 829 03f3 D1030000 		.4byte	0x3d1
 830 03f7 04       		.byte	0x4
 831 03f8 01       		.uleb128 0x1
 832 03f9 3E020000 		.4byte	.LASF55
 833 03fd 09       		.byte	0x9
 834 03fe 71       		.byte	0x71
 835 03ff 19       		.byte	0x19
 836 0400 2C010000 		.4byte	0x12c
 837 0404 08       		.byte	0x8
 838 0405 01       		.uleb128 0x1
 839 0406 05050000 		.4byte	.LASF58
 840 040a 09       		.byte	0x9
 841 040b 72       		.byte	0x72
 842 040c 19       		.byte	0x19
 843 040d 38010000 		.4byte	0x138
 844 0411 0C       		.byte	0xc
 845 0412 00       		.byte	0
 846 0413 02       		.uleb128 0x2
ARM GAS  /tmp/ccPAOmlP.s 			page 16


 847 0414 1B050000 		.4byte	.LASF59
 848 0418 09       		.byte	0x9
 849 0419 73       		.byte	0x73
 850 041a 03       		.byte	0x3
 851 041b D6030000 		.4byte	0x3d6
 852 041f 0A       		.uleb128 0xa
 853 0420 33000000 		.4byte	.LASF67
 854 0424 09       		.byte	0x9
 855 0425 D1       		.byte	0xd1
 856 0426 0F       		.byte	0xf
 857 0427 13040000 		.4byte	0x413
 858 042b 09       		.uleb128 0x9
 859 042c 1C       		.byte	0x1c
 860 042d 0A       		.byte	0xa
 861 042e 57       		.byte	0x57
 862 042f 82040000 		.4byte	0x482
 863 0433 01       		.uleb128 0x1
 864 0434 46040000 		.4byte	.LASF60
 865 0438 0A       		.byte	0xa
 866 0439 58       		.byte	0x58
 867 043a 19       		.byte	0x19
 868 043b 76020000 		.4byte	0x276
 869 043f 00       		.byte	0
 870 0440 01       		.uleb128 0x1
 871 0441 E6030000 		.4byte	.LASF61
 872 0445 0A       		.byte	0xa
 873 0446 59       		.byte	0x59
 874 0447 19       		.byte	0x19
 875 0448 08010000 		.4byte	0x108
 876 044c 08       		.byte	0x8
 877 044d 01       		.uleb128 0x1
 878 044e 37030000 		.4byte	.LASF62
 879 0452 0A       		.byte	0xa
 880 0453 5B       		.byte	0x5b
 881 0454 19       		.byte	0x19
 882 0455 3A030000 		.4byte	0x33a
 883 0459 0C       		.byte	0xc
 884 045a 01       		.uleb128 0x1
 885 045b CF010000 		.4byte	.LASF63
 886 045f 0A       		.byte	0xa
 887 0460 5E       		.byte	0x5e
 888 0461 1A       		.byte	0x1a
 889 0462 71020000 		.4byte	0x271
 890 0466 10       		.byte	0x10
 891 0467 01       		.uleb128 0x1
 892 0468 5C030000 		.4byte	.LASF64
 893 046c 0A       		.byte	0xa
 894 046d 5F       		.byte	0x5f
 895 046e 1A       		.byte	0x1a
 896 046f 71020000 		.4byte	0x271
 897 0473 14       		.byte	0x14
 898 0474 01       		.uleb128 0x1
 899 0475 52030000 		.4byte	.LASF65
 900 0479 0A       		.byte	0xa
 901 047a 62       		.byte	0x62
 902 047b 1A       		.byte	0x1a
 903 047c 71020000 		.4byte	0x271
ARM GAS  /tmp/ccPAOmlP.s 			page 17


 904 0480 18       		.byte	0x18
 905 0481 00       		.byte	0
 906 0482 02       		.uleb128 0x2
 907 0483 C3040000 		.4byte	.LASF66
 908 0487 0A       		.byte	0xa
 909 0488 64       		.byte	0x64
 910 0489 03       		.byte	0x3
 911 048a 2B040000 		.4byte	0x42b
 912 048e 0A       		.uleb128 0xa
 913 048f CD040000 		.4byte	.LASF68
 914 0493 0A       		.byte	0xa
 915 0494 68       		.byte	0x68
 916 0495 12       		.byte	0x12
 917 0496 82040000 		.4byte	0x482
 918 049a 08       		.uleb128 0x8
 919 049b F7010000 		.4byte	.LASF69
 920 049f 10       		.byte	0x10
 921 04a0 0B       		.byte	0xb
 922 04a1 25       		.byte	0x25
 923 04a2 10       		.byte	0x10
 924 04a3 CF040000 		.4byte	0x4cf
 925 04a7 01       		.uleb128 0x1
 926 04a8 DA000000 		.4byte	.LASF70
 927 04ac 0B       		.byte	0xb
 928 04ad 26       		.byte	0x26
 929 04ae 19       		.byte	0x19
 930 04af 76020000 		.4byte	0x276
 931 04b3 00       		.byte	0
 932 04b4 01       		.uleb128 0x1
 933 04b5 22050000 		.4byte	.LASF71
 934 04b9 0B       		.byte	0xb
 935 04ba 28       		.byte	0x28
 936 04bb 1A       		.byte	0x1a
 937 04bc 71020000 		.4byte	0x271
 938 04c0 08       		.byte	0x8
 939 04c1 01       		.uleb128 0x1
 940 04c2 6B040000 		.4byte	.LASF72
 941 04c6 0B       		.byte	0xb
 942 04c7 2A       		.byte	0x2a
 943 04c8 1A       		.byte	0x1a
 944 04c9 CF040000 		.4byte	0x4cf
 945 04cd 0C       		.byte	0xc
 946 04ce 00       		.byte	0
 947 04cf 06       		.uleb128 0x6
 948 04d0 9A040000 		.4byte	0x49a
 949 04d4 02       		.uleb128 0x2
 950 04d5 F7010000 		.4byte	.LASF69
 951 04d9 0B       		.byte	0xb
 952 04da 2C       		.byte	0x2c
 953 04db 03       		.byte	0x3
 954 04dc 9A040000 		.4byte	0x49a
 955 04e0 18       		.uleb128 0x18
 956 04e1 04       		.byte	0x4
 957 04e2 07       		.byte	0x7
 958 04e3 8F       		.byte	0x8f
 959 04e4 03       		.byte	0x3
 960 04e5 16050000 		.4byte	0x516
ARM GAS  /tmp/ccPAOmlP.s 			page 18


 961 04e9 0B       		.uleb128 0xb
 962 04ea 22000000 		.4byte	.LASF73
 963 04ee 96       		.byte	0x96
 964 04ef 19       		.byte	0x19
 965 04f0 14010000 		.4byte	0x114
 966 04f4 0B       		.uleb128 0xb
 967 04f5 72000000 		.4byte	.LASF74
 968 04f9 9D       		.byte	0x9d
 969 04fa 19       		.byte	0x19
 970 04fb 14010000 		.4byte	0x114
 971 04ff 0B       		.uleb128 0xb
 972 0500 F7040000 		.4byte	.LASF75
 973 0504 A4       		.byte	0xa4
 974 0505 1A       		.byte	0x1a
 975 0506 BC020000 		.4byte	0x2bc
 976 050a 0B       		.uleb128 0xb
 977 050b ED030000 		.4byte	.LASF76
 978 050f AB       		.byte	0xab
 979 0510 19       		.byte	0x19
 980 0511 20010000 		.4byte	0x120
 981 0515 00       		.byte	0
 982 0516 06       		.uleb128 0x6
 983 0517 22050000 		.4byte	0x522
 984 051b 04       		.uleb128 0x4
 985 051c 01       		.byte	0x1
 986 051d 08       		.byte	0x8
 987 051e 5B040000 		.4byte	.LASF77
 988 0522 0E       		.uleb128 0xe
 989 0523 1B050000 		.4byte	0x51b
 990 0527 06       		.uleb128 0x6
 991 0528 D4040000 		.4byte	0x4d4
 992 052c 02       		.uleb128 0x2
 993 052d 00000000 		.4byte	.LASF78
 994 0531 07       		.byte	0x7
 995 0532 DE       		.byte	0xde
 996 0533 11       		.byte	0x11
 997 0534 38050000 		.4byte	0x538
 998 0538 06       		.uleb128 0x6
 999 0539 3D050000 		.4byte	0x53d
 1000 053d 19       		.uleb128 0x19
 1001 053e 14010000 		.4byte	0x114
 1002 0542 4C050000 		.4byte	0x54c
 1003 0546 05       		.uleb128 0x5
 1004 0547 BC020000 		.4byte	0x2bc
 1005 054b 00       		.byte	0
 1006 054c 09       		.uleb128 0x9
 1007 054d 16       		.byte	0x16
 1008 054e 0C       		.byte	0xc
 1009 054f 25       		.byte	0x25
 1010 0550 3F060000 		.4byte	0x63f
 1011 0554 01       		.uleb128 0x1
 1012 0555 A0010000 		.4byte	.LASF79
 1013 0559 0C       		.byte	0xc
 1014 055a 26       		.byte	0x26
 1015 055b 0D       		.byte	0xd
 1016 055c 3F060000 		.4byte	0x63f
 1017 0560 00       		.byte	0
ARM GAS  /tmp/ccPAOmlP.s 			page 19


 1018 0561 01       		.uleb128 0x1
 1019 0562 2A020000 		.4byte	.LASF80
 1020 0566 0C       		.byte	0xc
 1021 0567 27       		.byte	0x27
 1022 0568 0D       		.byte	0xd
 1023 0569 A8000000 		.4byte	0xa8
 1024 056d 04       		.byte	0x4
 1025 056e 01       		.uleb128 0x1
 1026 056f 4A030000 		.4byte	.LASF81
 1027 0573 0C       		.byte	0xc
 1028 0574 28       		.byte	0x28
 1029 0575 0D       		.byte	0xd
 1030 0576 A8000000 		.4byte	0xa8
 1031 057a 05       		.byte	0x5
 1032 057b 01       		.uleb128 0x1
 1033 057c 10050000 		.4byte	.LASF82
 1034 0580 0C       		.byte	0xc
 1035 0581 29       		.byte	0x29
 1036 0582 0D       		.byte	0xd
 1037 0583 B4000000 		.4byte	0xb4
 1038 0587 06       		.byte	0x6
 1039 0588 01       		.uleb128 0x1
 1040 0589 79030000 		.4byte	.LASF83
 1041 058d 0C       		.byte	0xc
 1042 058e 2A       		.byte	0x2a
 1043 058f 0D       		.byte	0xd
 1044 0590 A8000000 		.4byte	0xa8
 1045 0594 08       		.byte	0x8
 1046 0595 01       		.uleb128 0x1
 1047 0596 ED020000 		.4byte	.LASF84
 1048 059a 0C       		.byte	0xc
 1049 059b 2B       		.byte	0x2b
 1050 059c 0D       		.byte	0xd
 1051 059d A8000000 		.4byte	0xa8
 1052 05a1 09       		.byte	0x9
 1053 05a2 01       		.uleb128 0x1
 1054 05a3 64000000 		.4byte	.LASF85
 1055 05a7 0C       		.byte	0xc
 1056 05a8 2C       		.byte	0x2c
 1057 05a9 0D       		.byte	0xd
 1058 05aa A8000000 		.4byte	0xa8
 1059 05ae 0A       		.byte	0xa
 1060 05af 01       		.uleb128 0x1
 1061 05b0 3A040000 		.4byte	.LASF86
 1062 05b4 0C       		.byte	0xc
 1063 05b5 2D       		.byte	0x2d
 1064 05b6 0D       		.byte	0xd
 1065 05b7 A8000000 		.4byte	0xa8
 1066 05bb 0B       		.byte	0xb
 1067 05bc 01       		.uleb128 0x1
 1068 05bd B1040000 		.4byte	.LASF87
 1069 05c1 0C       		.byte	0xc
 1070 05c2 2E       		.byte	0x2e
 1071 05c3 0D       		.byte	0xd
 1072 05c4 A8000000 		.4byte	0xa8
 1073 05c8 0C       		.byte	0xc
 1074 05c9 01       		.uleb128 0x1
ARM GAS  /tmp/ccPAOmlP.s 			page 20


 1075 05ca 19040000 		.4byte	.LASF88
 1076 05ce 0C       		.byte	0xc
 1077 05cf 2F       		.byte	0x2f
 1078 05d0 0D       		.byte	0xd
 1079 05d1 A8000000 		.4byte	0xa8
 1080 05d5 0D       		.byte	0xd
 1081 05d6 01       		.uleb128 0x1
 1082 05d7 08000000 		.4byte	.LASF89
 1083 05db 0C       		.byte	0xc
 1084 05dc 30       		.byte	0x30
 1085 05dd 0D       		.byte	0xd
 1086 05de A8000000 		.4byte	0xa8
 1087 05e2 0E       		.byte	0xe
 1088 05e3 01       		.uleb128 0x1
 1089 05e4 F9020000 		.4byte	.LASF90
 1090 05e8 0C       		.byte	0xc
 1091 05e9 31       		.byte	0x31
 1092 05ea 0D       		.byte	0xd
 1093 05eb A8000000 		.4byte	0xa8
 1094 05ef 0F       		.byte	0xf
 1095 05f0 01       		.uleb128 0x1
 1096 05f1 BD000000 		.4byte	.LASF91
 1097 05f5 0C       		.byte	0xc
 1098 05f6 32       		.byte	0x32
 1099 05f7 0D       		.byte	0xd
 1100 05f8 A8000000 		.4byte	0xa8
 1101 05fc 10       		.byte	0x10
 1102 05fd 01       		.uleb128 0x1
 1103 05fe 8D000000 		.4byte	.LASF92
 1104 0602 0C       		.byte	0xc
 1105 0603 34       		.byte	0x34
 1106 0604 0D       		.byte	0xd
 1107 0605 A8000000 		.4byte	0xa8
 1108 0609 11       		.byte	0x11
 1109 060a 01       		.uleb128 0x1
 1110 060b CD000000 		.4byte	.LASF93
 1111 060f 0C       		.byte	0xc
 1112 0610 35       		.byte	0x35
 1113 0611 0D       		.byte	0xd
 1114 0612 A8000000 		.4byte	0xa8
 1115 0616 12       		.byte	0x12
 1116 0617 01       		.uleb128 0x1
 1117 0618 32020000 		.4byte	.LASF94
 1118 061c 0C       		.byte	0xc
 1119 061d 36       		.byte	0x36
 1120 061e 0D       		.byte	0xd
 1121 061f A8000000 		.4byte	0xa8
 1122 0623 13       		.byte	0x13
 1123 0624 01       		.uleb128 0x1
 1124 0625 FB030000 		.4byte	.LASF95
 1125 0629 0C       		.byte	0xc
 1126 062a 37       		.byte	0x37
 1127 062b 0D       		.byte	0xd
 1128 062c A8000000 		.4byte	0xa8
 1129 0630 14       		.byte	0x14
 1130 0631 01       		.uleb128 0x1
 1131 0632 DA030000 		.4byte	.LASF96
ARM GAS  /tmp/ccPAOmlP.s 			page 21


 1132 0636 0C       		.byte	0xc
 1133 0637 39       		.byte	0x39
 1134 0638 0D       		.byte	0xd
 1135 0639 A8000000 		.4byte	0xa8
 1136 063d 15       		.byte	0x15
 1137 063e 00       		.byte	0
 1138 063f 0F       		.uleb128 0xf
 1139 0640 1B050000 		.4byte	0x51b
 1140 0644 4F060000 		.4byte	0x64f
 1141 0648 10       		.uleb128 0x10
 1142 0649 39000000 		.4byte	0x39
 1143 064d 03       		.byte	0x3
 1144 064e 00       		.byte	0
 1145 064f 02       		.uleb128 0x2
 1146 0650 07010000 		.4byte	.LASF97
 1147 0654 0C       		.byte	0xc
 1148 0655 3A       		.byte	0x3a
 1149 0656 03       		.byte	0x3
 1150 0657 4C050000 		.4byte	0x54c
 1151 065b 0E       		.uleb128 0xe
 1152 065c 4F060000 		.4byte	0x64f
 1153 0660 0A       		.uleb128 0xa
 1154 0661 8E010000 		.4byte	.LASF98
 1155 0665 0C       		.byte	0xc
 1156 0666 77       		.byte	0x77
 1157 0667 1D       		.byte	0x1d
 1158 0668 5B060000 		.4byte	0x65b
 1159 066c 0F       		.uleb128 0xf
 1160 066d A4020000 		.4byte	0x2a4
 1161 0671 7C060000 		.4byte	0x67c
 1162 0675 10       		.uleb128 0x10
 1163 0676 39000000 		.4byte	0x39
 1164 067a 26       		.byte	0x26
 1165 067b 00       		.byte	0
 1166 067c 0A       		.uleb128 0xa
 1167 067d 19010000 		.4byte	.LASF99
 1168 0681 0D       		.byte	0xd
 1169 0682 82       		.byte	0x82
 1170 0683 08       		.byte	0x8
 1171 0684 6C060000 		.4byte	0x66c
 1172 0688 1A       		.uleb128 0x1a
 1173 0689 7C060000 		.4byte	0x67c
 1174 068d 01       		.byte	0x1
 1175 068e 2A       		.byte	0x2a
 1176 068f 01       		.byte	0x1
 1177 0690 05       		.uleb128 0x5
 1178 0691 03       		.byte	0x3
 1179 0692 00000000 		.4byte	_idle_thread_wa
 1180 0696 11       		.uleb128 0x11
 1181 0697 08020000 		.4byte	.LASF100
 1182 069b 6401     		.2byte	0x164
 1183 069d 71020000 		.4byte	0x271
 1184 06a1 BF060000 		.4byte	0x6bf
 1185 06a5 05       		.uleb128 0x5
 1186 06a6 BC020000 		.4byte	0x2bc
 1187 06aa 05       		.uleb128 0x5
 1188 06ab 2D000000 		.4byte	0x2d
ARM GAS  /tmp/ccPAOmlP.s 			page 22


 1189 06af 05       		.uleb128 0x5
 1190 06b0 08010000 		.4byte	0x108
 1191 06b4 05       		.uleb128 0x5
 1192 06b5 2C050000 		.4byte	0x52c
 1193 06b9 05       		.uleb128 0x5
 1194 06ba BC020000 		.4byte	0x2bc
 1195 06be 00       		.byte	0
 1196 06bf 11       		.uleb128 0x11
 1197 06c0 67010000 		.4byte	.LASF101
 1198 06c4 5E01     		.2byte	0x15e
 1199 06c6 71020000 		.4byte	0x271
 1200 06ca D9060000 		.4byte	0x6d9
 1201 06ce 05       		.uleb128 0x5
 1202 06cf 71020000 		.4byte	0x271
 1203 06d3 05       		.uleb128 0x5
 1204 06d4 08010000 		.4byte	0x108
 1205 06d8 00       		.byte	0
 1206 06d9 0C       		.uleb128 0xc
 1207 06da 4F010000 		.4byte	.LASF102
 1208 06de 0E       		.byte	0xe
 1209 06df 4E       		.byte	0x4e
 1210 06e0 0C       		.uleb128 0xc
 1211 06e1 A9030000 		.4byte	.LASF103
 1212 06e5 0F       		.byte	0xf
 1213 06e6 4A       		.byte	0x4a
 1214 06e7 0C       		.uleb128 0xc
 1215 06e8 9A000000 		.4byte	.LASF104
 1216 06ec 09       		.byte	0x9
 1217 06ed D9       		.byte	0xd9
 1218 06ee 0C       		.uleb128 0xc
 1219 06ef 1A020000 		.4byte	.LASF105
 1220 06f3 0A       		.byte	0xa
 1221 06f4 87       		.byte	0x87
 1222 06f5 1B       		.uleb128 0x1b
 1223 06f6 3A000000 		.4byte	.LASF106
 1224 06fa 01       		.byte	0x1
 1225 06fb 82       		.byte	0x82
 1226 06fc 06       		.byte	0x6
 1227 06fd 00000000 		.4byte	.LFB9
 1228 0701 90000000 		.4byte	.LFE9-.LFB9
 1229 0705 01       		.uleb128 0x1
 1230 0706 9C       		.byte	0x9c
 1231 0707 3F070000 		.4byte	0x73f
 1232 070b 1C       		.uleb128 0x1c
 1233 070c 44000000 		.4byte	.LBB2
 1234 0710 4C000000 		.4byte	.LBE2-.LBB2
 1235 0714 12       		.uleb128 0x12
 1236 0715 76747000 		.ascii	"vtp\000"
 1237 0719 8F       		.byte	0x8f
 1238 071a D1030000 		.4byte	0x3d1
 1239 071e 10000000 		.4byte	.LLST0
 1240 0722 0C000000 		.4byte	.LVUS0
 1241 0726 1D       		.uleb128 0x1d
 1242 0727 0C000000 		.4byte	.LLRL1
 1243 072b 12       		.uleb128 0x12
 1244 072c 666E00   		.ascii	"fn\000"
 1245 072f 8F       		.byte	0x8f
ARM GAS  /tmp/ccPAOmlP.s 			page 23


 1246 0730 5A030000 		.4byte	0x35a
 1247 0734 22000000 		.4byte	.LLST2
 1248 0738 20000000 		.4byte	.LVUS2
 1249 073c 00       		.byte	0
 1250 073d 00       		.byte	0
 1251 073e 00       		.byte	0
 1252 073f 1E       		.uleb128 0x1e
 1253 0740 45010000 		.4byte	.LASF107
 1254 0744 01       		.byte	0x1
 1255 0745 4D       		.byte	0x4d
 1256 0746 06       		.byte	0x6
 1257 0747 00000000 		.4byte	.LFB8
 1258 074b 78000000 		.4byte	.LFE8-.LFB8
 1259 074f 01       		.uleb128 0x1
 1260 0750 9C       		.byte	0x9c
 1261 0751 D6070000 		.4byte	0x7d6
 1262 0755 1F       		.uleb128 0x1f
 1263 0756 7B000000 		.4byte	.LASF111
 1264 075a 01       		.byte	0x1
 1265 075b 4E       		.byte	0x4e
 1266 075c 11       		.byte	0x11
 1267 075d 3D010000 		.4byte	0x13d
 1268 0761 05       		.uleb128 0x5
 1269 0762 03       		.byte	0x3
 1270 0763 00000000 		.4byte	mainthread.0
 1271 0767 0D       		.uleb128 0xd
 1272 0768 0C000000 		.4byte	.LVL1
 1273 076c EE060000 		.4byte	0x6ee
 1274 0770 0D       		.uleb128 0xd
 1275 0771 10000000 		.4byte	.LVL2
 1276 0775 E7060000 		.4byte	0x6e7
 1277 0779 0D       		.uleb128 0xd
 1278 077a 14000000 		.4byte	.LVL3
 1279 077e E0060000 		.4byte	0x6e0
 1280 0782 0D       		.uleb128 0xd
 1281 0783 18000000 		.4byte	.LVL4
 1282 0787 D9060000 		.4byte	0x6d9
 1283 078b 20       		.uleb128 0x20
 1284 078c 24000000 		.4byte	.LVL5
 1285 0790 BF060000 		.4byte	0x6bf
 1286 0794 A8070000 		.4byte	0x7a8
 1287 0798 07       		.uleb128 0x7
 1288 0799 01       		.uleb128 0x1
 1289 079a 50       		.byte	0x50
 1290 079b 05       		.uleb128 0x5
 1291 079c 03       		.byte	0x3
 1292 079d 00000000 		.4byte	.LANCHOR0
 1293 07a1 07       		.uleb128 0x7
 1294 07a2 01       		.uleb128 0x1
 1295 07a3 51       		.byte	0x51
 1296 07a4 02       		.uleb128 0x2
 1297 07a5 08       		.byte	0x8
 1298 07a6 40       		.byte	0x40
 1299 07a7 00       		.byte	0
 1300 07a8 21       		.uleb128 0x21
 1301 07a9 5C000000 		.4byte	.LVL6
 1302 07ad 96060000 		.4byte	0x696
ARM GAS  /tmp/ccPAOmlP.s 			page 24


 1303 07b1 07       		.uleb128 0x7
 1304 07b2 01       		.uleb128 0x1
 1305 07b3 50       		.byte	0x50
 1306 07b4 05       		.uleb128 0x5
 1307 07b5 03       		.byte	0x3
 1308 07b6 00000000 		.4byte	.LANCHOR1
 1309 07ba 07       		.uleb128 0x7
 1310 07bb 01       		.uleb128 0x1
 1311 07bc 51       		.byte	0x51
 1312 07bd 02       		.uleb128 0x2
 1313 07be 08       		.byte	0x8
 1314 07bf 9C       		.byte	0x9c
 1315 07c0 07       		.uleb128 0x7
 1316 07c1 01       		.uleb128 0x1
 1317 07c2 52       		.byte	0x52
 1318 07c3 01       		.uleb128 0x1
 1319 07c4 31       		.byte	0x31
 1320 07c5 07       		.uleb128 0x7
 1321 07c6 01       		.uleb128 0x1
 1322 07c7 53       		.byte	0x53
 1323 07c8 05       		.uleb128 0x5
 1324 07c9 03       		.byte	0x3
 1325 07ca 00000000 		.4byte	_idle_thread
 1326 07ce 07       		.uleb128 0x7
 1327 07cf 02       		.uleb128 0x2
 1328 07d0 7D       		.byte	0x7d
 1329 07d1 00       		.sleb128 0
 1330 07d2 01       		.uleb128 0x1
 1331 07d3 30       		.byte	0x30
 1332 07d4 00       		.byte	0
 1333 07d5 00       		.byte	0
 1334 07d6 22       		.uleb128 0x22
 1335 07d7 64030000 		.4byte	.LASF112
 1336 07db 01       		.byte	0x1
 1337 07dc 36       		.byte	0x36
 1338 07dd 06       		.byte	0x6
 1339 07de 00000000 		.4byte	.LFB7
 1340 07e2 20000000 		.4byte	.LFE7-.LFB7
 1341 07e6 01       		.uleb128 0x1
 1342 07e7 9C       		.byte	0x9c
 1343 07e8 23       		.uleb128 0x23
 1344 07e9 7000     		.ascii	"p\000"
 1345 07eb 01       		.byte	0x1
 1346 07ec 36       		.byte	0x36
 1347 07ed 19       		.byte	0x19
 1348 07ee BC020000 		.4byte	0x2bc
 1349 07f2 01       		.uleb128 0x1
 1350 07f3 50       		.byte	0x50
 1351 07f4 00       		.byte	0
 1352 07f5 00       		.byte	0
 1353              		.section	.debug_abbrev,"",%progbits
 1354              	.Ldebug_abbrev0:
 1355 0000 01       		.uleb128 0x1
 1356 0001 0D       		.uleb128 0xd
 1357 0002 00       		.byte	0
 1358 0003 03       		.uleb128 0x3
 1359 0004 0E       		.uleb128 0xe
ARM GAS  /tmp/ccPAOmlP.s 			page 25


 1360 0005 3A       		.uleb128 0x3a
 1361 0006 0B       		.uleb128 0xb
 1362 0007 3B       		.uleb128 0x3b
 1363 0008 0B       		.uleb128 0xb
 1364 0009 39       		.uleb128 0x39
 1365 000a 0B       		.uleb128 0xb
 1366 000b 49       		.uleb128 0x49
 1367 000c 13       		.uleb128 0x13
 1368 000d 38       		.uleb128 0x38
 1369 000e 0B       		.uleb128 0xb
 1370 000f 00       		.byte	0
 1371 0010 00       		.byte	0
 1372 0011 02       		.uleb128 0x2
 1373 0012 16       		.uleb128 0x16
 1374 0013 00       		.byte	0
 1375 0014 03       		.uleb128 0x3
 1376 0015 0E       		.uleb128 0xe
 1377 0016 3A       		.uleb128 0x3a
 1378 0017 0B       		.uleb128 0xb
 1379 0018 3B       		.uleb128 0x3b
 1380 0019 0B       		.uleb128 0xb
 1381 001a 39       		.uleb128 0x39
 1382 001b 0B       		.uleb128 0xb
 1383 001c 49       		.uleb128 0x49
 1384 001d 13       		.uleb128 0x13
 1385 001e 00       		.byte	0
 1386 001f 00       		.byte	0
 1387 0020 03       		.uleb128 0x3
 1388 0021 0D       		.uleb128 0xd
 1389 0022 00       		.byte	0
 1390 0023 03       		.uleb128 0x3
 1391 0024 08       		.uleb128 0x8
 1392 0025 3A       		.uleb128 0x3a
 1393 0026 0B       		.uleb128 0xb
 1394 0027 3B       		.uleb128 0x3b
 1395 0028 0B       		.uleb128 0xb
 1396 0029 39       		.uleb128 0x39
 1397 002a 0B       		.uleb128 0xb
 1398 002b 49       		.uleb128 0x49
 1399 002c 13       		.uleb128 0x13
 1400 002d 38       		.uleb128 0x38
 1401 002e 0B       		.uleb128 0xb
 1402 002f 00       		.byte	0
 1403 0030 00       		.byte	0
 1404 0031 04       		.uleb128 0x4
 1405 0032 24       		.uleb128 0x24
 1406 0033 00       		.byte	0
 1407 0034 0B       		.uleb128 0xb
 1408 0035 0B       		.uleb128 0xb
 1409 0036 3E       		.uleb128 0x3e
 1410 0037 0B       		.uleb128 0xb
 1411 0038 03       		.uleb128 0x3
 1412 0039 0E       		.uleb128 0xe
 1413 003a 00       		.byte	0
 1414 003b 00       		.byte	0
 1415 003c 05       		.uleb128 0x5
 1416 003d 05       		.uleb128 0x5
ARM GAS  /tmp/ccPAOmlP.s 			page 26


 1417 003e 00       		.byte	0
 1418 003f 49       		.uleb128 0x49
 1419 0040 13       		.uleb128 0x13
 1420 0041 00       		.byte	0
 1421 0042 00       		.byte	0
 1422 0043 06       		.uleb128 0x6
 1423 0044 0F       		.uleb128 0xf
 1424 0045 00       		.byte	0
 1425 0046 0B       		.uleb128 0xb
 1426 0047 21       		.uleb128 0x21
 1427 0048 04       		.sleb128 4
 1428 0049 49       		.uleb128 0x49
 1429 004a 13       		.uleb128 0x13
 1430 004b 00       		.byte	0
 1431 004c 00       		.byte	0
 1432 004d 07       		.uleb128 0x7
 1433 004e 49       		.uleb128 0x49
 1434 004f 00       		.byte	0
 1435 0050 02       		.uleb128 0x2
 1436 0051 18       		.uleb128 0x18
 1437 0052 7E       		.uleb128 0x7e
 1438 0053 18       		.uleb128 0x18
 1439 0054 00       		.byte	0
 1440 0055 00       		.byte	0
 1441 0056 08       		.uleb128 0x8
 1442 0057 13       		.uleb128 0x13
 1443 0058 01       		.byte	0x1
 1444 0059 03       		.uleb128 0x3
 1445 005a 0E       		.uleb128 0xe
 1446 005b 0B       		.uleb128 0xb
 1447 005c 0B       		.uleb128 0xb
 1448 005d 3A       		.uleb128 0x3a
 1449 005e 0B       		.uleb128 0xb
 1450 005f 3B       		.uleb128 0x3b
 1451 0060 0B       		.uleb128 0xb
 1452 0061 39       		.uleb128 0x39
 1453 0062 0B       		.uleb128 0xb
 1454 0063 01       		.uleb128 0x1
 1455 0064 13       		.uleb128 0x13
 1456 0065 00       		.byte	0
 1457 0066 00       		.byte	0
 1458 0067 09       		.uleb128 0x9
 1459 0068 13       		.uleb128 0x13
 1460 0069 01       		.byte	0x1
 1461 006a 0B       		.uleb128 0xb
 1462 006b 0B       		.uleb128 0xb
 1463 006c 3A       		.uleb128 0x3a
 1464 006d 0B       		.uleb128 0xb
 1465 006e 3B       		.uleb128 0x3b
 1466 006f 0B       		.uleb128 0xb
 1467 0070 39       		.uleb128 0x39
 1468 0071 21       		.uleb128 0x21
 1469 0072 09       		.sleb128 9
 1470 0073 01       		.uleb128 0x1
 1471 0074 13       		.uleb128 0x13
 1472 0075 00       		.byte	0
 1473 0076 00       		.byte	0
ARM GAS  /tmp/ccPAOmlP.s 			page 27


 1474 0077 0A       		.uleb128 0xa
 1475 0078 34       		.uleb128 0x34
 1476 0079 00       		.byte	0
 1477 007a 03       		.uleb128 0x3
 1478 007b 0E       		.uleb128 0xe
 1479 007c 3A       		.uleb128 0x3a
 1480 007d 0B       		.uleb128 0xb
 1481 007e 3B       		.uleb128 0x3b
 1482 007f 0B       		.uleb128 0xb
 1483 0080 39       		.uleb128 0x39
 1484 0081 0B       		.uleb128 0xb
 1485 0082 49       		.uleb128 0x49
 1486 0083 13       		.uleb128 0x13
 1487 0084 3F       		.uleb128 0x3f
 1488 0085 19       		.uleb128 0x19
 1489 0086 3C       		.uleb128 0x3c
 1490 0087 19       		.uleb128 0x19
 1491 0088 00       		.byte	0
 1492 0089 00       		.byte	0
 1493 008a 0B       		.uleb128 0xb
 1494 008b 0D       		.uleb128 0xd
 1495 008c 00       		.byte	0
 1496 008d 03       		.uleb128 0x3
 1497 008e 0E       		.uleb128 0xe
 1498 008f 3A       		.uleb128 0x3a
 1499 0090 21       		.uleb128 0x21
 1500 0091 07       		.sleb128 7
 1501 0092 3B       		.uleb128 0x3b
 1502 0093 0B       		.uleb128 0xb
 1503 0094 39       		.uleb128 0x39
 1504 0095 0B       		.uleb128 0xb
 1505 0096 49       		.uleb128 0x49
 1506 0097 13       		.uleb128 0x13
 1507 0098 00       		.byte	0
 1508 0099 00       		.byte	0
 1509 009a 0C       		.uleb128 0xc
 1510 009b 2E       		.uleb128 0x2e
 1511 009c 00       		.byte	0
 1512 009d 3F       		.uleb128 0x3f
 1513 009e 19       		.uleb128 0x19
 1514 009f 03       		.uleb128 0x3
 1515 00a0 0E       		.uleb128 0xe
 1516 00a1 3A       		.uleb128 0x3a
 1517 00a2 0B       		.uleb128 0xb
 1518 00a3 3B       		.uleb128 0x3b
 1519 00a4 0B       		.uleb128 0xb
 1520 00a5 39       		.uleb128 0x39
 1521 00a6 21       		.uleb128 0x21
 1522 00a7 08       		.sleb128 8
 1523 00a8 27       		.uleb128 0x27
 1524 00a9 19       		.uleb128 0x19
 1525 00aa 3C       		.uleb128 0x3c
 1526 00ab 19       		.uleb128 0x19
 1527 00ac 00       		.byte	0
 1528 00ad 00       		.byte	0
 1529 00ae 0D       		.uleb128 0xd
 1530 00af 48       		.uleb128 0x48
ARM GAS  /tmp/ccPAOmlP.s 			page 28


 1531 00b0 00       		.byte	0
 1532 00b1 7D       		.uleb128 0x7d
 1533 00b2 01       		.uleb128 0x1
 1534 00b3 7F       		.uleb128 0x7f
 1535 00b4 13       		.uleb128 0x13
 1536 00b5 00       		.byte	0
 1537 00b6 00       		.byte	0
 1538 00b7 0E       		.uleb128 0xe
 1539 00b8 26       		.uleb128 0x26
 1540 00b9 00       		.byte	0
 1541 00ba 49       		.uleb128 0x49
 1542 00bb 13       		.uleb128 0x13
 1543 00bc 00       		.byte	0
 1544 00bd 00       		.byte	0
 1545 00be 0F       		.uleb128 0xf
 1546 00bf 01       		.uleb128 0x1
 1547 00c0 01       		.byte	0x1
 1548 00c1 49       		.uleb128 0x49
 1549 00c2 13       		.uleb128 0x13
 1550 00c3 01       		.uleb128 0x1
 1551 00c4 13       		.uleb128 0x13
 1552 00c5 00       		.byte	0
 1553 00c6 00       		.byte	0
 1554 00c7 10       		.uleb128 0x10
 1555 00c8 21       		.uleb128 0x21
 1556 00c9 00       		.byte	0
 1557 00ca 49       		.uleb128 0x49
 1558 00cb 13       		.uleb128 0x13
 1559 00cc 2F       		.uleb128 0x2f
 1560 00cd 0B       		.uleb128 0xb
 1561 00ce 00       		.byte	0
 1562 00cf 00       		.byte	0
 1563 00d0 11       		.uleb128 0x11
 1564 00d1 2E       		.uleb128 0x2e
 1565 00d2 01       		.byte	0x1
 1566 00d3 3F       		.uleb128 0x3f
 1567 00d4 19       		.uleb128 0x19
 1568 00d5 03       		.uleb128 0x3
 1569 00d6 0E       		.uleb128 0xe
 1570 00d7 3A       		.uleb128 0x3a
 1571 00d8 21       		.uleb128 0x21
 1572 00d9 07       		.sleb128 7
 1573 00da 3B       		.uleb128 0x3b
 1574 00db 05       		.uleb128 0x5
 1575 00dc 39       		.uleb128 0x39
 1576 00dd 21       		.uleb128 0x21
 1577 00de 0B       		.sleb128 11
 1578 00df 27       		.uleb128 0x27
 1579 00e0 19       		.uleb128 0x19
 1580 00e1 49       		.uleb128 0x49
 1581 00e2 13       		.uleb128 0x13
 1582 00e3 3C       		.uleb128 0x3c
 1583 00e4 19       		.uleb128 0x19
 1584 00e5 01       		.uleb128 0x1
 1585 00e6 13       		.uleb128 0x13
 1586 00e7 00       		.byte	0
 1587 00e8 00       		.byte	0
ARM GAS  /tmp/ccPAOmlP.s 			page 29


 1588 00e9 12       		.uleb128 0x12
 1589 00ea 34       		.uleb128 0x34
 1590 00eb 00       		.byte	0
 1591 00ec 03       		.uleb128 0x3
 1592 00ed 08       		.uleb128 0x8
 1593 00ee 3A       		.uleb128 0x3a
 1594 00ef 21       		.uleb128 0x21
 1595 00f0 01       		.sleb128 1
 1596 00f1 3B       		.uleb128 0x3b
 1597 00f2 0B       		.uleb128 0xb
 1598 00f3 39       		.uleb128 0x39
 1599 00f4 21       		.uleb128 0x21
 1600 00f5 03       		.sleb128 3
 1601 00f6 49       		.uleb128 0x49
 1602 00f7 13       		.uleb128 0x13
 1603 00f8 02       		.uleb128 0x2
 1604 00f9 17       		.uleb128 0x17
 1605 00fa B742     		.uleb128 0x2137
 1606 00fc 17       		.uleb128 0x17
 1607 00fd 00       		.byte	0
 1608 00fe 00       		.byte	0
 1609 00ff 13       		.uleb128 0x13
 1610 0100 11       		.uleb128 0x11
 1611 0101 01       		.byte	0x1
 1612 0102 25       		.uleb128 0x25
 1613 0103 0E       		.uleb128 0xe
 1614 0104 13       		.uleb128 0x13
 1615 0105 0B       		.uleb128 0xb
 1616 0106 03       		.uleb128 0x3
 1617 0107 0E       		.uleb128 0xe
 1618 0108 1B       		.uleb128 0x1b
 1619 0109 0E       		.uleb128 0xe
 1620 010a 55       		.uleb128 0x55
 1621 010b 17       		.uleb128 0x17
 1622 010c 11       		.uleb128 0x11
 1623 010d 01       		.uleb128 0x1
 1624 010e 10       		.uleb128 0x10
 1625 010f 17       		.uleb128 0x17
 1626 0110 00       		.byte	0
 1627 0111 00       		.byte	0
 1628 0112 14       		.uleb128 0x14
 1629 0113 24       		.uleb128 0x24
 1630 0114 00       		.byte	0
 1631 0115 0B       		.uleb128 0xb
 1632 0116 0B       		.uleb128 0xb
 1633 0117 3E       		.uleb128 0x3e
 1634 0118 0B       		.uleb128 0xb
 1635 0119 03       		.uleb128 0x3
 1636 011a 08       		.uleb128 0x8
 1637 011b 00       		.byte	0
 1638 011c 00       		.byte	0
 1639 011d 15       		.uleb128 0x15
 1640 011e 35       		.uleb128 0x35
 1641 011f 00       		.byte	0
 1642 0120 49       		.uleb128 0x49
 1643 0121 13       		.uleb128 0x13
 1644 0122 00       		.byte	0
ARM GAS  /tmp/ccPAOmlP.s 			page 30


 1645 0123 00       		.byte	0
 1646 0124 16       		.uleb128 0x16
 1647 0125 0F       		.uleb128 0xf
 1648 0126 00       		.byte	0
 1649 0127 0B       		.uleb128 0xb
 1650 0128 0B       		.uleb128 0xb
 1651 0129 00       		.byte	0
 1652 012a 00       		.byte	0
 1653 012b 17       		.uleb128 0x17
 1654 012c 15       		.uleb128 0x15
 1655 012d 01       		.byte	0x1
 1656 012e 27       		.uleb128 0x27
 1657 012f 19       		.uleb128 0x19
 1658 0130 01       		.uleb128 0x1
 1659 0131 13       		.uleb128 0x13
 1660 0132 00       		.byte	0
 1661 0133 00       		.byte	0
 1662 0134 18       		.uleb128 0x18
 1663 0135 17       		.uleb128 0x17
 1664 0136 01       		.byte	0x1
 1665 0137 0B       		.uleb128 0xb
 1666 0138 0B       		.uleb128 0xb
 1667 0139 3A       		.uleb128 0x3a
 1668 013a 0B       		.uleb128 0xb
 1669 013b 3B       		.uleb128 0x3b
 1670 013c 0B       		.uleb128 0xb
 1671 013d 39       		.uleb128 0x39
 1672 013e 0B       		.uleb128 0xb
 1673 013f 01       		.uleb128 0x1
 1674 0140 13       		.uleb128 0x13
 1675 0141 00       		.byte	0
 1676 0142 00       		.byte	0
 1677 0143 19       		.uleb128 0x19
 1678 0144 15       		.uleb128 0x15
 1679 0145 01       		.byte	0x1
 1680 0146 27       		.uleb128 0x27
 1681 0147 19       		.uleb128 0x19
 1682 0148 49       		.uleb128 0x49
 1683 0149 13       		.uleb128 0x13
 1684 014a 01       		.uleb128 0x1
 1685 014b 13       		.uleb128 0x13
 1686 014c 00       		.byte	0
 1687 014d 00       		.byte	0
 1688 014e 1A       		.uleb128 0x1a
 1689 014f 34       		.uleb128 0x34
 1690 0150 00       		.byte	0
 1691 0151 47       		.uleb128 0x47
 1692 0152 13       		.uleb128 0x13
 1693 0153 3A       		.uleb128 0x3a
 1694 0154 0B       		.uleb128 0xb
 1695 0155 3B       		.uleb128 0x3b
 1696 0156 0B       		.uleb128 0xb
 1697 0157 39       		.uleb128 0x39
 1698 0158 0B       		.uleb128 0xb
 1699 0159 02       		.uleb128 0x2
 1700 015a 18       		.uleb128 0x18
 1701 015b 00       		.byte	0
ARM GAS  /tmp/ccPAOmlP.s 			page 31


 1702 015c 00       		.byte	0
 1703 015d 1B       		.uleb128 0x1b
 1704 015e 2E       		.uleb128 0x2e
 1705 015f 01       		.byte	0x1
 1706 0160 3F       		.uleb128 0x3f
 1707 0161 19       		.uleb128 0x19
 1708 0162 03       		.uleb128 0x3
 1709 0163 0E       		.uleb128 0xe
 1710 0164 3A       		.uleb128 0x3a
 1711 0165 0B       		.uleb128 0xb
 1712 0166 3B       		.uleb128 0x3b
 1713 0167 0B       		.uleb128 0xb
 1714 0168 39       		.uleb128 0x39
 1715 0169 0B       		.uleb128 0xb
 1716 016a 27       		.uleb128 0x27
 1717 016b 19       		.uleb128 0x19
 1718 016c 11       		.uleb128 0x11
 1719 016d 01       		.uleb128 0x1
 1720 016e 12       		.uleb128 0x12
 1721 016f 06       		.uleb128 0x6
 1722 0170 40       		.uleb128 0x40
 1723 0171 18       		.uleb128 0x18
 1724 0172 7C       		.uleb128 0x7c
 1725 0173 19       		.uleb128 0x19
 1726 0174 01       		.uleb128 0x1
 1727 0175 13       		.uleb128 0x13
 1728 0176 00       		.byte	0
 1729 0177 00       		.byte	0
 1730 0178 1C       		.uleb128 0x1c
 1731 0179 0B       		.uleb128 0xb
 1732 017a 01       		.byte	0x1
 1733 017b 11       		.uleb128 0x11
 1734 017c 01       		.uleb128 0x1
 1735 017d 12       		.uleb128 0x12
 1736 017e 06       		.uleb128 0x6
 1737 017f 00       		.byte	0
 1738 0180 00       		.byte	0
 1739 0181 1D       		.uleb128 0x1d
 1740 0182 0B       		.uleb128 0xb
 1741 0183 01       		.byte	0x1
 1742 0184 55       		.uleb128 0x55
 1743 0185 17       		.uleb128 0x17
 1744 0186 00       		.byte	0
 1745 0187 00       		.byte	0
 1746 0188 1E       		.uleb128 0x1e
 1747 0189 2E       		.uleb128 0x2e
 1748 018a 01       		.byte	0x1
 1749 018b 3F       		.uleb128 0x3f
 1750 018c 19       		.uleb128 0x19
 1751 018d 03       		.uleb128 0x3
 1752 018e 0E       		.uleb128 0xe
 1753 018f 3A       		.uleb128 0x3a
 1754 0190 0B       		.uleb128 0xb
 1755 0191 3B       		.uleb128 0x3b
 1756 0192 0B       		.uleb128 0xb
 1757 0193 39       		.uleb128 0x39
 1758 0194 0B       		.uleb128 0xb
ARM GAS  /tmp/ccPAOmlP.s 			page 32


 1759 0195 27       		.uleb128 0x27
 1760 0196 19       		.uleb128 0x19
 1761 0197 11       		.uleb128 0x11
 1762 0198 01       		.uleb128 0x1
 1763 0199 12       		.uleb128 0x12
 1764 019a 06       		.uleb128 0x6
 1765 019b 40       		.uleb128 0x40
 1766 019c 18       		.uleb128 0x18
 1767 019d 7A       		.uleb128 0x7a
 1768 019e 19       		.uleb128 0x19
 1769 019f 01       		.uleb128 0x1
 1770 01a0 13       		.uleb128 0x13
 1771 01a1 00       		.byte	0
 1772 01a2 00       		.byte	0
 1773 01a3 1F       		.uleb128 0x1f
 1774 01a4 34       		.uleb128 0x34
 1775 01a5 00       		.byte	0
 1776 01a6 03       		.uleb128 0x3
 1777 01a7 0E       		.uleb128 0xe
 1778 01a8 3A       		.uleb128 0x3a
 1779 01a9 0B       		.uleb128 0xb
 1780 01aa 3B       		.uleb128 0x3b
 1781 01ab 0B       		.uleb128 0xb
 1782 01ac 39       		.uleb128 0x39
 1783 01ad 0B       		.uleb128 0xb
 1784 01ae 49       		.uleb128 0x49
 1785 01af 13       		.uleb128 0x13
 1786 01b0 02       		.uleb128 0x2
 1787 01b1 18       		.uleb128 0x18
 1788 01b2 00       		.byte	0
 1789 01b3 00       		.byte	0
 1790 01b4 20       		.uleb128 0x20
 1791 01b5 48       		.uleb128 0x48
 1792 01b6 01       		.byte	0x1
 1793 01b7 7D       		.uleb128 0x7d
 1794 01b8 01       		.uleb128 0x1
 1795 01b9 7F       		.uleb128 0x7f
 1796 01ba 13       		.uleb128 0x13
 1797 01bb 01       		.uleb128 0x1
 1798 01bc 13       		.uleb128 0x13
 1799 01bd 00       		.byte	0
 1800 01be 00       		.byte	0
 1801 01bf 21       		.uleb128 0x21
 1802 01c0 48       		.uleb128 0x48
 1803 01c1 01       		.byte	0x1
 1804 01c2 7D       		.uleb128 0x7d
 1805 01c3 01       		.uleb128 0x1
 1806 01c4 7F       		.uleb128 0x7f
 1807 01c5 13       		.uleb128 0x13
 1808 01c6 00       		.byte	0
 1809 01c7 00       		.byte	0
 1810 01c8 22       		.uleb128 0x22
 1811 01c9 2E       		.uleb128 0x2e
 1812 01ca 01       		.byte	0x1
 1813 01cb 3F       		.uleb128 0x3f
 1814 01cc 19       		.uleb128 0x19
 1815 01cd 03       		.uleb128 0x3
ARM GAS  /tmp/ccPAOmlP.s 			page 33


 1816 01ce 0E       		.uleb128 0xe
 1817 01cf 3A       		.uleb128 0x3a
 1818 01d0 0B       		.uleb128 0xb
 1819 01d1 3B       		.uleb128 0x3b
 1820 01d2 0B       		.uleb128 0xb
 1821 01d3 39       		.uleb128 0x39
 1822 01d4 0B       		.uleb128 0xb
 1823 01d5 27       		.uleb128 0x27
 1824 01d6 19       		.uleb128 0x19
 1825 01d7 11       		.uleb128 0x11
 1826 01d8 01       		.uleb128 0x1
 1827 01d9 12       		.uleb128 0x12
 1828 01da 06       		.uleb128 0x6
 1829 01db 40       		.uleb128 0x40
 1830 01dc 18       		.uleb128 0x18
 1831 01dd 7A       		.uleb128 0x7a
 1832 01de 19       		.uleb128 0x19
 1833 01df 00       		.byte	0
 1834 01e0 00       		.byte	0
 1835 01e1 23       		.uleb128 0x23
 1836 01e2 05       		.uleb128 0x5
 1837 01e3 00       		.byte	0
 1838 01e4 03       		.uleb128 0x3
 1839 01e5 08       		.uleb128 0x8
 1840 01e6 3A       		.uleb128 0x3a
 1841 01e7 0B       		.uleb128 0xb
 1842 01e8 3B       		.uleb128 0x3b
 1843 01e9 0B       		.uleb128 0xb
 1844 01ea 39       		.uleb128 0x39
 1845 01eb 0B       		.uleb128 0xb
 1846 01ec 49       		.uleb128 0x49
 1847 01ed 13       		.uleb128 0x13
 1848 01ee 02       		.uleb128 0x2
 1849 01ef 18       		.uleb128 0x18
 1850 01f0 00       		.byte	0
 1851 01f1 00       		.byte	0
 1852 01f2 00       		.byte	0
 1853              		.section	.debug_loclists,"",%progbits
 1854 0000 27000000 		.4byte	.Ldebug_loc3-.Ldebug_loc2
 1855              	.Ldebug_loc2:
 1856 0004 0500     		.2byte	0x5
 1857 0006 04       		.byte	0x4
 1858 0007 00       		.byte	0
 1859 0008 00000000 		.4byte	0
 1860              	.Ldebug_loc0:
 1861              	.LVUS0:
 1862 000c 05       		.uleb128 .LVU58
 1863 000d 00       		.uleb128 .LVU67
 1864 000e 00       		.uleb128 .LVU71
 1865 000f 00       		.uleb128 0
 1866              	.LLST0:
 1867 0010 06       		.byte	0x6
 1868 0011 54000000 		.4byte	.LVL7
 1869 0015 04       		.byte	0x4
 1870 0016 00       		.uleb128 .LVL7-.LVL7
 1871 0017 1F       		.uleb128 .LVL9-1-.LVL7
 1872 0018 01       		.uleb128 0x1
ARM GAS  /tmp/ccPAOmlP.s 			page 34


 1873 0019 53       		.byte	0x53
 1874 001a 04       		.byte	0x4
 1875 001b 24       		.uleb128 .LVL10-.LVL7
 1876 001c 3C       		.uleb128 .LFE9-.LVL7
 1877 001d 01       		.uleb128 0x1
 1878 001e 53       		.byte	0x53
 1879 001f 00       		.byte	0
 1880              	.LVUS2:
 1881 0020 00       		.uleb128 .LVU60
 1882 0021 00       		.uleb128 .LVU67
 1883              	.LLST2:
 1884 0022 08       		.byte	0x8
 1885 0023 60000000 		.4byte	.LVL8
 1886 0027 13       		.uleb128 .LVL9-1-.LVL8
 1887 0028 01       		.uleb128 0x1
 1888 0029 51       		.byte	0x51
 1889 002a 00       		.byte	0
 1890              	.Ldebug_loc3:
 1891              		.section	.debug_aranges,"",%progbits
 1892 0000 2C000000 		.4byte	0x2c
 1893 0004 0200     		.2byte	0x2
 1894 0006 00000000 		.4byte	.Ldebug_info0
 1895 000a 04       		.byte	0x4
 1896 000b 00       		.byte	0
 1897 000c 0000     		.2byte	0
 1898 000e 0000     		.2byte	0
 1899 0010 00000000 		.4byte	.LFB7
 1900 0014 20000000 		.4byte	.LFE7-.LFB7
 1901 0018 00000000 		.4byte	.LFB8
 1902 001c 78000000 		.4byte	.LFE8-.LFB8
 1903 0020 00000000 		.4byte	.LFB9
 1904 0024 90000000 		.4byte	.LFE9-.LFB9
 1905 0028 00000000 		.4byte	0
 1906 002c 00000000 		.4byte	0
 1907              		.section	.debug_rnglists,"",%progbits
 1908              	.Ldebug_ranges0:
 1909 0000 28000000 		.4byte	.Ldebug_ranges3-.Ldebug_ranges2
 1910              	.Ldebug_ranges2:
 1911 0004 0500     		.2byte	0x5
 1912 0006 04       		.byte	0x4
 1913 0007 00       		.byte	0
 1914 0008 00000000 		.4byte	0
 1915              	.LLRL1:
 1916 000c 05       		.byte	0x5
 1917 000d 54000000 		.4byte	.LBB3
 1918 0011 04       		.byte	0x4
 1919 0012 00       		.uleb128 .LBB3-.LBB3
 1920 0013 00       		.uleb128 .LBE3-.LBB3
 1921 0014 04       		.byte	0x4
 1922 0015 04       		.uleb128 .LBB4-.LBB3
 1923 0016 20       		.uleb128 .LBE4-.LBB3
 1924 0017 00       		.byte	0
 1925              	.LLRL3:
 1926 0018 07       		.byte	0x7
 1927 0019 00000000 		.4byte	.LFB7
 1928 001d 20       		.uleb128 .LFE7-.LFB7
 1929 001e 07       		.byte	0x7
ARM GAS  /tmp/ccPAOmlP.s 			page 35


 1930 001f 00000000 		.4byte	.LFB8
 1931 0023 78       		.uleb128 .LFE8-.LFB8
 1932 0024 07       		.byte	0x7
 1933 0025 00000000 		.4byte	.LFB9
 1934 0029 9001     		.uleb128 .LFE9-.LFB9
 1935 002b 00       		.byte	0
 1936              	.Ldebug_ranges3:
 1937              		.section	.debug_line,"",%progbits
 1938              	.Ldebug_line0:
 1939 0000 CB020000 		.section	.debug_str,"MS",%progbits,1
 1939      03008301 
 1939      00000201 
 1939      FB0E0D00 
 1939      01010101 
 1940              	.LASF78:
 1941 0000 7466756E 		.ascii	"tfunc_t\000"
 1941      635F7400 
 1942              	.LASF89:
 1943 0008 63665F6F 		.ascii	"cf_off_older\000"
 1943      66665F6F 
 1943      6C646572 
 1943      00
 1944              	.LASF41:
 1945 0015 705F6D73 		.ascii	"p_msg\000"
 1945      6700
 1946              	.LASF2:
 1947 001b 73697A65 		.ascii	"size_t\000"
 1947      5F7400
 1948              	.LASF73:
 1949 0022 7264796D 		.ascii	"rdymsg\000"
 1949      736700
 1950              	.LASF3:
 1951 0029 5F5F7569 		.ascii	"__uint8_t\000"
 1951      6E74385F 
 1951      7400
 1952              	.LASF67:
 1953 0033 76746C69 		.ascii	"vtlist\000"
 1953      737400
 1954              	.LASF106:
 1955 003a 63685379 		.ascii	"chSysTimerHandlerI\000"
 1955      7354696D 
 1955      65724861 
 1955      6E646C65 
 1955      724900
 1956              	.LASF13:
 1957 004d 6C6F6E67 		.ascii	"long long unsigned int\000"
 1957      206C6F6E 
 1957      6720756E 
 1957      7369676E 
 1957      65642069 
 1958              	.LASF85:
 1959 0064 63685F74 		.ascii	"ch_threadsize\000"
 1959      68726561 
 1959      6473697A 
 1959      6500
 1960              	.LASF74:
 1961 0072 65786974 		.ascii	"exitcode\000"
ARM GAS  /tmp/ccPAOmlP.s 			page 36


 1961      636F6465 
 1961      00
 1962              	.LASF111:
 1963 007b 6D61696E 		.ascii	"mainthread\000"
 1963      74687265 
 1963      616400
 1964              	.LASF29:
 1965 0086 705F7072 		.ascii	"p_prio\000"
 1965      696F00
 1966              	.LASF92:
 1967 008d 63665F6F 		.ascii	"cf_off_state\000"
 1967      66665F73 
 1967      74617465 
 1967      00
 1968              	.LASF104:
 1969 009a 5F76745F 		.ascii	"_vt_init\000"
 1969      696E6974 
 1969      00
 1970              	.LASF12:
 1971 00a3 6C6F6E67 		.ascii	"long long int\000"
 1971      206C6F6E 
 1971      6720696E 
 1971      7400
 1972              	.LASF1:
 1973 00b1 7369676E 		.ascii	"signed char\000"
 1973      65642063 
 1973      68617200 
 1974              	.LASF91:
 1975 00bd 63665F6F 		.ascii	"cf_off_stklimit\000"
 1975      66665F73 
 1975      746B6C69 
 1975      6D697400 
 1976              	.LASF93:
 1977 00cd 63665F6F 		.ascii	"cf_off_flags\000"
 1977      66665F66 
 1977      6C616773 
 1977      00
 1978              	.LASF70:
 1979 00da 6D5F7175 		.ascii	"m_queue\000"
 1979      65756500 
 1980              	.LASF21:
 1981 00e2 74736C69 		.ascii	"tslices_t\000"
 1981      6365735F 
 1981      7400
 1982              	.LASF9:
 1983 00ec 6C6F6E67 		.ascii	"long int\000"
 1983      20696E74 
 1983      00
 1984              	.LASF19:
 1985 00f5 74737461 		.ascii	"tstate_t\000"
 1985      74655F74 
 1985      00
 1986              	.LASF15:
 1987 00fe 75696E74 		.ascii	"uint16_t\000"
 1987      31365F74 
 1987      00
 1988              	.LASF97:
ARM GAS  /tmp/ccPAOmlP.s 			page 37


 1989 0107 63686465 		.ascii	"chdebug_t\000"
 1989      6275675F 
 1989      7400
 1990              	.LASF31:
 1991 0111 705F6E65 		.ascii	"p_newer\000"
 1991      77657200 
 1992              	.LASF99:
 1993 0119 5F69646C 		.ascii	"_idle_thread_wa\000"
 1993      655F7468 
 1993      72656164 
 1993      5F776100 
 1994              	.LASF10:
 1995 0129 5F5F7569 		.ascii	"__uint32_t\000"
 1995      6E743332 
 1995      5F7400
 1996              	.LASF48:
 1997 0134 72656761 		.ascii	"regarm_t\000"
 1997      726D5F74 
 1997      00
 1998              	.LASF54:
 1999 013d 76745F70 		.ascii	"vt_prev\000"
 1999      72657600 
 2000              	.LASF107:
 2001 0145 63685379 		.ascii	"chSysInit\000"
 2001      73496E69 
 2001      7400
 2002              	.LASF102:
 2003 014f 5F686561 		.ascii	"_heap_init\000"
 2003      705F696E 
 2003      697400
 2004              	.LASF0:
 2005 015a 756E7369 		.ascii	"unsigned int\000"
 2005      676E6564 
 2005      20696E74 
 2005      00
 2006              	.LASF101:
 2007 0167 5F746872 		.ascii	"_thread_init\000"
 2007      6561645F 
 2007      696E6974 
 2007      00
 2008              	.LASF53:
 2009 0174 76745F6E 		.ascii	"vt_next\000"
 2009      65787400 
 2010              	.LASF11:
 2011 017c 6C6F6E67 		.ascii	"long unsigned int\000"
 2011      20756E73 
 2011      69676E65 
 2011      6420696E 
 2011      7400
 2012              	.LASF98:
 2013 018e 63685F64 		.ascii	"ch_debug\000"
 2013      65627567 
 2013      00
 2014              	.LASF51:
 2015 0197 76746675 		.ascii	"vtfunc_t\000"
 2015      6E635F74 
 2015      00
ARM GAS  /tmp/ccPAOmlP.s 			page 38


 2016              	.LASF79:
 2017 01a0 63685F69 		.ascii	"ch_identifier\000"
 2017      64656E74 
 2017      69666965 
 2017      7200
 2018              	.LASF50:
 2019 01ae 636F6E74 		.ascii	"context\000"
 2019      65787400 
 2020              	.LASF7:
 2021 01b6 73686F72 		.ascii	"short unsigned int\000"
 2021      7420756E 
 2021      7369676E 
 2021      65642069 
 2021      6E7400
 2022              	.LASF23:
 2023 01c9 6D73675F 		.ascii	"msg_t\000"
 2023      7400
 2024              	.LASF63:
 2025 01cf 725F6E65 		.ascii	"r_newer\000"
 2025      77657200 
 2026              	.LASF18:
 2027 01d7 746D6F64 		.ascii	"tmode_t\000"
 2027      655F7400 
 2028              	.LASF46:
 2029 01df 54687265 		.ascii	"ThreadsList\000"
 2029      6164734C 
 2029      69737400 
 2030              	.LASF24:
 2031 01eb 6576656E 		.ascii	"eventmask_t\000"
 2031      746D6173 
 2031      6B5F7400 
 2032              	.LASF69:
 2033 01f7 4D757465 		.ascii	"Mutex\000"
 2033      7800
 2034              	.LASF47:
 2035 01fd 73746B61 		.ascii	"stkalign_t\000"
 2035      6C69676E 
 2035      5F7400
 2036              	.LASF100:
 2037 0208 63685468 		.ascii	"chThdCreateStatic\000"
 2037      64437265 
 2037      61746553 
 2037      74617469 
 2037      6300
 2038              	.LASF105:
 2039 021a 5F736368 		.ascii	"_scheduler_init\000"
 2039      6564756C 
 2039      65725F69 
 2039      6E697400 
 2040              	.LASF80:
 2041 022a 63685F7A 		.ascii	"ch_zero\000"
 2041      65726F00 
 2042              	.LASF94:
 2043 0232 63665F6F 		.ascii	"cf_off_refs\000"
 2043      66665F72 
 2043      65667300 
 2044              	.LASF55:
ARM GAS  /tmp/ccPAOmlP.s 			page 39


 2045 023e 76745F74 		.ascii	"vt_time\000"
 2045      696D6500 
 2046              	.LASF108:
 2047 0246 474E5520 		.ascii	"GNU C17 11.2.0 -mcpu=arm1176jz-s -mno-thumb-interwo"
 2047      43313720 
 2047      31312E32 
 2047      2E30202D 
 2047      6D637075 
 2048 0279 726B202D 		.ascii	"rk -mfloat-abi=soft -marm -march=armv6kz -ggdb -O2 "
 2048      6D666C6F 
 2048      61742D61 
 2048      62693D73 
 2048      6F667420 
 2049 02ac 2D666F6D 		.ascii	"-fomit-frame-pointer -ffunction-sections -fdata-sec"
 2049      69742D66 
 2049      72616D65 
 2049      2D706F69 
 2049      6E746572 
 2050 02df 74696F6E 		.ascii	"tions\000"
 2050      7300
 2051              	.LASF56:
 2052 02e5 76745F66 		.ascii	"vt_func\000"
 2052      756E6300 
 2053              	.LASF84:
 2054 02ed 63685F74 		.ascii	"ch_timesize\000"
 2054      696D6573 
 2054      697A6500 
 2055              	.LASF90:
 2056 02f9 63665F6F 		.ascii	"cf_off_name\000"
 2056      66665F6E 
 2056      616D6500 
 2057              	.LASF110:
 2058 0305 2F686F6D 		.ascii	"/home/sergi/uni/seu/ChibiOS-RPi/demos/led\000"
 2058      652F7365 
 2058      7267692F 
 2058      756E692F 
 2058      7365752F 
 2059              	.LASF32:
 2060 032f 705F6F6C 		.ascii	"p_older\000"
 2060      64657200 
 2061              	.LASF62:
 2062 0337 725F6374 		.ascii	"r_ctx\000"
 2062      7800
 2063              	.LASF45:
 2064 033d 54687265 		.ascii	"ThreadsQueue\000"
 2064      61647351 
 2064      75657565 
 2064      00
 2065              	.LASF81:
 2066 034a 63685F73 		.ascii	"ch_size\000"
 2066      697A6500 
 2067              	.LASF65:
 2068 0352 725F6375 		.ascii	"r_current\000"
 2068      7272656E 
 2068      7400
 2069              	.LASF64:
 2070 035c 725F6F6C 		.ascii	"r_older\000"
ARM GAS  /tmp/ccPAOmlP.s 			page 40


 2070      64657200 
 2071              	.LASF112:
 2072 0364 5F69646C 		.ascii	"_idle_thread\000"
 2072      655F7468 
 2072      72656164 
 2072      00
 2073              	.LASF20:
 2074 0371 74726566 		.ascii	"trefs_t\000"
 2074      735F7400 
 2075              	.LASF83:
 2076 0379 63685F70 		.ascii	"ch_ptrsize\000"
 2076      74727369 
 2076      7A6500
 2077              	.LASF28:
 2078 0384 705F7072 		.ascii	"p_prev\000"
 2078      657600
 2079              	.LASF22:
 2080 038b 74707269 		.ascii	"tprio_t\000"
 2080      6F5F7400 
 2081              	.LASF16:
 2082 0393 696E7433 		.ascii	"int32_t\000"
 2082      325F7400 
 2083              	.LASF4:
 2084 039b 756E7369 		.ascii	"unsigned char\000"
 2084      676E6564 
 2084      20636861 
 2084      7200
 2085              	.LASF103:
 2086 03a9 5F636F72 		.ascii	"_core_init\000"
 2086      655F696E 
 2086      697400
 2087              	.LASF43:
 2088 03b4 705F6D74 		.ascii	"p_mtxlist\000"
 2088      786C6973 
 2088      7400
 2089              	.LASF5:
 2090 03be 73686F72 		.ascii	"short int\000"
 2090      7420696E 
 2090      7400
 2091              	.LASF34:
 2092 03c8 705F7374 		.ascii	"p_state\000"
 2092      61746500 
 2093              	.LASF37:
 2094 03d0 705F7072 		.ascii	"p_preempt\000"
 2094      65656D70 
 2094      7400
 2095              	.LASF96:
 2096 03da 63665F6F 		.ascii	"cf_off_time\000"
 2096      66665F74 
 2096      696D6500 
 2097              	.LASF61:
 2098 03e6 725F7072 		.ascii	"r_prio\000"
 2098      696F00
 2099              	.LASF76:
 2100 03ed 65776D61 		.ascii	"ewmask\000"
 2100      736B00
 2101              	.LASF27:
ARM GAS  /tmp/ccPAOmlP.s 			page 41


 2102 03f4 705F6E65 		.ascii	"p_next\000"
 2102      787400
 2103              	.LASF95:
 2104 03fb 63665F6F 		.ascii	"cf_off_preempt\000"
 2104      66665F70 
 2104      7265656D 
 2104      707400
 2105              	.LASF35:
 2106 040a 705F666C 		.ascii	"p_flags\000"
 2106      61677300 
 2107              	.LASF26:
 2108 0412 54687265 		.ascii	"Thread\000"
 2108      616400
 2109              	.LASF88:
 2110 0419 63665F6F 		.ascii	"cf_off_newer\000"
 2110      66665F6E 
 2110      65776572 
 2110      00
 2111              	.LASF42:
 2112 0426 705F6570 		.ascii	"p_epending\000"
 2112      656E6469 
 2112      6E6700
 2113              	.LASF17:
 2114 0431 75696E74 		.ascii	"uint32_t\000"
 2114      33325F74 
 2114      00
 2115              	.LASF86:
 2116 043a 63665F6F 		.ascii	"cf_off_prio\000"
 2116      66665F70 
 2116      72696F00 
 2117              	.LASF60:
 2118 0446 725F7175 		.ascii	"r_queue\000"
 2118      65756500 
 2119              	.LASF52:
 2120 044e 56697274 		.ascii	"VirtualTimer\000"
 2120      75616C54 
 2120      696D6572 
 2120      00
 2121              	.LASF77:
 2122 045b 63686172 		.ascii	"char\000"
 2122      00
 2123              	.LASF6:
 2124 0460 5F5F7569 		.ascii	"__uint16_t\000"
 2124      6E743136 
 2124      5F7400
 2125              	.LASF72:
 2126 046b 6D5F6E65 		.ascii	"m_next\000"
 2126      787400
 2127              	.LASF25:
 2128 0472 73797374 		.ascii	"systime_t\000"
 2128      696D655F 
 2128      7400
 2129              	.LASF44:
 2130 047c 705F7265 		.ascii	"p_realprio\000"
 2130      616C7072 
 2130      696F00
 2131              	.LASF8:
ARM GAS  /tmp/ccPAOmlP.s 			page 42


 2132 0487 5F5F696E 		.ascii	"__int32_t\000"
 2132      7433325F 
 2132      7400
 2133              	.LASF38:
 2134 0491 705F7469 		.ascii	"p_time\000"
 2134      6D6500
 2135              	.LASF49:
 2136 0498 696E7463 		.ascii	"intctx\000"
 2136      747800
 2137              	.LASF40:
 2138 049f 705F6D73 		.ascii	"p_msgqueue\000"
 2138      67717565 
 2138      756500
 2139              	.LASF57:
 2140 04aa 76745F70 		.ascii	"vt_par\000"
 2140      617200
 2141              	.LASF87:
 2142 04b1 63665F6F 		.ascii	"cf_off_ctx\000"
 2142      66665F63 
 2142      747800
 2143              	.LASF36:
 2144 04bc 705F7265 		.ascii	"p_refs\000"
 2144      667300
 2145              	.LASF66:
 2146 04c3 52656164 		.ascii	"ReadyList\000"
 2146      794C6973 
 2146      7400
 2147              	.LASF68:
 2148 04cd 726C6973 		.ascii	"rlist\000"
 2148      7400
 2149              	.LASF109:
 2150 04d3 2E2E2F2E 		.ascii	"../../os/kernel/src/chsys.c\000"
 2150      2E2F6F73 
 2150      2F6B6572 
 2150      6E656C2F 
 2150      7372632F 
 2151              	.LASF14:
 2152 04ef 75696E74 		.ascii	"uint8_t\000"
 2152      385F7400 
 2153              	.LASF75:
 2154 04f7 77746F62 		.ascii	"wtobjp\000"
 2154      6A7000
 2155              	.LASF33:
 2156 04fe 705F6E61 		.ascii	"p_name\000"
 2156      6D6500
 2157              	.LASF58:
 2158 0505 76745F73 		.ascii	"vt_systime\000"
 2158      79737469 
 2158      6D6500
 2159              	.LASF82:
 2160 0510 63685F76 		.ascii	"ch_version\000"
 2160      65727369 
 2160      6F6E00
 2161              	.LASF59:
 2162 051b 56544C69 		.ascii	"VTList\000"
 2162      737400
 2163              	.LASF71:
ARM GAS  /tmp/ccPAOmlP.s 			page 43


 2164 0522 6D5F6F77 		.ascii	"m_owner\000"
 2164      6E657200 
 2165              	.LASF30:
 2166 052a 705F6374 		.ascii	"p_ctx\000"
 2166      7800
 2167              	.LASF39:
 2168 0530 705F7761 		.ascii	"p_waiting\000"
 2168      6974696E 
 2168      6700
 2169              		.ident	"GCC: (Arch Repository) 11.2.0"
ARM GAS  /tmp/ccPAOmlP.s 			page 44


DEFINED SYMBOLS
                            *ABS*:0000000000000000 chsys.c
     /tmp/ccPAOmlP.s:16     .rodata._idle_thread.str1.4:0000000000000000 $d
     /tmp/ccPAOmlP.s:20     .text._idle_thread:0000000000000000 $a
     /tmp/ccPAOmlP.s:27     .text._idle_thread:0000000000000000 _idle_thread
     /tmp/ccPAOmlP.s:60     .text._idle_thread:0000000000000018 $d
     /tmp/ccPAOmlP.s:66     .text.chSysInit:0000000000000000 $a
     /tmp/ccPAOmlP.s:72     .text.chSysInit:0000000000000000 chSysInit
     /tmp/ccPAOmlP.s:146    .text.chSysInit:0000000000000064 $d
     /tmp/ccPAOmlP.s:155    .text.chSysTimerHandlerI:0000000000000000 $a
     /tmp/ccPAOmlP.s:161    .text.chSysTimerHandlerI:0000000000000000 chSysTimerHandlerI
     /tmp/ccPAOmlP.s:256    .text.chSysTimerHandlerI:0000000000000088 $d
     /tmp/ccPAOmlP.s:268    .bss._idle_thread_wa:0000000000000000 _idle_thread_wa
     /tmp/ccPAOmlP.s:264    .bss._idle_thread_wa:0000000000000000 $d
     /tmp/ccPAOmlP.s:271    .bss.mainthread.0:0000000000000000 $d
     /tmp/ccPAOmlP.s:275    .bss.mainthread.0:0000000000000000 mainthread.0

UNDEFINED SYMBOLS
rlist
_scheduler_init
_vt_init
_core_init
_heap_init
_thread_init
chThdCreateStatic
ch_debug
vtlist
