ARM GAS  /tmp/ccEt7jHp.s 			page 1


   1              		.cpu arm1176jz-s
   2              		.eabi_attribute 20, 1
   3              		.eabi_attribute 21, 1
   4              		.eabi_attribute 23, 3
   5              		.eabi_attribute 24, 1
   6              		.eabi_attribute 25, 1
   7              		.eabi_attribute 26, 1
   8              		.eabi_attribute 30, 2
   9              		.eabi_attribute 34, 1
  10              		.eabi_attribute 18, 4
  11              		.file	"chthreads.c"
  12              		.text
  13              	.Ltext0:
  14              		.cfi_sections	.debug_frame
  15              		.section	.text._thread_init,"ax",%progbits
  16              		.align	2
  17              		.global	_thread_init
  18              		.arch armv6kz
  19              		.syntax unified
  20              		.arm
  21              		.fpu softvfp
  22              		.type	_thread_init, %function
  23              	_thread_init:
  24              	.LVL0:
  25              	.LFB7:
  26              		.file 1 "../../os/kernel/src/chthreads.c"
  27              		.loc 1 69 48 view -0
  28              		.cfi_startproc
  29              		@ args = 0, pretend = 0, frame = 0
  30              		@ frame_needed = 0, uses_anonymous_args = 0
  31              		.loc 1 71 3 view .LVU1
  32              		.loc 1 79 17 is_stmt 0 view .LVU2
  33 0000 0020A0E3 		mov	r2, #0
  34              		.loc 1 69 48 view .LVU3
  35 0004 70402DE9 		push	{r4, r5, r6, lr}
  36              		.cfi_def_cfa_offset 16
  37              		.cfi_offset 4, -16
  38              		.cfi_offset 5, -12
  39              		.cfi_offset 6, -8
  40              		.cfi_offset 14, -4
  41              		.loc 1 72 15 view .LVU4
  42 0008 0240A0E3 		mov	r4, #2
  43              		.loc 1 75 17 view .LVU5
  44 000c 1460A0E3 		mov	r6, #20
  45              		.loc 1 88 14 view .LVU6
  46 0010 0150A0E3 		mov	r5, #1
  47              		.loc 1 92 3 view .LVU7
  48 0014 4CC09FE5 		ldr	ip, .L4
  49              		.loc 1 78 18 view .LVU8
  50 0018 401080E5 		str	r1, [r0, #64]
  51              		.loc 1 92 3 view .LVU9
  52 001c 14E09CE5 		ldr	lr, [ip, #20]
  53              		.loc 1 79 17 view .LVU10
  54 0020 3C2080E5 		str	r2, [r0, #60]
  55              		.loc 1 71 14 view .LVU11
  56 0024 081080E5 		str	r1, [r0, #8]
  57              		.loc 1 72 3 is_stmt 1 view .LVU12
ARM GAS  /tmp/ccEt7jHp.s 			page 2


  58              		.loc 1 73 3 view .LVU13
  59              		.loc 1 82 18 is_stmt 0 view .LVU14
  60 0028 382080E5 		str	r2, [r0, #56]
  61              		.loc 1 85 14 view .LVU15
  62 002c 202080E5 		str	r2, [r0, #32]
  63              		.loc 1 91 14 view .LVU16
  64 0030 182080E5 		str	r2, [r0, #24]
  65              		.loc 1 95 3 view .LVU17
  66 0034 281080E2 		add	r1, r0, #40
  67              	.LVL1:
  68              		.loc 1 98 3 view .LVU18
  69 0038 2C2080E2 		add	r2, r0, #44
  70              		.loc 1 92 3 view .LVU19
  71 003c 10C080E5 		str	ip, [r0, #16]
  72 0040 14E080E5 		str	lr, [r0, #20]
  73              		.loc 1 75 17 view .LVU20
  74 0044 1F60C0E5 		strb	r6, [r0, #31]
  75              		.loc 1 88 14 view .LVU21
  76 0048 1E50C0E5 		strb	r5, [r0, #30]
  77              		.loc 1 92 3 view .LVU22
  78 004c 14008CE5 		str	r0, [ip, #20]
  79              		.loc 1 72 15 view .LVU23
  80 0050 BC41C0E1 		strh	r4, [r0, #28]	@ movhi
  81              		.loc 1 75 3 is_stmt 1 view .LVU24
  82              		.loc 1 78 3 view .LVU25
  83              		.loc 1 79 3 view .LVU26
  84              		.loc 1 82 3 view .LVU27
  85              		.loc 1 85 3 view .LVU28
  86              		.loc 1 88 3 view .LVU29
  87              		.loc 1 91 3 view .LVU30
  88              		.loc 1 92 3 view .LVU31
  89              		.loc 1 92 3 view .LVU32
  90              		.loc 1 92 3 view .LVU33
  91 0054 10008EE5 		str	r0, [lr, #16]
  92              		.loc 1 92 17 view .LVU34
  93              		.loc 1 95 3 view .LVU35
  94 0058 281080E5 		str	r1, [r0, #40]
  95              		.loc 1 98 3 view .LVU36
  96 005c 302080E5 		str	r2, [r0, #48]
  97 0060 2C2080E5 		str	r2, [r0, #44]
  98              		.loc 1 98 30 view .LVU37
  99              		.loc 1 104 3 view .LVU38
 100              		.loc 1 104 27 view .LVU39
 101              		.loc 1 106 3 view .LVU40
 102              		.loc 1 107 1 is_stmt 0 view .LVU41
 103 0064 7080BDE8 		pop	{r4, r5, r6, pc}
 104              	.L5:
 105              		.align	2
 106              	.L4:
 107 0068 00000000 		.word	rlist
 108              		.cfi_endproc
 109              	.LFE7:
 110              		.size	_thread_init, .-_thread_init
 111              		.section	.text.chThdCreateI,"ax",%progbits
 112              		.align	2
 113              		.global	chThdCreateI
 114              		.syntax unified
ARM GAS  /tmp/ccEt7jHp.s 			page 3


 115              		.arm
 116              		.fpu softvfp
 117              		.type	chThdCreateI, %function
 118              	chThdCreateI:
 119              	.LVL2:
 120              	.LFB8:
 121              		.loc 1 151 59 is_stmt 1 view -0
 122              		.cfi_startproc
 123              		@ args = 4, pretend = 0, frame = 0
 124              		@ frame_needed = 0, uses_anonymous_args = 0
 125              		.loc 1 153 3 view .LVU43
 126              		.loc 1 151 59 is_stmt 0 view .LVU44
 127 0000 F0472DE9 		push	{r4, r5, r6, r7, r8, r9, r10, lr}
 128              		.cfi_def_cfa_offset 32
 129              		.cfi_offset 4, -32
 130              		.cfi_offset 5, -28
 131              		.cfi_offset 6, -24
 132              		.cfi_offset 7, -20
 133              		.cfi_offset 8, -16
 134              		.cfi_offset 9, -12
 135              		.cfi_offset 10, -8
 136              		.cfi_offset 14, -4
 137              	.LBB10:
 138              	.LBB11:
 139              		.loc 1 79 17 view .LVU45
 140 0004 00E0A0E3 		mov	lr, #0
 141              		.loc 1 72 15 view .LVU46
 142 0008 0280A0E3 		mov	r8, #2
 143              		.loc 1 75 17 view .LVU47
 144 000c 1470A0E3 		mov	r7, #20
 145              		.loc 1 88 14 view .LVU48
 146 0010 0160A0E3 		mov	r6, #1
 147              		.loc 1 92 3 view .LVU49
 148 0014 68409FE5 		ldr	r4, .L8
 149              	.LBE11:
 150              	.LBE10:
 151              		.loc 1 160 3 view .LVU50
 152 0018 241041E2 		sub	r1, r1, #36
 153              	.LVL3:
 154              		.loc 1 160 3 view .LVU51
 155 001c 01A080E0 		add	r10, r0, r1
 156              	.LBB14:
 157              	.LBB12:
 158              		.loc 1 92 3 view .LVU52
 159 0020 145094E5 		ldr	r5, [r4, #20]
 160              	.LBE12:
 161              	.LBE14:
 162              		.loc 1 160 3 view .LVU53
 163 0024 5C909FE5 		ldr	r9, .L8+4
 164              	.LVL4:
 165              		.loc 1 155 3 is_stmt 1 view .LVU54
 166              		.loc 1 155 21 view .LVU55
 167              		.loc 1 157 3 view .LVU56
 168              		.loc 1 159 29 view .LVU57
 169              		.loc 1 160 3 view .LVU58
 170 0028 0CA080E5 		str	r10, [r0, #12]
 171              		.loc 1 160 3 view .LVU59
ARM GAS  /tmp/ccEt7jHp.s 			page 4


 172 002c 013080E7 		str	r3, [r0, r1]
 173              		.loc 1 160 3 view .LVU60
 174 0030 20309DE5 		ldr	r3, [sp, #32]
 175              	.LVL5:
 176              		.loc 1 160 3 is_stmt 0 view .LVU61
 177 0034 20908AE5 		str	r9, [r10, #32]
 178 0038 04308AE5 		str	r3, [r10, #4]
 179              		.loc 1 160 3 is_stmt 1 view .LVU62
 180              		.loc 1 160 36 view .LVU63
 181              		.loc 1 161 3 view .LVU64
 182              	.LVL6:
 183              	.LBB15:
 184              	.LBI10:
 185              		.loc 1 69 9 view .LVU65
 186              	.LBB13:
 187              		.loc 1 71 3 view .LVU66
 188              		.loc 1 71 14 is_stmt 0 view .LVU67
 189 003c 082080E5 		str	r2, [r0, #8]
 190              		.loc 1 72 3 is_stmt 1 view .LVU68
 191              		.loc 1 73 3 view .LVU69
 192              		.loc 1 75 3 view .LVU70
 193              		.loc 1 78 3 view .LVU71
 194              		.loc 1 78 18 is_stmt 0 view .LVU72
 195 0040 402080E5 		str	r2, [r0, #64]
 196              		.loc 1 79 3 is_stmt 1 view .LVU73
 197              		.loc 1 98 3 is_stmt 0 view .LVU74
 198 0044 2C3080E2 		add	r3, r0, #44
 199              		.loc 1 95 3 view .LVU75
 200 0048 282080E2 		add	r2, r0, #40
 201              	.LVL7:
 202              		.loc 1 92 3 view .LVU76
 203 004c F041C0E1 		strd	r4, [r0, #16]
 204              		.loc 1 72 15 view .LVU77
 205 0050 BC81C0E1 		strh	r8, [r0, #28]	@ movhi
 206              	.LVL8:
 207              		.loc 1 75 17 view .LVU78
 208 0054 1F70C0E5 		strb	r7, [r0, #31]
 209              		.loc 1 88 14 view .LVU79
 210 0058 1E60C0E5 		strb	r6, [r0, #30]
 211              		.loc 1 92 3 view .LVU80
 212 005c 140084E5 		str	r0, [r4, #20]
 213              		.loc 1 79 17 view .LVU81
 214 0060 3CE080E5 		str	lr, [r0, #60]
 215              		.loc 1 82 3 is_stmt 1 view .LVU82
 216              		.loc 1 82 18 is_stmt 0 view .LVU83
 217 0064 38E080E5 		str	lr, [r0, #56]
 218              		.loc 1 85 3 is_stmt 1 view .LVU84
 219              		.loc 1 85 14 is_stmt 0 view .LVU85
 220 0068 20E080E5 		str	lr, [r0, #32]
 221              		.loc 1 88 3 is_stmt 1 view .LVU86
 222              		.loc 1 91 3 view .LVU87
 223              		.loc 1 91 14 is_stmt 0 view .LVU88
 224 006c 18E080E5 		str	lr, [r0, #24]
 225              		.loc 1 92 3 is_stmt 1 view .LVU89
 226              		.loc 1 92 3 view .LVU90
 227              		.loc 1 92 3 view .LVU91
 228 0070 100085E5 		str	r0, [r5, #16]
ARM GAS  /tmp/ccEt7jHp.s 			page 5


 229              		.loc 1 92 17 view .LVU92
 230              		.loc 1 95 3 view .LVU93
 231 0074 282080E5 		str	r2, [r0, #40]
 232              		.loc 1 98 3 view .LVU94
 233 0078 303080E5 		str	r3, [r0, #48]
 234 007c 2C3080E5 		str	r3, [r0, #44]
 235              		.loc 1 98 30 view .LVU95
 236              		.loc 1 104 3 view .LVU96
 237              		.loc 1 104 27 view .LVU97
 238              		.loc 1 106 3 view .LVU98
 239              	.LVL9:
 240              		.loc 1 106 3 is_stmt 0 view .LVU99
 241              	.LBE13:
 242              	.LBE15:
 243              		.loc 1 162 1 view .LVU100
 244 0080 F087BDE8 		pop	{r4, r5, r6, r7, r8, r9, r10, pc}
 245              	.L9:
 246              		.align	2
 247              	.L8:
 248 0084 00000000 		.word	rlist
 249 0088 00000000 		.word	_port_thread_start
 250              		.cfi_endproc
 251              	.LFE8:
 252              		.size	chThdCreateI, .-chThdCreateI
 253              		.section	.text.chThdCreateStatic,"ax",%progbits
 254              		.align	2
 255              		.global	chThdCreateStatic
 256              		.syntax unified
 257              		.arm
 258              		.fpu softvfp
 259              		.type	chThdCreateStatic, %function
 260              	chThdCreateStatic:
 261              	.LVL10:
 262              	.LFB9:
 263              		.loc 1 181 64 is_stmt 1 view -0
 264              		.cfi_startproc
 265              		@ args = 4, pretend = 0, frame = 0
 266              		@ frame_needed = 0, uses_anonymous_args = 0
 267              		.loc 1 182 3 view .LVU102
 268              		.loc 1 192 3 view .LVU103
 269              		.loc 1 181 64 is_stmt 0 view .LVU104
 270 0000 F0472DE9 		push	{r4, r5, r6, r7, r8, r9, r10, lr}
 271              		.cfi_def_cfa_offset 32
 272              		.cfi_offset 4, -32
 273              		.cfi_offset 5, -28
 274              		.cfi_offset 6, -24
 275              		.cfi_offset 7, -20
 276              		.cfi_offset 8, -16
 277              		.cfi_offset 9, -12
 278              		.cfi_offset 10, -8
 279              		.cfi_offset 14, -4
 280              		.loc 1 181 64 view .LVU105
 281 0004 0040A0E1 		mov	r4, r0
 282              		.loc 1 192 3 view .LVU106
 283              		.syntax divided
 284              	@ 192 "../../os/kernel/src/chthreads.c" 1
 285 0008 9FF021E3 		msr     CPSR_c, #0x9F
ARM GAS  /tmp/ccEt7jHp.s 			page 6


 286              	@ 0 "" 2
 287              		.loc 1 192 3 is_stmt 1 view .LVU107
 288              		.loc 1 192 14 view .LVU108
 289              		.loc 1 193 3 view .LVU109
 290              	.LVL11:
 291              		.arm
 292              		.syntax unified
 293              	.LBB20:
 294              	.LBI20:
 295              		.loc 1 150 9 view .LVU110
 296              	.LBB21:
 297              		.loc 1 153 3 view .LVU111
 298              		.loc 1 155 3 view .LVU112
 299              		.loc 1 155 21 view .LVU113
 300              		.loc 1 157 3 view .LVU114
 301              		.loc 1 159 29 view .LVU115
 302              		.loc 1 160 3 view .LVU116
 303              	.LBB22:
 304              	.LBB23:
 305              		.loc 1 72 15 is_stmt 0 view .LVU117
 306 000c 0290A0E3 		mov	r9, #2
 307              	.LBE23:
 308              	.LBE22:
 309              		.loc 1 160 3 view .LVU118
 310 0010 24C041E2 		sub	ip, r1, #36
 311              	.LBB27:
 312              	.LBB24:
 313              		.loc 1 75 17 view .LVU119
 314 0014 1480A0E3 		mov	r8, #20
 315              		.loc 1 79 17 view .LVU120
 316 0018 0010A0E3 		mov	r1, #0
 317              	.LVL12:
 318              		.loc 1 88 14 view .LVU121
 319 001c 0170A0E3 		mov	r7, #1
 320              		.loc 1 92 3 view .LVU122
 321 0020 74E09FE5 		ldr	lr, .L12
 322              	.LBE24:
 323              	.LBE27:
 324              		.loc 1 160 3 view .LVU123
 325 0024 0C5080E0 		add	r5, r0, ip
 326              	.LBB28:
 327              	.LBB25:
 328              		.loc 1 92 3 view .LVU124
 329 0028 14609EE5 		ldr	r6, [lr, #20]
 330              	.LBE25:
 331              	.LBE28:
 332              		.loc 1 160 3 view .LVU125
 333 002c 6CA09FE5 		ldr	r10, .L12+4
 334 0030 0C5080E5 		str	r5, [r0, #12]
 335              		.loc 1 160 3 is_stmt 1 view .LVU126
 336 0034 0C3080E7 		str	r3, [r0, ip]
 337              		.loc 1 160 3 view .LVU127
 338 0038 20309DE5 		ldr	r3, [sp, #32]
 339              	.LVL13:
 340              		.loc 1 160 3 is_stmt 0 view .LVU128
 341 003c 20A085E5 		str	r10, [r5, #32]
 342 0040 043085E5 		str	r3, [r5, #4]
ARM GAS  /tmp/ccEt7jHp.s 			page 7


 343              		.loc 1 160 3 is_stmt 1 view .LVU129
 344              		.loc 1 160 36 view .LVU130
 345              		.loc 1 161 3 view .LVU131
 346              	.LVL14:
 347              	.LBB29:
 348              	.LBI22:
 349              		.loc 1 69 9 view .LVU132
 350              	.LBB26:
 351              		.loc 1 71 3 view .LVU133
 352              		.loc 1 71 14 is_stmt 0 view .LVU134
 353 0044 082080E5 		str	r2, [r0, #8]
 354              		.loc 1 72 3 is_stmt 1 view .LVU135
 355              		.loc 1 73 3 view .LVU136
 356              		.loc 1 78 18 is_stmt 0 view .LVU137
 357 0048 402080E5 		str	r2, [r0, #64]
 358              		.loc 1 98 3 view .LVU138
 359 004c 2C3080E2 		add	r3, r0, #44
 360              		.loc 1 95 3 view .LVU139
 361 0050 282080E2 		add	r2, r0, #40
 362              	.LVL15:
 363              		.loc 1 92 3 view .LVU140
 364 0054 10E080E5 		str	lr, [r0, #16]
 365 0058 146080E5 		str	r6, [r0, #20]
 366              		.loc 1 72 15 view .LVU141
 367 005c BC91C0E1 		strh	r9, [r0, #28]	@ movhi
 368              	.LVL16:
 369              		.loc 1 75 3 is_stmt 1 view .LVU142
 370              		.loc 1 75 17 is_stmt 0 view .LVU143
 371 0060 1F80C0E5 		strb	r8, [r0, #31]
 372              		.loc 1 78 3 is_stmt 1 view .LVU144
 373              		.loc 1 79 3 view .LVU145
 374              		.loc 1 88 14 is_stmt 0 view .LVU146
 375 0064 1E70C0E5 		strb	r7, [r0, #30]
 376              		.loc 1 79 17 view .LVU147
 377 0068 3C1080E5 		str	r1, [r0, #60]
 378              		.loc 1 82 3 is_stmt 1 view .LVU148
 379              		.loc 1 82 18 is_stmt 0 view .LVU149
 380 006c 381080E5 		str	r1, [r0, #56]
 381              		.loc 1 85 3 is_stmt 1 view .LVU150
 382              		.loc 1 85 14 is_stmt 0 view .LVU151
 383 0070 201080E5 		str	r1, [r0, #32]
 384              		.loc 1 88 3 is_stmt 1 view .LVU152
 385              		.loc 1 91 3 view .LVU153
 386              		.loc 1 91 14 is_stmt 0 view .LVU154
 387 0074 181080E5 		str	r1, [r0, #24]
 388              		.loc 1 92 3 is_stmt 1 view .LVU155
 389              		.loc 1 92 3 view .LVU156
 390              		.loc 1 92 3 view .LVU157
 391 0078 14008EE5 		str	r0, [lr, #20]
 392 007c 100086E5 		str	r0, [r6, #16]
 393              		.loc 1 92 17 view .LVU158
 394              		.loc 1 95 3 view .LVU159
 395 0080 282080E5 		str	r2, [r0, #40]
 396              		.loc 1 98 3 view .LVU160
 397 0084 303080E5 		str	r3, [r0, #48]
 398 0088 2C3080E5 		str	r3, [r0, #44]
 399              		.loc 1 98 30 view .LVU161
ARM GAS  /tmp/ccEt7jHp.s 			page 8


 400              		.loc 1 104 3 view .LVU162
 401              		.loc 1 104 27 view .LVU163
 402              		.loc 1 106 3 view .LVU164
 403              	.LVL17:
 404              		.loc 1 106 3 is_stmt 0 view .LVU165
 405              	.LBE26:
 406              	.LBE29:
 407              	.LBE21:
 408              	.LBE20:
 409              		.loc 1 193 3 view .LVU166
 410 008c FEFFFFEB 		bl	chSchWakeupS
 411              	.LVL18:
 412              		.loc 1 194 3 is_stmt 1 view .LVU167
 413              		.loc 1 194 3 view .LVU168
 414              		.syntax divided
 415              	@ 194 "../../os/kernel/src/chthreads.c" 1
 416 0090 1FF021E3 		msr     CPSR_c, #0x1F
 417              	@ 0 "" 2
 418              		.loc 1 194 16 view .LVU169
 419              		.loc 1 195 3 view .LVU170
 420              		.loc 1 196 1 is_stmt 0 view .LVU171
 421              		.arm
 422              		.syntax unified
 423 0094 0400A0E1 		mov	r0, r4
 424 0098 F087BDE8 		pop	{r4, r5, r6, r7, r8, r9, r10, pc}
 425              	.L13:
 426              		.align	2
 427              	.L12:
 428 009c 00000000 		.word	rlist
 429 00a0 00000000 		.word	_port_thread_start
 430              		.cfi_endproc
 431              	.LFE9:
 432              		.size	chThdCreateStatic, .-chThdCreateStatic
 433              		.section	.text.chThdSetPriority,"ax",%progbits
 434              		.align	2
 435              		.global	chThdSetPriority
 436              		.syntax unified
 437              		.arm
 438              		.fpu softvfp
 439              		.type	chThdSetPriority, %function
 440              	chThdSetPriority:
 441              	.LVL19:
 442              	.LFB10:
 443              		.loc 1 210 43 is_stmt 1 view -0
 444              		.cfi_startproc
 445              		@ args = 0, pretend = 0, frame = 0
 446              		@ frame_needed = 0, uses_anonymous_args = 0
 447              		.loc 1 211 3 view .LVU173
 448              		.loc 1 213 3 view .LVU174
 449              		.loc 1 213 54 view .LVU175
 450              		.loc 1 215 3 view .LVU176
 451              		.loc 1 210 43 is_stmt 0 view .LVU177
 452 0000 10402DE9 		push	{r4, lr}
 453              		.cfi_def_cfa_offset 8
 454              		.cfi_offset 4, -8
 455              		.cfi_offset 14, -4
 456              		.loc 1 210 43 view .LVU178
ARM GAS  /tmp/ccEt7jHp.s 			page 9


 457 0004 0030A0E1 		mov	r3, r0
 458              		.loc 1 215 3 view .LVU179
 459              		.syntax divided
 460              	@ 215 "../../os/kernel/src/chthreads.c" 1
 461 0008 9FF021E3 		msr     CPSR_c, #0x9F
 462              	@ 0 "" 2
 463              		.loc 1 215 3 is_stmt 1 view .LVU180
 464              		.loc 1 215 14 view .LVU181
 465              		.loc 1 217 3 view .LVU182
 466              		.loc 1 217 13 is_stmt 0 view .LVU183
 467              		.arm
 468              		.syntax unified
 469 000c 38209FE5 		ldr	r2, .L20
 470 0010 182092E5 		ldr	r2, [r2, #24]
 471              		.loc 1 218 13 view .LVU184
 472 0014 080092E5 		ldr	r0, [r2, #8]
 473              	.LVL20:
 474              		.loc 1 217 11 view .LVU185
 475 0018 404092E5 		ldr	r4, [r2, #64]
 476              	.LVL21:
 477              		.loc 1 218 3 is_stmt 1 view .LVU186
 478              		.loc 1 220 21 is_stmt 0 view .LVU187
 479 001c 403082E5 		str	r3, [r2, #64]
 480              		.loc 1 218 6 view .LVU188
 481 0020 041040E0 		sub	r1, r0, r4
 482 0024 111F6FE1 		clz	r1, r1
 483 0028 A112A0E1 		lsr	r1, r1, #5
 484              		.loc 1 218 44 view .LVU189
 485 002c 030050E1 		cmp	r0, r3
 486 0030 01108133 		orrcc	r1, r1, #1
 487 0034 000051E3 		cmp	r1, #0
 488              		.loc 1 219 5 is_stmt 1 view .LVU190
 489              		.loc 1 219 19 is_stmt 0 view .LVU191
 490 0038 08308215 		strne	r3, [r2, #8]
 491              		.loc 1 220 3 is_stmt 1 view .LVU192
 492              		.loc 1 225 3 view .LVU193
 493 003c FEFFFFEB 		bl	chSchRescheduleS
 494              	.LVL22:
 495              		.loc 1 226 3 view .LVU194
 496              		.loc 1 226 3 view .LVU195
 497              		.syntax divided
 498              	@ 226 "../../os/kernel/src/chthreads.c" 1
 499 0040 1FF021E3 		msr     CPSR_c, #0x1F
 500              	@ 0 "" 2
 501              		.loc 1 226 16 view .LVU196
 502              		.loc 1 227 3 view .LVU197
 503              		.loc 1 228 1 is_stmt 0 view .LVU198
 504              		.arm
 505              		.syntax unified
 506 0044 0400A0E1 		mov	r0, r4
 507 0048 1080BDE8 		pop	{r4, pc}
 508              	.L21:
 509              		.align	2
 510              	.L20:
 511 004c 00000000 		.word	rlist
 512              		.cfi_endproc
 513              	.LFE10:
ARM GAS  /tmp/ccEt7jHp.s 			page 10


 514              		.size	chThdSetPriority, .-chThdSetPriority
 515              		.section	.text.chThdResume,"ax",%progbits
 516              		.align	2
 517              		.global	chThdResume
 518              		.syntax unified
 519              		.arm
 520              		.fpu softvfp
 521              		.type	chThdResume, %function
 522              	chThdResume:
 523              	.LVL23:
 524              	.LFB11:
 525              		.loc 1 243 33 is_stmt 1 view -0
 526              		.cfi_startproc
 527              		@ args = 0, pretend = 0, frame = 0
 528              		@ frame_needed = 0, uses_anonymous_args = 0
 529              		.loc 1 245 3 view .LVU200
 530              		.loc 1 243 33 is_stmt 0 view .LVU201
 531 0000 10402DE9 		push	{r4, lr}
 532              		.cfi_def_cfa_offset 8
 533              		.cfi_offset 4, -8
 534              		.cfi_offset 14, -4
 535              		.loc 1 243 33 view .LVU202
 536 0004 0040A0E1 		mov	r4, r0
 537              		.loc 1 245 3 view .LVU203
 538              		.syntax divided
 539              	@ 245 "../../os/kernel/src/chthreads.c" 1
 540 0008 9FF021E3 		msr     CPSR_c, #0x9F
 541              	@ 0 "" 2
 542              		.loc 1 245 3 is_stmt 1 view .LVU204
 543              		.loc 1 245 14 view .LVU205
 544              		.loc 1 246 3 view .LVU206
 545              		.loc 1 248 57 view .LVU207
 546              		.loc 1 249 3 view .LVU208
 547              		.arm
 548              		.syntax unified
 549 000c 0010A0E3 		mov	r1, #0
 550 0010 FEFFFFEB 		bl	chSchWakeupS
 551              	.LVL24:
 552              		.loc 1 250 3 view .LVU209
 553              		.loc 1 250 3 view .LVU210
 554              		.syntax divided
 555              	@ 250 "../../os/kernel/src/chthreads.c" 1
 556 0014 1FF021E3 		msr     CPSR_c, #0x1F
 557              	@ 0 "" 2
 558              		.loc 1 250 16 view .LVU211
 559              		.loc 1 251 3 view .LVU212
 560              		.loc 1 252 1 is_stmt 0 view .LVU213
 561              		.arm
 562              		.syntax unified
 563 0018 0400A0E1 		mov	r0, r4
 564 001c 1080BDE8 		pop	{r4, pc}
 565              		.cfi_endproc
 566              	.LFE11:
 567              		.size	chThdResume, .-chThdResume
 568              		.section	.text.chThdTerminate,"ax",%progbits
 569              		.align	2
 570              		.global	chThdTerminate
ARM GAS  /tmp/ccEt7jHp.s 			page 11


 571              		.syntax unified
 572              		.arm
 573              		.fpu softvfp
 574              		.type	chThdTerminate, %function
 575              	chThdTerminate:
 576              	.LVL25:
 577              	.LFB12:
 578              		.loc 1 266 33 is_stmt 1 view -0
 579              		.cfi_startproc
 580              		@ args = 0, pretend = 0, frame = 0
 581              		@ frame_needed = 0, uses_anonymous_args = 0
 582              		@ link register save eliminated.
 583              		.loc 1 268 3 view .LVU215
 584              		.syntax divided
 585              	@ 268 "../../os/kernel/src/chthreads.c" 1
 586 0000 9FF021E3 		msr     CPSR_c, #0x9F
 587              	@ 0 "" 2
 588              		.loc 1 268 3 view .LVU216
 589              		.loc 1 268 14 view .LVU217
 590              		.loc 1 269 3 view .LVU218
 591              		.loc 1 269 15 is_stmt 0 view .LVU219
 592              		.arm
 593              		.syntax unified
 594 0004 1D30D0E5 		ldrb	r3, [r0, #29]	@ zero_extendqisi2
 595 0008 043083E3 		orr	r3, r3, #4
 596 000c 1D30C0E5 		strb	r3, [r0, #29]
 597              		.loc 1 270 3 is_stmt 1 view .LVU220
 598              		.loc 1 270 3 view .LVU221
 599              		.syntax divided
 600              	@ 270 "../../os/kernel/src/chthreads.c" 1
 601 0010 1FF021E3 		msr     CPSR_c, #0x1F
 602              	@ 0 "" 2
 603              		.loc 1 270 16 view .LVU222
 604              		.loc 1 271 1 is_stmt 0 view .LVU223
 605              		.arm
 606              		.syntax unified
 607 0014 1EFF2FE1 		bx	lr
 608              		.cfi_endproc
 609              	.LFE12:
 610              		.size	chThdTerminate, .-chThdTerminate
 611              		.section	.text.chThdSleep,"ax",%progbits
 612              		.align	2
 613              		.global	chThdSleep
 614              		.syntax unified
 615              		.arm
 616              		.fpu softvfp
 617              		.type	chThdSleep, %function
 618              	chThdSleep:
 619              	.LVL26:
 620              	.LFB13:
 621              		.loc 1 285 33 is_stmt 1 view -0
 622              		.cfi_startproc
 623              		@ args = 0, pretend = 0, frame = 0
 624              		@ frame_needed = 0, uses_anonymous_args = 0
 625              		.loc 1 287 3 view .LVU225
 626              		.loc 1 287 51 view .LVU226
 627              		.loc 1 289 3 view .LVU227
ARM GAS  /tmp/ccEt7jHp.s 			page 12


 628              		.loc 1 285 33 is_stmt 0 view .LVU228
 629 0000 0010A0E1 		mov	r1, r0
 630 0004 10402DE9 		push	{r4, lr}
 631              		.cfi_def_cfa_offset 8
 632              		.cfi_offset 4, -8
 633              		.cfi_offset 14, -4
 634              		.loc 1 289 3 view .LVU229
 635              		.syntax divided
 636              	@ 289 "../../os/kernel/src/chthreads.c" 1
 637 0008 9FF021E3 		msr     CPSR_c, #0x9F
 638              	@ 0 "" 2
 639              		.loc 1 289 3 is_stmt 1 view .LVU230
 640              		.loc 1 289 14 view .LVU231
 641              		.loc 1 290 3 view .LVU232
 642              		.arm
 643              		.syntax unified
 644 000c 0600A0E3 		mov	r0, #6
 645              	.LVL27:
 646              		.loc 1 290 3 is_stmt 0 view .LVU233
 647 0010 FEFFFFEB 		bl	chSchGoSleepTimeoutS
 648              	.LVL28:
 649              		.loc 1 291 3 is_stmt 1 view .LVU234
 650              		.loc 1 291 3 view .LVU235
 651              		.syntax divided
 652              	@ 291 "../../os/kernel/src/chthreads.c" 1
 653 0014 1FF021E3 		msr     CPSR_c, #0x1F
 654              	@ 0 "" 2
 655              		.loc 1 291 16 view .LVU236
 656              		.loc 1 292 1 is_stmt 0 view .LVU237
 657              		.arm
 658              		.syntax unified
 659 0018 1080BDE8 		pop	{r4, pc}
 660              		.cfi_endproc
 661              	.LFE13:
 662              		.size	chThdSleep, .-chThdSleep
 663              		.section	.text.chThdSleepUntil,"ax",%progbits
 664              		.align	2
 665              		.global	chThdSleepUntil
 666              		.syntax unified
 667              		.arm
 668              		.fpu softvfp
 669              		.type	chThdSleepUntil, %function
 670              	chThdSleepUntil:
 671              	.LVL29:
 672              	.LFB14:
 673              		.loc 1 302 38 is_stmt 1 view -0
 674              		.cfi_startproc
 675              		@ args = 0, pretend = 0, frame = 0
 676              		@ frame_needed = 0, uses_anonymous_args = 0
 677              		.loc 1 304 3 view .LVU239
 678              		.syntax divided
 679              	@ 304 "../../os/kernel/src/chthreads.c" 1
 680 0000 9FF021E3 		msr     CPSR_c, #0x9F
 681              	@ 0 "" 2
 682              		.loc 1 304 3 view .LVU240
 683              		.loc 1 304 14 view .LVU241
 684              		.loc 1 305 3 view .LVU242
ARM GAS  /tmp/ccEt7jHp.s 			page 13


 685              		.loc 1 305 16 is_stmt 0 view .LVU243
 686              		.arm
 687              		.syntax unified
 688 0004 24309FE5 		ldr	r3, .L37
 689 0008 0C3093E5 		ldr	r3, [r3, #12]
 690              	.LVL30:
 691              		.loc 1 305 6 view .LVU244
 692 000c 031050E0 		subs	r1, r0, r3
 693              	.LVL31:
 694              		.loc 1 305 6 view .LVU245
 695 0010 0100001A 		bne	.L36
 696              		.loc 1 307 3 is_stmt 1 view .LVU246
 697              		.loc 1 307 3 view .LVU247
 698              		.syntax divided
 699              	@ 307 "../../os/kernel/src/chthreads.c" 1
 700 0014 1FF021E3 		msr     CPSR_c, #0x1F
 701              	@ 0 "" 2
 702              		.loc 1 307 16 view .LVU248
 703              		.loc 1 307 3 is_stmt 0 view .LVU249
 704              		.arm
 705              		.syntax unified
 706 0018 1EFF2FE1 		bx	lr
 707              	.L36:
 708              		.loc 1 306 5 is_stmt 1 view .LVU250
 709              		.loc 1 302 38 is_stmt 0 view .LVU251
 710 001c 10402DE9 		push	{r4, lr}
 711              		.cfi_def_cfa_offset 8
 712              		.cfi_offset 4, -8
 713              		.cfi_offset 14, -4
 714              		.loc 1 306 5 view .LVU252
 715 0020 0600A0E3 		mov	r0, #6
 716 0024 FEFFFFEB 		bl	chSchGoSleepTimeoutS
 717              	.LVL32:
 718              		.loc 1 307 3 is_stmt 1 view .LVU253
 719              		.loc 1 307 3 view .LVU254
 720              		.syntax divided
 721              	@ 307 "../../os/kernel/src/chthreads.c" 1
 722 0028 1FF021E3 		msr     CPSR_c, #0x1F
 723              	@ 0 "" 2
 724              		.loc 1 307 16 view .LVU255
 725              		.loc 1 308 1 is_stmt 0 view .LVU256
 726              		.arm
 727              		.syntax unified
 728 002c 1080BDE8 		pop	{r4, pc}
 729              	.L38:
 730              		.align	2
 731              	.L37:
 732 0030 00000000 		.word	vtlist
 733              		.cfi_endproc
 734              	.LFE14:
 735              		.size	chThdSleepUntil, .-chThdSleepUntil
 736              		.section	.text.chThdYield,"ax",%progbits
 737              		.align	2
 738              		.global	chThdYield
 739              		.syntax unified
 740              		.arm
 741              		.fpu softvfp
ARM GAS  /tmp/ccEt7jHp.s 			page 14


 742              		.type	chThdYield, %function
 743              	chThdYield:
 744              	.LFB15:
 745              		.loc 1 317 23 is_stmt 1 view -0
 746              		.cfi_startproc
 747              		@ args = 0, pretend = 0, frame = 0
 748              		@ frame_needed = 0, uses_anonymous_args = 0
 749              		.loc 1 319 3 view .LVU258
 750              		.syntax divided
 751              	@ 319 "../../os/kernel/src/chthreads.c" 1
 752 0000 9FF021E3 		msr     CPSR_c, #0x9F
 753              	@ 0 "" 2
 754              		.loc 1 319 3 view .LVU259
 755              		.loc 1 319 14 view .LVU260
 756              		.loc 1 320 3 view .LVU261
 757              		.arm
 758              		.syntax unified
 759 0004 2C309FE5 		ldr	r3, .L46
 760 0008 002093E5 		ldr	r2, [r3]
 761 000c 183093E5 		ldr	r3, [r3, #24]
 762 0010 082092E5 		ldr	r2, [r2, #8]
 763 0014 083093E5 		ldr	r3, [r3, #8]
 764 0018 030052E1 		cmp	r2, r3
 765 001c 0100002A 		bcs	.L45
 766              		.loc 1 320 18 view .LVU262
 767              		.loc 1 321 3 view .LVU263
 768              		.loc 1 321 3 view .LVU264
 769              		.syntax divided
 770              	@ 321 "../../os/kernel/src/chthreads.c" 1
 771 0020 1FF021E3 		msr     CPSR_c, #0x1F
 772              	@ 0 "" 2
 773              		.loc 1 321 16 view .LVU265
 774              		.loc 1 321 3 is_stmt 0 view .LVU266
 775              		.arm
 776              		.syntax unified
 777 0024 1EFF2FE1 		bx	lr
 778              	.L45:
 779              		.loc 1 320 3 is_stmt 1 discriminator 1 view .LVU267
 780              		.loc 1 317 23 is_stmt 0 discriminator 1 view .LVU268
 781 0028 10402DE9 		push	{r4, lr}
 782              		.cfi_def_cfa_offset 8
 783              		.cfi_offset 4, -8
 784              		.cfi_offset 14, -4
 785              		.loc 1 320 3 discriminator 1 view .LVU269
 786 002c FEFFFFEB 		bl	chSchDoRescheduleBehind
 787              	.LVL33:
 788              		.loc 1 320 18 is_stmt 1 discriminator 1 view .LVU270
 789              		.loc 1 321 3 discriminator 1 view .LVU271
 790              		.loc 1 321 3 discriminator 1 view .LVU272
 791              		.syntax divided
 792              	@ 321 "../../os/kernel/src/chthreads.c" 1
 793 0030 1FF021E3 		msr     CPSR_c, #0x1F
 794              	@ 0 "" 2
 795              		.loc 1 321 16 discriminator 1 view .LVU273
 796              		.loc 1 322 1 is_stmt 0 discriminator 1 view .LVU274
 797              		.arm
 798              		.syntax unified
ARM GAS  /tmp/ccEt7jHp.s 			page 15


 799 0034 1080BDE8 		pop	{r4, pc}
 800              	.L47:
 801              		.align	2
 802              	.L46:
 803 0038 00000000 		.word	rlist
 804              		.cfi_endproc
 805              	.LFE15:
 806              		.size	chThdYield, .-chThdYield
 807              		.section	.text.chThdExitS,"ax",%progbits
 808              		.align	2
 809              		.global	chThdExitS
 810              		.syntax unified
 811              		.arm
 812              		.fpu softvfp
 813              		.type	chThdExitS, %function
 814              	chThdExitS:
 815              	.LVL34:
 816              	.LFB17:
 817              		.loc 1 359 28 is_stmt 1 view -0
 818              		.cfi_startproc
 819              		@ args = 0, pretend = 0, frame = 0
 820              		@ frame_needed = 0, uses_anonymous_args = 0
 821              		.loc 1 360 3 view .LVU276
 822              		.loc 1 360 11 is_stmt 0 view .LVU277
 823 0000 54309FE5 		ldr	r3, .L54
 824              		.loc 1 359 28 view .LVU278
 825 0004 70402DE9 		push	{r4, r5, r6, lr}
 826              		.cfi_def_cfa_offset 16
 827              		.cfi_offset 4, -16
 828              		.cfi_offset 5, -12
 829              		.cfi_offset 6, -8
 830              		.cfi_offset 14, -4
 831              		.loc 1 360 11 view .LVU279
 832 0008 184093E5 		ldr	r4, [r3, #24]
 833              	.LVL35:
 834              		.loc 1 362 3 is_stmt 1 view .LVU280
 835              		.loc 1 367 10 is_stmt 0 view .LVU281
 836 000c 0450A0E1 		mov	r5, r4
 837              		.loc 1 362 20 view .LVU282
 838 0010 240084E5 		str	r0, [r4, #36]
 839              		.loc 1 364 3 is_stmt 1 view .LVU283
 840              		.loc 1 364 27 view .LVU284
 841              		.loc 1 367 3 view .LVU285
 842              		.loc 1 367 10 view .LVU286
 843 0014 2800B5E5 		ldr	r0, [r5, #40]!
 844              	.LVL36:
 845              		.loc 1 367 10 is_stmt 0 view .LVU287
 846 0018 000055E1 		cmp	r5, r0
 847 001c 0500000A 		beq	.L49
 848              	.LVL37:
 849              	.L50:
 850              		.loc 1 368 5 is_stmt 1 view .LVU288
 851              	.LBB30:
 852              	.LBI30:
 853              		.file 2 "../../os/kernel/include/chinline.h"
 854              		.loc 2 79 23 view .LVU289
 855              	.LBB31:
ARM GAS  /tmp/ccEt7jHp.s 			page 16


 856              		.loc 2 81 3 view .LVU290
 857              		.loc 2 82 3 view .LVU291
 858              		.loc 2 82 15 is_stmt 0 view .LVU292
 859 0020 003090E5 		ldr	r3, [r0]
 860 0024 283084E5 		str	r3, [r4, #40]
 861              		.loc 2 83 3 is_stmt 1 view .LVU293
 862              	.LVL38:
 863              		.loc 2 83 3 is_stmt 0 view .LVU294
 864              	.LBE31:
 865              	.LBE30:
 866              		.loc 1 368 5 view .LVU295
 867 0028 FEFFFFEB 		bl	chSchReadyI
 868              	.LVL39:
 869              		.loc 1 367 10 is_stmt 1 view .LVU296
 870 002c 280094E5 		ldr	r0, [r4, #40]
 871 0030 050050E1 		cmp	r0, r5
 872 0034 F9FFFF1A 		bne	.L50
 873              	.L49:
 874              		.loc 1 373 3 view .LVU297
 875              		.loc 1 373 6 is_stmt 0 view .LVU298
 876 0038 1D30D4E5 		ldrb	r3, [r4, #29]	@ zero_extendqisi2
 877              		.loc 1 376 3 view .LVU299
 878 003c 0E00A0E3 		mov	r0, #14
 879              		.loc 1 373 6 view .LVU300
 880 0040 030013E3 		tst	r3, #3
 881              		.loc 1 374 5 is_stmt 1 view .LVU301
 882 0044 14209405 		ldreq	r2, [r4, #20]
 883 0048 10309405 		ldreq	r3, [r4, #16]
 884              		.loc 1 379 1 is_stmt 0 view .LVU302
 885 004c 7040BDE8 		pop	{r4, r5, r6, lr}
 886              		.cfi_restore 14
 887              		.cfi_restore 6
 888              		.cfi_restore 5
 889              		.cfi_restore 4
 890              		.cfi_def_cfa_offset 0
 891              	.LVL40:
 892              		.loc 1 374 5 view .LVU303
 893 0050 10308205 		streq	r3, [r2, #16]
 894              		.loc 1 374 5 is_stmt 1 view .LVU304
 895 0054 14208305 		streq	r2, [r3, #20]
 896              		.loc 1 374 19 view .LVU305
 897              		.loc 1 376 3 view .LVU306
 898 0058 FEFFFFEA 		b	chSchGoSleepS
 899              	.LVL41:
 900              	.L55:
 901              		.align	2
 902              	.L54:
 903 005c 00000000 		.word	rlist
 904              		.cfi_endproc
 905              	.LFE17:
 906              		.size	chThdExitS, .-chThdExitS
 907              		.section	.text.chThdExit,"ax",%progbits
 908              		.align	2
 909              		.global	chThdExit
 910              		.syntax unified
 911              		.arm
 912              		.fpu softvfp
ARM GAS  /tmp/ccEt7jHp.s 			page 17


 913              		.type	chThdExit, %function
 914              	chThdExit:
 915              	.LVL42:
 916              	.LFB16:
 917              		.loc 1 338 27 view -0
 918              		.cfi_startproc
 919              		@ args = 0, pretend = 0, frame = 0
 920              		@ frame_needed = 0, uses_anonymous_args = 0
 921              		@ link register save eliminated.
 922              		.loc 1 340 3 view .LVU308
 923              		.syntax divided
 924              	@ 340 "../../os/kernel/src/chthreads.c" 1
 925 0000 9FF021E3 		msr     CPSR_c, #0x9F
 926              	@ 0 "" 2
 927              		.loc 1 340 3 view .LVU309
 928              		.loc 1 340 14 view .LVU310
 929              		.loc 1 341 3 view .LVU311
 930              		.arm
 931              		.syntax unified
 932 0004 FEFFFFEA 		b	chThdExitS
 933              	.LVL43:
 934              		.loc 1 341 3 is_stmt 0 view .LVU312
 935              		.cfi_endproc
 936              	.LFE16:
 937              		.size	chThdExit, .-chThdExit
 938              		.section	.text.chThdWait,"ax",%progbits
 939              		.align	2
 940              		.global	chThdWait
 941              		.syntax unified
 942              		.arm
 943              		.fpu softvfp
 944              		.type	chThdWait, %function
 945              	chThdWait:
 946              	.LVL44:
 947              	.LFB18:
 948              		.loc 1 413 29 is_stmt 1 view -0
 949              		.cfi_startproc
 950              		@ args = 0, pretend = 0, frame = 0
 951              		@ frame_needed = 0, uses_anonymous_args = 0
 952              		.loc 1 414 3 view .LVU314
 953              		.loc 1 416 3 view .LVU315
 954              		.loc 1 416 38 view .LVU316
 955              		.loc 1 418 3 view .LVU317
 956              		.loc 1 413 29 is_stmt 0 view .LVU318
 957 0000 70402DE9 		push	{r4, r5, r6, lr}
 958              		.cfi_def_cfa_offset 16
 959              		.cfi_offset 4, -16
 960              		.cfi_offset 5, -12
 961              		.cfi_offset 6, -8
 962              		.cfi_offset 14, -4
 963              		.loc 1 413 29 view .LVU319
 964 0004 0040A0E1 		mov	r4, r0
 965              		.loc 1 418 3 view .LVU320
 966              		.syntax divided
 967              	@ 418 "../../os/kernel/src/chthreads.c" 1
 968 0008 9FF021E3 		msr     CPSR_c, #0x9F
 969              	@ 0 "" 2
ARM GAS  /tmp/ccEt7jHp.s 			page 18


 970              		.loc 1 418 3 is_stmt 1 view .LVU321
 971              		.loc 1 418 14 view .LVU322
 972              		.loc 1 419 3 view .LVU323
 973              		.loc 1 419 62 view .LVU324
 974              		.loc 1 421 3 view .LVU325
 975              		.loc 1 421 67 view .LVU326
 976              		.loc 1 423 3 view .LVU327
 977              		.loc 1 423 6 is_stmt 0 view .LVU328
 978              		.arm
 979              		.syntax unified
 980 000c 1C30D0E5 		ldrb	r3, [r0, #28]	@ zero_extendqisi2
 981 0010 0E0053E3 		cmp	r3, #14
 982 0014 0600000A 		beq	.L58
 983              		.loc 1 419 3 view .LVU329
 984 0018 2C309FE5 		ldr	r3, .L63
 985              	.LBB32:
 986              	.LBB33:
 987              		.loc 2 75 14 view .LVU330
 988 001c 282090E5 		ldr	r2, [r0, #40]
 989              	.LBE33:
 990              	.LBE32:
 991              		.loc 1 419 3 view .LVU331
 992 0020 183093E5 		ldr	r3, [r3, #24]
 993              		.loc 1 424 5 is_stmt 1 view .LVU332
 994              	.LVL45:
 995              	.LBB36:
 996              	.LBI32:
 997              		.loc 2 73 20 view .LVU333
 998              	.LBB34:
 999              		.loc 2 75 3 view .LVU334
 1000              	.LBE34:
 1001              	.LBE36:
 1002              		.loc 1 425 5 is_stmt 0 view .LVU335
 1003 0024 0700A0E3 		mov	r0, #7
 1004              	.LVL46:
 1005              	.LBB37:
 1006              	.LBB35:
 1007              		.loc 2 75 14 view .LVU336
 1008 0028 002083E5 		str	r2, [r3]
 1009              		.loc 2 76 3 is_stmt 1 view .LVU337
 1010              		.loc 2 76 15 is_stmt 0 view .LVU338
 1011 002c 283084E5 		str	r3, [r4, #40]
 1012              	.LVL47:
 1013              		.loc 2 76 15 view .LVU339
 1014              	.LBE35:
 1015              	.LBE37:
 1016              		.loc 1 425 5 is_stmt 1 view .LVU340
 1017 0030 FEFFFFEB 		bl	chSchGoSleepS
 1018              	.LVL48:
 1019              	.L58:
 1020              		.loc 1 427 3 view .LVU341
 1021              		.loc 1 427 7 is_stmt 0 view .LVU342
 1022 0034 245094E5 		ldr	r5, [r4, #36]
 1023              	.LVL49:
 1024              		.loc 1 428 3 is_stmt 1 view .LVU343
 1025              		.loc 1 428 3 view .LVU344
 1026              		.syntax divided
ARM GAS  /tmp/ccEt7jHp.s 			page 19


 1027              	@ 428 "../../os/kernel/src/chthreads.c" 1
 1028 0038 1FF021E3 		msr     CPSR_c, #0x1F
 1029              	@ 0 "" 2
 1030              		.loc 1 428 16 view .LVU345
 1031              		.loc 1 430 3 view .LVU346
 1032              		.arm
 1033              		.syntax unified
 1034 003c 0400A0E1 		mov	r0, r4
 1035 0040 FEFFFFEB 		bl	chThdRelease
 1036              	.LVL50:
 1037              		.loc 1 432 3 view .LVU347
 1038              		.loc 1 433 1 is_stmt 0 view .LVU348
 1039 0044 0500A0E1 		mov	r0, r5
 1040 0048 7080BDE8 		pop	{r4, r5, r6, pc}
 1041              	.L64:
 1042              		.align	2
 1043              	.L63:
 1044 004c 00000000 		.word	rlist
 1045              		.cfi_endproc
 1046              	.LFE18:
 1047              		.size	chThdWait, .-chThdWait
 1048              		.text
 1049              	.Letext0:
 1050              		.file 3 "/usr/lib/gcc/arm-none-eabi/11.2.0/include/stddef.h"
 1051              		.file 4 "/usr/arm-none-eabi/include/machine/_default_types.h"
 1052              		.file 5 "/usr/arm-none-eabi/include/sys/_stdint.h"
 1053              		.file 6 "../../os/ports/GCC/ARM/chtypes.h"
 1054              		.file 7 "../../os/kernel/include/chlists.h"
 1055              		.file 8 "../../os/kernel/include/chthreads.h"
 1056              		.file 9 "../../os/ports/GCC/ARM/chcore.h"
 1057              		.file 10 "../../os/kernel/include/chvt.h"
 1058              		.file 11 "../../os/kernel/include/chschd.h"
 1059              		.file 12 "../../os/kernel/include/chmtx.h"
 1060              		.file 13 "../../os/kernel/include/chdynamic.h"
 1061              		.section	.debug_info,"",%progbits
 1062              	.Ldebug_info0:
 1063 0000 D50A0000 		.4byte	0xad5
 1064 0004 0500     		.2byte	0x5
 1065 0006 01       		.byte	0x1
 1066 0007 04       		.byte	0x4
 1067 0008 00000000 		.4byte	.Ldebug_abbrev0
 1068 000c 21       		.uleb128 0x21
 1069 000d E8010000 		.4byte	.LASF101
 1070 0011 1D       		.byte	0x1d
 1071 0012 89040000 		.4byte	.LASF102
 1072 0016 B3020000 		.4byte	.LASF103
 1073 001a 3D000000 		.4byte	.LLRL36
 1074 001e 00000000 		.4byte	0
 1075 0022 00000000 		.4byte	.Ldebug_line0
 1076 0026 22       		.uleb128 0x22
 1077 0027 04       		.byte	0x4
 1078 0028 05       		.byte	0x5
 1079 0029 696E7400 		.ascii	"int\000"
 1080 002d 02       		.uleb128 0x2
 1081 002e 0E000000 		.4byte	.LASF2
 1082 0032 03       		.byte	0x3
 1083 0033 D1       		.byte	0xd1
ARM GAS  /tmp/ccEt7jHp.s 			page 20


 1084 0034 17       		.byte	0x17
 1085 0035 39000000 		.4byte	0x39
 1086 0039 06       		.uleb128 0x6
 1087 003a 04       		.byte	0x4
 1088 003b 07       		.byte	0x7
 1089 003c 1E010000 		.4byte	.LASF0
 1090 0040 06       		.uleb128 0x6
 1091 0041 01       		.byte	0x1
 1092 0042 06       		.byte	0x6
 1093 0043 72000000 		.4byte	.LASF1
 1094 0047 02       		.uleb128 0x2
 1095 0048 21000000 		.4byte	.LASF3
 1096 004c 04       		.byte	0x4
 1097 004d 2B       		.byte	0x2b
 1098 004e 18       		.byte	0x18
 1099 004f 53000000 		.4byte	0x53
 1100 0053 06       		.uleb128 0x6
 1101 0054 01       		.byte	0x1
 1102 0055 08       		.byte	0x8
 1103 0056 4A030000 		.4byte	.LASF4
 1104 005a 06       		.uleb128 0x6
 1105 005b 02       		.byte	0x2
 1106 005c 05       		.byte	0x5
 1107 005d 62030000 		.4byte	.LASF5
 1108 0061 06       		.uleb128 0x6
 1109 0062 02       		.byte	0x2
 1110 0063 07       		.byte	0x7
 1111 0064 5B010000 		.4byte	.LASF6
 1112 0068 02       		.uleb128 0x2
 1113 0069 20040000 		.4byte	.LASF7
 1114 006d 04       		.byte	0x4
 1115 006e 4D       		.byte	0x4d
 1116 006f 18       		.byte	0x18
 1117 0070 74000000 		.4byte	0x74
 1118 0074 06       		.uleb128 0x6
 1119 0075 04       		.byte	0x4
 1120 0076 05       		.byte	0x5
 1121 0077 A7000000 		.4byte	.LASF8
 1122 007b 02       		.uleb128 0x2
 1123 007c F1000000 		.4byte	.LASF9
 1124 0080 04       		.byte	0x4
 1125 0081 4F       		.byte	0x4f
 1126 0082 19       		.byte	0x19
 1127 0083 87000000 		.4byte	0x87
 1128 0087 06       		.uleb128 0x6
 1129 0088 04       		.byte	0x4
 1130 0089 07       		.byte	0x7
 1131 008a 33010000 		.4byte	.LASF10
 1132 008e 06       		.uleb128 0x6
 1133 008f 08       		.byte	0x8
 1134 0090 05       		.byte	0x5
 1135 0091 64000000 		.4byte	.LASF11
 1136 0095 06       		.uleb128 0x6
 1137 0096 08       		.byte	0x8
 1138 0097 07       		.byte	0x7
 1139 0098 3D000000 		.4byte	.LASF12
 1140 009c 02       		.uleb128 0x2
ARM GAS  /tmp/ccEt7jHp.s 			page 21


 1141 009d 81040000 		.4byte	.LASF13
 1142 00a1 05       		.byte	0x5
 1143 00a2 18       		.byte	0x18
 1144 00a3 13       		.byte	0x13
 1145 00a4 47000000 		.4byte	0x47
 1146 00a8 02       		.uleb128 0x2
 1147 00a9 42030000 		.4byte	.LASF14
 1148 00ad 05       		.byte	0x5
 1149 00ae 2C       		.byte	0x2c
 1150 00af 13       		.byte	0x13
 1151 00b0 68000000 		.4byte	0x68
 1152 00b4 02       		.uleb128 0x2
 1153 00b5 C8030000 		.4byte	.LASF15
 1154 00b9 05       		.byte	0x5
 1155 00ba 30       		.byte	0x30
 1156 00bb 14       		.byte	0x14
 1157 00bc 7B000000 		.4byte	0x7b
 1158 00c0 02       		.uleb128 0x2
 1159 00c1 91010000 		.4byte	.LASF16
 1160 00c5 06       		.byte	0x6
 1161 00c6 2A       		.byte	0x2a
 1162 00c7 19       		.byte	0x19
 1163 00c8 9C000000 		.4byte	0x9c
 1164 00cc 02       		.uleb128 0x2
 1165 00cd B0000000 		.4byte	.LASF17
 1166 00d1 06       		.byte	0x6
 1167 00d2 2B       		.byte	0x2b
 1168 00d3 19       		.byte	0x19
 1169 00d4 9C000000 		.4byte	0x9c
 1170 00d8 02       		.uleb128 0x2
 1171 00d9 2B030000 		.4byte	.LASF18
 1172 00dd 06       		.byte	0x6
 1173 00de 2C       		.byte	0x2c
 1174 00df 19       		.byte	0x19
 1175 00e0 9C000000 		.4byte	0x9c
 1176 00e4 02       		.uleb128 0x2
 1177 00e5 90000000 		.4byte	.LASF19
 1178 00e9 06       		.byte	0x6
 1179 00ea 2D       		.byte	0x2d
 1180 00eb 19       		.byte	0x19
 1181 00ec 9C000000 		.4byte	0x9c
 1182 00f0 02       		.uleb128 0x2
 1183 00f1 3A030000 		.4byte	.LASF20
 1184 00f5 06       		.byte	0x6
 1185 00f6 2E       		.byte	0x2e
 1186 00f7 19       		.byte	0x19
 1187 00f8 B4000000 		.4byte	0xb4
 1188 00fc 02       		.uleb128 0x2
 1189 00fd 7B010000 		.4byte	.LASF21
 1190 0101 06       		.byte	0x6
 1191 0102 2F       		.byte	0x2f
 1192 0103 19       		.byte	0x19
 1193 0104 A8000000 		.4byte	0xa8
 1194 0108 02       		.uleb128 0x2
 1195 0109 B4010000 		.4byte	.LASF22
 1196 010d 06       		.byte	0x6
 1197 010e 31       		.byte	0x31
ARM GAS  /tmp/ccEt7jHp.s 			page 22


 1198 010f 19       		.byte	0x19
 1199 0110 B4000000 		.4byte	0xb4
 1200 0114 02       		.uleb128 0x2
 1201 0115 0B040000 		.4byte	.LASF23
 1202 0119 06       		.byte	0x6
 1203 011a 33       		.byte	0x33
 1204 011b 19       		.byte	0x19
 1205 011c B4000000 		.4byte	0xb4
 1206 0120 23       		.uleb128 0x23
 1207 0121 14010000 		.4byte	0x114
 1208 0125 02       		.uleb128 0x2
 1209 0126 A8030000 		.4byte	.LASF24
 1210 012a 07       		.byte	0x7
 1211 012b 23       		.byte	0x23
 1212 012c 17       		.byte	0x17
 1213 012d 31010000 		.4byte	0x131
 1214 0131 0B       		.uleb128 0xb
 1215 0132 A8030000 		.4byte	.LASF24
 1216 0136 44       		.byte	0x44
 1217 0137 08       		.byte	0x8
 1218 0138 57       		.byte	0x57
 1219 0139 08       		.byte	0x8
 1220 013a 36020000 		.4byte	0x236
 1221 013e 01       		.uleb128 0x1
 1222 013f 8C030000 		.4byte	.LASF25
 1223 0143 08       		.byte	0x8
 1224 0144 58       		.byte	0x58
 1225 0145 1A       		.byte	0x1a
 1226 0146 59020000 		.4byte	0x259
 1227 014a 00       		.byte	0
 1228 014b 01       		.uleb128 0x1
 1229 014c 33030000 		.4byte	.LASF26
 1230 0150 08       		.byte	0x8
 1231 0151 5A       		.byte	0x5a
 1232 0152 1A       		.byte	0x1a
 1233 0153 59020000 		.4byte	0x259
 1234 0157 04       		.byte	0x4
 1235 0158 01       		.uleb128 0x1
 1236 0159 5D000000 		.4byte	.LASF27
 1237 015d 08       		.byte	0x8
 1238 015e 5C       		.byte	0x5c
 1239 015f 19       		.byte	0x19
 1240 0160 F0000000 		.4byte	0xf0
 1241 0164 08       		.byte	0x8
 1242 0165 01       		.uleb128 0x1
 1243 0166 E6040000 		.4byte	.LASF28
 1244 016a 08       		.byte	0x8
 1245 016b 5D       		.byte	0x5d
 1246 016c 19       		.byte	0x19
 1247 016d 16030000 		.4byte	0x316
 1248 0171 0C       		.byte	0xc
 1249 0172 01       		.uleb128 0x1
 1250 0173 CC000000 		.4byte	.LASF29
 1251 0177 08       		.byte	0x8
 1252 0178 5F       		.byte	0x5f
 1253 0179 1A       		.byte	0x1a
 1254 017a 59020000 		.4byte	0x259
ARM GAS  /tmp/ccEt7jHp.s 			page 23


 1255 017e 10       		.byte	0x10
 1256 017f 01       		.uleb128 0x1
 1257 0180 DD020000 		.4byte	.LASF30
 1258 0184 08       		.byte	0x8
 1259 0185 60       		.byte	0x60
 1260 0186 1A       		.byte	0x1a
 1261 0187 59020000 		.4byte	0x259
 1262 018b 14       		.byte	0x14
 1263 018c 01       		.uleb128 0x1
 1264 018d B0040000 		.4byte	.LASF31
 1265 0191 08       		.byte	0x8
 1266 0192 67       		.byte	0x67
 1267 0193 1A       		.byte	0x1a
 1268 0194 F2040000 		.4byte	0x4f2
 1269 0198 18       		.byte	0x18
 1270 0199 01       		.uleb128 0x1
 1271 019a 6C030000 		.4byte	.LASF32
 1272 019e 08       		.byte	0x8
 1273 019f 72       		.byte	0x72
 1274 01a0 19       		.byte	0x19
 1275 01a1 CC000000 		.4byte	0xcc
 1276 01a5 1C       		.byte	0x1c
 1277 01a6 01       		.uleb128 0x1
 1278 01a7 93030000 		.4byte	.LASF33
 1279 01ab 08       		.byte	0x8
 1280 01ac 76       		.byte	0x76
 1281 01ad 19       		.byte	0x19
 1282 01ae C0000000 		.4byte	0xc0
 1283 01b2 1D       		.byte	0x1d
 1284 01b3 01       		.uleb128 0x1
 1285 01b4 6A040000 		.4byte	.LASF34
 1286 01b8 08       		.byte	0x8
 1287 01b9 7B       		.byte	0x7b
 1288 01ba 19       		.byte	0x19
 1289 01bb D8000000 		.4byte	0xd8
 1290 01bf 1E       		.byte	0x1e
 1291 01c0 01       		.uleb128 0x1
 1292 01c1 74030000 		.4byte	.LASF35
 1293 01c5 08       		.byte	0x8
 1294 01c6 81       		.byte	0x81
 1295 01c7 19       		.byte	0x19
 1296 01c8 E4000000 		.4byte	0xe4
 1297 01cc 1F       		.byte	0x1f
 1298 01cd 01       		.uleb128 0x1
 1299 01ce 35040000 		.4byte	.LASF36
 1300 01d2 08       		.byte	0x8
 1301 01d3 88       		.byte	0x88
 1302 01d4 19       		.byte	0x19
 1303 01d5 20010000 		.4byte	0x120
 1304 01d9 20       		.byte	0x20
 1305 01da 04       		.uleb128 0x4
 1306 01db 705F7500 		.ascii	"p_u\000"
 1307 01df 08       		.byte	0x8
 1308 01e0 AD       		.byte	0xad
 1309 01e1 19       		.byte	0x19
 1310 01e2 BC040000 		.4byte	0x4bc
 1311 01e6 24       		.byte	0x24
ARM GAS  /tmp/ccEt7jHp.s 			page 24


 1312 01e7 01       		.uleb128 0x1
 1313 01e8 EC040000 		.4byte	.LASF37
 1314 01ec 08       		.byte	0x8
 1315 01ed B2       		.byte	0xb2
 1316 01ee 19       		.byte	0x19
 1317 01ef 80020000 		.4byte	0x280
 1318 01f3 28       		.byte	0x28
 1319 01f4 01       		.uleb128 0x1
 1320 01f5 43040000 		.4byte	.LASF38
 1321 01f9 08       		.byte	0x8
 1322 01fa B8       		.byte	0xb8
 1323 01fb 19       		.byte	0x19
 1324 01fc 5E020000 		.4byte	0x25e
 1325 0200 2C       		.byte	0x2c
 1326 0201 01       		.uleb128 0x1
 1327 0202 08000000 		.4byte	.LASF39
 1328 0206 08       		.byte	0x8
 1329 0207 BC       		.byte	0xbc
 1330 0208 19       		.byte	0x19
 1331 0209 FC000000 		.4byte	0xfc
 1332 020d 34       		.byte	0x34
 1333 020e 01       		.uleb128 0x1
 1334 020f BD030000 		.4byte	.LASF40
 1335 0213 08       		.byte	0x8
 1336 0214 C2       		.byte	0xc2
 1337 0215 19       		.byte	0x19
 1338 0216 08010000 		.4byte	0x108
 1339 021a 38       		.byte	0x38
 1340 021b 01       		.uleb128 0x1
 1341 021c 58030000 		.4byte	.LASF41
 1342 0220 08       		.byte	0x8
 1343 0221 C9       		.byte	0xc9
 1344 0222 1A       		.byte	0x1a
 1345 0223 03050000 		.4byte	0x503
 1346 0227 3C       		.byte	0x3c
 1347 0228 01       		.uleb128 0x1
 1348 0229 15040000 		.4byte	.LASF42
 1349 022d 08       		.byte	0x8
 1350 022e CD       		.byte	0xcd
 1351 022f 19       		.byte	0x19
 1352 0230 F0000000 		.4byte	0xf0
 1353 0234 40       		.byte	0x40
 1354 0235 00       		.byte	0
 1355 0236 0D       		.uleb128 0xd
 1356 0237 08       		.byte	0x8
 1357 0238 07       		.byte	0x7
 1358 0239 5A       		.byte	0x5a
 1359 023a 59020000 		.4byte	0x259
 1360 023e 01       		.uleb128 0x1
 1361 023f 8C030000 		.4byte	.LASF25
 1362 0243 07       		.byte	0x7
 1363 0244 5B       		.byte	0x5b
 1364 0245 1A       		.byte	0x1a
 1365 0246 59020000 		.4byte	0x259
 1366 024a 00       		.byte	0
 1367 024b 01       		.uleb128 0x1
 1368 024c 33030000 		.4byte	.LASF26
ARM GAS  /tmp/ccEt7jHp.s 			page 25


 1369 0250 07       		.byte	0x7
 1370 0251 5D       		.byte	0x5d
 1371 0252 1A       		.byte	0x1a
 1372 0253 59020000 		.4byte	0x259
 1373 0257 04       		.byte	0x4
 1374 0258 00       		.byte	0
 1375 0259 07       		.uleb128 0x7
 1376 025a 25010000 		.4byte	0x125
 1377 025e 02       		.uleb128 0x2
 1378 025f EB020000 		.4byte	.LASF43
 1379 0263 07       		.byte	0x7
 1380 0264 5F       		.byte	0x5f
 1381 0265 03       		.byte	0x3
 1382 0266 36020000 		.4byte	0x236
 1383 026a 0D       		.uleb128 0xd
 1384 026b 04       		.byte	0x4
 1385 026c 07       		.byte	0x7
 1386 026d 64       		.byte	0x64
 1387 026e 80020000 		.4byte	0x280
 1388 0272 01       		.uleb128 0x1
 1389 0273 8C030000 		.4byte	.LASF25
 1390 0277 07       		.byte	0x7
 1391 0278 66       		.byte	0x66
 1392 0279 16       		.byte	0x16
 1393 027a 59020000 		.4byte	0x259
 1394 027e 00       		.byte	0
 1395 027f 00       		.byte	0
 1396 0280 02       		.uleb128 0x2
 1397 0281 A8010000 		.4byte	.LASF44
 1398 0285 07       		.byte	0x7
 1399 0286 69       		.byte	0x69
 1400 0287 03       		.byte	0x3
 1401 0288 6A020000 		.4byte	0x26a
 1402 028c 02       		.uleb128 0x2
 1403 028d FC000000 		.4byte	.LASF45
 1404 0291 09       		.byte	0x9
 1405 0292 A2       		.byte	0xa2
 1406 0293 0F       		.byte	0xf
 1407 0294 98020000 		.4byte	0x298
 1408 0298 24       		.uleb128 0x24
 1409 0299 04       		.byte	0x4
 1410 029a 0B       		.uleb128 0xb
 1411 029b 3C040000 		.4byte	.LASF46
 1412 029f 24       		.byte	0x24
 1413 02a0 09       		.byte	0x9
 1414 02a1 B9       		.byte	0xb9
 1415 02a2 08       		.byte	0x8
 1416 02a3 16030000 		.4byte	0x316
 1417 02a7 04       		.uleb128 0x4
 1418 02a8 723400   		.ascii	"r4\000"
 1419 02ab 09       		.byte	0x9
 1420 02ac BA       		.byte	0xba
 1421 02ad 11       		.byte	0x11
 1422 02ae 8C020000 		.4byte	0x28c
 1423 02b2 00       		.byte	0
 1424 02b3 04       		.uleb128 0x4
 1425 02b4 723500   		.ascii	"r5\000"
ARM GAS  /tmp/ccEt7jHp.s 			page 26


 1426 02b7 09       		.byte	0x9
 1427 02b8 BB       		.byte	0xbb
 1428 02b9 11       		.byte	0x11
 1429 02ba 8C020000 		.4byte	0x28c
 1430 02be 04       		.byte	0x4
 1431 02bf 04       		.uleb128 0x4
 1432 02c0 723600   		.ascii	"r6\000"
 1433 02c3 09       		.byte	0x9
 1434 02c4 BC       		.byte	0xbc
 1435 02c5 11       		.byte	0x11
 1436 02c6 8C020000 		.4byte	0x28c
 1437 02ca 08       		.byte	0x8
 1438 02cb 04       		.uleb128 0x4
 1439 02cc 723700   		.ascii	"r7\000"
 1440 02cf 09       		.byte	0x9
 1441 02d0 BD       		.byte	0xbd
 1442 02d1 11       		.byte	0x11
 1443 02d2 8C020000 		.4byte	0x28c
 1444 02d6 0C       		.byte	0xc
 1445 02d7 04       		.uleb128 0x4
 1446 02d8 723800   		.ascii	"r8\000"
 1447 02db 09       		.byte	0x9
 1448 02dc BE       		.byte	0xbe
 1449 02dd 11       		.byte	0x11
 1450 02de 8C020000 		.4byte	0x28c
 1451 02e2 10       		.byte	0x10
 1452 02e3 04       		.uleb128 0x4
 1453 02e4 723900   		.ascii	"r9\000"
 1454 02e7 09       		.byte	0x9
 1455 02e8 BF       		.byte	0xbf
 1456 02e9 11       		.byte	0x11
 1457 02ea 8C020000 		.4byte	0x28c
 1458 02ee 14       		.byte	0x14
 1459 02ef 04       		.uleb128 0x4
 1460 02f0 72313000 		.ascii	"r10\000"
 1461 02f4 09       		.byte	0x9
 1462 02f5 C0       		.byte	0xc0
 1463 02f6 11       		.byte	0x11
 1464 02f7 8C020000 		.4byte	0x28c
 1465 02fb 18       		.byte	0x18
 1466 02fc 04       		.uleb128 0x4
 1467 02fd 72313100 		.ascii	"r11\000"
 1468 0301 09       		.byte	0x9
 1469 0302 C1       		.byte	0xc1
 1470 0303 11       		.byte	0x11
 1471 0304 8C020000 		.4byte	0x28c
 1472 0308 1C       		.byte	0x1c
 1473 0309 04       		.uleb128 0x4
 1474 030a 6C7200   		.ascii	"lr\000"
 1475 030d 09       		.byte	0x9
 1476 030e C2       		.byte	0xc2
 1477 030f 11       		.byte	0x11
 1478 0310 8C020000 		.4byte	0x28c
 1479 0314 20       		.byte	0x20
 1480 0315 00       		.byte	0
 1481 0316 0B       		.uleb128 0xb
 1482 0317 4E010000 		.4byte	.LASF47
ARM GAS  /tmp/ccEt7jHp.s 			page 27


 1483 031b 04       		.byte	0x4
 1484 031c 09       		.byte	0x9
 1485 031d CA       		.byte	0xca
 1486 031e 08       		.byte	0x8
 1487 031f 31030000 		.4byte	0x331
 1488 0323 04       		.uleb128 0x4
 1489 0324 72313300 		.ascii	"r13\000"
 1490 0328 09       		.byte	0x9
 1491 0329 CB       		.byte	0xcb
 1492 032a 12       		.byte	0x12
 1493 032b 31030000 		.4byte	0x331
 1494 032f 00       		.byte	0
 1495 0330 00       		.byte	0
 1496 0331 07       		.uleb128 0x7
 1497 0332 9A020000 		.4byte	0x29a
 1498 0336 02       		.uleb128 0x2
 1499 0337 45010000 		.4byte	.LASF48
 1500 033b 0A       		.byte	0xa
 1501 033c 4E       		.byte	0x4e
 1502 033d 10       		.byte	0x10
 1503 033e 42030000 		.4byte	0x342
 1504 0342 07       		.uleb128 0x7
 1505 0343 47030000 		.4byte	0x347
 1506 0347 25       		.uleb128 0x25
 1507 0348 52030000 		.4byte	0x352
 1508 034c 08       		.uleb128 0x8
 1509 034d 98020000 		.4byte	0x298
 1510 0351 00       		.byte	0
 1511 0352 02       		.uleb128 0x2
 1512 0353 E6030000 		.4byte	.LASF49
 1513 0357 0A       		.byte	0xa
 1514 0358 53       		.byte	0x53
 1515 0359 1D       		.byte	0x1d
 1516 035a 5E030000 		.4byte	0x35e
 1517 035e 0B       		.uleb128 0xb
 1518 035f E6030000 		.4byte	.LASF49
 1519 0363 14       		.byte	0x14
 1520 0364 0A       		.byte	0xa
 1521 0365 5A       		.byte	0x5a
 1522 0366 08       		.byte	0x8
 1523 0367 AD030000 		.4byte	0x3ad
 1524 036b 01       		.uleb128 0x1
 1525 036c 2B010000 		.4byte	.LASF50
 1526 0370 0A       		.byte	0xa
 1527 0371 5B       		.byte	0x5b
 1528 0372 1A       		.byte	0x1a
 1529 0373 AD030000 		.4byte	0x3ad
 1530 0377 00       		.byte	0
 1531 0378 01       		.uleb128 0x1
 1532 0379 05010000 		.4byte	.LASF51
 1533 037d 0A       		.byte	0xa
 1534 037e 5D       		.byte	0x5d
 1535 037f 1A       		.byte	0x1a
 1536 0380 AD030000 		.4byte	0x3ad
 1537 0384 04       		.byte	0x4
 1538 0385 01       		.uleb128 0x1
 1539 0386 E0010000 		.4byte	.LASF52
ARM GAS  /tmp/ccEt7jHp.s 			page 28


 1540 038a 0A       		.byte	0xa
 1541 038b 5F       		.byte	0x5f
 1542 038c 19       		.byte	0x19
 1543 038d 14010000 		.4byte	0x114
 1544 0391 08       		.byte	0x8
 1545 0392 01       		.uleb128 0x1
 1546 0393 87020000 		.4byte	.LASF53
 1547 0397 0A       		.byte	0xa
 1548 0398 60       		.byte	0x60
 1549 0399 19       		.byte	0x19
 1550 039a 36030000 		.4byte	0x336
 1551 039e 0C       		.byte	0xc
 1552 039f 01       		.uleb128 0x1
 1553 03a0 58040000 		.4byte	.LASF54
 1554 03a4 0A       		.byte	0xa
 1555 03a5 62       		.byte	0x62
 1556 03a6 1A       		.byte	0x1a
 1557 03a7 98020000 		.4byte	0x298
 1558 03ab 10       		.byte	0x10
 1559 03ac 00       		.byte	0
 1560 03ad 07       		.uleb128 0x7
 1561 03ae 52030000 		.4byte	0x352
 1562 03b2 0D       		.uleb128 0xd
 1563 03b3 10       		.byte	0x10
 1564 03b4 0A       		.byte	0xa
 1565 03b5 6C       		.byte	0x6c
 1566 03b6 EF030000 		.4byte	0x3ef
 1567 03ba 01       		.uleb128 0x1
 1568 03bb 2B010000 		.4byte	.LASF50
 1569 03bf 0A       		.byte	0xa
 1570 03c0 6D       		.byte	0x6d
 1571 03c1 1A       		.byte	0x1a
 1572 03c2 AD030000 		.4byte	0x3ad
 1573 03c6 00       		.byte	0
 1574 03c7 01       		.uleb128 0x1
 1575 03c8 05010000 		.4byte	.LASF51
 1576 03cc 0A       		.byte	0xa
 1577 03cd 6F       		.byte	0x6f
 1578 03ce 1A       		.byte	0x1a
 1579 03cf AD030000 		.4byte	0x3ad
 1580 03d3 04       		.byte	0x4
 1581 03d4 01       		.uleb128 0x1
 1582 03d5 E0010000 		.4byte	.LASF52
 1583 03d9 0A       		.byte	0xa
 1584 03da 71       		.byte	0x71
 1585 03db 19       		.byte	0x19
 1586 03dc 14010000 		.4byte	0x114
 1587 03e0 08       		.byte	0x8
 1588 03e1 01       		.uleb128 0x1
 1589 03e2 B7040000 		.4byte	.LASF55
 1590 03e6 0A       		.byte	0xa
 1591 03e7 72       		.byte	0x72
 1592 03e8 19       		.byte	0x19
 1593 03e9 20010000 		.4byte	0x120
 1594 03ed 0C       		.byte	0xc
 1595 03ee 00       		.byte	0
 1596 03ef 02       		.uleb128 0x2
ARM GAS  /tmp/ccEt7jHp.s 			page 29


 1597 03f0 D7040000 		.4byte	.LASF56
 1598 03f4 0A       		.byte	0xa
 1599 03f5 73       		.byte	0x73
 1600 03f6 03       		.byte	0x3
 1601 03f7 B2030000 		.4byte	0x3b2
 1602 03fb 18       		.uleb128 0x18
 1603 03fc 2B000000 		.4byte	.LASF64
 1604 0400 0A       		.byte	0xa
 1605 0401 D1       		.byte	0xd1
 1606 0402 0F       		.byte	0xf
 1607 0403 EF030000 		.4byte	0x3ef
 1608 0407 0D       		.uleb128 0xd
 1609 0408 1C       		.byte	0x1c
 1610 0409 0B       		.byte	0xb
 1611 040a 57       		.byte	0x57
 1612 040b 5E040000 		.4byte	0x45e
 1613 040f 01       		.uleb128 0x1
 1614 0410 DE030000 		.4byte	.LASF57
 1615 0414 0B       		.byte	0xb
 1616 0415 58       		.byte	0x58
 1617 0416 19       		.byte	0x19
 1618 0417 5E020000 		.4byte	0x25e
 1619 041b 00       		.byte	0
 1620 041c 01       		.uleb128 0x1
 1621 041d 7E030000 		.4byte	.LASF58
 1622 0421 0B       		.byte	0xb
 1623 0422 59       		.byte	0x59
 1624 0423 19       		.byte	0x19
 1625 0424 F0000000 		.4byte	0xf0
 1626 0428 08       		.byte	0x8
 1627 0429 01       		.uleb128 0x1
 1628 042a E5020000 		.4byte	.LASF59
 1629 042e 0B       		.byte	0xb
 1630 042f 5B       		.byte	0x5b
 1631 0430 19       		.byte	0x19
 1632 0431 16030000 		.4byte	0x316
 1633 0435 0C       		.byte	0xc
 1634 0436 01       		.uleb128 0x1
 1635 0437 81010000 		.4byte	.LASF60
 1636 043b 0B       		.byte	0xb
 1637 043c 5E       		.byte	0x5e
 1638 043d 1A       		.byte	0x1a
 1639 043e 59020000 		.4byte	0x259
 1640 0442 10       		.byte	0x10
 1641 0443 01       		.uleb128 0x1
 1642 0444 13030000 		.4byte	.LASF61
 1643 0448 0B       		.byte	0xb
 1644 0449 5F       		.byte	0x5f
 1645 044a 1A       		.byte	0x1a
 1646 044b 59020000 		.4byte	0x259
 1647 044f 14       		.byte	0x14
 1648 0450 01       		.uleb128 0x1
 1649 0451 09030000 		.4byte	.LASF62
 1650 0455 0B       		.byte	0xb
 1651 0456 62       		.byte	0x62
 1652 0457 1A       		.byte	0x1a
 1653 0458 59020000 		.4byte	0x259
ARM GAS  /tmp/ccEt7jHp.s 			page 30


 1654 045c 18       		.byte	0x18
 1655 045d 00       		.byte	0
 1656 045e 02       		.uleb128 0x2
 1657 045f 71040000 		.4byte	.LASF63
 1658 0463 0B       		.byte	0xb
 1659 0464 64       		.byte	0x64
 1660 0465 03       		.byte	0x3
 1661 0466 07040000 		.4byte	0x407
 1662 046a 18       		.uleb128 0x18
 1663 046b 7B040000 		.4byte	.LASF65
 1664 046f 0B       		.byte	0xb
 1665 0470 68       		.byte	0x68
 1666 0471 12       		.byte	0x12
 1667 0472 5E040000 		.4byte	0x45e
 1668 0476 0B       		.uleb128 0xb
 1669 0477 C0010000 		.4byte	.LASF66
 1670 047b 10       		.byte	0x10
 1671 047c 0C       		.byte	0xc
 1672 047d 25       		.byte	0x25
 1673 047e 10       		.byte	0x10
 1674 047f AB040000 		.4byte	0x4ab
 1675 0483 01       		.uleb128 0x1
 1676 0484 88000000 		.4byte	.LASF67
 1677 0488 0C       		.byte	0xc
 1678 0489 26       		.byte	0x26
 1679 048a 19       		.byte	0x19
 1680 048b 5E020000 		.4byte	0x25e
 1681 048f 00       		.byte	0
 1682 0490 01       		.uleb128 0x1
 1683 0491 DE040000 		.4byte	.LASF68
 1684 0495 0C       		.byte	0xc
 1685 0496 28       		.byte	0x28
 1686 0497 1A       		.byte	0x1a
 1687 0498 59020000 		.4byte	0x259
 1688 049c 08       		.byte	0x8
 1689 049d 01       		.uleb128 0x1
 1690 049e 04040000 		.4byte	.LASF69
 1691 04a2 0C       		.byte	0xc
 1692 04a3 2A       		.byte	0x2a
 1693 04a4 1A       		.byte	0x1a
 1694 04a5 AB040000 		.4byte	0x4ab
 1695 04a9 0C       		.byte	0xc
 1696 04aa 00       		.byte	0
 1697 04ab 07       		.uleb128 0x7
 1698 04ac 76040000 		.4byte	0x476
 1699 04b0 02       		.uleb128 0x2
 1700 04b1 C0010000 		.4byte	.LASF66
 1701 04b5 0C       		.byte	0xc
 1702 04b6 2C       		.byte	0x2c
 1703 04b7 03       		.byte	0x3
 1704 04b8 76040000 		.4byte	0x476
 1705 04bc 26       		.uleb128 0x26
 1706 04bd 04       		.byte	0x4
 1707 04be 08       		.byte	0x8
 1708 04bf 8F       		.byte	0x8f
 1709 04c0 03       		.byte	0x3
 1710 04c1 F2040000 		.4byte	0x4f2
ARM GAS  /tmp/ccEt7jHp.s 			page 31


 1711 04c5 0E       		.uleb128 0xe
 1712 04c6 1A000000 		.4byte	.LASF70
 1713 04ca 96       		.byte	0x96
 1714 04cb 19       		.byte	0x19
 1715 04cc FC000000 		.4byte	0xfc
 1716 04d0 0E       		.uleb128 0xe
 1717 04d1 54000000 		.4byte	.LASF71
 1718 04d5 9D       		.byte	0x9d
 1719 04d6 19       		.byte	0x19
 1720 04d7 FC000000 		.4byte	0xfc
 1721 04db 0E       		.uleb128 0xe
 1722 04dc A9040000 		.4byte	.LASF72
 1723 04e0 A4       		.byte	0xa4
 1724 04e1 1A       		.byte	0x1a
 1725 04e2 98020000 		.4byte	0x298
 1726 04e6 0E       		.uleb128 0xe
 1727 04e7 85030000 		.4byte	.LASF73
 1728 04eb AB       		.byte	0xab
 1729 04ec 19       		.byte	0x19
 1730 04ed 08010000 		.4byte	0x108
 1731 04f1 00       		.byte	0
 1732 04f2 07       		.uleb128 0x7
 1733 04f3 FE040000 		.4byte	0x4fe
 1734 04f7 06       		.uleb128 0x6
 1735 04f8 01       		.byte	0x1
 1736 04f9 08       		.byte	0x8
 1737 04fa F3030000 		.4byte	.LASF74
 1738 04fe 27       		.uleb128 0x27
 1739 04ff F7040000 		.4byte	0x4f7
 1740 0503 07       		.uleb128 0x7
 1741 0504 B0040000 		.4byte	0x4b0
 1742 0508 02       		.uleb128 0x2
 1743 0509 00000000 		.4byte	.LASF75
 1744 050d 08       		.byte	0x8
 1745 050e DE       		.byte	0xde
 1746 050f 11       		.byte	0x11
 1747 0510 14050000 		.4byte	0x514
 1748 0514 07       		.uleb128 0x7
 1749 0515 19050000 		.4byte	0x519
 1750 0519 28       		.uleb128 0x28
 1751 051a FC000000 		.4byte	0xfc
 1752 051e 28050000 		.4byte	0x528
 1753 0522 08       		.uleb128 0x8
 1754 0523 98020000 		.4byte	0x298
 1755 0527 00       		.byte	0
 1756 0528 0F       		.uleb128 0xf
 1757 0529 9B030000 		.4byte	.LASF76
 1758 052d 0D       		.byte	0xd
 1759 052e 33       		.byte	0x33
 1760 052f 39050000 		.4byte	0x539
 1761 0533 08       		.uleb128 0x8
 1762 0534 59020000 		.4byte	0x259
 1763 0538 00       		.byte	0
 1764 0539 0F       		.uleb128 0xf
 1765 053a AF030000 		.4byte	.LASF77
 1766 053e 0B       		.byte	0xb
 1767 053f 8C       		.byte	0x8c
ARM GAS  /tmp/ccEt7jHp.s 			page 32


 1768 0540 4A050000 		.4byte	0x54a
 1769 0544 08       		.uleb128 0x8
 1770 0545 CC000000 		.4byte	0xcc
 1771 0549 00       		.byte	0
 1772 054a 19       		.uleb128 0x19
 1773 054b F8030000 		.4byte	.LASF78
 1774 054f 89       		.byte	0x89
 1775 0550 0B       		.byte	0xb
 1776 0551 59020000 		.4byte	0x259
 1777 0555 5F050000 		.4byte	0x55f
 1778 0559 08       		.uleb128 0x8
 1779 055a 59020000 		.4byte	0x259
 1780 055e 00       		.byte	0
 1781 055f 1A       		.uleb128 0x1a
 1782 0560 9B020000 		.4byte	.LASF80
 1783 0564 9B       		.byte	0x9b
 1784 0565 19       		.uleb128 0x19
 1785 0566 C2040000 		.4byte	.LASF79
 1786 056a 8F       		.byte	0x8f
 1787 056b 09       		.byte	0x9
 1788 056c FC000000 		.4byte	0xfc
 1789 0570 7F050000 		.4byte	0x57f
 1790 0574 08       		.uleb128 0x8
 1791 0575 CC000000 		.4byte	0xcc
 1792 0579 08       		.uleb128 0x8
 1793 057a 14010000 		.4byte	0x114
 1794 057e 00       		.byte	0
 1795 057f 1A       		.uleb128 0x1a
 1796 0580 E0000000 		.4byte	.LASF81
 1797 0584 95       		.byte	0x95
 1798 0585 0F       		.uleb128 0xf
 1799 0586 6E010000 		.4byte	.LASF82
 1800 058a 0B       		.byte	0xb
 1801 058b 92       		.byte	0x92
 1802 058c 9B050000 		.4byte	0x59b
 1803 0590 08       		.uleb128 0x8
 1804 0591 59020000 		.4byte	0x259
 1805 0595 08       		.uleb128 0x8
 1806 0596 FC000000 		.4byte	0xfc
 1807 059a 00       		.byte	0
 1808 059b 29       		.uleb128 0x29
 1809 059c B9000000 		.4byte	.LASF83
 1810 05a0 09       		.byte	0x9
 1811 05a1 DC01     		.2byte	0x1dc
 1812 05a3 08       		.byte	0x8
 1813 05a4 2A       		.uleb128 0x2a
 1814 05a5 4E040000 		.4byte	.LASF91
 1815 05a9 01       		.byte	0x1
 1816 05aa 9D01     		.2byte	0x19d
 1817 05ac 07       		.byte	0x7
 1818 05ad FC000000 		.4byte	0xfc
 1819 05b1 00000000 		.4byte	.LFB18
 1820 05b5 50000000 		.4byte	.LFE18-.LFB18
 1821 05b9 01       		.uleb128 0x1
 1822 05ba 9C       		.byte	0x9c
 1823 05bb 33060000 		.4byte	0x633
 1824 05bf 10       		.uleb128 0x10
ARM GAS  /tmp/ccEt7jHp.s 			page 33


 1825 05c0 747000   		.ascii	"tp\000"
 1826 05c3 9D01     		.2byte	0x19d
 1827 05c5 19       		.byte	0x19
 1828 05c6 59020000 		.4byte	0x259
 1829 05ca 10000000 		.4byte	.LLST32
 1830 05ce 0C000000 		.4byte	.LVUS32
 1831 05d2 1B       		.uleb128 0x1b
 1832 05d3 6D736700 		.ascii	"msg\000"
 1833 05d7 9E01     		.2byte	0x19e
 1834 05d9 09       		.byte	0x9
 1835 05da FC000000 		.4byte	0xfc
 1836 05de 22000000 		.4byte	.LLST33
 1837 05e2 20000000 		.4byte	.LVUS33
 1838 05e6 2B       		.uleb128 0x2b
 1839 05e7 0E0A0000 		.4byte	0xa0e
 1840 05eb 24000000 		.4byte	.LBI32
 1841 05ef 01       		.byte	.LVU333
 1842 05f0 2E000000 		.4byte	.LLRL34
 1843 05f4 01       		.byte	0x1
 1844 05f5 A801     		.2byte	0x1a8
 1845 05f7 05       		.byte	0x5
 1846 05f8 0F060000 		.4byte	0x60f
 1847 05fc 03       		.uleb128 0x3
 1848 05fd 260A0000 		.4byte	0xa26
 1849 0601 2F000000 		.4byte	.LLST35
 1850 0605 2B000000 		.4byte	.LVUS35
 1851 0609 2C       		.uleb128 0x2c
 1852 060a 1B0A0000 		.4byte	0xa1b
 1853 060e 00       		.byte	0
 1854 060f 2D       		.uleb128 0x2d
 1855 0610 34000000 		.4byte	.LVL48
 1856 0614 39050000 		.4byte	0x539
 1857 0618 22060000 		.4byte	0x622
 1858 061c 05       		.uleb128 0x5
 1859 061d 01       		.uleb128 0x1
 1860 061e 50       		.byte	0x50
 1861 061f 01       		.uleb128 0x1
 1862 0620 37       		.byte	0x37
 1863 0621 00       		.byte	0
 1864 0622 0C       		.uleb128 0xc
 1865 0623 44000000 		.4byte	.LVL50
 1866 0627 28050000 		.4byte	0x528
 1867 062b 05       		.uleb128 0x5
 1868 062c 01       		.uleb128 0x1
 1869 062d 50       		.byte	0x50
 1870 062e 02       		.uleb128 0x2
 1871 062f 74       		.byte	0x74
 1872 0630 00       		.sleb128 0
 1873 0631 00       		.byte	0
 1874 0632 00       		.byte	0
 1875 0633 0A       		.uleb128 0xa
 1876 0634 32000000 		.4byte	.LASF84
 1877 0638 6701     		.2byte	0x167
 1878 063a 00000000 		.4byte	.LFB17
 1879 063e 60000000 		.4byte	.LFE17-.LFB17
 1880 0642 01       		.uleb128 0x1
 1881 0643 9C       		.byte	0x9c
ARM GAS  /tmp/ccEt7jHp.s 			page 34


 1882 0644 BD060000 		.4byte	0x6bd
 1883 0648 10       		.uleb128 0x10
 1884 0649 6D736700 		.ascii	"msg\000"
 1885 064d 6701     		.2byte	0x167
 1886 064f 17       		.byte	0x17
 1887 0650 FC000000 		.4byte	0xfc
 1888 0654 49000000 		.4byte	.LLST27
 1889 0658 43000000 		.4byte	.LVUS27
 1890 065c 1B       		.uleb128 0x1b
 1891 065d 747000   		.ascii	"tp\000"
 1892 0660 6801     		.2byte	0x168
 1893 0662 0B       		.byte	0xb
 1894 0663 59020000 		.4byte	0x259
 1895 0667 64000000 		.4byte	.LLST28
 1896 066b 62000000 		.4byte	.LVUS28
 1897 066f 2E       		.uleb128 0x2e
 1898 0670 E1090000 		.4byte	0x9e1
 1899 0674 20000000 		.4byte	.LBI30
 1900 0678 01       		.byte	.LVU289
 1901 0679 20000000 		.4byte	.LBB30
 1902 067d 08000000 		.4byte	.LBE30-.LBB30
 1903 0681 01       		.byte	0x1
 1904 0682 7001     		.2byte	0x170
 1905 0684 05       		.byte	0x5
 1906 0685 A4060000 		.4byte	0x6a4
 1907 0689 03       		.uleb128 0x3
 1908 068a F2090000 		.4byte	0x9f2
 1909 068e 6F000000 		.4byte	.LLST29
 1910 0692 6D000000 		.4byte	.LVUS29
 1911 0696 11       		.uleb128 0x11
 1912 0697 FE090000 		.4byte	0x9fe
 1913 069b 7A000000 		.4byte	.LLST30
 1914 069f 78000000 		.4byte	.LVUS30
 1915 06a3 00       		.byte	0
 1916 06a4 12       		.uleb128 0x12
 1917 06a5 2C000000 		.4byte	.LVL39
 1918 06a9 4A050000 		.4byte	0x54a
 1919 06ad 1C       		.uleb128 0x1c
 1920 06ae 5C000000 		.4byte	.LVL41
 1921 06b2 39050000 		.4byte	0x539
 1922 06b6 05       		.uleb128 0x5
 1923 06b7 01       		.uleb128 0x1
 1924 06b8 50       		.byte	0x50
 1925 06b9 01       		.uleb128 0x1
 1926 06ba 3E       		.byte	0x3e
 1927 06bb 00       		.byte	0
 1928 06bc 00       		.byte	0
 1929 06bd 0A       		.uleb128 0xa
 1930 06be 7E000000 		.4byte	.LASF85
 1931 06c2 5201     		.2byte	0x152
 1932 06c4 00000000 		.4byte	.LFB16
 1933 06c8 08000000 		.4byte	.LFE16-.LFB16
 1934 06cc 01       		.uleb128 0x1
 1935 06cd 9C       		.byte	0x9c
 1936 06ce F8060000 		.4byte	0x6f8
 1937 06d2 10       		.uleb128 0x10
 1938 06d3 6D736700 		.ascii	"msg\000"
ARM GAS  /tmp/ccEt7jHp.s 			page 35


 1939 06d7 5201     		.2byte	0x152
 1940 06d9 16       		.byte	0x16
 1941 06da FC000000 		.4byte	0xfc
 1942 06de 87000000 		.4byte	.LLST31
 1943 06e2 83000000 		.4byte	.LVUS31
 1944 06e6 1C       		.uleb128 0x1c
 1945 06e7 08000000 		.4byte	.LVL43
 1946 06eb 33060000 		.4byte	0x633
 1947 06ef 05       		.uleb128 0x5
 1948 06f0 01       		.uleb128 0x1
 1949 06f1 50       		.byte	0x50
 1950 06f2 03       		.uleb128 0x3
 1951 06f3 A3       		.byte	0xa3
 1952 06f4 01       		.uleb128 0x1
 1953 06f5 50       		.byte	0x50
 1954 06f6 00       		.byte	0
 1955 06f7 00       		.byte	0
 1956 06f8 0A       		.uleb128 0xa
 1957 06f9 2A040000 		.4byte	.LASF86
 1958 06fd 3D01     		.2byte	0x13d
 1959 06ff 00000000 		.4byte	.LFB15
 1960 0703 3C000000 		.4byte	.LFE15-.LFB15
 1961 0707 01       		.uleb128 0x1
 1962 0708 9C       		.byte	0x9c
 1963 0709 17070000 		.4byte	0x717
 1964 070d 12       		.uleb128 0x12
 1965 070e 30000000 		.4byte	.LVL33
 1966 0712 5F050000 		.4byte	0x55f
 1967 0716 00       		.byte	0
 1968 0717 0A       		.uleb128 0xa
 1969 0718 1B030000 		.4byte	.LASF87
 1970 071c 2E01     		.2byte	0x12e
 1971 071e 00000000 		.4byte	.LFB14
 1972 0722 34000000 		.4byte	.LFE14-.LFB14
 1973 0726 01       		.uleb128 0x1
 1974 0727 9C       		.byte	0x9c
 1975 0728 50070000 		.4byte	0x750
 1976 072c 1D       		.uleb128 0x1d
 1977 072d F8020000 		.4byte	.LASF88
 1978 0731 2E01     		.2byte	0x12e
 1979 0733 20       		.byte	0x20
 1980 0734 14010000 		.4byte	0x114
 1981 0738 A0000000 		.4byte	.LLST26
 1982 073c 9A000000 		.4byte	.LVUS26
 1983 0740 0C       		.uleb128 0xc
 1984 0741 28000000 		.4byte	.LVL32
 1985 0745 65050000 		.4byte	0x565
 1986 0749 05       		.uleb128 0x5
 1987 074a 01       		.uleb128 0x1
 1988 074b 50       		.byte	0x50
 1989 074c 01       		.uleb128 0x1
 1990 074d 36       		.byte	0x36
 1991 074e 00       		.byte	0
 1992 074f 00       		.byte	0
 1993 0750 0A       		.uleb128 0xa
 1994 0751 5F040000 		.4byte	.LASF89
 1995 0755 1D01     		.2byte	0x11d
ARM GAS  /tmp/ccEt7jHp.s 			page 36


 1996 0757 00000000 		.4byte	.LFB13
 1997 075b 1C000000 		.4byte	.LFE13-.LFB13
 1998 075f 01       		.uleb128 0x1
 1999 0760 9C       		.byte	0x9c
 2000 0761 90070000 		.4byte	0x790
 2001 0765 1D       		.uleb128 0x1d
 2002 0766 F8020000 		.4byte	.LASF88
 2003 076a 1D01     		.2byte	0x11d
 2004 076c 1B       		.byte	0x1b
 2005 076d 14010000 		.4byte	0x114
 2006 0771 C0000000 		.4byte	.LLST25
 2007 0775 BA000000 		.4byte	.LVUS25
 2008 0779 0C       		.uleb128 0xc
 2009 077a 14000000 		.4byte	.LVL28
 2010 077e 65050000 		.4byte	0x565
 2011 0782 05       		.uleb128 0x5
 2012 0783 01       		.uleb128 0x1
 2013 0784 50       		.byte	0x50
 2014 0785 01       		.uleb128 0x1
 2015 0786 36       		.byte	0x36
 2016 0787 05       		.uleb128 0x5
 2017 0788 01       		.uleb128 0x1
 2018 0789 51       		.byte	0x51
 2019 078a 03       		.uleb128 0x3
 2020 078b A3       		.byte	0xa3
 2021 078c 01       		.uleb128 0x1
 2022 078d 50       		.byte	0x50
 2023 078e 00       		.byte	0
 2024 078f 00       		.byte	0
 2025 0790 0A       		.uleb128 0xa
 2026 0791 99010000 		.4byte	.LASF90
 2027 0795 0A01     		.2byte	0x10a
 2028 0797 00000000 		.4byte	.LFB12
 2029 079b 18000000 		.4byte	.LFE12-.LFB12
 2030 079f 01       		.uleb128 0x1
 2031 07a0 9C       		.byte	0x9c
 2032 07a1 B4070000 		.4byte	0x7b4
 2033 07a5 2F       		.uleb128 0x2f
 2034 07a6 747000   		.ascii	"tp\000"
 2035 07a9 01       		.byte	0x1
 2036 07aa 0A01     		.2byte	0x10a
 2037 07ac 1D       		.byte	0x1d
 2038 07ad 59020000 		.4byte	0x259
 2039 07b1 01       		.uleb128 0x1
 2040 07b2 50       		.byte	0x50
 2041 07b3 00       		.byte	0
 2042 07b4 13       		.uleb128 0x13
 2043 07b5 8F020000 		.4byte	.LASF92
 2044 07b9 F3       		.byte	0xf3
 2045 07ba 59020000 		.4byte	0x259
 2046 07be 00000000 		.4byte	.LFB11
 2047 07c2 20000000 		.4byte	.LFE11-.LFB11
 2048 07c6 01       		.uleb128 0x1
 2049 07c7 9C       		.byte	0x9c
 2050 07c8 F4070000 		.4byte	0x7f4
 2051 07cc 14       		.uleb128 0x14
 2052 07cd 747000   		.ascii	"tp\000"
ARM GAS  /tmp/ccEt7jHp.s 			page 37


 2053 07d0 F3       		.byte	0xf3
 2054 07d1 1D       		.byte	0x1d
 2055 07d2 59020000 		.4byte	0x259
 2056 07d6 DC000000 		.4byte	.LLST24
 2057 07da D8000000 		.4byte	.LVUS24
 2058 07de 0C       		.uleb128 0xc
 2059 07df 14000000 		.4byte	.LVL24
 2060 07e3 85050000 		.4byte	0x585
 2061 07e7 05       		.uleb128 0x5
 2062 07e8 01       		.uleb128 0x1
 2063 07e9 50       		.byte	0x50
 2064 07ea 02       		.uleb128 0x2
 2065 07eb 74       		.byte	0x74
 2066 07ec 00       		.sleb128 0
 2067 07ed 05       		.uleb128 0x5
 2068 07ee 01       		.uleb128 0x1
 2069 07ef 51       		.byte	0x51
 2070 07f0 01       		.uleb128 0x1
 2071 07f1 30       		.byte	0x30
 2072 07f2 00       		.byte	0
 2073 07f3 00       		.byte	0
 2074 07f4 13       		.uleb128 0x13
 2075 07f5 0D010000 		.4byte	.LASF93
 2076 07f9 D2       		.byte	0xd2
 2077 07fa F0000000 		.4byte	0xf0
 2078 07fe 00000000 		.4byte	.LFB10
 2079 0802 50000000 		.4byte	.LFE10-.LFB10
 2080 0806 01       		.uleb128 0x1
 2081 0807 9C       		.byte	0x9c
 2082 0808 3D080000 		.4byte	0x83d
 2083 080c 15       		.uleb128 0x15
 2084 080d 89010000 		.4byte	.LASF94
 2085 0811 D2       		.byte	0xd2
 2086 0812 22       		.byte	0x22
 2087 0813 F0000000 		.4byte	0xf0
 2088 0817 F2000000 		.4byte	.LLST22
 2089 081b EC000000 		.4byte	.LVUS22
 2090 081f 30       		.uleb128 0x30
 2091 0820 C6010000 		.4byte	.LASF95
 2092 0824 01       		.byte	0x1
 2093 0825 D3       		.byte	0xd3
 2094 0826 0B       		.byte	0xb
 2095 0827 F0000000 		.4byte	0xf0
 2096 082b 0C010000 		.4byte	.LLST23
 2097 082f 0A010000 		.4byte	.LVUS23
 2098 0833 12       		.uleb128 0x12
 2099 0834 40000000 		.4byte	.LVL22
 2100 0838 7F050000 		.4byte	0x57f
 2101 083c 00       		.byte	0
 2102 083d 13       		.uleb128 0x13
 2103 083e CE010000 		.4byte	.LASF96
 2104 0842 B4       		.byte	0xb4
 2105 0843 59020000 		.4byte	0x259
 2106 0847 00000000 		.4byte	.LFB9
 2107 084b A4000000 		.4byte	.LFE9-.LFB9
 2108 084f 01       		.uleb128 0x1
 2109 0850 9C       		.byte	0x9c
ARM GAS  /tmp/ccEt7jHp.s 			page 38


 2110 0851 6A090000 		.4byte	0x96a
 2111 0855 14       		.uleb128 0x14
 2112 0856 77737000 		.ascii	"wsp\000"
 2113 085a B4       		.byte	0xb4
 2114 085b 21       		.byte	0x21
 2115 085c 98020000 		.4byte	0x298
 2116 0860 19010000 		.4byte	.LLST8
 2117 0864 15010000 		.4byte	.LVUS8
 2118 0868 15       		.uleb128 0x15
 2119 0869 56010000 		.4byte	.LASF97
 2120 086d B4       		.byte	0xb4
 2121 086e 2D       		.byte	0x2d
 2122 086f 2D000000 		.4byte	0x2d
 2123 0873 32010000 		.4byte	.LLST9
 2124 0877 2C010000 		.4byte	.LVUS9
 2125 087b 15       		.uleb128 0x15
 2126 087c 15000000 		.4byte	.LASF98
 2127 0880 B5       		.byte	0xb5
 2128 0881 23       		.byte	0x23
 2129 0882 F0000000 		.4byte	0xf0
 2130 0886 55010000 		.4byte	.LLST10
 2131 088a 4F010000 		.4byte	.LVUS10
 2132 088e 14       		.uleb128 0x14
 2133 088f 706600   		.ascii	"pf\000"
 2134 0892 B5       		.byte	0xb5
 2135 0893 31       		.byte	0x31
 2136 0894 08050000 		.4byte	0x508
 2137 0898 77010000 		.4byte	.LLST11
 2138 089c 71010000 		.4byte	.LVUS11
 2139 08a0 31       		.uleb128 0x31
 2140 08a1 61726700 		.ascii	"arg\000"
 2141 08a5 01       		.byte	0x1
 2142 08a6 B5       		.byte	0xb5
 2143 08a7 3B       		.byte	0x3b
 2144 08a8 98020000 		.4byte	0x298
 2145 08ac 02       		.uleb128 0x2
 2146 08ad 91       		.byte	0x91
 2147 08ae 00       		.sleb128 0
 2148 08af 32       		.uleb128 0x32
 2149 08b0 747000   		.ascii	"tp\000"
 2150 08b3 01       		.byte	0x1
 2151 08b4 B6       		.byte	0xb6
 2152 08b5 0B       		.byte	0xb
 2153 08b6 59020000 		.4byte	0x259
 2154 08ba 95010000 		.4byte	.LLST12
 2155 08be 91010000 		.4byte	.LVUS12
 2156 08c2 33       		.uleb128 0x33
 2157 08c3 6A090000 		.4byte	0x96a
 2158 08c7 0C000000 		.4byte	.LBI20
 2159 08cb 03       		.byte	.LVU110
 2160 08cc 0C000000 		.4byte	.LBB20
 2161 08d0 80000000 		.4byte	.LBE20-.LBB20
 2162 08d4 01       		.byte	0x1
 2163 08d5 C1       		.byte	0xc1
 2164 08d6 15       		.byte	0x15
 2165 08d7 54090000 		.4byte	0x954
 2166 08db 03       		.uleb128 0x3
ARM GAS  /tmp/ccEt7jHp.s 			page 39


 2167 08dc A5090000 		.4byte	0x9a5
 2168 08e0 A7010000 		.4byte	.LLST13
 2169 08e4 A5010000 		.4byte	.LVUS13
 2170 08e8 03       		.uleb128 0x3
 2171 08e9 9A090000 		.4byte	0x99a
 2172 08ed B8010000 		.4byte	.LLST14
 2173 08f1 B2010000 		.4byte	.LVUS14
 2174 08f5 03       		.uleb128 0x3
 2175 08f6 8F090000 		.4byte	0x98f
 2176 08fa D6010000 		.4byte	.LLST15
 2177 08fe D2010000 		.4byte	.LVUS15
 2178 0902 03       		.uleb128 0x3
 2179 0903 84090000 		.4byte	0x984
 2180 0907 EC010000 		.4byte	.LLST16
 2181 090b E8010000 		.4byte	.LVUS16
 2182 090f 03       		.uleb128 0x3
 2183 0910 78090000 		.4byte	0x978
 2184 0914 01020000 		.4byte	.LLST17
 2185 0918 FF010000 		.4byte	.LVUS17
 2186 091c 11       		.uleb128 0x11
 2187 091d B1090000 		.4byte	0x9b1
 2188 0921 0F020000 		.4byte	.LLST18
 2189 0925 0B020000 		.4byte	.LVUS18
 2190 0929 1E       		.uleb128 0x1e
 2191 092a BC090000 		.4byte	0x9bc
 2192 092e 44000000 		.4byte	.LBI22
 2193 0932 03       		.byte	.LVU132
 2194 0933 1B000000 		.4byte	.LLRL19
 2195 0937 A1       		.byte	0xa1
 2196 0938 03       		.uleb128 0x3
 2197 0939 D5090000 		.4byte	0x9d5
 2198 093d 26020000 		.4byte	.LLST20
 2199 0941 22020000 		.4byte	.LVUS20
 2200 0945 03       		.uleb128 0x3
 2201 0946 CA090000 		.4byte	0x9ca
 2202 094a 39020000 		.4byte	.LLST21
 2203 094e 37020000 		.4byte	.LVUS21
 2204 0952 00       		.byte	0
 2205 0953 00       		.byte	0
 2206 0954 0C       		.uleb128 0xc
 2207 0955 90000000 		.4byte	.LVL18
 2208 0959 85050000 		.4byte	0x585
 2209 095d 05       		.uleb128 0x5
 2210 095e 01       		.uleb128 0x1
 2211 095f 50       		.byte	0x50
 2212 0960 02       		.uleb128 0x2
 2213 0961 74       		.byte	0x74
 2214 0962 00       		.sleb128 0
 2215 0963 05       		.uleb128 0x5
 2216 0964 01       		.uleb128 0x1
 2217 0965 51       		.byte	0x51
 2218 0966 01       		.uleb128 0x1
 2219 0967 30       		.byte	0x30
 2220 0968 00       		.byte	0
 2221 0969 00       		.byte	0
 2222 096a 1F       		.uleb128 0x1f
 2223 096b 9A000000 		.4byte	.LASF99
ARM GAS  /tmp/ccEt7jHp.s 			page 40


 2224 096f 96       		.byte	0x96
 2225 0970 59020000 		.4byte	0x259
 2226 0974 BC090000 		.4byte	0x9bc
 2227 0978 09       		.uleb128 0x9
 2228 0979 77737000 		.ascii	"wsp\000"
 2229 097d 01       		.byte	0x1
 2230 097e 96       		.byte	0x96
 2231 097f 1C       		.byte	0x1c
 2232 0980 98020000 		.4byte	0x298
 2233 0984 16       		.uleb128 0x16
 2234 0985 56010000 		.4byte	.LASF97
 2235 0989 96       		.byte	0x96
 2236 098a 28       		.byte	0x28
 2237 098b 2D000000 		.4byte	0x2d
 2238 098f 16       		.uleb128 0x16
 2239 0990 15000000 		.4byte	.LASF98
 2240 0994 97       		.byte	0x97
 2241 0995 1E       		.byte	0x1e
 2242 0996 F0000000 		.4byte	0xf0
 2243 099a 09       		.uleb128 0x9
 2244 099b 706600   		.ascii	"pf\000"
 2245 099e 01       		.byte	0x1
 2246 099f 97       		.byte	0x97
 2247 09a0 2C       		.byte	0x2c
 2248 09a1 08050000 		.4byte	0x508
 2249 09a5 09       		.uleb128 0x9
 2250 09a6 61726700 		.ascii	"arg\000"
 2251 09aa 01       		.byte	0x1
 2252 09ab 97       		.byte	0x97
 2253 09ac 36       		.byte	0x36
 2254 09ad 98020000 		.4byte	0x298
 2255 09b1 20       		.uleb128 0x20
 2256 09b2 747000   		.ascii	"tp\000"
 2257 09b5 01       		.byte	0x1
 2258 09b6 99       		.byte	0x99
 2259 09b7 59020000 		.4byte	0x259
 2260 09bb 00       		.byte	0
 2261 09bc 1F       		.uleb128 0x1f
 2262 09bd D1030000 		.4byte	.LASF100
 2263 09c1 45       		.byte	0x45
 2264 09c2 59020000 		.4byte	0x259
 2265 09c6 E1090000 		.4byte	0x9e1
 2266 09ca 09       		.uleb128 0x9
 2267 09cb 747000   		.ascii	"tp\000"
 2268 09ce 01       		.byte	0x1
 2269 09cf 45       		.byte	0x45
 2270 09d0 1E       		.byte	0x1e
 2271 09d1 59020000 		.4byte	0x259
 2272 09d5 16       		.uleb128 0x16
 2273 09d6 15000000 		.4byte	.LASF98
 2274 09da 45       		.byte	0x45
 2275 09db 2A       		.byte	0x2a
 2276 09dc F0000000 		.4byte	0xf0
 2277 09e0 00       		.byte	0
 2278 09e1 34       		.uleb128 0x34
 2279 09e2 D4000000 		.4byte	.LASF104
 2280 09e6 02       		.byte	0x2
ARM GAS  /tmp/ccEt7jHp.s 			page 41


 2281 09e7 4F       		.byte	0x4f
 2282 09e8 17       		.byte	0x17
 2283 09e9 59020000 		.4byte	0x259
 2284 09ed 03       		.byte	0x3
 2285 09ee 090A0000 		.4byte	0xa09
 2286 09f2 09       		.uleb128 0x9
 2287 09f3 746C7000 		.ascii	"tlp\000"
 2288 09f7 02       		.byte	0x2
 2289 09f8 4F       		.byte	0x4f
 2290 09f9 30       		.byte	0x30
 2291 09fa 090A0000 		.4byte	0xa09
 2292 09fe 20       		.uleb128 0x20
 2293 09ff 747000   		.ascii	"tp\000"
 2294 0a02 02       		.byte	0x2
 2295 0a03 51       		.byte	0x51
 2296 0a04 59020000 		.4byte	0x259
 2297 0a08 00       		.byte	0
 2298 0a09 07       		.uleb128 0x7
 2299 0a0a 80020000 		.4byte	0x280
 2300 0a0e 35       		.uleb128 0x35
 2301 0a0f FD020000 		.4byte	.LASF105
 2302 0a13 02       		.byte	0x2
 2303 0a14 49       		.byte	0x49
 2304 0a15 14       		.byte	0x14
 2305 0a16 03       		.byte	0x3
 2306 0a17 330A0000 		.4byte	0xa33
 2307 0a1b 09       		.uleb128 0x9
 2308 0a1c 747000   		.ascii	"tp\000"
 2309 0a1f 02       		.byte	0x2
 2310 0a20 49       		.byte	0x49
 2311 0a21 28       		.byte	0x28
 2312 0a22 59020000 		.4byte	0x259
 2313 0a26 09       		.uleb128 0x9
 2314 0a27 746C7000 		.ascii	"tlp\000"
 2315 0a2b 02       		.byte	0x2
 2316 0a2c 49       		.byte	0x49
 2317 0a2d 39       		.byte	0x39
 2318 0a2e 090A0000 		.4byte	0xa09
 2319 0a32 00       		.byte	0
 2320 0a33 36       		.uleb128 0x36
 2321 0a34 BC090000 		.4byte	0x9bc
 2322 0a38 00000000 		.4byte	.LFB7
 2323 0a3c 6C000000 		.4byte	.LFE7-.LFB7
 2324 0a40 01       		.uleb128 0x1
 2325 0a41 9C       		.byte	0x9c
 2326 0a42 5B0A0000 		.4byte	0xa5b
 2327 0a46 17       		.uleb128 0x17
 2328 0a47 CA090000 		.4byte	0x9ca
 2329 0a4b 01       		.uleb128 0x1
 2330 0a4c 50       		.byte	0x50
 2331 0a4d 03       		.uleb128 0x3
 2332 0a4e D5090000 		.4byte	0x9d5
 2333 0a52 46020000 		.4byte	.LLST0
 2334 0a56 42020000 		.4byte	.LVUS0
 2335 0a5a 00       		.byte	0
 2336 0a5b 37       		.uleb128 0x37
 2337 0a5c 6A090000 		.4byte	0x96a
ARM GAS  /tmp/ccEt7jHp.s 			page 42


 2338 0a60 00000000 		.4byte	.LFB8
 2339 0a64 8C000000 		.4byte	.LFE8-.LFB8
 2340 0a68 01       		.uleb128 0x1
 2341 0a69 9C       		.byte	0x9c
 2342 0a6a 17       		.uleb128 0x17
 2343 0a6b 78090000 		.4byte	0x978
 2344 0a6f 01       		.uleb128 0x1
 2345 0a70 50       		.byte	0x50
 2346 0a71 03       		.uleb128 0x3
 2347 0a72 84090000 		.4byte	0x984
 2348 0a76 5C020000 		.4byte	.LLST1
 2349 0a7a 58020000 		.4byte	.LVUS1
 2350 0a7e 03       		.uleb128 0x3
 2351 0a7f 8F090000 		.4byte	0x98f
 2352 0a83 73020000 		.4byte	.LLST2
 2353 0a87 6F020000 		.4byte	.LVUS2
 2354 0a8b 03       		.uleb128 0x3
 2355 0a8c 9A090000 		.4byte	0x99a
 2356 0a90 8B020000 		.4byte	.LLST3
 2357 0a94 85020000 		.4byte	.LVUS3
 2358 0a98 17       		.uleb128 0x17
 2359 0a99 A5090000 		.4byte	0x9a5
 2360 0a9d 02       		.uleb128 0x2
 2361 0a9e 91       		.byte	0x91
 2362 0a9f 00       		.sleb128 0
 2363 0aa0 11       		.uleb128 0x11
 2364 0aa1 B1090000 		.4byte	0x9b1
 2365 0aa5 A7020000 		.4byte	.LLST4
 2366 0aa9 A5020000 		.4byte	.LVUS4
 2367 0aad 1E       		.uleb128 0x1e
 2368 0aae BC090000 		.4byte	0x9bc
 2369 0ab2 3C000000 		.4byte	.LBI10
 2370 0ab6 03       		.byte	.LVU65
 2371 0ab7 0C000000 		.4byte	.LLRL5
 2372 0abb A1       		.byte	0xa1
 2373 0abc 03       		.uleb128 0x3
 2374 0abd D5090000 		.4byte	0x9d5
 2375 0ac1 B4020000 		.4byte	.LLST6
 2376 0ac5 B0020000 		.4byte	.LVUS6
 2377 0ac9 03       		.uleb128 0x3
 2378 0aca CA090000 		.4byte	0x9ca
 2379 0ace C7020000 		.4byte	.LLST7
 2380 0ad2 C5020000 		.4byte	.LVUS7
 2381 0ad6 00       		.byte	0
 2382 0ad7 00       		.byte	0
 2383 0ad8 00       		.byte	0
 2384              		.section	.debug_abbrev,"",%progbits
 2385              	.Ldebug_abbrev0:
 2386 0000 01       		.uleb128 0x1
 2387 0001 0D       		.uleb128 0xd
 2388 0002 00       		.byte	0
 2389 0003 03       		.uleb128 0x3
 2390 0004 0E       		.uleb128 0xe
 2391 0005 3A       		.uleb128 0x3a
 2392 0006 0B       		.uleb128 0xb
 2393 0007 3B       		.uleb128 0x3b
 2394 0008 0B       		.uleb128 0xb
ARM GAS  /tmp/ccEt7jHp.s 			page 43


 2395 0009 39       		.uleb128 0x39
 2396 000a 0B       		.uleb128 0xb
 2397 000b 49       		.uleb128 0x49
 2398 000c 13       		.uleb128 0x13
 2399 000d 38       		.uleb128 0x38
 2400 000e 0B       		.uleb128 0xb
 2401 000f 00       		.byte	0
 2402 0010 00       		.byte	0
 2403 0011 02       		.uleb128 0x2
 2404 0012 16       		.uleb128 0x16
 2405 0013 00       		.byte	0
 2406 0014 03       		.uleb128 0x3
 2407 0015 0E       		.uleb128 0xe
 2408 0016 3A       		.uleb128 0x3a
 2409 0017 0B       		.uleb128 0xb
 2410 0018 3B       		.uleb128 0x3b
 2411 0019 0B       		.uleb128 0xb
 2412 001a 39       		.uleb128 0x39
 2413 001b 0B       		.uleb128 0xb
 2414 001c 49       		.uleb128 0x49
 2415 001d 13       		.uleb128 0x13
 2416 001e 00       		.byte	0
 2417 001f 00       		.byte	0
 2418 0020 03       		.uleb128 0x3
 2419 0021 05       		.uleb128 0x5
 2420 0022 00       		.byte	0
 2421 0023 31       		.uleb128 0x31
 2422 0024 13       		.uleb128 0x13
 2423 0025 02       		.uleb128 0x2
 2424 0026 17       		.uleb128 0x17
 2425 0027 B742     		.uleb128 0x2137
 2426 0029 17       		.uleb128 0x17
 2427 002a 00       		.byte	0
 2428 002b 00       		.byte	0
 2429 002c 04       		.uleb128 0x4
 2430 002d 0D       		.uleb128 0xd
 2431 002e 00       		.byte	0
 2432 002f 03       		.uleb128 0x3
 2433 0030 08       		.uleb128 0x8
 2434 0031 3A       		.uleb128 0x3a
 2435 0032 0B       		.uleb128 0xb
 2436 0033 3B       		.uleb128 0x3b
 2437 0034 0B       		.uleb128 0xb
 2438 0035 39       		.uleb128 0x39
 2439 0036 0B       		.uleb128 0xb
 2440 0037 49       		.uleb128 0x49
 2441 0038 13       		.uleb128 0x13
 2442 0039 38       		.uleb128 0x38
 2443 003a 0B       		.uleb128 0xb
 2444 003b 00       		.byte	0
 2445 003c 00       		.byte	0
 2446 003d 05       		.uleb128 0x5
 2447 003e 49       		.uleb128 0x49
 2448 003f 00       		.byte	0
 2449 0040 02       		.uleb128 0x2
 2450 0041 18       		.uleb128 0x18
 2451 0042 7E       		.uleb128 0x7e
ARM GAS  /tmp/ccEt7jHp.s 			page 44


 2452 0043 18       		.uleb128 0x18
 2453 0044 00       		.byte	0
 2454 0045 00       		.byte	0
 2455 0046 06       		.uleb128 0x6
 2456 0047 24       		.uleb128 0x24
 2457 0048 00       		.byte	0
 2458 0049 0B       		.uleb128 0xb
 2459 004a 0B       		.uleb128 0xb
 2460 004b 3E       		.uleb128 0x3e
 2461 004c 0B       		.uleb128 0xb
 2462 004d 03       		.uleb128 0x3
 2463 004e 0E       		.uleb128 0xe
 2464 004f 00       		.byte	0
 2465 0050 00       		.byte	0
 2466 0051 07       		.uleb128 0x7
 2467 0052 0F       		.uleb128 0xf
 2468 0053 00       		.byte	0
 2469 0054 0B       		.uleb128 0xb
 2470 0055 21       		.uleb128 0x21
 2471 0056 04       		.sleb128 4
 2472 0057 49       		.uleb128 0x49
 2473 0058 13       		.uleb128 0x13
 2474 0059 00       		.byte	0
 2475 005a 00       		.byte	0
 2476 005b 08       		.uleb128 0x8
 2477 005c 05       		.uleb128 0x5
 2478 005d 00       		.byte	0
 2479 005e 49       		.uleb128 0x49
 2480 005f 13       		.uleb128 0x13
 2481 0060 00       		.byte	0
 2482 0061 00       		.byte	0
 2483 0062 09       		.uleb128 0x9
 2484 0063 05       		.uleb128 0x5
 2485 0064 00       		.byte	0
 2486 0065 03       		.uleb128 0x3
 2487 0066 08       		.uleb128 0x8
 2488 0067 3A       		.uleb128 0x3a
 2489 0068 0B       		.uleb128 0xb
 2490 0069 3B       		.uleb128 0x3b
 2491 006a 0B       		.uleb128 0xb
 2492 006b 39       		.uleb128 0x39
 2493 006c 0B       		.uleb128 0xb
 2494 006d 49       		.uleb128 0x49
 2495 006e 13       		.uleb128 0x13
 2496 006f 00       		.byte	0
 2497 0070 00       		.byte	0
 2498 0071 0A       		.uleb128 0xa
 2499 0072 2E       		.uleb128 0x2e
 2500 0073 01       		.byte	0x1
 2501 0074 3F       		.uleb128 0x3f
 2502 0075 19       		.uleb128 0x19
 2503 0076 03       		.uleb128 0x3
 2504 0077 0E       		.uleb128 0xe
 2505 0078 3A       		.uleb128 0x3a
 2506 0079 21       		.uleb128 0x21
 2507 007a 01       		.sleb128 1
 2508 007b 3B       		.uleb128 0x3b
ARM GAS  /tmp/ccEt7jHp.s 			page 45


 2509 007c 05       		.uleb128 0x5
 2510 007d 39       		.uleb128 0x39
 2511 007e 21       		.uleb128 0x21
 2512 007f 06       		.sleb128 6
 2513 0080 27       		.uleb128 0x27
 2514 0081 19       		.uleb128 0x19
 2515 0082 11       		.uleb128 0x11
 2516 0083 01       		.uleb128 0x1
 2517 0084 12       		.uleb128 0x12
 2518 0085 06       		.uleb128 0x6
 2519 0086 40       		.uleb128 0x40
 2520 0087 18       		.uleb128 0x18
 2521 0088 7A       		.uleb128 0x7a
 2522 0089 19       		.uleb128 0x19
 2523 008a 01       		.uleb128 0x1
 2524 008b 13       		.uleb128 0x13
 2525 008c 00       		.byte	0
 2526 008d 00       		.byte	0
 2527 008e 0B       		.uleb128 0xb
 2528 008f 13       		.uleb128 0x13
 2529 0090 01       		.byte	0x1
 2530 0091 03       		.uleb128 0x3
 2531 0092 0E       		.uleb128 0xe
 2532 0093 0B       		.uleb128 0xb
 2533 0094 0B       		.uleb128 0xb
 2534 0095 3A       		.uleb128 0x3a
 2535 0096 0B       		.uleb128 0xb
 2536 0097 3B       		.uleb128 0x3b
 2537 0098 0B       		.uleb128 0xb
 2538 0099 39       		.uleb128 0x39
 2539 009a 0B       		.uleb128 0xb
 2540 009b 01       		.uleb128 0x1
 2541 009c 13       		.uleb128 0x13
 2542 009d 00       		.byte	0
 2543 009e 00       		.byte	0
 2544 009f 0C       		.uleb128 0xc
 2545 00a0 48       		.uleb128 0x48
 2546 00a1 01       		.byte	0x1
 2547 00a2 7D       		.uleb128 0x7d
 2548 00a3 01       		.uleb128 0x1
 2549 00a4 7F       		.uleb128 0x7f
 2550 00a5 13       		.uleb128 0x13
 2551 00a6 00       		.byte	0
 2552 00a7 00       		.byte	0
 2553 00a8 0D       		.uleb128 0xd
 2554 00a9 13       		.uleb128 0x13
 2555 00aa 01       		.byte	0x1
 2556 00ab 0B       		.uleb128 0xb
 2557 00ac 0B       		.uleb128 0xb
 2558 00ad 3A       		.uleb128 0x3a
 2559 00ae 0B       		.uleb128 0xb
 2560 00af 3B       		.uleb128 0x3b
 2561 00b0 0B       		.uleb128 0xb
 2562 00b1 39       		.uleb128 0x39
 2563 00b2 21       		.uleb128 0x21
 2564 00b3 09       		.sleb128 9
 2565 00b4 01       		.uleb128 0x1
ARM GAS  /tmp/ccEt7jHp.s 			page 46


 2566 00b5 13       		.uleb128 0x13
 2567 00b6 00       		.byte	0
 2568 00b7 00       		.byte	0
 2569 00b8 0E       		.uleb128 0xe
 2570 00b9 0D       		.uleb128 0xd
 2571 00ba 00       		.byte	0
 2572 00bb 03       		.uleb128 0x3
 2573 00bc 0E       		.uleb128 0xe
 2574 00bd 3A       		.uleb128 0x3a
 2575 00be 21       		.uleb128 0x21
 2576 00bf 08       		.sleb128 8
 2577 00c0 3B       		.uleb128 0x3b
 2578 00c1 0B       		.uleb128 0xb
 2579 00c2 39       		.uleb128 0x39
 2580 00c3 0B       		.uleb128 0xb
 2581 00c4 49       		.uleb128 0x49
 2582 00c5 13       		.uleb128 0x13
 2583 00c6 00       		.byte	0
 2584 00c7 00       		.byte	0
 2585 00c8 0F       		.uleb128 0xf
 2586 00c9 2E       		.uleb128 0x2e
 2587 00ca 01       		.byte	0x1
 2588 00cb 3F       		.uleb128 0x3f
 2589 00cc 19       		.uleb128 0x19
 2590 00cd 03       		.uleb128 0x3
 2591 00ce 0E       		.uleb128 0xe
 2592 00cf 3A       		.uleb128 0x3a
 2593 00d0 0B       		.uleb128 0xb
 2594 00d1 3B       		.uleb128 0x3b
 2595 00d2 0B       		.uleb128 0xb
 2596 00d3 39       		.uleb128 0x39
 2597 00d4 21       		.uleb128 0x21
 2598 00d5 08       		.sleb128 8
 2599 00d6 27       		.uleb128 0x27
 2600 00d7 19       		.uleb128 0x19
 2601 00d8 3C       		.uleb128 0x3c
 2602 00d9 19       		.uleb128 0x19
 2603 00da 01       		.uleb128 0x1
 2604 00db 13       		.uleb128 0x13
 2605 00dc 00       		.byte	0
 2606 00dd 00       		.byte	0
 2607 00de 10       		.uleb128 0x10
 2608 00df 05       		.uleb128 0x5
 2609 00e0 00       		.byte	0
 2610 00e1 03       		.uleb128 0x3
 2611 00e2 08       		.uleb128 0x8
 2612 00e3 3A       		.uleb128 0x3a
 2613 00e4 21       		.uleb128 0x21
 2614 00e5 01       		.sleb128 1
 2615 00e6 3B       		.uleb128 0x3b
 2616 00e7 05       		.uleb128 0x5
 2617 00e8 39       		.uleb128 0x39
 2618 00e9 0B       		.uleb128 0xb
 2619 00ea 49       		.uleb128 0x49
 2620 00eb 13       		.uleb128 0x13
 2621 00ec 02       		.uleb128 0x2
 2622 00ed 17       		.uleb128 0x17
ARM GAS  /tmp/ccEt7jHp.s 			page 47


 2623 00ee B742     		.uleb128 0x2137
 2624 00f0 17       		.uleb128 0x17
 2625 00f1 00       		.byte	0
 2626 00f2 00       		.byte	0
 2627 00f3 11       		.uleb128 0x11
 2628 00f4 34       		.uleb128 0x34
 2629 00f5 00       		.byte	0
 2630 00f6 31       		.uleb128 0x31
 2631 00f7 13       		.uleb128 0x13
 2632 00f8 02       		.uleb128 0x2
 2633 00f9 17       		.uleb128 0x17
 2634 00fa B742     		.uleb128 0x2137
 2635 00fc 17       		.uleb128 0x17
 2636 00fd 00       		.byte	0
 2637 00fe 00       		.byte	0
 2638 00ff 12       		.uleb128 0x12
 2639 0100 48       		.uleb128 0x48
 2640 0101 00       		.byte	0
 2641 0102 7D       		.uleb128 0x7d
 2642 0103 01       		.uleb128 0x1
 2643 0104 7F       		.uleb128 0x7f
 2644 0105 13       		.uleb128 0x13
 2645 0106 00       		.byte	0
 2646 0107 00       		.byte	0
 2647 0108 13       		.uleb128 0x13
 2648 0109 2E       		.uleb128 0x2e
 2649 010a 01       		.byte	0x1
 2650 010b 3F       		.uleb128 0x3f
 2651 010c 19       		.uleb128 0x19
 2652 010d 03       		.uleb128 0x3
 2653 010e 0E       		.uleb128 0xe
 2654 010f 3A       		.uleb128 0x3a
 2655 0110 21       		.uleb128 0x21
 2656 0111 01       		.sleb128 1
 2657 0112 3B       		.uleb128 0x3b
 2658 0113 0B       		.uleb128 0xb
 2659 0114 39       		.uleb128 0x39
 2660 0115 21       		.uleb128 0x21
 2661 0116 09       		.sleb128 9
 2662 0117 27       		.uleb128 0x27
 2663 0118 19       		.uleb128 0x19
 2664 0119 49       		.uleb128 0x49
 2665 011a 13       		.uleb128 0x13
 2666 011b 11       		.uleb128 0x11
 2667 011c 01       		.uleb128 0x1
 2668 011d 12       		.uleb128 0x12
 2669 011e 06       		.uleb128 0x6
 2670 011f 40       		.uleb128 0x40
 2671 0120 18       		.uleb128 0x18
 2672 0121 7A       		.uleb128 0x7a
 2673 0122 19       		.uleb128 0x19
 2674 0123 01       		.uleb128 0x1
 2675 0124 13       		.uleb128 0x13
 2676 0125 00       		.byte	0
 2677 0126 00       		.byte	0
 2678 0127 14       		.uleb128 0x14
 2679 0128 05       		.uleb128 0x5
ARM GAS  /tmp/ccEt7jHp.s 			page 48


 2680 0129 00       		.byte	0
 2681 012a 03       		.uleb128 0x3
 2682 012b 08       		.uleb128 0x8
 2683 012c 3A       		.uleb128 0x3a
 2684 012d 21       		.uleb128 0x21
 2685 012e 01       		.sleb128 1
 2686 012f 3B       		.uleb128 0x3b
 2687 0130 0B       		.uleb128 0xb
 2688 0131 39       		.uleb128 0x39
 2689 0132 0B       		.uleb128 0xb
 2690 0133 49       		.uleb128 0x49
 2691 0134 13       		.uleb128 0x13
 2692 0135 02       		.uleb128 0x2
 2693 0136 17       		.uleb128 0x17
 2694 0137 B742     		.uleb128 0x2137
 2695 0139 17       		.uleb128 0x17
 2696 013a 00       		.byte	0
 2697 013b 00       		.byte	0
 2698 013c 15       		.uleb128 0x15
 2699 013d 05       		.uleb128 0x5
 2700 013e 00       		.byte	0
 2701 013f 03       		.uleb128 0x3
 2702 0140 0E       		.uleb128 0xe
 2703 0141 3A       		.uleb128 0x3a
 2704 0142 21       		.uleb128 0x21
 2705 0143 01       		.sleb128 1
 2706 0144 3B       		.uleb128 0x3b
 2707 0145 0B       		.uleb128 0xb
 2708 0146 39       		.uleb128 0x39
 2709 0147 0B       		.uleb128 0xb
 2710 0148 49       		.uleb128 0x49
 2711 0149 13       		.uleb128 0x13
 2712 014a 02       		.uleb128 0x2
 2713 014b 17       		.uleb128 0x17
 2714 014c B742     		.uleb128 0x2137
 2715 014e 17       		.uleb128 0x17
 2716 014f 00       		.byte	0
 2717 0150 00       		.byte	0
 2718 0151 16       		.uleb128 0x16
 2719 0152 05       		.uleb128 0x5
 2720 0153 00       		.byte	0
 2721 0154 03       		.uleb128 0x3
 2722 0155 0E       		.uleb128 0xe
 2723 0156 3A       		.uleb128 0x3a
 2724 0157 21       		.uleb128 0x21
 2725 0158 01       		.sleb128 1
 2726 0159 3B       		.uleb128 0x3b
 2727 015a 0B       		.uleb128 0xb
 2728 015b 39       		.uleb128 0x39
 2729 015c 0B       		.uleb128 0xb
 2730 015d 49       		.uleb128 0x49
 2731 015e 13       		.uleb128 0x13
 2732 015f 00       		.byte	0
 2733 0160 00       		.byte	0
 2734 0161 17       		.uleb128 0x17
 2735 0162 05       		.uleb128 0x5
 2736 0163 00       		.byte	0
ARM GAS  /tmp/ccEt7jHp.s 			page 49


 2737 0164 31       		.uleb128 0x31
 2738 0165 13       		.uleb128 0x13
 2739 0166 02       		.uleb128 0x2
 2740 0167 18       		.uleb128 0x18
 2741 0168 00       		.byte	0
 2742 0169 00       		.byte	0
 2743 016a 18       		.uleb128 0x18
 2744 016b 34       		.uleb128 0x34
 2745 016c 00       		.byte	0
 2746 016d 03       		.uleb128 0x3
 2747 016e 0E       		.uleb128 0xe
 2748 016f 3A       		.uleb128 0x3a
 2749 0170 0B       		.uleb128 0xb
 2750 0171 3B       		.uleb128 0x3b
 2751 0172 0B       		.uleb128 0xb
 2752 0173 39       		.uleb128 0x39
 2753 0174 0B       		.uleb128 0xb
 2754 0175 49       		.uleb128 0x49
 2755 0176 13       		.uleb128 0x13
 2756 0177 3F       		.uleb128 0x3f
 2757 0178 19       		.uleb128 0x19
 2758 0179 3C       		.uleb128 0x3c
 2759 017a 19       		.uleb128 0x19
 2760 017b 00       		.byte	0
 2761 017c 00       		.byte	0
 2762 017d 19       		.uleb128 0x19
 2763 017e 2E       		.uleb128 0x2e
 2764 017f 01       		.byte	0x1
 2765 0180 3F       		.uleb128 0x3f
 2766 0181 19       		.uleb128 0x19
 2767 0182 03       		.uleb128 0x3
 2768 0183 0E       		.uleb128 0xe
 2769 0184 3A       		.uleb128 0x3a
 2770 0185 21       		.uleb128 0x21
 2771 0186 0B       		.sleb128 11
 2772 0187 3B       		.uleb128 0x3b
 2773 0188 0B       		.uleb128 0xb
 2774 0189 39       		.uleb128 0x39
 2775 018a 0B       		.uleb128 0xb
 2776 018b 27       		.uleb128 0x27
 2777 018c 19       		.uleb128 0x19
 2778 018d 49       		.uleb128 0x49
 2779 018e 13       		.uleb128 0x13
 2780 018f 3C       		.uleb128 0x3c
 2781 0190 19       		.uleb128 0x19
 2782 0191 01       		.uleb128 0x1
 2783 0192 13       		.uleb128 0x13
 2784 0193 00       		.byte	0
 2785 0194 00       		.byte	0
 2786 0195 1A       		.uleb128 0x1a
 2787 0196 2E       		.uleb128 0x2e
 2788 0197 00       		.byte	0
 2789 0198 3F       		.uleb128 0x3f
 2790 0199 19       		.uleb128 0x19
 2791 019a 03       		.uleb128 0x3
 2792 019b 0E       		.uleb128 0xe
 2793 019c 3A       		.uleb128 0x3a
ARM GAS  /tmp/ccEt7jHp.s 			page 50


 2794 019d 21       		.uleb128 0x21
 2795 019e 0B       		.sleb128 11
 2796 019f 3B       		.uleb128 0x3b
 2797 01a0 0B       		.uleb128 0xb
 2798 01a1 39       		.uleb128 0x39
 2799 01a2 21       		.uleb128 0x21
 2800 01a3 08       		.sleb128 8
 2801 01a4 27       		.uleb128 0x27
 2802 01a5 19       		.uleb128 0x19
 2803 01a6 3C       		.uleb128 0x3c
 2804 01a7 19       		.uleb128 0x19
 2805 01a8 00       		.byte	0
 2806 01a9 00       		.byte	0
 2807 01aa 1B       		.uleb128 0x1b
 2808 01ab 34       		.uleb128 0x34
 2809 01ac 00       		.byte	0
 2810 01ad 03       		.uleb128 0x3
 2811 01ae 08       		.uleb128 0x8
 2812 01af 3A       		.uleb128 0x3a
 2813 01b0 21       		.uleb128 0x21
 2814 01b1 01       		.sleb128 1
 2815 01b2 3B       		.uleb128 0x3b
 2816 01b3 05       		.uleb128 0x5
 2817 01b4 39       		.uleb128 0x39
 2818 01b5 0B       		.uleb128 0xb
 2819 01b6 49       		.uleb128 0x49
 2820 01b7 13       		.uleb128 0x13
 2821 01b8 02       		.uleb128 0x2
 2822 01b9 17       		.uleb128 0x17
 2823 01ba B742     		.uleb128 0x2137
 2824 01bc 17       		.uleb128 0x17
 2825 01bd 00       		.byte	0
 2826 01be 00       		.byte	0
 2827 01bf 1C       		.uleb128 0x1c
 2828 01c0 48       		.uleb128 0x48
 2829 01c1 01       		.byte	0x1
 2830 01c2 7D       		.uleb128 0x7d
 2831 01c3 01       		.uleb128 0x1
 2832 01c4 8201     		.uleb128 0x82
 2833 01c6 19       		.uleb128 0x19
 2834 01c7 7F       		.uleb128 0x7f
 2835 01c8 13       		.uleb128 0x13
 2836 01c9 00       		.byte	0
 2837 01ca 00       		.byte	0
 2838 01cb 1D       		.uleb128 0x1d
 2839 01cc 05       		.uleb128 0x5
 2840 01cd 00       		.byte	0
 2841 01ce 03       		.uleb128 0x3
 2842 01cf 0E       		.uleb128 0xe
 2843 01d0 3A       		.uleb128 0x3a
 2844 01d1 21       		.uleb128 0x21
 2845 01d2 01       		.sleb128 1
 2846 01d3 3B       		.uleb128 0x3b
 2847 01d4 05       		.uleb128 0x5
 2848 01d5 39       		.uleb128 0x39
 2849 01d6 0B       		.uleb128 0xb
 2850 01d7 49       		.uleb128 0x49
ARM GAS  /tmp/ccEt7jHp.s 			page 51


 2851 01d8 13       		.uleb128 0x13
 2852 01d9 02       		.uleb128 0x2
 2853 01da 17       		.uleb128 0x17
 2854 01db B742     		.uleb128 0x2137
 2855 01dd 17       		.uleb128 0x17
 2856 01de 00       		.byte	0
 2857 01df 00       		.byte	0
 2858 01e0 1E       		.uleb128 0x1e
 2859 01e1 1D       		.uleb128 0x1d
 2860 01e2 01       		.byte	0x1
 2861 01e3 31       		.uleb128 0x31
 2862 01e4 13       		.uleb128 0x13
 2863 01e5 52       		.uleb128 0x52
 2864 01e6 01       		.uleb128 0x1
 2865 01e7 B842     		.uleb128 0x2138
 2866 01e9 0B       		.uleb128 0xb
 2867 01ea 55       		.uleb128 0x55
 2868 01eb 17       		.uleb128 0x17
 2869 01ec 58       		.uleb128 0x58
 2870 01ed 21       		.uleb128 0x21
 2871 01ee 01       		.sleb128 1
 2872 01ef 59       		.uleb128 0x59
 2873 01f0 0B       		.uleb128 0xb
 2874 01f1 57       		.uleb128 0x57
 2875 01f2 21       		.uleb128 0x21
 2876 01f3 0A       		.sleb128 10
 2877 01f4 00       		.byte	0
 2878 01f5 00       		.byte	0
 2879 01f6 1F       		.uleb128 0x1f
 2880 01f7 2E       		.uleb128 0x2e
 2881 01f8 01       		.byte	0x1
 2882 01f9 3F       		.uleb128 0x3f
 2883 01fa 19       		.uleb128 0x19
 2884 01fb 03       		.uleb128 0x3
 2885 01fc 0E       		.uleb128 0xe
 2886 01fd 3A       		.uleb128 0x3a
 2887 01fe 21       		.uleb128 0x21
 2888 01ff 01       		.sleb128 1
 2889 0200 3B       		.uleb128 0x3b
 2890 0201 0B       		.uleb128 0xb
 2891 0202 39       		.uleb128 0x39
 2892 0203 21       		.uleb128 0x21
 2893 0204 09       		.sleb128 9
 2894 0205 27       		.uleb128 0x27
 2895 0206 19       		.uleb128 0x19
 2896 0207 49       		.uleb128 0x49
 2897 0208 13       		.uleb128 0x13
 2898 0209 20       		.uleb128 0x20
 2899 020a 21       		.uleb128 0x21
 2900 020b 01       		.sleb128 1
 2901 020c 01       		.uleb128 0x1
 2902 020d 13       		.uleb128 0x13
 2903 020e 00       		.byte	0
 2904 020f 00       		.byte	0
 2905 0210 20       		.uleb128 0x20
 2906 0211 34       		.uleb128 0x34
 2907 0212 00       		.byte	0
ARM GAS  /tmp/ccEt7jHp.s 			page 52


 2908 0213 03       		.uleb128 0x3
 2909 0214 08       		.uleb128 0x8
 2910 0215 3A       		.uleb128 0x3a
 2911 0216 0B       		.uleb128 0xb
 2912 0217 3B       		.uleb128 0x3b
 2913 0218 0B       		.uleb128 0xb
 2914 0219 39       		.uleb128 0x39
 2915 021a 21       		.uleb128 0x21
 2916 021b 0B       		.sleb128 11
 2917 021c 49       		.uleb128 0x49
 2918 021d 13       		.uleb128 0x13
 2919 021e 00       		.byte	0
 2920 021f 00       		.byte	0
 2921 0220 21       		.uleb128 0x21
 2922 0221 11       		.uleb128 0x11
 2923 0222 01       		.byte	0x1
 2924 0223 25       		.uleb128 0x25
 2925 0224 0E       		.uleb128 0xe
 2926 0225 13       		.uleb128 0x13
 2927 0226 0B       		.uleb128 0xb
 2928 0227 03       		.uleb128 0x3
 2929 0228 0E       		.uleb128 0xe
 2930 0229 1B       		.uleb128 0x1b
 2931 022a 0E       		.uleb128 0xe
 2932 022b 55       		.uleb128 0x55
 2933 022c 17       		.uleb128 0x17
 2934 022d 11       		.uleb128 0x11
 2935 022e 01       		.uleb128 0x1
 2936 022f 10       		.uleb128 0x10
 2937 0230 17       		.uleb128 0x17
 2938 0231 00       		.byte	0
 2939 0232 00       		.byte	0
 2940 0233 22       		.uleb128 0x22
 2941 0234 24       		.uleb128 0x24
 2942 0235 00       		.byte	0
 2943 0236 0B       		.uleb128 0xb
 2944 0237 0B       		.uleb128 0xb
 2945 0238 3E       		.uleb128 0x3e
 2946 0239 0B       		.uleb128 0xb
 2947 023a 03       		.uleb128 0x3
 2948 023b 08       		.uleb128 0x8
 2949 023c 00       		.byte	0
 2950 023d 00       		.byte	0
 2951 023e 23       		.uleb128 0x23
 2952 023f 35       		.uleb128 0x35
 2953 0240 00       		.byte	0
 2954 0241 49       		.uleb128 0x49
 2955 0242 13       		.uleb128 0x13
 2956 0243 00       		.byte	0
 2957 0244 00       		.byte	0
 2958 0245 24       		.uleb128 0x24
 2959 0246 0F       		.uleb128 0xf
 2960 0247 00       		.byte	0
 2961 0248 0B       		.uleb128 0xb
 2962 0249 0B       		.uleb128 0xb
 2963 024a 00       		.byte	0
 2964 024b 00       		.byte	0
ARM GAS  /tmp/ccEt7jHp.s 			page 53


 2965 024c 25       		.uleb128 0x25
 2966 024d 15       		.uleb128 0x15
 2967 024e 01       		.byte	0x1
 2968 024f 27       		.uleb128 0x27
 2969 0250 19       		.uleb128 0x19
 2970 0251 01       		.uleb128 0x1
 2971 0252 13       		.uleb128 0x13
 2972 0253 00       		.byte	0
 2973 0254 00       		.byte	0
 2974 0255 26       		.uleb128 0x26
 2975 0256 17       		.uleb128 0x17
 2976 0257 01       		.byte	0x1
 2977 0258 0B       		.uleb128 0xb
 2978 0259 0B       		.uleb128 0xb
 2979 025a 3A       		.uleb128 0x3a
 2980 025b 0B       		.uleb128 0xb
 2981 025c 3B       		.uleb128 0x3b
 2982 025d 0B       		.uleb128 0xb
 2983 025e 39       		.uleb128 0x39
 2984 025f 0B       		.uleb128 0xb
 2985 0260 01       		.uleb128 0x1
 2986 0261 13       		.uleb128 0x13
 2987 0262 00       		.byte	0
 2988 0263 00       		.byte	0
 2989 0264 27       		.uleb128 0x27
 2990 0265 26       		.uleb128 0x26
 2991 0266 00       		.byte	0
 2992 0267 49       		.uleb128 0x49
 2993 0268 13       		.uleb128 0x13
 2994 0269 00       		.byte	0
 2995 026a 00       		.byte	0
 2996 026b 28       		.uleb128 0x28
 2997 026c 15       		.uleb128 0x15
 2998 026d 01       		.byte	0x1
 2999 026e 27       		.uleb128 0x27
 3000 026f 19       		.uleb128 0x19
 3001 0270 49       		.uleb128 0x49
 3002 0271 13       		.uleb128 0x13
 3003 0272 01       		.uleb128 0x1
 3004 0273 13       		.uleb128 0x13
 3005 0274 00       		.byte	0
 3006 0275 00       		.byte	0
 3007 0276 29       		.uleb128 0x29
 3008 0277 2E       		.uleb128 0x2e
 3009 0278 00       		.byte	0
 3010 0279 3F       		.uleb128 0x3f
 3011 027a 19       		.uleb128 0x19
 3012 027b 03       		.uleb128 0x3
 3013 027c 0E       		.uleb128 0xe
 3014 027d 3A       		.uleb128 0x3a
 3015 027e 0B       		.uleb128 0xb
 3016 027f 3B       		.uleb128 0x3b
 3017 0280 05       		.uleb128 0x5
 3018 0281 39       		.uleb128 0x39
 3019 0282 0B       		.uleb128 0xb
 3020 0283 27       		.uleb128 0x27
 3021 0284 19       		.uleb128 0x19
ARM GAS  /tmp/ccEt7jHp.s 			page 54


 3022 0285 3C       		.uleb128 0x3c
 3023 0286 19       		.uleb128 0x19
 3024 0287 00       		.byte	0
 3025 0288 00       		.byte	0
 3026 0289 2A       		.uleb128 0x2a
 3027 028a 2E       		.uleb128 0x2e
 3028 028b 01       		.byte	0x1
 3029 028c 3F       		.uleb128 0x3f
 3030 028d 19       		.uleb128 0x19
 3031 028e 03       		.uleb128 0x3
 3032 028f 0E       		.uleb128 0xe
 3033 0290 3A       		.uleb128 0x3a
 3034 0291 0B       		.uleb128 0xb
 3035 0292 3B       		.uleb128 0x3b
 3036 0293 05       		.uleb128 0x5
 3037 0294 39       		.uleb128 0x39
 3038 0295 0B       		.uleb128 0xb
 3039 0296 27       		.uleb128 0x27
 3040 0297 19       		.uleb128 0x19
 3041 0298 49       		.uleb128 0x49
 3042 0299 13       		.uleb128 0x13
 3043 029a 11       		.uleb128 0x11
 3044 029b 01       		.uleb128 0x1
 3045 029c 12       		.uleb128 0x12
 3046 029d 06       		.uleb128 0x6
 3047 029e 40       		.uleb128 0x40
 3048 029f 18       		.uleb128 0x18
 3049 02a0 7A       		.uleb128 0x7a
 3050 02a1 19       		.uleb128 0x19
 3051 02a2 01       		.uleb128 0x1
 3052 02a3 13       		.uleb128 0x13
 3053 02a4 00       		.byte	0
 3054 02a5 00       		.byte	0
 3055 02a6 2B       		.uleb128 0x2b
 3056 02a7 1D       		.uleb128 0x1d
 3057 02a8 01       		.byte	0x1
 3058 02a9 31       		.uleb128 0x31
 3059 02aa 13       		.uleb128 0x13
 3060 02ab 52       		.uleb128 0x52
 3061 02ac 01       		.uleb128 0x1
 3062 02ad B842     		.uleb128 0x2138
 3063 02af 0B       		.uleb128 0xb
 3064 02b0 55       		.uleb128 0x55
 3065 02b1 17       		.uleb128 0x17
 3066 02b2 58       		.uleb128 0x58
 3067 02b3 0B       		.uleb128 0xb
 3068 02b4 59       		.uleb128 0x59
 3069 02b5 05       		.uleb128 0x5
 3070 02b6 57       		.uleb128 0x57
 3071 02b7 0B       		.uleb128 0xb
 3072 02b8 01       		.uleb128 0x1
 3073 02b9 13       		.uleb128 0x13
 3074 02ba 00       		.byte	0
 3075 02bb 00       		.byte	0
 3076 02bc 2C       		.uleb128 0x2c
 3077 02bd 05       		.uleb128 0x5
 3078 02be 00       		.byte	0
ARM GAS  /tmp/ccEt7jHp.s 			page 55


 3079 02bf 31       		.uleb128 0x31
 3080 02c0 13       		.uleb128 0x13
 3081 02c1 00       		.byte	0
 3082 02c2 00       		.byte	0
 3083 02c3 2D       		.uleb128 0x2d
 3084 02c4 48       		.uleb128 0x48
 3085 02c5 01       		.byte	0x1
 3086 02c6 7D       		.uleb128 0x7d
 3087 02c7 01       		.uleb128 0x1
 3088 02c8 7F       		.uleb128 0x7f
 3089 02c9 13       		.uleb128 0x13
 3090 02ca 01       		.uleb128 0x1
 3091 02cb 13       		.uleb128 0x13
 3092 02cc 00       		.byte	0
 3093 02cd 00       		.byte	0
 3094 02ce 2E       		.uleb128 0x2e
 3095 02cf 1D       		.uleb128 0x1d
 3096 02d0 01       		.byte	0x1
 3097 02d1 31       		.uleb128 0x31
 3098 02d2 13       		.uleb128 0x13
 3099 02d3 52       		.uleb128 0x52
 3100 02d4 01       		.uleb128 0x1
 3101 02d5 B842     		.uleb128 0x2138
 3102 02d7 0B       		.uleb128 0xb
 3103 02d8 11       		.uleb128 0x11
 3104 02d9 01       		.uleb128 0x1
 3105 02da 12       		.uleb128 0x12
 3106 02db 06       		.uleb128 0x6
 3107 02dc 58       		.uleb128 0x58
 3108 02dd 0B       		.uleb128 0xb
 3109 02de 59       		.uleb128 0x59
 3110 02df 05       		.uleb128 0x5
 3111 02e0 57       		.uleb128 0x57
 3112 02e1 0B       		.uleb128 0xb
 3113 02e2 01       		.uleb128 0x1
 3114 02e3 13       		.uleb128 0x13
 3115 02e4 00       		.byte	0
 3116 02e5 00       		.byte	0
 3117 02e6 2F       		.uleb128 0x2f
 3118 02e7 05       		.uleb128 0x5
 3119 02e8 00       		.byte	0
 3120 02e9 03       		.uleb128 0x3
 3121 02ea 08       		.uleb128 0x8
 3122 02eb 3A       		.uleb128 0x3a
 3123 02ec 0B       		.uleb128 0xb
 3124 02ed 3B       		.uleb128 0x3b
 3125 02ee 05       		.uleb128 0x5
 3126 02ef 39       		.uleb128 0x39
 3127 02f0 0B       		.uleb128 0xb
 3128 02f1 49       		.uleb128 0x49
 3129 02f2 13       		.uleb128 0x13
 3130 02f3 02       		.uleb128 0x2
 3131 02f4 18       		.uleb128 0x18
 3132 02f5 00       		.byte	0
 3133 02f6 00       		.byte	0
 3134 02f7 30       		.uleb128 0x30
 3135 02f8 34       		.uleb128 0x34
ARM GAS  /tmp/ccEt7jHp.s 			page 56


 3136 02f9 00       		.byte	0
 3137 02fa 03       		.uleb128 0x3
 3138 02fb 0E       		.uleb128 0xe
 3139 02fc 3A       		.uleb128 0x3a
 3140 02fd 0B       		.uleb128 0xb
 3141 02fe 3B       		.uleb128 0x3b
 3142 02ff 0B       		.uleb128 0xb
 3143 0300 39       		.uleb128 0x39
 3144 0301 0B       		.uleb128 0xb
 3145 0302 49       		.uleb128 0x49
 3146 0303 13       		.uleb128 0x13
 3147 0304 02       		.uleb128 0x2
 3148 0305 17       		.uleb128 0x17
 3149 0306 B742     		.uleb128 0x2137
 3150 0308 17       		.uleb128 0x17
 3151 0309 00       		.byte	0
 3152 030a 00       		.byte	0
 3153 030b 31       		.uleb128 0x31
 3154 030c 05       		.uleb128 0x5
 3155 030d 00       		.byte	0
 3156 030e 03       		.uleb128 0x3
 3157 030f 08       		.uleb128 0x8
 3158 0310 3A       		.uleb128 0x3a
 3159 0311 0B       		.uleb128 0xb
 3160 0312 3B       		.uleb128 0x3b
 3161 0313 0B       		.uleb128 0xb
 3162 0314 39       		.uleb128 0x39
 3163 0315 0B       		.uleb128 0xb
 3164 0316 49       		.uleb128 0x49
 3165 0317 13       		.uleb128 0x13
 3166 0318 02       		.uleb128 0x2
 3167 0319 18       		.uleb128 0x18
 3168 031a 00       		.byte	0
 3169 031b 00       		.byte	0
 3170 031c 32       		.uleb128 0x32
 3171 031d 34       		.uleb128 0x34
 3172 031e 00       		.byte	0
 3173 031f 03       		.uleb128 0x3
 3174 0320 08       		.uleb128 0x8
 3175 0321 3A       		.uleb128 0x3a
 3176 0322 0B       		.uleb128 0xb
 3177 0323 3B       		.uleb128 0x3b
 3178 0324 0B       		.uleb128 0xb
 3179 0325 39       		.uleb128 0x39
 3180 0326 0B       		.uleb128 0xb
 3181 0327 49       		.uleb128 0x49
 3182 0328 13       		.uleb128 0x13
 3183 0329 02       		.uleb128 0x2
 3184 032a 17       		.uleb128 0x17
 3185 032b B742     		.uleb128 0x2137
 3186 032d 17       		.uleb128 0x17
 3187 032e 00       		.byte	0
 3188 032f 00       		.byte	0
 3189 0330 33       		.uleb128 0x33
 3190 0331 1D       		.uleb128 0x1d
 3191 0332 01       		.byte	0x1
 3192 0333 31       		.uleb128 0x31
ARM GAS  /tmp/ccEt7jHp.s 			page 57


 3193 0334 13       		.uleb128 0x13
 3194 0335 52       		.uleb128 0x52
 3195 0336 01       		.uleb128 0x1
 3196 0337 B842     		.uleb128 0x2138
 3197 0339 0B       		.uleb128 0xb
 3198 033a 11       		.uleb128 0x11
 3199 033b 01       		.uleb128 0x1
 3200 033c 12       		.uleb128 0x12
 3201 033d 06       		.uleb128 0x6
 3202 033e 58       		.uleb128 0x58
 3203 033f 0B       		.uleb128 0xb
 3204 0340 59       		.uleb128 0x59
 3205 0341 0B       		.uleb128 0xb
 3206 0342 57       		.uleb128 0x57
 3207 0343 0B       		.uleb128 0xb
 3208 0344 01       		.uleb128 0x1
 3209 0345 13       		.uleb128 0x13
 3210 0346 00       		.byte	0
 3211 0347 00       		.byte	0
 3212 0348 34       		.uleb128 0x34
 3213 0349 2E       		.uleb128 0x2e
 3214 034a 01       		.byte	0x1
 3215 034b 03       		.uleb128 0x3
 3216 034c 0E       		.uleb128 0xe
 3217 034d 3A       		.uleb128 0x3a
 3218 034e 0B       		.uleb128 0xb
 3219 034f 3B       		.uleb128 0x3b
 3220 0350 0B       		.uleb128 0xb
 3221 0351 39       		.uleb128 0x39
 3222 0352 0B       		.uleb128 0xb
 3223 0353 27       		.uleb128 0x27
 3224 0354 19       		.uleb128 0x19
 3225 0355 49       		.uleb128 0x49
 3226 0356 13       		.uleb128 0x13
 3227 0357 20       		.uleb128 0x20
 3228 0358 0B       		.uleb128 0xb
 3229 0359 01       		.uleb128 0x1
 3230 035a 13       		.uleb128 0x13
 3231 035b 00       		.byte	0
 3232 035c 00       		.byte	0
 3233 035d 35       		.uleb128 0x35
 3234 035e 2E       		.uleb128 0x2e
 3235 035f 01       		.byte	0x1
 3236 0360 03       		.uleb128 0x3
 3237 0361 0E       		.uleb128 0xe
 3238 0362 3A       		.uleb128 0x3a
 3239 0363 0B       		.uleb128 0xb
 3240 0364 3B       		.uleb128 0x3b
 3241 0365 0B       		.uleb128 0xb
 3242 0366 39       		.uleb128 0x39
 3243 0367 0B       		.uleb128 0xb
 3244 0368 27       		.uleb128 0x27
 3245 0369 19       		.uleb128 0x19
 3246 036a 20       		.uleb128 0x20
 3247 036b 0B       		.uleb128 0xb
 3248 036c 01       		.uleb128 0x1
 3249 036d 13       		.uleb128 0x13
ARM GAS  /tmp/ccEt7jHp.s 			page 58


 3250 036e 00       		.byte	0
 3251 036f 00       		.byte	0
 3252 0370 36       		.uleb128 0x36
 3253 0371 2E       		.uleb128 0x2e
 3254 0372 01       		.byte	0x1
 3255 0373 31       		.uleb128 0x31
 3256 0374 13       		.uleb128 0x13
 3257 0375 11       		.uleb128 0x11
 3258 0376 01       		.uleb128 0x1
 3259 0377 12       		.uleb128 0x12
 3260 0378 06       		.uleb128 0x6
 3261 0379 40       		.uleb128 0x40
 3262 037a 18       		.uleb128 0x18
 3263 037b 7A       		.uleb128 0x7a
 3264 037c 19       		.uleb128 0x19
 3265 037d 01       		.uleb128 0x1
 3266 037e 13       		.uleb128 0x13
 3267 037f 00       		.byte	0
 3268 0380 00       		.byte	0
 3269 0381 37       		.uleb128 0x37
 3270 0382 2E       		.uleb128 0x2e
 3271 0383 01       		.byte	0x1
 3272 0384 31       		.uleb128 0x31
 3273 0385 13       		.uleb128 0x13
 3274 0386 11       		.uleb128 0x11
 3275 0387 01       		.uleb128 0x1
 3276 0388 12       		.uleb128 0x12
 3277 0389 06       		.uleb128 0x6
 3278 038a 40       		.uleb128 0x40
 3279 038b 18       		.uleb128 0x18
 3280 038c 7A       		.uleb128 0x7a
 3281 038d 19       		.uleb128 0x19
 3282 038e 00       		.byte	0
 3283 038f 00       		.byte	0
 3284 0390 00       		.byte	0
 3285              		.section	.debug_loclists,"",%progbits
 3286 0000 CC020000 		.4byte	.Ldebug_loc3-.Ldebug_loc2
 3287              	.Ldebug_loc2:
 3288 0004 0500     		.2byte	0x5
 3289 0006 04       		.byte	0x4
 3290 0007 00       		.byte	0
 3291 0008 00000000 		.4byte	0
 3292              	.Ldebug_loc0:
 3293              	.LVUS32:
 3294 000c 00       		.uleb128 0
 3295 000d 00       		.uleb128 .LVU336
 3296 000e 00       		.uleb128 .LVU336
 3297 000f 00       		.uleb128 0
 3298              	.LLST32:
 3299 0010 06       		.byte	0x6
 3300 0011 00000000 		.4byte	.LVL44
 3301 0015 04       		.byte	0x4
 3302 0016 00       		.uleb128 .LVL44-.LVL44
 3303 0017 28       		.uleb128 .LVL46-.LVL44
 3304 0018 01       		.uleb128 0x1
 3305 0019 50       		.byte	0x50
 3306 001a 04       		.byte	0x4
ARM GAS  /tmp/ccEt7jHp.s 			page 59


 3307 001b 28       		.uleb128 .LVL46-.LVL44
 3308 001c 50       		.uleb128 .LFE18-.LVL44
 3309 001d 01       		.uleb128 0x1
 3310 001e 54       		.byte	0x54
 3311 001f 00       		.byte	0
 3312              	.LVUS33:
 3313 0020 00       		.uleb128 .LVU343
 3314 0021 00       		.uleb128 0
 3315              	.LLST33:
 3316 0022 08       		.byte	0x8
 3317 0023 38000000 		.4byte	.LVL49
 3318 0027 18       		.uleb128 .LFE18-.LVL49
 3319 0028 01       		.uleb128 0x1
 3320 0029 55       		.byte	0x55
 3321 002a 00       		.byte	0
 3322              	.LVUS35:
 3323 002b 01       		.uleb128 .LVU333
 3324 002c 00       		.uleb128 .LVU336
 3325 002d 00       		.uleb128 .LVU336
 3326 002e 00       		.uleb128 .LVU339
 3327              	.LLST35:
 3328 002f 06       		.byte	0x6
 3329 0030 24000000 		.4byte	.LVL45
 3330 0034 04       		.byte	0x4
 3331 0035 00       		.uleb128 .LVL45-.LVL45
 3332 0036 04       		.uleb128 .LVL46-.LVL45
 3333 0037 03       		.uleb128 0x3
 3334 0038 70       		.byte	0x70
 3335 0039 28       		.sleb128 40
 3336 003a 9F       		.byte	0x9f
 3337 003b 04       		.byte	0x4
 3338 003c 04       		.uleb128 .LVL46-.LVL45
 3339 003d 0C       		.uleb128 .LVL47-.LVL45
 3340 003e 03       		.uleb128 0x3
 3341 003f 74       		.byte	0x74
 3342 0040 28       		.sleb128 40
 3343 0041 9F       		.byte	0x9f
 3344 0042 00       		.byte	0
 3345              	.LVUS27:
 3346 0043 00       		.uleb128 0
 3347 0044 00       		.uleb128 .LVU287
 3348 0045 00       		.uleb128 .LVU287
 3349 0046 00       		.uleb128 .LVU288
 3350 0047 00       		.uleb128 .LVU288
 3351 0048 00       		.uleb128 0
 3352              	.LLST27:
 3353 0049 06       		.byte	0x6
 3354 004a 00000000 		.4byte	.LVL34
 3355 004e 04       		.byte	0x4
 3356 004f 00       		.uleb128 .LVL34-.LVL34
 3357 0050 18       		.uleb128 .LVL36-.LVL34
 3358 0051 01       		.uleb128 0x1
 3359 0052 50       		.byte	0x50
 3360 0053 04       		.byte	0x4
 3361 0054 18       		.uleb128 .LVL36-.LVL34
 3362 0055 20       		.uleb128 .LVL37-.LVL34
 3363 0056 02       		.uleb128 0x2
ARM GAS  /tmp/ccEt7jHp.s 			page 60


 3364 0057 74       		.byte	0x74
 3365 0058 24       		.sleb128 36
 3366 0059 04       		.byte	0x4
 3367 005a 20       		.uleb128 .LVL37-.LVL34
 3368 005b 60       		.uleb128 .LFE17-.LVL34
 3369 005c 04       		.uleb128 0x4
 3370 005d A3       		.byte	0xa3
 3371 005e 01       		.uleb128 0x1
 3372 005f 50       		.byte	0x50
 3373 0060 9F       		.byte	0x9f
 3374 0061 00       		.byte	0
 3375              	.LVUS28:
 3376 0062 00       		.uleb128 .LVU280
 3377 0063 00       		.uleb128 .LVU303
 3378              	.LLST28:
 3379 0064 08       		.byte	0x8
 3380 0065 0C000000 		.4byte	.LVL35
 3381 0069 44       		.uleb128 .LVL40-.LVL35
 3382 006a 01       		.uleb128 0x1
 3383 006b 54       		.byte	0x54
 3384 006c 00       		.byte	0
 3385              	.LVUS29:
 3386 006d 01       		.uleb128 .LVU289
 3387 006e 01       		.uleb128 .LVU294
 3388              	.LLST29:
 3389 006f 08       		.byte	0x8
 3390 0070 20000000 		.4byte	.LVL37
 3391 0074 08       		.uleb128 .LVL38-.LVL37
 3392 0075 01       		.uleb128 0x1
 3393 0076 55       		.byte	0x55
 3394 0077 00       		.byte	0
 3395              	.LVUS30:
 3396 0078 03       		.uleb128 .LVU291
 3397 0079 01       		.uleb128 .LVU294
 3398              	.LLST30:
 3399 007a 08       		.byte	0x8
 3400 007b 20000000 		.4byte	.LVL37
 3401 007f 08       		.uleb128 .LVL38-.LVL37
 3402 0080 01       		.uleb128 0x1
 3403 0081 50       		.byte	0x50
 3404 0082 00       		.byte	0
 3405              	.LVUS31:
 3406 0083 00       		.uleb128 0
 3407 0084 00       		.uleb128 .LVU312
 3408 0085 00       		.uleb128 .LVU312
 3409 0086 00       		.uleb128 0
 3410              	.LLST31:
 3411 0087 06       		.byte	0x6
 3412 0088 00000000 		.4byte	.LVL42
 3413 008c 04       		.byte	0x4
 3414 008d 00       		.uleb128 .LVL42-.LVL42
 3415 008e 07       		.uleb128 .LVL43-1-.LVL42
 3416 008f 01       		.uleb128 0x1
 3417 0090 50       		.byte	0x50
 3418 0091 04       		.byte	0x4
 3419 0092 07       		.uleb128 .LVL43-1-.LVL42
 3420 0093 08       		.uleb128 .LFE16-.LVL42
ARM GAS  /tmp/ccEt7jHp.s 			page 61


 3421 0094 04       		.uleb128 0x4
 3422 0095 A3       		.byte	0xa3
 3423 0096 01       		.uleb128 0x1
 3424 0097 50       		.byte	0x50
 3425 0098 9F       		.byte	0x9f
 3426 0099 00       		.byte	0
 3427              	.LVUS26:
 3428 009a 00       		.uleb128 0
 3429 009b 00       		.uleb128 .LVU244
 3430 009c 00       		.uleb128 .LVU244
 3431 009d 00       		.uleb128 .LVU245
 3432 009e 00       		.uleb128 .LVU245
 3433 009f 00       		.uleb128 .LVU253
 3434              	.LLST26:
 3435 00a0 06       		.byte	0x6
 3436 00a1 00000000 		.4byte	.LVL29
 3437 00a5 04       		.byte	0x4
 3438 00a6 00       		.uleb128 .LVL29-.LVL29
 3439 00a7 0C       		.uleb128 .LVL30-.LVL29
 3440 00a8 01       		.uleb128 0x1
 3441 00a9 50       		.byte	0x50
 3442 00aa 04       		.byte	0x4
 3443 00ab 0C       		.uleb128 .LVL30-.LVL29
 3444 00ac 10       		.uleb128 .LVL31-.LVL29
 3445 00ad 06       		.uleb128 0x6
 3446 00ae 70       		.byte	0x70
 3447 00af 00       		.sleb128 0
 3448 00b0 73       		.byte	0x73
 3449 00b1 00       		.sleb128 0
 3450 00b2 1C       		.byte	0x1c
 3451 00b3 9F       		.byte	0x9f
 3452 00b4 04       		.byte	0x4
 3453 00b5 10       		.uleb128 .LVL31-.LVL29
 3454 00b6 27       		.uleb128 .LVL32-1-.LVL29
 3455 00b7 01       		.uleb128 0x1
 3456 00b8 51       		.byte	0x51
 3457 00b9 00       		.byte	0
 3458              	.LVUS25:
 3459 00ba 00       		.uleb128 0
 3460 00bb 00       		.uleb128 .LVU233
 3461 00bc 00       		.uleb128 .LVU233
 3462 00bd 00       		.uleb128 .LVU234
 3463 00be 00       		.uleb128 .LVU234
 3464 00bf 00       		.uleb128 0
 3465              	.LLST25:
 3466 00c0 06       		.byte	0x6
 3467 00c1 00000000 		.4byte	.LVL26
 3468 00c5 04       		.byte	0x4
 3469 00c6 00       		.uleb128 .LVL26-.LVL26
 3470 00c7 10       		.uleb128 .LVL27-.LVL26
 3471 00c8 01       		.uleb128 0x1
 3472 00c9 50       		.byte	0x50
 3473 00ca 04       		.byte	0x4
 3474 00cb 10       		.uleb128 .LVL27-.LVL26
 3475 00cc 13       		.uleb128 .LVL28-1-.LVL26
 3476 00cd 01       		.uleb128 0x1
 3477 00ce 51       		.byte	0x51
ARM GAS  /tmp/ccEt7jHp.s 			page 62


 3478 00cf 04       		.byte	0x4
 3479 00d0 13       		.uleb128 .LVL28-1-.LVL26
 3480 00d1 1C       		.uleb128 .LFE13-.LVL26
 3481 00d2 04       		.uleb128 0x4
 3482 00d3 A3       		.byte	0xa3
 3483 00d4 01       		.uleb128 0x1
 3484 00d5 50       		.byte	0x50
 3485 00d6 9F       		.byte	0x9f
 3486 00d7 00       		.byte	0
 3487              	.LVUS24:
 3488 00d8 00       		.uleb128 0
 3489 00d9 00       		.uleb128 .LVU209
 3490 00da 00       		.uleb128 .LVU209
 3491 00db 00       		.uleb128 0
 3492              	.LLST24:
 3493 00dc 06       		.byte	0x6
 3494 00dd 00000000 		.4byte	.LVL23
 3495 00e1 04       		.byte	0x4
 3496 00e2 00       		.uleb128 .LVL23-.LVL23
 3497 00e3 13       		.uleb128 .LVL24-1-.LVL23
 3498 00e4 01       		.uleb128 0x1
 3499 00e5 50       		.byte	0x50
 3500 00e6 04       		.byte	0x4
 3501 00e7 13       		.uleb128 .LVL24-1-.LVL23
 3502 00e8 20       		.uleb128 .LFE11-.LVL23
 3503 00e9 01       		.uleb128 0x1
 3504 00ea 54       		.byte	0x54
 3505 00eb 00       		.byte	0
 3506              	.LVUS22:
 3507 00ec 00       		.uleb128 0
 3508 00ed 00       		.uleb128 .LVU185
 3509 00ee 00       		.uleb128 .LVU185
 3510 00ef 00       		.uleb128 .LVU194
 3511 00f0 00       		.uleb128 .LVU194
 3512 00f1 00       		.uleb128 0
 3513              	.LLST22:
 3514 00f2 06       		.byte	0x6
 3515 00f3 00000000 		.4byte	.LVL19
 3516 00f7 04       		.byte	0x4
 3517 00f8 00       		.uleb128 .LVL19-.LVL19
 3518 00f9 18       		.uleb128 .LVL20-.LVL19
 3519 00fa 01       		.uleb128 0x1
 3520 00fb 50       		.byte	0x50
 3521 00fc 04       		.byte	0x4
 3522 00fd 18       		.uleb128 .LVL20-.LVL19
 3523 00fe 3F       		.uleb128 .LVL22-1-.LVL19
 3524 00ff 01       		.uleb128 0x1
 3525 0100 53       		.byte	0x53
 3526 0101 04       		.byte	0x4
 3527 0102 3F       		.uleb128 .LVL22-1-.LVL19
 3528 0103 50       		.uleb128 .LFE10-.LVL19
 3529 0104 04       		.uleb128 0x4
 3530 0105 A3       		.byte	0xa3
 3531 0106 01       		.uleb128 0x1
 3532 0107 50       		.byte	0x50
 3533 0108 9F       		.byte	0x9f
 3534 0109 00       		.byte	0
ARM GAS  /tmp/ccEt7jHp.s 			page 63


 3535              	.LVUS23:
 3536 010a 00       		.uleb128 .LVU186
 3537 010b 00       		.uleb128 0
 3538              	.LLST23:
 3539 010c 08       		.byte	0x8
 3540 010d 1C000000 		.4byte	.LVL21
 3541 0111 34       		.uleb128 .LFE10-.LVL21
 3542 0112 01       		.uleb128 0x1
 3543 0113 54       		.byte	0x54
 3544 0114 00       		.byte	0
 3545              	.LVUS8:
 3546 0115 00       		.uleb128 0
 3547 0116 00       		.uleb128 .LVU167
 3548 0117 00       		.uleb128 .LVU167
 3549 0118 00       		.uleb128 0
 3550              	.LLST8:
 3551 0119 06       		.byte	0x6
 3552 011a 00000000 		.4byte	.LVL10
 3553 011e 04       		.byte	0x4
 3554 011f 00       		.uleb128 .LVL10-.LVL10
 3555 0120 8F01     		.uleb128 .LVL18-1-.LVL10
 3556 0122 01       		.uleb128 0x1
 3557 0123 50       		.byte	0x50
 3558 0124 04       		.byte	0x4
 3559 0125 8F01     		.uleb128 .LVL18-1-.LVL10
 3560 0127 A401     		.uleb128 .LFE9-.LVL10
 3561 0129 01       		.uleb128 0x1
 3562 012a 54       		.byte	0x54
 3563 012b 00       		.byte	0
 3564              	.LVUS9:
 3565 012c 00       		.uleb128 0
 3566 012d 00       		.uleb128 .LVU121
 3567 012e 00       		.uleb128 .LVU121
 3568 012f 00       		.uleb128 .LVU167
 3569 0130 00       		.uleb128 .LVU167
 3570 0131 00       		.uleb128 0
 3571              	.LLST9:
 3572 0132 06       		.byte	0x6
 3573 0133 00000000 		.4byte	.LVL10
 3574 0137 04       		.byte	0x4
 3575 0138 00       		.uleb128 .LVL10-.LVL10
 3576 0139 1C       		.uleb128 .LVL12-.LVL10
 3577 013a 01       		.uleb128 0x1
 3578 013b 51       		.byte	0x51
 3579 013c 04       		.byte	0x4
 3580 013d 1C       		.uleb128 .LVL12-.LVL10
 3581 013e 8F01     		.uleb128 .LVL18-1-.LVL10
 3582 0140 03       		.uleb128 0x3
 3583 0141 7C       		.byte	0x7c
 3584 0142 24       		.sleb128 36
 3585 0143 9F       		.byte	0x9f
 3586 0144 04       		.byte	0x4
 3587 0145 8F01     		.uleb128 .LVL18-1-.LVL10
 3588 0147 A401     		.uleb128 .LFE9-.LVL10
 3589 0149 04       		.uleb128 0x4
 3590 014a A3       		.byte	0xa3
 3591 014b 01       		.uleb128 0x1
ARM GAS  /tmp/ccEt7jHp.s 			page 64


 3592 014c 51       		.byte	0x51
 3593 014d 9F       		.byte	0x9f
 3594 014e 00       		.byte	0
 3595              	.LVUS10:
 3596 014f 00       		.uleb128 0
 3597 0150 00       		.uleb128 .LVU140
 3598 0151 00       		.uleb128 .LVU140
 3599 0152 00       		.uleb128 .LVU167
 3600 0153 00       		.uleb128 .LVU167
 3601 0154 00       		.uleb128 0
 3602              	.LLST10:
 3603 0155 06       		.byte	0x6
 3604 0156 00000000 		.4byte	.LVL10
 3605 015a 04       		.byte	0x4
 3606 015b 00       		.uleb128 .LVL10-.LVL10
 3607 015c 54       		.uleb128 .LVL15-.LVL10
 3608 015d 01       		.uleb128 0x1
 3609 015e 52       		.byte	0x52
 3610 015f 04       		.byte	0x4
 3611 0160 54       		.uleb128 .LVL15-.LVL10
 3612 0161 8F01     		.uleb128 .LVL18-1-.LVL10
 3613 0163 02       		.uleb128 0x2
 3614 0164 70       		.byte	0x70
 3615 0165 08       		.sleb128 8
 3616 0166 04       		.byte	0x4
 3617 0167 8F01     		.uleb128 .LVL18-1-.LVL10
 3618 0169 A401     		.uleb128 .LFE9-.LVL10
 3619 016b 04       		.uleb128 0x4
 3620 016c A3       		.byte	0xa3
 3621 016d 01       		.uleb128 0x1
 3622 016e 52       		.byte	0x52
 3623 016f 9F       		.byte	0x9f
 3624 0170 00       		.byte	0
 3625              	.LVUS11:
 3626 0171 00       		.uleb128 0
 3627 0172 00       		.uleb128 .LVU128
 3628 0173 00       		.uleb128 .LVU128
 3629 0174 00       		.uleb128 .LVU142
 3630 0175 00       		.uleb128 .LVU142
 3631 0176 00       		.uleb128 0
 3632              	.LLST11:
 3633 0177 06       		.byte	0x6
 3634 0178 00000000 		.4byte	.LVL10
 3635 017c 04       		.byte	0x4
 3636 017d 00       		.uleb128 .LVL10-.LVL10
 3637 017e 3C       		.uleb128 .LVL13-.LVL10
 3638 017f 01       		.uleb128 0x1
 3639 0180 53       		.byte	0x53
 3640 0181 04       		.byte	0x4
 3641 0182 3C       		.uleb128 .LVL13-.LVL10
 3642 0183 60       		.uleb128 .LVL16-.LVL10
 3643 0184 02       		.uleb128 0x2
 3644 0185 75       		.byte	0x75
 3645 0186 00       		.sleb128 0
 3646 0187 04       		.byte	0x4
 3647 0188 60       		.uleb128 .LVL16-.LVL10
 3648 0189 A401     		.uleb128 .LFE9-.LVL10
ARM GAS  /tmp/ccEt7jHp.s 			page 65


 3649 018b 04       		.uleb128 0x4
 3650 018c A3       		.byte	0xa3
 3651 018d 01       		.uleb128 0x1
 3652 018e 53       		.byte	0x53
 3653 018f 9F       		.byte	0x9f
 3654 0190 00       		.byte	0
 3655              	.LVUS12:
 3656 0191 04       		.uleb128 .LVU165
 3657 0192 00       		.uleb128 .LVU167
 3658 0193 00       		.uleb128 .LVU167
 3659 0194 00       		.uleb128 0
 3660              	.LLST12:
 3661 0195 06       		.byte	0x6
 3662 0196 8C000000 		.4byte	.LVL17
 3663 019a 04       		.byte	0x4
 3664 019b 00       		.uleb128 .LVL17-.LVL17
 3665 019c 03       		.uleb128 .LVL18-1-.LVL17
 3666 019d 01       		.uleb128 0x1
 3667 019e 50       		.byte	0x50
 3668 019f 04       		.byte	0x4
 3669 01a0 03       		.uleb128 .LVL18-1-.LVL17
 3670 01a1 18       		.uleb128 .LFE9-.LVL17
 3671 01a2 01       		.uleb128 0x1
 3672 01a3 54       		.byte	0x54
 3673 01a4 00       		.byte	0
 3674              	.LVUS13:
 3675 01a5 03       		.uleb128 .LVU110
 3676 01a6 04       		.uleb128 .LVU165
 3677              	.LLST13:
 3678 01a7 08       		.byte	0x8
 3679 01a8 0C000000 		.4byte	.LVL11
 3680 01ac 8001     		.uleb128 .LVL17-.LVL11
 3681 01ae 02       		.uleb128 0x2
 3682 01af 91       		.byte	0x91
 3683 01b0 78       		.sleb128 -8
 3684 01b1 00       		.byte	0
 3685              	.LVUS14:
 3686 01b2 03       		.uleb128 .LVU110
 3687 01b3 00       		.uleb128 .LVU128
 3688 01b4 00       		.uleb128 .LVU128
 3689 01b5 00       		.uleb128 .LVU142
 3690 01b6 00       		.uleb128 .LVU142
 3691 01b7 04       		.uleb128 .LVU165
 3692              	.LLST14:
 3693 01b8 06       		.byte	0x6
 3694 01b9 0C000000 		.4byte	.LVL11
 3695 01bd 04       		.byte	0x4
 3696 01be 00       		.uleb128 .LVL11-.LVL11
 3697 01bf 30       		.uleb128 .LVL13-.LVL11
 3698 01c0 01       		.uleb128 0x1
 3699 01c1 53       		.byte	0x53
 3700 01c2 04       		.byte	0x4
 3701 01c3 30       		.uleb128 .LVL13-.LVL11
 3702 01c4 54       		.uleb128 .LVL16-.LVL11
 3703 01c5 02       		.uleb128 0x2
 3704 01c6 75       		.byte	0x75
 3705 01c7 00       		.sleb128 0
ARM GAS  /tmp/ccEt7jHp.s 			page 66


 3706 01c8 04       		.byte	0x4
 3707 01c9 54       		.uleb128 .LVL16-.LVL11
 3708 01ca 8001     		.uleb128 .LVL17-.LVL11
 3709 01cc 04       		.uleb128 0x4
 3710 01cd A3       		.byte	0xa3
 3711 01ce 01       		.uleb128 0x1
 3712 01cf 53       		.byte	0x53
 3713 01d0 9F       		.byte	0x9f
 3714 01d1 00       		.byte	0
 3715              	.LVUS15:
 3716 01d2 03       		.uleb128 .LVU110
 3717 01d3 00       		.uleb128 .LVU140
 3718 01d4 00       		.uleb128 .LVU140
 3719 01d5 04       		.uleb128 .LVU165
 3720              	.LLST15:
 3721 01d6 06       		.byte	0x6
 3722 01d7 0C000000 		.4byte	.LVL11
 3723 01db 04       		.byte	0x4
 3724 01dc 00       		.uleb128 .LVL11-.LVL11
 3725 01dd 48       		.uleb128 .LVL15-.LVL11
 3726 01de 01       		.uleb128 0x1
 3727 01df 52       		.byte	0x52
 3728 01e0 04       		.byte	0x4
 3729 01e1 48       		.uleb128 .LVL15-.LVL11
 3730 01e2 8001     		.uleb128 .LVL17-.LVL11
 3731 01e4 02       		.uleb128 0x2
 3732 01e5 70       		.byte	0x70
 3733 01e6 08       		.sleb128 8
 3734 01e7 00       		.byte	0
 3735              	.LVUS16:
 3736 01e8 03       		.uleb128 .LVU110
 3737 01e9 00       		.uleb128 .LVU121
 3738 01ea 00       		.uleb128 .LVU121
 3739 01eb 04       		.uleb128 .LVU165
 3740              	.LLST16:
 3741 01ec 06       		.byte	0x6
 3742 01ed 0C000000 		.4byte	.LVL11
 3743 01f1 04       		.byte	0x4
 3744 01f2 00       		.uleb128 .LVL11-.LVL11
 3745 01f3 10       		.uleb128 .LVL12-.LVL11
 3746 01f4 01       		.uleb128 0x1
 3747 01f5 51       		.byte	0x51
 3748 01f6 04       		.byte	0x4
 3749 01f7 10       		.uleb128 .LVL12-.LVL11
 3750 01f8 8001     		.uleb128 .LVL17-.LVL11
 3751 01fa 03       		.uleb128 0x3
 3752 01fb 7C       		.byte	0x7c
 3753 01fc 24       		.sleb128 36
 3754 01fd 9F       		.byte	0x9f
 3755 01fe 00       		.byte	0
 3756              	.LVUS17:
 3757 01ff 03       		.uleb128 .LVU110
 3758 0200 04       		.uleb128 .LVU165
 3759              	.LLST17:
 3760 0201 08       		.byte	0x8
 3761 0202 0C000000 		.4byte	.LVL11
 3762 0206 8001     		.uleb128 .LVL17-.LVL11
ARM GAS  /tmp/ccEt7jHp.s 			page 67


 3763 0208 01       		.uleb128 0x1
 3764 0209 50       		.byte	0x50
 3765 020a 00       		.byte	0
 3766              	.LVUS18:
 3767 020b 05       		.uleb128 .LVU112
 3768 020c 00       		.uleb128 .LVU167
 3769 020d 00       		.uleb128 .LVU167
 3770 020e 00       		.uleb128 0
 3771              	.LLST18:
 3772 020f 06       		.byte	0x6
 3773 0210 0C000000 		.4byte	.LVL11
 3774 0214 04       		.byte	0x4
 3775 0215 00       		.uleb128 .LVL11-.LVL11
 3776 0216 8301     		.uleb128 .LVL18-1-.LVL11
 3777 0218 01       		.uleb128 0x1
 3778 0219 50       		.byte	0x50
 3779 021a 04       		.byte	0x4
 3780 021b 8301     		.uleb128 .LVL18-1-.LVL11
 3781 021d 9801     		.uleb128 .LFE9-.LVL11
 3782 021f 01       		.uleb128 0x1
 3783 0220 54       		.byte	0x54
 3784 0221 00       		.byte	0
 3785              	.LVUS20:
 3786 0222 03       		.uleb128 .LVU132
 3787 0223 00       		.uleb128 .LVU140
 3788 0224 00       		.uleb128 .LVU140
 3789 0225 04       		.uleb128 .LVU165
 3790              	.LLST20:
 3791 0226 06       		.byte	0x6
 3792 0227 44000000 		.4byte	.LVL14
 3793 022b 04       		.byte	0x4
 3794 022c 00       		.uleb128 .LVL14-.LVL14
 3795 022d 10       		.uleb128 .LVL15-.LVL14
 3796 022e 01       		.uleb128 0x1
 3797 022f 52       		.byte	0x52
 3798 0230 04       		.byte	0x4
 3799 0231 10       		.uleb128 .LVL15-.LVL14
 3800 0232 48       		.uleb128 .LVL17-.LVL14
 3801 0233 02       		.uleb128 0x2
 3802 0234 70       		.byte	0x70
 3803 0235 08       		.sleb128 8
 3804 0236 00       		.byte	0
 3805              	.LVUS21:
 3806 0237 03       		.uleb128 .LVU132
 3807 0238 04       		.uleb128 .LVU165
 3808              	.LLST21:
 3809 0239 08       		.byte	0x8
 3810 023a 44000000 		.4byte	.LVL14
 3811 023e 48       		.uleb128 .LVL17-.LVL14
 3812 023f 01       		.uleb128 0x1
 3813 0240 50       		.byte	0x50
 3814 0241 00       		.byte	0
 3815              	.LVUS0:
 3816 0242 00       		.uleb128 0
 3817 0243 00       		.uleb128 .LVU18
 3818 0244 00       		.uleb128 .LVU18
 3819 0245 00       		.uleb128 0
ARM GAS  /tmp/ccEt7jHp.s 			page 68


 3820              	.LLST0:
 3821 0246 06       		.byte	0x6
 3822 0247 00000000 		.4byte	.LVL0
 3823 024b 04       		.byte	0x4
 3824 024c 00       		.uleb128 .LVL0-.LVL0
 3825 024d 38       		.uleb128 .LVL1-.LVL0
 3826 024e 01       		.uleb128 0x1
 3827 024f 51       		.byte	0x51
 3828 0250 04       		.byte	0x4
 3829 0251 38       		.uleb128 .LVL1-.LVL0
 3830 0252 6C       		.uleb128 .LFE7-.LVL0
 3831 0253 03       		.uleb128 0x3
 3832 0254 70       		.byte	0x70
 3833 0255 C000     		.sleb128 64
 3834 0257 00       		.byte	0
 3835              	.LVUS1:
 3836 0258 00       		.uleb128 0
 3837 0259 00       		.uleb128 .LVU51
 3838 025a 00       		.uleb128 .LVU51
 3839 025b 00       		.uleb128 0
 3840              	.LLST1:
 3841 025c 06       		.byte	0x6
 3842 025d 00000000 		.4byte	.LVL2
 3843 0261 04       		.byte	0x4
 3844 0262 00       		.uleb128 .LVL2-.LVL2
 3845 0263 1C       		.uleb128 .LVL3-.LVL2
 3846 0264 01       		.uleb128 0x1
 3847 0265 51       		.byte	0x51
 3848 0266 04       		.byte	0x4
 3849 0267 1C       		.uleb128 .LVL3-.LVL2
 3850 0268 8C01     		.uleb128 .LFE8-.LVL2
 3851 026a 03       		.uleb128 0x3
 3852 026b 71       		.byte	0x71
 3853 026c 24       		.sleb128 36
 3854 026d 9F       		.byte	0x9f
 3855 026e 00       		.byte	0
 3856              	.LVUS2:
 3857 026f 00       		.uleb128 0
 3858 0270 00       		.uleb128 .LVU76
 3859 0271 00       		.uleb128 .LVU76
 3860 0272 00       		.uleb128 0
 3861              	.LLST2:
 3862 0273 06       		.byte	0x6
 3863 0274 00000000 		.4byte	.LVL2
 3864 0278 04       		.byte	0x4
 3865 0279 00       		.uleb128 .LVL2-.LVL2
 3866 027a 4C       		.uleb128 .LVL7-.LVL2
 3867 027b 01       		.uleb128 0x1
 3868 027c 52       		.byte	0x52
 3869 027d 04       		.byte	0x4
 3870 027e 4C       		.uleb128 .LVL7-.LVL2
 3871 027f 8C01     		.uleb128 .LFE8-.LVL2
 3872 0281 02       		.uleb128 0x2
 3873 0282 70       		.byte	0x70
 3874 0283 08       		.sleb128 8
 3875 0284 00       		.byte	0
 3876              	.LVUS3:
ARM GAS  /tmp/ccEt7jHp.s 			page 69


 3877 0285 00       		.uleb128 0
 3878 0286 00       		.uleb128 .LVU61
 3879 0287 00       		.uleb128 .LVU61
 3880 0288 00       		.uleb128 .LVU78
 3881 0289 00       		.uleb128 .LVU78
 3882 028a 00       		.uleb128 0
 3883              	.LLST3:
 3884 028b 06       		.byte	0x6
 3885 028c 00000000 		.4byte	.LVL2
 3886 0290 04       		.byte	0x4
 3887 0291 00       		.uleb128 .LVL2-.LVL2
 3888 0292 34       		.uleb128 .LVL5-.LVL2
 3889 0293 01       		.uleb128 0x1
 3890 0294 53       		.byte	0x53
 3891 0295 04       		.byte	0x4
 3892 0296 34       		.uleb128 .LVL5-.LVL2
 3893 0297 54       		.uleb128 .LVL8-.LVL2
 3894 0298 02       		.uleb128 0x2
 3895 0299 7A       		.byte	0x7a
 3896 029a 00       		.sleb128 0
 3897 029b 04       		.byte	0x4
 3898 029c 54       		.uleb128 .LVL8-.LVL2
 3899 029d 8C01     		.uleb128 .LFE8-.LVL2
 3900 029f 04       		.uleb128 0x4
 3901 02a0 A3       		.byte	0xa3
 3902 02a1 01       		.uleb128 0x1
 3903 02a2 53       		.byte	0x53
 3904 02a3 9F       		.byte	0x9f
 3905 02a4 00       		.byte	0
 3906              	.LVUS4:
 3907 02a5 00       		.uleb128 .LVU54
 3908 02a6 00       		.uleb128 0
 3909              	.LLST4:
 3910 02a7 08       		.byte	0x8
 3911 02a8 28000000 		.4byte	.LVL4
 3912 02ac 64       		.uleb128 .LFE8-.LVL4
 3913 02ad 01       		.uleb128 0x1
 3914 02ae 50       		.byte	0x50
 3915 02af 00       		.byte	0
 3916              	.LVUS6:
 3917 02b0 03       		.uleb128 .LVU65
 3918 02b1 00       		.uleb128 .LVU76
 3919 02b2 00       		.uleb128 .LVU76
 3920 02b3 04       		.uleb128 .LVU99
 3921              	.LLST6:
 3922 02b4 06       		.byte	0x6
 3923 02b5 3C000000 		.4byte	.LVL6
 3924 02b9 04       		.byte	0x4
 3925 02ba 00       		.uleb128 .LVL6-.LVL6
 3926 02bb 10       		.uleb128 .LVL7-.LVL6
 3927 02bc 01       		.uleb128 0x1
 3928 02bd 52       		.byte	0x52
 3929 02be 04       		.byte	0x4
 3930 02bf 10       		.uleb128 .LVL7-.LVL6
 3931 02c0 44       		.uleb128 .LVL9-.LVL6
 3932 02c1 02       		.uleb128 0x2
 3933 02c2 70       		.byte	0x70
ARM GAS  /tmp/ccEt7jHp.s 			page 70


 3934 02c3 08       		.sleb128 8
 3935 02c4 00       		.byte	0
 3936              	.LVUS7:
 3937 02c5 03       		.uleb128 .LVU65
 3938 02c6 04       		.uleb128 .LVU99
 3939              	.LLST7:
 3940 02c7 08       		.byte	0x8
 3941 02c8 3C000000 		.4byte	.LVL6
 3942 02cc 44       		.uleb128 .LVL9-.LVL6
 3943 02cd 01       		.uleb128 0x1
 3944 02ce 50       		.byte	0x50
 3945 02cf 00       		.byte	0
 3946              	.Ldebug_loc3:
 3947              		.section	.debug_aranges,"",%progbits
 3948 0000 74000000 		.4byte	0x74
 3949 0004 0200     		.2byte	0x2
 3950 0006 00000000 		.4byte	.Ldebug_info0
 3951 000a 04       		.byte	0x4
 3952 000b 00       		.byte	0
 3953 000c 0000     		.2byte	0
 3954 000e 0000     		.2byte	0
 3955 0010 00000000 		.4byte	.LFB7
 3956 0014 6C000000 		.4byte	.LFE7-.LFB7
 3957 0018 00000000 		.4byte	.LFB8
 3958 001c 8C000000 		.4byte	.LFE8-.LFB8
 3959 0020 00000000 		.4byte	.LFB9
 3960 0024 A4000000 		.4byte	.LFE9-.LFB9
 3961 0028 00000000 		.4byte	.LFB10
 3962 002c 50000000 		.4byte	.LFE10-.LFB10
 3963 0030 00000000 		.4byte	.LFB11
 3964 0034 20000000 		.4byte	.LFE11-.LFB11
 3965 0038 00000000 		.4byte	.LFB12
 3966 003c 18000000 		.4byte	.LFE12-.LFB12
 3967 0040 00000000 		.4byte	.LFB13
 3968 0044 1C000000 		.4byte	.LFE13-.LFB13
 3969 0048 00000000 		.4byte	.LFB14
 3970 004c 34000000 		.4byte	.LFE14-.LFB14
 3971 0050 00000000 		.4byte	.LFB15
 3972 0054 3C000000 		.4byte	.LFE15-.LFB15
 3973 0058 00000000 		.4byte	.LFB17
 3974 005c 60000000 		.4byte	.LFE17-.LFB17
 3975 0060 00000000 		.4byte	.LFB16
 3976 0064 08000000 		.4byte	.LFE16-.LFB16
 3977 0068 00000000 		.4byte	.LFB18
 3978 006c 50000000 		.4byte	.LFE18-.LFB18
 3979 0070 00000000 		.4byte	0
 3980 0074 00000000 		.4byte	0
 3981              		.section	.debug_rnglists,"",%progbits
 3982              	.Ldebug_ranges0:
 3983 0000 84000000 		.4byte	.Ldebug_ranges3-.Ldebug_ranges2
 3984              	.Ldebug_ranges2:
 3985 0004 0500     		.2byte	0x5
 3986 0006 04       		.byte	0x4
 3987 0007 00       		.byte	0
 3988 0008 00000000 		.4byte	0
 3989              	.LLRL5:
 3990 000c 05       		.byte	0x5
ARM GAS  /tmp/ccEt7jHp.s 			page 71


 3991 000d 04000000 		.4byte	.LBB10
 3992 0011 04       		.byte	0x4
 3993 0012 00       		.uleb128 .LBB10-.LBB10
 3994 0013 14       		.uleb128 .LBE10-.LBB10
 3995 0014 04       		.byte	0x4
 3996 0015 1C       		.uleb128 .LBB14-.LBB10
 3997 0016 20       		.uleb128 .LBE14-.LBB10
 3998 0017 04       		.byte	0x4
 3999 0018 38       		.uleb128 .LBB15-.LBB10
 4000 0019 7C       		.uleb128 .LBE15-.LBB10
 4001 001a 00       		.byte	0
 4002              	.LLRL19:
 4003 001b 05       		.byte	0x5
 4004 001c 0C000000 		.4byte	.LBB22
 4005 0020 04       		.byte	0x4
 4006 0021 00       		.uleb128 .LBB22-.LBB22
 4007 0022 04       		.uleb128 .LBE22-.LBB22
 4008 0023 04       		.byte	0x4
 4009 0024 08       		.uleb128 .LBB27-.LBB22
 4010 0025 18       		.uleb128 .LBE27-.LBB22
 4011 0026 04       		.byte	0x4
 4012 0027 1C       		.uleb128 .LBB28-.LBB22
 4013 0028 20       		.uleb128 .LBE28-.LBB22
 4014 0029 04       		.byte	0x4
 4015 002a 38       		.uleb128 .LBB29-.LBB22
 4016 002b 8001     		.uleb128 .LBE29-.LBB22
 4017 002d 00       		.byte	0
 4018              	.LLRL34:
 4019 002e 05       		.byte	0x5
 4020 002f 1C000000 		.4byte	.LBB32
 4021 0033 04       		.byte	0x4
 4022 0034 00       		.uleb128 .LBB32-.LBB32
 4023 0035 04       		.uleb128 .LBE32-.LBB32
 4024 0036 04       		.byte	0x4
 4025 0037 08       		.uleb128 .LBB36-.LBB32
 4026 0038 08       		.uleb128 .LBE36-.LBB32
 4027 0039 04       		.byte	0x4
 4028 003a 0C       		.uleb128 .LBB37-.LBB32
 4029 003b 14       		.uleb128 .LBE37-.LBB32
 4030 003c 00       		.byte	0
 4031              	.LLRL36:
 4032 003d 07       		.byte	0x7
 4033 003e 00000000 		.4byte	.LFB7
 4034 0042 6C       		.uleb128 .LFE7-.LFB7
 4035 0043 07       		.byte	0x7
 4036 0044 00000000 		.4byte	.LFB8
 4037 0048 8C01     		.uleb128 .LFE8-.LFB8
 4038 004a 07       		.byte	0x7
 4039 004b 00000000 		.4byte	.LFB9
 4040 004f A401     		.uleb128 .LFE9-.LFB9
 4041 0051 07       		.byte	0x7
 4042 0052 00000000 		.4byte	.LFB10
 4043 0056 50       		.uleb128 .LFE10-.LFB10
 4044 0057 07       		.byte	0x7
 4045 0058 00000000 		.4byte	.LFB11
 4046 005c 20       		.uleb128 .LFE11-.LFB11
 4047 005d 07       		.byte	0x7
ARM GAS  /tmp/ccEt7jHp.s 			page 72


 4048 005e 00000000 		.4byte	.LFB12
 4049 0062 18       		.uleb128 .LFE12-.LFB12
 4050 0063 07       		.byte	0x7
 4051 0064 00000000 		.4byte	.LFB13
 4052 0068 1C       		.uleb128 .LFE13-.LFB13
 4053 0069 07       		.byte	0x7
 4054 006a 00000000 		.4byte	.LFB14
 4055 006e 34       		.uleb128 .LFE14-.LFB14
 4056 006f 07       		.byte	0x7
 4057 0070 00000000 		.4byte	.LFB15
 4058 0074 3C       		.uleb128 .LFE15-.LFB15
 4059 0075 07       		.byte	0x7
 4060 0076 00000000 		.4byte	.LFB17
 4061 007a 60       		.uleb128 .LFE17-.LFB17
 4062 007b 07       		.byte	0x7
 4063 007c 00000000 		.4byte	.LFB16
 4064 0080 08       		.uleb128 .LFE16-.LFB16
 4065 0081 07       		.byte	0x7
 4066 0082 00000000 		.4byte	.LFB18
 4067 0086 50       		.uleb128 .LFE18-.LFB18
 4068 0087 00       		.byte	0
 4069              	.Ldebug_ranges3:
 4070              		.section	.debug_line,"",%progbits
 4071              	.Ldebug_line0:
 4072 0000 8E060000 		.section	.debug_str,"MS",%progbits,1
 4072      03007101 
 4072      00000201 
 4072      FB0E0D00 
 4072      01010101 
 4073              	.LASF75:
 4074 0000 7466756E 		.ascii	"tfunc_t\000"
 4074      635F7400 
 4075              	.LASF39:
 4076 0008 705F6D73 		.ascii	"p_msg\000"
 4076      6700
 4077              	.LASF2:
 4078 000e 73697A65 		.ascii	"size_t\000"
 4078      5F7400
 4079              	.LASF98:
 4080 0015 7072696F 		.ascii	"prio\000"
 4080      00
 4081              	.LASF70:
 4082 001a 7264796D 		.ascii	"rdymsg\000"
 4082      736700
 4083              	.LASF3:
 4084 0021 5F5F7569 		.ascii	"__uint8_t\000"
 4084      6E74385F 
 4084      7400
 4085              	.LASF64:
 4086 002b 76746C69 		.ascii	"vtlist\000"
 4086      737400
 4087              	.LASF84:
 4088 0032 63685468 		.ascii	"chThdExitS\000"
 4088      64457869 
 4088      745300
 4089              	.LASF12:
 4090 003d 6C6F6E67 		.ascii	"long long unsigned int\000"
ARM GAS  /tmp/ccEt7jHp.s 			page 73


 4090      206C6F6E 
 4090      6720756E 
 4090      7369676E 
 4090      65642069 
 4091              	.LASF71:
 4092 0054 65786974 		.ascii	"exitcode\000"
 4092      636F6465 
 4092      00
 4093              	.LASF27:
 4094 005d 705F7072 		.ascii	"p_prio\000"
 4094      696F00
 4095              	.LASF11:
 4096 0064 6C6F6E67 		.ascii	"long long int\000"
 4096      206C6F6E 
 4096      6720696E 
 4096      7400
 4097              	.LASF1:
 4098 0072 7369676E 		.ascii	"signed char\000"
 4098      65642063 
 4098      68617200 
 4099              	.LASF85:
 4100 007e 63685468 		.ascii	"chThdExit\000"
 4100      64457869 
 4100      7400
 4101              	.LASF67:
 4102 0088 6D5F7175 		.ascii	"m_queue\000"
 4102      65756500 
 4103              	.LASF19:
 4104 0090 74736C69 		.ascii	"tslices_t\000"
 4104      6365735F 
 4104      7400
 4105              	.LASF99:
 4106 009a 63685468 		.ascii	"chThdCreateI\000"
 4106      64437265 
 4106      61746549 
 4106      00
 4107              	.LASF8:
 4108 00a7 6C6F6E67 		.ascii	"long int\000"
 4108      20696E74 
 4108      00
 4109              	.LASF17:
 4110 00b0 74737461 		.ascii	"tstate_t\000"
 4110      74655F74 
 4110      00
 4111              	.LASF83:
 4112 00b9 5F706F72 		.ascii	"_port_thread_start\000"
 4112      745F7468 
 4112      72656164 
 4112      5F737461 
 4112      727400
 4113              	.LASF29:
 4114 00cc 705F6E65 		.ascii	"p_newer\000"
 4114      77657200 
 4115              	.LASF104:
 4116 00d4 6C697374 		.ascii	"list_remove\000"
 4116      5F72656D 
 4116      6F766500 
ARM GAS  /tmp/ccEt7jHp.s 			page 74


 4117              	.LASF81:
 4118 00e0 63685363 		.ascii	"chSchRescheduleS\000"
 4118      68526573 
 4118      63686564 
 4118      756C6553 
 4118      00
 4119              	.LASF9:
 4120 00f1 5F5F7569 		.ascii	"__uint32_t\000"
 4120      6E743332 
 4120      5F7400
 4121              	.LASF45:
 4122 00fc 72656761 		.ascii	"regarm_t\000"
 4122      726D5F74 
 4122      00
 4123              	.LASF51:
 4124 0105 76745F70 		.ascii	"vt_prev\000"
 4124      72657600 
 4125              	.LASF93:
 4126 010d 63685468 		.ascii	"chThdSetPriority\000"
 4126      64536574 
 4126      5072696F 
 4126      72697479 
 4126      00
 4127              	.LASF0:
 4128 011e 756E7369 		.ascii	"unsigned int\000"
 4128      676E6564 
 4128      20696E74 
 4128      00
 4129              	.LASF50:
 4130 012b 76745F6E 		.ascii	"vt_next\000"
 4130      65787400 
 4131              	.LASF10:
 4132 0133 6C6F6E67 		.ascii	"long unsigned int\000"
 4132      20756E73 
 4132      69676E65 
 4132      6420696E 
 4132      7400
 4133              	.LASF48:
 4134 0145 76746675 		.ascii	"vtfunc_t\000"
 4134      6E635F74 
 4134      00
 4135              	.LASF47:
 4136 014e 636F6E74 		.ascii	"context\000"
 4136      65787400 
 4137              	.LASF97:
 4138 0156 73697A65 		.ascii	"size\000"
 4138      00
 4139              	.LASF6:
 4140 015b 73686F72 		.ascii	"short unsigned int\000"
 4140      7420756E 
 4140      7369676E 
 4140      65642069 
 4140      6E7400
 4141              	.LASF82:
 4142 016e 63685363 		.ascii	"chSchWakeupS\000"
 4142      6857616B 
 4142      65757053 
ARM GAS  /tmp/ccEt7jHp.s 			page 75


 4142      00
 4143              	.LASF21:
 4144 017b 6D73675F 		.ascii	"msg_t\000"
 4144      7400
 4145              	.LASF60:
 4146 0181 725F6E65 		.ascii	"r_newer\000"
 4146      77657200 
 4147              	.LASF94:
 4148 0189 6E657770 		.ascii	"newprio\000"
 4148      72696F00 
 4149              	.LASF16:
 4150 0191 746D6F64 		.ascii	"tmode_t\000"
 4150      655F7400 
 4151              	.LASF90:
 4152 0199 63685468 		.ascii	"chThdTerminate\000"
 4152      64546572 
 4152      6D696E61 
 4152      746500
 4153              	.LASF44:
 4154 01a8 54687265 		.ascii	"ThreadsList\000"
 4154      6164734C 
 4154      69737400 
 4155              	.LASF22:
 4156 01b4 6576656E 		.ascii	"eventmask_t\000"
 4156      746D6173 
 4156      6B5F7400 
 4157              	.LASF66:
 4158 01c0 4D757465 		.ascii	"Mutex\000"
 4158      7800
 4159              	.LASF95:
 4160 01c6 6F6C6470 		.ascii	"oldprio\000"
 4160      72696F00 
 4161              	.LASF96:
 4162 01ce 63685468 		.ascii	"chThdCreateStatic\000"
 4162      64437265 
 4162      61746553 
 4162      74617469 
 4162      6300
 4163              	.LASF52:
 4164 01e0 76745F74 		.ascii	"vt_time\000"
 4164      696D6500 
 4165              	.LASF101:
 4166 01e8 474E5520 		.ascii	"GNU C17 11.2.0 -mcpu=arm1176jz-s -mno-thumb-interwo"
 4166      43313720 
 4166      31312E32 
 4166      2E30202D 
 4166      6D637075 
 4167 021b 726B202D 		.ascii	"rk -mfloat-abi=soft -marm -march=armv6kz -ggdb -O2 "
 4167      6D666C6F 
 4167      61742D61 
 4167      62693D73 
 4167      6F667420 
 4168 024e 2D666F6D 		.ascii	"-fomit-frame-pointer -ffunction-sections -fdata-sec"
 4168      69742D66 
 4168      72616D65 
 4168      2D706F69 
 4168      6E746572 
ARM GAS  /tmp/ccEt7jHp.s 			page 76


 4169 0281 74696F6E 		.ascii	"tions\000"
 4169      7300
 4170              	.LASF53:
 4171 0287 76745F66 		.ascii	"vt_func\000"
 4171      756E6300 
 4172              	.LASF92:
 4173 028f 63685468 		.ascii	"chThdResume\000"
 4173      64526573 
 4173      756D6500 
 4174              	.LASF80:
 4175 029b 63685363 		.ascii	"chSchDoRescheduleBehind\000"
 4175      68446F52 
 4175      65736368 
 4175      6564756C 
 4175      65426568 
 4176              	.LASF103:
 4177 02b3 2F686F6D 		.ascii	"/home/sergi/uni/seu/ChibiOS-RPi/demos/led\000"
 4177      652F7365 
 4177      7267692F 
 4177      756E692F 
 4177      7365752F 
 4178              	.LASF30:
 4179 02dd 705F6F6C 		.ascii	"p_older\000"
 4179      64657200 
 4180              	.LASF59:
 4181 02e5 725F6374 		.ascii	"r_ctx\000"
 4181      7800
 4182              	.LASF43:
 4183 02eb 54687265 		.ascii	"ThreadsQueue\000"
 4183      61647351 
 4183      75657565 
 4183      00
 4184              	.LASF88:
 4185 02f8 74696D65 		.ascii	"time\000"
 4185      00
 4186              	.LASF105:
 4187 02fd 6C697374 		.ascii	"list_insert\000"
 4187      5F696E73 
 4187      65727400 
 4188              	.LASF62:
 4189 0309 725F6375 		.ascii	"r_current\000"
 4189      7272656E 
 4189      7400
 4190              	.LASF61:
 4191 0313 725F6F6C 		.ascii	"r_older\000"
 4191      64657200 
 4192              	.LASF87:
 4193 031b 63685468 		.ascii	"chThdSleepUntil\000"
 4193      64536C65 
 4193      6570556E 
 4193      74696C00 
 4194              	.LASF18:
 4195 032b 74726566 		.ascii	"trefs_t\000"
 4195      735F7400 
 4196              	.LASF26:
 4197 0333 705F7072 		.ascii	"p_prev\000"
 4197      657600
ARM GAS  /tmp/ccEt7jHp.s 			page 77


 4198              	.LASF20:
 4199 033a 74707269 		.ascii	"tprio_t\000"
 4199      6F5F7400 
 4200              	.LASF14:
 4201 0342 696E7433 		.ascii	"int32_t\000"
 4201      325F7400 
 4202              	.LASF4:
 4203 034a 756E7369 		.ascii	"unsigned char\000"
 4203      676E6564 
 4203      20636861 
 4203      7200
 4204              	.LASF41:
 4205 0358 705F6D74 		.ascii	"p_mtxlist\000"
 4205      786C6973 
 4205      7400
 4206              	.LASF5:
 4207 0362 73686F72 		.ascii	"short int\000"
 4207      7420696E 
 4207      7400
 4208              	.LASF32:
 4209 036c 705F7374 		.ascii	"p_state\000"
 4209      61746500 
 4210              	.LASF35:
 4211 0374 705F7072 		.ascii	"p_preempt\000"
 4211      65656D70 
 4211      7400
 4212              	.LASF58:
 4213 037e 725F7072 		.ascii	"r_prio\000"
 4213      696F00
 4214              	.LASF73:
 4215 0385 65776D61 		.ascii	"ewmask\000"
 4215      736B00
 4216              	.LASF25:
 4217 038c 705F6E65 		.ascii	"p_next\000"
 4217      787400
 4218              	.LASF33:
 4219 0393 705F666C 		.ascii	"p_flags\000"
 4219      61677300 
 4220              	.LASF76:
 4221 039b 63685468 		.ascii	"chThdRelease\000"
 4221      6452656C 
 4221      65617365 
 4221      00
 4222              	.LASF24:
 4223 03a8 54687265 		.ascii	"Thread\000"
 4223      616400
 4224              	.LASF77:
 4225 03af 63685363 		.ascii	"chSchGoSleepS\000"
 4225      68476F53 
 4225      6C656570 
 4225      5300
 4226              	.LASF40:
 4227 03bd 705F6570 		.ascii	"p_epending\000"
 4227      656E6469 
 4227      6E6700
 4228              	.LASF15:
 4229 03c8 75696E74 		.ascii	"uint32_t\000"
ARM GAS  /tmp/ccEt7jHp.s 			page 78


 4229      33325F74 
 4229      00
 4230              	.LASF100:
 4231 03d1 5F746872 		.ascii	"_thread_init\000"
 4231      6561645F 
 4231      696E6974 
 4231      00
 4232              	.LASF57:
 4233 03de 725F7175 		.ascii	"r_queue\000"
 4233      65756500 
 4234              	.LASF49:
 4235 03e6 56697274 		.ascii	"VirtualTimer\000"
 4235      75616C54 
 4235      696D6572 
 4235      00
 4236              	.LASF74:
 4237 03f3 63686172 		.ascii	"char\000"
 4237      00
 4238              	.LASF78:
 4239 03f8 63685363 		.ascii	"chSchReadyI\000"
 4239      68526561 
 4239      64794900 
 4240              	.LASF69:
 4241 0404 6D5F6E65 		.ascii	"m_next\000"
 4241      787400
 4242              	.LASF23:
 4243 040b 73797374 		.ascii	"systime_t\000"
 4243      696D655F 
 4243      7400
 4244              	.LASF42:
 4245 0415 705F7265 		.ascii	"p_realprio\000"
 4245      616C7072 
 4245      696F00
 4246              	.LASF7:
 4247 0420 5F5F696E 		.ascii	"__int32_t\000"
 4247      7433325F 
 4247      7400
 4248              	.LASF86:
 4249 042a 63685468 		.ascii	"chThdYield\000"
 4249      64596965 
 4249      6C6400
 4250              	.LASF36:
 4251 0435 705F7469 		.ascii	"p_time\000"
 4251      6D6500
 4252              	.LASF46:
 4253 043c 696E7463 		.ascii	"intctx\000"
 4253      747800
 4254              	.LASF38:
 4255 0443 705F6D73 		.ascii	"p_msgqueue\000"
 4255      67717565 
 4255      756500
 4256              	.LASF91:
 4257 044e 63685468 		.ascii	"chThdWait\000"
 4257      64576169 
 4257      7400
 4258              	.LASF54:
 4259 0458 76745F70 		.ascii	"vt_par\000"
ARM GAS  /tmp/ccEt7jHp.s 			page 79


 4259      617200
 4260              	.LASF89:
 4261 045f 63685468 		.ascii	"chThdSleep\000"
 4261      64536C65 
 4261      657000
 4262              	.LASF34:
 4263 046a 705F7265 		.ascii	"p_refs\000"
 4263      667300
 4264              	.LASF63:
 4265 0471 52656164 		.ascii	"ReadyList\000"
 4265      794C6973 
 4265      7400
 4266              	.LASF65:
 4267 047b 726C6973 		.ascii	"rlist\000"
 4267      7400
 4268              	.LASF13:
 4269 0481 75696E74 		.ascii	"uint8_t\000"
 4269      385F7400 
 4270              	.LASF102:
 4271 0489 2E2E2F2E 		.ascii	"../../os/kernel/src/chthreads.c\000"
 4271      2E2F6F73 
 4271      2F6B6572 
 4271      6E656C2F 
 4271      7372632F 
 4272              	.LASF72:
 4273 04a9 77746F62 		.ascii	"wtobjp\000"
 4273      6A7000
 4274              	.LASF31:
 4275 04b0 705F6E61 		.ascii	"p_name\000"
 4275      6D6500
 4276              	.LASF55:
 4277 04b7 76745F73 		.ascii	"vt_systime\000"
 4277      79737469 
 4277      6D6500
 4278              	.LASF79:
 4279 04c2 63685363 		.ascii	"chSchGoSleepTimeoutS\000"
 4279      68476F53 
 4279      6C656570 
 4279      54696D65 
 4279      6F757453 
 4280              	.LASF56:
 4281 04d7 56544C69 		.ascii	"VTList\000"
 4281      737400
 4282              	.LASF68:
 4283 04de 6D5F6F77 		.ascii	"m_owner\000"
 4283      6E657200 
 4284              	.LASF28:
 4285 04e6 705F6374 		.ascii	"p_ctx\000"
 4285      7800
 4286              	.LASF37:
 4287 04ec 705F7761 		.ascii	"p_waiting\000"
 4287      6974696E 
 4287      6700
 4288              		.ident	"GCC: (Arch Repository) 11.2.0"
ARM GAS  /tmp/ccEt7jHp.s 			page 80


DEFINED SYMBOLS
                            *ABS*:0000000000000000 chthreads.c
     /tmp/ccEt7jHp.s:16     .text._thread_init:0000000000000000 $a
     /tmp/ccEt7jHp.s:23     .text._thread_init:0000000000000000 _thread_init
     /tmp/ccEt7jHp.s:107    .text._thread_init:0000000000000068 $d
     /tmp/ccEt7jHp.s:112    .text.chThdCreateI:0000000000000000 $a
     /tmp/ccEt7jHp.s:118    .text.chThdCreateI:0000000000000000 chThdCreateI
     /tmp/ccEt7jHp.s:248    .text.chThdCreateI:0000000000000084 $d
     /tmp/ccEt7jHp.s:254    .text.chThdCreateStatic:0000000000000000 $a
     /tmp/ccEt7jHp.s:260    .text.chThdCreateStatic:0000000000000000 chThdCreateStatic
     /tmp/ccEt7jHp.s:428    .text.chThdCreateStatic:000000000000009c $d
     /tmp/ccEt7jHp.s:434    .text.chThdSetPriority:0000000000000000 $a
     /tmp/ccEt7jHp.s:440    .text.chThdSetPriority:0000000000000000 chThdSetPriority
     /tmp/ccEt7jHp.s:511    .text.chThdSetPriority:000000000000004c $d
     /tmp/ccEt7jHp.s:516    .text.chThdResume:0000000000000000 $a
     /tmp/ccEt7jHp.s:522    .text.chThdResume:0000000000000000 chThdResume
     /tmp/ccEt7jHp.s:569    .text.chThdTerminate:0000000000000000 $a
     /tmp/ccEt7jHp.s:575    .text.chThdTerminate:0000000000000000 chThdTerminate
     /tmp/ccEt7jHp.s:612    .text.chThdSleep:0000000000000000 $a
     /tmp/ccEt7jHp.s:618    .text.chThdSleep:0000000000000000 chThdSleep
     /tmp/ccEt7jHp.s:664    .text.chThdSleepUntil:0000000000000000 $a
     /tmp/ccEt7jHp.s:670    .text.chThdSleepUntil:0000000000000000 chThdSleepUntil
     /tmp/ccEt7jHp.s:732    .text.chThdSleepUntil:0000000000000030 $d
     /tmp/ccEt7jHp.s:737    .text.chThdYield:0000000000000000 $a
     /tmp/ccEt7jHp.s:743    .text.chThdYield:0000000000000000 chThdYield
     /tmp/ccEt7jHp.s:803    .text.chThdYield:0000000000000038 $d
     /tmp/ccEt7jHp.s:808    .text.chThdExitS:0000000000000000 $a
     /tmp/ccEt7jHp.s:814    .text.chThdExitS:0000000000000000 chThdExitS
     /tmp/ccEt7jHp.s:903    .text.chThdExitS:000000000000005c $d
     /tmp/ccEt7jHp.s:908    .text.chThdExit:0000000000000000 $a
     /tmp/ccEt7jHp.s:914    .text.chThdExit:0000000000000000 chThdExit
     /tmp/ccEt7jHp.s:939    .text.chThdWait:0000000000000000 $a
     /tmp/ccEt7jHp.s:945    .text.chThdWait:0000000000000000 chThdWait
     /tmp/ccEt7jHp.s:1044   .text.chThdWait:000000000000004c $d

UNDEFINED SYMBOLS
rlist
_port_thread_start
chSchWakeupS
chSchRescheduleS
chSchGoSleepTimeoutS
vtlist
chSchDoRescheduleBehind
chSchReadyI
chSchGoSleepS
chThdRelease
