ARM GAS  /tmp/ccEt7jHp.s 			page 1


   1              		.cpu arm1176jz-s
   2              		.eabi_attribute 20, 1
   3              		.eabi_attribute 21, 1
   4              		.eabi_attribute 23, 3
   5              		.eabi_attribute 24, 1
   6              		.eabi_attribute 25, 1
   7              		.eabi_attribute 26, 1
   8              		.eabi_attribute 30, 2
   9              		.eabi_attribute 34, 1
  10              		.eabi_attribute 18, 4
  11              		.file	"chthreads.c"
  12              		.text
  13              	.Ltext0:
  14              		.cfi_sections	.debug_frame
  15              		.section	.text._thread_init,"ax",%progbits
  16              		.align	2
  17              		.global	_thread_init
  18              		.arch armv6kz
  19              		.syntax unified
  20              		.arm
  21              		.fpu softvfp
  22              		.type	_thread_init, %function
  23              	_thread_init:
  24              	.LVL0:
  25              	.LFB7:
  26              		.file 1 "../../os/kernel/src/chthreads.c"
  27              		.loc 1 69 48 view -0
  28              		.cfi_startproc
  29              		@ args = 0, pretend = 0, frame = 0
  30              		@ frame_needed = 0, uses_anonymous_args = 0
  31              		.loc 1 71 3 view .LVU1
  32              		.loc 1 79 17 is_stmt 0 view .LVU2
  33 0000 0020A0E3 		mov	r2, #0
  34              		.loc 1 69 48 view .LVU3
  35 0004 70402DE9 		push	{r4, r5, r6, lr}
  36              		.cfi_def_cfa_offset 16
  37              		.cfi_offset 4, -16
  38              		.cfi_offset 5, -12
  39              		.cfi_offset 6, -8
  40              		.cfi_offset 14, -4
  41              		.loc 1 72 15 view .LVU4
  42 0008 0240A0E3 		mov	r4, #2
  43              		.loc 1 75 17 view .LVU5
  44 000c 1460A0E3 		mov	r6, #20
  45              		.loc 1 88 14 view .LVU6
  46 0010 0150A0E3 		mov	r5, #1
  47              		.loc 1 92 3 view .LVU7
  48 0014 4CC09FE5 		ldr	ip, .L4
  49              		.loc 1 78 18 view .LVU8
  50 0018 401080E5 		str	r1, [r0, #64]
  51              		.loc 1 92 3 view .LVU9
  52 001c 14E09CE5 		ldr	lr, [ip, #20]
  53              		.loc 1 79 17 view .LVU10
  54 0020 3C2080E5 		str	r2, [r0, #60]
  55              		.loc 1 71 14 view .LVU11
  56 0024 081080E5 		str	r1, [r0, #8]
  57              		.loc 1 72 3 is_stmt 1 view .LVU12
ARM GAS  /tmp/ccEt7jHp.s 			page 2


  58              		.loc 1 73 3 view .LVU13
  59              		.loc 1 82 18 is_stmt 0 view .LVU14
  60 0028 382080E5 		str	r2, [r0, #56]
  61              		.loc 1 85 14 view .LVU15
  62 002c 202080E5 		str	r2, [r0, #32]
  63              		.loc 1 91 14 view .LVU16
  64 0030 182080E5 		str	r2, [r0, #24]
  65              		.loc 1 95 3 view .LVU17
  66 0034 281080E2 		add	r1, r0, #40
  67              	.LVL1:
  68              		.loc 1 98 3 view .LVU18
  69 0038 2C2080E2 		add	r2, r0, #44
  70              		.loc 1 92 3 view .LVU19
  71 003c 10C080E5 		str	ip, [r0, #16]
  72 0040 14E080E5 		str	lr, [r0, #20]
  73              		.loc 1 75 17 view .LVU20
  74 0044 1F60C0E5 		strb	r6, [r0, #31]
  75              		.loc 1 88 14 view .LVU21
  76 0048 1E50C0E5 		strb	r5, [r0, #30]
  77              		.loc 1 92 3 view .LVU22
  78 004c 14008CE5 		str	r0, [ip, #20]
  79              		.loc 1 72 15 view .LVU23
  80 0050 BC41C0E1 		strh	r4, [r0, #28]	@ movhi
  81              		.loc 1 75 3 is_stmt 1 view .LVU24
  82              		.loc 1 78 3 view .LVU25
  83              		.loc 1 79 3 view .LVU26
  84              		.loc 1 82 3 view .LVU27
  85              		.loc 1 85 3 view .LVU28
  86              		.loc 1 88 3 view .LVU29
  87              		.loc 1 91 3 view .LVU30
  88              		.loc 1 92 3 view .LVU31
  89              		.loc 1 92 3 view .LVU32
  90              		.loc 1 92 3 view .LVU33
  91 0054 10008EE5 		str	r0, [lr, #16]
  92              		.loc 1 92 17 view .LVU34
  93              		.loc 1 95 3 view .LVU35
  94 0058 281080E5 		str	r1, [r0, #40]
  95              		.loc 1 98 3 view .LVU36
  96 005c 302080E5 		str	r2, [r0, #48]
  97 0060 2C2080E5 		str	r2, [r0, #44]
  98              		.loc 1 98 30 view .LVU37
  99              		.loc 1 104 3 view .LVU38
 100              		.loc 1 104 27 view .LVU39
 101              		.loc 1 106 3 view .LVU40
 102              		.loc 1 107 1 is_stmt 0 view .LVU41
 103 0064 7080BDE8 		pop	{r4, r5, r6, pc}
 104              	.L5:
 105              		.align	2
 106              	.L4:
 107 0068 00000000 		.word	rlist
 108              		.cfi_endproc
 109              	.LFE7:
 110              		.size	_thread_init, .-_thread_init
 111              		.section	.text.chThdCreateI,"ax",%progbits
 112              		.align	2
 113              		.global	chThdCreateI
 114              		.syntax unified
ARM GAS  /tmp/ccEt7jHp.s 			page 3


 115              		.arm
 116              		.fpu softvfp
 117              		.type	chThdCreateI, %function
 118              	chThdCreateI:
 119              	.LVL2:
 120              	.LFB8:
 121              		.loc 1 151 59 is_stmt 1 view -0
 122              		.cfi_startproc
 123              		@ args = 4, pretend = 0, frame = 0
 124              		@ frame_needed = 0, uses_anonymous_args = 0
 125              		.loc 1 153 3 view .LVU43
 126              		.loc 1 151 59 is_stmt 0 view .LVU44
 127 0000 F0472DE9 		push	{r4, r5, r6, r7, r8, r9, r10, lr}
 128              		.cfi_def_cfa_offset 32
 129              		.cfi_offset 4, -32
 130              		.cfi_offset 5, -28
 131              		.cfi_offset 6, -24
 132              		.cfi_offset 7, -20
 133              		.cfi_offset 8, -16
 134              		.cfi_offset 9, -12
 135              		.cfi_offset 10, -8
 136              		.cfi_offset 14, -4
 137              	.LBB10:
 138              	.LBB11:
 139              		.loc 1 79 17 view .LVU45
 140 0004 00E0A0E3 		mov	lr, #0
 141              		.loc 1 72 15 view .LVU46
 142 0008 0280A0E3 		mov	r8, #2
 143              		.loc 1 75 17 view .LVU47
 144 000c 1470A0E3 		mov	r7, #20
 145              		.loc 1 88 14 view .LVU48
 146 0010 0160A0E3 		mov	r6, #1
 147              		.loc 1 92 3 view .LVU49
 148 0014 68409FE5 		ldr	r4, .L8
 149              	.LBE11:
 150              	.LBE10:
 151              		.loc 1 160 3 view .LVU50
 152 0018 241041E2 		sub	r1, r1, #36
 153              	.LVL3:
 154              		.loc 1 160 3 view .LVU51
 155 001c 01A080E0 		add	r10, r0, r1
 156              	.LBB14:
 157              	.LBB12:
 158              		.loc 1 92 3 view .LVU52
 159 0020 145094E5 		ldr	r5, [r4, #20]
 160              	.LBE12:
 161              	.LBE14:
 162              		.loc 1 160 3 view .LVU53
 163 0024 5C909FE5 		ldr	r9, .L8+4
 164              	.LVL4:
 165              		.loc 1 155 3 is_stmt 1 view .LVU54
 166              		.loc 1 155 21 view .LVU55
 167              		.loc 1 157 3 view .LVU56
 168              		.loc 1 159 29 view .LVU57
 169              		.loc 1 160 3 view .LVU58
 170 0028 0CA080E5 		str	r10, [r0, #12]
 171              		.loc 1 160 3 view .LVU59
ARM GAS  /tmp/ccEt7jHp.s 			page 4


 172 002c 013080E7 		str	r3, [r0, r1]
 173              		.loc 1 160 3 view .LVU60
 174 0030 20309DE5 		ldr	r3, [sp, #32]
 175              	.LVL5:
 176              		.loc 1 160 3 is_stmt 0 view .LVU61
 177 0034 20908AE5 		str	r9, [r10, #32]
 178 0038 04308AE5 		str	r3, [r10, #4]
 179              		.loc 1 160 3 is_stmt 1 view .LVU62
 180              		.loc 1 160 36 view .LVU63
 181              		.loc 1 161 3 view .LVU64
 182              	.LVL6:
 183              	.LBB15:
 184              	.LBI10:
 185              		.loc 1 69 9 view .LVU65
 186              	.LBB13:
 187              		.loc 1 71 3 view .LVU66
 188              		.loc 1 71 14 is_stmt 0 view .LVU67
 189 003c 082080E5 		str	r2, [r0, #8]
 190              		.loc 1 72 3 is_stmt 1 view .LVU68
 191              		.loc 1 73 3 view .LVU69
 192              		.loc 1 75 3 view .LVU70
 193              		.loc 1 78 3 view .LVU71
 194              		.loc 1 78 18 is_stmt 0 view .LVU72
 195 0040 402080E5 		str	r2, [r0, #64]
 196              		.loc 1 79 3 is_stmt 1 view .LVU73
 197              		.loc 1 98 3 is_stmt 0 view .LVU74
 198 0044 2C3080E2 		add	r3, r0, #44
 199              		.loc 1 95 3 view .LVU75
 200 0048 282080E2 		add	r2, r0, #40
 201              	.LVL7:
 202              		.loc 1 92 3 view .LVU76
 203 004c F041C0E1 		strd	r4, [r0, #16]
 204              		.loc 1 72 15 view .LVU77
 205 0050 BC81C0E1 		strh	r8, [r0, #28]	@ movhi
 206              	.LVL8:
 207              		.loc 1 75 17 view .LVU78
 208 0054 1F70C0E5 		strb	r7, [r0, #31]
 209              		.loc 1 88 14 view .LVU79
 210 0058 1E60C0E5 		strb	r6, [r0, #30]
 211              		.loc 1 92 3 view .LVU80
 212 005c 140084E5 		str	r0, [r4, #20]
 213              		.loc 1 79 17 view .LVU81
 214 0060 3CE080E5 		str	lr, [r0, #60]
 215              		.loc 1 82 3 is_stmt 1 view .LVU82
 216              		.loc 1 82 18 is_stmt 0 view .LVU83
 217 0064 38E080E5 		str	lr, [r0, #56]
 218              		.loc 1 85 3 is_stmt 1 view .LVU84
 219              		.loc 1 85 14 is_stmt 0 view .LVU85
 220 0068 20E080E5 		str	lr, [r0, #32]
 221              		.loc 1 88 3 is_stmt 1 view .LVU86
 222              		.loc 1 91 3 view .LVU87
 223              		.loc 1 91 14 is_stmt 0 view .LVU88
 224 006c 18E080E5 		str	lr, [r0, #24]
 225              		.loc 1 92 3 is_stmt 1 view .LVU89
 226              		.loc 1 92 3 view .LVU90
 227              		.loc 1 92 3 view .LVU91
 228 0070 100085E5 		str	r0, [r5, #16]
ARM GAS  /tmp/ccEt7jHp.s 			page 5


 229              		.loc 1 92 17 view .LVU92
 230              		.loc 1 95 3 view .LVU93
 231 0074 282080E5 		str	r2, [r0, #40]
 232              		.loc 1 98 3 view .LVU94
 233 0078 303080E5 		str	r3, [r0, #48]
 234 007c 2C3080E5 		str	r3, [r0, #44]
 235              		.loc 1 98 30 view .LVU95
 236              		.loc 1 104 3 view .LVU96
 237              		.loc 1 104 27 view .LVU97
 238              		.loc 1 106 3 view .LVU98
 239              	.LVL9:
 240              		.loc 1 106 3 is_stmt 0 view .LVU99
 241              	.LBE13:
 242              	.LBE15:
 243              		.loc 1 162 1 view .LVU100
 244 0080 F087BDE8 		pop	{r4, r5, r6, r7, r8, r9, r10, pc}
 245              	.L9:
 246              		.align	2
 247              	.L8:
 248 0084 00000000 		.word	rlist
 249 0088 00000000 		.word	_port_thread_start
 250              		.cfi_endproc
 251              	.LFE8:
 252              		.size	chThdCreateI, .-chThdCreateI
 253              		.section	.text.chThdCreateStatic,"ax",%progbits
 254              		.align	2
 255              		.global	chThdCreateStatic
 256              		.syntax unified
 257              		.arm
 258              		.fpu softvfp
 259              		.type	chThdCreateStatic, %function
 260              	chThdCreateStatic:
 261              	.LVL10:
 262              	.LFB9:
 263              		.loc 1 181 64 is_stmt 1 view -0
 264              		.cfi_startproc
 265              		@ args = 4, pretend = 0, frame = 0
 266              		@ frame_needed = 0, uses_anonymous_args = 0
 267              		.loc 1 182 3 view .LVU102
 268              		.loc 1 192 3 view .LVU103
 269              		.loc 1 181 64 is_stmt 0 view .LVU104
 270 0000 F0472DE9 		push	{r4, r5, r6, r7, r8, r9, r10, lr}
 271              		.cfi_def_cfa_offset 32
 272              		.cfi_offset 4, -32
 273              		.cfi_offset 5, -28
 274              		.cfi_offset 6, -24
 275              		.cfi_offset 7, -20
 276              		.cfi_offset 8, -16
 277              		.cfi_offset 9, -12
 278              		.cfi_offset 10, -8
 279              		.cfi_offset 14, -4
 280              		.loc 1 181 64 view .LVU105
 281 0004 0040A0E1 		mov	r4, r0
 282              		.loc 1 192 3 view .LVU106
 283              		.syntax divided
 284              	@ 192 "../../os/kernel/src/chthreads.c" 1
 285 0008 9FF021E3 		msr     CPSR_c, #0x9F
ARM GAS  /tmp/ccEt7jHp.s 			page 6


 286              	@ 0 "" 2
 287              		.loc 1 192 3 is_stmt 1 view .LVU107
 288              		.loc 1 192 14 view .LVU108
 289              		.loc 1 193 3 view .LVU109
 290              	.LVL11:
 291              		.arm
 292              		.syntax unified
 293              	.LBB20:
 294              	.LBI20:
 295              		.loc 1 150 9 view .LVU110
 296              	.LBB21:
 297              		.loc 1 153 3 view .LVU111
 298              		.loc 1 155 3 view .LVU112
 299              		.loc 1 155 21 view .LVU113
 300              		.loc 1 157 3 view .LVU114
 301              		.loc 1 159 29 view .LVU115
 302              		.loc 1 160 3 view .LVU116
 303              	.LBB22:
 304              	.LBB23:
 305              		.loc 1 72 15 is_stmt 0 view .LVU117
 306 000c 0290A0E3 		mov	r9, #2
 307              	.LBE23:
 308              	.LBE22:
 309              		.loc 1 160 3 view .LVU118
 310 0010 24C041E2 		sub	ip, r1, #36
 311              	.LBB27:
 312              	.LBB24:
 313              		.loc 1 75 17 view .LVU119
 314 0014 1480A0E3 		mov	r8, #20
 315              		.loc 1 79 17 view .LVU120
 316 0018 0010A0E3 		mov	r1, #0
 317              	.LVL12:
 318              		.loc 1 88 14 view .LVU121
 319 001c 0170A0E3 		mov	r7, #1
 320              		.loc 1 92 3 view .LVU122
 321 0020 74E09FE5 		ldr	lr, .L12
 322              	.LBE24:
 323              	.LBE27:
 324              		.loc 1 160 3 view .LVU123
 325 0024 0C5080E0 		add	r5, r0, ip
 326              	.LBB28:
 327              	.LBB25:
 328              		.loc 1 92 3 view .LVU124
 329 0028 14609EE5 		ldr	r6, [lr, #20]
 330              	.LBE25:
 331              	.LBE28:
 332              		.loc 1 160 3 view .LVU125
 333 002c 6CA09FE5 		ldr	r10, .L12+4
 334 0030 0C5080E5 		str	r5, [r0, #12]
 335              		.loc 1 160 3 is_stmt 1 view .LVU126
 336 0034 0C3080E7 		str	r3, [r0, ip]
 337              		.loc 1 160 3 view .LVU127
 338 0038 20309DE5 		ldr	r3, [sp, #32]
 339              	.LVL13:
 340              		.loc 1 160 3 is_stmt 0 view .LVU128
 341 003c 20A085E5 		str	r10, [r5, #32]
 342 0040 043085E5 		str	r3, [r5, #4]
ARM GAS  /tmp/ccEt7jHp.s 			page 7


 343              		.loc 1 160 3 is_stmt 1 view .LVU129
 344              		.loc 1 160 36 view .LVU130
 345              		.loc 1 161 3 view .LVU131
 346              	.LVL14:
 347              	.LBB29:
 348              	.LBI22:
 349              		.loc 1 69 9 view .LVU132
 350              	.LBB26:
 351              		.loc 1 71 3 view .LVU133
 352              		.loc 1 71 14 is_stmt 0 view .LVU134
 353 0044 082080E5 		str	r2, [r0, #8]
 354              		.loc 1 72 3 is_stmt 1 view .LVU135
 355              		.loc 1 73 3 view .LVU136
 356              		.loc 1 78 18 is_stmt 0 view .LVU137
 357 0048 402080E5 		str	r2, [r0, #64]
 358              		.loc 1 98 3 view .LVU138
 359 004c 2C3080E2 		add	r3, r0, #44
 360              		.loc 1 95 3 view .LVU139
 361 0050 282080E2 		add	r2, r0, #40
 362              	.LVL15:
 363              		.loc 1 92 3 view .LVU140
 364 0054 10E080E5 		str	lr, [r0, #16]
 365 0058 146080E5 		str	r6, [r0, #20]
 366              		.loc 1 72 15 view .LVU141
 367 005c BC91C0E1 		strh	r9, [r0, #28]	@ movhi
 368              	.LVL16:
 369              		.loc 1 75 3 is_stmt 1 view .LVU142
 370              		.loc 1 75 17 is_stmt 0 view .LVU143
 371 0060 1F80C0E5 		strb	r8, [r0, #31]
 372              		.loc 1 78 3 is_stmt 1 view .LVU144
 373              		.loc 1 79 3 view .LVU145
 374              		.loc 1 88 14 is_stmt 0 view .LVU146
 375 0064 1E70C0E5 		strb	r7, [r0, #30]
 376              		.loc 1 79 17 view .LVU147
 377 0068 3C1080E5 		str	r1, [r0, #60]
 378              		.loc 1 82 3 is_stmt 1 view .LVU148
 379              		.loc 1 82 18 is_stmt 0 view .LVU149
 380 006c 381080E5 		str	r1, [r0, #56]
 381              		.loc 1 85 3 is_stmt 1 view .LVU150
 382              		.loc 1 85 14 is_stmt 0 view .LVU151
 383 0070 201080E5 		str	r1, [r0, #32]
 384              		.loc 1 88 3 is_stmt 1 view .LVU152
 385              		.loc 1 91 3 view .LVU153
 386              		.loc 1 91 14 is_stmt 0 view .LVU154
 387 0074 181080E5 		str	r1, [r0, #24]
 388              		.loc 1 92 3 is_stmt 1 view .LVU155
 389              		.loc 1 92 3 view .LVU156
 390              		.loc 1 92 3 view .LVU157
 391 0078 14008EE5 		str	r0, [lr, #20]
 392 007c 100086E5 		str	r0, [r6, #16]
 393              		.loc 1 92 17 view .LVU158
 394              		.loc 1 95 3 view .LVU159
 395 0080 282080E5 		str	r2, [r0, #40]
 396              		.loc 1 98 3 view .LVU160
 397 0084 303080E5 		str	r3, [r0, #48]
 398 0088 2C3080E5 		str	r3, [r0, #44]
 399              		.loc 1 98 30 view .LVU161
ARM GAS  /tmp/ccEt7jHp.s 			page 8


 400              		.loc 1 104 3 view .LVU162
 401              		.loc 1 104 27 view .LVU163
 402              		.loc 1 106 3 view .LVU164
 403              	.LVL17:
 404              		.loc 1 106 3 is_stmt 0 view .LVU165
 405              	.LBE26:
 406              	.LBE29:
 407              	.LBE21:
 408              	.LBE20:
 409              		.loc 1 193 3 view .LVU166
 410 008c FEFFFFEB 		bl	chSchWakeupS
 411              	.LVL18:
 412              		.loc 1 194 3 is_stmt 1 view .LVU167
 413              		.loc 1 194 3 view .LVU168
 414              		.syntax divided
 415              	@ 194 "../../os/kernel/src/chthreads.c" 1
 416 0090 1FF021E3 		msr     CPSR_c, #0x1F
 417              	@ 0 "" 2
 418              		.loc 1 194 16 view .LVU169
 419              		.loc 1 195 3 view .LVU170
 420              		.loc 1 196 1 is_stmt 0 view .LVU171
 421              		.arm
 422              		.syntax unified
 423 0094 0400A0E1 		mov	r0, r4
 424 0098 F087BDE8 		pop	{r4, r5, r6, r7, r8, r9, r10, pc}
 425              	.L13:
 426              		.align	2
 427              	.L12:
 428 009c 00000000 		.word	rlist
 429 00a0 00000000 		.word	_port_thread_start
 430              		.cfi_endproc
 431              	.LFE9:
 432              		.size	chThdCreateStatic, .-chThdCreateStatic
 433              		.section	.text.chThdSetPriority,"ax",%progbits
 434              		.align	2
 435              		.global	chThdSetPriority
 436              		.syntax unified
 437              		.arm
 438              		.fpu softvfp
 439              		.type	chThdSetPriority, %function
 440              	chThdSetPriority:
 441              	.LVL19:
 442              	.LFB10:
 443              		.loc 1 210 43 is_stmt 1 view -0
 444              		.cfi_startproc
 445              		@ args = 0, pretend = 0, frame = 0
 446              		@ frame_needed = 0, uses_anonymous_args = 0
 447              		.loc 1 211 3 view .LVU173
 448              		.loc 1 213 3 view .LVU174
 449              		.loc 1 213 54 view .LVU175
 450              		.loc 1 215 3 view .LVU176
 451              		.loc 1 210 43 is_stmt 0 view .LVU177
 452 0000 10402DE9 		push	{r4, lr}
 453              		.cfi_def_cfa_offset 8
 454              		.cfi_offset 4, -8
 455              		.cfi_offset 14, -4
 456              		.loc 1 210 43 view .LVU178
ARM GAS  /tmp/ccEt7jHp.s 			page 9


 457 0004 0030A0E1 		mov	r3, r0
 458              		.loc 1 215 3 view .LVU179
 459              		.syntax divided
 460              	@ 215 "../../os/kernel/src/chthreads.c" 1
 461 0008 9FF021E3 		msr     CPSR_c, #0x9F
 462              	@ 0 "" 2
 463              		.loc 1 215 3 is_stmt 1 view .LVU180
 464              		.loc 1 215 14 view .LVU181
 465              		.loc 1 217 3 view .LVU182
 466              		.loc 1 217 13 is_stmt 0 view .LVU183
 467              		.arm
 468              		.syntax unified
 469 000c 38209FE5 		ldr	r2, .L20
 470 0010 182092E5 		ldr	r2, [r2, #24]
 471              		.loc 1 218 13 view .LVU184
 472 0014 080092E5 		ldr	r0, [r2, #8]
 473              	.LVL20:
 474              		.loc 1 217 11 view .LVU185
 475 0018 404092E5 		ldr	r4, [r2, #64]
 476              	.LVL21:
 477              		.loc 1 218 3 is_stmt 1 view .LVU186
 478              		.loc 1 220 21 is_stmt 0 view .LVU187
 479 001c 403082E5 		str	r3, [r2, #64]
 480              		.loc 1 218 6 view .LVU188
 481 0020 041040E0 		sub	r1, r0, r4
 482 0024 111F6FE1 		clz	r1, r1
 483 0028 A112A0E1 		lsr	r1, r1, #5
 484              		.loc 1 218 44 view .LVU189
 485 002c 030050E1 		cmp	r0, r3
 486 0030 01108133 		orrcc	r1, r1, #1
 487 0034 000051E3 		cmp	r1, #0
 488              		.loc 1 219 5 is_stmt 1 view .LVU190
 489              		.loc 1 219 19 is_stmt 0 view .LVU191
 490 0038 08308215 		strne	r3, [r2, #8]
 491              		.loc 1 220 3 is_stmt 1 view .LVU192
 492              		.loc 1 225 3 view .LVU193
 493 003c FEFFFFEB 		bl	chSchRescheduleS
 494              	.LVL22:
 495              		.loc 1 226 3 view .LVU194
 496              		.loc 1 226 3 view .LVU195
 497              		.syntax divided
 498              	@ 226 "../../os/kernel/src/chthreads.c" 1
 499 0040 1FF021E3 		msr     CPSR_c, #0x1F
 500              	@ 0 "" 2
 501              		.loc 1 226 16 view .LVU196
 502              		.loc 1 227 3 view .LVU197
 503              		.loc 1 228 1 is_stmt 0 view .LVU198
 504              		.arm
 505              		.syntax unified
 506 0044 0400A0E1 		mov	r0, r4
 507 0048 1080BDE8 		pop	{r4, pc}
 508              	.L21:
 509              		.align	2
 510              	.L20:
 511 004c 00000000 		.word	rlist
 512              		.cfi_endproc
 513              	.LFE10:
ARM GAS  /tmp/ccEt7jHp.s 			page 10


 514              		.size	chThdSetPriority, .-chThdSetPriority
 515              		.section	.text.chThdResume,"ax",%progbits
 516              		.align	2
 517              		.global	chThdResume
 518              		.syntax unified
 519              		.arm
 520              		.fpu softvfp
 521              		.type	chThdResume, %function
 522              	chThdResume:
 523              	.LVL23:
 524              	.LFB11:
 525              		.loc 1 243 33 is_stmt 1 view -0
 526              		.cfi_startproc
 527              		@ args = 0, pretend = 0, frame = 0
 528              		@ frame_needed = 0, uses_anonymous_args = 0
 529              		.loc 1 245 3 view .LVU200
 530              		.loc 1 243 33 is_stmt 0 view .LVU201
 531 0000 10402DE9 		push	{r4, lr}
 532              		.cfi_def_cfa_offset 8
 533              		.cfi_offset 4, -8
 534              		.cfi_offset 14, -4
 535              		.loc 1 243 33 view .LVU202
 536 0004 0040A0E1 		mov	r4, r0
 537              		.loc 1 245 3 view .LVU203
 538              		.syntax divided
 539              	@ 245 "../../os/kernel/src/chthreads.c" 1
 540 0008 9FF021E3 		msr     CPSR_c, #0x9F
 541              	@ 0 "" 2
 542              		.loc 1 245 3 is_stmt 1 view .LVU204
 543              		.loc 1 245 14 view .LVU205
 544              		.loc 1 246 3 view .LVU206
 545              		.loc 1 248 57 view .LVU207
 546              		.loc 1 249 3 view .LVU208
 547              		.arm
 548              		.syntax unified
 549 000c 0010A0E3 		mov	r1, #0
 550 0010 FEFFFFEB 		bl	chSchWakeupS
 551              	.LVL24:
 552              		.loc 1 250 3 view .LVU209
 553              		.loc 1 250 3 view .LVU210
 554              		.syntax divided
 555              	@ 250 "../../os/kernel/src/chthreads.c" 1
 556 0014 1FF021E3 		msr     CPSR_c, #0x1F
 557              	@ 0 "" 2
 558              		.loc 1 250 16 view .LVU211
 559              		.loc 1 251 3 view .LVU212
 560              		.loc 1 252 1 is_stmt 0 view .LVU213
 561              		.arm
 562              		.syntax unified
 563 0018 0400A0E1 		mov	r0, r4
 564 001c 1080BDE8 		pop	{r4, pc}
 565              		.cfi_endproc
 566              	.LFE11:
 567              		.size	chThdResume, .-chThdResume
 568              		.section	.text.chThdTerminate,"ax",%progbits
 569              		.align	2
 570              		.global	chThdTerminate
ARM GAS  /tmp/ccEt7jHp.s 			page 11


 571              		.syntax unified
 572              		.arm
 573              		.fpu softvfp
 574              		.type	chThdTerminate, %function
 575              	chThdTerminate:
 576              	.LVL25:
 577              	.LFB12:
 578              		.loc 1 266 33 is_stmt 1 view -0
 579              		.cfi_startproc
 580              		@ args = 0, pretend = 0, frame = 0
 581              		@ frame_needed = 0, uses_anonymous_args = 0
 582              		@ link register save eliminated.
 583              		.loc 1 268 3 view .LVU215
 584              		.syntax divided
 585              	@ 268 "../../os/kernel/src/chthreads.c" 1
 586 0000 9FF021E3 		msr     CPSR_c, #0x9F
 587              	@ 0 "" 2
 588              		.loc 1 268 3 view .LVU216
 589              		.loc 1 268 14 view .LVU217
 590              		.loc 1 269 3 view .LVU218
 591              		.loc 1 269 15 is_stmt 0 view .LVU219
 592              		.arm
 593              		.syntax unified
 594 0004 1D30D0E5 		ldrb	r3, [r0, #29]	@ zero_extendqisi2
 595 0008 043083E3 		orr	r3, r3, #4
 596 000c 1D30C0E5 		strb	r3, [r0, #29]
 597              		.loc 1 270 3 is_stmt 1 view .LVU220
 598              		.loc 1 270 3 view .LVU221
 599              		.syntax divided
 600              	@ 270 "../../os/kernel/src/chthreads.c" 1
 601 0010 1FF021E3 		msr     CPSR_c, #0x1F
 602              	@ 0 "" 2
 603              		.loc 1 270 16 view .LVU222
 604              		.loc 1 271 1 is_stmt 0 view .LVU223
 605              		.arm
 606              		.syntax unified
 607 0014 1EFF2FE1 		bx	lr
 608              		.cfi_endproc
 609              	.LFE12:
 610              		.size	chThdTerminate, .-chThdTerminate
 611              		.section	.text.chThdSleep,"ax",%progbits
 612              		.align	2
 613              		.global	chThdSleep
 614              		.syntax unified
 615              		.arm
 616              		.fpu softvfp
 617              		.type	chThdSleep, %function
 618              	chThdSleep:
 619              	.LVL26:
 620              	.LFB13:
 621              		.loc 1 285 33 is_stmt 1 view -0
 622              		.cfi_startproc
 623              		@ args = 0, pretend = 0, frame = 0
 624              		@ frame_needed = 0, uses_anonymous_args = 0
 625              		.loc 1 287 3 view .LVU225
 626              		.loc 1 287 51 view .LVU226
 627              		.loc 1 289 3 view .LVU227
ARM GAS  /tmp/ccEt7jHp.s 			page 12


 628              		.loc 1 285 33 is_stmt 0 view .LVU228
 629 0000 0010A0E1 		mov	r1, r0
 630 0004 10402DE9 		push	{r4, lr}
 631              		.cfi_def_cfa_offset 8
 632              		.cfi_offset 4, -8
 633              		.cfi_offset 14, -4
 634              		.loc 1 289 3 view .LVU229
 635              		.syntax divided
 636              	@ 289 "../../os/kernel/src/chthreads.c" 1
 637 0008 9FF021E3 		msr     CPSR_c, #0x9F
 638              	@ 0 "" 2
 639              		.loc 1 289 3 is_stmt 1 view .LVU230
 640              		.loc 1 289 14 view .LVU231
 641              		.loc 1 290 3 view .LVU232
 642              		.arm
 643              		.syntax unified
 644 000c 0600A0E3 		mov	r0, #6
 645              	.LVL27:
 646              		.loc 1 290 3 is_stmt 0 view .LVU233
 647 0010 FEFFFFEB 		bl	chSchGoSleepTimeoutS
 648              	.LVL28:
 649              		.loc 1 291 3 is_stmt 1 view .LVU234
 650              		.loc 1 291 3 view .LVU235
 651              		.syntax divided
 652              	@ 291 "../../os/kernel/src/chthreads.c" 1
 653 0014 1FF021E3 		msr     CPSR_c, #0x1F
 654              	@ 0 "" 2
 655              		.loc 1 291 16 view .LVU236
 656              		.loc 1 292 1 is_stmt 0 view .LVU237
 657              		.arm
 658              		.syntax unified
 659 0018 1080BDE8 		pop	{r4, pc}
 660              		.cfi_endproc
 661              	.LFE13:
 662              		.size	chThdSleep, .-chThdSleep
 663              		.section	.text.chThdSleepUntil,"ax",%progbits
 664              		.align	2
 665              		.global	chThdSleepUntil
 666              		.syntax unified
 667              		.arm
 668              		.fpu softvfp
 669              		.type	chThdSleepUntil, %function
 670              	chThdSleepUntil:
 671              	.LVL29:
 672              	.LFB14:
 673              		.loc 1 302 38 is_stmt 1 view -0
 674              		.cfi_startproc
 675              		@ args = 0, pretend = 0, frame = 0
 676              		@ frame_needed = 0, uses_anonymous_args = 0
 677              		.loc 1 304 3 view .LVU239
 678              		.syntax divided
 679              	@ 304 "../../os/kernel/src/chthreads.c" 1
 680 0000 9FF021E3 		msr     CPSR_c, #0x9F
 681              	@ 0 "" 2
 682              		.loc 1 304 3 view .LVU240
 683              		.loc 1 304 14 view .LVU241
 684              		.loc 1 305 3 view .LVU242
ARM GAS  /tmp/ccEt7jHp.s 			page 13


 685              		.loc 1 305 16 is_stmt 0 view .LVU243
 686              		.arm
 687              		.syntax unified
 688 0004 24309FE5 		ldr	r3, .L37
 689 0008 0C3093E5 		ldr	r3, [r3, #12]
 690              	.LVL30:
 691              		.loc 1 305 6 view .LVU244
 692 000c 031050E0 		subs	r1, r0, r3
 693              	.LVL31:
 694              		.loc 1 305 6 view .LVU245
 695 0010 0100001A 		bne	.L36
 696              		.loc 1 307 3 is_stmt 1 view .LVU246
 697              		.loc 1 307 3 view .LVU247
 698              		.syntax divided
 699              	@ 307 "../../os/kernel/src/chthreads.c" 1
 700 0014 1FF021E3 		msr     CPSR_c, #0x1F
 701              	@ 0 "" 2
 702              		.loc 1 307 16 view .LVU248
 703              		.loc 1 307 3 is_stmt 0 view .LVU249
 704              		.arm
 705              		.syntax unified
 706 0018 1EFF2FE1 		bx	lr
 707              	.L36:
 708              		.loc 1 306 5 is_stmt 1 view .LVU250
 709              		.loc 1 302 38 is_stmt 0 view .LVU251
 710 001c 10402DE9 		push	{r4, lr}
 711              		.cfi_def_cfa_offset 8
 712              		.cfi_offset 4, -8
 713              		.cfi_offset 14, -4
 714              		.loc 1 306 5 view .LVU252
 715 0020 0600A0E3 		mov	r0, #6
 716 0024 FEFFFFEB 		bl	chSchGoSleepTimeoutS
 717              	.LVL32:
 718              		.loc 1 307 3 is_stmt 1 view .LVU253
 719              		.loc 1 307 3 view .LVU254
 720              		.syntax divided
 721              	@ 307 "../../os/kernel/src/chthreads.c" 1
 722 0028 1FF021E3 		msr     CPSR_c, #0x1F
 723              	@ 0 "" 2
 724              		.loc 1 307 16 view .LVU255
 725              		.loc 1 308 1 is_stmt 0 view .LVU256
 726              		.arm
 727              		.syntax unified
 728 002c 1080BDE8 		pop	{r4, pc}
 729              	.L38:
 730              		.align	2
 731              	.L37:
 732 0030 00000000 		.word	vtlist
 733              		.cfi_endproc
 734              	.LFE14:
 735              		.size	chThdSleepUntil, .-chThdSleepUntil
 736              		.section	.text.chThdYield,"ax",%progbits
 737              		.align	2
 738              		.global	chThdYield
 739              		.syntax unified
 740              		.arm
 741              		.fpu softvfp
ARM GAS  /tmp/ccEt7jHp.s 			page 14


 742              		.type	chThdYield, %function
 743              	chThdYield:
 744              	.LFB15:
 745              		.loc 1 317 23 is_stmt 1 view -0
 746              		.cfi_startproc
 747              		@ args = 0, pretend = 0, frame = 0
 748              		@ frame_needed = 0, uses_anonymous_args = 0
 749              		.loc 1 319 3 view .LVU258
 750              		.syntax divided
 751              	@ 319 "../../os/kernel/src/chthreads.c" 1
 752 0000 9FF021E3 		msr     CPSR_c, #0x9F
 753              	@ 0 "" 2
 754              		.loc 1 319 3 view .LVU259
 755              		.loc 1 319 14 view .LVU260
 756              		.loc 1 320 3 view .LVU261
 757              		.arm
 758              		.syntax unified
 759 0004 2C309FE5 		ldr	r3, .L46
 760 0008 002093E5 		ldr	r2, [r3]
 761 000c 183093E5 		ldr	r3, [r3, #24]
 762 0010 082092E5 		ldr	r2, [r2, #8]
 763 0014 083093E5 		ldr	r3, [r3, #8]
 764 0018 030052E1 		cmp	r2, r3
 765 001c 0100002A 		bcs	.L45
 766              		.loc 1 320 18 view .LVU262
 767              		.loc 1 321 3 view .LVU263
 768              		.loc 1 321 3 view .LVU264
 769              		.syntax divided
 770              	@ 321 "../../os/kernel/src/chthreads.c" 1
 771 0020 1FF021E3 		msr     CPSR_c, #0x1F
 772              	@ 0 "" 2
 773              		.loc 1 321 16 view .LVU265
 774              		.loc 1 321 3 is_stmt 0 view .LVU266
 775              		.arm
 776              		.syntax unified
 777 0024 1EFF2FE1 		bx	lr
 778              	.L45:
 779              		.loc 1 320 3 is_stmt 1 discriminator 1 view .LVU267
 780              		.loc 1 317 23 is_stmt 0 discriminator 1 view .LVU268
 781 0028 10402DE9 		push	{r4, lr}
 782              		.cfi_def_cfa_offset 8
 783              		.cfi_offset 4, -8
 784              		.cfi_offset 14, -4
 785              		.loc 1 320 3 discriminator 1 view .LVU269
 786 002c FEFFFFEB 		bl	chSchDoRescheduleBehind
 787              	.LVL33:
 788              		.loc 1 320 18 is_stmt 1 discriminator 1 view .LVU270
 789              		.loc 1 321 3 discriminator 1 view .LVU271
 790              		.loc 1 321 3 discriminator 1 view .LVU272
 791              		.syntax divided
 792              	@ 321 "../../os/kernel/src/chthreads.c" 1
 793 0030 1FF021E3 		msr     CPSR_c, #0x1F
 794              	@ 0 "" 2
 795              		.loc 1 321 16 discriminator 1 view .LVU273
 796              		.loc 1 322 1 is_stmt 0 discriminator 1 view .LVU274
 797              		.arm
 798              		.syntax unified
ARM GAS  /tmp/ccEt7jHp.s 			page 15


 799 0034 1080BDE8 		pop	{r4, pc}
 800              	.L47:
 801              		.align	2
 802              	.L46:
 803 0038 00000000 		.word	rlist
 804              		.cfi_endproc
 805              	.LFE15:
 806              		.size	chThdYield, .-chThdYield
 807              		.section	.text.chThdExitS,"ax",%progbits
 808              		.align	2
 809              		.global	chThdExitS
 810              		.syntax unified
 811              		.arm
 812              		.fpu softvfp
 813              		.type	chThdExitS, %function
 814              	chThdExitS:
 815              	.LVL34:
 816              	.LFB17:
 817              		.loc 1 359 28 is_stmt 1 view -0
 818              		.cfi_startproc
 819              		@ args = 0, pretend = 0, frame = 0
 820              		@ frame_needed = 0, uses_anonymous_args = 0
 821              		.loc 1 360 3 view .LVU276
 822              		.loc 1 360 11 is_stmt 0 view .LVU277
 823 0000 54309FE5 		ldr	r3, .L54
 824              		.loc 1 359 28 view .LVU278
 825 0004 70402DE9 		push	{r4, r5, r6, lr}
 826              		.cfi_def_cfa_offset 16
 827              		.cfi_offset 4, -16
 828              		.cfi_offset 5, -12
 829              		.cfi_offset 6, -8
 830              		.cfi_offset 14, -4
 831              		.loc 1 360 11 view .LVU279
 832 0008 184093E5 		ldr	r4, [r3, #24]
 833              	.LVL35:
 834              		.loc 1 362 3 is_stmt 1 view .LVU280
 835              		.loc 1 367 10 is_stmt 0 view .LVU281
 836 000c 0450A0E1 		mov	r5, r4
 837              		.loc 1 362 20 view .LVU282
 838 0010 240084E5 		str	r0, [r4, #36]
 839              		.loc 1 364 3 is_stmt 1 view .LVU283
 840              		.loc 1 364 27 view .LVU284
 841              		.loc 1 367 3 view .LVU285
 842              		.loc 1 367 10 view .LVU286
 843 0014 2800B5E5 		ldr	r0, [r5, #40]!
 844              	.LVL36:
 845              		.loc 1 367 10 is_stmt 0 view .LVU287
 846 0018 000055E1 		cmp	r5, r0
 847 001c 0500000A 		beq	.L49
 848              	.LVL37:
 849              	.L50:
 850              		.loc 1 368 5 is_stmt 1 view .LVU288
 851              	.LBB30:
 852              	.LBI30:
 853              		.file 2 "../../os/kernel/include/chinline.h"
 854              		.loc 2 79 23 view .LVU289
 855              	.LBB31:
ARM GAS  /tmp/ccEt7jHp.s 			page 16


 856              		.loc 2 81 3 view .LVU290
 857              		.loc 2 82 3 view .LVU291
 858              		.loc 2 82 15 is_stmt 0 view .LVU292
 859 0020 003090E5 		ldr	r3, [r0]
 860 0024 283084E5 		str	r3, [r4, #40]
 861              		.loc 2 83 3 is_stmt 1 view .LVU293
 862              	.LVL38:
 863              		.loc 2 83 3 is_stmt 0 view .LVU294
 864              	.LBE31:
 865              	.LBE30:
 866              		.loc 1 368 5 view .LVU295
 867 0028 FEFFFFEB 		bl	chSchReadyI
 868              	.LVL39:
 869              		.loc 1 367 10 is_stmt 1 view .LVU296
 870 002c 280094E5 		ldr	r0, [r4, #40]
 871 0030 050050E1 		cmp	r0, r5
 872 0034 F9FFFF1A 		bne	.L50
 873              	.L49:
 874              		.loc 1 373 3 view .LVU297
 875              		.loc 1 373 6 is_stmt 0 view .LVU298
 876 0038 1D30D4E5 		ldrb	r3, [r4, #29]	@ zero_extendqisi2
 877              		.loc 1 376 3 view .LVU299
 878 003c 0E00A0E3 		mov	r0, #14
 879              		.loc 1 373 6 view .LVU300
 880 0040 030013E3 		tst	r3, #3
 881              		.loc 1 374 5 is_stmt 1 view .LVU301
 882 0044 14209405 		ldreq	r2, [r4, #20]
 883 0048 10309405 		ldreq	r3, [r4, #16]
 884              		.loc 1 379 1 is_stmt 0 view .LVU302
 885 004c 7040BDE8 		pop	{r4, r5, r6, lr}
 886              		.cfi_restore 14
 887              		.cfi_restore 6
 888              		.cfi_restore 5
 889              		.cfi_restore 4
 890              		.cfi_def_cfa_offset 0
 891              	.LVL40:
 892              		.loc 1 374 5 view .LVU303
 893 0050 10308205 		streq	r3, [r2, #16]
 894              		.loc 1 374 5 is_stmt 1 view .LVU304
 895 0054 14208305 		streq	r2, [r3, #20]
 896              		.loc 1 374 19 view .LVU305
 897              		.loc 1 376 3 view .LVU306
 898 0058 FEFFFFEA 		b	chSchGoSleepS
 899              	.LVL41:
 900              	.L55:
 901              		.align	2
 902              	.L54:
 903 005c 00000000 		.word	rlist
 904              		.cfi_endproc
 905              	.LFE17:
 906              		.size	chThdExitS, .-chThdExitS
 907              		.section	.text.chThdExit,"ax",%progbits
 908              		.align	2
 909              		.global	chThdExit
 910              		.syntax unified
 911              		.arm
 912              		.fpu softvfp
ARM GAS  /tmp/ccEt7jHp.s 			page 17


 913              		.type	chThdExit, %function
 914              	chThdExit:
 915              	.LVL42:
 916              	.LFB16:
 917              		.loc 1 338 27 view -0
 918              		.cfi_startproc
 919              		@ args = 0, pretend = 0, frame = 0
 920              		@ frame_needed = 0, uses_anonymous_args = 0
 921              		@ link register save eliminated.
 922              		.loc 1 340 3 view .LVU308
 923              		.syntax divided
 924              	@ 340 "../../os/kernel/src/chthreads.c" 1
 925 0000 9FF021E3 		msr     CPSR_c, #0x9F
 926              	@ 0 "" 2
 927              		.loc 1 340 3 view .LVU309
 928              		.loc 1 340 14 view .LVU310
 929              		.loc 1 341 3 view .LVU311
 930              		.arm
 931              		.syntax unified
 932 0004 FEFFFFEA 		b	chThdExitS
 933              	.LVL43:
 934              		.loc 1 341 3 is_stmt 0 view .LVU312
 935              		.cfi_endproc
 936              	.LFE16:
 937              		.size	chThdExit, .-chThdExit
 938              		.section	.text.chThdWait,"ax",%progbits
 939              		.align	2
 940              		.global	chThdWait
 941              		.syntax unified
 942              		.arm
 943              		.fpu softvfp
 944              		.type	chThdWait, %function
 945              	chThdWait:
 946              	.LVL44:
 947              	.LFB18:
 948              		.loc 1 413 29 is_stmt 1 view -0
 949              		.cfi_startproc
 950              		@ args = 0, pretend = 0, frame = 0
 951              		@ frame_needed = 0, uses_anonymous_args = 0
 952              		.loc 1 414 3 view .LVU314
 953              		.loc 1 416 3 view .LVU315
 954              		.loc 1 416 38 view .LVU316
 955              		.loc 1 418 3 view .LVU317
 956              		.loc 1 413 29 is_stmt 0 view .LVU318
 957 0000 70402DE9 		push	{r4, r5, r6, lr}
 958              		.cfi_def_cfa_offset 16
 959              		.cfi_offset 4, -16
 960              		.cfi_offset 5, -12
 961              		.cfi_offset 6, -8
 962              		.cfi_offset 14, -4
 963              		.loc 1 413 29 view .LVU319
 964 0004 0040A0E1 		mov	r4, r0
 965              		.loc 1 418 3 view .LVU320
 966              		.syntax divided
 967              	@ 418 "../../os/kernel/src/chthreads.c" 1
 968 0008 9FF021E3 		msr     CPSR_c, #0x9F
 969              	@ 0 "" 2
ARM GAS  /tmp/ccEt7jHp.s 			page 18


 970              		.loc 1 418 3 is_stmt 1 view .LVU321
 971              		.loc 1 418 14 view .LVU322
 972              		.loc 1 419 3 view .LVU323
 973              		.loc 1 419 62 view .LVU324
 974              		.loc 1 421 3 view .LVU325
 975              		.loc 1 421 67 view .LVU326
 976              		.loc 1 423 3 view .LVU327
 977              		.loc 1 423 6 is_stmt 0 view .LVU328
 978              		.arm
 979              		.syntax unified
 980 000c 1C30D0E5 		ldrb	r3, [r0, #28]	@ zero_extendqisi2
 981 0010 0E0053E3 		cmp	r3, #14
 982 0014 0600000A 		beq	.L58
 983              		.loc 1 419 3 view .LVU329
 984 0018 2C309FE5 		ldr	r3, .L63
 985              	.LBB32:
 986              	.LBB33:
 987              		.loc 2 75 14 view .LVU330
 988 001c 282090E5 		ldr	r2, [r0, #40]
 989              	.LBE33:
 990              	.LBE32:
 991              		.loc 1 419 3 view .LVU331
 992 0020 183093E5 		ldr	r3, [r3, #24]
 993              		.loc 1 424 5 is_stmt 1 view .LVU332
 994              	.LVL45:
 995              	.LBB36:
 996              	.LBI32:
 997              		.loc 2 73 20 view .LVU333
 998              	.LBB34:
 999              		.loc 2 75 3 view .LVU334
 1000              	.LBE34:
 1001              	.LBE36:
 1002              		.loc 1 425 5 is_stmt 0 view .LVU335
 1003 0024 0700A0E3 		mov	r0, #7
 1004              	.LVL46:
 1005              	.LBB37:
 1006              	.LBB35:
 1007              		.loc 2 75 14 view .LVU336
 1008 0028 002083E5 		str	r2, [r3]
 1009              		.loc 2 76 3 is_stmt 1 view .LVU337
 1010              		.loc 2 76 15 is_stmt 0 view .LVU338
 1011 002c 283084E5 		str	r3, [r4, #40]
 1012              	.LVL47:
 1013              		.loc 2 76 15 view .LVU339
 1014              	.LBE35:
 1015              	.LBE37:
 1016              		.loc 1 425 5 is_stmt 1 view .LVU340
 1017 0030 FEFFFFEB 		bl	chSchGoSleepS
 1018              	.LVL48:
 1019              	.L58:
 1020              		.loc 1 427 3 view .LVU341
 1021              		.loc 1 427 7 is_stmt 0 view .LVU342
 1022 0034 245094E5 		ldr	r5, [r4, #36]
 1023              	.LVL49:
 1024              		.loc 1 428 3 is_stmt 1 view .LVU343
 1025              		.loc 1 428 3 view .LVU344
 1026              		.syntax divided
ARM GAS  /tmp/ccEt7jHp.s 			page 19


 1027              	@ 428 "../../os/kernel/src/chthreads.c" 1
 1028 0038 1FF021E3 		msr     CPSR_c, #0x1F
 1029              	@ 0 "" 2
 1030              		.loc 1 428 16 view .LVU345
 1031              		.loc 1 430 3 view .LVU346
 1032              		.arm
 1033              		.syntax unified
 1034 003c 0400A0E1 		mov	r0, r4
 1035 0040 FEFFFFEB 		bl	chThdRelease
 1036              	.LVL50:
 1037              		.loc 1 432 3 view .LVU347
 1038              		.loc 1 433 1 is_stmt 0 view .LVU348
 1039 0044 0500A0E1 		mov	r0, r5
 1040 0048 7080BDE8 		pop	{r4, r5, r6, pc}
 1041              	.L64:
 1042              		.align	2
 1043              	.L63:
 1044 004c 00000000 		.word	rlist
 1045              		.cfi_endproc
 1046              	.LFE18:
 1047              		.size	chThdWait, .-chThdWait
 1048              		.text
 1049              	.Letext0:
 1050              		.file 3 "/usr/lib/gcc/arm-none-eabi/11.2.0/include/stddef.h"
 1051              		.file 4 "/usr/arm-none-eabi/include/machine/_default_types.h"
 1052              		.file 5 "/usr/arm-none-eabi/include/sys/_stdint.h"
 1053              		.file 6 "../../os/ports/GCC/ARM/chtypes.h"
 1054              		.file 7 "../../os/kernel/include/chlists.h"
 1055              		.file 8 "../../os/kernel/include/chthreads.h"
 1056              		.file 9 "../../os/ports/GCC/ARM/chcore.h"
 1057              		.file 10 "../../os/kernel/include/chvt.h"
 1058              		.file 11 "../../os/kernel/include/chschd.h"
 1059              		.file 12 "../../os/kernel/include/chmtx.h"
 1060              		.file 13 "../../os/kernel/include/chdynamic.h"