ARM GAS  /tmp/ccrQ1mef.s 			page 1


   1              		.cpu arm1176jz-s
   2              		.eabi_attribute 20, 1
   3              		.eabi_attribute 21, 1
   4              		.eabi_attribute 23, 3
   5              		.eabi_attribute 24, 1
   6              		.eabi_attribute 25, 1
   7              		.eabi_attribute 26, 1
   8              		.eabi_attribute 30, 2
   9              		.eabi_attribute 34, 1
  10              		.eabi_attribute 18, 4
  11              		.file	"chvt.c"
  12              		.text
  13              	.Ltext0:
  14              		.cfi_sections	.debug_frame
  15              		.section	.text._vt_init,"ax",%progbits
  16              		.align	2
  17              		.global	_vt_init
  18              		.arch armv6kz
  19              		.syntax unified
  20              		.arm
  21              		.fpu softvfp
  22              		.type	_vt_init, %function
  23              	_vt_init:
  24              	.LFB7:
  25              		.file 1 "../../os/kernel/src/chvt.c"
  26              		.loc 1 43 21 view -0
  27              		.cfi_startproc
  28              		@ args = 0, pretend = 0, frame = 0
  29              		@ frame_needed = 0, uses_anonymous_args = 0
  30              		@ link register save eliminated.
  31              		.loc 1 45 3 view .LVU1
  32              		.loc 1 46 18 is_stmt 0 view .LVU2
  33 0000 0010E0E3 		mvn	r1, #0
  34              		.loc 1 47 21 view .LVU3
  35 0004 0020A0E3 		mov	r2, #0
  36              		.loc 1 45 35 view .LVU4
  37 0008 10309FE5 		ldr	r3, .L3
  38 000c 043083E5 		str	r3, [r3, #4]
  39              		.loc 1 45 18 view .LVU5
  40 0010 003083E5 		str	r3, [r3]
  41              		.loc 1 46 3 is_stmt 1 view .LVU6
  42              		.loc 1 46 18 is_stmt 0 view .LVU7
  43 0014 081083E5 		str	r1, [r3, #8]
  44              		.loc 1 47 3 is_stmt 1 view .LVU8
  45              		.loc 1 47 21 is_stmt 0 view .LVU9
  46 0018 0C2083E5 		str	r2, [r3, #12]
  47              		.loc 1 48 1 view .LVU10
  48 001c 1EFF2FE1 		bx	lr
  49              	.L4:
  50              		.align	2
  51              	.L3:
  52 0020 00000000 		.word	.LANCHOR0
  53              		.cfi_endproc
  54              	.LFE7:
  55              		.size	_vt_init, .-_vt_init
  56              		.section	.text.chVTSetI,"ax",%progbits
  57              		.align	2
ARM GAS  /tmp/ccrQ1mef.s 			page 2


  58              		.global	chVTSetI
  59              		.syntax unified
  60              		.arm
  61              		.fpu softvfp
  62              		.type	chVTSetI, %function
  63              	chVTSetI:
  64              	.LVL0:
  65              	.LFB8:
  66              		.loc 1 69 78 is_stmt 1 view -0
  67              		.cfi_startproc
  68              		@ args = 0, pretend = 0, frame = 0
  69              		@ frame_needed = 0, uses_anonymous_args = 0
  70              		.loc 1 70 3 view .LVU12
  71              		.loc 1 72 3 view .LVU13
  72              		.loc 1 72 21 view .LVU14
  73              		.loc 1 73 3 view .LVU15
  74              		.loc 1 74 25 view .LVU16
  75              		.loc 1 76 3 view .LVU17
  76              		.loc 1 69 78 is_stmt 0 view .LVU18
  77 0000 10402DE9 		push	{r4, lr}
  78              		.cfi_def_cfa_offset 8
  79              		.cfi_offset 4, -8
  80              		.cfi_offset 14, -4
  81              		.loc 1 78 5 view .LVU19
  82 0004 54409FE5 		ldr	r4, .L11
  83 0008 00C094E5 		ldr	ip, [r4]
  84              		.loc 1 79 11 view .LVU20
  85 000c 08E09CE5 		ldr	lr, [ip, #8]
  86              		.loc 1 77 16 view .LVU21
  87 0010 FC20C0E1 		strd	r2, [r0, #12]
  88              		.loc 1 78 3 is_stmt 1 view .LVU22
  89              	.LVL1:
  90              		.loc 1 79 3 view .LVU23
  91              		.loc 1 79 21 view .LVU24
  92 0014 0E0051E1 		cmp	r1, lr
  93 0018 0400009A 		bls	.L6
  94              	.L7:
  95              		.loc 1 80 5 view .LVU25
  96              		.loc 1 81 7 is_stmt 0 view .LVU26
  97 001c 00C09CE5 		ldr	ip, [ip]
  98              	.LVL2:
  99              		.loc 1 80 10 view .LVU27
 100 0020 0E1041E0 		sub	r1, r1, lr
 101              	.LVL3:
 102              		.loc 1 81 5 is_stmt 1 view .LVU28
 103              		.loc 1 79 21 view .LVU29
 104              		.loc 1 79 11 is_stmt 0 view .LVU30
 105 0024 08E09CE5 		ldr	lr, [ip, #8]
 106              		.loc 1 79 21 view .LVU31
 107 0028 01005EE1 		cmp	lr, r1
 108 002c FAFFFF3A 		bcc	.L7
 109              	.L6:
 110              		.loc 1 84 3 is_stmt 1 view .LVU32
 111              		.loc 1 84 36 is_stmt 0 view .LVU33
 112 0030 04309CE5 		ldr	r3, [ip, #4]
 113              	.LVL4:
 114              		.loc 1 84 32 view .LVU34
ARM GAS  /tmp/ccrQ1mef.s 			page 3


 115 0034 00C080E5 		str	ip, [r0]
 116              		.loc 1 84 16 view .LVU35
 117 0038 043080E5 		str	r3, [r0, #4]
 118              		.loc 1 85 3 is_stmt 1 view .LVU36
 119              		.loc 1 85 38 is_stmt 0 view .LVU37
 120 003c 04008CE5 		str	r0, [ip, #4]
 121              		.loc 1 85 25 view .LVU38
 122 0040 043090E5 		ldr	r3, [r0, #4]
 123              		.loc 1 87 6 view .LVU39
 124 0044 04005CE1 		cmp	ip, r4
 125              		.loc 1 85 25 view .LVU40
 126 0048 000083E5 		str	r0, [r3]
 127              		.loc 1 86 3 is_stmt 1 view .LVU41
 128              		.loc 1 86 16 is_stmt 0 view .LVU42
 129 004c 081080E5 		str	r1, [r0, #8]
 130              		.loc 1 87 3 is_stmt 1 view .LVU43
 131              		.loc 1 88 5 view .LVU44
 132              		.loc 1 88 16 is_stmt 0 view .LVU45
 133 0050 08309C15 		ldrne	r3, [ip, #8]
 134 0054 01304310 		subne	r3, r3, r1
 135 0058 08308C15 		strne	r3, [ip, #8]
 136              		.loc 1 89 1 view .LVU46
 137 005c 1080BDE8 		pop	{r4, pc}
 138              	.L12:
 139              		.align	2
 140              	.L11:
 141 0060 00000000 		.word	.LANCHOR0
 142              		.cfi_endproc
 143              	.LFE8:
 144              		.size	chVTSetI, .-chVTSetI
 145              		.section	.text.chVTResetI,"ax",%progbits
 146              		.align	2
 147              		.global	chVTResetI
 148              		.syntax unified
 149              		.arm
 150              		.fpu softvfp
 151              		.type	chVTResetI, %function
 152              	chVTResetI:
 153              	.LVL5:
 154              	.LFB9:
 155              		.loc 1 99 36 is_stmt 1 view -0
 156              		.cfi_startproc
 157              		@ args = 0, pretend = 0, frame = 0
 158              		@ frame_needed = 0, uses_anonymous_args = 0
 159              		@ link register save eliminated.
 160              		.loc 1 101 3 view .LVU48
 161              		.loc 1 101 21 view .LVU49
 162              		.loc 1 102 3 view .LVU50
 163              		.loc 1 102 40 view .LVU51
 164              		.loc 1 103 3 view .LVU52
 165              		.loc 1 105 52 view .LVU53
 166              		.loc 1 107 3 view .LVU54
 167              		.loc 1 107 10 is_stmt 0 view .LVU55
 168 0000 003090E5 		ldr	r3, [r0]
 169              		.loc 1 107 6 view .LVU56
 170 0004 2C209FE5 		ldr	r2, .L15
 171 0008 020053E1 		cmp	r3, r2
ARM GAS  /tmp/ccrQ1mef.s 			page 4


 172              		.loc 1 108 5 is_stmt 1 view .LVU57
 173              		.loc 1 108 27 is_stmt 0 view .LVU58
 174 000c 08209315 		ldrne	r2, [r3, #8]
 175 0010 08109015 		ldrne	r1, [r0, #8]
 176 0014 01208210 		addne	r2, r2, r1
 177              		.loc 1 111 16 view .LVU59
 178 0018 0010A0E3 		mov	r1, #0
 179              		.loc 1 108 27 view .LVU60
 180 001c 08208315 		strne	r2, [r3, #8]
 181              		.loc 1 109 3 is_stmt 1 view .LVU61
 182              		.loc 1 109 6 is_stmt 0 view .LVU62
 183 0020 042090E5 		ldr	r2, [r0, #4]
 184              		.loc 1 109 25 view .LVU63
 185 0024 003082E5 		str	r3, [r2]
 186              		.loc 1 110 3 is_stmt 1 view .LVU64
 187              		.loc 1 110 25 is_stmt 0 view .LVU65
 188 0028 003090E5 		ldr	r3, [r0]
 189 002c 042083E5 		str	r2, [r3, #4]
 190              		.loc 1 111 3 is_stmt 1 view .LVU66
 191              		.loc 1 111 16 is_stmt 0 view .LVU67
 192 0030 0C1080E5 		str	r1, [r0, #12]
 193              		.loc 1 112 1 view .LVU68
 194 0034 1EFF2FE1 		bx	lr
 195              	.L16:
 196              		.align	2
 197              	.L15:
 198 0038 00000000 		.word	.LANCHOR0
 199              		.cfi_endproc
 200              	.LFE9:
 201              		.size	chVTResetI, .-chVTResetI
 202              		.section	.text.chTimeIsWithin,"ax",%progbits
 203              		.align	2
 204              		.global	chTimeIsWithin
 205              		.syntax unified
 206              		.arm
 207              		.fpu softvfp
 208              		.type	chTimeIsWithin, %function
 209              	chTimeIsWithin:
 210              	.LVL6:
 211              	.LFB10:
 212              		.loc 1 127 55 is_stmt 1 view -0
 213              		.cfi_startproc
 214              		@ args = 0, pretend = 0, frame = 0
 215              		@ frame_needed = 0, uses_anonymous_args = 0
 216              		@ link register save eliminated.
 217              		.loc 1 129 3 view .LVU70
 218              		.loc 1 129 13 is_stmt 0 view .LVU71
 219 0000 3C309FE5 		ldr	r3, .L20
 220              		.loc 1 130 56 view .LVU72
 221 0004 000051E1 		cmp	r1, r0
 222              		.loc 1 129 13 view .LVU73
 223 0008 0C2093E5 		ldr	r2, [r3, #12]
 224              	.LVL7:
 225              		.loc 1 130 3 is_stmt 1 view .LVU74
 226              		.loc 1 127 55 is_stmt 0 view .LVU75
 227 000c 0030A0E1 		mov	r3, r0
 228              		.loc 1 130 56 view .LVU76
ARM GAS  /tmp/ccrQ1mef.s 			page 5


 229 0010 0500009A 		bls	.L18
 230              		.loc 1 130 56 discriminator 1 view .LVU77
 231 0014 000052E1 		cmp	r2, r0
 232 0018 0100A023 		movcs	r0, #1
 233              	.LVL8:
 234              		.loc 1 130 56 discriminator 1 view .LVU78
 235 001c 0000A033 		movcc	r0, #0
 236 0020 010052E1 		cmp	r2, r1
 237 0024 0000A023 		movcs	r0, #0
 238 0028 1EFF2FE1 		bx	lr
 239              	.LVL9:
 240              	.L18:
 241              		.loc 1 131 49 discriminator 2 view .LVU79
 242 002c 010052E1 		cmp	r2, r1
 243 0030 0000A023 		movcs	r0, #0
 244              	.LVL10:
 245              		.loc 1 131 49 discriminator 2 view .LVU80
 246 0034 0100A033 		movcc	r0, #1
 247              		.loc 1 130 56 discriminator 2 view .LVU81
 248 0038 030052E1 		cmp	r2, r3
 249 003c 01008023 		orrcs	r0, r0, #1
 250              		.loc 1 132 1 discriminator 2 view .LVU82
 251 0040 1EFF2FE1 		bx	lr
 252              	.L21:
 253              		.align	2
 254              	.L20:
 255 0044 00000000 		.word	.LANCHOR0
 256              		.cfi_endproc
 257              	.LFE10:
 258              		.size	chTimeIsWithin, .-chTimeIsWithin
 259              		.global	vtlist
 260              		.section	.bss.vtlist,"aw",%nobits
 261              		.align	2
 262              		.set	.LANCHOR0,. + 0
 263              		.type	vtlist, %object
 264              		.size	vtlist, 16
 265              	vtlist:
 266 0000 00000000 		.space	16
 266      00000000 
 266      00000000 
 266      00000000 
 267              		.text
 268              	.Letext0:
 269              		.file 2 "/usr/arm-none-eabi/include/machine/_default_types.h"
 270              		.file 3 "/usr/arm-none-eabi/include/sys/_stdint.h"
 271              		.file 4 "../../os/ports/GCC/ARM/chtypes.h"
 272              		.file 5 "../../os/kernel/include/chvt.h"