ARM GAS  /tmp/ccbiXgpG.s 			page 1


   1              		.cpu arm1176jz-s
   2              		.eabi_attribute 20, 1
   3              		.eabi_attribute 21, 1
   4              		.eabi_attribute 23, 3
   5              		.eabi_attribute 24, 1
   6              		.eabi_attribute 25, 1
   7              		.eabi_attribute 26, 1
   8              		.eabi_attribute 30, 2
   9              		.eabi_attribute 34, 1
  10              		.eabi_attribute 18, 4
  11              		.file	"hal_lld.c"
  12              		.text
  13              	.Ltext0:
  14              		.cfi_sections	.debug_frame
  15              		.section	.text.IrqHandler,"ax",%progbits
  16              		.align	2
  17              		.global	IrqHandler
  18              		.arch armv6kz
  19              		.syntax unified
  20              		.arm
  21              		.fpu softvfp
  22              		.type	IrqHandler, %function
  23              	IrqHandler:
  24              	.LFB9:
  25              		.file 1 "../../os/hal/platforms/BCM2835/hal_lld.c"
  26              		.loc 1 91 1 view -0
  27              		.cfi_startproc
  28              		@ Naked Function: prologue and epilogue provided by programmer.
  29              		@ args = 0, pretend = 0, frame = 0
  30              		@ frame_needed = 0, uses_anonymous_args = 0
  31              		.loc 1 92 3 view .LVU1
  32              		.syntax divided
  33              	@ 92 "../../os/hal/platforms/BCM2835/hal_lld.c" 1
  34 0000 0F502DE9 		stmfd    sp!, {r0-r3, r12, lr}
  35              	@ 0 "" 2
  36              		.loc 1 92 3 view .LVU2
  37              		.loc 1 92 3 view .LVU3
  38              		.loc 1 92 20 view .LVU4
  39              		.loc 1 94 3 view .LVU5
  40              		.arm
  41              		.syntax unified
  42              	.LBB4:
  43              	.LBI4:
  44              		.loc 1 71 13 view .LVU6
  45              	.LBB5:
  46              		.loc 1 74 3 view .LVU7
  47              		.loc 1 74 3 view .LVU8
  48              		.loc 1 74 21 view .LVU9
  49              		.loc 1 75 3 view .LVU10
  50 0004 FEFFFFEB 		bl	chSysTimerHandlerI
  51              	.LVL0:
  52              		.loc 1 76 3 view .LVU11
  53              		.loc 1 76 3 view .LVU12
  54              		.loc 1 76 23 view .LVU13
  55              		.loc 1 79 3 view .LVU14
  56              		.loc 1 79 17 is_stmt 0 view .LVU15
  57 0008 0020A0E3 		mov	r2, #0
ARM GAS  /tmp/ccbiXgpG.s 			page 2


  58 000c 1C309FE5 		ldr	r3, .L3
  59              	.LBE5:
  60              	.LBE4:
  61              		.loc 1 97 3 view .LVU16
  62 0010 1C009FE5 		ldr	r0, .L3+4
  63              	.LBB7:
  64              	.LBB6:
  65              		.loc 1 79 17 view .LVU17
  66 0014 0C2483E5 		str	r2, [r3, #1036]
  67              	.LBE6:
  68              	.LBE7:
  69              		.loc 1 97 3 is_stmt 1 view .LVU18
  70 0018 FEFFFFEB 		bl	sd_lld_serve_interrupt
  71              	.LVL1:
  72              		.loc 1 101 3 view .LVU19
  73 001c 14009FE5 		ldr	r0, .L3+8
  74 0020 FEFFFFEB 		bl	i2c_lld_serve_interrupt
  75              	.LVL2:
  76              		.loc 1 105 3 view .LVU20
  77 0024 10009FE5 		ldr	r0, .L3+12
  78 0028 FEFFFFEB 		bl	spi_lld_serve_interrupt
  79              	.LVL3:
  80              		.loc 1 112 3 view .LVU21
  81              		.loc 1 112 3 view .LVU22
  82              		.syntax divided
  83              	@ 112 "../../os/hal/platforms/BCM2835/hal_lld.c" 1
  84 002c FEFFFFEA 		b       _port_irq_common
  85              	@ 0 "" 2
  86              		.loc 1 112 3 view .LVU23
  87              		.loc 1 112 20 view .LVU24
  88              		.loc 1 113 1 is_stmt 0 view .LVU25
  89              		.arm
  90              		.syntax unified
  91              	.L4:
  92              		.align	2
  93              	.L3:
  94 0030 00B00020 		.word	536915968
  95 0034 00000000 		.word	SD1
  96 0038 00000000 		.word	I2C0
  97 003c 00000000 		.word	SPI0
  98              		.cfi_endproc
  99              	.LFE9:
 100              		.size	IrqHandler, .-IrqHandler
 101              		.section	.text.delayMicroseconds,"ax",%progbits
 102              		.align	2
 103              		.global	delayMicroseconds
 104              		.syntax unified
 105              		.arm
 106              		.fpu softvfp
 107              		.type	delayMicroseconds, %function
 108              	delayMicroseconds:
 109              	.LVL4:
 110              	.LFB10:
 111              		.loc 1 124 1 is_stmt 1 view -0
 112              		.cfi_startproc
 113              		@ args = 0, pretend = 0, frame = 0
 114              		@ frame_needed = 0, uses_anonymous_args = 0
ARM GAS  /tmp/ccbiXgpG.s 			page 3


 115              		@ link register save eliminated.
 116              		.loc 1 125 3 view .LVU27
 117              		.loc 1 125 22 is_stmt 0 view .LVU28
 118 0000 14209FE5 		ldr	r2, .L9
 119 0004 043092E5 		ldr	r3, [r2, #4]
 120              		.loc 1 125 12 view .LVU29
 121 0008 000083E0 		add	r0, r3, r0
 122              	.LVL5:
 123              		.loc 1 126 3 is_stmt 1 view .LVU30
 124              	.L6:
 125              		.loc 1 126 23 discriminator 1 view .LVU31
 126              		.loc 1 126 10 is_stmt 0 discriminator 1 view .LVU32
 127 000c 043092E5 		ldr	r3, [r2, #4]
 128              		.loc 1 126 23 discriminator 1 view .LVU33
 129 0010 000053E1 		cmp	r3, r0
 130 0014 FCFFFF3A 		bcc	.L6
 131 0018 1EFF2FE1 		bx	lr
 132              	.L10:
 133              		.align	2
 134              	.L9:
 135 001c 00300020 		.word	536883200
 136              		.cfi_endproc
 137              	.LFE10:
 138              		.size	delayMicroseconds, .-delayMicroseconds
 139              		.section	.text.hal_lld_init,"ax",%progbits
 140              		.align	2
 141              		.global	hal_lld_init
 142              		.syntax unified
 143              		.arm
 144              		.fpu softvfp
 145              		.type	hal_lld_init, %function
 146              	hal_lld_init:
 147              	.LFB11:
 148              		.loc 1 134 25 is_stmt 1 view -0
 149              		.cfi_startproc
 150              		@ args = 0, pretend = 0, frame = 0
 151              		@ frame_needed = 0, uses_anonymous_args = 0
 152              		.loc 1 135 3 view .LVU35
 153              	.LBB10:
 154              	.LBI10:
 155              		.loc 1 53 13 view .LVU36
 156              	.LBB11:
 157              		.loc 1 56 3 view .LVU37
 158              	.LBE11:
 159              	.LBE10:
 160              		.loc 1 134 25 is_stmt 0 view .LVU38
 161 0000 04E02DE5 		str	lr, [sp, #-4]!
 162              		.cfi_def_cfa_offset 4
 163              		.cfi_offset 14, -4
 164              	.LBB13:
 165              	.LBB12:
 166              		.loc 1 59 17 view .LVU39
 167 0004 F9C0A0E3 		mov	ip, #249
 168              		.loc 1 56 17 view .LVU40
 169 0008 3EE8A0E3 		mov	lr, #4063232
 170              		.loc 1 60 17 view .LVU41
 171 000c 0000A0E3 		mov	r0, #0
ARM GAS  /tmp/ccbiXgpG.s 			page 4


 172              		.loc 1 56 17 view .LVU42
 173 0010 2C309FE5 		ldr	r3, .L13
 174              		.loc 1 57 17 view .LVU43
 175 0014 2C209FE5 		ldr	r2, .L13+4
 176              		.loc 1 61 17 view .LVU44
 177 0018 2C109FE5 		ldr	r1, .L13+8
 178              		.loc 1 56 17 view .LVU45
 179 001c 08E483E5 		str	lr, [r3, #1032]
 180              		.loc 1 57 3 is_stmt 1 view .LVU46
 181              		.loc 1 57 17 is_stmt 0 view .LVU47
 182 0020 002483E5 		str	r2, [r3, #1024]
 183              		.loc 1 58 3 is_stmt 1 view .LVU48
 184              		.loc 1 58 17 is_stmt 0 view .LVU49
 185 0024 182483E5 		str	r2, [r3, #1048]
 186              		.loc 1 59 3 is_stmt 1 view .LVU50
 187              		.loc 1 59 17 is_stmt 0 view .LVU51
 188 0028 1CC483E5 		str	ip, [r3, #1052]
 189              		.loc 1 60 3 is_stmt 1 view .LVU52
 190              		.loc 1 60 17 is_stmt 0 view .LVU53
 191 002c 0C0483E5 		str	r0, [r3, #1036]
 192              		.loc 1 61 3 is_stmt 1 view .LVU54
 193              		.loc 1 61 17 is_stmt 0 view .LVU55
 194 0030 081483E5 		str	r1, [r3, #1032]
 195              		.loc 1 63 3 is_stmt 1 view .LVU56
 196              		.loc 1 63 20 is_stmt 0 view .LVU57
 197 0034 182293E5 		ldr	r2, [r3, #536]
 198 0038 012082E3 		orr	r2, r2, #1
 199 003c 182283E5 		str	r2, [r3, #536]
 200              	.LBE12:
 201              	.LBE13:
 202              		.loc 1 136 1 view .LVU58
 203 0040 04F09DE4 		ldr	pc, [sp], #4
 204              	.L14:
 205              		.align	2
 206              	.L13:
 207 0044 00B00020 		.word	536915968
 208 0048 E7030000 		.word	999
 209 004c A2003E00 		.word	4063394
 210              		.cfi_endproc
 211              	.LFE11:
 212              		.size	hal_lld_init, .-hal_lld_init
 213              		.section	.text.watchdog_start,"ax",%progbits
 214              		.align	2
 215              		.global	watchdog_start
 216              		.syntax unified
 217              		.arm
 218              		.fpu softvfp
 219              		.type	watchdog_start, %function
 220              	watchdog_start:
 221              	.LVL6:
 222              	.LFB12:
 223              		.loc 1 142 1 is_stmt 1 view -0
 224              		.cfi_startproc
 225              		@ args = 0, pretend = 0, frame = 0
 226              		@ frame_needed = 0, uses_anonymous_args = 0
 227              		@ link register save eliminated.
 228              		.loc 1 144 5 view .LVU60
ARM GAS  /tmp/ccbiXgpG.s 			page 5


 229              		.loc 1 144 14 is_stmt 0 view .LVU61
 230 0000 28209FE5 		ldr	r2, .L16
 231              		.loc 1 147 47 view .LVU62
 232 0004 FF04C0E3 		bic	r0, r0, #-16777216
 233              	.LVL7:
 234              		.loc 1 144 14 view .LVU63
 235 0008 1C3092E5 		ldr	r3, [r2, #28]
 236              	.LVL8:
 237              		.loc 1 147 5 is_stmt 1 view .LVU64
 238              		.loc 1 147 47 is_stmt 0 view .LVU65
 239 000c 0F06C0E3 		bic	r0, r0, #15728640
 240              		.loc 1 148 27 view .LVU66
 241 0010 5A34C3E3 		bic	r3, r3, #1509949440
 242              	.LVL9:
 243              		.loc 1 148 27 view .LVU67
 244 0014 3030C3E3 		bic	r3, r3, #48
 245              		.loc 1 148 13 view .LVU68
 246 0018 5A3483E3 		orr	r3, r3, #1509949440
 247 001c 203083E3 		orr	r3, r3, #32
 248              		.loc 1 147 14 view .LVU69
 249 0020 5A0480E3 		orr	r0, r0, #1509949440
 250              	.LVL10:
 251              		.loc 1 148 5 is_stmt 1 view .LVU70
 252              		.loc 1 149 5 view .LVU71
 253              		.loc 1 149 13 is_stmt 0 view .LVU72
 254 0024 240082E5 		str	r0, [r2, #36]
 255              		.loc 1 150 5 is_stmt 1 view .LVU73
 256              		.loc 1 150 13 is_stmt 0 view .LVU74
 257 0028 1C3082E5 		str	r3, [r2, #28]
 258              		.loc 1 151 1 view .LVU75
 259 002c 1EFF2FE1 		bx	lr
 260              	.L17:
 261              		.align	2
 262              	.L16:
 263 0030 00001020 		.word	537919488
 264              		.cfi_endproc
 265              	.LFE12:
 266              		.size	watchdog_start, .-watchdog_start
 267              		.section	.text.watchdog_stop,"ax",%progbits
 268              		.align	2
 269              		.global	watchdog_stop
 270              		.syntax unified
 271              		.arm
 272              		.fpu softvfp
 273              		.type	watchdog_stop, %function
 274              	watchdog_stop:
 275              	.LFB13:
 276              		.loc 1 157 1 is_stmt 1 view -0
 277              		.cfi_startproc
 278              		@ args = 0, pretend = 0, frame = 0
 279              		@ frame_needed = 0, uses_anonymous_args = 0
 280              		@ link register save eliminated.
 281              		.loc 1 158 3 view .LVU77
 282              		.loc 1 158 11 is_stmt 0 view .LVU78
 283 0000 08309FE5 		ldr	r3, .L19
 284 0004 08209FE5 		ldr	r2, .L19+4
 285 0008 1C2083E5 		str	r2, [r3, #28]
ARM GAS  /tmp/ccbiXgpG.s 			page 6


 286              		.loc 1 159 1 view .LVU79
 287 000c 1EFF2FE1 		bx	lr
 288              	.L20:
 289              		.align	2
 290              	.L19:
 291 0010 00001020 		.word	537919488
 292 0014 0201005A 		.word	1509949698
 293              		.cfi_endproc
 294              	.LFE13:
 295              		.size	watchdog_stop, .-watchdog_stop
 296              		.section	.text.watchdog_get_remaining,"ax",%progbits
 297              		.align	2
 298              		.global	watchdog_get_remaining
 299              		.syntax unified
 300              		.arm
 301              		.fpu softvfp
 302              		.type	watchdog_get_remaining, %function
 303              	watchdog_get_remaining:
 304              	.LFB14:
 305              		.loc 1 165 1 is_stmt 1 view -0
 306              		.cfi_startproc
 307              		@ args = 0, pretend = 0, frame = 0
 308              		@ frame_needed = 0, uses_anonymous_args = 0
 309              		@ link register save eliminated.
 310              		.loc 1 166 3 view .LVU81
 311              		.loc 1 166 18 is_stmt 0 view .LVU82
 312 0000 0C309FE5 		ldr	r3, .L22
 313 0004 240093E5 		ldr	r0, [r3, #36]
 314              		.loc 1 167 1 view .LVU83
 315 0008 FF04C0E3 		bic	r0, r0, #-16777216
 316 000c 0F06C0E3 		bic	r0, r0, #15728640
 317 0010 1EFF2FE1 		bx	lr
 318              	.L23:
 319              		.align	2
 320              	.L22:
 321 0014 00001020 		.word	537919488
 322              		.cfi_endproc
 323              	.LFE14:
 324              		.size	watchdog_get_remaining, .-watchdog_get_remaining
 325              		.text
 326              	.Letext0:
 327              		.file 2 "/usr/lib/gcc/arm-none-eabi/11.2.0/include/stddef.h"
 328              		.file 3 "/usr/arm-none-eabi/include/machine/_default_types.h"
 329              		.file 4 "/usr/arm-none-eabi/include/sys/_stdint.h"
 330              		.file 5 "../../os/ports/GCC/ARM/chtypes.h"
 331              		.file 6 "../../os/kernel/include/chlists.h"
 332              		.file 7 "../../os/kernel/include/chthreads.h"
 333              		.file 8 "../../os/ports/GCC/ARM/chcore.h"
 334              		.file 9 "../../os/kernel/include/chmtx.h"
 335              		.file 10 "../../os/kernel/include/chevents.h"
 336              		.file 11 "../../os/kernel/include/chqueues.h"
 337              		.file 12 "../../os/hal/platforms/BCM2835/bcm2835.h"
 338              		.file 13 "../../os/hal/include/i2c.h"
 339              		.file 14 "../../os/hal/platforms/BCM2835/i2c_lld.h"
 340              		.file 15 "../../os/hal/include/serial.h"
 341              		.file 16 "../../os/hal/include/spi.h"
 342              		.file 17 "../../os/hal/platforms/BCM2835/spi_lld.h"
ARM GAS  /tmp/ccbiXgpG.s 			page 7


 343              		.file 18 "../../os/hal/platforms/BCM2835/serial_lld.h"
 344              		.file 19 "../../os/kernel/include/chsys.h"
 345              		.section	.debug_info,"",%progbits
 346              	.Ldebug_info0:
 347 0000 0F0C0000 		.4byte	0xc0f
 348 0004 0500     		.2byte	0x5
 349 0006 01       		.byte	0x1
 350 0007 04       		.byte	0x4
 351 0008 00000000 		.4byte	.Ldebug_abbrev0
 352 000c 17       		.uleb128 0x17
 353 000d 06030000 		.4byte	.LASF162
 354 0011 1D       		.byte	0x1d
 355 0012 1D040000 		.4byte	.LASF163
 356 0016 D3030000 		.4byte	.LASF164
 357 001a 24000000 		.4byte	.LLRL7
 358 001e 00000000 		.4byte	0
 359 0022 00000000 		.4byte	.Ldebug_line0
 360 0026 18       		.uleb128 0x18
 361 0027 04       		.byte	0x4
 362 0028 05       		.byte	0x5
 363 0029 696E7400 		.ascii	"int\000"
 364 002d 02       		.uleb128 0x2
 365 002e 13000000 		.4byte	.LASF2
 366 0032 02       		.byte	0x2
 367 0033 D1       		.byte	0xd1
 368 0034 17       		.byte	0x17
 369 0035 39000000 		.4byte	0x39
 370 0039 08       		.uleb128 0x8
 371 003a 04       		.byte	0x4
 372 003b 07       		.byte	0x7
 373 003c ED010000 		.4byte	.LASF0
 374 0040 13       		.uleb128 0x13
 375 0041 39000000 		.4byte	0x39
 376 0045 08       		.uleb128 0x8
 377 0046 01       		.byte	0x1
 378 0047 06       		.byte	0x6
 379 0048 B8000000 		.4byte	.LASF1
 380 004c 02       		.uleb128 0x2
 381 004d 2D000000 		.4byte	.LASF3
 382 0051 03       		.byte	0x3
 383 0052 2B       		.byte	0x2b
 384 0053 18       		.byte	0x18
 385 0054 58000000 		.4byte	0x58
 386 0058 08       		.uleb128 0x8
 387 0059 01       		.byte	0x1
 388 005a 08       		.byte	0x8
 389 005b B9040000 		.4byte	.LASF4
 390 005f 08       		.uleb128 0x8
 391 0060 02       		.byte	0x2
 392 0061 05       		.byte	0x5
 393 0062 E6040000 		.4byte	.LASF5
 394 0066 02       		.uleb128 0x2
 395 0067 CB050000 		.4byte	.LASF6
 396 006b 03       		.byte	0x3
 397 006c 39       		.byte	0x39
 398 006d 19       		.byte	0x19
 399 006e 72000000 		.4byte	0x72
ARM GAS  /tmp/ccbiXgpG.s 			page 8


 400 0072 08       		.uleb128 0x8
 401 0073 02       		.byte	0x2
 402 0074 07       		.byte	0x7
 403 0075 73020000 		.4byte	.LASF7
 404 0079 02       		.uleb128 0x2
 405 007a FD050000 		.4byte	.LASF8
 406 007e 03       		.byte	0x3
 407 007f 4D       		.byte	0x4d
 408 0080 18       		.byte	0x18
 409 0081 85000000 		.4byte	0x85
 410 0085 08       		.uleb128 0x8
 411 0086 04       		.byte	0x4
 412 0087 05       		.byte	0x5
 413 0088 10010000 		.4byte	.LASF9
 414 008c 02       		.uleb128 0x2
 415 008d A2010000 		.4byte	.LASF10
 416 0091 03       		.byte	0x3
 417 0092 4F       		.byte	0x4f
 418 0093 19       		.byte	0x19
 419 0094 98000000 		.4byte	0x98
 420 0098 08       		.uleb128 0x8
 421 0099 04       		.byte	0x4
 422 009a 07       		.byte	0x7
 423 009b 31020000 		.4byte	.LASF11
 424 009f 08       		.uleb128 0x8
 425 00a0 08       		.byte	0x8
 426 00a1 05       		.byte	0x5
 427 00a2 AA000000 		.4byte	.LASF12
 428 00a6 08       		.uleb128 0x8
 429 00a7 08       		.byte	0x8
 430 00a8 07       		.byte	0x7
 431 00a9 54000000 		.4byte	.LASF13
 432 00ad 02       		.uleb128 0x2
 433 00ae 9D060000 		.4byte	.LASF14
 434 00b2 04       		.byte	0x4
 435 00b3 18       		.byte	0x18
 436 00b4 13       		.byte	0x13
 437 00b5 4C000000 		.4byte	0x4c
 438 00b9 0B       		.uleb128 0xb
 439 00ba AD000000 		.4byte	0xad
 440 00be 02       		.uleb128 0x2
 441 00bf 42010000 		.4byte	.LASF15
 442 00c3 04       		.byte	0x4
 443 00c4 24       		.byte	0x24
 444 00c5 14       		.byte	0x14
 445 00c6 66000000 		.4byte	0x66
 446 00ca 02       		.uleb128 0x2
 447 00cb B1040000 		.4byte	.LASF16
 448 00cf 04       		.byte	0x4
 449 00d0 2C       		.byte	0x2c
 450 00d1 13       		.byte	0x13
 451 00d2 79000000 		.4byte	0x79
 452 00d6 02       		.uleb128 0x2
 453 00d7 64050000 		.4byte	.LASF17
 454 00db 04       		.byte	0x4
 455 00dc 30       		.byte	0x30
 456 00dd 14       		.byte	0x14
ARM GAS  /tmp/ccbiXgpG.s 			page 9


 457 00de 8C000000 		.4byte	0x8c
 458 00e2 02       		.uleb128 0x2
 459 00e3 AC020000 		.4byte	.LASF18
 460 00e7 05       		.byte	0x5
 461 00e8 2A       		.byte	0x2a
 462 00e9 19       		.byte	0x19
 463 00ea AD000000 		.4byte	0xad
 464 00ee 02       		.uleb128 0x2
 465 00ef 19010000 		.4byte	.LASF19
 466 00f3 05       		.byte	0x5
 467 00f4 2B       		.byte	0x2b
 468 00f5 19       		.byte	0x19
 469 00f6 AD000000 		.4byte	0xad
 470 00fa 02       		.uleb128 0x2
 471 00fb 6C040000 		.4byte	.LASF20
 472 00ff 05       		.byte	0x5
 473 0100 2C       		.byte	0x2c
 474 0101 19       		.byte	0x19
 475 0102 AD000000 		.4byte	0xad
 476 0106 02       		.uleb128 0x2
 477 0107 EB000000 		.4byte	.LASF21
 478 010b 05       		.byte	0x5
 479 010c 2D       		.byte	0x2d
 480 010d 19       		.byte	0x19
 481 010e AD000000 		.4byte	0xad
 482 0112 02       		.uleb128 0x2
 483 0113 90040000 		.4byte	.LASF22
 484 0117 05       		.byte	0x5
 485 0118 2E       		.byte	0x2e
 486 0119 19       		.byte	0x19
 487 011a D6000000 		.4byte	0xd6
 488 011e 02       		.uleb128 0x2
 489 011f 90020000 		.4byte	.LASF23
 490 0123 05       		.byte	0x5
 491 0124 2F       		.byte	0x2f
 492 0125 19       		.byte	0x19
 493 0126 CA000000 		.4byte	0xca
 494 012a 02       		.uleb128 0x2
 495 012b C0020000 		.4byte	.LASF24
 496 012f 05       		.byte	0x5
 497 0130 31       		.byte	0x31
 498 0131 19       		.byte	0x19
 499 0132 D6000000 		.4byte	0xd6
 500 0136 02       		.uleb128 0x2
 501 0137 64060000 		.4byte	.LASF25
 502 013b 05       		.byte	0x5
 503 013c 32       		.byte	0x32
 504 013d 19       		.byte	0x19
 505 013e D6000000 		.4byte	0xd6
 506 0142 02       		.uleb128 0x2
 507 0143 E8050000 		.4byte	.LASF26
 508 0147 05       		.byte	0x5
 509 0148 33       		.byte	0x33
 510 0149 19       		.byte	0x19
 511 014a D6000000 		.4byte	0xd6
 512 014e 13       		.uleb128 0x13
 513 014f 42010000 		.4byte	0x142
ARM GAS  /tmp/ccbiXgpG.s 			page 10


 514 0153 02       		.uleb128 0x2
 515 0154 18050000 		.4byte	.LASF27
 516 0158 06       		.byte	0x6
 517 0159 23       		.byte	0x23
 518 015a 17       		.byte	0x17
 519 015b 5F010000 		.4byte	0x15f
 520 015f 07       		.uleb128 0x7
 521 0160 18050000 		.4byte	.LASF27
 522 0164 44       		.byte	0x44
 523 0165 07       		.byte	0x7
 524 0166 57       		.byte	0x57
 525 0167 08       		.byte	0x8
 526 0168 64020000 		.4byte	0x264
 527 016c 01       		.uleb128 0x1
 528 016d 09050000 		.4byte	.LASF28
 529 0171 07       		.byte	0x7
 530 0172 58       		.byte	0x58
 531 0173 1A       		.byte	0x1a
 532 0174 87020000 		.4byte	0x287
 533 0178 00       		.byte	0
 534 0179 01       		.uleb128 0x1
 535 017a 89040000 		.4byte	.LASF29
 536 017e 07       		.byte	0x7
 537 017f 5A       		.byte	0x5a
 538 0180 1A       		.byte	0x1a
 539 0181 87020000 		.4byte	0x287
 540 0185 04       		.byte	0x4
 541 0186 01       		.uleb128 0x1
 542 0187 8C000000 		.4byte	.LASF30
 543 018b 07       		.byte	0x7
 544 018c 5C       		.byte	0x5c
 545 018d 19       		.byte	0x19
 546 018e 12010000 		.4byte	0x112
 547 0192 08       		.byte	0x8
 548 0193 01       		.uleb128 0x1
 549 0194 67070000 		.4byte	.LASF31
 550 0198 07       		.byte	0x7
 551 0199 5D       		.byte	0x5d
 552 019a 19       		.byte	0x19
 553 019b 44030000 		.4byte	0x344
 554 019f 0C       		.byte	0xc
 555 01a0 01       		.uleb128 0x1
 556 01a1 59010000 		.4byte	.LASF32
 557 01a5 07       		.byte	0x7
 558 01a6 5F       		.byte	0x5f
 559 01a7 1A       		.byte	0x1a
 560 01a8 87020000 		.4byte	0x287
 561 01ac 10       		.byte	0x10
 562 01ad 01       		.uleb128 0x1
 563 01ae 05040000 		.4byte	.LASF33
 564 01b2 07       		.byte	0x7
 565 01b3 60       		.byte	0x60
 566 01b4 1A       		.byte	0x1a
 567 01b5 87020000 		.4byte	0x287
 568 01b9 14       		.byte	0x14
 569 01ba 01       		.uleb128 0x1
 570 01bb D2060000 		.4byte	.LASF34
ARM GAS  /tmp/ccbiXgpG.s 			page 11


 571 01bf 07       		.byte	0x7
 572 01c0 67       		.byte	0x67
 573 01c1 1A       		.byte	0x1a
 574 01c2 5A040000 		.4byte	0x45a
 575 01c6 18       		.byte	0x18
 576 01c7 01       		.uleb128 0x1
 577 01c8 F0040000 		.4byte	.LASF35
 578 01cc 07       		.byte	0x7
 579 01cd 72       		.byte	0x72
 580 01ce 19       		.byte	0x19
 581 01cf EE000000 		.4byte	0xee
 582 01d3 1C       		.byte	0x1c
 583 01d4 01       		.uleb128 0x1
 584 01d5 10050000 		.4byte	.LASF36
 585 01d9 07       		.byte	0x7
 586 01da 76       		.byte	0x76
 587 01db 19       		.byte	0x19
 588 01dc E2000000 		.4byte	0xe2
 589 01e0 1D       		.byte	0x1d
 590 01e1 01       		.uleb128 0x1
 591 01e2 86060000 		.4byte	.LASF37
 592 01e6 07       		.byte	0x7
 593 01e7 7B       		.byte	0x7b
 594 01e8 19       		.byte	0x19
 595 01e9 FA000000 		.4byte	0xfa
 596 01ed 1E       		.byte	0x1e
 597 01ee 01       		.uleb128 0x1
 598 01ef F8040000 		.4byte	.LASF38
 599 01f3 07       		.byte	0x7
 600 01f4 81       		.byte	0x81
 601 01f5 19       		.byte	0x19
 602 01f6 06010000 		.4byte	0x106
 603 01fa 1F       		.byte	0x1f
 604 01fb 01       		.uleb128 0x1
 605 01fc 11060000 		.4byte	.LASF39
 606 0200 07       		.byte	0x7
 607 0201 88       		.byte	0x88
 608 0202 19       		.byte	0x19
 609 0203 4E010000 		.4byte	0x14e
 610 0207 20       		.byte	0x20
 611 0208 05       		.uleb128 0x5
 612 0209 705F7500 		.ascii	"p_u\000"
 613 020d 07       		.byte	0x7
 614 020e AD       		.byte	0xad
 615 020f 19       		.byte	0x19
 616 0210 24040000 		.4byte	0x424
 617 0214 24       		.byte	0x24
 618 0215 01       		.uleb128 0x1
 619 0216 6D070000 		.4byte	.LASF40
 620 021a 07       		.byte	0x7
 621 021b B2       		.byte	0xb2
 622 021c 19       		.byte	0x19
 623 021d AE020000 		.4byte	0x2ae
 624 0221 28       		.byte	0x28
 625 0222 01       		.uleb128 0x1
 626 0223 3B060000 		.4byte	.LASF41
 627 0227 07       		.byte	0x7
ARM GAS  /tmp/ccbiXgpG.s 			page 12


 628 0228 B8       		.byte	0xb8
 629 0229 19       		.byte	0x19
 630 022a 8C020000 		.4byte	0x28c
 631 022e 2C       		.byte	0x2c
 632 022f 01       		.uleb128 0x1
 633 0230 0D000000 		.4byte	.LASF42
 634 0234 07       		.byte	0x7
 635 0235 BC       		.byte	0xbc
 636 0236 19       		.byte	0x19
 637 0237 1E010000 		.4byte	0x11e
 638 023b 34       		.byte	0x34
 639 023c 01       		.uleb128 0x1
 640 023d 4F050000 		.4byte	.LASF43
 641 0241 07       		.byte	0x7
 642 0242 C2       		.byte	0xc2
 643 0243 19       		.byte	0x19
 644 0244 2A010000 		.4byte	0x12a
 645 0248 38       		.byte	0x38
 646 0249 01       		.uleb128 0x1
 647 024a DC040000 		.4byte	.LASF44
 648 024e 07       		.byte	0x7
 649 024f C9       		.byte	0xc9
 650 0250 1A       		.byte	0x1a
 651 0251 6B040000 		.4byte	0x46b
 652 0255 3C       		.byte	0x3c
 653 0256 01       		.uleb128 0x1
 654 0257 F2050000 		.4byte	.LASF45
 655 025b 07       		.byte	0x7
 656 025c CD       		.byte	0xcd
 657 025d 19       		.byte	0x19
 658 025e 12010000 		.4byte	0x112
 659 0262 40       		.byte	0x40
 660 0263 00       		.byte	0
 661 0264 0C       		.uleb128 0xc
 662 0265 08       		.byte	0x8
 663 0266 06       		.byte	0x6
 664 0267 5A       		.byte	0x5a
 665 0268 87020000 		.4byte	0x287
 666 026c 01       		.uleb128 0x1
 667 026d 09050000 		.4byte	.LASF28
 668 0271 06       		.byte	0x6
 669 0272 5B       		.byte	0x5b
 670 0273 1A       		.byte	0x1a
 671 0274 87020000 		.4byte	0x287
 672 0278 00       		.byte	0
 673 0279 01       		.uleb128 0x1
 674 027a 89040000 		.4byte	.LASF29
 675 027e 06       		.byte	0x6
 676 027f 5D       		.byte	0x5d
 677 0280 1A       		.byte	0x1a
 678 0281 87020000 		.4byte	0x287
 679 0285 04       		.byte	0x4
 680 0286 00       		.byte	0
 681 0287 03       		.uleb128 0x3
 682 0288 53010000 		.4byte	0x153
 683 028c 02       		.uleb128 0x2
 684 028d 00000000 		.4byte	.LASF46
ARM GAS  /tmp/ccbiXgpG.s 			page 13


 685 0291 06       		.byte	0x6
 686 0292 5F       		.byte	0x5f
 687 0293 03       		.byte	0x3
 688 0294 64020000 		.4byte	0x264
 689 0298 0C       		.uleb128 0xc
 690 0299 04       		.byte	0x4
 691 029a 06       		.byte	0x6
 692 029b 64       		.byte	0x64
 693 029c AE020000 		.4byte	0x2ae
 694 02a0 01       		.uleb128 0x1
 695 02a1 09050000 		.4byte	.LASF28
 696 02a5 06       		.byte	0x6
 697 02a6 66       		.byte	0x66
 698 02a7 16       		.byte	0x16
 699 02a8 87020000 		.4byte	0x287
 700 02ac 00       		.byte	0
 701 02ad 00       		.byte	0
 702 02ae 02       		.uleb128 0x2
 703 02af B4020000 		.4byte	.LASF47
 704 02b3 06       		.byte	0x6
 705 02b4 69       		.byte	0x69
 706 02b5 03       		.byte	0x3
 707 02b6 98020000 		.4byte	0x298
 708 02ba 02       		.uleb128 0x2
 709 02bb AD010000 		.4byte	.LASF48
 710 02bf 08       		.byte	0x8
 711 02c0 A2       		.byte	0xa2
 712 02c1 0F       		.byte	0xf
 713 02c2 C6020000 		.4byte	0x2c6
 714 02c6 19       		.uleb128 0x19
 715 02c7 04       		.byte	0x4
 716 02c8 07       		.uleb128 0x7
 717 02c9 34060000 		.4byte	.LASF49
 718 02cd 24       		.byte	0x24
 719 02ce 08       		.byte	0x8
 720 02cf B9       		.byte	0xb9
 721 02d0 08       		.byte	0x8
 722 02d1 44030000 		.4byte	0x344
 723 02d5 05       		.uleb128 0x5
 724 02d6 723400   		.ascii	"r4\000"
 725 02d9 08       		.byte	0x8
 726 02da BA       		.byte	0xba
 727 02db 11       		.byte	0x11
 728 02dc BA020000 		.4byte	0x2ba
 729 02e0 00       		.byte	0
 730 02e1 05       		.uleb128 0x5
 731 02e2 723500   		.ascii	"r5\000"
 732 02e5 08       		.byte	0x8
 733 02e6 BB       		.byte	0xbb
 734 02e7 11       		.byte	0x11
 735 02e8 BA020000 		.4byte	0x2ba
 736 02ec 04       		.byte	0x4
 737 02ed 05       		.uleb128 0x5
 738 02ee 723600   		.ascii	"r6\000"
 739 02f1 08       		.byte	0x8
 740 02f2 BC       		.byte	0xbc
 741 02f3 11       		.byte	0x11
ARM GAS  /tmp/ccbiXgpG.s 			page 14


 742 02f4 BA020000 		.4byte	0x2ba
 743 02f8 08       		.byte	0x8
 744 02f9 05       		.uleb128 0x5
 745 02fa 723700   		.ascii	"r7\000"
 746 02fd 08       		.byte	0x8
 747 02fe BD       		.byte	0xbd
 748 02ff 11       		.byte	0x11
 749 0300 BA020000 		.4byte	0x2ba
 750 0304 0C       		.byte	0xc
 751 0305 05       		.uleb128 0x5
 752 0306 723800   		.ascii	"r8\000"
 753 0309 08       		.byte	0x8
 754 030a BE       		.byte	0xbe
 755 030b 11       		.byte	0x11
 756 030c BA020000 		.4byte	0x2ba
 757 0310 10       		.byte	0x10
 758 0311 05       		.uleb128 0x5
 759 0312 723900   		.ascii	"r9\000"
 760 0315 08       		.byte	0x8
 761 0316 BF       		.byte	0xbf
 762 0317 11       		.byte	0x11
 763 0318 BA020000 		.4byte	0x2ba
 764 031c 14       		.byte	0x14
 765 031d 05       		.uleb128 0x5
 766 031e 72313000 		.ascii	"r10\000"
 767 0322 08       		.byte	0x8
 768 0323 C0       		.byte	0xc0
 769 0324 11       		.byte	0x11
 770 0325 BA020000 		.4byte	0x2ba
 771 0329 18       		.byte	0x18
 772 032a 05       		.uleb128 0x5
 773 032b 72313100 		.ascii	"r11\000"
 774 032f 08       		.byte	0x8
 775 0330 C1       		.byte	0xc1
 776 0331 11       		.byte	0x11
 777 0332 BA020000 		.4byte	0x2ba
 778 0336 1C       		.byte	0x1c
 779 0337 05       		.uleb128 0x5
 780 0338 6C7200   		.ascii	"lr\000"
 781 033b 08       		.byte	0x8
 782 033c C2       		.byte	0xc2
 783 033d 11       		.byte	0x11
 784 033e BA020000 		.4byte	0x2ba
 785 0342 20       		.byte	0x20
 786 0343 00       		.byte	0
 787 0344 07       		.uleb128 0x7
 788 0345 6B020000 		.4byte	.LASF50
 789 0349 04       		.byte	0x4
 790 034a 08       		.byte	0x8
 791 034b CA       		.byte	0xca
 792 034c 08       		.byte	0x8
 793 034d 5F030000 		.4byte	0x35f
 794 0351 05       		.uleb128 0x5
 795 0352 72313300 		.ascii	"r13\000"
 796 0356 08       		.byte	0x8
 797 0357 CB       		.byte	0xcb
 798 0358 12       		.byte	0x12
ARM GAS  /tmp/ccbiXgpG.s 			page 15


 799 0359 5F030000 		.4byte	0x35f
 800 035d 00       		.byte	0
 801 035e 00       		.byte	0
 802 035f 03       		.uleb128 0x3
 803 0360 C8020000 		.4byte	0x2c8
 804 0364 07       		.uleb128 0x7
 805 0365 D7020000 		.4byte	.LASF51
 806 0369 10       		.byte	0x10
 807 036a 09       		.byte	0x9
 808 036b 25       		.byte	0x25
 809 036c 10       		.byte	0x10
 810 036d 99030000 		.4byte	0x399
 811 0371 01       		.uleb128 0x1
 812 0372 E3000000 		.4byte	.LASF52
 813 0376 09       		.byte	0x9
 814 0377 26       		.byte	0x26
 815 0378 19       		.byte	0x19
 816 0379 8C020000 		.4byte	0x28c
 817 037d 00       		.byte	0
 818 037e 01       		.uleb128 0x1
 819 037f 5F070000 		.4byte	.LASF53
 820 0383 09       		.byte	0x9
 821 0384 28       		.byte	0x28
 822 0385 1A       		.byte	0x1a
 823 0386 87020000 		.4byte	0x287
 824 038a 08       		.byte	0x8
 825 038b 01       		.uleb128 0x1
 826 038c E1050000 		.4byte	.LASF54
 827 0390 09       		.byte	0x9
 828 0391 2A       		.byte	0x2a
 829 0392 1A       		.byte	0x1a
 830 0393 99030000 		.4byte	0x399
 831 0397 0C       		.byte	0xc
 832 0398 00       		.byte	0
 833 0399 03       		.uleb128 0x3
 834 039a 64030000 		.4byte	0x364
 835 039e 02       		.uleb128 0x2
 836 039f D7020000 		.4byte	.LASF51
 837 03a3 09       		.byte	0x9
 838 03a4 2C       		.byte	0x2c
 839 03a5 03       		.byte	0x3
 840 03a6 64030000 		.4byte	0x364
 841 03aa 02       		.uleb128 0x2
 842 03ab BD060000 		.4byte	.LASF55
 843 03af 0A       		.byte	0xa
 844 03b0 25       		.byte	0x25
 845 03b1 1E       		.byte	0x1e
 846 03b2 B6030000 		.4byte	0x3b6
 847 03b6 07       		.uleb128 0x7
 848 03b7 BD060000 		.4byte	.LASF55
 849 03bb 10       		.byte	0x10
 850 03bc 0A       		.byte	0xa
 851 03bd 2A       		.byte	0x2a
 852 03be 08       		.byte	0x8
 853 03bf F8030000 		.4byte	0x3f8
 854 03c3 01       		.uleb128 0x1
 855 03c4 9D020000 		.4byte	.LASF56
ARM GAS  /tmp/ccbiXgpG.s 			page 16


 856 03c8 0A       		.byte	0xa
 857 03c9 2B       		.byte	0x2b
 858 03ca 1A       		.byte	0x1a
 859 03cb F8030000 		.4byte	0x3f8
 860 03cf 00       		.byte	0
 861 03d0 01       		.uleb128 0x1
 862 03d1 C7040000 		.4byte	.LASF57
 863 03d5 0A       		.byte	0xa
 864 03d6 2E       		.byte	0x2e
 865 03d7 1A       		.byte	0x1a
 866 03d8 87020000 		.4byte	0x287
 867 03dc 04       		.byte	0x4
 868 03dd 01       		.uleb128 0x1
 869 03de 4B040000 		.4byte	.LASF58
 870 03e2 0A       		.byte	0xa
 871 03e3 30       		.byte	0x30
 872 03e4 19       		.byte	0x19
 873 03e5 2A010000 		.4byte	0x12a
 874 03e9 08       		.byte	0x8
 875 03ea 01       		.uleb128 0x1
 876 03eb D3040000 		.4byte	.LASF59
 877 03ef 0A       		.byte	0xa
 878 03f0 33       		.byte	0x33
 879 03f1 19       		.byte	0x19
 880 03f2 36010000 		.4byte	0x136
 881 03f6 0C       		.byte	0xc
 882 03f7 00       		.byte	0
 883 03f8 03       		.uleb128 0x3
 884 03f9 AA030000 		.4byte	0x3aa
 885 03fd 07       		.uleb128 0x7
 886 03fe E1010000 		.4byte	.LASF60
 887 0402 04       		.byte	0x4
 888 0403 0A       		.byte	0xa
 889 0404 3A       		.byte	0x3a
 890 0405 10       		.byte	0x10
 891 0406 18040000 		.4byte	0x418
 892 040a 01       		.uleb128 0x1
 893 040b D9060000 		.4byte	.LASF61
 894 040f 0A       		.byte	0xa
 895 0410 3B       		.byte	0x3b
 896 0411 1A       		.byte	0x1a
 897 0412 F8030000 		.4byte	0x3f8
 898 0416 00       		.byte	0
 899 0417 00       		.byte	0
 900 0418 02       		.uleb128 0x2
 901 0419 E1010000 		.4byte	.LASF60
 902 041d 0A       		.byte	0xa
 903 041e 3E       		.byte	0x3e
 904 041f 03       		.byte	0x3
 905 0420 FD030000 		.4byte	0x3fd
 906 0424 1A       		.uleb128 0x1a
 907 0425 04       		.byte	0x4
 908 0426 07       		.byte	0x7
 909 0427 8F       		.byte	0x8f
 910 0428 03       		.byte	0x3
 911 0429 5A040000 		.4byte	0x45a
 912 042d 0D       		.uleb128 0xd
ARM GAS  /tmp/ccbiXgpG.s 			page 17


 913 042e 1A000000 		.4byte	.LASF62
 914 0432 96       		.byte	0x96
 915 0433 19       		.byte	0x19
 916 0434 1E010000 		.4byte	0x11e
 917 0438 0D       		.uleb128 0xd
 918 0439 70000000 		.4byte	.LASF63
 919 043d 9D       		.byte	0x9d
 920 043e 19       		.byte	0x19
 921 043f 1E010000 		.4byte	0x11e
 922 0443 0D       		.uleb128 0xd
 923 0444 CB060000 		.4byte	.LASF64
 924 0448 A4       		.byte	0xa4
 925 0449 1A       		.byte	0x1a
 926 044a C6020000 		.4byte	0x2c6
 927 044e 0D       		.uleb128 0xd
 928 044f 02050000 		.4byte	.LASF65
 929 0453 AB       		.byte	0xab
 930 0454 19       		.byte	0x19
 931 0455 2A010000 		.4byte	0x12a
 932 0459 00       		.byte	0
 933 045a 03       		.uleb128 0x3
 934 045b 66040000 		.4byte	0x466
 935 045f 08       		.uleb128 0x8
 936 0460 01       		.byte	0x1
 937 0461 08       		.byte	0x8
 938 0462 B2050000 		.4byte	.LASF66
 939 0466 0B       		.uleb128 0xb
 940 0467 5F040000 		.4byte	0x45f
 941 046b 03       		.uleb128 0x3
 942 046c 9E030000 		.4byte	0x39e
 943 0470 03       		.uleb128 0x3
 944 0471 75040000 		.4byte	0x475
 945 0475 09       		.uleb128 0x9
 946 0476 1E010000 		.4byte	0x11e
 947 047a 84040000 		.4byte	0x484
 948 047e 04       		.uleb128 0x4
 949 047f C6020000 		.4byte	0x2c6
 950 0483 00       		.byte	0
 951 0484 02       		.uleb128 0x2
 952 0485 DD020000 		.4byte	.LASF67
 953 0489 0B       		.byte	0xb
 954 048a 30       		.byte	0x30
 955 048b 1D       		.byte	0x1d
 956 048c 90040000 		.4byte	0x490
 957 0490 07       		.uleb128 0x7
 958 0491 DD020000 		.4byte	.LASF67
 959 0495 24       		.byte	0x24
 960 0496 0B       		.byte	0xb
 961 0497 3E       		.byte	0x3e
 962 0498 08       		.byte	0x8
 963 0499 06050000 		.4byte	0x506
 964 049d 01       		.uleb128 0x1
 965 049e A0000000 		.4byte	.LASF68
 966 04a2 0B       		.byte	0xb
 967 04a3 3F       		.byte	0x3f
 968 04a4 19       		.byte	0x19
 969 04a5 8C020000 		.4byte	0x28c
ARM GAS  /tmp/ccbiXgpG.s 			page 18


 970 04a9 00       		.byte	0
 971 04aa 01       		.uleb128 0x1
 972 04ab B2030000 		.4byte	.LASF69
 973 04af 0B       		.byte	0xb
 974 04b0 40       		.byte	0x40
 975 04b1 19       		.byte	0x19
 976 04b2 2D000000 		.4byte	0x2d
 977 04b6 08       		.byte	0x8
 978 04b7 01       		.uleb128 0x1
 979 04b8 39010000 		.4byte	.LASF70
 980 04bc 0B       		.byte	0xb
 981 04bd 41       		.byte	0x41
 982 04be 1A       		.byte	0x1a
 983 04bf 27050000 		.4byte	0x527
 984 04c3 0C       		.byte	0xc
 985 04c4 01       		.uleb128 0x1
 986 04c5 80060000 		.4byte	.LASF71
 987 04c9 0B       		.byte	0xb
 988 04ca 42       		.byte	0x42
 989 04cb 1A       		.byte	0x1a
 990 04cc 27050000 		.4byte	0x527
 991 04d0 10       		.byte	0x10
 992 04d1 01       		.uleb128 0x1
 993 04d2 15040000 		.4byte	.LASF72
 994 04d6 0B       		.byte	0xb
 995 04d7 44       		.byte	0x44
 996 04d8 1A       		.byte	0x1a
 997 04d9 27050000 		.4byte	0x527
 998 04dd 14       		.byte	0x14
 999 04de 01       		.uleb128 0x1
 1000 04df 98040000 		.4byte	.LASF73
 1001 04e3 0B       		.byte	0xb
 1002 04e4 45       		.byte	0x45
 1003 04e5 1A       		.byte	0x1a
 1004 04e6 27050000 		.4byte	0x527
 1005 04ea 18       		.byte	0x18
 1006 04eb 01       		.uleb128 0x1
 1007 04ec 94060000 		.4byte	.LASF74
 1008 04f0 0B       		.byte	0xb
 1009 04f1 46       		.byte	0x46
 1010 04f2 19       		.byte	0x19
 1011 04f3 06050000 		.4byte	0x506
 1012 04f7 1C       		.byte	0x1c
 1013 04f8 01       		.uleb128 0x1
 1014 04f9 37070000 		.4byte	.LASF75
 1015 04fd 0B       		.byte	0xb
 1016 04fe 47       		.byte	0x47
 1017 04ff 1A       		.byte	0x1a
 1018 0500 C6020000 		.4byte	0x2c6
 1019 0504 20       		.byte	0x20
 1020 0505 00       		.byte	0
 1021 0506 02       		.uleb128 0x2
 1022 0507 7F040000 		.4byte	.LASF76
 1023 050b 0B       		.byte	0xb
 1024 050c 33       		.byte	0x33
 1025 050d 10       		.byte	0x10
 1026 050e 12050000 		.4byte	0x512
ARM GAS  /tmp/ccbiXgpG.s 			page 19


 1027 0512 03       		.uleb128 0x3
 1028 0513 17050000 		.4byte	0x517
 1029 0517 14       		.uleb128 0x14
 1030 0518 22050000 		.4byte	0x522
 1031 051c 04       		.uleb128 0x4
 1032 051d 22050000 		.4byte	0x522
 1033 0521 00       		.byte	0
 1034 0522 03       		.uleb128 0x3
 1035 0523 84040000 		.4byte	0x484
 1036 0527 03       		.uleb128 0x3
 1037 0528 AD000000 		.4byte	0xad
 1038 052c 02       		.uleb128 0x2
 1039 052d CC020000 		.4byte	.LASF77
 1040 0531 0B       		.byte	0xb
 1041 0532 7B       		.byte	0x7b
 1042 0533 16       		.byte	0x16
 1043 0534 84040000 		.4byte	0x484
 1044 0538 02       		.uleb128 0x2
 1045 0539 21000000 		.4byte	.LASF78
 1046 053d 0B       		.byte	0xb
 1047 053e EE       		.byte	0xee
 1048 053f 16       		.byte	0x16
 1049 0540 84040000 		.4byte	0x484
 1050 0544 09       		.uleb128 0x9
 1051 0545 2D000000 		.4byte	0x2d
 1052 0549 5D050000 		.4byte	0x55d
 1053 054d 04       		.uleb128 0x4
 1054 054e C6020000 		.4byte	0x2c6
 1055 0552 04       		.uleb128 0x4
 1056 0553 5D050000 		.4byte	0x55d
 1057 0557 04       		.uleb128 0x4
 1058 0558 2D000000 		.4byte	0x2d
 1059 055c 00       		.byte	0
 1060 055d 03       		.uleb128 0x3
 1061 055e B9000000 		.4byte	0xb9
 1062 0562 03       		.uleb128 0x3
 1063 0563 44050000 		.4byte	0x544
 1064 0567 09       		.uleb128 0x9
 1065 0568 2D000000 		.4byte	0x2d
 1066 056c 80050000 		.4byte	0x580
 1067 0570 04       		.uleb128 0x4
 1068 0571 C6020000 		.4byte	0x2c6
 1069 0575 04       		.uleb128 0x4
 1070 0576 27050000 		.4byte	0x527
 1071 057a 04       		.uleb128 0x4
 1072 057b 2D000000 		.4byte	0x2d
 1073 057f 00       		.byte	0
 1074 0580 03       		.uleb128 0x3
 1075 0581 67050000 		.4byte	0x567
 1076 0585 09       		.uleb128 0x9
 1077 0586 1E010000 		.4byte	0x11e
 1078 058a 99050000 		.4byte	0x599
 1079 058e 04       		.uleb128 0x4
 1080 058f C6020000 		.4byte	0x2c6
 1081 0593 04       		.uleb128 0x4
 1082 0594 AD000000 		.4byte	0xad
 1083 0598 00       		.byte	0
ARM GAS  /tmp/ccbiXgpG.s 			page 20


 1084 0599 03       		.uleb128 0x3
 1085 059a 85050000 		.4byte	0x585
 1086 059e 07       		.uleb128 0x7
 1087 059f 42000000 		.4byte	.LASF79
 1088 05a3 20       		.byte	0x20
 1089 05a4 0C       		.byte	0xc
 1090 05a5 FD       		.byte	0xfd
 1091 05a6 08       		.byte	0x8
 1092 05a7 0E060000 		.4byte	0x60e
 1093 05ab 01       		.uleb128 0x1
 1094 05ac 9A010000 		.4byte	.LASF80
 1095 05b0 0C       		.byte	0xc
 1096 05b1 FE       		.byte	0xfe
 1097 05b2 19       		.byte	0x19
 1098 05b3 40000000 		.4byte	0x40
 1099 05b7 00       		.byte	0
 1100 05b8 01       		.uleb128 0x1
 1101 05b9 8D060000 		.4byte	.LASF81
 1102 05bd 0C       		.byte	0xc
 1103 05be FF       		.byte	0xff
 1104 05bf 19       		.byte	0x19
 1105 05c0 40000000 		.4byte	0x40
 1106 05c4 04       		.byte	0x4
 1107 05c5 0A       		.uleb128 0xa
 1108 05c6 1A070000 		.4byte	.LASF82
 1109 05ca 0001     		.2byte	0x100
 1110 05cc 40000000 		.4byte	0x40
 1111 05d0 08       		.byte	0x8
 1112 05d1 0A       		.uleb128 0xa
 1113 05d2 B6010000 		.4byte	.LASF83
 1114 05d6 0101     		.2byte	0x101
 1115 05d8 40000000 		.4byte	0x40
 1116 05dc 0C       		.byte	0xc
 1117 05dd 0A       		.uleb128 0xa
 1118 05de 83000000 		.4byte	.LASF84
 1119 05e2 0201     		.2byte	0x102
 1120 05e4 40000000 		.4byte	0x40
 1121 05e8 10       		.byte	0x10
 1122 05e9 0A       		.uleb128 0xa
 1123 05ea A5030000 		.4byte	.LASF85
 1124 05ee 0301     		.2byte	0x103
 1125 05f0 40000000 		.4byte	0x40
 1126 05f4 14       		.byte	0x14
 1127 05f5 0A       		.uleb128 0xa
 1128 05f6 29010000 		.4byte	.LASF86
 1129 05fa 0401     		.2byte	0x104
 1130 05fc 40000000 		.4byte	0x40
 1131 0600 18       		.byte	0x18
 1132 0601 0A       		.uleb128 0xa
 1133 0602 7F070000 		.4byte	.LASF87
 1134 0606 0501     		.2byte	0x105
 1135 0608 40000000 		.4byte	0x40
 1136 060c 1C       		.byte	0x1c
 1137 060d 00       		.byte	0
 1138 060e 1B       		.uleb128 0x1b
 1139 060f 42000000 		.4byte	.LASF79
 1140 0613 0C       		.byte	0xc
ARM GAS  /tmp/ccbiXgpG.s 			page 21


 1141 0614 0801     		.2byte	0x108
 1142 0616 1C       		.byte	0x1c
 1143 0617 9E050000 		.4byte	0x59e
 1144 061b 09       		.uleb128 0x9
 1145 061c 1E010000 		.4byte	0x11e
 1146 0620 34060000 		.4byte	0x634
 1147 0624 04       		.uleb128 0x4
 1148 0625 C6020000 		.4byte	0x2c6
 1149 0629 04       		.uleb128 0x4
 1150 062a AD000000 		.4byte	0xad
 1151 062e 04       		.uleb128 0x4
 1152 062f 42010000 		.4byte	0x142
 1153 0633 00       		.byte	0
 1154 0634 03       		.uleb128 0x3
 1155 0635 1B060000 		.4byte	0x61b
 1156 0639 09       		.uleb128 0x9
 1157 063a 1E010000 		.4byte	0x11e
 1158 063e 4D060000 		.4byte	0x64d
 1159 0642 04       		.uleb128 0x4
 1160 0643 C6020000 		.4byte	0x2c6
 1161 0647 04       		.uleb128 0x4
 1162 0648 42010000 		.4byte	0x142
 1163 064c 00       		.byte	0
 1164 064d 03       		.uleb128 0x3
 1165 064e 39060000 		.4byte	0x639
 1166 0652 09       		.uleb128 0x9
 1167 0653 2D000000 		.4byte	0x2d
 1168 0657 70060000 		.4byte	0x670
 1169 065b 04       		.uleb128 0x4
 1170 065c C6020000 		.4byte	0x2c6
 1171 0660 04       		.uleb128 0x4
 1172 0661 5D050000 		.4byte	0x55d
 1173 0665 04       		.uleb128 0x4
 1174 0666 2D000000 		.4byte	0x2d
 1175 066a 04       		.uleb128 0x4
 1176 066b 42010000 		.4byte	0x142
 1177 066f 00       		.byte	0
 1178 0670 03       		.uleb128 0x3
 1179 0671 52060000 		.4byte	0x652
 1180 0675 09       		.uleb128 0x9
 1181 0676 2D000000 		.4byte	0x2d
 1182 067a 93060000 		.4byte	0x693
 1183 067e 04       		.uleb128 0x4
 1184 067f C6020000 		.4byte	0x2c6
 1185 0683 04       		.uleb128 0x4
 1186 0684 27050000 		.4byte	0x527
 1187 0688 04       		.uleb128 0x4
 1188 0689 2D000000 		.4byte	0x2d
 1189 068d 04       		.uleb128 0x4
 1190 068e 42010000 		.4byte	0x142
 1191 0692 00       		.byte	0
 1192 0693 03       		.uleb128 0x3
 1193 0694 75060000 		.4byte	0x675
 1194 0698 10       		.uleb128 0x10
 1195 0699 58000000 		.4byte	0x58
 1196 069d 0D       		.byte	0xd
 1197 069e 54       		.byte	0x54
ARM GAS  /tmp/ccbiXgpG.s 			page 22


 1198 069f C8060000 		.4byte	0x6c8
 1199 06a3 06       		.uleb128 0x6
 1200 06a4 F5000000 		.4byte	.LASF88
 1201 06a8 00       		.byte	0
 1202 06a9 06       		.uleb128 0x6
 1203 06aa FD020000 		.4byte	.LASF89
 1204 06ae 01       		.byte	0x1
 1205 06af 06       		.uleb128 0x6
 1206 06b0 07060000 		.4byte	.LASF90
 1207 06b4 02       		.byte	0x2
 1208 06b5 06       		.uleb128 0x6
 1209 06b6 4B010000 		.4byte	.LASF91
 1210 06ba 03       		.byte	0x3
 1211 06bb 06       		.uleb128 0x6
 1212 06bc 9F050000 		.4byte	.LASF92
 1213 06c0 04       		.byte	0x4
 1214 06c1 06       		.uleb128 0x6
 1215 06c2 2D050000 		.4byte	.LASF93
 1216 06c6 05       		.byte	0x5
 1217 06c7 00       		.byte	0
 1218 06c8 02       		.uleb128 0x2
 1219 06c9 74040000 		.4byte	.LASF94
 1220 06cd 0D       		.byte	0xd
 1221 06ce 5B       		.byte	0x5b
 1222 06cf 03       		.byte	0x3
 1223 06d0 98060000 		.4byte	0x698
 1224 06d4 02       		.uleb128 0x2
 1225 06d5 86020000 		.4byte	.LASF95
 1226 06d9 0E       		.byte	0xe
 1227 06da 38       		.byte	0x38
 1228 06db 1A       		.byte	0x1a
 1229 06dc E0060000 		.4byte	0x6e0
 1230 06e0 07       		.uleb128 0x7
 1231 06e1 86020000 		.4byte	.LASF95
 1232 06e5 40       		.byte	0x40
 1233 06e6 0E       		.byte	0xe
 1234 06e7 62       		.byte	0x62
 1235 06e8 08       		.byte	0x8
 1236 06e9 97070000 		.4byte	0x797
 1237 06ed 01       		.uleb128 0x1
 1238 06ee 0A010000 		.4byte	.LASF96
 1239 06f2 0E       		.byte	0xe
 1240 06f3 64       		.byte	0x64
 1241 06f4 1D       		.byte	0x1d
 1242 06f5 C8060000 		.4byte	0x6c8
 1243 06f9 00       		.byte	0
 1244 06fa 01       		.uleb128 0x1
 1245 06fb C4050000 		.4byte	.LASF97
 1246 06ff 0E       		.byte	0xe
 1247 0700 66       		.byte	0x66
 1248 0701 1E       		.byte	0x1e
 1249 0702 DB070000 		.4byte	0x7db
 1250 0706 04       		.byte	0x4
 1251 0707 01       		.uleb128 0x1
 1252 0708 10020000 		.4byte	.LASF98
 1253 070c 0E       		.byte	0xe
 1254 070d 68       		.byte	0x68
ARM GAS  /tmp/ccbiXgpG.s 			page 23


 1255 070e 1D       		.byte	0x1d
 1256 070f 97070000 		.4byte	0x797
 1257 0713 08       		.byte	0x8
 1258 0714 01       		.uleb128 0x1
 1259 0715 99000000 		.4byte	.LASF99
 1260 0719 0E       		.byte	0xe
 1261 071a 6A       		.byte	0x6a
 1262 071b 1E       		.byte	0x1e
 1263 071c E0070000 		.4byte	0x7e0
 1264 0720 0C       		.byte	0xc
 1265 0721 01       		.uleb128 0x1
 1266 0722 AB040000 		.4byte	.LASF100
 1267 0726 0E       		.byte	0xe
 1268 0727 6D       		.byte	0x6d
 1269 0728 1D       		.byte	0x1d
 1270 0729 9E030000 		.4byte	0x39e
 1271 072d 10       		.byte	0x10
 1272 072e 01       		.uleb128 0x1
 1273 072f 22010000 		.4byte	.LASF101
 1274 0733 0E       		.byte	0xe
 1275 0734 77       		.byte	0x77
 1276 0735 1E       		.byte	0x1e
 1277 0736 87020000 		.4byte	0x287
 1278 073a 20       		.byte	0x20
 1279 073b 01       		.uleb128 0x1
 1280 073c 6B000000 		.4byte	.LASF102
 1281 0740 0E       		.byte	0xe
 1282 0741 7B       		.byte	0x7b
 1283 0742 1D       		.byte	0x1d
 1284 0743 A3070000 		.4byte	0x7a3
 1285 0747 24       		.byte	0x24
 1286 0748 01       		.uleb128 0x1
 1287 0749 FA010000 		.4byte	.LASF103
 1288 074d 0E       		.byte	0xe
 1289 074e 7F       		.byte	0x7f
 1290 074f 1E       		.byte	0x1e
 1291 0750 5D050000 		.4byte	0x55d
 1292 0754 28       		.byte	0x28
 1293 0755 01       		.uleb128 0x1
 1294 0756 77070000 		.4byte	.LASF104
 1295 075a 0E       		.byte	0xe
 1296 075b 83       		.byte	0x83
 1297 075c 1D       		.byte	0x1d
 1298 075d 2D000000 		.4byte	0x2d
 1299 0761 2C       		.byte	0x2c
 1300 0762 01       		.uleb128 0x1
 1301 0763 7A060000 		.4byte	.LASF105
 1302 0767 0E       		.byte	0xe
 1303 0768 87       		.byte	0x87
 1304 0769 1D       		.byte	0x1d
 1305 076a 2D000000 		.4byte	0x2d
 1306 076e 30       		.byte	0x30
 1307 076f 01       		.uleb128 0x1
 1308 0770 4E000000 		.4byte	.LASF106
 1309 0774 0E       		.byte	0xe
 1310 0775 8B       		.byte	0x8b
 1311 0776 1E       		.byte	0x1e
ARM GAS  /tmp/ccbiXgpG.s 			page 24


 1312 0777 27050000 		.4byte	0x527
 1313 077b 34       		.byte	0x34
 1314 077c 01       		.uleb128 0x1
 1315 077d 0D040000 		.4byte	.LASF107
 1316 0781 0E       		.byte	0xe
 1317 0782 8F       		.byte	0x8f
 1318 0783 1D       		.byte	0x1d
 1319 0784 2D000000 		.4byte	0x2d
 1320 0788 38       		.byte	0x38
 1321 0789 01       		.uleb128 0x1
 1322 078a 33010000 		.4byte	.LASF108
 1323 078e 0E       		.byte	0xe
 1324 078f 93       		.byte	0x93
 1325 0790 1D       		.byte	0x1d
 1326 0791 2D000000 		.4byte	0x2d
 1327 0795 3C       		.byte	0x3c
 1328 0796 00       		.byte	0
 1329 0797 02       		.uleb128 0x2
 1330 0798 A0040000 		.4byte	.LASF109
 1331 079c 0E       		.byte	0xe
 1332 079d 42       		.byte	0x42
 1333 079e 12       		.byte	0x12
 1334 079f D6000000 		.4byte	0xd6
 1335 07a3 02       		.uleb128 0x2
 1336 07a4 00010000 		.4byte	.LASF110
 1337 07a8 0E       		.byte	0xe
 1338 07a9 48       		.byte	0x48
 1339 07aa 12       		.byte	0x12
 1340 07ab BE000000 		.4byte	0xbe
 1341 07af 03       		.uleb128 0x3
 1342 07b0 D4060000 		.4byte	0x6d4
 1343 07b4 0C       		.uleb128 0xc
 1344 07b5 04       		.byte	0x4
 1345 07b6 0E       		.byte	0xe
 1346 07b7 57       		.byte	0x57
 1347 07b8 CA070000 		.4byte	0x7ca
 1348 07bc 01       		.uleb128 0x1
 1349 07bd CA030000 		.4byte	.LASF111
 1350 07c1 0E       		.byte	0xe
 1351 07c2 59       		.byte	0x59
 1352 07c3 1D       		.byte	0x1d
 1353 07c4 D6000000 		.4byte	0xd6
 1354 07c8 00       		.byte	0
 1355 07c9 00       		.byte	0
 1356 07ca 02       		.uleb128 0x2
 1357 07cb 70060000 		.4byte	.LASF112
 1358 07cf 0E       		.byte	0xe
 1359 07d0 5B       		.byte	0x5b
 1360 07d1 03       		.byte	0x3
 1361 07d2 B4070000 		.4byte	0x7b4
 1362 07d6 0B       		.uleb128 0xb
 1363 07d7 CA070000 		.4byte	0x7ca
 1364 07db 03       		.uleb128 0x3
 1365 07dc D6070000 		.4byte	0x7d6
 1366 07e0 03       		.uleb128 0x3
 1367 07e1 0E060000 		.4byte	0x60e
 1368 07e5 15       		.uleb128 0x15
ARM GAS  /tmp/ccbiXgpG.s 			page 25


 1369 07e6 DC010000 		.4byte	.LASF121
 1370 07ea 0E       		.byte	0xe
 1371 07eb A6       		.byte	0xa6
 1372 07ec 12       		.byte	0x12
 1373 07ed D4060000 		.4byte	0x6d4
 1374 07f1 10       		.uleb128 0x10
 1375 07f2 58000000 		.4byte	0x58
 1376 07f6 0F       		.byte	0xf
 1377 07f7 5D       		.byte	0x5d
 1378 07f8 0F080000 		.4byte	0x80f
 1379 07fc 06       		.uleb128 0x6
 1380 07fd 5A050000 		.4byte	.LASF113
 1381 0801 00       		.byte	0
 1382 0802 06       		.uleb128 0x6
 1383 0803 DB000000 		.4byte	.LASF114
 1384 0807 01       		.byte	0x1
 1385 0808 06       		.uleb128 0x6
 1386 0809 46060000 		.4byte	.LASF115
 1387 080d 02       		.byte	0x2
 1388 080e 00       		.byte	0
 1389 080f 02       		.uleb128 0x2
 1390 0810 79050000 		.4byte	.LASF116
 1391 0814 0F       		.byte	0xf
 1392 0815 61       		.byte	0x61
 1393 0816 03       		.byte	0x3
 1394 0817 F1070000 		.4byte	0x7f1
 1395 081b 02       		.uleb128 0x2
 1396 081c 92050000 		.4byte	.LASF117
 1397 0820 0F       		.byte	0xf
 1398 0821 66       		.byte	0x66
 1399 0822 1D       		.byte	0x1d
 1400 0823 27080000 		.4byte	0x827
 1401 0827 07       		.uleb128 0x7
 1402 0828 92050000 		.4byte	.LASF117
 1403 082c 74       		.byte	0x74
 1404 082d 0F       		.byte	0xf
 1405 082e 80       		.byte	0x80
 1406 082f 08       		.byte	0x8
 1407 0830 8E080000 		.4byte	0x88e
 1408 0834 05       		.uleb128 0x5
 1409 0835 766D7400 		.ascii	"vmt\000"
 1410 0839 0F       		.byte	0xf
 1411 083a 82       		.byte	0x82
 1412 083b 21       		.byte	0x21
 1413 083c 15090000 		.4byte	0x915
 1414 0840 00       		.byte	0
 1415 0841 01       		.uleb128 0x1
 1416 0842 65020000 		.4byte	.LASF118
 1417 0846 0F       		.byte	0xf
 1418 0847 83       		.byte	0x83
 1419 0848 03       		.byte	0x3
 1420 0849 18040000 		.4byte	0x418
 1421 084d 04       		.byte	0x4
 1422 084e 01       		.uleb128 0x1
 1423 084f 0A010000 		.4byte	.LASF96
 1424 0853 0F       		.byte	0xf
 1425 0854 83       		.byte	0x83
ARM GAS  /tmp/ccbiXgpG.s 			page 26


 1426 0855 03       		.byte	0x3
 1427 0856 0F080000 		.4byte	0x80f
 1428 085a 08       		.byte	0x8
 1429 085b 01       		.uleb128 0x1
 1430 085c 2A020000 		.4byte	.LASF119
 1431 0860 0F       		.byte	0xf
 1432 0861 83       		.byte	0x83
 1433 0862 03       		.byte	0x3
 1434 0863 2C050000 		.4byte	0x52c
 1435 0867 0C       		.byte	0xc
 1436 0868 01       		.uleb128 0x1
 1437 0869 96020000 		.4byte	.LASF120
 1438 086d 0F       		.byte	0xf
 1439 086e 83       		.byte	0x83
 1440 086f 03       		.byte	0x3
 1441 0870 38050000 		.4byte	0x538
 1442 0874 30       		.byte	0x30
 1443 0875 05       		.uleb128 0x5
 1444 0876 696200   		.ascii	"ib\000"
 1445 0879 0F       		.byte	0xf
 1446 087a 83       		.byte	0x83
 1447 087b 03       		.byte	0x3
 1448 087c 1A090000 		.4byte	0x91a
 1449 0880 54       		.byte	0x54
 1450 0881 05       		.uleb128 0x5
 1451 0882 6F6200   		.ascii	"ob\000"
 1452 0885 0F       		.byte	0xf
 1453 0886 83       		.byte	0x83
 1454 0887 03       		.byte	0x3
 1455 0888 1A090000 		.4byte	0x91a
 1456 088c 64       		.byte	0x64
 1457 088d 00       		.byte	0
 1458 088e 1C       		.uleb128 0x1c
 1459 088f 53443100 		.ascii	"SD1\000"
 1460 0893 12       		.byte	0x12
 1461 0894 62       		.byte	0x62
 1462 0895 15       		.byte	0x15
 1463 0896 1B080000 		.4byte	0x81b
 1464 089a 07       		.uleb128 0x7
 1465 089b 00020000 		.4byte	.LASF122
 1466 089f 20       		.byte	0x20
 1467 08a0 0F       		.byte	0xf
 1468 08a1 75       		.byte	0x75
 1469 08a2 08       		.byte	0x8
 1470 08a3 10090000 		.4byte	0x910
 1471 08a7 01       		.uleb128 0x1
 1472 08a8 EA020000 		.4byte	.LASF123
 1473 08ac 0F       		.byte	0xf
 1474 08ad 76       		.byte	0x76
 1475 08ae 03       		.byte	0x3
 1476 08af 62050000 		.4byte	0x562
 1477 08b3 00       		.byte	0
 1478 08b4 01       		.uleb128 0x1
 1479 08b5 AD050000 		.4byte	.LASF124
 1480 08b9 0F       		.byte	0xf
 1481 08ba 76       		.byte	0x76
 1482 08bb 03       		.byte	0x3
ARM GAS  /tmp/ccbiXgpG.s 			page 27


 1483 08bc 80050000 		.4byte	0x580
 1484 08c0 04       		.byte	0x4
 1485 08c1 05       		.uleb128 0x5
 1486 08c2 70757400 		.ascii	"put\000"
 1487 08c6 0F       		.byte	0xf
 1488 08c7 76       		.byte	0x76
 1489 08c8 03       		.byte	0x3
 1490 08c9 99050000 		.4byte	0x599
 1491 08cd 08       		.byte	0x8
 1492 08ce 05       		.uleb128 0x5
 1493 08cf 67657400 		.ascii	"get\000"
 1494 08d3 0F       		.byte	0xf
 1495 08d4 76       		.byte	0x76
 1496 08d5 03       		.byte	0x3
 1497 08d6 70040000 		.4byte	0x470
 1498 08da 0C       		.byte	0xc
 1499 08db 01       		.uleb128 0x1
 1500 08dc F8020000 		.4byte	.LASF125
 1501 08e0 0F       		.byte	0xf
 1502 08e1 76       		.byte	0x76
 1503 08e2 03       		.byte	0x3
 1504 08e3 34060000 		.4byte	0x634
 1505 08e7 10       		.byte	0x10
 1506 08e8 01       		.uleb128 0x1
 1507 08e9 4B020000 		.4byte	.LASF126
 1508 08ed 0F       		.byte	0xf
 1509 08ee 76       		.byte	0x76
 1510 08ef 03       		.byte	0x3
 1511 08f0 4D060000 		.4byte	0x64d
 1512 08f4 14       		.byte	0x14
 1513 08f5 01       		.uleb128 0x1
 1514 08f6 A5020000 		.4byte	.LASF127
 1515 08fa 0F       		.byte	0xf
 1516 08fb 76       		.byte	0x76
 1517 08fc 03       		.byte	0x3
 1518 08fd 70060000 		.4byte	0x670
 1519 0901 18       		.byte	0x18
 1520 0902 01       		.uleb128 0x1
 1521 0903 93000000 		.4byte	.LASF128
 1522 0907 0F       		.byte	0xf
 1523 0908 76       		.byte	0x76
 1524 0909 03       		.byte	0x3
 1525 090a 93060000 		.4byte	0x693
 1526 090e 1C       		.byte	0x1c
 1527 090f 00       		.byte	0
 1528 0910 0B       		.uleb128 0xb
 1529 0911 9A080000 		.4byte	0x89a
 1530 0915 03       		.uleb128 0x3
 1531 0916 10090000 		.4byte	0x910
 1532 091a 1D       		.uleb128 0x1d
 1533 091b AD000000 		.4byte	0xad
 1534 091f 2A090000 		.4byte	0x92a
 1535 0923 1E       		.uleb128 0x1e
 1536 0924 39000000 		.4byte	0x39
 1537 0928 0F       		.byte	0xf
 1538 0929 00       		.byte	0
 1539 092a 10       		.uleb128 0x10
ARM GAS  /tmp/ccbiXgpG.s 			page 28


 1540 092b 58000000 		.4byte	0x58
 1541 092f 10       		.byte	0x10
 1542 0930 4E       		.byte	0x4e
 1543 0931 54090000 		.4byte	0x954
 1544 0935 06       		.uleb128 0x6
 1545 0936 59060000 		.4byte	.LASF129
 1546 093a 00       		.byte	0
 1547 093b 06       		.uleb128 0x6
 1548 093c C4000000 		.4byte	.LASF130
 1549 0940 01       		.byte	0x1
 1550 0941 06       		.uleb128 0x6
 1551 0942 4F060000 		.4byte	.LASF131
 1552 0946 02       		.byte	0x2
 1553 0947 06       		.uleb128 0x6
 1554 0948 37000000 		.4byte	.LASF132
 1555 094c 03       		.byte	0x3
 1556 094d 06       		.uleb128 0x6
 1557 094e B7050000 		.4byte	.LASF133
 1558 0952 04       		.byte	0x4
 1559 0953 00       		.byte	0
 1560 0954 02       		.uleb128 0x2
 1561 0955 D6050000 		.4byte	.LASF134
 1562 0959 10       		.byte	0x10
 1563 095a 54       		.byte	0x54
 1564 095b 03       		.byte	0x3
 1565 095c 2A090000 		.4byte	0x92a
 1566 0960 02       		.uleb128 0x2
 1567 0961 79000000 		.4byte	.LASF135
 1568 0965 11       		.byte	0x11
 1569 0966 35       		.byte	0x35
 1570 0967 1A       		.byte	0x1a
 1571 0968 6C090000 		.4byte	0x96c
 1572 096c 07       		.uleb128 0x7
 1573 096d 79000000 		.4byte	.LASF135
 1574 0971 28       		.byte	0x28
 1575 0972 11       		.byte	0x11
 1576 0973 7C       		.byte	0x7c
 1577 0974 08       		.byte	0x8
 1578 0975 D5090000 		.4byte	0x9d5
 1579 0979 01       		.uleb128 0x1
 1580 097a 0A010000 		.4byte	.LASF96
 1581 097e 11       		.byte	0x11
 1582 097f 80       		.byte	0x80
 1583 0980 19       		.byte	0x19
 1584 0981 54090000 		.4byte	0x954
 1585 0985 00       		.byte	0
 1586 0986 01       		.uleb128 0x1
 1587 0987 C4050000 		.4byte	.LASF97
 1588 098b 11       		.byte	0x11
 1589 098c 84       		.byte	0x84
 1590 098d 1A       		.byte	0x1a
 1591 098e 850A0000 		.4byte	0xa85
 1592 0992 04       		.byte	0x4
 1593 0993 01       		.uleb128 0x1
 1594 0994 22010000 		.4byte	.LASF101
 1595 0998 11       		.byte	0x11
 1596 0999 89       		.byte	0x89
ARM GAS  /tmp/ccbiXgpG.s 			page 29


 1597 099a 1A       		.byte	0x1a
 1598 099b 87020000 		.4byte	0x287
 1599 099f 08       		.byte	0x8
 1600 09a0 01       		.uleb128 0x1
 1601 09a1 AB040000 		.4byte	.LASF100
 1602 09a5 11       		.byte	0x11
 1603 09a6 90       		.byte	0x90
 1604 09a7 19       		.byte	0x19
 1605 09a8 9E030000 		.4byte	0x39e
 1606 09ac 0C       		.byte	0xc
 1607 09ad 01       		.uleb128 0x1
 1608 09ae 4E000000 		.4byte	.LASF106
 1609 09b2 11       		.byte	0x11
 1610 09b3 98       		.byte	0x98
 1611 09b4 1A       		.byte	0x1a
 1612 09b5 C6020000 		.4byte	0x2c6
 1613 09b9 1C       		.byte	0x1c
 1614 09ba 01       		.uleb128 0x1
 1615 09bb FA010000 		.4byte	.LASF103
 1616 09bf 11       		.byte	0x11
 1617 09c0 9D       		.byte	0x9d
 1618 09c1 1A       		.byte	0x1a
 1619 09c2 8A0A0000 		.4byte	0xa8a
 1620 09c6 20       		.byte	0x20
 1621 09c7 01       		.uleb128 0x1
 1622 09c8 68010000 		.4byte	.LASF136
 1623 09cc 11       		.byte	0x11
 1624 09cd A2       		.byte	0xa2
 1625 09ce 17       		.byte	0x17
 1626 09cf 2D000000 		.4byte	0x2d
 1627 09d3 24       		.byte	0x24
 1628 09d4 00       		.byte	0
 1629 09d5 02       		.uleb128 0x2
 1630 09d6 CE010000 		.4byte	.LASF137
 1631 09da 11       		.byte	0x11
 1632 09db 3D       		.byte	0x3d
 1633 09dc 10       		.byte	0x10
 1634 09dd E1090000 		.4byte	0x9e1
 1635 09e1 03       		.uleb128 0x3
 1636 09e2 E6090000 		.4byte	0x9e6
 1637 09e6 14       		.uleb128 0x14
 1638 09e7 F1090000 		.4byte	0x9f1
 1639 09eb 04       		.uleb128 0x4
 1640 09ec F1090000 		.4byte	0x9f1
 1641 09f0 00       		.byte	0
 1642 09f1 03       		.uleb128 0x3
 1643 09f2 60090000 		.4byte	0x960
 1644 09f6 0C       		.uleb128 0xc
 1645 09f7 10       		.byte	0x10
 1646 09f8 11       		.byte	0x11
 1647 09f9 44       		.byte	0x44
 1648 09fa 740A0000 		.4byte	0xa74
 1649 09fe 01       		.uleb128 0x1
 1650 09ff 61010000 		.4byte	.LASF138
 1651 0a03 11       		.byte	0x11
 1652 0a04 48       		.byte	0x48
 1653 0a05 19       		.byte	0x19
ARM GAS  /tmp/ccbiXgpG.s 			page 30


 1654 0a06 D5090000 		.4byte	0x9d5
 1655 0a0a 00       		.byte	0
 1656 0a0b 01       		.uleb128 0x1
 1657 0a0c 53040000 		.4byte	.LASF139
 1658 0a10 11       		.byte	0x11
 1659 0a11 4F       		.byte	0x4f
 1660 0a12 19       		.byte	0x19
 1661 0a13 AD000000 		.4byte	0xad
 1662 0a17 04       		.byte	0x4
 1663 0a18 01       		.uleb128 0x1
 1664 0a19 60040000 		.4byte	.LASF140
 1665 0a1d 11       		.byte	0x11
 1666 0a1e 52       		.byte	0x52
 1667 0a1f 19       		.byte	0x19
 1668 0a20 AD000000 		.4byte	0xad
 1669 0a24 05       		.byte	0x5
 1670 0a25 01       		.uleb128 0x1
 1671 0a26 50020000 		.4byte	.LASF141
 1672 0a2a 11       		.byte	0x11
 1673 0a2b 58       		.byte	0x58
 1674 0a2c 19       		.byte	0x19
 1675 0a2d AD000000 		.4byte	0xad
 1676 0a31 06       		.byte	0x6
 1677 0a32 01       		.uleb128 0x1
 1678 0a33 6E010000 		.4byte	.LASF142
 1679 0a37 11       		.byte	0x11
 1680 0a38 5E       		.byte	0x5e
 1681 0a39 19       		.byte	0x19
 1682 0a3a AD000000 		.4byte	0xad
 1683 0a3e 07       		.byte	0x7
 1684 0a3f 01       		.uleb128 0x1
 1685 0a40 84010000 		.4byte	.LASF143
 1686 0a44 11       		.byte	0x11
 1687 0a45 64       		.byte	0x64
 1688 0a46 19       		.byte	0x19
 1689 0a47 AD000000 		.4byte	0xad
 1690 0a4b 08       		.byte	0x8
 1691 0a4c 01       		.uleb128 0x1
 1692 0a4d 18060000 		.4byte	.LASF144
 1693 0a51 11       		.byte	0x11
 1694 0a52 6A       		.byte	0x6a
 1695 0a53 19       		.byte	0x19
 1696 0a54 AD000000 		.4byte	0xad
 1697 0a58 09       		.byte	0x9
 1698 0a59 01       		.uleb128 0x1
 1699 0a5a 6D050000 		.4byte	.LASF145
 1700 0a5e 11       		.byte	0x11
 1701 0a5f 70       		.byte	0x70
 1702 0a60 19       		.byte	0x19
 1703 0a61 AD000000 		.4byte	0xad
 1704 0a65 0A       		.byte	0xa
 1705 0a66 01       		.uleb128 0x1
 1706 0a67 1F050000 		.4byte	.LASF146
 1707 0a6b 11       		.byte	0x11
 1708 0a6c 73       		.byte	0x73
 1709 0a6d 19       		.byte	0x19
 1710 0a6e D6000000 		.4byte	0xd6
ARM GAS  /tmp/ccbiXgpG.s 			page 31


 1711 0a72 0C       		.byte	0xc
 1712 0a73 00       		.byte	0
 1713 0a74 02       		.uleb128 0x2
 1714 0a75 E1060000 		.4byte	.LASF147
 1715 0a79 11       		.byte	0x11
 1716 0a7a 75       		.byte	0x75
 1717 0a7b 03       		.byte	0x3
 1718 0a7c F6090000 		.4byte	0x9f6
 1719 0a80 0B       		.uleb128 0xb
 1720 0a81 740A0000 		.4byte	0xa74
 1721 0a85 03       		.uleb128 0x3
 1722 0a86 800A0000 		.4byte	0xa80
 1723 0a8a 03       		.uleb128 0x3
 1724 0a8b 8F0A0000 		.4byte	0xa8f
 1725 0a8f 1F       		.uleb128 0x1f
 1726 0a90 15       		.uleb128 0x15
 1727 0a91 46040000 		.4byte	.LASF148
 1728 0a95 11       		.byte	0x11
 1729 0a96 B6       		.byte	0xb6
 1730 0a97 14       		.byte	0x14
 1731 0a98 60090000 		.4byte	0x960
 1732 0a9c 20       		.uleb128 0x20
 1733 0a9d 17020000 		.4byte	.LASF165
 1734 0aa1 13       		.byte	0x13
 1735 0aa2 F0       		.byte	0xf0
 1736 0aa3 08       		.byte	0x8
 1737 0aa4 11       		.uleb128 0x11
 1738 0aa5 A5060000 		.4byte	.LASF149
 1739 0aa9 11       		.byte	0x11
 1740 0aaa C4       		.byte	0xc4
 1741 0aab B50A0000 		.4byte	0xab5
 1742 0aaf 04       		.uleb128 0x4
 1743 0ab0 F1090000 		.4byte	0x9f1
 1744 0ab4 00       		.byte	0
 1745 0ab5 11       		.uleb128 0x11
 1746 0ab6 02070000 		.4byte	.LASF150
 1747 0aba 0E       		.byte	0xe
 1748 0abb B8       		.byte	0xb8
 1749 0abc C60A0000 		.4byte	0xac6
 1750 0ac0 04       		.uleb128 0x4
 1751 0ac1 AF070000 		.4byte	0x7af
 1752 0ac5 00       		.byte	0
 1753 0ac6 11       		.uleb128 0x11
 1754 0ac7 EB060000 		.4byte	.LASF151
 1755 0acb 12       		.byte	0x12
 1756 0acc 6B       		.byte	0x6b
 1757 0acd D70A0000 		.4byte	0xad7
 1758 0ad1 04       		.uleb128 0x4
 1759 0ad2 D70A0000 		.4byte	0xad7
 1760 0ad6 00       		.byte	0
 1761 0ad7 03       		.uleb128 0x3
 1762 0ad8 1B080000 		.4byte	0x81b
 1763 0adc 21       		.uleb128 0x21
 1764 0add 38050000 		.4byte	.LASF166
 1765 0ae1 01       		.byte	0x1
 1766 0ae2 A4       		.byte	0xa4
 1767 0ae3 0A       		.byte	0xa
ARM GAS  /tmp/ccbiXgpG.s 			page 32


 1768 0ae4 D6000000 		.4byte	0xd6
 1769 0ae8 00000000 		.4byte	.LFB14
 1770 0aec 18000000 		.4byte	.LFE14-.LFB14
 1771 0af0 01       		.uleb128 0x1
 1772 0af1 9C       		.byte	0x9c
 1773 0af2 22       		.uleb128 0x22
 1774 0af3 BC030000 		.4byte	.LASF167
 1775 0af7 01       		.byte	0x1
 1776 0af8 9C       		.byte	0x9c
 1777 0af9 06       		.byte	0x6
 1778 0afa 00000000 		.4byte	.LFB13
 1779 0afe 18000000 		.4byte	.LFE13-.LFB13
 1780 0b02 01       		.uleb128 0x1
 1781 0b03 9C       		.byte	0x9c
 1782 0b04 0E       		.uleb128 0xe
 1783 0b05 83050000 		.4byte	.LASF154
 1784 0b09 8D       		.byte	0x8d
 1785 0b0a 06       		.byte	0x6
 1786 0b0b 00000000 		.4byte	.LFB12
 1787 0b0f 34000000 		.4byte	.LFE12-.LFB12
 1788 0b13 01       		.uleb128 0x1
 1789 0b14 9C       		.byte	0x9c
 1790 0b15 540B0000 		.4byte	0xb54
 1791 0b19 23       		.uleb128 0x23
 1792 0b1a 43020000 		.4byte	.LASF157
 1793 0b1e 01       		.byte	0x1
 1794 0b1f 8D       		.byte	0x8d
 1795 0b20 20       		.byte	0x20
 1796 0b21 D6000000 		.4byte	0xd6
 1797 0b25 10000000 		.4byte	.LLST4
 1798 0b29 0C000000 		.4byte	.LVUS4
 1799 0b2d 12       		.uleb128 0x12
 1800 0b2e 3E070000 		.4byte	.LASF152
 1801 0b32 90       		.byte	0x90
 1802 0b33 0E       		.byte	0xe
 1803 0b34 D6000000 		.4byte	0xd6
 1804 0b38 27000000 		.4byte	.LLST5
 1805 0b3c 23000000 		.4byte	.LVUS5
 1806 0b40 12       		.uleb128 0x12
 1807 0b41 F0020000 		.4byte	.LASF153
 1808 0b45 93       		.byte	0x93
 1809 0b46 0E       		.byte	0xe
 1810 0b47 D6000000 		.4byte	0xd6
 1811 0b4b 39000000 		.4byte	.LLST6
 1812 0b4f 37000000 		.4byte	.LVUS6
 1813 0b53 00       		.byte	0
 1814 0b54 0E       		.uleb128 0xe
 1815 0b55 27060000 		.4byte	.LASF155
 1816 0b59 86       		.byte	0x86
 1817 0b5a 06       		.byte	0x6
 1818 0b5b 00000000 		.4byte	.LFB11
 1819 0b5f 50000000 		.4byte	.LFE11-.LFB11
 1820 0b63 01       		.uleb128 0x1
 1821 0b64 9C       		.byte	0x9c
 1822 0b65 7B0B0000 		.4byte	0xb7b
 1823 0b69 24       		.uleb128 0x24
 1824 0b6a 0C0C0000 		.4byte	0xc0c
ARM GAS  /tmp/ccbiXgpG.s 			page 33


 1825 0b6e 00000000 		.4byte	.LBI10
 1826 0b72 02       		.byte	.LVU36
 1827 0b73 18000000 		.4byte	.LLRL3
 1828 0b77 01       		.byte	0x1
 1829 0b78 87       		.byte	0x87
 1830 0b79 03       		.byte	0x3
 1831 0b7a 00       		.byte	0
 1832 0b7b 0E       		.uleb128 0xe
 1833 0b7c 25070000 		.4byte	.LASF156
 1834 0b80 7B       		.byte	0x7b
 1835 0b81 06       		.byte	0x6
 1836 0b82 00000000 		.4byte	.LFB10
 1837 0b86 20000000 		.4byte	.LFE10-.LFB10
 1838 0b8a 01       		.uleb128 0x1
 1839 0b8b 9C       		.byte	0x9c
 1840 0b8c B60B0000 		.4byte	0xbb6
 1841 0b90 25       		.uleb128 0x25
 1842 0b91 6E00     		.ascii	"n\000"
 1843 0b93 01       		.byte	0x1
 1844 0b94 7B       		.byte	0x7b
 1845 0b95 21       		.byte	0x21
 1846 0b96 D6000000 		.4byte	0xd6
 1847 0b9a 46000000 		.4byte	.LLST1
 1848 0b9e 42000000 		.4byte	.LVUS1
 1849 0ba2 12       		.uleb128 0x12
 1850 0ba3 FD030000 		.4byte	.LASF158
 1851 0ba7 7D       		.byte	0x7d
 1852 0ba8 0C       		.byte	0xc
 1853 0ba9 D6000000 		.4byte	0xd6
 1854 0bad 5B000000 		.4byte	.LLST2
 1855 0bb1 59000000 		.4byte	.LVUS2
 1856 0bb5 00       		.byte	0
 1857 0bb6 0E       		.uleb128 0xe
 1858 0bb7 C3010000 		.4byte	.LASF159
 1859 0bbb 5A       		.byte	0x5a
 1860 0bbc 01       		.byte	0x1
 1861 0bbd 00000000 		.4byte	.LFB9
 1862 0bc1 40000000 		.4byte	.LFE9-.LFB9
 1863 0bc5 01       		.uleb128 0x1
 1864 0bc6 9C       		.byte	0x9c
 1865 0bc7 060C0000 		.4byte	0xc06
 1866 0bcb 26       		.uleb128 0x26
 1867 0bcc 060C0000 		.4byte	0xc06
 1868 0bd0 04000000 		.4byte	.LBI4
 1869 0bd4 04       		.byte	.LVU6
 1870 0bd5 0C000000 		.4byte	.LLRL0
 1871 0bd9 01       		.byte	0x1
 1872 0bda 5E       		.byte	0x5e
 1873 0bdb 03       		.byte	0x3
 1874 0bdc EA0B0000 		.4byte	0xbea
 1875 0be0 0F       		.uleb128 0xf
 1876 0be1 08000000 		.4byte	.LVL0
 1877 0be5 9C0A0000 		.4byte	0xa9c
 1878 0be9 00       		.byte	0
 1879 0bea 0F       		.uleb128 0xf
 1880 0beb 1C000000 		.4byte	.LVL1
 1881 0bef C60A0000 		.4byte	0xac6
ARM GAS  /tmp/ccbiXgpG.s 			page 34


 1882 0bf3 0F       		.uleb128 0xf
 1883 0bf4 24000000 		.4byte	.LVL2
 1884 0bf8 B50A0000 		.4byte	0xab5
 1885 0bfc 0F       		.uleb128 0xf
 1886 0bfd 2C000000 		.4byte	.LVL3
 1887 0c01 A40A0000 		.4byte	0xaa4
 1888 0c05 00       		.byte	0
 1889 0c06 16       		.uleb128 0x16
 1890 0c07 46070000 		.4byte	.LASF160
 1891 0c0b 47       		.byte	0x47
 1892 0c0c 16       		.uleb128 0x16
 1893 0c0d CD000000 		.4byte	.LASF161
 1894 0c11 35       		.byte	0x35
 1895 0c12 00       		.byte	0
 1896              		.section	.debug_abbrev,"",%progbits
 1897              	.Ldebug_abbrev0:
 1898 0000 01       		.uleb128 0x1
 1899 0001 0D       		.uleb128 0xd
 1900 0002 00       		.byte	0
 1901 0003 03       		.uleb128 0x3
 1902 0004 0E       		.uleb128 0xe
 1903 0005 3A       		.uleb128 0x3a
 1904 0006 0B       		.uleb128 0xb
 1905 0007 3B       		.uleb128 0x3b
 1906 0008 0B       		.uleb128 0xb
 1907 0009 39       		.uleb128 0x39
 1908 000a 0B       		.uleb128 0xb
 1909 000b 49       		.uleb128 0x49
 1910 000c 13       		.uleb128 0x13
 1911 000d 38       		.uleb128 0x38
 1912 000e 0B       		.uleb128 0xb
 1913 000f 00       		.byte	0
 1914 0010 00       		.byte	0
 1915 0011 02       		.uleb128 0x2
 1916 0012 16       		.uleb128 0x16
 1917 0013 00       		.byte	0
 1918 0014 03       		.uleb128 0x3
 1919 0015 0E       		.uleb128 0xe
 1920 0016 3A       		.uleb128 0x3a
 1921 0017 0B       		.uleb128 0xb
 1922 0018 3B       		.uleb128 0x3b
 1923 0019 0B       		.uleb128 0xb
 1924 001a 39       		.uleb128 0x39
 1925 001b 0B       		.uleb128 0xb
 1926 001c 49       		.uleb128 0x49
 1927 001d 13       		.uleb128 0x13
 1928 001e 00       		.byte	0
 1929 001f 00       		.byte	0
 1930 0020 03       		.uleb128 0x3
 1931 0021 0F       		.uleb128 0xf
 1932 0022 00       		.byte	0
 1933 0023 0B       		.uleb128 0xb
 1934 0024 21       		.uleb128 0x21
 1935 0025 04       		.sleb128 4
 1936 0026 49       		.uleb128 0x49
 1937 0027 13       		.uleb128 0x13
 1938 0028 00       		.byte	0
ARM GAS  /tmp/ccbiXgpG.s 			page 35


 1939 0029 00       		.byte	0
 1940 002a 04       		.uleb128 0x4
 1941 002b 05       		.uleb128 0x5
 1942 002c 00       		.byte	0
 1943 002d 49       		.uleb128 0x49
 1944 002e 13       		.uleb128 0x13
 1945 002f 00       		.byte	0
 1946 0030 00       		.byte	0
 1947 0031 05       		.uleb128 0x5
 1948 0032 0D       		.uleb128 0xd
 1949 0033 00       		.byte	0
 1950 0034 03       		.uleb128 0x3
 1951 0035 08       		.uleb128 0x8
 1952 0036 3A       		.uleb128 0x3a
 1953 0037 0B       		.uleb128 0xb
 1954 0038 3B       		.uleb128 0x3b
 1955 0039 0B       		.uleb128 0xb
 1956 003a 39       		.uleb128 0x39
 1957 003b 0B       		.uleb128 0xb
 1958 003c 49       		.uleb128 0x49
 1959 003d 13       		.uleb128 0x13
 1960 003e 38       		.uleb128 0x38
 1961 003f 0B       		.uleb128 0xb
 1962 0040 00       		.byte	0
 1963 0041 00       		.byte	0
 1964 0042 06       		.uleb128 0x6
 1965 0043 28       		.uleb128 0x28
 1966 0044 00       		.byte	0
 1967 0045 03       		.uleb128 0x3
 1968 0046 0E       		.uleb128 0xe
 1969 0047 1C       		.uleb128 0x1c
 1970 0048 0B       		.uleb128 0xb
 1971 0049 00       		.byte	0
 1972 004a 00       		.byte	0
 1973 004b 07       		.uleb128 0x7
 1974 004c 13       		.uleb128 0x13
 1975 004d 01       		.byte	0x1
 1976 004e 03       		.uleb128 0x3
 1977 004f 0E       		.uleb128 0xe
 1978 0050 0B       		.uleb128 0xb
 1979 0051 0B       		.uleb128 0xb
 1980 0052 3A       		.uleb128 0x3a
 1981 0053 0B       		.uleb128 0xb
 1982 0054 3B       		.uleb128 0x3b
 1983 0055 0B       		.uleb128 0xb
 1984 0056 39       		.uleb128 0x39
 1985 0057 0B       		.uleb128 0xb
 1986 0058 01       		.uleb128 0x1
 1987 0059 13       		.uleb128 0x13
 1988 005a 00       		.byte	0
 1989 005b 00       		.byte	0
 1990 005c 08       		.uleb128 0x8
 1991 005d 24       		.uleb128 0x24
 1992 005e 00       		.byte	0
 1993 005f 0B       		.uleb128 0xb
 1994 0060 0B       		.uleb128 0xb
 1995 0061 3E       		.uleb128 0x3e
ARM GAS  /tmp/ccbiXgpG.s 			page 36


 1996 0062 0B       		.uleb128 0xb
 1997 0063 03       		.uleb128 0x3
 1998 0064 0E       		.uleb128 0xe
 1999 0065 00       		.byte	0
 2000 0066 00       		.byte	0
 2001 0067 09       		.uleb128 0x9
 2002 0068 15       		.uleb128 0x15
 2003 0069 01       		.byte	0x1
 2004 006a 27       		.uleb128 0x27
 2005 006b 19       		.uleb128 0x19
 2006 006c 49       		.uleb128 0x49
 2007 006d 13       		.uleb128 0x13
 2008 006e 01       		.uleb128 0x1
 2009 006f 13       		.uleb128 0x13
 2010 0070 00       		.byte	0
 2011 0071 00       		.byte	0
 2012 0072 0A       		.uleb128 0xa
 2013 0073 0D       		.uleb128 0xd
 2014 0074 00       		.byte	0
 2015 0075 03       		.uleb128 0x3
 2016 0076 0E       		.uleb128 0xe
 2017 0077 3A       		.uleb128 0x3a
 2018 0078 21       		.uleb128 0x21
 2019 0079 0C       		.sleb128 12
 2020 007a 3B       		.uleb128 0x3b
 2021 007b 05       		.uleb128 0x5
 2022 007c 39       		.uleb128 0x39
 2023 007d 21       		.uleb128 0x21
 2024 007e 19       		.sleb128 25
 2025 007f 49       		.uleb128 0x49
 2026 0080 13       		.uleb128 0x13
 2027 0081 38       		.uleb128 0x38
 2028 0082 0B       		.uleb128 0xb
 2029 0083 00       		.byte	0
 2030 0084 00       		.byte	0
 2031 0085 0B       		.uleb128 0xb
 2032 0086 26       		.uleb128 0x26
 2033 0087 00       		.byte	0
 2034 0088 49       		.uleb128 0x49
 2035 0089 13       		.uleb128 0x13
 2036 008a 00       		.byte	0
 2037 008b 00       		.byte	0
 2038 008c 0C       		.uleb128 0xc
 2039 008d 13       		.uleb128 0x13
 2040 008e 01       		.byte	0x1
 2041 008f 0B       		.uleb128 0xb
 2042 0090 0B       		.uleb128 0xb
 2043 0091 3A       		.uleb128 0x3a
 2044 0092 0B       		.uleb128 0xb
 2045 0093 3B       		.uleb128 0x3b
 2046 0094 0B       		.uleb128 0xb
 2047 0095 39       		.uleb128 0x39
 2048 0096 21       		.uleb128 0x21
 2049 0097 09       		.sleb128 9
 2050 0098 01       		.uleb128 0x1
 2051 0099 13       		.uleb128 0x13
 2052 009a 00       		.byte	0
ARM GAS  /tmp/ccbiXgpG.s 			page 37


 2053 009b 00       		.byte	0
 2054 009c 0D       		.uleb128 0xd
 2055 009d 0D       		.uleb128 0xd
 2056 009e 00       		.byte	0
 2057 009f 03       		.uleb128 0x3
 2058 00a0 0E       		.uleb128 0xe
 2059 00a1 3A       		.uleb128 0x3a
 2060 00a2 21       		.uleb128 0x21
 2061 00a3 07       		.sleb128 7
 2062 00a4 3B       		.uleb128 0x3b
 2063 00a5 0B       		.uleb128 0xb
 2064 00a6 39       		.uleb128 0x39
 2065 00a7 0B       		.uleb128 0xb
 2066 00a8 49       		.uleb128 0x49
 2067 00a9 13       		.uleb128 0x13
 2068 00aa 00       		.byte	0
 2069 00ab 00       		.byte	0
 2070 00ac 0E       		.uleb128 0xe
 2071 00ad 2E       		.uleb128 0x2e
 2072 00ae 01       		.byte	0x1
 2073 00af 3F       		.uleb128 0x3f
 2074 00b0 19       		.uleb128 0x19
 2075 00b1 03       		.uleb128 0x3
 2076 00b2 0E       		.uleb128 0xe
 2077 00b3 3A       		.uleb128 0x3a
 2078 00b4 21       		.uleb128 0x21
 2079 00b5 01       		.sleb128 1
 2080 00b6 3B       		.uleb128 0x3b
 2081 00b7 0B       		.uleb128 0xb
 2082 00b8 39       		.uleb128 0x39
 2083 00b9 0B       		.uleb128 0xb
 2084 00ba 27       		.uleb128 0x27
 2085 00bb 19       		.uleb128 0x19
 2086 00bc 11       		.uleb128 0x11
 2087 00bd 01       		.uleb128 0x1
 2088 00be 12       		.uleb128 0x12
 2089 00bf 06       		.uleb128 0x6
 2090 00c0 40       		.uleb128 0x40
 2091 00c1 18       		.uleb128 0x18
 2092 00c2 7A       		.uleb128 0x7a
 2093 00c3 19       		.uleb128 0x19
 2094 00c4 01       		.uleb128 0x1
 2095 00c5 13       		.uleb128 0x13
 2096 00c6 00       		.byte	0
 2097 00c7 00       		.byte	0
 2098 00c8 0F       		.uleb128 0xf
 2099 00c9 48       		.uleb128 0x48
 2100 00ca 00       		.byte	0
 2101 00cb 7D       		.uleb128 0x7d
 2102 00cc 01       		.uleb128 0x1
 2103 00cd 7F       		.uleb128 0x7f
 2104 00ce 13       		.uleb128 0x13
 2105 00cf 00       		.byte	0
 2106 00d0 00       		.byte	0
 2107 00d1 10       		.uleb128 0x10
 2108 00d2 04       		.uleb128 0x4
 2109 00d3 01       		.byte	0x1
ARM GAS  /tmp/ccbiXgpG.s 			page 38


 2110 00d4 3E       		.uleb128 0x3e
 2111 00d5 21       		.uleb128 0x21
 2112 00d6 07       		.sleb128 7
 2113 00d7 0B       		.uleb128 0xb
 2114 00d8 21       		.uleb128 0x21
 2115 00d9 01       		.sleb128 1
 2116 00da 49       		.uleb128 0x49
 2117 00db 13       		.uleb128 0x13
 2118 00dc 3A       		.uleb128 0x3a
 2119 00dd 0B       		.uleb128 0xb
 2120 00de 3B       		.uleb128 0x3b
 2121 00df 0B       		.uleb128 0xb
 2122 00e0 39       		.uleb128 0x39
 2123 00e1 21       		.uleb128 0x21
 2124 00e2 0E       		.sleb128 14
 2125 00e3 01       		.uleb128 0x1
 2126 00e4 13       		.uleb128 0x13
 2127 00e5 00       		.byte	0
 2128 00e6 00       		.byte	0
 2129 00e7 11       		.uleb128 0x11
 2130 00e8 2E       		.uleb128 0x2e
 2131 00e9 01       		.byte	0x1
 2132 00ea 3F       		.uleb128 0x3f
 2133 00eb 19       		.uleb128 0x19
 2134 00ec 03       		.uleb128 0x3
 2135 00ed 0E       		.uleb128 0xe
 2136 00ee 3A       		.uleb128 0x3a
 2137 00ef 0B       		.uleb128 0xb
 2138 00f0 3B       		.uleb128 0x3b
 2139 00f1 0B       		.uleb128 0xb
 2140 00f2 39       		.uleb128 0x39
 2141 00f3 21       		.uleb128 0x21
 2142 00f4 08       		.sleb128 8
 2143 00f5 27       		.uleb128 0x27
 2144 00f6 19       		.uleb128 0x19
 2145 00f7 3C       		.uleb128 0x3c
 2146 00f8 19       		.uleb128 0x19
 2147 00f9 01       		.uleb128 0x1
 2148 00fa 13       		.uleb128 0x13
 2149 00fb 00       		.byte	0
 2150 00fc 00       		.byte	0
 2151 00fd 12       		.uleb128 0x12
 2152 00fe 34       		.uleb128 0x34
 2153 00ff 00       		.byte	0
 2154 0100 03       		.uleb128 0x3
 2155 0101 0E       		.uleb128 0xe
 2156 0102 3A       		.uleb128 0x3a
 2157 0103 21       		.uleb128 0x21
 2158 0104 01       		.sleb128 1
 2159 0105 3B       		.uleb128 0x3b
 2160 0106 0B       		.uleb128 0xb
 2161 0107 39       		.uleb128 0x39
 2162 0108 0B       		.uleb128 0xb
 2163 0109 49       		.uleb128 0x49
 2164 010a 13       		.uleb128 0x13
 2165 010b 02       		.uleb128 0x2
 2166 010c 17       		.uleb128 0x17
ARM GAS  /tmp/ccbiXgpG.s 			page 39


 2167 010d B742     		.uleb128 0x2137
 2168 010f 17       		.uleb128 0x17
 2169 0110 00       		.byte	0
 2170 0111 00       		.byte	0
 2171 0112 13       		.uleb128 0x13
 2172 0113 35       		.uleb128 0x35
 2173 0114 00       		.byte	0
 2174 0115 49       		.uleb128 0x49
 2175 0116 13       		.uleb128 0x13
 2176 0117 00       		.byte	0
 2177 0118 00       		.byte	0
 2178 0119 14       		.uleb128 0x14
 2179 011a 15       		.uleb128 0x15
 2180 011b 01       		.byte	0x1
 2181 011c 27       		.uleb128 0x27
 2182 011d 19       		.uleb128 0x19
 2183 011e 01       		.uleb128 0x1
 2184 011f 13       		.uleb128 0x13
 2185 0120 00       		.byte	0
 2186 0121 00       		.byte	0
 2187 0122 15       		.uleb128 0x15
 2188 0123 34       		.uleb128 0x34
 2189 0124 00       		.byte	0
 2190 0125 03       		.uleb128 0x3
 2191 0126 0E       		.uleb128 0xe
 2192 0127 3A       		.uleb128 0x3a
 2193 0128 0B       		.uleb128 0xb
 2194 0129 3B       		.uleb128 0x3b
 2195 012a 0B       		.uleb128 0xb
 2196 012b 39       		.uleb128 0x39
 2197 012c 0B       		.uleb128 0xb
 2198 012d 49       		.uleb128 0x49
 2199 012e 13       		.uleb128 0x13
 2200 012f 3F       		.uleb128 0x3f
 2201 0130 19       		.uleb128 0x19
 2202 0131 3C       		.uleb128 0x3c
 2203 0132 19       		.uleb128 0x19
 2204 0133 00       		.byte	0
 2205 0134 00       		.byte	0
 2206 0135 16       		.uleb128 0x16
 2207 0136 2E       		.uleb128 0x2e
 2208 0137 00       		.byte	0
 2209 0138 03       		.uleb128 0x3
 2210 0139 0E       		.uleb128 0xe
 2211 013a 3A       		.uleb128 0x3a
 2212 013b 21       		.uleb128 0x21
 2213 013c 01       		.sleb128 1
 2214 013d 3B       		.uleb128 0x3b
 2215 013e 0B       		.uleb128 0xb
 2216 013f 39       		.uleb128 0x39
 2217 0140 21       		.uleb128 0x21
 2218 0141 0D       		.sleb128 13
 2219 0142 27       		.uleb128 0x27
 2220 0143 19       		.uleb128 0x19
 2221 0144 20       		.uleb128 0x20
 2222 0145 21       		.uleb128 0x21
 2223 0146 01       		.sleb128 1
ARM GAS  /tmp/ccbiXgpG.s 			page 40


 2224 0147 00       		.byte	0
 2225 0148 00       		.byte	0
 2226 0149 17       		.uleb128 0x17
 2227 014a 11       		.uleb128 0x11
 2228 014b 01       		.byte	0x1
 2229 014c 25       		.uleb128 0x25
 2230 014d 0E       		.uleb128 0xe
 2231 014e 13       		.uleb128 0x13
 2232 014f 0B       		.uleb128 0xb
 2233 0150 03       		.uleb128 0x3
 2234 0151 0E       		.uleb128 0xe
 2235 0152 1B       		.uleb128 0x1b
 2236 0153 0E       		.uleb128 0xe
 2237 0154 55       		.uleb128 0x55
 2238 0155 17       		.uleb128 0x17
 2239 0156 11       		.uleb128 0x11
 2240 0157 01       		.uleb128 0x1
 2241 0158 10       		.uleb128 0x10
 2242 0159 17       		.uleb128 0x17
 2243 015a 00       		.byte	0
 2244 015b 00       		.byte	0
 2245 015c 18       		.uleb128 0x18
 2246 015d 24       		.uleb128 0x24
 2247 015e 00       		.byte	0
 2248 015f 0B       		.uleb128 0xb
 2249 0160 0B       		.uleb128 0xb
 2250 0161 3E       		.uleb128 0x3e
 2251 0162 0B       		.uleb128 0xb
 2252 0163 03       		.uleb128 0x3
 2253 0164 08       		.uleb128 0x8
 2254 0165 00       		.byte	0
 2255 0166 00       		.byte	0
 2256 0167 19       		.uleb128 0x19
 2257 0168 0F       		.uleb128 0xf
 2258 0169 00       		.byte	0
 2259 016a 0B       		.uleb128 0xb
 2260 016b 0B       		.uleb128 0xb
 2261 016c 00       		.byte	0
 2262 016d 00       		.byte	0
 2263 016e 1A       		.uleb128 0x1a
 2264 016f 17       		.uleb128 0x17
 2265 0170 01       		.byte	0x1
 2266 0171 0B       		.uleb128 0xb
 2267 0172 0B       		.uleb128 0xb
 2268 0173 3A       		.uleb128 0x3a
 2269 0174 0B       		.uleb128 0xb
 2270 0175 3B       		.uleb128 0x3b
 2271 0176 0B       		.uleb128 0xb
 2272 0177 39       		.uleb128 0x39
 2273 0178 0B       		.uleb128 0xb
 2274 0179 01       		.uleb128 0x1
 2275 017a 13       		.uleb128 0x13
 2276 017b 00       		.byte	0
 2277 017c 00       		.byte	0
 2278 017d 1B       		.uleb128 0x1b
 2279 017e 16       		.uleb128 0x16
 2280 017f 00       		.byte	0
ARM GAS  /tmp/ccbiXgpG.s 			page 41


 2281 0180 03       		.uleb128 0x3
 2282 0181 0E       		.uleb128 0xe
 2283 0182 3A       		.uleb128 0x3a
 2284 0183 0B       		.uleb128 0xb
 2285 0184 3B       		.uleb128 0x3b
 2286 0185 05       		.uleb128 0x5
 2287 0186 39       		.uleb128 0x39
 2288 0187 0B       		.uleb128 0xb
 2289 0188 49       		.uleb128 0x49
 2290 0189 13       		.uleb128 0x13
 2291 018a 00       		.byte	0
 2292 018b 00       		.byte	0
 2293 018c 1C       		.uleb128 0x1c
 2294 018d 34       		.uleb128 0x34
 2295 018e 00       		.byte	0
 2296 018f 03       		.uleb128 0x3
 2297 0190 08       		.uleb128 0x8
 2298 0191 3A       		.uleb128 0x3a
 2299 0192 0B       		.uleb128 0xb
 2300 0193 3B       		.uleb128 0x3b
 2301 0194 0B       		.uleb128 0xb
 2302 0195 39       		.uleb128 0x39
 2303 0196 0B       		.uleb128 0xb
 2304 0197 49       		.uleb128 0x49
 2305 0198 13       		.uleb128 0x13
 2306 0199 3F       		.uleb128 0x3f
 2307 019a 19       		.uleb128 0x19
 2308 019b 3C       		.uleb128 0x3c
 2309 019c 19       		.uleb128 0x19
 2310 019d 00       		.byte	0
 2311 019e 00       		.byte	0
 2312 019f 1D       		.uleb128 0x1d
 2313 01a0 01       		.uleb128 0x1
 2314 01a1 01       		.byte	0x1
 2315 01a2 49       		.uleb128 0x49
 2316 01a3 13       		.uleb128 0x13
 2317 01a4 01       		.uleb128 0x1
 2318 01a5 13       		.uleb128 0x13
 2319 01a6 00       		.byte	0
 2320 01a7 00       		.byte	0
 2321 01a8 1E       		.uleb128 0x1e
 2322 01a9 21       		.uleb128 0x21
 2323 01aa 00       		.byte	0
 2324 01ab 49       		.uleb128 0x49
 2325 01ac 13       		.uleb128 0x13
 2326 01ad 2F       		.uleb128 0x2f
 2327 01ae 0B       		.uleb128 0xb
 2328 01af 00       		.byte	0
 2329 01b0 00       		.byte	0
 2330 01b1 1F       		.uleb128 0x1f
 2331 01b2 26       		.uleb128 0x26
 2332 01b3 00       		.byte	0
 2333 01b4 00       		.byte	0
 2334 01b5 00       		.byte	0
 2335 01b6 20       		.uleb128 0x20
 2336 01b7 2E       		.uleb128 0x2e
 2337 01b8 00       		.byte	0
ARM GAS  /tmp/ccbiXgpG.s 			page 42


 2338 01b9 3F       		.uleb128 0x3f
 2339 01ba 19       		.uleb128 0x19
 2340 01bb 03       		.uleb128 0x3
 2341 01bc 0E       		.uleb128 0xe
 2342 01bd 3A       		.uleb128 0x3a
 2343 01be 0B       		.uleb128 0xb
 2344 01bf 3B       		.uleb128 0x3b
 2345 01c0 0B       		.uleb128 0xb
 2346 01c1 39       		.uleb128 0x39
 2347 01c2 0B       		.uleb128 0xb
 2348 01c3 27       		.uleb128 0x27
 2349 01c4 19       		.uleb128 0x19
 2350 01c5 3C       		.uleb128 0x3c
 2351 01c6 19       		.uleb128 0x19
 2352 01c7 00       		.byte	0
 2353 01c8 00       		.byte	0
 2354 01c9 21       		.uleb128 0x21
 2355 01ca 2E       		.uleb128 0x2e
 2356 01cb 00       		.byte	0
 2357 01cc 3F       		.uleb128 0x3f
 2358 01cd 19       		.uleb128 0x19
 2359 01ce 03       		.uleb128 0x3
 2360 01cf 0E       		.uleb128 0xe
 2361 01d0 3A       		.uleb128 0x3a
 2362 01d1 0B       		.uleb128 0xb
 2363 01d2 3B       		.uleb128 0x3b
 2364 01d3 0B       		.uleb128 0xb
 2365 01d4 39       		.uleb128 0x39
 2366 01d5 0B       		.uleb128 0xb
 2367 01d6 27       		.uleb128 0x27
 2368 01d7 19       		.uleb128 0x19
 2369 01d8 49       		.uleb128 0x49
 2370 01d9 13       		.uleb128 0x13
 2371 01da 11       		.uleb128 0x11
 2372 01db 01       		.uleb128 0x1
 2373 01dc 12       		.uleb128 0x12
 2374 01dd 06       		.uleb128 0x6
 2375 01de 40       		.uleb128 0x40
 2376 01df 18       		.uleb128 0x18
 2377 01e0 7A       		.uleb128 0x7a
 2378 01e1 19       		.uleb128 0x19
 2379 01e2 00       		.byte	0
 2380 01e3 00       		.byte	0
 2381 01e4 22       		.uleb128 0x22
 2382 01e5 2E       		.uleb128 0x2e
 2383 01e6 00       		.byte	0
 2384 01e7 3F       		.uleb128 0x3f
 2385 01e8 19       		.uleb128 0x19
 2386 01e9 03       		.uleb128 0x3
 2387 01ea 0E       		.uleb128 0xe
 2388 01eb 3A       		.uleb128 0x3a
 2389 01ec 0B       		.uleb128 0xb
 2390 01ed 3B       		.uleb128 0x3b
 2391 01ee 0B       		.uleb128 0xb
 2392 01ef 39       		.uleb128 0x39
 2393 01f0 0B       		.uleb128 0xb
 2394 01f1 27       		.uleb128 0x27
ARM GAS  /tmp/ccbiXgpG.s 			page 43


 2395 01f2 19       		.uleb128 0x19
 2396 01f3 11       		.uleb128 0x11
 2397 01f4 01       		.uleb128 0x1
 2398 01f5 12       		.uleb128 0x12
 2399 01f6 06       		.uleb128 0x6
 2400 01f7 40       		.uleb128 0x40
 2401 01f8 18       		.uleb128 0x18
 2402 01f9 7A       		.uleb128 0x7a
 2403 01fa 19       		.uleb128 0x19
 2404 01fb 00       		.byte	0
 2405 01fc 00       		.byte	0
 2406 01fd 23       		.uleb128 0x23
 2407 01fe 05       		.uleb128 0x5
 2408 01ff 00       		.byte	0
 2409 0200 03       		.uleb128 0x3
 2410 0201 0E       		.uleb128 0xe
 2411 0202 3A       		.uleb128 0x3a
 2412 0203 0B       		.uleb128 0xb
 2413 0204 3B       		.uleb128 0x3b
 2414 0205 0B       		.uleb128 0xb
 2415 0206 39       		.uleb128 0x39
 2416 0207 0B       		.uleb128 0xb
 2417 0208 49       		.uleb128 0x49
 2418 0209 13       		.uleb128 0x13
 2419 020a 02       		.uleb128 0x2
 2420 020b 17       		.uleb128 0x17
 2421 020c B742     		.uleb128 0x2137
 2422 020e 17       		.uleb128 0x17
 2423 020f 00       		.byte	0
 2424 0210 00       		.byte	0
 2425 0211 24       		.uleb128 0x24
 2426 0212 1D       		.uleb128 0x1d
 2427 0213 00       		.byte	0
 2428 0214 31       		.uleb128 0x31
 2429 0215 13       		.uleb128 0x13
 2430 0216 52       		.uleb128 0x52
 2431 0217 01       		.uleb128 0x1
 2432 0218 B842     		.uleb128 0x2138
 2433 021a 0B       		.uleb128 0xb
 2434 021b 55       		.uleb128 0x55
 2435 021c 17       		.uleb128 0x17
 2436 021d 58       		.uleb128 0x58
 2437 021e 0B       		.uleb128 0xb
 2438 021f 59       		.uleb128 0x59
 2439 0220 0B       		.uleb128 0xb
 2440 0221 57       		.uleb128 0x57
 2441 0222 0B       		.uleb128 0xb
 2442 0223 00       		.byte	0
 2443 0224 00       		.byte	0
 2444 0225 25       		.uleb128 0x25
 2445 0226 05       		.uleb128 0x5
 2446 0227 00       		.byte	0
 2447 0228 03       		.uleb128 0x3
 2448 0229 08       		.uleb128 0x8
 2449 022a 3A       		.uleb128 0x3a
 2450 022b 0B       		.uleb128 0xb
 2451 022c 3B       		.uleb128 0x3b
ARM GAS  /tmp/ccbiXgpG.s 			page 44


 2452 022d 0B       		.uleb128 0xb
 2453 022e 39       		.uleb128 0x39
 2454 022f 0B       		.uleb128 0xb
 2455 0230 49       		.uleb128 0x49
 2456 0231 13       		.uleb128 0x13
 2457 0232 02       		.uleb128 0x2
 2458 0233 17       		.uleb128 0x17
 2459 0234 B742     		.uleb128 0x2137
 2460 0236 17       		.uleb128 0x17
 2461 0237 00       		.byte	0
 2462 0238 00       		.byte	0
 2463 0239 26       		.uleb128 0x26
 2464 023a 1D       		.uleb128 0x1d
 2465 023b 01       		.byte	0x1
 2466 023c 31       		.uleb128 0x31
 2467 023d 13       		.uleb128 0x13
 2468 023e 52       		.uleb128 0x52
 2469 023f 01       		.uleb128 0x1
 2470 0240 B842     		.uleb128 0x2138
 2471 0242 0B       		.uleb128 0xb
 2472 0243 55       		.uleb128 0x55
 2473 0244 17       		.uleb128 0x17
 2474 0245 58       		.uleb128 0x58
 2475 0246 0B       		.uleb128 0xb
 2476 0247 59       		.uleb128 0x59
 2477 0248 0B       		.uleb128 0xb
 2478 0249 57       		.uleb128 0x57
 2479 024a 0B       		.uleb128 0xb
 2480 024b 01       		.uleb128 0x1
 2481 024c 13       		.uleb128 0x13
 2482 024d 00       		.byte	0
 2483 024e 00       		.byte	0
 2484 024f 00       		.byte	0
 2485              		.section	.debug_loclists,"",%progbits
 2486 0000 60000000 		.4byte	.Ldebug_loc3-.Ldebug_loc2
 2487              	.Ldebug_loc2:
 2488 0004 0500     		.2byte	0x5
 2489 0006 04       		.byte	0x4
 2490 0007 00       		.byte	0
 2491 0008 00000000 		.4byte	0
 2492              	.Ldebug_loc0:
 2493              	.LVUS4:
 2494 000c 00       		.uleb128 0
 2495 000d 00       		.uleb128 .LVU63
 2496 000e 00       		.uleb128 .LVU63
 2497 000f 00       		.uleb128 0
 2498              	.LLST4:
 2499 0010 06       		.byte	0x6
 2500 0011 00000000 		.4byte	.LVL6
 2501 0015 04       		.byte	0x4
 2502 0016 00       		.uleb128 .LVL6-.LVL6
 2503 0017 08       		.uleb128 .LVL7-.LVL6
 2504 0018 01       		.uleb128 0x1
 2505 0019 50       		.byte	0x50
 2506 001a 04       		.byte	0x4
 2507 001b 08       		.uleb128 .LVL7-.LVL6
 2508 001c 34       		.uleb128 .LFE12-.LVL6
ARM GAS  /tmp/ccbiXgpG.s 			page 45


 2509 001d 04       		.uleb128 0x4
 2510 001e A3       		.byte	0xa3
 2511 001f 01       		.uleb128 0x1
 2512 0020 50       		.byte	0x50
 2513 0021 9F       		.byte	0x9f
 2514 0022 00       		.byte	0
 2515              	.LVUS5:
 2516 0023 00       		.uleb128 .LVU64
 2517 0024 00       		.uleb128 .LVU67
 2518 0025 01       		.uleb128 .LVU71
 2519 0026 00       		.uleb128 0
 2520              	.LLST5:
 2521 0027 06       		.byte	0x6
 2522 0028 0C000000 		.4byte	.LVL8
 2523 002c 04       		.byte	0x4
 2524 002d 00       		.uleb128 .LVL8-.LVL8
 2525 002e 08       		.uleb128 .LVL9-.LVL8
 2526 002f 01       		.uleb128 0x1
 2527 0030 53       		.byte	0x53
 2528 0031 04       		.byte	0x4
 2529 0032 18       		.uleb128 .LVL10-.LVL8
 2530 0033 28       		.uleb128 .LFE12-.LVL8
 2531 0034 01       		.uleb128 0x1
 2532 0035 53       		.byte	0x53
 2533 0036 00       		.byte	0
 2534              	.LVUS6:
 2535 0037 00       		.uleb128 .LVU70
 2536 0038 00       		.uleb128 0
 2537              	.LLST6:
 2538 0039 08       		.byte	0x8
 2539 003a 24000000 		.4byte	.LVL10
 2540 003e 10       		.uleb128 .LFE12-.LVL10
 2541 003f 01       		.uleb128 0x1
 2542 0040 50       		.byte	0x50
 2543 0041 00       		.byte	0
 2544              	.LVUS1:
 2545 0042 00       		.uleb128 0
 2546 0043 00       		.uleb128 .LVU30
 2547 0044 00       		.uleb128 .LVU30
 2548 0045 00       		.uleb128 0
 2549              	.LLST1:
 2550 0046 06       		.byte	0x6
 2551 0047 00000000 		.4byte	.LVL4
 2552 004b 04       		.byte	0x4
 2553 004c 00       		.uleb128 .LVL4-.LVL4
 2554 004d 0C       		.uleb128 .LVL5-.LVL4
 2555 004e 01       		.uleb128 0x1
 2556 004f 50       		.byte	0x50
 2557 0050 04       		.byte	0x4
 2558 0051 0C       		.uleb128 .LVL5-.LVL4
 2559 0052 20       		.uleb128 .LFE10-.LVL4
 2560 0053 04       		.uleb128 0x4
 2561 0054 A3       		.byte	0xa3
 2562 0055 01       		.uleb128 0x1
 2563 0056 50       		.byte	0x50
 2564 0057 9F       		.byte	0x9f
 2565 0058 00       		.byte	0
ARM GAS  /tmp/ccbiXgpG.s 			page 46


 2566              	.LVUS2:
 2567 0059 00       		.uleb128 .LVU30
 2568 005a 00       		.uleb128 0
 2569              	.LLST2:
 2570 005b 08       		.byte	0x8
 2571 005c 0C000000 		.4byte	.LVL5
 2572 0060 14       		.uleb128 .LFE10-.LVL5
 2573 0061 01       		.uleb128 0x1
 2574 0062 50       		.byte	0x50
 2575 0063 00       		.byte	0
 2576              	.Ldebug_loc3:
 2577              		.section	.debug_aranges,"",%progbits
 2578 0000 44000000 		.4byte	0x44
 2579 0004 0200     		.2byte	0x2
 2580 0006 00000000 		.4byte	.Ldebug_info0
 2581 000a 04       		.byte	0x4
 2582 000b 00       		.byte	0
 2583 000c 0000     		.2byte	0
 2584 000e 0000     		.2byte	0
 2585 0010 00000000 		.4byte	.LFB9
 2586 0014 40000000 		.4byte	.LFE9-.LFB9
 2587 0018 00000000 		.4byte	.LFB10
 2588 001c 20000000 		.4byte	.LFE10-.LFB10
 2589 0020 00000000 		.4byte	.LFB11
 2590 0024 50000000 		.4byte	.LFE11-.LFB11
 2591 0028 00000000 		.4byte	.LFB12
 2592 002c 34000000 		.4byte	.LFE12-.LFB12
 2593 0030 00000000 		.4byte	.LFB13
 2594 0034 18000000 		.4byte	.LFE13-.LFB13
 2595 0038 00000000 		.4byte	.LFB14
 2596 003c 18000000 		.4byte	.LFE14-.LFB14
 2597 0040 00000000 		.4byte	0
 2598 0044 00000000 		.4byte	0
 2599              		.section	.debug_rnglists,"",%progbits
 2600              	.Ldebug_ranges0:
 2601 0000 45000000 		.4byte	.Ldebug_ranges3-.Ldebug_ranges2
 2602              	.Ldebug_ranges2:
 2603 0004 0500     		.2byte	0x5
 2604 0006 04       		.byte	0x4
 2605 0007 00       		.byte	0
 2606 0008 00000000 		.4byte	0
 2607              	.LLRL0:
 2608 000c 05       		.byte	0x5
 2609 000d 04000000 		.4byte	.LBB4
 2610 0011 04       		.byte	0x4
 2611 0012 00       		.uleb128 .LBB4-.LBB4
 2612 0013 0C       		.uleb128 .LBE4-.LBB4
 2613 0014 04       		.byte	0x4
 2614 0015 10       		.uleb128 .LBB7-.LBB4
 2615 0016 14       		.uleb128 .LBE7-.LBB4
 2616 0017 00       		.byte	0
 2617              	.LLRL3:
 2618 0018 05       		.byte	0x5
 2619 0019 00000000 		.4byte	.LBB10
 2620 001d 04       		.byte	0x4
 2621 001e 00       		.uleb128 .LBB10-.LBB10
 2622 001f 00       		.uleb128 .LBE10-.LBB10
ARM GAS  /tmp/ccbiXgpG.s 			page 47


 2623 0020 04       		.byte	0x4
 2624 0021 04       		.uleb128 .LBB13-.LBB10
 2625 0022 40       		.uleb128 .LBE13-.LBB10
 2626 0023 00       		.byte	0
 2627              	.LLRL7:
 2628 0024 07       		.byte	0x7
 2629 0025 00000000 		.4byte	.LFB9
 2630 0029 40       		.uleb128 .LFE9-.LFB9
 2631 002a 07       		.byte	0x7
 2632 002b 00000000 		.4byte	.LFB10
 2633 002f 20       		.uleb128 .LFE10-.LFB10
 2634 0030 07       		.byte	0x7
 2635 0031 00000000 		.4byte	.LFB11
 2636 0035 50       		.uleb128 .LFE11-.LFB11
 2637 0036 07       		.byte	0x7
 2638 0037 00000000 		.4byte	.LFB12
 2639 003b 34       		.uleb128 .LFE12-.LFB12
 2640 003c 07       		.byte	0x7
 2641 003d 00000000 		.4byte	.LFB13
 2642 0041 18       		.uleb128 .LFE13-.LFB13
 2643 0042 07       		.byte	0x7
 2644 0043 00000000 		.4byte	.LFB14
 2645 0047 18       		.uleb128 .LFE14-.LFB14
 2646 0048 00       		.byte	0
 2647              	.Ldebug_ranges3:
 2648              		.section	.debug_line,"",%progbits
 2649              	.Ldebug_line0:
 2650 0000 4C030000 		.section	.debug_str,"MS",%progbits,1
 2650      0300D801 
 2650      00000201 
 2650      FB0E0D00 
 2650      01010101 
 2651              	.LASF46:
 2652 0000 54687265 		.ascii	"ThreadsQueue\000"
 2652      61647351 
 2652      75657565 
 2652      00
 2653              	.LASF42:
 2654 000d 705F6D73 		.ascii	"p_msg\000"
 2654      6700
 2655              	.LASF2:
 2656 0013 73697A65 		.ascii	"size_t\000"
 2656      5F7400
 2657              	.LASF62:
 2658 001a 7264796D 		.ascii	"rdymsg\000"
 2658      736700
 2659              	.LASF78:
 2660 0021 4F757470 		.ascii	"OutputQueue\000"
 2660      75745175 
 2660      65756500 
 2661              	.LASF3:
 2662 002d 5F5F7569 		.ascii	"__uint8_t\000"
 2662      6E74385F 
 2662      7400
 2663              	.LASF132:
 2664 0037 5350495F 		.ascii	"SPI_ACTIVE\000"
 2664      41435449 
ARM GAS  /tmp/ccbiXgpG.s 			page 48


 2664      564500
 2665              	.LASF79:
 2666 0042 62736364 		.ascii	"bscdevice_t\000"
 2666      65766963 
 2666      655F7400 
 2667              	.LASF106:
 2668 004e 72786275 		.ascii	"rxbuf\000"
 2668      6600
 2669              	.LASF13:
 2670 0054 6C6F6E67 		.ascii	"long long unsigned int\000"
 2670      206C6F6E 
 2670      6720756E 
 2670      7369676E 
 2670      65642069 
 2671              	.LASF102:
 2672 006b 61646472 		.ascii	"addr\000"
 2672      00
 2673              	.LASF63:
 2674 0070 65786974 		.ascii	"exitcode\000"
 2674      636F6465 
 2674      00
 2675              	.LASF135:
 2676 0079 53504944 		.ascii	"SPIDriver\000"
 2676      72697665 
 2676      7200
 2677              	.LASF84:
 2678 0083 64617461 		.ascii	"dataFifo\000"
 2678      4669666F 
 2678      00
 2679              	.LASF30:
 2680 008c 705F7072 		.ascii	"p_prio\000"
 2680      696F00
 2681              	.LASF128:
 2682 0093 72656164 		.ascii	"readt\000"
 2682      7400
 2683              	.LASF99:
 2684 0099 64657669 		.ascii	"device\000"
 2684      636500
 2685              	.LASF68:
 2686 00a0 715F7761 		.ascii	"q_waiting\000"
 2686      6974696E 
 2686      6700
 2687              	.LASF12:
 2688 00aa 6C6F6E67 		.ascii	"long long int\000"
 2688      206C6F6E 
 2688      6720696E 
 2688      7400
 2689              	.LASF1:
 2690 00b8 7369676E 		.ascii	"signed char\000"
 2690      65642063 
 2690      68617200 
 2691              	.LASF130:
 2692 00c4 5350495F 		.ascii	"SPI_STOP\000"
 2692      53544F50 
 2692      00
 2693              	.LASF161:
 2694 00cd 73797374 		.ascii	"systimer_init\000"
ARM GAS  /tmp/ccbiXgpG.s 			page 49


 2694      696D6572 
 2694      5F696E69 
 2694      7400
 2695              	.LASF114:
 2696 00db 53445F53 		.ascii	"SD_STOP\000"
 2696      544F5000 
 2697              	.LASF52:
 2698 00e3 6D5F7175 		.ascii	"m_queue\000"
 2698      65756500 
 2699              	.LASF21:
 2700 00eb 74736C69 		.ascii	"tslices_t\000"
 2700      6365735F 
 2700      7400
 2701              	.LASF88:
 2702 00f5 4932435F 		.ascii	"I2C_UNINIT\000"
 2702      554E494E 
 2702      495400
 2703              	.LASF110:
 2704 0100 69326361 		.ascii	"i2caddr_t\000"
 2704      6464725F 
 2704      7400
 2705              	.LASF96:
 2706 010a 73746174 		.ascii	"state\000"
 2706      6500
 2707              	.LASF9:
 2708 0110 6C6F6E67 		.ascii	"long int\000"
 2708      20696E74 
 2708      00
 2709              	.LASF19:
 2710 0119 74737461 		.ascii	"tstate_t\000"
 2710      74655F74 
 2710      00
 2711              	.LASF101:
 2712 0122 74687265 		.ascii	"thread\000"
 2712      616400
 2713              	.LASF86:
 2714 0129 64617461 		.ascii	"dataDelay\000"
 2714      44656C61 
 2714      7900
 2715              	.LASF108:
 2716 0133 72786964 		.ascii	"rxidx\000"
 2716      7800
 2717              	.LASF70:
 2718 0139 715F6275 		.ascii	"q_buffer\000"
 2718      66666572 
 2718      00
 2719              	.LASF15:
 2720 0142 75696E74 		.ascii	"uint16_t\000"
 2720      31365F74 
 2720      00
 2721              	.LASF91:
 2722 014b 4932435F 		.ascii	"I2C_ACTIVE_TX\000"
 2722      41435449 
 2722      56455F54 
 2722      5800
 2723              	.LASF32:
 2724 0159 705F6E65 		.ascii	"p_newer\000"
ARM GAS  /tmp/ccbiXgpG.s 			page 50


 2724      77657200 
 2725              	.LASF138:
 2726 0161 656E645F 		.ascii	"end_cb\000"
 2726      636200
 2727              	.LASF136:
 2728 0168 7478636E 		.ascii	"txcnt\000"
 2728      7400
 2729              	.LASF142:
 2730 016e 63686970 		.ascii	"chip_select_polarity0\000"
 2730      5F73656C 
 2730      6563745F 
 2730      706F6C61 
 2730      72697479 
 2731              	.LASF143:
 2732 0184 63686970 		.ascii	"chip_select_polarity1\000"
 2732      5F73656C 
 2732      6563745F 
 2732      706F6C61 
 2732      72697479 
 2733              	.LASF80:
 2734 019a 636F6E74 		.ascii	"control\000"
 2734      726F6C00 
 2735              	.LASF10:
 2736 01a2 5F5F7569 		.ascii	"__uint32_t\000"
 2736      6E743332 
 2736      5F7400
 2737              	.LASF48:
 2738 01ad 72656761 		.ascii	"regarm_t\000"
 2738      726D5F74 
 2738      00
 2739              	.LASF83:
 2740 01b6 736C6176 		.ascii	"slaveAddress\000"
 2740      65416464 
 2740      72657373 
 2740      00
 2741              	.LASF159:
 2742 01c3 49727148 		.ascii	"IrqHandler\000"
 2742      616E646C 
 2742      657200
 2743              	.LASF137:
 2744 01ce 73706963 		.ascii	"spicallback_t\000"
 2744      616C6C62 
 2744      61636B5F 
 2744      7400
 2745              	.LASF121:
 2746 01dc 49324330 		.ascii	"I2C0\000"
 2746      00
 2747              	.LASF60:
 2748 01e1 4576656E 		.ascii	"EventSource\000"
 2748      74536F75 
 2748      72636500 
 2749              	.LASF0:
 2750 01ed 756E7369 		.ascii	"unsigned int\000"
 2750      676E6564 
 2750      20696E74 
 2750      00
 2751              	.LASF103:
ARM GAS  /tmp/ccbiXgpG.s 			page 51


 2752 01fa 74786275 		.ascii	"txbuf\000"
 2752      6600
 2753              	.LASF122:
 2754 0200 53657269 		.ascii	"SerialDriverVMT\000"
 2754      616C4472 
 2754      69766572 
 2754      564D5400 
 2755              	.LASF98:
 2756 0210 6572726F 		.ascii	"errors\000"
 2756      727300
 2757              	.LASF165:
 2758 0217 63685379 		.ascii	"chSysTimerHandlerI\000"
 2758      7354696D 
 2758      65724861 
 2758      6E646C65 
 2758      724900
 2759              	.LASF119:
 2760 022a 69717565 		.ascii	"iqueue\000"
 2760      756500
 2761              	.LASF11:
 2762 0231 6C6F6E67 		.ascii	"long unsigned int\000"
 2762      20756E73 
 2762      69676E65 
 2762      6420696E 
 2762      7400
 2763              	.LASF157:
 2764 0243 74696D65 		.ascii	"timeout\000"
 2764      6F757400 
 2765              	.LASF126:
 2766 024b 67657474 		.ascii	"gett\000"
 2766      00
 2767              	.LASF141:
 2768 0250 63686970 		.ascii	"chip_select_polarity\000"
 2768      5F73656C 
 2768      6563745F 
 2768      706F6C61 
 2768      72697479 
 2769              	.LASF118:
 2770 0265 6576656E 		.ascii	"event\000"
 2770      7400
 2771              	.LASF50:
 2772 026b 636F6E74 		.ascii	"context\000"
 2772      65787400 
 2773              	.LASF7:
 2774 0273 73686F72 		.ascii	"short unsigned int\000"
 2774      7420756E 
 2774      7369676E 
 2774      65642069 
 2774      6E7400
 2775              	.LASF95:
 2776 0286 49324344 		.ascii	"I2CDriver\000"
 2776      72697665 
 2776      7200
 2777              	.LASF23:
 2778 0290 6D73675F 		.ascii	"msg_t\000"
 2778      7400
 2779              	.LASF120:
ARM GAS  /tmp/ccbiXgpG.s 			page 52


 2780 0296 6F717565 		.ascii	"oqueue\000"
 2780      756500
 2781              	.LASF56:
 2782 029d 656C5F6E 		.ascii	"el_next\000"
 2782      65787400 
 2783              	.LASF127:
 2784 02a5 77726974 		.ascii	"writet\000"
 2784      657400
 2785              	.LASF18:
 2786 02ac 746D6F64 		.ascii	"tmode_t\000"
 2786      655F7400 
 2787              	.LASF47:
 2788 02b4 54687265 		.ascii	"ThreadsList\000"
 2788      6164734C 
 2788      69737400 
 2789              	.LASF24:
 2790 02c0 6576656E 		.ascii	"eventmask_t\000"
 2790      746D6173 
 2790      6B5F7400 
 2791              	.LASF77:
 2792 02cc 496E7075 		.ascii	"InputQueue\000"
 2792      74517565 
 2792      756500
 2793              	.LASF51:
 2794 02d7 4D757465 		.ascii	"Mutex\000"
 2794      7800
 2795              	.LASF67:
 2796 02dd 47656E65 		.ascii	"GenericQueue\000"
 2796      72696351 
 2796      75657565 
 2796      00
 2797              	.LASF123:
 2798 02ea 77726974 		.ascii	"write\000"
 2798      6500
 2799              	.LASF153:
 2800 02f0 706D5F77 		.ascii	"pm_wdog\000"
 2800      646F6700 
 2801              	.LASF125:
 2802 02f8 70757474 		.ascii	"putt\000"
 2802      00
 2803              	.LASF89:
 2804 02fd 4932435F 		.ascii	"I2C_STOP\000"
 2804      53544F50 
 2804      00
 2805              	.LASF162:
 2806 0306 474E5520 		.ascii	"GNU C17 11.2.0 -mcpu=arm1176jz-s -mno-thumb-interwo"
 2806      43313720 
 2806      31312E32 
 2806      2E30202D 
 2806      6D637075 
 2807 0339 726B202D 		.ascii	"rk -mfloat-abi=soft -marm -march=armv6kz -ggdb -O2 "
 2807      6D666C6F 
 2807      61742D61 
 2807      62693D73 
 2807      6F667420 
 2808 036c 2D666F6D 		.ascii	"-fomit-frame-pointer -ffunction-sections -fdata-sec"
 2808      69742D66 
ARM GAS  /tmp/ccbiXgpG.s 			page 53


 2808      72616D65 
 2808      2D706F69 
 2808      6E746572 
 2809 039f 74696F6E 		.ascii	"tions\000"
 2809      7300
 2810              	.LASF85:
 2811 03a5 636C6F63 		.ascii	"clockDivider\000"
 2811      6B446976 
 2811      69646572 
 2811      00
 2812              	.LASF69:
 2813 03b2 715F636F 		.ascii	"q_counter\000"
 2813      756E7465 
 2813      7200
 2814              	.LASF167:
 2815 03bc 77617463 		.ascii	"watchdog_stop\000"
 2815      68646F67 
 2815      5F73746F 
 2815      7000
 2816              	.LASF111:
 2817 03ca 69635F73 		.ascii	"ic_speed\000"
 2817      70656564 
 2817      00
 2818              	.LASF164:
 2819 03d3 2F686F6D 		.ascii	"/home/sergi/uni/seu/ChibiOS-RPi/demos/led\000"
 2819      652F7365 
 2819      7267692F 
 2819      756E692F 
 2819      7365752F 
 2820              	.LASF158:
 2821 03fd 636F6D70 		.ascii	"compare\000"
 2821      61726500 
 2822              	.LASF33:
 2823 0405 705F6F6C 		.ascii	"p_older\000"
 2823      64657200 
 2824              	.LASF107:
 2825 040d 72786279 		.ascii	"rxbytes\000"
 2825      74657300 
 2826              	.LASF72:
 2827 0415 715F7772 		.ascii	"q_wrptr\000"
 2827      70747200 
 2828              	.LASF163:
 2829 041d 2E2E2F2E 		.ascii	"../../os/hal/platforms/BCM2835/hal_lld.c\000"
 2829      2E2F6F73 
 2829      2F68616C 
 2829      2F706C61 
 2829      74666F72 
 2830              	.LASF148:
 2831 0446 53504930 		.ascii	"SPI0\000"
 2831      00
 2832              	.LASF58:
 2833 044b 656C5F6D 		.ascii	"el_mask\000"
 2833      61736B00 
 2834              	.LASF139:
 2835 0453 6C6F7373 		.ascii	"lossiEnabled\000"
 2835      69456E61 
 2835      626C6564 
ARM GAS  /tmp/ccbiXgpG.s 			page 54


 2835      00
 2836              	.LASF140:
 2837 0460 63686970 		.ascii	"chip_select\000"
 2837      5F73656C 
 2837      65637400 
 2838              	.LASF20:
 2839 046c 74726566 		.ascii	"trefs_t\000"
 2839      735F7400 
 2840              	.LASF94:
 2841 0474 69326373 		.ascii	"i2cstate_t\000"
 2841      74617465 
 2841      5F7400
 2842              	.LASF76:
 2843 047f 716E6F74 		.ascii	"qnotify_t\000"
 2843      6966795F 
 2843      7400
 2844              	.LASF29:
 2845 0489 705F7072 		.ascii	"p_prev\000"
 2845      657600
 2846              	.LASF22:
 2847 0490 74707269 		.ascii	"tprio_t\000"
 2847      6F5F7400 
 2848              	.LASF73:
 2849 0498 715F7264 		.ascii	"q_rdptr\000"
 2849      70747200 
 2850              	.LASF109:
 2851 04a0 69326366 		.ascii	"i2cflags_t\000"
 2851      6C616773 
 2851      5F7400
 2852              	.LASF100:
 2853 04ab 6D757465 		.ascii	"mutex\000"
 2853      7800
 2854              	.LASF16:
 2855 04b1 696E7433 		.ascii	"int32_t\000"
 2855      325F7400 
 2856              	.LASF4:
 2857 04b9 756E7369 		.ascii	"unsigned char\000"
 2857      676E6564 
 2857      20636861 
 2857      7200
 2858              	.LASF57:
 2859 04c7 656C5F6C 		.ascii	"el_listener\000"
 2859      69737465 
 2859      6E657200 
 2860              	.LASF59:
 2861 04d3 656C5F66 		.ascii	"el_flags\000"
 2861      6C616773 
 2861      00
 2862              	.LASF44:
 2863 04dc 705F6D74 		.ascii	"p_mtxlist\000"
 2863      786C6973 
 2863      7400
 2864              	.LASF5:
 2865 04e6 73686F72 		.ascii	"short int\000"
 2865      7420696E 
 2865      7400
 2866              	.LASF35:
ARM GAS  /tmp/ccbiXgpG.s 			page 55


 2867 04f0 705F7374 		.ascii	"p_state\000"
 2867      61746500 
 2868              	.LASF38:
 2869 04f8 705F7072 		.ascii	"p_preempt\000"
 2869      65656D70 
 2869      7400
 2870              	.LASF65:
 2871 0502 65776D61 		.ascii	"ewmask\000"
 2871      736B00
 2872              	.LASF28:
 2873 0509 705F6E65 		.ascii	"p_next\000"
 2873      787400
 2874              	.LASF36:
 2875 0510 705F666C 		.ascii	"p_flags\000"
 2875      61677300 
 2876              	.LASF27:
 2877 0518 54687265 		.ascii	"Thread\000"
 2877      616400
 2878              	.LASF146:
 2879 051f 636C6F63 		.ascii	"clock_divider\000"
 2879      6B5F6469 
 2879      76696465 
 2879      7200
 2880              	.LASF93:
 2881 052d 4932435F 		.ascii	"I2C_LOCKED\000"
 2881      4C4F434B 
 2881      454400
 2882              	.LASF166:
 2883 0538 77617463 		.ascii	"watchdog_get_remaining\000"
 2883      68646F67 
 2883      5F676574 
 2883      5F72656D 
 2883      61696E69 
 2884              	.LASF43:
 2885 054f 705F6570 		.ascii	"p_epending\000"
 2885      656E6469 
 2885      6E6700
 2886              	.LASF113:
 2887 055a 53445F55 		.ascii	"SD_UNINIT\000"
 2887      4E494E49 
 2887      5400
 2888              	.LASF17:
 2889 0564 75696E74 		.ascii	"uint32_t\000"
 2889      33325F74 
 2889      00
 2890              	.LASF145:
 2891 056d 636C6F63 		.ascii	"clock_phase\000"
 2891      6B5F7068 
 2891      61736500 
 2892              	.LASF116:
 2893 0579 73647374 		.ascii	"sdstate_t\000"
 2893      6174655F 
 2893      7400
 2894              	.LASF154:
 2895 0583 77617463 		.ascii	"watchdog_start\000"
 2895      68646F67 
 2895      5F737461 
ARM GAS  /tmp/ccbiXgpG.s 			page 56


 2895      727400
 2896              	.LASF117:
 2897 0592 53657269 		.ascii	"SerialDriver\000"
 2897      616C4472 
 2897      69766572 
 2897      00
 2898              	.LASF92:
 2899 059f 4932435F 		.ascii	"I2C_ACTIVE_RX\000"
 2899      41435449 
 2899      56455F52 
 2899      5800
 2900              	.LASF124:
 2901 05ad 72656164 		.ascii	"read\000"
 2901      00
 2902              	.LASF66:
 2903 05b2 63686172 		.ascii	"char\000"
 2903      00
 2904              	.LASF133:
 2905 05b7 5350495F 		.ascii	"SPI_COMPLETE\000"
 2905      434F4D50 
 2905      4C455445 
 2905      00
 2906              	.LASF97:
 2907 05c4 636F6E66 		.ascii	"config\000"
 2907      696700
 2908              	.LASF6:
 2909 05cb 5F5F7569 		.ascii	"__uint16_t\000"
 2909      6E743136 
 2909      5F7400
 2910              	.LASF134:
 2911 05d6 73706973 		.ascii	"spistate_t\000"
 2911      74617465 
 2911      5F7400
 2912              	.LASF54:
 2913 05e1 6D5F6E65 		.ascii	"m_next\000"
 2913      787400
 2914              	.LASF26:
 2915 05e8 73797374 		.ascii	"systime_t\000"
 2915      696D655F 
 2915      7400
 2916              	.LASF45:
 2917 05f2 705F7265 		.ascii	"p_realprio\000"
 2917      616C7072 
 2917      696F00
 2918              	.LASF8:
 2919 05fd 5F5F696E 		.ascii	"__int32_t\000"
 2919      7433325F 
 2919      7400
 2920              	.LASF90:
 2921 0607 4932435F 		.ascii	"I2C_READY\000"
 2921      52454144 
 2921      5900
 2922              	.LASF39:
 2923 0611 705F7469 		.ascii	"p_time\000"
 2923      6D6500
 2924              	.LASF144:
 2925 0618 636C6F63 		.ascii	"clock_polarity\000"
ARM GAS  /tmp/ccbiXgpG.s 			page 57


 2925      6B5F706F 
 2925      6C617269 
 2925      747900
 2926              	.LASF155:
 2927 0627 68616C5F 		.ascii	"hal_lld_init\000"
 2927      6C6C645F 
 2927      696E6974 
 2927      00
 2928              	.LASF49:
 2929 0634 696E7463 		.ascii	"intctx\000"
 2929      747800
 2930              	.LASF41:
 2931 063b 705F6D73 		.ascii	"p_msgqueue\000"
 2931      67717565 
 2931      756500
 2932              	.LASF115:
 2933 0646 53445F52 		.ascii	"SD_READY\000"
 2933      45414459 
 2933      00
 2934              	.LASF131:
 2935 064f 5350495F 		.ascii	"SPI_READY\000"
 2935      52454144 
 2935      5900
 2936              	.LASF129:
 2937 0659 5350495F 		.ascii	"SPI_UNINIT\000"
 2937      554E494E 
 2937      495400
 2938              	.LASF25:
 2939 0664 666C6167 		.ascii	"flagsmask_t\000"
 2939      736D6173 
 2939      6B5F7400 
 2940              	.LASF112:
 2941 0670 49324343 		.ascii	"I2CConfig\000"
 2941      6F6E6669 
 2941      6700
 2942              	.LASF105:
 2943 067a 74786964 		.ascii	"txidx\000"
 2943      7800
 2944              	.LASF71:
 2945 0680 715F746F 		.ascii	"q_top\000"
 2945      7000
 2946              	.LASF37:
 2947 0686 705F7265 		.ascii	"p_refs\000"
 2947      667300
 2948              	.LASF81:
 2949 068d 73746174 		.ascii	"status\000"
 2949      757300
 2950              	.LASF74:
 2951 0694 715F6E6F 		.ascii	"q_notify\000"
 2951      74696679 
 2951      00
 2952              	.LASF14:
 2953 069d 75696E74 		.ascii	"uint8_t\000"
 2953      385F7400 
 2954              	.LASF149:
 2955 06a5 7370695F 		.ascii	"spi_lld_serve_interrupt\000"
 2955      6C6C645F 
ARM GAS  /tmp/ccbiXgpG.s 			page 58


 2955      73657276 
 2955      655F696E 
 2955      74657272 
 2956              	.LASF55:
 2957 06bd 4576656E 		.ascii	"EventListener\000"
 2957      744C6973 
 2957      74656E65 
 2957      7200
 2958              	.LASF64:
 2959 06cb 77746F62 		.ascii	"wtobjp\000"
 2959      6A7000
 2960              	.LASF34:
 2961 06d2 705F6E61 		.ascii	"p_name\000"
 2961      6D6500
 2962              	.LASF61:
 2963 06d9 65735F6E 		.ascii	"es_next\000"
 2963      65787400 
 2964              	.LASF147:
 2965 06e1 53504943 		.ascii	"SPIConfig\000"
 2965      6F6E6669 
 2965      6700
 2966              	.LASF151:
 2967 06eb 73645F6C 		.ascii	"sd_lld_serve_interrupt\000"
 2967      6C645F73 
 2967      65727665 
 2967      5F696E74 
 2967      65727275 
 2968              	.LASF150:
 2969 0702 6932635F 		.ascii	"i2c_lld_serve_interrupt\000"
 2969      6C6C645F 
 2969      73657276 
 2969      655F696E 
 2969      74657272 
 2970              	.LASF82:
 2971 071a 64617461 		.ascii	"dataLength\000"
 2971      4C656E67 
 2971      746800
 2972              	.LASF156:
 2973 0725 64656C61 		.ascii	"delayMicroseconds\000"
 2973      794D6963 
 2973      726F7365 
 2973      636F6E64 
 2973      7300
 2974              	.LASF75:
 2975 0737 715F6C69 		.ascii	"q_link\000"
 2975      6E6B00
 2976              	.LASF152:
 2977 073e 706D5F72 		.ascii	"pm_rstc\000"
 2977      73746300 
 2978              	.LASF160:
 2979 0746 73797374 		.ascii	"systimer_serve_interrupt\000"
 2979      696D6572 
 2979      5F736572 
 2979      76655F69 
 2979      6E746572 
 2980              	.LASF53:
 2981 075f 6D5F6F77 		.ascii	"m_owner\000"
ARM GAS  /tmp/ccbiXgpG.s 			page 59


 2981      6E657200 
 2982              	.LASF31:
 2983 0767 705F6374 		.ascii	"p_ctx\000"
 2983      7800
 2984              	.LASF40:
 2985 076d 705F7761 		.ascii	"p_waiting\000"
 2985      6974696E 
 2985      6700
 2986              	.LASF104:
 2987 0777 74786279 		.ascii	"txbytes\000"
 2987      74657300 
 2988              	.LASF87:
 2989 077f 636C6F63 		.ascii	"clockStretchTimeout\000"
 2989      6B537472 
 2989      65746368 
 2989      54696D65 
 2989      6F757400 
 2990              		.ident	"GCC: (Arch Repository) 11.2.0"
ARM GAS  /tmp/ccbiXgpG.s 			page 60


DEFINED SYMBOLS
                            *ABS*:0000000000000000 hal_lld.c
     /tmp/ccbiXgpG.s:16     .text.IrqHandler:0000000000000000 $a
     /tmp/ccbiXgpG.s:23     .text.IrqHandler:0000000000000000 IrqHandler
     /tmp/ccbiXgpG.s:94     .text.IrqHandler:0000000000000030 $d
     /tmp/ccbiXgpG.s:102    .text.delayMicroseconds:0000000000000000 $a
     /tmp/ccbiXgpG.s:108    .text.delayMicroseconds:0000000000000000 delayMicroseconds
     /tmp/ccbiXgpG.s:135    .text.delayMicroseconds:000000000000001c $d
     /tmp/ccbiXgpG.s:140    .text.hal_lld_init:0000000000000000 $a
     /tmp/ccbiXgpG.s:146    .text.hal_lld_init:0000000000000000 hal_lld_init
     /tmp/ccbiXgpG.s:207    .text.hal_lld_init:0000000000000044 $d
     /tmp/ccbiXgpG.s:214    .text.watchdog_start:0000000000000000 $a
     /tmp/ccbiXgpG.s:220    .text.watchdog_start:0000000000000000 watchdog_start
     /tmp/ccbiXgpG.s:263    .text.watchdog_start:0000000000000030 $d
     /tmp/ccbiXgpG.s:268    .text.watchdog_stop:0000000000000000 $a
     /tmp/ccbiXgpG.s:274    .text.watchdog_stop:0000000000000000 watchdog_stop
     /tmp/ccbiXgpG.s:291    .text.watchdog_stop:0000000000000010 $d
     /tmp/ccbiXgpG.s:297    .text.watchdog_get_remaining:0000000000000000 $a
     /tmp/ccbiXgpG.s:303    .text.watchdog_get_remaining:0000000000000000 watchdog_get_remaining
     /tmp/ccbiXgpG.s:321    .text.watchdog_get_remaining:0000000000000014 $d

UNDEFINED SYMBOLS
chSysTimerHandlerI
sd_lld_serve_interrupt
i2c_lld_serve_interrupt
spi_lld_serve_interrupt
_port_irq_common
SD1
I2C0
SPI0
