ARM GAS  /tmp/ccbiXgpG.s 			page 1


   1              		.cpu arm1176jz-s
   2              		.eabi_attribute 20, 1
   3              		.eabi_attribute 21, 1
   4              		.eabi_attribute 23, 3
   5              		.eabi_attribute 24, 1
   6              		.eabi_attribute 25, 1
   7              		.eabi_attribute 26, 1
   8              		.eabi_attribute 30, 2
   9              		.eabi_attribute 34, 1
  10              		.eabi_attribute 18, 4
  11              		.file	"hal_lld.c"
  12              		.text
  13              	.Ltext0:
  14              		.cfi_sections	.debug_frame
  15              		.section	.text.IrqHandler,"ax",%progbits
  16              		.align	2
  17              		.global	IrqHandler
  18              		.arch armv6kz
  19              		.syntax unified
  20              		.arm
  21              		.fpu softvfp
  22              		.type	IrqHandler, %function
  23              	IrqHandler:
  24              	.LFB9:
  25              		.file 1 "../../os/hal/platforms/BCM2835/hal_lld.c"
  26              		.loc 1 91 1 view -0
  27              		.cfi_startproc
  28              		@ Naked Function: prologue and epilogue provided by programmer.
  29              		@ args = 0, pretend = 0, frame = 0
  30              		@ frame_needed = 0, uses_anonymous_args = 0
  31              		.loc 1 92 3 view .LVU1
  32              		.syntax divided
  33              	@ 92 "../../os/hal/platforms/BCM2835/hal_lld.c" 1
  34 0000 0F502DE9 		stmfd    sp!, {r0-r3, r12, lr}
  35              	@ 0 "" 2
  36              		.loc 1 92 3 view .LVU2
  37              		.loc 1 92 3 view .LVU3
  38              		.loc 1 92 20 view .LVU4
  39              		.loc 1 94 3 view .LVU5
  40              		.arm
  41              		.syntax unified
  42              	.LBB4:
  43              	.LBI4:
  44              		.loc 1 71 13 view .LVU6
  45              	.LBB5:
  46              		.loc 1 74 3 view .LVU7
  47              		.loc 1 74 3 view .LVU8
  48              		.loc 1 74 21 view .LVU9
  49              		.loc 1 75 3 view .LVU10
  50 0004 FEFFFFEB 		bl	chSysTimerHandlerI
  51              	.LVL0:
  52              		.loc 1 76 3 view .LVU11
  53              		.loc 1 76 3 view .LVU12
  54              		.loc 1 76 23 view .LVU13
  55              		.loc 1 79 3 view .LVU14
  56              		.loc 1 79 17 is_stmt 0 view .LVU15
  57 0008 0020A0E3 		mov	r2, #0
ARM GAS  /tmp/ccbiXgpG.s 			page 2


  58 000c 1C309FE5 		ldr	r3, .L3
  59              	.LBE5:
  60              	.LBE4:
  61              		.loc 1 97 3 view .LVU16
  62 0010 1C009FE5 		ldr	r0, .L3+4
  63              	.LBB7:
  64              	.LBB6:
  65              		.loc 1 79 17 view .LVU17
  66 0014 0C2483E5 		str	r2, [r3, #1036]
  67              	.LBE6:
  68              	.LBE7:
  69              		.loc 1 97 3 is_stmt 1 view .LVU18
  70 0018 FEFFFFEB 		bl	sd_lld_serve_interrupt
  71              	.LVL1:
  72              		.loc 1 101 3 view .LVU19
  73 001c 14009FE5 		ldr	r0, .L3+8
  74 0020 FEFFFFEB 		bl	i2c_lld_serve_interrupt
  75              	.LVL2:
  76              		.loc 1 105 3 view .LVU20
  77 0024 10009FE5 		ldr	r0, .L3+12
  78 0028 FEFFFFEB 		bl	spi_lld_serve_interrupt
  79              	.LVL3:
  80              		.loc 1 112 3 view .LVU21
  81              		.loc 1 112 3 view .LVU22
  82              		.syntax divided
  83              	@ 112 "../../os/hal/platforms/BCM2835/hal_lld.c" 1
  84 002c FEFFFFEA 		b       _port_irq_common
  85              	@ 0 "" 2
  86              		.loc 1 112 3 view .LVU23
  87              		.loc 1 112 20 view .LVU24
  88              		.loc 1 113 1 is_stmt 0 view .LVU25
  89              		.arm
  90              		.syntax unified
  91              	.L4:
  92              		.align	2
  93              	.L3:
  94 0030 00B00020 		.word	536915968
  95 0034 00000000 		.word	SD1
  96 0038 00000000 		.word	I2C0
  97 003c 00000000 		.word	SPI0
  98              		.cfi_endproc
  99              	.LFE9:
 100              		.size	IrqHandler, .-IrqHandler
 101              		.section	.text.delayMicroseconds,"ax",%progbits
 102              		.align	2
 103              		.global	delayMicroseconds
 104              		.syntax unified
 105              		.arm
 106              		.fpu softvfp
 107              		.type	delayMicroseconds, %function
 108              	delayMicroseconds:
 109              	.LVL4:
 110              	.LFB10:
 111              		.loc 1 124 1 is_stmt 1 view -0
 112              		.cfi_startproc
 113              		@ args = 0, pretend = 0, frame = 0
 114              		@ frame_needed = 0, uses_anonymous_args = 0
ARM GAS  /tmp/ccbiXgpG.s 			page 3


 115              		@ link register save eliminated.
 116              		.loc 1 125 3 view .LVU27
 117              		.loc 1 125 22 is_stmt 0 view .LVU28
 118 0000 14209FE5 		ldr	r2, .L9
 119 0004 043092E5 		ldr	r3, [r2, #4]
 120              		.loc 1 125 12 view .LVU29
 121 0008 000083E0 		add	r0, r3, r0
 122              	.LVL5:
 123              		.loc 1 126 3 is_stmt 1 view .LVU30
 124              	.L6:
 125              		.loc 1 126 23 discriminator 1 view .LVU31
 126              		.loc 1 126 10 is_stmt 0 discriminator 1 view .LVU32
 127 000c 043092E5 		ldr	r3, [r2, #4]
 128              		.loc 1 126 23 discriminator 1 view .LVU33
 129 0010 000053E1 		cmp	r3, r0
 130 0014 FCFFFF3A 		bcc	.L6
 131 0018 1EFF2FE1 		bx	lr
 132              	.L10:
 133              		.align	2
 134              	.L9:
 135 001c 00300020 		.word	536883200
 136              		.cfi_endproc
 137              	.LFE10:
 138              		.size	delayMicroseconds, .-delayMicroseconds
 139              		.section	.text.hal_lld_init,"ax",%progbits
 140              		.align	2
 141              		.global	hal_lld_init
 142              		.syntax unified
 143              		.arm
 144              		.fpu softvfp
 145              		.type	hal_lld_init, %function
 146              	hal_lld_init:
 147              	.LFB11:
 148              		.loc 1 134 25 is_stmt 1 view -0
 149              		.cfi_startproc
 150              		@ args = 0, pretend = 0, frame = 0
 151              		@ frame_needed = 0, uses_anonymous_args = 0
 152              		.loc 1 135 3 view .LVU35
 153              	.LBB10:
 154              	.LBI10:
 155              		.loc 1 53 13 view .LVU36
 156              	.LBB11:
 157              		.loc 1 56 3 view .LVU37
 158              	.LBE11:
 159              	.LBE10:
 160              		.loc 1 134 25 is_stmt 0 view .LVU38
 161 0000 04E02DE5 		str	lr, [sp, #-4]!
 162              		.cfi_def_cfa_offset 4
 163              		.cfi_offset 14, -4
 164              	.LBB13:
 165              	.LBB12:
 166              		.loc 1 59 17 view .LVU39
 167 0004 F9C0A0E3 		mov	ip, #249
 168              		.loc 1 56 17 view .LVU40
 169 0008 3EE8A0E3 		mov	lr, #4063232
 170              		.loc 1 60 17 view .LVU41
 171 000c 0000A0E3 		mov	r0, #0
ARM GAS  /tmp/ccbiXgpG.s 			page 4


 172              		.loc 1 56 17 view .LVU42
 173 0010 2C309FE5 		ldr	r3, .L13
 174              		.loc 1 57 17 view .LVU43
 175 0014 2C209FE5 		ldr	r2, .L13+4
 176              		.loc 1 61 17 view .LVU44
 177 0018 2C109FE5 		ldr	r1, .L13+8
 178              		.loc 1 56 17 view .LVU45
 179 001c 08E483E5 		str	lr, [r3, #1032]
 180              		.loc 1 57 3 is_stmt 1 view .LVU46
 181              		.loc 1 57 17 is_stmt 0 view .LVU47
 182 0020 002483E5 		str	r2, [r3, #1024]
 183              		.loc 1 58 3 is_stmt 1 view .LVU48
 184              		.loc 1 58 17 is_stmt 0 view .LVU49
 185 0024 182483E5 		str	r2, [r3, #1048]
 186              		.loc 1 59 3 is_stmt 1 view .LVU50
 187              		.loc 1 59 17 is_stmt 0 view .LVU51
 188 0028 1CC483E5 		str	ip, [r3, #1052]
 189              		.loc 1 60 3 is_stmt 1 view .LVU52
 190              		.loc 1 60 17 is_stmt 0 view .LVU53
 191 002c 0C0483E5 		str	r0, [r3, #1036]
 192              		.loc 1 61 3 is_stmt 1 view .LVU54
 193              		.loc 1 61 17 is_stmt 0 view .LVU55
 194 0030 081483E5 		str	r1, [r3, #1032]
 195              		.loc 1 63 3 is_stmt 1 view .LVU56
 196              		.loc 1 63 20 is_stmt 0 view .LVU57
 197 0034 182293E5 		ldr	r2, [r3, #536]
 198 0038 012082E3 		orr	r2, r2, #1
 199 003c 182283E5 		str	r2, [r3, #536]
 200              	.LBE12:
 201              	.LBE13:
 202              		.loc 1 136 1 view .LVU58
 203 0040 04F09DE4 		ldr	pc, [sp], #4
 204              	.L14:
 205              		.align	2
 206              	.L13:
 207 0044 00B00020 		.word	536915968
 208 0048 E7030000 		.word	999
 209 004c A2003E00 		.word	4063394
 210              		.cfi_endproc
 211              	.LFE11:
 212              		.size	hal_lld_init, .-hal_lld_init
 213              		.section	.text.watchdog_start,"ax",%progbits
 214              		.align	2
 215              		.global	watchdog_start
 216              		.syntax unified
 217              		.arm
 218              		.fpu softvfp
 219              		.type	watchdog_start, %function
 220              	watchdog_start:
 221              	.LVL6:
 222              	.LFB12:
 223              		.loc 1 142 1 is_stmt 1 view -0
 224              		.cfi_startproc
 225              		@ args = 0, pretend = 0, frame = 0
 226              		@ frame_needed = 0, uses_anonymous_args = 0
 227              		@ link register save eliminated.
 228              		.loc 1 144 5 view .LVU60
ARM GAS  /tmp/ccbiXgpG.s 			page 5


 229              		.loc 1 144 14 is_stmt 0 view .LVU61
 230 0000 28209FE5 		ldr	r2, .L16
 231              		.loc 1 147 47 view .LVU62
 232 0004 FF04C0E3 		bic	r0, r0, #-16777216
 233              	.LVL7:
 234              		.loc 1 144 14 view .LVU63
 235 0008 1C3092E5 		ldr	r3, [r2, #28]
 236              	.LVL8:
 237              		.loc 1 147 5 is_stmt 1 view .LVU64
 238              		.loc 1 147 47 is_stmt 0 view .LVU65
 239 000c 0F06C0E3 		bic	r0, r0, #15728640
 240              		.loc 1 148 27 view .LVU66
 241 0010 5A34C3E3 		bic	r3, r3, #1509949440
 242              	.LVL9:
 243              		.loc 1 148 27 view .LVU67
 244 0014 3030C3E3 		bic	r3, r3, #48
 245              		.loc 1 148 13 view .LVU68
 246 0018 5A3483E3 		orr	r3, r3, #1509949440
 247 001c 203083E3 		orr	r3, r3, #32
 248              		.loc 1 147 14 view .LVU69
 249 0020 5A0480E3 		orr	r0, r0, #1509949440
 250              	.LVL10:
 251              		.loc 1 148 5 is_stmt 1 view .LVU70
 252              		.loc 1 149 5 view .LVU71
 253              		.loc 1 149 13 is_stmt 0 view .LVU72
 254 0024 240082E5 		str	r0, [r2, #36]
 255              		.loc 1 150 5 is_stmt 1 view .LVU73
 256              		.loc 1 150 13 is_stmt 0 view .LVU74
 257 0028 1C3082E5 		str	r3, [r2, #28]
 258              		.loc 1 151 1 view .LVU75
 259 002c 1EFF2FE1 		bx	lr
 260              	.L17:
 261              		.align	2
 262              	.L16:
 263 0030 00001020 		.word	537919488
 264              		.cfi_endproc
 265              	.LFE12:
 266              		.size	watchdog_start, .-watchdog_start
 267              		.section	.text.watchdog_stop,"ax",%progbits
 268              		.align	2
 269              		.global	watchdog_stop
 270              		.syntax unified
 271              		.arm
 272              		.fpu softvfp
 273              		.type	watchdog_stop, %function
 274              	watchdog_stop:
 275              	.LFB13:
 276              		.loc 1 157 1 is_stmt 1 view -0
 277              		.cfi_startproc
 278              		@ args = 0, pretend = 0, frame = 0
 279              		@ frame_needed = 0, uses_anonymous_args = 0
 280              		@ link register save eliminated.
 281              		.loc 1 158 3 view .LVU77
 282              		.loc 1 158 11 is_stmt 0 view .LVU78
 283 0000 08309FE5 		ldr	r3, .L19
 284 0004 08209FE5 		ldr	r2, .L19+4
 285 0008 1C2083E5 		str	r2, [r3, #28]
ARM GAS  /tmp/ccbiXgpG.s 			page 6


 286              		.loc 1 159 1 view .LVU79
 287 000c 1EFF2FE1 		bx	lr
 288              	.L20:
 289              		.align	2
 290              	.L19:
 291 0010 00001020 		.word	537919488
 292 0014 0201005A 		.word	1509949698
 293              		.cfi_endproc
 294              	.LFE13:
 295              		.size	watchdog_stop, .-watchdog_stop
 296              		.section	.text.watchdog_get_remaining,"ax",%progbits
 297              		.align	2
 298              		.global	watchdog_get_remaining
 299              		.syntax unified
 300              		.arm
 301              		.fpu softvfp
 302              		.type	watchdog_get_remaining, %function
 303              	watchdog_get_remaining:
 304              	.LFB14:
 305              		.loc 1 165 1 is_stmt 1 view -0
 306              		.cfi_startproc
 307              		@ args = 0, pretend = 0, frame = 0
 308              		@ frame_needed = 0, uses_anonymous_args = 0
 309              		@ link register save eliminated.
 310              		.loc 1 166 3 view .LVU81
 311              		.loc 1 166 18 is_stmt 0 view .LVU82
 312 0000 0C309FE5 		ldr	r3, .L22
 313 0004 240093E5 		ldr	r0, [r3, #36]
 314              		.loc 1 167 1 view .LVU83
 315 0008 FF04C0E3 		bic	r0, r0, #-16777216
 316 000c 0F06C0E3 		bic	r0, r0, #15728640
 317 0010 1EFF2FE1 		bx	lr
 318              	.L23:
 319              		.align	2
 320              	.L22:
 321 0014 00001020 		.word	537919488
 322              		.cfi_endproc
 323              	.LFE14:
 324              		.size	watchdog_get_remaining, .-watchdog_get_remaining
 325              		.text
 326              	.Letext0:
 327              		.file 2 "/usr/lib/gcc/arm-none-eabi/11.2.0/include/stddef.h"
 328              		.file 3 "/usr/arm-none-eabi/include/machine/_default_types.h"
 329              		.file 4 "/usr/arm-none-eabi/include/sys/_stdint.h"
 330              		.file 5 "../../os/ports/GCC/ARM/chtypes.h"
 331              		.file 6 "../../os/kernel/include/chlists.h"
 332              		.file 7 "../../os/kernel/include/chthreads.h"
 333              		.file 8 "../../os/ports/GCC/ARM/chcore.h"
 334              		.file 9 "../../os/kernel/include/chmtx.h"
 335              		.file 10 "../../os/kernel/include/chevents.h"
 336              		.file 11 "../../os/kernel/include/chqueues.h"
 337              		.file 12 "../../os/hal/platforms/BCM2835/bcm2835.h"
 338              		.file 13 "../../os/hal/include/i2c.h"
 339              		.file 14 "../../os/hal/platforms/BCM2835/i2c_lld.h"
 340              		.file 15 "../../os/hal/include/serial.h"
 341              		.file 16 "../../os/hal/include/spi.h"
 342              		.file 17 "../../os/hal/platforms/BCM2835/spi_lld.h"
ARM GAS  /tmp/ccbiXgpG.s 			page 7


 343              		.file 18 "../../os/hal/platforms/BCM2835/serial_lld.h"
 344              		.file 19 "../../os/kernel/include/chsys.h"