ARM GAS  /tmp/ccHInf9i.s 			page 1


   1              		.cpu arm1176jz-s
   2              		.eabi_attribute 20, 1
   3              		.eabi_attribute 21, 1
   4              		.eabi_attribute 23, 3
   5              		.eabi_attribute 24, 1
   6              		.eabi_attribute 25, 1
   7              		.eabi_attribute 26, 1
   8              		.eabi_attribute 30, 2
   9              		.eabi_attribute 34, 1
  10              		.eabi_attribute 18, 4
  11              		.file	"i2c.c"
  12              		.text
  13              	.Ltext0:
  14              		.cfi_sections	.debug_frame
  15              		.section	.text.i2cInit,"ax",%progbits
  16              		.align	2
  17              		.global	i2cInit
  18              		.arch armv6kz
  19              		.syntax unified
  20              		.arm
  21              		.fpu softvfp
  22              		.type	i2cInit, %function
  23              	i2cInit:
  24              	.LFB7:
  25              		.file 1 "../../os/hal/src/i2c.c"
  26              		.loc 1 64 20 view -0
  27              		.cfi_startproc
  28              		@ args = 0, pretend = 0, frame = 0
  29              		@ frame_needed = 0, uses_anonymous_args = 0
  30              		@ link register save eliminated.
  31              		.loc 1 65 3 view .LVU1
  32 0000 FEFFFFEA 		b	i2c_lld_init
  33              	.LVL0:
  34              		.cfi_endproc
  35              	.LFE7:
  36              		.size	i2cInit, .-i2cInit
  37              		.section	.text.i2cObjectInit,"ax",%progbits
  38              		.align	2
  39              		.global	i2cObjectInit
  40              		.syntax unified
  41              		.arm
  42              		.fpu softvfp
  43              		.type	i2cObjectInit, %function
  44              	i2cObjectInit:
  45              	.LVL1:
  46              	.LFB8:
  47              		.loc 1 75 37 view -0
  48              		.cfi_startproc
  49              		@ args = 0, pretend = 0, frame = 0
  50              		@ frame_needed = 0, uses_anonymous_args = 0
  51              		@ link register save eliminated.
  52              		.loc 1 77 3 view .LVU3
  53              		.loc 1 77 16 is_stmt 0 view .LVU4
  54 0000 0120A0E3 		mov	r2, #1
  55              		.loc 1 78 16 view .LVU5
  56 0004 0030A0E3 		mov	r3, #0
  57              		.loc 1 77 16 view .LVU6
ARM GAS  /tmp/ccHInf9i.s 			page 2


  58 0008 0020C0E5 		strb	r2, [r0]
  59              		.loc 1 78 3 is_stmt 1 view .LVU7
  60              		.loc 1 78 16 is_stmt 0 view .LVU8
  61 000c 043080E5 		str	r3, [r0, #4]
  62              		.loc 1 82 3 is_stmt 1 view .LVU9
  63 0010 100080E2 		add	r0, r0, #16
  64              	.LVL2:
  65              		.loc 1 82 3 is_stmt 0 view .LVU10
  66 0014 FEFFFFEA 		b	chMtxInit
  67              	.LVL3:
  68              		.loc 1 82 3 view .LVU11
  69              		.cfi_endproc
  70              	.LFE8:
  71              		.size	i2cObjectInit, .-i2cObjectInit
  72              		.section	.text.i2cStart,"ax",%progbits
  73              		.align	2
  74              		.global	i2cStart
  75              		.syntax unified
  76              		.arm
  77              		.fpu softvfp
  78              		.type	i2cStart, %function
  79              	i2cStart:
  80              	.LVL4:
  81              	.LFB9:
  82              		.loc 1 101 57 is_stmt 1 view -0
  83              		.cfi_startproc
  84              		@ args = 0, pretend = 0, frame = 0
  85              		@ frame_needed = 0, uses_anonymous_args = 0
  86              		.loc 1 103 3 view .LVU13
  87              		.loc 1 103 61 view .LVU14
  88              		.loc 1 104 3 view .LVU15
  89              		.loc 1 107 31 view .LVU16
  90              		.loc 1 109 3 view .LVU17
  91              		.loc 1 101 57 is_stmt 0 view .LVU18
  92 0000 10402DE9 		push	{r4, lr}
  93              		.cfi_def_cfa_offset 8
  94              		.cfi_offset 4, -8
  95              		.cfi_offset 14, -4
  96              		.loc 1 101 57 view .LVU19
  97 0004 0040A0E1 		mov	r4, r0
  98              		.loc 1 109 3 view .LVU20
  99              		.syntax divided
 100              	@ 109 "../../os/hal/src/i2c.c" 1
 101 0008 9FF021E3 		msr     CPSR_c, #0x9F
 102              	@ 0 "" 2
 103              		.loc 1 109 3 is_stmt 1 view .LVU21
 104              		.loc 1 109 14 view .LVU22
 105              		.loc 1 110 3 view .LVU23
 106              		.loc 1 110 16 is_stmt 0 view .LVU24
 107              		.arm
 108              		.syntax unified
 109 000c 041080E5 		str	r1, [r0, #4]
 110              		.loc 1 111 3 is_stmt 1 view .LVU25
 111 0010 FEFFFFEB 		bl	i2c_lld_start
 112              	.LVL5:
 113              		.loc 1 112 3 view .LVU26
 114              		.loc 1 112 15 is_stmt 0 view .LVU27
ARM GAS  /tmp/ccHInf9i.s 			page 3


 115 0014 0230A0E3 		mov	r3, #2
 116 0018 0030C4E5 		strb	r3, [r4]
 117              		.loc 1 113 3 is_stmt 1 view .LVU28
 118              		.loc 1 113 3 view .LVU29
 119              		.syntax divided
 120              	@ 113 "../../os/hal/src/i2c.c" 1
 121 001c 1FF021E3 		msr     CPSR_c, #0x1F
 122              	@ 0 "" 2
 123              		.loc 1 113 16 view .LVU30
 124              		.loc 1 114 1 is_stmt 0 view .LVU31
 125              		.arm
 126              		.syntax unified
 127 0020 1080BDE8 		pop	{r4, pc}
 128              		.cfi_endproc
 129              	.LFE9:
 130              		.size	i2cStart, .-i2cStart
 131              		.section	.text.i2cStop,"ax",%progbits
 132              		.align	2
 133              		.global	i2cStop
 134              		.syntax unified
 135              		.arm
 136              		.fpu softvfp
 137              		.type	i2cStop, %function
 138              	i2cStop:
 139              	.LVL6:
 140              	.LFB10:
 141              		.loc 1 123 31 is_stmt 1 view -0
 142              		.cfi_startproc
 143              		@ args = 0, pretend = 0, frame = 0
 144              		@ frame_needed = 0, uses_anonymous_args = 0
 145              		.loc 1 125 3 view .LVU33
 146              		.loc 1 125 38 view .LVU34
 147              		.loc 1 126 3 view .LVU35
 148              		.loc 1 129 31 view .LVU36
 149              		.loc 1 131 3 view .LVU37
 150              		.loc 1 123 31 is_stmt 0 view .LVU38
 151 0000 10402DE9 		push	{r4, lr}
 152              		.cfi_def_cfa_offset 8
 153              		.cfi_offset 4, -8
 154              		.cfi_offset 14, -4
 155              		.loc 1 123 31 view .LVU39
 156 0004 0040A0E1 		mov	r4, r0
 157              		.loc 1 131 3 view .LVU40
 158              		.syntax divided
 159              	@ 131 "../../os/hal/src/i2c.c" 1
 160 0008 9FF021E3 		msr     CPSR_c, #0x9F
 161              	@ 0 "" 2
 162              		.loc 1 131 3 is_stmt 1 view .LVU41
 163              		.loc 1 131 14 view .LVU42
 164              		.loc 1 132 3 view .LVU43
 165              		.arm
 166              		.syntax unified
 167 000c FEFFFFEB 		bl	i2c_lld_stop
 168              	.LVL7:
 169              		.loc 1 133 3 view .LVU44
 170              		.loc 1 133 15 is_stmt 0 view .LVU45
 171 0010 0130A0E3 		mov	r3, #1
ARM GAS  /tmp/ccHInf9i.s 			page 4


 172 0014 0030C4E5 		strb	r3, [r4]
 173              		.loc 1 134 3 is_stmt 1 view .LVU46
 174              		.loc 1 134 3 view .LVU47
 175              		.syntax divided
 176              	@ 134 "../../os/hal/src/i2c.c" 1
 177 0018 1FF021E3 		msr     CPSR_c, #0x1F
 178              	@ 0 "" 2
 179              		.loc 1 134 16 view .LVU48
 180              		.loc 1 135 1 is_stmt 0 view .LVU49
 181              		.arm
 182              		.syntax unified
 183 001c 1080BDE8 		pop	{r4, pc}
 184              		.cfi_endproc
 185              	.LFE10:
 186              		.size	i2cStop, .-i2cStop
 187              		.section	.text.i2cGetErrors,"ax",%progbits
 188              		.align	2
 189              		.global	i2cGetErrors
 190              		.syntax unified
 191              		.arm
 192              		.fpu softvfp
 193              		.type	i2cGetErrors, %function
 194              	i2cGetErrors:
 195              	.LVL8:
 196              	.LFB11:
 197              		.loc 1 145 42 is_stmt 1 view -0
 198              		.cfi_startproc
 199              		@ args = 0, pretend = 0, frame = 0
 200              		@ frame_needed = 0, uses_anonymous_args = 0
 201              		@ link register save eliminated.
 202              		.loc 1 147 3 view .LVU51
 203              		.loc 1 147 43 view .LVU52
 204              		.loc 1 149 3 view .LVU53
 205              		.loc 1 150 1 is_stmt 0 view .LVU54
 206 0000 080090E5 		ldr	r0, [r0, #8]
 207              	.LVL9:
 208              		.loc 1 150 1 view .LVU55
 209 0004 1EFF2FE1 		bx	lr
 210              		.cfi_endproc
 211              	.LFE11:
 212              		.size	i2cGetErrors, .-i2cGetErrors
 213              		.section	.text.i2cMasterTransmitTimeout,"ax",%progbits
 214              		.align	2
 215              		.global	i2cMasterTransmitTimeout
 216              		.syntax unified
 217              		.arm
 218              		.fpu softvfp
 219              		.type	i2cMasterTransmitTimeout, %function
 220              	i2cMasterTransmitTimeout:
 221              	.LVL10:
 222              	.LFB12:
 223              		.loc 1 184 51 is_stmt 1 view -0
 224              		.cfi_startproc
 225              		@ args = 12, pretend = 0, frame = 0
 226              		@ frame_needed = 0, uses_anonymous_args = 0
 227              		.loc 1 185 3 view .LVU57
 228              		.loc 1 187 3 view .LVU58
ARM GAS  /tmp/ccHInf9i.s 			page 5


 229              		.loc 1 191 41 view .LVU59
 230              		.loc 1 193 3 view .LVU60
 231              		.loc 1 194 61 view .LVU61
 232              		.loc 1 196 3 view .LVU62
 233              		.loc 1 184 51 is_stmt 0 view .LVU63
 234 0000 10402DE9 		push	{r4, lr}
 235              		.cfi_def_cfa_offset 8
 236              		.cfi_offset 4, -8
 237              		.cfi_offset 14, -4
 238 0004 10D04DE2 		sub	sp, sp, #16
 239              		.cfi_def_cfa_offset 24
 240              		.loc 1 184 51 view .LVU64
 241 0008 0040A0E1 		mov	r4, r0
 242 000c 18C09DE5 		ldr	ip, [sp, #24]
 243 0010 20E09DE5 		ldr	lr, [sp, #32]
 244              		.loc 1 196 3 view .LVU65
 245              		.syntax divided
 246              	@ 196 "../../os/hal/src/i2c.c" 1
 247 0014 9FF021E3 		msr     CPSR_c, #0x9F
 248              	@ 0 "" 2
 249              		.loc 1 196 3 is_stmt 1 view .LVU66
 250              		.loc 1 196 14 view .LVU67
 251              		.loc 1 197 3 view .LVU68
 252              		.loc 1 199 12 is_stmt 0 view .LVU69
 253              		.arm
 254              		.syntax unified
 255 0018 00C08DE5 		str	ip, [sp]
 256              		.loc 1 197 16 view .LVU70
 257 001c 00C0A0E3 		mov	ip, #0
 258              		.loc 1 199 12 view .LVU71
 259 0020 08E08DE5 		str	lr, [sp, #8]
 260              		.loc 1 197 16 view .LVU72
 261 0024 08C080E5 		str	ip, [r0, #8]
 262              		.loc 1 198 3 is_stmt 1 view .LVU73
 263              		.loc 1 198 15 is_stmt 0 view .LVU74
 264 0028 03C0A0E3 		mov	ip, #3
 265 002c 00C0C0E5 		strb	ip, [r0]
 266              		.loc 1 199 3 is_stmt 1 view .LVU75
 267              		.loc 1 199 12 is_stmt 0 view .LVU76
 268 0030 1CC09DE5 		ldr	ip, [sp, #28]
 269 0034 7CC0EFE6 		uxtb	ip, ip
 270 0038 04C08DE5 		str	ip, [sp, #4]
 271 003c FEFFFFEB 		bl	i2c_lld_master_transmit_timeout
 272              	.LVL11:
 273              		.loc 1 201 3 is_stmt 1 view .LVU77
 274              		.loc 1 202 17 is_stmt 0 view .LVU78
 275 0040 010070E3 		cmn	r0, #1
 276 0044 0230A013 		movne	r3, #2
 277 0048 0530A003 		moveq	r3, #5
 278 004c 0030C4E5 		strb	r3, [r4]
 279              		.loc 1 205 3 is_stmt 1 view .LVU79
 280              		.loc 1 205 3 view .LVU80
 281              		.syntax divided
 282              	@ 205 "../../os/hal/src/i2c.c" 1
 283 0050 1FF021E3 		msr     CPSR_c, #0x1F
 284              	@ 0 "" 2
 285              		.loc 1 205 16 view .LVU81
ARM GAS  /tmp/ccHInf9i.s 			page 6


 286              		.loc 1 206 3 view .LVU82
 287              		.loc 1 207 1 is_stmt 0 view .LVU83
 288              		.arm
 289              		.syntax unified
 290 0054 10D08DE2 		add	sp, sp, #16
 291              		.cfi_def_cfa_offset 8
 292              		@ sp needed
 293 0058 1080BDE8 		pop	{r4, pc}
 294              		.loc 1 207 1 view .LVU84
 295              		.cfi_endproc
 296              	.LFE12:
 297              		.size	i2cMasterTransmitTimeout, .-i2cMasterTransmitTimeout
 298              		.section	.text.i2cMasterReceiveTimeout,"ax",%progbits
 299              		.align	2
 300              		.global	i2cMasterReceiveTimeout
 301              		.syntax unified
 302              		.arm
 303              		.fpu softvfp
 304              		.type	i2cMasterReceiveTimeout, %function
 305              	i2cMasterReceiveTimeout:
 306              	.LVL12:
 307              	.LFB13:
 308              		.loc 1 233 49 is_stmt 1 view -0
 309              		.cfi_startproc
 310              		@ args = 4, pretend = 0, frame = 0
 311              		@ frame_needed = 0, uses_anonymous_args = 0
 312              		.loc 1 235 3 view .LVU86
 313              		.loc 1 237 3 view .LVU87
 314              		.loc 1 240 40 view .LVU88
 315              		.loc 1 242 3 view .LVU89
 316              		.loc 1 243 53 view .LVU90
 317              		.loc 1 245 3 view .LVU91
 318              		.loc 1 233 49 is_stmt 0 view .LVU92
 319 0000 10402DE9 		push	{r4, lr}
 320              		.cfi_def_cfa_offset 8
 321              		.cfi_offset 4, -8
 322              		.cfi_offset 14, -4
 323 0004 08D04DE2 		sub	sp, sp, #8
 324              		.cfi_def_cfa_offset 16
 325              		.loc 1 233 49 view .LVU93
 326 0008 0040A0E1 		mov	r4, r0
 327 000c 10C09DE5 		ldr	ip, [sp, #16]
 328              		.loc 1 245 3 view .LVU94
 329              		.syntax divided
 330              	@ 245 "../../os/hal/src/i2c.c" 1
 331 0010 9FF021E3 		msr     CPSR_c, #0x9F
 332              	@ 0 "" 2
 333              		.loc 1 245 3 is_stmt 1 view .LVU95
 334              		.loc 1 245 14 view .LVU96
 335              		.loc 1 246 3 view .LVU97
 336              		.loc 1 248 12 is_stmt 0 view .LVU98
 337              		.arm
 338              		.syntax unified
 339 0014 00C08DE5 		str	ip, [sp]
 340              		.loc 1 246 16 view .LVU99
 341 0018 00C0A0E3 		mov	ip, #0
 342 001c 08C080E5 		str	ip, [r0, #8]
ARM GAS  /tmp/ccHInf9i.s 			page 7


 343              		.loc 1 247 3 is_stmt 1 view .LVU100
 344              		.loc 1 247 15 is_stmt 0 view .LVU101
 345 0020 04C0A0E3 		mov	ip, #4
 346 0024 00C0C0E5 		strb	ip, [r0]
 347              		.loc 1 248 3 is_stmt 1 view .LVU102
 348              		.loc 1 248 12 is_stmt 0 view .LVU103
 349 0028 FEFFFFEB 		bl	i2c_lld_master_receive_timeout
 350              	.LVL13:
 351              		.loc 1 249 3 is_stmt 1 view .LVU104
 352              		.loc 1 250 17 is_stmt 0 view .LVU105
 353 002c 010070E3 		cmn	r0, #1
 354 0030 0230A013 		movne	r3, #2
 355 0034 0530A003 		moveq	r3, #5
 356 0038 0030C4E5 		strb	r3, [r4]
 357              		.loc 1 253 3 is_stmt 1 view .LVU106
 358              		.loc 1 253 3 view .LVU107
 359              		.syntax divided
 360              	@ 253 "../../os/hal/src/i2c.c" 1
 361 003c 1FF021E3 		msr     CPSR_c, #0x1F
 362              	@ 0 "" 2
 363              		.loc 1 253 16 view .LVU108
 364              		.loc 1 254 3 view .LVU109
 365              		.loc 1 255 1 is_stmt 0 view .LVU110
 366              		.arm
 367              		.syntax unified
 368 0040 08D08DE2 		add	sp, sp, #8
 369              		.cfi_def_cfa_offset 8
 370              		@ sp needed
 371 0044 1080BDE8 		pop	{r4, pc}
 372              		.loc 1 255 1 view .LVU111
 373              		.cfi_endproc
 374              	.LFE13:
 375              		.size	i2cMasterReceiveTimeout, .-i2cMasterReceiveTimeout
 376              		.section	.text.i2cAcquireBus,"ax",%progbits
 377              		.align	2
 378              		.global	i2cAcquireBus
 379              		.syntax unified
 380              		.arm
 381              		.fpu softvfp
 382              		.type	i2cAcquireBus, %function
 383              	i2cAcquireBus:
 384              	.LVL14:
 385              	.LFB14:
 386              		.loc 1 269 37 is_stmt 1 view -0
 387              		.cfi_startproc
 388              		@ args = 0, pretend = 0, frame = 0
 389              		@ frame_needed = 0, uses_anonymous_args = 0
 390              		@ link register save eliminated.
 391              		.loc 1 271 3 view .LVU113
 392              		.loc 1 271 44 view .LVU114
 393              		.loc 1 274 3 view .LVU115
 394 0000 100080E2 		add	r0, r0, #16
 395              	.LVL15:
 396              		.loc 1 274 3 is_stmt 0 view .LVU116
 397 0004 FEFFFFEA 		b	chMtxLock
 398              	.LVL16:
 399              		.loc 1 274 3 view .LVU117
ARM GAS  /tmp/ccHInf9i.s 			page 8


 400              		.cfi_endproc
 401              	.LFE14:
 402              		.size	i2cAcquireBus, .-i2cAcquireBus
 403              		.section	.text.i2cReleaseBus,"ax",%progbits
 404              		.align	2
 405              		.global	i2cReleaseBus
 406              		.syntax unified
 407              		.arm
 408              		.fpu softvfp
 409              		.type	i2cReleaseBus, %function
 410              	i2cReleaseBus:
 411              	.LVL17:
 412              	.LFB15:
 413              		.loc 1 289 37 is_stmt 1 view -0
 414              		.cfi_startproc
 415              		@ args = 0, pretend = 0, frame = 0
 416              		@ frame_needed = 0, uses_anonymous_args = 0
 417              		@ link register save eliminated.
 418              		.loc 1 291 3 view .LVU119
 419              		.loc 1 291 44 view .LVU120
 420              		.loc 1 294 3 view .LVU121
 421 0000 FEFFFFEA 		b	chMtxUnlock
 422              	.LVL18:
 423              		.loc 1 294 3 is_stmt 0 view .LVU122
 424              		.cfi_endproc
 425              	.LFE15:
 426              		.size	i2cReleaseBus, .-i2cReleaseBus
 427              		.text
 428              	.Letext0:
 429              		.file 2 "/usr/lib/gcc/arm-none-eabi/11.2.0/include/stddef.h"
 430              		.file 3 "/usr/arm-none-eabi/include/machine/_default_types.h"
 431              		.file 4 "/usr/arm-none-eabi/include/sys/_stdint.h"
 432              		.file 5 "../../os/ports/GCC/ARM/chtypes.h"
 433              		.file 6 "../../os/kernel/include/chlists.h"
 434              		.file 7 "../../os/kernel/include/chthreads.h"
 435              		.file 8 "../../os/ports/GCC/ARM/chcore.h"
 436              		.file 9 "../../os/kernel/include/chmtx.h"
 437              		.file 10 "../../os/hal/platforms/BCM2835/bcm2835.h"
 438              		.file 11 "../../os/hal/include/i2c.h"
 439              		.file 12 "../../os/hal/platforms/BCM2835/i2c_lld.h"