ARM GAS  /tmp/ccHInf9i.s 			page 1


   1              		.cpu arm1176jz-s
   2              		.eabi_attribute 20, 1
   3              		.eabi_attribute 21, 1
   4              		.eabi_attribute 23, 3
   5              		.eabi_attribute 24, 1
   6              		.eabi_attribute 25, 1
   7              		.eabi_attribute 26, 1
   8              		.eabi_attribute 30, 2
   9              		.eabi_attribute 34, 1
  10              		.eabi_attribute 18, 4
  11              		.file	"i2c.c"
  12              		.text
  13              	.Ltext0:
  14              		.cfi_sections	.debug_frame
  15              		.section	.text.i2cInit,"ax",%progbits
  16              		.align	2
  17              		.global	i2cInit
  18              		.arch armv6kz
  19              		.syntax unified
  20              		.arm
  21              		.fpu softvfp
  22              		.type	i2cInit, %function
  23              	i2cInit:
  24              	.LFB7:
  25              		.file 1 "../../os/hal/src/i2c.c"
  26              		.loc 1 64 20 view -0
  27              		.cfi_startproc
  28              		@ args = 0, pretend = 0, frame = 0
  29              		@ frame_needed = 0, uses_anonymous_args = 0
  30              		@ link register save eliminated.
  31              		.loc 1 65 3 view .LVU1
  32 0000 FEFFFFEA 		b	i2c_lld_init
  33              	.LVL0:
  34              		.cfi_endproc
  35              	.LFE7:
  36              		.size	i2cInit, .-i2cInit
  37              		.section	.text.i2cObjectInit,"ax",%progbits
  38              		.align	2
  39              		.global	i2cObjectInit
  40              		.syntax unified
  41              		.arm
  42              		.fpu softvfp
  43              		.type	i2cObjectInit, %function
  44              	i2cObjectInit:
  45              	.LVL1:
  46              	.LFB8:
  47              		.loc 1 75 37 view -0
  48              		.cfi_startproc
  49              		@ args = 0, pretend = 0, frame = 0
  50              		@ frame_needed = 0, uses_anonymous_args = 0
  51              		@ link register save eliminated.
  52              		.loc 1 77 3 view .LVU3
  53              		.loc 1 77 16 is_stmt 0 view .LVU4
  54 0000 0120A0E3 		mov	r2, #1
  55              		.loc 1 78 16 view .LVU5
  56 0004 0030A0E3 		mov	r3, #0
  57              		.loc 1 77 16 view .LVU6
ARM GAS  /tmp/ccHInf9i.s 			page 2


  58 0008 0020C0E5 		strb	r2, [r0]
  59              		.loc 1 78 3 is_stmt 1 view .LVU7
  60              		.loc 1 78 16 is_stmt 0 view .LVU8
  61 000c 043080E5 		str	r3, [r0, #4]
  62              		.loc 1 82 3 is_stmt 1 view .LVU9
  63 0010 100080E2 		add	r0, r0, #16
  64              	.LVL2:
  65              		.loc 1 82 3 is_stmt 0 view .LVU10
  66 0014 FEFFFFEA 		b	chMtxInit
  67              	.LVL3:
  68              		.loc 1 82 3 view .LVU11
  69              		.cfi_endproc
  70              	.LFE8:
  71              		.size	i2cObjectInit, .-i2cObjectInit
  72              		.section	.text.i2cStart,"ax",%progbits
  73              		.align	2
  74              		.global	i2cStart
  75              		.syntax unified
  76              		.arm
  77              		.fpu softvfp
  78              		.type	i2cStart, %function
  79              	i2cStart:
  80              	.LVL4:
  81              	.LFB9:
  82              		.loc 1 101 57 is_stmt 1 view -0
  83              		.cfi_startproc
  84              		@ args = 0, pretend = 0, frame = 0
  85              		@ frame_needed = 0, uses_anonymous_args = 0
  86              		.loc 1 103 3 view .LVU13
  87              		.loc 1 103 61 view .LVU14
  88              		.loc 1 104 3 view .LVU15
  89              		.loc 1 107 31 view .LVU16
  90              		.loc 1 109 3 view .LVU17
  91              		.loc 1 101 57 is_stmt 0 view .LVU18
  92 0000 10402DE9 		push	{r4, lr}
  93              		.cfi_def_cfa_offset 8
  94              		.cfi_offset 4, -8
  95              		.cfi_offset 14, -4
  96              		.loc 1 101 57 view .LVU19
  97 0004 0040A0E1 		mov	r4, r0
  98              		.loc 1 109 3 view .LVU20
  99              		.syntax divided
 100              	@ 109 "../../os/hal/src/i2c.c" 1
 101 0008 9FF021E3 		msr     CPSR_c, #0x9F
 102              	@ 0 "" 2
 103              		.loc 1 109 3 is_stmt 1 view .LVU21
 104              		.loc 1 109 14 view .LVU22
 105              		.loc 1 110 3 view .LVU23
 106              		.loc 1 110 16 is_stmt 0 view .LVU24
 107              		.arm
 108              		.syntax unified
 109 000c 041080E5 		str	r1, [r0, #4]
 110              		.loc 1 111 3 is_stmt 1 view .LVU25
 111 0010 FEFFFFEB 		bl	i2c_lld_start
 112              	.LVL5:
 113              		.loc 1 112 3 view .LVU26
 114              		.loc 1 112 15 is_stmt 0 view .LVU27
ARM GAS  /tmp/ccHInf9i.s 			page 3


 115 0014 0230A0E3 		mov	r3, #2
 116 0018 0030C4E5 		strb	r3, [r4]
 117              		.loc 1 113 3 is_stmt 1 view .LVU28
 118              		.loc 1 113 3 view .LVU29
 119              		.syntax divided
 120              	@ 113 "../../os/hal/src/i2c.c" 1
 121 001c 1FF021E3 		msr     CPSR_c, #0x1F
 122              	@ 0 "" 2
 123              		.loc 1 113 16 view .LVU30
 124              		.loc 1 114 1 is_stmt 0 view .LVU31
 125              		.arm
 126              		.syntax unified
 127 0020 1080BDE8 		pop	{r4, pc}
 128              		.cfi_endproc
 129              	.LFE9:
 130              		.size	i2cStart, .-i2cStart
 131              		.section	.text.i2cStop,"ax",%progbits
 132              		.align	2
 133              		.global	i2cStop
 134              		.syntax unified
 135              		.arm
 136              		.fpu softvfp
 137              		.type	i2cStop, %function
 138              	i2cStop:
 139              	.LVL6:
 140              	.LFB10:
 141              		.loc 1 123 31 is_stmt 1 view -0
 142              		.cfi_startproc
 143              		@ args = 0, pretend = 0, frame = 0
 144              		@ frame_needed = 0, uses_anonymous_args = 0
 145              		.loc 1 125 3 view .LVU33
 146              		.loc 1 125 38 view .LVU34
 147              		.loc 1 126 3 view .LVU35
 148              		.loc 1 129 31 view .LVU36
 149              		.loc 1 131 3 view .LVU37
 150              		.loc 1 123 31 is_stmt 0 view .LVU38
 151 0000 10402DE9 		push	{r4, lr}
 152              		.cfi_def_cfa_offset 8
 153              		.cfi_offset 4, -8
 154              		.cfi_offset 14, -4
 155              		.loc 1 123 31 view .LVU39
 156 0004 0040A0E1 		mov	r4, r0
 157              		.loc 1 131 3 view .LVU40
 158              		.syntax divided
 159              	@ 131 "../../os/hal/src/i2c.c" 1
 160 0008 9FF021E3 		msr     CPSR_c, #0x9F
 161              	@ 0 "" 2
 162              		.loc 1 131 3 is_stmt 1 view .LVU41
 163              		.loc 1 131 14 view .LVU42
 164              		.loc 1 132 3 view .LVU43
 165              		.arm
 166              		.syntax unified
 167 000c FEFFFFEB 		bl	i2c_lld_stop
 168              	.LVL7:
 169              		.loc 1 133 3 view .LVU44
 170              		.loc 1 133 15 is_stmt 0 view .LVU45
 171 0010 0130A0E3 		mov	r3, #1
ARM GAS  /tmp/ccHInf9i.s 			page 4


 172 0014 0030C4E5 		strb	r3, [r4]
 173              		.loc 1 134 3 is_stmt 1 view .LVU46
 174              		.loc 1 134 3 view .LVU47
 175              		.syntax divided
 176              	@ 134 "../../os/hal/src/i2c.c" 1
 177 0018 1FF021E3 		msr     CPSR_c, #0x1F
 178              	@ 0 "" 2
 179              		.loc 1 134 16 view .LVU48
 180              		.loc 1 135 1 is_stmt 0 view .LVU49
 181              		.arm
 182              		.syntax unified
 183 001c 1080BDE8 		pop	{r4, pc}
 184              		.cfi_endproc
 185              	.LFE10:
 186              		.size	i2cStop, .-i2cStop
 187              		.section	.text.i2cGetErrors,"ax",%progbits
 188              		.align	2
 189              		.global	i2cGetErrors
 190              		.syntax unified
 191              		.arm
 192              		.fpu softvfp
 193              		.type	i2cGetErrors, %function
 194              	i2cGetErrors:
 195              	.LVL8:
 196              	.LFB11:
 197              		.loc 1 145 42 is_stmt 1 view -0
 198              		.cfi_startproc
 199              		@ args = 0, pretend = 0, frame = 0
 200              		@ frame_needed = 0, uses_anonymous_args = 0
 201              		@ link register save eliminated.
 202              		.loc 1 147 3 view .LVU51
 203              		.loc 1 147 43 view .LVU52
 204              		.loc 1 149 3 view .LVU53
 205              		.loc 1 150 1 is_stmt 0 view .LVU54
 206 0000 080090E5 		ldr	r0, [r0, #8]
 207              	.LVL9:
 208              		.loc 1 150 1 view .LVU55
 209 0004 1EFF2FE1 		bx	lr
 210              		.cfi_endproc
 211              	.LFE11:
 212              		.size	i2cGetErrors, .-i2cGetErrors
 213              		.section	.text.i2cMasterTransmitTimeout,"ax",%progbits
 214              		.align	2
 215              		.global	i2cMasterTransmitTimeout
 216              		.syntax unified
 217              		.arm
 218              		.fpu softvfp
 219              		.type	i2cMasterTransmitTimeout, %function
 220              	i2cMasterTransmitTimeout:
 221              	.LVL10:
 222              	.LFB12:
 223              		.loc 1 184 51 is_stmt 1 view -0
 224              		.cfi_startproc
 225              		@ args = 12, pretend = 0, frame = 0
 226              		@ frame_needed = 0, uses_anonymous_args = 0
 227              		.loc 1 185 3 view .LVU57
 228              		.loc 1 187 3 view .LVU58
ARM GAS  /tmp/ccHInf9i.s 			page 5


 229              		.loc 1 191 41 view .LVU59
 230              		.loc 1 193 3 view .LVU60
 231              		.loc 1 194 61 view .LVU61
 232              		.loc 1 196 3 view .LVU62
 233              		.loc 1 184 51 is_stmt 0 view .LVU63
 234 0000 10402DE9 		push	{r4, lr}
 235              		.cfi_def_cfa_offset 8
 236              		.cfi_offset 4, -8
 237              		.cfi_offset 14, -4
 238 0004 10D04DE2 		sub	sp, sp, #16
 239              		.cfi_def_cfa_offset 24
 240              		.loc 1 184 51 view .LVU64
 241 0008 0040A0E1 		mov	r4, r0
 242 000c 18C09DE5 		ldr	ip, [sp, #24]
 243 0010 20E09DE5 		ldr	lr, [sp, #32]
 244              		.loc 1 196 3 view .LVU65
 245              		.syntax divided
 246              	@ 196 "../../os/hal/src/i2c.c" 1
 247 0014 9FF021E3 		msr     CPSR_c, #0x9F
 248              	@ 0 "" 2
 249              		.loc 1 196 3 is_stmt 1 view .LVU66
 250              		.loc 1 196 14 view .LVU67
 251              		.loc 1 197 3 view .LVU68
 252              		.loc 1 199 12 is_stmt 0 view .LVU69
 253              		.arm
 254              		.syntax unified
 255 0018 00C08DE5 		str	ip, [sp]
 256              		.loc 1 197 16 view .LVU70
 257 001c 00C0A0E3 		mov	ip, #0
 258              		.loc 1 199 12 view .LVU71
 259 0020 08E08DE5 		str	lr, [sp, #8]
 260              		.loc 1 197 16 view .LVU72
 261 0024 08C080E5 		str	ip, [r0, #8]
 262              		.loc 1 198 3 is_stmt 1 view .LVU73
 263              		.loc 1 198 15 is_stmt 0 view .LVU74
 264 0028 03C0A0E3 		mov	ip, #3
 265 002c 00C0C0E5 		strb	ip, [r0]
 266              		.loc 1 199 3 is_stmt 1 view .LVU75
 267              		.loc 1 199 12 is_stmt 0 view .LVU76
 268 0030 1CC09DE5 		ldr	ip, [sp, #28]
 269 0034 7CC0EFE6 		uxtb	ip, ip
 270 0038 04C08DE5 		str	ip, [sp, #4]
 271 003c FEFFFFEB 		bl	i2c_lld_master_transmit_timeout
 272              	.LVL11:
 273              		.loc 1 201 3 is_stmt 1 view .LVU77
 274              		.loc 1 202 17 is_stmt 0 view .LVU78
 275 0040 010070E3 		cmn	r0, #1
 276 0044 0230A013 		movne	r3, #2
 277 0048 0530A003 		moveq	r3, #5
 278 004c 0030C4E5 		strb	r3, [r4]
 279              		.loc 1 205 3 is_stmt 1 view .LVU79
 280              		.loc 1 205 3 view .LVU80
 281              		.syntax divided
 282              	@ 205 "../../os/hal/src/i2c.c" 1
 283 0050 1FF021E3 		msr     CPSR_c, #0x1F
 284              	@ 0 "" 2
 285              		.loc 1 205 16 view .LVU81
ARM GAS  /tmp/ccHInf9i.s 			page 6


 286              		.loc 1 206 3 view .LVU82
 287              		.loc 1 207 1 is_stmt 0 view .LVU83
 288              		.arm
 289              		.syntax unified
 290 0054 10D08DE2 		add	sp, sp, #16
 291              		.cfi_def_cfa_offset 8
 292              		@ sp needed
 293 0058 1080BDE8 		pop	{r4, pc}
 294              		.loc 1 207 1 view .LVU84
 295              		.cfi_endproc
 296              	.LFE12:
 297              		.size	i2cMasterTransmitTimeout, .-i2cMasterTransmitTimeout
 298              		.section	.text.i2cMasterReceiveTimeout,"ax",%progbits
 299              		.align	2
 300              		.global	i2cMasterReceiveTimeout
 301              		.syntax unified
 302              		.arm
 303              		.fpu softvfp
 304              		.type	i2cMasterReceiveTimeout, %function
 305              	i2cMasterReceiveTimeout:
 306              	.LVL12:
 307              	.LFB13:
 308              		.loc 1 233 49 is_stmt 1 view -0
 309              		.cfi_startproc
 310              		@ args = 4, pretend = 0, frame = 0
 311              		@ frame_needed = 0, uses_anonymous_args = 0
 312              		.loc 1 235 3 view .LVU86
 313              		.loc 1 237 3 view .LVU87
 314              		.loc 1 240 40 view .LVU88
 315              		.loc 1 242 3 view .LVU89
 316              		.loc 1 243 53 view .LVU90
 317              		.loc 1 245 3 view .LVU91
 318              		.loc 1 233 49 is_stmt 0 view .LVU92
 319 0000 10402DE9 		push	{r4, lr}
 320              		.cfi_def_cfa_offset 8
 321              		.cfi_offset 4, -8
 322              		.cfi_offset 14, -4
 323 0004 08D04DE2 		sub	sp, sp, #8
 324              		.cfi_def_cfa_offset 16
 325              		.loc 1 233 49 view .LVU93
 326 0008 0040A0E1 		mov	r4, r0
 327 000c 10C09DE5 		ldr	ip, [sp, #16]
 328              		.loc 1 245 3 view .LVU94
 329              		.syntax divided
 330              	@ 245 "../../os/hal/src/i2c.c" 1
 331 0010 9FF021E3 		msr     CPSR_c, #0x9F
 332              	@ 0 "" 2
 333              		.loc 1 245 3 is_stmt 1 view .LVU95
 334              		.loc 1 245 14 view .LVU96
 335              		.loc 1 246 3 view .LVU97
 336              		.loc 1 248 12 is_stmt 0 view .LVU98
 337              		.arm
 338              		.syntax unified
 339 0014 00C08DE5 		str	ip, [sp]
 340              		.loc 1 246 16 view .LVU99
 341 0018 00C0A0E3 		mov	ip, #0
 342 001c 08C080E5 		str	ip, [r0, #8]
ARM GAS  /tmp/ccHInf9i.s 			page 7


 343              		.loc 1 247 3 is_stmt 1 view .LVU100
 344              		.loc 1 247 15 is_stmt 0 view .LVU101
 345 0020 04C0A0E3 		mov	ip, #4
 346 0024 00C0C0E5 		strb	ip, [r0]
 347              		.loc 1 248 3 is_stmt 1 view .LVU102
 348              		.loc 1 248 12 is_stmt 0 view .LVU103
 349 0028 FEFFFFEB 		bl	i2c_lld_master_receive_timeout
 350              	.LVL13:
 351              		.loc 1 249 3 is_stmt 1 view .LVU104
 352              		.loc 1 250 17 is_stmt 0 view .LVU105
 353 002c 010070E3 		cmn	r0, #1
 354 0030 0230A013 		movne	r3, #2
 355 0034 0530A003 		moveq	r3, #5
 356 0038 0030C4E5 		strb	r3, [r4]
 357              		.loc 1 253 3 is_stmt 1 view .LVU106
 358              		.loc 1 253 3 view .LVU107
 359              		.syntax divided
 360              	@ 253 "../../os/hal/src/i2c.c" 1
 361 003c 1FF021E3 		msr     CPSR_c, #0x1F
 362              	@ 0 "" 2
 363              		.loc 1 253 16 view .LVU108
 364              		.loc 1 254 3 view .LVU109
 365              		.loc 1 255 1 is_stmt 0 view .LVU110
 366              		.arm
 367              		.syntax unified
 368 0040 08D08DE2 		add	sp, sp, #8
 369              		.cfi_def_cfa_offset 8
 370              		@ sp needed
 371 0044 1080BDE8 		pop	{r4, pc}
 372              		.loc 1 255 1 view .LVU111
 373              		.cfi_endproc
 374              	.LFE13:
 375              		.size	i2cMasterReceiveTimeout, .-i2cMasterReceiveTimeout
 376              		.section	.text.i2cAcquireBus,"ax",%progbits
 377              		.align	2
 378              		.global	i2cAcquireBus
 379              		.syntax unified
 380              		.arm
 381              		.fpu softvfp
 382              		.type	i2cAcquireBus, %function
 383              	i2cAcquireBus:
 384              	.LVL14:
 385              	.LFB14:
 386              		.loc 1 269 37 is_stmt 1 view -0
 387              		.cfi_startproc
 388              		@ args = 0, pretend = 0, frame = 0
 389              		@ frame_needed = 0, uses_anonymous_args = 0
 390              		@ link register save eliminated.
 391              		.loc 1 271 3 view .LVU113
 392              		.loc 1 271 44 view .LVU114
 393              		.loc 1 274 3 view .LVU115
 394 0000 100080E2 		add	r0, r0, #16
 395              	.LVL15:
 396              		.loc 1 274 3 is_stmt 0 view .LVU116
 397 0004 FEFFFFEA 		b	chMtxLock
 398              	.LVL16:
 399              		.loc 1 274 3 view .LVU117
ARM GAS  /tmp/ccHInf9i.s 			page 8


 400              		.cfi_endproc
 401              	.LFE14:
 402              		.size	i2cAcquireBus, .-i2cAcquireBus
 403              		.section	.text.i2cReleaseBus,"ax",%progbits
 404              		.align	2
 405              		.global	i2cReleaseBus
 406              		.syntax unified
 407              		.arm
 408              		.fpu softvfp
 409              		.type	i2cReleaseBus, %function
 410              	i2cReleaseBus:
 411              	.LVL17:
 412              	.LFB15:
 413              		.loc 1 289 37 is_stmt 1 view -0
 414              		.cfi_startproc
 415              		@ args = 0, pretend = 0, frame = 0
 416              		@ frame_needed = 0, uses_anonymous_args = 0
 417              		@ link register save eliminated.
 418              		.loc 1 291 3 view .LVU119
 419              		.loc 1 291 44 view .LVU120
 420              		.loc 1 294 3 view .LVU121
 421 0000 FEFFFFEA 		b	chMtxUnlock
 422              	.LVL18:
 423              		.loc 1 294 3 is_stmt 0 view .LVU122
 424              		.cfi_endproc
 425              	.LFE15:
 426              		.size	i2cReleaseBus, .-i2cReleaseBus
 427              		.text
 428              	.Letext0:
 429              		.file 2 "/usr/lib/gcc/arm-none-eabi/11.2.0/include/stddef.h"
 430              		.file 3 "/usr/arm-none-eabi/include/machine/_default_types.h"
 431              		.file 4 "/usr/arm-none-eabi/include/sys/_stdint.h"
 432              		.file 5 "../../os/ports/GCC/ARM/chtypes.h"
 433              		.file 6 "../../os/kernel/include/chlists.h"
 434              		.file 7 "../../os/kernel/include/chthreads.h"
 435              		.file 8 "../../os/ports/GCC/ARM/chcore.h"
 436              		.file 9 "../../os/kernel/include/chmtx.h"
 437              		.file 10 "../../os/hal/platforms/BCM2835/bcm2835.h"
 438              		.file 11 "../../os/hal/include/i2c.h"
 439              		.file 12 "../../os/hal/platforms/BCM2835/i2c_lld.h"
 440              		.section	.debug_info,"",%progbits
 441              	.Ldebug_info0:
 442 0000 52090000 		.4byte	0x952
 443 0004 0500     		.2byte	0x5
 444 0006 01       		.byte	0x1
 445 0007 04       		.byte	0x4
 446 0008 00000000 		.4byte	.Ldebug_abbrev0
 447 000c 1B       		.uleb128 0x1b
 448 000d 43020000 		.4byte	.LASF109
 449 0011 1D       		.byte	0x1d
 450 0012 C2000000 		.4byte	.LASF110
 451 0016 02030000 		.4byte	.LASF111
 452 001a 0C000000 		.4byte	.LLRL17
 453 001e 00000000 		.4byte	0
 454 0022 00000000 		.4byte	.Ldebug_line0
 455 0026 1C       		.uleb128 0x1c
 456 0027 04       		.byte	0x4
ARM GAS  /tmp/ccHInf9i.s 			page 9


 457 0028 05       		.byte	0x5
 458 0029 696E7400 		.ascii	"int\000"
 459 002d 02       		.uleb128 0x2
 460 002e 06000000 		.4byte	.LASF2
 461 0032 02       		.byte	0x2
 462 0033 D1       		.byte	0xd1
 463 0034 17       		.byte	0x17
 464 0035 39000000 		.4byte	0x39
 465 0039 07       		.uleb128 0x7
 466 003a 04       		.byte	0x4
 467 003b 07       		.byte	0x7
 468 003c A2010000 		.4byte	.LASF0
 469 0040 14       		.uleb128 0x14
 470 0041 39000000 		.4byte	0x39
 471 0045 07       		.uleb128 0x7
 472 0046 01       		.byte	0x1
 473 0047 06       		.byte	0x6
 474 0048 B6000000 		.4byte	.LASF1
 475 004c 02       		.uleb128 0x2
 476 004d 14000000 		.4byte	.LASF3
 477 0051 03       		.byte	0x3
 478 0052 2B       		.byte	0x2b
 479 0053 18       		.byte	0x18
 480 0054 58000000 		.4byte	0x58
 481 0058 07       		.uleb128 0x7
 482 0059 01       		.byte	0x1
 483 005a 08       		.byte	0x8
 484 005b CD030000 		.4byte	.LASF4
 485 005f 07       		.uleb128 0x7
 486 0060 02       		.byte	0x2
 487 0061 05       		.byte	0x5
 488 0062 E5030000 		.4byte	.LASF5
 489 0066 02       		.uleb128 0x2
 490 0067 64040000 		.4byte	.LASF6
 491 006b 03       		.byte	0x3
 492 006c 39       		.byte	0x39
 493 006d 19       		.byte	0x19
 494 006e 72000000 		.4byte	0x72
 495 0072 07       		.uleb128 0x7
 496 0073 02       		.byte	0x2
 497 0074 07       		.byte	0x7
 498 0075 DE010000 		.4byte	.LASF7
 499 0079 02       		.uleb128 0x2
 500 007a 8B040000 		.4byte	.LASF8
 501 007e 03       		.byte	0x3
 502 007f 4D       		.byte	0x4d
 503 0080 18       		.byte	0x18
 504 0081 85000000 		.4byte	0x85
 505 0085 07       		.uleb128 0x7
 506 0086 04       		.byte	0x4
 507 0087 05       		.byte	0x5
 508 0088 45010000 		.4byte	.LASF9
 509 008c 02       		.uleb128 0x2
 510 008d 81010000 		.4byte	.LASF10
 511 0091 03       		.byte	0x3
 512 0092 4F       		.byte	0x4f
 513 0093 19       		.byte	0x19
ARM GAS  /tmp/ccHInf9i.s 			page 10


 514 0094 98000000 		.4byte	0x98
 515 0098 07       		.uleb128 0x7
 516 0099 04       		.byte	0x4
 517 009a 07       		.byte	0x7
 518 009b BC010000 		.4byte	.LASF11
 519 009f 07       		.uleb128 0x7
 520 00a0 08       		.byte	0x8
 521 00a1 05       		.byte	0x5
 522 00a2 A8000000 		.4byte	.LASF12
 523 00a6 07       		.uleb128 0x7
 524 00a7 08       		.byte	0x8
 525 00a8 07       		.byte	0x7
 526 00a9 30000000 		.4byte	.LASF13
 527 00ad 02       		.uleb128 0x2
 528 00ae E3040000 		.4byte	.LASF14
 529 00b2 04       		.byte	0x4
 530 00b3 18       		.byte	0x18
 531 00b4 13       		.byte	0x13
 532 00b5 4C000000 		.4byte	0x4c
 533 00b9 10       		.uleb128 0x10
 534 00ba AD000000 		.4byte	0xad
 535 00be 02       		.uleb128 0x2
 536 00bf 68010000 		.4byte	.LASF15
 537 00c3 04       		.byte	0x4
 538 00c4 24       		.byte	0x24
 539 00c5 14       		.byte	0x14
 540 00c6 66000000 		.4byte	0x66
 541 00ca 02       		.uleb128 0x2
 542 00cb C5030000 		.4byte	.LASF16
 543 00cf 04       		.byte	0x4
 544 00d0 2C       		.byte	0x2c
 545 00d1 13       		.byte	0x13
 546 00d2 79000000 		.4byte	0x79
 547 00d6 02       		.uleb128 0x2
 548 00d7 41040000 		.4byte	.LASF17
 549 00db 04       		.byte	0x4
 550 00dc 30       		.byte	0x30
 551 00dd 14       		.byte	0x14
 552 00de 8C000000 		.4byte	0x8c
 553 00e2 02       		.uleb128 0x2
 554 00e3 07020000 		.4byte	.LASF18
 555 00e7 05       		.byte	0x5
 556 00e8 2A       		.byte	0x2a
 557 00e9 19       		.byte	0x19
 558 00ea AD000000 		.4byte	0xad
 559 00ee 02       		.uleb128 0x2
 560 00ef 4E010000 		.4byte	.LASF19
 561 00f3 05       		.byte	0x5
 562 00f4 2B       		.byte	0x2b
 563 00f5 19       		.byte	0x19
 564 00f6 AD000000 		.4byte	0xad
 565 00fa 02       		.uleb128 0x2
 566 00fb 68030000 		.4byte	.LASF20
 567 00ff 05       		.byte	0x5
 568 0100 2C       		.byte	0x2c
 569 0101 19       		.byte	0x19
 570 0102 AD000000 		.4byte	0xad
ARM GAS  /tmp/ccHInf9i.s 			page 11


 571 0106 02       		.uleb128 0x2
 572 0107 20010000 		.4byte	.LASF21
 573 010b 05       		.byte	0x5
 574 010c 2D       		.byte	0x2d
 575 010d 19       		.byte	0x19
 576 010e AD000000 		.4byte	0xad
 577 0112 02       		.uleb128 0x2
 578 0113 90030000 		.4byte	.LASF22
 579 0117 05       		.byte	0x5
 580 0118 2E       		.byte	0x2e
 581 0119 19       		.byte	0x19
 582 011a D6000000 		.4byte	0xd6
 583 011e 02       		.uleb128 0x2
 584 011f FB010000 		.4byte	.LASF23
 585 0123 05       		.byte	0x5
 586 0124 2F       		.byte	0x2f
 587 0125 19       		.byte	0x19
 588 0126 CA000000 		.4byte	0xca
 589 012a 02       		.uleb128 0x2
 590 012b 1B020000 		.4byte	.LASF24
 591 012f 05       		.byte	0x5
 592 0130 31       		.byte	0x31
 593 0131 19       		.byte	0x19
 594 0132 D6000000 		.4byte	0xd6
 595 0136 02       		.uleb128 0x2
 596 0137 76040000 		.4byte	.LASF25
 597 013b 05       		.byte	0x5
 598 013c 33       		.byte	0x33
 599 013d 19       		.byte	0x19
 600 013e D6000000 		.4byte	0xd6
 601 0142 14       		.uleb128 0x14
 602 0143 36010000 		.4byte	0x136
 603 0147 02       		.uleb128 0x2
 604 0148 24040000 		.4byte	.LASF26
 605 014c 06       		.byte	0x6
 606 014d 23       		.byte	0x23
 607 014e 17       		.byte	0x17
 608 014f 53010000 		.4byte	0x153
 609 0153 09       		.uleb128 0x9
 610 0154 24040000 		.4byte	.LASF26
 611 0158 44       		.byte	0x44
 612 0159 07       		.byte	0x7
 613 015a 57       		.byte	0x57
 614 015b 08       		.byte	0x8
 615 015c 58020000 		.4byte	0x258
 616 0160 01       		.uleb128 0x1
 617 0161 15040000 		.4byte	.LASF27
 618 0165 07       		.byte	0x7
 619 0166 58       		.byte	0x58
 620 0167 1A       		.byte	0x1a
 621 0168 7B020000 		.4byte	0x27b
 622 016c 00       		.byte	0
 623 016d 01       		.uleb128 0x1
 624 016e 7B030000 		.4byte	.LASF28
 625 0172 07       		.byte	0x7
 626 0173 5A       		.byte	0x5a
 627 0174 1A       		.byte	0x1a
ARM GAS  /tmp/ccHInf9i.s 			page 12


 628 0175 7B020000 		.4byte	0x27b
 629 0179 04       		.byte	0x4
 630 017a 01       		.uleb128 0x1
 631 017b 81000000 		.4byte	.LASF29
 632 017f 07       		.byte	0x7
 633 0180 5C       		.byte	0x5c
 634 0181 19       		.byte	0x19
 635 0182 12010000 		.4byte	0x112
 636 0186 08       		.byte	0x8
 637 0187 01       		.uleb128 0x1
 638 0188 3A050000 		.4byte	.LASF30
 639 018c 07       		.byte	0x7
 640 018d 5D       		.byte	0x5d
 641 018e 19       		.byte	0x19
 642 018f 38030000 		.4byte	0x338
 643 0193 0C       		.byte	0xc
 644 0194 01       		.uleb128 0x1
 645 0195 71010000 		.4byte	.LASF31
 646 0199 07       		.byte	0x7
 647 019a 5F       		.byte	0x5f
 648 019b 1A       		.byte	0x1a
 649 019c 7B020000 		.4byte	0x27b
 650 01a0 10       		.byte	0x10
 651 01a1 01       		.uleb128 0x1
 652 01a2 2C030000 		.4byte	.LASF32
 653 01a6 07       		.byte	0x7
 654 01a7 60       		.byte	0x60
 655 01a8 1A       		.byte	0x1a
 656 01a9 7B020000 		.4byte	0x27b
 657 01ad 14       		.byte	0x14
 658 01ae 01       		.uleb128 0x1
 659 01af 0A050000 		.4byte	.LASF33
 660 01b3 07       		.byte	0x7
 661 01b4 67       		.byte	0x67
 662 01b5 1A       		.byte	0x1a
 663 01b6 D4030000 		.4byte	0x3d4
 664 01ba 18       		.byte	0x18
 665 01bb 01       		.uleb128 0x1
 666 01bc EF030000 		.4byte	.LASF34
 667 01c0 07       		.byte	0x7
 668 01c1 72       		.byte	0x72
 669 01c2 19       		.byte	0x19
 670 01c3 EE000000 		.4byte	0xee
 671 01c7 1C       		.byte	0x1c
 672 01c8 01       		.uleb128 0x1
 673 01c9 1C040000 		.4byte	.LASF35
 674 01cd 07       		.byte	0x7
 675 01ce 76       		.byte	0x76
 676 01cf 19       		.byte	0x19
 677 01d0 E2000000 		.4byte	0xe2
 678 01d4 1D       		.byte	0x1d
 679 01d5 01       		.uleb128 0x1
 680 01d6 D5040000 		.4byte	.LASF36
 681 01da 07       		.byte	0x7
 682 01db 7B       		.byte	0x7b
 683 01dc 19       		.byte	0x19
 684 01dd FA000000 		.4byte	0xfa
ARM GAS  /tmp/ccHInf9i.s 			page 13


 685 01e1 1E       		.byte	0x1e
 686 01e2 01       		.uleb128 0x1
 687 01e3 F7030000 		.4byte	.LASF37
 688 01e7 07       		.byte	0x7
 689 01e8 81       		.byte	0x81
 690 01e9 19       		.byte	0x19
 691 01ea 06010000 		.4byte	0x106
 692 01ee 1F       		.byte	0x1f
 693 01ef 01       		.uleb128 0x1
 694 01f0 9F040000 		.4byte	.LASF38
 695 01f4 07       		.byte	0x7
 696 01f5 88       		.byte	0x88
 697 01f6 19       		.byte	0x19
 698 01f7 42010000 		.4byte	0x142
 699 01fb 20       		.byte	0x20
 700 01fc 05       		.uleb128 0x5
 701 01fd 705F7500 		.ascii	"p_u\000"
 702 0201 07       		.byte	0x7
 703 0202 AD       		.byte	0xad
 704 0203 19       		.byte	0x19
 705 0204 9E030000 		.4byte	0x39e
 706 0208 24       		.byte	0x24
 707 0209 01       		.uleb128 0x1
 708 020a 40050000 		.4byte	.LASF39
 709 020e 07       		.byte	0x7
 710 020f B2       		.byte	0xb2
 711 0210 19       		.byte	0x19
 712 0211 A2020000 		.4byte	0x2a2
 713 0215 28       		.byte	0x28
 714 0216 01       		.uleb128 0x1
 715 0217 AD040000 		.4byte	.LASF40
 716 021b 07       		.byte	0x7
 717 021c B8       		.byte	0xb8
 718 021d 19       		.byte	0x19
 719 021e 80020000 		.4byte	0x280
 720 0222 2C       		.byte	0x2c
 721 0223 01       		.uleb128 0x1
 722 0224 00000000 		.4byte	.LASF41
 723 0228 07       		.byte	0x7
 724 0229 BC       		.byte	0xbc
 725 022a 19       		.byte	0x19
 726 022b 1E010000 		.4byte	0x11e
 727 022f 34       		.byte	0x34
 728 0230 01       		.uleb128 0x1
 729 0231 36040000 		.4byte	.LASF42
 730 0235 07       		.byte	0x7
 731 0236 C2       		.byte	0xc2
 732 0237 19       		.byte	0x19
 733 0238 2A010000 		.4byte	0x12a
 734 023c 38       		.byte	0x38
 735 023d 01       		.uleb128 0x1
 736 023e DB030000 		.4byte	.LASF43
 737 0242 07       		.byte	0x7
 738 0243 C9       		.byte	0xc9
 739 0244 1A       		.byte	0x1a
 740 0245 E5030000 		.4byte	0x3e5
 741 0249 3C       		.byte	0x3c
ARM GAS  /tmp/ccHInf9i.s 			page 14


 742 024a 01       		.uleb128 0x1
 743 024b 80040000 		.4byte	.LASF44
 744 024f 07       		.byte	0x7
 745 0250 CD       		.byte	0xcd
 746 0251 19       		.byte	0x19
 747 0252 12010000 		.4byte	0x112
 748 0256 40       		.byte	0x40
 749 0257 00       		.byte	0
 750 0258 11       		.uleb128 0x11
 751 0259 08       		.byte	0x8
 752 025a 06       		.byte	0x6
 753 025b 5A       		.byte	0x5a
 754 025c 7B020000 		.4byte	0x27b
 755 0260 01       		.uleb128 0x1
 756 0261 15040000 		.4byte	.LASF27
 757 0265 06       		.byte	0x6
 758 0266 5B       		.byte	0x5b
 759 0267 1A       		.byte	0x1a
 760 0268 7B020000 		.4byte	0x27b
 761 026c 00       		.byte	0
 762 026d 01       		.uleb128 0x1
 763 026e 7B030000 		.4byte	.LASF28
 764 0272 06       		.byte	0x6
 765 0273 5D       		.byte	0x5d
 766 0274 1A       		.byte	0x1a
 767 0275 7B020000 		.4byte	0x27b
 768 0279 04       		.byte	0x4
 769 027a 00       		.byte	0
 770 027b 08       		.uleb128 0x8
 771 027c 47010000 		.4byte	0x147
 772 0280 02       		.uleb128 0x2
 773 0281 46030000 		.4byte	.LASF45
 774 0285 06       		.byte	0x6
 775 0286 5F       		.byte	0x5f
 776 0287 03       		.byte	0x3
 777 0288 58020000 		.4byte	0x258
 778 028c 11       		.uleb128 0x11
 779 028d 04       		.byte	0x4
 780 028e 06       		.byte	0x6
 781 028f 64       		.byte	0x64
 782 0290 A2020000 		.4byte	0x2a2
 783 0294 01       		.uleb128 0x1
 784 0295 15040000 		.4byte	.LASF27
 785 0299 06       		.byte	0x6
 786 029a 66       		.byte	0x66
 787 029b 16       		.byte	0x16
 788 029c 7B020000 		.4byte	0x27b
 789 02a0 00       		.byte	0
 790 02a1 00       		.byte	0
 791 02a2 02       		.uleb128 0x2
 792 02a3 0F020000 		.4byte	.LASF46
 793 02a7 06       		.byte	0x6
 794 02a8 69       		.byte	0x69
 795 02a9 03       		.byte	0x3
 796 02aa 8C020000 		.4byte	0x28c
 797 02ae 02       		.uleb128 0x2
 798 02af 8C010000 		.4byte	.LASF47
ARM GAS  /tmp/ccHInf9i.s 			page 15


 799 02b3 08       		.byte	0x8
 800 02b4 A2       		.byte	0xa2
 801 02b5 0F       		.byte	0xf
 802 02b6 BA020000 		.4byte	0x2ba
 803 02ba 1D       		.uleb128 0x1d
 804 02bb 04       		.byte	0x4
 805 02bc 09       		.uleb128 0x9
 806 02bd A6040000 		.4byte	.LASF48
 807 02c1 24       		.byte	0x24
 808 02c2 08       		.byte	0x8
 809 02c3 B9       		.byte	0xb9
 810 02c4 08       		.byte	0x8
 811 02c5 38030000 		.4byte	0x338
 812 02c9 05       		.uleb128 0x5
 813 02ca 723400   		.ascii	"r4\000"
 814 02cd 08       		.byte	0x8
 815 02ce BA       		.byte	0xba
 816 02cf 11       		.byte	0x11
 817 02d0 AE020000 		.4byte	0x2ae
 818 02d4 00       		.byte	0
 819 02d5 05       		.uleb128 0x5
 820 02d6 723500   		.ascii	"r5\000"
 821 02d9 08       		.byte	0x8
 822 02da BB       		.byte	0xbb
 823 02db 11       		.byte	0x11
 824 02dc AE020000 		.4byte	0x2ae
 825 02e0 04       		.byte	0x4
 826 02e1 05       		.uleb128 0x5
 827 02e2 723600   		.ascii	"r6\000"
 828 02e5 08       		.byte	0x8
 829 02e6 BC       		.byte	0xbc
 830 02e7 11       		.byte	0x11
 831 02e8 AE020000 		.4byte	0x2ae
 832 02ec 08       		.byte	0x8
 833 02ed 05       		.uleb128 0x5
 834 02ee 723700   		.ascii	"r7\000"
 835 02f1 08       		.byte	0x8
 836 02f2 BD       		.byte	0xbd
 837 02f3 11       		.byte	0x11
 838 02f4 AE020000 		.4byte	0x2ae
 839 02f8 0C       		.byte	0xc
 840 02f9 05       		.uleb128 0x5
 841 02fa 723800   		.ascii	"r8\000"
 842 02fd 08       		.byte	0x8
 843 02fe BE       		.byte	0xbe
 844 02ff 11       		.byte	0x11
 845 0300 AE020000 		.4byte	0x2ae
 846 0304 10       		.byte	0x10
 847 0305 05       		.uleb128 0x5
 848 0306 723900   		.ascii	"r9\000"
 849 0309 08       		.byte	0x8
 850 030a BF       		.byte	0xbf
 851 030b 11       		.byte	0x11
 852 030c AE020000 		.4byte	0x2ae
 853 0310 14       		.byte	0x14
 854 0311 05       		.uleb128 0x5
 855 0312 72313000 		.ascii	"r10\000"
ARM GAS  /tmp/ccHInf9i.s 			page 16


 856 0316 08       		.byte	0x8
 857 0317 C0       		.byte	0xc0
 858 0318 11       		.byte	0x11
 859 0319 AE020000 		.4byte	0x2ae
 860 031d 18       		.byte	0x18
 861 031e 05       		.uleb128 0x5
 862 031f 72313100 		.ascii	"r11\000"
 863 0323 08       		.byte	0x8
 864 0324 C1       		.byte	0xc1
 865 0325 11       		.byte	0x11
 866 0326 AE020000 		.4byte	0x2ae
 867 032a 1C       		.byte	0x1c
 868 032b 05       		.uleb128 0x5
 869 032c 6C7200   		.ascii	"lr\000"
 870 032f 08       		.byte	0x8
 871 0330 C2       		.byte	0xc2
 872 0331 11       		.byte	0x11
 873 0332 AE020000 		.4byte	0x2ae
 874 0336 20       		.byte	0x20
 875 0337 00       		.byte	0
 876 0338 09       		.uleb128 0x9
 877 0339 D6010000 		.4byte	.LASF49
 878 033d 04       		.byte	0x4
 879 033e 08       		.byte	0x8
 880 033f CA       		.byte	0xca
 881 0340 08       		.byte	0x8
 882 0341 53030000 		.4byte	0x353
 883 0345 05       		.uleb128 0x5
 884 0346 72313300 		.ascii	"r13\000"
 885 034a 08       		.byte	0x8
 886 034b CB       		.byte	0xcb
 887 034c 12       		.byte	0x12
 888 034d 53030000 		.4byte	0x353
 889 0351 00       		.byte	0
 890 0352 00       		.byte	0
 891 0353 08       		.uleb128 0x8
 892 0354 BC020000 		.4byte	0x2bc
 893 0358 09       		.uleb128 0x9
 894 0359 27020000 		.4byte	.LASF50
 895 035d 10       		.byte	0x10
 896 035e 09       		.byte	0x9
 897 035f 25       		.byte	0x25
 898 0360 10       		.byte	0x10
 899 0361 8D030000 		.4byte	0x38d
 900 0365 01       		.uleb128 0x1
 901 0366 D9000000 		.4byte	.LASF51
 902 036a 09       		.byte	0x9
 903 036b 26       		.byte	0x26
 904 036c 19       		.byte	0x19
 905 036d 80020000 		.4byte	0x280
 906 0371 00       		.byte	0
 907 0372 01       		.uleb128 0x1
 908 0373 32050000 		.4byte	.LASF52
 909 0377 09       		.byte	0x9
 910 0378 28       		.byte	0x28
 911 0379 1A       		.byte	0x1a
 912 037a 7B020000 		.4byte	0x27b
ARM GAS  /tmp/ccHInf9i.s 			page 17


 913 037e 08       		.byte	0x8
 914 037f 01       		.uleb128 0x1
 915 0380 6F040000 		.4byte	.LASF53
 916 0384 09       		.byte	0x9
 917 0385 2A       		.byte	0x2a
 918 0386 1A       		.byte	0x1a
 919 0387 8D030000 		.4byte	0x38d
 920 038b 0C       		.byte	0xc
 921 038c 00       		.byte	0
 922 038d 08       		.uleb128 0x8
 923 038e 58030000 		.4byte	0x358
 924 0392 02       		.uleb128 0x2
 925 0393 27020000 		.4byte	.LASF50
 926 0397 09       		.byte	0x9
 927 0398 2C       		.byte	0x2c
 928 0399 03       		.byte	0x3
 929 039a 58030000 		.4byte	0x358
 930 039e 1E       		.uleb128 0x1e
 931 039f 04       		.byte	0x4
 932 03a0 07       		.byte	0x7
 933 03a1 8F       		.byte	0x8f
 934 03a2 03       		.byte	0x3
 935 03a3 D4030000 		.4byte	0x3d4
 936 03a7 0C       		.uleb128 0xc
 937 03a8 0D000000 		.4byte	.LASF54
 938 03ac 96       		.byte	0x96
 939 03ad 19       		.byte	0x19
 940 03ae 1E010000 		.4byte	0x11e
 941 03b2 0C       		.uleb128 0xc
 942 03b3 55000000 		.4byte	.LASF55
 943 03b7 9D       		.byte	0x9d
 944 03b8 19       		.byte	0x19
 945 03b9 1E010000 		.4byte	0x11e
 946 03bd 0C       		.uleb128 0xc
 947 03be 03050000 		.4byte	.LASF56
 948 03c2 A4       		.byte	0xa4
 949 03c3 1A       		.byte	0x1a
 950 03c4 BA020000 		.4byte	0x2ba
 951 03c8 0C       		.uleb128 0xc
 952 03c9 0E040000 		.4byte	.LASF57
 953 03cd AB       		.byte	0xab
 954 03ce 19       		.byte	0x19
 955 03cf 2A010000 		.4byte	0x12a
 956 03d3 00       		.byte	0
 957 03d4 08       		.uleb128 0x8
 958 03d5 E0030000 		.4byte	0x3e0
 959 03d9 07       		.uleb128 0x7
 960 03da 01       		.byte	0x1
 961 03db 08       		.byte	0x8
 962 03dc 58040000 		.4byte	.LASF58
 963 03e0 10       		.uleb128 0x10
 964 03e1 D9030000 		.4byte	0x3d9
 965 03e5 08       		.uleb128 0x8
 966 03e6 92030000 		.4byte	0x392
 967 03ea 08       		.uleb128 0x8
 968 03eb AD000000 		.4byte	0xad
 969 03ef 08       		.uleb128 0x8
ARM GAS  /tmp/ccHInf9i.s 			page 18


 970 03f0 B9000000 		.4byte	0xb9
 971 03f4 09       		.uleb128 0x9
 972 03f5 1E000000 		.4byte	.LASF59
 973 03f9 20       		.byte	0x20
 974 03fa 0A       		.byte	0xa
 975 03fb FD       		.byte	0xfd
 976 03fc 08       		.byte	0x8
 977 03fd 64040000 		.4byte	0x464
 978 0401 01       		.uleb128 0x1
 979 0402 79010000 		.4byte	.LASF60
 980 0406 0A       		.byte	0xa
 981 0407 FE       		.byte	0xfe
 982 0408 19       		.byte	0x19
 983 0409 40000000 		.4byte	0x40
 984 040d 00       		.byte	0
 985 040e 01       		.uleb128 0x1
 986 040f DC040000 		.4byte	.LASF61
 987 0413 0A       		.byte	0xa
 988 0414 FF       		.byte	0xff
 989 0415 19       		.byte	0x19
 990 0416 40000000 		.4byte	0x40
 991 041a 04       		.byte	0x4
 992 041b 0A       		.uleb128 0xa
 993 041c 19050000 		.4byte	.LASF62
 994 0420 0001     		.2byte	0x100
 995 0422 40000000 		.4byte	0x40
 996 0426 08       		.byte	0x8
 997 0427 0A       		.uleb128 0xa
 998 0428 95010000 		.4byte	.LASF63
 999 042c 0101     		.2byte	0x101
 1000 042e 40000000 		.4byte	0x40
 1001 0432 0C       		.byte	0xc
 1002 0433 0A       		.uleb128 0xa
 1003 0434 78000000 		.4byte	.LASF64
 1004 0438 0201     		.2byte	0x102
 1005 043a 40000000 		.4byte	0x40
 1006 043e 10       		.byte	0x10
 1007 043f 0A       		.uleb128 0xa
 1008 0440 E2020000 		.4byte	.LASF65
 1009 0444 0301     		.2byte	0x103
 1010 0446 40000000 		.4byte	0x40
 1011 044a 14       		.byte	0x14
 1012 044b 0A       		.uleb128 0xa
 1013 044c 5E010000 		.4byte	.LASF66
 1014 0450 0401     		.2byte	0x104
 1015 0452 40000000 		.4byte	0x40
 1016 0456 18       		.byte	0x18
 1017 0457 0A       		.uleb128 0xa
 1018 0458 4A050000 		.4byte	.LASF67
 1019 045c 0501     		.2byte	0x105
 1020 045e 40000000 		.4byte	0x40
 1021 0462 1C       		.byte	0x1c
 1022 0463 00       		.byte	0
 1023 0464 1F       		.uleb128 0x1f
 1024 0465 1E000000 		.4byte	.LASF59
 1025 0469 0A       		.byte	0xa
 1026 046a 0801     		.2byte	0x108
ARM GAS  /tmp/ccHInf9i.s 			page 19


 1027 046c 1C       		.byte	0x1c
 1028 046d F4030000 		.4byte	0x3f4
 1029 0471 20       		.uleb128 0x20
 1030 0472 07       		.byte	0x7
 1031 0473 01       		.byte	0x1
 1032 0474 58000000 		.4byte	0x58
 1033 0478 0B       		.byte	0xb
 1034 0479 54       		.byte	0x54
 1035 047a 0E       		.byte	0xe
 1036 047b A4040000 		.4byte	0x4a4
 1037 047f 0B       		.uleb128 0xb
 1038 0480 2A010000 		.4byte	.LASF68
 1039 0484 00       		.byte	0
 1040 0485 0B       		.uleb128 0xb
 1041 0486 3A020000 		.4byte	.LASF69
 1042 048a 01       		.byte	0x1
 1043 048b 0B       		.uleb128 0xb
 1044 048c 95040000 		.4byte	.LASF70
 1045 0490 02       		.byte	0x2
 1046 0491 0B       		.uleb128 0xb
 1047 0492 98030000 		.4byte	.LASF71
 1048 0496 03       		.byte	0x3
 1049 0497 0B       		.uleb128 0xb
 1050 0498 4A040000 		.4byte	.LASF72
 1051 049c 04       		.byte	0x4
 1052 049d 0B       		.uleb128 0xb
 1053 049e 2B040000 		.4byte	.LASF73
 1054 04a2 05       		.byte	0x5
 1055 04a3 00       		.byte	0
 1056 04a4 02       		.uleb128 0x2
 1057 04a5 70030000 		.4byte	.LASF74
 1058 04a9 0B       		.byte	0xb
 1059 04aa 5B       		.byte	0x5b
 1060 04ab 03       		.byte	0x3
 1061 04ac 71040000 		.4byte	0x471
 1062 04b0 02       		.uleb128 0x2
 1063 04b1 F1010000 		.4byte	.LASF75
 1064 04b5 0C       		.byte	0xc
 1065 04b6 38       		.byte	0x38
 1066 04b7 1A       		.byte	0x1a
 1067 04b8 BC040000 		.4byte	0x4bc
 1068 04bc 09       		.uleb128 0x9
 1069 04bd F1010000 		.4byte	.LASF75
 1070 04c1 40       		.byte	0x40
 1071 04c2 0C       		.byte	0xc
 1072 04c3 62       		.byte	0x62
 1073 04c4 08       		.byte	0x8
 1074 04c5 73050000 		.4byte	0x573
 1075 04c9 01       		.uleb128 0x1
 1076 04ca 3F010000 		.4byte	.LASF76
 1077 04ce 0C       		.byte	0xc
 1078 04cf 64       		.byte	0x64
 1079 04d0 1D       		.byte	0x1d
 1080 04d1 A4040000 		.4byte	0x4a4
 1081 04d5 00       		.byte	0
 1082 04d6 01       		.uleb128 0x1
 1083 04d7 5D040000 		.4byte	.LASF77
ARM GAS  /tmp/ccHInf9i.s 			page 20


 1084 04db 0C       		.byte	0xc
 1085 04dc 66       		.byte	0x66
 1086 04dd 1E       		.byte	0x1e
 1087 04de B7050000 		.4byte	0x5b7
 1088 04e2 04       		.byte	0x4
 1089 04e3 01       		.uleb128 0x1
 1090 04e4 B5010000 		.4byte	.LASF78
 1091 04e8 0C       		.byte	0xc
 1092 04e9 68       		.byte	0x68
 1093 04ea 1D       		.byte	0x1d
 1094 04eb 73050000 		.4byte	0x573
 1095 04ef 08       		.byte	0x8
 1096 04f0 01       		.uleb128 0x1
 1097 04f1 A1000000 		.4byte	.LASF79
 1098 04f5 0C       		.byte	0xc
 1099 04f6 6A       		.byte	0x6a
 1100 04f7 1E       		.byte	0x1e
 1101 04f8 BC050000 		.4byte	0x5bc
 1102 04fc 0C       		.byte	0xc
 1103 04fd 01       		.uleb128 0x1
 1104 04fe B1030000 		.4byte	.LASF80
 1105 0502 0C       		.byte	0xc
 1106 0503 6D       		.byte	0x6d
 1107 0504 1D       		.byte	0x1d
 1108 0505 92030000 		.4byte	0x392
 1109 0509 10       		.byte	0x10
 1110 050a 01       		.uleb128 0x1
 1111 050b 57010000 		.4byte	.LASF81
 1112 050f 0C       		.byte	0xc
 1113 0510 77       		.byte	0x77
 1114 0511 1E       		.byte	0x1e
 1115 0512 7B020000 		.4byte	0x27b
 1116 0516 20       		.byte	0x20
 1117 0517 01       		.uleb128 0x1
 1118 0518 47000000 		.4byte	.LASF82
 1119 051c 0C       		.byte	0xc
 1120 051d 7B       		.byte	0x7b
 1121 051e 1D       		.byte	0x1d
 1122 051f 7F050000 		.4byte	0x57f
 1123 0523 24       		.byte	0x24
 1124 0524 01       		.uleb128 0x1
 1125 0525 AF010000 		.4byte	.LASF83
 1126 0529 0C       		.byte	0xc
 1127 052a 7F       		.byte	0x7f
 1128 052b 1E       		.byte	0x1e
 1129 052c EF030000 		.4byte	0x3ef
 1130 0530 28       		.byte	0x28
 1131 0531 01       		.uleb128 0x1
 1132 0532 53030000 		.4byte	.LASF84
 1133 0536 0C       		.byte	0xc
 1134 0537 83       		.byte	0x83
 1135 0538 1D       		.byte	0x1d
 1136 0539 2D000000 		.4byte	0x2d
 1137 053d 2C       		.byte	0x2c
 1138 053e 01       		.uleb128 0x1
 1139 053f C2040000 		.4byte	.LASF85
 1140 0543 0C       		.byte	0xc
ARM GAS  /tmp/ccHInf9i.s 			page 21


 1141 0544 87       		.byte	0x87
 1142 0545 1D       		.byte	0x1d
 1143 0546 2D000000 		.4byte	0x2d
 1144 054a 30       		.byte	0x30
 1145 054b 01       		.uleb128 0x1
 1146 054c 2A000000 		.4byte	.LASF86
 1147 0550 0C       		.byte	0xc
 1148 0551 8B       		.byte	0x8b
 1149 0552 1E       		.byte	0x1e
 1150 0553 EA030000 		.4byte	0x3ea
 1151 0557 34       		.byte	0x34
 1152 0558 01       		.uleb128 0x1
 1153 0559 34030000 		.4byte	.LASF87
 1154 055d 0C       		.byte	0xc
 1155 055e 8F       		.byte	0x8f
 1156 055f 1D       		.byte	0x1d
 1157 0560 2D000000 		.4byte	0x2d
 1158 0564 38       		.byte	0x38
 1159 0565 01       		.uleb128 0x1
 1160 0566 01020000 		.4byte	.LASF88
 1161 056a 0C       		.byte	0xc
 1162 056b 93       		.byte	0x93
 1163 056c 1D       		.byte	0x1d
 1164 056d 2D000000 		.4byte	0x2d
 1165 0571 3C       		.byte	0x3c
 1166 0572 00       		.byte	0
 1167 0573 02       		.uleb128 0x2
 1168 0574 A6030000 		.4byte	.LASF89
 1169 0578 0C       		.byte	0xc
 1170 0579 42       		.byte	0x42
 1171 057a 12       		.byte	0x12
 1172 057b D6000000 		.4byte	0xd6
 1173 057f 02       		.uleb128 0x2
 1174 0580 35010000 		.4byte	.LASF90
 1175 0584 0C       		.byte	0xc
 1176 0585 48       		.byte	0x48
 1177 0586 12       		.byte	0x12
 1178 0587 BE000000 		.4byte	0xbe
 1179 058b 08       		.uleb128 0x8
 1180 058c B0040000 		.4byte	0x4b0
 1181 0590 11       		.uleb128 0x11
 1182 0591 04       		.byte	0x4
 1183 0592 0C       		.byte	0xc
 1184 0593 57       		.byte	0x57
 1185 0594 A6050000 		.4byte	0x5a6
 1186 0598 01       		.uleb128 0x1
 1187 0599 F9020000 		.4byte	.LASF91
 1188 059d 0C       		.byte	0xc
 1189 059e 59       		.byte	0x59
 1190 059f 1D       		.byte	0x1d
 1191 05a0 D6000000 		.4byte	0xd6
 1192 05a4 00       		.byte	0
 1193 05a5 00       		.byte	0
 1194 05a6 02       		.uleb128 0x2
 1195 05a7 3C030000 		.4byte	.LASF92
 1196 05ab 0C       		.byte	0xc
 1197 05ac 5B       		.byte	0x5b
ARM GAS  /tmp/ccHInf9i.s 			page 22


 1198 05ad 03       		.byte	0x3
 1199 05ae 90050000 		.4byte	0x590
 1200 05b2 10       		.uleb128 0x10
 1201 05b3 A6050000 		.4byte	0x5a6
 1202 05b7 08       		.uleb128 0x8
 1203 05b8 B2050000 		.4byte	0x5b2
 1204 05bc 08       		.uleb128 0x8
 1205 05bd 64040000 		.4byte	0x464
 1206 05c1 21       		.uleb128 0x21
 1207 05c2 6C000000 		.4byte	.LASF112
 1208 05c6 09       		.byte	0x9
 1209 05c7 36       		.byte	0x36
 1210 05c8 0A       		.byte	0xa
 1211 05c9 E5030000 		.4byte	0x3e5
 1212 05cd 0D       		.uleb128 0xd
 1213 05ce EF020000 		.4byte	.LASF95
 1214 05d2 09       		.byte	0x9
 1215 05d3 32       		.byte	0x32
 1216 05d4 DE050000 		.4byte	0x5de
 1217 05d8 03       		.uleb128 0x3
 1218 05d9 E5030000 		.4byte	0x3e5
 1219 05dd 00       		.byte	0
 1220 05de 15       		.uleb128 0x15
 1221 05df E1000000 		.4byte	.LASF93
 1222 05e3 B4       		.byte	0xb4
 1223 05e4 1E010000 		.4byte	0x11e
 1224 05e8 06060000 		.4byte	0x606
 1225 05ec 03       		.uleb128 0x3
 1226 05ed 8B050000 		.4byte	0x58b
 1227 05f1 03       		.uleb128 0x3
 1228 05f2 7F050000 		.4byte	0x57f
 1229 05f6 03       		.uleb128 0x3
 1230 05f7 EA030000 		.4byte	0x3ea
 1231 05fb 03       		.uleb128 0x3
 1232 05fc 2D000000 		.4byte	0x2d
 1233 0600 03       		.uleb128 0x3
 1234 0601 36010000 		.4byte	0x136
 1235 0605 00       		.byte	0
 1236 0606 15       		.uleb128 0x15
 1237 0607 00010000 		.4byte	.LASF94
 1238 060b AF       		.byte	0xaf
 1239 060c 1E010000 		.4byte	0x11e
 1240 0610 38060000 		.4byte	0x638
 1241 0614 03       		.uleb128 0x3
 1242 0615 8B050000 		.4byte	0x58b
 1243 0619 03       		.uleb128 0x3
 1244 061a 7F050000 		.4byte	0x57f
 1245 061e 03       		.uleb128 0x3
 1246 061f EF030000 		.4byte	0x3ef
 1247 0623 03       		.uleb128 0x3
 1248 0624 2D000000 		.4byte	0x2d
 1249 0628 03       		.uleb128 0x3
 1250 0629 EA030000 		.4byte	0x3ea
 1251 062d 03       		.uleb128 0x3
 1252 062e B9000000 		.4byte	0xb9
 1253 0632 03       		.uleb128 0x3
 1254 0633 36010000 		.4byte	0x136
ARM GAS  /tmp/ccHInf9i.s 			page 23


 1255 0637 00       		.byte	0
 1256 0638 0D       		.uleb128 0xd
 1257 0639 2D020000 		.4byte	.LASF96
 1258 063d 0C       		.byte	0xc
 1259 063e AD       		.byte	0xad
 1260 063f 49060000 		.4byte	0x649
 1261 0643 03       		.uleb128 0x3
 1262 0644 8B050000 		.4byte	0x58b
 1263 0648 00       		.byte	0
 1264 0649 0D       		.uleb128 0xd
 1265 064a B7030000 		.4byte	.LASF97
 1266 064e 0C       		.byte	0xc
 1267 064f AC       		.byte	0xac
 1268 0650 5A060000 		.4byte	0x65a
 1269 0654 03       		.uleb128 0x3
 1270 0655 8B050000 		.4byte	0x58b
 1271 0659 00       		.byte	0
 1272 065a 0D       		.uleb128 0xd
 1273 065b B8040000 		.4byte	.LASF98
 1274 065f 09       		.byte	0x9
 1275 0660 31       		.byte	0x31
 1276 0661 6B060000 		.4byte	0x66b
 1277 0665 03       		.uleb128 0x3
 1278 0666 E5030000 		.4byte	0x3e5
 1279 066a 00       		.byte	0
 1280 066b 22       		.uleb128 0x22
 1281 066c C8040000 		.4byte	.LASF113
 1282 0670 0C       		.byte	0xc
 1283 0671 AB       		.byte	0xab
 1284 0672 08       		.byte	0x8
 1285 0673 16       		.uleb128 0x16
 1286 0674 5E000000 		.4byte	.LASF99
 1287 0678 2101     		.2byte	0x121
 1288 067a 00000000 		.4byte	.LFB15
 1289 067e 04000000 		.4byte	.LFE15-.LFB15
 1290 0682 01       		.uleb128 0x1
 1291 0683 9C       		.byte	0x9c
 1292 0684 A5060000 		.4byte	0x6a5
 1293 0688 17       		.uleb128 0x17
 1294 0689 63030000 		.4byte	.LASF101
 1295 068d 2101     		.2byte	0x121
 1296 068f 8B050000 		.4byte	0x58b
 1297 0693 10000000 		.4byte	.LLST16
 1298 0697 0C000000 		.4byte	.LVUS16
 1299 069b 18       		.uleb128 0x18
 1300 069c 04000000 		.4byte	.LVL18
 1301 06a0 C1050000 		.4byte	0x5c1
 1302 06a4 00       		.byte	0
 1303 06a5 16       		.uleb128 0x16
 1304 06a6 82030000 		.4byte	.LASF100
 1305 06aa 0D01     		.2byte	0x10d
 1306 06ac 00000000 		.4byte	.LFB14
 1307 06b0 08000000 		.4byte	.LFE14-.LFB14
 1308 06b4 01       		.uleb128 0x1
 1309 06b5 9C       		.byte	0x9c
 1310 06b6 E1060000 		.4byte	0x6e1
 1311 06ba 17       		.uleb128 0x17
ARM GAS  /tmp/ccHInf9i.s 			page 24


 1312 06bb 63030000 		.4byte	.LASF101
 1313 06bf 0D01     		.2byte	0x10d
 1314 06c1 8B050000 		.4byte	0x58b
 1315 06c5 29000000 		.4byte	.LLST15
 1316 06c9 23000000 		.4byte	.LVUS15
 1317 06cd 19       		.uleb128 0x19
 1318 06ce 08000000 		.4byte	.LVL16
 1319 06d2 CD050000 		.4byte	0x5cd
 1320 06d6 06       		.uleb128 0x6
 1321 06d7 01       		.uleb128 0x1
 1322 06d8 50       		.byte	0x50
 1323 06d9 05       		.uleb128 0x5
 1324 06da A3       		.byte	0xa3
 1325 06db 01       		.uleb128 0x1
 1326 06dc 50       		.byte	0x50
 1327 06dd 23       		.byte	0x23
 1328 06de 10       		.uleb128 0x10
 1329 06df 00       		.byte	0
 1330 06e0 00       		.byte	0
 1331 06e1 12       		.uleb128 0x12
 1332 06e2 EB040000 		.4byte	.LASF102
 1333 06e6 E5       		.byte	0xe5
 1334 06e7 07       		.byte	0x7
 1335 06e8 1E010000 		.4byte	0x11e
 1336 06ec 00000000 		.4byte	.LFB13
 1337 06f0 48000000 		.4byte	.LFE13-.LFB13
 1338 06f4 01       		.uleb128 0x1
 1339 06f5 9C       		.byte	0x9c
 1340 06f6 85070000 		.4byte	0x785
 1341 06fa 04       		.uleb128 0x4
 1342 06fb 63030000 		.4byte	.LASF101
 1343 06ff E5       		.byte	0xe5
 1344 0700 2A       		.byte	0x2a
 1345 0701 8B050000 		.4byte	0x58b
 1346 0705 47000000 		.4byte	.LLST10
 1347 0709 43000000 		.4byte	.LVUS10
 1348 070d 04       		.uleb128 0x4
 1349 070e 47000000 		.4byte	.LASF82
 1350 0712 E6       		.byte	0xe6
 1351 0713 29       		.byte	0x29
 1352 0714 7F050000 		.4byte	0x57f
 1353 0718 5B000000 		.4byte	.LLST11
 1354 071c 57000000 		.4byte	.LVUS11
 1355 0720 04       		.uleb128 0x4
 1356 0721 2A000000 		.4byte	.LASF86
 1357 0725 E7       		.byte	0xe7
 1358 0726 28       		.byte	0x28
 1359 0727 EA030000 		.4byte	0x3ea
 1360 072b 72000000 		.4byte	.LLST12
 1361 072f 6E000000 		.4byte	.LVUS12
 1362 0733 04       		.uleb128 0x4
 1363 0734 34030000 		.4byte	.LASF87
 1364 0738 E8       		.byte	0xe8
 1365 0739 26       		.byte	0x26
 1366 073a 2D000000 		.4byte	0x2d
 1367 073e 89000000 		.4byte	.LLST13
 1368 0742 85000000 		.4byte	.LVUS13
ARM GAS  /tmp/ccHInf9i.s 			page 25


 1369 0746 0E       		.uleb128 0xe
 1370 0747 CE010000 		.4byte	.LASF104
 1371 074b E9       		.byte	0xe9
 1372 074c 29       		.byte	0x29
 1373 074d 36010000 		.4byte	0x136
 1374 0751 02       		.uleb128 0x2
 1375 0752 91       		.byte	0x91
 1376 0753 00       		.sleb128 0
 1377 0754 1A       		.uleb128 0x1a
 1378 0755 0D000000 		.4byte	.LASF54
 1379 0759 EB       		.byte	0xeb
 1380 075a 1E010000 		.4byte	0x11e
 1381 075e 9E000000 		.4byte	.LLST14
 1382 0762 9C000000 		.4byte	.LVUS14
 1383 0766 0F       		.uleb128 0xf
 1384 0767 2C000000 		.4byte	.LVL13
 1385 076b DE050000 		.4byte	0x5de
 1386 076f 06       		.uleb128 0x6
 1387 0770 01       		.uleb128 0x1
 1388 0771 50       		.byte	0x50
 1389 0772 02       		.uleb128 0x2
 1390 0773 74       		.byte	0x74
 1391 0774 00       		.sleb128 0
 1392 0775 06       		.uleb128 0x6
 1393 0776 01       		.uleb128 0x1
 1394 0777 52       		.byte	0x52
 1395 0778 03       		.uleb128 0x3
 1396 0779 A3       		.byte	0xa3
 1397 077a 01       		.uleb128 0x1
 1398 077b 52       		.byte	0x52
 1399 077c 06       		.uleb128 0x6
 1400 077d 01       		.uleb128 0x1
 1401 077e 53       		.byte	0x53
 1402 077f 03       		.uleb128 0x3
 1403 0780 A3       		.byte	0xa3
 1404 0781 01       		.uleb128 0x1
 1405 0782 53       		.byte	0x53
 1406 0783 00       		.byte	0
 1407 0784 00       		.byte	0
 1408 0785 12       		.uleb128 0x12
 1409 0786 88000000 		.4byte	.LASF103
 1410 078a B2       		.byte	0xb2
 1411 078b 07       		.byte	0x7
 1412 078c 1E010000 		.4byte	0x11e
 1413 0790 00000000 		.4byte	.LFB12
 1414 0794 5C000000 		.4byte	.LFE12-.LFB12
 1415 0798 01       		.uleb128 0x1
 1416 0799 9C       		.byte	0x9c
 1417 079a 4E080000 		.4byte	0x84e
 1418 079e 04       		.uleb128 0x4
 1419 079f 63030000 		.4byte	.LASF101
 1420 07a3 B2       		.byte	0xb2
 1421 07a4 2B       		.byte	0x2b
 1422 07a5 8B050000 		.4byte	0x58b
 1423 07a9 AB000000 		.4byte	.LLST5
 1424 07ad A7000000 		.4byte	.LVUS5
 1425 07b1 04       		.uleb128 0x4
ARM GAS  /tmp/ccHInf9i.s 			page 26


 1426 07b2 47000000 		.4byte	.LASF82
 1427 07b6 B3       		.byte	0xb3
 1428 07b7 2A       		.byte	0x2a
 1429 07b8 7F050000 		.4byte	0x57f
 1430 07bc BF000000 		.4byte	.LLST6
 1431 07c0 BB000000 		.4byte	.LVUS6
 1432 07c4 04       		.uleb128 0x4
 1433 07c5 AF010000 		.4byte	.LASF83
 1434 07c9 B4       		.byte	0xb4
 1435 07ca 2F       		.byte	0x2f
 1436 07cb EF030000 		.4byte	0x3ef
 1437 07cf D6000000 		.4byte	.LLST7
 1438 07d3 D2000000 		.4byte	.LVUS7
 1439 07d7 04       		.uleb128 0x4
 1440 07d8 53030000 		.4byte	.LASF84
 1441 07dc B5       		.byte	0xb5
 1442 07dd 27       		.byte	0x27
 1443 07de 2D000000 		.4byte	0x2d
 1444 07e2 ED000000 		.4byte	.LLST8
 1445 07e6 E9000000 		.4byte	.LVUS8
 1446 07ea 0E       		.uleb128 0xe
 1447 07eb 2A000000 		.4byte	.LASF86
 1448 07ef B6       		.byte	0xb6
 1449 07f0 29       		.byte	0x29
 1450 07f1 EA030000 		.4byte	0x3ea
 1451 07f5 02       		.uleb128 0x2
 1452 07f6 91       		.byte	0x91
 1453 07f7 00       		.sleb128 0
 1454 07f8 0E       		.uleb128 0xe
 1455 07f9 34030000 		.4byte	.LASF87
 1456 07fd B7       		.byte	0xb7
 1457 07fe 27       		.byte	0x27
 1458 07ff 2D000000 		.4byte	0x2d
 1459 0803 02       		.uleb128 0x2
 1460 0804 91       		.byte	0x91
 1461 0805 04       		.sleb128 4
 1462 0806 0E       		.uleb128 0xe
 1463 0807 CE010000 		.4byte	.LASF104
 1464 080b B8       		.byte	0xb8
 1465 080c 2A       		.byte	0x2a
 1466 080d 36010000 		.4byte	0x136
 1467 0811 02       		.uleb128 0x2
 1468 0812 91       		.byte	0x91
 1469 0813 08       		.sleb128 8
 1470 0814 1A       		.uleb128 0x1a
 1471 0815 0D000000 		.4byte	.LASF54
 1472 0819 B9       		.byte	0xb9
 1473 081a 1E010000 		.4byte	0x11e
 1474 081e 02010000 		.4byte	.LLST9
 1475 0822 00010000 		.4byte	.LVUS9
 1476 0826 0F       		.uleb128 0xf
 1477 0827 40000000 		.4byte	.LVL11
 1478 082b 06060000 		.4byte	0x606
 1479 082f 06       		.uleb128 0x6
 1480 0830 01       		.uleb128 0x1
 1481 0831 50       		.byte	0x50
 1482 0832 02       		.uleb128 0x2
ARM GAS  /tmp/ccHInf9i.s 			page 27


 1483 0833 74       		.byte	0x74
 1484 0834 00       		.sleb128 0
 1485 0835 06       		.uleb128 0x6
 1486 0836 01       		.uleb128 0x1
 1487 0837 52       		.byte	0x52
 1488 0838 03       		.uleb128 0x3
 1489 0839 A3       		.byte	0xa3
 1490 083a 01       		.uleb128 0x1
 1491 083b 52       		.byte	0x52
 1492 083c 06       		.uleb128 0x6
 1493 083d 01       		.uleb128 0x1
 1494 083e 53       		.byte	0x53
 1495 083f 03       		.uleb128 0x3
 1496 0840 A3       		.byte	0xa3
 1497 0841 01       		.uleb128 0x1
 1498 0842 53       		.byte	0x53
 1499 0843 06       		.uleb128 0x6
 1500 0844 02       		.uleb128 0x2
 1501 0845 7D       		.byte	0x7d
 1502 0846 04       		.sleb128 4
 1503 0847 04       		.uleb128 0x4
 1504 0848 91       		.byte	0x91
 1505 0849 7C       		.sleb128 -4
 1506 084a 94       		.byte	0x94
 1507 084b 01       		.byte	0x1
 1508 084c 00       		.byte	0
 1509 084d 00       		.byte	0
 1510 084e 12       		.uleb128 0x12
 1511 084f 01040000 		.4byte	.LASF105
 1512 0853 91       		.byte	0x91
 1513 0854 0C       		.byte	0xc
 1514 0855 73050000 		.4byte	0x573
 1515 0859 00000000 		.4byte	.LFB11
 1516 085d 08000000 		.4byte	.LFE11-.LFB11
 1517 0861 01       		.uleb128 0x1
 1518 0862 9C       		.byte	0x9c
 1519 0863 7B080000 		.4byte	0x87b
 1520 0867 04       		.uleb128 0x4
 1521 0868 63030000 		.4byte	.LASF101
 1522 086c 91       		.byte	0x91
 1523 086d 24       		.byte	0x24
 1524 086e 8B050000 		.4byte	0x58b
 1525 0872 0F010000 		.4byte	.LLST4
 1526 0876 0B010000 		.4byte	.LVUS4
 1527 087a 00       		.byte	0
 1528 087b 13       		.uleb128 0x13
 1529 087c 5B030000 		.4byte	.LASF106
 1530 0880 7B       		.byte	0x7b
 1531 0881 00000000 		.4byte	.LFB10
 1532 0885 20000000 		.4byte	.LFE10-.LFB10
 1533 0889 01       		.uleb128 0x1
 1534 088a 9C       		.byte	0x9c
 1535 088b B3080000 		.4byte	0x8b3
 1536 088f 04       		.uleb128 0x4
 1537 0890 63030000 		.4byte	.LASF101
 1538 0894 7B       		.byte	0x7b
 1539 0895 19       		.byte	0x19
ARM GAS  /tmp/ccHInf9i.s 			page 28


 1540 0896 8B050000 		.4byte	0x58b
 1541 089a 26010000 		.4byte	.LLST3
 1542 089e 22010000 		.4byte	.LVUS3
 1543 08a2 0F       		.uleb128 0xf
 1544 08a3 10000000 		.4byte	.LVL7
 1545 08a7 38060000 		.4byte	0x638
 1546 08ab 06       		.uleb128 0x6
 1547 08ac 01       		.uleb128 0x1
 1548 08ad 50       		.byte	0x50
 1549 08ae 02       		.uleb128 0x2
 1550 08af 74       		.byte	0x74
 1551 08b0 00       		.sleb128 0
 1552 08b1 00       		.byte	0
 1553 08b2 00       		.byte	0
 1554 08b3 13       		.uleb128 0x13
 1555 08b4 4C000000 		.4byte	.LASF107
 1556 08b8 65       		.byte	0x65
 1557 08b9 00000000 		.4byte	.LFB9
 1558 08bd 24000000 		.4byte	.LFE9-.LFB9
 1559 08c1 01       		.uleb128 0x1
 1560 08c2 9C       		.byte	0x9c
 1561 08c3 FE080000 		.4byte	0x8fe
 1562 08c7 04       		.uleb128 0x4
 1563 08c8 63030000 		.4byte	.LASF101
 1564 08cc 65       		.byte	0x65
 1565 08cd 1A       		.byte	0x1a
 1566 08ce 8B050000 		.4byte	0x58b
 1567 08d2 3A010000 		.4byte	.LLST1
 1568 08d6 36010000 		.4byte	.LVUS1
 1569 08da 04       		.uleb128 0x4
 1570 08db 5D040000 		.4byte	.LASF77
 1571 08df 65       		.byte	0x65
 1572 08e0 31       		.byte	0x31
 1573 08e1 B7050000 		.4byte	0x5b7
 1574 08e5 4E010000 		.4byte	.LLST2
 1575 08e9 4A010000 		.4byte	.LVUS2
 1576 08ed 0F       		.uleb128 0xf
 1577 08ee 14000000 		.4byte	.LVL5
 1578 08f2 49060000 		.4byte	0x649
 1579 08f6 06       		.uleb128 0x6
 1580 08f7 01       		.uleb128 0x1
 1581 08f8 50       		.byte	0x50
 1582 08f9 02       		.uleb128 0x2
 1583 08fa 74       		.byte	0x74
 1584 08fb 00       		.sleb128 0
 1585 08fc 00       		.byte	0
 1586 08fd 00       		.byte	0
 1587 08fe 13       		.uleb128 0x13
 1588 08ff 24050000 		.4byte	.LASF108
 1589 0903 4B       		.byte	0x4b
 1590 0904 00000000 		.4byte	.LFB8
 1591 0908 18000000 		.4byte	.LFE8-.LFB8
 1592 090c 01       		.uleb128 0x1
 1593 090d 9C       		.byte	0x9c
 1594 090e 39090000 		.4byte	0x939
 1595 0912 04       		.uleb128 0x4
 1596 0913 63030000 		.4byte	.LASF101
ARM GAS  /tmp/ccHInf9i.s 			page 29


 1597 0917 4B       		.byte	0x4b
 1598 0918 1F       		.byte	0x1f
 1599 0919 8B050000 		.4byte	0x58b
 1600 091d 67010000 		.4byte	.LLST0
 1601 0921 61010000 		.4byte	.LVUS0
 1602 0925 19       		.uleb128 0x19
 1603 0926 18000000 		.4byte	.LVL3
 1604 092a 5A060000 		.4byte	0x65a
 1605 092e 06       		.uleb128 0x6
 1606 092f 01       		.uleb128 0x1
 1607 0930 50       		.byte	0x50
 1608 0931 05       		.uleb128 0x5
 1609 0932 A3       		.byte	0xa3
 1610 0933 01       		.uleb128 0x1
 1611 0934 50       		.byte	0x50
 1612 0935 23       		.byte	0x23
 1613 0936 10       		.uleb128 0x10
 1614 0937 00       		.byte	0
 1615 0938 00       		.byte	0
 1616 0939 23       		.uleb128 0x23
 1617 093a 11050000 		.4byte	.LASF114
 1618 093e 01       		.byte	0x1
 1619 093f 40       		.byte	0x40
 1620 0940 06       		.byte	0x6
 1621 0941 00000000 		.4byte	.LFB7
 1622 0945 04000000 		.4byte	.LFE7-.LFB7
 1623 0949 01       		.uleb128 0x1
 1624 094a 9C       		.byte	0x9c
 1625 094b 18       		.uleb128 0x18
 1626 094c 04000000 		.4byte	.LVL0
 1627 0950 6B060000 		.4byte	0x66b
 1628 0954 00       		.byte	0
 1629 0955 00       		.byte	0
 1630              		.section	.debug_abbrev,"",%progbits
 1631              	.Ldebug_abbrev0:
 1632 0000 01       		.uleb128 0x1
 1633 0001 0D       		.uleb128 0xd
 1634 0002 00       		.byte	0
 1635 0003 03       		.uleb128 0x3
 1636 0004 0E       		.uleb128 0xe
 1637 0005 3A       		.uleb128 0x3a
 1638 0006 0B       		.uleb128 0xb
 1639 0007 3B       		.uleb128 0x3b
 1640 0008 0B       		.uleb128 0xb
 1641 0009 39       		.uleb128 0x39
 1642 000a 0B       		.uleb128 0xb
 1643 000b 49       		.uleb128 0x49
 1644 000c 13       		.uleb128 0x13
 1645 000d 38       		.uleb128 0x38
 1646 000e 0B       		.uleb128 0xb
 1647 000f 00       		.byte	0
 1648 0010 00       		.byte	0
 1649 0011 02       		.uleb128 0x2
 1650 0012 16       		.uleb128 0x16
 1651 0013 00       		.byte	0
 1652 0014 03       		.uleb128 0x3
 1653 0015 0E       		.uleb128 0xe
ARM GAS  /tmp/ccHInf9i.s 			page 30


 1654 0016 3A       		.uleb128 0x3a
 1655 0017 0B       		.uleb128 0xb
 1656 0018 3B       		.uleb128 0x3b
 1657 0019 0B       		.uleb128 0xb
 1658 001a 39       		.uleb128 0x39
 1659 001b 0B       		.uleb128 0xb
 1660 001c 49       		.uleb128 0x49
 1661 001d 13       		.uleb128 0x13
 1662 001e 00       		.byte	0
 1663 001f 00       		.byte	0
 1664 0020 03       		.uleb128 0x3
 1665 0021 05       		.uleb128 0x5
 1666 0022 00       		.byte	0
 1667 0023 49       		.uleb128 0x49
 1668 0024 13       		.uleb128 0x13
 1669 0025 00       		.byte	0
 1670 0026 00       		.byte	0
 1671 0027 04       		.uleb128 0x4
 1672 0028 05       		.uleb128 0x5
 1673 0029 00       		.byte	0
 1674 002a 03       		.uleb128 0x3
 1675 002b 0E       		.uleb128 0xe
 1676 002c 3A       		.uleb128 0x3a
 1677 002d 21       		.uleb128 0x21
 1678 002e 01       		.sleb128 1
 1679 002f 3B       		.uleb128 0x3b
 1680 0030 0B       		.uleb128 0xb
 1681 0031 39       		.uleb128 0x39
 1682 0032 0B       		.uleb128 0xb
 1683 0033 49       		.uleb128 0x49
 1684 0034 13       		.uleb128 0x13
 1685 0035 02       		.uleb128 0x2
 1686 0036 17       		.uleb128 0x17
 1687 0037 B742     		.uleb128 0x2137
 1688 0039 17       		.uleb128 0x17
 1689 003a 00       		.byte	0
 1690 003b 00       		.byte	0
 1691 003c 05       		.uleb128 0x5
 1692 003d 0D       		.uleb128 0xd
 1693 003e 00       		.byte	0
 1694 003f 03       		.uleb128 0x3
 1695 0040 08       		.uleb128 0x8
 1696 0041 3A       		.uleb128 0x3a
 1697 0042 0B       		.uleb128 0xb
 1698 0043 3B       		.uleb128 0x3b
 1699 0044 0B       		.uleb128 0xb
 1700 0045 39       		.uleb128 0x39
 1701 0046 0B       		.uleb128 0xb
 1702 0047 49       		.uleb128 0x49
 1703 0048 13       		.uleb128 0x13
 1704 0049 38       		.uleb128 0x38
 1705 004a 0B       		.uleb128 0xb
 1706 004b 00       		.byte	0
 1707 004c 00       		.byte	0
 1708 004d 06       		.uleb128 0x6
 1709 004e 49       		.uleb128 0x49
 1710 004f 00       		.byte	0
ARM GAS  /tmp/ccHInf9i.s 			page 31


 1711 0050 02       		.uleb128 0x2
 1712 0051 18       		.uleb128 0x18
 1713 0052 7E       		.uleb128 0x7e
 1714 0053 18       		.uleb128 0x18
 1715 0054 00       		.byte	0
 1716 0055 00       		.byte	0
 1717 0056 07       		.uleb128 0x7
 1718 0057 24       		.uleb128 0x24
 1719 0058 00       		.byte	0
 1720 0059 0B       		.uleb128 0xb
 1721 005a 0B       		.uleb128 0xb
 1722 005b 3E       		.uleb128 0x3e
 1723 005c 0B       		.uleb128 0xb
 1724 005d 03       		.uleb128 0x3
 1725 005e 0E       		.uleb128 0xe
 1726 005f 00       		.byte	0
 1727 0060 00       		.byte	0
 1728 0061 08       		.uleb128 0x8
 1729 0062 0F       		.uleb128 0xf
 1730 0063 00       		.byte	0
 1731 0064 0B       		.uleb128 0xb
 1732 0065 21       		.uleb128 0x21
 1733 0066 04       		.sleb128 4
 1734 0067 49       		.uleb128 0x49
 1735 0068 13       		.uleb128 0x13
 1736 0069 00       		.byte	0
 1737 006a 00       		.byte	0
 1738 006b 09       		.uleb128 0x9
 1739 006c 13       		.uleb128 0x13
 1740 006d 01       		.byte	0x1
 1741 006e 03       		.uleb128 0x3
 1742 006f 0E       		.uleb128 0xe
 1743 0070 0B       		.uleb128 0xb
 1744 0071 0B       		.uleb128 0xb
 1745 0072 3A       		.uleb128 0x3a
 1746 0073 0B       		.uleb128 0xb
 1747 0074 3B       		.uleb128 0x3b
 1748 0075 0B       		.uleb128 0xb
 1749 0076 39       		.uleb128 0x39
 1750 0077 0B       		.uleb128 0xb
 1751 0078 01       		.uleb128 0x1
 1752 0079 13       		.uleb128 0x13
 1753 007a 00       		.byte	0
 1754 007b 00       		.byte	0
 1755 007c 0A       		.uleb128 0xa
 1756 007d 0D       		.uleb128 0xd
 1757 007e 00       		.byte	0
 1758 007f 03       		.uleb128 0x3
 1759 0080 0E       		.uleb128 0xe
 1760 0081 3A       		.uleb128 0x3a
 1761 0082 21       		.uleb128 0x21
 1762 0083 0A       		.sleb128 10
 1763 0084 3B       		.uleb128 0x3b
 1764 0085 05       		.uleb128 0x5
 1765 0086 39       		.uleb128 0x39
 1766 0087 21       		.uleb128 0x21
 1767 0088 19       		.sleb128 25
ARM GAS  /tmp/ccHInf9i.s 			page 32


 1768 0089 49       		.uleb128 0x49
 1769 008a 13       		.uleb128 0x13
 1770 008b 38       		.uleb128 0x38
 1771 008c 0B       		.uleb128 0xb
 1772 008d 00       		.byte	0
 1773 008e 00       		.byte	0
 1774 008f 0B       		.uleb128 0xb
 1775 0090 28       		.uleb128 0x28
 1776 0091 00       		.byte	0
 1777 0092 03       		.uleb128 0x3
 1778 0093 0E       		.uleb128 0xe
 1779 0094 1C       		.uleb128 0x1c
 1780 0095 0B       		.uleb128 0xb
 1781 0096 00       		.byte	0
 1782 0097 00       		.byte	0
 1783 0098 0C       		.uleb128 0xc
 1784 0099 0D       		.uleb128 0xd
 1785 009a 00       		.byte	0
 1786 009b 03       		.uleb128 0x3
 1787 009c 0E       		.uleb128 0xe
 1788 009d 3A       		.uleb128 0x3a
 1789 009e 21       		.uleb128 0x21
 1790 009f 07       		.sleb128 7
 1791 00a0 3B       		.uleb128 0x3b
 1792 00a1 0B       		.uleb128 0xb
 1793 00a2 39       		.uleb128 0x39
 1794 00a3 0B       		.uleb128 0xb
 1795 00a4 49       		.uleb128 0x49
 1796 00a5 13       		.uleb128 0x13
 1797 00a6 00       		.byte	0
 1798 00a7 00       		.byte	0
 1799 00a8 0D       		.uleb128 0xd
 1800 00a9 2E       		.uleb128 0x2e
 1801 00aa 01       		.byte	0x1
 1802 00ab 3F       		.uleb128 0x3f
 1803 00ac 19       		.uleb128 0x19
 1804 00ad 03       		.uleb128 0x3
 1805 00ae 0E       		.uleb128 0xe
 1806 00af 3A       		.uleb128 0x3a
 1807 00b0 0B       		.uleb128 0xb
 1808 00b1 3B       		.uleb128 0x3b
 1809 00b2 0B       		.uleb128 0xb
 1810 00b3 39       		.uleb128 0x39
 1811 00b4 21       		.uleb128 0x21
 1812 00b5 08       		.sleb128 8
 1813 00b6 27       		.uleb128 0x27
 1814 00b7 19       		.uleb128 0x19
 1815 00b8 3C       		.uleb128 0x3c
 1816 00b9 19       		.uleb128 0x19
 1817 00ba 01       		.uleb128 0x1
 1818 00bb 13       		.uleb128 0x13
 1819 00bc 00       		.byte	0
 1820 00bd 00       		.byte	0
 1821 00be 0E       		.uleb128 0xe
 1822 00bf 05       		.uleb128 0x5
 1823 00c0 00       		.byte	0
 1824 00c1 03       		.uleb128 0x3
ARM GAS  /tmp/ccHInf9i.s 			page 33


 1825 00c2 0E       		.uleb128 0xe
 1826 00c3 3A       		.uleb128 0x3a
 1827 00c4 21       		.uleb128 0x21
 1828 00c5 01       		.sleb128 1
 1829 00c6 3B       		.uleb128 0x3b
 1830 00c7 0B       		.uleb128 0xb
 1831 00c8 39       		.uleb128 0x39
 1832 00c9 0B       		.uleb128 0xb
 1833 00ca 49       		.uleb128 0x49
 1834 00cb 13       		.uleb128 0x13
 1835 00cc 02       		.uleb128 0x2
 1836 00cd 18       		.uleb128 0x18
 1837 00ce 00       		.byte	0
 1838 00cf 00       		.byte	0
 1839 00d0 0F       		.uleb128 0xf
 1840 00d1 48       		.uleb128 0x48
 1841 00d2 01       		.byte	0x1
 1842 00d3 7D       		.uleb128 0x7d
 1843 00d4 01       		.uleb128 0x1
 1844 00d5 7F       		.uleb128 0x7f
 1845 00d6 13       		.uleb128 0x13
 1846 00d7 00       		.byte	0
 1847 00d8 00       		.byte	0
 1848 00d9 10       		.uleb128 0x10
 1849 00da 26       		.uleb128 0x26
 1850 00db 00       		.byte	0
 1851 00dc 49       		.uleb128 0x49
 1852 00dd 13       		.uleb128 0x13
 1853 00de 00       		.byte	0
 1854 00df 00       		.byte	0
 1855 00e0 11       		.uleb128 0x11
 1856 00e1 13       		.uleb128 0x13
 1857 00e2 01       		.byte	0x1
 1858 00e3 0B       		.uleb128 0xb
 1859 00e4 0B       		.uleb128 0xb
 1860 00e5 3A       		.uleb128 0x3a
 1861 00e6 0B       		.uleb128 0xb
 1862 00e7 3B       		.uleb128 0x3b
 1863 00e8 0B       		.uleb128 0xb
 1864 00e9 39       		.uleb128 0x39
 1865 00ea 21       		.uleb128 0x21
 1866 00eb 09       		.sleb128 9
 1867 00ec 01       		.uleb128 0x1
 1868 00ed 13       		.uleb128 0x13
 1869 00ee 00       		.byte	0
 1870 00ef 00       		.byte	0
 1871 00f0 12       		.uleb128 0x12
 1872 00f1 2E       		.uleb128 0x2e
 1873 00f2 01       		.byte	0x1
 1874 00f3 3F       		.uleb128 0x3f
 1875 00f4 19       		.uleb128 0x19
 1876 00f5 03       		.uleb128 0x3
 1877 00f6 0E       		.uleb128 0xe
 1878 00f7 3A       		.uleb128 0x3a
 1879 00f8 21       		.uleb128 0x21
 1880 00f9 01       		.sleb128 1
 1881 00fa 3B       		.uleb128 0x3b
ARM GAS  /tmp/ccHInf9i.s 			page 34


 1882 00fb 0B       		.uleb128 0xb
 1883 00fc 39       		.uleb128 0x39
 1884 00fd 0B       		.uleb128 0xb
 1885 00fe 27       		.uleb128 0x27
 1886 00ff 19       		.uleb128 0x19
 1887 0100 49       		.uleb128 0x49
 1888 0101 13       		.uleb128 0x13
 1889 0102 11       		.uleb128 0x11
 1890 0103 01       		.uleb128 0x1
 1891 0104 12       		.uleb128 0x12
 1892 0105 06       		.uleb128 0x6
 1893 0106 40       		.uleb128 0x40
 1894 0107 18       		.uleb128 0x18
 1895 0108 7A       		.uleb128 0x7a
 1896 0109 19       		.uleb128 0x19
 1897 010a 01       		.uleb128 0x1
 1898 010b 13       		.uleb128 0x13
 1899 010c 00       		.byte	0
 1900 010d 00       		.byte	0
 1901 010e 13       		.uleb128 0x13
 1902 010f 2E       		.uleb128 0x2e
 1903 0110 01       		.byte	0x1
 1904 0111 3F       		.uleb128 0x3f
 1905 0112 19       		.uleb128 0x19
 1906 0113 03       		.uleb128 0x3
 1907 0114 0E       		.uleb128 0xe
 1908 0115 3A       		.uleb128 0x3a
 1909 0116 21       		.uleb128 0x21
 1910 0117 01       		.sleb128 1
 1911 0118 3B       		.uleb128 0x3b
 1912 0119 0B       		.uleb128 0xb
 1913 011a 39       		.uleb128 0x39
 1914 011b 21       		.uleb128 0x21
 1915 011c 06       		.sleb128 6
 1916 011d 27       		.uleb128 0x27
 1917 011e 19       		.uleb128 0x19
 1918 011f 11       		.uleb128 0x11
 1919 0120 01       		.uleb128 0x1
 1920 0121 12       		.uleb128 0x12
 1921 0122 06       		.uleb128 0x6
 1922 0123 40       		.uleb128 0x40
 1923 0124 18       		.uleb128 0x18
 1924 0125 7A       		.uleb128 0x7a
 1925 0126 19       		.uleb128 0x19
 1926 0127 01       		.uleb128 0x1
 1927 0128 13       		.uleb128 0x13
 1928 0129 00       		.byte	0
 1929 012a 00       		.byte	0
 1930 012b 14       		.uleb128 0x14
 1931 012c 35       		.uleb128 0x35
 1932 012d 00       		.byte	0
 1933 012e 49       		.uleb128 0x49
 1934 012f 13       		.uleb128 0x13
 1935 0130 00       		.byte	0
 1936 0131 00       		.byte	0
 1937 0132 15       		.uleb128 0x15
 1938 0133 2E       		.uleb128 0x2e
ARM GAS  /tmp/ccHInf9i.s 			page 35


 1939 0134 01       		.byte	0x1
 1940 0135 3F       		.uleb128 0x3f
 1941 0136 19       		.uleb128 0x19
 1942 0137 03       		.uleb128 0x3
 1943 0138 0E       		.uleb128 0xe
 1944 0139 3A       		.uleb128 0x3a
 1945 013a 21       		.uleb128 0x21
 1946 013b 0C       		.sleb128 12
 1947 013c 3B       		.uleb128 0x3b
 1948 013d 0B       		.uleb128 0xb
 1949 013e 39       		.uleb128 0x39
 1950 013f 21       		.uleb128 0x21
 1951 0140 09       		.sleb128 9
 1952 0141 27       		.uleb128 0x27
 1953 0142 19       		.uleb128 0x19
 1954 0143 49       		.uleb128 0x49
 1955 0144 13       		.uleb128 0x13
 1956 0145 3C       		.uleb128 0x3c
 1957 0146 19       		.uleb128 0x19
 1958 0147 01       		.uleb128 0x1
 1959 0148 13       		.uleb128 0x13
 1960 0149 00       		.byte	0
 1961 014a 00       		.byte	0
 1962 014b 16       		.uleb128 0x16
 1963 014c 2E       		.uleb128 0x2e
 1964 014d 01       		.byte	0x1
 1965 014e 3F       		.uleb128 0x3f
 1966 014f 19       		.uleb128 0x19
 1967 0150 03       		.uleb128 0x3
 1968 0151 0E       		.uleb128 0xe
 1969 0152 3A       		.uleb128 0x3a
 1970 0153 21       		.uleb128 0x21
 1971 0154 01       		.sleb128 1
 1972 0155 3B       		.uleb128 0x3b
 1973 0156 05       		.uleb128 0x5
 1974 0157 39       		.uleb128 0x39
 1975 0158 21       		.uleb128 0x21
 1976 0159 06       		.sleb128 6
 1977 015a 27       		.uleb128 0x27
 1978 015b 19       		.uleb128 0x19
 1979 015c 11       		.uleb128 0x11
 1980 015d 01       		.uleb128 0x1
 1981 015e 12       		.uleb128 0x12
 1982 015f 06       		.uleb128 0x6
 1983 0160 40       		.uleb128 0x40
 1984 0161 18       		.uleb128 0x18
 1985 0162 7A       		.uleb128 0x7a
 1986 0163 19       		.uleb128 0x19
 1987 0164 01       		.uleb128 0x1
 1988 0165 13       		.uleb128 0x13
 1989 0166 00       		.byte	0
 1990 0167 00       		.byte	0
 1991 0168 17       		.uleb128 0x17
 1992 0169 05       		.uleb128 0x5
 1993 016a 00       		.byte	0
 1994 016b 03       		.uleb128 0x3
 1995 016c 0E       		.uleb128 0xe
ARM GAS  /tmp/ccHInf9i.s 			page 36


 1996 016d 3A       		.uleb128 0x3a
 1997 016e 21       		.uleb128 0x21
 1998 016f 01       		.sleb128 1
 1999 0170 3B       		.uleb128 0x3b
 2000 0171 05       		.uleb128 0x5
 2001 0172 39       		.uleb128 0x39
 2002 0173 21       		.uleb128 0x21
 2003 0174 1F       		.sleb128 31
 2004 0175 49       		.uleb128 0x49
 2005 0176 13       		.uleb128 0x13
 2006 0177 02       		.uleb128 0x2
 2007 0178 17       		.uleb128 0x17
 2008 0179 B742     		.uleb128 0x2137
 2009 017b 17       		.uleb128 0x17
 2010 017c 00       		.byte	0
 2011 017d 00       		.byte	0
 2012 017e 18       		.uleb128 0x18
 2013 017f 48       		.uleb128 0x48
 2014 0180 00       		.byte	0
 2015 0181 7D       		.uleb128 0x7d
 2016 0182 01       		.uleb128 0x1
 2017 0183 8201     		.uleb128 0x82
 2018 0185 19       		.uleb128 0x19
 2019 0186 7F       		.uleb128 0x7f
 2020 0187 13       		.uleb128 0x13
 2021 0188 00       		.byte	0
 2022 0189 00       		.byte	0
 2023 018a 19       		.uleb128 0x19
 2024 018b 48       		.uleb128 0x48
 2025 018c 01       		.byte	0x1
 2026 018d 7D       		.uleb128 0x7d
 2027 018e 01       		.uleb128 0x1
 2028 018f 8201     		.uleb128 0x82
 2029 0191 19       		.uleb128 0x19
 2030 0192 7F       		.uleb128 0x7f
 2031 0193 13       		.uleb128 0x13
 2032 0194 00       		.byte	0
 2033 0195 00       		.byte	0
 2034 0196 1A       		.uleb128 0x1a
 2035 0197 34       		.uleb128 0x34
 2036 0198 00       		.byte	0
 2037 0199 03       		.uleb128 0x3
 2038 019a 0E       		.uleb128 0xe
 2039 019b 3A       		.uleb128 0x3a
 2040 019c 21       		.uleb128 0x21
 2041 019d 01       		.sleb128 1
 2042 019e 3B       		.uleb128 0x3b
 2043 019f 0B       		.uleb128 0xb
 2044 01a0 39       		.uleb128 0x39
 2045 01a1 21       		.uleb128 0x21
 2046 01a2 09       		.sleb128 9
 2047 01a3 49       		.uleb128 0x49
 2048 01a4 13       		.uleb128 0x13
 2049 01a5 02       		.uleb128 0x2
 2050 01a6 17       		.uleb128 0x17
 2051 01a7 B742     		.uleb128 0x2137
 2052 01a9 17       		.uleb128 0x17
ARM GAS  /tmp/ccHInf9i.s 			page 37


 2053 01aa 00       		.byte	0
 2054 01ab 00       		.byte	0
 2055 01ac 1B       		.uleb128 0x1b
 2056 01ad 11       		.uleb128 0x11
 2057 01ae 01       		.byte	0x1
 2058 01af 25       		.uleb128 0x25
 2059 01b0 0E       		.uleb128 0xe
 2060 01b1 13       		.uleb128 0x13
 2061 01b2 0B       		.uleb128 0xb
 2062 01b3 03       		.uleb128 0x3
 2063 01b4 0E       		.uleb128 0xe
 2064 01b5 1B       		.uleb128 0x1b
 2065 01b6 0E       		.uleb128 0xe
 2066 01b7 55       		.uleb128 0x55
 2067 01b8 17       		.uleb128 0x17
 2068 01b9 11       		.uleb128 0x11
 2069 01ba 01       		.uleb128 0x1
 2070 01bb 10       		.uleb128 0x10
 2071 01bc 17       		.uleb128 0x17
 2072 01bd 00       		.byte	0
 2073 01be 00       		.byte	0
 2074 01bf 1C       		.uleb128 0x1c
 2075 01c0 24       		.uleb128 0x24
 2076 01c1 00       		.byte	0
 2077 01c2 0B       		.uleb128 0xb
 2078 01c3 0B       		.uleb128 0xb
 2079 01c4 3E       		.uleb128 0x3e
 2080 01c5 0B       		.uleb128 0xb
 2081 01c6 03       		.uleb128 0x3
 2082 01c7 08       		.uleb128 0x8
 2083 01c8 00       		.byte	0
 2084 01c9 00       		.byte	0
 2085 01ca 1D       		.uleb128 0x1d
 2086 01cb 0F       		.uleb128 0xf
 2087 01cc 00       		.byte	0
 2088 01cd 0B       		.uleb128 0xb
 2089 01ce 0B       		.uleb128 0xb
 2090 01cf 00       		.byte	0
 2091 01d0 00       		.byte	0
 2092 01d1 1E       		.uleb128 0x1e
 2093 01d2 17       		.uleb128 0x17
 2094 01d3 01       		.byte	0x1
 2095 01d4 0B       		.uleb128 0xb
 2096 01d5 0B       		.uleb128 0xb
 2097 01d6 3A       		.uleb128 0x3a
 2098 01d7 0B       		.uleb128 0xb
 2099 01d8 3B       		.uleb128 0x3b
 2100 01d9 0B       		.uleb128 0xb
 2101 01da 39       		.uleb128 0x39
 2102 01db 0B       		.uleb128 0xb
 2103 01dc 01       		.uleb128 0x1
 2104 01dd 13       		.uleb128 0x13
 2105 01de 00       		.byte	0
 2106 01df 00       		.byte	0
 2107 01e0 1F       		.uleb128 0x1f
 2108 01e1 16       		.uleb128 0x16
 2109 01e2 00       		.byte	0
ARM GAS  /tmp/ccHInf9i.s 			page 38


 2110 01e3 03       		.uleb128 0x3
 2111 01e4 0E       		.uleb128 0xe
 2112 01e5 3A       		.uleb128 0x3a
 2113 01e6 0B       		.uleb128 0xb
 2114 01e7 3B       		.uleb128 0x3b
 2115 01e8 05       		.uleb128 0x5
 2116 01e9 39       		.uleb128 0x39
 2117 01ea 0B       		.uleb128 0xb
 2118 01eb 49       		.uleb128 0x49
 2119 01ec 13       		.uleb128 0x13
 2120 01ed 00       		.byte	0
 2121 01ee 00       		.byte	0
 2122 01ef 20       		.uleb128 0x20
 2123 01f0 04       		.uleb128 0x4
 2124 01f1 01       		.byte	0x1
 2125 01f2 3E       		.uleb128 0x3e
 2126 01f3 0B       		.uleb128 0xb
 2127 01f4 0B       		.uleb128 0xb
 2128 01f5 0B       		.uleb128 0xb
 2129 01f6 49       		.uleb128 0x49
 2130 01f7 13       		.uleb128 0x13
 2131 01f8 3A       		.uleb128 0x3a
 2132 01f9 0B       		.uleb128 0xb
 2133 01fa 3B       		.uleb128 0x3b
 2134 01fb 0B       		.uleb128 0xb
 2135 01fc 39       		.uleb128 0x39
 2136 01fd 0B       		.uleb128 0xb
 2137 01fe 01       		.uleb128 0x1
 2138 01ff 13       		.uleb128 0x13
 2139 0200 00       		.byte	0
 2140 0201 00       		.byte	0
 2141 0202 21       		.uleb128 0x21
 2142 0203 2E       		.uleb128 0x2e
 2143 0204 00       		.byte	0
 2144 0205 3F       		.uleb128 0x3f
 2145 0206 19       		.uleb128 0x19
 2146 0207 03       		.uleb128 0x3
 2147 0208 0E       		.uleb128 0xe
 2148 0209 3A       		.uleb128 0x3a
 2149 020a 0B       		.uleb128 0xb
 2150 020b 3B       		.uleb128 0x3b
 2151 020c 0B       		.uleb128 0xb
 2152 020d 39       		.uleb128 0x39
 2153 020e 0B       		.uleb128 0xb
 2154 020f 27       		.uleb128 0x27
 2155 0210 19       		.uleb128 0x19
 2156 0211 49       		.uleb128 0x49
 2157 0212 13       		.uleb128 0x13
 2158 0213 3C       		.uleb128 0x3c
 2159 0214 19       		.uleb128 0x19
 2160 0215 00       		.byte	0
 2161 0216 00       		.byte	0
 2162 0217 22       		.uleb128 0x22
 2163 0218 2E       		.uleb128 0x2e
 2164 0219 00       		.byte	0
 2165 021a 3F       		.uleb128 0x3f
 2166 021b 19       		.uleb128 0x19
ARM GAS  /tmp/ccHInf9i.s 			page 39


 2167 021c 03       		.uleb128 0x3
 2168 021d 0E       		.uleb128 0xe
 2169 021e 3A       		.uleb128 0x3a
 2170 021f 0B       		.uleb128 0xb
 2171 0220 3B       		.uleb128 0x3b
 2172 0221 0B       		.uleb128 0xb
 2173 0222 39       		.uleb128 0x39
 2174 0223 0B       		.uleb128 0xb
 2175 0224 27       		.uleb128 0x27
 2176 0225 19       		.uleb128 0x19
 2177 0226 3C       		.uleb128 0x3c
 2178 0227 19       		.uleb128 0x19
 2179 0228 00       		.byte	0
 2180 0229 00       		.byte	0
 2181 022a 23       		.uleb128 0x23
 2182 022b 2E       		.uleb128 0x2e
 2183 022c 01       		.byte	0x1
 2184 022d 3F       		.uleb128 0x3f
 2185 022e 19       		.uleb128 0x19
 2186 022f 03       		.uleb128 0x3
 2187 0230 0E       		.uleb128 0xe
 2188 0231 3A       		.uleb128 0x3a
 2189 0232 0B       		.uleb128 0xb
 2190 0233 3B       		.uleb128 0x3b
 2191 0234 0B       		.uleb128 0xb
 2192 0235 39       		.uleb128 0x39
 2193 0236 0B       		.uleb128 0xb
 2194 0237 27       		.uleb128 0x27
 2195 0238 19       		.uleb128 0x19
 2196 0239 11       		.uleb128 0x11
 2197 023a 01       		.uleb128 0x1
 2198 023b 12       		.uleb128 0x12
 2199 023c 06       		.uleb128 0x6
 2200 023d 40       		.uleb128 0x40
 2201 023e 18       		.uleb128 0x18
 2202 023f 7A       		.uleb128 0x7a
 2203 0240 19       		.uleb128 0x19
 2204 0241 00       		.byte	0
 2205 0242 00       		.byte	0
 2206 0243 00       		.byte	0
 2207              		.section	.debug_loclists,"",%progbits
 2208 0000 7D010000 		.4byte	.Ldebug_loc3-.Ldebug_loc2
 2209              	.Ldebug_loc2:
 2210 0004 0500     		.2byte	0x5
 2211 0006 04       		.byte	0x4
 2212 0007 00       		.byte	0
 2213 0008 00000000 		.4byte	0
 2214              	.Ldebug_loc0:
 2215              	.LVUS16:
 2216 000c 00       		.uleb128 0
 2217 000d 00       		.uleb128 .LVU122
 2218 000e 00       		.uleb128 .LVU122
 2219 000f 00       		.uleb128 0
 2220              	.LLST16:
 2221 0010 06       		.byte	0x6
 2222 0011 00000000 		.4byte	.LVL17
 2223 0015 04       		.byte	0x4
ARM GAS  /tmp/ccHInf9i.s 			page 40


 2224 0016 00       		.uleb128 .LVL17-.LVL17
 2225 0017 03       		.uleb128 .LVL18-1-.LVL17
 2226 0018 01       		.uleb128 0x1
 2227 0019 50       		.byte	0x50
 2228 001a 04       		.byte	0x4
 2229 001b 03       		.uleb128 .LVL18-1-.LVL17
 2230 001c 04       		.uleb128 .LFE15-.LVL17
 2231 001d 04       		.uleb128 0x4
 2232 001e A3       		.byte	0xa3
 2233 001f 01       		.uleb128 0x1
 2234 0020 50       		.byte	0x50
 2235 0021 9F       		.byte	0x9f
 2236 0022 00       		.byte	0
 2237              	.LVUS15:
 2238 0023 00       		.uleb128 0
 2239 0024 00       		.uleb128 .LVU116
 2240 0025 00       		.uleb128 .LVU116
 2241 0026 00       		.uleb128 .LVU117
 2242 0027 00       		.uleb128 .LVU117
 2243 0028 00       		.uleb128 0
 2244              	.LLST15:
 2245 0029 06       		.byte	0x6
 2246 002a 00000000 		.4byte	.LVL14
 2247 002e 04       		.byte	0x4
 2248 002f 00       		.uleb128 .LVL14-.LVL14
 2249 0030 04       		.uleb128 .LVL15-.LVL14
 2250 0031 01       		.uleb128 0x1
 2251 0032 50       		.byte	0x50
 2252 0033 04       		.byte	0x4
 2253 0034 04       		.uleb128 .LVL15-.LVL14
 2254 0035 07       		.uleb128 .LVL16-1-.LVL14
 2255 0036 03       		.uleb128 0x3
 2256 0037 70       		.byte	0x70
 2257 0038 70       		.sleb128 -16
 2258 0039 9F       		.byte	0x9f
 2259 003a 04       		.byte	0x4
 2260 003b 07       		.uleb128 .LVL16-1-.LVL14
 2261 003c 08       		.uleb128 .LFE14-.LVL14
 2262 003d 04       		.uleb128 0x4
 2263 003e A3       		.byte	0xa3
 2264 003f 01       		.uleb128 0x1
 2265 0040 50       		.byte	0x50
 2266 0041 9F       		.byte	0x9f
 2267 0042 00       		.byte	0
 2268              	.LVUS10:
 2269 0043 00       		.uleb128 0
 2270 0044 00       		.uleb128 .LVU104
 2271 0045 00       		.uleb128 .LVU104
 2272 0046 00       		.uleb128 0
 2273              	.LLST10:
 2274 0047 06       		.byte	0x6
 2275 0048 00000000 		.4byte	.LVL12
 2276 004c 04       		.byte	0x4
 2277 004d 00       		.uleb128 .LVL12-.LVL12
 2278 004e 2B       		.uleb128 .LVL13-1-.LVL12
 2279 004f 01       		.uleb128 0x1
 2280 0050 50       		.byte	0x50
ARM GAS  /tmp/ccHInf9i.s 			page 41


 2281 0051 04       		.byte	0x4
 2282 0052 2B       		.uleb128 .LVL13-1-.LVL12
 2283 0053 48       		.uleb128 .LFE13-.LVL12
 2284 0054 01       		.uleb128 0x1
 2285 0055 54       		.byte	0x54
 2286 0056 00       		.byte	0
 2287              	.LVUS11:
 2288 0057 00       		.uleb128 0
 2289 0058 00       		.uleb128 .LVU104
 2290 0059 00       		.uleb128 .LVU104
 2291 005a 00       		.uleb128 0
 2292              	.LLST11:
 2293 005b 06       		.byte	0x6
 2294 005c 00000000 		.4byte	.LVL12
 2295 0060 04       		.byte	0x4
 2296 0061 00       		.uleb128 .LVL12-.LVL12
 2297 0062 2B       		.uleb128 .LVL13-1-.LVL12
 2298 0063 01       		.uleb128 0x1
 2299 0064 51       		.byte	0x51
 2300 0065 04       		.byte	0x4
 2301 0066 2B       		.uleb128 .LVL13-1-.LVL12
 2302 0067 48       		.uleb128 .LFE13-.LVL12
 2303 0068 04       		.uleb128 0x4
 2304 0069 A3       		.byte	0xa3
 2305 006a 01       		.uleb128 0x1
 2306 006b 51       		.byte	0x51
 2307 006c 9F       		.byte	0x9f
 2308 006d 00       		.byte	0
 2309              	.LVUS12:
 2310 006e 00       		.uleb128 0
 2311 006f 00       		.uleb128 .LVU104
 2312 0070 00       		.uleb128 .LVU104
 2313 0071 00       		.uleb128 0
 2314              	.LLST12:
 2315 0072 06       		.byte	0x6
 2316 0073 00000000 		.4byte	.LVL12
 2317 0077 04       		.byte	0x4
 2318 0078 00       		.uleb128 .LVL12-.LVL12
 2319 0079 2B       		.uleb128 .LVL13-1-.LVL12
 2320 007a 01       		.uleb128 0x1
 2321 007b 52       		.byte	0x52
 2322 007c 04       		.byte	0x4
 2323 007d 2B       		.uleb128 .LVL13-1-.LVL12
 2324 007e 48       		.uleb128 .LFE13-.LVL12
 2325 007f 04       		.uleb128 0x4
 2326 0080 A3       		.byte	0xa3
 2327 0081 01       		.uleb128 0x1
 2328 0082 52       		.byte	0x52
 2329 0083 9F       		.byte	0x9f
 2330 0084 00       		.byte	0
 2331              	.LVUS13:
 2332 0085 00       		.uleb128 0
 2333 0086 00       		.uleb128 .LVU104
 2334 0087 00       		.uleb128 .LVU104
 2335 0088 00       		.uleb128 0
 2336              	.LLST13:
 2337 0089 06       		.byte	0x6
ARM GAS  /tmp/ccHInf9i.s 			page 42


 2338 008a 00000000 		.4byte	.LVL12
 2339 008e 04       		.byte	0x4
 2340 008f 00       		.uleb128 .LVL12-.LVL12
 2341 0090 2B       		.uleb128 .LVL13-1-.LVL12
 2342 0091 01       		.uleb128 0x1
 2343 0092 53       		.byte	0x53
 2344 0093 04       		.byte	0x4
 2345 0094 2B       		.uleb128 .LVL13-1-.LVL12
 2346 0095 48       		.uleb128 .LFE13-.LVL12
 2347 0096 04       		.uleb128 0x4
 2348 0097 A3       		.byte	0xa3
 2349 0098 01       		.uleb128 0x1
 2350 0099 53       		.byte	0x53
 2351 009a 9F       		.byte	0x9f
 2352 009b 00       		.byte	0
 2353              	.LVUS14:
 2354 009c 00       		.uleb128 .LVU104
 2355 009d 00       		.uleb128 0
 2356              	.LLST14:
 2357 009e 08       		.byte	0x8
 2358 009f 2C000000 		.4byte	.LVL13
 2359 00a3 1C       		.uleb128 .LFE13-.LVL13
 2360 00a4 01       		.uleb128 0x1
 2361 00a5 50       		.byte	0x50
 2362 00a6 00       		.byte	0
 2363              	.LVUS5:
 2364 00a7 00       		.uleb128 0
 2365 00a8 00       		.uleb128 .LVU77
 2366 00a9 00       		.uleb128 .LVU77
 2367 00aa 00       		.uleb128 0
 2368              	.LLST5:
 2369 00ab 06       		.byte	0x6
 2370 00ac 00000000 		.4byte	.LVL10
 2371 00b0 04       		.byte	0x4
 2372 00b1 00       		.uleb128 .LVL10-.LVL10
 2373 00b2 3F       		.uleb128 .LVL11-1-.LVL10
 2374 00b3 01       		.uleb128 0x1
 2375 00b4 50       		.byte	0x50
 2376 00b5 04       		.byte	0x4
 2377 00b6 3F       		.uleb128 .LVL11-1-.LVL10
 2378 00b7 5C       		.uleb128 .LFE12-.LVL10
 2379 00b8 01       		.uleb128 0x1
 2380 00b9 54       		.byte	0x54
 2381 00ba 00       		.byte	0
 2382              	.LVUS6:
 2383 00bb 00       		.uleb128 0
 2384 00bc 00       		.uleb128 .LVU77
 2385 00bd 00       		.uleb128 .LVU77
 2386 00be 00       		.uleb128 0
 2387              	.LLST6:
 2388 00bf 06       		.byte	0x6
 2389 00c0 00000000 		.4byte	.LVL10
 2390 00c4 04       		.byte	0x4
 2391 00c5 00       		.uleb128 .LVL10-.LVL10
 2392 00c6 3F       		.uleb128 .LVL11-1-.LVL10
 2393 00c7 01       		.uleb128 0x1
 2394 00c8 51       		.byte	0x51
ARM GAS  /tmp/ccHInf9i.s 			page 43


 2395 00c9 04       		.byte	0x4
 2396 00ca 3F       		.uleb128 .LVL11-1-.LVL10
 2397 00cb 5C       		.uleb128 .LFE12-.LVL10
 2398 00cc 04       		.uleb128 0x4
 2399 00cd A3       		.byte	0xa3
 2400 00ce 01       		.uleb128 0x1
 2401 00cf 51       		.byte	0x51
 2402 00d0 9F       		.byte	0x9f
 2403 00d1 00       		.byte	0
 2404              	.LVUS7:
 2405 00d2 00       		.uleb128 0
 2406 00d3 00       		.uleb128 .LVU77
 2407 00d4 00       		.uleb128 .LVU77
 2408 00d5 00       		.uleb128 0
 2409              	.LLST7:
 2410 00d6 06       		.byte	0x6
 2411 00d7 00000000 		.4byte	.LVL10
 2412 00db 04       		.byte	0x4
 2413 00dc 00       		.uleb128 .LVL10-.LVL10
 2414 00dd 3F       		.uleb128 .LVL11-1-.LVL10
 2415 00de 01       		.uleb128 0x1
 2416 00df 52       		.byte	0x52
 2417 00e0 04       		.byte	0x4
 2418 00e1 3F       		.uleb128 .LVL11-1-.LVL10
 2419 00e2 5C       		.uleb128 .LFE12-.LVL10
 2420 00e3 04       		.uleb128 0x4
 2421 00e4 A3       		.byte	0xa3
 2422 00e5 01       		.uleb128 0x1
 2423 00e6 52       		.byte	0x52
 2424 00e7 9F       		.byte	0x9f
 2425 00e8 00       		.byte	0
 2426              	.LVUS8:
 2427 00e9 00       		.uleb128 0
 2428 00ea 00       		.uleb128 .LVU77
 2429 00eb 00       		.uleb128 .LVU77
 2430 00ec 00       		.uleb128 0
 2431              	.LLST8:
 2432 00ed 06       		.byte	0x6
 2433 00ee 00000000 		.4byte	.LVL10
 2434 00f2 04       		.byte	0x4
 2435 00f3 00       		.uleb128 .LVL10-.LVL10
 2436 00f4 3F       		.uleb128 .LVL11-1-.LVL10
 2437 00f5 01       		.uleb128 0x1
 2438 00f6 53       		.byte	0x53
 2439 00f7 04       		.byte	0x4
 2440 00f8 3F       		.uleb128 .LVL11-1-.LVL10
 2441 00f9 5C       		.uleb128 .LFE12-.LVL10
 2442 00fa 04       		.uleb128 0x4
 2443 00fb A3       		.byte	0xa3
 2444 00fc 01       		.uleb128 0x1
 2445 00fd 53       		.byte	0x53
 2446 00fe 9F       		.byte	0x9f
 2447 00ff 00       		.byte	0
 2448              	.LVUS9:
 2449 0100 00       		.uleb128 .LVU77
 2450 0101 00       		.uleb128 0
 2451              	.LLST9:
ARM GAS  /tmp/ccHInf9i.s 			page 44


 2452 0102 08       		.byte	0x8
 2453 0103 40000000 		.4byte	.LVL11
 2454 0107 1C       		.uleb128 .LFE12-.LVL11
 2455 0108 01       		.uleb128 0x1
 2456 0109 50       		.byte	0x50
 2457 010a 00       		.byte	0
 2458              	.LVUS4:
 2459 010b 00       		.uleb128 0
 2460 010c 00       		.uleb128 .LVU55
 2461 010d 00       		.uleb128 .LVU55
 2462 010e 00       		.uleb128 0
 2463              	.LLST4:
 2464 010f 06       		.byte	0x6
 2465 0110 00000000 		.4byte	.LVL8
 2466 0114 04       		.byte	0x4
 2467 0115 00       		.uleb128 .LVL8-.LVL8
 2468 0116 04       		.uleb128 .LVL9-.LVL8
 2469 0117 01       		.uleb128 0x1
 2470 0118 50       		.byte	0x50
 2471 0119 04       		.byte	0x4
 2472 011a 04       		.uleb128 .LVL9-.LVL8
 2473 011b 08       		.uleb128 .LFE11-.LVL8
 2474 011c 04       		.uleb128 0x4
 2475 011d A3       		.byte	0xa3
 2476 011e 01       		.uleb128 0x1
 2477 011f 50       		.byte	0x50
 2478 0120 9F       		.byte	0x9f
 2479 0121 00       		.byte	0
 2480              	.LVUS3:
 2481 0122 00       		.uleb128 0
 2482 0123 00       		.uleb128 .LVU44
 2483 0124 00       		.uleb128 .LVU44
 2484 0125 00       		.uleb128 0
 2485              	.LLST3:
 2486 0126 06       		.byte	0x6
 2487 0127 00000000 		.4byte	.LVL6
 2488 012b 04       		.byte	0x4
 2489 012c 00       		.uleb128 .LVL6-.LVL6
 2490 012d 0F       		.uleb128 .LVL7-1-.LVL6
 2491 012e 01       		.uleb128 0x1
 2492 012f 50       		.byte	0x50
 2493 0130 04       		.byte	0x4
 2494 0131 0F       		.uleb128 .LVL7-1-.LVL6
 2495 0132 20       		.uleb128 .LFE10-.LVL6
 2496 0133 01       		.uleb128 0x1
 2497 0134 54       		.byte	0x54
 2498 0135 00       		.byte	0
 2499              	.LVUS1:
 2500 0136 00       		.uleb128 0
 2501 0137 00       		.uleb128 .LVU26
 2502 0138 00       		.uleb128 .LVU26
 2503 0139 00       		.uleb128 0
 2504              	.LLST1:
 2505 013a 06       		.byte	0x6
 2506 013b 00000000 		.4byte	.LVL4
 2507 013f 04       		.byte	0x4
 2508 0140 00       		.uleb128 .LVL4-.LVL4
ARM GAS  /tmp/ccHInf9i.s 			page 45


 2509 0141 13       		.uleb128 .LVL5-1-.LVL4
 2510 0142 01       		.uleb128 0x1
 2511 0143 50       		.byte	0x50
 2512 0144 04       		.byte	0x4
 2513 0145 13       		.uleb128 .LVL5-1-.LVL4
 2514 0146 24       		.uleb128 .LFE9-.LVL4
 2515 0147 01       		.uleb128 0x1
 2516 0148 54       		.byte	0x54
 2517 0149 00       		.byte	0
 2518              	.LVUS2:
 2519 014a 00       		.uleb128 0
 2520 014b 00       		.uleb128 .LVU26
 2521 014c 00       		.uleb128 .LVU26
 2522 014d 00       		.uleb128 0
 2523              	.LLST2:
 2524 014e 06       		.byte	0x6
 2525 014f 00000000 		.4byte	.LVL4
 2526 0153 04       		.byte	0x4
 2527 0154 00       		.uleb128 .LVL4-.LVL4
 2528 0155 13       		.uleb128 .LVL5-1-.LVL4
 2529 0156 01       		.uleb128 0x1
 2530 0157 51       		.byte	0x51
 2531 0158 04       		.byte	0x4
 2532 0159 13       		.uleb128 .LVL5-1-.LVL4
 2533 015a 24       		.uleb128 .LFE9-.LVL4
 2534 015b 04       		.uleb128 0x4
 2535 015c A3       		.byte	0xa3
 2536 015d 01       		.uleb128 0x1
 2537 015e 51       		.byte	0x51
 2538 015f 9F       		.byte	0x9f
 2539 0160 00       		.byte	0
 2540              	.LVUS0:
 2541 0161 00       		.uleb128 0
 2542 0162 00       		.uleb128 .LVU10
 2543 0163 00       		.uleb128 .LVU10
 2544 0164 00       		.uleb128 .LVU11
 2545 0165 00       		.uleb128 .LVU11
 2546 0166 00       		.uleb128 0
 2547              	.LLST0:
 2548 0167 06       		.byte	0x6
 2549 0168 00000000 		.4byte	.LVL1
 2550 016c 04       		.byte	0x4
 2551 016d 00       		.uleb128 .LVL1-.LVL1
 2552 016e 14       		.uleb128 .LVL2-.LVL1
 2553 016f 01       		.uleb128 0x1
 2554 0170 50       		.byte	0x50
 2555 0171 04       		.byte	0x4
 2556 0172 14       		.uleb128 .LVL2-.LVL1
 2557 0173 17       		.uleb128 .LVL3-1-.LVL1
 2558 0174 03       		.uleb128 0x3
 2559 0175 70       		.byte	0x70
 2560 0176 70       		.sleb128 -16
 2561 0177 9F       		.byte	0x9f
 2562 0178 04       		.byte	0x4
 2563 0179 17       		.uleb128 .LVL3-1-.LVL1
 2564 017a 18       		.uleb128 .LFE8-.LVL1
 2565 017b 04       		.uleb128 0x4
ARM GAS  /tmp/ccHInf9i.s 			page 46


 2566 017c A3       		.byte	0xa3
 2567 017d 01       		.uleb128 0x1
 2568 017e 50       		.byte	0x50
 2569 017f 9F       		.byte	0x9f
 2570 0180 00       		.byte	0
 2571              	.Ldebug_loc3:
 2572              		.section	.debug_aranges,"",%progbits
 2573 0000 5C000000 		.4byte	0x5c
 2574 0004 0200     		.2byte	0x2
 2575 0006 00000000 		.4byte	.Ldebug_info0
 2576 000a 04       		.byte	0x4
 2577 000b 00       		.byte	0
 2578 000c 0000     		.2byte	0
 2579 000e 0000     		.2byte	0
 2580 0010 00000000 		.4byte	.LFB7
 2581 0014 04000000 		.4byte	.LFE7-.LFB7
 2582 0018 00000000 		.4byte	.LFB8
 2583 001c 18000000 		.4byte	.LFE8-.LFB8
 2584 0020 00000000 		.4byte	.LFB9
 2585 0024 24000000 		.4byte	.LFE9-.LFB9
 2586 0028 00000000 		.4byte	.LFB10
 2587 002c 20000000 		.4byte	.LFE10-.LFB10
 2588 0030 00000000 		.4byte	.LFB11
 2589 0034 08000000 		.4byte	.LFE11-.LFB11
 2590 0038 00000000 		.4byte	.LFB12
 2591 003c 5C000000 		.4byte	.LFE12-.LFB12
 2592 0040 00000000 		.4byte	.LFB13
 2593 0044 48000000 		.4byte	.LFE13-.LFB13
 2594 0048 00000000 		.4byte	.LFB14
 2595 004c 08000000 		.4byte	.LFE14-.LFB14
 2596 0050 00000000 		.4byte	.LFB15
 2597 0054 04000000 		.4byte	.LFE15-.LFB15
 2598 0058 00000000 		.4byte	0
 2599 005c 00000000 		.4byte	0
 2600              		.section	.debug_rnglists,"",%progbits
 2601              	.Ldebug_ranges0:
 2602 0000 3F000000 		.4byte	.Ldebug_ranges3-.Ldebug_ranges2
 2603              	.Ldebug_ranges2:
 2604 0004 0500     		.2byte	0x5
 2605 0006 04       		.byte	0x4
 2606 0007 00       		.byte	0
 2607 0008 00000000 		.4byte	0
 2608              	.LLRL17:
 2609 000c 07       		.byte	0x7
 2610 000d 00000000 		.4byte	.LFB7
 2611 0011 04       		.uleb128 .LFE7-.LFB7
 2612 0012 07       		.byte	0x7
 2613 0013 00000000 		.4byte	.LFB8
 2614 0017 18       		.uleb128 .LFE8-.LFB8
 2615 0018 07       		.byte	0x7
 2616 0019 00000000 		.4byte	.LFB9
 2617 001d 24       		.uleb128 .LFE9-.LFB9
 2618 001e 07       		.byte	0x7
 2619 001f 00000000 		.4byte	.LFB10
 2620 0023 20       		.uleb128 .LFE10-.LFB10
 2621 0024 07       		.byte	0x7
 2622 0025 00000000 		.4byte	.LFB11
ARM GAS  /tmp/ccHInf9i.s 			page 47


 2623 0029 08       		.uleb128 .LFE11-.LFB11
 2624 002a 07       		.byte	0x7
 2625 002b 00000000 		.4byte	.LFB12
 2626 002f 5C       		.uleb128 .LFE12-.LFB12
 2627 0030 07       		.byte	0x7
 2628 0031 00000000 		.4byte	.LFB13
 2629 0035 48       		.uleb128 .LFE13-.LFB13
 2630 0036 07       		.byte	0x7
 2631 0037 00000000 		.4byte	.LFB14
 2632 003b 08       		.uleb128 .LFE14-.LFB14
 2633 003c 07       		.byte	0x7
 2634 003d 00000000 		.4byte	.LFB15
 2635 0041 04       		.uleb128 .LFE15-.LFB15
 2636 0042 00       		.byte	0
 2637              	.Ldebug_ranges3:
 2638              		.section	.debug_line,"",%progbits
 2639              	.Ldebug_line0:
 2640 0000 81030000 		.section	.debug_str,"MS",%progbits,1
 2640      03008C01 
 2640      00000201 
 2640      FB0E0D00 
 2640      01010101 
 2641              	.LASF41:
 2642 0000 705F6D73 		.ascii	"p_msg\000"
 2642      6700
 2643              	.LASF2:
 2644 0006 73697A65 		.ascii	"size_t\000"
 2644      5F7400
 2645              	.LASF54:
 2646 000d 7264796D 		.ascii	"rdymsg\000"
 2646      736700
 2647              	.LASF3:
 2648 0014 5F5F7569 		.ascii	"__uint8_t\000"
 2648      6E74385F 
 2648      7400
 2649              	.LASF59:
 2650 001e 62736364 		.ascii	"bscdevice_t\000"
 2650      65766963 
 2650      655F7400 
 2651              	.LASF86:
 2652 002a 72786275 		.ascii	"rxbuf\000"
 2652      6600
 2653              	.LASF13:
 2654 0030 6C6F6E67 		.ascii	"long long unsigned int\000"
 2654      206C6F6E 
 2654      6720756E 
 2654      7369676E 
 2654      65642069 
 2655              	.LASF82:
 2656 0047 61646472 		.ascii	"addr\000"
 2656      00
 2657              	.LASF107:
 2658 004c 69326353 		.ascii	"i2cStart\000"
 2658      74617274 
 2658      00
 2659              	.LASF55:
 2660 0055 65786974 		.ascii	"exitcode\000"
ARM GAS  /tmp/ccHInf9i.s 			page 48


 2660      636F6465 
 2660      00
 2661              	.LASF99:
 2662 005e 69326352 		.ascii	"i2cReleaseBus\000"
 2662      656C6561 
 2662      73654275 
 2662      7300
 2663              	.LASF112:
 2664 006c 63684D74 		.ascii	"chMtxUnlock\000"
 2664      78556E6C 
 2664      6F636B00 
 2665              	.LASF64:
 2666 0078 64617461 		.ascii	"dataFifo\000"
 2666      4669666F 
 2666      00
 2667              	.LASF29:
 2668 0081 705F7072 		.ascii	"p_prio\000"
 2668      696F00
 2669              	.LASF103:
 2670 0088 6932634D 		.ascii	"i2cMasterTransmitTimeout\000"
 2670      61737465 
 2670      72547261 
 2670      6E736D69 
 2670      7454696D 
 2671              	.LASF79:
 2672 00a1 64657669 		.ascii	"device\000"
 2672      636500
 2673              	.LASF12:
 2674 00a8 6C6F6E67 		.ascii	"long long int\000"
 2674      206C6F6E 
 2674      6720696E 
 2674      7400
 2675              	.LASF1:
 2676 00b6 7369676E 		.ascii	"signed char\000"
 2676      65642063 
 2676      68617200 
 2677              	.LASF110:
 2678 00c2 2E2E2F2E 		.ascii	"../../os/hal/src/i2c.c\000"
 2678      2E2F6F73 
 2678      2F68616C 
 2678      2F737263 
 2678      2F693263 
 2679              	.LASF51:
 2680 00d9 6D5F7175 		.ascii	"m_queue\000"
 2680      65756500 
 2681              	.LASF93:
 2682 00e1 6932635F 		.ascii	"i2c_lld_master_receive_timeout\000"
 2682      6C6C645F 
 2682      6D617374 
 2682      65725F72 
 2682      65636569 
 2683              	.LASF94:
 2684 0100 6932635F 		.ascii	"i2c_lld_master_transmit_timeout\000"
 2684      6C6C645F 
 2684      6D617374 
 2684      65725F74 
 2684      72616E73 
ARM GAS  /tmp/ccHInf9i.s 			page 49


 2685              	.LASF21:
 2686 0120 74736C69 		.ascii	"tslices_t\000"
 2686      6365735F 
 2686      7400
 2687              	.LASF68:
 2688 012a 4932435F 		.ascii	"I2C_UNINIT\000"
 2688      554E494E 
 2688      495400
 2689              	.LASF90:
 2690 0135 69326361 		.ascii	"i2caddr_t\000"
 2690      6464725F 
 2690      7400
 2691              	.LASF76:
 2692 013f 73746174 		.ascii	"state\000"
 2692      6500
 2693              	.LASF9:
 2694 0145 6C6F6E67 		.ascii	"long int\000"
 2694      20696E74 
 2694      00
 2695              	.LASF19:
 2696 014e 74737461 		.ascii	"tstate_t\000"
 2696      74655F74 
 2696      00
 2697              	.LASF81:
 2698 0157 74687265 		.ascii	"thread\000"
 2698      616400
 2699              	.LASF66:
 2700 015e 64617461 		.ascii	"dataDelay\000"
 2700      44656C61 
 2700      7900
 2701              	.LASF15:
 2702 0168 75696E74 		.ascii	"uint16_t\000"
 2702      31365F74 
 2702      00
 2703              	.LASF31:
 2704 0171 705F6E65 		.ascii	"p_newer\000"
 2704      77657200 
 2705              	.LASF60:
 2706 0179 636F6E74 		.ascii	"control\000"
 2706      726F6C00 
 2707              	.LASF10:
 2708 0181 5F5F7569 		.ascii	"__uint32_t\000"
 2708      6E743332 
 2708      5F7400
 2709              	.LASF47:
 2710 018c 72656761 		.ascii	"regarm_t\000"
 2710      726D5F74 
 2710      00
 2711              	.LASF63:
 2712 0195 736C6176 		.ascii	"slaveAddress\000"
 2712      65416464 
 2712      72657373 
 2712      00
 2713              	.LASF0:
 2714 01a2 756E7369 		.ascii	"unsigned int\000"
 2714      676E6564 
 2714      20696E74 
ARM GAS  /tmp/ccHInf9i.s 			page 50


 2714      00
 2715              	.LASF83:
 2716 01af 74786275 		.ascii	"txbuf\000"
 2716      6600
 2717              	.LASF78:
 2718 01b5 6572726F 		.ascii	"errors\000"
 2718      727300
 2719              	.LASF11:
 2720 01bc 6C6F6E67 		.ascii	"long unsigned int\000"
 2720      20756E73 
 2720      69676E65 
 2720      6420696E 
 2720      7400
 2721              	.LASF104:
 2722 01ce 74696D65 		.ascii	"timeout\000"
 2722      6F757400 
 2723              	.LASF49:
 2724 01d6 636F6E74 		.ascii	"context\000"
 2724      65787400 
 2725              	.LASF7:
 2726 01de 73686F72 		.ascii	"short unsigned int\000"
 2726      7420756E 
 2726      7369676E 
 2726      65642069 
 2726      6E7400
 2727              	.LASF75:
 2728 01f1 49324344 		.ascii	"I2CDriver\000"
 2728      72697665 
 2728      7200
 2729              	.LASF23:
 2730 01fb 6D73675F 		.ascii	"msg_t\000"
 2730      7400
 2731              	.LASF88:
 2732 0201 72786964 		.ascii	"rxidx\000"
 2732      7800
 2733              	.LASF18:
 2734 0207 746D6F64 		.ascii	"tmode_t\000"
 2734      655F7400 
 2735              	.LASF46:
 2736 020f 54687265 		.ascii	"ThreadsList\000"
 2736      6164734C 
 2736      69737400 
 2737              	.LASF24:
 2738 021b 6576656E 		.ascii	"eventmask_t\000"
 2738      746D6173 
 2738      6B5F7400 
 2739              	.LASF50:
 2740 0227 4D757465 		.ascii	"Mutex\000"
 2740      7800
 2741              	.LASF96:
 2742 022d 6932635F 		.ascii	"i2c_lld_stop\000"
 2742      6C6C645F 
 2742      73746F70 
 2742      00
 2743              	.LASF69:
 2744 023a 4932435F 		.ascii	"I2C_STOP\000"
 2744      53544F50 
ARM GAS  /tmp/ccHInf9i.s 			page 51


 2744      00
 2745              	.LASF109:
 2746 0243 474E5520 		.ascii	"GNU C17 11.2.0 -mcpu=arm1176jz-s -mno-thumb-interwo"
 2746      43313720 
 2746      31312E32 
 2746      2E30202D 
 2746      6D637075 
 2747 0276 726B202D 		.ascii	"rk -mfloat-abi=soft -marm -march=armv6kz -ggdb -O2 "
 2747      6D666C6F 
 2747      61742D61 
 2747      62693D73 
 2747      6F667420 
 2748 02a9 2D666F6D 		.ascii	"-fomit-frame-pointer -ffunction-sections -fdata-sec"
 2748      69742D66 
 2748      72616D65 
 2748      2D706F69 
 2748      6E746572 
 2749 02dc 74696F6E 		.ascii	"tions\000"
 2749      7300
 2750              	.LASF65:
 2751 02e2 636C6F63 		.ascii	"clockDivider\000"
 2751      6B446976 
 2751      69646572 
 2751      00
 2752              	.LASF95:
 2753 02ef 63684D74 		.ascii	"chMtxLock\000"
 2753      784C6F63 
 2753      6B00
 2754              	.LASF91:
 2755 02f9 69635F73 		.ascii	"ic_speed\000"
 2755      70656564 
 2755      00
 2756              	.LASF111:
 2757 0302 2F686F6D 		.ascii	"/home/sergi/uni/seu/ChibiOS-RPi/demos/led\000"
 2757      652F7365 
 2757      7267692F 
 2757      756E692F 
 2757      7365752F 
 2758              	.LASF32:
 2759 032c 705F6F6C 		.ascii	"p_older\000"
 2759      64657200 
 2760              	.LASF87:
 2761 0334 72786279 		.ascii	"rxbytes\000"
 2761      74657300 
 2762              	.LASF92:
 2763 033c 49324343 		.ascii	"I2CConfig\000"
 2763      6F6E6669 
 2763      6700
 2764              	.LASF45:
 2765 0346 54687265 		.ascii	"ThreadsQueue\000"
 2765      61647351 
 2765      75657565 
 2765      00
 2766              	.LASF84:
 2767 0353 74786279 		.ascii	"txbytes\000"
 2767      74657300 
 2768              	.LASF106:
ARM GAS  /tmp/ccHInf9i.s 			page 52


 2769 035b 69326353 		.ascii	"i2cStop\000"
 2769      746F7000 
 2770              	.LASF101:
 2771 0363 69326370 		.ascii	"i2cp\000"
 2771      00
 2772              	.LASF20:
 2773 0368 74726566 		.ascii	"trefs_t\000"
 2773      735F7400 
 2774              	.LASF74:
 2775 0370 69326373 		.ascii	"i2cstate_t\000"
 2775      74617465 
 2775      5F7400
 2776              	.LASF28:
 2777 037b 705F7072 		.ascii	"p_prev\000"
 2777      657600
 2778              	.LASF100:
 2779 0382 69326341 		.ascii	"i2cAcquireBus\000"
 2779      63717569 
 2779      72654275 
 2779      7300
 2780              	.LASF22:
 2781 0390 74707269 		.ascii	"tprio_t\000"
 2781      6F5F7400 
 2782              	.LASF71:
 2783 0398 4932435F 		.ascii	"I2C_ACTIVE_TX\000"
 2783      41435449 
 2783      56455F54 
 2783      5800
 2784              	.LASF89:
 2785 03a6 69326366 		.ascii	"i2cflags_t\000"
 2785      6C616773 
 2785      5F7400
 2786              	.LASF80:
 2787 03b1 6D757465 		.ascii	"mutex\000"
 2787      7800
 2788              	.LASF97:
 2789 03b7 6932635F 		.ascii	"i2c_lld_start\000"
 2789      6C6C645F 
 2789      73746172 
 2789      7400
 2790              	.LASF16:
 2791 03c5 696E7433 		.ascii	"int32_t\000"
 2791      325F7400 
 2792              	.LASF4:
 2793 03cd 756E7369 		.ascii	"unsigned char\000"
 2793      676E6564 
 2793      20636861 
 2793      7200
 2794              	.LASF43:
 2795 03db 705F6D74 		.ascii	"p_mtxlist\000"
 2795      786C6973 
 2795      7400
 2796              	.LASF5:
 2797 03e5 73686F72 		.ascii	"short int\000"
 2797      7420696E 
 2797      7400
 2798              	.LASF34:
ARM GAS  /tmp/ccHInf9i.s 			page 53


 2799 03ef 705F7374 		.ascii	"p_state\000"
 2799      61746500 
 2800              	.LASF37:
 2801 03f7 705F7072 		.ascii	"p_preempt\000"
 2801      65656D70 
 2801      7400
 2802              	.LASF105:
 2803 0401 69326347 		.ascii	"i2cGetErrors\000"
 2803      65744572 
 2803      726F7273 
 2803      00
 2804              	.LASF57:
 2805 040e 65776D61 		.ascii	"ewmask\000"
 2805      736B00
 2806              	.LASF27:
 2807 0415 705F6E65 		.ascii	"p_next\000"
 2807      787400
 2808              	.LASF35:
 2809 041c 705F666C 		.ascii	"p_flags\000"
 2809      61677300 
 2810              	.LASF26:
 2811 0424 54687265 		.ascii	"Thread\000"
 2811      616400
 2812              	.LASF73:
 2813 042b 4932435F 		.ascii	"I2C_LOCKED\000"
 2813      4C4F434B 
 2813      454400
 2814              	.LASF42:
 2815 0436 705F6570 		.ascii	"p_epending\000"
 2815      656E6469 
 2815      6E6700
 2816              	.LASF17:
 2817 0441 75696E74 		.ascii	"uint32_t\000"
 2817      33325F74 
 2817      00
 2818              	.LASF72:
 2819 044a 4932435F 		.ascii	"I2C_ACTIVE_RX\000"
 2819      41435449 
 2819      56455F52 
 2819      5800
 2820              	.LASF58:
 2821 0458 63686172 		.ascii	"char\000"
 2821      00
 2822              	.LASF77:
 2823 045d 636F6E66 		.ascii	"config\000"
 2823      696700
 2824              	.LASF6:
 2825 0464 5F5F7569 		.ascii	"__uint16_t\000"
 2825      6E743136 
 2825      5F7400
 2826              	.LASF53:
 2827 046f 6D5F6E65 		.ascii	"m_next\000"
 2827      787400
 2828              	.LASF25:
 2829 0476 73797374 		.ascii	"systime_t\000"
 2829      696D655F 
 2829      7400
ARM GAS  /tmp/ccHInf9i.s 			page 54


 2830              	.LASF44:
 2831 0480 705F7265 		.ascii	"p_realprio\000"
 2831      616C7072 
 2831      696F00
 2832              	.LASF8:
 2833 048b 5F5F696E 		.ascii	"__int32_t\000"
 2833      7433325F 
 2833      7400
 2834              	.LASF70:
 2835 0495 4932435F 		.ascii	"I2C_READY\000"
 2835      52454144 
 2835      5900
 2836              	.LASF38:
 2837 049f 705F7469 		.ascii	"p_time\000"
 2837      6D6500
 2838              	.LASF48:
 2839 04a6 696E7463 		.ascii	"intctx\000"
 2839      747800
 2840              	.LASF40:
 2841 04ad 705F6D73 		.ascii	"p_msgqueue\000"
 2841      67717565 
 2841      756500
 2842              	.LASF98:
 2843 04b8 63684D74 		.ascii	"chMtxInit\000"
 2843      78496E69 
 2843      7400
 2844              	.LASF85:
 2845 04c2 74786964 		.ascii	"txidx\000"
 2845      7800
 2846              	.LASF113:
 2847 04c8 6932635F 		.ascii	"i2c_lld_init\000"
 2847      6C6C645F 
 2847      696E6974 
 2847      00
 2848              	.LASF36:
 2849 04d5 705F7265 		.ascii	"p_refs\000"
 2849      667300
 2850              	.LASF61:
 2851 04dc 73746174 		.ascii	"status\000"
 2851      757300
 2852              	.LASF14:
 2853 04e3 75696E74 		.ascii	"uint8_t\000"
 2853      385F7400 
 2854              	.LASF102:
 2855 04eb 6932634D 		.ascii	"i2cMasterReceiveTimeout\000"
 2855      61737465 
 2855      72526563 
 2855      65697665 
 2855      54696D65 
 2856              	.LASF56:
 2857 0503 77746F62 		.ascii	"wtobjp\000"
 2857      6A7000
 2858              	.LASF33:
 2859 050a 705F6E61 		.ascii	"p_name\000"
 2859      6D6500
 2860              	.LASF114:
 2861 0511 69326349 		.ascii	"i2cInit\000"
ARM GAS  /tmp/ccHInf9i.s 			page 55


 2861      6E697400 
 2862              	.LASF62:
 2863 0519 64617461 		.ascii	"dataLength\000"
 2863      4C656E67 
 2863      746800
 2864              	.LASF108:
 2865 0524 6932634F 		.ascii	"i2cObjectInit\000"
 2865      626A6563 
 2865      74496E69 
 2865      7400
 2866              	.LASF52:
 2867 0532 6D5F6F77 		.ascii	"m_owner\000"
 2867      6E657200 
 2868              	.LASF30:
 2869 053a 705F6374 		.ascii	"p_ctx\000"
 2869      7800
 2870              	.LASF39:
 2871 0540 705F7761 		.ascii	"p_waiting\000"
 2871      6974696E 
 2871      6700
 2872              	.LASF67:
 2873 054a 636C6F63 		.ascii	"clockStretchTimeout\000"
 2873      6B537472 
 2873      65746368 
 2873      54696D65 
 2873      6F757400 
 2874              		.ident	"GCC: (Arch Repository) 11.2.0"
ARM GAS  /tmp/ccHInf9i.s 			page 56


DEFINED SYMBOLS
                            *ABS*:0000000000000000 i2c.c
     /tmp/ccHInf9i.s:16     .text.i2cInit:0000000000000000 $a
     /tmp/ccHInf9i.s:23     .text.i2cInit:0000000000000000 i2cInit
     /tmp/ccHInf9i.s:38     .text.i2cObjectInit:0000000000000000 $a
     /tmp/ccHInf9i.s:44     .text.i2cObjectInit:0000000000000000 i2cObjectInit
     /tmp/ccHInf9i.s:73     .text.i2cStart:0000000000000000 $a
     /tmp/ccHInf9i.s:79     .text.i2cStart:0000000000000000 i2cStart
     /tmp/ccHInf9i.s:132    .text.i2cStop:0000000000000000 $a
     /tmp/ccHInf9i.s:138    .text.i2cStop:0000000000000000 i2cStop
     /tmp/ccHInf9i.s:188    .text.i2cGetErrors:0000000000000000 $a
     /tmp/ccHInf9i.s:194    .text.i2cGetErrors:0000000000000000 i2cGetErrors
     /tmp/ccHInf9i.s:214    .text.i2cMasterTransmitTimeout:0000000000000000 $a
     /tmp/ccHInf9i.s:220    .text.i2cMasterTransmitTimeout:0000000000000000 i2cMasterTransmitTimeout
     /tmp/ccHInf9i.s:299    .text.i2cMasterReceiveTimeout:0000000000000000 $a
     /tmp/ccHInf9i.s:305    .text.i2cMasterReceiveTimeout:0000000000000000 i2cMasterReceiveTimeout
     /tmp/ccHInf9i.s:377    .text.i2cAcquireBus:0000000000000000 $a
     /tmp/ccHInf9i.s:383    .text.i2cAcquireBus:0000000000000000 i2cAcquireBus
     /tmp/ccHInf9i.s:404    .text.i2cReleaseBus:0000000000000000 $a
     /tmp/ccHInf9i.s:410    .text.i2cReleaseBus:0000000000000000 i2cReleaseBus

UNDEFINED SYMBOLS
i2c_lld_init
chMtxInit
i2c_lld_start
i2c_lld_stop
i2c_lld_master_transmit_timeout
i2c_lld_master_receive_timeout
chMtxLock
chMtxUnlock
