ARM GAS  /tmp/ccubyez9.s 			page 1


   1              		.cpu arm1176jz-s
   2              		.eabi_attribute 20, 1
   3              		.eabi_attribute 21, 1
   4              		.eabi_attribute 23, 3
   5              		.eabi_attribute 24, 1
   6              		.eabi_attribute 25, 1
   7              		.eabi_attribute 26, 1
   8              		.eabi_attribute 30, 2
   9              		.eabi_attribute 34, 1
  10              		.eabi_attribute 18, 4
  11              		.file	"main.c"
  12              		.text
  13              	.Ltext0:
  14              		.cfi_sections	.debug_frame
  15              		.section	.rodata.Thread_LED1.str1.4,"aMS",%progbits,1
  16              		.align	2
  17              	.LC0:
  18 0000 626C696E 		.ascii	"blinker-1\000"
  18      6B65722D 
  18      3100
  19 000a 0000     		.align	2
  20              	.LC1:
  21 000c 44616D6E 		.ascii	"Damn, it works\000"
  21      2C206974 
  21      20776F72 
  21      6B7300
  22              		.section	.text.Thread_LED1,"ax",%progbits
  23              		.align	2
  24              		.arch armv6kz
  25              		.syntax unified
  26              		.arm
  27              		.fpu softvfp
  28              		.type	Thread_LED1, %function
  29              	Thread_LED1:
  30              	.LVL0:
  31              	.LFB7:
  32              		.file 1 "main.c"
  33              		.loc 1 27 35 view -0
  34              		.cfi_startproc
  35              		@ Volatile: function does not return.
  36              		@ args = 0, pretend = 0, frame = 0
  37              		@ frame_needed = 0, uses_anonymous_args = 0
  38              		.loc 1 28 3 view .LVU1
  39              		.loc 1 29 3 view .LVU2
  40 0000 58309FE5 		ldr	r3, .L5
  41 0004 58209FE5 		ldr	r2, .L5+4
  42 0008 183093E5 		ldr	r3, [r3, #24]
  43              		.loc 1 27 35 is_stmt 0 view .LVU3
  44 000c 10402DE9 		push	{r4, lr}
  45              		.cfi_def_cfa_offset 8
  46              		.cfi_offset 4, -8
  47              		.cfi_offset 14, -4
  48              		.loc 1 36 5 view .LVU4
  49 0010 50609FE5 		ldr	r6, .L5+8
  50 0014 50409FE5 		ldr	r4, .L5+12
  51 0018 50509FE5 		ldr	r5, .L5+16
  52              		.loc 1 29 3 view .LVU5
ARM GAS  /tmp/ccubyez9.s 			page 2


  53 001c 182083E5 		str	r2, [r3, #24]
  54              	.LVL1:
  55              	.L2:
  56              		.loc 1 30 3 is_stmt 1 discriminator 1 view .LVU6
  57              		.loc 1 31 5 discriminator 1 view .LVU7
  58 0020 001094E5 		ldr	r1, [r4]
  59 0024 0400A0E1 		mov	r0, r4
  60 0028 0214C1E3 		bic	r1, r1, #33554432
  61 002c FEFFFFEB 		bl	_pal_lld_writeport
  62              	.LVL2:
  63              		.loc 1 32 5 discriminator 1 view .LVU8
  64 0030 6400A0E3 		mov	r0, #100
  65 0034 FEFFFFEB 		bl	chThdSleep
  66              	.LVL3:
  67              		.loc 1 33 5 discriminator 1 view .LVU9
  68 0038 001094E5 		ldr	r1, [r4]
  69 003c 0400A0E1 		mov	r0, r4
  70 0040 021481E3 		orr	r1, r1, #33554432
  71 0044 FEFFFFEB 		bl	_pal_lld_writeport
  72              	.LVL4:
  73              		.loc 1 34 5 discriminator 1 view .LVU10
  74 0048 E10FA0E3 		mov	r0, #900
  75 004c FEFFFFEB 		bl	chThdSleep
  76              	.LVL5:
  77              		.loc 1 36 5 discriminator 1 view .LVU11
  78 0050 0610A0E1 		mov	r1, r6
  79 0054 0500A0E1 		mov	r0, r5
  80 0058 FEFFFFEB 		bl	chprintf
  81              	.LVL6:
  82              		.loc 1 30 9 discriminator 1 view .LVU12
  83 005c EFFFFFEA 		b	.L2
  84              	.L6:
  85              		.align	2
  86              	.L5:
  87 0060 00000000 		.word	rlist
  88 0064 00000000 		.word	.LC0
  89 0068 0C000000 		.word	.LC1
  90 006c 00000000 		.word	IOPORT0
  91 0070 00000000 		.word	SD1
  92              		.cfi_endproc
  93              	.LFE7:
  94              		.size	Thread_LED1, .-Thread_LED1
  95              		.section	.text.startup.main,"ax",%progbits
  96              		.align	2
  97              		.global	main
  98              		.syntax unified
  99              		.arm
 100              		.fpu softvfp
 101              		.type	main, %function
 102              	main:
 103              	.LFB8:
 104              		.loc 1 44 16 view -0
 105              		.cfi_startproc
 106              		@ args = 0, pretend = 0, frame = 0
 107              		@ frame_needed = 0, uses_anonymous_args = 0
 108              		.loc 1 45 3 view .LVU14
 109              		.loc 1 44 16 is_stmt 0 view .LVU15
ARM GAS  /tmp/ccubyez9.s 			page 3


 110 0000 10402DE9 		push	{r4, lr}
 111              		.cfi_def_cfa_offset 8
 112              		.cfi_offset 4, -8
 113              		.cfi_offset 14, -4
 114              		.loc 1 52 3 view .LVU16
 115 0004 0040A0E3 		mov	r4, #0
 116              		.loc 1 44 16 view .LVU17
 117 0008 08D04DE2 		sub	sp, sp, #8
 118              		.cfi_def_cfa_offset 16
 119              		.loc 1 45 3 view .LVU18
 120 000c FEFFFFEB 		bl	halInit
 121              	.LVL7:
 122              		.loc 1 46 3 is_stmt 1 view .LVU19
 123 0010 FEFFFFEB 		bl	chSysInit
 124              	.LVL8:
 125              		.loc 1 48 3 view .LVU20
 126 0014 FF20A0E3 		mov	r2, #255
 127 0018 0214A0E3 		mov	r1, #33554432
 128 001c 3C009FE5 		ldr	r0, .L9
 129 0020 FEFFFFEB 		bl	_pal_lld_setgroupmode
 130              	.LVL9:
 131              		.loc 1 50 3 view .LVU21
 132 0024 0410A0E1 		mov	r1, r4
 133 0028 34009FE5 		ldr	r0, .L9+4
 134 002c FEFFFFEB 		bl	sdStart
 135              	.LVL10:
 136              		.loc 1 52 3 view .LVU22
 137 0030 7F20A0E3 		mov	r2, #127
 138 0034 461FA0E3 		mov	r1, #280
 139 0038 28309FE5 		ldr	r3, .L9+8
 140 003c 00408DE5 		str	r4, [sp]
 141 0040 24009FE5 		ldr	r0, .L9+12
 142 0044 FEFFFFEB 		bl	chThdCreateStatic
 143              	.LVL11:
 144              		.loc 1 55 3 view .LVU23
 145 0048 20309FE5 		ldr	r3, .L9+16
 146 004c 180093E5 		ldr	r0, [r3, #24]
 147 0050 FEFFFFEB 		bl	chThdWait
 148              	.LVL12:
 149              		.loc 1 57 3 view .LVU24
 150              		.loc 1 58 1 is_stmt 0 view .LVU25
 151 0054 0400A0E1 		mov	r0, r4
 152 0058 08D08DE2 		add	sp, sp, #8
 153              		.cfi_def_cfa_offset 8
 154              		@ sp needed
 155 005c 1080BDE8 		pop	{r4, pc}
 156              	.L10:
 157              		.align	2
 158              	.L9:
 159 0060 00000000 		.word	IOPORT0
 160 0064 00000000 		.word	SD1
 161 0068 00000000 		.word	Thread_LED1
 162 006c 00000000 		.word	.LANCHOR0
 163 0070 00000000 		.word	rlist
 164              		.cfi_endproc
 165              	.LFE8:
 166              		.size	main, .-main
ARM GAS  /tmp/ccubyez9.s 			page 4


 167              		.section	.bss.waThread_LED1,"aw",%nobits
 168              		.align	2
 169              		.set	.LANCHOR0,. + 0
 170              		.type	waThread_LED1, %object
 171              		.size	waThread_LED1, 280
 172              	waThread_LED1:
 173 0000 00000000 		.space	280
 173      00000000 
 173      00000000 
 173      00000000 
 173      00000000 
 174              		.text
 175              	.Letext0:
 176              		.file 2 "/usr/lib/gcc/arm-none-eabi/11.2.0/include/stddef.h"
 177              		.file 3 "/usr/arm-none-eabi/include/machine/_default_types.h"
 178              		.file 4 "/usr/arm-none-eabi/include/sys/_stdint.h"
 179              		.file 5 "../../os/ports/GCC/ARM/chtypes.h"
 180              		.file 6 "../../os/kernel/include/chlists.h"
 181              		.file 7 "../../os/kernel/include/chthreads.h"
 182              		.file 8 "../../os/ports/GCC/ARM/chcore.h"
 183              		.file 9 "../../os/kernel/include/chschd.h"
 184              		.file 10 "../../os/kernel/include/chmtx.h"
 185              		.file 11 "../../os/kernel/include/chevents.h"
 186              		.file 12 "../../os/kernel/include/chqueues.h"
 187              		.file 13 "../../os/kernel/include/chstreams.h"
 188              		.file 14 "../../os/hal/platforms/BCM2835/pal_lld.h"
 189              		.file 15 "../../os/hal/include/serial.h"
 190              		.file 16 "../../os/hal/platforms/BCM2835/serial_lld.h"
 191              		.file 17 "../../os/various/chprintf.h"
 192              		.file 18 "../../os/kernel/include/chsys.h"
 193              		.file 19 "../../os/hal/include/hal.h"