ARM GAS  /tmp/ccG0jSvZ.s 			page 1


   1              		.cpu arm1176jz-s
   2              		.eabi_attribute 20, 1
   3              		.eabi_attribute 21, 1
   4              		.eabi_attribute 23, 3
   5              		.eabi_attribute 24, 1
   6              		.eabi_attribute 25, 1
   7              		.eabi_attribute 26, 1
   8              		.eabi_attribute 30, 2
   9              		.eabi_attribute 34, 1
  10              		.eabi_attribute 18, 4
  11              		.file	"pal.c"
  12              		.text
  13              	.Ltext0:
  14              		.cfi_sections	.debug_frame
  15              		.section	.text.palReadBus,"ax",%progbits
  16              		.align	2
  17              		.global	palReadBus
  18              		.arch armv6kz
  19              		.syntax unified
  20              		.arm
  21              		.fpu softvfp
  22              		.type	palReadBus, %function
  23              	palReadBus:
  24              	.LVL0:
  25              	.LFB7:
  26              		.file 1 "../../os/hal/src/pal.c"
  27              		.loc 1 69 37 view -0
  28              		.cfi_startproc
  29              		@ args = 0, pretend = 0, frame = 0
  30              		@ frame_needed = 0, uses_anonymous_args = 0
  31              		@ link register save eliminated.
  32              		.loc 1 71 3 view .LVU1
  33              		.loc 1 72 62 view .LVU2
  34              		.loc 1 74 3 view .LVU3
  35              		.loc 1 74 10 is_stmt 0 view .LVU4
  36 0000 003090E5 		ldr	r3, [r0]
  37 0004 082090E5 		ldr	r2, [r0, #8]
  38 0008 0C1093E5 		ldr	r1, [r3, #12]
  39 000c 043090E5 		ldr	r3, [r0, #4]
  40 0010 000091E5 		ldr	r0, [r1]
  41              	.LVL1:
  42              		.loc 1 75 1 view .LVU5
  43 0014 300203E0 		and	r0, r3, r0, lsr r2
  44 0018 1EFF2FE1 		bx	lr
  45              		.cfi_endproc
  46              	.LFE7:
  47              		.size	palReadBus, .-palReadBus
  48              		.section	.text.palWriteBus,"ax",%progbits
  49              		.align	2
  50              		.global	palWriteBus
  51              		.syntax unified
  52              		.arm
  53              		.fpu softvfp
  54              		.type	palWriteBus, %function
  55              	palWriteBus:
  56              	.LVL2:
  57              	.LFB8:
ARM GAS  /tmp/ccG0jSvZ.s 			page 2


  58              		.loc 1 94 49 is_stmt 1 view -0
  59              		.cfi_startproc
  60              		@ args = 0, pretend = 0, frame = 0
  61              		@ frame_needed = 0, uses_anonymous_args = 0
  62              		@ link register save eliminated.
  63              		.loc 1 96 3 view .LVU7
  64              		.loc 1 97 63 view .LVU8
  65              		.loc 1 99 3 view .LVU9
  66              		.loc 1 94 49 is_stmt 0 view .LVU10
  67 0000 0030A0E1 		mov	r3, r0
  68              		.loc 1 99 3 view .LVU11
  69 0004 011090E8 		ldm	r0, {r0, ip}
  70              	.LVL3:
  71              		.loc 1 99 3 view .LVU12
  72 0008 082093E5 		ldr	r2, [r3, #8]
  73 000c 003090E5 		ldr	r3, [r0]
  74              	.LVL4:
  75              		.loc 1 99 3 view .LVU13
  76 0010 0C1001E0 		and	r1, r1, ip
  77              	.LVL5:
  78              		.loc 1 99 3 view .LVU14
  79 0014 1C32C3E1 		bic	r3, r3, ip, lsl r2
  80 0018 111283E1 		orr	r1, r3, r1, lsl r2
  81 001c FEFFFFEA 		b	_pal_lld_writeport
  82              	.LVL6:
  83              		.cfi_endproc
  84              	.LFE8:
  85              		.size	palWriteBus, .-palWriteBus
  86              		.section	.text.palSetBusMode,"ax",%progbits
  87              		.align	2
  88              		.global	palSetBusMode
  89              		.syntax unified
  90              		.arm
  91              		.fpu softvfp
  92              		.type	palSetBusMode, %function
  93              	palSetBusMode:
  94              	.LVL7:
  95              	.LFB9:
  96              		.loc 1 117 47 is_stmt 1 view -0
  97              		.cfi_startproc
  98              		@ args = 0, pretend = 0, frame = 0
  99              		@ frame_needed = 0, uses_anonymous_args = 0
 100              		@ link register save eliminated.
 101              		.loc 1 119 3 view .LVU16
 102              		.loc 1 120 65 view .LVU17
 103              		.loc 1 122 3 view .LVU18
 104              		.loc 1 117 47 is_stmt 0 view .LVU19
 105 0000 0120A0E1 		mov	r2, r1
 106              		.loc 1 122 3 view .LVU20
 107 0004 0B0090E8 		ldm	r0, {r0, r1, r3}
 108              	.LVL8:
 109              		.loc 1 122 3 view .LVU21
 110 0008 1113A0E1 		lsl	r1, r1, r3
 111 000c FEFFFFEA 		b	_pal_lld_setgroupmode
 112              	.LVL9:
 113              		.loc 1 122 3 view .LVU22
 114              		.cfi_endproc
ARM GAS  /tmp/ccG0jSvZ.s 			page 3


 115              	.LFE9:
 116              		.size	palSetBusMode, .-palSetBusMode
 117              		.text
 118              	.Letext0:
 119              		.file 2 "/usr/arm-none-eabi/include/machine/_default_types.h"
 120              		.file 3 "/usr/arm-none-eabi/include/sys/_stdint.h"
 121              		.file 4 "/usr/arm-none-eabi/include/stdint.h"
 122              		.file 5 "../../os/hal/platforms/BCM2835/pal_lld.h"
 123              		.file 6 "../../os/hal/include/pal.h"