ARM GAS  /tmp/cc1v4m12.s 			page 1


   1              		.cpu arm1176jz-s
   2              		.eabi_attribute 20, 1
   3              		.eabi_attribute 21, 1
   4              		.eabi_attribute 23, 3
   5              		.eabi_attribute 24, 1
   6              		.eabi_attribute 25, 1
   7              		.eabi_attribute 26, 1
   8              		.eabi_attribute 30, 2
   9              		.eabi_attribute 34, 1
  10              		.eabi_attribute 18, 4
  11              		.file	"serial_lld.c"
  12              		.text
  13              	.Ltext0:
  14              		.cfi_sections	.debug_frame
  15              		.section	.text.output_notify,"ax",%progbits
  16              		.align	2
  17              		.arch armv6kz
  18              		.syntax unified
  19              		.arm
  20              		.fpu softvfp
  21              		.type	output_notify, %function
  22              	output_notify:
  23              	.LVL0:
  24              	.LFB7:
  25              		.file 1 "../../os/hal/platforms/BCM2835/serial_lld.c"
  26              		.loc 1 59 45 view -0
  27              		.cfi_startproc
  28              		@ args = 0, pretend = 0, frame = 0
  29              		@ frame_needed = 0, uses_anonymous_args = 0
  30              		@ link register save eliminated.
  31              		.loc 1 60 3 view .LVU1
  32              		.loc 1 62 3 view .LVU2
  33              		.loc 1 62 18 is_stmt 0 view .LVU3
  34 0000 0C209FE5 		ldr	r2, .L3
  35 0004 443092E5 		ldr	r3, [r2, #68]
  36 0008 023083E3 		orr	r3, r3, #2
  37 000c 443082E5 		str	r3, [r2, #68]
  38              		.loc 1 63 1 view .LVU4
  39 0010 1EFF2FE1 		bx	lr
  40              	.L4:
  41              		.align	2
  42              	.L3:
  43 0014 00502120 		.word	539054080
  44              		.cfi_endproc
  45              	.LFE7:
  46              		.size	output_notify, .-output_notify
  47              		.section	.text.sd_lld_serve_interrupt,"ax",%progbits
  48              		.align	2
  49              		.global	sd_lld_serve_interrupt
  50              		.syntax unified
  51              		.arm
  52              		.fpu softvfp
  53              		.type	sd_lld_serve_interrupt, %function
  54              	sd_lld_serve_interrupt:
  55              	.LVL1:
  56              	.LFB8:
  57              		.loc 1 69 50 is_stmt 1 view -0
ARM GAS  /tmp/cc1v4m12.s 			page 2


  58              		.cfi_startproc
  59              		@ args = 0, pretend = 0, frame = 0
  60              		@ frame_needed = 0, uses_anonymous_args = 0
  61              		.loc 1 70 3 view .LVU6
  62              		.loc 1 70 7 is_stmt 0 view .LVU7
  63 0000 9C209FE5 		ldr	r2, .L22
  64              		.loc 1 69 50 view .LVU8
  65 0004 70402DE9 		push	{r4, r5, r6, lr}
  66              		.cfi_def_cfa_offset 16
  67              		.cfi_offset 4, -16
  68              		.cfi_offset 5, -12
  69              		.cfi_offset 6, -8
  70              		.cfi_offset 14, -4
  71              		.loc 1 70 7 view .LVU9
  72 0008 483092E5 		ldr	r3, [r2, #72]
  73              		.loc 1 69 50 view .LVU10
  74 000c 0050A0E1 		mov	r5, r0
  75              		.loc 1 70 7 view .LVU11
  76 0010 073003E2 		and	r3, r3, #7
  77              		.loc 1 70 6 view .LVU12
  78 0014 040053E3 		cmp	r3, #4
  79 0018 1100000A 		beq	.L7
  80              	.LVL2:
  81              	.L6:
  82              		.loc 1 76 5 is_stmt 1 view .LVU13
  83              		.loc 1 76 5 view .LVU14
  84              		.loc 1 76 25 view .LVU15
  85              		.loc 1 79 3 view .LVU16
  86              		.loc 1 79 7 is_stmt 0 view .LVU17
  87 001c 80409FE5 		ldr	r4, .L22
  88 0020 483094E5 		ldr	r3, [r4, #72]
  89 0024 073003E2 		and	r3, r3, #7
  90              		.loc 1 79 6 view .LVU18
  91 0028 020053E3 		cmp	r3, #2
  92 002c 7080BD18 		popne	{r4, r5, r6, pc}
  93              	.L10:
  94              	.LBB15:
  95              		.loc 1 81 11 is_stmt 1 discriminator 1 view .LVU19
  96              		.loc 1 81 12 is_stmt 0 discriminator 1 view .LVU20
  97 0030 543094E5 		ldr	r3, [r4, #84]
  98              		.loc 1 81 11 discriminator 1 view .LVU21
  99 0034 200013E3 		tst	r3, #32
 100 0038 FCFFFF0A 		beq	.L10
 101              		.loc 1 82 5 is_stmt 1 view .LVU22
 102              		.loc 1 82 18 is_stmt 0 view .LVU23
 103 003c 0500A0E1 		mov	r0, r5
 104 0040 FEFFFFEB 		bl	sdRequestDataI
 105              	.LVL3:
 106              		.loc 1 83 5 is_stmt 1 view .LVU24
 107              		.loc 1 83 8 is_stmt 0 view .LVU25
 108 0044 000050E3 		cmp	r0, #0
 109              		.loc 1 83 8 view .LVU26
 110 0048 110000BA 		blt	.L21
 111              		.loc 1 88 7 is_stmt 1 view .LVU27
 112              	.LVL4:
 113              	.LBB16:
 114              	.LBI16:
ARM GAS  /tmp/cc1v4m12.s 			page 3


 115              		.loc 1 172 6 view .LVU28
 116              	.LBB17:
 117              		.loc 1 174 3 view .LVU29
 118              		.loc 1 174 10 is_stmt 0 view .LVU30
 119 004c 50209FE5 		ldr	r2, .L22
 120              	.L12:
 121              		.loc 1 174 33 is_stmt 1 view .LVU31
 122              		.loc 1 174 10 is_stmt 0 view .LVU32
 123 0050 543092E5 		ldr	r3, [r2, #84]
 124              		.loc 1 174 33 view .LVU33
 125 0054 200013E3 		tst	r3, #32
 126 0058 FCFFFF0A 		beq	.L12
 127              		.loc 1 175 3 is_stmt 1 view .LVU34
 128              		.loc 1 175 17 is_stmt 0 view .LVU35
 129 005c 400082E5 		str	r0, [r2, #64]
 130              	.LVL5:
 131              		.loc 1 175 17 view .LVU36
 132              	.LBE17:
 133              	.LBE16:
 134              		.loc 1 90 5 is_stmt 1 view .LVU37
 135              		.loc 1 90 5 view .LVU38
 136              		.loc 1 90 25 view .LVU39
 137              	.LBE15:
 138              		.loc 1 92 1 is_stmt 0 view .LVU40
 139 0060 7080BDE8 		pop	{r4, r5, r6, pc}
 140              	.LVL6:
 141              	.L7:
 142              		.loc 1 72 11 is_stmt 1 discriminator 1 view .LVU41
 143              		.loc 1 72 12 is_stmt 0 discriminator 1 view .LVU42
 144 0064 543092E5 		ldr	r3, [r2, #84]
 145              		.loc 1 72 11 discriminator 1 view .LVU43
 146 0068 010013E3 		tst	r3, #1
 147 006c FCFFFF0A 		beq	.L7
 148              		.loc 1 74 28 view .LVU44
 149 0070 2C409FE5 		ldr	r4, .L22
 150              	.LVL7:
 151              	.L8:
 152              		.loc 1 73 5 is_stmt 1 discriminator 1 view .LVU45
 153              		.loc 1 74 7 discriminator 1 view .LVU46
 154              		.loc 1 74 28 is_stmt 0 discriminator 1 view .LVU47
 155 0074 401094E5 		ldr	r1, [r4, #64]
 156              		.loc 1 74 7 discriminator 1 view .LVU48
 157 0078 0500A0E1 		mov	r0, r5
 158 007c 7110EFE6 		uxtb	r1, r1
 159 0080 FEFFFFEB 		bl	sdIncomingDataI
 160              	.LVL8:
 161              		.loc 1 75 14 is_stmt 1 discriminator 1 view .LVU49
 162 0084 543094E5 		ldr	r3, [r4, #84]
 163 0088 010013E3 		tst	r3, #1
 164 008c F8FFFF1A 		bne	.L8
 165 0090 E1FFFFEA 		b	.L6
 166              	.LVL9:
 167              	.L21:
 168              	.LBB18:
 169              		.loc 1 85 7 view .LVU50
 170              		.loc 1 85 22 is_stmt 0 view .LVU51
 171 0094 443094E5 		ldr	r3, [r4, #68]
ARM GAS  /tmp/cc1v4m12.s 			page 4


 172 0098 0230C3E3 		bic	r3, r3, #2
 173 009c 443084E5 		str	r3, [r4, #68]
 174 00a0 7080BDE8 		pop	{r4, r5, r6, pc}
 175              	.L23:
 176              		.align	2
 177              	.L22:
 178 00a4 00502120 		.word	539054080
 179              	.LBE18:
 180              		.cfi_endproc
 181              	.LFE8:
 182              		.size	sd_lld_serve_interrupt, .-sd_lld_serve_interrupt
 183              		.section	.text.sd_lld_init,"ax",%progbits
 184              		.align	2
 185              		.global	sd_lld_init
 186              		.syntax unified
 187              		.arm
 188              		.fpu softvfp
 189              		.type	sd_lld_init, %function
 190              	sd_lld_init:
 191              	.LFB9:
 192              		.loc 1 103 24 is_stmt 1 view -0
 193              		.cfi_startproc
 194              		@ args = 0, pretend = 0, frame = 0
 195              		@ frame_needed = 0, uses_anonymous_args = 0
 196              		@ link register save eliminated.
 197              		.loc 1 104 3 view .LVU53
 198 0000 0010A0E3 		mov	r1, #0
 199 0004 04209FE5 		ldr	r2, .L25
 200 0008 04009FE5 		ldr	r0, .L25+4
 201 000c FEFFFFEA 		b	sdObjectInit
 202              	.LVL10:
 203              	.L26:
 204              		.align	2
 205              	.L25:
 206 0010 00000000 		.word	output_notify
 207 0014 00000000 		.word	.LANCHOR0
 208              		.cfi_endproc
 209              	.LFE9:
 210              		.size	sd_lld_init, .-sd_lld_init
 211              		.global	__aeabi_uidiv
 212              		.section	.text.sd_lld_start,"ax",%progbits
 213              		.align	2
 214              		.global	sd_lld_start
 215              		.syntax unified
 216              		.arm
 217              		.fpu softvfp
 218              		.type	sd_lld_start, %function
 219              	sd_lld_start:
 220              	.LVL11:
 221              	.LFB10:
 222              		.loc 1 117 66 view -0
 223              		.cfi_startproc
 224              		@ args = 0, pretend = 0, frame = 0
 225              		@ frame_needed = 0, uses_anonymous_args = 0
 226              		.loc 1 118 3 view .LVU55
 227              		.loc 1 120 3 view .LVU56
 228              		.loc 1 117 66 is_stmt 0 view .LVU57
ARM GAS  /tmp/cc1v4m12.s 			page 5


 229 0000 F0472DE9 		push	{r4, r5, r6, r7, r8, r9, r10, lr}
 230              		.cfi_def_cfa_offset 32
 231              		.cfi_offset 4, -32
 232              		.cfi_offset 5, -28
 233              		.cfi_offset 6, -24
 234              		.cfi_offset 7, -20
 235              		.cfi_offset 8, -16
 236              		.cfi_offset 9, -12
 237              		.cfi_offset 10, -8
 238              		.cfi_offset 14, -4
 239              		.loc 1 127 19 view .LVU58
 240 0004 0050A0E3 		mov	r5, #0
 241              		.loc 1 125 15 view .LVU59
 242 0008 01E0A0E3 		mov	lr, #1
 243              		.loc 1 121 12 view .LVU60
 244 000c 050051E1 		cmp	r1, r5
 245              		.loc 1 131 19 view .LVU61
 246 0010 05C0A0E3 		mov	ip, #5
 247              		.loc 1 132 19 view .LVU62
 248 0014 C620A0E3 		mov	r2, #198
 249              		.loc 1 129 19 view .LVU63
 250 0018 0390A0E3 		mov	r9, #3
 251              		.loc 1 123 16 view .LVU64
 252 001c 0282A0E3 		mov	r8, #536870912
 253              		.loc 1 121 12 view .LVU65
 254 0020 8C309FE5 		ldr	r3, .L30
 255 0024 0130A011 		movne	r3, r1
 256              	.LVL12:
 257              		.loc 1 123 3 is_stmt 1 view .LVU66
 258              		.loc 1 125 15 is_stmt 0 view .LVU67
 259 0028 88409FE5 		ldr	r4, .L30+4
 260              		.loc 1 123 16 view .LVU68
 261 002c 88709FE5 		ldr	r7, .L30+8
 262              		.loc 1 133 21 view .LVU69
 263 0030 88009FE5 		ldr	r0, .L30+12
 264              	.LVL13:
 265              		.loc 1 123 16 view .LVU70
 266 0034 1C8287E5 		str	r8, [r7, #540]
 267              		.loc 1 125 3 is_stmt 1 view .LVU71
 268              		.loc 1 125 15 is_stmt 0 view .LVU72
 269 0038 04E084E5 		str	lr, [r4, #4]
 270              		.loc 1 127 3 is_stmt 1 view .LVU73
 271              		.loc 1 127 19 is_stmt 0 view .LVU74
 272 003c 445084E5 		str	r5, [r4, #68]
 273              		.loc 1 128 3 is_stmt 1 view .LVU75
 274              		.loc 1 128 19 is_stmt 0 view .LVU76
 275 0040 605084E5 		str	r5, [r4, #96]
 276              		.loc 1 129 3 is_stmt 1 view .LVU77
 277              		.loc 1 129 19 is_stmt 0 view .LVU78
 278 0044 4C9084E5 		str	r9, [r4, #76]
 279              		.loc 1 130 3 is_stmt 1 view .LVU79
 280              		.loc 1 130 19 is_stmt 0 view .LVU80
 281 0048 505084E5 		str	r5, [r4, #80]
 282              		.loc 1 131 3 is_stmt 1 view .LVU81
 283              		.loc 1 131 19 is_stmt 0 view .LVU82
 284 004c 44C084E5 		str	ip, [r4, #68]
 285              		.loc 1 132 3 is_stmt 1 view .LVU83
ARM GAS  /tmp/cc1v4m12.s 			page 6


 286              		.loc 1 132 19 is_stmt 0 view .LVU84
 287 0050 482084E5 		str	r2, [r4, #72]
 288              		.loc 1 133 3 is_stmt 1 view .LVU85
 289              		.loc 1 133 21 is_stmt 0 view .LVU86
 290 0054 001093E5 		ldr	r1, [r3]
 291              		.loc 1 138 9 view .LVU87
 292 0058 64609FE5 		ldr	r6, .L30+16
 293              		.loc 1 133 21 view .LVU88
 294 005c 1119A0E1 		lsl	r1, r1, r9
 295 0060 FEFFFFEB 		bl	__aeabi_uidiv
 296              	.LVL14:
 297              		.loc 1 133 21 view .LVU89
 298 0064 0030A0E1 		mov	r3, r0
 299 0068 013043E2 		sub	r3, r3, #1
 300              		.loc 1 133 19 view .LVU90
 301 006c 683084E5 		str	r3, [r4, #104]
 302              		.loc 1 135 3 is_stmt 1 view .LVU91
 303 0070 0210A0E3 		mov	r1, #2
 304 0074 0E00A0E3 		mov	r0, #14
 305 0078 FEFFFFEB 		bl	bcm2835_gpio_fnsel
 306              	.LVL15:
 307              		.loc 1 136 3 view .LVU92
 308 007c 0210A0E3 		mov	r1, #2
 309 0080 0F00A0E3 		mov	r0, #15
 310 0084 FEFFFFEB 		bl	bcm2835_gpio_fnsel
 311              	.LVL16:
 312              		.loc 1 138 3 view .LVU93
 313              		.loc 1 139 3 is_stmt 0 view .LVU94
 314 0088 9600A0E3 		mov	r0, #150
 315              		.loc 1 138 9 view .LVU95
 316 008c 945086E5 		str	r5, [r6, #148]
 317              		.loc 1 139 3 is_stmt 1 view .LVU96
 318 0090 FEFFFFEB 		bl	bcm2835_delay
 319              	.LVL17:
 320              		.loc 1 140 3 view .LVU97
 321              		.loc 1 140 13 is_stmt 0 view .LVU98
 322 0094 0339A0E3 		mov	r3, #49152
 323              		.loc 1 141 3 view .LVU99
 324 0098 9600A0E3 		mov	r0, #150
 325              		.loc 1 140 13 view .LVU100
 326 009c 983086E5 		str	r3, [r6, #152]
 327              		.loc 1 141 3 is_stmt 1 view .LVU101
 328 00a0 FEFFFFEB 		bl	bcm2835_delay
 329              	.LVL18:
 330              		.loc 1 142 3 view .LVU102
 331              		.loc 1 142 13 is_stmt 0 view .LVU103
 332 00a4 985086E5 		str	r5, [r6, #152]
 333              		.loc 1 144 3 is_stmt 1 view .LVU104
 334              		.loc 1 144 19 is_stmt 0 view .LVU105
 335 00a8 609084E5 		str	r9, [r4, #96]
 336              		.loc 1 146 3 is_stmt 1 view .LVU106
 337              		.loc 1 146 15 is_stmt 0 view .LVU107
 338 00ac 108287E5 		str	r8, [r7, #528]
 339              		.loc 1 147 1 view .LVU108
 340 00b0 F087BDE8 		pop	{r4, r5, r6, r7, r8, r9, r10, pc}
 341              	.L31:
 342              		.align	2
ARM GAS  /tmp/cc1v4m12.s 			page 7


 343              	.L30:
 344 00b4 00000000 		.word	.LANCHOR1
 345 00b8 00502120 		.word	539054080
 346 00bc 00B00020 		.word	536915968
 347 00c0 80B2E60E 		.word	250000000
 348 00c4 00002020 		.word	538968064
 349              		.cfi_endproc
 350              	.LFE10:
 351              		.size	sd_lld_start, .-sd_lld_start
 352              		.section	.text.sd_lld_stop,"ax",%progbits
 353              		.align	2
 354              		.global	sd_lld_stop
 355              		.syntax unified
 356              		.arm
 357              		.fpu softvfp
 358              		.type	sd_lld_stop, %function
 359              	sd_lld_stop:
 360              	.LVL19:
 361              	.LFB11:
 362              		.loc 1 158 37 is_stmt 1 view -0
 363              		.cfi_startproc
 364              		@ args = 0, pretend = 0, frame = 0
 365              		@ frame_needed = 0, uses_anonymous_args = 0
 366              		.loc 1 159 3 view .LVU110
 367              		.loc 1 161 3 view .LVU111
 368              		.loc 1 161 16 is_stmt 0 view .LVU112
 369 0000 28209FE5 		ldr	r2, .L34
 370              		.loc 1 158 37 view .LVU113
 371 0004 10402DE9 		push	{r4, lr}
 372              		.cfi_def_cfa_offset 8
 373              		.cfi_offset 4, -8
 374              		.cfi_offset 14, -4
 375              		.loc 1 161 16 view .LVU114
 376 0008 1C3292E5 		ldr	r3, [r2, #540]
 377              		.loc 1 162 3 view .LVU115
 378 000c 0010A0E3 		mov	r1, #0
 379              		.loc 1 161 16 view .LVU116
 380 0010 023283E3 		orr	r3, r3, #536870912
 381              		.loc 1 162 3 view .LVU117
 382 0014 0E00A0E3 		mov	r0, #14
 383              	.LVL20:
 384              		.loc 1 161 16 view .LVU118
 385 0018 1C3282E5 		str	r3, [r2, #540]
 386              		.loc 1 162 3 is_stmt 1 view .LVU119
 387 001c FEFFFFEB 		bl	bcm2835_gpio_fnsel
 388              	.LVL21:
 389              		.loc 1 163 3 view .LVU120
 390              		.loc 1 164 1 is_stmt 0 view .LVU121
 391 0020 1040BDE8 		pop	{r4, lr}
 392              		.cfi_restore 14
 393              		.cfi_restore 4
 394              		.cfi_def_cfa_offset 0
 395              		.loc 1 163 3 view .LVU122
 396 0024 0010A0E3 		mov	r1, #0
 397 0028 0F00A0E3 		mov	r0, #15
 398 002c FEFFFFEA 		b	bcm2835_gpio_fnsel
 399              	.LVL22:
ARM GAS  /tmp/cc1v4m12.s 			page 8


 400              	.L35:
 401              		.align	2
 402              	.L34:
 403 0030 00B00020 		.word	536915968
 404              		.cfi_endproc
 405              	.LFE11:
 406              		.size	sd_lld_stop, .-sd_lld_stop
 407              		.section	.text.mini_uart_recv,"ax",%progbits
 408              		.align	2
 409              		.global	mini_uart_recv
 410              		.syntax unified
 411              		.arm
 412              		.fpu softvfp
 413              		.type	mini_uart_recv, %function
 414              	mini_uart_recv:
 415              	.LFB12:
 416              		.loc 1 167 1 is_stmt 1 view -0
 417              		.cfi_startproc
 418              		@ args = 0, pretend = 0, frame = 0
 419              		@ frame_needed = 0, uses_anonymous_args = 0
 420              		@ link register save eliminated.
 421              		.loc 1 168 3 view .LVU124
 422              		.loc 1 168 10 is_stmt 0 view .LVU125
 423 0000 14209FE5 		ldr	r2, .L40
 424              	.L37:
 425              		.loc 1 168 33 is_stmt 1 discriminator 1 view .LVU126
 426              		.loc 1 168 10 is_stmt 0 discriminator 1 view .LVU127
 427 0004 543092E5 		ldr	r3, [r2, #84]
 428              		.loc 1 168 33 discriminator 1 view .LVU128
 429 0008 010013E3 		tst	r3, #1
 430 000c FCFFFF0A 		beq	.L37
 431              		.loc 1 169 3 is_stmt 1 view .LVU129
 432              		.loc 1 169 24 is_stmt 0 view .LVU130
 433 0010 400092E5 		ldr	r0, [r2, #64]
 434              		.loc 1 170 1 view .LVU131
 435 0014 7000EFE6 		uxtb	r0, r0
 436 0018 1EFF2FE1 		bx	lr
 437              	.L41:
 438              		.align	2
 439              	.L40:
 440 001c 00502120 		.word	539054080
 441              		.cfi_endproc
 442              	.LFE12:
 443              		.size	mini_uart_recv, .-mini_uart_recv
 444              		.section	.text.mini_uart_send,"ax",%progbits
 445              		.align	2
 446              		.global	mini_uart_send
 447              		.syntax unified
 448              		.arm
 449              		.fpu softvfp
 450              		.type	mini_uart_send, %function
 451              	mini_uart_send:
 452              	.LVL23:
 453              	.LFB13:
 454              		.loc 1 173 1 is_stmt 1 view -0
 455              		.cfi_startproc
 456              		@ args = 0, pretend = 0, frame = 0
ARM GAS  /tmp/cc1v4m12.s 			page 9


 457              		@ frame_needed = 0, uses_anonymous_args = 0
 458              		@ link register save eliminated.
 459              		.loc 1 174 3 view .LVU133
 460              		.loc 1 174 10 is_stmt 0 view .LVU134
 461 0000 10209FE5 		ldr	r2, .L46
 462              	.L43:
 463              		.loc 1 174 33 is_stmt 1 discriminator 1 view .LVU135
 464              		.loc 1 174 10 is_stmt 0 discriminator 1 view .LVU136
 465 0004 543092E5 		ldr	r3, [r2, #84]
 466              		.loc 1 174 33 discriminator 1 view .LVU137
 467 0008 200013E3 		tst	r3, #32
 468 000c FCFFFF0A 		beq	.L43
 469              		.loc 1 175 3 is_stmt 1 view .LVU138
 470              		.loc 1 175 17 is_stmt 0 view .LVU139
 471 0010 400082E5 		str	r0, [r2, #64]
 472              		.loc 1 176 1 view .LVU140
 473 0014 1EFF2FE1 		bx	lr
 474              	.L47:
 475              		.align	2
 476              	.L46:
 477 0018 00502120 		.word	539054080
 478              		.cfi_endproc
 479              	.LFE13:
 480              		.size	mini_uart_send, .-mini_uart_send
 481              		.section	.text.mini_uart_sendstr,"ax",%progbits
 482              		.align	2
 483              		.global	mini_uart_sendstr
 484              		.syntax unified
 485              		.arm
 486              		.fpu softvfp
 487              		.type	mini_uart_sendstr, %function
 488              	mini_uart_sendstr:
 489              	.LVL24:
 490              	.LFB14:
 491              		.loc 1 179 1 is_stmt 1 view -0
 492              		.cfi_startproc
 493              		@ args = 0, pretend = 0, frame = 0
 494              		@ frame_needed = 0, uses_anonymous_args = 0
 495              		@ link register save eliminated.
 496              		.loc 1 180 3 view .LVU142
 497              		.loc 1 181 3 view .LVU143
 498              		.loc 1 181 9 view .LVU144
 499              		.loc 1 181 12 is_stmt 0 view .LVU145
 500 0000 0110D0E4 		ldrb	r1, [r0], #1	@ zero_extendqisi2
 501              	.LVL25:
 502              		.loc 1 181 9 view .LVU146
 503 0004 000051E3 		cmp	r1, #0
 504 0008 1EFF2F01 		bxeq	lr
 505              	.LBB19:
 506              	.LBB20:
 507              		.loc 1 174 10 view .LVU147
 508 000c 1C209FE5 		ldr	r2, .L58
 509              	.LVL26:
 510              	.L50:
 511              		.loc 1 174 33 is_stmt 1 view .LVU148
 512              		.loc 1 174 10 is_stmt 0 view .LVU149
 513 0010 543092E5 		ldr	r3, [r2, #84]
ARM GAS  /tmp/cc1v4m12.s 			page 10


 514              		.loc 1 174 33 view .LVU150
 515 0014 200013E3 		tst	r3, #32
 516 0018 FCFFFF0A 		beq	.L50
 517              		.loc 1 175 3 is_stmt 1 view .LVU151
 518              		.loc 1 175 17 is_stmt 0 view .LVU152
 519 001c 401082E5 		str	r1, [r2, #64]
 520              		.loc 1 175 17 view .LVU153
 521              	.LBE20:
 522              	.LBE19:
 523              		.loc 1 181 9 is_stmt 1 view .LVU154
 524              	.LVL27:
 525              		.loc 1 181 12 is_stmt 0 view .LVU155
 526 0020 0110D0E4 		ldrb	r1, [r0], #1	@ zero_extendqisi2
 527              	.LVL28:
 528              		.loc 1 181 9 view .LVU156
 529 0024 000051E3 		cmp	r1, #0
 530 0028 F8FFFF1A 		bne	.L50
 531 002c 1EFF2FE1 		bx	lr
 532              	.L59:
 533              		.align	2
 534              	.L58:
 535 0030 00502120 		.word	539054080
 536              		.cfi_endproc
 537              	.LFE14:
 538              		.size	mini_uart_sendstr, .-mini_uart_sendstr
 539              		.section	.text.mini_uart_sendhex,"ax",%progbits
 540              		.align	2
 541              		.global	mini_uart_sendhex
 542              		.syntax unified
 543              		.arm
 544              		.fpu softvfp
 545              		.type	mini_uart_sendhex, %function
 546              	mini_uart_sendhex:
 547              	.LVL29:
 548              	.LFB15:
 549              		.loc 1 185 1 is_stmt 1 view -0
 550              		.cfi_startproc
 551              		@ args = 0, pretend = 0, frame = 0
 552              		@ frame_needed = 0, uses_anonymous_args = 0
 553              		.loc 1 186 3 view .LVU158
 554              		.loc 1 187 3 view .LVU159
 555              		.loc 1 189 3 view .LVU160
 556              		.loc 1 185 1 is_stmt 0 view .LVU161
 557 0000 04E02DE5 		str	lr, [sp, #-4]!
 558              		.cfi_def_cfa_offset 4
 559              		.cfi_offset 14, -4
 560              		.loc 1 189 5 view .LVU162
 561 0004 20E0A0E3 		mov	lr, #32
 562              	.LBB21:
 563              	.LBB22:
 564              		.loc 1 174 10 view .LVU163
 565 0008 80209FE5 		ldr	r2, .L82
 566              	.LVL30:
 567              	.L64:
 568              		.loc 1 174 10 view .LVU164
 569              	.LBE22:
 570              	.LBE21:
ARM GAS  /tmp/cc1v4m12.s 			page 11


 571              		.loc 1 190 3 is_stmt 1 view .LVU165
 572              		.loc 1 192 5 view .LVU166
 573              		.loc 1 192 7 is_stmt 0 view .LVU167
 574 000c 04E04EE2 		sub	lr, lr, #4
 575              	.LVL31:
 576              		.loc 1 193 5 is_stmt 1 view .LVU168
 577              		.loc 1 193 10 is_stmt 0 view .LVU169
 578 0010 303EA0E1 		lsr	r3, r0, lr
 579              		.loc 1 193 7 view .LVU170
 580 0014 0F3003E2 		and	r3, r3, #15
 581              	.LVL32:
 582              		.loc 1 194 5 is_stmt 1 view .LVU171
 583              		.loc 1 194 7 is_stmt 0 view .LVU172
 584 0018 090053E3 		cmp	r3, #9
 585              		.loc 1 195 7 is_stmt 1 view .LVU173
 586              		.loc 1 195 9 is_stmt 0 view .LVU174
 587 001c 37C08382 		addhi	ip, r3, #55
 588              	.LVL33:
 589              		.loc 1 197 7 is_stmt 1 view .LVU175
 590              		.loc 1 197 9 is_stmt 0 view .LVU176
 591 0020 30C08392 		addls	ip, r3, #48
 592              	.LVL34:
 593              		.loc 1 198 5 is_stmt 1 view .LVU177
 594              	.LBB25:
 595              	.LBI21:
 596              		.loc 1 172 6 view .LVU178
 597              	.LBB23:
 598              		.loc 1 174 3 view .LVU179
 599              	.L63:
 600              		.loc 1 174 33 view .LVU180
 601              		.loc 1 174 10 is_stmt 0 view .LVU181
 602 0024 543092E5 		ldr	r3, [r2, #84]
 603              		.loc 1 174 33 view .LVU182
 604 0028 200013E3 		tst	r3, #32
 605 002c FCFFFF0A 		beq	.L63
 606              		.loc 1 175 3 is_stmt 1 view .LVU183
 607              	.LBE23:
 608              	.LBE25:
 609              		.loc 1 199 7 is_stmt 0 view .LVU184
 610 0030 00005EE3 		cmp	lr, #0
 611              	.LBB26:
 612              	.LBB24:
 613              		.loc 1 175 17 view .LVU185
 614 0034 40C082E5 		str	ip, [r2, #64]
 615              	.LVL35:
 616              		.loc 1 175 17 view .LVU186
 617              	.LBE24:
 618              	.LBE26:
 619              		.loc 1 199 5 is_stmt 1 view .LVU187
 620              		.loc 1 199 7 is_stmt 0 view .LVU188
 621 0038 F3FFFF1A 		bne	.L64
 622              	.LBB27:
 623              	.LBB28:
 624              		.loc 1 174 10 view .LVU189
 625 003c 4C209FE5 		ldr	r2, .L82
 626              	.L65:
 627              		.loc 1 174 33 is_stmt 1 view .LVU190
ARM GAS  /tmp/cc1v4m12.s 			page 12


 628              		.loc 1 174 10 is_stmt 0 view .LVU191
 629 0040 543092E5 		ldr	r3, [r2, #84]
 630              		.loc 1 174 33 view .LVU192
 631 0044 200013E3 		tst	r3, #32
 632 0048 FCFFFF0A 		beq	.L65
 633              		.loc 1 175 3 is_stmt 1 view .LVU193
 634              		.loc 1 175 17 is_stmt 0 view .LVU194
 635 004c 2030A0E3 		mov	r3, #32
 636              	.LBE28:
 637              	.LBE27:
 638              		.loc 1 204 6 view .LVU195
 639 0050 000051E3 		cmp	r1, #0
 640              	.LBB30:
 641              	.LBB29:
 642              		.loc 1 175 17 view .LVU196
 643 0054 403082E5 		str	r3, [r2, #64]
 644              	.LBE29:
 645              	.LBE30:
 646              		.loc 1 204 3 is_stmt 1 view .LVU197
 647              		.loc 1 204 6 is_stmt 0 view .LVU198
 648 0058 04F09D04 		ldreq	pc, [sp], #4
 649              	.LBB31:
 650              	.LBB32:
 651              		.loc 1 174 10 view .LVU199
 652 005c 2C109FE5 		ldr	r1, .L82
 653              	.LVL36:
 654              	.L67:
 655              		.loc 1 174 33 is_stmt 1 view .LVU200
 656              		.loc 1 174 10 is_stmt 0 view .LVU201
 657 0060 543091E5 		ldr	r3, [r1, #84]
 658              		.loc 1 174 33 view .LVU202
 659 0064 200013E3 		tst	r3, #32
 660 0068 FCFFFF0A 		beq	.L67
 661              		.loc 1 175 3 is_stmt 1 view .LVU203
 662              		.loc 1 175 17 is_stmt 0 view .LVU204
 663 006c 0D30A0E3 		mov	r3, #13
 664              	.LBE32:
 665              	.LBE31:
 666              	.LBB34:
 667              	.LBB35:
 668              		.loc 1 174 10 view .LVU205
 669 0070 18209FE5 		ldr	r2, .L82
 670              	.LBE35:
 671              	.LBE34:
 672              	.LBB37:
 673              	.LBB33:
 674              		.loc 1 175 17 view .LVU206
 675 0074 403081E5 		str	r3, [r1, #64]
 676              	.L68:
 677              	.LBE33:
 678              	.LBE37:
 679              	.LBB38:
 680              	.LBB36:
 681              		.loc 1 174 33 is_stmt 1 view .LVU207
 682              		.loc 1 174 10 is_stmt 0 view .LVU208
 683 0078 543092E5 		ldr	r3, [r2, #84]
 684              		.loc 1 174 33 view .LVU209
ARM GAS  /tmp/cc1v4m12.s 			page 13


 685 007c 200013E3 		tst	r3, #32
 686 0080 FCFFFF0A 		beq	.L68
 687              		.loc 1 175 3 is_stmt 1 view .LVU210
 688              		.loc 1 175 17 is_stmt 0 view .LVU211
 689 0084 0A30A0E3 		mov	r3, #10
 690 0088 403082E5 		str	r3, [r2, #64]
 691              	.LBE36:
 692              	.LBE38:
 693              		.loc 1 208 1 view .LVU212
 694 008c 04F09DE4 		ldr	pc, [sp], #4
 695              	.L83:
 696              		.align	2
 697              	.L82:
 698 0090 00502120 		.word	539054080
 699              		.cfi_endproc
 700              	.LFE15:
 701              		.size	mini_uart_sendhex, .-mini_uart_sendhex
 702              		.global	SD1
 703              		.section	.bss.SD1,"aw",%nobits
 704              		.align	2
 705              		.set	.LANCHOR0,. + 0
 706              		.type	SD1, %object
 707              		.size	SD1, 116
 708              	SD1:
 709 0000 00000000 		.space	116
 709      00000000 
 709      00000000 
 709      00000000 
 709      00000000 
 710              		.section	.rodata.default_config,"a"
 711              		.align	2
 712              		.set	.LANCHOR1,. + 0
 713              		.type	default_config, %object
 714              		.size	default_config, 4
 715              	default_config:
 716 0000 00C20100 		.word	115200
 717              		.text
 718              	.Letext0:
 719              		.file 2 "/usr/lib/gcc/arm-none-eabi/11.2.0/include/stddef.h"
 720              		.file 3 "/usr/arm-none-eabi/include/machine/_default_types.h"
 721              		.file 4 "/usr/arm-none-eabi/include/sys/_stdint.h"
 722              		.file 5 "../../os/ports/GCC/ARM/chtypes.h"
 723              		.file 6 "../../os/kernel/include/chlists.h"
 724              		.file 7 "../../os/kernel/include/chthreads.h"
 725              		.file 8 "../../os/ports/GCC/ARM/chcore.h"
 726              		.file 9 "../../os/kernel/include/chmtx.h"
 727              		.file 10 "../../os/kernel/include/chevents.h"
 728              		.file 11 "../../os/kernel/include/chqueues.h"
 729              		.file 12 "../../os/hal/include/serial.h"
 730              		.file 13 "../../os/hal/platforms/BCM2835/serial_lld.h"
 731              		.file 14 "../../os/hal/platforms/BCM2835/bcm2835.h"