ARM GAS  /tmp/ccRBrtkq.s 			page 1


   1              		.cpu arm1176jz-s
   2              		.eabi_attribute 20, 1
   3              		.eabi_attribute 21, 1
   4              		.eabi_attribute 23, 3
   5              		.eabi_attribute 24, 1
   6              		.eabi_attribute 25, 1
   7              		.eabi_attribute 26, 1
   8              		.eabi_attribute 30, 2
   9              		.eabi_attribute 34, 1
  10              		.eabi_attribute 18, 4
  11              		.file	"serial.c"
  12              		.text
  13              	.Ltext0:
  14              		.cfi_sections	.debug_frame
  15              		.section	.text.readt,"ax",%progbits
  16              		.align	2
  17              		.arch armv6kz
  18              		.syntax unified
  19              		.arm
  20              		.fpu softvfp
  21              		.type	readt, %function
  22              	readt:
  23              	.LVL0:
  24              	.LFB14:
  25              		.file 1 "../../os/hal/src/serial.c"
  26              		.loc 1 92 70 view -0
  27              		.cfi_startproc
  28              		@ args = 0, pretend = 0, frame = 0
  29              		@ frame_needed = 0, uses_anonymous_args = 0
  30              		@ link register save eliminated.
  31              		.loc 1 94 3 view .LVU1
  32              		.loc 1 94 10 is_stmt 0 view .LVU2
  33 0000 0C0080E2 		add	r0, r0, #12
  34              	.LVL1:
  35              		.loc 1 94 10 view .LVU3
  36 0004 FEFFFFEA 		b	chIQReadTimeout
  37              	.LVL2:
  38              		.loc 1 94 10 view .LVU4
  39              		.cfi_endproc
  40              	.LFE14:
  41              		.size	readt, .-readt
  42              		.section	.text.read,"ax",%progbits
  43              		.align	2
  44              		.syntax unified
  45              		.arm
  46              		.fpu softvfp
  47              		.type	read, %function
  48              	read:
  49              	.LVL3:
  50              	.LFB8:
  51              		.loc 1 61 53 is_stmt 1 view -0
  52              		.cfi_startproc
  53              		@ args = 0, pretend = 0, frame = 0
  54              		@ frame_needed = 0, uses_anonymous_args = 0
  55              		@ link register save eliminated.
  56              		.loc 1 63 3 view .LVU6
  57              		.loc 1 63 10 is_stmt 0 view .LVU7
ARM GAS  /tmp/ccRBrtkq.s 			page 2


  58 0000 0030E0E3 		mvn	r3, #0
  59 0004 0C0080E2 		add	r0, r0, #12
  60              	.LVL4:
  61              		.loc 1 63 10 view .LVU8
  62 0008 FEFFFFEA 		b	chIQReadTimeout
  63              	.LVL5:
  64              		.loc 1 63 10 view .LVU9
  65              		.cfi_endproc
  66              	.LFE8:
  67              		.size	read, .-read
  68              		.section	.text.writet,"ax",%progbits
  69              		.align	2
  70              		.syntax unified
  71              		.arm
  72              		.fpu softvfp
  73              		.type	writet, %function
  74              	writet:
  75              	.LVL6:
  76              	.LFB13:
  77              		.loc 1 87 77 is_stmt 1 view -0
  78              		.cfi_startproc
  79              		@ args = 0, pretend = 0, frame = 0
  80              		@ frame_needed = 0, uses_anonymous_args = 0
  81              		@ link register save eliminated.
  82              		.loc 1 89 3 view .LVU11
  83              		.loc 1 89 10 is_stmt 0 view .LVU12
  84 0000 300080E2 		add	r0, r0, #48
  85              	.LVL7:
  86              		.loc 1 89 10 view .LVU13
  87 0004 FEFFFFEA 		b	chOQWriteTimeout
  88              	.LVL8:
  89              		.loc 1 89 10 view .LVU14
  90              		.cfi_endproc
  91              	.LFE13:
  92              		.size	writet, .-writet
  93              		.section	.text.write,"ax",%progbits
  94              		.align	2
  95              		.syntax unified
  96              		.arm
  97              		.fpu softvfp
  98              		.type	write, %function
  99              	write:
 100              	.LVL9:
 101              	.LFB7:
 102              		.loc 1 55 60 is_stmt 1 view -0
 103              		.cfi_startproc
 104              		@ args = 0, pretend = 0, frame = 0
 105              		@ frame_needed = 0, uses_anonymous_args = 0
 106              		@ link register save eliminated.
 107              		.loc 1 57 3 view .LVU16
 108              		.loc 1 57 10 is_stmt 0 view .LVU17
 109 0000 0030E0E3 		mvn	r3, #0
 110 0004 300080E2 		add	r0, r0, #48
 111              	.LVL10:
 112              		.loc 1 57 10 view .LVU18
 113 0008 FEFFFFEA 		b	chOQWriteTimeout
 114              	.LVL11:
ARM GAS  /tmp/ccRBrtkq.s 			page 3


 115              		.loc 1 57 10 view .LVU19
 116              		.cfi_endproc
 117              	.LFE7:
 118              		.size	write, .-write
 119              		.section	.text.gett,"ax",%progbits
 120              		.align	2
 121              		.syntax unified
 122              		.arm
 123              		.fpu softvfp
 124              		.type	gett, %function
 125              	gett:
 126              	.LVL12:
 127              	.LFB12:
 128              		.loc 1 82 48 is_stmt 1 view -0
 129              		.cfi_startproc
 130              		@ args = 0, pretend = 0, frame = 0
 131              		@ frame_needed = 0, uses_anonymous_args = 0
 132              		@ link register save eliminated.
 133              		.loc 1 84 3 view .LVU21
 134              		.loc 1 84 10 is_stmt 0 view .LVU22
 135 0000 0C0080E2 		add	r0, r0, #12
 136              	.LVL13:
 137              		.loc 1 84 10 view .LVU23
 138 0004 FEFFFFEA 		b	chIQGetTimeout
 139              	.LVL14:
 140              		.loc 1 84 10 view .LVU24
 141              		.cfi_endproc
 142              	.LFE12:
 143              		.size	gett, .-gett
 144              		.section	.text.get,"ax",%progbits
 145              		.align	2
 146              		.syntax unified
 147              		.arm
 148              		.fpu softvfp
 149              		.type	get, %function
 150              	get:
 151              	.LVL15:
 152              	.LFB10:
 153              		.loc 1 72 28 is_stmt 1 view -0
 154              		.cfi_startproc
 155              		@ args = 0, pretend = 0, frame = 0
 156              		@ frame_needed = 0, uses_anonymous_args = 0
 157              		@ link register save eliminated.
 158              		.loc 1 74 3 view .LVU26
 159              		.loc 1 74 10 is_stmt 0 view .LVU27
 160 0000 0010E0E3 		mvn	r1, #0
 161 0004 0C0080E2 		add	r0, r0, #12
 162              	.LVL16:
 163              		.loc 1 74 10 view .LVU28
 164 0008 FEFFFFEA 		b	chIQGetTimeout
 165              	.LVL17:
 166              		.loc 1 74 10 view .LVU29
 167              		.cfi_endproc
 168              	.LFE10:
 169              		.size	get, .-get
 170              		.section	.text.putt,"ax",%progbits
 171              		.align	2
ARM GAS  /tmp/ccRBrtkq.s 			page 4


 172              		.syntax unified
 173              		.arm
 174              		.fpu softvfp
 175              		.type	putt, %function
 176              	putt:
 177              	.LVL18:
 178              	.LFB11:
 179              		.loc 1 77 59 is_stmt 1 view -0
 180              		.cfi_startproc
 181              		@ args = 0, pretend = 0, frame = 0
 182              		@ frame_needed = 0, uses_anonymous_args = 0
 183              		@ link register save eliminated.
 184              		.loc 1 79 3 view .LVU31
 185              		.loc 1 79 10 is_stmt 0 view .LVU32
 186 0000 300080E2 		add	r0, r0, #48
 187              	.LVL19:
 188              		.loc 1 79 10 view .LVU33
 189 0004 FEFFFFEA 		b	chOQPutTimeout
 190              	.LVL20:
 191              		.loc 1 79 10 view .LVU34
 192              		.cfi_endproc
 193              	.LFE11:
 194              		.size	putt, .-putt
 195              		.section	.text.put,"ax",%progbits
 196              		.align	2
 197              		.syntax unified
 198              		.arm
 199              		.fpu softvfp
 200              		.type	put, %function
 201              	put:
 202              	.LVL21:
 203              	.LFB9:
 204              		.loc 1 67 39 is_stmt 1 view -0
 205              		.cfi_startproc
 206              		@ args = 0, pretend = 0, frame = 0
 207              		@ frame_needed = 0, uses_anonymous_args = 0
 208              		@ link register save eliminated.
 209              		.loc 1 69 3 view .LVU36
 210              		.loc 1 69 10 is_stmt 0 view .LVU37
 211 0000 0020E0E3 		mvn	r2, #0
 212 0004 300080E2 		add	r0, r0, #48
 213              	.LVL22:
 214              		.loc 1 69 10 view .LVU38
 215 0008 FEFFFFEA 		b	chOQPutTimeout
 216              	.LVL23:
 217              		.loc 1 69 10 view .LVU39
 218              		.cfi_endproc
 219              	.LFE9:
 220              		.size	put, .-put
 221              		.section	.text.sdInit,"ax",%progbits
 222              		.align	2
 223              		.global	sdInit
 224              		.syntax unified
 225              		.arm
 226              		.fpu softvfp
 227              		.type	sdInit, %function
 228              	sdInit:
ARM GAS  /tmp/ccRBrtkq.s 			page 5


 229              	.LFB15:
 230              		.loc 1 113 19 is_stmt 1 view -0
 231              		.cfi_startproc
 232              		@ args = 0, pretend = 0, frame = 0
 233              		@ frame_needed = 0, uses_anonymous_args = 0
 234              		@ link register save eliminated.
 235              		.loc 1 115 3 view .LVU41
 236 0000 FEFFFFEA 		b	sd_lld_init
 237              	.LVL24:
 238              		.cfi_endproc
 239              	.LFE15:
 240              		.size	sdInit, .-sdInit
 241              		.section	.text.sdObjectInit,"ax",%progbits
 242              		.align	2
 243              		.global	sdObjectInit
 244              		.syntax unified
 245              		.arm
 246              		.fpu softvfp
 247              		.type	sdObjectInit, %function
 248              	sdObjectInit:
 249              	.LVL25:
 250              	.LFB16:
 251              		.loc 1 133 76 view -0
 252              		.cfi_startproc
 253              		@ args = 0, pretend = 0, frame = 0
 254              		@ frame_needed = 0, uses_anonymous_args = 0
 255              		.loc 1 135 3 view .LVU43
 256              		.loc 1 133 76 is_stmt 0 view .LVU44
 257 0000 0130A0E1 		mov	r3, r1
 258              		.loc 1 135 12 view .LVU45
 259 0004 0010A0E1 		mov	r1, r0
 260              	.LVL26:
 261              		.loc 1 137 14 view .LVU46
 262 0008 01C0A0E3 		mov	ip, #1
 263              		.loc 1 133 76 view .LVU47
 264 000c 30402DE9 		push	{r4, r5, lr}
 265              		.cfi_def_cfa_offset 12
 266              		.cfi_offset 4, -12
 267              		.cfi_offset 5, -8
 268              		.cfi_offset 14, -4
 269 0010 0040A0E1 		mov	r4, r0
 270 0014 0250A0E1 		mov	r5, r2
 271              		.loc 1 135 12 view .LVU48
 272 0018 40E09FE5 		ldr	lr, .L13
 273              		.loc 1 133 76 view .LVU49
 274 001c 0CD04DE2 		sub	sp, sp, #12
 275              		.cfi_def_cfa_offset 24
 276              		.loc 1 138 3 view .LVU50
 277 0020 00008DE5 		str	r0, [sp]
 278              		.loc 1 135 12 view .LVU51
 279 0024 04E081E4 		str	lr, [r1], #4
 280              		.loc 1 136 3 is_stmt 1 view .LVU52
 281 0028 041080E5 		str	r1, [r0, #4]
 282              		.loc 1 137 3 view .LVU53
 283              		.loc 1 137 14 is_stmt 0 view .LVU54
 284 002c 08C0C0E5 		strb	ip, [r0, #8]
 285              		.loc 1 138 3 is_stmt 1 view .LVU55
ARM GAS  /tmp/ccRBrtkq.s 			page 6


 286 0030 541080E2 		add	r1, r0, #84
 287 0034 1020A0E3 		mov	r2, #16
 288              	.LVL27:
 289              		.loc 1 138 3 is_stmt 0 view .LVU56
 290 0038 0C0080E2 		add	r0, r0, #12
 291              	.LVL28:
 292              		.loc 1 138 3 view .LVU57
 293 003c FEFFFFEB 		bl	chIQInit
 294              	.LVL29:
 295              		.loc 1 139 3 is_stmt 1 view .LVU58
 296 0040 0530A0E1 		mov	r3, r5
 297 0044 1020A0E3 		mov	r2, #16
 298 0048 00408DE5 		str	r4, [sp]
 299 004c 641084E2 		add	r1, r4, #100
 300 0050 300084E2 		add	r0, r4, #48
 301 0054 FEFFFFEB 		bl	chOQInit
 302              	.LVL30:
 303              		.loc 1 140 1 is_stmt 0 view .LVU59
 304 0058 0CD08DE2 		add	sp, sp, #12
 305              		.cfi_def_cfa_offset 12
 306              		@ sp needed
 307 005c 3080BDE8 		pop	{r4, r5, pc}
 308              	.LVL31:
 309              	.L14:
 310              		.loc 1 140 1 view .LVU60
 311              		.align	2
 312              	.L13:
 313 0060 00000000 		.word	.LANCHOR0
 314              		.cfi_endproc
 315              	.LFE16:
 316              		.size	sdObjectInit, .-sdObjectInit
 317              		.section	.text.sdStart,"ax",%progbits
 318              		.align	2
 319              		.global	sdStart
 320              		.syntax unified
 321              		.arm
 322              		.fpu softvfp
 323              		.type	sdStart, %function
 324              	sdStart:
 325              	.LVL32:
 326              	.LFB17:
 327              		.loc 1 152 61 is_stmt 1 view -0
 328              		.cfi_startproc
 329              		@ args = 0, pretend = 0, frame = 0
 330              		@ frame_needed = 0, uses_anonymous_args = 0
 331              		.loc 1 154 3 view .LVU62
 332              		.loc 1 154 37 view .LVU63
 333              		.loc 1 156 3 view .LVU64
 334              		.loc 1 152 61 is_stmt 0 view .LVU65
 335 0000 10402DE9 		push	{r4, lr}
 336              		.cfi_def_cfa_offset 8
 337              		.cfi_offset 4, -8
 338              		.cfi_offset 14, -4
 339              		.loc 1 152 61 view .LVU66
 340 0004 0040A0E1 		mov	r4, r0
 341              		.loc 1 156 3 view .LVU67
 342              		.syntax divided
ARM GAS  /tmp/ccRBrtkq.s 			page 7


 343              	@ 156 "../../os/hal/src/serial.c" 1
 344 0008 9FF021E3 		msr     CPSR_c, #0x9F
 345              	@ 0 "" 2
 346              		.loc 1 156 3 is_stmt 1 view .LVU68
 347              		.loc 1 156 14 view .LVU69
 348              		.loc 1 157 3 view .LVU70
 349              		.loc 1 159 31 view .LVU71
 350              		.loc 1 160 3 view .LVU72
 351              		.arm
 352              		.syntax unified
 353 000c FEFFFFEB 		bl	sd_lld_start
 354              	.LVL33:
 355              		.loc 1 161 3 view .LVU73
 356              		.loc 1 161 14 is_stmt 0 view .LVU74
 357 0010 0230A0E3 		mov	r3, #2
 358 0014 0830C4E5 		strb	r3, [r4, #8]
 359              		.loc 1 162 3 is_stmt 1 view .LVU75
 360              		.loc 1 162 3 view .LVU76
 361              		.syntax divided
 362              	@ 162 "../../os/hal/src/serial.c" 1
 363 0018 1FF021E3 		msr     CPSR_c, #0x1F
 364              	@ 0 "" 2
 365              		.loc 1 162 16 view .LVU77
 366              		.loc 1 163 1 is_stmt 0 view .LVU78
 367              		.arm
 368              		.syntax unified
 369 001c 1080BDE8 		pop	{r4, pc}
 370              		.cfi_endproc
 371              	.LFE17:
 372              		.size	sdStart, .-sdStart
 373              		.section	.text.sdStop,"ax",%progbits
 374              		.align	2
 375              		.global	sdStop
 376              		.syntax unified
 377              		.arm
 378              		.fpu softvfp
 379              		.type	sdStop, %function
 380              	sdStop:
 381              	.LVL34:
 382              	.LFB18:
 383              		.loc 1 174 32 is_stmt 1 view -0
 384              		.cfi_startproc
 385              		@ args = 0, pretend = 0, frame = 0
 386              		@ frame_needed = 0, uses_anonymous_args = 0
 387              		.loc 1 176 3 view .LVU80
 388              		.loc 1 176 36 view .LVU81
 389              		.loc 1 178 3 view .LVU82
 390              		.loc 1 174 32 is_stmt 0 view .LVU83
 391 0000 10402DE9 		push	{r4, lr}
 392              		.cfi_def_cfa_offset 8
 393              		.cfi_offset 4, -8
 394              		.cfi_offset 14, -4
 395              		.loc 1 174 32 view .LVU84
 396 0004 0040A0E1 		mov	r4, r0
 397              		.loc 1 178 3 view .LVU85
 398              		.syntax divided
 399              	@ 178 "../../os/hal/src/serial.c" 1
ARM GAS  /tmp/ccRBrtkq.s 			page 8


 400 0008 9FF021E3 		msr     CPSR_c, #0x9F
 401              	@ 0 "" 2
 402              		.loc 1 178 3 is_stmt 1 view .LVU86
 403              		.loc 1 178 14 view .LVU87
 404              		.loc 1 179 3 view .LVU88
 405              		.loc 1 181 31 view .LVU89
 406              		.loc 1 182 3 view .LVU90
 407              		.arm
 408              		.syntax unified
 409 000c FEFFFFEB 		bl	sd_lld_stop
 410              	.LVL35:
 411              		.loc 1 183 3 view .LVU91
 412              		.loc 1 183 14 is_stmt 0 view .LVU92
 413 0010 0130A0E3 		mov	r3, #1
 414              		.loc 1 184 3 view .LVU93
 415 0014 300084E2 		add	r0, r4, #48
 416              		.loc 1 183 14 view .LVU94
 417 0018 0830C4E5 		strb	r3, [r4, #8]
 418              		.loc 1 184 3 is_stmt 1 view .LVU95
 419 001c FEFFFFEB 		bl	chOQResetI
 420              	.LVL36:
 421              		.loc 1 185 3 view .LVU96
 422 0020 0C0084E2 		add	r0, r4, #12
 423 0024 FEFFFFEB 		bl	chIQResetI
 424              	.LVL37:
 425              		.loc 1 186 3 view .LVU97
 426 0028 FEFFFFEB 		bl	chSchRescheduleS
 427              	.LVL38:
 428              		.loc 1 187 3 view .LVU98
 429              		.loc 1 187 3 view .LVU99
 430              		.syntax divided
 431              	@ 187 "../../os/hal/src/serial.c" 1
 432 002c 1FF021E3 		msr     CPSR_c, #0x1F
 433              	@ 0 "" 2
 434              		.loc 1 187 16 view .LVU100
 435              		.loc 1 188 1 is_stmt 0 view .LVU101
 436              		.arm
 437              		.syntax unified
 438 0030 1080BDE8 		pop	{r4, pc}
 439              		.cfi_endproc
 440              	.LFE18:
 441              		.size	sdStop, .-sdStop
 442              		.section	.text.sdIncomingDataI,"ax",%progbits
 443              		.align	2
 444              		.global	sdIncomingDataI
 445              		.syntax unified
 446              		.arm
 447              		.fpu softvfp
 448              		.type	sdIncomingDataI, %function
 449              	sdIncomingDataI:
 450              	.LVL39:
 451              	.LFB19:
 452              		.loc 1 206 52 is_stmt 1 view -0
 453              		.cfi_startproc
 454              		@ args = 0, pretend = 0, frame = 0
 455              		@ frame_needed = 0, uses_anonymous_args = 0
 456              		.loc 1 208 3 view .LVU103
ARM GAS  /tmp/ccRBrtkq.s 			page 9


 457              		.loc 1 208 21 view .LVU104
 458              		.loc 1 209 3 view .LVU105
 459              		.loc 1 209 45 view .LVU106
 460              		.loc 1 211 3 view .LVU107
 461              		.loc 1 211 6 is_stmt 0 view .LVU108
 462 0000 143090E5 		ldr	r3, [r0, #20]
 463              		.loc 1 206 52 view .LVU109
 464 0004 70402DE9 		push	{r4, r5, r6, lr}
 465              		.cfi_def_cfa_offset 16
 466              		.cfi_offset 4, -16
 467              		.cfi_offset 5, -12
 468              		.cfi_offset 6, -8
 469              		.cfi_offset 14, -4
 470              		.loc 1 211 6 view .LVU110
 471 0008 000053E3 		cmp	r3, #0
 472              		.loc 1 206 52 view .LVU111
 473 000c 0040A0E1 		mov	r4, r0
 474 0010 0150A0E1 		mov	r5, r1
 475              		.loc 1 211 6 view .LVU112
 476 0014 0800000A 		beq	.L23
 477              	.LVL40:
 478              	.L20:
 479              		.loc 1 212 43 is_stmt 1 discriminator 1 view .LVU113
 480              		.loc 1 213 3 discriminator 1 view .LVU114
 481              		.loc 1 213 7 is_stmt 0 discriminator 1 view .LVU115
 482 0018 0510A0E1 		mov	r1, r5
 483 001c 0C0084E2 		add	r0, r4, #12
 484 0020 FEFFFFEB 		bl	chIQPutI
 485              	.LVL41:
 486              		.loc 1 213 6 discriminator 1 view .LVU116
 487 0024 000050E3 		cmp	r0, #0
 488 0028 7080BDA8 		popge	{r4, r5, r6, pc}
 489              		.loc 1 214 5 is_stmt 1 view .LVU117
 490 002c 040084E2 		add	r0, r4, #4
 491 0030 8010A0E3 		mov	r1, #128
 492              		.loc 1 215 1 is_stmt 0 view .LVU118
 493 0034 7040BDE8 		pop	{r4, r5, r6, lr}
 494              		.cfi_remember_state
 495              		.cfi_restore 14
 496              		.cfi_restore 6
 497              		.cfi_restore 5
 498              		.cfi_restore 4
 499              		.cfi_def_cfa_offset 0
 500              	.LVL42:
 501              		.loc 1 214 5 view .LVU119
 502 0038 FEFFFFEA 		b	chEvtBroadcastFlagsI
 503              	.LVL43:
 504              	.L23:
 505              		.cfi_restore_state
 506              		.loc 1 212 5 is_stmt 1 view .LVU120
 507 003c 0410A0E3 		mov	r1, #4
 508              	.LVL44:
 509              		.loc 1 212 5 is_stmt 0 view .LVU121
 510 0040 010080E0 		add	r0, r0, r1
 511              	.LVL45:
 512              		.loc 1 212 5 view .LVU122
 513 0044 FEFFFFEB 		bl	chEvtBroadcastFlagsI
ARM GAS  /tmp/ccRBrtkq.s 			page 10


 514              	.LVL46:
 515 0048 F2FFFFEA 		b	.L20
 516              		.cfi_endproc
 517              	.LFE19:
 518              		.size	sdIncomingDataI, .-sdIncomingDataI
 519              		.section	.text.sdRequestDataI,"ax",%progbits
 520              		.align	2
 521              		.global	sdRequestDataI
 522              		.syntax unified
 523              		.arm
 524              		.fpu softvfp
 525              		.type	sdRequestDataI, %function
 526              	sdRequestDataI:
 527              	.LVL47:
 528              	.LFB20:
 529              		.loc 1 232 41 is_stmt 1 view -0
 530              		.cfi_startproc
 531              		@ args = 0, pretend = 0, frame = 0
 532              		@ frame_needed = 0, uses_anonymous_args = 0
 533              		.loc 1 233 3 view .LVU124
 534              		.loc 1 235 3 view .LVU125
 535              		.loc 1 235 21 view .LVU126
 536              		.loc 1 236 3 view .LVU127
 537              		.loc 1 236 44 view .LVU128
 538              		.loc 1 238 3 view .LVU129
 539              		.loc 1 232 41 is_stmt 0 view .LVU130
 540 0000 70402DE9 		push	{r4, r5, r6, lr}
 541              		.cfi_def_cfa_offset 16
 542              		.cfi_offset 4, -16
 543              		.cfi_offset 5, -12
 544              		.cfi_offset 6, -8
 545              		.cfi_offset 14, -4
 546              		.loc 1 232 41 view .LVU131
 547 0004 0050A0E1 		mov	r5, r0
 548              		.loc 1 238 7 view .LVU132
 549 0008 300080E2 		add	r0, r0, #48
 550              	.LVL48:
 551              		.loc 1 238 7 view .LVU133
 552 000c FEFFFFEB 		bl	chOQGetI
 553              	.LVL49:
 554              		.loc 1 239 3 is_stmt 1 view .LVU134
 555              		.loc 1 239 6 is_stmt 0 view .LVU135
 556 0010 004050E2 		subs	r4, r0, #0
 557 0014 010000BA 		blt	.L27
 558              		.loc 1 242 1 view .LVU136
 559 0018 0400A0E1 		mov	r0, r4
 560              		.loc 1 242 1 view .LVU137
 561 001c 7080BDE8 		pop	{r4, r5, r6, pc}
 562              	.L27:
 563              		.loc 1 240 5 is_stmt 1 view .LVU138
 564 0020 040085E2 		add	r0, r5, #4
 565 0024 0810A0E3 		mov	r1, #8
 566 0028 FEFFFFEB 		bl	chEvtBroadcastFlagsI
 567              	.LVL50:
 568              		.loc 1 240 40 view .LVU139
 569              		.loc 1 241 3 view .LVU140
 570              		.loc 1 242 1 is_stmt 0 view .LVU141
ARM GAS  /tmp/ccRBrtkq.s 			page 11


 571 002c 0400A0E1 		mov	r0, r4
 572 0030 7080BDE8 		pop	{r4, r5, r6, pc}
 573              		.cfi_endproc
 574              	.LFE20:
 575              		.size	sdRequestDataI, .-sdRequestDataI
 576              		.section	.rodata.vmt,"a"
 577              		.align	2
 578              		.set	.LANCHOR0,. + 0
 579              		.type	vmt, %object
 580              		.size	vmt, 32
 581              	vmt:
 582 0000 00000000 		.word	write
 583 0004 00000000 		.word	read
 584 0008 00000000 		.word	put
 585 000c 00000000 		.word	get
 586 0010 00000000 		.word	putt
 587 0014 00000000 		.word	gett
 588 0018 00000000 		.word	writet
 589 001c 00000000 		.word	readt
 590              		.text
 591              	.Letext0:
 592              		.file 2 "/usr/lib/gcc/arm-none-eabi/11.2.0/include/stddef.h"
 593              		.file 3 "/usr/arm-none-eabi/include/machine/_default_types.h"
 594              		.file 4 "/usr/arm-none-eabi/include/sys/_stdint.h"
 595              		.file 5 "../../os/ports/GCC/ARM/chtypes.h"
 596              		.file 6 "../../os/kernel/include/chlists.h"
 597              		.file 7 "../../os/kernel/include/chthreads.h"
 598              		.file 8 "../../os/ports/GCC/ARM/chcore.h"
 599              		.file 9 "../../os/kernel/include/chmtx.h"
 600              		.file 10 "../../os/kernel/include/chevents.h"
 601              		.file 11 "../../os/kernel/include/chqueues.h"
 602              		.file 12 "../../os/hal/include/serial.h"
 603              		.file 13 "../../os/hal/platforms/BCM2835/serial_lld.h"
 604              		.file 14 "../../os/kernel/include/chschd.h"