ARM GAS  /tmp/ccRBrtkq.s 			page 1


   1              		.cpu arm1176jz-s
   2              		.eabi_attribute 20, 1
   3              		.eabi_attribute 21, 1
   4              		.eabi_attribute 23, 3
   5              		.eabi_attribute 24, 1
   6              		.eabi_attribute 25, 1
   7              		.eabi_attribute 26, 1
   8              		.eabi_attribute 30, 2
   9              		.eabi_attribute 34, 1
  10              		.eabi_attribute 18, 4
  11              		.file	"serial.c"
  12              		.text
  13              	.Ltext0:
  14              		.cfi_sections	.debug_frame
  15              		.section	.text.readt,"ax",%progbits
  16              		.align	2
  17              		.arch armv6kz
  18              		.syntax unified
  19              		.arm
  20              		.fpu softvfp
  21              		.type	readt, %function
  22              	readt:
  23              	.LVL0:
  24              	.LFB14:
  25              		.file 1 "../../os/hal/src/serial.c"
  26              		.loc 1 92 70 view -0
  27              		.cfi_startproc
  28              		@ args = 0, pretend = 0, frame = 0
  29              		@ frame_needed = 0, uses_anonymous_args = 0
  30              		@ link register save eliminated.
  31              		.loc 1 94 3 view .LVU1
  32              		.loc 1 94 10 is_stmt 0 view .LVU2
  33 0000 0C0080E2 		add	r0, r0, #12
  34              	.LVL1:
  35              		.loc 1 94 10 view .LVU3
  36 0004 FEFFFFEA 		b	chIQReadTimeout
  37              	.LVL2:
  38              		.loc 1 94 10 view .LVU4
  39              		.cfi_endproc
  40              	.LFE14:
  41              		.size	readt, .-readt
  42              		.section	.text.read,"ax",%progbits
  43              		.align	2
  44              		.syntax unified
  45              		.arm
  46              		.fpu softvfp
  47              		.type	read, %function
  48              	read:
  49              	.LVL3:
  50              	.LFB8:
  51              		.loc 1 61 53 is_stmt 1 view -0
  52              		.cfi_startproc
  53              		@ args = 0, pretend = 0, frame = 0
  54              		@ frame_needed = 0, uses_anonymous_args = 0
  55              		@ link register save eliminated.
  56              		.loc 1 63 3 view .LVU6
  57              		.loc 1 63 10 is_stmt 0 view .LVU7
ARM GAS  /tmp/ccRBrtkq.s 			page 2


  58 0000 0030E0E3 		mvn	r3, #0
  59 0004 0C0080E2 		add	r0, r0, #12
  60              	.LVL4:
  61              		.loc 1 63 10 view .LVU8
  62 0008 FEFFFFEA 		b	chIQReadTimeout
  63              	.LVL5:
  64              		.loc 1 63 10 view .LVU9
  65              		.cfi_endproc
  66              	.LFE8:
  67              		.size	read, .-read
  68              		.section	.text.writet,"ax",%progbits
  69              		.align	2
  70              		.syntax unified
  71              		.arm
  72              		.fpu softvfp
  73              		.type	writet, %function
  74              	writet:
  75              	.LVL6:
  76              	.LFB13:
  77              		.loc 1 87 77 is_stmt 1 view -0
  78              		.cfi_startproc
  79              		@ args = 0, pretend = 0, frame = 0
  80              		@ frame_needed = 0, uses_anonymous_args = 0
  81              		@ link register save eliminated.
  82              		.loc 1 89 3 view .LVU11
  83              		.loc 1 89 10 is_stmt 0 view .LVU12
  84 0000 300080E2 		add	r0, r0, #48
  85              	.LVL7:
  86              		.loc 1 89 10 view .LVU13
  87 0004 FEFFFFEA 		b	chOQWriteTimeout
  88              	.LVL8:
  89              		.loc 1 89 10 view .LVU14
  90              		.cfi_endproc
  91              	.LFE13:
  92              		.size	writet, .-writet
  93              		.section	.text.write,"ax",%progbits
  94              		.align	2
  95              		.syntax unified
  96              		.arm
  97              		.fpu softvfp
  98              		.type	write, %function
  99              	write:
 100              	.LVL9:
 101              	.LFB7:
 102              		.loc 1 55 60 is_stmt 1 view -0
 103              		.cfi_startproc
 104              		@ args = 0, pretend = 0, frame = 0
 105              		@ frame_needed = 0, uses_anonymous_args = 0
 106              		@ link register save eliminated.
 107              		.loc 1 57 3 view .LVU16
 108              		.loc 1 57 10 is_stmt 0 view .LVU17
 109 0000 0030E0E3 		mvn	r3, #0
 110 0004 300080E2 		add	r0, r0, #48
 111              	.LVL10:
 112              		.loc 1 57 10 view .LVU18
 113 0008 FEFFFFEA 		b	chOQWriteTimeout
 114              	.LVL11:
ARM GAS  /tmp/ccRBrtkq.s 			page 3


 115              		.loc 1 57 10 view .LVU19
 116              		.cfi_endproc
 117              	.LFE7:
 118              		.size	write, .-write
 119              		.section	.text.gett,"ax",%progbits
 120              		.align	2
 121              		.syntax unified
 122              		.arm
 123              		.fpu softvfp
 124              		.type	gett, %function
 125              	gett:
 126              	.LVL12:
 127              	.LFB12:
 128              		.loc 1 82 48 is_stmt 1 view -0
 129              		.cfi_startproc
 130              		@ args = 0, pretend = 0, frame = 0
 131              		@ frame_needed = 0, uses_anonymous_args = 0
 132              		@ link register save eliminated.
 133              		.loc 1 84 3 view .LVU21
 134              		.loc 1 84 10 is_stmt 0 view .LVU22
 135 0000 0C0080E2 		add	r0, r0, #12
 136              	.LVL13:
 137              		.loc 1 84 10 view .LVU23
 138 0004 FEFFFFEA 		b	chIQGetTimeout
 139              	.LVL14:
 140              		.loc 1 84 10 view .LVU24
 141              		.cfi_endproc
 142              	.LFE12:
 143              		.size	gett, .-gett
 144              		.section	.text.get,"ax",%progbits
 145              		.align	2
 146              		.syntax unified
 147              		.arm
 148              		.fpu softvfp
 149              		.type	get, %function
 150              	get:
 151              	.LVL15:
 152              	.LFB10:
 153              		.loc 1 72 28 is_stmt 1 view -0
 154              		.cfi_startproc
 155              		@ args = 0, pretend = 0, frame = 0
 156              		@ frame_needed = 0, uses_anonymous_args = 0
 157              		@ link register save eliminated.
 158              		.loc 1 74 3 view .LVU26
 159              		.loc 1 74 10 is_stmt 0 view .LVU27
 160 0000 0010E0E3 		mvn	r1, #0
 161 0004 0C0080E2 		add	r0, r0, #12
 162              	.LVL16:
 163              		.loc 1 74 10 view .LVU28
 164 0008 FEFFFFEA 		b	chIQGetTimeout
 165              	.LVL17:
 166              		.loc 1 74 10 view .LVU29
 167              		.cfi_endproc
 168              	.LFE10:
 169              		.size	get, .-get
 170              		.section	.text.putt,"ax",%progbits
 171              		.align	2
ARM GAS  /tmp/ccRBrtkq.s 			page 4


 172              		.syntax unified
 173              		.arm
 174              		.fpu softvfp
 175              		.type	putt, %function
 176              	putt:
 177              	.LVL18:
 178              	.LFB11:
 179              		.loc 1 77 59 is_stmt 1 view -0
 180              		.cfi_startproc
 181              		@ args = 0, pretend = 0, frame = 0
 182              		@ frame_needed = 0, uses_anonymous_args = 0
 183              		@ link register save eliminated.
 184              		.loc 1 79 3 view .LVU31
 185              		.loc 1 79 10 is_stmt 0 view .LVU32
 186 0000 300080E2 		add	r0, r0, #48
 187              	.LVL19:
 188              		.loc 1 79 10 view .LVU33
 189 0004 FEFFFFEA 		b	chOQPutTimeout
 190              	.LVL20:
 191              		.loc 1 79 10 view .LVU34
 192              		.cfi_endproc
 193              	.LFE11:
 194              		.size	putt, .-putt
 195              		.section	.text.put,"ax",%progbits
 196              		.align	2
 197              		.syntax unified
 198              		.arm
 199              		.fpu softvfp
 200              		.type	put, %function
 201              	put:
 202              	.LVL21:
 203              	.LFB9:
 204              		.loc 1 67 39 is_stmt 1 view -0
 205              		.cfi_startproc
 206              		@ args = 0, pretend = 0, frame = 0
 207              		@ frame_needed = 0, uses_anonymous_args = 0
 208              		@ link register save eliminated.
 209              		.loc 1 69 3 view .LVU36
 210              		.loc 1 69 10 is_stmt 0 view .LVU37
 211 0000 0020E0E3 		mvn	r2, #0
 212 0004 300080E2 		add	r0, r0, #48
 213              	.LVL22:
 214              		.loc 1 69 10 view .LVU38
 215 0008 FEFFFFEA 		b	chOQPutTimeout
 216              	.LVL23:
 217              		.loc 1 69 10 view .LVU39
 218              		.cfi_endproc
 219              	.LFE9:
 220              		.size	put, .-put
 221              		.section	.text.sdInit,"ax",%progbits
 222              		.align	2
 223              		.global	sdInit
 224              		.syntax unified
 225              		.arm
 226              		.fpu softvfp
 227              		.type	sdInit, %function
 228              	sdInit:
ARM GAS  /tmp/ccRBrtkq.s 			page 5


 229              	.LFB15:
 230              		.loc 1 113 19 is_stmt 1 view -0
 231              		.cfi_startproc
 232              		@ args = 0, pretend = 0, frame = 0
 233              		@ frame_needed = 0, uses_anonymous_args = 0
 234              		@ link register save eliminated.
 235              		.loc 1 115 3 view .LVU41
 236 0000 FEFFFFEA 		b	sd_lld_init
 237              	.LVL24:
 238              		.cfi_endproc
 239              	.LFE15:
 240              		.size	sdInit, .-sdInit
 241              		.section	.text.sdObjectInit,"ax",%progbits
 242              		.align	2
 243              		.global	sdObjectInit
 244              		.syntax unified
 245              		.arm
 246              		.fpu softvfp
 247              		.type	sdObjectInit, %function
 248              	sdObjectInit:
 249              	.LVL25:
 250              	.LFB16:
 251              		.loc 1 133 76 view -0
 252              		.cfi_startproc
 253              		@ args = 0, pretend = 0, frame = 0
 254              		@ frame_needed = 0, uses_anonymous_args = 0
 255              		.loc 1 135 3 view .LVU43
 256              		.loc 1 133 76 is_stmt 0 view .LVU44
 257 0000 0130A0E1 		mov	r3, r1
 258              		.loc 1 135 12 view .LVU45
 259 0004 0010A0E1 		mov	r1, r0
 260              	.LVL26:
 261              		.loc 1 137 14 view .LVU46
 262 0008 01C0A0E3 		mov	ip, #1
 263              		.loc 1 133 76 view .LVU47
 264 000c 30402DE9 		push	{r4, r5, lr}
 265              		.cfi_def_cfa_offset 12
 266              		.cfi_offset 4, -12
 267              		.cfi_offset 5, -8
 268              		.cfi_offset 14, -4
 269 0010 0040A0E1 		mov	r4, r0
 270 0014 0250A0E1 		mov	r5, r2
 271              		.loc 1 135 12 view .LVU48
 272 0018 40E09FE5 		ldr	lr, .L13
 273              		.loc 1 133 76 view .LVU49
 274 001c 0CD04DE2 		sub	sp, sp, #12
 275              		.cfi_def_cfa_offset 24
 276              		.loc 1 138 3 view .LVU50
 277 0020 00008DE5 		str	r0, [sp]
 278              		.loc 1 135 12 view .LVU51
 279 0024 04E081E4 		str	lr, [r1], #4
 280              		.loc 1 136 3 is_stmt 1 view .LVU52
 281 0028 041080E5 		str	r1, [r0, #4]
 282              		.loc 1 137 3 view .LVU53
 283              		.loc 1 137 14 is_stmt 0 view .LVU54
 284 002c 08C0C0E5 		strb	ip, [r0, #8]
 285              		.loc 1 138 3 is_stmt 1 view .LVU55
ARM GAS  /tmp/ccRBrtkq.s 			page 6


 286 0030 541080E2 		add	r1, r0, #84
 287 0034 1020A0E3 		mov	r2, #16
 288              	.LVL27:
 289              		.loc 1 138 3 is_stmt 0 view .LVU56
 290 0038 0C0080E2 		add	r0, r0, #12
 291              	.LVL28:
 292              		.loc 1 138 3 view .LVU57
 293 003c FEFFFFEB 		bl	chIQInit
 294              	.LVL29:
 295              		.loc 1 139 3 is_stmt 1 view .LVU58
 296 0040 0530A0E1 		mov	r3, r5
 297 0044 1020A0E3 		mov	r2, #16
 298 0048 00408DE5 		str	r4, [sp]
 299 004c 641084E2 		add	r1, r4, #100
 300 0050 300084E2 		add	r0, r4, #48
 301 0054 FEFFFFEB 		bl	chOQInit
 302              	.LVL30:
 303              		.loc 1 140 1 is_stmt 0 view .LVU59
 304 0058 0CD08DE2 		add	sp, sp, #12
 305              		.cfi_def_cfa_offset 12
 306              		@ sp needed
 307 005c 3080BDE8 		pop	{r4, r5, pc}
 308              	.LVL31:
 309              	.L14:
 310              		.loc 1 140 1 view .LVU60
 311              		.align	2
 312              	.L13:
 313 0060 00000000 		.word	.LANCHOR0
 314              		.cfi_endproc
 315              	.LFE16:
 316              		.size	sdObjectInit, .-sdObjectInit
 317              		.section	.text.sdStart,"ax",%progbits
 318              		.align	2
 319              		.global	sdStart
 320              		.syntax unified
 321              		.arm
 322              		.fpu softvfp
 323              		.type	sdStart, %function
 324              	sdStart:
 325              	.LVL32:
 326              	.LFB17:
 327              		.loc 1 152 61 is_stmt 1 view -0
 328              		.cfi_startproc
 329              		@ args = 0, pretend = 0, frame = 0
 330              		@ frame_needed = 0, uses_anonymous_args = 0
 331              		.loc 1 154 3 view .LVU62
 332              		.loc 1 154 37 view .LVU63
 333              		.loc 1 156 3 view .LVU64
 334              		.loc 1 152 61 is_stmt 0 view .LVU65
 335 0000 10402DE9 		push	{r4, lr}
 336              		.cfi_def_cfa_offset 8
 337              		.cfi_offset 4, -8
 338              		.cfi_offset 14, -4
 339              		.loc 1 152 61 view .LVU66
 340 0004 0040A0E1 		mov	r4, r0
 341              		.loc 1 156 3 view .LVU67
 342              		.syntax divided
ARM GAS  /tmp/ccRBrtkq.s 			page 7


 343              	@ 156 "../../os/hal/src/serial.c" 1
 344 0008 9FF021E3 		msr     CPSR_c, #0x9F
 345              	@ 0 "" 2
 346              		.loc 1 156 3 is_stmt 1 view .LVU68
 347              		.loc 1 156 14 view .LVU69
 348              		.loc 1 157 3 view .LVU70
 349              		.loc 1 159 31 view .LVU71
 350              		.loc 1 160 3 view .LVU72
 351              		.arm
 352              		.syntax unified
 353 000c FEFFFFEB 		bl	sd_lld_start
 354              	.LVL33:
 355              		.loc 1 161 3 view .LVU73
 356              		.loc 1 161 14 is_stmt 0 view .LVU74
 357 0010 0230A0E3 		mov	r3, #2
 358 0014 0830C4E5 		strb	r3, [r4, #8]
 359              		.loc 1 162 3 is_stmt 1 view .LVU75
 360              		.loc 1 162 3 view .LVU76
 361              		.syntax divided
 362              	@ 162 "../../os/hal/src/serial.c" 1
 363 0018 1FF021E3 		msr     CPSR_c, #0x1F
 364              	@ 0 "" 2
 365              		.loc 1 162 16 view .LVU77
 366              		.loc 1 163 1 is_stmt 0 view .LVU78
 367              		.arm
 368              		.syntax unified
 369 001c 1080BDE8 		pop	{r4, pc}
 370              		.cfi_endproc
 371              	.LFE17:
 372              		.size	sdStart, .-sdStart
 373              		.section	.text.sdStop,"ax",%progbits
 374              		.align	2
 375              		.global	sdStop
 376              		.syntax unified
 377              		.arm
 378              		.fpu softvfp
 379              		.type	sdStop, %function
 380              	sdStop:
 381              	.LVL34:
 382              	.LFB18:
 383              		.loc 1 174 32 is_stmt 1 view -0
 384              		.cfi_startproc
 385              		@ args = 0, pretend = 0, frame = 0
 386              		@ frame_needed = 0, uses_anonymous_args = 0
 387              		.loc 1 176 3 view .LVU80
 388              		.loc 1 176 36 view .LVU81
 389              		.loc 1 178 3 view .LVU82
 390              		.loc 1 174 32 is_stmt 0 view .LVU83
 391 0000 10402DE9 		push	{r4, lr}
 392              		.cfi_def_cfa_offset 8
 393              		.cfi_offset 4, -8
 394              		.cfi_offset 14, -4
 395              		.loc 1 174 32 view .LVU84
 396 0004 0040A0E1 		mov	r4, r0
 397              		.loc 1 178 3 view .LVU85
 398              		.syntax divided
 399              	@ 178 "../../os/hal/src/serial.c" 1
ARM GAS  /tmp/ccRBrtkq.s 			page 8


 400 0008 9FF021E3 		msr     CPSR_c, #0x9F
 401              	@ 0 "" 2
 402              		.loc 1 178 3 is_stmt 1 view .LVU86
 403              		.loc 1 178 14 view .LVU87
 404              		.loc 1 179 3 view .LVU88
 405              		.loc 1 181 31 view .LVU89
 406              		.loc 1 182 3 view .LVU90
 407              		.arm
 408              		.syntax unified
 409 000c FEFFFFEB 		bl	sd_lld_stop
 410              	.LVL35:
 411              		.loc 1 183 3 view .LVU91
 412              		.loc 1 183 14 is_stmt 0 view .LVU92
 413 0010 0130A0E3 		mov	r3, #1
 414              		.loc 1 184 3 view .LVU93
 415 0014 300084E2 		add	r0, r4, #48
 416              		.loc 1 183 14 view .LVU94
 417 0018 0830C4E5 		strb	r3, [r4, #8]
 418              		.loc 1 184 3 is_stmt 1 view .LVU95
 419 001c FEFFFFEB 		bl	chOQResetI
 420              	.LVL36:
 421              		.loc 1 185 3 view .LVU96
 422 0020 0C0084E2 		add	r0, r4, #12
 423 0024 FEFFFFEB 		bl	chIQResetI
 424              	.LVL37:
 425              		.loc 1 186 3 view .LVU97
 426 0028 FEFFFFEB 		bl	chSchRescheduleS
 427              	.LVL38:
 428              		.loc 1 187 3 view .LVU98
 429              		.loc 1 187 3 view .LVU99
 430              		.syntax divided
 431              	@ 187 "../../os/hal/src/serial.c" 1
 432 002c 1FF021E3 		msr     CPSR_c, #0x1F
 433              	@ 0 "" 2
 434              		.loc 1 187 16 view .LVU100
 435              		.loc 1 188 1 is_stmt 0 view .LVU101
 436              		.arm
 437              		.syntax unified
 438 0030 1080BDE8 		pop	{r4, pc}
 439              		.cfi_endproc
 440              	.LFE18:
 441              		.size	sdStop, .-sdStop
 442              		.section	.text.sdIncomingDataI,"ax",%progbits
 443              		.align	2
 444              		.global	sdIncomingDataI
 445              		.syntax unified
 446              		.arm
 447              		.fpu softvfp
 448              		.type	sdIncomingDataI, %function
 449              	sdIncomingDataI:
 450              	.LVL39:
 451              	.LFB19:
 452              		.loc 1 206 52 is_stmt 1 view -0
 453              		.cfi_startproc
 454              		@ args = 0, pretend = 0, frame = 0
 455              		@ frame_needed = 0, uses_anonymous_args = 0
 456              		.loc 1 208 3 view .LVU103
ARM GAS  /tmp/ccRBrtkq.s 			page 9


 457              		.loc 1 208 21 view .LVU104
 458              		.loc 1 209 3 view .LVU105
 459              		.loc 1 209 45 view .LVU106
 460              		.loc 1 211 3 view .LVU107
 461              		.loc 1 211 6 is_stmt 0 view .LVU108
 462 0000 143090E5 		ldr	r3, [r0, #20]
 463              		.loc 1 206 52 view .LVU109
 464 0004 70402DE9 		push	{r4, r5, r6, lr}
 465              		.cfi_def_cfa_offset 16
 466              		.cfi_offset 4, -16
 467              		.cfi_offset 5, -12
 468              		.cfi_offset 6, -8
 469              		.cfi_offset 14, -4
 470              		.loc 1 211 6 view .LVU110
 471 0008 000053E3 		cmp	r3, #0
 472              		.loc 1 206 52 view .LVU111
 473 000c 0040A0E1 		mov	r4, r0
 474 0010 0150A0E1 		mov	r5, r1
 475              		.loc 1 211 6 view .LVU112
 476 0014 0800000A 		beq	.L23
 477              	.LVL40:
 478              	.L20:
 479              		.loc 1 212 43 is_stmt 1 discriminator 1 view .LVU113
 480              		.loc 1 213 3 discriminator 1 view .LVU114
 481              		.loc 1 213 7 is_stmt 0 discriminator 1 view .LVU115
 482 0018 0510A0E1 		mov	r1, r5
 483 001c 0C0084E2 		add	r0, r4, #12
 484 0020 FEFFFFEB 		bl	chIQPutI
 485              	.LVL41:
 486              		.loc 1 213 6 discriminator 1 view .LVU116
 487 0024 000050E3 		cmp	r0, #0
 488 0028 7080BDA8 		popge	{r4, r5, r6, pc}
 489              		.loc 1 214 5 is_stmt 1 view .LVU117
 490 002c 040084E2 		add	r0, r4, #4
 491 0030 8010A0E3 		mov	r1, #128
 492              		.loc 1 215 1 is_stmt 0 view .LVU118
 493 0034 7040BDE8 		pop	{r4, r5, r6, lr}
 494              		.cfi_remember_state
 495              		.cfi_restore 14
 496              		.cfi_restore 6
 497              		.cfi_restore 5
 498              		.cfi_restore 4
 499              		.cfi_def_cfa_offset 0
 500              	.LVL42:
 501              		.loc 1 214 5 view .LVU119
 502 0038 FEFFFFEA 		b	chEvtBroadcastFlagsI
 503              	.LVL43:
 504              	.L23:
 505              		.cfi_restore_state
 506              		.loc 1 212 5 is_stmt 1 view .LVU120
 507 003c 0410A0E3 		mov	r1, #4
 508              	.LVL44:
 509              		.loc 1 212 5 is_stmt 0 view .LVU121
 510 0040 010080E0 		add	r0, r0, r1
 511              	.LVL45:
 512              		.loc 1 212 5 view .LVU122
 513 0044 FEFFFFEB 		bl	chEvtBroadcastFlagsI
ARM GAS  /tmp/ccRBrtkq.s 			page 10


 514              	.LVL46:
 515 0048 F2FFFFEA 		b	.L20
 516              		.cfi_endproc
 517              	.LFE19:
 518              		.size	sdIncomingDataI, .-sdIncomingDataI
 519              		.section	.text.sdRequestDataI,"ax",%progbits
 520              		.align	2
 521              		.global	sdRequestDataI
 522              		.syntax unified
 523              		.arm
 524              		.fpu softvfp
 525              		.type	sdRequestDataI, %function
 526              	sdRequestDataI:
 527              	.LVL47:
 528              	.LFB20:
 529              		.loc 1 232 41 is_stmt 1 view -0
 530              		.cfi_startproc
 531              		@ args = 0, pretend = 0, frame = 0
 532              		@ frame_needed = 0, uses_anonymous_args = 0
 533              		.loc 1 233 3 view .LVU124
 534              		.loc 1 235 3 view .LVU125
 535              		.loc 1 235 21 view .LVU126
 536              		.loc 1 236 3 view .LVU127
 537              		.loc 1 236 44 view .LVU128
 538              		.loc 1 238 3 view .LVU129
 539              		.loc 1 232 41 is_stmt 0 view .LVU130
 540 0000 70402DE9 		push	{r4, r5, r6, lr}
 541              		.cfi_def_cfa_offset 16
 542              		.cfi_offset 4, -16
 543              		.cfi_offset 5, -12
 544              		.cfi_offset 6, -8
 545              		.cfi_offset 14, -4
 546              		.loc 1 232 41 view .LVU131
 547 0004 0050A0E1 		mov	r5, r0
 548              		.loc 1 238 7 view .LVU132
 549 0008 300080E2 		add	r0, r0, #48
 550              	.LVL48:
 551              		.loc 1 238 7 view .LVU133
 552 000c FEFFFFEB 		bl	chOQGetI
 553              	.LVL49:
 554              		.loc 1 239 3 is_stmt 1 view .LVU134
 555              		.loc 1 239 6 is_stmt 0 view .LVU135
 556 0010 004050E2 		subs	r4, r0, #0
 557 0014 010000BA 		blt	.L27
 558              		.loc 1 242 1 view .LVU136
 559 0018 0400A0E1 		mov	r0, r4
 560              		.loc 1 242 1 view .LVU137
 561 001c 7080BDE8 		pop	{r4, r5, r6, pc}
 562              	.L27:
 563              		.loc 1 240 5 is_stmt 1 view .LVU138
 564 0020 040085E2 		add	r0, r5, #4
 565 0024 0810A0E3 		mov	r1, #8
 566 0028 FEFFFFEB 		bl	chEvtBroadcastFlagsI
 567              	.LVL50:
 568              		.loc 1 240 40 view .LVU139
 569              		.loc 1 241 3 view .LVU140
 570              		.loc 1 242 1 is_stmt 0 view .LVU141
ARM GAS  /tmp/ccRBrtkq.s 			page 11


 571 002c 0400A0E1 		mov	r0, r4
 572 0030 7080BDE8 		pop	{r4, r5, r6, pc}
 573              		.cfi_endproc
 574              	.LFE20:
 575              		.size	sdRequestDataI, .-sdRequestDataI
 576              		.section	.rodata.vmt,"a"
 577              		.align	2
 578              		.set	.LANCHOR0,. + 0
 579              		.type	vmt, %object
 580              		.size	vmt, 32
 581              	vmt:
 582 0000 00000000 		.word	write
 583 0004 00000000 		.word	read
 584 0008 00000000 		.word	put
 585 000c 00000000 		.word	get
 586 0010 00000000 		.word	putt
 587 0014 00000000 		.word	gett
 588 0018 00000000 		.word	writet
 589 001c 00000000 		.word	readt
 590              		.text
 591              	.Letext0:
 592              		.file 2 "/usr/lib/gcc/arm-none-eabi/11.2.0/include/stddef.h"
 593              		.file 3 "/usr/arm-none-eabi/include/machine/_default_types.h"
 594              		.file 4 "/usr/arm-none-eabi/include/sys/_stdint.h"
 595              		.file 5 "../../os/ports/GCC/ARM/chtypes.h"
 596              		.file 6 "../../os/kernel/include/chlists.h"
 597              		.file 7 "../../os/kernel/include/chthreads.h"
 598              		.file 8 "../../os/ports/GCC/ARM/chcore.h"
 599              		.file 9 "../../os/kernel/include/chmtx.h"
 600              		.file 10 "../../os/kernel/include/chevents.h"
 601              		.file 11 "../../os/kernel/include/chqueues.h"
 602              		.file 12 "../../os/hal/include/serial.h"
 603              		.file 13 "../../os/hal/platforms/BCM2835/serial_lld.h"
 604              		.file 14 "../../os/kernel/include/chschd.h"
 605              		.section	.debug_info,"",%progbits
 606              	.Ldebug_info0:
 607 0000 B80E0000 		.4byte	0xeb8
 608 0004 0500     		.2byte	0x5
 609 0006 01       		.byte	0x1
 610 0007 04       		.byte	0x4
 611 0008 00000000 		.4byte	.Ldebug_abbrev0
 612 000c 1A       		.uleb128 0x1a
 613 000d F0000000 		.4byte	.LASF121
 614 0011 1D       		.byte	0x1d
 615 0012 F6010000 		.4byte	.LASF122
 616 0016 C1030000 		.4byte	.LASF123
 617 001a 0C000000 		.4byte	.LLRL32
 618 001e 00000000 		.4byte	0
 619 0022 00000000 		.4byte	.Ldebug_line0
 620 0026 1B       		.uleb128 0x1b
 621 0027 04       		.byte	0x4
 622 0028 05       		.byte	0x5
 623 0029 696E7400 		.ascii	"int\000"
 624 002d 04       		.uleb128 0x4
 625 002e 51020000 		.4byte	.LASF2
 626 0032 02       		.byte	0x2
 627 0033 D1       		.byte	0xd1
ARM GAS  /tmp/ccRBrtkq.s 			page 12


 628 0034 17       		.byte	0x17
 629 0035 39000000 		.4byte	0x39
 630 0039 08       		.uleb128 0x8
 631 003a 04       		.byte	0x4
 632 003b 07       		.byte	0x7
 633 003c 6D000000 		.4byte	.LASF0
 634 0040 08       		.uleb128 0x8
 635 0041 01       		.byte	0x1
 636 0042 06       		.byte	0x6
 637 0043 2C050000 		.4byte	.LASF1
 638 0047 04       		.uleb128 0x4
 639 0048 51040000 		.4byte	.LASF3
 640 004c 03       		.byte	0x3
 641 004d 2B       		.byte	0x2b
 642 004e 18       		.byte	0x18
 643 004f 53000000 		.4byte	0x53
 644 0053 08       		.uleb128 0x8
 645 0054 01       		.byte	0x1
 646 0055 08       		.byte	0x8
 647 0056 D6040000 		.4byte	.LASF4
 648 005a 08       		.uleb128 0x8
 649 005b 02       		.byte	0x2
 650 005c 05       		.byte	0x5
 651 005d 16040000 		.4byte	.LASF5
 652 0061 08       		.uleb128 0x8
 653 0062 02       		.byte	0x2
 654 0063 07       		.byte	0x7
 655 0064 3E050000 		.4byte	.LASF6
 656 0068 04       		.uleb128 0x4
 657 0069 9B000000 		.4byte	.LASF7
 658 006d 03       		.byte	0x3
 659 006e 4D       		.byte	0x4d
 660 006f 18       		.byte	0x18
 661 0070 74000000 		.4byte	0x74
 662 0074 08       		.uleb128 0x8
 663 0075 04       		.byte	0x4
 664 0076 05       		.byte	0x5
 665 0077 33040000 		.4byte	.LASF8
 666 007b 04       		.uleb128 0x4
 667 007c E4040000 		.4byte	.LASF9
 668 0080 03       		.byte	0x3
 669 0081 4F       		.byte	0x4f
 670 0082 19       		.byte	0x19
 671 0083 87000000 		.4byte	0x87
 672 0087 08       		.uleb128 0x8
 673 0088 04       		.byte	0x4
 674 0089 07       		.byte	0x7
 675 008a B1040000 		.4byte	.LASF10
 676 008e 08       		.uleb128 0x8
 677 008f 08       		.byte	0x8
 678 0090 05       		.byte	0x5
 679 0091 21030000 		.4byte	.LASF11
 680 0095 08       		.uleb128 0x8
 681 0096 08       		.byte	0x8
 682 0097 07       		.byte	0x7
 683 0098 DF010000 		.4byte	.LASF12
 684 009c 04       		.uleb128 0x4
ARM GAS  /tmp/ccRBrtkq.s 			page 13


 685 009d 03030000 		.4byte	.LASF13
 686 00a1 04       		.byte	0x4
 687 00a2 18       		.byte	0x18
 688 00a3 13       		.byte	0x13
 689 00a4 47000000 		.4byte	0x47
 690 00a8 11       		.uleb128 0x11
 691 00a9 9C000000 		.4byte	0x9c
 692 00ad 04       		.uleb128 0x4
 693 00ae C3040000 		.4byte	.LASF14
 694 00b2 04       		.byte	0x4
 695 00b3 2C       		.byte	0x2c
 696 00b4 13       		.byte	0x13
 697 00b5 68000000 		.4byte	0x68
 698 00b9 04       		.uleb128 0x4
 699 00ba 96010000 		.4byte	.LASF15
 700 00be 04       		.byte	0x4
 701 00bf 30       		.byte	0x30
 702 00c0 14       		.byte	0x14
 703 00c1 7B000000 		.4byte	0x7b
 704 00c5 04       		.uleb128 0x4
 705 00c6 67020000 		.4byte	.LASF16
 706 00ca 05       		.byte	0x5
 707 00cb 29       		.byte	0x29
 708 00cc 19       		.byte	0x19
 709 00cd AD000000 		.4byte	0xad
 710 00d1 04       		.uleb128 0x4
 711 00d2 9E030000 		.4byte	.LASF17
 712 00d6 05       		.byte	0x5
 713 00d7 2A       		.byte	0x2a
 714 00d8 19       		.byte	0x19
 715 00d9 9C000000 		.4byte	0x9c
 716 00dd 04       		.uleb128 0x4
 717 00de D5020000 		.4byte	.LASF18
 718 00e2 05       		.byte	0x5
 719 00e3 2B       		.byte	0x2b
 720 00e4 19       		.byte	0x19
 721 00e5 9C000000 		.4byte	0x9c
 722 00e9 04       		.uleb128 0x4
 723 00ea 9B040000 		.4byte	.LASF19
 724 00ee 05       		.byte	0x5
 725 00ef 2C       		.byte	0x2c
 726 00f0 19       		.byte	0x19
 727 00f1 9C000000 		.4byte	0x9c
 728 00f5 04       		.uleb128 0x4
 729 00f6 70030000 		.4byte	.LASF20
 730 00fa 05       		.byte	0x5
 731 00fb 2D       		.byte	0x2d
 732 00fc 19       		.byte	0x19
 733 00fd 9C000000 		.4byte	0x9c
 734 0101 04       		.uleb128 0x4
 735 0102 D7010000 		.4byte	.LASF21
 736 0106 05       		.byte	0x5
 737 0107 2E       		.byte	0x2e
 738 0108 19       		.byte	0x19
 739 0109 B9000000 		.4byte	0xb9
 740 010d 04       		.uleb128 0x4
 741 010e 47030000 		.4byte	.LASF22
ARM GAS  /tmp/ccRBrtkq.s 			page 14


 742 0112 05       		.byte	0x5
 743 0113 2F       		.byte	0x2f
 744 0114 19       		.byte	0x19
 745 0115 AD000000 		.4byte	0xad
 746 0119 04       		.uleb128 0x4
 747 011a AE010000 		.4byte	.LASF23
 748 011e 05       		.byte	0x5
 749 011f 31       		.byte	0x31
 750 0120 19       		.byte	0x19
 751 0121 B9000000 		.4byte	0xb9
 752 0125 04       		.uleb128 0x4
 753 0126 0B030000 		.4byte	.LASF24
 754 012a 05       		.byte	0x5
 755 012b 32       		.byte	0x32
 756 012c 19       		.byte	0x19
 757 012d B9000000 		.4byte	0xb9
 758 0131 04       		.uleb128 0x4
 759 0132 50000000 		.4byte	.LASF25
 760 0136 05       		.byte	0x5
 761 0137 33       		.byte	0x33
 762 0138 19       		.byte	0x19
 763 0139 B9000000 		.4byte	0xb9
 764 013d 1C       		.uleb128 0x1c
 765 013e 31010000 		.4byte	0x131
 766 0142 04       		.uleb128 0x4
 767 0143 CE020000 		.4byte	.LASF26
 768 0147 06       		.byte	0x6
 769 0148 23       		.byte	0x23
 770 0149 17       		.byte	0x17
 771 014a 4E010000 		.4byte	0x14e
 772 014e 09       		.uleb128 0x9
 773 014f CE020000 		.4byte	.LASF26
 774 0153 44       		.byte	0x44
 775 0154 07       		.byte	0x7
 776 0155 57       		.byte	0x57
 777 0156 08       		.byte	0x8
 778 0157 53020000 		.4byte	0x253
 779 015b 02       		.uleb128 0x2
 780 015c 44040000 		.4byte	.LASF27
 781 0160 07       		.byte	0x7
 782 0161 58       		.byte	0x58
 783 0162 1A       		.byte	0x1a
 784 0163 76020000 		.4byte	0x276
 785 0167 00       		.byte	0
 786 0168 02       		.uleb128 0x2
 787 0169 94040000 		.4byte	.LASF28
 788 016d 07       		.byte	0x7
 789 016e 5A       		.byte	0x5a
 790 016f 1A       		.byte	0x1a
 791 0170 76020000 		.4byte	0x276
 792 0174 04       		.byte	0x4
 793 0175 02       		.uleb128 0x2
 794 0176 49000000 		.4byte	.LASF29
 795 017a 07       		.byte	0x7
 796 017b 5C       		.byte	0x5c
 797 017c 19       		.byte	0x19
 798 017d 01010000 		.4byte	0x101
ARM GAS  /tmp/ccRBrtkq.s 			page 15


 799 0181 08       		.byte	0x8
 800 0182 02       		.uleb128 0x2
 801 0183 4B040000 		.4byte	.LASF30
 802 0187 07       		.byte	0x7
 803 0188 5D       		.byte	0x5d
 804 0189 19       		.byte	0x19
 805 018a 33030000 		.4byte	0x333
 806 018e 0C       		.byte	0xc
 807 018f 02       		.uleb128 0x2
 808 0190 2E020000 		.4byte	.LASF31
 809 0194 07       		.byte	0x7
 810 0195 5F       		.byte	0x5f
 811 0196 1A       		.byte	0x1a
 812 0197 76020000 		.4byte	0x276
 813 019b 10       		.byte	0x10
 814 019c 02       		.uleb128 0x2
 815 019d F3020000 		.4byte	.LASF32
 816 01a1 07       		.byte	0x7
 817 01a2 60       		.byte	0x60
 818 01a3 1A       		.byte	0x1a
 819 01a4 76020000 		.4byte	0x276
 820 01a8 14       		.byte	0x14
 821 01a9 02       		.uleb128 0x2
 822 01aa A2020000 		.4byte	.LASF33
 823 01ae 07       		.byte	0x7
 824 01af 67       		.byte	0x67
 825 01b0 1A       		.byte	0x1a
 826 01b1 49040000 		.4byte	0x449
 827 01b5 18       		.byte	0x18
 828 01b6 02       		.uleb128 0x2
 829 01b7 FB020000 		.4byte	.LASF34
 830 01bb 07       		.byte	0x7
 831 01bc 72       		.byte	0x72
 832 01bd 19       		.byte	0x19
 833 01be DD000000 		.4byte	0xdd
 834 01c2 1C       		.byte	0x1c
 835 01c3 02       		.uleb128 0x2
 836 01c4 61030000 		.4byte	.LASF35
 837 01c8 07       		.byte	0x7
 838 01c9 76       		.byte	0x76
 839 01ca 19       		.byte	0x19
 840 01cb D1000000 		.4byte	0xd1
 841 01cf 1D       		.byte	0x1d
 842 01d0 02       		.uleb128 0x2
 843 01d1 EF040000 		.4byte	.LASF36
 844 01d5 07       		.byte	0x7
 845 01d6 7B       		.byte	0x7b
 846 01d7 19       		.byte	0x19
 847 01d8 E9000000 		.4byte	0xe9
 848 01dc 1E       		.byte	0x1e
 849 01dd 02       		.uleb128 0x2
 850 01de 0D050000 		.4byte	.LASF37
 851 01e2 07       		.byte	0x7
 852 01e3 81       		.byte	0x81
 853 01e4 19       		.byte	0x19
 854 01e5 F5000000 		.4byte	0xf5
 855 01e9 1F       		.byte	0x1f
ARM GAS  /tmp/ccRBrtkq.s 			page 16


 856 01ea 02       		.uleb128 0x2
 857 01eb 2A000000 		.4byte	.LASF38
 858 01ef 07       		.byte	0x7
 859 01f0 88       		.byte	0x88
 860 01f1 19       		.byte	0x19
 861 01f2 3D010000 		.4byte	0x13d
 862 01f6 20       		.byte	0x20
 863 01f7 07       		.uleb128 0x7
 864 01f8 705F7500 		.ascii	"p_u\000"
 865 01fc 07       		.byte	0x7
 866 01fd AD       		.byte	0xad
 867 01fe 19       		.byte	0x19
 868 01ff 13040000 		.4byte	0x413
 869 0203 24       		.byte	0x24
 870 0204 02       		.uleb128 0x2
 871 0205 0C000000 		.4byte	.LASF39
 872 0209 07       		.byte	0x7
 873 020a B2       		.byte	0xb2
 874 020b 19       		.byte	0x19
 875 020c 9D020000 		.4byte	0x29d
 876 0210 28       		.byte	0x28
 877 0211 02       		.uleb128 0x2
 878 0212 62000000 		.4byte	.LASF40
 879 0216 07       		.byte	0x7
 880 0217 B8       		.byte	0xb8
 881 0218 19       		.byte	0x19
 882 0219 7B020000 		.4byte	0x27b
 883 021d 2C       		.byte	0x2c
 884 021e 02       		.uleb128 0x2
 885 021f 98030000 		.4byte	.LASF41
 886 0223 07       		.byte	0x7
 887 0224 BC       		.byte	0xbc
 888 0225 19       		.byte	0x19
 889 0226 0D010000 		.4byte	0x10d
 890 022a 34       		.byte	0x34
 891 022b 02       		.uleb128 0x2
 892 022c 20040000 		.4byte	.LASF42
 893 0230 07       		.byte	0x7
 894 0231 C2       		.byte	0xc2
 895 0232 19       		.byte	0x19
 896 0233 19010000 		.4byte	0x119
 897 0237 38       		.byte	0x38
 898 0238 02       		.uleb128 0x2
 899 0239 17030000 		.4byte	.LASF43
 900 023d 07       		.byte	0x7
 901 023e C9       		.byte	0xc9
 902 023f 1A       		.byte	0x1a
 903 0240 5A040000 		.4byte	0x45a
 904 0244 3C       		.byte	0x3c
 905 0245 02       		.uleb128 0x2
 906 0246 0B040000 		.4byte	.LASF44
 907 024a 07       		.byte	0x7
 908 024b CD       		.byte	0xcd
 909 024c 19       		.byte	0x19
 910 024d 01010000 		.4byte	0x101
 911 0251 40       		.byte	0x40
 912 0252 00       		.byte	0
ARM GAS  /tmp/ccRBrtkq.s 			page 17


 913 0253 15       		.uleb128 0x15
 914 0254 08       		.byte	0x8
 915 0255 06       		.byte	0x6
 916 0256 5A       		.byte	0x5a
 917 0257 76020000 		.4byte	0x276
 918 025b 02       		.uleb128 0x2
 919 025c 44040000 		.4byte	.LASF27
 920 0260 06       		.byte	0x6
 921 0261 5B       		.byte	0x5b
 922 0262 1A       		.byte	0x1a
 923 0263 76020000 		.4byte	0x276
 924 0267 00       		.byte	0
 925 0268 02       		.uleb128 0x2
 926 0269 94040000 		.4byte	.LASF28
 927 026d 06       		.byte	0x6
 928 026e 5D       		.byte	0x5d
 929 026f 1A       		.byte	0x1a
 930 0270 76020000 		.4byte	0x276
 931 0274 04       		.byte	0x4
 932 0275 00       		.byte	0
 933 0276 05       		.uleb128 0x5
 934 0277 42010000 		.4byte	0x142
 935 027b 04       		.uleb128 0x4
 936 027c B4020000 		.4byte	.LASF45
 937 0280 06       		.byte	0x6
 938 0281 5F       		.byte	0x5f
 939 0282 03       		.byte	0x3
 940 0283 53020000 		.4byte	0x253
 941 0287 15       		.uleb128 0x15
 942 0288 04       		.byte	0x4
 943 0289 06       		.byte	0x6
 944 028a 64       		.byte	0x64
 945 028b 9D020000 		.4byte	0x29d
 946 028f 02       		.uleb128 0x2
 947 0290 44040000 		.4byte	.LASF27
 948 0294 06       		.byte	0x6
 949 0295 66       		.byte	0x66
 950 0296 16       		.byte	0x16
 951 0297 76020000 		.4byte	0x276
 952 029b 00       		.byte	0
 953 029c 00       		.byte	0
 954 029d 04       		.uleb128 0x4
 955 029e 00000000 		.4byte	.LASF46
 956 02a2 06       		.byte	0x6
 957 02a3 69       		.byte	0x69
 958 02a4 03       		.byte	0x3
 959 02a5 87020000 		.4byte	0x287
 960 02a9 04       		.uleb128 0x4
 961 02aa 40000000 		.4byte	.LASF47
 962 02ae 08       		.byte	0x8
 963 02af A2       		.byte	0xa2
 964 02b0 0F       		.byte	0xf
 965 02b1 B5020000 		.4byte	0x2b5
 966 02b5 1D       		.uleb128 0x1d
 967 02b6 04       		.byte	0x4
 968 02b7 09       		.uleb128 0x9
 969 02b8 BA030000 		.4byte	.LASF48
ARM GAS  /tmp/ccRBrtkq.s 			page 18


 970 02bc 24       		.byte	0x24
 971 02bd 08       		.byte	0x8
 972 02be B9       		.byte	0xb9
 973 02bf 08       		.byte	0x8
 974 02c0 33030000 		.4byte	0x333
 975 02c4 07       		.uleb128 0x7
 976 02c5 723400   		.ascii	"r4\000"
 977 02c8 08       		.byte	0x8
 978 02c9 BA       		.byte	0xba
 979 02ca 11       		.byte	0x11
 980 02cb A9020000 		.4byte	0x2a9
 981 02cf 00       		.byte	0
 982 02d0 07       		.uleb128 0x7
 983 02d1 723500   		.ascii	"r5\000"
 984 02d4 08       		.byte	0x8
 985 02d5 BB       		.byte	0xbb
 986 02d6 11       		.byte	0x11
 987 02d7 A9020000 		.4byte	0x2a9
 988 02db 04       		.byte	0x4
 989 02dc 07       		.uleb128 0x7
 990 02dd 723600   		.ascii	"r6\000"
 991 02e0 08       		.byte	0x8
 992 02e1 BC       		.byte	0xbc
 993 02e2 11       		.byte	0x11
 994 02e3 A9020000 		.4byte	0x2a9
 995 02e7 08       		.byte	0x8
 996 02e8 07       		.uleb128 0x7
 997 02e9 723700   		.ascii	"r7\000"
 998 02ec 08       		.byte	0x8
 999 02ed BD       		.byte	0xbd
 1000 02ee 11       		.byte	0x11
 1001 02ef A9020000 		.4byte	0x2a9
 1002 02f3 0C       		.byte	0xc
 1003 02f4 07       		.uleb128 0x7
 1004 02f5 723800   		.ascii	"r8\000"
 1005 02f8 08       		.byte	0x8
 1006 02f9 BE       		.byte	0xbe
 1007 02fa 11       		.byte	0x11
 1008 02fb A9020000 		.4byte	0x2a9
 1009 02ff 10       		.byte	0x10
 1010 0300 07       		.uleb128 0x7
 1011 0301 723900   		.ascii	"r9\000"
 1012 0304 08       		.byte	0x8
 1013 0305 BF       		.byte	0xbf
 1014 0306 11       		.byte	0x11
 1015 0307 A9020000 		.4byte	0x2a9
 1016 030b 14       		.byte	0x14
 1017 030c 07       		.uleb128 0x7
 1018 030d 72313000 		.ascii	"r10\000"
 1019 0311 08       		.byte	0x8
 1020 0312 C0       		.byte	0xc0
 1021 0313 11       		.byte	0x11
 1022 0314 A9020000 		.4byte	0x2a9
 1023 0318 18       		.byte	0x18
 1024 0319 07       		.uleb128 0x7
 1025 031a 72313100 		.ascii	"r11\000"
 1026 031e 08       		.byte	0x8
ARM GAS  /tmp/ccRBrtkq.s 			page 19


 1027 031f C1       		.byte	0xc1
 1028 0320 11       		.byte	0x11
 1029 0321 A9020000 		.4byte	0x2a9
 1030 0325 1C       		.byte	0x1c
 1031 0326 07       		.uleb128 0x7
 1032 0327 6C7200   		.ascii	"lr\000"
 1033 032a 08       		.byte	0x8
 1034 032b C2       		.byte	0xc2
 1035 032c 11       		.byte	0x11
 1036 032d A9020000 		.4byte	0x2a9
 1037 0331 20       		.byte	0x20
 1038 0332 00       		.byte	0
 1039 0333 09       		.uleb128 0x9
 1040 0334 59030000 		.4byte	.LASF49
 1041 0338 04       		.byte	0x4
 1042 0339 08       		.byte	0x8
 1043 033a CA       		.byte	0xca
 1044 033b 08       		.byte	0x8
 1045 033c 4E030000 		.4byte	0x34e
 1046 0340 07       		.uleb128 0x7
 1047 0341 72313300 		.ascii	"r13\000"
 1048 0345 08       		.byte	0x8
 1049 0346 CB       		.byte	0xcb
 1050 0347 12       		.byte	0x12
 1051 0348 4E030000 		.4byte	0x34e
 1052 034c 00       		.byte	0
 1053 034d 00       		.byte	0
 1054 034e 05       		.uleb128 0x5
 1055 034f B7020000 		.4byte	0x2b7
 1056 0353 09       		.uleb128 0x9
 1057 0354 87020000 		.4byte	.LASF50
 1058 0358 10       		.byte	0x10
 1059 0359 09       		.byte	0x9
 1060 035a 25       		.byte	0x25
 1061 035b 10       		.byte	0x10
 1062 035c 88030000 		.4byte	0x388
 1063 0360 02       		.uleb128 0x2
 1064 0361 2B040000 		.4byte	.LASF51
 1065 0365 09       		.byte	0x9
 1066 0366 26       		.byte	0x26
 1067 0367 19       		.byte	0x19
 1068 0368 7B020000 		.4byte	0x27b
 1069 036c 00       		.byte	0
 1070 036d 02       		.uleb128 0x2
 1071 036e 5A000000 		.4byte	.LASF52
 1072 0372 09       		.byte	0x9
 1073 0373 28       		.byte	0x28
 1074 0374 1A       		.byte	0x1a
 1075 0375 76020000 		.4byte	0x276
 1076 0379 08       		.byte	0x8
 1077 037a 02       		.uleb128 0x2
 1078 037b 25050000 		.4byte	.LASF53
 1079 037f 09       		.byte	0x9
 1080 0380 2A       		.byte	0x2a
 1081 0381 1A       		.byte	0x1a
 1082 0382 88030000 		.4byte	0x388
 1083 0386 0C       		.byte	0xc
ARM GAS  /tmp/ccRBrtkq.s 			page 20


 1084 0387 00       		.byte	0
 1085 0388 05       		.uleb128 0x5
 1086 0389 53030000 		.4byte	0x353
 1087 038d 04       		.uleb128 0x4
 1088 038e 87020000 		.4byte	.LASF50
 1089 0392 09       		.byte	0x9
 1090 0393 2C       		.byte	0x2c
 1091 0394 03       		.byte	0x3
 1092 0395 53030000 		.4byte	0x353
 1093 0399 04       		.uleb128 0x4
 1094 039a A3040000 		.4byte	.LASF54
 1095 039e 0A       		.byte	0xa
 1096 039f 25       		.byte	0x25
 1097 03a0 1E       		.byte	0x1e
 1098 03a1 A5030000 		.4byte	0x3a5
 1099 03a5 09       		.uleb128 0x9
 1100 03a6 A3040000 		.4byte	.LASF54
 1101 03aa 10       		.byte	0x10
 1102 03ab 0A       		.byte	0xa
 1103 03ac 2A       		.byte	0x2a
 1104 03ad 08       		.byte	0x8
 1105 03ae E7030000 		.4byte	0x3e7
 1106 03b2 02       		.uleb128 0x2
 1107 03b3 90030000 		.4byte	.LASF55
 1108 03b7 0A       		.byte	0xa
 1109 03b8 2B       		.byte	0x2b
 1110 03b9 1A       		.byte	0x1a
 1111 03ba E7030000 		.4byte	0x3e7
 1112 03be 00       		.byte	0
 1113 03bf 02       		.uleb128 0x2
 1114 03c0 60040000 		.4byte	.LASF56
 1115 03c4 0A       		.byte	0xa
 1116 03c5 2E       		.byte	0x2e
 1117 03c6 1A       		.byte	0x1a
 1118 03c7 76020000 		.4byte	0x276
 1119 03cb 04       		.byte	0x4
 1120 03cc 02       		.uleb128 0x2
 1121 03cd AF000000 		.4byte	.LASF57
 1122 03d1 0A       		.byte	0xa
 1123 03d2 30       		.byte	0x30
 1124 03d3 19       		.byte	0x19
 1125 03d4 19010000 		.4byte	0x119
 1126 03d8 08       		.byte	0x8
 1127 03d9 02       		.uleb128 0x2
 1128 03da 72050000 		.4byte	.LASF58
 1129 03de 0A       		.byte	0xa
 1130 03df 33       		.byte	0x33
 1131 03e0 19       		.byte	0x19
 1132 03e1 25010000 		.4byte	0x125
 1133 03e5 0C       		.byte	0xc
 1134 03e6 00       		.byte	0
 1135 03e7 05       		.uleb128 0x5
 1136 03e8 99030000 		.4byte	0x399
 1137 03ec 09       		.uleb128 0x9
 1138 03ed 45020000 		.4byte	.LASF59
 1139 03f1 04       		.byte	0x4
 1140 03f2 0A       		.byte	0xa
ARM GAS  /tmp/ccRBrtkq.s 			page 21


 1141 03f3 3A       		.byte	0x3a
 1142 03f4 10       		.byte	0x10
 1143 03f5 07040000 		.4byte	0x407
 1144 03f9 02       		.uleb128 0x2
 1145 03fa 17050000 		.4byte	.LASF60
 1146 03fe 0A       		.byte	0xa
 1147 03ff 3B       		.byte	0x3b
 1148 0400 1A       		.byte	0x1a
 1149 0401 E7030000 		.4byte	0x3e7
 1150 0405 00       		.byte	0
 1151 0406 00       		.byte	0
 1152 0407 04       		.uleb128 0x4
 1153 0408 45020000 		.4byte	.LASF59
 1154 040c 0A       		.byte	0xa
 1155 040d 3E       		.byte	0x3e
 1156 040e 03       		.byte	0x3
 1157 040f EC030000 		.4byte	0x3ec
 1158 0413 1E       		.uleb128 0x1e
 1159 0414 04       		.byte	0x4
 1160 0415 07       		.byte	0x7
 1161 0416 8F       		.byte	0x8f
 1162 0417 03       		.byte	0x3
 1163 0418 49040000 		.4byte	0x449
 1164 041c 12       		.uleb128 0x12
 1165 041d 58020000 		.4byte	.LASF61
 1166 0421 96       		.byte	0x96
 1167 0422 19       		.byte	0x19
 1168 0423 0D010000 		.4byte	0x10d
 1169 0427 12       		.uleb128 0x12
 1170 0428 7B050000 		.4byte	.LASF62
 1171 042c 9D       		.byte	0x9d
 1172 042d 19       		.byte	0x19
 1173 042e 0D010000 		.4byte	0x10d
 1174 0432 12       		.uleb128 0x12
 1175 0433 B7000000 		.4byte	.LASF63
 1176 0437 A4       		.byte	0xa4
 1177 0438 1A       		.byte	0x1a
 1178 0439 B5020000 		.4byte	0x2b5
 1179 043d 12       		.uleb128 0x12
 1180 043e D2000000 		.4byte	.LASF64
 1181 0442 AB       		.byte	0xab
 1182 0443 19       		.byte	0x19
 1183 0444 19010000 		.4byte	0x119
 1184 0448 00       		.byte	0
 1185 0449 05       		.uleb128 0x5
 1186 044a 55040000 		.4byte	0x455
 1187 044e 08       		.uleb128 0x8
 1188 044f 01       		.byte	0x1
 1189 0450 08       		.byte	0x8
 1190 0451 C1020000 		.4byte	.LASF65
 1191 0455 11       		.uleb128 0x11
 1192 0456 4E040000 		.4byte	0x44e
 1193 045a 05       		.uleb128 0x5
 1194 045b 8D030000 		.4byte	0x38d
 1195 045f 05       		.uleb128 0x5
 1196 0460 64040000 		.4byte	0x464
 1197 0464 0A       		.uleb128 0xa
ARM GAS  /tmp/ccRBrtkq.s 			page 22


 1198 0465 0D010000 		.4byte	0x10d
 1199 0469 73040000 		.4byte	0x473
 1200 046d 01       		.uleb128 0x1
 1201 046e B5020000 		.4byte	0x2b5
 1202 0472 00       		.byte	0
 1203 0473 04       		.uleb128 0x4
 1204 0474 A6030000 		.4byte	.LASF66
 1205 0478 0B       		.byte	0xb
 1206 0479 30       		.byte	0x30
 1207 047a 1D       		.byte	0x1d
 1208 047b 7F040000 		.4byte	0x47f
 1209 047f 09       		.uleb128 0x9
 1210 0480 A6030000 		.4byte	.LASF66
 1211 0484 24       		.byte	0x24
 1212 0485 0B       		.byte	0xb
 1213 0486 3E       		.byte	0x3e
 1214 0487 08       		.byte	0x8
 1215 0488 F5040000 		.4byte	0x4f5
 1216 048c 02       		.uleb128 0x2
 1217 048d 36020000 		.4byte	.LASF67
 1218 0491 0B       		.byte	0xb
 1219 0492 3F       		.byte	0x3f
 1220 0493 19       		.byte	0x19
 1221 0494 7B020000 		.4byte	0x27b
 1222 0498 00       		.byte	0
 1223 0499 02       		.uleb128 0x2
 1224 049a 7F040000 		.4byte	.LASF68
 1225 049e 0B       		.byte	0xb
 1226 049f 40       		.byte	0x40
 1227 04a0 19       		.byte	0x19
 1228 04a1 2D000000 		.4byte	0x2d
 1229 04a5 08       		.byte	0x8
 1230 04a6 02       		.uleb128 0x2
 1231 04a7 35030000 		.4byte	.LASF69
 1232 04ab 0B       		.byte	0xb
 1233 04ac 41       		.byte	0x41
 1234 04ad 1A       		.byte	0x1a
 1235 04ae 16050000 		.4byte	0x516
 1236 04b2 0C       		.byte	0xc
 1237 04b3 02       		.uleb128 0x2
 1238 04b4 8E040000 		.4byte	.LASF70
 1239 04b8 0B       		.byte	0xb
 1240 04b9 42       		.byte	0x42
 1241 04ba 1A       		.byte	0x1a
 1242 04bb 16050000 		.4byte	0x516
 1243 04bf 10       		.byte	0x10
 1244 04c0 02       		.uleb128 0x2
 1245 04c1 C6020000 		.4byte	.LASF71
 1246 04c5 0B       		.byte	0xb
 1247 04c6 44       		.byte	0x44
 1248 04c7 1A       		.byte	0x1a
 1249 04c8 16050000 		.4byte	0x516
 1250 04cc 14       		.byte	0x14
 1251 04cd 02       		.uleb128 0x2
 1252 04ce 93000000 		.4byte	.LASF72
 1253 04d2 0B       		.byte	0xb
 1254 04d3 45       		.byte	0x45
ARM GAS  /tmp/ccRBrtkq.s 			page 23


 1255 04d4 1A       		.byte	0x1a
 1256 04d5 16050000 		.4byte	0x516
 1257 04d9 18       		.byte	0x18
 1258 04da 02       		.uleb128 0x2
 1259 04db 99020000 		.4byte	.LASF73
 1260 04df 0B       		.byte	0xb
 1261 04e0 46       		.byte	0x46
 1262 04e1 19       		.byte	0x19
 1263 04e2 F5040000 		.4byte	0x4f5
 1264 04e6 1C       		.byte	0x1c
 1265 04e7 02       		.uleb128 0x2
 1266 04e8 BE000000 		.4byte	.LASF74
 1267 04ec 0B       		.byte	0xb
 1268 04ed 47       		.byte	0x47
 1269 04ee 1A       		.byte	0x1a
 1270 04ef B5020000 		.4byte	0x2b5
 1271 04f3 20       		.byte	0x20
 1272 04f4 00       		.byte	0
 1273 04f5 04       		.uleb128 0x4
 1274 04f6 A5000000 		.4byte	.LASF75
 1275 04fa 0B       		.byte	0xb
 1276 04fb 33       		.byte	0x33
 1277 04fc 10       		.byte	0x10
 1278 04fd 01050000 		.4byte	0x501
 1279 0501 05       		.uleb128 0x5
 1280 0502 06050000 		.4byte	0x506
 1281 0506 1F       		.uleb128 0x1f
 1282 0507 11050000 		.4byte	0x511
 1283 050b 01       		.uleb128 0x1
 1284 050c 11050000 		.4byte	0x511
 1285 0510 00       		.byte	0
 1286 0511 05       		.uleb128 0x5
 1287 0512 73040000 		.4byte	0x473
 1288 0516 05       		.uleb128 0x5
 1289 0517 9C000000 		.4byte	0x9c
 1290 051b 04       		.uleb128 0x4
 1291 051c A9020000 		.4byte	.LASF76
 1292 0520 0B       		.byte	0xb
 1293 0521 7B       		.byte	0x7b
 1294 0522 16       		.byte	0x16
 1295 0523 73040000 		.4byte	0x473
 1296 0527 04       		.uleb128 0x4
 1297 0528 8D020000 		.4byte	.LASF77
 1298 052c 0B       		.byte	0xb
 1299 052d EE       		.byte	0xee
 1300 052e 16       		.byte	0x16
 1301 052f 73040000 		.4byte	0x473
 1302 0533 0A       		.uleb128 0xa
 1303 0534 2D000000 		.4byte	0x2d
 1304 0538 4C050000 		.4byte	0x54c
 1305 053c 01       		.uleb128 0x1
 1306 053d B5020000 		.4byte	0x2b5
 1307 0541 01       		.uleb128 0x1
 1308 0542 4C050000 		.4byte	0x54c
 1309 0546 01       		.uleb128 0x1
 1310 0547 2D000000 		.4byte	0x2d
 1311 054b 00       		.byte	0
ARM GAS  /tmp/ccRBrtkq.s 			page 24


 1312 054c 05       		.uleb128 0x5
 1313 054d A8000000 		.4byte	0xa8
 1314 0551 05       		.uleb128 0x5
 1315 0552 33050000 		.4byte	0x533
 1316 0556 0A       		.uleb128 0xa
 1317 0557 2D000000 		.4byte	0x2d
 1318 055b 6F050000 		.4byte	0x56f
 1319 055f 01       		.uleb128 0x1
 1320 0560 B5020000 		.4byte	0x2b5
 1321 0564 01       		.uleb128 0x1
 1322 0565 16050000 		.4byte	0x516
 1323 0569 01       		.uleb128 0x1
 1324 056a 2D000000 		.4byte	0x2d
 1325 056e 00       		.byte	0
 1326 056f 05       		.uleb128 0x5
 1327 0570 56050000 		.4byte	0x556
 1328 0574 0A       		.uleb128 0xa
 1329 0575 0D010000 		.4byte	0x10d
 1330 0579 88050000 		.4byte	0x588
 1331 057d 01       		.uleb128 0x1
 1332 057e B5020000 		.4byte	0x2b5
 1333 0582 01       		.uleb128 0x1
 1334 0583 9C000000 		.4byte	0x9c
 1335 0587 00       		.byte	0
 1336 0588 05       		.uleb128 0x5
 1337 0589 74050000 		.4byte	0x574
 1338 058d 0A       		.uleb128 0xa
 1339 058e 0D010000 		.4byte	0x10d
 1340 0592 A6050000 		.4byte	0x5a6
 1341 0596 01       		.uleb128 0x1
 1342 0597 B5020000 		.4byte	0x2b5
 1343 059b 01       		.uleb128 0x1
 1344 059c 9C000000 		.4byte	0x9c
 1345 05a0 01       		.uleb128 0x1
 1346 05a1 31010000 		.4byte	0x131
 1347 05a5 00       		.byte	0
 1348 05a6 05       		.uleb128 0x5
 1349 05a7 8D050000 		.4byte	0x58d
 1350 05ab 0A       		.uleb128 0xa
 1351 05ac 0D010000 		.4byte	0x10d
 1352 05b0 BF050000 		.4byte	0x5bf
 1353 05b4 01       		.uleb128 0x1
 1354 05b5 B5020000 		.4byte	0x2b5
 1355 05b9 01       		.uleb128 0x1
 1356 05ba 31010000 		.4byte	0x131
 1357 05be 00       		.byte	0
 1358 05bf 05       		.uleb128 0x5
 1359 05c0 AB050000 		.4byte	0x5ab
 1360 05c4 0A       		.uleb128 0xa
 1361 05c5 2D000000 		.4byte	0x2d
 1362 05c9 E2050000 		.4byte	0x5e2
 1363 05cd 01       		.uleb128 0x1
 1364 05ce B5020000 		.4byte	0x2b5
 1365 05d2 01       		.uleb128 0x1
 1366 05d3 4C050000 		.4byte	0x54c
 1367 05d7 01       		.uleb128 0x1
 1368 05d8 2D000000 		.4byte	0x2d
ARM GAS  /tmp/ccRBrtkq.s 			page 25


 1369 05dc 01       		.uleb128 0x1
 1370 05dd 31010000 		.4byte	0x131
 1371 05e1 00       		.byte	0
 1372 05e2 05       		.uleb128 0x5
 1373 05e3 C4050000 		.4byte	0x5c4
 1374 05e7 0A       		.uleb128 0xa
 1375 05e8 2D000000 		.4byte	0x2d
 1376 05ec 05060000 		.4byte	0x605
 1377 05f0 01       		.uleb128 0x1
 1378 05f1 B5020000 		.4byte	0x2b5
 1379 05f5 01       		.uleb128 0x1
 1380 05f6 16050000 		.4byte	0x516
 1381 05fa 01       		.uleb128 0x1
 1382 05fb 2D000000 		.4byte	0x2d
 1383 05ff 01       		.uleb128 0x1
 1384 0600 31010000 		.4byte	0x131
 1385 0604 00       		.byte	0
 1386 0605 05       		.uleb128 0x5
 1387 0606 E7050000 		.4byte	0x5e7
 1388 060a 20       		.uleb128 0x20
 1389 060b 07       		.byte	0x7
 1390 060c 01       		.byte	0x1
 1391 060d 53000000 		.4byte	0x53
 1392 0611 0C       		.byte	0xc
 1393 0612 5D       		.byte	0x5d
 1394 0613 0E       		.byte	0xe
 1395 0614 2B060000 		.4byte	0x62b
 1396 0618 16       		.uleb128 0x16
 1397 0619 6C040000 		.4byte	.LASF78
 1398 061d 00       		.byte	0
 1399 061e 16       		.uleb128 0x16
 1400 061f 6E020000 		.4byte	.LASF79
 1401 0623 01       		.byte	0x1
 1402 0624 16       		.uleb128 0x16
 1403 0625 EB030000 		.4byte	.LASF80
 1404 0629 02       		.byte	0x2
 1405 062a 00       		.byte	0
 1406 062b 04       		.uleb128 0x4
 1407 062c C7010000 		.4byte	.LASF81
 1408 0630 0C       		.byte	0xc
 1409 0631 61       		.byte	0x61
 1410 0632 03       		.byte	0x3
 1411 0633 0A060000 		.4byte	0x60a
 1412 0637 04       		.uleb128 0x4
 1413 0638 16000000 		.4byte	.LASF82
 1414 063c 0C       		.byte	0xc
 1415 063d 66       		.byte	0x66
 1416 063e 1D       		.byte	0x1d
 1417 063f 43060000 		.4byte	0x643
 1418 0643 09       		.uleb128 0x9
 1419 0644 16000000 		.4byte	.LASF82
 1420 0648 74       		.byte	0x74
 1421 0649 0C       		.byte	0xc
 1422 064a 80       		.byte	0x80
 1423 064b 08       		.byte	0x8
 1424 064c AA060000 		.4byte	0x6aa
 1425 0650 07       		.uleb128 0x7
ARM GAS  /tmp/ccRBrtkq.s 			page 26


 1426 0651 766D7400 		.ascii	"vmt\000"
 1427 0655 0C       		.byte	0xc
 1428 0656 82       		.byte	0x82
 1429 0657 21       		.byte	0x21
 1430 0658 4C070000 		.4byte	0x74c
 1431 065c 00       		.byte	0
 1432 065d 02       		.uleb128 0x2
 1433 065e D1010000 		.4byte	.LASF83
 1434 0662 0C       		.byte	0xc
 1435 0663 83       		.byte	0x83
 1436 0664 03       		.byte	0x3
 1437 0665 07040000 		.4byte	0x407
 1438 0669 04       		.byte	0x4
 1439 066a 02       		.uleb128 0x2
 1440 066b 1F050000 		.4byte	.LASF84
 1441 066f 0C       		.byte	0xc
 1442 0670 83       		.byte	0x83
 1443 0671 03       		.byte	0x3
 1444 0672 2B060000 		.4byte	0x62b
 1445 0676 08       		.byte	0x8
 1446 0677 02       		.uleb128 0x2
 1447 0678 8F010000 		.4byte	.LASF85
 1448 067c 0C       		.byte	0xc
 1449 067d 83       		.byte	0x83
 1450 067e 03       		.byte	0x3
 1451 067f 1B050000 		.4byte	0x51b
 1452 0683 0C       		.byte	0xc
 1453 0684 02       		.uleb128 0x2
 1454 0685 B3030000 		.4byte	.LASF86
 1455 0689 0C       		.byte	0xc
 1456 068a 83       		.byte	0x83
 1457 068b 03       		.byte	0x3
 1458 068c 27050000 		.4byte	0x527
 1459 0690 30       		.byte	0x30
 1460 0691 07       		.uleb128 0x7
 1461 0692 696200   		.ascii	"ib\000"
 1462 0695 0C       		.byte	0xc
 1463 0696 83       		.byte	0x83
 1464 0697 03       		.byte	0x3
 1465 0698 51070000 		.4byte	0x751
 1466 069c 54       		.byte	0x54
 1467 069d 07       		.uleb128 0x7
 1468 069e 6F6200   		.ascii	"ob\000"
 1469 06a1 0C       		.byte	0xc
 1470 06a2 83       		.byte	0x83
 1471 06a3 03       		.byte	0x3
 1472 06a4 51070000 		.4byte	0x751
 1473 06a8 64       		.byte	0x64
 1474 06a9 00       		.byte	0
 1475 06aa 15       		.uleb128 0x15
 1476 06ab 04       		.byte	0x4
 1477 06ac 0D       		.byte	0xd
 1478 06ad 42       		.byte	0x42
 1479 06ae C0060000 		.4byte	0x6c0
 1480 06b2 02       		.uleb128 0x2
 1481 06b3 68050000 		.4byte	.LASF87
 1482 06b7 0D       		.byte	0xd
ARM GAS  /tmp/ccRBrtkq.s 			page 27


 1483 06b8 44       		.byte	0x44
 1484 06b9 1C       		.byte	0x1c
 1485 06ba B9000000 		.4byte	0xb9
 1486 06be 00       		.byte	0
 1487 06bf 00       		.byte	0
 1488 06c0 04       		.uleb128 0x4
 1489 06c1 BA010000 		.4byte	.LASF88
 1490 06c5 0D       		.byte	0xd
 1491 06c6 45       		.byte	0x45
 1492 06c7 03       		.byte	0x3
 1493 06c8 AA060000 		.4byte	0x6aa
 1494 06cc 11       		.uleb128 0x11
 1495 06cd C0060000 		.4byte	0x6c0
 1496 06d1 09       		.uleb128 0x9
 1497 06d2 F4030000 		.4byte	.LASF89
 1498 06d6 20       		.byte	0x20
 1499 06d7 0C       		.byte	0xc
 1500 06d8 75       		.byte	0x75
 1501 06d9 08       		.byte	0x8
 1502 06da 47070000 		.4byte	0x747
 1503 06de 02       		.uleb128 0x2
 1504 06df 2F030000 		.4byte	.LASF90
 1505 06e3 0C       		.byte	0xc
 1506 06e4 76       		.byte	0x76
 1507 06e5 03       		.byte	0x3
 1508 06e6 51050000 		.4byte	0x551
 1509 06ea 00       		.byte	0
 1510 06eb 02       		.uleb128 0x2
 1511 06ec 5B040000 		.4byte	.LASF91
 1512 06f0 0C       		.byte	0xc
 1513 06f1 76       		.byte	0x76
 1514 06f2 03       		.byte	0x3
 1515 06f3 6F050000 		.4byte	0x56f
 1516 06f7 04       		.byte	0x4
 1517 06f8 07       		.uleb128 0x7
 1518 06f9 70757400 		.ascii	"put\000"
 1519 06fd 0C       		.byte	0xc
 1520 06fe 76       		.byte	0x76
 1521 06ff 03       		.byte	0x3
 1522 0700 88050000 		.4byte	0x588
 1523 0704 08       		.byte	0x8
 1524 0705 07       		.uleb128 0x7
 1525 0706 67657400 		.ascii	"get\000"
 1526 070a 0C       		.byte	0xc
 1527 070b 76       		.byte	0x76
 1528 070c 03       		.byte	0x3
 1529 070d 5F040000 		.4byte	0x45f
 1530 0711 0C       		.byte	0xc
 1531 0712 02       		.uleb128 0x2
 1532 0713 40020000 		.4byte	.LASF92
 1533 0717 0C       		.byte	0xc
 1534 0718 76       		.byte	0x76
 1535 0719 03       		.byte	0x3
 1536 071a A6050000 		.4byte	0x5a6
 1537 071e 10       		.byte	0x10
 1538 071f 02       		.uleb128 0x2
 1539 0720 89040000 		.4byte	.LASF93
ARM GAS  /tmp/ccRBrtkq.s 			page 28


 1540 0724 0C       		.byte	0xc
 1541 0725 76       		.byte	0x76
 1542 0726 03       		.byte	0x3
 1543 0727 BF050000 		.4byte	0x5bf
 1544 072b 14       		.byte	0x14
 1545 072c 02       		.uleb128 0x2
 1546 072d E9000000 		.4byte	.LASF94
 1547 0731 0C       		.byte	0xc
 1548 0732 76       		.byte	0x76
 1549 0733 03       		.byte	0x3
 1550 0734 E2050000 		.4byte	0x5e2
 1551 0738 18       		.byte	0x18
 1552 0739 02       		.uleb128 0x2
 1553 073a 38050000 		.4byte	.LASF95
 1554 073e 0C       		.byte	0xc
 1555 073f 76       		.byte	0x76
 1556 0740 03       		.byte	0x3
 1557 0741 05060000 		.4byte	0x605
 1558 0745 1C       		.byte	0x1c
 1559 0746 00       		.byte	0
 1560 0747 11       		.uleb128 0x11
 1561 0748 D1060000 		.4byte	0x6d1
 1562 074c 05       		.uleb128 0x5
 1563 074d 47070000 		.4byte	0x747
 1564 0751 21       		.uleb128 0x21
 1565 0752 9C000000 		.4byte	0x9c
 1566 0756 61070000 		.4byte	0x761
 1567 075a 22       		.uleb128 0x22
 1568 075b 39000000 		.4byte	0x39
 1569 075f 0F       		.byte	0xf
 1570 0760 00       		.byte	0
 1571 0761 23       		.uleb128 0x23
 1572 0762 766D7400 		.ascii	"vmt\000"
 1573 0766 01       		.byte	0x1
 1574 0767 61       		.byte	0x61
 1575 0768 25       		.byte	0x25
 1576 0769 47070000 		.4byte	0x747
 1577 076d 05       		.uleb128 0x5
 1578 076e 03       		.byte	0x3
 1579 076f 00000000 		.4byte	vmt
 1580 0773 0D       		.uleb128 0xd
 1581 0774 76040000 		.4byte	.LASF96
 1582 0778 6701     		.2byte	0x167
 1583 077a 09       		.byte	0x9
 1584 077b 0D010000 		.4byte	0x10d
 1585 077f 89070000 		.4byte	0x789
 1586 0783 01       		.uleb128 0x1
 1587 0784 89070000 		.4byte	0x789
 1588 0788 00       		.byte	0
 1589 0789 05       		.uleb128 0x5
 1590 078a 27050000 		.4byte	0x527
 1591 078e 0D       		.uleb128 0xd
 1592 078f 7A030000 		.4byte	.LASF97
 1593 0793 5E01     		.2byte	0x15e
 1594 0795 09       		.byte	0x9
 1595 0796 0D010000 		.4byte	0x10d
 1596 079a A9070000 		.4byte	0x7a9
ARM GAS  /tmp/ccRBrtkq.s 			page 29


 1597 079e 01       		.uleb128 0x1
 1598 079f A9070000 		.4byte	0x7a9
 1599 07a3 01       		.uleb128 0x1
 1600 07a4 9C000000 		.4byte	0x9c
 1601 07a8 00       		.byte	0
 1602 07a9 05       		.uleb128 0x5
 1603 07aa 1B050000 		.4byte	0x51b
 1604 07ae 17       		.uleb128 0x17
 1605 07af DE020000 		.4byte	.LASF98
 1606 07b3 0A       		.byte	0xa
 1607 07b4 B3       		.byte	0xb3
 1608 07b5 C4070000 		.4byte	0x7c4
 1609 07b9 01       		.uleb128 0x1
 1610 07ba C4070000 		.4byte	0x7c4
 1611 07be 01       		.uleb128 0x1
 1612 07bf 25010000 		.4byte	0x125
 1613 07c3 00       		.byte	0
 1614 07c4 05       		.uleb128 0x5
 1615 07c5 07040000 		.4byte	0x407
 1616 07c9 18       		.uleb128 0x18
 1617 07ca 76020000 		.4byte	.LASF109
 1618 07ce 0E       		.byte	0xe
 1619 07cf 95       		.byte	0x95
 1620 07d0 13       		.uleb128 0x13
 1621 07d1 CB040000 		.4byte	.LASF99
 1622 07d5 5D01     		.2byte	0x15d
 1623 07d7 E1070000 		.4byte	0x7e1
 1624 07db 01       		.uleb128 0x1
 1625 07dc A9070000 		.4byte	0x7a9
 1626 07e0 00       		.byte	0
 1627 07e1 13       		.uleb128 0x13
 1628 07e2 51050000 		.4byte	.LASF100
 1629 07e6 6501     		.2byte	0x165
 1630 07e8 F2070000 		.4byte	0x7f2
 1631 07ec 01       		.uleb128 0x1
 1632 07ed 89070000 		.4byte	0x789
 1633 07f1 00       		.byte	0
 1634 07f2 17       		.uleb128 0x17
 1635 07f3 4D030000 		.4byte	.LASF101
 1636 07f7 0D       		.byte	0xd
 1637 07f8 69       		.byte	0x69
 1638 07f9 03080000 		.4byte	0x803
 1639 07fd 01       		.uleb128 0x1
 1640 07fe 03080000 		.4byte	0x803
 1641 0802 00       		.byte	0
 1642 0803 05       		.uleb128 0x5
 1643 0804 37060000 		.4byte	0x637
 1644 0808 17       		.uleb128 0x17
 1645 0809 83030000 		.4byte	.LASF102
 1646 080d 0D       		.byte	0xd
 1647 080e 68       		.byte	0x68
 1648 080f 1E080000 		.4byte	0x81e
 1649 0813 01       		.uleb128 0x1
 1650 0814 03080000 		.4byte	0x803
 1651 0818 01       		.uleb128 0x1
 1652 0819 1E080000 		.4byte	0x81e
 1653 081d 00       		.byte	0
ARM GAS  /tmp/ccRBrtkq.s 			page 30


 1654 081e 05       		.uleb128 0x5
 1655 081f CC060000 		.4byte	0x6cc
 1656 0823 0D       		.uleb128 0xd
 1657 0824 FE040000 		.4byte	.LASF103
 1658 0828 6601     		.2byte	0x166
 1659 082a 09       		.byte	0x9
 1660 082b 0D010000 		.4byte	0x10d
 1661 082f 43080000 		.4byte	0x843
 1662 0833 01       		.uleb128 0x1
 1663 0834 89070000 		.4byte	0x789
 1664 0838 01       		.uleb128 0x1
 1665 0839 9C000000 		.4byte	0x9c
 1666 083d 01       		.uleb128 0x1
 1667 083e 31010000 		.4byte	0x131
 1668 0842 00       		.byte	0
 1669 0843 0D       		.uleb128 0xd
 1670 0844 31000000 		.4byte	.LASF104
 1671 0848 5F01     		.2byte	0x15f
 1672 084a 09       		.byte	0x9
 1673 084b 0D010000 		.4byte	0x10d
 1674 084f 5E080000 		.4byte	0x85e
 1675 0853 01       		.uleb128 0x1
 1676 0854 A9070000 		.4byte	0x7a9
 1677 0858 01       		.uleb128 0x1
 1678 0859 31010000 		.4byte	0x131
 1679 085d 00       		.byte	0
 1680 085e 0D       		.uleb128 0xd
 1681 085f 10020000 		.4byte	.LASF105
 1682 0863 6801     		.2byte	0x168
 1683 0865 0A       		.byte	0xa
 1684 0866 2D000000 		.4byte	0x2d
 1685 086a 83080000 		.4byte	0x883
 1686 086e 01       		.uleb128 0x1
 1687 086f 89070000 		.4byte	0x789
 1688 0873 01       		.uleb128 0x1
 1689 0874 4C050000 		.4byte	0x54c
 1690 0878 01       		.uleb128 0x1
 1691 0879 2D000000 		.4byte	0x2d
 1692 087d 01       		.uleb128 0x1
 1693 087e 31010000 		.4byte	0x131
 1694 0882 00       		.byte	0
 1695 0883 0D       		.uleb128 0xd
 1696 0884 7A000000 		.4byte	.LASF106
 1697 0888 6001     		.2byte	0x160
 1698 088a 0A       		.byte	0xa
 1699 088b 2D000000 		.4byte	0x2d
 1700 088f A8080000 		.4byte	0x8a8
 1701 0893 01       		.uleb128 0x1
 1702 0894 A9070000 		.4byte	0x7a9
 1703 0898 01       		.uleb128 0x1
 1704 0899 16050000 		.4byte	0x516
 1705 089d 01       		.uleb128 0x1
 1706 089e 2D000000 		.4byte	0x2d
 1707 08a2 01       		.uleb128 0x1
 1708 08a3 31010000 		.4byte	0x131
 1709 08a7 00       		.byte	0
 1710 08a8 13       		.uleb128 0x13
ARM GAS  /tmp/ccRBrtkq.s 			page 31


 1711 08a9 3E030000 		.4byte	.LASF107
 1712 08ad 6301     		.2byte	0x163
 1713 08af CD080000 		.4byte	0x8cd
 1714 08b3 01       		.uleb128 0x1
 1715 08b4 89070000 		.4byte	0x789
 1716 08b8 01       		.uleb128 0x1
 1717 08b9 16050000 		.4byte	0x516
 1718 08bd 01       		.uleb128 0x1
 1719 08be 2D000000 		.4byte	0x2d
 1720 08c2 01       		.uleb128 0x1
 1721 08c3 F5040000 		.4byte	0x4f5
 1722 08c7 01       		.uleb128 0x1
 1723 08c8 B5020000 		.4byte	0x2b5
 1724 08cc 00       		.byte	0
 1725 08cd 13       		.uleb128 0x13
 1726 08ce 8A000000 		.4byte	.LASF108
 1727 08d2 5B01     		.2byte	0x15b
 1728 08d4 F2080000 		.4byte	0x8f2
 1729 08d8 01       		.uleb128 0x1
 1730 08d9 A9070000 		.4byte	0x7a9
 1731 08dd 01       		.uleb128 0x1
 1732 08de 16050000 		.4byte	0x516
 1733 08e2 01       		.uleb128 0x1
 1734 08e3 2D000000 		.4byte	0x2d
 1735 08e7 01       		.uleb128 0x1
 1736 08e8 F5040000 		.4byte	0x4f5
 1737 08ec 01       		.uleb128 0x1
 1738 08ed B5020000 		.4byte	0x2b5
 1739 08f1 00       		.byte	0
 1740 08f2 18       		.uleb128 0x18
 1741 08f3 5C050000 		.4byte	.LASF110
 1742 08f7 0D       		.byte	0xd
 1743 08f8 67       		.byte	0x67
 1744 08f9 24       		.uleb128 0x24
 1745 08fa 9F010000 		.4byte	.LASF124
 1746 08fe 01       		.byte	0x1
 1747 08ff E8       		.byte	0xe8
 1748 0900 07       		.byte	0x7
 1749 0901 0D010000 		.4byte	0x10d
 1750 0905 00000000 		.4byte	.LFB20
 1751 0909 34000000 		.4byte	.LFE20-.LFB20
 1752 090d 01       		.uleb128 0x1
 1753 090e 9C       		.byte	0x9c
 1754 090f 62090000 		.4byte	0x962
 1755 0913 06       		.uleb128 0x6
 1756 0914 73647000 		.ascii	"sdp\000"
 1757 0918 E8       		.byte	0xe8
 1758 0919 24       		.byte	0x24
 1759 091a 03080000 		.4byte	0x803
 1760 091e 10000000 		.4byte	.LLST30
 1761 0922 0C000000 		.4byte	.LVUS30
 1762 0926 25       		.uleb128 0x25
 1763 0927 6200     		.ascii	"b\000"
 1764 0929 01       		.byte	0x1
 1765 092a E9       		.byte	0xe9
 1766 092b 0A       		.byte	0xa
 1767 092c 0D010000 		.4byte	0x10d
ARM GAS  /tmp/ccRBrtkq.s 			page 32


 1768 0930 22000000 		.4byte	.LLST31
 1769 0934 20000000 		.4byte	.LVUS31
 1770 0938 0E       		.uleb128 0xe
 1771 0939 10000000 		.4byte	.LVL49
 1772 093d 73070000 		.4byte	0x773
 1773 0941 4C090000 		.4byte	0x94c
 1774 0945 03       		.uleb128 0x3
 1775 0946 01       		.uleb128 0x1
 1776 0947 50       		.byte	0x50
 1777 0948 02       		.uleb128 0x2
 1778 0949 75       		.byte	0x75
 1779 094a 30       		.sleb128 48
 1780 094b 00       		.byte	0
 1781 094c 14       		.uleb128 0x14
 1782 094d 2C000000 		.4byte	.LVL50
 1783 0951 AE070000 		.4byte	0x7ae
 1784 0955 03       		.uleb128 0x3
 1785 0956 01       		.uleb128 0x1
 1786 0957 50       		.byte	0x50
 1787 0958 02       		.uleb128 0x2
 1788 0959 75       		.byte	0x75
 1789 095a 04       		.sleb128 4
 1790 095b 03       		.uleb128 0x3
 1791 095c 01       		.uleb128 0x1
 1792 095d 51       		.byte	0x51
 1793 095e 01       		.uleb128 0x1
 1794 095f 38       		.byte	0x38
 1795 0960 00       		.byte	0
 1796 0961 00       		.byte	0
 1797 0962 0F       		.uleb128 0xf
 1798 0963 D9000000 		.4byte	.LASF111
 1799 0967 CE       		.byte	0xce
 1800 0968 00000000 		.4byte	.LFB19
 1801 096c 4C000000 		.4byte	.LFE19-.LFB19
 1802 0970 01       		.uleb128 0x1
 1803 0971 9C       		.byte	0x9c
 1804 0972 E7090000 		.4byte	0x9e7
 1805 0976 06       		.uleb128 0x6
 1806 0977 73647000 		.ascii	"sdp\000"
 1807 097b CE       		.byte	0xce
 1808 097c 24       		.byte	0x24
 1809 097d 03080000 		.4byte	0x803
 1810 0981 37000000 		.4byte	.LLST28
 1811 0985 2B000000 		.4byte	.LVUS28
 1812 0989 06       		.uleb128 0x6
 1813 098a 6200     		.ascii	"b\000"
 1814 098c CE       		.byte	0xce
 1815 098d 31       		.byte	0x31
 1816 098e 9C000000 		.4byte	0x9c
 1817 0992 68000000 		.4byte	.LLST29
 1818 0996 60000000 		.4byte	.LVUS29
 1819 099a 0E       		.uleb128 0xe
 1820 099b 24000000 		.4byte	.LVL41
 1821 099f 8E070000 		.4byte	0x78e
 1822 09a3 B4090000 		.4byte	0x9b4
 1823 09a7 03       		.uleb128 0x3
 1824 09a8 01       		.uleb128 0x1
ARM GAS  /tmp/ccRBrtkq.s 			page 33


 1825 09a9 50       		.byte	0x50
 1826 09aa 02       		.uleb128 0x2
 1827 09ab 74       		.byte	0x74
 1828 09ac 0C       		.sleb128 12
 1829 09ad 03       		.uleb128 0x3
 1830 09ae 01       		.uleb128 0x1
 1831 09af 51       		.byte	0x51
 1832 09b0 02       		.uleb128 0x2
 1833 09b1 75       		.byte	0x75
 1834 09b2 00       		.sleb128 0
 1835 09b3 00       		.byte	0
 1836 09b4 26       		.uleb128 0x26
 1837 09b5 3C000000 		.4byte	.LVL43
 1838 09b9 AE070000 		.4byte	0x7ae
 1839 09bd D1090000 		.4byte	0x9d1
 1840 09c1 03       		.uleb128 0x3
 1841 09c2 01       		.uleb128 0x1
 1842 09c3 50       		.byte	0x50
 1843 09c4 05       		.uleb128 0x5
 1844 09c5 A3       		.byte	0xa3
 1845 09c6 01       		.uleb128 0x1
 1846 09c7 50       		.byte	0x50
 1847 09c8 23       		.byte	0x23
 1848 09c9 04       		.uleb128 0x4
 1849 09ca 03       		.uleb128 0x3
 1850 09cb 01       		.uleb128 0x1
 1851 09cc 51       		.byte	0x51
 1852 09cd 02       		.uleb128 0x2
 1853 09ce 08       		.byte	0x8
 1854 09cf 80       		.byte	0x80
 1855 09d0 00       		.byte	0
 1856 09d1 14       		.uleb128 0x14
 1857 09d2 48000000 		.4byte	.LVL46
 1858 09d6 AE070000 		.4byte	0x7ae
 1859 09da 03       		.uleb128 0x3
 1860 09db 01       		.uleb128 0x1
 1861 09dc 50       		.byte	0x50
 1862 09dd 02       		.uleb128 0x2
 1863 09de 74       		.byte	0x74
 1864 09df 04       		.sleb128 4
 1865 09e0 03       		.uleb128 0x3
 1866 09e1 01       		.uleb128 0x1
 1867 09e2 51       		.byte	0x51
 1868 09e3 01       		.uleb128 0x1
 1869 09e4 34       		.byte	0x34
 1870 09e5 00       		.byte	0
 1871 09e6 00       		.byte	0
 1872 09e7 0F       		.uleb128 0xf
 1873 09e8 69030000 		.4byte	.LASF112
 1874 09ec AE       		.byte	0xae
 1875 09ed 00000000 		.4byte	.LFB18
 1876 09f1 34000000 		.4byte	.LFE18-.LFB18
 1877 09f5 01       		.uleb128 0x1
 1878 09f6 9C       		.byte	0x9c
 1879 09f7 540A0000 		.4byte	0xa54
 1880 09fb 06       		.uleb128 0x6
 1881 09fc 73647000 		.ascii	"sdp\000"
ARM GAS  /tmp/ccRBrtkq.s 			page 34


 1882 0a00 AE       		.byte	0xae
 1883 0a01 1B       		.byte	0x1b
 1884 0a02 03080000 		.4byte	0x803
 1885 0a06 8C000000 		.4byte	.LLST27
 1886 0a0a 88000000 		.4byte	.LVUS27
 1887 0a0e 0E       		.uleb128 0xe
 1888 0a0f 10000000 		.4byte	.LVL35
 1889 0a13 F2070000 		.4byte	0x7f2
 1890 0a17 220A0000 		.4byte	0xa22
 1891 0a1b 03       		.uleb128 0x3
 1892 0a1c 01       		.uleb128 0x1
 1893 0a1d 50       		.byte	0x50
 1894 0a1e 02       		.uleb128 0x2
 1895 0a1f 74       		.byte	0x74
 1896 0a20 00       		.sleb128 0
 1897 0a21 00       		.byte	0
 1898 0a22 0E       		.uleb128 0xe
 1899 0a23 20000000 		.4byte	.LVL36
 1900 0a27 E1070000 		.4byte	0x7e1
 1901 0a2b 360A0000 		.4byte	0xa36
 1902 0a2f 03       		.uleb128 0x3
 1903 0a30 01       		.uleb128 0x1
 1904 0a31 50       		.byte	0x50
 1905 0a32 02       		.uleb128 0x2
 1906 0a33 74       		.byte	0x74
 1907 0a34 30       		.sleb128 48
 1908 0a35 00       		.byte	0
 1909 0a36 0E       		.uleb128 0xe
 1910 0a37 28000000 		.4byte	.LVL37
 1911 0a3b D0070000 		.4byte	0x7d0
 1912 0a3f 4A0A0000 		.4byte	0xa4a
 1913 0a43 03       		.uleb128 0x3
 1914 0a44 01       		.uleb128 0x1
 1915 0a45 50       		.byte	0x50
 1916 0a46 02       		.uleb128 0x2
 1917 0a47 74       		.byte	0x74
 1918 0a48 0C       		.sleb128 12
 1919 0a49 00       		.byte	0
 1920 0a4a 27       		.uleb128 0x27
 1921 0a4b 2C000000 		.4byte	.LVL38
 1922 0a4f C9070000 		.4byte	0x7c9
 1923 0a53 00       		.byte	0
 1924 0a54 0F       		.uleb128 0xf
 1925 0a55 21020000 		.4byte	.LASF113
 1926 0a59 98       		.byte	0x98
 1927 0a5a 00000000 		.4byte	.LFB17
 1928 0a5e 20000000 		.4byte	.LFE17-.LFB17
 1929 0a62 01       		.uleb128 0x1
 1930 0a63 9C       		.byte	0x9c
 1931 0a64 A60A0000 		.4byte	0xaa6
 1932 0a68 06       		.uleb128 0x6
 1933 0a69 73647000 		.ascii	"sdp\000"
 1934 0a6d 98       		.byte	0x98
 1935 0a6e 1C       		.byte	0x1c
 1936 0a6f 03080000 		.4byte	0x803
 1937 0a73 A0000000 		.4byte	.LLST25
 1938 0a77 9C000000 		.4byte	.LVUS25
ARM GAS  /tmp/ccRBrtkq.s 			page 35


 1939 0a7b 0C       		.uleb128 0xc
 1940 0a7c 04040000 		.4byte	.LASF114
 1941 0a80 98       		.byte	0x98
 1942 0a81 35       		.byte	0x35
 1943 0a82 1E080000 		.4byte	0x81e
 1944 0a86 B4000000 		.4byte	.LLST26
 1945 0a8a B0000000 		.4byte	.LVUS26
 1946 0a8e 14       		.uleb128 0x14
 1947 0a8f 10000000 		.4byte	.LVL33
 1948 0a93 08080000 		.4byte	0x808
 1949 0a97 03       		.uleb128 0x3
 1950 0a98 01       		.uleb128 0x1
 1951 0a99 50       		.byte	0x50
 1952 0a9a 02       		.uleb128 0x2
 1953 0a9b 74       		.byte	0x74
 1954 0a9c 00       		.sleb128 0
 1955 0a9d 03       		.uleb128 0x3
 1956 0a9e 01       		.uleb128 0x1
 1957 0a9f 51       		.byte	0x51
 1958 0aa0 03       		.uleb128 0x3
 1959 0aa1 A3       		.byte	0xa3
 1960 0aa2 01       		.uleb128 0x1
 1961 0aa3 51       		.byte	0x51
 1962 0aa4 00       		.byte	0
 1963 0aa5 00       		.byte	0
 1964 0aa6 0F       		.uleb128 0xf
 1965 0aa7 C5000000 		.4byte	.LASF115
 1966 0aab 85       		.byte	0x85
 1967 0aac 00000000 		.4byte	.LFB16
 1968 0ab0 64000000 		.4byte	.LFE16-.LFB16
 1969 0ab4 01       		.uleb128 0x1
 1970 0ab5 9C       		.byte	0x9c
 1971 0ab6 440B0000 		.4byte	0xb44
 1972 0aba 06       		.uleb128 0x6
 1973 0abb 73647000 		.ascii	"sdp\000"
 1974 0abf 85       		.byte	0x85
 1975 0ac0 21       		.byte	0x21
 1976 0ac1 03080000 		.4byte	0x803
 1977 0ac5 CD000000 		.4byte	.LLST22
 1978 0ac9 C7000000 		.4byte	.LVUS22
 1979 0acd 0C       		.uleb128 0xc
 1980 0ace 5F020000 		.4byte	.LASF116
 1981 0ad2 85       		.byte	0x85
 1982 0ad3 30       		.byte	0x30
 1983 0ad4 F5040000 		.4byte	0x4f5
 1984 0ad8 EB000000 		.4byte	.LLST23
 1985 0adc E5000000 		.4byte	.LVUS23
 1986 0ae0 0C       		.uleb128 0xc
 1987 0ae1 3C040000 		.4byte	.LASF117
 1988 0ae5 85       		.byte	0x85
 1989 0ae6 43       		.byte	0x43
 1990 0ae7 F5040000 		.4byte	0x4f5
 1991 0aeb 09010000 		.4byte	.LLST24
 1992 0aef 03010000 		.4byte	.LVUS24
 1993 0af3 0E       		.uleb128 0xe
 1994 0af4 40000000 		.4byte	.LVL29
 1995 0af8 CD080000 		.4byte	0x8cd
ARM GAS  /tmp/ccRBrtkq.s 			page 36


 1996 0afc 1A0B0000 		.4byte	0xb1a
 1997 0b00 03       		.uleb128 0x3
 1998 0b01 01       		.uleb128 0x1
 1999 0b02 50       		.byte	0x50
 2000 0b03 02       		.uleb128 0x2
 2001 0b04 74       		.byte	0x74
 2002 0b05 0C       		.sleb128 12
 2003 0b06 03       		.uleb128 0x3
 2004 0b07 01       		.uleb128 0x1
 2005 0b08 51       		.byte	0x51
 2006 0b09 03       		.uleb128 0x3
 2007 0b0a 74       		.byte	0x74
 2008 0b0b D400     		.sleb128 84
 2009 0b0d 03       		.uleb128 0x3
 2010 0b0e 01       		.uleb128 0x1
 2011 0b0f 52       		.byte	0x52
 2012 0b10 01       		.uleb128 0x1
 2013 0b11 40       		.byte	0x40
 2014 0b12 03       		.uleb128 0x3
 2015 0b13 01       		.uleb128 0x1
 2016 0b14 53       		.byte	0x53
 2017 0b15 03       		.uleb128 0x3
 2018 0b16 A3       		.byte	0xa3
 2019 0b17 01       		.uleb128 0x1
 2020 0b18 51       		.byte	0x51
 2021 0b19 00       		.byte	0
 2022 0b1a 14       		.uleb128 0x14
 2023 0b1b 58000000 		.4byte	.LVL30
 2024 0b1f A8080000 		.4byte	0x8a8
 2025 0b23 03       		.uleb128 0x3
 2026 0b24 01       		.uleb128 0x1
 2027 0b25 50       		.byte	0x50
 2028 0b26 02       		.uleb128 0x2
 2029 0b27 74       		.byte	0x74
 2030 0b28 30       		.sleb128 48
 2031 0b29 03       		.uleb128 0x3
 2032 0b2a 01       		.uleb128 0x1
 2033 0b2b 51       		.byte	0x51
 2034 0b2c 03       		.uleb128 0x3
 2035 0b2d 74       		.byte	0x74
 2036 0b2e E400     		.sleb128 100
 2037 0b30 03       		.uleb128 0x3
 2038 0b31 01       		.uleb128 0x1
 2039 0b32 52       		.byte	0x52
 2040 0b33 01       		.uleb128 0x1
 2041 0b34 40       		.byte	0x40
 2042 0b35 03       		.uleb128 0x3
 2043 0b36 01       		.uleb128 0x1
 2044 0b37 53       		.byte	0x53
 2045 0b38 02       		.uleb128 0x2
 2046 0b39 75       		.byte	0x75
 2047 0b3a 00       		.sleb128 0
 2048 0b3b 03       		.uleb128 0x3
 2049 0b3c 02       		.uleb128 0x2
 2050 0b3d 7D       		.byte	0x7d
 2051 0b3e 00       		.sleb128 0
 2052 0b3f 02       		.uleb128 0x2
ARM GAS  /tmp/ccRBrtkq.s 			page 37


 2053 0b40 74       		.byte	0x74
 2054 0b41 00       		.sleb128 0
 2055 0b42 00       		.byte	0
 2056 0b43 00       		.byte	0
 2057 0b44 0F       		.uleb128 0xf
 2058 0b45 23000000 		.4byte	.LASF118
 2059 0b49 71       		.byte	0x71
 2060 0b4a 00000000 		.4byte	.LFB15
 2061 0b4e 04000000 		.4byte	.LFE15-.LFB15
 2062 0b52 01       		.uleb128 0x1
 2063 0b53 9C       		.byte	0x9c
 2064 0b54 620B0000 		.4byte	0xb62
 2065 0b58 28       		.uleb128 0x28
 2066 0b59 04000000 		.4byte	.LVL24
 2067 0b5d F2080000 		.4byte	0x8f2
 2068 0b61 00       		.byte	0
 2069 0b62 10       		.uleb128 0x10
 2070 0b63 38050000 		.4byte	.LASF95
 2071 0b67 5C       		.byte	0x5c
 2072 0b68 0F       		.byte	0xf
 2073 0b69 2D000000 		.4byte	0x2d
 2074 0b6d 00000000 		.4byte	.LFB14
 2075 0b71 08000000 		.4byte	.LFE14-.LFB14
 2076 0b75 01       		.uleb128 0x1
 2077 0b76 9C       		.byte	0x9c
 2078 0b77 EC0B0000 		.4byte	0xbec
 2079 0b7b 06       		.uleb128 0x6
 2080 0b7c 697000   		.ascii	"ip\000"
 2081 0b7f 5C       		.byte	0x5c
 2082 0b80 1B       		.byte	0x1b
 2083 0b81 B5020000 		.4byte	0x2b5
 2084 0b85 27010000 		.4byte	.LLST0
 2085 0b89 21010000 		.4byte	.LVUS0
 2086 0b8d 06       		.uleb128 0x6
 2087 0b8e 627000   		.ascii	"bp\000"
 2088 0b91 5C       		.byte	0x5c
 2089 0b92 28       		.byte	0x28
 2090 0b93 16050000 		.4byte	0x516
 2091 0b97 45010000 		.4byte	.LLST1
 2092 0b9b 41010000 		.4byte	.LVUS1
 2093 0b9f 06       		.uleb128 0x6
 2094 0ba0 6E00     		.ascii	"n\000"
 2095 0ba2 5C       		.byte	0x5c
 2096 0ba3 33       		.byte	0x33
 2097 0ba4 2D000000 		.4byte	0x2d
 2098 0ba8 5C010000 		.4byte	.LLST2
 2099 0bac 58010000 		.4byte	.LVUS2
 2100 0bb0 0C       		.uleb128 0xc
 2101 0bb1 29020000 		.4byte	.LASF119
 2102 0bb5 5C       		.byte	0x5c
 2103 0bb6 40       		.byte	0x40
 2104 0bb7 31010000 		.4byte	0x131
 2105 0bbb 73010000 		.4byte	.LLST3
 2106 0bbf 6F010000 		.4byte	.LVUS3
 2107 0bc3 0B       		.uleb128 0xb
 2108 0bc4 08000000 		.4byte	.LVL2
 2109 0bc8 83080000 		.4byte	0x883
ARM GAS  /tmp/ccRBrtkq.s 			page 38


 2110 0bcc 03       		.uleb128 0x3
 2111 0bcd 01       		.uleb128 0x1
 2112 0bce 50       		.byte	0x50
 2113 0bcf 05       		.uleb128 0x5
 2114 0bd0 A3       		.byte	0xa3
 2115 0bd1 01       		.uleb128 0x1
 2116 0bd2 50       		.byte	0x50
 2117 0bd3 23       		.byte	0x23
 2118 0bd4 0C       		.uleb128 0xc
 2119 0bd5 03       		.uleb128 0x3
 2120 0bd6 01       		.uleb128 0x1
 2121 0bd7 51       		.byte	0x51
 2122 0bd8 03       		.uleb128 0x3
 2123 0bd9 A3       		.byte	0xa3
 2124 0bda 01       		.uleb128 0x1
 2125 0bdb 51       		.byte	0x51
 2126 0bdc 03       		.uleb128 0x3
 2127 0bdd 01       		.uleb128 0x1
 2128 0bde 52       		.byte	0x52
 2129 0bdf 03       		.uleb128 0x3
 2130 0be0 A3       		.byte	0xa3
 2131 0be1 01       		.uleb128 0x1
 2132 0be2 52       		.byte	0x52
 2133 0be3 03       		.uleb128 0x3
 2134 0be4 01       		.uleb128 0x1
 2135 0be5 53       		.byte	0x53
 2136 0be6 03       		.uleb128 0x3
 2137 0be7 A3       		.byte	0xa3
 2138 0be8 01       		.uleb128 0x1
 2139 0be9 53       		.byte	0x53
 2140 0bea 00       		.byte	0
 2141 0beb 00       		.byte	0
 2142 0bec 10       		.uleb128 0x10
 2143 0bed E9000000 		.4byte	.LASF94
 2144 0bf1 57       		.byte	0x57
 2145 0bf2 0F       		.byte	0xf
 2146 0bf3 2D000000 		.4byte	0x2d
 2147 0bf7 00000000 		.4byte	.LFB13
 2148 0bfb 08000000 		.4byte	.LFE13-.LFB13
 2149 0bff 01       		.uleb128 0x1
 2150 0c00 9C       		.byte	0x9c
 2151 0c01 760C0000 		.4byte	0xc76
 2152 0c05 06       		.uleb128 0x6
 2153 0c06 697000   		.ascii	"ip\000"
 2154 0c09 57       		.byte	0x57
 2155 0c0a 1C       		.byte	0x1c
 2156 0c0b B5020000 		.4byte	0x2b5
 2157 0c0f 8C010000 		.4byte	.LLST7
 2158 0c13 86010000 		.4byte	.LVUS7
 2159 0c17 06       		.uleb128 0x6
 2160 0c18 627000   		.ascii	"bp\000"
 2161 0c1b 57       		.byte	0x57
 2162 0c1c 2F       		.byte	0x2f
 2163 0c1d 4C050000 		.4byte	0x54c
 2164 0c21 AA010000 		.4byte	.LLST8
 2165 0c25 A6010000 		.4byte	.LVUS8
 2166 0c29 06       		.uleb128 0x6
ARM GAS  /tmp/ccRBrtkq.s 			page 39


 2167 0c2a 6E00     		.ascii	"n\000"
 2168 0c2c 57       		.byte	0x57
 2169 0c2d 3A       		.byte	0x3a
 2170 0c2e 2D000000 		.4byte	0x2d
 2171 0c32 C1010000 		.4byte	.LLST9
 2172 0c36 BD010000 		.4byte	.LVUS9
 2173 0c3a 0C       		.uleb128 0xc
 2174 0c3b 29020000 		.4byte	.LASF119
 2175 0c3f 57       		.byte	0x57
 2176 0c40 47       		.byte	0x47
 2177 0c41 31010000 		.4byte	0x131
 2178 0c45 D8010000 		.4byte	.LLST10
 2179 0c49 D4010000 		.4byte	.LVUS10
 2180 0c4d 0B       		.uleb128 0xb
 2181 0c4e 08000000 		.4byte	.LVL8
 2182 0c52 5E080000 		.4byte	0x85e
 2183 0c56 03       		.uleb128 0x3
 2184 0c57 01       		.uleb128 0x1
 2185 0c58 50       		.byte	0x50
 2186 0c59 05       		.uleb128 0x5
 2187 0c5a A3       		.byte	0xa3
 2188 0c5b 01       		.uleb128 0x1
 2189 0c5c 50       		.byte	0x50
 2190 0c5d 23       		.byte	0x23
 2191 0c5e 30       		.uleb128 0x30
 2192 0c5f 03       		.uleb128 0x3
 2193 0c60 01       		.uleb128 0x1
 2194 0c61 51       		.byte	0x51
 2195 0c62 03       		.uleb128 0x3
 2196 0c63 A3       		.byte	0xa3
 2197 0c64 01       		.uleb128 0x1
 2198 0c65 51       		.byte	0x51
 2199 0c66 03       		.uleb128 0x3
 2200 0c67 01       		.uleb128 0x1
 2201 0c68 52       		.byte	0x52
 2202 0c69 03       		.uleb128 0x3
 2203 0c6a A3       		.byte	0xa3
 2204 0c6b 01       		.uleb128 0x1
 2205 0c6c 52       		.byte	0x52
 2206 0c6d 03       		.uleb128 0x3
 2207 0c6e 01       		.uleb128 0x1
 2208 0c6f 53       		.byte	0x53
 2209 0c70 03       		.uleb128 0x3
 2210 0c71 A3       		.byte	0xa3
 2211 0c72 01       		.uleb128 0x1
 2212 0c73 53       		.byte	0x53
 2213 0c74 00       		.byte	0
 2214 0c75 00       		.byte	0
 2215 0c76 10       		.uleb128 0x10
 2216 0c77 89040000 		.4byte	.LASF93
 2217 0c7b 52       		.byte	0x52
 2218 0c7c 0E       		.byte	0xe
 2219 0c7d 0D010000 		.4byte	0x10d
 2220 0c81 00000000 		.4byte	.LFB12
 2221 0c85 08000000 		.4byte	.LFE12-.LFB12
 2222 0c89 01       		.uleb128 0x1
 2223 0c8a 9C       		.byte	0x9c
ARM GAS  /tmp/ccRBrtkq.s 			page 40


 2224 0c8b CF0C0000 		.4byte	0xccf
 2225 0c8f 06       		.uleb128 0x6
 2226 0c90 697000   		.ascii	"ip\000"
 2227 0c93 52       		.byte	0x52
 2228 0c94 19       		.byte	0x19
 2229 0c95 B5020000 		.4byte	0x2b5
 2230 0c99 F1010000 		.4byte	.LLST14
 2231 0c9d EB010000 		.4byte	.LVUS14
 2232 0ca1 0C       		.uleb128 0xc
 2233 0ca2 F6040000 		.4byte	.LASF120
 2234 0ca6 52       		.byte	0x52
 2235 0ca7 27       		.byte	0x27
 2236 0ca8 31010000 		.4byte	0x131
 2237 0cac 0F020000 		.4byte	.LLST15
 2238 0cb0 0B020000 		.4byte	.LVUS15
 2239 0cb4 0B       		.uleb128 0xb
 2240 0cb5 08000000 		.4byte	.LVL14
 2241 0cb9 43080000 		.4byte	0x843
 2242 0cbd 03       		.uleb128 0x3
 2243 0cbe 01       		.uleb128 0x1
 2244 0cbf 50       		.byte	0x50
 2245 0cc0 05       		.uleb128 0x5
 2246 0cc1 A3       		.byte	0xa3
 2247 0cc2 01       		.uleb128 0x1
 2248 0cc3 50       		.byte	0x50
 2249 0cc4 23       		.byte	0x23
 2250 0cc5 0C       		.uleb128 0xc
 2251 0cc6 03       		.uleb128 0x3
 2252 0cc7 01       		.uleb128 0x1
 2253 0cc8 51       		.byte	0x51
 2254 0cc9 03       		.uleb128 0x3
 2255 0cca A3       		.byte	0xa3
 2256 0ccb 01       		.uleb128 0x1
 2257 0ccc 51       		.byte	0x51
 2258 0ccd 00       		.byte	0
 2259 0cce 00       		.byte	0
 2260 0ccf 10       		.uleb128 0x10
 2261 0cd0 40020000 		.4byte	.LASF92
 2262 0cd4 4D       		.byte	0x4d
 2263 0cd5 0E       		.byte	0xe
 2264 0cd6 0D010000 		.4byte	0x10d
 2265 0cda 00000000 		.4byte	.LFB11
 2266 0cde 08000000 		.4byte	.LFE11-.LFB11
 2267 0ce2 01       		.uleb128 0x1
 2268 0ce3 9C       		.byte	0x9c
 2269 0ce4 390D0000 		.4byte	0xd39
 2270 0ce8 06       		.uleb128 0x6
 2271 0ce9 697000   		.ascii	"ip\000"
 2272 0cec 4D       		.byte	0x4d
 2273 0ced 19       		.byte	0x19
 2274 0cee B5020000 		.4byte	0x2b5
 2275 0cf2 28020000 		.4byte	.LLST17
 2276 0cf6 22020000 		.4byte	.LVUS17
 2277 0cfa 06       		.uleb128 0x6
 2278 0cfb 6200     		.ascii	"b\000"
 2279 0cfd 4D       		.byte	0x4d
 2280 0cfe 25       		.byte	0x25
ARM GAS  /tmp/ccRBrtkq.s 			page 41


 2281 0cff 9C000000 		.4byte	0x9c
 2282 0d03 46020000 		.4byte	.LLST18
 2283 0d07 42020000 		.4byte	.LVUS18
 2284 0d0b 0C       		.uleb128 0xc
 2285 0d0c F6040000 		.4byte	.LASF120
 2286 0d10 4D       		.byte	0x4d
 2287 0d11 32       		.byte	0x32
 2288 0d12 31010000 		.4byte	0x131
 2289 0d16 5D020000 		.4byte	.LLST19
 2290 0d1a 59020000 		.4byte	.LVUS19
 2291 0d1e 0B       		.uleb128 0xb
 2292 0d1f 08000000 		.4byte	.LVL20
 2293 0d23 23080000 		.4byte	0x823
 2294 0d27 03       		.uleb128 0x3
 2295 0d28 01       		.uleb128 0x1
 2296 0d29 50       		.byte	0x50
 2297 0d2a 05       		.uleb128 0x5
 2298 0d2b A3       		.byte	0xa3
 2299 0d2c 01       		.uleb128 0x1
 2300 0d2d 50       		.byte	0x50
 2301 0d2e 23       		.byte	0x23
 2302 0d2f 30       		.uleb128 0x30
 2303 0d30 03       		.uleb128 0x3
 2304 0d31 01       		.uleb128 0x1
 2305 0d32 52       		.byte	0x52
 2306 0d33 03       		.uleb128 0x3
 2307 0d34 A3       		.byte	0xa3
 2308 0d35 01       		.uleb128 0x1
 2309 0d36 52       		.byte	0x52
 2310 0d37 00       		.byte	0
 2311 0d38 00       		.byte	0
 2312 0d39 19       		.uleb128 0x19
 2313 0d3a 67657400 		.ascii	"get\000"
 2314 0d3e 48       		.byte	0x48
 2315 0d3f 0D010000 		.4byte	0x10d
 2316 0d43 00000000 		.4byte	.LFB10
 2317 0d47 0C000000 		.4byte	.LFE10-.LFB10
 2318 0d4b 01       		.uleb128 0x1
 2319 0d4c 9C       		.byte	0x9c
 2320 0d4d 7D0D0000 		.4byte	0xd7d
 2321 0d51 06       		.uleb128 0x6
 2322 0d52 697000   		.ascii	"ip\000"
 2323 0d55 48       		.byte	0x48
 2324 0d56 18       		.byte	0x18
 2325 0d57 B5020000 		.4byte	0x2b5
 2326 0d5b 76020000 		.4byte	.LLST16
 2327 0d5f 70020000 		.4byte	.LVUS16
 2328 0d63 0B       		.uleb128 0xb
 2329 0d64 0C000000 		.4byte	.LVL17
 2330 0d68 43080000 		.4byte	0x843
 2331 0d6c 03       		.uleb128 0x3
 2332 0d6d 01       		.uleb128 0x1
 2333 0d6e 50       		.byte	0x50
 2334 0d6f 05       		.uleb128 0x5
 2335 0d70 A3       		.byte	0xa3
 2336 0d71 01       		.uleb128 0x1
 2337 0d72 50       		.byte	0x50
ARM GAS  /tmp/ccRBrtkq.s 			page 42


 2338 0d73 23       		.byte	0x23
 2339 0d74 0C       		.uleb128 0xc
 2340 0d75 03       		.uleb128 0x3
 2341 0d76 01       		.uleb128 0x1
 2342 0d77 51       		.byte	0x51
 2343 0d78 02       		.uleb128 0x2
 2344 0d79 09       		.byte	0x9
 2345 0d7a FF       		.byte	0xff
 2346 0d7b 00       		.byte	0
 2347 0d7c 00       		.byte	0
 2348 0d7d 19       		.uleb128 0x19
 2349 0d7e 70757400 		.ascii	"put\000"
 2350 0d82 43       		.byte	0x43
 2351 0d83 0D010000 		.4byte	0x10d
 2352 0d87 00000000 		.4byte	.LFB9
 2353 0d8b 0C000000 		.4byte	.LFE9-.LFB9
 2354 0d8f 01       		.uleb128 0x1
 2355 0d90 9C       		.byte	0x9c
 2356 0d91 D20D0000 		.4byte	0xdd2
 2357 0d95 06       		.uleb128 0x6
 2358 0d96 697000   		.ascii	"ip\000"
 2359 0d99 43       		.byte	0x43
 2360 0d9a 18       		.byte	0x18
 2361 0d9b B5020000 		.4byte	0x2b5
 2362 0d9f 96020000 		.4byte	.LLST20
 2363 0da3 90020000 		.4byte	.LVUS20
 2364 0da7 06       		.uleb128 0x6
 2365 0da8 6200     		.ascii	"b\000"
 2366 0daa 43       		.byte	0x43
 2367 0dab 24       		.byte	0x24
 2368 0dac 9C000000 		.4byte	0x9c
 2369 0db0 B4020000 		.4byte	.LLST21
 2370 0db4 B0020000 		.4byte	.LVUS21
 2371 0db8 0B       		.uleb128 0xb
 2372 0db9 0C000000 		.4byte	.LVL23
 2373 0dbd 23080000 		.4byte	0x823
 2374 0dc1 03       		.uleb128 0x3
 2375 0dc2 01       		.uleb128 0x1
 2376 0dc3 50       		.byte	0x50
 2377 0dc4 05       		.uleb128 0x5
 2378 0dc5 A3       		.byte	0xa3
 2379 0dc6 01       		.uleb128 0x1
 2380 0dc7 50       		.byte	0x50
 2381 0dc8 23       		.byte	0x23
 2382 0dc9 30       		.uleb128 0x30
 2383 0dca 03       		.uleb128 0x3
 2384 0dcb 01       		.uleb128 0x1
 2385 0dcc 52       		.byte	0x52
 2386 0dcd 02       		.uleb128 0x2
 2387 0dce 09       		.byte	0x9
 2388 0dcf FF       		.byte	0xff
 2389 0dd0 00       		.byte	0
 2390 0dd1 00       		.byte	0
 2391 0dd2 10       		.uleb128 0x10
 2392 0dd3 5B040000 		.4byte	.LASF91
 2393 0dd7 3D       		.byte	0x3d
 2394 0dd8 0F       		.byte	0xf
ARM GAS  /tmp/ccRBrtkq.s 			page 43


 2395 0dd9 2D000000 		.4byte	0x2d
 2396 0ddd 00000000 		.4byte	.LFB8
 2397 0de1 0C000000 		.4byte	.LFE8-.LFB8
 2398 0de5 01       		.uleb128 0x1
 2399 0de6 9C       		.byte	0x9c
 2400 0de7 480E0000 		.4byte	0xe48
 2401 0deb 06       		.uleb128 0x6
 2402 0dec 697000   		.ascii	"ip\000"
 2403 0def 3D       		.byte	0x3d
 2404 0df0 1A       		.byte	0x1a
 2405 0df1 B5020000 		.4byte	0x2b5
 2406 0df5 CD020000 		.4byte	.LLST4
 2407 0df9 C7020000 		.4byte	.LVUS4
 2408 0dfd 06       		.uleb128 0x6
 2409 0dfe 627000   		.ascii	"bp\000"
 2410 0e01 3D       		.byte	0x3d
 2411 0e02 27       		.byte	0x27
 2412 0e03 16050000 		.4byte	0x516
 2413 0e07 EB020000 		.4byte	.LLST5
 2414 0e0b E7020000 		.4byte	.LVUS5
 2415 0e0f 06       		.uleb128 0x6
 2416 0e10 6E00     		.ascii	"n\000"
 2417 0e12 3D       		.byte	0x3d
 2418 0e13 32       		.byte	0x32
 2419 0e14 2D000000 		.4byte	0x2d
 2420 0e18 02030000 		.4byte	.LLST6
 2421 0e1c FE020000 		.4byte	.LVUS6
 2422 0e20 0B       		.uleb128 0xb
 2423 0e21 0C000000 		.4byte	.LVL5
 2424 0e25 83080000 		.4byte	0x883
 2425 0e29 03       		.uleb128 0x3
 2426 0e2a 01       		.uleb128 0x1
 2427 0e2b 50       		.byte	0x50
 2428 0e2c 05       		.uleb128 0x5
 2429 0e2d A3       		.byte	0xa3
 2430 0e2e 01       		.uleb128 0x1
 2431 0e2f 50       		.byte	0x50
 2432 0e30 23       		.byte	0x23
 2433 0e31 0C       		.uleb128 0xc
 2434 0e32 03       		.uleb128 0x3
 2435 0e33 01       		.uleb128 0x1
 2436 0e34 51       		.byte	0x51
 2437 0e35 03       		.uleb128 0x3
 2438 0e36 A3       		.byte	0xa3
 2439 0e37 01       		.uleb128 0x1
 2440 0e38 51       		.byte	0x51
 2441 0e39 03       		.uleb128 0x3
 2442 0e3a 01       		.uleb128 0x1
 2443 0e3b 52       		.byte	0x52
 2444 0e3c 03       		.uleb128 0x3
 2445 0e3d A3       		.byte	0xa3
 2446 0e3e 01       		.uleb128 0x1
 2447 0e3f 52       		.byte	0x52
 2448 0e40 03       		.uleb128 0x3
 2449 0e41 01       		.uleb128 0x1
 2450 0e42 53       		.byte	0x53
 2451 0e43 02       		.uleb128 0x2
ARM GAS  /tmp/ccRBrtkq.s 			page 44


 2452 0e44 09       		.byte	0x9
 2453 0e45 FF       		.byte	0xff
 2454 0e46 00       		.byte	0
 2455 0e47 00       		.byte	0
 2456 0e48 29       		.uleb128 0x29
 2457 0e49 2F030000 		.4byte	.LASF90
 2458 0e4d 01       		.byte	0x1
 2459 0e4e 37       		.byte	0x37
 2460 0e4f 0F       		.byte	0xf
 2461 0e50 2D000000 		.4byte	0x2d
 2462 0e54 00000000 		.4byte	.LFB7
 2463 0e58 0C000000 		.4byte	.LFE7-.LFB7
 2464 0e5c 01       		.uleb128 0x1
 2465 0e5d 9C       		.byte	0x9c
 2466 0e5e 06       		.uleb128 0x6
 2467 0e5f 697000   		.ascii	"ip\000"
 2468 0e62 37       		.byte	0x37
 2469 0e63 1B       		.byte	0x1b
 2470 0e64 B5020000 		.4byte	0x2b5
 2471 0e68 1B030000 		.4byte	.LLST11
 2472 0e6c 15030000 		.4byte	.LVUS11
 2473 0e70 06       		.uleb128 0x6
 2474 0e71 627000   		.ascii	"bp\000"
 2475 0e74 37       		.byte	0x37
 2476 0e75 2E       		.byte	0x2e
 2477 0e76 4C050000 		.4byte	0x54c
 2478 0e7a 39030000 		.4byte	.LLST12
 2479 0e7e 35030000 		.4byte	.LVUS12
 2480 0e82 06       		.uleb128 0x6
 2481 0e83 6E00     		.ascii	"n\000"
 2482 0e85 37       		.byte	0x37
 2483 0e86 39       		.byte	0x39
 2484 0e87 2D000000 		.4byte	0x2d
 2485 0e8b 50030000 		.4byte	.LLST13
 2486 0e8f 4C030000 		.4byte	.LVUS13
 2487 0e93 0B       		.uleb128 0xb
 2488 0e94 0C000000 		.4byte	.LVL11
 2489 0e98 5E080000 		.4byte	0x85e
 2490 0e9c 03       		.uleb128 0x3
 2491 0e9d 01       		.uleb128 0x1
 2492 0e9e 50       		.byte	0x50
 2493 0e9f 05       		.uleb128 0x5
 2494 0ea0 A3       		.byte	0xa3
 2495 0ea1 01       		.uleb128 0x1
 2496 0ea2 50       		.byte	0x50
 2497 0ea3 23       		.byte	0x23
 2498 0ea4 30       		.uleb128 0x30
 2499 0ea5 03       		.uleb128 0x3
 2500 0ea6 01       		.uleb128 0x1
 2501 0ea7 51       		.byte	0x51
 2502 0ea8 03       		.uleb128 0x3
 2503 0ea9 A3       		.byte	0xa3
 2504 0eaa 01       		.uleb128 0x1
 2505 0eab 51       		.byte	0x51
 2506 0eac 03       		.uleb128 0x3
 2507 0ead 01       		.uleb128 0x1
 2508 0eae 52       		.byte	0x52
ARM GAS  /tmp/ccRBrtkq.s 			page 45


 2509 0eaf 03       		.uleb128 0x3
 2510 0eb0 A3       		.byte	0xa3
 2511 0eb1 01       		.uleb128 0x1
 2512 0eb2 52       		.byte	0x52
 2513 0eb3 03       		.uleb128 0x3
 2514 0eb4 01       		.uleb128 0x1
 2515 0eb5 53       		.byte	0x53
 2516 0eb6 02       		.uleb128 0x2
 2517 0eb7 09       		.byte	0x9
 2518 0eb8 FF       		.byte	0xff
 2519 0eb9 00       		.byte	0
 2520 0eba 00       		.byte	0
 2521 0ebb 00       		.byte	0
 2522              		.section	.debug_abbrev,"",%progbits
 2523              	.Ldebug_abbrev0:
 2524 0000 01       		.uleb128 0x1
 2525 0001 05       		.uleb128 0x5
 2526 0002 00       		.byte	0
 2527 0003 49       		.uleb128 0x49
 2528 0004 13       		.uleb128 0x13
 2529 0005 00       		.byte	0
 2530 0006 00       		.byte	0
 2531 0007 02       		.uleb128 0x2
 2532 0008 0D       		.uleb128 0xd
 2533 0009 00       		.byte	0
 2534 000a 03       		.uleb128 0x3
 2535 000b 0E       		.uleb128 0xe
 2536 000c 3A       		.uleb128 0x3a
 2537 000d 0B       		.uleb128 0xb
 2538 000e 3B       		.uleb128 0x3b
 2539 000f 0B       		.uleb128 0xb
 2540 0010 39       		.uleb128 0x39
 2541 0011 0B       		.uleb128 0xb
 2542 0012 49       		.uleb128 0x49
 2543 0013 13       		.uleb128 0x13
 2544 0014 38       		.uleb128 0x38
 2545 0015 0B       		.uleb128 0xb
 2546 0016 00       		.byte	0
 2547 0017 00       		.byte	0
 2548 0018 03       		.uleb128 0x3
 2549 0019 49       		.uleb128 0x49
 2550 001a 00       		.byte	0
 2551 001b 02       		.uleb128 0x2
 2552 001c 18       		.uleb128 0x18
 2553 001d 7E       		.uleb128 0x7e
 2554 001e 18       		.uleb128 0x18
 2555 001f 00       		.byte	0
 2556 0020 00       		.byte	0
 2557 0021 04       		.uleb128 0x4
 2558 0022 16       		.uleb128 0x16
 2559 0023 00       		.byte	0
 2560 0024 03       		.uleb128 0x3
 2561 0025 0E       		.uleb128 0xe
 2562 0026 3A       		.uleb128 0x3a
 2563 0027 0B       		.uleb128 0xb
 2564 0028 3B       		.uleb128 0x3b
 2565 0029 0B       		.uleb128 0xb
ARM GAS  /tmp/ccRBrtkq.s 			page 46


 2566 002a 39       		.uleb128 0x39
 2567 002b 0B       		.uleb128 0xb
 2568 002c 49       		.uleb128 0x49
 2569 002d 13       		.uleb128 0x13
 2570 002e 00       		.byte	0
 2571 002f 00       		.byte	0
 2572 0030 05       		.uleb128 0x5
 2573 0031 0F       		.uleb128 0xf
 2574 0032 00       		.byte	0
 2575 0033 0B       		.uleb128 0xb
 2576 0034 21       		.uleb128 0x21
 2577 0035 04       		.sleb128 4
 2578 0036 49       		.uleb128 0x49
 2579 0037 13       		.uleb128 0x13
 2580 0038 00       		.byte	0
 2581 0039 00       		.byte	0
 2582 003a 06       		.uleb128 0x6
 2583 003b 05       		.uleb128 0x5
 2584 003c 00       		.byte	0
 2585 003d 03       		.uleb128 0x3
 2586 003e 08       		.uleb128 0x8
 2587 003f 3A       		.uleb128 0x3a
 2588 0040 21       		.uleb128 0x21
 2589 0041 01       		.sleb128 1
 2590 0042 3B       		.uleb128 0x3b
 2591 0043 0B       		.uleb128 0xb
 2592 0044 39       		.uleb128 0x39
 2593 0045 0B       		.uleb128 0xb
 2594 0046 49       		.uleb128 0x49
 2595 0047 13       		.uleb128 0x13
 2596 0048 02       		.uleb128 0x2
 2597 0049 17       		.uleb128 0x17
 2598 004a B742     		.uleb128 0x2137
 2599 004c 17       		.uleb128 0x17
 2600 004d 00       		.byte	0
 2601 004e 00       		.byte	0
 2602 004f 07       		.uleb128 0x7
 2603 0050 0D       		.uleb128 0xd
 2604 0051 00       		.byte	0
 2605 0052 03       		.uleb128 0x3
 2606 0053 08       		.uleb128 0x8
 2607 0054 3A       		.uleb128 0x3a
 2608 0055 0B       		.uleb128 0xb
 2609 0056 3B       		.uleb128 0x3b
 2610 0057 0B       		.uleb128 0xb
 2611 0058 39       		.uleb128 0x39
 2612 0059 0B       		.uleb128 0xb
 2613 005a 49       		.uleb128 0x49
 2614 005b 13       		.uleb128 0x13
 2615 005c 38       		.uleb128 0x38
 2616 005d 0B       		.uleb128 0xb
 2617 005e 00       		.byte	0
 2618 005f 00       		.byte	0
 2619 0060 08       		.uleb128 0x8
 2620 0061 24       		.uleb128 0x24
 2621 0062 00       		.byte	0
 2622 0063 0B       		.uleb128 0xb
ARM GAS  /tmp/ccRBrtkq.s 			page 47


 2623 0064 0B       		.uleb128 0xb
 2624 0065 3E       		.uleb128 0x3e
 2625 0066 0B       		.uleb128 0xb
 2626 0067 03       		.uleb128 0x3
 2627 0068 0E       		.uleb128 0xe
 2628 0069 00       		.byte	0
 2629 006a 00       		.byte	0
 2630 006b 09       		.uleb128 0x9
 2631 006c 13       		.uleb128 0x13
 2632 006d 01       		.byte	0x1
 2633 006e 03       		.uleb128 0x3
 2634 006f 0E       		.uleb128 0xe
 2635 0070 0B       		.uleb128 0xb
 2636 0071 0B       		.uleb128 0xb
 2637 0072 3A       		.uleb128 0x3a
 2638 0073 0B       		.uleb128 0xb
 2639 0074 3B       		.uleb128 0x3b
 2640 0075 0B       		.uleb128 0xb
 2641 0076 39       		.uleb128 0x39
 2642 0077 0B       		.uleb128 0xb
 2643 0078 01       		.uleb128 0x1
 2644 0079 13       		.uleb128 0x13
 2645 007a 00       		.byte	0
 2646 007b 00       		.byte	0
 2647 007c 0A       		.uleb128 0xa
 2648 007d 15       		.uleb128 0x15
 2649 007e 01       		.byte	0x1
 2650 007f 27       		.uleb128 0x27
 2651 0080 19       		.uleb128 0x19
 2652 0081 49       		.uleb128 0x49
 2653 0082 13       		.uleb128 0x13
 2654 0083 01       		.uleb128 0x1
 2655 0084 13       		.uleb128 0x13
 2656 0085 00       		.byte	0
 2657 0086 00       		.byte	0
 2658 0087 0B       		.uleb128 0xb
 2659 0088 48       		.uleb128 0x48
 2660 0089 01       		.byte	0x1
 2661 008a 7D       		.uleb128 0x7d
 2662 008b 01       		.uleb128 0x1
 2663 008c 8201     		.uleb128 0x82
 2664 008e 19       		.uleb128 0x19
 2665 008f 7F       		.uleb128 0x7f
 2666 0090 13       		.uleb128 0x13
 2667 0091 00       		.byte	0
 2668 0092 00       		.byte	0
 2669 0093 0C       		.uleb128 0xc
 2670 0094 05       		.uleb128 0x5
 2671 0095 00       		.byte	0
 2672 0096 03       		.uleb128 0x3
 2673 0097 0E       		.uleb128 0xe
 2674 0098 3A       		.uleb128 0x3a
 2675 0099 21       		.uleb128 0x21
 2676 009a 01       		.sleb128 1
 2677 009b 3B       		.uleb128 0x3b
 2678 009c 0B       		.uleb128 0xb
 2679 009d 39       		.uleb128 0x39
ARM GAS  /tmp/ccRBrtkq.s 			page 48


 2680 009e 0B       		.uleb128 0xb
 2681 009f 49       		.uleb128 0x49
 2682 00a0 13       		.uleb128 0x13
 2683 00a1 02       		.uleb128 0x2
 2684 00a2 17       		.uleb128 0x17
 2685 00a3 B742     		.uleb128 0x2137
 2686 00a5 17       		.uleb128 0x17
 2687 00a6 00       		.byte	0
 2688 00a7 00       		.byte	0
 2689 00a8 0D       		.uleb128 0xd
 2690 00a9 2E       		.uleb128 0x2e
 2691 00aa 01       		.byte	0x1
 2692 00ab 3F       		.uleb128 0x3f
 2693 00ac 19       		.uleb128 0x19
 2694 00ad 03       		.uleb128 0x3
 2695 00ae 0E       		.uleb128 0xe
 2696 00af 3A       		.uleb128 0x3a
 2697 00b0 21       		.uleb128 0x21
 2698 00b1 0B       		.sleb128 11
 2699 00b2 3B       		.uleb128 0x3b
 2700 00b3 05       		.uleb128 0x5
 2701 00b4 39       		.uleb128 0x39
 2702 00b5 0B       		.uleb128 0xb
 2703 00b6 27       		.uleb128 0x27
 2704 00b7 19       		.uleb128 0x19
 2705 00b8 49       		.uleb128 0x49
 2706 00b9 13       		.uleb128 0x13
 2707 00ba 3C       		.uleb128 0x3c
 2708 00bb 19       		.uleb128 0x19
 2709 00bc 01       		.uleb128 0x1
 2710 00bd 13       		.uleb128 0x13
 2711 00be 00       		.byte	0
 2712 00bf 00       		.byte	0
 2713 00c0 0E       		.uleb128 0xe
 2714 00c1 48       		.uleb128 0x48
 2715 00c2 01       		.byte	0x1
 2716 00c3 7D       		.uleb128 0x7d
 2717 00c4 01       		.uleb128 0x1
 2718 00c5 7F       		.uleb128 0x7f
 2719 00c6 13       		.uleb128 0x13
 2720 00c7 01       		.uleb128 0x1
 2721 00c8 13       		.uleb128 0x13
 2722 00c9 00       		.byte	0
 2723 00ca 00       		.byte	0
 2724 00cb 0F       		.uleb128 0xf
 2725 00cc 2E       		.uleb128 0x2e
 2726 00cd 01       		.byte	0x1
 2727 00ce 3F       		.uleb128 0x3f
 2728 00cf 19       		.uleb128 0x19
 2729 00d0 03       		.uleb128 0x3
 2730 00d1 0E       		.uleb128 0xe
 2731 00d2 3A       		.uleb128 0x3a
 2732 00d3 21       		.uleb128 0x21
 2733 00d4 01       		.sleb128 1
 2734 00d5 3B       		.uleb128 0x3b
 2735 00d6 0B       		.uleb128 0xb
 2736 00d7 39       		.uleb128 0x39
ARM GAS  /tmp/ccRBrtkq.s 			page 49


 2737 00d8 21       		.uleb128 0x21
 2738 00d9 06       		.sleb128 6
 2739 00da 27       		.uleb128 0x27
 2740 00db 19       		.uleb128 0x19
 2741 00dc 11       		.uleb128 0x11
 2742 00dd 01       		.uleb128 0x1
 2743 00de 12       		.uleb128 0x12
 2744 00df 06       		.uleb128 0x6
 2745 00e0 40       		.uleb128 0x40
 2746 00e1 18       		.uleb128 0x18
 2747 00e2 7A       		.uleb128 0x7a
 2748 00e3 19       		.uleb128 0x19
 2749 00e4 01       		.uleb128 0x1
 2750 00e5 13       		.uleb128 0x13
 2751 00e6 00       		.byte	0
 2752 00e7 00       		.byte	0
 2753 00e8 10       		.uleb128 0x10
 2754 00e9 2E       		.uleb128 0x2e
 2755 00ea 01       		.byte	0x1
 2756 00eb 03       		.uleb128 0x3
 2757 00ec 0E       		.uleb128 0xe
 2758 00ed 3A       		.uleb128 0x3a
 2759 00ee 21       		.uleb128 0x21
 2760 00ef 01       		.sleb128 1
 2761 00f0 3B       		.uleb128 0x3b
 2762 00f1 0B       		.uleb128 0xb
 2763 00f2 39       		.uleb128 0x39
 2764 00f3 0B       		.uleb128 0xb
 2765 00f4 27       		.uleb128 0x27
 2766 00f5 19       		.uleb128 0x19
 2767 00f6 49       		.uleb128 0x49
 2768 00f7 13       		.uleb128 0x13
 2769 00f8 11       		.uleb128 0x11
 2770 00f9 01       		.uleb128 0x1
 2771 00fa 12       		.uleb128 0x12
 2772 00fb 06       		.uleb128 0x6
 2773 00fc 40       		.uleb128 0x40
 2774 00fd 18       		.uleb128 0x18
 2775 00fe 7A       		.uleb128 0x7a
 2776 00ff 19       		.uleb128 0x19
 2777 0100 01       		.uleb128 0x1
 2778 0101 13       		.uleb128 0x13
 2779 0102 00       		.byte	0
 2780 0103 00       		.byte	0
 2781 0104 11       		.uleb128 0x11
 2782 0105 26       		.uleb128 0x26
 2783 0106 00       		.byte	0
 2784 0107 49       		.uleb128 0x49
 2785 0108 13       		.uleb128 0x13
 2786 0109 00       		.byte	0
 2787 010a 00       		.byte	0
 2788 010b 12       		.uleb128 0x12
 2789 010c 0D       		.uleb128 0xd
 2790 010d 00       		.byte	0
 2791 010e 03       		.uleb128 0x3
 2792 010f 0E       		.uleb128 0xe
 2793 0110 3A       		.uleb128 0x3a
ARM GAS  /tmp/ccRBrtkq.s 			page 50


 2794 0111 21       		.uleb128 0x21
 2795 0112 07       		.sleb128 7
 2796 0113 3B       		.uleb128 0x3b
 2797 0114 0B       		.uleb128 0xb
 2798 0115 39       		.uleb128 0x39
 2799 0116 0B       		.uleb128 0xb
 2800 0117 49       		.uleb128 0x49
 2801 0118 13       		.uleb128 0x13
 2802 0119 00       		.byte	0
 2803 011a 00       		.byte	0
 2804 011b 13       		.uleb128 0x13
 2805 011c 2E       		.uleb128 0x2e
 2806 011d 01       		.byte	0x1
 2807 011e 3F       		.uleb128 0x3f
 2808 011f 19       		.uleb128 0x19
 2809 0120 03       		.uleb128 0x3
 2810 0121 0E       		.uleb128 0xe
 2811 0122 3A       		.uleb128 0x3a
 2812 0123 21       		.uleb128 0x21
 2813 0124 0B       		.sleb128 11
 2814 0125 3B       		.uleb128 0x3b
 2815 0126 05       		.uleb128 0x5
 2816 0127 39       		.uleb128 0x39
 2817 0128 21       		.uleb128 0x21
 2818 0129 08       		.sleb128 8
 2819 012a 27       		.uleb128 0x27
 2820 012b 19       		.uleb128 0x19
 2821 012c 3C       		.uleb128 0x3c
 2822 012d 19       		.uleb128 0x19
 2823 012e 01       		.uleb128 0x1
 2824 012f 13       		.uleb128 0x13
 2825 0130 00       		.byte	0
 2826 0131 00       		.byte	0
 2827 0132 14       		.uleb128 0x14
 2828 0133 48       		.uleb128 0x48
 2829 0134 01       		.byte	0x1
 2830 0135 7D       		.uleb128 0x7d
 2831 0136 01       		.uleb128 0x1
 2832 0137 7F       		.uleb128 0x7f
 2833 0138 13       		.uleb128 0x13
 2834 0139 00       		.byte	0
 2835 013a 00       		.byte	0
 2836 013b 15       		.uleb128 0x15
 2837 013c 13       		.uleb128 0x13
 2838 013d 01       		.byte	0x1
 2839 013e 0B       		.uleb128 0xb
 2840 013f 0B       		.uleb128 0xb
 2841 0140 3A       		.uleb128 0x3a
 2842 0141 0B       		.uleb128 0xb
 2843 0142 3B       		.uleb128 0x3b
 2844 0143 0B       		.uleb128 0xb
 2845 0144 39       		.uleb128 0x39
 2846 0145 21       		.uleb128 0x21
 2847 0146 09       		.sleb128 9
 2848 0147 01       		.uleb128 0x1
 2849 0148 13       		.uleb128 0x13
 2850 0149 00       		.byte	0
ARM GAS  /tmp/ccRBrtkq.s 			page 51


 2851 014a 00       		.byte	0
 2852 014b 16       		.uleb128 0x16
 2853 014c 28       		.uleb128 0x28
 2854 014d 00       		.byte	0
 2855 014e 03       		.uleb128 0x3
 2856 014f 0E       		.uleb128 0xe
 2857 0150 1C       		.uleb128 0x1c
 2858 0151 0B       		.uleb128 0xb
 2859 0152 00       		.byte	0
 2860 0153 00       		.byte	0
 2861 0154 17       		.uleb128 0x17
 2862 0155 2E       		.uleb128 0x2e
 2863 0156 01       		.byte	0x1
 2864 0157 3F       		.uleb128 0x3f
 2865 0158 19       		.uleb128 0x19
 2866 0159 03       		.uleb128 0x3
 2867 015a 0E       		.uleb128 0xe
 2868 015b 3A       		.uleb128 0x3a
 2869 015c 0B       		.uleb128 0xb
 2870 015d 3B       		.uleb128 0x3b
 2871 015e 0B       		.uleb128 0xb
 2872 015f 39       		.uleb128 0x39
 2873 0160 21       		.uleb128 0x21
 2874 0161 08       		.sleb128 8
 2875 0162 27       		.uleb128 0x27
 2876 0163 19       		.uleb128 0x19
 2877 0164 3C       		.uleb128 0x3c
 2878 0165 19       		.uleb128 0x19
 2879 0166 01       		.uleb128 0x1
 2880 0167 13       		.uleb128 0x13
 2881 0168 00       		.byte	0
 2882 0169 00       		.byte	0
 2883 016a 18       		.uleb128 0x18
 2884 016b 2E       		.uleb128 0x2e
 2885 016c 00       		.byte	0
 2886 016d 3F       		.uleb128 0x3f
 2887 016e 19       		.uleb128 0x19
 2888 016f 03       		.uleb128 0x3
 2889 0170 0E       		.uleb128 0xe
 2890 0171 3A       		.uleb128 0x3a
 2891 0172 0B       		.uleb128 0xb
 2892 0173 3B       		.uleb128 0x3b
 2893 0174 0B       		.uleb128 0xb
 2894 0175 39       		.uleb128 0x39
 2895 0176 21       		.uleb128 0x21
 2896 0177 08       		.sleb128 8
 2897 0178 27       		.uleb128 0x27
 2898 0179 19       		.uleb128 0x19
 2899 017a 3C       		.uleb128 0x3c
 2900 017b 19       		.uleb128 0x19
 2901 017c 00       		.byte	0
 2902 017d 00       		.byte	0
 2903 017e 19       		.uleb128 0x19
 2904 017f 2E       		.uleb128 0x2e
 2905 0180 01       		.byte	0x1
 2906 0181 03       		.uleb128 0x3
 2907 0182 08       		.uleb128 0x8
ARM GAS  /tmp/ccRBrtkq.s 			page 52


 2908 0183 3A       		.uleb128 0x3a
 2909 0184 21       		.uleb128 0x21
 2910 0185 01       		.sleb128 1
 2911 0186 3B       		.uleb128 0x3b
 2912 0187 0B       		.uleb128 0xb
 2913 0188 39       		.uleb128 0x39
 2914 0189 21       		.uleb128 0x21
 2915 018a 0E       		.sleb128 14
 2916 018b 27       		.uleb128 0x27
 2917 018c 19       		.uleb128 0x19
 2918 018d 49       		.uleb128 0x49
 2919 018e 13       		.uleb128 0x13
 2920 018f 11       		.uleb128 0x11
 2921 0190 01       		.uleb128 0x1
 2922 0191 12       		.uleb128 0x12
 2923 0192 06       		.uleb128 0x6
 2924 0193 40       		.uleb128 0x40
 2925 0194 18       		.uleb128 0x18
 2926 0195 7A       		.uleb128 0x7a
 2927 0196 19       		.uleb128 0x19
 2928 0197 01       		.uleb128 0x1
 2929 0198 13       		.uleb128 0x13
 2930 0199 00       		.byte	0
 2931 019a 00       		.byte	0
 2932 019b 1A       		.uleb128 0x1a
 2933 019c 11       		.uleb128 0x11
 2934 019d 01       		.byte	0x1
 2935 019e 25       		.uleb128 0x25
 2936 019f 0E       		.uleb128 0xe
 2937 01a0 13       		.uleb128 0x13
 2938 01a1 0B       		.uleb128 0xb
 2939 01a2 03       		.uleb128 0x3
 2940 01a3 0E       		.uleb128 0xe
 2941 01a4 1B       		.uleb128 0x1b
 2942 01a5 0E       		.uleb128 0xe
 2943 01a6 55       		.uleb128 0x55
 2944 01a7 17       		.uleb128 0x17
 2945 01a8 11       		.uleb128 0x11
 2946 01a9 01       		.uleb128 0x1
 2947 01aa 10       		.uleb128 0x10
 2948 01ab 17       		.uleb128 0x17
 2949 01ac 00       		.byte	0
 2950 01ad 00       		.byte	0
 2951 01ae 1B       		.uleb128 0x1b
 2952 01af 24       		.uleb128 0x24
 2953 01b0 00       		.byte	0
 2954 01b1 0B       		.uleb128 0xb
 2955 01b2 0B       		.uleb128 0xb
 2956 01b3 3E       		.uleb128 0x3e
 2957 01b4 0B       		.uleb128 0xb
 2958 01b5 03       		.uleb128 0x3
 2959 01b6 08       		.uleb128 0x8
 2960 01b7 00       		.byte	0
 2961 01b8 00       		.byte	0
 2962 01b9 1C       		.uleb128 0x1c
 2963 01ba 35       		.uleb128 0x35
 2964 01bb 00       		.byte	0
ARM GAS  /tmp/ccRBrtkq.s 			page 53


 2965 01bc 49       		.uleb128 0x49
 2966 01bd 13       		.uleb128 0x13
 2967 01be 00       		.byte	0
 2968 01bf 00       		.byte	0
 2969 01c0 1D       		.uleb128 0x1d
 2970 01c1 0F       		.uleb128 0xf
 2971 01c2 00       		.byte	0
 2972 01c3 0B       		.uleb128 0xb
 2973 01c4 0B       		.uleb128 0xb
 2974 01c5 00       		.byte	0
 2975 01c6 00       		.byte	0
 2976 01c7 1E       		.uleb128 0x1e
 2977 01c8 17       		.uleb128 0x17
 2978 01c9 01       		.byte	0x1
 2979 01ca 0B       		.uleb128 0xb
 2980 01cb 0B       		.uleb128 0xb
 2981 01cc 3A       		.uleb128 0x3a
 2982 01cd 0B       		.uleb128 0xb
 2983 01ce 3B       		.uleb128 0x3b
 2984 01cf 0B       		.uleb128 0xb
 2985 01d0 39       		.uleb128 0x39
 2986 01d1 0B       		.uleb128 0xb
 2987 01d2 01       		.uleb128 0x1
 2988 01d3 13       		.uleb128 0x13
 2989 01d4 00       		.byte	0
 2990 01d5 00       		.byte	0
 2991 01d6 1F       		.uleb128 0x1f
 2992 01d7 15       		.uleb128 0x15
 2993 01d8 01       		.byte	0x1
 2994 01d9 27       		.uleb128 0x27
 2995 01da 19       		.uleb128 0x19
 2996 01db 01       		.uleb128 0x1
 2997 01dc 13       		.uleb128 0x13
 2998 01dd 00       		.byte	0
 2999 01de 00       		.byte	0
 3000 01df 20       		.uleb128 0x20
 3001 01e0 04       		.uleb128 0x4
 3002 01e1 01       		.byte	0x1
 3003 01e2 3E       		.uleb128 0x3e
 3004 01e3 0B       		.uleb128 0xb
 3005 01e4 0B       		.uleb128 0xb
 3006 01e5 0B       		.uleb128 0xb
 3007 01e6 49       		.uleb128 0x49
 3008 01e7 13       		.uleb128 0x13
 3009 01e8 3A       		.uleb128 0x3a
 3010 01e9 0B       		.uleb128 0xb
 3011 01ea 3B       		.uleb128 0x3b
 3012 01eb 0B       		.uleb128 0xb
 3013 01ec 39       		.uleb128 0x39
 3014 01ed 0B       		.uleb128 0xb
 3015 01ee 01       		.uleb128 0x1
 3016 01ef 13       		.uleb128 0x13
 3017 01f0 00       		.byte	0
 3018 01f1 00       		.byte	0
 3019 01f2 21       		.uleb128 0x21
 3020 01f3 01       		.uleb128 0x1
 3021 01f4 01       		.byte	0x1
ARM GAS  /tmp/ccRBrtkq.s 			page 54


 3022 01f5 49       		.uleb128 0x49
 3023 01f6 13       		.uleb128 0x13
 3024 01f7 01       		.uleb128 0x1
 3025 01f8 13       		.uleb128 0x13
 3026 01f9 00       		.byte	0
 3027 01fa 00       		.byte	0
 3028 01fb 22       		.uleb128 0x22
 3029 01fc 21       		.uleb128 0x21
 3030 01fd 00       		.byte	0
 3031 01fe 49       		.uleb128 0x49
 3032 01ff 13       		.uleb128 0x13
 3033 0200 2F       		.uleb128 0x2f
 3034 0201 0B       		.uleb128 0xb
 3035 0202 00       		.byte	0
 3036 0203 00       		.byte	0
 3037 0204 23       		.uleb128 0x23
 3038 0205 34       		.uleb128 0x34
 3039 0206 00       		.byte	0
 3040 0207 03       		.uleb128 0x3
 3041 0208 08       		.uleb128 0x8
 3042 0209 3A       		.uleb128 0x3a
 3043 020a 0B       		.uleb128 0xb
 3044 020b 3B       		.uleb128 0x3b
 3045 020c 0B       		.uleb128 0xb
 3046 020d 39       		.uleb128 0x39
 3047 020e 0B       		.uleb128 0xb
 3048 020f 49       		.uleb128 0x49
 3049 0210 13       		.uleb128 0x13
 3050 0211 02       		.uleb128 0x2
 3051 0212 18       		.uleb128 0x18
 3052 0213 00       		.byte	0
 3053 0214 00       		.byte	0
 3054 0215 24       		.uleb128 0x24
 3055 0216 2E       		.uleb128 0x2e
 3056 0217 01       		.byte	0x1
 3057 0218 3F       		.uleb128 0x3f
 3058 0219 19       		.uleb128 0x19
 3059 021a 03       		.uleb128 0x3
 3060 021b 0E       		.uleb128 0xe
 3061 021c 3A       		.uleb128 0x3a
 3062 021d 0B       		.uleb128 0xb
 3063 021e 3B       		.uleb128 0x3b
 3064 021f 0B       		.uleb128 0xb
 3065 0220 39       		.uleb128 0x39
 3066 0221 0B       		.uleb128 0xb
 3067 0222 27       		.uleb128 0x27
 3068 0223 19       		.uleb128 0x19
 3069 0224 49       		.uleb128 0x49
 3070 0225 13       		.uleb128 0x13
 3071 0226 11       		.uleb128 0x11
 3072 0227 01       		.uleb128 0x1
 3073 0228 12       		.uleb128 0x12
 3074 0229 06       		.uleb128 0x6
 3075 022a 40       		.uleb128 0x40
 3076 022b 18       		.uleb128 0x18
 3077 022c 7A       		.uleb128 0x7a
 3078 022d 19       		.uleb128 0x19
ARM GAS  /tmp/ccRBrtkq.s 			page 55


 3079 022e 01       		.uleb128 0x1
 3080 022f 13       		.uleb128 0x13
 3081 0230 00       		.byte	0
 3082 0231 00       		.byte	0
 3083 0232 25       		.uleb128 0x25
 3084 0233 34       		.uleb128 0x34
 3085 0234 00       		.byte	0
 3086 0235 03       		.uleb128 0x3
 3087 0236 08       		.uleb128 0x8
 3088 0237 3A       		.uleb128 0x3a
 3089 0238 0B       		.uleb128 0xb
 3090 0239 3B       		.uleb128 0x3b
 3091 023a 0B       		.uleb128 0xb
 3092 023b 39       		.uleb128 0x39
 3093 023c 0B       		.uleb128 0xb
 3094 023d 49       		.uleb128 0x49
 3095 023e 13       		.uleb128 0x13
 3096 023f 02       		.uleb128 0x2
 3097 0240 17       		.uleb128 0x17
 3098 0241 B742     		.uleb128 0x2137
 3099 0243 17       		.uleb128 0x17
 3100 0244 00       		.byte	0
 3101 0245 00       		.byte	0
 3102 0246 26       		.uleb128 0x26
 3103 0247 48       		.uleb128 0x48
 3104 0248 01       		.byte	0x1
 3105 0249 7D       		.uleb128 0x7d
 3106 024a 01       		.uleb128 0x1
 3107 024b 8201     		.uleb128 0x82
 3108 024d 19       		.uleb128 0x19
 3109 024e 7F       		.uleb128 0x7f
 3110 024f 13       		.uleb128 0x13
 3111 0250 01       		.uleb128 0x1
 3112 0251 13       		.uleb128 0x13
 3113 0252 00       		.byte	0
 3114 0253 00       		.byte	0
 3115 0254 27       		.uleb128 0x27
 3116 0255 48       		.uleb128 0x48
 3117 0256 00       		.byte	0
 3118 0257 7D       		.uleb128 0x7d
 3119 0258 01       		.uleb128 0x1
 3120 0259 7F       		.uleb128 0x7f
 3121 025a 13       		.uleb128 0x13
 3122 025b 00       		.byte	0
 3123 025c 00       		.byte	0
 3124 025d 28       		.uleb128 0x28
 3125 025e 48       		.uleb128 0x48
 3126 025f 00       		.byte	0
 3127 0260 7D       		.uleb128 0x7d
 3128 0261 01       		.uleb128 0x1
 3129 0262 8201     		.uleb128 0x82
 3130 0264 19       		.uleb128 0x19
 3131 0265 7F       		.uleb128 0x7f
 3132 0266 13       		.uleb128 0x13
 3133 0267 00       		.byte	0
 3134 0268 00       		.byte	0
 3135 0269 29       		.uleb128 0x29
ARM GAS  /tmp/ccRBrtkq.s 			page 56


 3136 026a 2E       		.uleb128 0x2e
 3137 026b 01       		.byte	0x1
 3138 026c 03       		.uleb128 0x3
 3139 026d 0E       		.uleb128 0xe
 3140 026e 3A       		.uleb128 0x3a
 3141 026f 0B       		.uleb128 0xb
 3142 0270 3B       		.uleb128 0x3b
 3143 0271 0B       		.uleb128 0xb
 3144 0272 39       		.uleb128 0x39
 3145 0273 0B       		.uleb128 0xb
 3146 0274 27       		.uleb128 0x27
 3147 0275 19       		.uleb128 0x19
 3148 0276 49       		.uleb128 0x49
 3149 0277 13       		.uleb128 0x13
 3150 0278 11       		.uleb128 0x11
 3151 0279 01       		.uleb128 0x1
 3152 027a 12       		.uleb128 0x12
 3153 027b 06       		.uleb128 0x6
 3154 027c 40       		.uleb128 0x40
 3155 027d 18       		.uleb128 0x18
 3156 027e 7A       		.uleb128 0x7a
 3157 027f 19       		.uleb128 0x19
 3158 0280 00       		.byte	0
 3159 0281 00       		.byte	0
 3160 0282 00       		.byte	0
 3161              		.section	.debug_loclists,"",%progbits
 3162 0000 5F030000 		.4byte	.Ldebug_loc3-.Ldebug_loc2
 3163              	.Ldebug_loc2:
 3164 0004 0500     		.2byte	0x5
 3165 0006 04       		.byte	0x4
 3166 0007 00       		.byte	0
 3167 0008 00000000 		.4byte	0
 3168              	.Ldebug_loc0:
 3169              	.LVUS30:
 3170 000c 00       		.uleb128 0
 3171 000d 00       		.uleb128 .LVU133
 3172 000e 00       		.uleb128 .LVU133
 3173 000f 00       		.uleb128 0
 3174              	.LLST30:
 3175 0010 06       		.byte	0x6
 3176 0011 00000000 		.4byte	.LVL47
 3177 0015 04       		.byte	0x4
 3178 0016 00       		.uleb128 .LVL47-.LVL47
 3179 0017 0C       		.uleb128 .LVL48-.LVL47
 3180 0018 01       		.uleb128 0x1
 3181 0019 50       		.byte	0x50
 3182 001a 04       		.byte	0x4
 3183 001b 0C       		.uleb128 .LVL48-.LVL47
 3184 001c 34       		.uleb128 .LFE20-.LVL47
 3185 001d 01       		.uleb128 0x1
 3186 001e 55       		.byte	0x55
 3187 001f 00       		.byte	0
 3188              	.LVUS31:
 3189 0020 00       		.uleb128 .LVU134
 3190 0021 00       		.uleb128 0
 3191              	.LLST31:
 3192 0022 08       		.byte	0x8
ARM GAS  /tmp/ccRBrtkq.s 			page 57


 3193 0023 10000000 		.4byte	.LVL49
 3194 0027 24       		.uleb128 .LFE20-.LVL49
 3195 0028 01       		.uleb128 0x1
 3196 0029 50       		.byte	0x50
 3197 002a 00       		.byte	0
 3198              	.LVUS28:
 3199 002b 00       		.uleb128 0
 3200 002c 00       		.uleb128 .LVU113
 3201 002d 00       		.uleb128 .LVU113
 3202 002e 00       		.uleb128 .LVU119
 3203 002f 00       		.uleb128 .LVU119
 3204 0030 00       		.uleb128 .LVU120
 3205 0031 00       		.uleb128 .LVU120
 3206 0032 00       		.uleb128 .LVU120
 3207 0033 00       		.uleb128 .LVU120
 3208 0034 00       		.uleb128 .LVU122
 3209 0035 00       		.uleb128 .LVU122
 3210 0036 00       		.uleb128 0
 3211              	.LLST28:
 3212 0037 06       		.byte	0x6
 3213 0038 00000000 		.4byte	.LVL39
 3214 003c 04       		.byte	0x4
 3215 003d 00       		.uleb128 .LVL39-.LVL39
 3216 003e 18       		.uleb128 .LVL40-.LVL39
 3217 003f 01       		.uleb128 0x1
 3218 0040 50       		.byte	0x50
 3219 0041 04       		.byte	0x4
 3220 0042 18       		.uleb128 .LVL40-.LVL39
 3221 0043 38       		.uleb128 .LVL42-.LVL39
 3222 0044 01       		.uleb128 0x1
 3223 0045 54       		.byte	0x54
 3224 0046 04       		.byte	0x4
 3225 0047 38       		.uleb128 .LVL42-.LVL39
 3226 0048 3B       		.uleb128 .LVL43-1-.LVL39
 3227 0049 03       		.uleb128 0x3
 3228 004a 70       		.byte	0x70
 3229 004b 7C       		.sleb128 -4
 3230 004c 9F       		.byte	0x9f
 3231 004d 04       		.byte	0x4
 3232 004e 3B       		.uleb128 .LVL43-1-.LVL39
 3233 004f 3C       		.uleb128 .LVL43-.LVL39
 3234 0050 04       		.uleb128 0x4
 3235 0051 A3       		.byte	0xa3
 3236 0052 01       		.uleb128 0x1
 3237 0053 50       		.byte	0x50
 3238 0054 9F       		.byte	0x9f
 3239 0055 04       		.byte	0x4
 3240 0056 3C       		.uleb128 .LVL43-.LVL39
 3241 0057 44       		.uleb128 .LVL45-.LVL39
 3242 0058 01       		.uleb128 0x1
 3243 0059 50       		.byte	0x50
 3244 005a 04       		.byte	0x4
 3245 005b 44       		.uleb128 .LVL45-.LVL39
 3246 005c 4C       		.uleb128 .LFE19-.LVL39
 3247 005d 01       		.uleb128 0x1
 3248 005e 54       		.byte	0x54
 3249 005f 00       		.byte	0
ARM GAS  /tmp/ccRBrtkq.s 			page 58


 3250              	.LVUS29:
 3251 0060 00       		.uleb128 0
 3252 0061 00       		.uleb128 .LVU113
 3253 0062 00       		.uleb128 .LVU113
 3254 0063 00       		.uleb128 .LVU120
 3255 0064 00       		.uleb128 .LVU120
 3256 0065 00       		.uleb128 .LVU121
 3257 0066 00       		.uleb128 .LVU121
 3258 0067 00       		.uleb128 0
 3259              	.LLST29:
 3260 0068 06       		.byte	0x6
 3261 0069 00000000 		.4byte	.LVL39
 3262 006d 04       		.byte	0x4
 3263 006e 00       		.uleb128 .LVL39-.LVL39
 3264 006f 18       		.uleb128 .LVL40-.LVL39
 3265 0070 01       		.uleb128 0x1
 3266 0071 51       		.byte	0x51
 3267 0072 04       		.byte	0x4
 3268 0073 18       		.uleb128 .LVL40-.LVL39
 3269 0074 3C       		.uleb128 .LVL43-.LVL39
 3270 0075 04       		.uleb128 0x4
 3271 0076 A3       		.byte	0xa3
 3272 0077 01       		.uleb128 0x1
 3273 0078 51       		.byte	0x51
 3274 0079 9F       		.byte	0x9f
 3275 007a 04       		.byte	0x4
 3276 007b 3C       		.uleb128 .LVL43-.LVL39
 3277 007c 40       		.uleb128 .LVL44-.LVL39
 3278 007d 01       		.uleb128 0x1
 3279 007e 51       		.byte	0x51
 3280 007f 04       		.byte	0x4
 3281 0080 40       		.uleb128 .LVL44-.LVL39
 3282 0081 4C       		.uleb128 .LFE19-.LVL39
 3283 0082 04       		.uleb128 0x4
 3284 0083 A3       		.byte	0xa3
 3285 0084 01       		.uleb128 0x1
 3286 0085 51       		.byte	0x51
 3287 0086 9F       		.byte	0x9f
 3288 0087 00       		.byte	0
 3289              	.LVUS27:
 3290 0088 00       		.uleb128 0
 3291 0089 00       		.uleb128 .LVU91
 3292 008a 00       		.uleb128 .LVU91
 3293 008b 00       		.uleb128 0
 3294              	.LLST27:
 3295 008c 06       		.byte	0x6
 3296 008d 00000000 		.4byte	.LVL34
 3297 0091 04       		.byte	0x4
 3298 0092 00       		.uleb128 .LVL34-.LVL34
 3299 0093 0F       		.uleb128 .LVL35-1-.LVL34
 3300 0094 01       		.uleb128 0x1
 3301 0095 50       		.byte	0x50
 3302 0096 04       		.byte	0x4
 3303 0097 0F       		.uleb128 .LVL35-1-.LVL34
 3304 0098 34       		.uleb128 .LFE18-.LVL34
 3305 0099 01       		.uleb128 0x1
 3306 009a 54       		.byte	0x54
ARM GAS  /tmp/ccRBrtkq.s 			page 59


 3307 009b 00       		.byte	0
 3308              	.LVUS25:
 3309 009c 00       		.uleb128 0
 3310 009d 00       		.uleb128 .LVU73
 3311 009e 00       		.uleb128 .LVU73
 3312 009f 00       		.uleb128 0
 3313              	.LLST25:
 3314 00a0 06       		.byte	0x6
 3315 00a1 00000000 		.4byte	.LVL32
 3316 00a5 04       		.byte	0x4
 3317 00a6 00       		.uleb128 .LVL32-.LVL32
 3318 00a7 0F       		.uleb128 .LVL33-1-.LVL32
 3319 00a8 01       		.uleb128 0x1
 3320 00a9 50       		.byte	0x50
 3321 00aa 04       		.byte	0x4
 3322 00ab 0F       		.uleb128 .LVL33-1-.LVL32
 3323 00ac 20       		.uleb128 .LFE17-.LVL32
 3324 00ad 01       		.uleb128 0x1
 3325 00ae 54       		.byte	0x54
 3326 00af 00       		.byte	0
 3327              	.LVUS26:
 3328 00b0 00       		.uleb128 0
 3329 00b1 00       		.uleb128 .LVU73
 3330 00b2 00       		.uleb128 .LVU73
 3331 00b3 00       		.uleb128 0
 3332              	.LLST26:
 3333 00b4 06       		.byte	0x6
 3334 00b5 00000000 		.4byte	.LVL32
 3335 00b9 04       		.byte	0x4
 3336 00ba 00       		.uleb128 .LVL32-.LVL32
 3337 00bb 0F       		.uleb128 .LVL33-1-.LVL32
 3338 00bc 01       		.uleb128 0x1
 3339 00bd 51       		.byte	0x51
 3340 00be 04       		.byte	0x4
 3341 00bf 0F       		.uleb128 .LVL33-1-.LVL32
 3342 00c0 20       		.uleb128 .LFE17-.LVL32
 3343 00c1 04       		.uleb128 0x4
 3344 00c2 A3       		.byte	0xa3
 3345 00c3 01       		.uleb128 0x1
 3346 00c4 51       		.byte	0x51
 3347 00c5 9F       		.byte	0x9f
 3348 00c6 00       		.byte	0
 3349              	.LVUS22:
 3350 00c7 00       		.uleb128 0
 3351 00c8 00       		.uleb128 .LVU57
 3352 00c9 00       		.uleb128 .LVU57
 3353 00ca 00       		.uleb128 .LVU60
 3354 00cb 00       		.uleb128 .LVU60
 3355 00cc 00       		.uleb128 0
 3356              	.LLST22:
 3357 00cd 06       		.byte	0x6
 3358 00ce 00000000 		.4byte	.LVL25
 3359 00d2 04       		.byte	0x4
 3360 00d3 00       		.uleb128 .LVL25-.LVL25
 3361 00d4 3C       		.uleb128 .LVL28-.LVL25
 3362 00d5 01       		.uleb128 0x1
 3363 00d6 50       		.byte	0x50
ARM GAS  /tmp/ccRBrtkq.s 			page 60


 3364 00d7 04       		.byte	0x4
 3365 00d8 3C       		.uleb128 .LVL28-.LVL25
 3366 00d9 60       		.uleb128 .LVL31-.LVL25
 3367 00da 01       		.uleb128 0x1
 3368 00db 54       		.byte	0x54
 3369 00dc 04       		.byte	0x4
 3370 00dd 60       		.uleb128 .LVL31-.LVL25
 3371 00de 64       		.uleb128 .LFE16-.LVL25
 3372 00df 04       		.uleb128 0x4
 3373 00e0 A3       		.byte	0xa3
 3374 00e1 01       		.uleb128 0x1
 3375 00e2 50       		.byte	0x50
 3376 00e3 9F       		.byte	0x9f
 3377 00e4 00       		.byte	0
 3378              	.LVUS23:
 3379 00e5 00       		.uleb128 0
 3380 00e6 00       		.uleb128 .LVU46
 3381 00e7 00       		.uleb128 .LVU46
 3382 00e8 00       		.uleb128 .LVU58
 3383 00e9 00       		.uleb128 .LVU58
 3384 00ea 00       		.uleb128 0
 3385              	.LLST23:
 3386 00eb 06       		.byte	0x6
 3387 00ec 00000000 		.4byte	.LVL25
 3388 00f0 04       		.byte	0x4
 3389 00f1 00       		.uleb128 .LVL25-.LVL25
 3390 00f2 08       		.uleb128 .LVL26-.LVL25
 3391 00f3 01       		.uleb128 0x1
 3392 00f4 51       		.byte	0x51
 3393 00f5 04       		.byte	0x4
 3394 00f6 08       		.uleb128 .LVL26-.LVL25
 3395 00f7 3F       		.uleb128 .LVL29-1-.LVL25
 3396 00f8 01       		.uleb128 0x1
 3397 00f9 53       		.byte	0x53
 3398 00fa 04       		.byte	0x4
 3399 00fb 3F       		.uleb128 .LVL29-1-.LVL25
 3400 00fc 64       		.uleb128 .LFE16-.LVL25
 3401 00fd 04       		.uleb128 0x4
 3402 00fe A3       		.byte	0xa3
 3403 00ff 01       		.uleb128 0x1
 3404 0100 51       		.byte	0x51
 3405 0101 9F       		.byte	0x9f
 3406 0102 00       		.byte	0
 3407              	.LVUS24:
 3408 0103 00       		.uleb128 0
 3409 0104 00       		.uleb128 .LVU56
 3410 0105 00       		.uleb128 .LVU56
 3411 0106 00       		.uleb128 .LVU60
 3412 0107 00       		.uleb128 .LVU60
 3413 0108 00       		.uleb128 0
 3414              	.LLST24:
 3415 0109 06       		.byte	0x6
 3416 010a 00000000 		.4byte	.LVL25
 3417 010e 04       		.byte	0x4
 3418 010f 00       		.uleb128 .LVL25-.LVL25
 3419 0110 38       		.uleb128 .LVL27-.LVL25
 3420 0111 01       		.uleb128 0x1
ARM GAS  /tmp/ccRBrtkq.s 			page 61


 3421 0112 52       		.byte	0x52
 3422 0113 04       		.byte	0x4
 3423 0114 38       		.uleb128 .LVL27-.LVL25
 3424 0115 60       		.uleb128 .LVL31-.LVL25
 3425 0116 01       		.uleb128 0x1
 3426 0117 55       		.byte	0x55
 3427 0118 04       		.byte	0x4
 3428 0119 60       		.uleb128 .LVL31-.LVL25
 3429 011a 64       		.uleb128 .LFE16-.LVL25
 3430 011b 04       		.uleb128 0x4
 3431 011c A3       		.byte	0xa3
 3432 011d 01       		.uleb128 0x1
 3433 011e 52       		.byte	0x52
 3434 011f 9F       		.byte	0x9f
 3435 0120 00       		.byte	0
 3436              	.LVUS0:
 3437 0121 00       		.uleb128 0
 3438 0122 00       		.uleb128 .LVU3
 3439 0123 00       		.uleb128 .LVU3
 3440 0124 00       		.uleb128 .LVU4
 3441 0125 00       		.uleb128 .LVU4
 3442 0126 00       		.uleb128 0
 3443              	.LLST0:
 3444 0127 06       		.byte	0x6
 3445 0128 00000000 		.4byte	.LVL0
 3446 012c 04       		.byte	0x4
 3447 012d 00       		.uleb128 .LVL0-.LVL0
 3448 012e 04       		.uleb128 .LVL1-.LVL0
 3449 012f 01       		.uleb128 0x1
 3450 0130 50       		.byte	0x50
 3451 0131 04       		.byte	0x4
 3452 0132 04       		.uleb128 .LVL1-.LVL0
 3453 0133 07       		.uleb128 .LVL2-1-.LVL0
 3454 0134 03       		.uleb128 0x3
 3455 0135 70       		.byte	0x70
 3456 0136 74       		.sleb128 -12
 3457 0137 9F       		.byte	0x9f
 3458 0138 04       		.byte	0x4
 3459 0139 07       		.uleb128 .LVL2-1-.LVL0
 3460 013a 08       		.uleb128 .LFE14-.LVL0
 3461 013b 04       		.uleb128 0x4
 3462 013c A3       		.byte	0xa3
 3463 013d 01       		.uleb128 0x1
 3464 013e 50       		.byte	0x50
 3465 013f 9F       		.byte	0x9f
 3466 0140 00       		.byte	0
 3467              	.LVUS1:
 3468 0141 00       		.uleb128 0
 3469 0142 00       		.uleb128 .LVU4
 3470 0143 00       		.uleb128 .LVU4
 3471 0144 00       		.uleb128 0
 3472              	.LLST1:
 3473 0145 06       		.byte	0x6
 3474 0146 00000000 		.4byte	.LVL0
 3475 014a 04       		.byte	0x4
 3476 014b 00       		.uleb128 .LVL0-.LVL0
 3477 014c 07       		.uleb128 .LVL2-1-.LVL0
ARM GAS  /tmp/ccRBrtkq.s 			page 62


 3478 014d 01       		.uleb128 0x1
 3479 014e 51       		.byte	0x51
 3480 014f 04       		.byte	0x4
 3481 0150 07       		.uleb128 .LVL2-1-.LVL0
 3482 0151 08       		.uleb128 .LFE14-.LVL0
 3483 0152 04       		.uleb128 0x4
 3484 0153 A3       		.byte	0xa3
 3485 0154 01       		.uleb128 0x1
 3486 0155 51       		.byte	0x51
 3487 0156 9F       		.byte	0x9f
 3488 0157 00       		.byte	0
 3489              	.LVUS2:
 3490 0158 00       		.uleb128 0
 3491 0159 00       		.uleb128 .LVU4
 3492 015a 00       		.uleb128 .LVU4
 3493 015b 00       		.uleb128 0
 3494              	.LLST2:
 3495 015c 06       		.byte	0x6
 3496 015d 00000000 		.4byte	.LVL0
 3497 0161 04       		.byte	0x4
 3498 0162 00       		.uleb128 .LVL0-.LVL0
 3499 0163 07       		.uleb128 .LVL2-1-.LVL0
 3500 0164 01       		.uleb128 0x1
 3501 0165 52       		.byte	0x52
 3502 0166 04       		.byte	0x4
 3503 0167 07       		.uleb128 .LVL2-1-.LVL0
 3504 0168 08       		.uleb128 .LFE14-.LVL0
 3505 0169 04       		.uleb128 0x4
 3506 016a A3       		.byte	0xa3
 3507 016b 01       		.uleb128 0x1
 3508 016c 52       		.byte	0x52
 3509 016d 9F       		.byte	0x9f
 3510 016e 00       		.byte	0
 3511              	.LVUS3:
 3512 016f 00       		.uleb128 0
 3513 0170 00       		.uleb128 .LVU4
 3514 0171 00       		.uleb128 .LVU4
 3515 0172 00       		.uleb128 0
 3516              	.LLST3:
 3517 0173 06       		.byte	0x6
 3518 0174 00000000 		.4byte	.LVL0
 3519 0178 04       		.byte	0x4
 3520 0179 00       		.uleb128 .LVL0-.LVL0
 3521 017a 07       		.uleb128 .LVL2-1-.LVL0
 3522 017b 01       		.uleb128 0x1
 3523 017c 53       		.byte	0x53
 3524 017d 04       		.byte	0x4
 3525 017e 07       		.uleb128 .LVL2-1-.LVL0
 3526 017f 08       		.uleb128 .LFE14-.LVL0
 3527 0180 04       		.uleb128 0x4
 3528 0181 A3       		.byte	0xa3
 3529 0182 01       		.uleb128 0x1
 3530 0183 53       		.byte	0x53
 3531 0184 9F       		.byte	0x9f
 3532 0185 00       		.byte	0
 3533              	.LVUS7:
 3534 0186 00       		.uleb128 0
ARM GAS  /tmp/ccRBrtkq.s 			page 63


 3535 0187 00       		.uleb128 .LVU13
 3536 0188 00       		.uleb128 .LVU13
 3537 0189 00       		.uleb128 .LVU14
 3538 018a 00       		.uleb128 .LVU14
 3539 018b 00       		.uleb128 0
 3540              	.LLST7:
 3541 018c 06       		.byte	0x6
 3542 018d 00000000 		.4byte	.LVL6
 3543 0191 04       		.byte	0x4
 3544 0192 00       		.uleb128 .LVL6-.LVL6
 3545 0193 04       		.uleb128 .LVL7-.LVL6
 3546 0194 01       		.uleb128 0x1
 3547 0195 50       		.byte	0x50
 3548 0196 04       		.byte	0x4
 3549 0197 04       		.uleb128 .LVL7-.LVL6
 3550 0198 07       		.uleb128 .LVL8-1-.LVL6
 3551 0199 03       		.uleb128 0x3
 3552 019a 70       		.byte	0x70
 3553 019b 50       		.sleb128 -48
 3554 019c 9F       		.byte	0x9f
 3555 019d 04       		.byte	0x4
 3556 019e 07       		.uleb128 .LVL8-1-.LVL6
 3557 019f 08       		.uleb128 .LFE13-.LVL6
 3558 01a0 04       		.uleb128 0x4
 3559 01a1 A3       		.byte	0xa3
 3560 01a2 01       		.uleb128 0x1
 3561 01a3 50       		.byte	0x50
 3562 01a4 9F       		.byte	0x9f
 3563 01a5 00       		.byte	0
 3564              	.LVUS8:
 3565 01a6 00       		.uleb128 0
 3566 01a7 00       		.uleb128 .LVU14
 3567 01a8 00       		.uleb128 .LVU14
 3568 01a9 00       		.uleb128 0
 3569              	.LLST8:
 3570 01aa 06       		.byte	0x6
 3571 01ab 00000000 		.4byte	.LVL6
 3572 01af 04       		.byte	0x4
 3573 01b0 00       		.uleb128 .LVL6-.LVL6
 3574 01b1 07       		.uleb128 .LVL8-1-.LVL6
 3575 01b2 01       		.uleb128 0x1
 3576 01b3 51       		.byte	0x51
 3577 01b4 04       		.byte	0x4
 3578 01b5 07       		.uleb128 .LVL8-1-.LVL6
 3579 01b6 08       		.uleb128 .LFE13-.LVL6
 3580 01b7 04       		.uleb128 0x4
 3581 01b8 A3       		.byte	0xa3
 3582 01b9 01       		.uleb128 0x1
 3583 01ba 51       		.byte	0x51
 3584 01bb 9F       		.byte	0x9f
 3585 01bc 00       		.byte	0
 3586              	.LVUS9:
 3587 01bd 00       		.uleb128 0
 3588 01be 00       		.uleb128 .LVU14
 3589 01bf 00       		.uleb128 .LVU14
 3590 01c0 00       		.uleb128 0
 3591              	.LLST9:
ARM GAS  /tmp/ccRBrtkq.s 			page 64


 3592 01c1 06       		.byte	0x6
 3593 01c2 00000000 		.4byte	.LVL6
 3594 01c6 04       		.byte	0x4
 3595 01c7 00       		.uleb128 .LVL6-.LVL6
 3596 01c8 07       		.uleb128 .LVL8-1-.LVL6
 3597 01c9 01       		.uleb128 0x1
 3598 01ca 52       		.byte	0x52
 3599 01cb 04       		.byte	0x4
 3600 01cc 07       		.uleb128 .LVL8-1-.LVL6
 3601 01cd 08       		.uleb128 .LFE13-.LVL6
 3602 01ce 04       		.uleb128 0x4
 3603 01cf A3       		.byte	0xa3
 3604 01d0 01       		.uleb128 0x1
 3605 01d1 52       		.byte	0x52
 3606 01d2 9F       		.byte	0x9f
 3607 01d3 00       		.byte	0
 3608              	.LVUS10:
 3609 01d4 00       		.uleb128 0
 3610 01d5 00       		.uleb128 .LVU14
 3611 01d6 00       		.uleb128 .LVU14
 3612 01d7 00       		.uleb128 0
 3613              	.LLST10:
 3614 01d8 06       		.byte	0x6
 3615 01d9 00000000 		.4byte	.LVL6
 3616 01dd 04       		.byte	0x4
 3617 01de 00       		.uleb128 .LVL6-.LVL6
 3618 01df 07       		.uleb128 .LVL8-1-.LVL6
 3619 01e0 01       		.uleb128 0x1
 3620 01e1 53       		.byte	0x53
 3621 01e2 04       		.byte	0x4
 3622 01e3 07       		.uleb128 .LVL8-1-.LVL6
 3623 01e4 08       		.uleb128 .LFE13-.LVL6
 3624 01e5 04       		.uleb128 0x4
 3625 01e6 A3       		.byte	0xa3
 3626 01e7 01       		.uleb128 0x1
 3627 01e8 53       		.byte	0x53
 3628 01e9 9F       		.byte	0x9f
 3629 01ea 00       		.byte	0
 3630              	.LVUS14:
 3631 01eb 00       		.uleb128 0
 3632 01ec 00       		.uleb128 .LVU23
 3633 01ed 00       		.uleb128 .LVU23
 3634 01ee 00       		.uleb128 .LVU24
 3635 01ef 00       		.uleb128 .LVU24
 3636 01f0 00       		.uleb128 0
 3637              	.LLST14:
 3638 01f1 06       		.byte	0x6
 3639 01f2 00000000 		.4byte	.LVL12
 3640 01f6 04       		.byte	0x4
 3641 01f7 00       		.uleb128 .LVL12-.LVL12
 3642 01f8 04       		.uleb128 .LVL13-.LVL12
 3643 01f9 01       		.uleb128 0x1
 3644 01fa 50       		.byte	0x50
 3645 01fb 04       		.byte	0x4
 3646 01fc 04       		.uleb128 .LVL13-.LVL12
 3647 01fd 07       		.uleb128 .LVL14-1-.LVL12
 3648 01fe 03       		.uleb128 0x3
ARM GAS  /tmp/ccRBrtkq.s 			page 65


 3649 01ff 70       		.byte	0x70
 3650 0200 74       		.sleb128 -12
 3651 0201 9F       		.byte	0x9f
 3652 0202 04       		.byte	0x4
 3653 0203 07       		.uleb128 .LVL14-1-.LVL12
 3654 0204 08       		.uleb128 .LFE12-.LVL12
 3655 0205 04       		.uleb128 0x4
 3656 0206 A3       		.byte	0xa3
 3657 0207 01       		.uleb128 0x1
 3658 0208 50       		.byte	0x50
 3659 0209 9F       		.byte	0x9f
 3660 020a 00       		.byte	0
 3661              	.LVUS15:
 3662 020b 00       		.uleb128 0
 3663 020c 00       		.uleb128 .LVU24
 3664 020d 00       		.uleb128 .LVU24
 3665 020e 00       		.uleb128 0
 3666              	.LLST15:
 3667 020f 06       		.byte	0x6
 3668 0210 00000000 		.4byte	.LVL12
 3669 0214 04       		.byte	0x4
 3670 0215 00       		.uleb128 .LVL12-.LVL12
 3671 0216 07       		.uleb128 .LVL14-1-.LVL12
 3672 0217 01       		.uleb128 0x1
 3673 0218 51       		.byte	0x51
 3674 0219 04       		.byte	0x4
 3675 021a 07       		.uleb128 .LVL14-1-.LVL12
 3676 021b 08       		.uleb128 .LFE12-.LVL12
 3677 021c 04       		.uleb128 0x4
 3678 021d A3       		.byte	0xa3
 3679 021e 01       		.uleb128 0x1
 3680 021f 51       		.byte	0x51
 3681 0220 9F       		.byte	0x9f
 3682 0221 00       		.byte	0
 3683              	.LVUS17:
 3684 0222 00       		.uleb128 0
 3685 0223 00       		.uleb128 .LVU33
 3686 0224 00       		.uleb128 .LVU33
 3687 0225 00       		.uleb128 .LVU34
 3688 0226 00       		.uleb128 .LVU34
 3689 0227 00       		.uleb128 0
 3690              	.LLST17:
 3691 0228 06       		.byte	0x6
 3692 0229 00000000 		.4byte	.LVL18
 3693 022d 04       		.byte	0x4
 3694 022e 00       		.uleb128 .LVL18-.LVL18
 3695 022f 04       		.uleb128 .LVL19-.LVL18
 3696 0230 01       		.uleb128 0x1
 3697 0231 50       		.byte	0x50
 3698 0232 04       		.byte	0x4
 3699 0233 04       		.uleb128 .LVL19-.LVL18
 3700 0234 07       		.uleb128 .LVL20-1-.LVL18
 3701 0235 03       		.uleb128 0x3
 3702 0236 70       		.byte	0x70
 3703 0237 50       		.sleb128 -48
 3704 0238 9F       		.byte	0x9f
 3705 0239 04       		.byte	0x4
ARM GAS  /tmp/ccRBrtkq.s 			page 66


 3706 023a 07       		.uleb128 .LVL20-1-.LVL18
 3707 023b 08       		.uleb128 .LFE11-.LVL18
 3708 023c 04       		.uleb128 0x4
 3709 023d A3       		.byte	0xa3
 3710 023e 01       		.uleb128 0x1
 3711 023f 50       		.byte	0x50
 3712 0240 9F       		.byte	0x9f
 3713 0241 00       		.byte	0
 3714              	.LVUS18:
 3715 0242 00       		.uleb128 0
 3716 0243 00       		.uleb128 .LVU34
 3717 0244 00       		.uleb128 .LVU34
 3718 0245 00       		.uleb128 0
 3719              	.LLST18:
 3720 0246 06       		.byte	0x6
 3721 0247 00000000 		.4byte	.LVL18
 3722 024b 04       		.byte	0x4
 3723 024c 00       		.uleb128 .LVL18-.LVL18
 3724 024d 07       		.uleb128 .LVL20-1-.LVL18
 3725 024e 01       		.uleb128 0x1
 3726 024f 51       		.byte	0x51
 3727 0250 04       		.byte	0x4
 3728 0251 07       		.uleb128 .LVL20-1-.LVL18
 3729 0252 08       		.uleb128 .LFE11-.LVL18
 3730 0253 04       		.uleb128 0x4
 3731 0254 A3       		.byte	0xa3
 3732 0255 01       		.uleb128 0x1
 3733 0256 51       		.byte	0x51
 3734 0257 9F       		.byte	0x9f
 3735 0258 00       		.byte	0
 3736              	.LVUS19:
 3737 0259 00       		.uleb128 0
 3738 025a 00       		.uleb128 .LVU34
 3739 025b 00       		.uleb128 .LVU34
 3740 025c 00       		.uleb128 0
 3741              	.LLST19:
 3742 025d 06       		.byte	0x6
 3743 025e 00000000 		.4byte	.LVL18
 3744 0262 04       		.byte	0x4
 3745 0263 00       		.uleb128 .LVL18-.LVL18
 3746 0264 07       		.uleb128 .LVL20-1-.LVL18
 3747 0265 01       		.uleb128 0x1
 3748 0266 52       		.byte	0x52
 3749 0267 04       		.byte	0x4
 3750 0268 07       		.uleb128 .LVL20-1-.LVL18
 3751 0269 08       		.uleb128 .LFE11-.LVL18
 3752 026a 04       		.uleb128 0x4
 3753 026b A3       		.byte	0xa3
 3754 026c 01       		.uleb128 0x1
 3755 026d 52       		.byte	0x52
 3756 026e 9F       		.byte	0x9f
 3757 026f 00       		.byte	0
 3758              	.LVUS16:
 3759 0270 00       		.uleb128 0
 3760 0271 00       		.uleb128 .LVU28
 3761 0272 00       		.uleb128 .LVU28
 3762 0273 00       		.uleb128 .LVU29
ARM GAS  /tmp/ccRBrtkq.s 			page 67


 3763 0274 00       		.uleb128 .LVU29
 3764 0275 00       		.uleb128 0
 3765              	.LLST16:
 3766 0276 06       		.byte	0x6
 3767 0277 00000000 		.4byte	.LVL15
 3768 027b 04       		.byte	0x4
 3769 027c 00       		.uleb128 .LVL15-.LVL15
 3770 027d 08       		.uleb128 .LVL16-.LVL15
 3771 027e 01       		.uleb128 0x1
 3772 027f 50       		.byte	0x50
 3773 0280 04       		.byte	0x4
 3774 0281 08       		.uleb128 .LVL16-.LVL15
 3775 0282 0B       		.uleb128 .LVL17-1-.LVL15
 3776 0283 03       		.uleb128 0x3
 3777 0284 70       		.byte	0x70
 3778 0285 74       		.sleb128 -12
 3779 0286 9F       		.byte	0x9f
 3780 0287 04       		.byte	0x4
 3781 0288 0B       		.uleb128 .LVL17-1-.LVL15
 3782 0289 0C       		.uleb128 .LFE10-.LVL15
 3783 028a 04       		.uleb128 0x4
 3784 028b A3       		.byte	0xa3
 3785 028c 01       		.uleb128 0x1
 3786 028d 50       		.byte	0x50
 3787 028e 9F       		.byte	0x9f
 3788 028f 00       		.byte	0
 3789              	.LVUS20:
 3790 0290 00       		.uleb128 0
 3791 0291 00       		.uleb128 .LVU38
 3792 0292 00       		.uleb128 .LVU38
 3793 0293 00       		.uleb128 .LVU39
 3794 0294 00       		.uleb128 .LVU39
 3795 0295 00       		.uleb128 0
 3796              	.LLST20:
 3797 0296 06       		.byte	0x6
 3798 0297 00000000 		.4byte	.LVL21
 3799 029b 04       		.byte	0x4
 3800 029c 00       		.uleb128 .LVL21-.LVL21
 3801 029d 08       		.uleb128 .LVL22-.LVL21
 3802 029e 01       		.uleb128 0x1
 3803 029f 50       		.byte	0x50
 3804 02a0 04       		.byte	0x4
 3805 02a1 08       		.uleb128 .LVL22-.LVL21
 3806 02a2 0B       		.uleb128 .LVL23-1-.LVL21
 3807 02a3 03       		.uleb128 0x3
 3808 02a4 70       		.byte	0x70
 3809 02a5 50       		.sleb128 -48
 3810 02a6 9F       		.byte	0x9f
 3811 02a7 04       		.byte	0x4
 3812 02a8 0B       		.uleb128 .LVL23-1-.LVL21
 3813 02a9 0C       		.uleb128 .LFE9-.LVL21
 3814 02aa 04       		.uleb128 0x4
 3815 02ab A3       		.byte	0xa3
 3816 02ac 01       		.uleb128 0x1
 3817 02ad 50       		.byte	0x50
 3818 02ae 9F       		.byte	0x9f
 3819 02af 00       		.byte	0
ARM GAS  /tmp/ccRBrtkq.s 			page 68


 3820              	.LVUS21:
 3821 02b0 00       		.uleb128 0
 3822 02b1 00       		.uleb128 .LVU39
 3823 02b2 00       		.uleb128 .LVU39
 3824 02b3 00       		.uleb128 0
 3825              	.LLST21:
 3826 02b4 06       		.byte	0x6
 3827 02b5 00000000 		.4byte	.LVL21
 3828 02b9 04       		.byte	0x4
 3829 02ba 00       		.uleb128 .LVL21-.LVL21
 3830 02bb 0B       		.uleb128 .LVL23-1-.LVL21
 3831 02bc 01       		.uleb128 0x1
 3832 02bd 51       		.byte	0x51
 3833 02be 04       		.byte	0x4
 3834 02bf 0B       		.uleb128 .LVL23-1-.LVL21
 3835 02c0 0C       		.uleb128 .LFE9-.LVL21
 3836 02c1 04       		.uleb128 0x4
 3837 02c2 A3       		.byte	0xa3
 3838 02c3 01       		.uleb128 0x1
 3839 02c4 51       		.byte	0x51
 3840 02c5 9F       		.byte	0x9f
 3841 02c6 00       		.byte	0
 3842              	.LVUS4:
 3843 02c7 00       		.uleb128 0
 3844 02c8 00       		.uleb128 .LVU8
 3845 02c9 00       		.uleb128 .LVU8
 3846 02ca 00       		.uleb128 .LVU9
 3847 02cb 00       		.uleb128 .LVU9
 3848 02cc 00       		.uleb128 0
 3849              	.LLST4:
 3850 02cd 06       		.byte	0x6
 3851 02ce 00000000 		.4byte	.LVL3
 3852 02d2 04       		.byte	0x4
 3853 02d3 00       		.uleb128 .LVL3-.LVL3
 3854 02d4 08       		.uleb128 .LVL4-.LVL3
 3855 02d5 01       		.uleb128 0x1
 3856 02d6 50       		.byte	0x50
 3857 02d7 04       		.byte	0x4
 3858 02d8 08       		.uleb128 .LVL4-.LVL3
 3859 02d9 0B       		.uleb128 .LVL5-1-.LVL3
 3860 02da 03       		.uleb128 0x3
 3861 02db 70       		.byte	0x70
 3862 02dc 74       		.sleb128 -12
 3863 02dd 9F       		.byte	0x9f
 3864 02de 04       		.byte	0x4
 3865 02df 0B       		.uleb128 .LVL5-1-.LVL3
 3866 02e0 0C       		.uleb128 .LFE8-.LVL3
 3867 02e1 04       		.uleb128 0x4
 3868 02e2 A3       		.byte	0xa3
 3869 02e3 01       		.uleb128 0x1
 3870 02e4 50       		.byte	0x50
 3871 02e5 9F       		.byte	0x9f
 3872 02e6 00       		.byte	0
 3873              	.LVUS5:
 3874 02e7 00       		.uleb128 0
 3875 02e8 00       		.uleb128 .LVU9
 3876 02e9 00       		.uleb128 .LVU9
ARM GAS  /tmp/ccRBrtkq.s 			page 69


 3877 02ea 00       		.uleb128 0
 3878              	.LLST5:
 3879 02eb 06       		.byte	0x6
 3880 02ec 00000000 		.4byte	.LVL3
 3881 02f0 04       		.byte	0x4
 3882 02f1 00       		.uleb128 .LVL3-.LVL3
 3883 02f2 0B       		.uleb128 .LVL5-1-.LVL3
 3884 02f3 01       		.uleb128 0x1
 3885 02f4 51       		.byte	0x51
 3886 02f5 04       		.byte	0x4
 3887 02f6 0B       		.uleb128 .LVL5-1-.LVL3
 3888 02f7 0C       		.uleb128 .LFE8-.LVL3
 3889 02f8 04       		.uleb128 0x4
 3890 02f9 A3       		.byte	0xa3
 3891 02fa 01       		.uleb128 0x1
 3892 02fb 51       		.byte	0x51
 3893 02fc 9F       		.byte	0x9f
 3894 02fd 00       		.byte	0
 3895              	.LVUS6:
 3896 02fe 00       		.uleb128 0
 3897 02ff 00       		.uleb128 .LVU9
 3898 0300 00       		.uleb128 .LVU9
 3899 0301 00       		.uleb128 0
 3900              	.LLST6:
 3901 0302 06       		.byte	0x6
 3902 0303 00000000 		.4byte	.LVL3
 3903 0307 04       		.byte	0x4
 3904 0308 00       		.uleb128 .LVL3-.LVL3
 3905 0309 0B       		.uleb128 .LVL5-1-.LVL3
 3906 030a 01       		.uleb128 0x1
 3907 030b 52       		.byte	0x52
 3908 030c 04       		.byte	0x4
 3909 030d 0B       		.uleb128 .LVL5-1-.LVL3
 3910 030e 0C       		.uleb128 .LFE8-.LVL3
 3911 030f 04       		.uleb128 0x4
 3912 0310 A3       		.byte	0xa3
 3913 0311 01       		.uleb128 0x1
 3914 0312 52       		.byte	0x52
 3915 0313 9F       		.byte	0x9f
 3916 0314 00       		.byte	0
 3917              	.LVUS11:
 3918 0315 00       		.uleb128 0
 3919 0316 00       		.uleb128 .LVU18
 3920 0317 00       		.uleb128 .LVU18
 3921 0318 00       		.uleb128 .LVU19
 3922 0319 00       		.uleb128 .LVU19
 3923 031a 00       		.uleb128 0
 3924              	.LLST11:
 3925 031b 06       		.byte	0x6
 3926 031c 00000000 		.4byte	.LVL9
 3927 0320 04       		.byte	0x4
 3928 0321 00       		.uleb128 .LVL9-.LVL9
 3929 0322 08       		.uleb128 .LVL10-.LVL9
 3930 0323 01       		.uleb128 0x1
 3931 0324 50       		.byte	0x50
 3932 0325 04       		.byte	0x4
 3933 0326 08       		.uleb128 .LVL10-.LVL9
ARM GAS  /tmp/ccRBrtkq.s 			page 70


 3934 0327 0B       		.uleb128 .LVL11-1-.LVL9
 3935 0328 03       		.uleb128 0x3
 3936 0329 70       		.byte	0x70
 3937 032a 50       		.sleb128 -48
 3938 032b 9F       		.byte	0x9f
 3939 032c 04       		.byte	0x4
 3940 032d 0B       		.uleb128 .LVL11-1-.LVL9
 3941 032e 0C       		.uleb128 .LFE7-.LVL9
 3942 032f 04       		.uleb128 0x4
 3943 0330 A3       		.byte	0xa3
 3944 0331 01       		.uleb128 0x1
 3945 0332 50       		.byte	0x50
 3946 0333 9F       		.byte	0x9f
 3947 0334 00       		.byte	0
 3948              	.LVUS12:
 3949 0335 00       		.uleb128 0
 3950 0336 00       		.uleb128 .LVU19
 3951 0337 00       		.uleb128 .LVU19
 3952 0338 00       		.uleb128 0
 3953              	.LLST12:
 3954 0339 06       		.byte	0x6
 3955 033a 00000000 		.4byte	.LVL9
 3956 033e 04       		.byte	0x4
 3957 033f 00       		.uleb128 .LVL9-.LVL9
 3958 0340 0B       		.uleb128 .LVL11-1-.LVL9
 3959 0341 01       		.uleb128 0x1
 3960 0342 51       		.byte	0x51
 3961 0343 04       		.byte	0x4
 3962 0344 0B       		.uleb128 .LVL11-1-.LVL9
 3963 0345 0C       		.uleb128 .LFE7-.LVL9
 3964 0346 04       		.uleb128 0x4
 3965 0347 A3       		.byte	0xa3
 3966 0348 01       		.uleb128 0x1
 3967 0349 51       		.byte	0x51
 3968 034a 9F       		.byte	0x9f
 3969 034b 00       		.byte	0
 3970              	.LVUS13:
 3971 034c 00       		.uleb128 0
 3972 034d 00       		.uleb128 .LVU19
 3973 034e 00       		.uleb128 .LVU19
 3974 034f 00       		.uleb128 0
 3975              	.LLST13:
 3976 0350 06       		.byte	0x6
 3977 0351 00000000 		.4byte	.LVL9
 3978 0355 04       		.byte	0x4
 3979 0356 00       		.uleb128 .LVL9-.LVL9
 3980 0357 0B       		.uleb128 .LVL11-1-.LVL9
 3981 0358 01       		.uleb128 0x1
 3982 0359 52       		.byte	0x52
 3983 035a 04       		.byte	0x4
 3984 035b 0B       		.uleb128 .LVL11-1-.LVL9
 3985 035c 0C       		.uleb128 .LFE7-.LVL9
 3986 035d 04       		.uleb128 0x4
 3987 035e A3       		.byte	0xa3
 3988 035f 01       		.uleb128 0x1
 3989 0360 52       		.byte	0x52
 3990 0361 9F       		.byte	0x9f
ARM GAS  /tmp/ccRBrtkq.s 			page 71


 3991 0362 00       		.byte	0
 3992              	.Ldebug_loc3:
 3993              		.section	.debug_aranges,"",%progbits
 3994 0000 84000000 		.4byte	0x84
 3995 0004 0200     		.2byte	0x2
 3996 0006 00000000 		.4byte	.Ldebug_info0
 3997 000a 04       		.byte	0x4
 3998 000b 00       		.byte	0
 3999 000c 0000     		.2byte	0
 4000 000e 0000     		.2byte	0
 4001 0010 00000000 		.4byte	.LFB14
 4002 0014 08000000 		.4byte	.LFE14-.LFB14
 4003 0018 00000000 		.4byte	.LFB8
 4004 001c 0C000000 		.4byte	.LFE8-.LFB8
 4005 0020 00000000 		.4byte	.LFB13
 4006 0024 08000000 		.4byte	.LFE13-.LFB13
 4007 0028 00000000 		.4byte	.LFB7
 4008 002c 0C000000 		.4byte	.LFE7-.LFB7
 4009 0030 00000000 		.4byte	.LFB12
 4010 0034 08000000 		.4byte	.LFE12-.LFB12
 4011 0038 00000000 		.4byte	.LFB10
 4012 003c 0C000000 		.4byte	.LFE10-.LFB10
 4013 0040 00000000 		.4byte	.LFB11
 4014 0044 08000000 		.4byte	.LFE11-.LFB11
 4015 0048 00000000 		.4byte	.LFB9
 4016 004c 0C000000 		.4byte	.LFE9-.LFB9
 4017 0050 00000000 		.4byte	.LFB15
 4018 0054 04000000 		.4byte	.LFE15-.LFB15
 4019 0058 00000000 		.4byte	.LFB16
 4020 005c 64000000 		.4byte	.LFE16-.LFB16
 4021 0060 00000000 		.4byte	.LFB17
 4022 0064 20000000 		.4byte	.LFE17-.LFB17
 4023 0068 00000000 		.4byte	.LFB18
 4024 006c 34000000 		.4byte	.LFE18-.LFB18
 4025 0070 00000000 		.4byte	.LFB19
 4026 0074 4C000000 		.4byte	.LFE19-.LFB19
 4027 0078 00000000 		.4byte	.LFB20
 4028 007c 34000000 		.4byte	.LFE20-.LFB20
 4029 0080 00000000 		.4byte	0
 4030 0084 00000000 		.4byte	0
 4031              		.section	.debug_rnglists,"",%progbits
 4032              	.Ldebug_ranges0:
 4033 0000 5D000000 		.4byte	.Ldebug_ranges3-.Ldebug_ranges2
 4034              	.Ldebug_ranges2:
 4035 0004 0500     		.2byte	0x5
 4036 0006 04       		.byte	0x4
 4037 0007 00       		.byte	0
 4038 0008 00000000 		.4byte	0
 4039              	.LLRL32:
 4040 000c 07       		.byte	0x7
 4041 000d 00000000 		.4byte	.LFB14
 4042 0011 08       		.uleb128 .LFE14-.LFB14
 4043 0012 07       		.byte	0x7
 4044 0013 00000000 		.4byte	.LFB8
 4045 0017 0C       		.uleb128 .LFE8-.LFB8
 4046 0018 07       		.byte	0x7
 4047 0019 00000000 		.4byte	.LFB13
ARM GAS  /tmp/ccRBrtkq.s 			page 72


 4048 001d 08       		.uleb128 .LFE13-.LFB13
 4049 001e 07       		.byte	0x7
 4050 001f 00000000 		.4byte	.LFB7
 4051 0023 0C       		.uleb128 .LFE7-.LFB7
 4052 0024 07       		.byte	0x7
 4053 0025 00000000 		.4byte	.LFB12
 4054 0029 08       		.uleb128 .LFE12-.LFB12
 4055 002a 07       		.byte	0x7
 4056 002b 00000000 		.4byte	.LFB10
 4057 002f 0C       		.uleb128 .LFE10-.LFB10
 4058 0030 07       		.byte	0x7
 4059 0031 00000000 		.4byte	.LFB11
 4060 0035 08       		.uleb128 .LFE11-.LFB11
 4061 0036 07       		.byte	0x7
 4062 0037 00000000 		.4byte	.LFB9
 4063 003b 0C       		.uleb128 .LFE9-.LFB9
 4064 003c 07       		.byte	0x7
 4065 003d 00000000 		.4byte	.LFB15
 4066 0041 04       		.uleb128 .LFE15-.LFB15
 4067 0042 07       		.byte	0x7
 4068 0043 00000000 		.4byte	.LFB16
 4069 0047 64       		.uleb128 .LFE16-.LFB16
 4070 0048 07       		.byte	0x7
 4071 0049 00000000 		.4byte	.LFB17
 4072 004d 20       		.uleb128 .LFE17-.LFB17
 4073 004e 07       		.byte	0x7
 4074 004f 00000000 		.4byte	.LFB18
 4075 0053 34       		.uleb128 .LFE18-.LFB18
 4076 0054 07       		.byte	0x7
 4077 0055 00000000 		.4byte	.LFB19
 4078 0059 4C       		.uleb128 .LFE19-.LFB19
 4079 005a 07       		.byte	0x7
 4080 005b 00000000 		.4byte	.LFB20
 4081 005f 34       		.uleb128 .LFE20-.LFB20
 4082 0060 00       		.byte	0
 4083              	.Ldebug_ranges3:
 4084              		.section	.debug_line,"",%progbits
 4085              	.Ldebug_line0:
 4086 0000 09040000 		.section	.debug_str,"MS",%progbits,1
 4086      0300B001 
 4086      00000201 
 4086      FB0E0D00 
 4086      01010101 
 4087              	.LASF46:
 4088 0000 54687265 		.ascii	"ThreadsList\000"
 4088      6164734C 
 4088      69737400 
 4089              	.LASF39:
 4090 000c 705F7761 		.ascii	"p_waiting\000"
 4090      6974696E 
 4090      6700
 4091              	.LASF82:
 4092 0016 53657269 		.ascii	"SerialDriver\000"
 4092      616C4472 
 4092      69766572 
 4092      00
 4093              	.LASF118:
ARM GAS  /tmp/ccRBrtkq.s 			page 73


 4094 0023 7364496E 		.ascii	"sdInit\000"
 4094      697400
 4095              	.LASF38:
 4096 002a 705F7469 		.ascii	"p_time\000"
 4096      6D6500
 4097              	.LASF104:
 4098 0031 63684951 		.ascii	"chIQGetTimeout\000"
 4098      47657454 
 4098      696D656F 
 4098      757400
 4099              	.LASF47:
 4100 0040 72656761 		.ascii	"regarm_t\000"
 4100      726D5F74 
 4100      00
 4101              	.LASF29:
 4102 0049 705F7072 		.ascii	"p_prio\000"
 4102      696F00
 4103              	.LASF25:
 4104 0050 73797374 		.ascii	"systime_t\000"
 4104      696D655F 
 4104      7400
 4105              	.LASF52:
 4106 005a 6D5F6F77 		.ascii	"m_owner\000"
 4106      6E657200 
 4107              	.LASF40:
 4108 0062 705F6D73 		.ascii	"p_msgqueue\000"
 4108      67717565 
 4108      756500
 4109              	.LASF0:
 4110 006d 756E7369 		.ascii	"unsigned int\000"
 4110      676E6564 
 4110      20696E74 
 4110      00
 4111              	.LASF106:
 4112 007a 63684951 		.ascii	"chIQReadTimeout\000"
 4112      52656164 
 4112      54696D65 
 4112      6F757400 
 4113              	.LASF108:
 4114 008a 63684951 		.ascii	"chIQInit\000"
 4114      496E6974 
 4114      00
 4115              	.LASF72:
 4116 0093 715F7264 		.ascii	"q_rdptr\000"
 4116      70747200 
 4117              	.LASF7:
 4118 009b 5F5F696E 		.ascii	"__int32_t\000"
 4118      7433325F 
 4118      7400
 4119              	.LASF75:
 4120 00a5 716E6F74 		.ascii	"qnotify_t\000"
 4120      6966795F 
 4120      7400
 4121              	.LASF57:
 4122 00af 656C5F6D 		.ascii	"el_mask\000"
 4122      61736B00 
 4123              	.LASF63:
ARM GAS  /tmp/ccRBrtkq.s 			page 74


 4124 00b7 77746F62 		.ascii	"wtobjp\000"
 4124      6A7000
 4125              	.LASF74:
 4126 00be 715F6C69 		.ascii	"q_link\000"
 4126      6E6B00
 4127              	.LASF115:
 4128 00c5 73644F62 		.ascii	"sdObjectInit\000"
 4128      6A656374 
 4128      496E6974 
 4128      00
 4129              	.LASF64:
 4130 00d2 65776D61 		.ascii	"ewmask\000"
 4130      736B00
 4131              	.LASF111:
 4132 00d9 7364496E 		.ascii	"sdIncomingDataI\000"
 4132      636F6D69 
 4132      6E674461 
 4132      74614900 
 4133              	.LASF94:
 4134 00e9 77726974 		.ascii	"writet\000"
 4134      657400
 4135              	.LASF121:
 4136 00f0 474E5520 		.ascii	"GNU C17 11.2.0 -mcpu=arm1176jz-s -mno-thumb-interwo"
 4136      43313720 
 4136      31312E32 
 4136      2E30202D 
 4136      6D637075 
 4137 0123 726B202D 		.ascii	"rk -mfloat-abi=soft -marm -march=armv6kz -ggdb -O2 "
 4137      6D666C6F 
 4137      61742D61 
 4137      62693D73 
 4137      6F667420 
 4138 0156 2D666F6D 		.ascii	"-fomit-frame-pointer -ffunction-sections -fdata-sec"
 4138      69742D66 
 4138      72616D65 
 4138      2D706F69 
 4138      6E746572 
 4139 0189 74696F6E 		.ascii	"tions\000"
 4139      7300
 4140              	.LASF85:
 4141 018f 69717565 		.ascii	"iqueue\000"
 4141      756500
 4142              	.LASF15:
 4143 0196 75696E74 		.ascii	"uint32_t\000"
 4143      33325F74 
 4143      00
 4144              	.LASF124:
 4145 019f 73645265 		.ascii	"sdRequestDataI\000"
 4145      71756573 
 4145      74446174 
 4145      614900
 4146              	.LASF23:
 4147 01ae 6576656E 		.ascii	"eventmask_t\000"
 4147      746D6173 
 4147      6B5F7400 
 4148              	.LASF88:
 4149 01ba 53657269 		.ascii	"SerialConfig\000"
ARM GAS  /tmp/ccRBrtkq.s 			page 75


 4149      616C436F 
 4149      6E666967 
 4149      00
 4150              	.LASF81:
 4151 01c7 73647374 		.ascii	"sdstate_t\000"
 4151      6174655F 
 4151      7400
 4152              	.LASF83:
 4153 01d1 6576656E 		.ascii	"event\000"
 4153      7400
 4154              	.LASF21:
 4155 01d7 74707269 		.ascii	"tprio_t\000"
 4155      6F5F7400 
 4156              	.LASF12:
 4157 01df 6C6F6E67 		.ascii	"long long unsigned int\000"
 4157      206C6F6E 
 4157      6720756E 
 4157      7369676E 
 4157      65642069 
 4158              	.LASF122:
 4159 01f6 2E2E2F2E 		.ascii	"../../os/hal/src/serial.c\000"
 4159      2E2F6F73 
 4159      2F68616C 
 4159      2F737263 
 4159      2F736572 
 4160              	.LASF105:
 4161 0210 63684F51 		.ascii	"chOQWriteTimeout\000"
 4161      57726974 
 4161      6554696D 
 4161      656F7574 
 4161      00
 4162              	.LASF113:
 4163 0221 73645374 		.ascii	"sdStart\000"
 4163      61727400 
 4164              	.LASF119:
 4165 0229 74696D65 		.ascii	"time\000"
 4165      00
 4166              	.LASF31:
 4167 022e 705F6E65 		.ascii	"p_newer\000"
 4167      77657200 
 4168              	.LASF67:
 4169 0236 715F7761 		.ascii	"q_waiting\000"
 4169      6974696E 
 4169      6700
 4170              	.LASF92:
 4171 0240 70757474 		.ascii	"putt\000"
 4171      00
 4172              	.LASF59:
 4173 0245 4576656E 		.ascii	"EventSource\000"
 4173      74536F75 
 4173      72636500 
 4174              	.LASF2:
 4175 0251 73697A65 		.ascii	"size_t\000"
 4175      5F7400
 4176              	.LASF61:
 4177 0258 7264796D 		.ascii	"rdymsg\000"
 4177      736700
ARM GAS  /tmp/ccRBrtkq.s 			page 76


 4178              	.LASF116:
 4179 025f 696E6F74 		.ascii	"inotify\000"
 4179      69667900 
 4180              	.LASF16:
 4181 0267 626F6F6C 		.ascii	"bool_t\000"
 4181      5F7400
 4182              	.LASF79:
 4183 026e 53445F53 		.ascii	"SD_STOP\000"
 4183      544F5000 
 4184              	.LASF109:
 4185 0276 63685363 		.ascii	"chSchRescheduleS\000"
 4185      68526573 
 4185      63686564 
 4185      756C6553 
 4185      00
 4186              	.LASF50:
 4187 0287 4D757465 		.ascii	"Mutex\000"
 4187      7800
 4188              	.LASF77:
 4189 028d 4F757470 		.ascii	"OutputQueue\000"
 4189      75745175 
 4189      65756500 
 4190              	.LASF73:
 4191 0299 715F6E6F 		.ascii	"q_notify\000"
 4191      74696679 
 4191      00
 4192              	.LASF33:
 4193 02a2 705F6E61 		.ascii	"p_name\000"
 4193      6D6500
 4194              	.LASF76:
 4195 02a9 496E7075 		.ascii	"InputQueue\000"
 4195      74517565 
 4195      756500
 4196              	.LASF45:
 4197 02b4 54687265 		.ascii	"ThreadsQueue\000"
 4197      61647351 
 4197      75657565 
 4197      00
 4198              	.LASF65:
 4199 02c1 63686172 		.ascii	"char\000"
 4199      00
 4200              	.LASF71:
 4201 02c6 715F7772 		.ascii	"q_wrptr\000"
 4201      70747200 
 4202              	.LASF26:
 4203 02ce 54687265 		.ascii	"Thread\000"
 4203      616400
 4204              	.LASF18:
 4205 02d5 74737461 		.ascii	"tstate_t\000"
 4205      74655F74 
 4205      00
 4206              	.LASF98:
 4207 02de 63684576 		.ascii	"chEvtBroadcastFlagsI\000"
 4207      7442726F 
 4207      61646361 
 4207      7374466C 
 4207      61677349 
ARM GAS  /tmp/ccRBrtkq.s 			page 77


 4208              	.LASF32:
 4209 02f3 705F6F6C 		.ascii	"p_older\000"
 4209      64657200 
 4210              	.LASF34:
 4211 02fb 705F7374 		.ascii	"p_state\000"
 4211      61746500 
 4212              	.LASF13:
 4213 0303 75696E74 		.ascii	"uint8_t\000"
 4213      385F7400 
 4214              	.LASF24:
 4215 030b 666C6167 		.ascii	"flagsmask_t\000"
 4215      736D6173 
 4215      6B5F7400 
 4216              	.LASF43:
 4217 0317 705F6D74 		.ascii	"p_mtxlist\000"
 4217      786C6973 
 4217      7400
 4218              	.LASF11:
 4219 0321 6C6F6E67 		.ascii	"long long int\000"
 4219      206C6F6E 
 4219      6720696E 
 4219      7400
 4220              	.LASF90:
 4221 032f 77726974 		.ascii	"write\000"
 4221      6500
 4222              	.LASF69:
 4223 0335 715F6275 		.ascii	"q_buffer\000"
 4223      66666572 
 4223      00
 4224              	.LASF107:
 4225 033e 63684F51 		.ascii	"chOQInit\000"
 4225      496E6974 
 4225      00
 4226              	.LASF22:
 4227 0347 6D73675F 		.ascii	"msg_t\000"
 4227      7400
 4228              	.LASF101:
 4229 034d 73645F6C 		.ascii	"sd_lld_stop\000"
 4229      6C645F73 
 4229      746F7000 
 4230              	.LASF49:
 4231 0359 636F6E74 		.ascii	"context\000"
 4231      65787400 
 4232              	.LASF35:
 4233 0361 705F666C 		.ascii	"p_flags\000"
 4233      61677300 
 4234              	.LASF112:
 4235 0369 73645374 		.ascii	"sdStop\000"
 4235      6F7000
 4236              	.LASF20:
 4237 0370 74736C69 		.ascii	"tslices_t\000"
 4237      6365735F 
 4237      7400
 4238              	.LASF97:
 4239 037a 63684951 		.ascii	"chIQPutI\000"
 4239      50757449 
 4239      00
ARM GAS  /tmp/ccRBrtkq.s 			page 78


 4240              	.LASF102:
 4241 0383 73645F6C 		.ascii	"sd_lld_start\000"
 4241      6C645F73 
 4241      74617274 
 4241      00
 4242              	.LASF55:
 4243 0390 656C5F6E 		.ascii	"el_next\000"
 4243      65787400 
 4244              	.LASF41:
 4245 0398 705F6D73 		.ascii	"p_msg\000"
 4245      6700
 4246              	.LASF17:
 4247 039e 746D6F64 		.ascii	"tmode_t\000"
 4247      655F7400 
 4248              	.LASF66:
 4249 03a6 47656E65 		.ascii	"GenericQueue\000"
 4249      72696351 
 4249      75657565 
 4249      00
 4250              	.LASF86:
 4251 03b3 6F717565 		.ascii	"oqueue\000"
 4251      756500
 4252              	.LASF48:
 4253 03ba 696E7463 		.ascii	"intctx\000"
 4253      747800
 4254              	.LASF123:
 4255 03c1 2F686F6D 		.ascii	"/home/sergi/uni/seu/ChibiOS-RPi/demos/led\000"
 4255      652F7365 
 4255      7267692F 
 4255      756E692F 
 4255      7365752F 
 4256              	.LASF80:
 4257 03eb 53445F52 		.ascii	"SD_READY\000"
 4257      45414459 
 4257      00
 4258              	.LASF89:
 4259 03f4 53657269 		.ascii	"SerialDriverVMT\000"
 4259      616C4472 
 4259      69766572 
 4259      564D5400 
 4260              	.LASF114:
 4261 0404 636F6E66 		.ascii	"config\000"
 4261      696700
 4262              	.LASF44:
 4263 040b 705F7265 		.ascii	"p_realprio\000"
 4263      616C7072 
 4263      696F00
 4264              	.LASF5:
 4265 0416 73686F72 		.ascii	"short int\000"
 4265      7420696E 
 4265      7400
 4266              	.LASF42:
 4267 0420 705F6570 		.ascii	"p_epending\000"
 4267      656E6469 
 4267      6E6700
 4268              	.LASF51:
 4269 042b 6D5F7175 		.ascii	"m_queue\000"
ARM GAS  /tmp/ccRBrtkq.s 			page 79


 4269      65756500 
 4270              	.LASF8:
 4271 0433 6C6F6E67 		.ascii	"long int\000"
 4271      20696E74 
 4271      00
 4272              	.LASF117:
 4273 043c 6F6E6F74 		.ascii	"onotify\000"
 4273      69667900 
 4274              	.LASF27:
 4275 0444 705F6E65 		.ascii	"p_next\000"
 4275      787400
 4276              	.LASF30:
 4277 044b 705F6374 		.ascii	"p_ctx\000"
 4277      7800
 4278              	.LASF3:
 4279 0451 5F5F7569 		.ascii	"__uint8_t\000"
 4279      6E74385F 
 4279      7400
 4280              	.LASF91:
 4281 045b 72656164 		.ascii	"read\000"
 4281      00
 4282              	.LASF56:
 4283 0460 656C5F6C 		.ascii	"el_listener\000"
 4283      69737465 
 4283      6E657200 
 4284              	.LASF78:
 4285 046c 53445F55 		.ascii	"SD_UNINIT\000"
 4285      4E494E49 
 4285      5400
 4286              	.LASF96:
 4287 0476 63684F51 		.ascii	"chOQGetI\000"
 4287      47657449 
 4287      00
 4288              	.LASF68:
 4289 047f 715F636F 		.ascii	"q_counter\000"
 4289      756E7465 
 4289      7200
 4290              	.LASF93:
 4291 0489 67657474 		.ascii	"gett\000"
 4291      00
 4292              	.LASF70:
 4293 048e 715F746F 		.ascii	"q_top\000"
 4293      7000
 4294              	.LASF28:
 4295 0494 705F7072 		.ascii	"p_prev\000"
 4295      657600
 4296              	.LASF19:
 4297 049b 74726566 		.ascii	"trefs_t\000"
 4297      735F7400 
 4298              	.LASF54:
 4299 04a3 4576656E 		.ascii	"EventListener\000"
 4299      744C6973 
 4299      74656E65 
 4299      7200
 4300              	.LASF10:
 4301 04b1 6C6F6E67 		.ascii	"long unsigned int\000"
 4301      20756E73 
ARM GAS  /tmp/ccRBrtkq.s 			page 80


 4301      69676E65 
 4301      6420696E 
 4301      7400
 4302              	.LASF14:
 4303 04c3 696E7433 		.ascii	"int32_t\000"
 4303      325F7400 
 4304              	.LASF99:
 4305 04cb 63684951 		.ascii	"chIQResetI\000"
 4305      52657365 
 4305      744900
 4306              	.LASF4:
 4307 04d6 756E7369 		.ascii	"unsigned char\000"
 4307      676E6564 
 4307      20636861 
 4307      7200
 4308              	.LASF9:
 4309 04e4 5F5F7569 		.ascii	"__uint32_t\000"
 4309      6E743332 
 4309      5F7400
 4310              	.LASF36:
 4311 04ef 705F7265 		.ascii	"p_refs\000"
 4311      667300
 4312              	.LASF120:
 4313 04f6 74696D65 		.ascii	"timeout\000"
 4313      6F757400 
 4314              	.LASF103:
 4315 04fe 63684F51 		.ascii	"chOQPutTimeout\000"
 4315      50757454 
 4315      696D656F 
 4315      757400
 4316              	.LASF37:
 4317 050d 705F7072 		.ascii	"p_preempt\000"
 4317      65656D70 
 4317      7400
 4318              	.LASF60:
 4319 0517 65735F6E 		.ascii	"es_next\000"
 4319      65787400 
 4320              	.LASF84:
 4321 051f 73746174 		.ascii	"state\000"
 4321      6500
 4322              	.LASF53:
 4323 0525 6D5F6E65 		.ascii	"m_next\000"
 4323      787400
 4324              	.LASF1:
 4325 052c 7369676E 		.ascii	"signed char\000"
 4325      65642063 
 4325      68617200 
 4326              	.LASF95:
 4327 0538 72656164 		.ascii	"readt\000"
 4327      7400
 4328              	.LASF6:
 4329 053e 73686F72 		.ascii	"short unsigned int\000"
 4329      7420756E 
 4329      7369676E 
 4329      65642069 
 4329      6E7400
 4330              	.LASF100:
ARM GAS  /tmp/ccRBrtkq.s 			page 81


 4331 0551 63684F51 		.ascii	"chOQResetI\000"
 4331      52657365 
 4331      744900
 4332              	.LASF110:
 4333 055c 73645F6C 		.ascii	"sd_lld_init\000"
 4333      6C645F69 
 4333      6E697400 
 4334              	.LASF87:
 4335 0568 62617564 		.ascii	"baud_rate\000"
 4335      5F726174 
 4335      6500
 4336              	.LASF58:
 4337 0572 656C5F66 		.ascii	"el_flags\000"
 4337      6C616773 
 4337      00
 4338              	.LASF62:
 4339 057b 65786974 		.ascii	"exitcode\000"
 4339      636F6465 
 4339      00
 4340              		.ident	"GCC: (Arch Repository) 11.2.0"
ARM GAS  /tmp/ccRBrtkq.s 			page 82


DEFINED SYMBOLS
                            *ABS*:0000000000000000 serial.c
     /tmp/ccRBrtkq.s:16     .text.readt:0000000000000000 $a
     /tmp/ccRBrtkq.s:22     .text.readt:0000000000000000 readt
     /tmp/ccRBrtkq.s:43     .text.read:0000000000000000 $a
     /tmp/ccRBrtkq.s:48     .text.read:0000000000000000 read
     /tmp/ccRBrtkq.s:69     .text.writet:0000000000000000 $a
     /tmp/ccRBrtkq.s:74     .text.writet:0000000000000000 writet
     /tmp/ccRBrtkq.s:94     .text.write:0000000000000000 $a
     /tmp/ccRBrtkq.s:99     .text.write:0000000000000000 write
     /tmp/ccRBrtkq.s:120    .text.gett:0000000000000000 $a
     /tmp/ccRBrtkq.s:125    .text.gett:0000000000000000 gett
     /tmp/ccRBrtkq.s:145    .text.get:0000000000000000 $a
     /tmp/ccRBrtkq.s:150    .text.get:0000000000000000 get
     /tmp/ccRBrtkq.s:171    .text.putt:0000000000000000 $a
     /tmp/ccRBrtkq.s:176    .text.putt:0000000000000000 putt
     /tmp/ccRBrtkq.s:196    .text.put:0000000000000000 $a
     /tmp/ccRBrtkq.s:201    .text.put:0000000000000000 put
     /tmp/ccRBrtkq.s:222    .text.sdInit:0000000000000000 $a
     /tmp/ccRBrtkq.s:228    .text.sdInit:0000000000000000 sdInit
     /tmp/ccRBrtkq.s:242    .text.sdObjectInit:0000000000000000 $a
     /tmp/ccRBrtkq.s:248    .text.sdObjectInit:0000000000000000 sdObjectInit
     /tmp/ccRBrtkq.s:313    .text.sdObjectInit:0000000000000060 $d
     /tmp/ccRBrtkq.s:318    .text.sdStart:0000000000000000 $a
     /tmp/ccRBrtkq.s:324    .text.sdStart:0000000000000000 sdStart
     /tmp/ccRBrtkq.s:374    .text.sdStop:0000000000000000 $a
     /tmp/ccRBrtkq.s:380    .text.sdStop:0000000000000000 sdStop
     /tmp/ccRBrtkq.s:443    .text.sdIncomingDataI:0000000000000000 $a
     /tmp/ccRBrtkq.s:449    .text.sdIncomingDataI:0000000000000000 sdIncomingDataI
     /tmp/ccRBrtkq.s:520    .text.sdRequestDataI:0000000000000000 $a
     /tmp/ccRBrtkq.s:526    .text.sdRequestDataI:0000000000000000 sdRequestDataI
     /tmp/ccRBrtkq.s:577    .rodata.vmt:0000000000000000 $d
     /tmp/ccRBrtkq.s:581    .rodata.vmt:0000000000000000 vmt

UNDEFINED SYMBOLS
chIQReadTimeout
chOQWriteTimeout
chIQGetTimeout
chOQPutTimeout
sd_lld_init
chIQInit
chOQInit
sd_lld_start
sd_lld_stop
chOQResetI
chIQResetI
chSchRescheduleS
chIQPutI
chEvtBroadcastFlagsI
chOQGetI
