ARM GAS  /tmp/ccfR7IJV.s 			page 1


   1              		.cpu arm1176jz-s
   2              		.eabi_attribute 20, 1
   3              		.eabi_attribute 21, 1
   4              		.eabi_attribute 23, 3
   5              		.eabi_attribute 24, 1
   6              		.eabi_attribute 25, 1
   7              		.eabi_attribute 26, 1
   8              		.eabi_attribute 30, 2
   9              		.eabi_attribute 34, 1
  10              		.eabi_attribute 18, 4
  11              		.file	"shell.c"
  12              		.text
  13              	.Ltext0:
  14              		.cfi_sections	.debug_frame
  15              		.section	.rodata.cmd_systime.str1.4,"aMS",%progbits,1
  16              		.align	2
  17              	.LC0:
  18 0000 73797374 		.ascii	"systime\000"
  18      696D6500 
  19              		.align	2
  20              	.LC1:
  21 0008 55736167 		.ascii	"Usage: %s\015\012\000"
  21      653A2025 
  21      730D0A00 
  22              		.align	2
  23              	.LC2:
  24 0014 256C750D 		.ascii	"%lu\015\012\000"
  24      0A00
  25              		.section	.text.cmd_systime,"ax",%progbits
  26              		.align	2
  27              		.arch armv6kz
  28              		.syntax unified
  29              		.arm
  30              		.fpu softvfp
  31              		.type	cmd_systime, %function
  32              	cmd_systime:
  33              	.LVL0:
  34              	.LFB11:
  35              		.file 1 "../../os/various/shell.c"
  36              		.loc 1 103 76 view -0
  37              		.cfi_startproc
  38              		@ args = 0, pretend = 0, frame = 0
  39              		@ frame_needed = 0, uses_anonymous_args = 0
  40              		@ link register save eliminated.
  41              		.loc 1 105 3 view .LVU1
  42              		.loc 1 106 3 view .LVU2
  43              		.loc 1 106 6 is_stmt 0 view .LVU3
  44 0000 000051E3 		cmp	r1, #0
  45 0004 030000CA 		bgt	.L4
  46              		.loc 1 110 3 is_stmt 1 view .LVU4
  47              		.loc 1 110 43 is_stmt 0 view .LVU5
  48 0008 14309FE5 		ldr	r3, .L5
  49              		.loc 1 110 3 view .LVU6
  50 000c 14109FE5 		ldr	r1, .L5+4
  51              	.LVL1:
  52              		.loc 1 110 43 view .LVU7
  53 0010 0C2093E5 		ldr	r2, [r3, #12]
ARM GAS  /tmp/ccfR7IJV.s 			page 2


  54              	.LVL2:
  55              		.loc 1 110 3 view .LVU8
  56 0014 FEFFFFEA 		b	chprintf
  57              	.LVL3:
  58              	.L4:
  59              	.LBB18:
  60              	.LBI18:
  61              		.loc 1 103 13 is_stmt 1 view .LVU9
  62              	.LBB19:
  63              		.loc 1 107 5 view .LVU10
  64              	.LBB20:
  65              	.LBI20:
  66              		.loc 1 58 13 view .LVU11
  67              	.LBB21:
  68              		.loc 1 60 3 view .LVU12
  69 0018 0C209FE5 		ldr	r2, .L5+8
  70              	.LVL4:
  71              		.loc 1 60 3 is_stmt 0 view .LVU13
  72 001c 0C109FE5 		ldr	r1, .L5+12
  73              	.LVL5:
  74              		.loc 1 60 3 view .LVU14
  75 0020 FEFFFFEA 		b	chprintf
  76              	.LVL6:
  77              	.L6:
  78              		.loc 1 60 3 view .LVU15
  79              		.align	2
  80              	.L5:
  81 0024 00000000 		.word	vtlist
  82 0028 14000000 		.word	.LC2
  83 002c 00000000 		.word	.LC0
  84 0030 08000000 		.word	.LC1
  85              	.LBE21:
  86              	.LBE20:
  87              	.LBE19:
  88              	.LBE18:
  89              		.cfi_endproc
  90              	.LFE11:
  91              		.size	cmd_systime, .-cmd_systime
  92              		.section	.rodata.cmd_info.str1.4,"aMS",%progbits,1
  93              		.align	2
  94              	.LC3:
  95 0000 696E666F 		.ascii	"info\000"
  95      00
  96 0005 000000   		.align	2
  97              	.LC4:
  98 0008 322E352E 		.ascii	"2.5.1unstable\000"
  98      31756E73 
  98      7461626C 
  98      6500
  99 0016 0000     		.align	2
 100              	.LC5:
 101 0018 4B65726E 		.ascii	"Kernel:       %s\015\012\000"
 101      656C3A20 
 101      20202020 
 101      20202573 
 101      0D0A00
 102 002b 00       		.align	2
ARM GAS  /tmp/ccfR7IJV.s 			page 3


 103              	.LC6:
 104 002c 47434320 		.ascii	"GCC 11.2.0\000"
 104      31312E32 
 104      2E3000
 105 0037 00       		.align	2
 106              	.LC7:
 107 0038 436F6D70 		.ascii	"Compiler:     %s\015\012\000"
 107      696C6572 
 107      3A202020 
 107      20202573 
 107      0D0A00
 108 004b 00       		.align	2
 109              	.LC8:
 110 004c 41524D31 		.ascii	"ARM11\000"
 110      3100
 111 0052 0000     		.align	2
 112              	.LC9:
 113 0054 41726368 		.ascii	"Architecture: %s\015\012\000"
 113      69746563 
 113      74757265 
 113      3A202573 
 113      0D0A00
 114 0067 00       		.align	2
 115              	.LC10:
 116 0068 41524D31 		.ascii	"ARM1176JZF-S\000"
 116      3137364A 
 116      5A462D53 
 116      00
 117 0075 000000   		.align	2
 118              	.LC11:
 119 0078 436F7265 		.ascii	"Core Variant: %s\015\012\000"
 119      20566172 
 119      69616E74 
 119      3A202573 
 119      0D0A00
 120 008b 00       		.align	2
 121              	.LC12:
 122 008c 50757265 		.ascii	"Pure ARM mode\000"
 122      2041524D 
 122      206D6F64 
 122      6500
 123 009a 0000     		.align	2
 124              	.LC13:
 125 009c 506F7274 		.ascii	"Port Info:    %s\015\012\000"
 125      20496E66 
 125      6F3A2020 
 125      20202573 
 125      0D0A00
 126 00af 00       		.align	2
 127              	.LC14:
 128 00b0 42434D32 		.ascii	"BCM2835\000"
 128      38333500 
 129              		.align	2
 130              	.LC15:
 131 00b8 506C6174 		.ascii	"Platform:     %s\015\012\000"
 131      666F726D 
 131      3A202020 
ARM GAS  /tmp/ccfR7IJV.s 			page 4


 131      20202573 
 131      0D0A00
 132 00cb 00       		.align	2
 133              	.LC16:
 134 00cc 202D2000 		.ascii	" - \000"
 135              		.align	2
 136              	.LC17:
 137 00d0 44656320 		.ascii	"Dec  3 2021\000"
 137      20332032 
 137      30323100 
 138              		.align	2
 139              	.LC18:
 140 00dc 4275696C 		.ascii	"Build time:   %s%s%s\015\012\000"
 140      64207469 
 140      6D653A20 
 140      20202573 
 140      25732573 
 141 00f3 00       		.align	2
 142              	.LC19:
 143 00f4 31393A33 		.ascii	"19:37:38\000"
 143      373A3338 
 143      00
 144              		.section	.text.cmd_info,"ax",%progbits
 145              		.align	2
 146              		.syntax unified
 147              		.arm
 148              		.fpu softvfp
 149              		.type	cmd_info, %function
 150              	cmd_info:
 151              	.LVL7:
 152              	.LFB10:
 153              		.loc 1 71 73 is_stmt 1 view -0
 154              		.cfi_startproc
 155              		@ args = 0, pretend = 0, frame = 0
 156              		@ frame_needed = 0, uses_anonymous_args = 0
 157              		.loc 1 74 6 is_stmt 0 view .LVU17
 158 0000 000051E3 		cmp	r1, #0
 159              		.loc 1 73 3 is_stmt 1 view .LVU18
 160              		.loc 1 74 3 view .LVU19
 161              		.loc 1 74 6 is_stmt 0 view .LVU20
 162 0004 220000CA 		bgt	.L11
 163              		.loc 1 71 73 view .LVU21
 164 0008 10402DE9 		push	{r4, lr}
 165              		.cfi_def_cfa_offset 8
 166              		.cfi_offset 4, -8
 167              		.cfi_offset 14, -4
 168 000c 0040A0E1 		mov	r4, r0
 169              	.LVL8:
 170              	.LBB28:
 171              	.LBI28:
 172              		.loc 1 71 13 is_stmt 1 view .LVU22
 173              	.LBB29:
 174              		.loc 1 79 3 view .LVU23
 175              	.LBE29:
 176              	.LBE28:
 177              		.loc 1 71 73 is_stmt 0 view .LVU24
 178 0010 08D04DE2 		sub	sp, sp, #8
ARM GAS  /tmp/ccfR7IJV.s 			page 5


 179              		.cfi_def_cfa_offset 16
 180              	.LBB31:
 181              	.LBB30:
 182              		.loc 1 79 3 view .LVU25
 183 0014 84209FE5 		ldr	r2, .L12
 184              	.LVL9:
 185              		.loc 1 79 3 view .LVU26
 186 0018 84109FE5 		ldr	r1, .L12+4
 187              	.LVL10:
 188              		.loc 1 79 3 view .LVU27
 189 001c FEFFFFEB 		bl	chprintf
 190              	.LVL11:
 191              		.loc 1 81 3 is_stmt 1 view .LVU28
 192 0020 0400A0E1 		mov	r0, r4
 193 0024 7C209FE5 		ldr	r2, .L12+8
 194 0028 7C109FE5 		ldr	r1, .L12+12
 195 002c FEFFFFEB 		bl	chprintf
 196              	.LVL12:
 197              		.loc 1 83 3 view .LVU29
 198 0030 0400A0E1 		mov	r0, r4
 199 0034 74209FE5 		ldr	r2, .L12+16
 200 0038 74109FE5 		ldr	r1, .L12+20
 201 003c FEFFFFEB 		bl	chprintf
 202              	.LVL13:
 203              		.loc 1 85 3 view .LVU30
 204 0040 0400A0E1 		mov	r0, r4
 205 0044 6C209FE5 		ldr	r2, .L12+24
 206 0048 6C109FE5 		ldr	r1, .L12+28
 207 004c FEFFFFEB 		bl	chprintf
 208              	.LVL14:
 209              		.loc 1 88 3 view .LVU31
 210 0050 0400A0E1 		mov	r0, r4
 211 0054 64209FE5 		ldr	r2, .L12+32
 212 0058 64109FE5 		ldr	r1, .L12+36
 213 005c FEFFFFEB 		bl	chprintf
 214              	.LVL15:
 215              		.loc 1 91 3 view .LVU32
 216 0060 0400A0E1 		mov	r0, r4
 217 0064 5C209FE5 		ldr	r2, .L12+40
 218 0068 5C109FE5 		ldr	r1, .L12+44
 219 006c FEFFFFEB 		bl	chprintf
 220              	.LVL16:
 221              		.loc 1 98 3 view .LVU33
 222 0070 58C09FE5 		ldr	ip, .L12+48
 223 0074 0400A0E1 		mov	r0, r4
 224 0078 54309FE5 		ldr	r3, .L12+52
 225 007c 54209FE5 		ldr	r2, .L12+56
 226 0080 54109FE5 		ldr	r1, .L12+60
 227 0084 00C08DE5 		str	ip, [sp]
 228 0088 FEFFFFEB 		bl	chprintf
 229              	.LVL17:
 230              		.loc 1 98 3 is_stmt 0 view .LVU34
 231              	.LBE30:
 232              	.LBE31:
 233              		.loc 1 101 1 view .LVU35
 234 008c 08D08DE2 		add	sp, sp, #8
 235              		.cfi_def_cfa_offset 8
ARM GAS  /tmp/ccfR7IJV.s 			page 6


 236              		@ sp needed
 237 0090 1080BDE8 		pop	{r4, pc}
 238              	.LVL18:
 239              	.L11:
 240              		.cfi_def_cfa_offset 0
 241              		.cfi_restore 4
 242              		.cfi_restore 14
 243              		.loc 1 75 5 is_stmt 1 view .LVU36
 244              	.LBB32:
 245              	.LBI32:
 246              		.loc 1 58 13 view .LVU37
 247              	.LBB33:
 248              		.loc 1 60 3 view .LVU38
 249 0094 44209FE5 		ldr	r2, .L12+64
 250              	.LVL19:
 251              		.loc 1 60 3 is_stmt 0 view .LVU39
 252 0098 44109FE5 		ldr	r1, .L12+68
 253              	.LVL20:
 254              		.loc 1 60 3 view .LVU40
 255 009c FEFFFFEA 		b	chprintf
 256              	.LVL21:
 257              	.L13:
 258              		.loc 1 60 3 view .LVU41
 259              		.align	2
 260              	.L12:
 261 00a0 08000000 		.word	.LC4
 262 00a4 18000000 		.word	.LC5
 263 00a8 2C000000 		.word	.LC6
 264 00ac 38000000 		.word	.LC7
 265 00b0 4C000000 		.word	.LC8
 266 00b4 54000000 		.word	.LC9
 267 00b8 68000000 		.word	.LC10
 268 00bc 78000000 		.word	.LC11
 269 00c0 8C000000 		.word	.LC12
 270 00c4 9C000000 		.word	.LC13
 271 00c8 B0000000 		.word	.LC14
 272 00cc B8000000 		.word	.LC15
 273 00d0 F4000000 		.word	.LC19
 274 00d4 CC000000 		.word	.LC16
 275 00d8 D0000000 		.word	.LC17
 276 00dc DC000000 		.word	.LC18
 277 00e0 00000000 		.word	.LC3
 278 00e4 08000000 		.word	.LC1
 279              	.LBE33:
 280              	.LBE32:
 281              		.cfi_endproc
 282              	.LFE10:
 283              		.size	cmd_info, .-cmd_info
 284              		.section	.text._strtok.constprop.0,"ax",%progbits
 285              		.align	2
 286              		.syntax unified
 287              		.arm
 288              		.fpu softvfp
 289              		.type	_strtok.constprop.0, %function
 290              	_strtok.constprop.0:
 291              	.LVL22:
 292              	.LFB20:
ARM GAS  /tmp/ccfR7IJV.s 			page 7


 293              		.loc 1 41 14 is_stmt 1 view -0
 294              		.cfi_startproc
 295              		@ args = 0, pretend = 0, frame = 0
 296              		@ frame_needed = 0, uses_anonymous_args = 0
 297              		.loc 1 42 3 view .LVU43
 298              		.loc 1 43 3 view .LVU44
 299              		.loc 1 41 14 is_stmt 0 view .LVU45
 300 0000 70402DE9 		push	{r4, r5, r6, lr}
 301              		.cfi_def_cfa_offset 16
 302              		.cfi_offset 4, -16
 303              		.cfi_offset 5, -12
 304              		.cfi_offset 6, -8
 305              		.cfi_offset 14, -4
 306              		.loc 1 43 6 view .LVU46
 307 0004 004050E2 		subs	r4, r0, #0
 308              		.loc 1 41 14 view .LVU47
 309 0008 0150A0E1 		mov	r5, r1
 310              		.loc 1 44 14 view .LVU48
 311 000c 00408115 		strne	r4, [r1]
 312              		.loc 1 43 6 view .LVU49
 313 0010 1100000A 		beq	.L25
 314              	.L16:
 315              	.LVL23:
 316              		.loc 1 50 3 is_stmt 1 view .LVU50
 317              		.loc 1 50 12 is_stmt 0 view .LVU51
 318 0014 0400A0E1 		mov	r0, r4
 319              	.LVL24:
 320              		.loc 1 50 12 view .LVU52
 321 0018 54109FE5 		ldr	r1, .L26
 322              	.LVL25:
 323              		.loc 1 50 12 view .LVU53
 324 001c FEFFFFEB 		bl	strspn
 325              	.LVL26:
 326              		.loc 1 50 9 view .LVU54
 327 0020 004084E0 		add	r4, r4, r0
 328              	.LVL27:
 329              		.loc 1 51 3 is_stmt 1 view .LVU55
 330              		.loc 1 51 14 is_stmt 0 view .LVU56
 331 0024 2010A0E3 		mov	r1, #32
 332 0028 0400A0E1 		mov	r0, r4
 333 002c FEFFFFEB 		bl	strchr
 334              	.LVL28:
 335              		.loc 1 52 3 is_stmt 1 view .LVU57
 336              		.loc 1 52 6 is_stmt 0 view .LVU58
 337 0030 000050E3 		cmp	r0, #0
 338              		.loc 1 53 19 view .LVU59
 339 0034 0030A013 		movne	r3, #0
 340              		.loc 1 53 16 view .LVU60
 341 0038 01208012 		addne	r2, r0, #1
 342 003c 00208515 		strne	r2, [r5]
 343              		.loc 1 51 12 view .LVU61
 344 0040 00008505 		streq	r0, [r5]
 345              		.loc 1 53 5 is_stmt 1 view .LVU62
 346              		.loc 1 53 19 is_stmt 0 view .LVU63
 347 0044 0030C015 		strbne	r3, [r0]
 348              		.loc 1 55 3 is_stmt 1 view .LVU64
 349              		.loc 1 55 25 is_stmt 0 view .LVU65
ARM GAS  /tmp/ccfR7IJV.s 			page 8


 350 0048 0030D4E5 		ldrb	r3, [r4]	@ zero_extendqisi2
 351 004c 000053E3 		cmp	r3, #0
 352 0050 0400000A 		beq	.L20
 353              		.loc 1 56 1 view .LVU66
 354 0054 0400A0E1 		mov	r0, r4
 355 0058 7080BDE8 		pop	{r4, r5, r6, pc}
 356              	.LVL29:
 357              	.L25:
 358              		.loc 1 45 3 is_stmt 1 view .LVU67
 359              		.loc 1 45 9 is_stmt 0 view .LVU68
 360 005c 004091E5 		ldr	r4, [r1]
 361              	.LVL30:
 362              		.loc 1 47 3 is_stmt 1 view .LVU69
 363              		.loc 1 47 6 is_stmt 0 view .LVU70
 364 0060 000054E3 		cmp	r4, #0
 365 0064 EAFFFF1A 		bne	.L16
 366              	.LVL31:
 367              	.L20:
 368              		.loc 1 48 12 view .LVU71
 369 0068 0040A0E3 		mov	r4, #0
 370              	.LVL32:
 371              		.loc 1 56 1 view .LVU72
 372 006c 0400A0E1 		mov	r0, r4
 373 0070 7080BDE8 		pop	{r4, r5, r6, pc}
 374              	.L27:
 375              		.align	2
 376              	.L26:
 377 0074 00000000 		.word	.LANCHOR0
 378              		.cfi_endproc
 379              	.LFE20:
 380              		.size	_strtok.constprop.0, .-_strtok.constprop.0
 381              		.section	.text.shellInit,"ax",%progbits
 382              		.align	2
 383              		.global	shellInit
 384              		.syntax unified
 385              		.arm
 386              		.fpu softvfp
 387              		.type	shellInit, %function
 388              	shellInit:
 389              	.LFB14:
 390              		.loc 1 208 22 is_stmt 1 view -0
 391              		.cfi_startproc
 392              		@ args = 0, pretend = 0, frame = 0
 393              		@ frame_needed = 0, uses_anonymous_args = 0
 394              		@ link register save eliminated.
 395              		.loc 1 210 3 view .LVU74
 396 0000 04309FE5 		ldr	r3, .L29
 397 0004 003083E5 		str	r3, [r3]
 398              		.loc 1 211 1 is_stmt 0 view .LVU75
 399 0008 1EFF2FE1 		bx	lr
 400              	.L30:
 401              		.align	2
 402              	.L29:
 403 000c 00000000 		.word	.LANCHOR1
 404              		.cfi_endproc
 405              	.LFE14:
 406              		.size	shellInit, .-shellInit
ARM GAS  /tmp/ccfR7IJV.s 			page 9


 407              		.section	.text.shellCreate,"ax",%progbits
 408              		.align	2
 409              		.global	shellCreate
 410              		.syntax unified
 411              		.arm
 412              		.fpu softvfp
 413              		.type	shellCreate, %function
 414              	shellCreate:
 415              	.LVL33:
 416              	.LFB15:
 417              		.loc 1 224 72 is_stmt 1 view -0
 418              		.cfi_startproc
 419              		@ args = 0, pretend = 0, frame = 0
 420              		@ frame_needed = 0, uses_anonymous_args = 0
 421              		.loc 1 226 3 view .LVU77
 422              		.loc 1 224 72 is_stmt 0 view .LVU78
 423 0000 00C0A0E1 		mov	ip, r0
 424 0004 04E02DE5 		str	lr, [sp, #-4]!
 425              		.cfi_def_cfa_offset 4
 426              		.cfi_offset 14, -4
 427 0008 0CD04DE2 		sub	sp, sp, #12
 428              		.cfi_def_cfa_offset 16
 429              		.loc 1 226 10 view .LVU79
 430 000c 10309FE5 		ldr	r3, .L33
 431 0010 00C08DE5 		str	ip, [sp]
 432 0014 0000A0E3 		mov	r0, #0
 433              	.LVL34:
 434              		.loc 1 226 10 view .LVU80
 435 0018 FEFFFFEB 		bl	chThdCreateFromHeap
 436              	.LVL35:
 437              		.loc 1 227 1 view .LVU81
 438 001c 0CD08DE2 		add	sp, sp, #12
 439              		.cfi_def_cfa_offset 4
 440              		@ sp needed
 441 0020 04F09DE4 		ldr	pc, [sp], #4
 442              	.L34:
 443              		.align	2
 444              	.L33:
 445 0024 00000000 		.word	shell_thread
 446              		.cfi_endproc
 447              	.LFE15:
 448              		.size	shellCreate, .-shellCreate
 449              		.section	.text.shellCreateStatic,"ax",%progbits
 450              		.align	2
 451              		.global	shellCreateStatic
 452              		.syntax unified
 453              		.arm
 454              		.fpu softvfp
 455              		.type	shellCreateStatic, %function
 456              	shellCreateStatic:
 457              	.LVL36:
 458              	.LFB16:
 459              		.loc 1 240 54 is_stmt 1 view -0
 460              		.cfi_startproc
 461              		@ args = 0, pretend = 0, frame = 0
 462              		@ frame_needed = 0, uses_anonymous_args = 0
 463              		.loc 1 242 3 view .LVU83
ARM GAS  /tmp/ccfR7IJV.s 			page 10


 464              		.loc 1 240 54 is_stmt 0 view .LVU84
 465 0000 00C0A0E1 		mov	ip, r0
 466 0004 04E02DE5 		str	lr, [sp, #-4]!
 467              		.cfi_def_cfa_offset 4
 468              		.cfi_offset 14, -4
 469 0008 0CD04DE2 		sub	sp, sp, #12
 470              		.cfi_def_cfa_offset 16
 471              		.loc 1 240 54 view .LVU85
 472 000c 0100A0E1 		mov	r0, r1
 473              	.LVL37:
 474              		.loc 1 242 10 view .LVU86
 475 0010 00C08DE5 		str	ip, [sp]
 476              		.loc 1 240 54 view .LVU87
 477 0014 0210A0E1 		mov	r1, r2
 478              	.LVL38:
 479              		.loc 1 240 54 view .LVU88
 480 0018 0320A0E1 		mov	r2, r3
 481              	.LVL39:
 482              		.loc 1 242 10 view .LVU89
 483 001c 08309FE5 		ldr	r3, .L37
 484              	.LVL40:
 485              		.loc 1 242 10 view .LVU90
 486 0020 FEFFFFEB 		bl	chThdCreateStatic
 487              	.LVL41:
 488              		.loc 1 243 1 view .LVU91
 489 0024 0CD08DE2 		add	sp, sp, #12
 490              		.cfi_def_cfa_offset 4
 491              		@ sp needed
 492 0028 04F09DE4 		ldr	pc, [sp], #4
 493              	.L38:
 494              		.align	2
 495              	.L37:
 496 002c 00000000 		.word	shell_thread
 497              		.cfi_endproc
 498              	.LFE16:
 499              		.size	shellCreateStatic, .-shellCreateStatic
 500              		.section	.rodata.shellGetLine.str1.4,"aMS",%progbits,1
 501              		.align	2
 502              	.LC21:
 503 0000 5E4400   		.ascii	"^D\000"
 504 0003 00       		.align	2
 505              	.LC22:
 506 0004 0D0A00   		.ascii	"\015\012\000"
 507              		.section	.text.shellGetLine,"ax",%progbits
 508              		.align	2
 509              		.global	shellGetLine
 510              		.syntax unified
 511              		.arm
 512              		.fpu softvfp
 513              		.type	shellGetLine, %function
 514              	shellGetLine:
 515              	.LVL42:
 516              	.LFB17:
 517              		.loc 1 255 75 is_stmt 1 view -0
 518              		.cfi_startproc
 519              		@ args = 0, pretend = 0, frame = 8
 520              		@ frame_needed = 0, uses_anonymous_args = 0
ARM GAS  /tmp/ccfR7IJV.s 			page 11


 521              		.loc 1 256 3 view .LVU93
 522              		.loc 1 255 75 is_stmt 0 view .LVU94
 523 0000 F0402DE9 		push	{r4, r5, r6, r7, lr}
 524              		.cfi_def_cfa_offset 20
 525              		.cfi_offset 4, -20
 526              		.cfi_offset 5, -16
 527              		.cfi_offset 6, -12
 528              		.cfi_offset 7, -8
 529              		.cfi_offset 14, -4
 530 0004 0170A0E1 		mov	r7, r1
 531              	.LVL43:
 532              		.loc 1 255 75 view .LVU95
 533 0008 0040A0E1 		mov	r4, r0
 534 000c 0150A0E1 		mov	r5, r1
 535              	.LBB34:
 536              		.loc 1 283 25 view .LVU96
 537 0010 012042E2 		sub	r2, r2, #1
 538              	.LVL44:
 539              		.loc 1 283 25 view .LVU97
 540              	.LBE34:
 541              		.loc 1 255 75 view .LVU98
 542 0014 0CD04DE2 		sub	sp, sp, #12
 543              		.cfi_def_cfa_offset 32
 544              	.LBB35:
 545              		.loc 1 283 25 view .LVU99
 546 0018 026081E0 		add	r6, r1, r2
 547              	.LVL45:
 548              	.L53:
 549              		.loc 1 283 25 view .LVU100
 550 001c 003094E5 		ldr	r3, [r4]
 551              	.LVL46:
 552              	.L40:
 553              		.loc 1 283 25 view .LVU101
 554              	.LBE35:
 555              		.loc 1 258 3 is_stmt 1 view .LVU102
 556              	.LBB36:
 557              		.loc 1 259 5 view .LVU103
 558              		.loc 1 261 5 view .LVU104
 559              		.loc 1 261 9 is_stmt 0 view .LVU105
 560 0020 0120A0E3 		mov	r2, #1
 561 0024 0400A0E1 		mov	r0, r4
 562 0028 043093E5 		ldr	r3, [r3, #4]
 563 002c 07108DE2 		add	r1, sp, #7
 564 0030 33FF2FE1 		blx	r3
 565              	.LVL47:
 566              		.loc 1 263 5 is_stmt 1 view .LVU106
 567              		.loc 1 267 5 view .LVU107
 568              		.loc 1 276 5 view .LVU108
 569              		.loc 1 281 5 view .LVU109
 570              		.loc 1 283 5 view .LVU110
 571              		.loc 1 261 8 is_stmt 0 view .LVU111
 572 0034 000050E3 		cmp	r0, #0
 573 0038 2500000A 		beq	.L48
 574              		.loc 1 263 11 view .LVU112
 575 003c 0710DDE5 		ldrb	r1, [sp, #7]	@ zero_extendqisi2
 576              		.loc 1 263 8 view .LVU113
 577 0040 040051E3 		cmp	r1, #4
ARM GAS  /tmp/ccfR7IJV.s 			page 12


 578 0044 2500000A 		beq	.L54
 579              		.loc 1 267 8 view .LVU114
 580 0048 080051E3 		cmp	r1, #8
 581 004c 0D00000A 		beq	.L55
 582              		.loc 1 276 8 view .LVU115
 583 0050 0D0051E3 		cmp	r1, #13
 584 0054 2700000A 		beq	.L56
 585              		.loc 1 281 8 view .LVU116
 586 0058 1F0051E3 		cmp	r1, #31
 587              		.loc 1 269 9 view .LVU117
 588 005c 003094E5 		ldr	r3, [r4]
 589              		.loc 1 281 8 view .LVU118
 590 0060 EEFFFF9A 		bls	.L40
 591              		.loc 1 284 7 is_stmt 1 view .LVU119
 592              		.loc 1 283 8 is_stmt 0 view .LVU120
 593 0064 060055E1 		cmp	r5, r6
 594 0068 ECFFFF2A 		bcs	.L40
 595              		.loc 1 284 7 view .LVU121
 596 006c 083093E5 		ldr	r3, [r3, #8]
 597 0070 0400A0E1 		mov	r0, r4
 598 0074 33FF2FE1 		blx	r3
 599              	.LVL48:
 600              		.loc 1 285 7 is_stmt 1 view .LVU122
 601              		.loc 1 285 12 is_stmt 0 view .LVU123
 602 0078 0730DDE5 		ldrb	r3, [sp, #7]	@ zero_extendqisi2
 603 007c 0130C5E4 		strb	r3, [r5], #1
 604              	.LVL49:
 605              		.loc 1 285 12 view .LVU124
 606 0080 003094E5 		ldr	r3, [r4]
 607 0084 E5FFFFEA 		b	.L40
 608              	.L55:
 609              		.loc 1 268 7 is_stmt 1 view .LVU125
 610              		.loc 1 269 9 view .LVU126
 611              		.loc 1 268 10 is_stmt 0 view .LVU127
 612 0088 070055E1 		cmp	r5, r7
 613 008c E2FFFF0A 		beq	.L53
 614              		.loc 1 269 9 view .LVU128
 615 0090 003094E5 		ldr	r3, [r4]
 616 0094 0400A0E1 		mov	r0, r4
 617 0098 083093E5 		ldr	r3, [r3, #8]
 618 009c 33FF2FE1 		blx	r3
 619              	.LVL50:
 620              		.loc 1 270 9 is_stmt 1 view .LVU129
 621 00a0 003094E5 		ldr	r3, [r4]
 622 00a4 2010A0E3 		mov	r1, #32
 623 00a8 083093E5 		ldr	r3, [r3, #8]
 624 00ac 0400A0E1 		mov	r0, r4
 625 00b0 33FF2FE1 		blx	r3
 626              	.LVL51:
 627              		.loc 1 271 9 view .LVU130
 628 00b4 003094E5 		ldr	r3, [r4]
 629 00b8 0400A0E1 		mov	r0, r4
 630 00bc 083093E5 		ldr	r3, [r3, #8]
 631 00c0 0710DDE5 		ldrb	r1, [sp, #7]	@ zero_extendqisi2
 632 00c4 33FF2FE1 		blx	r3
 633              	.LVL52:
 634              		.loc 1 272 9 view .LVU131
ARM GAS  /tmp/ccfR7IJV.s 			page 13


 635              		.loc 1 272 10 is_stmt 0 view .LVU132
 636 00c8 015045E2 		sub	r5, r5, #1
 637              	.LVL53:
 638              		.loc 1 272 10 view .LVU133
 639 00cc 003094E5 		ldr	r3, [r4]
 640 00d0 D2FFFFEA 		b	.L40
 641              	.L48:
 642              		.loc 1 262 14 view .LVU134
 643 00d4 0100A0E3 		mov	r0, #1
 644              	.LBE36:
 645              		.loc 1 288 1 view .LVU135
 646 00d8 0CD08DE2 		add	sp, sp, #12
 647              		.cfi_remember_state
 648              		.cfi_def_cfa_offset 20
 649              		@ sp needed
 650 00dc F080BDE8 		pop	{r4, r5, r6, r7, pc}
 651              	.LVL54:
 652              	.L54:
 653              		.cfi_restore_state
 654              	.LBB37:
 655              		.loc 1 264 7 is_stmt 1 view .LVU136
 656 00e0 0400A0E1 		mov	r0, r4
 657 00e4 2C109FE5 		ldr	r1, .L57
 658 00e8 FEFFFFEB 		bl	chprintf
 659              	.LVL55:
 660              		.loc 1 265 7 view .LVU137
 661              		.loc 1 265 14 is_stmt 0 view .LVU138
 662 00ec 0100A0E3 		mov	r0, #1
 663              	.LBE37:
 664              		.loc 1 288 1 view .LVU139
 665 00f0 0CD08DE2 		add	sp, sp, #12
 666              		.cfi_remember_state
 667              		.cfi_def_cfa_offset 20
 668              		@ sp needed
 669 00f4 F080BDE8 		pop	{r4, r5, r6, r7, pc}
 670              	.LVL56:
 671              	.L56:
 672              		.cfi_restore_state
 673              	.LBB38:
 674              		.loc 1 277 7 is_stmt 1 view .LVU140
 675 00f8 0400A0E1 		mov	r0, r4
 676 00fc 18109FE5 		ldr	r1, .L57+4
 677 0100 FEFFFFEB 		bl	chprintf
 678              	.LVL57:
 679              		.loc 1 278 7 view .LVU141
 680              		.loc 1 278 10 is_stmt 0 view .LVU142
 681 0104 0030A0E3 		mov	r3, #0
 682              		.loc 1 279 14 view .LVU143
 683 0108 0300A0E1 		mov	r0, r3
 684              		.loc 1 278 10 view .LVU144
 685 010c 0030C5E5 		strb	r3, [r5]
 686              		.loc 1 279 7 is_stmt 1 view .LVU145
 687              	.LBE38:
 688              		.loc 1 288 1 is_stmt 0 view .LVU146
 689 0110 0CD08DE2 		add	sp, sp, #12
 690              		.cfi_def_cfa_offset 20
 691              		@ sp needed
ARM GAS  /tmp/ccfR7IJV.s 			page 14


 692 0114 F080BDE8 		pop	{r4, r5, r6, r7, pc}
 693              	.LVL58:
 694              	.L58:
 695              		.loc 1 288 1 view .LVU147
 696              		.align	2
 697              	.L57:
 698 0118 00000000 		.word	.LC21
 699 011c 04000000 		.word	.LC22
 700              		.cfi_endproc
 701              	.LFE17:
 702              		.size	shellGetLine, .-shellGetLine
 703              		.section	.rodata.shell_thread.str1.4,"aMS",%progbits,1
 704              		.align	2
 705              	.LC23:
 706 0000 7368656C 		.ascii	"shell\000"
 706      6C00
 707 0006 0000     		.align	2
 708              	.LC24:
 709 0008 0D0A4368 		.ascii	"\015\012ChibiOS/RT Shell\015\012\000"
 709      6962694F 
 709      532F5254 
 709      20536865 
 709      6C6C0D0A 
 710 001d 000000   		.align	2
 711              	.LC25:
 712 0020 63683E20 		.ascii	"ch> \000"
 712      00
 713 0025 000000   		.align	2
 714              	.LC26:
 715 0028 0D0A6C6F 		.ascii	"\015\012logout\000"
 715      676F7574 
 715      00
 716 0031 000000   		.align	2
 717              	.LC27:
 718 0034 746F6F20 		.ascii	"too many arguments\015\012\000"
 718      6D616E79 
 718      20617267 
 718      756D656E 
 718      74730D0A 
 719 0049 000000   		.align	2
 720              	.LC28:
 721 004c 65786974 		.ascii	"exit\000"
 721      00
 722 0051 000000   		.align	2
 723              	.LC29:
 724 0054 68656C70 		.ascii	"help\000"
 724      00
 725 0059 000000   		.align	2
 726              	.LC30:
 727 005c 436F6D6D 		.ascii	"Commands: help exit \000"
 727      616E6473 
 727      3A206865 
 727      6C702065 
 727      78697420 
 728 0071 000000   		.align	2
 729              	.LC31:
 730 0074 25732000 		.ascii	"%s \000"
ARM GAS  /tmp/ccfR7IJV.s 			page 15


 731              		.align	2
 732              	.LC32:
 733 0078 257300   		.ascii	"%s\000"
 734 007b 00       		.align	2
 735              	.LC33:
 736 007c 203F0D0A 		.ascii	" ?\015\012\000"
 736      00
 737              		.section	.text.shell_thread,"ax",%progbits
 738              		.align	2
 739              		.syntax unified
 740              		.arm
 741              		.fpu softvfp
 742              		.type	shell_thread, %function
 743              	shell_thread:
 744              	.LVL59:
 745              	.LFB13:
 746              		.loc 1 143 36 is_stmt 1 view -0
 747              		.cfi_startproc
 748              		@ args = 0, pretend = 0, frame = 88
 749              		@ frame_needed = 0, uses_anonymous_args = 0
 750              		.loc 1 144 3 view .LVU149
 751              		.loc 1 145 3 view .LVU150
 752              		.loc 1 146 3 view .LVU151
 753              		.loc 1 143 36 is_stmt 0 view .LVU152
 754 0000 F04F2DE9 		push	{r4, r5, r6, r7, r8, r9, r10, fp, lr}
 755              		.cfi_def_cfa_offset 36
 756              		.cfi_offset 4, -36
 757              		.cfi_offset 5, -32
 758              		.cfi_offset 6, -28
 759              		.cfi_offset 7, -24
 760              		.cfi_offset 8, -20
 761              		.cfi_offset 9, -16
 762              		.cfi_offset 10, -12
 763              		.cfi_offset 11, -8
 764              		.cfi_offset 14, -4
 765              		.loc 1 147 23 view .LVU153
 766 0004 400290E8 		ldm	r0, {r6, r9}
 767              	.LVL60:
 768              		.loc 1 148 3 is_stmt 1 view .LVU154
 769              		.loc 1 149 3 view .LVU155
 770              		.loc 1 151 3 view .LVU156
 771 0008 68329FE5 		ldr	r3, .L114
 772 000c 68229FE5 		ldr	r2, .L114+4
 773 0010 183093E5 		ldr	r3, [r3, #24]
 774              		.loc 1 152 3 is_stmt 0 view .LVU157
 775 0014 0600A0E1 		mov	r0, r6
 776              	.LVL61:
 777              		.loc 1 152 3 view .LVU158
 778 0018 60129FE5 		ldr	r1, .L114+8
 779              		.loc 1 143 36 view .LVU159
 780 001c 5CD04DE2 		sub	sp, sp, #92
 781              		.cfi_def_cfa_offset 128
 782              		.loc 1 151 3 view .LVU160
 783 0020 182083E5 		str	r2, [r3, #24]
 784              		.loc 1 152 3 is_stmt 1 view .LVU161
 785              		.loc 1 154 5 is_stmt 0 view .LVU162
 786 0024 58729FE5 		ldr	r7, .L114+12
ARM GAS  /tmp/ccfR7IJV.s 			page 16


 787              		.loc 1 172 11 view .LVU163
 788 0028 58829FE5 		ldr	r8, .L114+16
 789              		.loc 1 179 16 view .LVU164
 790 002c 58A29FE5 		ldr	r10, .L114+20
 791              		.loc 1 152 3 view .LVU165
 792 0030 FEFFFFEB 		bl	chprintf
 793              	.LVL62:
 794              	.L60:
 795              		.loc 1 153 3 is_stmt 1 view .LVU166
 796              		.loc 1 154 5 view .LVU167
 797 0034 0710A0E1 		mov	r1, r7
 798 0038 0600A0E1 		mov	r0, r6
 799 003c FEFFFFEB 		bl	chprintf
 800              	.LVL63:
 801              		.loc 1 155 5 view .LVU168
 802              		.loc 1 155 9 is_stmt 0 view .LVU169
 803 0040 4020A0E3 		mov	r2, #64
 804 0044 0600A0E1 		mov	r0, r6
 805 0048 18108DE2 		add	r1, sp, #24
 806 004c FEFFFFEB 		bl	shellGetLine
 807              	.LVL64:
 808              		.loc 1 155 8 view .LVU170
 809 0050 00B050E2 		subs	fp, r0, #0
 810 0054 6200001A 		bne	.L108
 811              		.loc 1 159 5 is_stmt 1 view .LVU171
 812              		.loc 1 159 10 is_stmt 0 view .LVU172
 813 0058 0D10A0E1 		mov	r1, sp
 814 005c 18008DE2 		add	r0, sp, #24
 815 0060 FEFFFFEB 		bl	_strtok.constprop.0
 816              	.LVL65:
 817 0064 0050A0E1 		mov	r5, r0
 818              	.LVL66:
 819              		.loc 1 160 5 is_stmt 1 view .LVU173
 820              		.loc 1 161 5 view .LVU174
 821              		.loc 1 162 5 view .LVU175
 822 0068 04408DE2 		add	r4, sp, #4
 823              	.LVL67:
 824              	.L63:
 825              		.loc 1 162 49 view .LVU176
 826              		.loc 1 162 18 is_stmt 0 view .LVU177
 827 006c 0D10A0E1 		mov	r1, sp
 828 0070 0000A0E3 		mov	r0, #0
 829              	.LVL68:
 830              		.loc 1 162 18 view .LVU178
 831 0074 FEFFFFEB 		bl	_strtok.constprop.0
 832              	.LVL69:
 833              		.loc 1 163 7 is_stmt 1 view .LVU179
 834              		.loc 1 168 7 view .LVU180
 835              		.loc 1 162 49 is_stmt 0 view .LVU181
 836 0078 000050E3 		cmp	r0, #0
 837              		.loc 1 162 49 view .LVU182
 838 007c 0900000A 		beq	.L109
 839              		.loc 1 163 10 view .LVU183
 840 0080 04005BE3 		cmp	fp, #4
 841              		.loc 1 168 13 view .LVU184
 842 0084 01B08B12 		addne	fp, fp, #1
 843              	.LVL70:
ARM GAS  /tmp/ccfR7IJV.s 			page 17


 844              		.loc 1 168 17 view .LVU185
 845 0088 04008414 		strne	r0, [r4], #4
 846 008c F6FFFF1A 		bne	.L63
 847              	.L110:
 848              		.loc 1 164 9 is_stmt 1 view .LVU186
 849 0090 0600A0E1 		mov	r0, r6
 850              	.LVL71:
 851              		.loc 1 164 9 is_stmt 0 view .LVU187
 852 0094 F4119FE5 		ldr	r1, .L114+24
 853 0098 FEFFFFEB 		bl	chprintf
 854              	.LVL72:
 855              		.loc 1 165 9 is_stmt 1 view .LVU188
 856              		.loc 1 166 9 view .LVU189
 857              		.loc 1 170 5 view .LVU190
 858              		.loc 1 170 13 is_stmt 0 view .LVU191
 859 009c 0030A0E3 		mov	r3, #0
 860 00a0 14308DE5 		str	r3, [sp, #20]
 861              		.loc 1 171 5 is_stmt 1 view .LVU192
 862 00a4 E2FFFFEA 		b	.L60
 863              	.LVL73:
 864              	.L109:
 865              		.loc 1 170 5 view .LVU193
 866              		.loc 1 170 13 is_stmt 0 view .LVU194
 867 00a8 58308DE2 		add	r3, sp, #88
 868 00ac 0B3183E0 		add	r3, r3, fp, lsl #2
 869              		.loc 1 171 8 view .LVU195
 870 00b0 000055E3 		cmp	r5, #0
 871              		.loc 1 170 13 view .LVU196
 872 00b4 540003E5 		str	r0, [r3, #-84]
 873              		.loc 1 171 5 is_stmt 1 view .LVU197
 874              		.loc 1 171 8 is_stmt 0 view .LVU198
 875 00b8 DDFFFF0A 		beq	.L60
 876              		.loc 1 172 7 is_stmt 1 view .LVU199
 877              		.loc 1 172 11 is_stmt 0 view .LVU200
 878 00bc 0810A0E1 		mov	r1, r8
 879 00c0 0500A0E1 		mov	r0, r5
 880              	.LVL74:
 881              		.loc 1 172 11 view .LVU201
 882 00c4 FEFFFFEB 		bl	strcasecmp
 883              	.LVL75:
 884              		.loc 1 172 10 view .LVU202
 885 00c8 000050E3 		cmp	r0, #0
 886 00cc 0A00001A 		bne	.L67
 887              		.loc 1 173 9 is_stmt 1 view .LVU203
 888              		.loc 1 173 12 is_stmt 0 view .LVU204
 889 00d0 00005BE3 		cmp	fp, #0
 890 00d4 4B00001A 		bne	.L111
 891              	.LVL76:
 892              	.L62:
 893              		.loc 1 199 3 is_stmt 1 view .LVU205
 894              		.syntax divided
 895              	@ 199 "../../os/various/shell.c" 1
 896 00d8 9FF021E3 		msr     CPSR_c, #0x9F
 897              	@ 0 "" 2
 898              		.loc 1 199 3 view .LVU206
 899              		.loc 1 199 14 view .LVU207
 900              		.loc 1 200 3 view .LVU208
ARM GAS  /tmp/ccfR7IJV.s 			page 18


 901              		.arm
 902              		.syntax unified
 903 00dc 0010A0E3 		mov	r1, #0
 904 00e0 AC019FE5 		ldr	r0, .L114+28
 905 00e4 FEFFFFEB 		bl	chEvtBroadcastFlagsI
 906              	.LVL77:
 907              		.loc 1 201 3 view .LVU209
 908 00e8 0000A0E3 		mov	r0, #0
 909 00ec FEFFFFEB 		bl	chThdExitS
 910              	.LVL78:
 911              		.loc 1 202 3 view .LVU210
 912              		.loc 1 203 1 is_stmt 0 view .LVU211
 913 00f0 0000A0E3 		mov	r0, #0
 914 00f4 5CD08DE2 		add	sp, sp, #92
 915              		.cfi_remember_state
 916              		.cfi_def_cfa_offset 36
 917              		@ sp needed
 918 00f8 F08FBDE8 		pop	{r4, r5, r6, r7, r8, r9, r10, fp, pc}
 919              	.LVL79:
 920              	.L67:
 921              		.cfi_restore_state
 922              		.loc 1 179 12 is_stmt 1 view .LVU212
 923              		.loc 1 179 16 is_stmt 0 view .LVU213
 924 00fc 0A10A0E1 		mov	r1, r10
 925 0100 0500A0E1 		mov	r0, r5
 926 0104 FEFFFFEB 		bl	strcasecmp
 927              	.LVL80:
 928              		.loc 1 179 15 view .LVU214
 929 0108 000050E3 		cmp	r0, #0
 930 010c 2100001A 		bne	.L112
 931              		.loc 1 180 9 is_stmt 1 view .LVU215
 932              		.loc 1 180 12 is_stmt 0 view .LVU216
 933 0110 00005BE3 		cmp	fp, #0
 934 0114 3600001A 		bne	.L113
 935              		.loc 1 184 9 is_stmt 1 view .LVU217
 936 0118 0600A0E1 		mov	r0, r6
 937 011c 74119FE5 		ldr	r1, .L114+32
 938 0120 FEFFFFEB 		bl	chprintf
 939              	.LVL81:
 940              		.loc 1 185 9 view .LVU218
 941              	.LBB51:
 942              	.LBI51:
 943              		.loc 1 63 13 view .LVU219
 944              	.LBB52:
 945              		.loc 1 65 3 view .LVU220
 946              		.loc 1 65 23 view .LVU221
 947              		.loc 1 65 13 is_stmt 0 view .LVU222
 948 0124 70319FE5 		ldr	r3, .L114+36
 949 0128 002093E5 		ldr	r2, [r3]
 950              		.loc 1 65 23 view .LVU223
 951 012c 000052E3 		cmp	r2, #0
 952 0130 0700000A 		beq	.L72
 953 0134 0340A0E1 		mov	r4, r3
 954              		.loc 1 66 5 view .LVU224
 955 0138 60519FE5 		ldr	r5, .L114+40
 956              	.LVL82:
 957              	.L73:
ARM GAS  /tmp/ccfR7IJV.s 			page 19


 958              		.loc 1 66 5 is_stmt 1 view .LVU225
 959 013c 0510A0E1 		mov	r1, r5
 960 0140 0600A0E1 		mov	r0, r6
 961 0144 FEFFFFEB 		bl	chprintf
 962              	.LVL83:
 963              		.loc 1 67 5 view .LVU226
 964              		.loc 1 65 23 view .LVU227
 965              		.loc 1 65 13 is_stmt 0 view .LVU228
 966 0148 0820B4E5 		ldr	r2, [r4, #8]!
 967              	.LVL84:
 968              		.loc 1 65 23 view .LVU229
 969 014c 000052E3 		cmp	r2, #0
 970 0150 F9FFFF1A 		bne	.L73
 971              	.LVL85:
 972              	.L72:
 973              		.loc 1 65 23 view .LVU230
 974              	.LBE52:
 975              	.LBE51:
 976              		.loc 1 186 9 is_stmt 1 view .LVU231
 977              		.loc 1 186 12 is_stmt 0 view .LVU232
 978 0154 000059E3 		cmp	r9, #0
 979 0158 0A00000A 		beq	.L74
 980              	.LVL86:
 981              	.LBB53:
 982              	.LBB54:
 983              		.loc 1 65 23 is_stmt 1 view .LVU233
 984              		.loc 1 65 13 is_stmt 0 view .LVU234
 985 015c 002099E5 		ldr	r2, [r9]
 986              		.loc 1 65 23 view .LVU235
 987 0160 000052E3 		cmp	r2, #0
 988 0164 0700000A 		beq	.L74
 989 0168 0940A0E1 		mov	r4, r9
 990              		.loc 1 66 5 view .LVU236
 991 016c 2C519FE5 		ldr	r5, .L114+40
 992              	.LVL87:
 993              	.L75:
 994              		.loc 1 66 5 is_stmt 1 view .LVU237
 995 0170 0510A0E1 		mov	r1, r5
 996 0174 0600A0E1 		mov	r0, r6
 997 0178 FEFFFFEB 		bl	chprintf
 998              	.LVL88:
 999              		.loc 1 67 5 view .LVU238
 1000              		.loc 1 65 23 view .LVU239
 1001              		.loc 1 65 13 is_stmt 0 view .LVU240
 1002 017c 0820B4E5 		ldr	r2, [r4, #8]!
 1003              	.LVL89:
 1004              		.loc 1 65 23 view .LVU241
 1005 0180 000052E3 		cmp	r2, #0
 1006 0184 F9FFFF1A 		bne	.L75
 1007              	.LVL90:
 1008              	.L74:
 1009              		.loc 1 65 23 view .LVU242
 1010              	.LBE54:
 1011              	.LBE53:
 1012              		.loc 1 188 9 is_stmt 1 view .LVU243
 1013 0188 0600A0E1 		mov	r0, r6
 1014 018c 10119FE5 		ldr	r1, .L114+44
ARM GAS  /tmp/ccfR7IJV.s 			page 20


 1015 0190 FEFFFFEB 		bl	chprintf
 1016              	.LVL91:
 1017 0194 A6FFFFEA 		b	.L60
 1018              	.LVL92:
 1019              	.L112:
 1020              	.LBB55:
 1021              	.LBB56:
 1022              		.loc 1 125 23 view .LVU244
 1023              		.loc 1 125 13 is_stmt 0 view .LVU245
 1024 0198 FC309FE5 		ldr	r3, .L114+36
 1025 019c 000093E5 		ldr	r0, [r3]
 1026              		.loc 1 125 23 view .LVU246
 1027 01a0 000050E3 		cmp	r0, #0
 1028 01a4 F0409F15 		ldrne	r4, .L114+36
 1029 01a8 0300001A 		bne	.L77
 1030 01ac 1A0000EA 		b	.L70
 1031              	.LVL93:
 1032              	.L76:
 1033              		.loc 1 125 13 view .LVU247
 1034 01b0 0800B4E5 		ldr	r0, [r4, #8]!
 1035              	.LVL94:
 1036              		.loc 1 125 23 view .LVU248
 1037 01b4 000050E3 		cmp	r0, #0
 1038 01b8 1700000A 		beq	.L70
 1039              	.LVL95:
 1040              	.L77:
 1041              		.loc 1 126 5 is_stmt 1 view .LVU249
 1042              		.loc 1 126 9 is_stmt 0 view .LVU250
 1043 01bc 0510A0E1 		mov	r1, r5
 1044 01c0 FEFFFFEB 		bl	strcasecmp
 1045              	.LVL96:
 1046              		.loc 1 130 5 is_stmt 1 view .LVU251
 1047              		.loc 1 125 23 view .LVU252
 1048              		.loc 1 126 8 is_stmt 0 view .LVU253
 1049 01c4 000050E3 		cmp	r0, #0
 1050 01c8 F8FFFF1A 		bne	.L76
 1051              	.LVL97:
 1052              	.L107:
 1053              		.loc 1 126 8 view .LVU254
 1054              	.LBE56:
 1055              	.LBE55:
 1056              	.LBB57:
 1057              	.LBB58:
 1058              		.loc 1 127 7 is_stmt 1 view .LVU255
 1059 01cc 0B10A0E1 		mov	r1, fp
 1060 01d0 0600A0E1 		mov	r0, r6
 1061 01d4 043094E5 		ldr	r3, [r4, #4]
 1062 01d8 04208DE2 		add	r2, sp, #4
 1063 01dc 33FF2FE1 		blx	r3
 1064              	.LVL98:
 1065              		.loc 1 128 7 view .LVU256
 1066 01e0 93FFFFEA 		b	.L60
 1067              	.LVL99:
 1068              	.L108:
 1069              		.loc 1 128 7 is_stmt 0 view .LVU257
 1070              	.LBE58:
 1071              	.LBE57:
ARM GAS  /tmp/ccfR7IJV.s 			page 21


 1072              		.loc 1 156 7 is_stmt 1 view .LVU258
 1073 01e4 0600A0E1 		mov	r0, r6
 1074 01e8 B8109FE5 		ldr	r1, .L114+48
 1075 01ec FEFFFFEB 		bl	chprintf
 1076              	.LVL100:
 1077              		.loc 1 157 7 view .LVU259
 1078 01f0 B8FFFFEA 		b	.L62
 1079              	.LVL101:
 1080              	.L113:
 1081              		.loc 1 181 11 view .LVU260
 1082              	.LBB60:
 1083              	.LBI60:
 1084              		.loc 1 58 13 view .LVU261
 1085              	.LBB61:
 1086              		.loc 1 60 3 view .LVU262
 1087 01f4 0A20A0E1 		mov	r2, r10
 1088 01f8 0600A0E1 		mov	r0, r6
 1089 01fc A8109FE5 		ldr	r1, .L114+52
 1090 0200 FEFFFFEB 		bl	chprintf
 1091              	.LVL102:
 1092              		.loc 1 60 3 is_stmt 0 view .LVU263
 1093              	.LBE61:
 1094              	.LBE60:
 1095              		.loc 1 182 11 is_stmt 1 view .LVU264
 1096 0204 8AFFFFEA 		b	.L60
 1097              	.L111:
 1098              		.loc 1 174 11 view .LVU265
 1099              	.LVL103:
 1100              	.LBB62:
 1101              	.LBI62:
 1102              		.loc 1 58 13 view .LVU266
 1103              	.LBB63:
 1104              		.loc 1 60 3 view .LVU267
 1105 0208 0820A0E1 		mov	r2, r8
 1106 020c 0600A0E1 		mov	r0, r6
 1107 0210 94109FE5 		ldr	r1, .L114+52
 1108 0214 FEFFFFEB 		bl	chprintf
 1109              	.LVL104:
 1110              		.loc 1 60 3 is_stmt 0 view .LVU268
 1111              	.LBE63:
 1112              	.LBE62:
 1113              		.loc 1 175 11 is_stmt 1 view .LVU269
 1114 0218 85FFFFEA 		b	.L60
 1115              	.L70:
 1116              		.loc 1 190 59 is_stmt 0 view .LVU270
 1117 021c 000059E3 		cmp	r9, #0
 1118 0220 0C00000A 		beq	.L78
 1119              	.LVL105:
 1120              	.LBB64:
 1121              	.LBB59:
 1122              		.loc 1 125 23 is_stmt 1 view .LVU271
 1123              		.loc 1 125 13 is_stmt 0 view .LVU272
 1124 0224 000099E5 		ldr	r0, [r9]
 1125              		.loc 1 125 23 view .LVU273
 1126 0228 000050E3 		cmp	r0, #0
 1127 022c 0900000A 		beq	.L78
 1128 0230 0940A0E1 		mov	r4, r9
ARM GAS  /tmp/ccfR7IJV.s 			page 22


 1129 0234 020000EA 		b	.L80
 1130              	.LVL106:
 1131              	.L79:
 1132              		.loc 1 125 13 view .LVU274
 1133 0238 0800B4E5 		ldr	r0, [r4, #8]!
 1134              	.LVL107:
 1135              		.loc 1 125 23 view .LVU275
 1136 023c 000050E3 		cmp	r0, #0
 1137 0240 0400000A 		beq	.L78
 1138              	.LVL108:
 1139              	.L80:
 1140              		.loc 1 126 5 is_stmt 1 view .LVU276
 1141              		.loc 1 126 9 is_stmt 0 view .LVU277
 1142 0244 0510A0E1 		mov	r1, r5
 1143 0248 FEFFFFEB 		bl	strcasecmp
 1144              	.LVL109:
 1145              		.loc 1 130 5 is_stmt 1 view .LVU278
 1146              		.loc 1 125 23 view .LVU279
 1147              		.loc 1 126 8 is_stmt 0 view .LVU280
 1148 024c 000050E3 		cmp	r0, #0
 1149 0250 F8FFFF1A 		bne	.L79
 1150 0254 DCFFFFEA 		b	.L107
 1151              	.LVL110:
 1152              	.L78:
 1153              		.loc 1 126 8 view .LVU281
 1154              	.LBE59:
 1155              	.LBE64:
 1156              		.loc 1 192 9 is_stmt 1 view .LVU282
 1157 0258 0600A0E1 		mov	r0, r6
 1158 025c 0520A0E1 		mov	r2, r5
 1159 0260 48109FE5 		ldr	r1, .L114+56
 1160 0264 FEFFFFEB 		bl	chprintf
 1161              	.LVL111:
 1162              		.loc 1 193 9 view .LVU283
 1163 0268 0600A0E1 		mov	r0, r6
 1164 026c 40109FE5 		ldr	r1, .L114+60
 1165 0270 FEFFFFEB 		bl	chprintf
 1166              	.LVL112:
 1167 0274 6EFFFFEA 		b	.L60
 1168              	.L115:
 1169              		.align	2
 1170              	.L114:
 1171 0278 00000000 		.word	rlist
 1172 027c 00000000 		.word	.LC23
 1173 0280 08000000 		.word	.LC24
 1174 0284 20000000 		.word	.LC25
 1175 0288 4C000000 		.word	.LC28
 1176 028c 54000000 		.word	.LC29
 1177 0290 34000000 		.word	.LC27
 1178 0294 00000000 		.word	.LANCHOR1
 1179 0298 5C000000 		.word	.LC30
 1180 029c 00000000 		.word	.LANCHOR2
 1181 02a0 74000000 		.word	.LC31
 1182 02a4 04000000 		.word	.LC22
 1183 02a8 28000000 		.word	.LC26
 1184 02ac 08000000 		.word	.LC1
 1185 02b0 78000000 		.word	.LC32
ARM GAS  /tmp/ccfR7IJV.s 			page 23


 1186 02b4 7C000000 		.word	.LC33
 1187              		.cfi_endproc
 1188              	.LFE13:
 1189              		.size	shell_thread, .-shell_thread
 1190              		.global	shell_terminated
 1191              		.section	.rodata
 1192              		.align	2
 1193              		.set	.LANCHOR0,. + 0
 1194              	.LC20:
 1195 0000 20003900 		.ascii	" \0009\000"
 1196              		.section	.bss.shell_terminated,"aw",%nobits
 1197              		.align	2
 1198              		.set	.LANCHOR1,. + 0
 1199              		.type	shell_terminated, %object
 1200              		.size	shell_terminated, 4
 1201              	shell_terminated:
 1202 0000 00000000 		.space	4
 1203              		.section	.data.local_commands,"aw"
 1204              		.align	2
 1205              		.set	.LANCHOR2,. + 0
 1206              		.type	local_commands, %object
 1207              		.size	local_commands, 24
 1208              	local_commands:
 1209 0000 00000000 		.word	.LC3
 1210 0004 00000000 		.word	cmd_info
 1211 0008 00000000 		.word	.LC0
 1212 000c 00000000 		.word	cmd_systime
 1213 0010 00000000 		.word	0
 1214 0014 00000000 		.word	0
 1215              		.text
 1216              	.Letext0:
 1217              		.file 2 "/usr/lib/gcc/arm-none-eabi/11.2.0/include/stddef.h"
 1218              		.file 3 "/usr/arm-none-eabi/include/machine/_default_types.h"
 1219              		.file 4 "/usr/arm-none-eabi/include/sys/_stdint.h"
 1220              		.file 5 "../../os/ports/GCC/ARM/chtypes.h"
 1221              		.file 6 "../../os/kernel/include/chlists.h"
 1222              		.file 7 "../../os/kernel/include/chthreads.h"
 1223              		.file 8 "../../os/ports/GCC/ARM/chcore.h"
 1224              		.file 9 "../../os/kernel/include/chvt.h"
 1225              		.file 10 "../../os/kernel/include/chschd.h"
 1226              		.file 11 "../../os/kernel/include/chmtx.h"
 1227              		.file 12 "../../os/kernel/include/chevents.h"
 1228              		.file 13 "../../os/kernel/include/chmemcore.h"
 1229              		.file 14 "../../os/kernel/include/chheap.h"
 1230              		.file 15 "../../os/kernel/include/chstreams.h"
 1231              		.file 16 "../../os/various/shell.h"
 1232              		.file 17 "/usr/arm-none-eabi/include/string.h"
 1233              		.file 18 "/usr/arm-none-eabi/include/strings.h"
 1234              		.file 19 "../../os/various/chprintf.h"
 1235              		.file 20 "../../os/kernel/include/chdynamic.h"
 1236              		.file 21 "<built-in>"