ARM GAS  /tmp/ccTJfFF2.s 			page 1


   1              		.cpu arm1176jz-s
   2              		.eabi_attribute 20, 1
   3              		.eabi_attribute 21, 1
   4              		.eabi_attribute 23, 3
   5              		.eabi_attribute 24, 1
   6              		.eabi_attribute 25, 1
   7              		.eabi_attribute 26, 1
   8              		.eabi_attribute 30, 2
   9              		.eabi_attribute 34, 1
  10              		.eabi_attribute 18, 4
  11              		.file	"spi.c"
  12              		.text
  13              	.Ltext0:
  14              		.cfi_sections	.debug_frame
  15              		.section	.text.spiInit,"ax",%progbits
  16              		.align	2
  17              		.global	spiInit
  18              		.arch armv6kz
  19              		.syntax unified
  20              		.arm
  21              		.fpu softvfp
  22              		.type	spiInit, %function
  23              	spiInit:
  24              	.LFB7:
  25              		.file 1 "../../os/hal/src/spi.c"
  26              		.loc 1 61 20 view -0
  27              		.cfi_startproc
  28              		@ args = 0, pretend = 0, frame = 0
  29              		@ frame_needed = 0, uses_anonymous_args = 0
  30              		@ link register save eliminated.
  31              		.loc 1 63 3 view .LVU1
  32 0000 FEFFFFEA 		b	spi_lld_init
  33              	.LVL0:
  34              		.cfi_endproc
  35              	.LFE7:
  36              		.size	spiInit, .-spiInit
  37              		.section	.text.spiObjectInit,"ax",%progbits
  38              		.align	2
  39              		.global	spiObjectInit
  40              		.syntax unified
  41              		.arm
  42              		.fpu softvfp
  43              		.type	spiObjectInit, %function
  44              	spiObjectInit:
  45              	.LVL1:
  46              	.LFB8:
  47              		.loc 1 73 37 view -0
  48              		.cfi_startproc
  49              		@ args = 0, pretend = 0, frame = 0
  50              		@ frame_needed = 0, uses_anonymous_args = 0
  51              		@ link register save eliminated.
  52              		.loc 1 75 3 view .LVU3
  53              		.loc 1 76 16 is_stmt 0 view .LVU4
  54 0000 0030A0E3 		mov	r3, #0
  55              		.loc 1 75 15 view .LVU5
  56 0004 0120A0E3 		mov	r2, #1
  57              		.loc 1 76 16 view .LVU6
ARM GAS  /tmp/ccTJfFF2.s 			page 2


  58 0008 043080E5 		str	r3, [r0, #4]
  59              		.loc 1 75 15 view .LVU7
  60 000c 0020C0E5 		strb	r2, [r0]
  61              		.loc 1 76 3 is_stmt 1 view .LVU8
  62              		.loc 1 78 3 view .LVU9
  63              		.loc 1 78 16 is_stmt 0 view .LVU10
  64 0010 083080E5 		str	r3, [r0, #8]
  65              		.loc 1 82 3 is_stmt 1 view .LVU11
  66 0014 0C0080E2 		add	r0, r0, #12
  67              	.LVL2:
  68              		.loc 1 82 3 is_stmt 0 view .LVU12
  69 0018 FEFFFFEA 		b	chMtxInit
  70              	.LVL3:
  71              		.loc 1 82 3 view .LVU13
  72              		.cfi_endproc
  73              	.LFE8:
  74              		.size	spiObjectInit, .-spiObjectInit
  75              		.section	.text.spiStart,"ax",%progbits
  76              		.align	2
  77              		.global	spiStart
  78              		.syntax unified
  79              		.arm
  80              		.fpu softvfp
  81              		.type	spiStart, %function
  82              	spiStart:
  83              	.LVL4:
  84              	.LFB9:
  85              		.loc 1 100 57 is_stmt 1 view -0
  86              		.cfi_startproc
  87              		@ args = 0, pretend = 0, frame = 0
  88              		@ frame_needed = 0, uses_anonymous_args = 0
  89              		.loc 1 102 3 view .LVU15
  90              		.loc 1 102 61 view .LVU16
  91              		.loc 1 104 3 view .LVU17
  92              		.loc 1 100 57 is_stmt 0 view .LVU18
  93 0000 10402DE9 		push	{r4, lr}
  94              		.cfi_def_cfa_offset 8
  95              		.cfi_offset 4, -8
  96              		.cfi_offset 14, -4
  97              		.loc 1 100 57 view .LVU19
  98 0004 0040A0E1 		mov	r4, r0
  99              		.loc 1 104 3 view .LVU20
 100              		.syntax divided
 101              	@ 104 "../../os/hal/src/spi.c" 1
 102 0008 9FF021E3 		msr     CPSR_c, #0x9F
 103              	@ 0 "" 2
 104              		.loc 1 104 3 is_stmt 1 view .LVU21
 105              		.loc 1 104 14 view .LVU22
 106              		.loc 1 105 3 view .LVU23
 107              		.loc 1 106 49 view .LVU24
 108              		.loc 1 107 3 view .LVU25
 109              		.loc 1 107 16 is_stmt 0 view .LVU26
 110              		.arm
 111              		.syntax unified
 112 000c 041080E5 		str	r1, [r0, #4]
 113              		.loc 1 108 3 is_stmt 1 view .LVU27
 114 0010 FEFFFFEB 		bl	spi_lld_start
ARM GAS  /tmp/ccTJfFF2.s 			page 3


 115              	.LVL5:
 116              		.loc 1 109 3 view .LVU28
 117              		.loc 1 109 15 is_stmt 0 view .LVU29
 118 0014 0230A0E3 		mov	r3, #2
 119 0018 0030C4E5 		strb	r3, [r4]
 120              		.loc 1 110 3 is_stmt 1 view .LVU30
 121              		.loc 1 110 3 view .LVU31
 122              		.syntax divided
 123              	@ 110 "../../os/hal/src/spi.c" 1
 124 001c 1FF021E3 		msr     CPSR_c, #0x1F
 125              	@ 0 "" 2
 126              		.loc 1 110 16 view .LVU32
 127              		.loc 1 111 1 is_stmt 0 view .LVU33
 128              		.arm
 129              		.syntax unified
 130 0020 1080BDE8 		pop	{r4, pc}
 131              		.cfi_endproc
 132              	.LFE9:
 133              		.size	spiStart, .-spiStart
 134              		.section	.text.spiStop,"ax",%progbits
 135              		.align	2
 136              		.global	spiStop
 137              		.syntax unified
 138              		.arm
 139              		.fpu softvfp
 140              		.type	spiStop, %function
 141              	spiStop:
 142              	.LVL6:
 143              	.LFB10:
 144              		.loc 1 122 31 is_stmt 1 view -0
 145              		.cfi_startproc
 146              		@ args = 0, pretend = 0, frame = 0
 147              		@ frame_needed = 0, uses_anonymous_args = 0
 148              		.loc 1 124 3 view .LVU35
 149              		.loc 1 124 38 view .LVU36
 150              		.loc 1 126 3 view .LVU37
 151              		.loc 1 122 31 is_stmt 0 view .LVU38
 152 0000 10402DE9 		push	{r4, lr}
 153              		.cfi_def_cfa_offset 8
 154              		.cfi_offset 4, -8
 155              		.cfi_offset 14, -4
 156              		.loc 1 122 31 view .LVU39
 157 0004 0040A0E1 		mov	r4, r0
 158              		.loc 1 126 3 view .LVU40
 159              		.syntax divided
 160              	@ 126 "../../os/hal/src/spi.c" 1
 161 0008 9FF021E3 		msr     CPSR_c, #0x9F
 162              	@ 0 "" 2
 163              		.loc 1 126 3 is_stmt 1 view .LVU41
 164              		.loc 1 126 14 view .LVU42
 165              		.loc 1 127 3 view .LVU43
 166              		.loc 1 128 48 view .LVU44
 167              		.loc 1 129 3 view .LVU45
 168              		.arm
 169              		.syntax unified
 170 000c FEFFFFEB 		bl	spi_lld_unselect
 171              	.LVL7:
ARM GAS  /tmp/ccTJfFF2.s 			page 4


 172              		.loc 1 130 3 view .LVU46
 173 0010 0400A0E1 		mov	r0, r4
 174 0014 FEFFFFEB 		bl	spi_lld_stop
 175              	.LVL8:
 176              		.loc 1 131 3 view .LVU47
 177              		.loc 1 131 15 is_stmt 0 view .LVU48
 178 0018 0130A0E3 		mov	r3, #1
 179 001c 0030C4E5 		strb	r3, [r4]
 180              		.loc 1 132 3 is_stmt 1 view .LVU49
 181              		.loc 1 132 3 view .LVU50
 182              		.syntax divided
 183              	@ 132 "../../os/hal/src/spi.c" 1
 184 0020 1FF021E3 		msr     CPSR_c, #0x1F
 185              	@ 0 "" 2
 186              		.loc 1 132 16 view .LVU51
 187              		.loc 1 133 1 is_stmt 0 view .LVU52
 188              		.arm
 189              		.syntax unified
 190 0024 1080BDE8 		pop	{r4, pc}
 191              		.cfi_endproc
 192              	.LFE10:
 193              		.size	spiStop, .-spiStop
 194              		.section	.text.spiSelect,"ax",%progbits
 195              		.align	2
 196              		.global	spiSelect
 197              		.syntax unified
 198              		.arm
 199              		.fpu softvfp
 200              		.type	spiSelect, %function
 201              	spiSelect:
 202              	.LVL9:
 203              	.LFB11:
 204              		.loc 1 142 33 is_stmt 1 view -0
 205              		.cfi_startproc
 206              		@ args = 0, pretend = 0, frame = 0
 207              		@ frame_needed = 0, uses_anonymous_args = 0
 208              		.loc 1 144 3 view .LVU54
 209              		.loc 1 144 40 view .LVU55
 210              		.loc 1 146 3 view .LVU56
 211              		.loc 1 142 33 is_stmt 0 view .LVU57
 212 0000 10402DE9 		push	{r4, lr}
 213              		.cfi_def_cfa_offset 8
 214              		.cfi_offset 4, -8
 215              		.cfi_offset 14, -4
 216              		.loc 1 146 3 view .LVU58
 217              		.syntax divided
 218              	@ 146 "../../os/hal/src/spi.c" 1
 219 0004 9FF021E3 		msr     CPSR_c, #0x9F
 220              	@ 0 "" 2
 221              		.loc 1 146 3 is_stmt 1 view .LVU59
 222              		.loc 1 146 14 view .LVU60
 223              		.loc 1 147 3 view .LVU61
 224              		.loc 1 147 72 view .LVU62
 225              		.loc 1 148 3 view .LVU63
 226              		.arm
 227              		.syntax unified
 228 0008 FEFFFFEB 		bl	spi_lld_select
ARM GAS  /tmp/ccTJfFF2.s 			page 5


 229              	.LVL10:
 230              		.loc 1 148 19 view .LVU64
 231              		.loc 1 149 3 view .LVU65
 232              		.loc 1 149 3 view .LVU66
 233              		.syntax divided
 234              	@ 149 "../../os/hal/src/spi.c" 1
 235 000c 1FF021E3 		msr     CPSR_c, #0x1F
 236              	@ 0 "" 2
 237              		.loc 1 149 16 view .LVU67
 238              		.loc 1 150 1 is_stmt 0 view .LVU68
 239              		.arm
 240              		.syntax unified
 241 0010 1080BDE8 		pop	{r4, pc}
 242              		.cfi_endproc
 243              	.LFE11:
 244              		.size	spiSelect, .-spiSelect
 245              		.section	.text.spiUnselect,"ax",%progbits
 246              		.align	2
 247              		.global	spiUnselect
 248              		.syntax unified
 249              		.arm
 250              		.fpu softvfp
 251              		.type	spiUnselect, %function
 252              	spiUnselect:
 253              	.LVL11:
 254              	.LFB12:
 255              		.loc 1 160 35 is_stmt 1 view -0
 256              		.cfi_startproc
 257              		@ args = 0, pretend = 0, frame = 0
 258              		@ frame_needed = 0, uses_anonymous_args = 0
 259              		.loc 1 162 3 view .LVU70
 260              		.loc 1 162 42 view .LVU71
 261              		.loc 1 164 3 view .LVU72
 262              		.loc 1 160 35 is_stmt 0 view .LVU73
 263 0000 10402DE9 		push	{r4, lr}
 264              		.cfi_def_cfa_offset 8
 265              		.cfi_offset 4, -8
 266              		.cfi_offset 14, -4
 267              		.loc 1 164 3 view .LVU74
 268              		.syntax divided
 269              	@ 164 "../../os/hal/src/spi.c" 1
 270 0004 9FF021E3 		msr     CPSR_c, #0x9F
 271              	@ 0 "" 2
 272              		.loc 1 164 3 is_stmt 1 view .LVU75
 273              		.loc 1 164 14 view .LVU76
 274              		.loc 1 165 3 view .LVU77
 275              		.loc 1 165 74 view .LVU78
 276              		.loc 1 166 3 view .LVU79
 277              		.arm
 278              		.syntax unified
 279 0008 FEFFFFEB 		bl	spi_lld_unselect
 280              	.LVL12:
 281              		.loc 1 166 21 view .LVU80
 282              		.loc 1 167 3 view .LVU81
 283              		.loc 1 167 3 view .LVU82
 284              		.syntax divided
 285              	@ 167 "../../os/hal/src/spi.c" 1
ARM GAS  /tmp/ccTJfFF2.s 			page 6


 286 000c 1FF021E3 		msr     CPSR_c, #0x1F
 287              	@ 0 "" 2
 288              		.loc 1 167 16 view .LVU83
 289              		.loc 1 168 1 is_stmt 0 view .LVU84
 290              		.arm
 291              		.syntax unified
 292 0010 1080BDE8 		pop	{r4, pc}
 293              		.cfi_endproc
 294              	.LFE12:
 295              		.size	spiUnselect, .-spiUnselect
 296              		.section	.text.spiStartIgnore,"ax",%progbits
 297              		.align	2
 298              		.global	spiStartIgnore
 299              		.syntax unified
 300              		.arm
 301              		.fpu softvfp
 302              		.type	spiStartIgnore, %function
 303              	spiStartIgnore:
 304              	.LVL13:
 305              	.LFB13:
 306              		.loc 1 183 48 is_stmt 1 view -0
 307              		.cfi_startproc
 308              		@ args = 0, pretend = 0, frame = 0
 309              		@ frame_needed = 0, uses_anonymous_args = 0
 310              		.loc 1 185 3 view .LVU86
 311              		.loc 1 185 58 view .LVU87
 312              		.loc 1 187 3 view .LVU88
 313              		.loc 1 183 48 is_stmt 0 view .LVU89
 314 0000 10402DE9 		push	{r4, lr}
 315              		.cfi_def_cfa_offset 8
 316              		.cfi_offset 4, -8
 317              		.cfi_offset 14, -4
 318              		.loc 1 187 3 view .LVU90
 319              		.syntax divided
 320              	@ 187 "../../os/hal/src/spi.c" 1
 321 0004 9FF021E3 		msr     CPSR_c, #0x9F
 322              	@ 0 "" 2
 323              		.loc 1 187 3 is_stmt 1 view .LVU91
 324              		.loc 1 187 14 view .LVU92
 325              		.loc 1 188 3 view .LVU93
 326              		.loc 1 188 77 view .LVU94
 327              		.loc 1 189 3 view .LVU95
 328              		.arm
 329              		.syntax unified
 330 0008 0320A0E3 		mov	r2, #3
 331 000c 0020C0E5 		strb	r2, [r0]
 332              		.loc 1 189 3 view .LVU96
 333 0010 FEFFFFEB 		bl	spi_lld_ignore
 334              	.LVL14:
 335              		.loc 1 189 27 view .LVU97
 336              		.loc 1 190 3 view .LVU98
 337              		.loc 1 190 3 view .LVU99
 338              		.syntax divided
 339              	@ 190 "../../os/hal/src/spi.c" 1
 340 0014 1FF021E3 		msr     CPSR_c, #0x1F
 341              	@ 0 "" 2
 342              		.loc 1 190 16 view .LVU100
ARM GAS  /tmp/ccTJfFF2.s 			page 7


 343              		.loc 1 191 1 is_stmt 0 view .LVU101
 344              		.arm
 345              		.syntax unified
 346 0018 1080BDE8 		pop	{r4, pc}
 347              		.cfi_endproc
 348              	.LFE13:
 349              		.size	spiStartIgnore, .-spiStartIgnore
 350              		.section	.text.spiStartExchange,"ax",%progbits
 351              		.align	2
 352              		.global	spiStartExchange
 353              		.syntax unified
 354              		.arm
 355              		.fpu softvfp
 356              		.type	spiStartExchange, %function
 357              	spiStartExchange:
 358              	.LVL15:
 359              	.LFB14:
 360              		.loc 1 211 55 is_stmt 1 view -0
 361              		.cfi_startproc
 362              		@ args = 0, pretend = 0, frame = 0
 363              		@ frame_needed = 0, uses_anonymous_args = 0
 364              		.loc 1 213 3 view .LVU103
 365              		.loc 1 214 33 view .LVU104
 366              		.loc 1 216 3 view .LVU105
 367              		.loc 1 211 55 is_stmt 0 view .LVU106
 368 0000 10402DE9 		push	{r4, lr}
 369              		.cfi_def_cfa_offset 8
 370              		.cfi_offset 4, -8
 371              		.cfi_offset 14, -4
 372              		.loc 1 216 3 view .LVU107
 373              		.syntax divided
 374              	@ 216 "../../os/hal/src/spi.c" 1
 375 0004 9FF021E3 		msr     CPSR_c, #0x9F
 376              	@ 0 "" 2
 377              		.loc 1 216 3 is_stmt 1 view .LVU108
 378              		.loc 1 216 14 view .LVU109
 379              		.loc 1 217 3 view .LVU110
 380              		.loc 1 217 79 view .LVU111
 381              		.loc 1 218 3 view .LVU112
 382              		.arm
 383              		.syntax unified
 384 0008 03E0A0E3 		mov	lr, #3
 385 000c 00E0C0E5 		strb	lr, [r0]
 386              		.loc 1 218 3 view .LVU113
 387 0010 FEFFFFEB 		bl	spi_lld_exchange
 388              	.LVL16:
 389              		.loc 1 218 43 view .LVU114
 390              		.loc 1 219 3 view .LVU115
 391              		.loc 1 219 3 view .LVU116
 392              		.syntax divided
 393              	@ 219 "../../os/hal/src/spi.c" 1
 394 0014 1FF021E3 		msr     CPSR_c, #0x1F
 395              	@ 0 "" 2
 396              		.loc 1 219 16 view .LVU117
 397              		.loc 1 220 1 is_stmt 0 view .LVU118
 398              		.arm
 399              		.syntax unified
ARM GAS  /tmp/ccTJfFF2.s 			page 8


 400 0018 1080BDE8 		pop	{r4, pc}
 401              		.cfi_endproc
 402              	.LFE14:
 403              		.size	spiStartExchange, .-spiStartExchange
 404              		.section	.text.spiStartSend,"ax",%progbits
 405              		.align	2
 406              		.global	spiStartSend
 407              		.syntax unified
 408              		.arm
 409              		.fpu softvfp
 410              		.type	spiStartSend, %function
 411              	spiStartSend:
 412              	.LVL17:
 413              	.LFB15:
 414              		.loc 1 237 65 is_stmt 1 view -0
 415              		.cfi_startproc
 416              		@ args = 0, pretend = 0, frame = 0
 417              		@ frame_needed = 0, uses_anonymous_args = 0
 418              		.loc 1 239 3 view .LVU120
 419              		.loc 1 240 29 view .LVU121
 420              		.loc 1 242 3 view .LVU122
 421              		.loc 1 237 65 is_stmt 0 view .LVU123
 422 0000 10402DE9 		push	{r4, lr}
 423              		.cfi_def_cfa_offset 8
 424              		.cfi_offset 4, -8
 425              		.cfi_offset 14, -4
 426              		.loc 1 242 3 view .LVU124
 427              		.syntax divided
 428              	@ 242 "../../os/hal/src/spi.c" 1
 429 0004 9FF021E3 		msr     CPSR_c, #0x9F
 430              	@ 0 "" 2
 431              		.loc 1 242 3 is_stmt 1 view .LVU125
 432              		.loc 1 242 14 view .LVU126
 433              		.loc 1 243 3 view .LVU127
 434              		.loc 1 243 75 view .LVU128
 435              		.loc 1 244 3 view .LVU129
 436              		.arm
 437              		.syntax unified
 438 0008 03C0A0E3 		mov	ip, #3
 439 000c 00C0C0E5 		strb	ip, [r0]
 440              		.loc 1 244 3 view .LVU130
 441 0010 FEFFFFEB 		bl	spi_lld_send
 442              	.LVL18:
 443              		.loc 1 244 32 view .LVU131
 444              		.loc 1 245 3 view .LVU132
 445              		.loc 1 245 3 view .LVU133
 446              		.syntax divided
 447              	@ 245 "../../os/hal/src/spi.c" 1
 448 0014 1FF021E3 		msr     CPSR_c, #0x1F
 449              	@ 0 "" 2
 450              		.loc 1 245 16 view .LVU134
 451              		.loc 1 246 1 is_stmt 0 view .LVU135
 452              		.arm
 453              		.syntax unified
 454 0018 1080BDE8 		pop	{r4, pc}
 455              		.cfi_endproc
 456              	.LFE15:
ARM GAS  /tmp/ccTJfFF2.s 			page 9


 457              		.size	spiStartSend, .-spiStartSend
 458              		.section	.text.spiStartReceive,"ax",%progbits
 459              		.align	2
 460              		.global	spiStartReceive
 461              		.syntax unified
 462              		.arm
 463              		.fpu softvfp
 464              		.type	spiStartReceive, %function
 465              	spiStartReceive:
 466              	.LVL19:
 467              	.LFB16:
 468              		.loc 1 263 62 is_stmt 1 view -0
 469              		.cfi_startproc
 470              		@ args = 0, pretend = 0, frame = 0
 471              		@ frame_needed = 0, uses_anonymous_args = 0
 472              		.loc 1 265 3 view .LVU137
 473              		.loc 1 266 32 view .LVU138
 474              		.loc 1 268 3 view .LVU139
 475              		.loc 1 263 62 is_stmt 0 view .LVU140
 476 0000 10402DE9 		push	{r4, lr}
 477              		.cfi_def_cfa_offset 8
 478              		.cfi_offset 4, -8
 479              		.cfi_offset 14, -4
 480              		.loc 1 268 3 view .LVU141
 481              		.syntax divided
 482              	@ 268 "../../os/hal/src/spi.c" 1
 483 0004 9FF021E3 		msr     CPSR_c, #0x9F
 484              	@ 0 "" 2
 485              		.loc 1 268 3 is_stmt 1 view .LVU142
 486              		.loc 1 268 14 view .LVU143
 487              		.loc 1 269 3 view .LVU144
 488              		.loc 1 269 78 view .LVU145
 489              		.loc 1 270 3 view .LVU146
 490              		.arm
 491              		.syntax unified
 492 0008 03C0A0E3 		mov	ip, #3
 493 000c 00C0C0E5 		strb	ip, [r0]
 494              		.loc 1 270 3 view .LVU147
 495 0010 FEFFFFEB 		bl	spi_lld_receive
 496              	.LVL20:
 497              		.loc 1 270 35 view .LVU148
 498              		.loc 1 271 3 view .LVU149
 499              		.loc 1 271 3 view .LVU150
 500              		.syntax divided
 501              	@ 271 "../../os/hal/src/spi.c" 1
 502 0014 1FF021E3 		msr     CPSR_c, #0x1F
 503              	@ 0 "" 2
 504              		.loc 1 271 16 view .LVU151
 505              		.loc 1 272 1 is_stmt 0 view .LVU152
 506              		.arm
 507              		.syntax unified
 508 0018 1080BDE8 		pop	{r4, pc}
 509              		.cfi_endproc
 510              	.LFE16:
 511              		.size	spiStartReceive, .-spiStartReceive
 512              		.section	.text.spiIgnore,"ax",%progbits
 513              		.align	2
ARM GAS  /tmp/ccTJfFF2.s 			page 10


 514              		.global	spiIgnore
 515              		.syntax unified
 516              		.arm
 517              		.fpu softvfp
 518              		.type	spiIgnore, %function
 519              	spiIgnore:
 520              	.LVL21:
 521              	.LFB17:
 522              		.loc 1 289 43 is_stmt 1 view -0
 523              		.cfi_startproc
 524              		@ args = 0, pretend = 0, frame = 0
 525              		@ frame_needed = 0, uses_anonymous_args = 0
 526              		.loc 1 291 3 view .LVU154
 527              		.loc 1 291 57 view .LVU155
 528              		.loc 1 293 3 view .LVU156
 529              		.loc 1 289 43 is_stmt 0 view .LVU157
 530 0000 10402DE9 		push	{r4, lr}
 531              		.cfi_def_cfa_offset 8
 532              		.cfi_offset 4, -8
 533              		.cfi_offset 14, -4
 534              		.loc 1 289 43 view .LVU158
 535 0004 0040A0E1 		mov	r4, r0
 536              		.loc 1 293 3 view .LVU159
 537              		.syntax divided
 538              	@ 293 "../../os/hal/src/spi.c" 1
 539 0008 9FF021E3 		msr     CPSR_c, #0x9F
 540              	@ 0 "" 2
 541              		.loc 1 293 3 is_stmt 1 view .LVU160
 542              		.loc 1 293 14 view .LVU161
 543              		.loc 1 294 3 view .LVU162
 544              		.loc 1 294 72 view .LVU163
 545              		.loc 1 295 3 view .LVU164
 546              		.loc 1 295 79 view .LVU165
 547              		.loc 1 296 3 view .LVU166
 548              		.arm
 549              		.syntax unified
 550 000c 0330A0E3 		mov	r3, #3
 551 0010 0030C0E5 		strb	r3, [r0]
 552              		.loc 1 296 3 view .LVU167
 553 0014 FEFFFFEB 		bl	spi_lld_ignore
 554              	.LVL22:
 555              		.loc 1 296 27 view .LVU168
 556              		.loc 1 297 3 view .LVU169
 557              		.loc 1 297 3 view .LVU170
 558              		.loc 1 297 3 view .LVU171
 559 0018 14309FE5 		ldr	r3, .L22
 560 001c 0200A0E3 		mov	r0, #2
 561 0020 183093E5 		ldr	r3, [r3, #24]
 562 0024 083084E5 		str	r3, [r4, #8]
 563              		.loc 1 297 3 view .LVU172
 564 0028 FEFFFFEB 		bl	chSchGoSleepS
 565              	.LVL23:
 566              		.loc 1 297 20 view .LVU173
 567              		.loc 1 298 3 view .LVU174
 568              		.loc 1 298 3 view .LVU175
 569              		.syntax divided
 570              	@ 298 "../../os/hal/src/spi.c" 1
ARM GAS  /tmp/ccTJfFF2.s 			page 11


 571 002c 1FF021E3 		msr     CPSR_c, #0x1F
 572              	@ 0 "" 2
 573              		.loc 1 298 16 view .LVU176
 574              		.loc 1 299 1 is_stmt 0 view .LVU177
 575              		.arm
 576              		.syntax unified
 577 0030 1080BDE8 		pop	{r4, pc}
 578              	.L23:
 579              		.align	2
 580              	.L22:
 581 0034 00000000 		.word	rlist
 582              		.cfi_endproc
 583              	.LFE17:
 584              		.size	spiIgnore, .-spiIgnore
 585              		.section	.text.spiExchange,"ax",%progbits
 586              		.align	2
 587              		.global	spiExchange
 588              		.syntax unified
 589              		.arm
 590              		.fpu softvfp
 591              		.type	spiExchange, %function
 592              	spiExchange:
 593              	.LVL24:
 594              	.LFB18:
 595              		.loc 1 320 54 is_stmt 1 view -0
 596              		.cfi_startproc
 597              		@ args = 0, pretend = 0, frame = 0
 598              		@ frame_needed = 0, uses_anonymous_args = 0
 599              		.loc 1 322 3 view .LVU179
 600              		.loc 1 323 28 view .LVU180
 601              		.loc 1 325 3 view .LVU181
 602              		.loc 1 320 54 is_stmt 0 view .LVU182
 603 0000 10402DE9 		push	{r4, lr}
 604              		.cfi_def_cfa_offset 8
 605              		.cfi_offset 4, -8
 606              		.cfi_offset 14, -4
 607              		.loc 1 320 54 view .LVU183
 608 0004 0040A0E1 		mov	r4, r0
 609              		.loc 1 325 3 view .LVU184
 610              		.syntax divided
 611              	@ 325 "../../os/hal/src/spi.c" 1
 612 0008 9FF021E3 		msr     CPSR_c, #0x9F
 613              	@ 0 "" 2
 614              		.loc 1 325 3 is_stmt 1 view .LVU185
 615              		.loc 1 325 14 view .LVU186
 616              		.loc 1 326 3 view .LVU187
 617              		.loc 1 326 74 view .LVU188
 618              		.loc 1 327 3 view .LVU189
 619              		.loc 1 328 51 view .LVU190
 620              		.loc 1 329 3 view .LVU191
 621              		.arm
 622              		.syntax unified
 623 000c 03C0A0E3 		mov	ip, #3
 624 0010 00C0C0E5 		strb	ip, [r0]
 625              		.loc 1 329 3 view .LVU192
 626 0014 FEFFFFEB 		bl	spi_lld_exchange
 627              	.LVL25:
ARM GAS  /tmp/ccTJfFF2.s 			page 12


 628              		.loc 1 329 43 view .LVU193
 629              		.loc 1 330 3 view .LVU194
 630              		.loc 1 330 3 view .LVU195
 631              		.loc 1 330 3 view .LVU196
 632 0018 14309FE5 		ldr	r3, .L26
 633 001c 0200A0E3 		mov	r0, #2
 634 0020 183093E5 		ldr	r3, [r3, #24]
 635 0024 083084E5 		str	r3, [r4, #8]
 636              		.loc 1 330 3 view .LVU197
 637 0028 FEFFFFEB 		bl	chSchGoSleepS
 638              	.LVL26:
 639              		.loc 1 330 20 view .LVU198
 640              		.loc 1 331 3 view .LVU199
 641              		.loc 1 331 3 view .LVU200
 642              		.syntax divided
 643              	@ 331 "../../os/hal/src/spi.c" 1
 644 002c 1FF021E3 		msr     CPSR_c, #0x1F
 645              	@ 0 "" 2
 646              		.loc 1 331 16 view .LVU201
 647              		.loc 1 332 1 is_stmt 0 view .LVU202
 648              		.arm
 649              		.syntax unified
 650 0030 1080BDE8 		pop	{r4, pc}
 651              	.L27:
 652              		.align	2
 653              	.L26:
 654 0034 00000000 		.word	rlist
 655              		.cfi_endproc
 656              	.LFE18:
 657              		.size	spiExchange, .-spiExchange
 658              		.section	.text.spiSend,"ax",%progbits
 659              		.align	2
 660              		.global	spiSend
 661              		.syntax unified
 662              		.arm
 663              		.fpu softvfp
 664              		.type	spiSend, %function
 665              	spiSend:
 666              	.LVL27:
 667              	.LFB19:
 668              		.loc 1 350 60 is_stmt 1 view -0
 669              		.cfi_startproc
 670              		@ args = 0, pretend = 0, frame = 0
 671              		@ frame_needed = 0, uses_anonymous_args = 0
 672              		.loc 1 352 3 view .LVU204
 673              		.loc 1 352 70 view .LVU205
 674              		.loc 1 354 3 view .LVU206
 675              		.loc 1 350 60 is_stmt 0 view .LVU207
 676 0000 10402DE9 		push	{r4, lr}
 677              		.cfi_def_cfa_offset 8
 678              		.cfi_offset 4, -8
 679              		.cfi_offset 14, -4
 680              		.loc 1 350 60 view .LVU208
 681 0004 0040A0E1 		mov	r4, r0
 682              		.loc 1 354 3 view .LVU209
 683              		.syntax divided
 684              	@ 354 "../../os/hal/src/spi.c" 1
ARM GAS  /tmp/ccTJfFF2.s 			page 13


 685 0008 9FF021E3 		msr     CPSR_c, #0x9F
 686              	@ 0 "" 2
 687              		.loc 1 354 3 is_stmt 1 view .LVU210
 688              		.loc 1 354 14 view .LVU211
 689              		.loc 1 355 3 view .LVU212
 690              		.loc 1 355 70 view .LVU213
 691              		.loc 1 356 3 view .LVU214
 692              		.loc 1 356 77 view .LVU215
 693              		.loc 1 357 3 view .LVU216
 694              		.arm
 695              		.syntax unified
 696 000c 0330A0E3 		mov	r3, #3
 697 0010 0030C0E5 		strb	r3, [r0]
 698              		.loc 1 357 3 view .LVU217
 699 0014 FEFFFFEB 		bl	spi_lld_send
 700              	.LVL28:
 701              		.loc 1 357 32 view .LVU218
 702              		.loc 1 358 3 view .LVU219
 703              		.loc 1 358 3 view .LVU220
 704              		.loc 1 358 3 view .LVU221
 705 0018 14309FE5 		ldr	r3, .L30
 706 001c 0200A0E3 		mov	r0, #2
 707 0020 183093E5 		ldr	r3, [r3, #24]
 708 0024 083084E5 		str	r3, [r4, #8]
 709              		.loc 1 358 3 view .LVU222
 710 0028 FEFFFFEB 		bl	chSchGoSleepS
 711              	.LVL29:
 712              		.loc 1 358 20 view .LVU223
 713              		.loc 1 359 3 view .LVU224
 714              		.loc 1 359 3 view .LVU225
 715              		.syntax divided
 716              	@ 359 "../../os/hal/src/spi.c" 1
 717 002c 1FF021E3 		msr     CPSR_c, #0x1F
 718              	@ 0 "" 2
 719              		.loc 1 359 16 view .LVU226
 720              		.loc 1 360 1 is_stmt 0 view .LVU227
 721              		.arm
 722              		.syntax unified
 723 0030 1080BDE8 		pop	{r4, pc}
 724              	.L31:
 725              		.align	2
 726              	.L30:
 727 0034 00000000 		.word	rlist
 728              		.cfi_endproc
 729              	.LFE19:
 730              		.size	spiSend, .-spiSend
 731              		.section	.text.spiReceive,"ax",%progbits
 732              		.align	2
 733              		.global	spiReceive
 734              		.syntax unified
 735              		.arm
 736              		.fpu softvfp
 737              		.type	spiReceive, %function
 738              	spiReceive:
 739              	.LVL30:
 740              	.LFB20:
 741              		.loc 1 378 57 is_stmt 1 view -0
ARM GAS  /tmp/ccTJfFF2.s 			page 14


 742              		.cfi_startproc
 743              		@ args = 0, pretend = 0, frame = 0
 744              		@ frame_needed = 0, uses_anonymous_args = 0
 745              		.loc 1 380 3 view .LVU229
 746              		.loc 1 381 27 view .LVU230
 747              		.loc 1 383 3 view .LVU231
 748              		.loc 1 378 57 is_stmt 0 view .LVU232
 749 0000 10402DE9 		push	{r4, lr}
 750              		.cfi_def_cfa_offset 8
 751              		.cfi_offset 4, -8
 752              		.cfi_offset 14, -4
 753              		.loc 1 378 57 view .LVU233
 754 0004 0040A0E1 		mov	r4, r0
 755              		.loc 1 383 3 view .LVU234
 756              		.syntax divided
 757              	@ 383 "../../os/hal/src/spi.c" 1
 758 0008 9FF021E3 		msr     CPSR_c, #0x9F
 759              	@ 0 "" 2
 760              		.loc 1 383 3 is_stmt 1 view .LVU235
 761              		.loc 1 383 14 view .LVU236
 762              		.loc 1 384 3 view .LVU237
 763              		.loc 1 384 73 view .LVU238
 764              		.loc 1 385 3 view .LVU239
 765              		.loc 1 386 50 view .LVU240
 766              		.loc 1 387 3 view .LVU241
 767              		.arm
 768              		.syntax unified
 769 000c 0330A0E3 		mov	r3, #3
 770 0010 0030C0E5 		strb	r3, [r0]
 771              		.loc 1 387 3 view .LVU242
 772 0014 FEFFFFEB 		bl	spi_lld_receive
 773              	.LVL31:
 774              		.loc 1 387 35 view .LVU243
 775              		.loc 1 388 3 view .LVU244
 776              		.loc 1 388 3 view .LVU245
 777              		.loc 1 388 3 view .LVU246
 778 0018 14309FE5 		ldr	r3, .L34
 779 001c 0200A0E3 		mov	r0, #2
 780 0020 183093E5 		ldr	r3, [r3, #24]
 781 0024 083084E5 		str	r3, [r4, #8]
 782              		.loc 1 388 3 view .LVU247
 783 0028 FEFFFFEB 		bl	chSchGoSleepS
 784              	.LVL32:
 785              		.loc 1 388 20 view .LVU248
 786              		.loc 1 389 3 view .LVU249
 787              		.loc 1 389 3 view .LVU250
 788              		.syntax divided
 789              	@ 389 "../../os/hal/src/spi.c" 1
 790 002c 1FF021E3 		msr     CPSR_c, #0x1F
 791              	@ 0 "" 2
 792              		.loc 1 389 16 view .LVU251
 793              		.loc 1 390 1 is_stmt 0 view .LVU252
 794              		.arm
 795              		.syntax unified
 796 0030 1080BDE8 		pop	{r4, pc}
 797              	.L35:
 798              		.align	2
ARM GAS  /tmp/ccTJfFF2.s 			page 15


 799              	.L34:
 800 0034 00000000 		.word	rlist
 801              		.cfi_endproc
 802              	.LFE20:
 803              		.size	spiReceive, .-spiReceive
 804              		.section	.text.spiAcquireBus,"ax",%progbits
 805              		.align	2
 806              		.global	spiAcquireBus
 807              		.syntax unified
 808              		.arm
 809              		.fpu softvfp
 810              		.type	spiAcquireBus, %function
 811              	spiAcquireBus:
 812              	.LVL33:
 813              	.LFB21:
 814              		.loc 1 405 37 is_stmt 1 view -0
 815              		.cfi_startproc
 816              		@ args = 0, pretend = 0, frame = 0
 817              		@ frame_needed = 0, uses_anonymous_args = 0
 818              		@ link register save eliminated.
 819              		.loc 1 407 3 view .LVU254
 820              		.loc 1 407 44 view .LVU255
 821              		.loc 1 410 3 view .LVU256
 822 0000 0C0080E2 		add	r0, r0, #12
 823              	.LVL34:
 824              		.loc 1 410 3 is_stmt 0 view .LVU257
 825 0004 FEFFFFEA 		b	chMtxLock
 826              	.LVL35:
 827              		.loc 1 410 3 view .LVU258
 828              		.cfi_endproc
 829              	.LFE21:
 830              		.size	spiAcquireBus, .-spiAcquireBus
 831              		.section	.text.spiReleaseBus,"ax",%progbits
 832              		.align	2
 833              		.global	spiReleaseBus
 834              		.syntax unified
 835              		.arm
 836              		.fpu softvfp
 837              		.type	spiReleaseBus, %function
 838              	spiReleaseBus:
 839              	.LVL36:
 840              	.LFB22:
 841              		.loc 1 425 37 is_stmt 1 view -0
 842              		.cfi_startproc
 843              		@ args = 0, pretend = 0, frame = 0
 844              		@ frame_needed = 0, uses_anonymous_args = 0
 845              		@ link register save eliminated.
 846              		.loc 1 427 3 view .LVU260
 847              		.loc 1 427 44 view .LVU261
 848              		.loc 1 430 3 view .LVU262
 849              		.loc 1 431 3 view .LVU263
 850 0000 FEFFFFEA 		b	chMtxUnlock
 851              	.LVL37:
 852              		.loc 1 431 3 is_stmt 0 view .LVU264
 853              		.cfi_endproc
 854              	.LFE22:
 855              		.size	spiReleaseBus, .-spiReleaseBus
ARM GAS  /tmp/ccTJfFF2.s 			page 16


 856              		.text
 857              	.Letext0:
 858              		.file 2 "/usr/lib/gcc/arm-none-eabi/11.2.0/include/stddef.h"
 859              		.file 3 "/usr/arm-none-eabi/include/machine/_default_types.h"
 860              		.file 4 "/usr/arm-none-eabi/include/sys/_stdint.h"
 861              		.file 5 "../../os/ports/GCC/ARM/chtypes.h"
 862              		.file 6 "../../os/kernel/include/chlists.h"
 863              		.file 7 "../../os/kernel/include/chthreads.h"
 864              		.file 8 "../../os/ports/GCC/ARM/chcore.h"
 865              		.file 9 "../../os/kernel/include/chschd.h"
 866              		.file 10 "../../os/kernel/include/chmtx.h"
 867              		.file 11 "../../os/hal/include/spi.h"
 868              		.file 12 "../../os/hal/platforms/BCM2835/spi_lld.h"