ARM GAS  /tmp/ccTJfFF2.s 			page 1


   1              		.cpu arm1176jz-s
   2              		.eabi_attribute 20, 1
   3              		.eabi_attribute 21, 1
   4              		.eabi_attribute 23, 3
   5              		.eabi_attribute 24, 1
   6              		.eabi_attribute 25, 1
   7              		.eabi_attribute 26, 1
   8              		.eabi_attribute 30, 2
   9              		.eabi_attribute 34, 1
  10              		.eabi_attribute 18, 4
  11              		.file	"spi.c"
  12              		.text
  13              	.Ltext0:
  14              		.cfi_sections	.debug_frame
  15              		.section	.text.spiInit,"ax",%progbits
  16              		.align	2
  17              		.global	spiInit
  18              		.arch armv6kz
  19              		.syntax unified
  20              		.arm
  21              		.fpu softvfp
  22              		.type	spiInit, %function
  23              	spiInit:
  24              	.LFB7:
  25              		.file 1 "../../os/hal/src/spi.c"
  26              		.loc 1 61 20 view -0
  27              		.cfi_startproc
  28              		@ args = 0, pretend = 0, frame = 0
  29              		@ frame_needed = 0, uses_anonymous_args = 0
  30              		@ link register save eliminated.
  31              		.loc 1 63 3 view .LVU1
  32 0000 FEFFFFEA 		b	spi_lld_init
  33              	.LVL0:
  34              		.cfi_endproc
  35              	.LFE7:
  36              		.size	spiInit, .-spiInit
  37              		.section	.text.spiObjectInit,"ax",%progbits
  38              		.align	2
  39              		.global	spiObjectInit
  40              		.syntax unified
  41              		.arm
  42              		.fpu softvfp
  43              		.type	spiObjectInit, %function
  44              	spiObjectInit:
  45              	.LVL1:
  46              	.LFB8:
  47              		.loc 1 73 37 view -0
  48              		.cfi_startproc
  49              		@ args = 0, pretend = 0, frame = 0
  50              		@ frame_needed = 0, uses_anonymous_args = 0
  51              		@ link register save eliminated.
  52              		.loc 1 75 3 view .LVU3
  53              		.loc 1 76 16 is_stmt 0 view .LVU4
  54 0000 0030A0E3 		mov	r3, #0
  55              		.loc 1 75 15 view .LVU5
  56 0004 0120A0E3 		mov	r2, #1
  57              		.loc 1 76 16 view .LVU6
ARM GAS  /tmp/ccTJfFF2.s 			page 2


  58 0008 043080E5 		str	r3, [r0, #4]
  59              		.loc 1 75 15 view .LVU7
  60 000c 0020C0E5 		strb	r2, [r0]
  61              		.loc 1 76 3 is_stmt 1 view .LVU8
  62              		.loc 1 78 3 view .LVU9
  63              		.loc 1 78 16 is_stmt 0 view .LVU10
  64 0010 083080E5 		str	r3, [r0, #8]
  65              		.loc 1 82 3 is_stmt 1 view .LVU11
  66 0014 0C0080E2 		add	r0, r0, #12
  67              	.LVL2:
  68              		.loc 1 82 3 is_stmt 0 view .LVU12
  69 0018 FEFFFFEA 		b	chMtxInit
  70              	.LVL3:
  71              		.loc 1 82 3 view .LVU13
  72              		.cfi_endproc
  73              	.LFE8:
  74              		.size	spiObjectInit, .-spiObjectInit
  75              		.section	.text.spiStart,"ax",%progbits
  76              		.align	2
  77              		.global	spiStart
  78              		.syntax unified
  79              		.arm
  80              		.fpu softvfp
  81              		.type	spiStart, %function
  82              	spiStart:
  83              	.LVL4:
  84              	.LFB9:
  85              		.loc 1 100 57 is_stmt 1 view -0
  86              		.cfi_startproc
  87              		@ args = 0, pretend = 0, frame = 0
  88              		@ frame_needed = 0, uses_anonymous_args = 0
  89              		.loc 1 102 3 view .LVU15
  90              		.loc 1 102 61 view .LVU16
  91              		.loc 1 104 3 view .LVU17
  92              		.loc 1 100 57 is_stmt 0 view .LVU18
  93 0000 10402DE9 		push	{r4, lr}
  94              		.cfi_def_cfa_offset 8
  95              		.cfi_offset 4, -8
  96              		.cfi_offset 14, -4
  97              		.loc 1 100 57 view .LVU19
  98 0004 0040A0E1 		mov	r4, r0
  99              		.loc 1 104 3 view .LVU20
 100              		.syntax divided
 101              	@ 104 "../../os/hal/src/spi.c" 1
 102 0008 9FF021E3 		msr     CPSR_c, #0x9F
 103              	@ 0 "" 2
 104              		.loc 1 104 3 is_stmt 1 view .LVU21
 105              		.loc 1 104 14 view .LVU22
 106              		.loc 1 105 3 view .LVU23
 107              		.loc 1 106 49 view .LVU24
 108              		.loc 1 107 3 view .LVU25
 109              		.loc 1 107 16 is_stmt 0 view .LVU26
 110              		.arm
 111              		.syntax unified
 112 000c 041080E5 		str	r1, [r0, #4]
 113              		.loc 1 108 3 is_stmt 1 view .LVU27
 114 0010 FEFFFFEB 		bl	spi_lld_start
ARM GAS  /tmp/ccTJfFF2.s 			page 3


 115              	.LVL5:
 116              		.loc 1 109 3 view .LVU28
 117              		.loc 1 109 15 is_stmt 0 view .LVU29
 118 0014 0230A0E3 		mov	r3, #2
 119 0018 0030C4E5 		strb	r3, [r4]
 120              		.loc 1 110 3 is_stmt 1 view .LVU30
 121              		.loc 1 110 3 view .LVU31
 122              		.syntax divided
 123              	@ 110 "../../os/hal/src/spi.c" 1
 124 001c 1FF021E3 		msr     CPSR_c, #0x1F
 125              	@ 0 "" 2
 126              		.loc 1 110 16 view .LVU32
 127              		.loc 1 111 1 is_stmt 0 view .LVU33
 128              		.arm
 129              		.syntax unified
 130 0020 1080BDE8 		pop	{r4, pc}
 131              		.cfi_endproc
 132              	.LFE9:
 133              		.size	spiStart, .-spiStart
 134              		.section	.text.spiStop,"ax",%progbits
 135              		.align	2
 136              		.global	spiStop
 137              		.syntax unified
 138              		.arm
 139              		.fpu softvfp
 140              		.type	spiStop, %function
 141              	spiStop:
 142              	.LVL6:
 143              	.LFB10:
 144              		.loc 1 122 31 is_stmt 1 view -0
 145              		.cfi_startproc
 146              		@ args = 0, pretend = 0, frame = 0
 147              		@ frame_needed = 0, uses_anonymous_args = 0
 148              		.loc 1 124 3 view .LVU35
 149              		.loc 1 124 38 view .LVU36
 150              		.loc 1 126 3 view .LVU37
 151              		.loc 1 122 31 is_stmt 0 view .LVU38
 152 0000 10402DE9 		push	{r4, lr}
 153              		.cfi_def_cfa_offset 8
 154              		.cfi_offset 4, -8
 155              		.cfi_offset 14, -4
 156              		.loc 1 122 31 view .LVU39
 157 0004 0040A0E1 		mov	r4, r0
 158              		.loc 1 126 3 view .LVU40
 159              		.syntax divided
 160              	@ 126 "../../os/hal/src/spi.c" 1
 161 0008 9FF021E3 		msr     CPSR_c, #0x9F
 162              	@ 0 "" 2
 163              		.loc 1 126 3 is_stmt 1 view .LVU41
 164              		.loc 1 126 14 view .LVU42
 165              		.loc 1 127 3 view .LVU43
 166              		.loc 1 128 48 view .LVU44
 167              		.loc 1 129 3 view .LVU45
 168              		.arm
 169              		.syntax unified
 170 000c FEFFFFEB 		bl	spi_lld_unselect
 171              	.LVL7:
ARM GAS  /tmp/ccTJfFF2.s 			page 4


 172              		.loc 1 130 3 view .LVU46
 173 0010 0400A0E1 		mov	r0, r4
 174 0014 FEFFFFEB 		bl	spi_lld_stop
 175              	.LVL8:
 176              		.loc 1 131 3 view .LVU47
 177              		.loc 1 131 15 is_stmt 0 view .LVU48
 178 0018 0130A0E3 		mov	r3, #1
 179 001c 0030C4E5 		strb	r3, [r4]
 180              		.loc 1 132 3 is_stmt 1 view .LVU49
 181              		.loc 1 132 3 view .LVU50
 182              		.syntax divided
 183              	@ 132 "../../os/hal/src/spi.c" 1
 184 0020 1FF021E3 		msr     CPSR_c, #0x1F
 185              	@ 0 "" 2
 186              		.loc 1 132 16 view .LVU51
 187              		.loc 1 133 1 is_stmt 0 view .LVU52
 188              		.arm
 189              		.syntax unified
 190 0024 1080BDE8 		pop	{r4, pc}
 191              		.cfi_endproc
 192              	.LFE10:
 193              		.size	spiStop, .-spiStop
 194              		.section	.text.spiSelect,"ax",%progbits
 195              		.align	2
 196              		.global	spiSelect
 197              		.syntax unified
 198              		.arm
 199              		.fpu softvfp
 200              		.type	spiSelect, %function
 201              	spiSelect:
 202              	.LVL9:
 203              	.LFB11:
 204              		.loc 1 142 33 is_stmt 1 view -0
 205              		.cfi_startproc
 206              		@ args = 0, pretend = 0, frame = 0
 207              		@ frame_needed = 0, uses_anonymous_args = 0
 208              		.loc 1 144 3 view .LVU54
 209              		.loc 1 144 40 view .LVU55
 210              		.loc 1 146 3 view .LVU56
 211              		.loc 1 142 33 is_stmt 0 view .LVU57
 212 0000 10402DE9 		push	{r4, lr}
 213              		.cfi_def_cfa_offset 8
 214              		.cfi_offset 4, -8
 215              		.cfi_offset 14, -4
 216              		.loc 1 146 3 view .LVU58
 217              		.syntax divided
 218              	@ 146 "../../os/hal/src/spi.c" 1
 219 0004 9FF021E3 		msr     CPSR_c, #0x9F
 220              	@ 0 "" 2
 221              		.loc 1 146 3 is_stmt 1 view .LVU59
 222              		.loc 1 146 14 view .LVU60
 223              		.loc 1 147 3 view .LVU61
 224              		.loc 1 147 72 view .LVU62
 225              		.loc 1 148 3 view .LVU63
 226              		.arm
 227              		.syntax unified
 228 0008 FEFFFFEB 		bl	spi_lld_select
ARM GAS  /tmp/ccTJfFF2.s 			page 5


 229              	.LVL10:
 230              		.loc 1 148 19 view .LVU64
 231              		.loc 1 149 3 view .LVU65
 232              		.loc 1 149 3 view .LVU66
 233              		.syntax divided
 234              	@ 149 "../../os/hal/src/spi.c" 1
 235 000c 1FF021E3 		msr     CPSR_c, #0x1F
 236              	@ 0 "" 2
 237              		.loc 1 149 16 view .LVU67
 238              		.loc 1 150 1 is_stmt 0 view .LVU68
 239              		.arm
 240              		.syntax unified
 241 0010 1080BDE8 		pop	{r4, pc}
 242              		.cfi_endproc
 243              	.LFE11:
 244              		.size	spiSelect, .-spiSelect
 245              		.section	.text.spiUnselect,"ax",%progbits
 246              		.align	2
 247              		.global	spiUnselect
 248              		.syntax unified
 249              		.arm
 250              		.fpu softvfp
 251              		.type	spiUnselect, %function
 252              	spiUnselect:
 253              	.LVL11:
 254              	.LFB12:
 255              		.loc 1 160 35 is_stmt 1 view -0
 256              		.cfi_startproc
 257              		@ args = 0, pretend = 0, frame = 0
 258              		@ frame_needed = 0, uses_anonymous_args = 0
 259              		.loc 1 162 3 view .LVU70
 260              		.loc 1 162 42 view .LVU71
 261              		.loc 1 164 3 view .LVU72
 262              		.loc 1 160 35 is_stmt 0 view .LVU73
 263 0000 10402DE9 		push	{r4, lr}
 264              		.cfi_def_cfa_offset 8
 265              		.cfi_offset 4, -8
 266              		.cfi_offset 14, -4
 267              		.loc 1 164 3 view .LVU74
 268              		.syntax divided
 269              	@ 164 "../../os/hal/src/spi.c" 1
 270 0004 9FF021E3 		msr     CPSR_c, #0x9F
 271              	@ 0 "" 2
 272              		.loc 1 164 3 is_stmt 1 view .LVU75
 273              		.loc 1 164 14 view .LVU76
 274              		.loc 1 165 3 view .LVU77
 275              		.loc 1 165 74 view .LVU78
 276              		.loc 1 166 3 view .LVU79
 277              		.arm
 278              		.syntax unified
 279 0008 FEFFFFEB 		bl	spi_lld_unselect
 280              	.LVL12:
 281              		.loc 1 166 21 view .LVU80
 282              		.loc 1 167 3 view .LVU81
 283              		.loc 1 167 3 view .LVU82
 284              		.syntax divided
 285              	@ 167 "../../os/hal/src/spi.c" 1
ARM GAS  /tmp/ccTJfFF2.s 			page 6


 286 000c 1FF021E3 		msr     CPSR_c, #0x1F
 287              	@ 0 "" 2
 288              		.loc 1 167 16 view .LVU83
 289              		.loc 1 168 1 is_stmt 0 view .LVU84
 290              		.arm
 291              		.syntax unified
 292 0010 1080BDE8 		pop	{r4, pc}
 293              		.cfi_endproc
 294              	.LFE12:
 295              		.size	spiUnselect, .-spiUnselect
 296              		.section	.text.spiStartIgnore,"ax",%progbits
 297              		.align	2
 298              		.global	spiStartIgnore
 299              		.syntax unified
 300              		.arm
 301              		.fpu softvfp
 302              		.type	spiStartIgnore, %function
 303              	spiStartIgnore:
 304              	.LVL13:
 305              	.LFB13:
 306              		.loc 1 183 48 is_stmt 1 view -0
 307              		.cfi_startproc
 308              		@ args = 0, pretend = 0, frame = 0
 309              		@ frame_needed = 0, uses_anonymous_args = 0
 310              		.loc 1 185 3 view .LVU86
 311              		.loc 1 185 58 view .LVU87
 312              		.loc 1 187 3 view .LVU88
 313              		.loc 1 183 48 is_stmt 0 view .LVU89
 314 0000 10402DE9 		push	{r4, lr}
 315              		.cfi_def_cfa_offset 8
 316              		.cfi_offset 4, -8
 317              		.cfi_offset 14, -4
 318              		.loc 1 187 3 view .LVU90
 319              		.syntax divided
 320              	@ 187 "../../os/hal/src/spi.c" 1
 321 0004 9FF021E3 		msr     CPSR_c, #0x9F
 322              	@ 0 "" 2
 323              		.loc 1 187 3 is_stmt 1 view .LVU91
 324              		.loc 1 187 14 view .LVU92
 325              		.loc 1 188 3 view .LVU93
 326              		.loc 1 188 77 view .LVU94
 327              		.loc 1 189 3 view .LVU95
 328              		.arm
 329              		.syntax unified
 330 0008 0320A0E3 		mov	r2, #3
 331 000c 0020C0E5 		strb	r2, [r0]
 332              		.loc 1 189 3 view .LVU96
 333 0010 FEFFFFEB 		bl	spi_lld_ignore
 334              	.LVL14:
 335              		.loc 1 189 27 view .LVU97
 336              		.loc 1 190 3 view .LVU98
 337              		.loc 1 190 3 view .LVU99
 338              		.syntax divided
 339              	@ 190 "../../os/hal/src/spi.c" 1
 340 0014 1FF021E3 		msr     CPSR_c, #0x1F
 341              	@ 0 "" 2
 342              		.loc 1 190 16 view .LVU100
ARM GAS  /tmp/ccTJfFF2.s 			page 7


 343              		.loc 1 191 1 is_stmt 0 view .LVU101
 344              		.arm
 345              		.syntax unified
 346 0018 1080BDE8 		pop	{r4, pc}
 347              		.cfi_endproc
 348              	.LFE13:
 349              		.size	spiStartIgnore, .-spiStartIgnore
 350              		.section	.text.spiStartExchange,"ax",%progbits
 351              		.align	2
 352              		.global	spiStartExchange
 353              		.syntax unified
 354              		.arm
 355              		.fpu softvfp
 356              		.type	spiStartExchange, %function
 357              	spiStartExchange:
 358              	.LVL15:
 359              	.LFB14:
 360              		.loc 1 211 55 is_stmt 1 view -0
 361              		.cfi_startproc
 362              		@ args = 0, pretend = 0, frame = 0
 363              		@ frame_needed = 0, uses_anonymous_args = 0
 364              		.loc 1 213 3 view .LVU103
 365              		.loc 1 214 33 view .LVU104
 366              		.loc 1 216 3 view .LVU105
 367              		.loc 1 211 55 is_stmt 0 view .LVU106
 368 0000 10402DE9 		push	{r4, lr}
 369              		.cfi_def_cfa_offset 8
 370              		.cfi_offset 4, -8
 371              		.cfi_offset 14, -4
 372              		.loc 1 216 3 view .LVU107
 373              		.syntax divided
 374              	@ 216 "../../os/hal/src/spi.c" 1
 375 0004 9FF021E3 		msr     CPSR_c, #0x9F
 376              	@ 0 "" 2
 377              		.loc 1 216 3 is_stmt 1 view .LVU108
 378              		.loc 1 216 14 view .LVU109
 379              		.loc 1 217 3 view .LVU110
 380              		.loc 1 217 79 view .LVU111
 381              		.loc 1 218 3 view .LVU112
 382              		.arm
 383              		.syntax unified
 384 0008 03E0A0E3 		mov	lr, #3
 385 000c 00E0C0E5 		strb	lr, [r0]
 386              		.loc 1 218 3 view .LVU113
 387 0010 FEFFFFEB 		bl	spi_lld_exchange
 388              	.LVL16:
 389              		.loc 1 218 43 view .LVU114
 390              		.loc 1 219 3 view .LVU115
 391              		.loc 1 219 3 view .LVU116
 392              		.syntax divided
 393              	@ 219 "../../os/hal/src/spi.c" 1
 394 0014 1FF021E3 		msr     CPSR_c, #0x1F
 395              	@ 0 "" 2
 396              		.loc 1 219 16 view .LVU117
 397              		.loc 1 220 1 is_stmt 0 view .LVU118
 398              		.arm
 399              		.syntax unified
ARM GAS  /tmp/ccTJfFF2.s 			page 8


 400 0018 1080BDE8 		pop	{r4, pc}
 401              		.cfi_endproc
 402              	.LFE14:
 403              		.size	spiStartExchange, .-spiStartExchange
 404              		.section	.text.spiStartSend,"ax",%progbits
 405              		.align	2
 406              		.global	spiStartSend
 407              		.syntax unified
 408              		.arm
 409              		.fpu softvfp
 410              		.type	spiStartSend, %function
 411              	spiStartSend:
 412              	.LVL17:
 413              	.LFB15:
 414              		.loc 1 237 65 is_stmt 1 view -0
 415              		.cfi_startproc
 416              		@ args = 0, pretend = 0, frame = 0
 417              		@ frame_needed = 0, uses_anonymous_args = 0
 418              		.loc 1 239 3 view .LVU120
 419              		.loc 1 240 29 view .LVU121
 420              		.loc 1 242 3 view .LVU122
 421              		.loc 1 237 65 is_stmt 0 view .LVU123
 422 0000 10402DE9 		push	{r4, lr}
 423              		.cfi_def_cfa_offset 8
 424              		.cfi_offset 4, -8
 425              		.cfi_offset 14, -4
 426              		.loc 1 242 3 view .LVU124
 427              		.syntax divided
 428              	@ 242 "../../os/hal/src/spi.c" 1
 429 0004 9FF021E3 		msr     CPSR_c, #0x9F
 430              	@ 0 "" 2
 431              		.loc 1 242 3 is_stmt 1 view .LVU125
 432              		.loc 1 242 14 view .LVU126
 433              		.loc 1 243 3 view .LVU127
 434              		.loc 1 243 75 view .LVU128
 435              		.loc 1 244 3 view .LVU129
 436              		.arm
 437              		.syntax unified
 438 0008 03C0A0E3 		mov	ip, #3
 439 000c 00C0C0E5 		strb	ip, [r0]
 440              		.loc 1 244 3 view .LVU130
 441 0010 FEFFFFEB 		bl	spi_lld_send
 442              	.LVL18:
 443              		.loc 1 244 32 view .LVU131
 444              		.loc 1 245 3 view .LVU132
 445              		.loc 1 245 3 view .LVU133
 446              		.syntax divided
 447              	@ 245 "../../os/hal/src/spi.c" 1
 448 0014 1FF021E3 		msr     CPSR_c, #0x1F
 449              	@ 0 "" 2
 450              		.loc 1 245 16 view .LVU134
 451              		.loc 1 246 1 is_stmt 0 view .LVU135
 452              		.arm
 453              		.syntax unified
 454 0018 1080BDE8 		pop	{r4, pc}
 455              		.cfi_endproc
 456              	.LFE15:
ARM GAS  /tmp/ccTJfFF2.s 			page 9


 457              		.size	spiStartSend, .-spiStartSend
 458              		.section	.text.spiStartReceive,"ax",%progbits
 459              		.align	2
 460              		.global	spiStartReceive
 461              		.syntax unified
 462              		.arm
 463              		.fpu softvfp
 464              		.type	spiStartReceive, %function
 465              	spiStartReceive:
 466              	.LVL19:
 467              	.LFB16:
 468              		.loc 1 263 62 is_stmt 1 view -0
 469              		.cfi_startproc
 470              		@ args = 0, pretend = 0, frame = 0
 471              		@ frame_needed = 0, uses_anonymous_args = 0
 472              		.loc 1 265 3 view .LVU137
 473              		.loc 1 266 32 view .LVU138
 474              		.loc 1 268 3 view .LVU139
 475              		.loc 1 263 62 is_stmt 0 view .LVU140
 476 0000 10402DE9 		push	{r4, lr}
 477              		.cfi_def_cfa_offset 8
 478              		.cfi_offset 4, -8
 479              		.cfi_offset 14, -4
 480              		.loc 1 268 3 view .LVU141
 481              		.syntax divided
 482              	@ 268 "../../os/hal/src/spi.c" 1
 483 0004 9FF021E3 		msr     CPSR_c, #0x9F
 484              	@ 0 "" 2
 485              		.loc 1 268 3 is_stmt 1 view .LVU142
 486              		.loc 1 268 14 view .LVU143
 487              		.loc 1 269 3 view .LVU144
 488              		.loc 1 269 78 view .LVU145
 489              		.loc 1 270 3 view .LVU146
 490              		.arm
 491              		.syntax unified
 492 0008 03C0A0E3 		mov	ip, #3
 493 000c 00C0C0E5 		strb	ip, [r0]
 494              		.loc 1 270 3 view .LVU147
 495 0010 FEFFFFEB 		bl	spi_lld_receive
 496              	.LVL20:
 497              		.loc 1 270 35 view .LVU148
 498              		.loc 1 271 3 view .LVU149
 499              		.loc 1 271 3 view .LVU150
 500              		.syntax divided
 501              	@ 271 "../../os/hal/src/spi.c" 1
 502 0014 1FF021E3 		msr     CPSR_c, #0x1F
 503              	@ 0 "" 2
 504              		.loc 1 271 16 view .LVU151
 505              		.loc 1 272 1 is_stmt 0 view .LVU152
 506              		.arm
 507              		.syntax unified
 508 0018 1080BDE8 		pop	{r4, pc}
 509              		.cfi_endproc
 510              	.LFE16:
 511              		.size	spiStartReceive, .-spiStartReceive
 512              		.section	.text.spiIgnore,"ax",%progbits
 513              		.align	2
ARM GAS  /tmp/ccTJfFF2.s 			page 10


 514              		.global	spiIgnore
 515              		.syntax unified
 516              		.arm
 517              		.fpu softvfp
 518              		.type	spiIgnore, %function
 519              	spiIgnore:
 520              	.LVL21:
 521              	.LFB17:
 522              		.loc 1 289 43 is_stmt 1 view -0
 523              		.cfi_startproc
 524              		@ args = 0, pretend = 0, frame = 0
 525              		@ frame_needed = 0, uses_anonymous_args = 0
 526              		.loc 1 291 3 view .LVU154
 527              		.loc 1 291 57 view .LVU155
 528              		.loc 1 293 3 view .LVU156
 529              		.loc 1 289 43 is_stmt 0 view .LVU157
 530 0000 10402DE9 		push	{r4, lr}
 531              		.cfi_def_cfa_offset 8
 532              		.cfi_offset 4, -8
 533              		.cfi_offset 14, -4
 534              		.loc 1 289 43 view .LVU158
 535 0004 0040A0E1 		mov	r4, r0
 536              		.loc 1 293 3 view .LVU159
 537              		.syntax divided
 538              	@ 293 "../../os/hal/src/spi.c" 1
 539 0008 9FF021E3 		msr     CPSR_c, #0x9F
 540              	@ 0 "" 2
 541              		.loc 1 293 3 is_stmt 1 view .LVU160
 542              		.loc 1 293 14 view .LVU161
 543              		.loc 1 294 3 view .LVU162
 544              		.loc 1 294 72 view .LVU163
 545              		.loc 1 295 3 view .LVU164
 546              		.loc 1 295 79 view .LVU165
 547              		.loc 1 296 3 view .LVU166
 548              		.arm
 549              		.syntax unified
 550 000c 0330A0E3 		mov	r3, #3
 551 0010 0030C0E5 		strb	r3, [r0]
 552              		.loc 1 296 3 view .LVU167
 553 0014 FEFFFFEB 		bl	spi_lld_ignore
 554              	.LVL22:
 555              		.loc 1 296 27 view .LVU168
 556              		.loc 1 297 3 view .LVU169
 557              		.loc 1 297 3 view .LVU170
 558              		.loc 1 297 3 view .LVU171
 559 0018 14309FE5 		ldr	r3, .L22
 560 001c 0200A0E3 		mov	r0, #2
 561 0020 183093E5 		ldr	r3, [r3, #24]
 562 0024 083084E5 		str	r3, [r4, #8]
 563              		.loc 1 297 3 view .LVU172
 564 0028 FEFFFFEB 		bl	chSchGoSleepS
 565              	.LVL23:
 566              		.loc 1 297 20 view .LVU173
 567              		.loc 1 298 3 view .LVU174
 568              		.loc 1 298 3 view .LVU175
 569              		.syntax divided
 570              	@ 298 "../../os/hal/src/spi.c" 1
ARM GAS  /tmp/ccTJfFF2.s 			page 11


 571 002c 1FF021E3 		msr     CPSR_c, #0x1F
 572              	@ 0 "" 2
 573              		.loc 1 298 16 view .LVU176
 574              		.loc 1 299 1 is_stmt 0 view .LVU177
 575              		.arm
 576              		.syntax unified
 577 0030 1080BDE8 		pop	{r4, pc}
 578              	.L23:
 579              		.align	2
 580              	.L22:
 581 0034 00000000 		.word	rlist
 582              		.cfi_endproc
 583              	.LFE17:
 584              		.size	spiIgnore, .-spiIgnore
 585              		.section	.text.spiExchange,"ax",%progbits
 586              		.align	2
 587              		.global	spiExchange
 588              		.syntax unified
 589              		.arm
 590              		.fpu softvfp
 591              		.type	spiExchange, %function
 592              	spiExchange:
 593              	.LVL24:
 594              	.LFB18:
 595              		.loc 1 320 54 is_stmt 1 view -0
 596              		.cfi_startproc
 597              		@ args = 0, pretend = 0, frame = 0
 598              		@ frame_needed = 0, uses_anonymous_args = 0
 599              		.loc 1 322 3 view .LVU179
 600              		.loc 1 323 28 view .LVU180
 601              		.loc 1 325 3 view .LVU181
 602              		.loc 1 320 54 is_stmt 0 view .LVU182
 603 0000 10402DE9 		push	{r4, lr}
 604              		.cfi_def_cfa_offset 8
 605              		.cfi_offset 4, -8
 606              		.cfi_offset 14, -4
 607              		.loc 1 320 54 view .LVU183
 608 0004 0040A0E1 		mov	r4, r0
 609              		.loc 1 325 3 view .LVU184
 610              		.syntax divided
 611              	@ 325 "../../os/hal/src/spi.c" 1
 612 0008 9FF021E3 		msr     CPSR_c, #0x9F
 613              	@ 0 "" 2
 614              		.loc 1 325 3 is_stmt 1 view .LVU185
 615              		.loc 1 325 14 view .LVU186
 616              		.loc 1 326 3 view .LVU187
 617              		.loc 1 326 74 view .LVU188
 618              		.loc 1 327 3 view .LVU189
 619              		.loc 1 328 51 view .LVU190
 620              		.loc 1 329 3 view .LVU191
 621              		.arm
 622              		.syntax unified
 623 000c 03C0A0E3 		mov	ip, #3
 624 0010 00C0C0E5 		strb	ip, [r0]
 625              		.loc 1 329 3 view .LVU192
 626 0014 FEFFFFEB 		bl	spi_lld_exchange
 627              	.LVL25:
ARM GAS  /tmp/ccTJfFF2.s 			page 12


 628              		.loc 1 329 43 view .LVU193
 629              		.loc 1 330 3 view .LVU194
 630              		.loc 1 330 3 view .LVU195
 631              		.loc 1 330 3 view .LVU196
 632 0018 14309FE5 		ldr	r3, .L26
 633 001c 0200A0E3 		mov	r0, #2
 634 0020 183093E5 		ldr	r3, [r3, #24]
 635 0024 083084E5 		str	r3, [r4, #8]
 636              		.loc 1 330 3 view .LVU197
 637 0028 FEFFFFEB 		bl	chSchGoSleepS
 638              	.LVL26:
 639              		.loc 1 330 20 view .LVU198
 640              		.loc 1 331 3 view .LVU199
 641              		.loc 1 331 3 view .LVU200
 642              		.syntax divided
 643              	@ 331 "../../os/hal/src/spi.c" 1
 644 002c 1FF021E3 		msr     CPSR_c, #0x1F
 645              	@ 0 "" 2
 646              		.loc 1 331 16 view .LVU201
 647              		.loc 1 332 1 is_stmt 0 view .LVU202
 648              		.arm
 649              		.syntax unified
 650 0030 1080BDE8 		pop	{r4, pc}
 651              	.L27:
 652              		.align	2
 653              	.L26:
 654 0034 00000000 		.word	rlist
 655              		.cfi_endproc
 656              	.LFE18:
 657              		.size	spiExchange, .-spiExchange
 658              		.section	.text.spiSend,"ax",%progbits
 659              		.align	2
 660              		.global	spiSend
 661              		.syntax unified
 662              		.arm
 663              		.fpu softvfp
 664              		.type	spiSend, %function
 665              	spiSend:
 666              	.LVL27:
 667              	.LFB19:
 668              		.loc 1 350 60 is_stmt 1 view -0
 669              		.cfi_startproc
 670              		@ args = 0, pretend = 0, frame = 0
 671              		@ frame_needed = 0, uses_anonymous_args = 0
 672              		.loc 1 352 3 view .LVU204
 673              		.loc 1 352 70 view .LVU205
 674              		.loc 1 354 3 view .LVU206
 675              		.loc 1 350 60 is_stmt 0 view .LVU207
 676 0000 10402DE9 		push	{r4, lr}
 677              		.cfi_def_cfa_offset 8
 678              		.cfi_offset 4, -8
 679              		.cfi_offset 14, -4
 680              		.loc 1 350 60 view .LVU208
 681 0004 0040A0E1 		mov	r4, r0
 682              		.loc 1 354 3 view .LVU209
 683              		.syntax divided
 684              	@ 354 "../../os/hal/src/spi.c" 1
ARM GAS  /tmp/ccTJfFF2.s 			page 13


 685 0008 9FF021E3 		msr     CPSR_c, #0x9F
 686              	@ 0 "" 2
 687              		.loc 1 354 3 is_stmt 1 view .LVU210
 688              		.loc 1 354 14 view .LVU211
 689              		.loc 1 355 3 view .LVU212
 690              		.loc 1 355 70 view .LVU213
 691              		.loc 1 356 3 view .LVU214
 692              		.loc 1 356 77 view .LVU215
 693              		.loc 1 357 3 view .LVU216
 694              		.arm
 695              		.syntax unified
 696 000c 0330A0E3 		mov	r3, #3
 697 0010 0030C0E5 		strb	r3, [r0]
 698              		.loc 1 357 3 view .LVU217
 699 0014 FEFFFFEB 		bl	spi_lld_send
 700              	.LVL28:
 701              		.loc 1 357 32 view .LVU218
 702              		.loc 1 358 3 view .LVU219
 703              		.loc 1 358 3 view .LVU220
 704              		.loc 1 358 3 view .LVU221
 705 0018 14309FE5 		ldr	r3, .L30
 706 001c 0200A0E3 		mov	r0, #2
 707 0020 183093E5 		ldr	r3, [r3, #24]
 708 0024 083084E5 		str	r3, [r4, #8]
 709              		.loc 1 358 3 view .LVU222
 710 0028 FEFFFFEB 		bl	chSchGoSleepS
 711              	.LVL29:
 712              		.loc 1 358 20 view .LVU223
 713              		.loc 1 359 3 view .LVU224
 714              		.loc 1 359 3 view .LVU225
 715              		.syntax divided
 716              	@ 359 "../../os/hal/src/spi.c" 1
 717 002c 1FF021E3 		msr     CPSR_c, #0x1F
 718              	@ 0 "" 2
 719              		.loc 1 359 16 view .LVU226
 720              		.loc 1 360 1 is_stmt 0 view .LVU227
 721              		.arm
 722              		.syntax unified
 723 0030 1080BDE8 		pop	{r4, pc}
 724              	.L31:
 725              		.align	2
 726              	.L30:
 727 0034 00000000 		.word	rlist
 728              		.cfi_endproc
 729              	.LFE19:
 730              		.size	spiSend, .-spiSend
 731              		.section	.text.spiReceive,"ax",%progbits
 732              		.align	2
 733              		.global	spiReceive
 734              		.syntax unified
 735              		.arm
 736              		.fpu softvfp
 737              		.type	spiReceive, %function
 738              	spiReceive:
 739              	.LVL30:
 740              	.LFB20:
 741              		.loc 1 378 57 is_stmt 1 view -0
ARM GAS  /tmp/ccTJfFF2.s 			page 14


 742              		.cfi_startproc
 743              		@ args = 0, pretend = 0, frame = 0
 744              		@ frame_needed = 0, uses_anonymous_args = 0
 745              		.loc 1 380 3 view .LVU229
 746              		.loc 1 381 27 view .LVU230
 747              		.loc 1 383 3 view .LVU231
 748              		.loc 1 378 57 is_stmt 0 view .LVU232
 749 0000 10402DE9 		push	{r4, lr}
 750              		.cfi_def_cfa_offset 8
 751              		.cfi_offset 4, -8
 752              		.cfi_offset 14, -4
 753              		.loc 1 378 57 view .LVU233
 754 0004 0040A0E1 		mov	r4, r0
 755              		.loc 1 383 3 view .LVU234
 756              		.syntax divided
 757              	@ 383 "../../os/hal/src/spi.c" 1
 758 0008 9FF021E3 		msr     CPSR_c, #0x9F
 759              	@ 0 "" 2
 760              		.loc 1 383 3 is_stmt 1 view .LVU235
 761              		.loc 1 383 14 view .LVU236
 762              		.loc 1 384 3 view .LVU237
 763              		.loc 1 384 73 view .LVU238
 764              		.loc 1 385 3 view .LVU239
 765              		.loc 1 386 50 view .LVU240
 766              		.loc 1 387 3 view .LVU241
 767              		.arm
 768              		.syntax unified
 769 000c 0330A0E3 		mov	r3, #3
 770 0010 0030C0E5 		strb	r3, [r0]
 771              		.loc 1 387 3 view .LVU242
 772 0014 FEFFFFEB 		bl	spi_lld_receive
 773              	.LVL31:
 774              		.loc 1 387 35 view .LVU243
 775              		.loc 1 388 3 view .LVU244
 776              		.loc 1 388 3 view .LVU245
 777              		.loc 1 388 3 view .LVU246
 778 0018 14309FE5 		ldr	r3, .L34
 779 001c 0200A0E3 		mov	r0, #2
 780 0020 183093E5 		ldr	r3, [r3, #24]
 781 0024 083084E5 		str	r3, [r4, #8]
 782              		.loc 1 388 3 view .LVU247
 783 0028 FEFFFFEB 		bl	chSchGoSleepS
 784              	.LVL32:
 785              		.loc 1 388 20 view .LVU248
 786              		.loc 1 389 3 view .LVU249
 787              		.loc 1 389 3 view .LVU250
 788              		.syntax divided
 789              	@ 389 "../../os/hal/src/spi.c" 1
 790 002c 1FF021E3 		msr     CPSR_c, #0x1F
 791              	@ 0 "" 2
 792              		.loc 1 389 16 view .LVU251
 793              		.loc 1 390 1 is_stmt 0 view .LVU252
 794              		.arm
 795              		.syntax unified
 796 0030 1080BDE8 		pop	{r4, pc}
 797              	.L35:
 798              		.align	2
ARM GAS  /tmp/ccTJfFF2.s 			page 15


 799              	.L34:
 800 0034 00000000 		.word	rlist
 801              		.cfi_endproc
 802              	.LFE20:
 803              		.size	spiReceive, .-spiReceive
 804              		.section	.text.spiAcquireBus,"ax",%progbits
 805              		.align	2
 806              		.global	spiAcquireBus
 807              		.syntax unified
 808              		.arm
 809              		.fpu softvfp
 810              		.type	spiAcquireBus, %function
 811              	spiAcquireBus:
 812              	.LVL33:
 813              	.LFB21:
 814              		.loc 1 405 37 is_stmt 1 view -0
 815              		.cfi_startproc
 816              		@ args = 0, pretend = 0, frame = 0
 817              		@ frame_needed = 0, uses_anonymous_args = 0
 818              		@ link register save eliminated.
 819              		.loc 1 407 3 view .LVU254
 820              		.loc 1 407 44 view .LVU255
 821              		.loc 1 410 3 view .LVU256
 822 0000 0C0080E2 		add	r0, r0, #12
 823              	.LVL34:
 824              		.loc 1 410 3 is_stmt 0 view .LVU257
 825 0004 FEFFFFEA 		b	chMtxLock
 826              	.LVL35:
 827              		.loc 1 410 3 view .LVU258
 828              		.cfi_endproc
 829              	.LFE21:
 830              		.size	spiAcquireBus, .-spiAcquireBus
 831              		.section	.text.spiReleaseBus,"ax",%progbits
 832              		.align	2
 833              		.global	spiReleaseBus
 834              		.syntax unified
 835              		.arm
 836              		.fpu softvfp
 837              		.type	spiReleaseBus, %function
 838              	spiReleaseBus:
 839              	.LVL36:
 840              	.LFB22:
 841              		.loc 1 425 37 is_stmt 1 view -0
 842              		.cfi_startproc
 843              		@ args = 0, pretend = 0, frame = 0
 844              		@ frame_needed = 0, uses_anonymous_args = 0
 845              		@ link register save eliminated.
 846              		.loc 1 427 3 view .LVU260
 847              		.loc 1 427 44 view .LVU261
 848              		.loc 1 430 3 view .LVU262
 849              		.loc 1 431 3 view .LVU263
 850 0000 FEFFFFEA 		b	chMtxUnlock
 851              	.LVL37:
 852              		.loc 1 431 3 is_stmt 0 view .LVU264
 853              		.cfi_endproc
 854              	.LFE22:
 855              		.size	spiReleaseBus, .-spiReleaseBus
ARM GAS  /tmp/ccTJfFF2.s 			page 16


 856              		.text
 857              	.Letext0:
 858              		.file 2 "/usr/lib/gcc/arm-none-eabi/11.2.0/include/stddef.h"
 859              		.file 3 "/usr/arm-none-eabi/include/machine/_default_types.h"
 860              		.file 4 "/usr/arm-none-eabi/include/sys/_stdint.h"
 861              		.file 5 "../../os/ports/GCC/ARM/chtypes.h"
 862              		.file 6 "../../os/kernel/include/chlists.h"
 863              		.file 7 "../../os/kernel/include/chthreads.h"
 864              		.file 8 "../../os/ports/GCC/ARM/chcore.h"
 865              		.file 9 "../../os/kernel/include/chschd.h"
 866              		.file 10 "../../os/kernel/include/chmtx.h"
 867              		.file 11 "../../os/hal/include/spi.h"
 868              		.file 12 "../../os/hal/platforms/BCM2835/spi_lld.h"
 869              		.section	.debug_info,"",%progbits
 870              	.Ldebug_info0:
 871 0000 180C0000 		.4byte	0xc18
 872 0004 0500     		.2byte	0x5
 873 0006 01       		.byte	0x1
 874 0007 04       		.byte	0x4
 875 0008 00000000 		.4byte	.Ldebug_abbrev0
 876 000c 18       		.uleb128 0x18
 877 000d 9F000000 		.4byte	.LASF116
 878 0011 1D       		.byte	0x1d
 879 0012 66030000 		.4byte	.LASF117
 880 0016 9F030000 		.4byte	.LASF118
 881 001a 0C000000 		.4byte	.LLRL32
 882 001e 00000000 		.4byte	0
 883 0022 00000000 		.4byte	.Ldebug_line0
 884 0026 19       		.uleb128 0x19
 885 0027 04       		.byte	0x4
 886 0028 05       		.byte	0x5
 887 0029 696E7400 		.ascii	"int\000"
 888 002d 03       		.uleb128 0x3
 889 002e D3010000 		.4byte	.LASF2
 890 0032 02       		.byte	0x2
 891 0033 D1       		.byte	0xd1
 892 0034 17       		.byte	0x17
 893 0035 39000000 		.4byte	0x39
 894 0039 0A       		.uleb128 0xa
 895 003a 04       		.byte	0x4
 896 003b 07       		.byte	0x7
 897 003c 4A000000 		.4byte	.LASF0
 898 0040 0A       		.uleb128 0xa
 899 0041 01       		.byte	0x1
 900 0042 06       		.byte	0x6
 901 0043 5C050000 		.4byte	.LASF1
 902 0047 03       		.uleb128 0x3
 903 0048 6E040000 		.4byte	.LASF3
 904 004c 03       		.byte	0x3
 905 004d 2B       		.byte	0x2b
 906 004e 18       		.byte	0x18
 907 004f 53000000 		.4byte	0x53
 908 0053 0A       		.uleb128 0xa
 909 0054 01       		.byte	0x1
 910 0055 08       		.byte	0x8
 911 0056 DE040000 		.4byte	.LASF4
 912 005a 0A       		.uleb128 0xa
ARM GAS  /tmp/ccTJfFF2.s 			page 17


 913 005b 02       		.byte	0x2
 914 005c 05       		.byte	0x5
 915 005d FB030000 		.4byte	.LASF5
 916 0061 0A       		.uleb128 0xa
 917 0062 02       		.byte	0x2
 918 0063 07       		.byte	0x7
 919 0064 75050000 		.4byte	.LASF6
 920 0068 03       		.uleb128 0x3
 921 0069 57000000 		.4byte	.LASF7
 922 006d 03       		.byte	0x3
 923 006e 4D       		.byte	0x4d
 924 006f 18       		.byte	0x18
 925 0070 74000000 		.4byte	0x74
 926 0074 0A       		.uleb128 0xa
 927 0075 04       		.byte	0x4
 928 0076 05       		.byte	0x5
 929 0077 31040000 		.4byte	.LASF8
 930 007b 03       		.uleb128 0x3
 931 007c EC040000 		.4byte	.LASF9
 932 0080 03       		.byte	0x3
 933 0081 4F       		.byte	0x4f
 934 0082 19       		.byte	0x19
 935 0083 87000000 		.4byte	0x87
 936 0087 0A       		.uleb128 0xa
 937 0088 04       		.byte	0x4
 938 0089 07       		.byte	0x7
 939 008a A3040000 		.4byte	.LASF10
 940 008e 0A       		.uleb128 0xa
 941 008f 08       		.byte	0x8
 942 0090 05       		.byte	0x5
 943 0091 B0020000 		.4byte	.LASF11
 944 0095 0A       		.uleb128 0xa
 945 0096 08       		.byte	0x8
 946 0097 07       		.byte	0x7
 947 0098 8B010000 		.4byte	.LASF12
 948 009c 03       		.uleb128 0x3
 949 009d 8D020000 		.4byte	.LASF13
 950 00a1 04       		.byte	0x4
 951 00a2 18       		.byte	0x18
 952 00a3 13       		.byte	0x13
 953 00a4 47000000 		.4byte	0x47
 954 00a8 03       		.uleb128 0x3
 955 00a9 BE040000 		.4byte	.LASF14
 956 00ad 04       		.byte	0x4
 957 00ae 2C       		.byte	0x2c
 958 00af 13       		.byte	0x13
 959 00b0 68000000 		.4byte	0x68
 960 00b4 03       		.uleb128 0x3
 961 00b5 4C010000 		.4byte	.LASF15
 962 00b9 04       		.byte	0x4
 963 00ba 30       		.byte	0x30
 964 00bb 14       		.byte	0x14
 965 00bc 7B000000 		.4byte	0x7b
 966 00c0 03       		.uleb128 0x3
 967 00c1 7D030000 		.4byte	.LASF16
 968 00c5 05       		.byte	0x5
 969 00c6 2A       		.byte	0x2a
ARM GAS  /tmp/ccTJfFF2.s 			page 18


 970 00c7 19       		.byte	0x19
 971 00c8 9C000000 		.4byte	0x9c
 972 00cc 03       		.uleb128 0x3
 973 00cd 74020000 		.4byte	.LASF17
 974 00d1 05       		.byte	0x5
 975 00d2 2B       		.byte	0x2b
 976 00d3 19       		.byte	0x19
 977 00d4 9C000000 		.4byte	0x9c
 978 00d8 03       		.uleb128 0x3
 979 00d9 9B040000 		.4byte	.LASF18
 980 00dd 05       		.byte	0x5
 981 00de 2C       		.byte	0x2c
 982 00df 19       		.byte	0x19
 983 00e0 9C000000 		.4byte	0x9c
 984 00e4 03       		.uleb128 0x3
 985 00e5 39030000 		.4byte	.LASF19
 986 00e9 05       		.byte	0x5
 987 00ea 2D       		.byte	0x2d
 988 00eb 19       		.byte	0x19
 989 00ec 9C000000 		.4byte	0x9c
 990 00f0 03       		.uleb128 0x3
 991 00f1 6E010000 		.4byte	.LASF20
 992 00f5 05       		.byte	0x5
 993 00f6 2E       		.byte	0x2e
 994 00f7 19       		.byte	0x19
 995 00f8 B4000000 		.4byte	0xb4
 996 00fc 03       		.uleb128 0x3
 997 00fd E0020000 		.4byte	.LASF21
 998 0101 05       		.byte	0x5
 999 0102 2F       		.byte	0x2f
 1000 0103 19       		.byte	0x19
 1001 0104 A8000000 		.4byte	0xa8
 1002 0108 03       		.uleb128 0x3
 1003 0109 55010000 		.4byte	.LASF22
 1004 010d 05       		.byte	0x5
 1005 010e 31       		.byte	0x31
 1006 010f 19       		.byte	0x19
 1007 0110 B4000000 		.4byte	0xb4
 1008 0114 03       		.uleb128 0x3
 1009 0115 2D000000 		.4byte	.LASF23
 1010 0119 05       		.byte	0x5
 1011 011a 33       		.byte	0x33
 1012 011b 19       		.byte	0x19
 1013 011c B4000000 		.4byte	0xb4
 1014 0120 1A       		.uleb128 0x1a
 1015 0121 14010000 		.4byte	0x114
 1016 0125 03       		.uleb128 0x3
 1017 0126 4A020000 		.4byte	.LASF24
 1018 012a 06       		.byte	0x6
 1019 012b 23       		.byte	0x23
 1020 012c 17       		.byte	0x17
 1021 012d 31010000 		.4byte	0x131
 1022 0131 0E       		.uleb128 0xe
 1023 0132 4A020000 		.4byte	.LASF24
 1024 0136 44       		.byte	0x44
 1025 0137 07       		.byte	0x7
 1026 0138 57       		.byte	0x57
ARM GAS  /tmp/ccTJfFF2.s 			page 19


 1027 0139 08       		.byte	0x8
 1028 013a 36020000 		.4byte	0x236
 1029 013e 01       		.uleb128 0x1
 1030 013f 51040000 		.4byte	.LASF25
 1031 0143 07       		.byte	0x7
 1032 0144 58       		.byte	0x58
 1033 0145 1A       		.byte	0x1a
 1034 0146 59020000 		.4byte	0x259
 1035 014a 00       		.byte	0
 1036 014b 01       		.uleb128 0x1
 1037 014c 94040000 		.4byte	.LASF26
 1038 0150 07       		.byte	0x7
 1039 0151 5A       		.byte	0x5a
 1040 0152 1A       		.byte	0x1a
 1041 0153 59020000 		.4byte	0x259
 1042 0157 04       		.byte	0x4
 1043 0158 01       		.uleb128 0x1
 1044 0159 26000000 		.4byte	.LASF27
 1045 015d 07       		.byte	0x7
 1046 015e 5C       		.byte	0x5c
 1047 015f 19       		.byte	0x19
 1048 0160 F0000000 		.4byte	0xf0
 1049 0164 08       		.byte	0x8
 1050 0165 01       		.uleb128 0x1
 1051 0166 58040000 		.4byte	.LASF28
 1052 016a 07       		.byte	0x7
 1053 016b 5D       		.byte	0x5d
 1054 016c 19       		.byte	0x19
 1055 016d 16030000 		.4byte	0x316
 1056 0171 0C       		.byte	0xc
 1057 0172 01       		.uleb128 0x1
 1058 0173 A8010000 		.4byte	.LASF29
 1059 0177 07       		.byte	0x7
 1060 0178 5F       		.byte	0x5f
 1061 0179 1A       		.byte	0x1a
 1062 017a 59020000 		.4byte	0x259
 1063 017e 10       		.byte	0x10
 1064 017f 01       		.uleb128 0x1
 1065 0180 7D020000 		.4byte	.LASF30
 1066 0184 07       		.byte	0x7
 1067 0185 60       		.byte	0x60
 1068 0186 1A       		.byte	0x1a
 1069 0187 59020000 		.4byte	0x259
 1070 018b 14       		.byte	0x14
 1071 018c 01       		.uleb128 0x1
 1072 018d 0C020000 		.4byte	.LASF31
 1073 0191 07       		.byte	0x7
 1074 0192 67       		.byte	0x67
 1075 0193 1A       		.byte	0x1a
 1076 0194 21040000 		.4byte	0x421
 1077 0198 18       		.byte	0x18
 1078 0199 01       		.uleb128 0x1
 1079 019a 85020000 		.4byte	.LASF32
 1080 019e 07       		.byte	0x7
 1081 019f 72       		.byte	0x72
 1082 01a0 19       		.byte	0x19
 1083 01a1 CC000000 		.4byte	0xcc
ARM GAS  /tmp/ccTJfFF2.s 			page 20


 1084 01a5 1C       		.byte	0x1c
 1085 01a6 01       		.uleb128 0x1
 1086 01a7 1A030000 		.4byte	.LASF33
 1087 01ab 07       		.byte	0x7
 1088 01ac 76       		.byte	0x76
 1089 01ad 19       		.byte	0x19
 1090 01ae C0000000 		.4byte	0xc0
 1091 01b2 1D       		.byte	0x1d
 1092 01b3 01       		.uleb128 0x1
 1093 01b4 F7040000 		.4byte	.LASF34
 1094 01b8 07       		.byte	0x7
 1095 01b9 7B       		.byte	0x7b
 1096 01ba 19       		.byte	0x19
 1097 01bb D8000000 		.4byte	0xd8
 1098 01bf 1E       		.byte	0x1e
 1099 01c0 01       		.uleb128 0x1
 1100 01c1 2C050000 		.4byte	.LASF35
 1101 01c5 07       		.byte	0x7
 1102 01c6 81       		.byte	0x81
 1103 01c7 19       		.byte	0x19
 1104 01c8 E4000000 		.4byte	0xe4
 1105 01cc 1F       		.byte	0x1f
 1106 01cd 01       		.uleb128 0x1
 1107 01ce 16000000 		.4byte	.LASF36
 1108 01d2 07       		.byte	0x7
 1109 01d3 88       		.byte	0x88
 1110 01d4 19       		.byte	0x19
 1111 01d5 20010000 		.4byte	0x120
 1112 01d9 20       		.byte	0x20
 1113 01da 08       		.uleb128 0x8
 1114 01db 705F7500 		.ascii	"p_u\000"
 1115 01df 07       		.byte	0x7
 1116 01e0 AD       		.byte	0xad
 1117 01e1 19       		.byte	0x19
 1118 01e2 EB030000 		.4byte	0x3eb
 1119 01e6 24       		.byte	0x24
 1120 01e7 01       		.uleb128 0x1
 1121 01e8 0C000000 		.4byte	.LASF37
 1122 01ec 07       		.byte	0x7
 1123 01ed B2       		.byte	0xb2
 1124 01ee 19       		.byte	0x19
 1125 01ef 80020000 		.4byte	0x280
 1126 01f3 28       		.byte	0x28
 1127 01f4 01       		.uleb128 0x1
 1128 01f5 3F000000 		.4byte	.LASF38
 1129 01f9 07       		.byte	0x7
 1130 01fa B8       		.byte	0xb8
 1131 01fb 19       		.byte	0x19
 1132 01fc 5E020000 		.4byte	0x25e
 1133 0200 2C       		.byte	0x2c
 1134 0201 01       		.uleb128 0x1
 1135 0202 60030000 		.4byte	.LASF39
 1136 0206 07       		.byte	0x7
 1137 0207 BC       		.byte	0xbc
 1138 0208 19       		.byte	0x19
 1139 0209 FC000000 		.4byte	0xfc
 1140 020d 34       		.byte	0x34
ARM GAS  /tmp/ccTJfFF2.s 			page 21


 1141 020e 01       		.uleb128 0x1
 1142 020f 1E040000 		.4byte	.LASF40
 1143 0213 07       		.byte	0x7
 1144 0214 C2       		.byte	0xc2
 1145 0215 19       		.byte	0x19
 1146 0216 08010000 		.4byte	0x108
 1147 021a 38       		.byte	0x38
 1148 021b 01       		.uleb128 0x1
 1149 021c 95020000 		.4byte	.LASF41
 1150 0220 07       		.byte	0x7
 1151 0221 C9       		.byte	0xc9
 1152 0222 1A       		.byte	0x1a
 1153 0223 32040000 		.4byte	0x432
 1154 0227 3C       		.byte	0x3c
 1155 0228 01       		.uleb128 0x1
 1156 0229 F0030000 		.4byte	.LASF42
 1157 022d 07       		.byte	0x7
 1158 022e CD       		.byte	0xcd
 1159 022f 19       		.byte	0x19
 1160 0230 F0000000 		.4byte	0xf0
 1161 0234 40       		.byte	0x40
 1162 0235 00       		.byte	0
 1163 0236 12       		.uleb128 0x12
 1164 0237 08       		.byte	0x8
 1165 0238 06       		.byte	0x6
 1166 0239 5A       		.byte	0x5a
 1167 023a 59020000 		.4byte	0x259
 1168 023e 01       		.uleb128 0x1
 1169 023f 51040000 		.4byte	.LASF25
 1170 0243 06       		.byte	0x6
 1171 0244 5B       		.byte	0x5b
 1172 0245 1A       		.byte	0x1a
 1173 0246 59020000 		.4byte	0x259
 1174 024a 00       		.byte	0
 1175 024b 01       		.uleb128 0x1
 1176 024c 94040000 		.4byte	.LASF26
 1177 0250 06       		.byte	0x6
 1178 0251 5D       		.byte	0x5d
 1179 0252 1A       		.byte	0x1a
 1180 0253 59020000 		.4byte	0x259
 1181 0257 04       		.byte	0x4
 1182 0258 00       		.byte	0
 1183 0259 0B       		.uleb128 0xb
 1184 025a 25010000 		.4byte	0x125
 1185 025e 03       		.uleb128 0x3
 1186 025f 20020000 		.4byte	.LASF43
 1187 0263 06       		.byte	0x6
 1188 0264 5F       		.byte	0x5f
 1189 0265 03       		.byte	0x3
 1190 0266 36020000 		.4byte	0x236
 1191 026a 12       		.uleb128 0x12
 1192 026b 04       		.byte	0x4
 1193 026c 06       		.byte	0x6
 1194 026d 64       		.byte	0x64
 1195 026e 80020000 		.4byte	0x280
 1196 0272 01       		.uleb128 0x1
 1197 0273 51040000 		.4byte	.LASF25
ARM GAS  /tmp/ccTJfFF2.s 			page 22


 1198 0277 06       		.byte	0x6
 1199 0278 66       		.byte	0x66
 1200 0279 16       		.byte	0x16
 1201 027a 59020000 		.4byte	0x259
 1202 027e 00       		.byte	0
 1203 027f 00       		.byte	0
 1204 0280 03       		.uleb128 0x3
 1205 0281 00000000 		.4byte	.LASF44
 1206 0285 06       		.byte	0x6
 1207 0286 69       		.byte	0x69
 1208 0287 03       		.byte	0x3
 1209 0288 6A020000 		.4byte	0x26a
 1210 028c 03       		.uleb128 0x3
 1211 028d 1D000000 		.4byte	.LASF45
 1212 0291 08       		.byte	0x8
 1213 0292 A2       		.byte	0xa2
 1214 0293 0F       		.byte	0xf
 1215 0294 98020000 		.4byte	0x298
 1216 0298 1B       		.uleb128 0x1b
 1217 0299 04       		.byte	0x4
 1218 029a 0E       		.uleb128 0xe
 1219 029b 8D030000 		.4byte	.LASF46
 1220 029f 24       		.byte	0x24
 1221 02a0 08       		.byte	0x8
 1222 02a1 B9       		.byte	0xb9
 1223 02a2 08       		.byte	0x8
 1224 02a3 16030000 		.4byte	0x316
 1225 02a7 08       		.uleb128 0x8
 1226 02a8 723400   		.ascii	"r4\000"
 1227 02ab 08       		.byte	0x8
 1228 02ac BA       		.byte	0xba
 1229 02ad 11       		.byte	0x11
 1230 02ae 8C020000 		.4byte	0x28c
 1231 02b2 00       		.byte	0
 1232 02b3 08       		.uleb128 0x8
 1233 02b4 723500   		.ascii	"r5\000"
 1234 02b7 08       		.byte	0x8
 1235 02b8 BB       		.byte	0xbb
 1236 02b9 11       		.byte	0x11
 1237 02ba 8C020000 		.4byte	0x28c
 1238 02be 04       		.byte	0x4
 1239 02bf 08       		.uleb128 0x8
 1240 02c0 723600   		.ascii	"r6\000"
 1241 02c3 08       		.byte	0x8
 1242 02c4 BC       		.byte	0xbc
 1243 02c5 11       		.byte	0x11
 1244 02c6 8C020000 		.4byte	0x28c
 1245 02ca 08       		.byte	0x8
 1246 02cb 08       		.uleb128 0x8
 1247 02cc 723700   		.ascii	"r7\000"
 1248 02cf 08       		.byte	0x8
 1249 02d0 BD       		.byte	0xbd
 1250 02d1 11       		.byte	0x11
 1251 02d2 8C020000 		.4byte	0x28c
 1252 02d6 0C       		.byte	0xc
 1253 02d7 08       		.uleb128 0x8
 1254 02d8 723800   		.ascii	"r8\000"
ARM GAS  /tmp/ccTJfFF2.s 			page 23


 1255 02db 08       		.byte	0x8
 1256 02dc BE       		.byte	0xbe
 1257 02dd 11       		.byte	0x11
 1258 02de 8C020000 		.4byte	0x28c
 1259 02e2 10       		.byte	0x10
 1260 02e3 08       		.uleb128 0x8
 1261 02e4 723900   		.ascii	"r9\000"
 1262 02e7 08       		.byte	0x8
 1263 02e8 BF       		.byte	0xbf
 1264 02e9 11       		.byte	0x11
 1265 02ea 8C020000 		.4byte	0x28c
 1266 02ee 14       		.byte	0x14
 1267 02ef 08       		.uleb128 0x8
 1268 02f0 72313000 		.ascii	"r10\000"
 1269 02f4 08       		.byte	0x8
 1270 02f5 C0       		.byte	0xc0
 1271 02f6 11       		.byte	0x11
 1272 02f7 8C020000 		.4byte	0x28c
 1273 02fb 18       		.byte	0x18
 1274 02fc 08       		.uleb128 0x8
 1275 02fd 72313100 		.ascii	"r11\000"
 1276 0301 08       		.byte	0x8
 1277 0302 C1       		.byte	0xc1
 1278 0303 11       		.byte	0x11
 1279 0304 8C020000 		.4byte	0x28c
 1280 0308 1C       		.byte	0x1c
 1281 0309 08       		.uleb128 0x8
 1282 030a 6C7200   		.ascii	"lr\000"
 1283 030d 08       		.byte	0x8
 1284 030e C2       		.byte	0xc2
 1285 030f 11       		.byte	0x11
 1286 0310 8C020000 		.4byte	0x28c
 1287 0314 20       		.byte	0x20
 1288 0315 00       		.byte	0
 1289 0316 0E       		.uleb128 0xe
 1290 0317 E6020000 		.4byte	.LASF47
 1291 031b 04       		.byte	0x4
 1292 031c 08       		.byte	0x8
 1293 031d CA       		.byte	0xca
 1294 031e 08       		.byte	0x8
 1295 031f 31030000 		.4byte	0x331
 1296 0323 08       		.uleb128 0x8
 1297 0324 72313300 		.ascii	"r13\000"
 1298 0328 08       		.byte	0x8
 1299 0329 CB       		.byte	0xcb
 1300 032a 12       		.byte	0x12
 1301 032b 31030000 		.4byte	0x331
 1302 032f 00       		.byte	0
 1303 0330 00       		.byte	0
 1304 0331 0B       		.uleb128 0xb
 1305 0332 9A020000 		.4byte	0x29a
 1306 0336 12       		.uleb128 0x12
 1307 0337 1C       		.byte	0x1c
 1308 0338 09       		.byte	0x9
 1309 0339 57       		.byte	0x57
 1310 033a 8D030000 		.4byte	0x38d
 1311 033e 01       		.uleb128 0x1
ARM GAS  /tmp/ccTJfFF2.s 			page 24


 1312 033f CC020000 		.4byte	.LASF48
 1313 0343 09       		.byte	0x9
 1314 0344 58       		.byte	0x58
 1315 0345 19       		.byte	0x19
 1316 0346 5E020000 		.4byte	0x25e
 1317 034a 00       		.byte	0
 1318 034b 01       		.uleb128 0x1
 1319 034c 61010000 		.4byte	.LASF49
 1320 0350 09       		.byte	0x9
 1321 0351 59       		.byte	0x59
 1322 0352 19       		.byte	0x19
 1323 0353 F0000000 		.4byte	0xf0
 1324 0357 08       		.byte	0x8
 1325 0358 01       		.uleb128 0x1
 1326 0359 88050000 		.4byte	.LASF50
 1327 035d 09       		.byte	0x9
 1328 035e 5B       		.byte	0x5b
 1329 035f 19       		.byte	0x19
 1330 0360 16030000 		.4byte	0x316
 1331 0364 0C       		.byte	0xc
 1332 0365 01       		.uleb128 0x1
 1333 0366 42020000 		.4byte	.LASF51
 1334 036a 09       		.byte	0x9
 1335 036b 5E       		.byte	0x5e
 1336 036c 1A       		.byte	0x1a
 1337 036d 59020000 		.4byte	0x259
 1338 0371 10       		.byte	0x10
 1339 0372 01       		.uleb128 0x1
 1340 0373 43030000 		.4byte	.LASF52
 1341 0377 09       		.byte	0x9
 1342 0378 5F       		.byte	0x5f
 1343 0379 1A       		.byte	0x1a
 1344 037a 59020000 		.4byte	0x259
 1345 037e 14       		.byte	0x14
 1346 037f 01       		.uleb128 0x1
 1347 0380 05040000 		.4byte	.LASF53
 1348 0384 09       		.byte	0x9
 1349 0385 62       		.byte	0x62
 1350 0386 1A       		.byte	0x1a
 1351 0387 59020000 		.4byte	0x259
 1352 038b 18       		.byte	0x18
 1353 038c 00       		.byte	0
 1354 038d 03       		.uleb128 0x3
 1355 038e FE040000 		.4byte	.LASF54
 1356 0392 09       		.byte	0x9
 1357 0393 64       		.byte	0x64
 1358 0394 03       		.byte	0x3
 1359 0395 36030000 		.4byte	0x336
 1360 0399 1C       		.uleb128 0x1c
 1361 039a 5E040000 		.4byte	.LASF119
 1362 039e 09       		.byte	0x9
 1363 039f 68       		.byte	0x68
 1364 03a0 12       		.byte	0x12
 1365 03a1 8D030000 		.4byte	0x38d
 1366 03a5 0E       		.uleb128 0xe
 1367 03a6 06020000 		.4byte	.LASF55
 1368 03aa 10       		.byte	0x10
ARM GAS  /tmp/ccTJfFF2.s 			page 25


 1369 03ab 0A       		.byte	0xa
 1370 03ac 25       		.byte	0x25
 1371 03ad 10       		.byte	0x10
 1372 03ae DA030000 		.4byte	0x3da
 1373 03b2 01       		.uleb128 0x1
 1374 03b3 29040000 		.4byte	.LASF56
 1375 03b7 0A       		.byte	0xa
 1376 03b8 26       		.byte	0x26
 1377 03b9 19       		.byte	0x19
 1378 03ba 5E020000 		.4byte	0x25e
 1379 03be 00       		.byte	0
 1380 03bf 01       		.uleb128 0x1
 1381 03c0 37000000 		.4byte	.LASF57
 1382 03c4 0A       		.byte	0xa
 1383 03c5 28       		.byte	0x28
 1384 03c6 1A       		.byte	0x1a
 1385 03c7 59020000 		.4byte	0x259
 1386 03cb 08       		.byte	0x8
 1387 03cc 01       		.uleb128 0x1
 1388 03cd 55050000 		.4byte	.LASF58
 1389 03d1 0A       		.byte	0xa
 1390 03d2 2A       		.byte	0x2a
 1391 03d3 1A       		.byte	0x1a
 1392 03d4 DA030000 		.4byte	0x3da
 1393 03d8 0C       		.byte	0xc
 1394 03d9 00       		.byte	0
 1395 03da 0B       		.uleb128 0xb
 1396 03db A5030000 		.4byte	0x3a5
 1397 03df 03       		.uleb128 0x3
 1398 03e0 06020000 		.4byte	.LASF55
 1399 03e4 0A       		.byte	0xa
 1400 03e5 2C       		.byte	0x2c
 1401 03e6 03       		.byte	0x3
 1402 03e7 A5030000 		.4byte	0x3a5
 1403 03eb 1D       		.uleb128 0x1d
 1404 03ec 04       		.byte	0x4
 1405 03ed 07       		.byte	0x7
 1406 03ee 8F       		.byte	0x8f
 1407 03ef 03       		.byte	0x3
 1408 03f0 21040000 		.4byte	0x421
 1409 03f4 13       		.uleb128 0x13
 1410 03f5 DA010000 		.4byte	.LASF59
 1411 03f9 96       		.byte	0x96
 1412 03fa 19       		.byte	0x19
 1413 03fb FC000000 		.4byte	0xfc
 1414 03ff 13       		.uleb128 0x13
 1415 0400 B2050000 		.4byte	.LASF60
 1416 0404 9D       		.byte	0x9d
 1417 0405 19       		.byte	0x19
 1418 0406 FC000000 		.4byte	0xfc
 1419 040a 13       		.uleb128 0x13
 1420 040b 79000000 		.4byte	.LASF61
 1421 040f A4       		.byte	0xa4
 1422 0410 1A       		.byte	0x1a
 1423 0411 98020000 		.4byte	0x298
 1424 0415 13       		.uleb128 0x13
 1425 0416 80000000 		.4byte	.LASF62
ARM GAS  /tmp/ccTJfFF2.s 			page 26


 1426 041a AB       		.byte	0xab
 1427 041b 19       		.byte	0x19
 1428 041c 08010000 		.4byte	0x108
 1429 0420 00       		.byte	0
 1430 0421 0B       		.uleb128 0xb
 1431 0422 2D040000 		.4byte	0x42d
 1432 0426 0A       		.uleb128 0xa
 1433 0427 01       		.byte	0x1
 1434 0428 08       		.byte	0x8
 1435 0429 2D020000 		.4byte	.LASF63
 1436 042d 15       		.uleb128 0x15
 1437 042e 26040000 		.4byte	0x426
 1438 0432 0B       		.uleb128 0xb
 1439 0433 DF030000 		.4byte	0x3df
 1440 0437 1E       		.uleb128 0x1e
 1441 0438 07       		.byte	0x7
 1442 0439 01       		.byte	0x1
 1443 043a 53000000 		.4byte	0x53
 1444 043e 0B       		.byte	0xb
 1445 043f 4E       		.byte	0x4e
 1446 0440 0E       		.byte	0xe
 1447 0441 64040000 		.4byte	0x464
 1448 0445 0F       		.uleb128 0xf
 1449 0446 94030000 		.4byte	.LASF64
 1450 044a 00       		.byte	0
 1451 044b 0F       		.uleb128 0xf
 1452 044c B5040000 		.4byte	.LASF65
 1453 0450 01       		.byte	0x1
 1454 0451 0F       		.uleb128 0xf
 1455 0452 64040000 		.4byte	.LASF66
 1456 0456 02       		.byte	0x2
 1457 0457 0F       		.uleb128 0xf
 1458 0458 2E030000 		.4byte	.LASF67
 1459 045c 03       		.byte	0x3
 1460 045d 0F       		.uleb128 0xf
 1461 045e A5050000 		.4byte	.LASF68
 1462 0462 04       		.byte	0x4
 1463 0463 00       		.byte	0
 1464 0464 03       		.uleb128 0x3
 1465 0465 3A040000 		.4byte	.LASF69
 1466 0469 0B       		.byte	0xb
 1467 046a 54       		.byte	0x54
 1468 046b 03       		.byte	0x3
 1469 046c 37040000 		.4byte	0x437
 1470 0470 03       		.uleb128 0x3
 1471 0471 95000000 		.4byte	.LASF70
 1472 0475 0C       		.byte	0xc
 1473 0476 35       		.byte	0x35
 1474 0477 1A       		.byte	0x1a
 1475 0478 7C040000 		.4byte	0x47c
 1476 047c 0E       		.uleb128 0xe
 1477 047d 95000000 		.4byte	.LASF70
 1478 0481 28       		.byte	0x28
 1479 0482 0C       		.byte	0xc
 1480 0483 7C       		.byte	0x7c
 1481 0484 08       		.byte	0x8
 1482 0485 E5040000 		.4byte	0x4e5
ARM GAS  /tmp/ccTJfFF2.s 			page 27


 1483 0489 01       		.uleb128 0x1
 1484 048a 36050000 		.4byte	.LASF71
 1485 048e 0C       		.byte	0xc
 1486 048f 80       		.byte	0x80
 1487 0490 19       		.byte	0x19
 1488 0491 64040000 		.4byte	0x464
 1489 0495 00       		.byte	0
 1490 0496 01       		.uleb128 0x1
 1491 0497 DA030000 		.4byte	.LASF72
 1492 049b 0C       		.byte	0xc
 1493 049c 84       		.byte	0x84
 1494 049d 1A       		.byte	0x1a
 1495 049e 95050000 		.4byte	0x595
 1496 04a2 04       		.byte	0x4
 1497 04a3 01       		.uleb128 0x1
 1498 04a4 C6040000 		.4byte	.LASF73
 1499 04a8 0C       		.byte	0xc
 1500 04a9 89       		.byte	0x89
 1501 04aa 1A       		.byte	0x1a
 1502 04ab 59020000 		.4byte	0x259
 1503 04af 08       		.byte	0x8
 1504 04b0 01       		.uleb128 0x1
 1505 04b1 68010000 		.4byte	.LASF74
 1506 04b5 0C       		.byte	0xc
 1507 04b6 90       		.byte	0x90
 1508 04b7 19       		.byte	0x19
 1509 04b8 DF030000 		.4byte	0x3df
 1510 04bc 0C       		.byte	0xc
 1511 04bd 01       		.uleb128 0x1
 1512 04be C0050000 		.4byte	.LASF75
 1513 04c2 0C       		.byte	0xc
 1514 04c3 98       		.byte	0x98
 1515 04c4 1A       		.byte	0x1a
 1516 04c5 98020000 		.4byte	0x298
 1517 04c9 1C       		.byte	0x1c
 1518 04ca 01       		.uleb128 0x1
 1519 04cb B0010000 		.4byte	.LASF76
 1520 04cf 0C       		.byte	0xc
 1521 04d0 9D       		.byte	0x9d
 1522 04d1 1A       		.byte	0x1a
 1523 04d2 9A050000 		.4byte	0x59a
 1524 04d6 20       		.byte	0x20
 1525 04d7 01       		.uleb128 0x1
 1526 04d8 A2010000 		.4byte	.LASF77
 1527 04dc 0C       		.byte	0xc
 1528 04dd A2       		.byte	0xa2
 1529 04de 17       		.byte	0x17
 1530 04df 2D000000 		.4byte	0x2d
 1531 04e3 24       		.byte	0x24
 1532 04e4 00       		.byte	0
 1533 04e5 03       		.uleb128 0x3
 1534 04e6 BE020000 		.4byte	.LASF78
 1535 04ea 0C       		.byte	0xc
 1536 04eb 3D       		.byte	0x3d
 1537 04ec 10       		.byte	0x10
 1538 04ed F1040000 		.4byte	0x4f1
 1539 04f1 0B       		.uleb128 0xb
ARM GAS  /tmp/ccTJfFF2.s 			page 28


 1540 04f2 F6040000 		.4byte	0x4f6
 1541 04f6 1F       		.uleb128 0x1f
 1542 04f7 01050000 		.4byte	0x501
 1543 04fb 04       		.uleb128 0x4
 1544 04fc 01050000 		.4byte	0x501
 1545 0500 00       		.byte	0
 1546 0501 0B       		.uleb128 0xb
 1547 0502 70040000 		.4byte	0x470
 1548 0506 12       		.uleb128 0x12
 1549 0507 10       		.byte	0x10
 1550 0508 0C       		.byte	0xc
 1551 0509 44       		.byte	0x44
 1552 050a 84050000 		.4byte	0x584
 1553 050e 01       		.uleb128 0x1
 1554 050f 84010000 		.4byte	.LASF79
 1555 0513 0C       		.byte	0xc
 1556 0514 48       		.byte	0x48
 1557 0515 19       		.byte	0x19
 1558 0516 E5040000 		.4byte	0x4e5
 1559 051a 00       		.byte	0
 1560 051b 01       		.uleb128 0x1
 1561 051c 4B030000 		.4byte	.LASF80
 1562 0520 0C       		.byte	0xc
 1563 0521 4F       		.byte	0x4f
 1564 0522 19       		.byte	0x19
 1565 0523 9C000000 		.4byte	0x9c
 1566 0527 04       		.byte	0x4
 1567 0528 01       		.uleb128 0x1
 1568 0529 22030000 		.4byte	.LASF81
 1569 052d 0C       		.byte	0xc
 1570 052e 52       		.byte	0x52
 1571 052f 19       		.byte	0x19
 1572 0530 9C000000 		.4byte	0x9c
 1573 0534 05       		.byte	0x5
 1574 0535 01       		.uleb128 0x1
 1575 0536 5F020000 		.4byte	.LASF82
 1576 053a 0C       		.byte	0xc
 1577 053b 58       		.byte	0x58
 1578 053c 19       		.byte	0x19
 1579 053d 9C000000 		.4byte	0x9c
 1580 0541 06       		.byte	0x6
 1581 0542 01       		.uleb128 0x1
 1582 0543 EE020000 		.4byte	.LASF83
 1583 0547 0C       		.byte	0xc
 1584 0548 5E       		.byte	0x5e
 1585 0549 19       		.byte	0x19
 1586 054a 9C000000 		.4byte	0x9c
 1587 054e 07       		.byte	0x7
 1588 054f 01       		.uleb128 0x1
 1589 0550 04030000 		.4byte	.LASF84
 1590 0554 0C       		.byte	0xc
 1591 0555 64       		.byte	0x64
 1592 0556 19       		.byte	0x19
 1593 0557 9C000000 		.4byte	0x9c
 1594 055b 08       		.byte	0x8
 1595 055c 01       		.uleb128 0x1
 1596 055d 0F040000 		.4byte	.LASF85
ARM GAS  /tmp/ccTJfFF2.s 			page 29


 1597 0561 0C       		.byte	0xc
 1598 0562 6A       		.byte	0x6a
 1599 0563 19       		.byte	0x19
 1600 0564 9C000000 		.4byte	0x9c
 1601 0568 09       		.byte	0x9
 1602 0569 01       		.uleb128 0x1
 1603 056a E1010000 		.4byte	.LASF86
 1604 056e 0C       		.byte	0xc
 1605 056f 70       		.byte	0x70
 1606 0570 19       		.byte	0x19
 1607 0571 9C000000 		.4byte	0x9c
 1608 0575 0A       		.byte	0xa
 1609 0576 01       		.uleb128 0x1
 1610 0577 86040000 		.4byte	.LASF87
 1611 057b 0C       		.byte	0xc
 1612 057c 73       		.byte	0x73
 1613 057d 19       		.byte	0x19
 1614 057e B4000000 		.4byte	0xb4
 1615 0582 0C       		.byte	0xc
 1616 0583 00       		.byte	0
 1617 0584 03       		.uleb128 0x3
 1618 0585 FC010000 		.4byte	.LASF88
 1619 0589 0C       		.byte	0xc
 1620 058a 75       		.byte	0x75
 1621 058b 03       		.byte	0x3
 1622 058c 06050000 		.4byte	0x506
 1623 0590 15       		.uleb128 0x15
 1624 0591 84050000 		.4byte	0x584
 1625 0595 0B       		.uleb128 0xb
 1626 0596 90050000 		.4byte	0x590
 1627 059a 0B       		.uleb128 0xb
 1628 059b 9F050000 		.4byte	0x59f
 1629 059f 20       		.uleb128 0x20
 1630 05a0 21       		.uleb128 0x21
 1631 05a1 D4020000 		.4byte	.LASF120
 1632 05a5 0A       		.byte	0xa
 1633 05a6 36       		.byte	0x36
 1634 05a7 0A       		.byte	0xa
 1635 05a8 32040000 		.4byte	0x432
 1636 05ac 09       		.uleb128 0x9
 1637 05ad 08050000 		.4byte	.LASF89
 1638 05b1 0A       		.byte	0xa
 1639 05b2 32       		.byte	0x32
 1640 05b3 BD050000 		.4byte	0x5bd
 1641 05b7 04       		.uleb128 0x4
 1642 05b8 32040000 		.4byte	0x432
 1643 05bc 00       		.byte	0
 1644 05bd 09       		.uleb128 0x9
 1645 05be 78040000 		.4byte	.LASF90
 1646 05c2 09       		.byte	0x9
 1647 05c3 8C       		.byte	0x8c
 1648 05c4 CE050000 		.4byte	0x5ce
 1649 05c8 04       		.uleb128 0x4
 1650 05c9 CC000000 		.4byte	0xcc
 1651 05cd 00       		.byte	0
 1652 05ce 09       		.uleb128 0x9
 1653 05cf 32020000 		.4byte	.LASF91
ARM GAS  /tmp/ccTJfFF2.s 			page 30


 1654 05d3 0C       		.byte	0xc
 1655 05d4 C1       		.byte	0xc1
 1656 05d5 E9050000 		.4byte	0x5e9
 1657 05d9 04       		.uleb128 0x4
 1658 05da 01050000 		.4byte	0x501
 1659 05de 04       		.uleb128 0x4
 1660 05df 2D000000 		.4byte	0x2d
 1661 05e3 04       		.uleb128 0x4
 1662 05e4 98020000 		.4byte	0x298
 1663 05e8 00       		.byte	0
 1664 05e9 09       		.uleb128 0x9
 1665 05ea 68050000 		.4byte	.LASF92
 1666 05ee 0C       		.byte	0xc
 1667 05ef C0       		.byte	0xc0
 1668 05f0 04060000 		.4byte	0x604
 1669 05f4 04       		.uleb128 0x4
 1670 05f5 01050000 		.4byte	0x501
 1671 05f9 04       		.uleb128 0x4
 1672 05fa 2D000000 		.4byte	0x2d
 1673 05fe 04       		.uleb128 0x4
 1674 05ff 9A050000 		.4byte	0x59a
 1675 0603 00       		.byte	0
 1676 0604 09       		.uleb128 0x9
 1677 0605 9F020000 		.4byte	.LASF93
 1678 0609 0C       		.byte	0xc
 1679 060a BE       		.byte	0xbe
 1680 060b 24060000 		.4byte	0x624
 1681 060f 04       		.uleb128 0x4
 1682 0610 01050000 		.4byte	0x501
 1683 0614 04       		.uleb128 0x4
 1684 0615 2D000000 		.4byte	0x2d
 1685 0619 04       		.uleb128 0x4
 1686 061a 9A050000 		.4byte	0x59a
 1687 061e 04       		.uleb128 0x4
 1688 061f 98020000 		.4byte	0x298
 1689 0623 00       		.byte	0
 1690 0624 09       		.uleb128 0x9
 1691 0625 E1030000 		.4byte	.LASF94
 1692 0629 0C       		.byte	0xc
 1693 062a BD       		.byte	0xbd
 1694 062b 3A060000 		.4byte	0x63a
 1695 062f 04       		.uleb128 0x4
 1696 0630 01050000 		.4byte	0x501
 1697 0634 04       		.uleb128 0x4
 1698 0635 2D000000 		.4byte	0x2d
 1699 0639 00       		.byte	0
 1700 063a 09       		.uleb128 0x9
 1701 063b ED010000 		.4byte	.LASF95
 1702 063f 0C       		.byte	0xc
 1703 0640 BB       		.byte	0xbb
 1704 0641 4B060000 		.4byte	0x64b
 1705 0645 04       		.uleb128 0x4
 1706 0646 01050000 		.4byte	0x501
 1707 064a 00       		.byte	0
 1708 064b 09       		.uleb128 0x9
 1709 064c 8E050000 		.4byte	.LASF96
 1710 0650 0C       		.byte	0xc
ARM GAS  /tmp/ccTJfFF2.s 			page 31


 1711 0651 BA       		.byte	0xba
 1712 0652 5C060000 		.4byte	0x65c
 1713 0656 04       		.uleb128 0x4
 1714 0657 01050000 		.4byte	0x501
 1715 065b 00       		.byte	0
 1716 065c 09       		.uleb128 0x9
 1717 065d C9030000 		.4byte	.LASF97
 1718 0661 0C       		.byte	0xc
 1719 0662 BC       		.byte	0xbc
 1720 0663 6D060000 		.4byte	0x66d
 1721 0667 04       		.uleb128 0x4
 1722 0668 01050000 		.4byte	0x501
 1723 066c 00       		.byte	0
 1724 066d 09       		.uleb128 0x9
 1725 066e 76010000 		.4byte	.LASF98
 1726 0672 0C       		.byte	0xc
 1727 0673 B9       		.byte	0xb9
 1728 0674 7E060000 		.4byte	0x67e
 1729 0678 04       		.uleb128 0x4
 1730 0679 01050000 		.4byte	0x501
 1731 067d 00       		.byte	0
 1732 067e 09       		.uleb128 0x9
 1733 067f B6010000 		.4byte	.LASF99
 1734 0683 0A       		.byte	0xa
 1735 0684 31       		.byte	0x31
 1736 0685 8F060000 		.4byte	0x68f
 1737 0689 04       		.uleb128 0x4
 1738 068a 32040000 		.4byte	0x432
 1739 068e 00       		.byte	0
 1740 068f 22       		.uleb128 0x22
 1741 0690 13020000 		.4byte	.LASF121
 1742 0694 0C       		.byte	0xc
 1743 0695 B8       		.byte	0xb8
 1744 0696 08       		.byte	0x8
 1745 0697 0D       		.uleb128 0xd
 1746 0698 87000000 		.4byte	.LASF100
 1747 069c A901     		.2byte	0x1a9
 1748 069e 00000000 		.4byte	.LFB22
 1749 06a2 04000000 		.4byte	.LFE22-.LFB22
 1750 06a6 01       		.uleb128 0x1
 1751 06a7 9C       		.byte	0x9c
 1752 06a8 CA060000 		.4byte	0x6ca
 1753 06ac 05       		.uleb128 0x5
 1754 06ad BB050000 		.4byte	.LASF102
 1755 06b1 A901     		.2byte	0x1a9
 1756 06b3 1F       		.byte	0x1f
 1757 06b4 01050000 		.4byte	0x501
 1758 06b8 10000000 		.4byte	.LLST31
 1759 06bc 0C000000 		.4byte	.LVUS31
 1760 06c0 16       		.uleb128 0x16
 1761 06c1 04000000 		.4byte	.LVL37
 1762 06c5 A0050000 		.4byte	0x5a0
 1763 06c9 00       		.byte	0
 1764 06ca 0D       		.uleb128 0xd
 1765 06cb 51020000 		.4byte	.LASF101
 1766 06cf 9501     		.2byte	0x195
 1767 06d1 00000000 		.4byte	.LFB21
ARM GAS  /tmp/ccTJfFF2.s 			page 32


 1768 06d5 08000000 		.4byte	.LFE21-.LFB21
 1769 06d9 01       		.uleb128 0x1
 1770 06da 9C       		.byte	0x9c
 1771 06db 07070000 		.4byte	0x707
 1772 06df 05       		.uleb128 0x5
 1773 06e0 BB050000 		.4byte	.LASF102
 1774 06e4 9501     		.2byte	0x195
 1775 06e6 1F       		.byte	0x1f
 1776 06e7 01050000 		.4byte	0x501
 1777 06eb 29000000 		.4byte	.LLST30
 1778 06ef 23000000 		.4byte	.LVUS30
 1779 06f3 17       		.uleb128 0x17
 1780 06f4 08000000 		.4byte	.LVL35
 1781 06f8 AC050000 		.4byte	0x5ac
 1782 06fc 02       		.uleb128 0x2
 1783 06fd 01       		.uleb128 0x1
 1784 06fe 50       		.byte	0x50
 1785 06ff 05       		.uleb128 0x5
 1786 0700 A3       		.byte	0xa3
 1787 0701 01       		.uleb128 0x1
 1788 0702 50       		.byte	0x50
 1789 0703 23       		.byte	0x23
 1790 0704 0C       		.uleb128 0xc
 1791 0705 00       		.byte	0
 1792 0706 00       		.byte	0
 1793 0707 0D       		.uleb128 0xd
 1794 0708 21050000 		.4byte	.LASF103
 1795 070c 7A01     		.2byte	0x17a
 1796 070e 00000000 		.4byte	.LFB20
 1797 0712 38000000 		.4byte	.LFE20-.LFB20
 1798 0716 01       		.uleb128 0x1
 1799 0717 9C       		.byte	0x9c
 1800 0718 88070000 		.4byte	0x788
 1801 071c 05       		.uleb128 0x5
 1802 071d BB050000 		.4byte	.LASF102
 1803 0721 7A01     		.2byte	0x17a
 1804 0723 1C       		.byte	0x1c
 1805 0724 01050000 		.4byte	0x501
 1806 0728 47000000 		.4byte	.LLST27
 1807 072c 43000000 		.4byte	.LVUS27
 1808 0730 10       		.uleb128 0x10
 1809 0731 6E00     		.ascii	"n\000"
 1810 0733 7A01     		.2byte	0x17a
 1811 0735 29       		.byte	0x29
 1812 0736 2D000000 		.4byte	0x2d
 1813 073a 5B000000 		.4byte	.LLST28
 1814 073e 57000000 		.4byte	.LVUS28
 1815 0742 05       		.uleb128 0x5
 1816 0743 C0050000 		.4byte	.LASF75
 1817 0747 7A01     		.2byte	0x17a
 1818 0749 32       		.byte	0x32
 1819 074a 98020000 		.4byte	0x298
 1820 074e 72000000 		.4byte	.LLST29
 1821 0752 6E000000 		.4byte	.LVUS29
 1822 0756 11       		.uleb128 0x11
 1823 0757 18000000 		.4byte	.LVL31
 1824 075b CE050000 		.4byte	0x5ce
ARM GAS  /tmp/ccTJfFF2.s 			page 33


 1825 075f 78070000 		.4byte	0x778
 1826 0763 02       		.uleb128 0x2
 1827 0764 01       		.uleb128 0x1
 1828 0765 50       		.byte	0x50
 1829 0766 02       		.uleb128 0x2
 1830 0767 74       		.byte	0x74
 1831 0768 00       		.sleb128 0
 1832 0769 02       		.uleb128 0x2
 1833 076a 01       		.uleb128 0x1
 1834 076b 51       		.byte	0x51
 1835 076c 03       		.uleb128 0x3
 1836 076d A3       		.byte	0xa3
 1837 076e 01       		.uleb128 0x1
 1838 076f 51       		.byte	0x51
 1839 0770 02       		.uleb128 0x2
 1840 0771 01       		.uleb128 0x1
 1841 0772 52       		.byte	0x52
 1842 0773 03       		.uleb128 0x3
 1843 0774 A3       		.byte	0xa3
 1844 0775 01       		.uleb128 0x1
 1845 0776 52       		.byte	0x52
 1846 0777 00       		.byte	0
 1847 0778 06       		.uleb128 0x6
 1848 0779 2C000000 		.4byte	.LVL32
 1849 077d BD050000 		.4byte	0x5bd
 1850 0781 02       		.uleb128 0x2
 1851 0782 01       		.uleb128 0x1
 1852 0783 50       		.byte	0x50
 1853 0784 01       		.uleb128 0x1
 1854 0785 32       		.byte	0x32
 1855 0786 00       		.byte	0
 1856 0787 00       		.byte	0
 1857 0788 0D       		.uleb128 0xd
 1858 0789 71000000 		.4byte	.LASF104
 1859 078d 5E01     		.2byte	0x15e
 1860 078f 00000000 		.4byte	.LFB19
 1861 0793 38000000 		.4byte	.LFE19-.LFB19
 1862 0797 01       		.uleb128 0x1
 1863 0798 9C       		.byte	0x9c
 1864 0799 09080000 		.4byte	0x809
 1865 079d 05       		.uleb128 0x5
 1866 079e BB050000 		.4byte	.LASF102
 1867 07a2 5E01     		.2byte	0x15e
 1868 07a4 19       		.byte	0x19
 1869 07a5 01050000 		.4byte	0x501
 1870 07a9 89000000 		.4byte	.LLST24
 1871 07ad 85000000 		.4byte	.LVUS24
 1872 07b1 10       		.uleb128 0x10
 1873 07b2 6E00     		.ascii	"n\000"
 1874 07b4 5E01     		.2byte	0x15e
 1875 07b6 26       		.byte	0x26
 1876 07b7 2D000000 		.4byte	0x2d
 1877 07bb 9D000000 		.4byte	.LLST25
 1878 07bf 99000000 		.4byte	.LVUS25
 1879 07c3 05       		.uleb128 0x5
 1880 07c4 B0010000 		.4byte	.LASF76
 1881 07c8 5E01     		.2byte	0x15e
ARM GAS  /tmp/ccTJfFF2.s 			page 34


 1882 07ca 35       		.byte	0x35
 1883 07cb 9A050000 		.4byte	0x59a
 1884 07cf B4000000 		.4byte	.LLST26
 1885 07d3 B0000000 		.4byte	.LVUS26
 1886 07d7 11       		.uleb128 0x11
 1887 07d8 18000000 		.4byte	.LVL28
 1888 07dc E9050000 		.4byte	0x5e9
 1889 07e0 F9070000 		.4byte	0x7f9
 1890 07e4 02       		.uleb128 0x2
 1891 07e5 01       		.uleb128 0x1
 1892 07e6 50       		.byte	0x50
 1893 07e7 02       		.uleb128 0x2
 1894 07e8 74       		.byte	0x74
 1895 07e9 00       		.sleb128 0
 1896 07ea 02       		.uleb128 0x2
 1897 07eb 01       		.uleb128 0x1
 1898 07ec 51       		.byte	0x51
 1899 07ed 03       		.uleb128 0x3
 1900 07ee A3       		.byte	0xa3
 1901 07ef 01       		.uleb128 0x1
 1902 07f0 51       		.byte	0x51
 1903 07f1 02       		.uleb128 0x2
 1904 07f2 01       		.uleb128 0x1
 1905 07f3 52       		.byte	0x52
 1906 07f4 03       		.uleb128 0x3
 1907 07f5 A3       		.byte	0xa3
 1908 07f6 01       		.uleb128 0x1
 1909 07f7 52       		.byte	0x52
 1910 07f8 00       		.byte	0
 1911 07f9 06       		.uleb128 0x6
 1912 07fa 2C000000 		.4byte	.LVL29
 1913 07fe BD050000 		.4byte	0x5bd
 1914 0802 02       		.uleb128 0x2
 1915 0803 01       		.uleb128 0x1
 1916 0804 50       		.byte	0x50
 1917 0805 01       		.uleb128 0x1
 1918 0806 32       		.byte	0x32
 1919 0807 00       		.byte	0
 1920 0808 00       		.byte	0
 1921 0809 0D       		.uleb128 0xd
 1922 080a 45040000 		.4byte	.LASF105
 1923 080e 3F01     		.2byte	0x13f
 1924 0810 00000000 		.4byte	.LFB18
 1925 0814 38000000 		.4byte	.LFE18-.LFB18
 1926 0818 01       		.uleb128 0x1
 1927 0819 9C       		.byte	0x9c
 1928 081a A5080000 		.4byte	0x8a5
 1929 081e 05       		.uleb128 0x5
 1930 081f BB050000 		.4byte	.LASF102
 1931 0823 3F01     		.2byte	0x13f
 1932 0825 1D       		.byte	0x1d
 1933 0826 01050000 		.4byte	0x501
 1934 082a CB000000 		.4byte	.LLST20
 1935 082e C7000000 		.4byte	.LVUS20
 1936 0832 10       		.uleb128 0x10
 1937 0833 6E00     		.ascii	"n\000"
 1938 0835 3F01     		.2byte	0x13f
ARM GAS  /tmp/ccTJfFF2.s 			page 35


 1939 0837 2A       		.byte	0x2a
 1940 0838 2D000000 		.4byte	0x2d
 1941 083c DF000000 		.4byte	.LLST21
 1942 0840 DB000000 		.4byte	.LVUS21
 1943 0844 05       		.uleb128 0x5
 1944 0845 B0010000 		.4byte	.LASF76
 1945 0849 4001     		.2byte	0x140
 1946 084b 22       		.byte	0x22
 1947 084c 9A050000 		.4byte	0x59a
 1948 0850 F6000000 		.4byte	.LLST22
 1949 0854 F2000000 		.4byte	.LVUS22
 1950 0858 05       		.uleb128 0x5
 1951 0859 C0050000 		.4byte	.LASF75
 1952 085d 4001     		.2byte	0x140
 1953 085f 2F       		.byte	0x2f
 1954 0860 98020000 		.4byte	0x298
 1955 0864 0D010000 		.4byte	.LLST23
 1956 0868 09010000 		.4byte	.LVUS23
 1957 086c 11       		.uleb128 0x11
 1958 086d 18000000 		.4byte	.LVL25
 1959 0871 04060000 		.4byte	0x604
 1960 0875 95080000 		.4byte	0x895
 1961 0879 02       		.uleb128 0x2
 1962 087a 01       		.uleb128 0x1
 1963 087b 50       		.byte	0x50
 1964 087c 02       		.uleb128 0x2
 1965 087d 74       		.byte	0x74
 1966 087e 00       		.sleb128 0
 1967 087f 02       		.uleb128 0x2
 1968 0880 01       		.uleb128 0x1
 1969 0881 51       		.byte	0x51
 1970 0882 03       		.uleb128 0x3
 1971 0883 A3       		.byte	0xa3
 1972 0884 01       		.uleb128 0x1
 1973 0885 51       		.byte	0x51
 1974 0886 02       		.uleb128 0x2
 1975 0887 01       		.uleb128 0x1
 1976 0888 52       		.byte	0x52
 1977 0889 03       		.uleb128 0x3
 1978 088a A3       		.byte	0xa3
 1979 088b 01       		.uleb128 0x1
 1980 088c 52       		.byte	0x52
 1981 088d 02       		.uleb128 0x2
 1982 088e 01       		.uleb128 0x1
 1983 088f 53       		.byte	0x53
 1984 0890 03       		.uleb128 0x3
 1985 0891 A3       		.byte	0xa3
 1986 0892 01       		.uleb128 0x1
 1987 0893 53       		.byte	0x53
 1988 0894 00       		.byte	0
 1989 0895 06       		.uleb128 0x6
 1990 0896 2C000000 		.4byte	.LVL26
 1991 089a BD050000 		.4byte	0x5bd
 1992 089e 02       		.uleb128 0x2
 1993 089f 01       		.uleb128 0x1
 1994 08a0 50       		.byte	0x50
 1995 08a1 01       		.uleb128 0x1
ARM GAS  /tmp/ccTJfFF2.s 			page 36


 1996 08a2 32       		.byte	0x32
 1997 08a3 00       		.byte	0
 1998 08a4 00       		.byte	0
 1999 08a5 0D       		.uleb128 0xd
 2000 08a6 9B050000 		.4byte	.LASF106
 2001 08aa 2101     		.2byte	0x121
 2002 08ac 00000000 		.4byte	.LFB17
 2003 08b0 38000000 		.4byte	.LFE17-.LFB17
 2004 08b4 01       		.uleb128 0x1
 2005 08b5 9C       		.byte	0x9c
 2006 08b6 0B090000 		.4byte	0x90b
 2007 08ba 05       		.uleb128 0x5
 2008 08bb BB050000 		.4byte	.LASF102
 2009 08bf 2101     		.2byte	0x121
 2010 08c1 1B       		.byte	0x1b
 2011 08c2 01050000 		.4byte	0x501
 2012 08c6 24010000 		.4byte	.LLST18
 2013 08ca 20010000 		.4byte	.LVUS18
 2014 08ce 10       		.uleb128 0x10
 2015 08cf 6E00     		.ascii	"n\000"
 2016 08d1 2101     		.2byte	0x121
 2017 08d3 28       		.byte	0x28
 2018 08d4 2D000000 		.4byte	0x2d
 2019 08d8 38010000 		.4byte	.LLST19
 2020 08dc 34010000 		.4byte	.LVUS19
 2021 08e0 11       		.uleb128 0x11
 2022 08e1 18000000 		.4byte	.LVL22
 2023 08e5 24060000 		.4byte	0x624
 2024 08e9 FB080000 		.4byte	0x8fb
 2025 08ed 02       		.uleb128 0x2
 2026 08ee 01       		.uleb128 0x1
 2027 08ef 50       		.byte	0x50
 2028 08f0 02       		.uleb128 0x2
 2029 08f1 74       		.byte	0x74
 2030 08f2 00       		.sleb128 0
 2031 08f3 02       		.uleb128 0x2
 2032 08f4 01       		.uleb128 0x1
 2033 08f5 51       		.byte	0x51
 2034 08f6 03       		.uleb128 0x3
 2035 08f7 A3       		.byte	0xa3
 2036 08f8 01       		.uleb128 0x1
 2037 08f9 51       		.byte	0x51
 2038 08fa 00       		.byte	0
 2039 08fb 06       		.uleb128 0x6
 2040 08fc 2C000000 		.4byte	.LVL23
 2041 0900 BD050000 		.4byte	0x5bd
 2042 0904 02       		.uleb128 0x2
 2043 0905 01       		.uleb128 0x1
 2044 0906 50       		.byte	0x50
 2045 0907 01       		.uleb128 0x1
 2046 0908 32       		.byte	0x32
 2047 0909 00       		.byte	0
 2048 090a 00       		.byte	0
 2049 090b 0D       		.uleb128 0xd
 2050 090c 61000000 		.4byte	.LASF107
 2051 0910 0701     		.2byte	0x107
 2052 0912 00000000 		.4byte	.LFB16
ARM GAS  /tmp/ccTJfFF2.s 			page 37


 2053 0916 1C000000 		.4byte	.LFE16-.LFB16
 2054 091a 01       		.uleb128 0x1
 2055 091b 9C       		.byte	0x9c
 2056 091c 7A090000 		.4byte	0x97a
 2057 0920 05       		.uleb128 0x5
 2058 0921 BB050000 		.4byte	.LASF102
 2059 0925 0701     		.2byte	0x107
 2060 0927 21       		.byte	0x21
 2061 0928 01050000 		.4byte	0x501
 2062 092c 4F010000 		.4byte	.LLST15
 2063 0930 4B010000 		.4byte	.LVUS15
 2064 0934 10       		.uleb128 0x10
 2065 0935 6E00     		.ascii	"n\000"
 2066 0937 0701     		.2byte	0x107
 2067 0939 2E       		.byte	0x2e
 2068 093a 2D000000 		.4byte	0x2d
 2069 093e 66010000 		.4byte	.LLST16
 2070 0942 62010000 		.4byte	.LVUS16
 2071 0946 05       		.uleb128 0x5
 2072 0947 C0050000 		.4byte	.LASF75
 2073 094b 0701     		.2byte	0x107
 2074 094d 37       		.byte	0x37
 2075 094e 98020000 		.4byte	0x298
 2076 0952 7D010000 		.4byte	.LLST17
 2077 0956 79010000 		.4byte	.LVUS17
 2078 095a 06       		.uleb128 0x6
 2079 095b 14000000 		.4byte	.LVL20
 2080 095f CE050000 		.4byte	0x5ce
 2081 0963 02       		.uleb128 0x2
 2082 0964 01       		.uleb128 0x1
 2083 0965 50       		.byte	0x50
 2084 0966 03       		.uleb128 0x3
 2085 0967 A3       		.byte	0xa3
 2086 0968 01       		.uleb128 0x1
 2087 0969 50       		.byte	0x50
 2088 096a 02       		.uleb128 0x2
 2089 096b 01       		.uleb128 0x1
 2090 096c 51       		.byte	0x51
 2091 096d 03       		.uleb128 0x3
 2092 096e A3       		.byte	0xa3
 2093 096f 01       		.uleb128 0x1
 2094 0970 51       		.byte	0x51
 2095 0971 02       		.uleb128 0x2
 2096 0972 01       		.uleb128 0x1
 2097 0973 52       		.byte	0x52
 2098 0974 03       		.uleb128 0x3
 2099 0975 A3       		.byte	0xa3
 2100 0976 01       		.uleb128 0x1
 2101 0977 52       		.byte	0x52
 2102 0978 00       		.byte	0
 2103 0979 00       		.byte	0
 2104 097a 0C       		.uleb128 0xc
 2105 097b 48050000 		.4byte	.LASF108
 2106 097f ED       		.byte	0xed
 2107 0980 00000000 		.4byte	.LFB15
 2108 0984 1C000000 		.4byte	.LFE15-.LFB15
 2109 0988 01       		.uleb128 0x1
ARM GAS  /tmp/ccTJfFF2.s 			page 38


 2110 0989 9C       		.byte	0x9c
 2111 098a E5090000 		.4byte	0x9e5
 2112 098e 07       		.uleb128 0x7
 2113 098f BB050000 		.4byte	.LASF102
 2114 0993 ED       		.byte	0xed
 2115 0994 1E       		.byte	0x1e
 2116 0995 01050000 		.4byte	0x501
 2117 0999 94010000 		.4byte	.LLST12
 2118 099d 90010000 		.4byte	.LVUS12
 2119 09a1 14       		.uleb128 0x14
 2120 09a2 6E00     		.ascii	"n\000"
 2121 09a4 ED       		.byte	0xed
 2122 09a5 2B       		.byte	0x2b
 2123 09a6 2D000000 		.4byte	0x2d
 2124 09aa AB010000 		.4byte	.LLST13
 2125 09ae A7010000 		.4byte	.LVUS13
 2126 09b2 07       		.uleb128 0x7
 2127 09b3 B0010000 		.4byte	.LASF76
 2128 09b7 ED       		.byte	0xed
 2129 09b8 3A       		.byte	0x3a
 2130 09b9 9A050000 		.4byte	0x59a
 2131 09bd C2010000 		.4byte	.LLST14
 2132 09c1 BE010000 		.4byte	.LVUS14
 2133 09c5 06       		.uleb128 0x6
 2134 09c6 14000000 		.4byte	.LVL18
 2135 09ca E9050000 		.4byte	0x5e9
 2136 09ce 02       		.uleb128 0x2
 2137 09cf 01       		.uleb128 0x1
 2138 09d0 50       		.byte	0x50
 2139 09d1 03       		.uleb128 0x3
 2140 09d2 A3       		.byte	0xa3
 2141 09d3 01       		.uleb128 0x1
 2142 09d4 50       		.byte	0x50
 2143 09d5 02       		.uleb128 0x2
 2144 09d6 01       		.uleb128 0x1
 2145 09d7 51       		.byte	0x51
 2146 09d8 03       		.uleb128 0x3
 2147 09d9 A3       		.byte	0xa3
 2148 09da 01       		.uleb128 0x1
 2149 09db 51       		.byte	0x51
 2150 09dc 02       		.uleb128 0x2
 2151 09dd 01       		.uleb128 0x1
 2152 09de 52       		.byte	0x52
 2153 09df 03       		.uleb128 0x3
 2154 09e0 A3       		.byte	0xa3
 2155 09e1 01       		.uleb128 0x1
 2156 09e2 52       		.byte	0x52
 2157 09e3 00       		.byte	0
 2158 09e4 00       		.byte	0
 2159 09e5 0C       		.uleb128 0xc
 2160 09e6 CD040000 		.4byte	.LASF109
 2161 09ea D2       		.byte	0xd2
 2162 09eb 00000000 		.4byte	.LFB14
 2163 09ef 1C000000 		.4byte	.LFE14-.LFB14
 2164 09f3 01       		.uleb128 0x1
 2165 09f4 9C       		.byte	0x9c
 2166 09f5 6A0A0000 		.4byte	0xa6a
ARM GAS  /tmp/ccTJfFF2.s 			page 39


 2167 09f9 07       		.uleb128 0x7
 2168 09fa BB050000 		.4byte	.LASF102
 2169 09fe D2       		.byte	0xd2
 2170 09ff 22       		.byte	0x22
 2171 0a00 01050000 		.4byte	0x501
 2172 0a04 D9010000 		.4byte	.LLST8
 2173 0a08 D5010000 		.4byte	.LVUS8
 2174 0a0c 14       		.uleb128 0x14
 2175 0a0d 6E00     		.ascii	"n\000"
 2176 0a0f D2       		.byte	0xd2
 2177 0a10 2F       		.byte	0x2f
 2178 0a11 2D000000 		.4byte	0x2d
 2179 0a15 F0010000 		.4byte	.LLST9
 2180 0a19 EC010000 		.4byte	.LVUS9
 2181 0a1d 07       		.uleb128 0x7
 2182 0a1e B0010000 		.4byte	.LASF76
 2183 0a22 D3       		.byte	0xd3
 2184 0a23 23       		.byte	0x23
 2185 0a24 9A050000 		.4byte	0x59a
 2186 0a28 07020000 		.4byte	.LLST10
 2187 0a2c 03020000 		.4byte	.LVUS10
 2188 0a30 07       		.uleb128 0x7
 2189 0a31 C0050000 		.4byte	.LASF75
 2190 0a35 D3       		.byte	0xd3
 2191 0a36 30       		.byte	0x30
 2192 0a37 98020000 		.4byte	0x298
 2193 0a3b 1E020000 		.4byte	.LLST11
 2194 0a3f 1A020000 		.4byte	.LVUS11
 2195 0a43 06       		.uleb128 0x6
 2196 0a44 14000000 		.4byte	.LVL16
 2197 0a48 04060000 		.4byte	0x604
 2198 0a4c 02       		.uleb128 0x2
 2199 0a4d 01       		.uleb128 0x1
 2200 0a4e 50       		.byte	0x50
 2201 0a4f 03       		.uleb128 0x3
 2202 0a50 A3       		.byte	0xa3
 2203 0a51 01       		.uleb128 0x1
 2204 0a52 50       		.byte	0x50
 2205 0a53 02       		.uleb128 0x2
 2206 0a54 01       		.uleb128 0x1
 2207 0a55 51       		.byte	0x51
 2208 0a56 03       		.uleb128 0x3
 2209 0a57 A3       		.byte	0xa3
 2210 0a58 01       		.uleb128 0x1
 2211 0a59 51       		.byte	0x51
 2212 0a5a 02       		.uleb128 0x2
 2213 0a5b 01       		.uleb128 0x1
 2214 0a5c 52       		.byte	0x52
 2215 0a5d 03       		.uleb128 0x3
 2216 0a5e A3       		.byte	0xa3
 2217 0a5f 01       		.uleb128 0x1
 2218 0a60 52       		.byte	0x52
 2219 0a61 02       		.uleb128 0x2
 2220 0a62 01       		.uleb128 0x1
 2221 0a63 53       		.byte	0x53
 2222 0a64 03       		.uleb128 0x3
 2223 0a65 A3       		.byte	0xa3
ARM GAS  /tmp/ccTJfFF2.s 			page 40


 2224 0a66 01       		.uleb128 0x1
 2225 0a67 53       		.byte	0x53
 2226 0a68 00       		.byte	0
 2227 0a69 00       		.byte	0
 2228 0a6a 0C       		.uleb128 0xc
 2229 0a6b 12050000 		.4byte	.LASF110
 2230 0a6f B7       		.byte	0xb7
 2231 0a70 00000000 		.4byte	.LFB13
 2232 0a74 1C000000 		.4byte	.LFE13-.LFB13
 2233 0a78 01       		.uleb128 0x1
 2234 0a79 9C       		.byte	0x9c
 2235 0a7a BB0A0000 		.4byte	0xabb
 2236 0a7e 07       		.uleb128 0x7
 2237 0a7f BB050000 		.4byte	.LASF102
 2238 0a83 B7       		.byte	0xb7
 2239 0a84 20       		.byte	0x20
 2240 0a85 01050000 		.4byte	0x501
 2241 0a89 35020000 		.4byte	.LLST6
 2242 0a8d 31020000 		.4byte	.LVUS6
 2243 0a91 14       		.uleb128 0x14
 2244 0a92 6E00     		.ascii	"n\000"
 2245 0a94 B7       		.byte	0xb7
 2246 0a95 2D       		.byte	0x2d
 2247 0a96 2D000000 		.4byte	0x2d
 2248 0a9a 4C020000 		.4byte	.LLST7
 2249 0a9e 48020000 		.4byte	.LVUS7
 2250 0aa2 06       		.uleb128 0x6
 2251 0aa3 14000000 		.4byte	.LVL14
 2252 0aa7 24060000 		.4byte	0x624
 2253 0aab 02       		.uleb128 0x2
 2254 0aac 01       		.uleb128 0x1
 2255 0aad 50       		.byte	0x50
 2256 0aae 03       		.uleb128 0x3
 2257 0aaf A3       		.byte	0xa3
 2258 0ab0 01       		.uleb128 0x1
 2259 0ab1 50       		.byte	0x50
 2260 0ab2 02       		.uleb128 0x2
 2261 0ab3 01       		.uleb128 0x1
 2262 0ab4 51       		.byte	0x51
 2263 0ab5 03       		.uleb128 0x3
 2264 0ab6 A3       		.byte	0xa3
 2265 0ab7 01       		.uleb128 0x1
 2266 0ab8 51       		.byte	0x51
 2267 0ab9 00       		.byte	0
 2268 0aba 00       		.byte	0
 2269 0abb 0C       		.uleb128 0xc
 2270 0abc 3C050000 		.4byte	.LASF111
 2271 0ac0 A0       		.byte	0xa0
 2272 0ac1 00000000 		.4byte	.LFB12
 2273 0ac5 14000000 		.4byte	.LFE12-.LFB12
 2274 0ac9 01       		.uleb128 0x1
 2275 0aca 9C       		.byte	0x9c
 2276 0acb F40A0000 		.4byte	0xaf4
 2277 0acf 07       		.uleb128 0x7
 2278 0ad0 BB050000 		.4byte	.LASF102
 2279 0ad4 A0       		.byte	0xa0
 2280 0ad5 1D       		.byte	0x1d
ARM GAS  /tmp/ccTJfFF2.s 			page 41


 2281 0ad6 01050000 		.4byte	0x501
 2282 0ada 63020000 		.4byte	.LLST5
 2283 0ade 5F020000 		.4byte	.LVUS5
 2284 0ae2 06       		.uleb128 0x6
 2285 0ae3 0C000000 		.4byte	.LVL12
 2286 0ae7 5C060000 		.4byte	0x65c
 2287 0aeb 02       		.uleb128 0x2
 2288 0aec 01       		.uleb128 0x1
 2289 0aed 50       		.byte	0x50
 2290 0aee 03       		.uleb128 0x3
 2291 0aef A3       		.byte	0xa3
 2292 0af0 01       		.uleb128 0x1
 2293 0af1 50       		.byte	0x50
 2294 0af2 00       		.byte	0
 2295 0af3 00       		.byte	0
 2296 0af4 0C       		.uleb128 0xc
 2297 0af5 C9010000 		.4byte	.LASF112
 2298 0af9 8E       		.byte	0x8e
 2299 0afa 00000000 		.4byte	.LFB11
 2300 0afe 14000000 		.4byte	.LFE11-.LFB11
 2301 0b02 01       		.uleb128 0x1
 2302 0b03 9C       		.byte	0x9c
 2303 0b04 2D0B0000 		.4byte	0xb2d
 2304 0b08 07       		.uleb128 0x7
 2305 0b09 BB050000 		.4byte	.LASF102
 2306 0b0d 8E       		.byte	0x8e
 2307 0b0e 1B       		.byte	0x1b
 2308 0b0f 01050000 		.4byte	0x501
 2309 0b13 7A020000 		.4byte	.LLST4
 2310 0b17 76020000 		.4byte	.LVUS4
 2311 0b1b 06       		.uleb128 0x6
 2312 0b1c 0C000000 		.4byte	.LVL10
 2313 0b20 3A060000 		.4byte	0x63a
 2314 0b24 02       		.uleb128 0x2
 2315 0b25 01       		.uleb128 0x1
 2316 0b26 50       		.byte	0x50
 2317 0b27 03       		.uleb128 0x3
 2318 0b28 A3       		.byte	0xa3
 2319 0b29 01       		.uleb128 0x1
 2320 0b2a 50       		.byte	0x50
 2321 0b2b 00       		.byte	0
 2322 0b2c 00       		.byte	0
 2323 0b2d 0C       		.uleb128 0xc
 2324 0b2e 85030000 		.4byte	.LASF113
 2325 0b32 7A       		.byte	0x7a
 2326 0b33 00000000 		.4byte	.LFB10
 2327 0b37 28000000 		.4byte	.LFE10-.LFB10
 2328 0b3b 01       		.uleb128 0x1
 2329 0b3c 9C       		.byte	0x9c
 2330 0b3d 790B0000 		.4byte	0xb79
 2331 0b41 07       		.uleb128 0x7
 2332 0b42 BB050000 		.4byte	.LASF102
 2333 0b46 7A       		.byte	0x7a
 2334 0b47 19       		.byte	0x19
 2335 0b48 01050000 		.4byte	0x501
 2336 0b4c 91020000 		.4byte	.LLST3
 2337 0b50 8D020000 		.4byte	.LVUS3
ARM GAS  /tmp/ccTJfFF2.s 			page 42


 2338 0b54 11       		.uleb128 0x11
 2339 0b55 10000000 		.4byte	.LVL7
 2340 0b59 5C060000 		.4byte	0x65c
 2341 0b5d 680B0000 		.4byte	0xb68
 2342 0b61 02       		.uleb128 0x2
 2343 0b62 01       		.uleb128 0x1
 2344 0b63 50       		.byte	0x50
 2345 0b64 02       		.uleb128 0x2
 2346 0b65 74       		.byte	0x74
 2347 0b66 00       		.sleb128 0
 2348 0b67 00       		.byte	0
 2349 0b68 06       		.uleb128 0x6
 2350 0b69 18000000 		.4byte	.LVL8
 2351 0b6d 4B060000 		.4byte	0x64b
 2352 0b71 02       		.uleb128 0x2
 2353 0b72 01       		.uleb128 0x1
 2354 0b73 50       		.byte	0x50
 2355 0b74 02       		.uleb128 0x2
 2356 0b75 74       		.byte	0x74
 2357 0b76 00       		.sleb128 0
 2358 0b77 00       		.byte	0
 2359 0b78 00       		.byte	0
 2360 0b79 0C       		.uleb128 0xc
 2361 0b7a C0010000 		.4byte	.LASF114
 2362 0b7e 64       		.byte	0x64
 2363 0b7f 00000000 		.4byte	.LFB9
 2364 0b83 24000000 		.4byte	.LFE9-.LFB9
 2365 0b87 01       		.uleb128 0x1
 2366 0b88 9C       		.byte	0x9c
 2367 0b89 C40B0000 		.4byte	0xbc4
 2368 0b8d 07       		.uleb128 0x7
 2369 0b8e BB050000 		.4byte	.LASF102
 2370 0b92 64       		.byte	0x64
 2371 0b93 1A       		.byte	0x1a
 2372 0b94 01050000 		.4byte	0x501
 2373 0b98 A5020000 		.4byte	.LLST1
 2374 0b9c A1020000 		.4byte	.LVUS1
 2375 0ba0 07       		.uleb128 0x7
 2376 0ba1 DA030000 		.4byte	.LASF72
 2377 0ba5 64       		.byte	0x64
 2378 0ba6 31       		.byte	0x31
 2379 0ba7 95050000 		.4byte	0x595
 2380 0bab B9020000 		.4byte	.LLST2
 2381 0baf B5020000 		.4byte	.LVUS2
 2382 0bb3 06       		.uleb128 0x6
 2383 0bb4 14000000 		.4byte	.LVL5
 2384 0bb8 6D060000 		.4byte	0x66d
 2385 0bbc 02       		.uleb128 0x2
 2386 0bbd 01       		.uleb128 0x1
 2387 0bbe 50       		.byte	0x50
 2388 0bbf 02       		.uleb128 0x2
 2389 0bc0 74       		.byte	0x74
 2390 0bc1 00       		.sleb128 0
 2391 0bc2 00       		.byte	0
 2392 0bc3 00       		.byte	0
 2393 0bc4 0C       		.uleb128 0xc
 2394 0bc5 3E010000 		.4byte	.LASF115
ARM GAS  /tmp/ccTJfFF2.s 			page 43


 2395 0bc9 49       		.byte	0x49
 2396 0bca 00000000 		.4byte	.LFB8
 2397 0bce 1C000000 		.4byte	.LFE8-.LFB8
 2398 0bd2 01       		.uleb128 0x1
 2399 0bd3 9C       		.byte	0x9c
 2400 0bd4 FF0B0000 		.4byte	0xbff
 2401 0bd8 07       		.uleb128 0x7
 2402 0bd9 BB050000 		.4byte	.LASF102
 2403 0bdd 49       		.byte	0x49
 2404 0bde 1F       		.byte	0x1f
 2405 0bdf 01050000 		.4byte	0x501
 2406 0be3 D2020000 		.4byte	.LLST0
 2407 0be7 CC020000 		.4byte	.LVUS0
 2408 0beb 17       		.uleb128 0x17
 2409 0bec 1C000000 		.4byte	.LVL3
 2410 0bf0 7E060000 		.4byte	0x67e
 2411 0bf4 02       		.uleb128 0x2
 2412 0bf5 01       		.uleb128 0x1
 2413 0bf6 50       		.byte	0x50
 2414 0bf7 05       		.uleb128 0x5
 2415 0bf8 A3       		.byte	0xa3
 2416 0bf9 01       		.uleb128 0x1
 2417 0bfa 50       		.byte	0x50
 2418 0bfb 23       		.byte	0x23
 2419 0bfc 0C       		.uleb128 0xc
 2420 0bfd 00       		.byte	0
 2421 0bfe 00       		.byte	0
 2422 0bff 23       		.uleb128 0x23
 2423 0c00 58030000 		.4byte	.LASF122
 2424 0c04 01       		.byte	0x1
 2425 0c05 3D       		.byte	0x3d
 2426 0c06 06       		.byte	0x6
 2427 0c07 00000000 		.4byte	.LFB7
 2428 0c0b 04000000 		.4byte	.LFE7-.LFB7
 2429 0c0f 01       		.uleb128 0x1
 2430 0c10 9C       		.byte	0x9c
 2431 0c11 16       		.uleb128 0x16
 2432 0c12 04000000 		.4byte	.LVL0
 2433 0c16 8F060000 		.4byte	0x68f
 2434 0c1a 00       		.byte	0
 2435 0c1b 00       		.byte	0
 2436              		.section	.debug_abbrev,"",%progbits
 2437              	.Ldebug_abbrev0:
 2438 0000 01       		.uleb128 0x1
 2439 0001 0D       		.uleb128 0xd
 2440 0002 00       		.byte	0
 2441 0003 03       		.uleb128 0x3
 2442 0004 0E       		.uleb128 0xe
 2443 0005 3A       		.uleb128 0x3a
 2444 0006 0B       		.uleb128 0xb
 2445 0007 3B       		.uleb128 0x3b
 2446 0008 0B       		.uleb128 0xb
 2447 0009 39       		.uleb128 0x39
 2448 000a 0B       		.uleb128 0xb
 2449 000b 49       		.uleb128 0x49
 2450 000c 13       		.uleb128 0x13
 2451 000d 38       		.uleb128 0x38
ARM GAS  /tmp/ccTJfFF2.s 			page 44


 2452 000e 0B       		.uleb128 0xb
 2453 000f 00       		.byte	0
 2454 0010 00       		.byte	0
 2455 0011 02       		.uleb128 0x2
 2456 0012 49       		.uleb128 0x49
 2457 0013 00       		.byte	0
 2458 0014 02       		.uleb128 0x2
 2459 0015 18       		.uleb128 0x18
 2460 0016 7E       		.uleb128 0x7e
 2461 0017 18       		.uleb128 0x18
 2462 0018 00       		.byte	0
 2463 0019 00       		.byte	0
 2464 001a 03       		.uleb128 0x3
 2465 001b 16       		.uleb128 0x16
 2466 001c 00       		.byte	0
 2467 001d 03       		.uleb128 0x3
 2468 001e 0E       		.uleb128 0xe
 2469 001f 3A       		.uleb128 0x3a
 2470 0020 0B       		.uleb128 0xb
 2471 0021 3B       		.uleb128 0x3b
 2472 0022 0B       		.uleb128 0xb
 2473 0023 39       		.uleb128 0x39
 2474 0024 0B       		.uleb128 0xb
 2475 0025 49       		.uleb128 0x49
 2476 0026 13       		.uleb128 0x13
 2477 0027 00       		.byte	0
 2478 0028 00       		.byte	0
 2479 0029 04       		.uleb128 0x4
 2480 002a 05       		.uleb128 0x5
 2481 002b 00       		.byte	0
 2482 002c 49       		.uleb128 0x49
 2483 002d 13       		.uleb128 0x13
 2484 002e 00       		.byte	0
 2485 002f 00       		.byte	0
 2486 0030 05       		.uleb128 0x5
 2487 0031 05       		.uleb128 0x5
 2488 0032 00       		.byte	0
 2489 0033 03       		.uleb128 0x3
 2490 0034 0E       		.uleb128 0xe
 2491 0035 3A       		.uleb128 0x3a
 2492 0036 21       		.uleb128 0x21
 2493 0037 01       		.sleb128 1
 2494 0038 3B       		.uleb128 0x3b
 2495 0039 05       		.uleb128 0x5
 2496 003a 39       		.uleb128 0x39
 2497 003b 0B       		.uleb128 0xb
 2498 003c 49       		.uleb128 0x49
 2499 003d 13       		.uleb128 0x13
 2500 003e 02       		.uleb128 0x2
 2501 003f 17       		.uleb128 0x17
 2502 0040 B742     		.uleb128 0x2137
 2503 0042 17       		.uleb128 0x17
 2504 0043 00       		.byte	0
 2505 0044 00       		.byte	0
 2506 0045 06       		.uleb128 0x6
 2507 0046 48       		.uleb128 0x48
 2508 0047 01       		.byte	0x1
ARM GAS  /tmp/ccTJfFF2.s 			page 45


 2509 0048 7D       		.uleb128 0x7d
 2510 0049 01       		.uleb128 0x1
 2511 004a 7F       		.uleb128 0x7f
 2512 004b 13       		.uleb128 0x13
 2513 004c 00       		.byte	0
 2514 004d 00       		.byte	0
 2515 004e 07       		.uleb128 0x7
 2516 004f 05       		.uleb128 0x5
 2517 0050 00       		.byte	0
 2518 0051 03       		.uleb128 0x3
 2519 0052 0E       		.uleb128 0xe
 2520 0053 3A       		.uleb128 0x3a
 2521 0054 21       		.uleb128 0x21
 2522 0055 01       		.sleb128 1
 2523 0056 3B       		.uleb128 0x3b
 2524 0057 0B       		.uleb128 0xb
 2525 0058 39       		.uleb128 0x39
 2526 0059 0B       		.uleb128 0xb
 2527 005a 49       		.uleb128 0x49
 2528 005b 13       		.uleb128 0x13
 2529 005c 02       		.uleb128 0x2
 2530 005d 17       		.uleb128 0x17
 2531 005e B742     		.uleb128 0x2137
 2532 0060 17       		.uleb128 0x17
 2533 0061 00       		.byte	0
 2534 0062 00       		.byte	0
 2535 0063 08       		.uleb128 0x8
 2536 0064 0D       		.uleb128 0xd
 2537 0065 00       		.byte	0
 2538 0066 03       		.uleb128 0x3
 2539 0067 08       		.uleb128 0x8
 2540 0068 3A       		.uleb128 0x3a
 2541 0069 0B       		.uleb128 0xb
 2542 006a 3B       		.uleb128 0x3b
 2543 006b 0B       		.uleb128 0xb
 2544 006c 39       		.uleb128 0x39
 2545 006d 0B       		.uleb128 0xb
 2546 006e 49       		.uleb128 0x49
 2547 006f 13       		.uleb128 0x13
 2548 0070 38       		.uleb128 0x38
 2549 0071 0B       		.uleb128 0xb
 2550 0072 00       		.byte	0
 2551 0073 00       		.byte	0
 2552 0074 09       		.uleb128 0x9
 2553 0075 2E       		.uleb128 0x2e
 2554 0076 01       		.byte	0x1
 2555 0077 3F       		.uleb128 0x3f
 2556 0078 19       		.uleb128 0x19
 2557 0079 03       		.uleb128 0x3
 2558 007a 0E       		.uleb128 0xe
 2559 007b 3A       		.uleb128 0x3a
 2560 007c 0B       		.uleb128 0xb
 2561 007d 3B       		.uleb128 0x3b
 2562 007e 0B       		.uleb128 0xb
 2563 007f 39       		.uleb128 0x39
 2564 0080 21       		.uleb128 0x21
 2565 0081 08       		.sleb128 8
ARM GAS  /tmp/ccTJfFF2.s 			page 46


 2566 0082 27       		.uleb128 0x27
 2567 0083 19       		.uleb128 0x19
 2568 0084 3C       		.uleb128 0x3c
 2569 0085 19       		.uleb128 0x19
 2570 0086 01       		.uleb128 0x1
 2571 0087 13       		.uleb128 0x13
 2572 0088 00       		.byte	0
 2573 0089 00       		.byte	0
 2574 008a 0A       		.uleb128 0xa
 2575 008b 24       		.uleb128 0x24
 2576 008c 00       		.byte	0
 2577 008d 0B       		.uleb128 0xb
 2578 008e 0B       		.uleb128 0xb
 2579 008f 3E       		.uleb128 0x3e
 2580 0090 0B       		.uleb128 0xb
 2581 0091 03       		.uleb128 0x3
 2582 0092 0E       		.uleb128 0xe
 2583 0093 00       		.byte	0
 2584 0094 00       		.byte	0
 2585 0095 0B       		.uleb128 0xb
 2586 0096 0F       		.uleb128 0xf
 2587 0097 00       		.byte	0
 2588 0098 0B       		.uleb128 0xb
 2589 0099 21       		.uleb128 0x21
 2590 009a 04       		.sleb128 4
 2591 009b 49       		.uleb128 0x49
 2592 009c 13       		.uleb128 0x13
 2593 009d 00       		.byte	0
 2594 009e 00       		.byte	0
 2595 009f 0C       		.uleb128 0xc
 2596 00a0 2E       		.uleb128 0x2e
 2597 00a1 01       		.byte	0x1
 2598 00a2 3F       		.uleb128 0x3f
 2599 00a3 19       		.uleb128 0x19
 2600 00a4 03       		.uleb128 0x3
 2601 00a5 0E       		.uleb128 0xe
 2602 00a6 3A       		.uleb128 0x3a
 2603 00a7 21       		.uleb128 0x21
 2604 00a8 01       		.sleb128 1
 2605 00a9 3B       		.uleb128 0x3b
 2606 00aa 0B       		.uleb128 0xb
 2607 00ab 39       		.uleb128 0x39
 2608 00ac 21       		.uleb128 0x21
 2609 00ad 06       		.sleb128 6
 2610 00ae 27       		.uleb128 0x27
 2611 00af 19       		.uleb128 0x19
 2612 00b0 11       		.uleb128 0x11
 2613 00b1 01       		.uleb128 0x1
 2614 00b2 12       		.uleb128 0x12
 2615 00b3 06       		.uleb128 0x6
 2616 00b4 40       		.uleb128 0x40
 2617 00b5 18       		.uleb128 0x18
 2618 00b6 7A       		.uleb128 0x7a
 2619 00b7 19       		.uleb128 0x19
 2620 00b8 01       		.uleb128 0x1
 2621 00b9 13       		.uleb128 0x13
 2622 00ba 00       		.byte	0
ARM GAS  /tmp/ccTJfFF2.s 			page 47


 2623 00bb 00       		.byte	0
 2624 00bc 0D       		.uleb128 0xd
 2625 00bd 2E       		.uleb128 0x2e
 2626 00be 01       		.byte	0x1
 2627 00bf 3F       		.uleb128 0x3f
 2628 00c0 19       		.uleb128 0x19
 2629 00c1 03       		.uleb128 0x3
 2630 00c2 0E       		.uleb128 0xe
 2631 00c3 3A       		.uleb128 0x3a
 2632 00c4 21       		.uleb128 0x21
 2633 00c5 01       		.sleb128 1
 2634 00c6 3B       		.uleb128 0x3b
 2635 00c7 05       		.uleb128 0x5
 2636 00c8 39       		.uleb128 0x39
 2637 00c9 21       		.uleb128 0x21
 2638 00ca 06       		.sleb128 6
 2639 00cb 27       		.uleb128 0x27
 2640 00cc 19       		.uleb128 0x19
 2641 00cd 11       		.uleb128 0x11
 2642 00ce 01       		.uleb128 0x1
 2643 00cf 12       		.uleb128 0x12
 2644 00d0 06       		.uleb128 0x6
 2645 00d1 40       		.uleb128 0x40
 2646 00d2 18       		.uleb128 0x18
 2647 00d3 7A       		.uleb128 0x7a
 2648 00d4 19       		.uleb128 0x19
 2649 00d5 01       		.uleb128 0x1
 2650 00d6 13       		.uleb128 0x13
 2651 00d7 00       		.byte	0
 2652 00d8 00       		.byte	0
 2653 00d9 0E       		.uleb128 0xe
 2654 00da 13       		.uleb128 0x13
 2655 00db 01       		.byte	0x1
 2656 00dc 03       		.uleb128 0x3
 2657 00dd 0E       		.uleb128 0xe
 2658 00de 0B       		.uleb128 0xb
 2659 00df 0B       		.uleb128 0xb
 2660 00e0 3A       		.uleb128 0x3a
 2661 00e1 0B       		.uleb128 0xb
 2662 00e2 3B       		.uleb128 0x3b
 2663 00e3 0B       		.uleb128 0xb
 2664 00e4 39       		.uleb128 0x39
 2665 00e5 0B       		.uleb128 0xb
 2666 00e6 01       		.uleb128 0x1
 2667 00e7 13       		.uleb128 0x13
 2668 00e8 00       		.byte	0
 2669 00e9 00       		.byte	0
 2670 00ea 0F       		.uleb128 0xf
 2671 00eb 28       		.uleb128 0x28
 2672 00ec 00       		.byte	0
 2673 00ed 03       		.uleb128 0x3
 2674 00ee 0E       		.uleb128 0xe
 2675 00ef 1C       		.uleb128 0x1c
 2676 00f0 0B       		.uleb128 0xb
 2677 00f1 00       		.byte	0
 2678 00f2 00       		.byte	0
 2679 00f3 10       		.uleb128 0x10
ARM GAS  /tmp/ccTJfFF2.s 			page 48


 2680 00f4 05       		.uleb128 0x5
 2681 00f5 00       		.byte	0
 2682 00f6 03       		.uleb128 0x3
 2683 00f7 08       		.uleb128 0x8
 2684 00f8 3A       		.uleb128 0x3a
 2685 00f9 21       		.uleb128 0x21
 2686 00fa 01       		.sleb128 1
 2687 00fb 3B       		.uleb128 0x3b
 2688 00fc 05       		.uleb128 0x5
 2689 00fd 39       		.uleb128 0x39
 2690 00fe 0B       		.uleb128 0xb
 2691 00ff 49       		.uleb128 0x49
 2692 0100 13       		.uleb128 0x13
 2693 0101 02       		.uleb128 0x2
 2694 0102 17       		.uleb128 0x17
 2695 0103 B742     		.uleb128 0x2137
 2696 0105 17       		.uleb128 0x17
 2697 0106 00       		.byte	0
 2698 0107 00       		.byte	0
 2699 0108 11       		.uleb128 0x11
 2700 0109 48       		.uleb128 0x48
 2701 010a 01       		.byte	0x1
 2702 010b 7D       		.uleb128 0x7d
 2703 010c 01       		.uleb128 0x1
 2704 010d 7F       		.uleb128 0x7f
 2705 010e 13       		.uleb128 0x13
 2706 010f 01       		.uleb128 0x1
 2707 0110 13       		.uleb128 0x13
 2708 0111 00       		.byte	0
 2709 0112 00       		.byte	0
 2710 0113 12       		.uleb128 0x12
 2711 0114 13       		.uleb128 0x13
 2712 0115 01       		.byte	0x1
 2713 0116 0B       		.uleb128 0xb
 2714 0117 0B       		.uleb128 0xb
 2715 0118 3A       		.uleb128 0x3a
 2716 0119 0B       		.uleb128 0xb
 2717 011a 3B       		.uleb128 0x3b
 2718 011b 0B       		.uleb128 0xb
 2719 011c 39       		.uleb128 0x39
 2720 011d 21       		.uleb128 0x21
 2721 011e 09       		.sleb128 9
 2722 011f 01       		.uleb128 0x1
 2723 0120 13       		.uleb128 0x13
 2724 0121 00       		.byte	0
 2725 0122 00       		.byte	0
 2726 0123 13       		.uleb128 0x13
 2727 0124 0D       		.uleb128 0xd
 2728 0125 00       		.byte	0
 2729 0126 03       		.uleb128 0x3
 2730 0127 0E       		.uleb128 0xe
 2731 0128 3A       		.uleb128 0x3a
 2732 0129 21       		.uleb128 0x21
 2733 012a 07       		.sleb128 7
 2734 012b 3B       		.uleb128 0x3b
 2735 012c 0B       		.uleb128 0xb
 2736 012d 39       		.uleb128 0x39
ARM GAS  /tmp/ccTJfFF2.s 			page 49


 2737 012e 0B       		.uleb128 0xb
 2738 012f 49       		.uleb128 0x49
 2739 0130 13       		.uleb128 0x13
 2740 0131 00       		.byte	0
 2741 0132 00       		.byte	0
 2742 0133 14       		.uleb128 0x14
 2743 0134 05       		.uleb128 0x5
 2744 0135 00       		.byte	0
 2745 0136 03       		.uleb128 0x3
 2746 0137 08       		.uleb128 0x8
 2747 0138 3A       		.uleb128 0x3a
 2748 0139 21       		.uleb128 0x21
 2749 013a 01       		.sleb128 1
 2750 013b 3B       		.uleb128 0x3b
 2751 013c 0B       		.uleb128 0xb
 2752 013d 39       		.uleb128 0x39
 2753 013e 0B       		.uleb128 0xb
 2754 013f 49       		.uleb128 0x49
 2755 0140 13       		.uleb128 0x13
 2756 0141 02       		.uleb128 0x2
 2757 0142 17       		.uleb128 0x17
 2758 0143 B742     		.uleb128 0x2137
 2759 0145 17       		.uleb128 0x17
 2760 0146 00       		.byte	0
 2761 0147 00       		.byte	0
 2762 0148 15       		.uleb128 0x15
 2763 0149 26       		.uleb128 0x26
 2764 014a 00       		.byte	0
 2765 014b 49       		.uleb128 0x49
 2766 014c 13       		.uleb128 0x13
 2767 014d 00       		.byte	0
 2768 014e 00       		.byte	0
 2769 014f 16       		.uleb128 0x16
 2770 0150 48       		.uleb128 0x48
 2771 0151 00       		.byte	0
 2772 0152 7D       		.uleb128 0x7d
 2773 0153 01       		.uleb128 0x1
 2774 0154 8201     		.uleb128 0x82
 2775 0156 19       		.uleb128 0x19
 2776 0157 7F       		.uleb128 0x7f
 2777 0158 13       		.uleb128 0x13
 2778 0159 00       		.byte	0
 2779 015a 00       		.byte	0
 2780 015b 17       		.uleb128 0x17
 2781 015c 48       		.uleb128 0x48
 2782 015d 01       		.byte	0x1
 2783 015e 7D       		.uleb128 0x7d
 2784 015f 01       		.uleb128 0x1
 2785 0160 8201     		.uleb128 0x82
 2786 0162 19       		.uleb128 0x19
 2787 0163 7F       		.uleb128 0x7f
 2788 0164 13       		.uleb128 0x13
 2789 0165 00       		.byte	0
 2790 0166 00       		.byte	0
 2791 0167 18       		.uleb128 0x18
 2792 0168 11       		.uleb128 0x11
 2793 0169 01       		.byte	0x1
ARM GAS  /tmp/ccTJfFF2.s 			page 50


 2794 016a 25       		.uleb128 0x25
 2795 016b 0E       		.uleb128 0xe
 2796 016c 13       		.uleb128 0x13
 2797 016d 0B       		.uleb128 0xb
 2798 016e 03       		.uleb128 0x3
 2799 016f 0E       		.uleb128 0xe
 2800 0170 1B       		.uleb128 0x1b
 2801 0171 0E       		.uleb128 0xe
 2802 0172 55       		.uleb128 0x55
 2803 0173 17       		.uleb128 0x17
 2804 0174 11       		.uleb128 0x11
 2805 0175 01       		.uleb128 0x1
 2806 0176 10       		.uleb128 0x10
 2807 0177 17       		.uleb128 0x17
 2808 0178 00       		.byte	0
 2809 0179 00       		.byte	0
 2810 017a 19       		.uleb128 0x19
 2811 017b 24       		.uleb128 0x24
 2812 017c 00       		.byte	0
 2813 017d 0B       		.uleb128 0xb
 2814 017e 0B       		.uleb128 0xb
 2815 017f 3E       		.uleb128 0x3e
 2816 0180 0B       		.uleb128 0xb
 2817 0181 03       		.uleb128 0x3
 2818 0182 08       		.uleb128 0x8
 2819 0183 00       		.byte	0
 2820 0184 00       		.byte	0
 2821 0185 1A       		.uleb128 0x1a
 2822 0186 35       		.uleb128 0x35
 2823 0187 00       		.byte	0
 2824 0188 49       		.uleb128 0x49
 2825 0189 13       		.uleb128 0x13
 2826 018a 00       		.byte	0
 2827 018b 00       		.byte	0
 2828 018c 1B       		.uleb128 0x1b
 2829 018d 0F       		.uleb128 0xf
 2830 018e 00       		.byte	0
 2831 018f 0B       		.uleb128 0xb
 2832 0190 0B       		.uleb128 0xb
 2833 0191 00       		.byte	0
 2834 0192 00       		.byte	0
 2835 0193 1C       		.uleb128 0x1c
 2836 0194 34       		.uleb128 0x34
 2837 0195 00       		.byte	0
 2838 0196 03       		.uleb128 0x3
 2839 0197 0E       		.uleb128 0xe
 2840 0198 3A       		.uleb128 0x3a
 2841 0199 0B       		.uleb128 0xb
 2842 019a 3B       		.uleb128 0x3b
 2843 019b 0B       		.uleb128 0xb
 2844 019c 39       		.uleb128 0x39
 2845 019d 0B       		.uleb128 0xb
 2846 019e 49       		.uleb128 0x49
 2847 019f 13       		.uleb128 0x13
 2848 01a0 3F       		.uleb128 0x3f
 2849 01a1 19       		.uleb128 0x19
 2850 01a2 3C       		.uleb128 0x3c
ARM GAS  /tmp/ccTJfFF2.s 			page 51


 2851 01a3 19       		.uleb128 0x19
 2852 01a4 00       		.byte	0
 2853 01a5 00       		.byte	0
 2854 01a6 1D       		.uleb128 0x1d
 2855 01a7 17       		.uleb128 0x17
 2856 01a8 01       		.byte	0x1
 2857 01a9 0B       		.uleb128 0xb
 2858 01aa 0B       		.uleb128 0xb
 2859 01ab 3A       		.uleb128 0x3a
 2860 01ac 0B       		.uleb128 0xb
 2861 01ad 3B       		.uleb128 0x3b
 2862 01ae 0B       		.uleb128 0xb
 2863 01af 39       		.uleb128 0x39
 2864 01b0 0B       		.uleb128 0xb
 2865 01b1 01       		.uleb128 0x1
 2866 01b2 13       		.uleb128 0x13
 2867 01b3 00       		.byte	0
 2868 01b4 00       		.byte	0
 2869 01b5 1E       		.uleb128 0x1e
 2870 01b6 04       		.uleb128 0x4
 2871 01b7 01       		.byte	0x1
 2872 01b8 3E       		.uleb128 0x3e
 2873 01b9 0B       		.uleb128 0xb
 2874 01ba 0B       		.uleb128 0xb
 2875 01bb 0B       		.uleb128 0xb
 2876 01bc 49       		.uleb128 0x49
 2877 01bd 13       		.uleb128 0x13
 2878 01be 3A       		.uleb128 0x3a
 2879 01bf 0B       		.uleb128 0xb
 2880 01c0 3B       		.uleb128 0x3b
 2881 01c1 0B       		.uleb128 0xb
 2882 01c2 39       		.uleb128 0x39
 2883 01c3 0B       		.uleb128 0xb
 2884 01c4 01       		.uleb128 0x1
 2885 01c5 13       		.uleb128 0x13
 2886 01c6 00       		.byte	0
 2887 01c7 00       		.byte	0
 2888 01c8 1F       		.uleb128 0x1f
 2889 01c9 15       		.uleb128 0x15
 2890 01ca 01       		.byte	0x1
 2891 01cb 27       		.uleb128 0x27
 2892 01cc 19       		.uleb128 0x19
 2893 01cd 01       		.uleb128 0x1
 2894 01ce 13       		.uleb128 0x13
 2895 01cf 00       		.byte	0
 2896 01d0 00       		.byte	0
 2897 01d1 20       		.uleb128 0x20
 2898 01d2 26       		.uleb128 0x26
 2899 01d3 00       		.byte	0
 2900 01d4 00       		.byte	0
 2901 01d5 00       		.byte	0
 2902 01d6 21       		.uleb128 0x21
 2903 01d7 2E       		.uleb128 0x2e
 2904 01d8 00       		.byte	0
 2905 01d9 3F       		.uleb128 0x3f
 2906 01da 19       		.uleb128 0x19
 2907 01db 03       		.uleb128 0x3
ARM GAS  /tmp/ccTJfFF2.s 			page 52


 2908 01dc 0E       		.uleb128 0xe
 2909 01dd 3A       		.uleb128 0x3a
 2910 01de 0B       		.uleb128 0xb
 2911 01df 3B       		.uleb128 0x3b
 2912 01e0 0B       		.uleb128 0xb
 2913 01e1 39       		.uleb128 0x39
 2914 01e2 0B       		.uleb128 0xb
 2915 01e3 27       		.uleb128 0x27
 2916 01e4 19       		.uleb128 0x19
 2917 01e5 49       		.uleb128 0x49
 2918 01e6 13       		.uleb128 0x13
 2919 01e7 3C       		.uleb128 0x3c
 2920 01e8 19       		.uleb128 0x19
 2921 01e9 00       		.byte	0
 2922 01ea 00       		.byte	0
 2923 01eb 22       		.uleb128 0x22
 2924 01ec 2E       		.uleb128 0x2e
 2925 01ed 00       		.byte	0
 2926 01ee 3F       		.uleb128 0x3f
 2927 01ef 19       		.uleb128 0x19
 2928 01f0 03       		.uleb128 0x3
 2929 01f1 0E       		.uleb128 0xe
 2930 01f2 3A       		.uleb128 0x3a
 2931 01f3 0B       		.uleb128 0xb
 2932 01f4 3B       		.uleb128 0x3b
 2933 01f5 0B       		.uleb128 0xb
 2934 01f6 39       		.uleb128 0x39
 2935 01f7 0B       		.uleb128 0xb
 2936 01f8 27       		.uleb128 0x27
 2937 01f9 19       		.uleb128 0x19
 2938 01fa 3C       		.uleb128 0x3c
 2939 01fb 19       		.uleb128 0x19
 2940 01fc 00       		.byte	0
 2941 01fd 00       		.byte	0
 2942 01fe 23       		.uleb128 0x23
 2943 01ff 2E       		.uleb128 0x2e
 2944 0200 01       		.byte	0x1
 2945 0201 3F       		.uleb128 0x3f
 2946 0202 19       		.uleb128 0x19
 2947 0203 03       		.uleb128 0x3
 2948 0204 0E       		.uleb128 0xe
 2949 0205 3A       		.uleb128 0x3a
 2950 0206 0B       		.uleb128 0xb
 2951 0207 3B       		.uleb128 0x3b
 2952 0208 0B       		.uleb128 0xb
 2953 0209 39       		.uleb128 0x39
 2954 020a 0B       		.uleb128 0xb
 2955 020b 27       		.uleb128 0x27
 2956 020c 19       		.uleb128 0x19
 2957 020d 11       		.uleb128 0x11
 2958 020e 01       		.uleb128 0x1
 2959 020f 12       		.uleb128 0x12
 2960 0210 06       		.uleb128 0x6
 2961 0211 40       		.uleb128 0x40
 2962 0212 18       		.uleb128 0x18
 2963 0213 7A       		.uleb128 0x7a
 2964 0214 19       		.uleb128 0x19
ARM GAS  /tmp/ccTJfFF2.s 			page 53


 2965 0215 00       		.byte	0
 2966 0216 00       		.byte	0
 2967 0217 00       		.byte	0
 2968              		.section	.debug_loclists,"",%progbits
 2969 0000 E8020000 		.4byte	.Ldebug_loc3-.Ldebug_loc2
 2970              	.Ldebug_loc2:
 2971 0004 0500     		.2byte	0x5
 2972 0006 04       		.byte	0x4
 2973 0007 00       		.byte	0
 2974 0008 00000000 		.4byte	0
 2975              	.Ldebug_loc0:
 2976              	.LVUS31:
 2977 000c 00       		.uleb128 0
 2978 000d 00       		.uleb128 .LVU264
 2979 000e 00       		.uleb128 .LVU264
 2980 000f 00       		.uleb128 0
 2981              	.LLST31:
 2982 0010 06       		.byte	0x6
 2983 0011 00000000 		.4byte	.LVL36
 2984 0015 04       		.byte	0x4
 2985 0016 00       		.uleb128 .LVL36-.LVL36
 2986 0017 03       		.uleb128 .LVL37-1-.LVL36
 2987 0018 01       		.uleb128 0x1
 2988 0019 50       		.byte	0x50
 2989 001a 04       		.byte	0x4
 2990 001b 03       		.uleb128 .LVL37-1-.LVL36
 2991 001c 04       		.uleb128 .LFE22-.LVL36
 2992 001d 04       		.uleb128 0x4
 2993 001e A3       		.byte	0xa3
 2994 001f 01       		.uleb128 0x1
 2995 0020 50       		.byte	0x50
 2996 0021 9F       		.byte	0x9f
 2997 0022 00       		.byte	0
 2998              	.LVUS30:
 2999 0023 00       		.uleb128 0
 3000 0024 00       		.uleb128 .LVU257
 3001 0025 00       		.uleb128 .LVU257
 3002 0026 00       		.uleb128 .LVU258
 3003 0027 00       		.uleb128 .LVU258
 3004 0028 00       		.uleb128 0
 3005              	.LLST30:
 3006 0029 06       		.byte	0x6
 3007 002a 00000000 		.4byte	.LVL33
 3008 002e 04       		.byte	0x4
 3009 002f 00       		.uleb128 .LVL33-.LVL33
 3010 0030 04       		.uleb128 .LVL34-.LVL33
 3011 0031 01       		.uleb128 0x1
 3012 0032 50       		.byte	0x50
 3013 0033 04       		.byte	0x4
 3014 0034 04       		.uleb128 .LVL34-.LVL33
 3015 0035 07       		.uleb128 .LVL35-1-.LVL33
 3016 0036 03       		.uleb128 0x3
 3017 0037 70       		.byte	0x70
 3018 0038 74       		.sleb128 -12
 3019 0039 9F       		.byte	0x9f
 3020 003a 04       		.byte	0x4
 3021 003b 07       		.uleb128 .LVL35-1-.LVL33
ARM GAS  /tmp/ccTJfFF2.s 			page 54


 3022 003c 08       		.uleb128 .LFE21-.LVL33
 3023 003d 04       		.uleb128 0x4
 3024 003e A3       		.byte	0xa3
 3025 003f 01       		.uleb128 0x1
 3026 0040 50       		.byte	0x50
 3027 0041 9F       		.byte	0x9f
 3028 0042 00       		.byte	0
 3029              	.LVUS27:
 3030 0043 00       		.uleb128 0
 3031 0044 00       		.uleb128 .LVU243
 3032 0045 00       		.uleb128 .LVU243
 3033 0046 00       		.uleb128 0
 3034              	.LLST27:
 3035 0047 06       		.byte	0x6
 3036 0048 00000000 		.4byte	.LVL30
 3037 004c 04       		.byte	0x4
 3038 004d 00       		.uleb128 .LVL30-.LVL30
 3039 004e 17       		.uleb128 .LVL31-1-.LVL30
 3040 004f 01       		.uleb128 0x1
 3041 0050 50       		.byte	0x50
 3042 0051 04       		.byte	0x4
 3043 0052 17       		.uleb128 .LVL31-1-.LVL30
 3044 0053 38       		.uleb128 .LFE20-.LVL30
 3045 0054 01       		.uleb128 0x1
 3046 0055 54       		.byte	0x54
 3047 0056 00       		.byte	0
 3048              	.LVUS28:
 3049 0057 00       		.uleb128 0
 3050 0058 00       		.uleb128 .LVU243
 3051 0059 00       		.uleb128 .LVU243
 3052 005a 00       		.uleb128 0
 3053              	.LLST28:
 3054 005b 06       		.byte	0x6
 3055 005c 00000000 		.4byte	.LVL30
 3056 0060 04       		.byte	0x4
 3057 0061 00       		.uleb128 .LVL30-.LVL30
 3058 0062 17       		.uleb128 .LVL31-1-.LVL30
 3059 0063 01       		.uleb128 0x1
 3060 0064 51       		.byte	0x51
 3061 0065 04       		.byte	0x4
 3062 0066 17       		.uleb128 .LVL31-1-.LVL30
 3063 0067 38       		.uleb128 .LFE20-.LVL30
 3064 0068 04       		.uleb128 0x4
 3065 0069 A3       		.byte	0xa3
 3066 006a 01       		.uleb128 0x1
 3067 006b 51       		.byte	0x51
 3068 006c 9F       		.byte	0x9f
 3069 006d 00       		.byte	0
 3070              	.LVUS29:
 3071 006e 00       		.uleb128 0
 3072 006f 00       		.uleb128 .LVU243
 3073 0070 00       		.uleb128 .LVU243
 3074 0071 00       		.uleb128 0
 3075              	.LLST29:
 3076 0072 06       		.byte	0x6
 3077 0073 00000000 		.4byte	.LVL30
 3078 0077 04       		.byte	0x4
ARM GAS  /tmp/ccTJfFF2.s 			page 55


 3079 0078 00       		.uleb128 .LVL30-.LVL30
 3080 0079 17       		.uleb128 .LVL31-1-.LVL30
 3081 007a 01       		.uleb128 0x1
 3082 007b 52       		.byte	0x52
 3083 007c 04       		.byte	0x4
 3084 007d 17       		.uleb128 .LVL31-1-.LVL30
 3085 007e 38       		.uleb128 .LFE20-.LVL30
 3086 007f 04       		.uleb128 0x4
 3087 0080 A3       		.byte	0xa3
 3088 0081 01       		.uleb128 0x1
 3089 0082 52       		.byte	0x52
 3090 0083 9F       		.byte	0x9f
 3091 0084 00       		.byte	0
 3092              	.LVUS24:
 3093 0085 00       		.uleb128 0
 3094 0086 00       		.uleb128 .LVU218
 3095 0087 00       		.uleb128 .LVU218
 3096 0088 00       		.uleb128 0
 3097              	.LLST24:
 3098 0089 06       		.byte	0x6
 3099 008a 00000000 		.4byte	.LVL27
 3100 008e 04       		.byte	0x4
 3101 008f 00       		.uleb128 .LVL27-.LVL27
 3102 0090 17       		.uleb128 .LVL28-1-.LVL27
 3103 0091 01       		.uleb128 0x1
 3104 0092 50       		.byte	0x50
 3105 0093 04       		.byte	0x4
 3106 0094 17       		.uleb128 .LVL28-1-.LVL27
 3107 0095 38       		.uleb128 .LFE19-.LVL27
 3108 0096 01       		.uleb128 0x1
 3109 0097 54       		.byte	0x54
 3110 0098 00       		.byte	0
 3111              	.LVUS25:
 3112 0099 00       		.uleb128 0
 3113 009a 00       		.uleb128 .LVU218
 3114 009b 00       		.uleb128 .LVU218
 3115 009c 00       		.uleb128 0
 3116              	.LLST25:
 3117 009d 06       		.byte	0x6
 3118 009e 00000000 		.4byte	.LVL27
 3119 00a2 04       		.byte	0x4
 3120 00a3 00       		.uleb128 .LVL27-.LVL27
 3121 00a4 17       		.uleb128 .LVL28-1-.LVL27
 3122 00a5 01       		.uleb128 0x1
 3123 00a6 51       		.byte	0x51
 3124 00a7 04       		.byte	0x4
 3125 00a8 17       		.uleb128 .LVL28-1-.LVL27
 3126 00a9 38       		.uleb128 .LFE19-.LVL27
 3127 00aa 04       		.uleb128 0x4
 3128 00ab A3       		.byte	0xa3
 3129 00ac 01       		.uleb128 0x1
 3130 00ad 51       		.byte	0x51
 3131 00ae 9F       		.byte	0x9f
 3132 00af 00       		.byte	0
 3133              	.LVUS26:
 3134 00b0 00       		.uleb128 0
 3135 00b1 00       		.uleb128 .LVU218
ARM GAS  /tmp/ccTJfFF2.s 			page 56


 3136 00b2 00       		.uleb128 .LVU218
 3137 00b3 00       		.uleb128 0
 3138              	.LLST26:
 3139 00b4 06       		.byte	0x6
 3140 00b5 00000000 		.4byte	.LVL27
 3141 00b9 04       		.byte	0x4
 3142 00ba 00       		.uleb128 .LVL27-.LVL27
 3143 00bb 17       		.uleb128 .LVL28-1-.LVL27
 3144 00bc 01       		.uleb128 0x1
 3145 00bd 52       		.byte	0x52
 3146 00be 04       		.byte	0x4
 3147 00bf 17       		.uleb128 .LVL28-1-.LVL27
 3148 00c0 38       		.uleb128 .LFE19-.LVL27
 3149 00c1 04       		.uleb128 0x4
 3150 00c2 A3       		.byte	0xa3
 3151 00c3 01       		.uleb128 0x1
 3152 00c4 52       		.byte	0x52
 3153 00c5 9F       		.byte	0x9f
 3154 00c6 00       		.byte	0
 3155              	.LVUS20:
 3156 00c7 00       		.uleb128 0
 3157 00c8 00       		.uleb128 .LVU193
 3158 00c9 00       		.uleb128 .LVU193
 3159 00ca 00       		.uleb128 0
 3160              	.LLST20:
 3161 00cb 06       		.byte	0x6
 3162 00cc 00000000 		.4byte	.LVL24
 3163 00d0 04       		.byte	0x4
 3164 00d1 00       		.uleb128 .LVL24-.LVL24
 3165 00d2 17       		.uleb128 .LVL25-1-.LVL24
 3166 00d3 01       		.uleb128 0x1
 3167 00d4 50       		.byte	0x50
 3168 00d5 04       		.byte	0x4
 3169 00d6 17       		.uleb128 .LVL25-1-.LVL24
 3170 00d7 38       		.uleb128 .LFE18-.LVL24
 3171 00d8 01       		.uleb128 0x1
 3172 00d9 54       		.byte	0x54
 3173 00da 00       		.byte	0
 3174              	.LVUS21:
 3175 00db 00       		.uleb128 0
 3176 00dc 00       		.uleb128 .LVU193
 3177 00dd 00       		.uleb128 .LVU193
 3178 00de 00       		.uleb128 0
 3179              	.LLST21:
 3180 00df 06       		.byte	0x6
 3181 00e0 00000000 		.4byte	.LVL24
 3182 00e4 04       		.byte	0x4
 3183 00e5 00       		.uleb128 .LVL24-.LVL24
 3184 00e6 17       		.uleb128 .LVL25-1-.LVL24
 3185 00e7 01       		.uleb128 0x1
 3186 00e8 51       		.byte	0x51
 3187 00e9 04       		.byte	0x4
 3188 00ea 17       		.uleb128 .LVL25-1-.LVL24
 3189 00eb 38       		.uleb128 .LFE18-.LVL24
 3190 00ec 04       		.uleb128 0x4
 3191 00ed A3       		.byte	0xa3
 3192 00ee 01       		.uleb128 0x1
ARM GAS  /tmp/ccTJfFF2.s 			page 57


 3193 00ef 51       		.byte	0x51
 3194 00f0 9F       		.byte	0x9f
 3195 00f1 00       		.byte	0
 3196              	.LVUS22:
 3197 00f2 00       		.uleb128 0
 3198 00f3 00       		.uleb128 .LVU193
 3199 00f4 00       		.uleb128 .LVU193
 3200 00f5 00       		.uleb128 0
 3201              	.LLST22:
 3202 00f6 06       		.byte	0x6
 3203 00f7 00000000 		.4byte	.LVL24
 3204 00fb 04       		.byte	0x4
 3205 00fc 00       		.uleb128 .LVL24-.LVL24
 3206 00fd 17       		.uleb128 .LVL25-1-.LVL24
 3207 00fe 01       		.uleb128 0x1
 3208 00ff 52       		.byte	0x52
 3209 0100 04       		.byte	0x4
 3210 0101 17       		.uleb128 .LVL25-1-.LVL24
 3211 0102 38       		.uleb128 .LFE18-.LVL24
 3212 0103 04       		.uleb128 0x4
 3213 0104 A3       		.byte	0xa3
 3214 0105 01       		.uleb128 0x1
 3215 0106 52       		.byte	0x52
 3216 0107 9F       		.byte	0x9f
 3217 0108 00       		.byte	0
 3218              	.LVUS23:
 3219 0109 00       		.uleb128 0
 3220 010a 00       		.uleb128 .LVU193
 3221 010b 00       		.uleb128 .LVU193
 3222 010c 00       		.uleb128 0
 3223              	.LLST23:
 3224 010d 06       		.byte	0x6
 3225 010e 00000000 		.4byte	.LVL24
 3226 0112 04       		.byte	0x4
 3227 0113 00       		.uleb128 .LVL24-.LVL24
 3228 0114 17       		.uleb128 .LVL25-1-.LVL24
 3229 0115 01       		.uleb128 0x1
 3230 0116 53       		.byte	0x53
 3231 0117 04       		.byte	0x4
 3232 0118 17       		.uleb128 .LVL25-1-.LVL24
 3233 0119 38       		.uleb128 .LFE18-.LVL24
 3234 011a 04       		.uleb128 0x4
 3235 011b A3       		.byte	0xa3
 3236 011c 01       		.uleb128 0x1
 3237 011d 53       		.byte	0x53
 3238 011e 9F       		.byte	0x9f
 3239 011f 00       		.byte	0
 3240              	.LVUS18:
 3241 0120 00       		.uleb128 0
 3242 0121 00       		.uleb128 .LVU168
 3243 0122 00       		.uleb128 .LVU168
 3244 0123 00       		.uleb128 0
 3245              	.LLST18:
 3246 0124 06       		.byte	0x6
 3247 0125 00000000 		.4byte	.LVL21
 3248 0129 04       		.byte	0x4
 3249 012a 00       		.uleb128 .LVL21-.LVL21
ARM GAS  /tmp/ccTJfFF2.s 			page 58


 3250 012b 17       		.uleb128 .LVL22-1-.LVL21
 3251 012c 01       		.uleb128 0x1
 3252 012d 50       		.byte	0x50
 3253 012e 04       		.byte	0x4
 3254 012f 17       		.uleb128 .LVL22-1-.LVL21
 3255 0130 38       		.uleb128 .LFE17-.LVL21
 3256 0131 01       		.uleb128 0x1
 3257 0132 54       		.byte	0x54
 3258 0133 00       		.byte	0
 3259              	.LVUS19:
 3260 0134 00       		.uleb128 0
 3261 0135 00       		.uleb128 .LVU168
 3262 0136 00       		.uleb128 .LVU168
 3263 0137 00       		.uleb128 0
 3264              	.LLST19:
 3265 0138 06       		.byte	0x6
 3266 0139 00000000 		.4byte	.LVL21
 3267 013d 04       		.byte	0x4
 3268 013e 00       		.uleb128 .LVL21-.LVL21
 3269 013f 17       		.uleb128 .LVL22-1-.LVL21
 3270 0140 01       		.uleb128 0x1
 3271 0141 51       		.byte	0x51
 3272 0142 04       		.byte	0x4
 3273 0143 17       		.uleb128 .LVL22-1-.LVL21
 3274 0144 38       		.uleb128 .LFE17-.LVL21
 3275 0145 04       		.uleb128 0x4
 3276 0146 A3       		.byte	0xa3
 3277 0147 01       		.uleb128 0x1
 3278 0148 51       		.byte	0x51
 3279 0149 9F       		.byte	0x9f
 3280 014a 00       		.byte	0
 3281              	.LVUS15:
 3282 014b 00       		.uleb128 0
 3283 014c 00       		.uleb128 .LVU148
 3284 014d 00       		.uleb128 .LVU148
 3285 014e 00       		.uleb128 0
 3286              	.LLST15:
 3287 014f 06       		.byte	0x6
 3288 0150 00000000 		.4byte	.LVL19
 3289 0154 04       		.byte	0x4
 3290 0155 00       		.uleb128 .LVL19-.LVL19
 3291 0156 13       		.uleb128 .LVL20-1-.LVL19
 3292 0157 01       		.uleb128 0x1
 3293 0158 50       		.byte	0x50
 3294 0159 04       		.byte	0x4
 3295 015a 13       		.uleb128 .LVL20-1-.LVL19
 3296 015b 1C       		.uleb128 .LFE16-.LVL19
 3297 015c 04       		.uleb128 0x4
 3298 015d A3       		.byte	0xa3
 3299 015e 01       		.uleb128 0x1
 3300 015f 50       		.byte	0x50
 3301 0160 9F       		.byte	0x9f
 3302 0161 00       		.byte	0
 3303              	.LVUS16:
 3304 0162 00       		.uleb128 0
 3305 0163 00       		.uleb128 .LVU148
 3306 0164 00       		.uleb128 .LVU148
ARM GAS  /tmp/ccTJfFF2.s 			page 59


 3307 0165 00       		.uleb128 0
 3308              	.LLST16:
 3309 0166 06       		.byte	0x6
 3310 0167 00000000 		.4byte	.LVL19
 3311 016b 04       		.byte	0x4
 3312 016c 00       		.uleb128 .LVL19-.LVL19
 3313 016d 13       		.uleb128 .LVL20-1-.LVL19
 3314 016e 01       		.uleb128 0x1
 3315 016f 51       		.byte	0x51
 3316 0170 04       		.byte	0x4
 3317 0171 13       		.uleb128 .LVL20-1-.LVL19
 3318 0172 1C       		.uleb128 .LFE16-.LVL19
 3319 0173 04       		.uleb128 0x4
 3320 0174 A3       		.byte	0xa3
 3321 0175 01       		.uleb128 0x1
 3322 0176 51       		.byte	0x51
 3323 0177 9F       		.byte	0x9f
 3324 0178 00       		.byte	0
 3325              	.LVUS17:
 3326 0179 00       		.uleb128 0
 3327 017a 00       		.uleb128 .LVU148
 3328 017b 00       		.uleb128 .LVU148
 3329 017c 00       		.uleb128 0
 3330              	.LLST17:
 3331 017d 06       		.byte	0x6
 3332 017e 00000000 		.4byte	.LVL19
 3333 0182 04       		.byte	0x4
 3334 0183 00       		.uleb128 .LVL19-.LVL19
 3335 0184 13       		.uleb128 .LVL20-1-.LVL19
 3336 0185 01       		.uleb128 0x1
 3337 0186 52       		.byte	0x52
 3338 0187 04       		.byte	0x4
 3339 0188 13       		.uleb128 .LVL20-1-.LVL19
 3340 0189 1C       		.uleb128 .LFE16-.LVL19
 3341 018a 04       		.uleb128 0x4
 3342 018b A3       		.byte	0xa3
 3343 018c 01       		.uleb128 0x1
 3344 018d 52       		.byte	0x52
 3345 018e 9F       		.byte	0x9f
 3346 018f 00       		.byte	0
 3347              	.LVUS12:
 3348 0190 00       		.uleb128 0
 3349 0191 00       		.uleb128 .LVU131
 3350 0192 00       		.uleb128 .LVU131
 3351 0193 00       		.uleb128 0
 3352              	.LLST12:
 3353 0194 06       		.byte	0x6
 3354 0195 00000000 		.4byte	.LVL17
 3355 0199 04       		.byte	0x4
 3356 019a 00       		.uleb128 .LVL17-.LVL17
 3357 019b 13       		.uleb128 .LVL18-1-.LVL17
 3358 019c 01       		.uleb128 0x1
 3359 019d 50       		.byte	0x50
 3360 019e 04       		.byte	0x4
 3361 019f 13       		.uleb128 .LVL18-1-.LVL17
 3362 01a0 1C       		.uleb128 .LFE15-.LVL17
 3363 01a1 04       		.uleb128 0x4
ARM GAS  /tmp/ccTJfFF2.s 			page 60


 3364 01a2 A3       		.byte	0xa3
 3365 01a3 01       		.uleb128 0x1
 3366 01a4 50       		.byte	0x50
 3367 01a5 9F       		.byte	0x9f
 3368 01a6 00       		.byte	0
 3369              	.LVUS13:
 3370 01a7 00       		.uleb128 0
 3371 01a8 00       		.uleb128 .LVU131
 3372 01a9 00       		.uleb128 .LVU131
 3373 01aa 00       		.uleb128 0
 3374              	.LLST13:
 3375 01ab 06       		.byte	0x6
 3376 01ac 00000000 		.4byte	.LVL17
 3377 01b0 04       		.byte	0x4
 3378 01b1 00       		.uleb128 .LVL17-.LVL17
 3379 01b2 13       		.uleb128 .LVL18-1-.LVL17
 3380 01b3 01       		.uleb128 0x1
 3381 01b4 51       		.byte	0x51
 3382 01b5 04       		.byte	0x4
 3383 01b6 13       		.uleb128 .LVL18-1-.LVL17
 3384 01b7 1C       		.uleb128 .LFE15-.LVL17
 3385 01b8 04       		.uleb128 0x4
 3386 01b9 A3       		.byte	0xa3
 3387 01ba 01       		.uleb128 0x1
 3388 01bb 51       		.byte	0x51
 3389 01bc 9F       		.byte	0x9f
 3390 01bd 00       		.byte	0
 3391              	.LVUS14:
 3392 01be 00       		.uleb128 0
 3393 01bf 00       		.uleb128 .LVU131
 3394 01c0 00       		.uleb128 .LVU131
 3395 01c1 00       		.uleb128 0
 3396              	.LLST14:
 3397 01c2 06       		.byte	0x6
 3398 01c3 00000000 		.4byte	.LVL17
 3399 01c7 04       		.byte	0x4
 3400 01c8 00       		.uleb128 .LVL17-.LVL17
 3401 01c9 13       		.uleb128 .LVL18-1-.LVL17
 3402 01ca 01       		.uleb128 0x1
 3403 01cb 52       		.byte	0x52
 3404 01cc 04       		.byte	0x4
 3405 01cd 13       		.uleb128 .LVL18-1-.LVL17
 3406 01ce 1C       		.uleb128 .LFE15-.LVL17
 3407 01cf 04       		.uleb128 0x4
 3408 01d0 A3       		.byte	0xa3
 3409 01d1 01       		.uleb128 0x1
 3410 01d2 52       		.byte	0x52
 3411 01d3 9F       		.byte	0x9f
 3412 01d4 00       		.byte	0
 3413              	.LVUS8:
 3414 01d5 00       		.uleb128 0
 3415 01d6 00       		.uleb128 .LVU114
 3416 01d7 00       		.uleb128 .LVU114
 3417 01d8 00       		.uleb128 0
 3418              	.LLST8:
 3419 01d9 06       		.byte	0x6
 3420 01da 00000000 		.4byte	.LVL15
ARM GAS  /tmp/ccTJfFF2.s 			page 61


 3421 01de 04       		.byte	0x4
 3422 01df 00       		.uleb128 .LVL15-.LVL15
 3423 01e0 13       		.uleb128 .LVL16-1-.LVL15
 3424 01e1 01       		.uleb128 0x1
 3425 01e2 50       		.byte	0x50
 3426 01e3 04       		.byte	0x4
 3427 01e4 13       		.uleb128 .LVL16-1-.LVL15
 3428 01e5 1C       		.uleb128 .LFE14-.LVL15
 3429 01e6 04       		.uleb128 0x4
 3430 01e7 A3       		.byte	0xa3
 3431 01e8 01       		.uleb128 0x1
 3432 01e9 50       		.byte	0x50
 3433 01ea 9F       		.byte	0x9f
 3434 01eb 00       		.byte	0
 3435              	.LVUS9:
 3436 01ec 00       		.uleb128 0
 3437 01ed 00       		.uleb128 .LVU114
 3438 01ee 00       		.uleb128 .LVU114
 3439 01ef 00       		.uleb128 0
 3440              	.LLST9:
 3441 01f0 06       		.byte	0x6
 3442 01f1 00000000 		.4byte	.LVL15
 3443 01f5 04       		.byte	0x4
 3444 01f6 00       		.uleb128 .LVL15-.LVL15
 3445 01f7 13       		.uleb128 .LVL16-1-.LVL15
 3446 01f8 01       		.uleb128 0x1
 3447 01f9 51       		.byte	0x51
 3448 01fa 04       		.byte	0x4
 3449 01fb 13       		.uleb128 .LVL16-1-.LVL15
 3450 01fc 1C       		.uleb128 .LFE14-.LVL15
 3451 01fd 04       		.uleb128 0x4
 3452 01fe A3       		.byte	0xa3
 3453 01ff 01       		.uleb128 0x1
 3454 0200 51       		.byte	0x51
 3455 0201 9F       		.byte	0x9f
 3456 0202 00       		.byte	0
 3457              	.LVUS10:
 3458 0203 00       		.uleb128 0
 3459 0204 00       		.uleb128 .LVU114
 3460 0205 00       		.uleb128 .LVU114
 3461 0206 00       		.uleb128 0
 3462              	.LLST10:
 3463 0207 06       		.byte	0x6
 3464 0208 00000000 		.4byte	.LVL15
 3465 020c 04       		.byte	0x4
 3466 020d 00       		.uleb128 .LVL15-.LVL15
 3467 020e 13       		.uleb128 .LVL16-1-.LVL15
 3468 020f 01       		.uleb128 0x1
 3469 0210 52       		.byte	0x52
 3470 0211 04       		.byte	0x4
 3471 0212 13       		.uleb128 .LVL16-1-.LVL15
 3472 0213 1C       		.uleb128 .LFE14-.LVL15
 3473 0214 04       		.uleb128 0x4
 3474 0215 A3       		.byte	0xa3
 3475 0216 01       		.uleb128 0x1
 3476 0217 52       		.byte	0x52
 3477 0218 9F       		.byte	0x9f
ARM GAS  /tmp/ccTJfFF2.s 			page 62


 3478 0219 00       		.byte	0
 3479              	.LVUS11:
 3480 021a 00       		.uleb128 0
 3481 021b 00       		.uleb128 .LVU114
 3482 021c 00       		.uleb128 .LVU114
 3483 021d 00       		.uleb128 0
 3484              	.LLST11:
 3485 021e 06       		.byte	0x6
 3486 021f 00000000 		.4byte	.LVL15
 3487 0223 04       		.byte	0x4
 3488 0224 00       		.uleb128 .LVL15-.LVL15
 3489 0225 13       		.uleb128 .LVL16-1-.LVL15
 3490 0226 01       		.uleb128 0x1
 3491 0227 53       		.byte	0x53
 3492 0228 04       		.byte	0x4
 3493 0229 13       		.uleb128 .LVL16-1-.LVL15
 3494 022a 1C       		.uleb128 .LFE14-.LVL15
 3495 022b 04       		.uleb128 0x4
 3496 022c A3       		.byte	0xa3
 3497 022d 01       		.uleb128 0x1
 3498 022e 53       		.byte	0x53
 3499 022f 9F       		.byte	0x9f
 3500 0230 00       		.byte	0
 3501              	.LVUS6:
 3502 0231 00       		.uleb128 0
 3503 0232 00       		.uleb128 .LVU97
 3504 0233 00       		.uleb128 .LVU97
 3505 0234 00       		.uleb128 0
 3506              	.LLST6:
 3507 0235 06       		.byte	0x6
 3508 0236 00000000 		.4byte	.LVL13
 3509 023a 04       		.byte	0x4
 3510 023b 00       		.uleb128 .LVL13-.LVL13
 3511 023c 13       		.uleb128 .LVL14-1-.LVL13
 3512 023d 01       		.uleb128 0x1
 3513 023e 50       		.byte	0x50
 3514 023f 04       		.byte	0x4
 3515 0240 13       		.uleb128 .LVL14-1-.LVL13
 3516 0241 1C       		.uleb128 .LFE13-.LVL13
 3517 0242 04       		.uleb128 0x4
 3518 0243 A3       		.byte	0xa3
 3519 0244 01       		.uleb128 0x1
 3520 0245 50       		.byte	0x50
 3521 0246 9F       		.byte	0x9f
 3522 0247 00       		.byte	0
 3523              	.LVUS7:
 3524 0248 00       		.uleb128 0
 3525 0249 00       		.uleb128 .LVU97
 3526 024a 00       		.uleb128 .LVU97
 3527 024b 00       		.uleb128 0
 3528              	.LLST7:
 3529 024c 06       		.byte	0x6
 3530 024d 00000000 		.4byte	.LVL13
 3531 0251 04       		.byte	0x4
 3532 0252 00       		.uleb128 .LVL13-.LVL13
 3533 0253 13       		.uleb128 .LVL14-1-.LVL13
 3534 0254 01       		.uleb128 0x1
ARM GAS  /tmp/ccTJfFF2.s 			page 63


 3535 0255 51       		.byte	0x51
 3536 0256 04       		.byte	0x4
 3537 0257 13       		.uleb128 .LVL14-1-.LVL13
 3538 0258 1C       		.uleb128 .LFE13-.LVL13
 3539 0259 04       		.uleb128 0x4
 3540 025a A3       		.byte	0xa3
 3541 025b 01       		.uleb128 0x1
 3542 025c 51       		.byte	0x51
 3543 025d 9F       		.byte	0x9f
 3544 025e 00       		.byte	0
 3545              	.LVUS5:
 3546 025f 00       		.uleb128 0
 3547 0260 00       		.uleb128 .LVU80
 3548 0261 00       		.uleb128 .LVU80
 3549 0262 00       		.uleb128 0
 3550              	.LLST5:
 3551 0263 06       		.byte	0x6
 3552 0264 00000000 		.4byte	.LVL11
 3553 0268 04       		.byte	0x4
 3554 0269 00       		.uleb128 .LVL11-.LVL11
 3555 026a 0B       		.uleb128 .LVL12-1-.LVL11
 3556 026b 01       		.uleb128 0x1
 3557 026c 50       		.byte	0x50
 3558 026d 04       		.byte	0x4
 3559 026e 0B       		.uleb128 .LVL12-1-.LVL11
 3560 026f 14       		.uleb128 .LFE12-.LVL11
 3561 0270 04       		.uleb128 0x4
 3562 0271 A3       		.byte	0xa3
 3563 0272 01       		.uleb128 0x1
 3564 0273 50       		.byte	0x50
 3565 0274 9F       		.byte	0x9f
 3566 0275 00       		.byte	0
 3567              	.LVUS4:
 3568 0276 00       		.uleb128 0
 3569 0277 00       		.uleb128 .LVU64
 3570 0278 00       		.uleb128 .LVU64
 3571 0279 00       		.uleb128 0
 3572              	.LLST4:
 3573 027a 06       		.byte	0x6
 3574 027b 00000000 		.4byte	.LVL9
 3575 027f 04       		.byte	0x4
 3576 0280 00       		.uleb128 .LVL9-.LVL9
 3577 0281 0B       		.uleb128 .LVL10-1-.LVL9
 3578 0282 01       		.uleb128 0x1
 3579 0283 50       		.byte	0x50
 3580 0284 04       		.byte	0x4
 3581 0285 0B       		.uleb128 .LVL10-1-.LVL9
 3582 0286 14       		.uleb128 .LFE11-.LVL9
 3583 0287 04       		.uleb128 0x4
 3584 0288 A3       		.byte	0xa3
 3585 0289 01       		.uleb128 0x1
 3586 028a 50       		.byte	0x50
 3587 028b 9F       		.byte	0x9f
 3588 028c 00       		.byte	0
 3589              	.LVUS3:
 3590 028d 00       		.uleb128 0
 3591 028e 00       		.uleb128 .LVU46
ARM GAS  /tmp/ccTJfFF2.s 			page 64


 3592 028f 00       		.uleb128 .LVU46
 3593 0290 00       		.uleb128 0
 3594              	.LLST3:
 3595 0291 06       		.byte	0x6
 3596 0292 00000000 		.4byte	.LVL6
 3597 0296 04       		.byte	0x4
 3598 0297 00       		.uleb128 .LVL6-.LVL6
 3599 0298 0F       		.uleb128 .LVL7-1-.LVL6
 3600 0299 01       		.uleb128 0x1
 3601 029a 50       		.byte	0x50
 3602 029b 04       		.byte	0x4
 3603 029c 0F       		.uleb128 .LVL7-1-.LVL6
 3604 029d 28       		.uleb128 .LFE10-.LVL6
 3605 029e 01       		.uleb128 0x1
 3606 029f 54       		.byte	0x54
 3607 02a0 00       		.byte	0
 3608              	.LVUS1:
 3609 02a1 00       		.uleb128 0
 3610 02a2 00       		.uleb128 .LVU28
 3611 02a3 00       		.uleb128 .LVU28
 3612 02a4 00       		.uleb128 0
 3613              	.LLST1:
 3614 02a5 06       		.byte	0x6
 3615 02a6 00000000 		.4byte	.LVL4
 3616 02aa 04       		.byte	0x4
 3617 02ab 00       		.uleb128 .LVL4-.LVL4
 3618 02ac 13       		.uleb128 .LVL5-1-.LVL4
 3619 02ad 01       		.uleb128 0x1
 3620 02ae 50       		.byte	0x50
 3621 02af 04       		.byte	0x4
 3622 02b0 13       		.uleb128 .LVL5-1-.LVL4
 3623 02b1 24       		.uleb128 .LFE9-.LVL4
 3624 02b2 01       		.uleb128 0x1
 3625 02b3 54       		.byte	0x54
 3626 02b4 00       		.byte	0
 3627              	.LVUS2:
 3628 02b5 00       		.uleb128 0
 3629 02b6 00       		.uleb128 .LVU28
 3630 02b7 00       		.uleb128 .LVU28
 3631 02b8 00       		.uleb128 0
 3632              	.LLST2:
 3633 02b9 06       		.byte	0x6
 3634 02ba 00000000 		.4byte	.LVL4
 3635 02be 04       		.byte	0x4
 3636 02bf 00       		.uleb128 .LVL4-.LVL4
 3637 02c0 13       		.uleb128 .LVL5-1-.LVL4
 3638 02c1 01       		.uleb128 0x1
 3639 02c2 51       		.byte	0x51
 3640 02c3 04       		.byte	0x4
 3641 02c4 13       		.uleb128 .LVL5-1-.LVL4
 3642 02c5 24       		.uleb128 .LFE9-.LVL4
 3643 02c6 04       		.uleb128 0x4
 3644 02c7 A3       		.byte	0xa3
 3645 02c8 01       		.uleb128 0x1
 3646 02c9 51       		.byte	0x51
 3647 02ca 9F       		.byte	0x9f
 3648 02cb 00       		.byte	0
ARM GAS  /tmp/ccTJfFF2.s 			page 65


 3649              	.LVUS0:
 3650 02cc 00       		.uleb128 0
 3651 02cd 00       		.uleb128 .LVU12
 3652 02ce 00       		.uleb128 .LVU12
 3653 02cf 00       		.uleb128 .LVU13
 3654 02d0 00       		.uleb128 .LVU13
 3655 02d1 00       		.uleb128 0
 3656              	.LLST0:
 3657 02d2 06       		.byte	0x6
 3658 02d3 00000000 		.4byte	.LVL1
 3659 02d7 04       		.byte	0x4
 3660 02d8 00       		.uleb128 .LVL1-.LVL1
 3661 02d9 18       		.uleb128 .LVL2-.LVL1
 3662 02da 01       		.uleb128 0x1
 3663 02db 50       		.byte	0x50
 3664 02dc 04       		.byte	0x4
 3665 02dd 18       		.uleb128 .LVL2-.LVL1
 3666 02de 1B       		.uleb128 .LVL3-1-.LVL1
 3667 02df 03       		.uleb128 0x3
 3668 02e0 70       		.byte	0x70
 3669 02e1 74       		.sleb128 -12
 3670 02e2 9F       		.byte	0x9f
 3671 02e3 04       		.byte	0x4
 3672 02e4 1B       		.uleb128 .LVL3-1-.LVL1
 3673 02e5 1C       		.uleb128 .LFE8-.LVL1
 3674 02e6 04       		.uleb128 0x4
 3675 02e7 A3       		.byte	0xa3
 3676 02e8 01       		.uleb128 0x1
 3677 02e9 50       		.byte	0x50
 3678 02ea 9F       		.byte	0x9f
 3679 02eb 00       		.byte	0
 3680              	.Ldebug_loc3:
 3681              		.section	.debug_aranges,"",%progbits
 3682 0000 94000000 		.4byte	0x94
 3683 0004 0200     		.2byte	0x2
 3684 0006 00000000 		.4byte	.Ldebug_info0
 3685 000a 04       		.byte	0x4
 3686 000b 00       		.byte	0
 3687 000c 0000     		.2byte	0
 3688 000e 0000     		.2byte	0
 3689 0010 00000000 		.4byte	.LFB7
 3690 0014 04000000 		.4byte	.LFE7-.LFB7
 3691 0018 00000000 		.4byte	.LFB8
 3692 001c 1C000000 		.4byte	.LFE8-.LFB8
 3693 0020 00000000 		.4byte	.LFB9
 3694 0024 24000000 		.4byte	.LFE9-.LFB9
 3695 0028 00000000 		.4byte	.LFB10
 3696 002c 28000000 		.4byte	.LFE10-.LFB10
 3697 0030 00000000 		.4byte	.LFB11
 3698 0034 14000000 		.4byte	.LFE11-.LFB11
 3699 0038 00000000 		.4byte	.LFB12
 3700 003c 14000000 		.4byte	.LFE12-.LFB12
 3701 0040 00000000 		.4byte	.LFB13
 3702 0044 1C000000 		.4byte	.LFE13-.LFB13
 3703 0048 00000000 		.4byte	.LFB14
 3704 004c 1C000000 		.4byte	.LFE14-.LFB14
 3705 0050 00000000 		.4byte	.LFB15
ARM GAS  /tmp/ccTJfFF2.s 			page 66


 3706 0054 1C000000 		.4byte	.LFE15-.LFB15
 3707 0058 00000000 		.4byte	.LFB16
 3708 005c 1C000000 		.4byte	.LFE16-.LFB16
 3709 0060 00000000 		.4byte	.LFB17
 3710 0064 38000000 		.4byte	.LFE17-.LFB17
 3711 0068 00000000 		.4byte	.LFB18
 3712 006c 38000000 		.4byte	.LFE18-.LFB18
 3713 0070 00000000 		.4byte	.LFB19
 3714 0074 38000000 		.4byte	.LFE19-.LFB19
 3715 0078 00000000 		.4byte	.LFB20
 3716 007c 38000000 		.4byte	.LFE20-.LFB20
 3717 0080 00000000 		.4byte	.LFB21
 3718 0084 08000000 		.4byte	.LFE21-.LFB21
 3719 0088 00000000 		.4byte	.LFB22
 3720 008c 04000000 		.4byte	.LFE22-.LFB22
 3721 0090 00000000 		.4byte	0
 3722 0094 00000000 		.4byte	0
 3723              		.section	.debug_rnglists,"",%progbits
 3724              	.Ldebug_ranges0:
 3725 0000 69000000 		.4byte	.Ldebug_ranges3-.Ldebug_ranges2
 3726              	.Ldebug_ranges2:
 3727 0004 0500     		.2byte	0x5
 3728 0006 04       		.byte	0x4
 3729 0007 00       		.byte	0
 3730 0008 00000000 		.4byte	0
 3731              	.LLRL32:
 3732 000c 07       		.byte	0x7
 3733 000d 00000000 		.4byte	.LFB7
 3734 0011 04       		.uleb128 .LFE7-.LFB7
 3735 0012 07       		.byte	0x7
 3736 0013 00000000 		.4byte	.LFB8
 3737 0017 1C       		.uleb128 .LFE8-.LFB8
 3738 0018 07       		.byte	0x7
 3739 0019 00000000 		.4byte	.LFB9
 3740 001d 24       		.uleb128 .LFE9-.LFB9
 3741 001e 07       		.byte	0x7
 3742 001f 00000000 		.4byte	.LFB10
 3743 0023 28       		.uleb128 .LFE10-.LFB10
 3744 0024 07       		.byte	0x7
 3745 0025 00000000 		.4byte	.LFB11
 3746 0029 14       		.uleb128 .LFE11-.LFB11
 3747 002a 07       		.byte	0x7
 3748 002b 00000000 		.4byte	.LFB12
 3749 002f 14       		.uleb128 .LFE12-.LFB12
 3750 0030 07       		.byte	0x7
 3751 0031 00000000 		.4byte	.LFB13
 3752 0035 1C       		.uleb128 .LFE13-.LFB13
 3753 0036 07       		.byte	0x7
 3754 0037 00000000 		.4byte	.LFB14
 3755 003b 1C       		.uleb128 .LFE14-.LFB14
 3756 003c 07       		.byte	0x7
 3757 003d 00000000 		.4byte	.LFB15
 3758 0041 1C       		.uleb128 .LFE15-.LFB15
 3759 0042 07       		.byte	0x7
 3760 0043 00000000 		.4byte	.LFB16
 3761 0047 1C       		.uleb128 .LFE16-.LFB16
 3762 0048 07       		.byte	0x7
ARM GAS  /tmp/ccTJfFF2.s 			page 67


 3763 0049 00000000 		.4byte	.LFB17
 3764 004d 38       		.uleb128 .LFE17-.LFB17
 3765 004e 07       		.byte	0x7
 3766 004f 00000000 		.4byte	.LFB18
 3767 0053 38       		.uleb128 .LFE18-.LFB18
 3768 0054 07       		.byte	0x7
 3769 0055 00000000 		.4byte	.LFB19
 3770 0059 38       		.uleb128 .LFE19-.LFB19
 3771 005a 07       		.byte	0x7
 3772 005b 00000000 		.4byte	.LFB20
 3773 005f 38       		.uleb128 .LFE20-.LFB20
 3774 0060 07       		.byte	0x7
 3775 0061 00000000 		.4byte	.LFB21
 3776 0065 08       		.uleb128 .LFE21-.LFB21
 3777 0066 07       		.byte	0x7
 3778 0067 00000000 		.4byte	.LFB22
 3779 006b 04       		.uleb128 .LFE22-.LFB22
 3780 006c 00       		.byte	0
 3781              	.Ldebug_ranges3:
 3782              		.section	.debug_line,"",%progbits
 3783              	.Ldebug_line0:
 3784 0000 4E050000 		.section	.debug_str,"MS",%progbits,1
 3784      03008B01 
 3784      00000201 
 3784      FB0E0D00 
 3784      01010101 
 3785              	.LASF44:
 3786 0000 54687265 		.ascii	"ThreadsList\000"
 3786      6164734C 
 3786      69737400 
 3787              	.LASF37:
 3788 000c 705F7761 		.ascii	"p_waiting\000"
 3788      6974696E 
 3788      6700
 3789              	.LASF36:
 3790 0016 705F7469 		.ascii	"p_time\000"
 3790      6D6500
 3791              	.LASF45:
 3792 001d 72656761 		.ascii	"regarm_t\000"
 3792      726D5F74 
 3792      00
 3793              	.LASF27:
 3794 0026 705F7072 		.ascii	"p_prio\000"
 3794      696F00
 3795              	.LASF23:
 3796 002d 73797374 		.ascii	"systime_t\000"
 3796      696D655F 
 3796      7400
 3797              	.LASF57:
 3798 0037 6D5F6F77 		.ascii	"m_owner\000"
 3798      6E657200 
 3799              	.LASF38:
 3800 003f 705F6D73 		.ascii	"p_msgqueue\000"
 3800      67717565 
 3800      756500
 3801              	.LASF0:
 3802 004a 756E7369 		.ascii	"unsigned int\000"
ARM GAS  /tmp/ccTJfFF2.s 			page 68


 3802      676E6564 
 3802      20696E74 
 3802      00
 3803              	.LASF7:
 3804 0057 5F5F696E 		.ascii	"__int32_t\000"
 3804      7433325F 
 3804      7400
 3805              	.LASF107:
 3806 0061 73706953 		.ascii	"spiStartReceive\000"
 3806      74617274 
 3806      52656365 
 3806      69766500 
 3807              	.LASF104:
 3808 0071 73706953 		.ascii	"spiSend\000"
 3808      656E6400 
 3809              	.LASF61:
 3810 0079 77746F62 		.ascii	"wtobjp\000"
 3810      6A7000
 3811              	.LASF62:
 3812 0080 65776D61 		.ascii	"ewmask\000"
 3812      736B00
 3813              	.LASF100:
 3814 0087 73706952 		.ascii	"spiReleaseBus\000"
 3814      656C6561 
 3814      73654275 
 3814      7300
 3815              	.LASF70:
 3816 0095 53504944 		.ascii	"SPIDriver\000"
 3816      72697665 
 3816      7200
 3817              	.LASF116:
 3818 009f 474E5520 		.ascii	"GNU C17 11.2.0 -mcpu=arm1176jz-s -mno-thumb-interwo"
 3818      43313720 
 3818      31312E32 
 3818      2E30202D 
 3818      6D637075 
 3819 00d2 726B202D 		.ascii	"rk -mfloat-abi=soft -marm -march=armv6kz -ggdb -O2 "
 3819      6D666C6F 
 3819      61742D61 
 3819      62693D73 
 3819      6F667420 
 3820 0105 2D666F6D 		.ascii	"-fomit-frame-pointer -ffunction-sections -fdata-sec"
 3820      69742D66 
 3820      72616D65 
 3820      2D706F69 
 3820      6E746572 
 3821 0138 74696F6E 		.ascii	"tions\000"
 3821      7300
 3822              	.LASF115:
 3823 013e 7370694F 		.ascii	"spiObjectInit\000"
 3823      626A6563 
 3823      74496E69 
 3823      7400
 3824              	.LASF15:
 3825 014c 75696E74 		.ascii	"uint32_t\000"
 3825      33325F74 
 3825      00
ARM GAS  /tmp/ccTJfFF2.s 			page 69


 3826              	.LASF22:
 3827 0155 6576656E 		.ascii	"eventmask_t\000"
 3827      746D6173 
 3827      6B5F7400 
 3828              	.LASF49:
 3829 0161 725F7072 		.ascii	"r_prio\000"
 3829      696F00
 3830              	.LASF74:
 3831 0168 6D757465 		.ascii	"mutex\000"
 3831      7800
 3832              	.LASF20:
 3833 016e 74707269 		.ascii	"tprio_t\000"
 3833      6F5F7400 
 3834              	.LASF98:
 3835 0176 7370695F 		.ascii	"spi_lld_start\000"
 3835      6C6C645F 
 3835      73746172 
 3835      7400
 3836              	.LASF79:
 3837 0184 656E645F 		.ascii	"end_cb\000"
 3837      636200
 3838              	.LASF12:
 3839 018b 6C6F6E67 		.ascii	"long long unsigned int\000"
 3839      206C6F6E 
 3839      6720756E 
 3839      7369676E 
 3839      65642069 
 3840              	.LASF77:
 3841 01a2 7478636E 		.ascii	"txcnt\000"
 3841      7400
 3842              	.LASF29:
 3843 01a8 705F6E65 		.ascii	"p_newer\000"
 3843      77657200 
 3844              	.LASF76:
 3845 01b0 74786275 		.ascii	"txbuf\000"
 3845      6600
 3846              	.LASF99:
 3847 01b6 63684D74 		.ascii	"chMtxInit\000"
 3847      78496E69 
 3847      7400
 3848              	.LASF114:
 3849 01c0 73706953 		.ascii	"spiStart\000"
 3849      74617274 
 3849      00
 3850              	.LASF112:
 3851 01c9 73706953 		.ascii	"spiSelect\000"
 3851      656C6563 
 3851      7400
 3852              	.LASF2:
 3853 01d3 73697A65 		.ascii	"size_t\000"
 3853      5F7400
 3854              	.LASF59:
 3855 01da 7264796D 		.ascii	"rdymsg\000"
 3855      736700
 3856              	.LASF86:
 3857 01e1 636C6F63 		.ascii	"clock_phase\000"
 3857      6B5F7068 
ARM GAS  /tmp/ccTJfFF2.s 			page 70


 3857      61736500 
 3858              	.LASF95:
 3859 01ed 7370695F 		.ascii	"spi_lld_select\000"
 3859      6C6C645F 
 3859      73656C65 
 3859      637400
 3860              	.LASF88:
 3861 01fc 53504943 		.ascii	"SPIConfig\000"
 3861      6F6E6669 
 3861      6700
 3862              	.LASF55:
 3863 0206 4D757465 		.ascii	"Mutex\000"
 3863      7800
 3864              	.LASF31:
 3865 020c 705F6E61 		.ascii	"p_name\000"
 3865      6D6500
 3866              	.LASF121:
 3867 0213 7370695F 		.ascii	"spi_lld_init\000"
 3867      6C6C645F 
 3867      696E6974 
 3867      00
 3868              	.LASF43:
 3869 0220 54687265 		.ascii	"ThreadsQueue\000"
 3869      61647351 
 3869      75657565 
 3869      00
 3870              	.LASF63:
 3871 022d 63686172 		.ascii	"char\000"
 3871      00
 3872              	.LASF91:
 3873 0232 7370695F 		.ascii	"spi_lld_receive\000"
 3873      6C6C645F 
 3873      72656365 
 3873      69766500 
 3874              	.LASF51:
 3875 0242 725F6E65 		.ascii	"r_newer\000"
 3875      77657200 
 3876              	.LASF24:
 3877 024a 54687265 		.ascii	"Thread\000"
 3877      616400
 3878              	.LASF101:
 3879 0251 73706941 		.ascii	"spiAcquireBus\000"
 3879      63717569 
 3879      72654275 
 3879      7300
 3880              	.LASF82:
 3881 025f 63686970 		.ascii	"chip_select_polarity\000"
 3881      5F73656C 
 3881      6563745F 
 3881      706F6C61 
 3881      72697479 
 3882              	.LASF17:
 3883 0274 74737461 		.ascii	"tstate_t\000"
 3883      74655F74 
 3883      00
 3884              	.LASF30:
 3885 027d 705F6F6C 		.ascii	"p_older\000"
ARM GAS  /tmp/ccTJfFF2.s 			page 71


 3885      64657200 
 3886              	.LASF32:
 3887 0285 705F7374 		.ascii	"p_state\000"
 3887      61746500 
 3888              	.LASF13:
 3889 028d 75696E74 		.ascii	"uint8_t\000"
 3889      385F7400 
 3890              	.LASF41:
 3891 0295 705F6D74 		.ascii	"p_mtxlist\000"
 3891      786C6973 
 3891      7400
 3892              	.LASF93:
 3893 029f 7370695F 		.ascii	"spi_lld_exchange\000"
 3893      6C6C645F 
 3893      65786368 
 3893      616E6765 
 3893      00
 3894              	.LASF11:
 3895 02b0 6C6F6E67 		.ascii	"long long int\000"
 3895      206C6F6E 
 3895      6720696E 
 3895      7400
 3896              	.LASF78:
 3897 02be 73706963 		.ascii	"spicallback_t\000"
 3897      616C6C62 
 3897      61636B5F 
 3897      7400
 3898              	.LASF48:
 3899 02cc 725F7175 		.ascii	"r_queue\000"
 3899      65756500 
 3900              	.LASF120:
 3901 02d4 63684D74 		.ascii	"chMtxUnlock\000"
 3901      78556E6C 
 3901      6F636B00 
 3902              	.LASF21:
 3903 02e0 6D73675F 		.ascii	"msg_t\000"
 3903      7400
 3904              	.LASF47:
 3905 02e6 636F6E74 		.ascii	"context\000"
 3905      65787400 
 3906              	.LASF83:
 3907 02ee 63686970 		.ascii	"chip_select_polarity0\000"
 3907      5F73656C 
 3907      6563745F 
 3907      706F6C61 
 3907      72697479 
 3908              	.LASF84:
 3909 0304 63686970 		.ascii	"chip_select_polarity1\000"
 3909      5F73656C 
 3909      6563745F 
 3909      706F6C61 
 3909      72697479 
 3910              	.LASF33:
 3911 031a 705F666C 		.ascii	"p_flags\000"
 3911      61677300 
 3912              	.LASF81:
 3913 0322 63686970 		.ascii	"chip_select\000"
ARM GAS  /tmp/ccTJfFF2.s 			page 72


 3913      5F73656C 
 3913      65637400 
 3914              	.LASF67:
 3915 032e 5350495F 		.ascii	"SPI_ACTIVE\000"
 3915      41435449 
 3915      564500
 3916              	.LASF19:
 3917 0339 74736C69 		.ascii	"tslices_t\000"
 3917      6365735F 
 3917      7400
 3918              	.LASF52:
 3919 0343 725F6F6C 		.ascii	"r_older\000"
 3919      64657200 
 3920              	.LASF80:
 3921 034b 6C6F7373 		.ascii	"lossiEnabled\000"
 3921      69456E61 
 3921      626C6564 
 3921      00
 3922              	.LASF122:
 3923 0358 73706949 		.ascii	"spiInit\000"
 3923      6E697400 
 3924              	.LASF39:
 3925 0360 705F6D73 		.ascii	"p_msg\000"
 3925      6700
 3926              	.LASF117:
 3927 0366 2E2E2F2E 		.ascii	"../../os/hal/src/spi.c\000"
 3927      2E2F6F73 
 3927      2F68616C 
 3927      2F737263 
 3927      2F737069 
 3928              	.LASF16:
 3929 037d 746D6F64 		.ascii	"tmode_t\000"
 3929      655F7400 
 3930              	.LASF113:
 3931 0385 73706953 		.ascii	"spiStop\000"
 3931      746F7000 
 3932              	.LASF46:
 3933 038d 696E7463 		.ascii	"intctx\000"
 3933      747800
 3934              	.LASF64:
 3935 0394 5350495F 		.ascii	"SPI_UNINIT\000"
 3935      554E494E 
 3935      495400
 3936              	.LASF118:
 3937 039f 2F686F6D 		.ascii	"/home/sergi/uni/seu/ChibiOS-RPi/demos/led\000"
 3937      652F7365 
 3937      7267692F 
 3937      756E692F 
 3937      7365752F 
 3938              	.LASF97:
 3939 03c9 7370695F 		.ascii	"spi_lld_unselect\000"
 3939      6C6C645F 
 3939      756E7365 
 3939      6C656374 
 3939      00
 3940              	.LASF72:
 3941 03da 636F6E66 		.ascii	"config\000"
ARM GAS  /tmp/ccTJfFF2.s 			page 73


 3941      696700
 3942              	.LASF94:
 3943 03e1 7370695F 		.ascii	"spi_lld_ignore\000"
 3943      6C6C645F 
 3943      69676E6F 
 3943      726500
 3944              	.LASF42:
 3945 03f0 705F7265 		.ascii	"p_realprio\000"
 3945      616C7072 
 3945      696F00
 3946              	.LASF5:
 3947 03fb 73686F72 		.ascii	"short int\000"
 3947      7420696E 
 3947      7400
 3948              	.LASF53:
 3949 0405 725F6375 		.ascii	"r_current\000"
 3949      7272656E 
 3949      7400
 3950              	.LASF85:
 3951 040f 636C6F63 		.ascii	"clock_polarity\000"
 3951      6B5F706F 
 3951      6C617269 
 3951      747900
 3952              	.LASF40:
 3953 041e 705F6570 		.ascii	"p_epending\000"
 3953      656E6469 
 3953      6E6700
 3954              	.LASF56:
 3955 0429 6D5F7175 		.ascii	"m_queue\000"
 3955      65756500 
 3956              	.LASF8:
 3957 0431 6C6F6E67 		.ascii	"long int\000"
 3957      20696E74 
 3957      00
 3958              	.LASF69:
 3959 043a 73706973 		.ascii	"spistate_t\000"
 3959      74617465 
 3959      5F7400
 3960              	.LASF105:
 3961 0445 73706945 		.ascii	"spiExchange\000"
 3961      78636861 
 3961      6E676500 
 3962              	.LASF25:
 3963 0451 705F6E65 		.ascii	"p_next\000"
 3963      787400
 3964              	.LASF28:
 3965 0458 705F6374 		.ascii	"p_ctx\000"
 3965      7800
 3966              	.LASF119:
 3967 045e 726C6973 		.ascii	"rlist\000"
 3967      7400
 3968              	.LASF66:
 3969 0464 5350495F 		.ascii	"SPI_READY\000"
 3969      52454144 
 3969      5900
 3970              	.LASF3:
 3971 046e 5F5F7569 		.ascii	"__uint8_t\000"
ARM GAS  /tmp/ccTJfFF2.s 			page 74


 3971      6E74385F 
 3971      7400
 3972              	.LASF90:
 3973 0478 63685363 		.ascii	"chSchGoSleepS\000"
 3973      68476F53 
 3973      6C656570 
 3973      5300
 3974              	.LASF87:
 3975 0486 636C6F63 		.ascii	"clock_divider\000"
 3975      6B5F6469 
 3975      76696465 
 3975      7200
 3976              	.LASF26:
 3977 0494 705F7072 		.ascii	"p_prev\000"
 3977      657600
 3978              	.LASF18:
 3979 049b 74726566 		.ascii	"trefs_t\000"
 3979      735F7400 
 3980              	.LASF10:
 3981 04a3 6C6F6E67 		.ascii	"long unsigned int\000"
 3981      20756E73 
 3981      69676E65 
 3981      6420696E 
 3981      7400
 3982              	.LASF65:
 3983 04b5 5350495F 		.ascii	"SPI_STOP\000"
 3983      53544F50 
 3983      00
 3984              	.LASF14:
 3985 04be 696E7433 		.ascii	"int32_t\000"
 3985      325F7400 
 3986              	.LASF73:
 3987 04c6 74687265 		.ascii	"thread\000"
 3987      616400
 3988              	.LASF109:
 3989 04cd 73706953 		.ascii	"spiStartExchange\000"
 3989      74617274 
 3989      45786368 
 3989      616E6765 
 3989      00
 3990              	.LASF4:
 3991 04de 756E7369 		.ascii	"unsigned char\000"
 3991      676E6564 
 3991      20636861 
 3991      7200
 3992              	.LASF9:
 3993 04ec 5F5F7569 		.ascii	"__uint32_t\000"
 3993      6E743332 
 3993      5F7400
 3994              	.LASF34:
 3995 04f7 705F7265 		.ascii	"p_refs\000"
 3995      667300
 3996              	.LASF54:
 3997 04fe 52656164 		.ascii	"ReadyList\000"
 3997      794C6973 
 3997      7400
 3998              	.LASF89:
ARM GAS  /tmp/ccTJfFF2.s 			page 75


 3999 0508 63684D74 		.ascii	"chMtxLock\000"
 3999      784C6F63 
 3999      6B00
 4000              	.LASF110:
 4001 0512 73706953 		.ascii	"spiStartIgnore\000"
 4001      74617274 
 4001      49676E6F 
 4001      726500
 4002              	.LASF103:
 4003 0521 73706952 		.ascii	"spiReceive\000"
 4003      65636569 
 4003      766500
 4004              	.LASF35:
 4005 052c 705F7072 		.ascii	"p_preempt\000"
 4005      65656D70 
 4005      7400
 4006              	.LASF71:
 4007 0536 73746174 		.ascii	"state\000"
 4007      6500
 4008              	.LASF111:
 4009 053c 73706955 		.ascii	"spiUnselect\000"
 4009      6E73656C 
 4009      65637400 
 4010              	.LASF108:
 4011 0548 73706953 		.ascii	"spiStartSend\000"
 4011      74617274 
 4011      53656E64 
 4011      00
 4012              	.LASF58:
 4013 0555 6D5F6E65 		.ascii	"m_next\000"
 4013      787400
 4014              	.LASF1:
 4015 055c 7369676E 		.ascii	"signed char\000"
 4015      65642063 
 4015      68617200 
 4016              	.LASF92:
 4017 0568 7370695F 		.ascii	"spi_lld_send\000"
 4017      6C6C645F 
 4017      73656E64 
 4017      00
 4018              	.LASF6:
 4019 0575 73686F72 		.ascii	"short unsigned int\000"
 4019      7420756E 
 4019      7369676E 
 4019      65642069 
 4019      6E7400
 4020              	.LASF50:
 4021 0588 725F6374 		.ascii	"r_ctx\000"
 4021      7800
 4022              	.LASF96:
 4023 058e 7370695F 		.ascii	"spi_lld_stop\000"
 4023      6C6C645F 
 4023      73746F70 
 4023      00
 4024              	.LASF106:
 4025 059b 73706949 		.ascii	"spiIgnore\000"
 4025      676E6F72 
ARM GAS  /tmp/ccTJfFF2.s 			page 76


 4025      6500
 4026              	.LASF68:
 4027 05a5 5350495F 		.ascii	"SPI_COMPLETE\000"
 4027      434F4D50 
 4027      4C455445 
 4027      00
 4028              	.LASF60:
 4029 05b2 65786974 		.ascii	"exitcode\000"
 4029      636F6465 
 4029      00
 4030              	.LASF102:
 4031 05bb 73706970 		.ascii	"spip\000"
 4031      00
 4032              	.LASF75:
 4033 05c0 72786275 		.ascii	"rxbuf\000"
 4033      6600
 4034              		.ident	"GCC: (Arch Repository) 11.2.0"
ARM GAS  /tmp/ccTJfFF2.s 			page 77


DEFINED SYMBOLS
                            *ABS*:0000000000000000 spi.c
     /tmp/ccTJfFF2.s:16     .text.spiInit:0000000000000000 $a
     /tmp/ccTJfFF2.s:23     .text.spiInit:0000000000000000 spiInit
     /tmp/ccTJfFF2.s:38     .text.spiObjectInit:0000000000000000 $a
     /tmp/ccTJfFF2.s:44     .text.spiObjectInit:0000000000000000 spiObjectInit
     /tmp/ccTJfFF2.s:76     .text.spiStart:0000000000000000 $a
     /tmp/ccTJfFF2.s:82     .text.spiStart:0000000000000000 spiStart
     /tmp/ccTJfFF2.s:135    .text.spiStop:0000000000000000 $a
     /tmp/ccTJfFF2.s:141    .text.spiStop:0000000000000000 spiStop
     /tmp/ccTJfFF2.s:195    .text.spiSelect:0000000000000000 $a
     /tmp/ccTJfFF2.s:201    .text.spiSelect:0000000000000000 spiSelect
     /tmp/ccTJfFF2.s:246    .text.spiUnselect:0000000000000000 $a
     /tmp/ccTJfFF2.s:252    .text.spiUnselect:0000000000000000 spiUnselect
     /tmp/ccTJfFF2.s:297    .text.spiStartIgnore:0000000000000000 $a
     /tmp/ccTJfFF2.s:303    .text.spiStartIgnore:0000000000000000 spiStartIgnore
     /tmp/ccTJfFF2.s:351    .text.spiStartExchange:0000000000000000 $a
     /tmp/ccTJfFF2.s:357    .text.spiStartExchange:0000000000000000 spiStartExchange
     /tmp/ccTJfFF2.s:405    .text.spiStartSend:0000000000000000 $a
     /tmp/ccTJfFF2.s:411    .text.spiStartSend:0000000000000000 spiStartSend
     /tmp/ccTJfFF2.s:459    .text.spiStartReceive:0000000000000000 $a
     /tmp/ccTJfFF2.s:465    .text.spiStartReceive:0000000000000000 spiStartReceive
     /tmp/ccTJfFF2.s:513    .text.spiIgnore:0000000000000000 $a
     /tmp/ccTJfFF2.s:519    .text.spiIgnore:0000000000000000 spiIgnore
     /tmp/ccTJfFF2.s:581    .text.spiIgnore:0000000000000034 $d
     /tmp/ccTJfFF2.s:586    .text.spiExchange:0000000000000000 $a
     /tmp/ccTJfFF2.s:592    .text.spiExchange:0000000000000000 spiExchange
     /tmp/ccTJfFF2.s:654    .text.spiExchange:0000000000000034 $d
     /tmp/ccTJfFF2.s:659    .text.spiSend:0000000000000000 $a
     /tmp/ccTJfFF2.s:665    .text.spiSend:0000000000000000 spiSend
     /tmp/ccTJfFF2.s:727    .text.spiSend:0000000000000034 $d
     /tmp/ccTJfFF2.s:732    .text.spiReceive:0000000000000000 $a
     /tmp/ccTJfFF2.s:738    .text.spiReceive:0000000000000000 spiReceive
     /tmp/ccTJfFF2.s:800    .text.spiReceive:0000000000000034 $d
     /tmp/ccTJfFF2.s:805    .text.spiAcquireBus:0000000000000000 $a
     /tmp/ccTJfFF2.s:811    .text.spiAcquireBus:0000000000000000 spiAcquireBus
     /tmp/ccTJfFF2.s:832    .text.spiReleaseBus:0000000000000000 $a
     /tmp/ccTJfFF2.s:838    .text.spiReleaseBus:0000000000000000 spiReleaseBus

UNDEFINED SYMBOLS
spi_lld_init
chMtxInit
spi_lld_start
spi_lld_unselect
spi_lld_stop
spi_lld_select
spi_lld_ignore
spi_lld_exchange
spi_lld_send
spi_lld_receive
chSchGoSleepS
rlist
chMtxLock
chMtxUnlock
