ARM GAS  /tmp/ccOkoOmU.s 			page 1


   1              		.cpu arm1176jz-s
   2              		.eabi_attribute 20, 1
   3              		.eabi_attribute 21, 1
   4              		.eabi_attribute 23, 3
   5              		.eabi_attribute 24, 1
   6              		.eabi_attribute 25, 1
   7              		.eabi_attribute 26, 1
   8              		.eabi_attribute 30, 2
   9              		.eabi_attribute 34, 1
  10              		.eabi_attribute 18, 4
  11              		.file	"testsem.c"
  12              		.text
  13              	.Ltext0:
  14              		.cfi_sections	.debug_frame
  15              		.section	.rodata.sem1_execute.str1.4,"aMS",%progbits,1
  16              		.align	2
  17              	.LC0:
  18 0000 4100     		.ascii	"A\000"
  19 0002 0000     		.align	2
  20              	.LC1:
  21 0004 4200     		.ascii	"B\000"
  22 0006 0000     		.align	2
  23              	.LC2:
  24 0008 4300     		.ascii	"C\000"
  25 000a 0000     		.align	2
  26              	.LC3:
  27 000c 4400     		.ascii	"D\000"
  28 000e 0000     		.align	2
  29              	.LC4:
  30 0010 4500     		.ascii	"E\000"
  31 0012 0000     		.align	2
  32              	.LC5:
  33 0014 41424344 		.ascii	"ABCDE\000"
  33      4500
  34              		.section	.text.sem1_execute,"ax",%progbits
  35              		.align	2
  36              		.arch armv6kz
  37              		.syntax unified
  38              		.arm
  39              		.fpu softvfp
  40              		.type	sem1_execute, %function
  41              	sem1_execute:
  42              	.LFB9:
  43              		.file 1 "../../test/testsem.c"
  44              		.loc 1 88 32 view -0
  45              		.cfi_startproc
  46              		@ args = 0, pretend = 0, frame = 0
  47              		@ frame_needed = 0, uses_anonymous_args = 0
  48              		.loc 1 90 3 view .LVU1
  49              		.loc 1 88 32 is_stmt 0 view .LVU2
  50 0000 F0412DE9 		push	{r4, r5, r6, r7, r8, lr}
  51              		.cfi_def_cfa_offset 24
  52              		.cfi_offset 4, -24
  53              		.cfi_offset 5, -20
  54              		.cfi_offset 6, -16
  55              		.cfi_offset 7, -12
  56              		.cfi_offset 8, -8
ARM GAS  /tmp/ccOkoOmU.s 			page 2


  57              		.cfi_offset 14, -4
  58              		.loc 1 90 50 view .LVU3
  59 0004 84619FE5 		ldr	r6, .L6
  60              		.loc 1 90 36 view .LVU4
  61 0008 84419FE5 		ldr	r4, .L6+4
  62              		.loc 1 90 50 view .LVU5
  63 000c 183096E5 		ldr	r3, [r6, #24]
  64              		.loc 1 90 36 view .LVU6
  65 0010 008094E5 		ldr	r8, [r4]
  66              		.loc 1 90 16 view .LVU7
  67 0014 082093E5 		ldr	r2, [r3, #8]
  68 0018 78719FE5 		ldr	r7, .L6+8
  69              		.loc 1 88 32 view .LVU8
  70 001c 08D04DE2 		sub	sp, sp, #8
  71              		.cfi_def_cfa_offset 32
  72              		.loc 1 90 16 view .LVU9
  73 0020 461FA0E3 		mov	r1, #280
  74 0024 70319FE5 		ldr	r3, .L6+12
  75 0028 052082E2 		add	r2, r2, #5
  76 002c 0800A0E1 		mov	r0, r8
  77 0030 00708DE5 		str	r7, [sp]
  78 0034 FEFFFFEB 		bl	chThdCreateStatic
  79              	.LVL0:
  80              		.loc 1 91 50 view .LVU10
  81 0038 183096E5 		ldr	r3, [r6, #24]
  82              		.loc 1 90 14 view .LVU11
  83 003c 5C519FE5 		ldr	r5, .L6+16
  84              		.loc 1 91 16 view .LVU12
  85 0040 082093E5 		ldr	r2, [r3, #8]
  86 0044 58319FE5 		ldr	r3, .L6+20
  87 0048 461FA0E3 		mov	r1, #280
  88 004c 012082E2 		add	r2, r2, #1
  89 0050 00308DE5 		str	r3, [sp]
  90              		.loc 1 90 14 view .LVU13
  91 0054 000085E5 		str	r0, [r5]
  92              		.loc 1 91 3 is_stmt 1 view .LVU14
  93              		.loc 1 91 16 is_stmt 0 view .LVU15
  94 0058 3C319FE5 		ldr	r3, .L6+12
  95 005c 040094E5 		ldr	r0, [r4, #4]
  96 0060 FEFFFFEB 		bl	chThdCreateStatic
  97              	.LVL1:
  98              		.loc 1 92 50 view .LVU16
  99 0064 183096E5 		ldr	r3, [r6, #24]
 100              		.loc 1 92 16 view .LVU17
 101 0068 461FA0E3 		mov	r1, #280
 102 006c 082093E5 		ldr	r2, [r3, #8]
 103 0070 30319FE5 		ldr	r3, .L6+24
 104              		.loc 1 91 14 view .LVU18
 105 0074 040085E5 		str	r0, [r5, #4]
 106              		.loc 1 92 3 is_stmt 1 view .LVU19
 107              		.loc 1 92 16 is_stmt 0 view .LVU20
 108 0078 032082E2 		add	r2, r2, #3
 109 007c 080094E5 		ldr	r0, [r4, #8]
 110 0080 00308DE5 		str	r3, [sp]
 111 0084 10319FE5 		ldr	r3, .L6+12
 112 0088 FEFFFFEB 		bl	chThdCreateStatic
 113              	.LVL2:
ARM GAS  /tmp/ccOkoOmU.s 			page 3


 114              		.loc 1 93 50 view .LVU21
 115 008c 183096E5 		ldr	r3, [r6, #24]
 116              		.loc 1 93 16 view .LVU22
 117 0090 461FA0E3 		mov	r1, #280
 118 0094 082093E5 		ldr	r2, [r3, #8]
 119 0098 0C319FE5 		ldr	r3, .L6+28
 120              		.loc 1 92 14 view .LVU23
 121 009c 080085E5 		str	r0, [r5, #8]
 122              		.loc 1 93 3 is_stmt 1 view .LVU24
 123              		.loc 1 93 16 is_stmt 0 view .LVU25
 124 00a0 042082E2 		add	r2, r2, #4
 125 00a4 0C0094E5 		ldr	r0, [r4, #12]
 126 00a8 00308DE5 		str	r3, [sp]
 127 00ac E8309FE5 		ldr	r3, .L6+12
 128 00b0 FEFFFFEB 		bl	chThdCreateStatic
 129              	.LVL3:
 130 00b4 0030A0E1 		mov	r3, r0
 131              		.loc 1 93 14 view .LVU26
 132 00b8 0C3085E5 		str	r3, [r5, #12]
 133              		.loc 1 94 3 is_stmt 1 view .LVU27
 134              		.loc 1 94 50 is_stmt 0 view .LVU28
 135 00bc 183096E5 		ldr	r3, [r6, #24]
 136              		.loc 1 94 16 view .LVU29
 137 00c0 461FA0E3 		mov	r1, #280
 138 00c4 082093E5 		ldr	r2, [r3, #8]
 139 00c8 E0309FE5 		ldr	r3, .L6+32
 140 00cc 022082E2 		add	r2, r2, #2
 141 00d0 100094E5 		ldr	r0, [r4, #16]
 142 00d4 00308DE5 		str	r3, [sp]
 143 00d8 BC309FE5 		ldr	r3, .L6+12
 144 00dc FEFFFFEB 		bl	chThdCreateStatic
 145              	.LVL4:
 146 00e0 0030A0E1 		mov	r3, r0
 147              		.loc 1 95 3 view .LVU30
 148 00e4 C8409FE5 		ldr	r4, .L6+36
 149              		.loc 1 94 14 view .LVU31
 150 00e8 103085E5 		str	r3, [r5, #16]
 151              		.loc 1 95 3 is_stmt 1 view .LVU32
 152 00ec 0400A0E1 		mov	r0, r4
 153 00f0 FEFFFFEB 		bl	chSemSignal
 154              	.LVL5:
 155              		.loc 1 96 3 view .LVU33
 156 00f4 0400A0E1 		mov	r0, r4
 157 00f8 FEFFFFEB 		bl	chSemSignal
 158              	.LVL6:
 159              		.loc 1 97 3 view .LVU34
 160 00fc 0400A0E1 		mov	r0, r4
 161 0100 FEFFFFEB 		bl	chSemSignal
 162              	.LVL7:
 163              		.loc 1 98 3 view .LVU35
 164 0104 0400A0E1 		mov	r0, r4
 165 0108 FEFFFFEB 		bl	chSemSignal
 166              	.LVL8:
 167              		.loc 1 99 3 view .LVU36
 168 010c 0400A0E1 		mov	r0, r4
 169 0110 FEFFFFEB 		bl	chSemSignal
 170              	.LVL9:
ARM GAS  /tmp/ccOkoOmU.s 			page 4


 171              		.loc 1 100 3 view .LVU37
 172 0114 FEFFFFEB 		bl	test_wait_threads
 173              	.LVL10:
 174              		.loc 1 104 3 view .LVU38
 175 0118 0100A0E3 		mov	r0, #1
 176 011c 94109FE5 		ldr	r1, .L6+40
 177 0120 FEFFFFEB 		bl	_test_assert_sequence
 178              	.LVL11:
 179 0124 000050E3 		cmp	r0, #0
 180 0128 0100000A 		beq	.L5
 181              		.loc 1 112 1 is_stmt 0 view .LVU39
 182 012c 08D08DE2 		add	sp, sp, #8
 183              		.cfi_remember_state
 184              		.cfi_def_cfa_offset 24
 185              		@ sp needed
 186 0130 F081BDE8 		pop	{r4, r5, r6, r7, r8, pc}
 187              	.L5:
 188              		.cfi_restore_state
 189              		.loc 1 104 35 is_stmt 1 discriminator 2 view .LVU40
 190              		.loc 1 106 3 discriminator 2 view .LVU41
 191              		.loc 1 106 50 is_stmt 0 discriminator 2 view .LVU42
 192 0134 183096E5 		ldr	r3, [r6, #24]
 193              		.loc 1 106 16 discriminator 2 view .LVU43
 194 0138 0800A0E1 		mov	r0, r8
 195 013c 082093E5 		ldr	r2, [r3, #8]
 196 0140 461FA0E3 		mov	r1, #280
 197 0144 50309FE5 		ldr	r3, .L6+12
 198 0148 00708DE5 		str	r7, [sp]
 199 014c 052082E2 		add	r2, r2, #5
 200 0150 FEFFFFEB 		bl	chThdCreateStatic
 201              	.LVL12:
 202              		.loc 1 106 14 discriminator 2 view .LVU44
 203 0154 000085E5 		str	r0, [r5]
 204              		.loc 1 107 3 is_stmt 1 discriminator 2 view .LVU45
 205              		.syntax divided
 206              	@ 107 "../../test/testsem.c" 1
 207 0158 9FF021E3 		msr     CPSR_c, #0x9F
 208              	@ 0 "" 2
 209              		.loc 1 107 3 discriminator 2 view .LVU46
 210              		.loc 1 107 14 discriminator 2 view .LVU47
 211              		.loc 1 108 3 discriminator 2 view .LVU48
 212              		.arm
 213              		.syntax unified
 214 015c 0210A0E3 		mov	r1, #2
 215 0160 0400A0E1 		mov	r0, r4
 216 0164 FEFFFFEB 		bl	chSemAddCounterI
 217              	.LVL13:
 218              		.loc 1 109 3 discriminator 2 view .LVU49
 219              		.loc 1 109 3 discriminator 2 view .LVU50
 220              		.syntax divided
 221              	@ 109 "../../test/testsem.c" 1
 222 0168 1FF021E3 		msr     CPSR_c, #0x1F
 223              	@ 0 "" 2
 224              		.loc 1 109 16 discriminator 2 view .LVU51
 225              		.loc 1 110 3 discriminator 2 view .LVU52
 226              		.arm
 227              		.syntax unified
ARM GAS  /tmp/ccOkoOmU.s 			page 5


 228 016c FEFFFFEB 		bl	test_wait_threads
 229              	.LVL14:
 230              		.loc 1 111 3 discriminator 2 view .LVU53
 231 0170 081094E5 		ldr	r1, [r4, #8]
 232 0174 0200A0E3 		mov	r0, #2
 233 0178 011041E2 		sub	r1, r1, #1
 234 017c 111F6FE1 		clz	r1, r1
 235 0180 A112A0E1 		lsr	r1, r1, #5
 236              		.loc 1 112 1 is_stmt 0 discriminator 2 view .LVU54
 237 0184 08D08DE2 		add	sp, sp, #8
 238              		.cfi_def_cfa_offset 24
 239              		@ sp needed
 240 0188 F041BDE8 		pop	{r4, r5, r6, r7, r8, lr}
 241              		.cfi_restore 14
 242              		.cfi_restore 8
 243              		.cfi_restore 7
 244              		.cfi_restore 6
 245              		.cfi_restore 5
 246              		.cfi_restore 4
 247              		.cfi_def_cfa_offset 0
 248              		.loc 1 111 3 discriminator 2 view .LVU55
 249 018c FEFFFFEA 		b	_test_assert
 250              	.LVL15:
 251              	.L7:
 252              		.align	2
 253              	.L6:
 254 0190 00000000 		.word	rlist
 255 0194 00000000 		.word	wa
 256 0198 00000000 		.word	.LC0
 257 019c 00000000 		.word	thread1
 258 01a0 00000000 		.word	threads
 259 01a4 04000000 		.word	.LC1
 260 01a8 08000000 		.word	.LC2
 261 01ac 0C000000 		.word	.LC3
 262 01b0 10000000 		.word	.LC4
 263 01b4 00000000 		.word	.LANCHOR0
 264 01b8 14000000 		.word	.LC5
 265              		.cfi_endproc
 266              	.LFE9:
 267              		.size	sem1_execute, .-sem1_execute
 268              		.section	.text.thread3,"ax",%progbits
 269              		.align	2
 270              		.syntax unified
 271              		.arm
 272              		.fpu softvfp
 273              		.type	thread3, %function
 274              	thread3:
 275              	.LVL16:
 276              	.LFB14:
 277              		.loc 1 213 31 is_stmt 1 view -0
 278              		.cfi_startproc
 279              		@ args = 0, pretend = 0, frame = 0
 280              		@ frame_needed = 0, uses_anonymous_args = 0
 281              		.loc 1 215 3 view .LVU57
 282              		.loc 1 216 3 view .LVU58
 283              		.loc 1 213 31 is_stmt 0 view .LVU59
 284 0000 10402DE9 		push	{r4, lr}
ARM GAS  /tmp/ccOkoOmU.s 			page 6


 285              		.cfi_def_cfa_offset 8
 286              		.cfi_offset 4, -8
 287              		.cfi_offset 14, -4
 288              		.loc 1 216 3 view .LVU60
 289 0004 14409FE5 		ldr	r4, .L10
 290 0008 0400A0E1 		mov	r0, r4
 291              	.LVL17:
 292              		.loc 1 216 3 view .LVU61
 293 000c FEFFFFEB 		bl	chSemWait
 294              	.LVL18:
 295              		.loc 1 217 3 is_stmt 1 view .LVU62
 296 0010 0400A0E1 		mov	r0, r4
 297 0014 FEFFFFEB 		bl	chSemSignal
 298              	.LVL19:
 299              		.loc 1 218 3 view .LVU63
 300              		.loc 1 219 1 is_stmt 0 view .LVU64
 301 0018 0000A0E3 		mov	r0, #0
 302 001c 1080BDE8 		pop	{r4, pc}
 303              	.L11:
 304              		.align	2
 305              	.L10:
 306 0020 00000000 		.word	.LANCHOR0
 307              		.cfi_endproc
 308              	.LFE14:
 309              		.size	thread3, .-thread3
 310              		.section	.text.thread1,"ax",%progbits
 311              		.align	2
 312              		.syntax unified
 313              		.arm
 314              		.fpu softvfp
 315              		.type	thread1, %function
 316              	thread1:
 317              	.LVL20:
 318              	.LFB8:
 319              		.loc 1 81 31 is_stmt 1 view -0
 320              		.cfi_startproc
 321              		@ args = 0, pretend = 0, frame = 0
 322              		@ frame_needed = 0, uses_anonymous_args = 0
 323              		.loc 1 83 3 view .LVU66
 324              		.loc 1 81 31 is_stmt 0 view .LVU67
 325 0000 10402DE9 		push	{r4, lr}
 326              		.cfi_def_cfa_offset 8
 327              		.cfi_offset 4, -8
 328              		.cfi_offset 14, -4
 329              		.loc 1 81 31 view .LVU68
 330 0004 0040A0E1 		mov	r4, r0
 331              		.loc 1 83 3 view .LVU69
 332 0008 10009FE5 		ldr	r0, .L14
 333              	.LVL21:
 334              		.loc 1 83 3 view .LVU70
 335 000c FEFFFFEB 		bl	chSemWait
 336              	.LVL22:
 337              		.loc 1 84 3 is_stmt 1 view .LVU71
 338 0010 0000D4E5 		ldrb	r0, [r4]	@ zero_extendqisi2
 339 0014 FEFFFFEB 		bl	test_emit_token
 340              	.LVL23:
 341              		.loc 1 85 3 view .LVU72
ARM GAS  /tmp/ccOkoOmU.s 			page 7


 342              		.loc 1 86 1 is_stmt 0 view .LVU73
 343 0018 0000A0E3 		mov	r0, #0
 344 001c 1080BDE8 		pop	{r4, pc}
 345              	.L15:
 346              		.align	2
 347              	.L14:
 348 0020 00000000 		.word	.LANCHOR0
 349              		.cfi_endproc
 350              	.LFE8:
 351              		.size	thread1, .-thread1
 352              		.section	.text.sem1_setup,"ax",%progbits
 353              		.align	2
 354              		.syntax unified
 355              		.arm
 356              		.fpu softvfp
 357              		.type	sem1_setup, %function
 358              	sem1_setup:
 359              	.LFB7:
 360              		.loc 1 76 30 is_stmt 1 view -0
 361              		.cfi_startproc
 362              		@ args = 0, pretend = 0, frame = 0
 363              		@ frame_needed = 0, uses_anonymous_args = 0
 364              		@ link register save eliminated.
 365              		.loc 1 78 3 view .LVU75
 366 0000 0010A0E3 		mov	r1, #0
 367 0004 00009FE5 		ldr	r0, .L17
 368 0008 FEFFFFEA 		b	chSemInit
 369              	.LVL24:
 370              	.L18:
 371              		.align	2
 372              	.L17:
 373 000c 00000000 		.word	.LANCHOR0
 374              		.cfi_endproc
 375              	.LFE7:
 376              		.size	sem1_setup, .-sem1_setup
 377              		.section	.text.thread2,"ax",%progbits
 378              		.align	2
 379              		.syntax unified
 380              		.arm
 381              		.fpu softvfp
 382              		.type	thread2, %function
 383              	thread2:
 384              	.LVL25:
 385              	.LFB11:
 386              		.loc 1 137 31 view -0
 387              		.cfi_startproc
 388              		@ args = 0, pretend = 0, frame = 0
 389              		@ frame_needed = 0, uses_anonymous_args = 0
 390              		.loc 1 139 3 view .LVU77
 391              		.loc 1 140 3 view .LVU78
 392              		.loc 1 137 31 is_stmt 0 view .LVU79
 393 0000 10402DE9 		push	{r4, lr}
 394              		.cfi_def_cfa_offset 8
 395              		.cfi_offset 4, -8
 396              		.cfi_offset 14, -4
 397              		.loc 1 140 3 view .LVU80
 398 0004 3200A0E3 		mov	r0, #50
ARM GAS  /tmp/ccOkoOmU.s 			page 8


 399              	.LVL26:
 400              		.loc 1 140 3 view .LVU81
 401 0008 FEFFFFEB 		bl	chThdSleep
 402              	.LVL27:
 403              		.loc 1 141 3 is_stmt 1 view .LVU82
 404              		.syntax divided
 405              	@ 141 "../../test/testsem.c" 1
 406 000c 9FF021E3 		msr     CPSR_c, #0x9F
 407              	@ 0 "" 2
 408              		.loc 1 141 3 view .LVU83
 409              		.loc 1 141 14 view .LVU84
 410              		.loc 1 142 3 view .LVU85
 411              		.arm
 412              		.syntax unified
 413 0010 10009FE5 		ldr	r0, .L21
 414 0014 FEFFFFEB 		bl	chSemSignalI
 415              	.LVL28:
 416              		.loc 1 143 3 view .LVU86
 417 0018 FEFFFFEB 		bl	chSchRescheduleS
 418              	.LVL29:
 419              		.loc 1 144 3 view .LVU87
 420              		.loc 1 144 3 view .LVU88
 421              		.syntax divided
 422              	@ 144 "../../test/testsem.c" 1
 423 001c 1FF021E3 		msr     CPSR_c, #0x1F
 424              	@ 0 "" 2
 425              		.loc 1 144 16 view .LVU89
 426              		.loc 1 145 3 view .LVU90
 427              		.loc 1 146 1 is_stmt 0 view .LVU91
 428              		.arm
 429              		.syntax unified
 430 0020 0000A0E3 		mov	r0, #0
 431 0024 1080BDE8 		pop	{r4, pc}
 432              	.L22:
 433              		.align	2
 434              	.L21:
 435 0028 00000000 		.word	.LANCHOR0
 436              		.cfi_endproc
 437              	.LFE11:
 438              		.size	thread2, .-thread2
 439              		.section	.text.thread4,"ax",%progbits
 440              		.align	2
 441              		.syntax unified
 442              		.arm
 443              		.fpu softvfp
 444              		.type	thread4, %function
 445              	thread4:
 446              	.LVL30:
 447              	.LFB16:
 448              		.loc 1 249 31 is_stmt 1 view -0
 449              		.cfi_startproc
 450              		@ args = 0, pretend = 0, frame = 0
 451              		@ frame_needed = 0, uses_anonymous_args = 0
 452              		.loc 1 251 3 view .LVU93
 453              		.loc 1 249 31 is_stmt 0 view .LVU94
 454 0000 10402DE9 		push	{r4, lr}
 455              		.cfi_def_cfa_offset 8
ARM GAS  /tmp/ccOkoOmU.s 			page 9


 456              		.cfi_offset 4, -8
 457              		.cfi_offset 14, -4
 458              		.loc 1 251 3 view .LVU95
 459              		.syntax divided
 460              	@ 251 "../../test/testsem.c" 1
 461 0004 9FF021E3 		msr     CPSR_c, #0x9F
 462              	@ 0 "" 2
 463              		.loc 1 251 3 is_stmt 1 view .LVU96
 464              		.loc 1 251 3 view .LVU97
 465              		.loc 1 251 3 view .LVU98
 466              		.arm
 467              		.syntax unified
 468 0008 083090E5 		ldr	r3, [r0, #8]
 469 000c 000053E3 		cmp	r3, #0
 470 0010 030000DA 		ble	.L26
 471              	.LVL31:
 472              	.L24:
 473              		.loc 1 251 3 discriminator 3 view .LVU99
 474              		.loc 1 251 3 discriminator 3 view .LVU100
 475 0014 FEFFFFEB 		bl	chSchRescheduleS
 476              	.LVL32:
 477              		.loc 1 251 3 discriminator 3 view .LVU101
 478              		.loc 1 251 3 discriminator 3 view .LVU102
 479              		.syntax divided
 480              	@ 251 "../../test/testsem.c" 1
 481 0018 1FF021E3 		msr     CPSR_c, #0x1F
 482              	@ 0 "" 2
 483              		.loc 1 251 3 discriminator 3 view .LVU103
 484              		.loc 1 251 37 discriminator 3 view .LVU104
 485              		.loc 1 252 3 discriminator 3 view .LVU105
 486              		.loc 1 253 1 is_stmt 0 discriminator 3 view .LVU106
 487              		.arm
 488              		.syntax unified
 489 001c 0000A0E3 		mov	r0, #0
 490 0020 1080BDE8 		pop	{r4, pc}
 491              	.LVL33:
 492              	.L26:
 493              		.loc 1 251 3 is_stmt 1 discriminator 1 view .LVU107
 494 0024 FEFFFFEB 		bl	chSemSignalI
 495              	.LVL34:
 496              		.loc 1 251 3 is_stmt 0 discriminator 1 view .LVU108
 497 0028 F9FFFFEA 		b	.L24
 498              		.cfi_endproc
 499              	.LFE16:
 500              		.size	thread4, .-thread4
 501              		.section	.text.sem3_execute,"ax",%progbits
 502              		.align	2
 503              		.syntax unified
 504              		.arm
 505              		.fpu softvfp
 506              		.type	sem3_execute, %function
 507              	sem3_execute:
 508              	.LFB15:
 509              		.loc 1 221 32 is_stmt 1 view -0
 510              		.cfi_startproc
 511              		@ args = 0, pretend = 0, frame = 0
 512              		@ frame_needed = 0, uses_anonymous_args = 0
ARM GAS  /tmp/ccOkoOmU.s 			page 10


 513              		.loc 1 223 3 view .LVU110
 514              		.loc 1 223 16 is_stmt 0 view .LVU111
 515 0000 00C0A0E3 		mov	ip, #0
 516              		.loc 1 221 32 view .LVU112
 517 0004 10402DE9 		push	{r4, lr}
 518              		.cfi_def_cfa_offset 8
 519              		.cfi_offset 4, -8
 520              		.cfi_offset 14, -4
 521              		.loc 1 223 50 view .LVU113
 522 0008 CC309FE5 		ldr	r3, .L33
 523              		.loc 1 223 36 view .LVU114
 524 000c CC109FE5 		ldr	r1, .L33+4
 525              		.loc 1 223 50 view .LVU115
 526 0010 182093E5 		ldr	r2, [r3, #24]
 527              		.loc 1 221 32 view .LVU116
 528 0014 08D04DE2 		sub	sp, sp, #8
 529              		.cfi_def_cfa_offset 16
 530              		.loc 1 223 16 view .LVU117
 531 0018 082092E5 		ldr	r2, [r2, #8]
 532 001c C0309FE5 		ldr	r3, .L33+8
 533 0020 00C08DE5 		str	ip, [sp]
 534 0024 000091E5 		ldr	r0, [r1]
 535 0028 012082E2 		add	r2, r2, #1
 536 002c 461FA0E3 		mov	r1, #280
 537 0030 FEFFFFEB 		bl	chThdCreateStatic
 538              	.LVL35:
 539 0034 0020A0E1 		mov	r2, r0
 540              		.loc 1 224 3 view .LVU118
 541 0038 A8409FE5 		ldr	r4, .L33+12
 542              		.loc 1 223 14 view .LVU119
 543 003c A8309FE5 		ldr	r3, .L33+16
 544              		.loc 1 224 3 view .LVU120
 545 0040 0410A0E1 		mov	r1, r4
 546              		.loc 1 223 14 view .LVU121
 547 0044 002083E5 		str	r2, [r3]
 548              		.loc 1 224 3 is_stmt 1 view .LVU122
 549 0048 0400A0E1 		mov	r0, r4
 550 004c FEFFFFEB 		bl	chSemSignalWait
 551              	.LVL36:
 552              		.loc 1 225 3 view .LVU123
 553 0050 001094E5 		ldr	r1, [r4]
 554 0054 0100A0E3 		mov	r0, #1
 555 0058 041041E0 		sub	r1, r1, r4
 556 005c 111F6FE1 		clz	r1, r1
 557 0060 A112A0E1 		lsr	r1, r1, #5
 558 0064 FEFFFFEB 		bl	_test_assert
 559              	.LVL37:
 560 0068 000050E3 		cmp	r0, #0
 561 006c 0100000A 		beq	.L32
 562              	.L27:
 563              		.loc 1 231 1 is_stmt 0 view .LVU124
 564 0070 08D08DE2 		add	sp, sp, #8
 565              		.cfi_remember_state
 566              		.cfi_def_cfa_offset 8
 567              		@ sp needed
 568 0074 1080BDE8 		pop	{r4, pc}
 569              	.L32:
ARM GAS  /tmp/ccOkoOmU.s 			page 11


 570              		.cfi_restore_state
 571              		.loc 1 225 60 is_stmt 1 discriminator 2 view .LVU125
 572              		.loc 1 226 3 discriminator 2 view .LVU126
 573 0078 081094E5 		ldr	r1, [r4, #8]
 574 007c 0200A0E3 		mov	r0, #2
 575 0080 111F6FE1 		clz	r1, r1
 576 0084 A112A0E1 		lsr	r1, r1, #5
 577 0088 FEFFFFEB 		bl	_test_assert
 578              	.LVL38:
 579 008c 000050E3 		cmp	r0, #0
 580 0090 F6FFFF1A 		bne	.L27
 581              		.loc 1 226 54 discriminator 2 view .LVU127
 582              		.loc 1 228 3 discriminator 2 view .LVU128
 583 0094 0410A0E1 		mov	r1, r4
 584 0098 0400A0E1 		mov	r0, r4
 585 009c FEFFFFEB 		bl	chSemSignalWait
 586              	.LVL39:
 587              		.loc 1 229 3 discriminator 2 view .LVU129
 588 00a0 001094E5 		ldr	r1, [r4]
 589 00a4 0300A0E3 		mov	r0, #3
 590 00a8 041041E0 		sub	r1, r1, r4
 591 00ac 111F6FE1 		clz	r1, r1
 592 00b0 A112A0E1 		lsr	r1, r1, #5
 593 00b4 FEFFFFEB 		bl	_test_assert
 594              	.LVL40:
 595 00b8 000050E3 		cmp	r0, #0
 596 00bc EBFFFF1A 		bne	.L27
 597              		.loc 1 229 60 discriminator 2 view .LVU130
 598              		.loc 1 230 3 discriminator 2 view .LVU131
 599 00c0 081094E5 		ldr	r1, [r4, #8]
 600 00c4 0400A0E3 		mov	r0, #4
 601 00c8 111F6FE1 		clz	r1, r1
 602 00cc A112A0E1 		lsr	r1, r1, #5
 603              		.loc 1 231 1 is_stmt 0 discriminator 2 view .LVU132
 604 00d0 08D08DE2 		add	sp, sp, #8
 605              		.cfi_def_cfa_offset 8
 606              		@ sp needed
 607 00d4 1040BDE8 		pop	{r4, lr}
 608              		.cfi_restore 14
 609              		.cfi_restore 4
 610              		.cfi_def_cfa_offset 0
 611              		.loc 1 230 3 discriminator 2 view .LVU133
 612 00d8 FEFFFFEA 		b	_test_assert
 613              	.LVL41:
 614              	.L34:
 615              		.align	2
 616              	.L33:
 617 00dc 00000000 		.word	rlist
 618 00e0 00000000 		.word	wa
 619 00e4 00000000 		.word	thread3
 620 00e8 00000000 		.word	.LANCHOR0
 621 00ec 00000000 		.word	threads
 622              		.cfi_endproc
 623              	.LFE15:
 624              		.size	sem3_execute, .-sem3_execute
 625              		.section	.text.sem4_execute,"ax",%progbits
 626              		.align	2
ARM GAS  /tmp/ccOkoOmU.s 			page 12


 627              		.syntax unified
 628              		.arm
 629              		.fpu softvfp
 630              		.type	sem4_execute, %function
 631              	sem4_execute:
 632              	.LFB17:
 633              		.loc 1 255 32 is_stmt 1 view -0
 634              		.cfi_startproc
 635              		@ args = 0, pretend = 0, frame = 16
 636              		@ frame_needed = 0, uses_anonymous_args = 0
 637              		.loc 1 256 3 view .LVU135
 638              		.loc 1 259 3 view .LVU136
 639              		.loc 1 255 32 is_stmt 0 view .LVU137
 640 0000 04E02DE5 		str	lr, [sp, #-4]!
 641              		.cfi_def_cfa_offset 4
 642              		.cfi_offset 14, -4
 643 0004 1CD04DE2 		sub	sp, sp, #28
 644              		.cfi_def_cfa_offset 32
 645              		.loc 1 259 3 view .LVU138
 646 0008 0010A0E3 		mov	r1, #0
 647 000c 0C008DE2 		add	r0, sp, #12
 648 0010 FEFFFFEB 		bl	chSemInit
 649              	.LVL42:
 650              		.loc 1 260 3 is_stmt 1 view .LVU139
 651 0014 0010A0E3 		mov	r1, #0
 652 0018 0C008DE2 		add	r0, sp, #12
 653 001c FEFFFFEB 		bl	chSemReset
 654              	.LVL43:
 655              		.loc 1 261 3 view .LVU140
 656 0020 14109DE5 		ldr	r1, [sp, #20]
 657 0024 0100A0E3 		mov	r0, #1
 658 0028 000051E3 		cmp	r1, #0
 659 002c 0010A0C3 		movgt	r1, #0
 660 0030 0110A0D3 		movle	r1, #1
 661 0034 FEFFFFEB 		bl	_test_assert
 662              	.LVL44:
 663 0038 000050E3 		cmp	r0, #0
 664 003c 0100000A 		beq	.L42
 665              	.L35:
 666              		.loc 1 283 1 is_stmt 0 view .LVU141
 667 0040 1CD08DE2 		add	sp, sp, #28
 668              		.cfi_remember_state
 669              		.cfi_def_cfa_offset 4
 670              		@ sp needed
 671 0044 04F09DE4 		ldr	pc, [sp], #4
 672              	.L42:
 673              		.cfi_restore_state
 674              		.loc 1 261 62 is_stmt 1 discriminator 2 view .LVU142
 675              		.loc 1 264 3 discriminator 2 view .LVU143
 676              		.loc 1 265 34 is_stmt 0 discriminator 2 view .LVU144
 677 0048 1C319FE5 		ldr	r3, .L45
 678              		.loc 1 264 36 discriminator 2 view .LVU145
 679 004c 1C019FE5 		ldr	r0, .L45+4
 680              		.loc 1 265 34 discriminator 2 view .LVU146
 681 0050 183093E5 		ldr	r3, [r3, #24]
 682              		.loc 1 264 16 discriminator 2 view .LVU147
 683 0054 0CC08DE2 		add	ip, sp, #12
ARM GAS  /tmp/ccOkoOmU.s 			page 13


 684 0058 082093E5 		ldr	r2, [r3, #8]
 685 005c 461FA0E3 		mov	r1, #280
 686 0060 00C08DE5 		str	ip, [sp]
 687 0064 08319FE5 		ldr	r3, .L45+8
 688 0068 012042E2 		sub	r2, r2, #1
 689 006c 000090E5 		ldr	r0, [r0]
 690 0070 FEFFFFEB 		bl	chThdCreateStatic
 691              	.LVL45:
 692 0074 0020A0E1 		mov	r2, r0
 693              		.loc 1 264 14 discriminator 2 view .LVU148
 694 0078 F8309FE5 		ldr	r3, .L45+12
 695              		.loc 1 268 3 discriminator 2 view .LVU149
 696 007c 0C008DE2 		add	r0, sp, #12
 697              		.loc 1 264 14 discriminator 2 view .LVU150
 698 0080 002083E5 		str	r2, [r3]
 699              		.loc 1 268 3 is_stmt 1 discriminator 2 view .LVU151
 700 0084 FEFFFFEB 		bl	chSemWait
 701              	.LVL46:
 702              		.loc 1 271 3 discriminator 2 view .LVU152
 703 0088 14109DE5 		ldr	r1, [sp, #20]
 704 008c 0200A0E3 		mov	r0, #2
 705 0090 000051E3 		cmp	r1, #0
 706 0094 0010A0C3 		movgt	r1, #0
 707 0098 0110A0D3 		movle	r1, #1
 708 009c FEFFFFEB 		bl	_test_assert
 709              	.LVL47:
 710 00a0 000050E3 		cmp	r0, #0
 711 00a4 E5FFFF1A 		bne	.L35
 712              		.loc 1 271 62 discriminator 2 view .LVU153
 713              		.loc 1 275 3 discriminator 2 view .LVU154
 714              		.syntax divided
 715              	@ 275 "../../test/testsem.c" 1
 716 00a8 9FF021E3 		msr     CPSR_c, #0x9F
 717              	@ 0 "" 2
 718              		.loc 1 275 3 discriminator 2 view .LVU155
 719              		.loc 1 275 3 discriminator 2 view .LVU156
 720              		.loc 1 275 3 discriminator 2 view .LVU157
 721              		.arm
 722              		.syntax unified
 723 00ac 14309DE5 		ldr	r3, [sp, #20]
 724 00b0 000053E3 		cmp	r3, #0
 725 00b4 260000DA 		ble	.L43
 726              	.L39:
 727              		.loc 1 275 3 discriminator 3 view .LVU158
 728              		.loc 1 275 3 discriminator 3 view .LVU159
 729 00b8 FEFFFFEB 		bl	chSchRescheduleS
 730              	.LVL48:
 731              		.loc 1 275 3 discriminator 3 view .LVU160
 732              		.loc 1 275 3 discriminator 3 view .LVU161
 733              		.syntax divided
 734              	@ 275 "../../test/testsem.c" 1
 735 00bc 1FF021E3 		msr     CPSR_c, #0x1F
 736              	@ 0 "" 2
 737              		.loc 1 275 3 discriminator 3 view .LVU162
 738              		.loc 1 275 22 discriminator 3 view .LVU163
 739              		.loc 1 276 3 discriminator 3 view .LVU164
 740              		.arm
ARM GAS  /tmp/ccOkoOmU.s 			page 14


 741              		.syntax unified
 742 00c0 14109DE5 		ldr	r1, [sp, #20]
 743 00c4 0300A0E3 		mov	r0, #3
 744 00c8 000051E3 		cmp	r1, #0
 745 00cc 0010A0D3 		movle	r1, #0
 746 00d0 0110A0C3 		movgt	r1, #1
 747 00d4 FEFFFFEB 		bl	_test_assert
 748              	.LVL49:
 749 00d8 000050E3 		cmp	r0, #0
 750 00dc D7FFFF1A 		bne	.L35
 751              		.loc 1 276 65 discriminator 2 view .LVU165
 752              		.loc 1 277 3 discriminator 2 view .LVU166
 753 00e0 14109DE5 		ldr	r1, [sp, #20]
 754 00e4 0400A0E3 		mov	r0, #4
 755 00e8 011041E2 		sub	r1, r1, #1
 756 00ec 111F6FE1 		clz	r1, r1
 757 00f0 A112A0E1 		lsr	r1, r1, #5
 758 00f4 FEFFFFEB 		bl	_test_assert
 759              	.LVL50:
 760 00f8 000050E3 		cmp	r0, #0
 761 00fc CFFFFF1A 		bne	.L35
 762              		.loc 1 277 76 discriminator 2 view .LVU167
 763              		.loc 1 280 3 discriminator 2 view .LVU168
 764              		.syntax divided
 765              	@ 280 "../../test/testsem.c" 1
 766 0100 9FF021E3 		msr     CPSR_c, #0x9F
 767              	@ 0 "" 2
 768              		.loc 1 280 3 discriminator 2 view .LVU169
 769              		.loc 1 280 3 discriminator 2 view .LVU170
 770              		.loc 1 280 3 discriminator 2 view .LVU171
 771              		.arm
 772              		.syntax unified
 773 0104 14309DE5 		ldr	r3, [sp, #20]
 774 0108 000053E3 		cmp	r3, #0
 775 010c 130000DA 		ble	.L44
 776              	.L40:
 777              		.loc 1 280 3 discriminator 3 view .LVU172
 778              		.loc 1 280 3 discriminator 3 view .LVU173
 779 0110 FEFFFFEB 		bl	chSchRescheduleS
 780              	.LVL51:
 781              		.loc 1 280 3 discriminator 3 view .LVU174
 782              		.loc 1 280 3 discriminator 3 view .LVU175
 783              		.syntax divided
 784              	@ 280 "../../test/testsem.c" 1
 785 0114 1FF021E3 		msr     CPSR_c, #0x1F
 786              	@ 0 "" 2
 787              		.loc 1 280 3 discriminator 3 view .LVU176
 788              		.loc 1 280 22 discriminator 3 view .LVU177
 789              		.loc 1 281 3 discriminator 3 view .LVU178
 790              		.arm
 791              		.syntax unified
 792 0118 14109DE5 		ldr	r1, [sp, #20]
 793 011c 0300A0E3 		mov	r0, #3
 794 0120 000051E3 		cmp	r1, #0
 795 0124 0010A0D3 		movle	r1, #0
 796 0128 0110A0C3 		movgt	r1, #1
 797 012c FEFFFFEB 		bl	_test_assert
ARM GAS  /tmp/ccOkoOmU.s 			page 15


 798              	.LVL52:
 799 0130 000050E3 		cmp	r0, #0
 800 0134 C1FFFF1A 		bne	.L35
 801              		.loc 1 281 59 discriminator 2 view .LVU179
 802              		.loc 1 282 3 discriminator 2 view .LVU180
 803 0138 14109DE5 		ldr	r1, [sp, #20]
 804 013c 0500A0E3 		mov	r0, #5
 805 0140 011041E2 		sub	r1, r1, #1
 806 0144 111F6FE1 		clz	r1, r1
 807 0148 A112A0E1 		lsr	r1, r1, #5
 808 014c FEFFFFEB 		bl	_test_assert
 809              	.LVL53:
 810              		.loc 1 282 3 discriminator 2 view .LVU181
 811 0150 BAFFFFEA 		b	.L35
 812              	.L43:
 813              		.loc 1 275 3 discriminator 1 view .LVU182
 814 0154 0C008DE2 		add	r0, sp, #12
 815 0158 FEFFFFEB 		bl	chSemSignalI
 816              	.LVL54:
 817 015c D5FFFFEA 		b	.L39
 818              	.L44:
 819              		.loc 1 280 3 discriminator 1 view .LVU183
 820 0160 0C008DE2 		add	r0, sp, #12
 821 0164 FEFFFFEB 		bl	chSemSignalI
 822              	.LVL55:
 823 0168 E8FFFFEA 		b	.L40
 824              	.L46:
 825              		.align	2
 826              	.L45:
 827 016c 00000000 		.word	rlist
 828 0170 00000000 		.word	wa
 829 0174 00000000 		.word	thread4
 830 0178 00000000 		.word	threads
 831              		.cfi_endproc
 832              	.LFE17:
 833              		.size	sem4_execute, .-sem4_execute
 834              		.section	.text.sem2_execute,"ax",%progbits
 835              		.align	2
 836              		.syntax unified
 837              		.arm
 838              		.fpu softvfp
 839              		.type	sem2_execute, %function
 840              	sem2_execute:
 841              	.LFB12:
 842              		.loc 1 148 32 view -0
 843              		.cfi_startproc
 844              		@ args = 0, pretend = 0, frame = 0
 845              		@ frame_needed = 0, uses_anonymous_args = 0
 846              		.loc 1 149 3 view .LVU185
 847              		.loc 1 150 3 view .LVU186
 848              		.loc 1 151 3 view .LVU187
 849              		.loc 1 156 3 view .LVU188
 850              		.loc 1 148 32 is_stmt 0 view .LVU189
 851 0000 70402DE9 		push	{r4, r5, r6, lr}
 852              		.cfi_def_cfa_offset 16
 853              		.cfi_offset 4, -16
 854              		.cfi_offset 5, -12
ARM GAS  /tmp/ccOkoOmU.s 			page 16


 855              		.cfi_offset 6, -8
 856              		.cfi_offset 14, -4
 857              		.loc 1 156 9 view .LVU190
 858 0004 CC419FE5 		ldr	r4, .L55
 859 0008 0010A0E3 		mov	r1, #0
 860              		.loc 1 148 32 view .LVU191
 861 000c 08D04DE2 		sub	sp, sp, #8
 862              		.cfi_def_cfa_offset 24
 863              		.loc 1 156 9 view .LVU192
 864 0010 0400A0E1 		mov	r0, r4
 865 0014 FEFFFFEB 		bl	chSemWaitTimeout
 866              	.LVL56:
 867 0018 0010A0E1 		mov	r1, r0
 868              	.LVL57:
 869              		.loc 1 157 3 is_stmt 1 view .LVU193
 870 001c 010071E3 		cmn	r1, #1
 871 0020 0010A013 		movne	r1, #0
 872 0024 0110A003 		moveq	r1, #1
 873 0028 0100A0E3 		mov	r0, #1
 874              	.LVL58:
 875              		.loc 1 157 3 is_stmt 0 view .LVU194
 876 002c FEFFFFEB 		bl	_test_assert
 877              	.LVL59:
 878 0030 000050E3 		cmp	r0, #0
 879 0034 0100000A 		beq	.L54
 880              	.L47:
 881              		.loc 1 186 1 view .LVU195
 882 0038 08D08DE2 		add	sp, sp, #8
 883              		.cfi_remember_state
 884              		.cfi_def_cfa_offset 16
 885              		@ sp needed
 886 003c 7080BDE8 		pop	{r4, r5, r6, pc}
 887              	.L54:
 888              		.cfi_restore_state
 889              		.loc 1 157 62 is_stmt 1 discriminator 2 view .LVU196
 890              		.loc 1 158 3 discriminator 2 view .LVU197
 891 0040 001094E5 		ldr	r1, [r4]
 892 0044 0200A0E3 		mov	r0, #2
 893 0048 041041E0 		sub	r1, r1, r4
 894 004c 111F6FE1 		clz	r1, r1
 895 0050 A112A0E1 		lsr	r1, r1, #5
 896 0054 FEFFFFEB 		bl	_test_assert
 897              	.LVL60:
 898 0058 000050E3 		cmp	r0, #0
 899 005c F5FFFF1A 		bne	.L47
 900              	.LBB4:
 901              	.LBI4:
 902              		.loc 1 148 13 view .LVU198
 903              	.LBB5:
 904              		.loc 1 158 60 view .LVU199
 905              		.loc 1 159 3 view .LVU200
 906 0060 081094E5 		ldr	r1, [r4, #8]
 907 0064 0300A0E3 		mov	r0, #3
 908 0068 111F6FE1 		clz	r1, r1
 909 006c A112A0E1 		lsr	r1, r1, #5
 910 0070 FEFFFFEB 		bl	_test_assert
 911              	.LVL61:
ARM GAS  /tmp/ccOkoOmU.s 			page 17


 912 0074 001050E2 		subs	r1, r0, #0
 913 0078 EEFFFF1A 		bne	.L47
 914              		.loc 1 159 54 view .LVU201
 915              		.loc 1 164 3 view .LVU202
 916              		.loc 1 164 50 is_stmt 0 view .LVU203
 917 007c 58319FE5 		ldr	r3, .L55+4
 918              		.loc 1 164 36 view .LVU204
 919 0080 58019FE5 		ldr	r0, .L55+8
 920              		.loc 1 164 50 view .LVU205
 921 0084 182093E5 		ldr	r2, [r3, #24]
 922              		.loc 1 164 16 view .LVU206
 923 0088 000090E5 		ldr	r0, [r0]
 924 008c 082092E5 		ldr	r2, [r2, #8]
 925 0090 4C319FE5 		ldr	r3, .L55+12
 926 0094 012042E2 		sub	r2, r2, #1
 927 0098 00108DE5 		str	r1, [sp]
 928 009c 461FA0E3 		mov	r1, #280
 929 00a0 FEFFFFEB 		bl	chThdCreateStatic
 930              	.LVL62:
 931 00a4 0020A0E1 		mov	r2, r0
 932              		.loc 1 164 14 view .LVU207
 933 00a8 38319FE5 		ldr	r3, .L55+16
 934              		.loc 1 166 9 view .LVU208
 935 00ac 7D1FA0E3 		mov	r1, #500
 936              		.loc 1 164 14 view .LVU209
 937 00b0 002083E5 		str	r2, [r3]
 938              		.loc 1 166 3 is_stmt 1 view .LVU210
 939              		.loc 1 166 9 is_stmt 0 view .LVU211
 940 00b4 0400A0E1 		mov	r0, r4
 941 00b8 FEFFFFEB 		bl	chSemWaitTimeout
 942              	.LVL63:
 943 00bc 0050A0E1 		mov	r5, r0
 944              	.LVL64:
 945              		.loc 1 167 3 is_stmt 1 view .LVU212
 946 00c0 FEFFFFEB 		bl	test_wait_threads
 947              	.LVL65:
 948              		.loc 1 168 3 view .LVU213
 949 00c4 151F6FE1 		clz	r1, r5
 950 00c8 0400A0E3 		mov	r0, #4
 951 00cc A112A0E1 		lsr	r1, r1, #5
 952 00d0 FEFFFFEB 		bl	_test_assert
 953              	.LVL66:
 954 00d4 000050E3 		cmp	r0, #0
 955 00d8 D6FFFF1A 		bne	.L47
 956              		.loc 1 168 57 view .LVU214
 957              		.loc 1 169 3 view .LVU215
 958 00dc 001094E5 		ldr	r1, [r4]
 959 00e0 0500A0E3 		mov	r0, #5
 960 00e4 041041E0 		sub	r1, r1, r4
 961 00e8 111F6FE1 		clz	r1, r1
 962 00ec A112A0E1 		lsr	r1, r1, #5
 963 00f0 FEFFFFEB 		bl	_test_assert
 964              	.LVL67:
 965 00f4 000050E3 		cmp	r0, #0
 966 00f8 CEFFFF1A 		bne	.L47
 967              		.loc 1 169 60 view .LVU216
 968              		.loc 1 170 3 view .LVU217
ARM GAS  /tmp/ccOkoOmU.s 			page 18


 969 00fc 081094E5 		ldr	r1, [r4, #8]
 970 0100 0600A0E3 		mov	r0, #6
 971 0104 111F6FE1 		clz	r1, r1
 972 0108 A112A0E1 		lsr	r1, r1, #5
 973 010c FEFFFFEB 		bl	_test_assert
 974              	.LVL68:
 975 0110 000050E3 		cmp	r0, #0
 976 0114 C7FFFF1A 		bne	.L47
 977              		.loc 1 170 54 view .LVU218
 978              		.loc 1 175 3 view .LVU219
 979              		.loc 1 176 17 is_stmt 0 view .LVU220
 980 0118 4150A0E3 		mov	r5, #65
 981              	.LVL69:
 982              		.loc 1 175 3 view .LVU221
 983 011c FEFFFFEB 		bl	test_wait_tick
 984              	.LVL70:
 985              		.loc 1 176 3 is_stmt 1 view .LVU222
 986              		.loc 1 176 17 is_stmt 0 view .LVU223
 987 0120 C4309FE5 		ldr	r3, .L55+20
 988 0124 0C6093E5 		ldr	r6, [r3, #12]
 989              	.LVL71:
 990              		.loc 1 177 3 is_stmt 1 view .LVU224
 991              		.loc 1 177 17 view .LVU225
 992              	.L51:
 993              		.loc 1 178 5 view .LVU226
 994 0128 0500A0E1 		mov	r0, r5
 995 012c FEFFFFEB 		bl	test_emit_token
 996              	.LVL72:
 997              		.loc 1 179 5 view .LVU227
 998              		.loc 1 179 11 is_stmt 0 view .LVU228
 999 0130 7D1FA0E3 		mov	r1, #500
 1000 0134 0400A0E1 		mov	r0, r4
 1001 0138 FEFFFFEB 		bl	chSemWaitTimeout
 1002              	.LVL73:
 1003 013c 0010A0E1 		mov	r1, r0
 1004              	.LVL74:
 1005              		.loc 1 180 5 is_stmt 1 view .LVU229
 1006 0140 010071E3 		cmn	r1, #1
 1007 0144 0010A013 		movne	r1, #0
 1008 0148 0110A003 		moveq	r1, #1
 1009 014c 0700A0E3 		mov	r0, #7
 1010              	.LVL75:
 1011              		.loc 1 180 5 is_stmt 0 view .LVU230
 1012 0150 FEFFFFEB 		bl	_test_assert
 1013              	.LVL76:
 1014              		.loc 1 180 64 is_stmt 1 view .LVU231
 1015              		.loc 1 181 5 view .LVU232
 1016              		.loc 1 180 5 is_stmt 0 view .LVU233
 1017 0154 000050E3 		cmp	r0, #0
 1018 0158 B6FFFF1A 		bne	.L47
 1019              		.loc 1 181 5 view .LVU234
 1020 015c 001094E5 		ldr	r1, [r4]
 1021 0160 0800A0E3 		mov	r0, #8
 1022 0164 041041E0 		sub	r1, r1, r4
 1023 0168 111F6FE1 		clz	r1, r1
 1024 016c A112A0E1 		lsr	r1, r1, #5
 1025 0170 FEFFFFEB 		bl	_test_assert
ARM GAS  /tmp/ccOkoOmU.s 			page 19


 1026              	.LVL77:
 1027              		.loc 1 181 62 is_stmt 1 view .LVU235
 1028              		.loc 1 182 5 view .LVU236
 1029              		.loc 1 181 5 is_stmt 0 view .LVU237
 1030 0174 000050E3 		cmp	r0, #0
 1031 0178 AEFFFF1A 		bne	.L47
 1032              		.loc 1 182 5 view .LVU238
 1033 017c 081094E5 		ldr	r1, [r4, #8]
 1034 0180 0900A0E3 		mov	r0, #9
 1035 0184 111F6FE1 		clz	r1, r1
 1036 0188 A112A0E1 		lsr	r1, r1, #5
 1037 018c FEFFFFEB 		bl	_test_assert
 1038              	.LVL78:
 1039              		.loc 1 182 56 is_stmt 1 view .LVU239
 1040              		.loc 1 177 23 view .LVU240
 1041              		.loc 1 177 17 view .LVU241
 1042 0190 015085E2 		add	r5, r5, #1
 1043              		.loc 1 182 5 is_stmt 0 view .LVU242
 1044 0194 000050E3 		cmp	r0, #0
 1045              		.loc 1 177 17 view .LVU243
 1046 0198 7550EFE6 		uxtb	r5, r5
 1047              		.loc 1 182 5 view .LVU244
 1048 019c A5FFFF1A 		bne	.L47
 1049              		.loc 1 177 17 view .LVU245
 1050 01a0 460055E3 		cmp	r5, #70
 1051 01a4 DFFFFF1A 		bne	.L51
 1052              		.loc 1 184 3 is_stmt 1 view .LVU246
 1053 01a8 0A00A0E3 		mov	r0, #10
 1054 01ac 3C109FE5 		ldr	r1, .L55+24
 1055 01b0 FEFFFFEB 		bl	_test_assert_sequence
 1056              	.LVL79:
 1057 01b4 000050E3 		cmp	r0, #0
 1058 01b8 9EFFFF1A 		bne	.L47
 1059              		.loc 1 184 36 view .LVU247
 1060              		.loc 1 185 3 view .LVU248
 1061 01bc 0B00A0E3 		mov	r0, #11
 1062 01c0 271D86E2 		add	r1, r6, #2496
 1063 01c4 092081E2 		add	r2, r1, #9
 1064 01c8 041081E2 		add	r1, r1, #4
 1065              	.LBE5:
 1066              	.LBE4:
 1067              		.loc 1 186 1 is_stmt 0 view .LVU249
 1068 01cc 08D08DE2 		add	sp, sp, #8
 1069              		.cfi_def_cfa_offset 16
 1070              		@ sp needed
 1071 01d0 7040BDE8 		pop	{r4, r5, r6, lr}
 1072              		.cfi_restore 14
 1073              		.cfi_restore 6
 1074              		.cfi_restore 5
 1075              		.cfi_restore 4
 1076              		.cfi_def_cfa_offset 0
 1077              	.LVL80:
 1078              	.LBB7:
 1079              	.LBB6:
 1080              		.loc 1 185 3 view .LVU250
 1081 01d4 FEFFFFEA 		b	_test_assert_time_window
 1082              	.LVL81:
ARM GAS  /tmp/ccOkoOmU.s 			page 20


 1083              	.L56:
 1084              		.loc 1 185 3 view .LVU251
 1085              		.align	2
 1086              	.L55:
 1087 01d8 00000000 		.word	.LANCHOR0
 1088 01dc 00000000 		.word	rlist
 1089 01e0 00000000 		.word	wa
 1090 01e4 00000000 		.word	thread2
 1091 01e8 00000000 		.word	threads
 1092 01ec 00000000 		.word	vtlist
 1093 01f0 14000000 		.word	.LC5
 1094              	.LBE6:
 1095              	.LBE7:
 1096              		.cfi_endproc
 1097              	.LFE12:
 1098              		.size	sem2_execute, .-sem2_execute
 1099              		.section	.text.sem3_setup,"ax",%progbits
 1100              		.align	2
 1101              		.syntax unified
 1102              		.arm
 1103              		.fpu softvfp
 1104              		.type	sem3_setup, %function
 1105              	sem3_setup:
 1106              	.LFB22:
 1107              		.cfi_startproc
 1108              		@ args = 0, pretend = 0, frame = 0
 1109              		@ frame_needed = 0, uses_anonymous_args = 0
 1110              		@ link register save eliminated.
 1111 0000 0010A0E3 		mov	r1, #0
 1112 0004 00009FE5 		ldr	r0, .L58
 1113 0008 FEFFFFEA 		b	chSemInit
 1114              	.L59:
 1115              		.align	2
 1116              	.L58:
 1117 000c 00000000 		.word	.LANCHOR0
 1118              		.cfi_endproc
 1119              	.LFE22:
 1120              		.size	sem3_setup, .-sem3_setup
 1121              		.section	.text.sem2_setup,"ax",%progbits
 1122              		.align	2
 1123              		.syntax unified
 1124              		.arm
 1125              		.fpu softvfp
 1126              		.type	sem2_setup, %function
 1127              	sem2_setup:
 1128              	.LFB20:
 1129              		.cfi_startproc
 1130              		@ args = 0, pretend = 0, frame = 0
 1131              		@ frame_needed = 0, uses_anonymous_args = 0
 1132              		@ link register save eliminated.
 1133 0000 0010A0E3 		mov	r1, #0
 1134 0004 00009FE5 		ldr	r0, .L61
 1135 0008 FEFFFFEA 		b	chSemInit
 1136              	.L62:
 1137              		.align	2
 1138              	.L61:
 1139 000c 00000000 		.word	.LANCHOR0
ARM GAS  /tmp/ccOkoOmU.s 			page 21


 1140              		.cfi_endproc
 1141              	.LFE20:
 1142              		.size	sem2_setup, .-sem2_setup
 1143              		.global	patternsem
 1144              		.global	testsem4
 1145              		.section	.rodata.str1.4,"aMS",%progbits,1
 1146              		.align	2
 1147              	.LC6:
 1148 0000 42696E61 		.ascii	"Binary Semaphores, functionality\000"
 1148      72792053 
 1148      656D6170 
 1148      686F7265 
 1148      732C2066 
 1149              		.global	testsem3
 1150 0021 000000   		.align	2
 1151              	.LC7:
 1152 0024 53656D61 		.ascii	"Semaphores, atomic signal-wait\000"
 1152      70686F72 
 1152      65732C20 
 1152      61746F6D 
 1152      69632073 
 1153              		.global	testsem2
 1154 0043 00       		.align	2
 1155              	.LC8:
 1156 0044 53656D61 		.ascii	"Semaphores, timeout\000"
 1156      70686F72 
 1156      65732C20 
 1156      74696D65 
 1156      6F757400 
 1157              		.global	testsem1
 1158              		.align	2
 1159              	.LC9:
 1160 0058 53656D61 		.ascii	"Semaphores, enqueuing\000"
 1160      70686F72 
 1160      65732C20 
 1160      656E7175 
 1160      6575696E 
 1161              		.section	.data.sem1,"aw"
 1162              		.align	2
 1163              		.set	.LANCHOR0,. + 0
 1164              		.type	sem1, %object
 1165              		.size	sem1, 12
 1166              	sem1:
 1167 0000 00000000 		.word	sem1
 1168 0004 00000000 		.word	sem1
 1169 0008 00000000 		.word	0
 1170              		.section	.rodata.patternsem,"a"
 1171              		.align	2
 1172              		.type	patternsem, %object
 1173              		.size	patternsem, 20
 1174              	patternsem:
 1175 0000 00000000 		.word	testsem1
 1176 0004 00000000 		.word	testsem2
 1177 0008 00000000 		.word	testsem3
 1178 000c 00000000 		.word	testsem4
 1179 0010 00000000 		.word	0
 1180              		.section	.rodata.testsem1,"a"
ARM GAS  /tmp/ccOkoOmU.s 			page 22


 1181              		.align	2
 1182              		.type	testsem1, %object
 1183              		.size	testsem1, 16
 1184              	testsem1:
 1185 0000 58000000 		.word	.LC9
 1186 0004 00000000 		.word	sem1_setup
 1187 0008 00000000 		.word	0
 1188 000c 00000000 		.word	sem1_execute
 1189              		.section	.rodata.testsem2,"a"
 1190              		.align	2
 1191              		.type	testsem2, %object
 1192              		.size	testsem2, 16
 1193              	testsem2:
 1194 0000 44000000 		.word	.LC8
 1195 0004 00000000 		.word	sem2_setup
 1196 0008 00000000 		.word	0
 1197 000c 00000000 		.word	sem2_execute
 1198              		.section	.rodata.testsem3,"a"
 1199              		.align	2
 1200              		.type	testsem3, %object
 1201              		.size	testsem3, 16
 1202              	testsem3:
 1203 0000 24000000 		.word	.LC7
 1204 0004 00000000 		.word	sem3_setup
 1205 0008 00000000 		.word	0
 1206 000c 00000000 		.word	sem3_execute
 1207              		.section	.rodata.testsem4,"a"
 1208              		.align	2
 1209              		.type	testsem4, %object
 1210              		.size	testsem4, 16
 1211              	testsem4:
 1212 0000 00000000 		.word	.LC6
 1213 0004 00000000 		.word	0
 1214 0008 00000000 		.word	0
 1215 000c 00000000 		.word	sem4_execute
 1216              		.text
 1217              	.Letext0:
 1218              		.file 2 "/usr/lib/gcc/arm-none-eabi/11.2.0/include/stddef.h"
 1219              		.file 3 "/usr/arm-none-eabi/include/machine/_default_types.h"
 1220              		.file 4 "/usr/arm-none-eabi/include/sys/_stdint.h"
 1221              		.file 5 "../../os/ports/GCC/ARM/chtypes.h"
 1222              		.file 6 "../../os/kernel/include/chlists.h"
 1223              		.file 7 "../../os/kernel/include/chthreads.h"
 1224              		.file 8 "../../os/ports/GCC/ARM/chcore.h"
 1225              		.file 9 "../../os/kernel/include/chvt.h"
 1226              		.file 10 "../../os/kernel/include/chschd.h"
 1227              		.file 11 "../../os/kernel/include/chsem.h"
 1228              		.file 12 "../../os/kernel/include/chbsem.h"
 1229              		.file 13 "../../os/kernel/include/chmtx.h"
 1230              		.file 14 "../../test/test.h"