ARM GAS  /tmp/ccBwqQNE.s 			page 1


   1              		.cpu arm1176jz-s
   2              		.eabi_attribute 20, 1
   3              		.eabi_attribute 21, 1
   4              		.eabi_attribute 23, 3
   5              		.eabi_attribute 24, 1
   6              		.eabi_attribute 25, 1
   7              		.eabi_attribute 26, 1
   8              		.eabi_attribute 30, 2
   9              		.eabi_attribute 34, 1
  10              		.eabi_attribute 18, 4
  11              		.file	"testdyn.c"
  12              		.text
  13              	.Ltext0:
  14              		.cfi_sections	.debug_frame
  15              		.section	.rodata.dyn1_execute.str1.4,"aMS",%progbits,1
  16              		.align	2
  17              	.LC0:
  18 0000 4100     		.ascii	"A\000"
  19 0002 0000     		.align	2
  20              	.LC1:
  21 0004 4200     		.ascii	"B\000"
  22 0006 0000     		.align	2
  23              	.LC2:
  24 0008 4300     		.ascii	"C\000"
  25 000a 0000     		.align	2
  26              	.LC3:
  27 000c 414200   		.ascii	"AB\000"
  28              		.section	.text.dyn1_execute,"ax",%progbits
  29              		.align	2
  30              		.arch armv6kz
  31              		.syntax unified
  32              		.arm
  33              		.fpu softvfp
  34              		.type	dyn1_execute, %function
  35              	dyn1_execute:
  36              	.LFB9:
  37              		.file 1 "../../test/testdyn.c"
  38              		.loc 1 87 32 view -0
  39              		.cfi_startproc
  40              		@ args = 0, pretend = 0, frame = 8
  41              		@ frame_needed = 0, uses_anonymous_args = 0
  42              		.loc 1 88 3 view .LVU1
  43              		.loc 1 89 3 view .LVU2
  44              		.loc 1 90 3 view .LVU3
  45              		.loc 1 87 32 is_stmt 0 view .LVU4
  46 0000 70402DE9 		push	{r4, r5, r6, lr}
  47              		.cfi_def_cfa_offset 16
  48              		.cfi_offset 4, -16
  49              		.cfi_offset 5, -12
  50              		.cfi_offset 6, -8
  51              		.cfi_offset 14, -4
  52              		.loc 1 90 18 view .LVU5
  53 0004 64319FE5 		ldr	r3, .L14
  54              		.loc 1 87 32 view .LVU6
  55 0008 10D04DE2 		sub	sp, sp, #16
  56              		.cfi_def_cfa_offset 32
  57              		.loc 1 90 11 view .LVU7
ARM GAS  /tmp/ccBwqQNE.s 			page 2


  58 000c 183093E5 		ldr	r3, [r3, #24]
  59              		.loc 1 92 9 view .LVU8
  60 0010 0C108DE2 		add	r1, sp, #12
  61 0014 58019FE5 		ldr	r0, .L14+4
  62              		.loc 1 90 11 view .LVU9
  63 0018 086093E5 		ldr	r6, [r3, #8]
  64              	.LVL0:
  65              		.loc 1 92 3 is_stmt 1 view .LVU10
  66              		.loc 1 92 9 is_stmt 0 view .LVU11
  67 001c FEFFFFEB 		bl	chHeapStatus
  68              	.LVL1:
  69              		.loc 1 94 3 is_stmt 1 view .LVU12
  70              		.loc 1 94 16 is_stmt 0 view .LVU13
  71 0020 50019FE5 		ldr	r0, .L14+8
  72 0024 461FA0E3 		mov	r1, #280
  73 0028 4C319FE5 		ldr	r3, .L14+12
  74 002c 012046E2 		sub	r2, r6, #1
  75 0030 00008DE5 		str	r0, [sp]
  76 0034 38019FE5 		ldr	r0, .L14+4
  77 0038 FEFFFFEB 		bl	chThdCreateFromHeap
  78              	.LVL2:
  79 003c 00C0A0E1 		mov	ip, r0
  80              		.loc 1 96 16 view .LVU14
  81 0040 38219FE5 		ldr	r2, .L14+16
  82              		.loc 1 94 14 view .LVU15
  83 0044 38419FE5 		ldr	r4, .L14+20
  84              		.loc 1 96 16 view .LVU16
  85 0048 461FA0E3 		mov	r1, #280
  86 004c 28319FE5 		ldr	r3, .L14+12
  87 0050 00208DE5 		str	r2, [sp]
  88 0054 18019FE5 		ldr	r0, .L14+4
  89 0058 022046E2 		sub	r2, r6, #2
  90              		.loc 1 94 14 view .LVU17
  91 005c 00C084E5 		str	ip, [r4]
  92              		.loc 1 96 3 is_stmt 1 view .LVU18
  93              		.loc 1 96 16 is_stmt 0 view .LVU19
  94 0060 FEFFFFEB 		bl	chThdCreateFromHeap
  95              	.LVL3:
  96 0064 0030A0E1 		mov	r3, r0
  97              		.loc 1 99 9 view .LVU20
  98 0068 08108DE2 		add	r1, sp, #8
  99 006c 00019FE5 		ldr	r0, .L14+4
 100              		.loc 1 96 14 view .LVU21
 101 0070 043084E5 		str	r3, [r4, #4]
 102              		.loc 1 99 3 is_stmt 1 view .LVU22
 103              		.loc 1 99 9 is_stmt 0 view .LVU23
 104 0074 FEFFFFEB 		bl	chHeapStatus
 105              	.LVL4:
 106              		.loc 1 100 3 is_stmt 1 view .LVU24
 107              		.loc 1 100 8 is_stmt 0 view .LVU25
 108 0078 08109DE5 		ldr	r1, [sp, #8]
 109 007c F0009FE5 		ldr	r0, .L14+4
 110 0080 FEFFFFEB 		bl	chHeapAlloc
 111              	.LVL5:
 112              		.loc 1 101 16 view .LVU26
 113 0084 FC309FE5 		ldr	r3, .L14+24
 114 0088 461FA0E3 		mov	r1, #280
ARM GAS  /tmp/ccBwqQNE.s 			page 3


 115              		.loc 1 100 8 view .LVU27
 116 008c 0050A0E1 		mov	r5, r0
 117              		.loc 1 101 16 view .LVU28
 118 0090 032046E2 		sub	r2, r6, #3
 119 0094 00308DE5 		str	r3, [sp]
 120 0098 D4009FE5 		ldr	r0, .L14+4
 121              	.LVL6:
 122              		.loc 1 101 3 is_stmt 1 view .LVU29
 123              		.loc 1 101 16 is_stmt 0 view .LVU30
 124 009c D8309FE5 		ldr	r3, .L14+12
 125 00a0 FEFFFFEB 		bl	chThdCreateFromHeap
 126              	.LVL7:
 127 00a4 0030A0E1 		mov	r3, r0
 128              		.loc 1 103 3 view .LVU31
 129 00a8 0500A0E1 		mov	r0, r5
 130              		.loc 1 101 14 view .LVU32
 131 00ac 083084E5 		str	r3, [r4, #8]
 132              		.loc 1 103 3 is_stmt 1 view .LVU33
 133 00b0 FEFFFFEB 		bl	chHeapFree
 134              	.LVL8:
 135              		.loc 1 105 3 view .LVU34
 136 00b4 001094E5 		ldr	r1, [r4]
 137 00b8 000051E3 		cmp	r1, #0
 138 00bc 0600000A 		beq	.L2
 139              		.loc 1 105 3 is_stmt 0 discriminator 1 view .LVU35
 140 00c0 041094E5 		ldr	r1, [r4, #4]
 141 00c4 000051E3 		cmp	r1, #0
 142 00c8 0300000A 		beq	.L2
 143              		.loc 1 105 3 discriminator 3 view .LVU36
 144 00cc 081094E5 		ldr	r1, [r4, #8]
 145 00d0 000051E3 		cmp	r1, #0
 146 00d4 0010A013 		movne	r1, #0
 147 00d8 1E00000A 		beq	.L12
 148              	.L2:
 149              		.loc 1 105 3 discriminator 12 view .LVU37
 150 00dc 0100A0E3 		mov	r0, #1
 151 00e0 FEFFFFEB 		bl	_test_assert
 152              	.LVL9:
 153 00e4 000050E3 		cmp	r0, #0
 154 00e8 0100000A 		beq	.L13
 155              	.L1:
 156              		.loc 1 119 1 view .LVU38
 157 00ec 10D08DE2 		add	sp, sp, #16
 158              		.cfi_remember_state
 159              		.cfi_def_cfa_offset 16
 160              		@ sp needed
 161 00f0 7080BDE8 		pop	{r4, r5, r6, pc}
 162              	.LVL10:
 163              	.L13:
 164              		.cfi_restore_state
 165              		.loc 1 110 43 is_stmt 1 view .LVU39
 166              		.loc 1 113 3 view .LVU40
 167 00f4 FEFFFFEB 		bl	test_wait_threads
 168              	.LVL11:
 169              		.loc 1 114 3 view .LVU41
 170 00f8 0200A0E3 		mov	r0, #2
 171 00fc 88109FE5 		ldr	r1, .L14+28
ARM GAS  /tmp/ccBwqQNE.s 			page 4


 172 0100 FEFFFFEB 		bl	_test_assert_sequence
 173              	.LVL12:
 174 0104 000050E3 		cmp	r0, #0
 175 0108 F7FFFF1A 		bne	.L1
 176              		.loc 1 114 32 discriminator 2 view .LVU42
 177              		.loc 1 117 3 discriminator 2 view .LVU43
 178 010c 08108DE2 		add	r1, sp, #8
 179 0110 5C009FE5 		ldr	r0, .L14+4
 180 0114 FEFFFFEB 		bl	chHeapStatus
 181              	.LVL13:
 182 0118 0010A0E1 		mov	r1, r0
 183 011c 011041E2 		sub	r1, r1, #1
 184 0120 111F6FE1 		clz	r1, r1
 185 0124 0300A0E3 		mov	r0, #3
 186 0128 A112A0E1 		lsr	r1, r1, #5
 187 012c FEFFFFEB 		bl	_test_assert
 188              	.LVL14:
 189 0130 000050E3 		cmp	r0, #0
 190 0134 ECFFFF1A 		bne	.L1
 191              		.loc 1 117 67 discriminator 2 view .LVU44
 192              		.loc 1 118 3 discriminator 2 view .LVU45
 193 0138 08109DE5 		ldr	r1, [sp, #8]
 194 013c 0C309DE5 		ldr	r3, [sp, #12]
 195 0140 0400A0E3 		mov	r0, #4
 196 0144 031041E0 		sub	r1, r1, r3
 197 0148 111F6FE1 		clz	r1, r1
 198 014c A112A0E1 		lsr	r1, r1, #5
 199 0150 FEFFFFEB 		bl	_test_assert
 200              	.LVL15:
 201              		.loc 1 118 3 discriminator 2 view .LVU46
 202 0154 E4FFFFEA 		b	.L1
 203              	.L12:
 204              		.loc 1 105 3 is_stmt 0 discriminator 5 view .LVU47
 205 0158 0C3094E5 		ldr	r3, [r4, #12]
 206 015c 000053E3 		cmp	r3, #0
 207 0160 10109405 		ldreq	r1, [r4, #16]
 208 0164 111F6F01 		clzeq	r1, r1
 209 0168 A112A001 		lsreq	r1, r1, #5
 210 016c DAFFFFEA 		b	.L2
 211              	.L15:
 212              		.align	2
 213              	.L14:
 214 0170 00000000 		.word	rlist
 215 0174 00000000 		.word	.LANCHOR0
 216 0178 00000000 		.word	.LC0
 217 017c 00000000 		.word	thread
 218 0180 04000000 		.word	.LC1
 219 0184 00000000 		.word	threads
 220 0188 08000000 		.word	.LC2
 221 018c 0C000000 		.word	.LC3
 222              		.cfi_endproc
 223              	.LFE9:
 224              		.size	dyn1_execute, .-dyn1_execute
 225              		.section	.text.thread,"ax",%progbits
 226              		.align	2
 227              		.syntax unified
 228              		.arm
ARM GAS  /tmp/ccBwqQNE.s 			page 5


 229              		.fpu softvfp
 230              		.type	thread, %function
 231              	thread:
 232              	.LVL16:
 233              	.LFB7:
 234              		.loc 1 75 30 is_stmt 1 view -0
 235              		.cfi_startproc
 236              		@ args = 0, pretend = 0, frame = 0
 237              		@ frame_needed = 0, uses_anonymous_args = 0
 238              		.loc 1 77 3 view .LVU49
 239              		.loc 1 75 30 is_stmt 0 view .LVU50
 240 0000 10402DE9 		push	{r4, lr}
 241              		.cfi_def_cfa_offset 8
 242              		.cfi_offset 4, -8
 243              		.cfi_offset 14, -4
 244              		.loc 1 77 3 view .LVU51
 245 0004 0000D0E5 		ldrb	r0, [r0]	@ zero_extendqisi2
 246              	.LVL17:
 247              		.loc 1 77 3 view .LVU52
 248 0008 FEFFFFEB 		bl	test_emit_token
 249              	.LVL18:
 250              		.loc 1 78 3 is_stmt 1 view .LVU53
 251              		.loc 1 79 1 is_stmt 0 view .LVU54
 252 000c 0000A0E3 		mov	r0, #0
 253 0010 1080BDE8 		pop	{r4, pc}
 254              		.cfi_endproc
 255              	.LFE7:
 256              		.size	thread, .-thread
 257              		.section	.text.dyn1_setup,"ax",%progbits
 258              		.align	2
 259              		.syntax unified
 260              		.arm
 261              		.fpu softvfp
 262              		.type	dyn1_setup, %function
 263              	dyn1_setup:
 264              	.LFB8:
 265              		.loc 1 82 30 is_stmt 1 view -0
 266              		.cfi_startproc
 267              		@ args = 0, pretend = 0, frame = 0
 268              		@ frame_needed = 0, uses_anonymous_args = 0
 269              		@ link register save eliminated.
 270              		.loc 1 84 3 view .LVU56
 271 0000 08209FE5 		ldr	r2, .L19
 272 0004 08109FE5 		ldr	r1, .L19+4
 273 0008 08009FE5 		ldr	r0, .L19+8
 274 000c FEFFFFEA 		b	chHeapInit
 275              	.LVL19:
 276              	.L20:
 277              		.align	2
 278              	.L19:
 279 0010 78050000 		.word	1400
 280 0014 00000000 		.word	test
 281 0018 00000000 		.word	.LANCHOR0
 282              		.cfi_endproc
 283              	.LFE8:
 284              		.size	dyn1_setup, .-dyn1_setup
 285              		.section	.text.dyn3_setup,"ax",%progbits
ARM GAS  /tmp/ccBwqQNE.s 			page 6


 286              		.align	2
 287              		.syntax unified
 288              		.arm
 289              		.fpu softvfp
 290              		.type	dyn3_setup, %function
 291              	dyn3_setup:
 292              	.LFB14:
 293              		.cfi_startproc
 294              		@ args = 0, pretend = 0, frame = 0
 295              		@ frame_needed = 0, uses_anonymous_args = 0
 296              		@ link register save eliminated.
 297 0000 08209FE5 		ldr	r2, .L22
 298 0004 08109FE5 		ldr	r1, .L22+4
 299 0008 08009FE5 		ldr	r0, .L22+8
 300 000c FEFFFFEA 		b	chHeapInit
 301              	.L23:
 302              		.align	2
 303              	.L22:
 304 0010 78050000 		.word	1400
 305 0014 00000000 		.word	test
 306 0018 00000000 		.word	.LANCHOR0
 307              		.cfi_endproc
 308              	.LFE14:
 309              		.size	dyn3_setup, .-dyn3_setup
 310              		.section	.text.dyn3_execute,"ax",%progbits
 311              		.align	2
 312              		.syntax unified
 313              		.arm
 314              		.fpu softvfp
 315              		.type	dyn3_execute, %function
 316              	dyn3_execute:
 317              	.LFB12:
 318              		.loc 1 212 32 view -0
 319              		.cfi_startproc
 320              		@ args = 0, pretend = 0, frame = 0
 321              		@ frame_needed = 0, uses_anonymous_args = 0
 322              		.loc 1 213 3 view .LVU58
 323              		.loc 1 214 3 view .LVU59
 324              	.LVL20:
 325              		.loc 1 217 3 view .LVU60
 326              		.loc 1 212 32 is_stmt 0 view .LVU61
 327 0000 30402DE9 		push	{r4, r5, lr}
 328              		.cfi_def_cfa_offset 12
 329              		.cfi_offset 4, -12
 330              		.cfi_offset 5, -8
 331              		.cfi_offset 14, -4
 332              		.loc 1 214 18 view .LVU62
 333 0004 40329FE5 		ldr	r3, .L42
 334              		.loc 1 217 8 view .LVU63
 335 0008 40C29FE5 		ldr	ip, .L42+4
 336              		.loc 1 214 11 view .LVU64
 337 000c 183093E5 		ldr	r3, [r3, #24]
 338              		.loc 1 212 32 view .LVU65
 339 0010 0CD04DE2 		sub	sp, sp, #12
 340              		.cfi_def_cfa_offset 24
 341              		.loc 1 217 8 view .LVU66
 342 0014 082093E5 		ldr	r2, [r3, #8]
ARM GAS  /tmp/ccBwqQNE.s 			page 7


 343 0018 461FA0E3 		mov	r1, #280
 344 001c 30329FE5 		ldr	r3, .L42+8
 345 0020 012042E2 		sub	r2, r2, #1
 346 0024 00C08DE5 		str	ip, [sp]
 347              	.LVL21:
 348              		.loc 1 217 8 view .LVU67
 349 0028 28029FE5 		ldr	r0, .L42+12
 350 002c FEFFFFEB 		bl	chThdCreateFromHeap
 351              	.LVL22:
 352 0030 0040A0E1 		mov	r4, r0
 353              		.loc 1 218 3 view .LVU68
 354 0034 0100A0E3 		mov	r0, #1
 355              	.LVL23:
 356              		.loc 1 218 3 is_stmt 1 view .LVU69
 357 0038 1E10D4E5 		ldrb	r1, [r4, #30]	@ zero_extendqisi2
 358 003c 001041E0 		sub	r1, r1, r0
 359 0040 111F6FE1 		clz	r1, r1
 360 0044 A112A0E1 		lsr	r1, r1, #5
 361 0048 FEFFFFEB 		bl	_test_assert
 362              	.LVL24:
 363 004c 000050E3 		cmp	r0, #0
 364 0050 0100000A 		beq	.L41
 365              	.L24:
 366              		.loc 1 240 1 is_stmt 0 view .LVU70
 367 0054 0CD08DE2 		add	sp, sp, #12
 368              		.cfi_remember_state
 369              		.cfi_def_cfa_offset 12
 370              		@ sp needed
 371 0058 3080BDE8 		pop	{r4, r5, pc}
 372              	.LVL25:
 373              	.L41:
 374              		.cfi_restore_state
 375              		.loc 1 218 69 is_stmt 1 discriminator 2 view .LVU71
 376              		.loc 1 219 3 discriminator 2 view .LVU72
 377 005c 0400A0E1 		mov	r0, r4
 378 0060 FEFFFFEB 		bl	chThdAddRef
 379              	.LVL26:
 380              		.loc 1 220 3 discriminator 2 view .LVU73
 381 0064 0200A0E3 		mov	r0, #2
 382 0068 1E10D4E5 		ldrb	r1, [r4, #30]	@ zero_extendqisi2
 383 006c 001041E0 		sub	r1, r1, r0
 384 0070 111F6FE1 		clz	r1, r1
 385 0074 A112A0E1 		lsr	r1, r1, #5
 386 0078 FEFFFFEB 		bl	_test_assert
 387              	.LVL27:
 388 007c 000050E3 		cmp	r0, #0
 389 0080 F3FFFF1A 		bne	.L24
 390              		.loc 1 220 65 discriminator 2 view .LVU74
 391              		.loc 1 221 3 discriminator 2 view .LVU75
 392 0084 0400A0E1 		mov	r0, r4
 393 0088 FEFFFFEB 		bl	chThdRelease
 394              	.LVL28:
 395              		.loc 1 222 3 discriminator 2 view .LVU76
 396 008c 1E10D4E5 		ldrb	r1, [r4, #30]	@ zero_extendqisi2
 397 0090 0300A0E3 		mov	r0, #3
 398 0094 011041E2 		sub	r1, r1, #1
 399 0098 111F6FE1 		clz	r1, r1
ARM GAS  /tmp/ccBwqQNE.s 			page 8


 400 009c A112A0E1 		lsr	r1, r1, #5
 401 00a0 FEFFFFEB 		bl	_test_assert
 402              	.LVL29:
 403 00a4 005050E2 		subs	r5, r0, #0
 404 00a8 E9FFFF1A 		bne	.L24
 405              		.loc 1 222 65 view .LVU77
 406              		.loc 1 225 3 view .LVU78
 407              	.LVL30:
 408              	.LBB14:
 409              	.LBI14:
 410              		.loc 1 195 15 view .LVU79
 411              	.LBB15:
 412              		.loc 1 196 3 view .LVU80
 413              		.loc 1 197 3 view .LVU81
 414              		.loc 1 199 3 view .LVU82
 415              		.loc 1 199 9 is_stmt 0 view .LVU83
 416 00ac FEFFFFEB 		bl	chRegFirstThread
 417              	.LVL31:
 418 00b0 0030A0E1 		mov	r3, r0
 419              	.LVL32:
 420              	.L28:
 421              		.loc 1 200 3 is_stmt 1 view .LVU84
 422              		.loc 1 201 5 view .LVU85
 423              		.loc 1 202 11 is_stmt 0 view .LVU86
 424 00b4 0300A0E1 		mov	r0, r3
 425              		.loc 1 201 11 view .LVU87
 426 00b8 030054E1 		cmp	r4, r3
 427 00bc 01508503 		orreq	r5, r5, #1
 428              	.LVL33:
 429              		.loc 1 202 5 is_stmt 1 view .LVU88
 430              		.loc 1 202 11 is_stmt 0 view .LVU89
 431 00c0 FEFFFFEB 		bl	chRegNextThread
 432              	.LVL34:
 433              		.loc 1 203 16 is_stmt 1 view .LVU90
 434 00c4 003050E2 		subs	r3, r0, #0
 435 00c8 F9FFFF1A 		bne	.L28
 436              		.loc 1 204 3 view .LVU91
 437              	.LVL35:
 438              		.loc 1 204 3 is_stmt 0 view .LVU92
 439              	.LBE15:
 440              	.LBE14:
 441              		.loc 1 225 3 view .LVU93
 442 00cc 0510A0E1 		mov	r1, r5
 443 00d0 0400A0E3 		mov	r0, #4
 444 00d4 FEFFFFEB 		bl	_test_assert
 445              	.LVL36:
 446 00d8 005050E2 		subs	r5, r0, #0
 447 00dc DCFFFF1A 		bne	.L24
 448              		.loc 1 225 62 is_stmt 1 view .LVU94
 449              		.loc 1 226 3 view .LVU95
 450              	.LVL37:
 451              	.LBB16:
 452              	.LBI16:
 453              		.loc 1 195 15 view .LVU96
 454              	.LBB17:
 455              		.loc 1 196 3 view .LVU97
 456              		.loc 1 197 3 view .LVU98
ARM GAS  /tmp/ccBwqQNE.s 			page 9


 457              		.loc 1 199 3 view .LVU99
 458              		.loc 1 199 9 is_stmt 0 view .LVU100
 459 00e0 FEFFFFEB 		bl	chRegFirstThread
 460              	.LVL38:
 461 00e4 0030A0E1 		mov	r3, r0
 462              	.LVL39:
 463              	.L29:
 464              		.loc 1 200 3 is_stmt 1 view .LVU101
 465              		.loc 1 201 5 view .LVU102
 466              		.loc 1 202 11 is_stmt 0 view .LVU103
 467 00e8 0300A0E1 		mov	r0, r3
 468              		.loc 1 201 11 view .LVU104
 469 00ec 030054E1 		cmp	r4, r3
 470 00f0 01508503 		orreq	r5, r5, #1
 471              	.LVL40:
 472              		.loc 1 202 5 is_stmt 1 view .LVU105
 473              		.loc 1 202 11 is_stmt 0 view .LVU106
 474 00f4 FEFFFFEB 		bl	chRegNextThread
 475              	.LVL41:
 476              		.loc 1 203 16 is_stmt 1 view .LVU107
 477 00f8 003050E2 		subs	r3, r0, #0
 478 00fc F9FFFF1A 		bne	.L29
 479              		.loc 1 204 3 view .LVU108
 480              	.LVL42:
 481              		.loc 1 204 3 is_stmt 0 view .LVU109
 482              	.LBE17:
 483              	.LBE16:
 484              		.loc 1 226 3 view .LVU110
 485 0100 0510A0E1 		mov	r1, r5
 486 0104 0500A0E3 		mov	r0, #5
 487 0108 FEFFFFEB 		bl	_test_assert
 488              	.LVL43:
 489 010c 000050E3 		cmp	r0, #0
 490 0110 CFFFFF1A 		bne	.L24
 491              		.loc 1 226 52 is_stmt 1 discriminator 2 view .LVU111
 492              		.loc 1 229 3 discriminator 2 view .LVU112
 493 0114 0400A0E1 		mov	r0, r4
 494 0118 FEFFFFEB 		bl	chThdRelease
 495              	.LVL44:
 496              		.loc 1 230 3 discriminator 2 view .LVU113
 497 011c 1E10D4E5 		ldrb	r1, [r4, #30]	@ zero_extendqisi2
 498 0120 0600A0E3 		mov	r0, #6
 499 0124 111F6FE1 		clz	r1, r1
 500 0128 A112A0E1 		lsr	r1, r1, #5
 501 012c FEFFFFEB 		bl	_test_assert
 502              	.LVL45:
 503 0130 000050E3 		cmp	r0, #0
 504 0134 C6FFFF1A 		bne	.L24
 505              		.loc 1 230 52 discriminator 2 view .LVU114
 506              		.loc 1 231 3 discriminator 2 view .LVU115
 507 0138 1C10D4E5 		ldrb	r1, [r4, #28]	@ zero_extendqisi2
 508 013c 0700A0E3 		mov	r0, #7
 509 0140 111F6FE1 		clz	r1, r1
 510 0144 A112A0E1 		lsr	r1, r1, #5
 511 0148 FEFFFFEB 		bl	_test_assert
 512              	.LVL46:
 513 014c 005050E2 		subs	r5, r0, #0
ARM GAS  /tmp/ccBwqQNE.s 			page 10


 514 0150 BFFFFF1A 		bne	.L24
 515              		.loc 1 231 66 view .LVU116
 516              		.loc 1 232 3 view .LVU117
 517              	.LVL47:
 518              	.LBB18:
 519              	.LBI18:
 520              		.loc 1 195 15 view .LVU118
 521              	.LBB19:
 522              		.loc 1 196 3 view .LVU119
 523              		.loc 1 197 3 view .LVU120
 524              		.loc 1 199 3 view .LVU121
 525              		.loc 1 199 9 is_stmt 0 view .LVU122
 526 0154 FEFFFFEB 		bl	chRegFirstThread
 527              	.LVL48:
 528 0158 0030A0E1 		mov	r3, r0
 529              	.LVL49:
 530              	.L30:
 531              		.loc 1 200 3 is_stmt 1 view .LVU123
 532              		.loc 1 201 5 view .LVU124
 533              		.loc 1 202 11 is_stmt 0 view .LVU125
 534 015c 0300A0E1 		mov	r0, r3
 535              		.loc 1 201 11 view .LVU126
 536 0160 030054E1 		cmp	r4, r3
 537 0164 01508503 		orreq	r5, r5, #1
 538              	.LVL50:
 539              		.loc 1 202 5 is_stmt 1 view .LVU127
 540              		.loc 1 202 11 is_stmt 0 view .LVU128
 541 0168 FEFFFFEB 		bl	chRegNextThread
 542              	.LVL51:
 543              		.loc 1 203 16 is_stmt 1 view .LVU129
 544 016c 003050E2 		subs	r3, r0, #0
 545 0170 F9FFFF1A 		bne	.L30
 546              		.loc 1 204 3 view .LVU130
 547              	.LVL52:
 548              		.loc 1 204 3 is_stmt 0 view .LVU131
 549              	.LBE19:
 550              	.LBE18:
 551              		.loc 1 232 3 view .LVU132
 552 0174 0510A0E1 		mov	r1, r5
 553 0178 0800A0E3 		mov	r0, #8
 554 017c FEFFFFEB 		bl	_test_assert
 555              	.LVL53:
 556 0180 005050E2 		subs	r5, r0, #0
 557 0184 B2FFFF1A 		bne	.L24
 558              		.loc 1 232 52 is_stmt 1 view .LVU133
 559              		.loc 1 233 3 view .LVU134
 560              	.LVL54:
 561              	.LBB20:
 562              	.LBI20:
 563              		.loc 1 195 15 view .LVU135
 564              	.LBB21:
 565              		.loc 1 196 3 view .LVU136
 566              		.loc 1 197 3 view .LVU137
 567              		.loc 1 199 3 view .LVU138
 568              		.loc 1 199 9 is_stmt 0 view .LVU139
 569 0188 FEFFFFEB 		bl	chRegFirstThread
 570              	.LVL55:
ARM GAS  /tmp/ccBwqQNE.s 			page 11


 571 018c 0030A0E1 		mov	r3, r0
 572              	.LVL56:
 573              	.L31:
 574              		.loc 1 200 3 is_stmt 1 view .LVU140
 575              		.loc 1 201 5 view .LVU141
 576              		.loc 1 202 11 is_stmt 0 view .LVU142
 577 0190 0300A0E1 		mov	r0, r3
 578              		.loc 1 201 11 view .LVU143
 579 0194 030054E1 		cmp	r4, r3
 580 0198 01508503 		orreq	r5, r5, #1
 581              	.LVL57:
 582              		.loc 1 202 5 is_stmt 1 view .LVU144
 583              		.loc 1 202 11 is_stmt 0 view .LVU145
 584 019c FEFFFFEB 		bl	chRegNextThread
 585              	.LVL58:
 586              		.loc 1 203 16 is_stmt 1 view .LVU146
 587 01a0 003050E2 		subs	r3, r0, #0
 588 01a4 F9FFFF1A 		bne	.L31
 589              		.loc 1 204 3 view .LVU147
 590              	.LVL59:
 591              		.loc 1 204 3 is_stmt 0 view .LVU148
 592              	.LBE21:
 593              	.LBE20:
 594              		.loc 1 233 3 view .LVU149
 595 01a8 0510A0E1 		mov	r1, r5
 596 01ac 0900A0E3 		mov	r0, #9
 597 01b0 FEFFFFEB 		bl	_test_assert
 598              	.LVL60:
 599 01b4 000050E3 		cmp	r0, #0
 600 01b8 A5FFFF1A 		bne	.L24
 601              		.loc 1 233 52 is_stmt 1 discriminator 2 view .LVU150
 602              		.loc 1 234 3 discriminator 2 view .LVU151
 603 01bc 3200A0E3 		mov	r0, #50
 604 01c0 FEFFFFEB 		bl	chThdSleep
 605              	.LVL61:
 606              		.loc 1 235 3 discriminator 2 view .LVU152
 607 01c4 1C10D4E5 		ldrb	r1, [r4, #28]	@ zero_extendqisi2
 608 01c8 0A00A0E3 		mov	r0, #10
 609 01cc 0E1041E2 		sub	r1, r1, #14
 610 01d0 111F6FE1 		clz	r1, r1
 611 01d4 A112A0E1 		lsr	r1, r1, #5
 612 01d8 FEFFFFEB 		bl	_test_assert
 613              	.LVL62:
 614 01dc 005050E2 		subs	r5, r0, #0
 615 01e0 9BFFFF1A 		bne	.L24
 616              		.loc 1 235 67 view .LVU153
 617              		.loc 1 238 3 view .LVU154
 618              	.LVL63:
 619              	.LBB22:
 620              	.LBI22:
 621              		.loc 1 195 15 view .LVU155
 622              	.LBB23:
 623              		.loc 1 196 3 view .LVU156
 624              		.loc 1 197 3 view .LVU157
 625              		.loc 1 199 3 view .LVU158
 626              		.loc 1 199 9 is_stmt 0 view .LVU159
 627 01e4 FEFFFFEB 		bl	chRegFirstThread
ARM GAS  /tmp/ccBwqQNE.s 			page 12


 628              	.LVL64:
 629 01e8 0030A0E1 		mov	r3, r0
 630              	.LVL65:
 631              	.L32:
 632              		.loc 1 200 3 is_stmt 1 view .LVU160
 633              		.loc 1 201 5 view .LVU161
 634              		.loc 1 202 11 is_stmt 0 view .LVU162
 635 01ec 0300A0E1 		mov	r0, r3
 636              		.loc 1 201 11 view .LVU163
 637 01f0 030054E1 		cmp	r4, r3
 638 01f4 01508503 		orreq	r5, r5, #1
 639              	.LVL66:
 640              		.loc 1 202 5 is_stmt 1 view .LVU164
 641              		.loc 1 202 11 is_stmt 0 view .LVU165
 642 01f8 FEFFFFEB 		bl	chRegNextThread
 643              	.LVL67:
 644              		.loc 1 203 16 is_stmt 1 view .LVU166
 645 01fc 003050E2 		subs	r3, r0, #0
 646 0200 F9FFFF1A 		bne	.L32
 647              		.loc 1 204 3 view .LVU167
 648              	.LVL68:
 649              		.loc 1 204 3 is_stmt 0 view .LVU168
 650              	.LBE23:
 651              	.LBE22:
 652              		.loc 1 238 3 view .LVU169
 653 0204 0510A0E1 		mov	r1, r5
 654 0208 0B00A0E3 		mov	r0, #11
 655 020c FEFFFFEB 		bl	_test_assert
 656              	.LVL69:
 657 0210 005050E2 		subs	r5, r0, #0
 658 0214 8EFFFF1A 		bne	.L24
 659              		.loc 1 238 53 is_stmt 1 view .LVU170
 660              		.loc 1 239 3 view .LVU171
 661              	.LVL70:
 662              	.LBB24:
 663              	.LBI24:
 664              		.loc 1 195 15 view .LVU172
 665              	.LBB25:
 666              		.loc 1 196 3 view .LVU173
 667              		.loc 1 197 3 view .LVU174
 668              		.loc 1 199 3 view .LVU175
 669              		.loc 1 199 9 is_stmt 0 view .LVU176
 670 0218 FEFFFFEB 		bl	chRegFirstThread
 671              	.LVL71:
 672 021c 0030A0E1 		mov	r3, r0
 673              	.LVL72:
 674              	.L33:
 675              		.loc 1 200 3 is_stmt 1 view .LVU177
 676              		.loc 1 201 5 view .LVU178
 677              		.loc 1 202 11 is_stmt 0 view .LVU179
 678 0220 0300A0E1 		mov	r0, r3
 679              		.loc 1 201 11 view .LVU180
 680 0224 030054E1 		cmp	r4, r3
 681 0228 01508503 		orreq	r5, r5, #1
 682              	.LVL73:
 683              		.loc 1 202 5 is_stmt 1 view .LVU181
 684              		.loc 1 202 11 is_stmt 0 view .LVU182
ARM GAS  /tmp/ccBwqQNE.s 			page 13


 685 022c FEFFFFEB 		bl	chRegNextThread
 686              	.LVL74:
 687              		.loc 1 203 16 is_stmt 1 view .LVU183
 688 0230 003050E2 		subs	r3, r0, #0
 689 0234 F9FFFF1A 		bne	.L33
 690              		.loc 1 204 3 view .LVU184
 691              	.LVL75:
 692              		.loc 1 204 3 is_stmt 0 view .LVU185
 693              	.LBE25:
 694              	.LBE24:
 695              		.loc 1 239 3 view .LVU186
 696 0238 0C00A0E3 		mov	r0, #12
 697 023c 011025E2 		eor	r1, r5, #1
 698              		.loc 1 240 1 view .LVU187
 699 0240 0CD08DE2 		add	sp, sp, #12
 700              		.cfi_def_cfa_offset 12
 701              		@ sp needed
 702 0244 3040BDE8 		pop	{r4, r5, lr}
 703              		.cfi_restore 14
 704              		.cfi_restore 5
 705              		.cfi_restore 4
 706              		.cfi_def_cfa_offset 0
 707              	.LVL76:
 708              		.loc 1 239 3 view .LVU188
 709 0248 FEFFFFEA 		b	_test_assert
 710              	.LVL77:
 711              	.L43:
 712              		.align	2
 713              	.L42:
 714 024c 00000000 		.word	rlist
 715 0250 00000000 		.word	.LC0
 716 0254 00000000 		.word	thread
 717 0258 00000000 		.word	.LANCHOR0
 718              		.cfi_endproc
 719              	.LFE12:
 720              		.size	dyn3_execute, .-dyn3_execute
 721              		.global	patterndyn
 722              		.global	testdyn3
 723              		.section	.rodata.str1.4,"aMS",%progbits,1
 724              		.align	2
 725              	.LC4:
 726 0000 44796E61 		.ascii	"Dynamic APIs, registry and references\000"
 726      6D696320 
 726      41504973 
 726      2C207265 
 726      67697374 
 727              		.global	testdyn1
 728 0026 0000     		.align	2
 729              	.LC5:
 730 0028 44796E61 		.ascii	"Dynamic APIs, threads creation from heap\000"
 730      6D696320 
 730      41504973 
 730      2C207468 
 730      72656164 
 731              		.section	.bss.heap1,"aw",%nobits
 732              		.align	2
 733              		.set	.LANCHOR0,. + 0
ARM GAS  /tmp/ccBwqQNE.s 			page 14


 734              		.type	heap1, %object
 735              		.size	heap1, 28
 736              	heap1:
 737 0000 00000000 		.space	28
 737      00000000 
 737      00000000 
 737      00000000 
 737      00000000 
 738              		.section	.rodata.patterndyn,"a"
 739              		.align	2
 740              		.type	patterndyn, %object
 741              		.size	patterndyn, 12
 742              	patterndyn:
 743 0000 00000000 		.word	testdyn1
 744 0004 00000000 		.word	testdyn3
 745 0008 00000000 		.word	0
 746              		.section	.rodata.testdyn1,"a"
 747              		.align	2
 748              		.type	testdyn1, %object
 749              		.size	testdyn1, 16
 750              	testdyn1:
 751 0000 28000000 		.word	.LC5
 752 0004 00000000 		.word	dyn1_setup
 753 0008 00000000 		.word	0
 754 000c 00000000 		.word	dyn1_execute
 755              		.section	.rodata.testdyn3,"a"
 756              		.align	2
 757              		.type	testdyn3, %object
 758              		.size	testdyn3, 16
 759              	testdyn3:
 760 0000 00000000 		.word	.LC4
 761 0004 00000000 		.word	dyn3_setup
 762 0008 00000000 		.word	0
 763 000c 00000000 		.word	dyn3_execute
 764              		.text
 765              	.Letext0:
 766              		.file 2 "/usr/lib/gcc/arm-none-eabi/11.2.0/include/stddef.h"
 767              		.file 3 "/usr/arm-none-eabi/include/machine/_default_types.h"
 768              		.file 4 "/usr/arm-none-eabi/include/sys/_stdint.h"
 769              		.file 5 "../../os/ports/GCC/ARM/chtypes.h"
 770              		.file 6 "../../os/kernel/include/chlists.h"
 771              		.file 7 "../../os/kernel/include/chthreads.h"
 772              		.file 8 "../../os/ports/GCC/ARM/chcore.h"
 773              		.file 9 "../../os/kernel/include/chschd.h"
 774              		.file 10 "../../os/kernel/include/chmtx.h"
 775              		.file 11 "../../os/kernel/include/chmemcore.h"
 776              		.file 12 "../../os/kernel/include/chheap.h"
 777              		.file 13 "../../test/test.h"
 778              		.file 14 "../../os/kernel/include/chdynamic.h"
 779              		.file 15 "../../os/kernel/include/chregistry.h"