ARM GAS  /tmp/ccOWfCJy.s 			page 1


   1              		.cpu arm1176jz-s
   2              		.eabi_attribute 20, 1
   3              		.eabi_attribute 21, 1
   4              		.eabi_attribute 23, 3
   5              		.eabi_attribute 24, 1
   6              		.eabi_attribute 25, 1
   7              		.eabi_attribute 26, 1
   8              		.eabi_attribute 30, 2
   9              		.eabi_attribute 34, 1
  10              		.eabi_attribute 18, 4
  11              		.file	"testthd.c"
  12              		.text
  13              	.Ltext0:
  14              		.cfi_sections	.debug_frame
  15              		.section	.rodata.thd1_execute.str1.4,"aMS",%progbits,1
  16              		.align	2
  17              	.LC0:
  18 0000 4500     		.ascii	"E\000"
  19 0002 0000     		.align	2
  20              	.LC1:
  21 0004 4400     		.ascii	"D\000"
  22 0006 0000     		.align	2
  23              	.LC2:
  24 0008 4300     		.ascii	"C\000"
  25 000a 0000     		.align	2
  26              	.LC3:
  27 000c 4200     		.ascii	"B\000"
  28 000e 0000     		.align	2
  29              	.LC4:
  30 0010 4100     		.ascii	"A\000"
  31 0012 0000     		.align	2
  32              	.LC5:
  33 0014 41424344 		.ascii	"ABCDE\000"
  33      4500
  34              		.section	.text.thd1_execute,"ax",%progbits
  35              		.align	2
  36              		.arch armv6kz
  37              		.syntax unified
  38              		.arm
  39              		.fpu softvfp
  40              		.type	thd1_execute, %function
  41              	thd1_execute:
  42              	.LFB8:
  43              		.file 1 "../../test/testthd.c"
  44              		.loc 1 70 32 view -0
  45              		.cfi_startproc
  46              		@ args = 0, pretend = 0, frame = 0
  47              		@ frame_needed = 0, uses_anonymous_args = 0
  48              		.loc 1 72 3 view .LVU1
  49              		.loc 1 70 32 is_stmt 0 view .LVU2
  50 0000 F0402DE9 		push	{r4, r5, r6, r7, lr}
  51              		.cfi_def_cfa_offset 20
  52              		.cfi_offset 4, -20
  53              		.cfi_offset 5, -16
  54              		.cfi_offset 6, -12
  55              		.cfi_offset 7, -8
  56              		.cfi_offset 14, -4
ARM GAS  /tmp/ccOWfCJy.s 			page 2


  57              		.loc 1 72 50 view .LVU3
  58 0004 FC709FE5 		ldr	r7, .L4
  59              		.loc 1 72 16 view .LVU4
  60 0008 FC609FE5 		ldr	r6, .L4+4
  61              		.loc 1 72 50 view .LVU5
  62 000c 183097E5 		ldr	r3, [r7, #24]
  63              		.loc 1 72 36 view .LVU6
  64 0010 F8509FE5 		ldr	r5, .L4+8
  65              		.loc 1 72 16 view .LVU7
  66 0014 082093E5 		ldr	r2, [r3, #8]
  67 0018 F4309FE5 		ldr	r3, .L4+12
  68              		.loc 1 70 32 view .LVU8
  69 001c 0CD04DE2 		sub	sp, sp, #12
  70              		.cfi_def_cfa_offset 32
  71              		.loc 1 72 16 view .LVU9
  72 0020 00308DE5 		str	r3, [sp]
  73 0024 461FA0E3 		mov	r1, #280
  74 0028 0630A0E1 		mov	r3, r6
  75 002c 000095E5 		ldr	r0, [r5]
  76 0030 052042E2 		sub	r2, r2, #5
  77 0034 FEFFFFEB 		bl	chThdCreateStatic
  78              	.LVL0:
  79 0038 00C0A0E1 		mov	ip, r0
  80              		.loc 1 73 50 view .LVU10
  81 003c 183097E5 		ldr	r3, [r7, #24]
  82              		.loc 1 72 14 view .LVU11
  83 0040 D0409FE5 		ldr	r4, .L4+16
  84              		.loc 1 73 16 view .LVU12
  85 0044 082093E5 		ldr	r2, [r3, #8]
  86 0048 CC309FE5 		ldr	r3, .L4+20
  87 004c 461FA0E3 		mov	r1, #280
  88 0050 00308DE5 		str	r3, [sp]
  89 0054 040095E5 		ldr	r0, [r5, #4]
  90 0058 0630A0E1 		mov	r3, r6
  91 005c 042042E2 		sub	r2, r2, #4
  92              		.loc 1 72 14 view .LVU13
  93 0060 00C084E5 		str	ip, [r4]
  94              		.loc 1 73 3 is_stmt 1 view .LVU14
  95              		.loc 1 73 16 is_stmt 0 view .LVU15
  96 0064 FEFFFFEB 		bl	chThdCreateStatic
  97              	.LVL1:
  98 0068 00C0A0E1 		mov	ip, r0
  99              		.loc 1 74 50 view .LVU16
 100 006c 183097E5 		ldr	r3, [r7, #24]
 101              		.loc 1 74 16 view .LVU17
 102 0070 461FA0E3 		mov	r1, #280
 103 0074 082093E5 		ldr	r2, [r3, #8]
 104 0078 A0309FE5 		ldr	r3, .L4+24
 105 007c 080095E5 		ldr	r0, [r5, #8]
 106 0080 00308DE5 		str	r3, [sp]
 107 0084 032042E2 		sub	r2, r2, #3
 108 0088 0630A0E1 		mov	r3, r6
 109              		.loc 1 73 14 view .LVU18
 110 008c 04C084E5 		str	ip, [r4, #4]
 111              		.loc 1 74 3 is_stmt 1 view .LVU19
 112              		.loc 1 74 16 is_stmt 0 view .LVU20
 113 0090 FEFFFFEB 		bl	chThdCreateStatic
ARM GAS  /tmp/ccOWfCJy.s 			page 3


 114              	.LVL2:
 115 0094 00C0A0E1 		mov	ip, r0
 116              		.loc 1 75 50 view .LVU21
 117 0098 183097E5 		ldr	r3, [r7, #24]
 118              		.loc 1 75 16 view .LVU22
 119 009c 461FA0E3 		mov	r1, #280
 120 00a0 082093E5 		ldr	r2, [r3, #8]
 121 00a4 78309FE5 		ldr	r3, .L4+28
 122 00a8 0C0095E5 		ldr	r0, [r5, #12]
 123 00ac 00308DE5 		str	r3, [sp]
 124 00b0 022042E2 		sub	r2, r2, #2
 125 00b4 0630A0E1 		mov	r3, r6
 126              		.loc 1 74 14 view .LVU23
 127 00b8 08C084E5 		str	ip, [r4, #8]
 128              		.loc 1 75 3 is_stmt 1 view .LVU24
 129              		.loc 1 75 16 is_stmt 0 view .LVU25
 130 00bc FEFFFFEB 		bl	chThdCreateStatic
 131              	.LVL3:
 132 00c0 00C0A0E1 		mov	ip, r0
 133              		.loc 1 76 50 view .LVU26
 134 00c4 182097E5 		ldr	r2, [r7, #24]
 135              		.loc 1 76 16 view .LVU27
 136 00c8 58109FE5 		ldr	r1, .L4+32
 137 00cc 082092E5 		ldr	r2, [r2, #8]
 138 00d0 0630A0E1 		mov	r3, r6
 139 00d4 012042E2 		sub	r2, r2, #1
 140 00d8 00108DE5 		str	r1, [sp]
 141 00dc 100095E5 		ldr	r0, [r5, #16]
 142 00e0 461FA0E3 		mov	r1, #280
 143              		.loc 1 75 14 view .LVU28
 144 00e4 0CC084E5 		str	ip, [r4, #12]
 145              		.loc 1 76 3 is_stmt 1 view .LVU29
 146              		.loc 1 76 16 is_stmt 0 view .LVU30
 147 00e8 FEFFFFEB 		bl	chThdCreateStatic
 148              	.LVL4:
 149              		.loc 1 76 14 view .LVU31
 150 00ec 100084E5 		str	r0, [r4, #16]
 151              		.loc 1 77 3 is_stmt 1 view .LVU32
 152 00f0 FEFFFFEB 		bl	test_wait_threads
 153              	.LVL5:
 154              		.loc 1 78 3 view .LVU33
 155 00f4 0100A0E3 		mov	r0, #1
 156 00f8 2C109FE5 		ldr	r1, .L4+36
 157              		.loc 1 79 1 is_stmt 0 view .LVU34
 158 00fc 0CD08DE2 		add	sp, sp, #12
 159              		.cfi_def_cfa_offset 20
 160              		@ sp needed
 161 0100 F040BDE8 		pop	{r4, r5, r6, r7, lr}
 162              		.cfi_restore 14
 163              		.cfi_restore 7
 164              		.cfi_restore 6
 165              		.cfi_restore 5
 166              		.cfi_restore 4
 167              		.cfi_def_cfa_offset 0
 168              		.loc 1 78 3 view .LVU35
 169 0104 FEFFFFEA 		b	_test_assert_sequence
 170              	.LVL6:
ARM GAS  /tmp/ccOWfCJy.s 			page 4


 171              	.L5:
 172              		.align	2
 173              	.L4:
 174 0108 00000000 		.word	rlist
 175 010c 00000000 		.word	thread
 176 0110 00000000 		.word	wa
 177 0114 00000000 		.word	.LC0
 178 0118 00000000 		.word	threads
 179 011c 04000000 		.word	.LC1
 180 0120 08000000 		.word	.LC2
 181 0124 0C000000 		.word	.LC3
 182 0128 10000000 		.word	.LC4
 183 012c 14000000 		.word	.LC5
 184              		.cfi_endproc
 185              	.LFE8:
 186              		.size	thd1_execute, .-thd1_execute
 187              		.section	.text.thread,"ax",%progbits
 188              		.align	2
 189              		.syntax unified
 190              		.arm
 191              		.fpu softvfp
 192              		.type	thread, %function
 193              	thread:
 194              	.LVL7:
 195              	.LFB7:
 196              		.loc 1 64 30 is_stmt 1 view -0
 197              		.cfi_startproc
 198              		@ args = 0, pretend = 0, frame = 0
 199              		@ frame_needed = 0, uses_anonymous_args = 0
 200              		.loc 1 66 3 view .LVU37
 201              		.loc 1 64 30 is_stmt 0 view .LVU38
 202 0000 10402DE9 		push	{r4, lr}
 203              		.cfi_def_cfa_offset 8
 204              		.cfi_offset 4, -8
 205              		.cfi_offset 14, -4
 206              		.loc 1 66 3 view .LVU39
 207 0004 0000D0E5 		ldrb	r0, [r0]	@ zero_extendqisi2
 208              	.LVL8:
 209              		.loc 1 66 3 view .LVU40
 210 0008 FEFFFFEB 		bl	test_emit_token
 211              	.LVL9:
 212              		.loc 1 67 3 is_stmt 1 view .LVU41
 213              		.loc 1 68 1 is_stmt 0 view .LVU42
 214 000c 0000A0E3 		mov	r0, #0
 215 0010 1080BDE8 		pop	{r4, pc}
 216              		.cfi_endproc
 217              	.LFE7:
 218              		.size	thread, .-thread
 219              		.section	.text.thd2_execute,"ax",%progbits
 220              		.align	2
 221              		.syntax unified
 222              		.arm
 223              		.fpu softvfp
 224              		.type	thd2_execute, %function
 225              	thd2_execute:
 226              	.LFB9:
 227              		.loc 1 98 32 is_stmt 1 view -0
ARM GAS  /tmp/ccOWfCJy.s 			page 5


 228              		.cfi_startproc
 229              		@ args = 0, pretend = 0, frame = 0
 230              		@ frame_needed = 0, uses_anonymous_args = 0
 231              		.loc 1 100 3 view .LVU44
 232              		.loc 1 98 32 is_stmt 0 view .LVU45
 233 0000 F0402DE9 		push	{r4, r5, r6, r7, lr}
 234              		.cfi_def_cfa_offset 20
 235              		.cfi_offset 4, -20
 236              		.cfi_offset 5, -16
 237              		.cfi_offset 6, -12
 238              		.cfi_offset 7, -8
 239              		.cfi_offset 14, -4
 240              		.loc 1 100 50 view .LVU46
 241 0004 08719FE5 		ldr	r7, .L10
 242              		.loc 1 100 16 view .LVU47
 243 0008 08619FE5 		ldr	r6, .L10+4
 244              		.loc 1 100 50 view .LVU48
 245 000c 183097E5 		ldr	r3, [r7, #24]
 246              		.loc 1 100 36 view .LVU49
 247 0010 04519FE5 		ldr	r5, .L10+8
 248              		.loc 1 100 16 view .LVU50
 249 0014 082093E5 		ldr	r2, [r3, #8]
 250 0018 00319FE5 		ldr	r3, .L10+12
 251              		.loc 1 98 32 view .LVU51
 252 001c 0CD04DE2 		sub	sp, sp, #12
 253              		.cfi_def_cfa_offset 32
 254              		.loc 1 100 16 view .LVU52
 255 0020 00308DE5 		str	r3, [sp]
 256 0024 461FA0E3 		mov	r1, #280
 257 0028 0630A0E1 		mov	r3, r6
 258 002c 040095E5 		ldr	r0, [r5, #4]
 259 0030 042042E2 		sub	r2, r2, #4
 260 0034 FEFFFFEB 		bl	chThdCreateStatic
 261              	.LVL10:
 262 0038 00C0A0E1 		mov	ip, r0
 263              		.loc 1 101 50 view .LVU53
 264 003c 183097E5 		ldr	r3, [r7, #24]
 265              		.loc 1 100 14 view .LVU54
 266 0040 DC409FE5 		ldr	r4, .L10+16
 267              		.loc 1 101 16 view .LVU55
 268 0044 082093E5 		ldr	r2, [r3, #8]
 269 0048 D8309FE5 		ldr	r3, .L10+20
 270 004c 461FA0E3 		mov	r1, #280
 271 0050 00308DE5 		str	r3, [sp]
 272 0054 000095E5 		ldr	r0, [r5]
 273 0058 0630A0E1 		mov	r3, r6
 274 005c 052042E2 		sub	r2, r2, #5
 275              		.loc 1 100 14 view .LVU56
 276 0060 04C084E5 		str	ip, [r4, #4]
 277              		.loc 1 101 3 is_stmt 1 view .LVU57
 278              		.loc 1 101 16 is_stmt 0 view .LVU58
 279 0064 FEFFFFEB 		bl	chThdCreateStatic
 280              	.LVL11:
 281 0068 00C0A0E1 		mov	ip, r0
 282              		.loc 1 102 50 view .LVU59
 283 006c 183097E5 		ldr	r3, [r7, #24]
 284              		.loc 1 102 16 view .LVU60
ARM GAS  /tmp/ccOWfCJy.s 			page 6


 285 0070 461FA0E3 		mov	r1, #280
 286 0074 082093E5 		ldr	r2, [r3, #8]
 287 0078 AC309FE5 		ldr	r3, .L10+24
 288 007c 100095E5 		ldr	r0, [r5, #16]
 289 0080 00308DE5 		str	r3, [sp]
 290 0084 012042E2 		sub	r2, r2, #1
 291 0088 0630A0E1 		mov	r3, r6
 292              		.loc 1 101 14 view .LVU61
 293 008c 00C084E5 		str	ip, [r4]
 294              		.loc 1 102 3 is_stmt 1 view .LVU62
 295              		.loc 1 102 16 is_stmt 0 view .LVU63
 296 0090 FEFFFFEB 		bl	chThdCreateStatic
 297              	.LVL12:
 298 0094 00C0A0E1 		mov	ip, r0
 299              		.loc 1 103 50 view .LVU64
 300 0098 183097E5 		ldr	r3, [r7, #24]
 301              		.loc 1 103 16 view .LVU65
 302 009c 461FA0E3 		mov	r1, #280
 303 00a0 082093E5 		ldr	r2, [r3, #8]
 304 00a4 84309FE5 		ldr	r3, .L10+28
 305 00a8 0C0095E5 		ldr	r0, [r5, #12]
 306 00ac 00308DE5 		str	r3, [sp]
 307 00b0 022042E2 		sub	r2, r2, #2
 308 00b4 0630A0E1 		mov	r3, r6
 309              		.loc 1 102 14 view .LVU66
 310 00b8 10C084E5 		str	ip, [r4, #16]
 311              		.loc 1 103 3 is_stmt 1 view .LVU67
 312              		.loc 1 103 16 is_stmt 0 view .LVU68
 313 00bc FEFFFFEB 		bl	chThdCreateStatic
 314              	.LVL13:
 315              		.loc 1 103 14 view .LVU69
 316 00c0 0C0084E5 		str	r0, [r4, #12]
 317              		.loc 1 105 3 is_stmt 1 view .LVU70
 318              		.syntax divided
 319              	@ 105 "../../test/testthd.c" 1
 320 00c4 9FF021E3 		msr     CPSR_c, #0x9F
 321              	@ 0 "" 2
 322              		.loc 1 105 3 view .LVU71
 323              		.loc 1 105 14 view .LVU72
 324              		.loc 1 106 3 view .LVU73
 325              		.loc 1 106 45 is_stmt 0 view .LVU74
 326              		.arm
 327              		.syntax unified
 328 00c8 183097E5 		ldr	r3, [r7, #24]
 329              		.loc 1 106 16 view .LVU75
 330 00cc 60109FE5 		ldr	r1, .L10+32
 331 00d0 082093E5 		ldr	r2, [r3, #8]
 332 00d4 080095E5 		ldr	r0, [r5, #8]
 333 00d8 00108DE5 		str	r1, [sp]
 334 00dc 0630A0E1 		mov	r3, r6
 335 00e0 461FA0E3 		mov	r1, #280
 336 00e4 032042E2 		sub	r2, r2, #3
 337 00e8 FEFFFFEB 		bl	chThdCreateI
 338              	.LVL14:
 339              		.loc 1 106 14 view .LVU76
 340 00ec 080084E5 		str	r0, [r4, #8]
 341              		.loc 1 107 3 is_stmt 1 view .LVU77
ARM GAS  /tmp/ccOWfCJy.s 			page 7


 342              		.loc 1 107 3 view .LVU78
 343              		.syntax divided
 344              	@ 107 "../../test/testthd.c" 1
 345 00f0 1FF021E3 		msr     CPSR_c, #0x1F
 346              	@ 0 "" 2
 347              		.loc 1 107 16 view .LVU79
 348              		.loc 1 108 3 view .LVU80
 349              		.arm
 350              		.syntax unified
 351 00f4 080094E5 		ldr	r0, [r4, #8]
 352 00f8 FEFFFFEB 		bl	chThdResume
 353              	.LVL15:
 354              		.loc 1 109 3 view .LVU81
 355 00fc FEFFFFEB 		bl	test_wait_threads
 356              	.LVL16:
 357              		.loc 1 110 3 view .LVU82
 358 0100 0100A0E3 		mov	r0, #1
 359 0104 2C109FE5 		ldr	r1, .L10+36
 360              		.loc 1 111 1 is_stmt 0 view .LVU83
 361 0108 0CD08DE2 		add	sp, sp, #12
 362              		.cfi_def_cfa_offset 20
 363              		@ sp needed
 364 010c F040BDE8 		pop	{r4, r5, r6, r7, lr}
 365              		.cfi_restore 14
 366              		.cfi_restore 7
 367              		.cfi_restore 6
 368              		.cfi_restore 5
 369              		.cfi_restore 4
 370              		.cfi_def_cfa_offset 0
 371              		.loc 1 110 3 view .LVU84
 372 0110 FEFFFFEA 		b	_test_assert_sequence
 373              	.LVL17:
 374              	.L11:
 375              		.align	2
 376              	.L10:
 377 0114 00000000 		.word	rlist
 378 0118 00000000 		.word	thread
 379 011c 00000000 		.word	wa
 380 0120 04000000 		.word	.LC1
 381 0124 00000000 		.word	threads
 382 0128 00000000 		.word	.LC0
 383 012c 10000000 		.word	.LC4
 384 0130 0C000000 		.word	.LC3
 385 0134 08000000 		.word	.LC2
 386 0138 14000000 		.word	.LC5
 387              		.cfi_endproc
 388              	.LFE9:
 389              		.size	thd2_execute, .-thd2_execute
 390              		.section	.text.thd3_execute,"ax",%progbits
 391              		.align	2
 392              		.syntax unified
 393              		.arm
 394              		.fpu softvfp
 395              		.type	thd3_execute, %function
 396              	thd3_execute:
 397              	.LFB10:
 398              		.loc 1 130 32 is_stmt 1 view -0
ARM GAS  /tmp/ccOWfCJy.s 			page 8


 399              		.cfi_startproc
 400              		@ args = 0, pretend = 0, frame = 0
 401              		@ frame_needed = 0, uses_anonymous_args = 0
 402              		.loc 1 131 3 view .LVU86
 403              		.loc 1 133 3 view .LVU87
 404              		.loc 1 130 32 is_stmt 0 view .LVU88
 405 0000 F0412DE9 		push	{r4, r5, r6, r7, r8, lr}
 406              		.cfi_def_cfa_offset 24
 407              		.cfi_offset 4, -24
 408              		.cfi_offset 5, -20
 409              		.cfi_offset 6, -16
 410              		.cfi_offset 7, -12
 411              		.cfi_offset 8, -8
 412              		.cfi_offset 14, -4
 413              		.loc 1 133 10 view .LVU89
 414 0004 DC719FE5 		ldr	r7, .L17
 415              		.loc 1 133 8 view .LVU90
 416 0008 183097E5 		ldr	r3, [r7, #24]
 417 000c 085093E5 		ldr	r5, [r3, #8]
 418              	.LVL18:
 419              		.loc 1 134 3 is_stmt 1 view .LVU91
 420              		.loc 1 134 8 is_stmt 0 view .LVU92
 421 0010 016085E2 		add	r6, r5, #1
 422 0014 0600A0E1 		mov	r0, r6
 423 0018 FEFFFFEB 		bl	chThdSetPriority
 424              	.LVL19:
 425 001c 0040A0E1 		mov	r4, r0
 426              		.loc 1 135 3 view .LVU93
 427 0020 041045E0 		sub	r1, r5, r4
 428 0024 111F6FE1 		clz	r1, r1
 429 0028 0100A0E3 		mov	r0, #1
 430              	.LVL20:
 431              		.loc 1 135 3 is_stmt 1 view .LVU94
 432 002c A112A0E1 		lsr	r1, r1, #5
 433 0030 FEFFFFEB 		bl	_test_assert
 434              	.LVL21:
 435 0034 000050E3 		cmp	r0, #0
 436 0038 F081BD18 		popne	{r4, r5, r6, r7, r8, pc}
 437              		.loc 1 136 52 view .LVU95
 438              		.loc 1 137 3 view .LVU96
 439 003c 183097E5 		ldr	r3, [r7, #24]
 440 0040 0200A0E3 		mov	r0, #2
 441 0044 081093E5 		ldr	r1, [r3, #8]
 442 0048 061041E0 		sub	r1, r1, r6
 443 004c 111F6FE1 		clz	r1, r1
 444 0050 A112A0E1 		lsr	r1, r1, #5
 445 0054 FEFFFFEB 		bl	_test_assert
 446              	.LVL22:
 447 0058 000050E3 		cmp	r0, #0
 448 005c F081BD18 		popne	{r4, r5, r6, r7, r8, pc}
 449              		.loc 1 138 43 view .LVU97
 450              		.loc 1 139 3 view .LVU98
 451              		.loc 1 139 8 is_stmt 0 view .LVU99
 452 0060 0400A0E1 		mov	r0, r4
 453 0064 FEFFFFEB 		bl	chThdSetPriority
 454              	.LVL23:
 455 0068 0010A0E1 		mov	r1, r0
ARM GAS  /tmp/ccOWfCJy.s 			page 9


 456              	.LVL24:
 457              		.loc 1 140 3 is_stmt 1 view .LVU100
 458 006c 011046E0 		sub	r1, r6, r1
 459 0070 111F6FE1 		clz	r1, r1
 460 0074 0300A0E3 		mov	r0, #3
 461              	.LVL25:
 462              		.loc 1 140 3 is_stmt 0 view .LVU101
 463 0078 A112A0E1 		lsr	r1, r1, #5
 464 007c FEFFFFEB 		bl	_test_assert
 465              	.LVL26:
 466 0080 000050E3 		cmp	r0, #0
 467 0084 F081BD18 		popne	{r4, r5, r6, r7, r8, pc}
 468              		.loc 1 141 52 is_stmt 1 view .LVU102
 469              		.loc 1 142 3 view .LVU103
 470 0088 183097E5 		ldr	r3, [r7, #24]
 471 008c 0400A0E3 		mov	r0, #4
 472 0090 081093E5 		ldr	r1, [r3, #8]
 473 0094 051041E0 		sub	r1, r1, r5
 474 0098 111F6FE1 		clz	r1, r1
 475 009c A112A0E1 		lsr	r1, r1, #5
 476 00a0 FEFFFFEB 		bl	_test_assert
 477              	.LVL27:
 478 00a4 000050E3 		cmp	r0, #0
 479 00a8 F081BD18 		popne	{r4, r5, r6, r7, r8, pc}
 480              		.loc 1 143 43 view .LVU104
 481              		.loc 1 147 3 view .LVU105
 482              		.syntax divided
 483              	@ 147 "../../test/testthd.c" 1
 484 00ac 9FF021E3 		msr     CPSR_c, #0x9F
 485              	@ 0 "" 2
 486              		.loc 1 147 3 view .LVU106
 487              		.loc 1 147 14 view .LVU107
 488              		.loc 1 148 3 view .LVU108
 489              		.arm
 490              		.syntax unified
 491 00b0 182097E5 		ldr	r2, [r7, #24]
 492              		.loc 1 148 23 is_stmt 0 view .LVU109
 493 00b4 083092E5 		ldr	r3, [r2, #8]
 494 00b8 023083E2 		add	r3, r3, #2
 495 00bc 083082E5 		str	r3, [r2, #8]
 496              		.loc 1 149 3 is_stmt 1 view .LVU110
 497              		.loc 1 149 3 view .LVU111
 498              		.syntax divided
 499              	@ 149 "../../test/testthd.c" 1
 500 00c0 1FF021E3 		msr     CPSR_c, #0x1F
 501              	@ 0 "" 2
 502              		.loc 1 149 16 view .LVU112
 503              		.loc 1 150 3 view .LVU113
 504              		.arm
 505              		.syntax unified
 506 00c4 183097E5 		ldr	r3, [r7, #24]
 507 00c8 024085E2 		add	r4, r5, #2
 508 00cc 081093E5 		ldr	r1, [r3, #8]
 509 00d0 0500A0E3 		mov	r0, #5
 510 00d4 041041E0 		sub	r1, r1, r4
 511 00d8 111F6FE1 		clz	r1, r1
 512 00dc A112A0E1 		lsr	r1, r1, #5
ARM GAS  /tmp/ccOWfCJy.s 			page 10


 513 00e0 FEFFFFEB 		bl	_test_assert
 514              	.LVL28:
 515 00e4 000050E3 		cmp	r0, #0
 516 00e8 F081BD18 		popne	{r4, r5, r6, r7, r8, pc}
 517              		.loc 1 151 43 view .LVU114
 518              		.loc 1 154 3 view .LVU115
 519              		.loc 1 154 8 is_stmt 0 view .LVU116
 520 00ec 0600A0E1 		mov	r0, r6
 521 00f0 FEFFFFEB 		bl	chThdSetPriority
 522              	.LVL29:
 523 00f4 0010A0E1 		mov	r1, r0
 524              	.LVL30:
 525              		.loc 1 155 3 is_stmt 1 view .LVU117
 526 00f8 011045E0 		sub	r1, r5, r1
 527 00fc 111F6FE1 		clz	r1, r1
 528 0100 0600A0E3 		mov	r0, #6
 529              	.LVL31:
 530              		.loc 1 155 3 is_stmt 0 view .LVU118
 531 0104 A112A0E1 		lsr	r1, r1, #5
 532 0108 FEFFFFEB 		bl	_test_assert
 533              	.LVL32:
 534 010c 000050E3 		cmp	r0, #0
 535 0110 F081BD18 		popne	{r4, r5, r6, r7, r8, pc}
 536              		.loc 1 156 52 is_stmt 1 view .LVU119
 537              		.loc 1 157 3 view .LVU120
 538 0114 183097E5 		ldr	r3, [r7, #24]
 539 0118 0700A0E3 		mov	r0, #7
 540 011c 081093E5 		ldr	r1, [r3, #8]
 541 0120 041041E0 		sub	r1, r1, r4
 542 0124 111F6FE1 		clz	r1, r1
 543 0128 A112A0E1 		lsr	r1, r1, #5
 544 012c FEFFFFEB 		bl	_test_assert
 545              	.LVL33:
 546 0130 000050E3 		cmp	r0, #0
 547 0134 F081BD18 		popne	{r4, r5, r6, r7, r8, pc}
 548              		.loc 1 158 43 view .LVU121
 549              		.loc 1 159 3 view .LVU122
 550 0138 183097E5 		ldr	r3, [r7, #24]
 551 013c 0800A0E3 		mov	r0, #8
 552 0140 401093E5 		ldr	r1, [r3, #64]
 553 0144 061041E0 		sub	r1, r1, r6
 554 0148 111F6FE1 		clz	r1, r1
 555 014c A112A0E1 		lsr	r1, r1, #5
 556 0150 FEFFFFEB 		bl	_test_assert
 557              	.LVL34:
 558 0154 000050E3 		cmp	r0, #0
 559 0158 F081BD18 		popne	{r4, r5, r6, r7, r8, pc}
 560              		.loc 1 160 57 view .LVU123
 561              		.loc 1 163 3 view .LVU124
 562              		.loc 1 163 8 is_stmt 0 view .LVU125
 563 015c 034085E2 		add	r4, r5, #3
 564 0160 0400A0E1 		mov	r0, r4
 565 0164 FEFFFFEB 		bl	chThdSetPriority
 566              	.LVL35:
 567 0168 0010A0E1 		mov	r1, r0
 568              	.LVL36:
 569              		.loc 1 164 3 is_stmt 1 view .LVU126
ARM GAS  /tmp/ccOWfCJy.s 			page 11


 570 016c 011046E0 		sub	r1, r6, r1
 571 0170 111F6FE1 		clz	r1, r1
 572 0174 0900A0E3 		mov	r0, #9
 573              	.LVL37:
 574              		.loc 1 164 3 is_stmt 0 view .LVU127
 575 0178 A112A0E1 		lsr	r1, r1, #5
 576 017c FEFFFFEB 		bl	_test_assert
 577              	.LVL38:
 578 0180 000050E3 		cmp	r0, #0
 579 0184 F081BD18 		popne	{r4, r5, r6, r7, r8, pc}
 580              		.loc 1 165 52 is_stmt 1 view .LVU128
 581              		.loc 1 166 3 view .LVU129
 582 0188 183097E5 		ldr	r3, [r7, #24]
 583 018c 0A00A0E3 		mov	r0, #10
 584 0190 081093E5 		ldr	r1, [r3, #8]
 585 0194 041041E0 		sub	r1, r1, r4
 586 0198 111F6FE1 		clz	r1, r1
 587 019c A112A0E1 		lsr	r1, r1, #5
 588 01a0 FEFFFFEB 		bl	_test_assert
 589              	.LVL39:
 590 01a4 000050E3 		cmp	r0, #0
 591 01a8 F081BD18 		popne	{r4, r5, r6, r7, r8, pc}
 592              		.loc 1 167 43 view .LVU130
 593              		.loc 1 168 3 view .LVU131
 594 01ac 183097E5 		ldr	r3, [r7, #24]
 595 01b0 0B00A0E3 		mov	r0, #11
 596 01b4 401093E5 		ldr	r1, [r3, #64]
 597 01b8 041041E0 		sub	r1, r1, r4
 598 01bc 111F6FE1 		clz	r1, r1
 599 01c0 A112A0E1 		lsr	r1, r1, #5
 600 01c4 FEFFFFEB 		bl	_test_assert
 601              	.LVL40:
 602 01c8 000050E3 		cmp	r0, #0
 603 01cc F081BD18 		popne	{r4, r5, r6, r7, r8, pc}
 604              		.loc 1 169 48 view .LVU132
 605              		.loc 1 171 3 view .LVU133
 606              		.syntax divided
 607              	@ 171 "../../test/testthd.c" 1
 608 01d0 9FF021E3 		msr     CPSR_c, #0x9F
 609              	@ 0 "" 2
 610              		.loc 1 171 3 view .LVU134
 611              		.loc 1 171 14 view .LVU135
 612              		.loc 1 172 3 view .LVU136
 613              		.arm
 614              		.syntax unified
 615 01d4 183097E5 		ldr	r3, [r7, #24]
 616              		.loc 1 172 23 is_stmt 0 view .LVU137
 617 01d8 085083E5 		str	r5, [r3, #8]
 618              		.loc 1 173 3 is_stmt 1 view .LVU138
 619              		.loc 1 173 27 is_stmt 0 view .LVU139
 620 01dc 405083E5 		str	r5, [r3, #64]
 621              		.loc 1 174 3 is_stmt 1 view .LVU140
 622              		.loc 1 174 3 view .LVU141
 623              		.syntax divided
 624              	@ 174 "../../test/testthd.c" 1
 625 01e0 1FF021E3 		msr     CPSR_c, #0x1F
 626              	@ 0 "" 2
ARM GAS  /tmp/ccOWfCJy.s 			page 12


 627              		.loc 1 174 16 view .LVU142
 628              		.loc 1 176 1 is_stmt 0 view .LVU143
 629              		.arm
 630              		.syntax unified
 631 01e4 F081BDE8 		pop	{r4, r5, r6, r7, r8, pc}
 632              	.L18:
 633              		.align	2
 634              	.L17:
 635 01e8 00000000 		.word	rlist
 636              		.cfi_endproc
 637              	.LFE10:
 638              		.size	thd3_execute, .-thd3_execute
 639              		.section	.text.thd4_execute,"ax",%progbits
 640              		.align	2
 641              		.syntax unified
 642              		.arm
 643              		.fpu softvfp
 644              		.type	thd4_execute, %function
 645              	thd4_execute:
 646              	.LFB11:
 647              		.loc 1 193 32 is_stmt 1 view -0
 648              		.cfi_startproc
 649              		@ args = 0, pretend = 0, frame = 0
 650              		@ frame_needed = 0, uses_anonymous_args = 0
 651              		.loc 1 194 3 view .LVU145
 652              		.loc 1 196 3 view .LVU146
 653              		.loc 1 193 32 is_stmt 0 view .LVU147
 654 0000 70402DE9 		push	{r4, r5, r6, lr}
 655              		.cfi_def_cfa_offset 16
 656              		.cfi_offset 4, -16
 657              		.cfi_offset 5, -12
 658              		.cfi_offset 6, -8
 659              		.cfi_offset 14, -4
 660              		.loc 1 199 8 view .LVU148
 661 0004 90509FE5 		ldr	r5, .L24
 662              		.loc 1 196 3 view .LVU149
 663 0008 FEFFFFEB 		bl	test_wait_tick
 664              	.LVL41:
 665              		.loc 1 199 3 is_stmt 1 view .LVU150
 666              		.loc 1 199 8 is_stmt 0 view .LVU151
 667 000c 0C4095E5 		ldr	r4, [r5, #12]
 668              	.LVL42:
 669              		.loc 1 200 3 is_stmt 1 view .LVU152
 670 0010 6400A0E3 		mov	r0, #100
 671 0014 FEFFFFEB 		bl	chThdSleep
 672              	.LVL43:
 673              		.loc 1 201 3 view .LVU153
 674 0018 0100A0E3 		mov	r0, #1
 675 001c 652084E2 		add	r2, r4, #101
 676 0020 641084E2 		add	r1, r4, #100
 677 0024 FEFFFFEB 		bl	_test_assert_time_window
 678              	.LVL44:
 679 0028 000050E3 		cmp	r0, #0
 680 002c 7080BD18 		popne	{r4, r5, r6, pc}
 681              	.LBB4:
 682              	.LBI4:
 683              		.loc 1 193 13 view .LVU154
ARM GAS  /tmp/ccOWfCJy.s 			page 13


 684              	.LBB5:
 685              		.loc 1 201 77 view .LVU155
 686              		.loc 1 204 3 view .LVU156
 687              		.loc 1 204 8 is_stmt 0 view .LVU157
 688 0030 0C4095E5 		ldr	r4, [r5, #12]
 689              	.LVL45:
 690              		.loc 1 205 3 is_stmt 1 view .LVU158
 691 0034 6400A0E3 		mov	r0, #100
 692 0038 FEFFFFEB 		bl	chThdSleep
 693              	.LVL46:
 694              		.loc 1 206 3 view .LVU159
 695 003c 0200A0E3 		mov	r0, #2
 696 0040 652084E2 		add	r2, r4, #101
 697 0044 641084E2 		add	r1, r4, #100
 698 0048 FEFFFFEB 		bl	_test_assert_time_window
 699              	.LVL47:
 700 004c 000050E3 		cmp	r0, #0
 701 0050 7080BD18 		popne	{r4, r5, r6, pc}
 702              		.loc 1 206 71 view .LVU160
 703              		.loc 1 209 3 view .LVU161
 704              		.loc 1 209 8 is_stmt 0 view .LVU162
 705 0054 0C4095E5 		ldr	r4, [r5, #12]
 706              	.LVL48:
 707              		.loc 1 210 3 is_stmt 1 view .LVU163
 708 0058 FA0FA0E3 		mov	r0, #1000
 709 005c FEFFFFEB 		bl	chThdSleep
 710              	.LVL49:
 711              		.loc 1 211 3 view .LVU164
 712 0060 FA1F84E2 		add	r1, r4, #1000
 713 0064 0300A0E3 		mov	r0, #3
 714 0068 012081E2 		add	r2, r1, #1
 715 006c FEFFFFEB 		bl	_test_assert_time_window
 716              	.LVL50:
 717 0070 000050E3 		cmp	r0, #0
 718 0074 7080BD18 		popne	{r4, r5, r6, pc}
 719              		.loc 1 211 65 view .LVU165
 720              		.loc 1 214 3 view .LVU166
 721              		.loc 1 214 10 is_stmt 0 view .LVU167
 722 0078 0C4095E5 		ldr	r4, [r5, #12]
 723              	.LVL51:
 724              		.loc 1 214 8 view .LVU168
 725 007c 645084E2 		add	r5, r4, #100
 726              	.LVL52:
 727              		.loc 1 215 3 is_stmt 1 view .LVU169
 728 0080 0500A0E1 		mov	r0, r5
 729 0084 FEFFFFEB 		bl	chThdSleepUntil
 730              	.LVL53:
 731              		.loc 1 216 3 view .LVU170
 732 0088 0510A0E1 		mov	r1, r5
 733 008c 652084E2 		add	r2, r4, #101
 734 0090 0400A0E3 		mov	r0, #4
 735              	.LBE5:
 736              	.LBE4:
 737              		.loc 1 217 1 is_stmt 0 view .LVU171
 738 0094 7040BDE8 		pop	{r4, r5, r6, lr}
 739              		.cfi_restore 14
 740              		.cfi_restore 6
ARM GAS  /tmp/ccOWfCJy.s 			page 14


 741              		.cfi_restore 5
 742              		.cfi_restore 4
 743              		.cfi_def_cfa_offset 0
 744              	.LVL54:
 745              	.LBB7:
 746              	.LBB6:
 747              		.loc 1 216 3 view .LVU172
 748 0098 FEFFFFEA 		b	_test_assert_time_window
 749              	.LVL55:
 750              	.L25:
 751              		.loc 1 216 3 view .LVU173
 752              		.align	2
 753              	.L24:
 754 009c 00000000 		.word	vtlist
 755              	.LBE6:
 756              	.LBE7:
 757              		.cfi_endproc
 758              	.LFE11:
 759              		.size	thd4_execute, .-thd4_execute
 760              		.global	patternthd
 761              		.global	testthd4
 762              		.section	.rodata.str1.4,"aMS",%progbits,1
 763              		.align	2
 764              	.LC6:
 765 0000 54687265 		.ascii	"Threads, delays\000"
 765      6164732C 
 765      2064656C 
 765      61797300 
 766              		.global	testthd3
 767              		.align	2
 768              	.LC7:
 769 0010 54687265 		.ascii	"Threads, priority change\000"
 769      6164732C 
 769      20707269 
 769      6F726974 
 769      79206368 
 770              		.global	testthd2
 771 0029 000000   		.align	2
 772              	.LC8:
 773 002c 54687265 		.ascii	"Threads, enqueuing test #2\000"
 773      6164732C 
 773      20656E71 
 773      75657569 
 773      6E672074 
 774              		.global	testthd1
 775 0047 00       		.align	2
 776              	.LC9:
 777 0048 54687265 		.ascii	"Threads, enqueuing test #1\000"
 777      6164732C 
 777      20656E71 
 777      75657569 
 777      6E672074 
 778              		.section	.rodata.patternthd,"a"
 779              		.align	2
 780              		.type	patternthd, %object
 781              		.size	patternthd, 20
 782              	patternthd:
ARM GAS  /tmp/ccOWfCJy.s 			page 15


 783 0000 00000000 		.word	testthd1
 784 0004 00000000 		.word	testthd2
 785 0008 00000000 		.word	testthd3
 786 000c 00000000 		.word	testthd4
 787 0010 00000000 		.word	0
 788              		.section	.rodata.testthd1,"a"
 789              		.align	2
 790              		.type	testthd1, %object
 791              		.size	testthd1, 16
 792              	testthd1:
 793 0000 48000000 		.word	.LC9
 794 0004 00000000 		.word	0
 795 0008 00000000 		.word	0
 796 000c 00000000 		.word	thd1_execute
 797              		.section	.rodata.testthd2,"a"
 798              		.align	2
 799              		.type	testthd2, %object
 800              		.size	testthd2, 16
 801              	testthd2:
 802 0000 2C000000 		.word	.LC8
 803 0004 00000000 		.word	0
 804 0008 00000000 		.word	0
 805 000c 00000000 		.word	thd2_execute
 806              		.section	.rodata.testthd3,"a"
 807              		.align	2
 808              		.type	testthd3, %object
 809              		.size	testthd3, 16
 810              	testthd3:
 811 0000 10000000 		.word	.LC7
 812 0004 00000000 		.word	0
 813 0008 00000000 		.word	0
 814 000c 00000000 		.word	thd3_execute
 815              		.section	.rodata.testthd4,"a"
 816              		.align	2
 817              		.type	testthd4, %object
 818              		.size	testthd4, 16
 819              	testthd4:
 820 0000 00000000 		.word	.LC6
 821 0004 00000000 		.word	0
 822 0008 00000000 		.word	0
 823 000c 00000000 		.word	thd4_execute
 824              		.text
 825              	.Letext0:
 826              		.file 2 "/usr/lib/gcc/arm-none-eabi/11.2.0/include/stddef.h"
 827              		.file 3 "/usr/arm-none-eabi/include/machine/_default_types.h"
 828              		.file 4 "/usr/arm-none-eabi/include/sys/_stdint.h"
 829              		.file 5 "../../os/ports/GCC/ARM/chtypes.h"
 830              		.file 6 "../../os/kernel/include/chlists.h"
 831              		.file 7 "../../os/kernel/include/chthreads.h"
 832              		.file 8 "../../os/ports/GCC/ARM/chcore.h"
 833              		.file 9 "../../os/kernel/include/chvt.h"
 834              		.file 10 "../../os/kernel/include/chschd.h"
 835              		.file 11 "../../os/kernel/include/chmtx.h"
 836              		.file 12 "../../test/test.h"