ARM GAS  /tmp/ccv5AY6Y.s 			page 1


   1              		.cpu arm1176jz-s
   2              		.eabi_attribute 20, 1
   3              		.eabi_attribute 21, 1
   4              		.eabi_attribute 23, 3
   5              		.eabi_attribute 24, 1
   6              		.eabi_attribute 25, 1
   7              		.eabi_attribute 26, 1
   8              		.eabi_attribute 30, 2
   9              		.eabi_attribute 34, 1
  10              		.eabi_attribute 18, 4
  11              		.file	"test.c"
  12              		.text
  13              	.Ltext0:
  14              		.cfi_sections	.debug_frame
  15              		.section	.text.tmr,"ax",%progbits
  16              		.align	2
  17              		.arch armv6kz
  18              		.syntax unified
  19              		.arm
  20              		.fpu softvfp
  21              		.type	tmr, %function
  22              	tmr:
  23              	.LVL0:
  24              	.LFB21:
  25              		.file 1 "../../test/test.c"
  26              		.loc 1 265 26 view -0
  27              		.cfi_startproc
  28              		@ args = 0, pretend = 0, frame = 0
  29              		@ frame_needed = 0, uses_anonymous_args = 0
  30              		@ link register save eliminated.
  31              		.loc 1 266 3 view .LVU1
  32              		.loc 1 268 3 view .LVU2
  33              		.loc 1 268 19 is_stmt 0 view .LVU3
  34 0000 0120A0E3 		mov	r2, #1
  35 0004 04309FE5 		ldr	r3, .L3
  36 0008 002083E5 		str	r2, [r3]
  37              		.loc 1 269 1 view .LVU4
  38 000c 1EFF2FE1 		bx	lr
  39              	.L4:
  40              		.align	2
  41              	.L3:
  42 0010 00000000 		.word	.LANCHOR0
  43              		.cfi_endproc
  44              	.LFE21:
  45              		.size	tmr, .-tmr
  46              		.section	.rodata.print_line.str1.4,"aMS",%progbits,1
  47              		.align	2
  48              	.LC0:
  49 0000 0D0A00   		.ascii	"\015\012\000"
  50              		.section	.text.print_line,"ax",%progbits
  51              		.align	2
  52              		.syntax unified
  53              		.arm
  54              		.fpu softvfp
  55              		.type	print_line, %function
  56              	print_line:
  57              	.LFB24:
ARM GAS  /tmp/ccv5AY6Y.s 			page 2


  58              		.loc 1 304 30 is_stmt 1 view -0
  59              		.cfi_startproc
  60              		@ args = 0, pretend = 0, frame = 0
  61              		@ frame_needed = 0, uses_anonymous_args = 0
  62              		.loc 1 305 3 view .LVU6
  63              		.loc 1 307 3 view .LVU7
  64              	.LVL1:
  65              		.loc 1 307 17 view .LVU8
  66              		.loc 1 304 30 is_stmt 0 view .LVU9
  67 0000 70402DE9 		push	{r4, r5, r6, lr}
  68              		.cfi_def_cfa_offset 16
  69              		.cfi_offset 4, -16
  70              		.cfi_offset 5, -12
  71              		.cfi_offset 6, -8
  72              		.cfi_offset 14, -4
  73              		.loc 1 304 30 view .LVU10
  74 0004 4C40A0E3 		mov	r4, #76
  75 0008 34509FE5 		ldr	r5, .L9
  76              	.LVL2:
  77              	.L6:
  78              		.loc 1 308 5 is_stmt 1 discriminator 3 view .LVU11
  79 000c 000095E5 		ldr	r0, [r5]
  80 0010 2D10A0E3 		mov	r1, #45
  81 0014 003090E5 		ldr	r3, [r0]
  82 0018 083093E5 		ldr	r3, [r3, #8]
  83 001c 33FF2FE1 		blx	r3
  84              	.LVL3:
  85              		.loc 1 307 24 discriminator 3 view .LVU12
  86              		.loc 1 307 17 discriminator 3 view .LVU13
  87 0020 014054E2 		subs	r4, r4, #1
  88              	.LVL4:
  89              		.loc 1 307 17 is_stmt 0 discriminator 3 view .LVU14
  90 0024 F8FFFF1A 		bne	.L6
  91              		.loc 1 309 3 is_stmt 1 view .LVU15
  92 0028 000095E5 		ldr	r0, [r5]
  93 002c 0220A0E3 		mov	r2, #2
  94              		.loc 1 310 1 is_stmt 0 view .LVU16
  95 0030 7040BDE8 		pop	{r4, r5, r6, lr}
  96              		.cfi_restore 14
  97              		.cfi_restore 6
  98              		.cfi_restore 5
  99              		.cfi_restore 4
 100              		.cfi_def_cfa_offset 0
 101              	.LVL5:
 102              		.loc 1 309 3 view .LVU17
 103 0034 003090E5 		ldr	r3, [r0]
 104 0038 08109FE5 		ldr	r1, .L9+4
 105 003c 003093E5 		ldr	r3, [r3]
 106 0040 13FF2FE1 		bx	r3
 107              	.LVL6:
 108              	.L10:
 109              		.align	2
 110              	.L9:
 111 0044 00000000 		.word	.LANCHOR1
 112 0048 00000000 		.word	.LC0
 113              		.cfi_endproc
 114              	.LFE24:
ARM GAS  /tmp/ccv5AY6Y.s 			page 3


 115              		.size	print_line, .-print_line
 116              		.section	.text.test_printn,"ax",%progbits
 117              		.align	2
 118              		.global	test_printn
 119              		.syntax unified
 120              		.arm
 121              		.fpu softvfp
 122              		.type	test_printn, %function
 123              	test_printn:
 124              	.LVL7:
 125              	.LFB7:
 126              		.loc 1 95 30 is_stmt 1 view -0
 127              		.cfi_startproc
 128              		@ args = 0, pretend = 0, frame = 16
 129              		@ frame_needed = 0, uses_anonymous_args = 0
 130              		.loc 1 96 3 view .LVU19
 131              		.loc 1 98 3 view .LVU20
 132              		.loc 1 98 6 is_stmt 0 view .LVU21
 133 0000 000050E3 		cmp	r0, #0
 134              		.loc 1 98 6 view .LVU22
 135 0004 0500001A 		bne	.L15
 136              		.loc 1 99 5 is_stmt 1 view .LVU23
 137 0008 88309FE5 		ldr	r3, .L20
 138 000c 3010A0E3 		mov	r1, #48
 139 0010 000093E5 		ldr	r0, [r3]
 140              	.LVL8:
 141              		.loc 1 99 5 is_stmt 0 view .LVU24
 142 0014 003090E5 		ldr	r3, [r0]
 143 0018 083093E5 		ldr	r3, [r3, #8]
 144 001c 13FF2FE1 		bx	r3
 145              	.LVL9:
 146              	.L15:
 147              		.loc 1 95 30 view .LVU25
 148 0020 70402DE9 		push	{r4, r5, r6, lr}
 149              		.cfi_def_cfa_offset 16
 150              		.cfi_offset 4, -16
 151              		.cfi_offset 5, -12
 152              		.cfi_offset 6, -8
 153              		.cfi_offset 14, -4
 154 0024 10D04DE2 		sub	sp, sp, #16
 155              		.cfi_def_cfa_offset 32
 156              	.LBB18:
 157              	.LBB19:
 158              		.loc 1 101 7 view .LVU26
 159 0028 0D50A0E1 		mov	r5, sp
 160 002c 0520A0E1 		mov	r2, r5
 161              		.loc 1 103 17 view .LVU27
 162 0030 64E09FE5 		ldr	lr, .L20+4
 163              	.LVL10:
 164              	.L12:
 165              		.loc 1 103 7 is_stmt 1 view .LVU28
 166 0034 00C0A0E1 		mov	ip, r0
 167              		.loc 1 103 17 is_stmt 0 view .LVU29
 168 0038 9E1083E0 		umull	r1, r3, lr, r0
 169 003c A331A0E1 		lsr	r3, r3, #3
 170 0040 031183E0 		add	r1, r3, r3, lsl #2
 171 0044 810040E0 		sub	r0, r0, r1, lsl #1
ARM GAS  /tmp/ccv5AY6Y.s 			page 4


 172              	.LVL11:
 173              		.loc 1 103 23 view .LVU30
 174 0048 300080E2 		add	r0, r0, #48
 175 004c 7010EFE6 		uxtb	r1, r0
 176              		.loc 1 102 12 view .LVU31
 177 0050 09005CE3 		cmp	ip, #9
 178 0054 0240A0E1 		mov	r4, r2
 179              	.LVL12:
 180              		.loc 1 103 32 view .LVU32
 181 0058 0300A0E1 		mov	r0, r3
 182              	.LVL13:
 183              		.loc 1 102 12 is_stmt 1 view .LVU33
 184              		.loc 1 103 12 is_stmt 0 view .LVU34
 185 005c 0110C2E4 		strb	r1, [r2], #1
 186              	.LVL14:
 187              		.loc 1 102 12 view .LVU35
 188 0060 F3FFFF8A 		bhi	.L12
 189              		.loc 1 104 14 is_stmt 1 view .LVU36
 190 0064 050052E1 		cmp	r2, r5
 191 0068 0800009A 		bls	.L11
 192              		.loc 1 104 14 is_stmt 0 view .LVU37
 193 006c 24609FE5 		ldr	r6, .L20
 194 0070 000000EA 		b	.L14
 195              	.LVL15:
 196              	.L19:
 197              		.loc 1 105 7 view .LVU38
 198 0074 011074E5 		ldrb	r1, [r4, #-1]!	@ zero_extendqisi2
 199              	.LVL16:
 200              	.L14:
 201              		.loc 1 105 7 is_stmt 1 view .LVU39
 202 0078 000096E5 		ldr	r0, [r6]
 203              	.LVL17:
 204              		.loc 1 105 7 is_stmt 0 view .LVU40
 205 007c 003090E5 		ldr	r3, [r0]
 206 0080 083093E5 		ldr	r3, [r3, #8]
 207 0084 33FF2FE1 		blx	r3
 208              	.LVL18:
 209              		.loc 1 104 14 is_stmt 1 view .LVU41
 210 0088 040055E1 		cmp	r5, r4
 211 008c F8FFFF1A 		bne	.L19
 212              	.LVL19:
 213              	.L11:
 214              		.loc 1 104 14 is_stmt 0 view .LVU42
 215              	.LBE19:
 216              	.LBE18:
 217              		.loc 1 107 1 view .LVU43
 218 0090 10D08DE2 		add	sp, sp, #16
 219              		.cfi_def_cfa_offset 16
 220              		@ sp needed
 221 0094 7080BDE8 		pop	{r4, r5, r6, pc}
 222              	.L21:
 223              		.align	2
 224              	.L20:
 225 0098 00000000 		.word	.LANCHOR1
 226 009c CDCCCCCC 		.word	-858993459
 227              		.cfi_endproc
 228              	.LFE7:
ARM GAS  /tmp/ccv5AY6Y.s 			page 5


 229              		.size	test_printn, .-test_printn
 230              		.section	.text.test_print,"ax",%progbits
 231              		.align	2
 232              		.global	test_print
 233              		.syntax unified
 234              		.arm
 235              		.fpu softvfp
 236              		.type	test_print, %function
 237              	test_print:
 238              	.LVL20:
 239              	.LFB8:
 240              		.loc 1 114 35 is_stmt 1 view -0
 241              		.cfi_startproc
 242              		@ args = 0, pretend = 0, frame = 0
 243              		@ frame_needed = 0, uses_anonymous_args = 0
 244              		.loc 1 116 3 view .LVU45
 245              		.loc 1 116 10 view .LVU46
 246 0000 0010D0E5 		ldrb	r1, [r0]	@ zero_extendqisi2
 247 0004 000051E3 		cmp	r1, #0
 248 0008 1EFF2F01 		bxeq	lr
 249              		.loc 1 114 35 is_stmt 0 view .LVU47
 250 000c 70402DE9 		push	{r4, r5, r6, lr}
 251              		.cfi_def_cfa_offset 16
 252              		.cfi_offset 4, -16
 253              		.cfi_offset 5, -12
 254              		.cfi_offset 6, -8
 255              		.cfi_offset 14, -4
 256 0010 0040A0E1 		mov	r4, r0
 257 0014 1C509FE5 		ldr	r5, .L33
 258              	.LVL21:
 259              	.L24:
 260              		.loc 1 117 5 is_stmt 1 view .LVU48
 261 0018 000095E5 		ldr	r0, [r5]
 262              	.LVL22:
 263              		.loc 1 117 5 is_stmt 0 view .LVU49
 264 001c 003090E5 		ldr	r3, [r0]
 265 0020 083093E5 		ldr	r3, [r3, #8]
 266 0024 33FF2FE1 		blx	r3
 267              	.LVL23:
 268              		.loc 1 116 10 is_stmt 1 view .LVU50
 269 0028 0110F4E5 		ldrb	r1, [r4, #1]!	@ zero_extendqisi2
 270              	.LVL24:
 271              		.loc 1 116 10 is_stmt 0 view .LVU51
 272 002c 000051E3 		cmp	r1, #0
 273 0030 F8FFFF1A 		bne	.L24
 274 0034 7080BDE8 		pop	{r4, r5, r6, pc}
 275              	.L34:
 276              		.align	2
 277              	.L33:
 278 0038 00000000 		.word	.LANCHOR1
 279              		.cfi_endproc
 280              	.LFE8:
 281              		.size	test_print, .-test_print
 282              		.section	.text.test_println,"ax",%progbits
 283              		.align	2
 284              		.global	test_println
 285              		.syntax unified
ARM GAS  /tmp/ccv5AY6Y.s 			page 6


 286              		.arm
 287              		.fpu softvfp
 288              		.type	test_println, %function
 289              	test_println:
 290              	.LVL25:
 291              	.LFB9:
 292              		.loc 1 125 37 is_stmt 1 view -0
 293              		.cfi_startproc
 294              		@ args = 0, pretend = 0, frame = 0
 295              		@ frame_needed = 0, uses_anonymous_args = 0
 296              		.loc 1 127 3 view .LVU53
 297              	.LBB22:
 298              	.LBI22:
 299              		.loc 1 114 6 view .LVU54
 300              	.LBB23:
 301              		.loc 1 116 10 view .LVU55
 302              	.LBE23:
 303              	.LBE22:
 304              		.loc 1 125 37 is_stmt 0 view .LVU56
 305 0000 70402DE9 		push	{r4, r5, r6, lr}
 306              		.cfi_def_cfa_offset 16
 307              		.cfi_offset 4, -16
 308              		.cfi_offset 5, -12
 309              		.cfi_offset 6, -8
 310              		.cfi_offset 14, -4
 311              	.LBB25:
 312              	.LBB24:
 313              		.loc 1 116 10 view .LVU57
 314 0004 0010D0E5 		ldrb	r1, [r0]	@ zero_extendqisi2
 315 0008 000051E3 		cmp	r1, #0
 316 000c 40509F05 		ldreq	r5, .L43
 317 0010 0800000A 		beq	.L36
 318 0014 0040A0E1 		mov	r4, r0
 319 0018 34509FE5 		ldr	r5, .L43
 320              	.LVL26:
 321              	.L37:
 322              		.loc 1 117 5 is_stmt 1 view .LVU58
 323 001c 000095E5 		ldr	r0, [r5]
 324              	.LVL27:
 325              		.loc 1 117 5 is_stmt 0 view .LVU59
 326 0020 003090E5 		ldr	r3, [r0]
 327 0024 083093E5 		ldr	r3, [r3, #8]
 328 0028 33FF2FE1 		blx	r3
 329              	.LVL28:
 330              		.loc 1 116 10 is_stmt 1 view .LVU60
 331 002c 0110F4E5 		ldrb	r1, [r4, #1]!	@ zero_extendqisi2
 332              	.LVL29:
 333              		.loc 1 116 10 is_stmt 0 view .LVU61
 334 0030 000051E3 		cmp	r1, #0
 335 0034 F8FFFF1A 		bne	.L37
 336              	.LVL30:
 337              	.L36:
 338              		.loc 1 116 10 view .LVU62
 339              	.LBE24:
 340              	.LBE25:
 341              		.loc 1 128 3 is_stmt 1 view .LVU63
 342 0038 000095E5 		ldr	r0, [r5]
ARM GAS  /tmp/ccv5AY6Y.s 			page 7


 343 003c 0220A0E3 		mov	r2, #2
 344              		.loc 1 129 1 is_stmt 0 view .LVU64
 345 0040 7040BDE8 		pop	{r4, r5, r6, lr}
 346              		.cfi_restore 14
 347              		.cfi_restore 6
 348              		.cfi_restore 5
 349              		.cfi_restore 4
 350              		.cfi_def_cfa_offset 0
 351              		.loc 1 128 3 view .LVU65
 352 0044 003090E5 		ldr	r3, [r0]
 353 0048 08109FE5 		ldr	r1, .L43+4
 354 004c 003093E5 		ldr	r3, [r3]
 355 0050 13FF2FE1 		bx	r3
 356              	.LVL31:
 357              	.L44:
 358              		.align	2
 359              	.L43:
 360 0054 00000000 		.word	.LANCHOR1
 361 0058 00000000 		.word	.LC0
 362              		.cfi_endproc
 363              	.LFE9:
 364              		.size	test_println, .-test_println
 365              		.section	.text.test_emit_token,"ax",%progbits
 366              		.align	2
 367              		.global	test_emit_token
 368              		.syntax unified
 369              		.arm
 370              		.fpu softvfp
 371              		.type	test_emit_token, %function
 372              	test_emit_token:
 373              	.LVL32:
 374              	.LFB12:
 375              		.loc 1 151 34 is_stmt 1 view -0
 376              		.cfi_startproc
 377              		@ args = 0, pretend = 0, frame = 0
 378              		@ frame_needed = 0, uses_anonymous_args = 0
 379              		@ link register save eliminated.
 380              		.loc 1 153 3 view .LVU67
 381              		.syntax divided
 382              	@ 153 "../../test/test.c" 1
 383 0000 9FF021E3 		msr     CPSR_c, #0x9F
 384              	@ 0 "" 2
 385              		.loc 1 153 3 view .LVU68
 386              		.loc 1 153 14 view .LVU69
 387              		.loc 1 154 3 view .LVU70
 388              		.loc 1 154 8 is_stmt 0 view .LVU71
 389              		.arm
 390              		.syntax unified
 391 0004 14209FE5 		ldr	r2, .L46
 392 0008 003092E5 		ldr	r3, [r2]
 393 000c 011083E2 		add	r1, r3, #1
 394 0010 001082E5 		str	r1, [r2]
 395              		.loc 1 154 11 view .LVU72
 396 0014 0000C3E5 		strb	r0, [r3]
 397              		.loc 1 155 3 is_stmt 1 view .LVU73
 398              		.loc 1 155 3 view .LVU74
 399              		.syntax divided
ARM GAS  /tmp/ccv5AY6Y.s 			page 8


 400              	@ 155 "../../test/test.c" 1
 401 0018 1FF021E3 		msr     CPSR_c, #0x1F
 402              	@ 0 "" 2
 403              		.loc 1 155 16 view .LVU75
 404              		.loc 1 156 1 is_stmt 0 view .LVU76
 405              		.arm
 406              		.syntax unified
 407 001c 1EFF2FE1 		bx	lr
 408              	.L47:
 409              		.align	2
 410              	.L46:
 411 0020 00000000 		.word	.LANCHOR2
 412              		.cfi_endproc
 413              	.LFE12:
 414              		.size	test_emit_token, .-test_emit_token
 415              		.section	.text._test_fail,"ax",%progbits
 416              		.align	2
 417              		.global	_test_fail
 418              		.syntax unified
 419              		.arm
 420              		.fpu softvfp
 421              		.type	_test_fail, %function
 422              	_test_fail:
 423              	.LVL33:
 424              	.LFB13:
 425              		.loc 1 161 35 is_stmt 1 view -0
 426              		.cfi_startproc
 427              		@ args = 0, pretend = 0, frame = 0
 428              		@ frame_needed = 0, uses_anonymous_args = 0
 429              		@ link register save eliminated.
 430              		.loc 1 163 3 view .LVU78
 431              		.loc 1 163 14 is_stmt 0 view .LVU79
 432 0000 0130A0E3 		mov	r3, #1
 433 0004 18C09FE5 		ldr	ip, .L49
 434              		.loc 1 164 15 view .LVU80
 435 0008 18109FE5 		ldr	r1, .L49+4
 436              		.loc 1 165 13 view .LVU81
 437 000c 18209FE5 		ldr	r2, .L49+8
 438              		.loc 1 163 14 view .LVU82
 439 0010 00308CE5 		str	r3, [ip]
 440              		.loc 1 164 3 is_stmt 1 view .LVU83
 441              		.loc 1 165 13 is_stmt 0 view .LVU84
 442 0014 000082E5 		str	r0, [r2]
 443              		.loc 1 164 15 view .LVU85
 444 0018 003081E5 		str	r3, [r1]
 445              		.loc 1 165 3 is_stmt 1 view .LVU86
 446              		.loc 1 166 3 view .LVU87
 447              		.loc 1 167 1 is_stmt 0 view .LVU88
 448 001c 0300A0E1 		mov	r0, r3
 449              	.LVL34:
 450              		.loc 1 167 1 view .LVU89
 451 0020 1EFF2FE1 		bx	lr
 452              	.L50:
 453              		.align	2
 454              	.L49:
 455 0024 00000000 		.word	.LANCHOR3
 456 0028 00000000 		.word	.LANCHOR4
ARM GAS  /tmp/ccv5AY6Y.s 			page 9


 457 002c 00000000 		.word	.LANCHOR5
 458              		.cfi_endproc
 459              	.LFE13:
 460              		.size	_test_fail, .-_test_fail
 461              		.section	.text._test_assert,"ax",%progbits
 462              		.align	2
 463              		.global	_test_assert
 464              		.syntax unified
 465              		.arm
 466              		.fpu softvfp
 467              		.type	_test_assert, %function
 468              	_test_assert:
 469              	.LVL35:
 470              	.LFB14:
 471              		.loc 1 169 55 is_stmt 1 view -0
 472              		.cfi_startproc
 473              		@ args = 0, pretend = 0, frame = 0
 474              		@ frame_needed = 0, uses_anonymous_args = 0
 475              		@ link register save eliminated.
 476              		.loc 1 171 3 view .LVU91
 477              		.loc 1 171 6 is_stmt 0 view .LVU92
 478 0000 000051E3 		cmp	r1, #0
 479              		.loc 1 172 5 is_stmt 1 view .LVU93
 480              	.LVL36:
 481              	.LBB26:
 482              	.LBI26:
 483              		.loc 1 161 8 view .LVU94
 484              	.LBB27:
 485              		.loc 1 163 3 view .LVU95
 486              		.loc 1 163 14 is_stmt 0 view .LVU96
 487 0004 0130A003 		moveq	r3, #1
 488 0008 1C109F05 		ldreq	r1, .L54
 489              	.LVL37:
 490              		.loc 1 164 15 view .LVU97
 491 000c 1C209F05 		ldreq	r2, .L54+4
 492              		.loc 1 165 13 view .LVU98
 493 0010 1CC09F05 		ldreq	ip, .L54+8
 494              		.loc 1 163 14 view .LVU99
 495 0014 00308105 		streq	r3, [r1]
 496              		.loc 1 164 3 is_stmt 1 view .LVU100
 497              		.loc 1 165 13 is_stmt 0 view .LVU101
 498 0018 00008C05 		streq	r0, [ip]
 499              		.loc 1 164 15 view .LVU102
 500 001c 00308205 		streq	r3, [r2]
 501              		.loc 1 165 3 is_stmt 1 view .LVU103
 502              		.loc 1 166 3 view .LVU104
 503              	.LVL38:
 504              		.loc 1 166 3 is_stmt 0 view .LVU105
 505              	.LBE27:
 506              	.LBE26:
 507              		.loc 1 172 12 view .LVU106
 508 0020 0300A001 		moveq	r0, r3
 509              	.LVL39:
 510              		.loc 1 173 10 view .LVU107
 511 0024 0000A013 		movne	r0, #0
 512              		.loc 1 174 1 view .LVU108
 513 0028 1EFF2FE1 		bx	lr
ARM GAS  /tmp/ccv5AY6Y.s 			page 10


 514              	.L55:
 515              		.align	2
 516              	.L54:
 517 002c 00000000 		.word	.LANCHOR3
 518 0030 00000000 		.word	.LANCHOR4
 519 0034 00000000 		.word	.LANCHOR5
 520              		.cfi_endproc
 521              	.LFE14:
 522              		.size	_test_assert, .-_test_assert
 523              		.section	.text._test_assert_sequence,"ax",%progbits
 524              		.align	2
 525              		.global	_test_assert_sequence
 526              		.syntax unified
 527              		.arm
 528              		.fpu softvfp
 529              		.type	_test_assert_sequence, %function
 530              	_test_assert_sequence:
 531              	.LVL40:
 532              	.LFB15:
 533              		.loc 1 176 62 is_stmt 1 view -0
 534              		.cfi_startproc
 535              		@ args = 0, pretend = 0, frame = 0
 536              		@ frame_needed = 0, uses_anonymous_args = 0
 537              		.loc 1 177 3 view .LVU110
 538              		.loc 1 178 3 view .LVU111
 539              		.loc 1 176 62 is_stmt 0 view .LVU112
 540 0000 30402DE9 		push	{r4, r5, lr}
 541              		.cfi_def_cfa_offset 12
 542              		.cfi_offset 4, -12
 543              		.cfi_offset 5, -8
 544              		.cfi_offset 14, -4
 545              		.loc 1 178 13 view .LVU113
 546 0004 60409FE5 		ldr	r4, .L63
 547              		.loc 1 177 9 view .LVU114
 548 0008 60509FE5 		ldr	r5, .L63+4
 549              		.loc 1 178 13 view .LVU115
 550 000c 00E094E5 		ldr	lr, [r4]
 551              		.loc 1 177 9 view .LVU116
 552 0010 0530A0E1 		mov	r3, r5
 553 0014 011041E2 		sub	r1, r1, #1
 554              	.LVL41:
 555              		.loc 1 178 9 view .LVU117
 556 0018 020000EA 		b	.L57
 557              	.LVL42:
 558              	.L59:
 559              		.loc 1 179 8 view .LVU118
 560 001c 01C0D3E4 		ldrb	ip, [r3], #1	@ zero_extendqisi2
 561              	.LVL43:
 562              		.loc 1 179 8 view .LVU119
 563 0020 02005CE1 		cmp	ip, r2
 564 0024 0700001A 		bne	.L60
 565              	.LVL44:
 566              	.L57:
 567              		.loc 1 179 5 is_stmt 1 view .LVU120
 568              		.loc 1 178 13 view .LVU121
 569 0028 03005EE1 		cmp	lr, r3
 570              		.loc 1 179 18 is_stmt 0 view .LVU122
ARM GAS  /tmp/ccv5AY6Y.s 			page 11


 571 002c 0120F1E5 		ldrb	r2, [r1, #1]!	@ zero_extendqisi2
 572              	.LVL45:
 573              		.loc 1 178 13 view .LVU123
 574 0030 F9FFFF8A 		bhi	.L59
 575              		.loc 1 182 3 is_stmt 1 view .LVU124
 576              		.loc 1 182 6 is_stmt 0 view .LVU125
 577 0034 000052E3 		cmp	r2, #0
 578 0038 0200001A 		bne	.L60
 579              		.loc 1 184 3 is_stmt 1 view .LVU126
 580              	.LBB28:
 581              	.LBI28:
 582              		.loc 1 134 13 view .LVU127
 583              	.LBB29:
 584              		.loc 1 136 3 view .LVU128
 585              	.LBE29:
 586              	.LBE28:
 587              		.loc 1 185 10 is_stmt 0 view .LVU129
 588 003c 0200A0E1 		mov	r0, r2
 589              	.LVL46:
 590              	.LBB31:
 591              	.LBB30:
 592              		.loc 1 136 8 view .LVU130
 593 0040 005084E5 		str	r5, [r4]
 594              	.LBE30:
 595              	.LBE31:
 596              		.loc 1 185 3 is_stmt 1 view .LVU131
 597              		.loc 1 186 1 is_stmt 0 view .LVU132
 598 0044 3080BDE8 		pop	{r4, r5, pc}
 599              	.LVL47:
 600              	.L60:
 601              		.loc 1 180 6 is_stmt 1 view .LVU133
 602              	.LBB32:
 603              	.LBI32:
 604              		.loc 1 161 8 view .LVU134
 605              	.LBB33:
 606              		.loc 1 163 3 view .LVU135
 607              		.loc 1 163 14 is_stmt 0 view .LVU136
 608 0048 0130A0E3 		mov	r3, #1
 609 004c 20109FE5 		ldr	r1, .L63+8
 610              	.LVL48:
 611              		.loc 1 164 15 view .LVU137
 612 0050 20209FE5 		ldr	r2, .L63+12
 613              		.loc 1 165 13 view .LVU138
 614 0054 20C09FE5 		ldr	ip, .L63+16
 615              		.loc 1 163 14 view .LVU139
 616 0058 003081E5 		str	r3, [r1]
 617              		.loc 1 164 3 is_stmt 1 view .LVU140
 618              		.loc 1 165 13 is_stmt 0 view .LVU141
 619 005c 00008CE5 		str	r0, [ip]
 620              		.loc 1 164 15 view .LVU142
 621 0060 003082E5 		str	r3, [r2]
 622              		.loc 1 165 3 is_stmt 1 view .LVU143
 623              		.loc 1 166 3 view .LVU144
 624              	.LVL49:
 625              		.loc 1 166 3 is_stmt 0 view .LVU145
 626              	.LBE33:
 627              	.LBE32:
ARM GAS  /tmp/ccv5AY6Y.s 			page 12


 628              		.loc 1 180 13 view .LVU146
 629 0064 0300A0E1 		mov	r0, r3
 630              	.LVL50:
 631              		.loc 1 180 13 view .LVU147
 632 0068 3080BDE8 		pop	{r4, r5, pc}
 633              	.L64:
 634              		.align	2
 635              	.L63:
 636 006c 00000000 		.word	.LANCHOR2
 637 0070 00000000 		.word	.LANCHOR6
 638 0074 00000000 		.word	.LANCHOR3
 639 0078 00000000 		.word	.LANCHOR4
 640 007c 00000000 		.word	.LANCHOR5
 641              		.cfi_endproc
 642              	.LFE15:
 643              		.size	_test_assert_sequence, .-_test_assert_sequence
 644              		.section	.text._test_assert_time_window,"ax",%progbits
 645              		.align	2
 646              		.global	_test_assert_time_window
 647              		.syntax unified
 648              		.arm
 649              		.fpu softvfp
 650              		.type	_test_assert_time_window, %function
 651              	_test_assert_time_window:
 652              	.LVL51:
 653              	.LFB16:
 654              		.loc 1 188 81 is_stmt 1 view -0
 655              		.cfi_startproc
 656              		@ args = 0, pretend = 0, frame = 0
 657              		@ frame_needed = 0, uses_anonymous_args = 0
 658              		.loc 1 190 3 view .LVU149
 659              		.loc 1 188 81 is_stmt 0 view .LVU150
 660 0000 10402DE9 		push	{r4, lr}
 661              		.cfi_def_cfa_offset 8
 662              		.cfi_offset 4, -8
 663              		.cfi_offset 14, -4
 664              		.loc 1 188 81 view .LVU151
 665 0004 0040A0E1 		mov	r4, r0
 666              		.loc 1 190 10 view .LVU152
 667 0008 0100A0E1 		mov	r0, r1
 668              	.LVL52:
 669              		.loc 1 190 10 view .LVU153
 670 000c 0210A0E1 		mov	r1, r2
 671              	.LVL53:
 672              		.loc 1 190 10 view .LVU154
 673 0010 FEFFFFEB 		bl	chTimeIsWithin
 674              	.LVL54:
 675              	.LBB34:
 676              	.LBI34:
 677              		.loc 1 169 8 is_stmt 1 view .LVU155
 678              	.LBB35:
 679              		.loc 1 171 3 view .LVU156
 680              		.loc 1 171 6 is_stmt 0 view .LVU157
 681 0014 000050E3 		cmp	r0, #0
 682              		.loc 1 172 5 is_stmt 1 view .LVU158
 683              	.LVL55:
 684              	.LBB36:
ARM GAS  /tmp/ccv5AY6Y.s 			page 13


 685              	.LBI36:
 686              		.loc 1 161 8 view .LVU159
 687              	.LBB37:
 688              		.loc 1 163 3 view .LVU160
 689              		.loc 1 163 14 is_stmt 0 view .LVU161
 690 0018 0130A003 		moveq	r3, #1
 691              		.loc 1 165 13 view .LVU162
 692 001c 1C009F05 		ldreq	r0, .L69
 693              	.LVL56:
 694              		.loc 1 163 14 view .LVU163
 695 0020 1C109F05 		ldreq	r1, .L69+4
 696              		.loc 1 164 15 view .LVU164
 697 0024 1C209F05 		ldreq	r2, .L69+8
 698              		.loc 1 165 13 view .LVU165
 699 0028 00408005 		streq	r4, [r0]
 700              		.loc 1 163 14 view .LVU166
 701 002c 00308105 		streq	r3, [r1]
 702              		.loc 1 164 3 is_stmt 1 view .LVU167
 703              	.LBE37:
 704              	.LBE36:
 705              		.loc 1 172 12 is_stmt 0 view .LVU168
 706 0030 0300A001 		moveq	r0, r3
 707              	.LBB39:
 708              	.LBB38:
 709              		.loc 1 164 15 view .LVU169
 710 0034 00308205 		streq	r3, [r2]
 711              		.loc 1 165 3 is_stmt 1 view .LVU170
 712              		.loc 1 166 3 view .LVU171
 713              	.LVL57:
 714              		.loc 1 166 3 is_stmt 0 view .LVU172
 715              	.LBE38:
 716              	.LBE39:
 717              		.loc 1 173 10 view .LVU173
 718 0038 0000A013 		movne	r0, #0
 719              	.LVL58:
 720              		.loc 1 173 10 view .LVU174
 721              	.LBE35:
 722              	.LBE34:
 723              		.loc 1 191 1 view .LVU175
 724 003c 1080BDE8 		pop	{r4, pc}
 725              	.L70:
 726              		.align	2
 727              	.L69:
 728 0040 00000000 		.word	.LANCHOR5
 729 0044 00000000 		.word	.LANCHOR3
 730 0048 00000000 		.word	.LANCHOR4
 731              		.cfi_endproc
 732              	.LFE16:
 733              		.size	_test_assert_time_window, .-_test_assert_time_window
 734              		.section	.text.test_terminate_threads,"ax",%progbits
 735              		.align	2
 736              		.global	test_terminate_threads
 737              		.syntax unified
 738              		.arm
 739              		.fpu softvfp
 740              		.type	test_terminate_threads, %function
 741              	test_terminate_threads:
ARM GAS  /tmp/ccv5AY6Y.s 			page 14


 742              	.LFB17:
 743              		.loc 1 200 35 is_stmt 1 view -0
 744              		.cfi_startproc
 745              		@ args = 0, pretend = 0, frame = 0
 746              		@ frame_needed = 0, uses_anonymous_args = 0
 747              		.loc 1 201 3 view .LVU177
 748              		.loc 1 203 3 view .LVU178
 749              	.LVL59:
 750              		.loc 1 203 17 view .LVU179
 751              		.loc 1 200 35 is_stmt 0 view .LVU180
 752 0000 70402DE9 		push	{r4, r5, r6, lr}
 753              		.cfi_def_cfa_offset 16
 754              		.cfi_offset 4, -16
 755              		.cfi_offset 5, -12
 756              		.cfi_offset 6, -8
 757              		.cfi_offset 14, -4
 758 0004 1C409FE5 		ldr	r4, .L80
 759 0008 145084E2 		add	r5, r4, #20
 760              	.LVL60:
 761              	.L73:
 762              		.loc 1 204 5 is_stmt 1 view .LVU181
 763              		.loc 1 205 7 view .LVU182
 764              		.loc 1 204 16 is_stmt 0 view .LVU183
 765 000c 040094E4 		ldr	r0, [r4], #4
 766              		.loc 1 204 8 view .LVU184
 767 0010 000050E3 		cmp	r0, #0
 768 0014 0000000A 		beq	.L72
 769              		.loc 1 205 7 view .LVU185
 770 0018 FEFFFFEB 		bl	chThdTerminate
 771              	.LVL61:
 772              	.L72:
 773              		.loc 1 203 33 is_stmt 1 discriminator 2 view .LVU186
 774              		.loc 1 203 17 discriminator 2 view .LVU187
 775 001c 050054E1 		cmp	r4, r5
 776 0020 F9FFFF1A 		bne	.L73
 777 0024 7080BDE8 		pop	{r4, r5, r6, pc}
 778              	.L81:
 779              		.align	2
 780              	.L80:
 781 0028 00000000 		.word	.LANCHOR7
 782              		.cfi_endproc
 783              	.LFE17:
 784              		.size	test_terminate_threads, .-test_terminate_threads
 785              		.section	.text.test_wait_threads,"ax",%progbits
 786              		.align	2
 787              		.global	test_wait_threads
 788              		.syntax unified
 789              		.arm
 790              		.fpu softvfp
 791              		.type	test_wait_threads, %function
 792              	test_wait_threads:
 793              	.LFB18:
 794              		.loc 1 211 30 view -0
 795              		.cfi_startproc
 796              		@ args = 0, pretend = 0, frame = 0
 797              		@ frame_needed = 0, uses_anonymous_args = 0
 798              		.loc 1 212 3 view .LVU189
ARM GAS  /tmp/ccv5AY6Y.s 			page 15


 799              		.loc 1 214 3 view .LVU190
 800              	.LVL62:
 801              		.loc 1 214 17 view .LVU191
 802              		.loc 1 211 30 is_stmt 0 view .LVU192
 803 0000 70402DE9 		push	{r4, r5, r6, lr}
 804              		.cfi_def_cfa_offset 16
 805              		.cfi_offset 4, -16
 806              		.cfi_offset 5, -12
 807              		.cfi_offset 6, -8
 808              		.cfi_offset 14, -4
 809              		.loc 1 217 18 view .LVU193
 810 0004 0060A0E3 		mov	r6, #0
 811 0008 20409FE5 		ldr	r4, .L91
 812 000c 145084E2 		add	r5, r4, #20
 813              	.LVL63:
 814              	.L84:
 815              		.loc 1 215 5 is_stmt 1 view .LVU194
 816              		.loc 1 216 7 view .LVU195
 817              		.loc 1 215 16 is_stmt 0 view .LVU196
 818 0010 040094E4 		ldr	r0, [r4], #4
 819              		.loc 1 215 8 view .LVU197
 820 0014 000050E3 		cmp	r0, #0
 821 0018 0100000A 		beq	.L83
 822              		.loc 1 216 7 view .LVU198
 823 001c FEFFFFEB 		bl	chThdWait
 824              	.LVL64:
 825              		.loc 1 217 7 is_stmt 1 view .LVU199
 826              		.loc 1 217 18 is_stmt 0 view .LVU200
 827 0020 046004E5 		str	r6, [r4, #-4]
 828              	.L83:
 829              		.loc 1 214 33 is_stmt 1 discriminator 2 view .LVU201
 830              		.loc 1 214 17 discriminator 2 view .LVU202
 831 0024 050054E1 		cmp	r4, r5
 832 0028 F8FFFF1A 		bne	.L84
 833 002c 7080BDE8 		pop	{r4, r5, r6, pc}
 834              	.L92:
 835              		.align	2
 836              	.L91:
 837 0030 00000000 		.word	.LANCHOR7
 838              		.cfi_endproc
 839              	.LFE18:
 840              		.size	test_wait_threads, .-test_wait_threads
 841              		.section	.text.test_cpu_pulse,"ax",%progbits
 842              		.align	2
 843              		.global	test_cpu_pulse
 844              		.syntax unified
 845              		.arm
 846              		.fpu softvfp
 847              		.type	test_cpu_pulse, %function
 848              	test_cpu_pulse:
 849              	.LVL65:
 850              	.LFB19:
 851              		.loc 1 228 40 view -0
 852              		.cfi_startproc
 853              		@ args = 0, pretend = 0, frame = 0
 854              		@ frame_needed = 0, uses_anonymous_args = 0
 855              		.loc 1 229 3 view .LVU204
ARM GAS  /tmp/ccv5AY6Y.s 			page 16


 856              		.loc 1 231 3 view .LVU205
 857              		.loc 1 231 11 is_stmt 0 view .LVU206
 858 0000 74309FE5 		ldr	r3, .L101
 859              		.loc 1 228 40 view .LVU207
 860 0004 04E02DE5 		str	lr, [sp, #-4]!
 861              		.cfi_def_cfa_offset 4
 862              		.cfi_offset 14, -4
 863              		.loc 1 231 11 view .LVU208
 864 0008 18E093E5 		ldr	lr, [r3, #24]
 865              		.loc 1 232 17 view .LVU209
 866 000c 803260E0 		rsb	r3, r0, r0, lsl #5
 867 0010 033180E0 		add	r3, r0, r3, lsl #2
 868 0014 64209FE5 		ldr	r2, .L101+4
 869 0018 8331A0E1 		lsl	r3, r3, #3
 870 001c FA3F43E2 		sub	r3, r3, #1000
 871 0020 922383E0 		umull	r2, r3, r2, r3
 872              		.loc 1 231 9 view .LVU210
 873 0024 20C09EE5 		ldr	ip, [lr, #32]
 874              	.LVL66:
 875              		.loc 1 232 3 is_stmt 1 view .LVU211
 876              		.loc 1 232 7 is_stmt 0 view .LVU212
 877 0028 01108CE2 		add	r1, ip, #1
 878 002c 231381E0 		add	r1, r1, r3, lsr #6
 879              	.LVL67:
 880              		.loc 1 232 7 view .LVU213
 881 0030 060000EA 		b	.L96
 882              	.LVL68:
 883              	.L100:
 884              		.loc 1 239 39 discriminator 1 view .LVU214
 885 0034 02005CE1 		cmp	ip, r2
 886 0038 0130A093 		movls	r3, #1
 887 003c 0030A083 		movhi	r3, #0
 888 0040 020051E1 		cmp	r1, r2
 889 0044 0030A093 		movls	r3, #0
 890              		.loc 1 239 10 discriminator 1 view .LVU215
 891 0048 000053E3 		cmp	r3, #0
 892 004c 04F09D04 		ldreq	pc, [sp], #4
 893              	.LVL69:
 894              	.L96:
 895              		.loc 1 233 3 is_stmt 1 discriminator 5 view .LVU216
 896              		.loc 1 234 5 discriminator 5 view .LVU217
 897              		.loc 1 239 10 is_stmt 0 discriminator 5 view .LVU218
 898 0050 01005CE1 		cmp	ip, r1
 899              		.loc 1 234 9 discriminator 5 view .LVU219
 900 0054 20209EE5 		ldr	r2, [lr, #32]
 901              	.LVL70:
 902              		.loc 1 239 10 is_stmt 1 discriminator 5 view .LVU220
 903 0058 F5FFFF3A 		bcc	.L100
 904              		.loc 1 240 47 is_stmt 0 discriminator 2 view .LVU221
 905 005c 020051E1 		cmp	r1, r2
 906 0060 0030A093 		movls	r3, #0
 907 0064 0130A083 		movhi	r3, #1
 908              		.loc 1 240 39 discriminator 2 view .LVU222
 909 0068 02005CE1 		cmp	ip, r2
 910 006c 01308393 		orrls	r3, r3, #1
 911              		.loc 1 239 10 discriminator 2 view .LVU223
 912 0070 000053E3 		cmp	r3, #0
ARM GAS  /tmp/ccv5AY6Y.s 			page 17


 913 0074 F5FFFF1A 		bne	.L96
 914 0078 04F09DE4 		ldr	pc, [sp], #4
 915              	.L102:
 916              		.align	2
 917              	.L101:
 918 007c 00000000 		.word	rlist
 919 0080 D34D6210 		.word	274877907
 920              		.cfi_endproc
 921              	.LFE19:
 922              		.size	test_cpu_pulse, .-test_cpu_pulse
 923              		.section	.text.test_wait_tick,"ax",%progbits
 924              		.align	2
 925              		.global	test_wait_tick
 926              		.syntax unified
 927              		.arm
 928              		.fpu softvfp
 929              		.type	test_wait_tick, %function
 930              	test_wait_tick:
 931              	.LFB20:
 932              		.loc 1 249 32 is_stmt 1 view -0
 933              		.cfi_startproc
 934              		@ args = 0, pretend = 0, frame = 0
 935              		@ frame_needed = 0, uses_anonymous_args = 0
 936              		.loc 1 251 3 view .LVU225
 937 0000 0100A0E3 		mov	r0, #1
 938              		.loc 1 249 32 is_stmt 0 view .LVU226
 939 0004 10402DE9 		push	{r4, lr}
 940              		.cfi_def_cfa_offset 8
 941              		.cfi_offset 4, -8
 942              		.cfi_offset 14, -4
 943              		.loc 1 251 3 view .LVU227
 944 0008 FEFFFFEB 		bl	chThdSleep
 945              	.LVL71:
 946              		.loc 1 252 3 is_stmt 1 view .LVU228
 947              		.loc 1 252 10 is_stmt 0 view .LVU229
 948 000c 04309FE5 		ldr	r3, .L105
 949 0010 0C0093E5 		ldr	r0, [r3, #12]
 950              		.loc 1 253 1 view .LVU230
 951 0014 1080BDE8 		pop	{r4, pc}
 952              	.L106:
 953              		.align	2
 954              	.L105:
 955 0018 00000000 		.word	vtlist
 956              		.cfi_endproc
 957              	.LFE20:
 958              		.size	test_wait_tick, .-test_wait_tick
 959              		.section	.text.test_start_timer,"ax",%progbits
 960              		.align	2
 961              		.global	test_start_timer
 962              		.syntax unified
 963              		.arm
 964              		.fpu softvfp
 965              		.type	test_start_timer, %function
 966              	test_start_timer:
 967              	.LVL72:
 968              	.LFB22:
 969              		.loc 1 276 36 is_stmt 1 view -0
ARM GAS  /tmp/ccv5AY6Y.s 			page 18


 970              		.cfi_startproc
 971              		@ args = 0, pretend = 0, frame = 0
 972              		@ frame_needed = 0, uses_anonymous_args = 0
 973              		.loc 1 278 3 view .LVU232
 974              		.loc 1 279 19 is_stmt 0 view .LVU233
 975 0000 0030A0E3 		mov	r3, #0
 976 0004 3C209FE5 		ldr	r2, .L109
 977              	.LVL73:
 978              		.loc 1 279 3 is_stmt 1 view .LVU234
 979              		.loc 1 276 36 is_stmt 0 view .LVU235
 980 0008 10402DE9 		push	{r4, lr}
 981              		.cfi_def_cfa_offset 8
 982              		.cfi_offset 4, -8
 983              		.cfi_offset 14, -4
 984              		.loc 1 279 19 view .LVU236
 985 000c 003082E5 		str	r3, [r2]
 986              		.loc 1 280 3 is_stmt 1 view .LVU237
 987              		.syntax divided
 988              	@ 280 "../../test/test.c" 1
 989 0010 9FF021E3 		msr     CPSR_c, #0x9F
 990              	@ 0 "" 2
 991              		.loc 1 280 3 view .LVU238
 992              		.loc 1 280 3 view .LVU239
 993              		.loc 1 280 3 view .LVU240
 994              		.loc 1 278 24 is_stmt 0 view .LVU241
 995              		.arm
 996              		.syntax unified
 997 0014 802260E0 		rsb	r2, r0, r0, lsl #5
 998 0018 021180E0 		add	r1, r0, r2, lsl #2
 999 001c 8111A0E1 		lsl	r1, r1, #3
 1000 0020 24209FE5 		ldr	r2, .L109+4
 1001 0024 FA1F41E2 		sub	r1, r1, #1000
 1002 0028 922181E0 		umull	r2, r1, r2, r1
 1003 002c 2113A0E1 		lsr	r1, r1, #6
 1004              		.loc 1 280 3 view .LVU242
 1005 0030 18209FE5 		ldr	r2, .L109+8
 1006 0034 18009FE5 		ldr	r0, .L109+12
 1007              	.LVL74:
 1008              		.loc 1 280 3 view .LVU243
 1009 0038 011081E2 		add	r1, r1, #1
 1010 003c FEFFFFEB 		bl	chVTSetI
 1011              	.LVL75:
 1012              		.loc 1 280 3 is_stmt 1 view .LVU244
 1013              		.loc 1 280 3 view .LVU245
 1014              		.syntax divided
 1015              	@ 280 "../../test/test.c" 1
 1016 0040 1FF021E3 		msr     CPSR_c, #0x1F
 1017              	@ 0 "" 2
 1018              		.loc 1 280 3 view .LVU246
 1019              		.loc 1 280 36 view .LVU247
 1020              		.loc 1 281 1 is_stmt 0 view .LVU248
 1021              		.arm
 1022              		.syntax unified
 1023 0044 1080BDE8 		pop	{r4, pc}
 1024              	.L110:
 1025              		.align	2
 1026              	.L109:
ARM GAS  /tmp/ccv5AY6Y.s 			page 19


 1027 0048 00000000 		.word	.LANCHOR0
 1028 004c D34D6210 		.word	274877907
 1029 0050 00000000 		.word	tmr
 1030 0054 00000000 		.word	.LANCHOR8
 1031              		.cfi_endproc
 1032              	.LFE22:
 1033              		.size	test_start_timer, .-test_start_timer
 1034              		.section	.rodata.TestThread.str1.4,"aMS",%progbits,1
 1035              		.align	2
 1036              	.LC1:
 1037 0000 2A2A2A20 		.ascii	"*** Kernel:       \000"
 1037      4B65726E 
 1037      656C3A20 
 1037      20202020 
 1037      202000
 1038 0013 00       		.align	2
 1039              	.LC2:
 1040 0014 2A2A2A20 		.ascii	"*** Compiled:     \000"
 1040      436F6D70 
 1040      696C6564 
 1040      3A202020 
 1040      202000
 1041 0027 00       		.align	2
 1042              	.LC3:
 1043 0028 2A2A2A20 		.ascii	"*** Compiler:     \000"
 1043      436F6D70 
 1043      696C6572 
 1043      3A202020 
 1043      202000
 1044 003b 00       		.align	2
 1045              	.LC4:
 1046 003c 2A2A2A20 		.ascii	"*** Architecture: \000"
 1046      41726368 
 1046      69746563 
 1046      74757265 
 1046      3A2000
 1047 004f 00       		.align	2
 1048              	.LC5:
 1049 0050 2A2A2A20 		.ascii	"*** Core Variant: \000"
 1049      436F7265 
 1049      20566172 
 1049      69616E74 
 1049      3A2000
 1050 0063 00       		.align	2
 1051              	.LC6:
 1052 0064 2A2A2A20 		.ascii	"*** Port Info:    \000"
 1052      506F7274 
 1052      20496E66 
 1052      6F3A2020 
 1052      202000
 1053 0077 00       		.align	2
 1054              	.LC7:
 1055 0078 2A2A2A20 		.ascii	"*** Platform:     \000"
 1055      506C6174 
 1055      666F726D 
 1055      3A202020 
 1055      202000
ARM GAS  /tmp/ccv5AY6Y.s 			page 20


 1056 008b 00       		.align	2
 1057              	.LC8:
 1058 008c 2D2D2D20 		.ascii	"--- Test Case \000"
 1058      54657374 
 1058      20436173 
 1058      652000
 1059 009b 00       		.align	2
 1060              	.LC9:
 1061 009c 202800   		.ascii	" (\000"
 1062 009f 00       		.align	2
 1063              	.LC10:
 1064 00a0 2D2D2D20 		.ascii	"--- Result: FAILURE (#\000"
 1064      52657375 
 1064      6C743A20 
 1064      4641494C 
 1064      55524520 
 1065 00b7 00       		.align	2
 1066              	.LC11:
 1067 00b8 205B00   		.ascii	" [\000"
 1068 00bb 00       		.align	2
 1069              	.LC12:
 1070 00bc 5D2900   		.ascii	"])\000"
 1071 00bf 00       		.align	2
 1072              	.LC13:
 1073 00c0 2D2D2D20 		.ascii	"--- Result: SUCCESS\000"
 1073      52657375 
 1073      6C743A20 
 1073      53554343 
 1073      45535300 
 1074              		.align	2
 1075              	.LC14:
 1076 00d4 46696E61 		.ascii	"Final result: \000"
 1076      6C207265 
 1076      73756C74 
 1076      3A2000
 1077 00e3 00       		.align	2
 1078              	.LC15:
 1079 00e4 00       		.ascii	"\000"
 1080 00e5 000000   		.align	2
 1081              	.LC16:
 1082 00e8 2A2A2A20 		.ascii	"*** ChibiOS/RT test suite\000"
 1082      43686962 
 1082      694F532F 
 1082      52542074 
 1082      65737420 
 1083 0102 0000     		.align	2
 1084              	.LC17:
 1085 0104 2A2A2A00 		.ascii	"***\000"
 1086              		.align	2
 1087              	.LC18:
 1088 0108 322E352E 		.ascii	"2.5.1unstable\000"
 1088      31756E73 
 1088      7461626C 
 1088      6500
 1089 0116 0000     		.align	2
 1090              	.LC19:
 1091 0118 44656320 		.ascii	"Dec  3 2021 - 19:37:36\000"
ARM GAS  /tmp/ccv5AY6Y.s 			page 21


 1091      20332032 
 1091      30323120 
 1091      2D203139 
 1091      3A33373A 
 1092 012f 00       		.align	2
 1093              	.LC20:
 1094 0130 47434320 		.ascii	"GCC 11.2.0\000"
 1094      31312E32 
 1094      2E3000
 1095 013b 00       		.align	2
 1096              	.LC21:
 1097 013c 41524D31 		.ascii	"ARM11\000"
 1097      3100
 1098 0142 0000     		.align	2
 1099              	.LC22:
 1100 0144 41524D31 		.ascii	"ARM1176JZF-S\000"
 1100      3137364A 
 1100      5A462D53 
 1100      00
 1101 0151 000000   		.align	2
 1102              	.LC23:
 1103 0154 50757265 		.ascii	"Pure ARM mode\000"
 1103      2041524D 
 1103      206D6F64 
 1103      6500
 1104 0162 0000     		.align	2
 1105              	.LC24:
 1106 0164 42434D32 		.ascii	"BCM2835\000"
 1106      38333500 
 1107              		.align	2
 1108              	.LC25:
 1109 016c 4641494C 		.ascii	"FAILURE\000"
 1109      55524500 
 1110              		.align	2
 1111              	.LC26:
 1112 0174 53554343 		.ascii	"SUCCESS\000"
 1112      45535300 
 1113              		.section	.text.TestThread,"ax",%progbits
 1114              		.align	2
 1115              		.global	TestThread
 1116              		.syntax unified
 1117              		.arm
 1118              		.fpu softvfp
 1119              		.type	TestThread, %function
 1120              	TestThread:
 1121              	.LVL76:
 1122              	.LFB25:
 1123              		.loc 1 318 27 is_stmt 1 view -0
 1124              		.cfi_startproc
 1125              		@ args = 0, pretend = 0, frame = 16
 1126              		@ frame_needed = 0, uses_anonymous_args = 0
 1127              		.loc 1 319 3 view .LVU250
 1128              		.loc 1 321 3 view .LVU251
 1129              		.loc 1 318 27 is_stmt 0 view .LVU252
 1130 0000 0030A0E1 		mov	r3, r0
 1131 0004 F04F2DE9 		push	{r4, r5, r6, r7, r8, r9, r10, fp, lr}
 1132              		.cfi_def_cfa_offset 36
ARM GAS  /tmp/ccv5AY6Y.s 			page 22


 1133              		.cfi_offset 4, -36
 1134              		.cfi_offset 5, -32
 1135              		.cfi_offset 6, -28
 1136              		.cfi_offset 7, -24
 1137              		.cfi_offset 8, -20
 1138              		.cfi_offset 9, -16
 1139              		.cfi_offset 10, -12
 1140              		.cfi_offset 11, -8
 1141              		.cfi_offset 14, -4
 1142              		.loc 1 321 7 view .LVU253
 1143 0008 68449FE5 		ldr	r4, .L173
 1144              		.loc 1 318 27 view .LVU254
 1145 000c 14D04DE2 		sub	sp, sp, #20
 1146              		.cfi_def_cfa_offset 56
 1147              		.loc 1 322 3 view .LVU255
 1148 0010 64049FE5 		ldr	r0, .L173+4
 1149              	.LVL77:
 1150              		.loc 1 321 7 view .LVU256
 1151 0014 003084E5 		str	r3, [r4]
 1152              		.loc 1 322 3 is_stmt 1 view .LVU257
 1153 0018 FEFFFFEB 		bl	test_println
 1154              	.LVL78:
 1155              		.loc 1 323 3 view .LVU258
 1156 001c 5C049FE5 		ldr	r0, .L173+8
 1157 0020 FEFFFFEB 		bl	test_println
 1158              	.LVL79:
 1159              		.loc 1 324 3 view .LVU259
 1160 0024 58049FE5 		ldr	r0, .L173+12
 1161 0028 FEFFFFEB 		bl	test_println
 1162              	.LVL80:
 1163              		.loc 1 325 3 view .LVU260
 1164              	.LBB88:
 1165              	.LBI88:
 1166              		.loc 1 114 6 view .LVU261
 1167              	.LBB89:
 1168              		.loc 1 116 10 view .LVU262
 1169 002c 2A10A0E3 		mov	r1, #42
 1170              	.LBE89:
 1171              	.LBE88:
 1172              		.loc 1 324 3 is_stmt 0 view .LVU263
 1173 0030 50549FE5 		ldr	r5, .L173+16
 1174              	.LVL81:
 1175              	.L112:
 1176              	.LBB91:
 1177              	.LBB90:
 1178              		.loc 1 117 5 is_stmt 1 view .LVU264
 1179 0034 000094E5 		ldr	r0, [r4]
 1180              	.LVL82:
 1181              		.loc 1 117 5 is_stmt 0 view .LVU265
 1182 0038 003090E5 		ldr	r3, [r0]
 1183 003c 083093E5 		ldr	r3, [r3, #8]
 1184 0040 33FF2FE1 		blx	r3
 1185              	.LVL83:
 1186              		.loc 1 116 10 is_stmt 1 view .LVU266
 1187 0044 0110F5E5 		ldrb	r1, [r5, #1]!	@ zero_extendqisi2
 1188              	.LVL84:
 1189              		.loc 1 116 10 is_stmt 0 view .LVU267
ARM GAS  /tmp/ccv5AY6Y.s 			page 23


 1190 0048 000051E3 		cmp	r1, #0
 1191 004c F8FFFF1A 		bne	.L112
 1192              	.LVL85:
 1193              		.loc 1 116 10 view .LVU268
 1194              	.LBE90:
 1195              	.LBE91:
 1196              		.loc 1 326 3 is_stmt 1 view .LVU269
 1197 0050 34049FE5 		ldr	r0, .L173+20
 1198 0054 FEFFFFEB 		bl	test_println
 1199              	.LVL86:
 1200              		.loc 1 327 3 view .LVU270
 1201              	.LBB92:
 1202              	.LBI92:
 1203              		.loc 1 114 6 view .LVU271
 1204              	.LBB93:
 1205              		.loc 1 116 10 view .LVU272
 1206 0058 2A10A0E3 		mov	r1, #42
 1207              	.LBE93:
 1208              	.LBE92:
 1209              		.loc 1 326 3 is_stmt 0 view .LVU273
 1210 005c 2C549FE5 		ldr	r5, .L173+24
 1211              	.LVL87:
 1212              	.L113:
 1213              	.LBB95:
 1214              	.LBB94:
 1215              		.loc 1 117 5 is_stmt 1 view .LVU274
 1216 0060 000094E5 		ldr	r0, [r4]
 1217              	.LVL88:
 1218              		.loc 1 117 5 is_stmt 0 view .LVU275
 1219 0064 003090E5 		ldr	r3, [r0]
 1220 0068 083093E5 		ldr	r3, [r3, #8]
 1221 006c 33FF2FE1 		blx	r3
 1222              	.LVL89:
 1223              		.loc 1 116 10 is_stmt 1 view .LVU276
 1224 0070 0110F5E5 		ldrb	r1, [r5, #1]!	@ zero_extendqisi2
 1225              	.LVL90:
 1226              		.loc 1 116 10 is_stmt 0 view .LVU277
 1227 0074 000051E3 		cmp	r1, #0
 1228 0078 F8FFFF1A 		bne	.L113
 1229              	.LVL91:
 1230              		.loc 1 116 10 view .LVU278
 1231              	.LBE94:
 1232              	.LBE95:
 1233              		.loc 1 328 3 is_stmt 1 view .LVU279
 1234 007c 10049FE5 		ldr	r0, .L173+28
 1235 0080 FEFFFFEB 		bl	test_println
 1236              	.LVL92:
 1237              		.loc 1 330 3 view .LVU280
 1238              	.LBB96:
 1239              	.LBI96:
 1240              		.loc 1 114 6 view .LVU281
 1241              	.LBB97:
 1242              		.loc 1 116 10 view .LVU282
 1243 0084 2A10A0E3 		mov	r1, #42
 1244              	.LBE97:
 1245              	.LBE96:
 1246              		.loc 1 328 3 is_stmt 0 view .LVU283
ARM GAS  /tmp/ccv5AY6Y.s 			page 24


 1247 0088 08549FE5 		ldr	r5, .L173+32
 1248              	.LVL93:
 1249              	.L114:
 1250              	.LBB99:
 1251              	.LBB98:
 1252              		.loc 1 117 5 is_stmt 1 view .LVU284
 1253 008c 000094E5 		ldr	r0, [r4]
 1254              	.LVL94:
 1255              		.loc 1 117 5 is_stmt 0 view .LVU285
 1256 0090 003090E5 		ldr	r3, [r0]
 1257 0094 083093E5 		ldr	r3, [r3, #8]
 1258 0098 33FF2FE1 		blx	r3
 1259              	.LVL95:
 1260              		.loc 1 116 10 is_stmt 1 view .LVU286
 1261 009c 0110F5E5 		ldrb	r1, [r5, #1]!	@ zero_extendqisi2
 1262              	.LVL96:
 1263              		.loc 1 116 10 is_stmt 0 view .LVU287
 1264 00a0 000051E3 		cmp	r1, #0
 1265 00a4 F8FFFF1A 		bne	.L114
 1266              	.LVL97:
 1267              		.loc 1 116 10 view .LVU288
 1268              	.LBE98:
 1269              	.LBE99:
 1270              		.loc 1 331 3 is_stmt 1 view .LVU289
 1271 00a8 EC039FE5 		ldr	r0, .L173+36
 1272 00ac FEFFFFEB 		bl	test_println
 1273              	.LVL98:
 1274              		.loc 1 333 3 view .LVU290
 1275              	.LBB100:
 1276              	.LBI100:
 1277              		.loc 1 114 6 view .LVU291
 1278              	.LBB101:
 1279              		.loc 1 116 10 view .LVU292
 1280 00b0 2A10A0E3 		mov	r1, #42
 1281              	.LBE101:
 1282              	.LBE100:
 1283              		.loc 1 331 3 is_stmt 0 view .LVU293
 1284 00b4 E4539FE5 		ldr	r5, .L173+40
 1285              	.LVL99:
 1286              	.L115:
 1287              	.LBB103:
 1288              	.LBB102:
 1289              		.loc 1 117 5 is_stmt 1 view .LVU294
 1290 00b8 000094E5 		ldr	r0, [r4]
 1291              	.LVL100:
 1292              		.loc 1 117 5 is_stmt 0 view .LVU295
 1293 00bc 003090E5 		ldr	r3, [r0]
 1294 00c0 083093E5 		ldr	r3, [r3, #8]
 1295 00c4 33FF2FE1 		blx	r3
 1296              	.LVL101:
 1297              		.loc 1 116 10 is_stmt 1 view .LVU296
 1298 00c8 0110F5E5 		ldrb	r1, [r5, #1]!	@ zero_extendqisi2
 1299              	.LVL102:
 1300              		.loc 1 116 10 is_stmt 0 view .LVU297
 1301 00cc 000051E3 		cmp	r1, #0
 1302 00d0 F8FFFF1A 		bne	.L115
 1303              	.LVL103:
ARM GAS  /tmp/ccv5AY6Y.s 			page 25


 1304              		.loc 1 116 10 view .LVU298
 1305              	.LBE102:
 1306              	.LBE103:
 1307              		.loc 1 334 3 is_stmt 1 view .LVU299
 1308 00d4 C8039FE5 		ldr	r0, .L173+44
 1309 00d8 FEFFFFEB 		bl	test_println
 1310              	.LVL104:
 1311              		.loc 1 336 3 view .LVU300
 1312              	.LBB104:
 1313              	.LBI104:
 1314              		.loc 1 114 6 view .LVU301
 1315              	.LBB105:
 1316              		.loc 1 116 10 view .LVU302
 1317 00dc 2A10A0E3 		mov	r1, #42
 1318              	.LBE105:
 1319              	.LBE104:
 1320              		.loc 1 334 3 is_stmt 0 view .LVU303
 1321 00e0 C0539FE5 		ldr	r5, .L173+48
 1322              	.LVL105:
 1323              	.L116:
 1324              	.LBB107:
 1325              	.LBB106:
 1326              		.loc 1 117 5 is_stmt 1 view .LVU304
 1327 00e4 000094E5 		ldr	r0, [r4]
 1328              	.LVL106:
 1329              		.loc 1 117 5 is_stmt 0 view .LVU305
 1330 00e8 003090E5 		ldr	r3, [r0]
 1331 00ec 083093E5 		ldr	r3, [r3, #8]
 1332 00f0 33FF2FE1 		blx	r3
 1333              	.LVL107:
 1334              		.loc 1 116 10 is_stmt 1 view .LVU306
 1335 00f4 0110F5E5 		ldrb	r1, [r5, #1]!	@ zero_extendqisi2
 1336              	.LVL108:
 1337              		.loc 1 116 10 is_stmt 0 view .LVU307
 1338 00f8 000051E3 		cmp	r1, #0
 1339 00fc F8FFFF1A 		bne	.L116
 1340              	.LVL109:
 1341              		.loc 1 116 10 view .LVU308
 1342              	.LBE106:
 1343              	.LBE107:
 1344              		.loc 1 337 3 is_stmt 1 view .LVU309
 1345 0100 A4039FE5 		ldr	r0, .L173+52
 1346 0104 FEFFFFEB 		bl	test_println
 1347              	.LVL110:
 1348              		.loc 1 340 3 view .LVU310
 1349              	.LBB108:
 1350              	.LBI108:
 1351              		.loc 1 114 6 view .LVU311
 1352              	.LBB109:
 1353              		.loc 1 116 10 view .LVU312
 1354 0108 2A10A0E3 		mov	r1, #42
 1355              	.LBE109:
 1356              	.LBE108:
 1357              		.loc 1 337 3 is_stmt 0 view .LVU313
 1358 010c 9C539FE5 		ldr	r5, .L173+56
 1359              	.LVL111:
 1360              	.L117:
ARM GAS  /tmp/ccv5AY6Y.s 			page 26


 1361              	.LBB111:
 1362              	.LBB110:
 1363              		.loc 1 117 5 is_stmt 1 view .LVU314
 1364 0110 000094E5 		ldr	r0, [r4]
 1365              	.LVL112:
 1366              		.loc 1 117 5 is_stmt 0 view .LVU315
 1367 0114 003090E5 		ldr	r3, [r0]
 1368 0118 083093E5 		ldr	r3, [r3, #8]
 1369 011c 33FF2FE1 		blx	r3
 1370              	.LVL113:
 1371              		.loc 1 116 10 is_stmt 1 view .LVU316
 1372 0120 0110F5E5 		ldrb	r1, [r5, #1]!	@ zero_extendqisi2
 1373              	.LVL114:
 1374              		.loc 1 116 10 is_stmt 0 view .LVU317
 1375 0124 000051E3 		cmp	r1, #0
 1376 0128 F8FFFF1A 		bne	.L117
 1377              	.LVL115:
 1378              		.loc 1 116 10 view .LVU318
 1379              	.LBE110:
 1380              	.LBE111:
 1381              		.loc 1 341 3 is_stmt 1 view .LVU319
 1382 012c 80039FE5 		ldr	r0, .L173+60
 1383 0130 FEFFFFEB 		bl	test_println
 1384              	.LVL116:
 1385              		.loc 1 344 3 view .LVU320
 1386              	.LBB112:
 1387              	.LBI112:
 1388              		.loc 1 114 6 view .LVU321
 1389              	.LBB113:
 1390              		.loc 1 116 10 view .LVU322
 1391 0134 2A10A0E3 		mov	r1, #42
 1392              	.LBE113:
 1393              	.LBE112:
 1394              		.loc 1 341 3 is_stmt 0 view .LVU323
 1395 0138 78539FE5 		ldr	r5, .L173+64
 1396              	.LVL117:
 1397              	.L118:
 1398              	.LBB115:
 1399              	.LBB114:
 1400              		.loc 1 117 5 is_stmt 1 view .LVU324
 1401 013c 000094E5 		ldr	r0, [r4]
 1402              	.LVL118:
 1403              		.loc 1 117 5 is_stmt 0 view .LVU325
 1404 0140 003090E5 		ldr	r3, [r0]
 1405 0144 083093E5 		ldr	r3, [r3, #8]
 1406 0148 33FF2FE1 		blx	r3
 1407              	.LVL119:
 1408              		.loc 1 116 10 is_stmt 1 view .LVU326
 1409 014c 0110F5E5 		ldrb	r1, [r5, #1]!	@ zero_extendqisi2
 1410              	.LVL120:
 1411              		.loc 1 116 10 is_stmt 0 view .LVU327
 1412 0150 000051E3 		cmp	r1, #0
 1413 0154 F8FFFF1A 		bne	.L118
 1414              	.LBE114:
 1415              	.LBE115:
 1416              		.loc 1 345 3 view .LVU328
 1417 0158 5C039FE5 		ldr	r0, .L173+68
ARM GAS  /tmp/ccv5AY6Y.s 			page 27


 1418 015c 04108DE5 		str	r1, [sp, #4]
 1419              	.LVL121:
 1420              		.loc 1 345 3 is_stmt 1 view .LVU329
 1421 0160 FEFFFFEB 		bl	test_println
 1422              	.LVL122:
 1423              		.loc 1 351 3 view .LVU330
 1424 0164 10039FE5 		ldr	r0, .L173+4
 1425 0168 FEFFFFEB 		bl	test_println
 1426              	.LVL123:
 1427              		.loc 1 353 3 view .LVU331
 1428 016c 4C339FE5 		ldr	r3, .L173+72
 1429              		.loc 1 353 15 is_stmt 0 view .LVU332
 1430 0170 04109DE5 		ldr	r1, [sp, #4]
 1431 0174 0C308DE5 		str	r3, [sp, #12]
 1432 0178 44339FE5 		ldr	r3, .L173+76
 1433 017c 44739FE5 		ldr	r7, .L173+80
 1434 0180 08308DE5 		str	r3, [sp, #8]
 1435 0184 40339FE5 		ldr	r3, .L173+84
 1436              		.loc 1 355 18 view .LVU333
 1437 0188 40839FE5 		ldr	r8, .L173+88
 1438 018c 40639FE5 		ldr	r6, .L173+92
 1439              		.loc 1 353 15 view .LVU334
 1440 0190 001083E5 		str	r1, [r3]
 1441              		.loc 1 354 3 is_stmt 1 view .LVU335
 1442              	.LVL124:
 1443              		.loc 1 355 3 view .LVU336
 1444              		.loc 1 355 10 view .LVU337
 1445 0194 14B087E2 		add	fp, r7, #20
 1446              	.LVL125:
 1447              	.L119:
 1448              		.loc 1 357 12 view .LVU338
 1449 0198 003098E5 		ldr	r3, [r8]
 1450              		.loc 1 381 6 is_stmt 0 view .LVU339
 1451 019c 04209DE5 		ldr	r2, [sp, #4]
 1452              		.loc 1 357 12 view .LVU340
 1453 01a0 000053E3 		cmp	r3, #0
 1454              		.loc 1 356 7 view .LVU341
 1455 01a4 0090A013 		movne	r9, #0
 1456              		.loc 1 381 6 view .LVU342
 1457 01a8 012082E2 		add	r2, r2, #1
 1458              	.LBB116:
 1459              	.LBB117:
 1460              		.loc 1 291 14 view .LVU343
 1461 01ac 0950A011 		movne	r5, r9
 1462              	.LBE117:
 1463              	.LBE116:
 1464              		.loc 1 381 6 view .LVU344
 1465 01b0 04208DE5 		str	r2, [sp, #4]
 1466              		.loc 1 357 12 view .LVU345
 1467 01b4 8900000A 		beq	.L139
 1468              	.LVL126:
 1469              	.L136:
 1470              		.loc 1 358 7 is_stmt 1 view .LVU346
 1471 01b8 FEFFFFEB 		bl	print_line
 1472              	.LVL127:
 1473              		.loc 1 359 7 view .LVU347
 1474              	.LBB127:
ARM GAS  /tmp/ccv5AY6Y.s 			page 28


 1475              	.LBI127:
 1476              		.loc 1 114 6 view .LVU348
 1477              	.LBB128:
 1478              		.loc 1 116 10 view .LVU349
 1479 01bc 2D10A0E3 		mov	r1, #45
 1480              	.LBE128:
 1481              	.LBE127:
 1482              		.loc 1 358 7 is_stmt 0 view .LVU350
 1483 01c0 10A39FE5 		ldr	r10, .L173+96
 1484              	.LVL128:
 1485              	.L120:
 1486              	.LBB130:
 1487              	.LBB129:
 1488              		.loc 1 117 5 is_stmt 1 view .LVU351
 1489 01c4 000094E5 		ldr	r0, [r4]
 1490              	.LVL129:
 1491              		.loc 1 117 5 is_stmt 0 view .LVU352
 1492 01c8 003090E5 		ldr	r3, [r0]
 1493 01cc 083093E5 		ldr	r3, [r3, #8]
 1494 01d0 33FF2FE1 		blx	r3
 1495              	.LVL130:
 1496              		.loc 1 116 10 is_stmt 1 view .LVU353
 1497 01d4 0110FAE5 		ldrb	r1, [r10, #1]!	@ zero_extendqisi2
 1498              	.LVL131:
 1499              		.loc 1 116 10 is_stmt 0 view .LVU354
 1500 01d8 000051E3 		cmp	r1, #0
 1501 01dc F8FFFF1A 		bne	.L120
 1502              	.LVL132:
 1503              		.loc 1 116 10 view .LVU355
 1504              	.LBE129:
 1505              	.LBE130:
 1506              		.loc 1 360 7 is_stmt 1 view .LVU356
 1507 01e0 04009DE5 		ldr	r0, [sp, #4]
 1508 01e4 FEFFFFEB 		bl	test_printn
 1509              	.LVL133:
 1510              		.loc 1 361 7 view .LVU357
 1511              	.LBB131:
 1512              	.LBI131:
 1513              		.loc 1 114 6 view .LVU358
 1514              	.LBB132:
 1515              		.loc 1 116 10 view .LVU359
 1516              		.loc 1 117 5 view .LVU360
 1517 01e8 000094E5 		ldr	r0, [r4]
 1518              	.LVL134:
 1519              		.loc 1 117 5 is_stmt 0 view .LVU361
 1520 01ec 2E10A0E3 		mov	r1, #46
 1521 01f0 003090E5 		ldr	r3, [r0]
 1522              	.LBE132:
 1523              	.LBE131:
 1524              		.loc 1 362 21 view .LVU362
 1525 01f4 019089E2 		add	r9, r9, #1
 1526              	.LVL135:
 1527              	.LBB134:
 1528              	.LBB133:
 1529              		.loc 1 117 5 view .LVU363
 1530 01f8 083093E5 		ldr	r3, [r3, #8]
 1531 01fc 33FF2FE1 		blx	r3
ARM GAS  /tmp/ccv5AY6Y.s 			page 29


 1532              	.LVL136:
 1533              		.loc 1 116 10 is_stmt 1 view .LVU364
 1534              		.loc 1 116 10 is_stmt 0 view .LVU365
 1535              	.LBE133:
 1536              	.LBE134:
 1537              		.loc 1 362 7 is_stmt 1 view .LVU366
 1538 0200 0900A0E1 		mov	r0, r9
 1539 0204 FEFFFFEB 		bl	test_printn
 1540              	.LVL137:
 1541              		.loc 1 363 7 view .LVU367
 1542              	.LBB135:
 1543              	.LBI135:
 1544              		.loc 1 114 6 view .LVU368
 1545              	.LBB136:
 1546              		.loc 1 116 10 view .LVU369
 1547 0208 2010A0E3 		mov	r1, #32
 1548              	.LBE136:
 1549              	.LBE135:
 1550              		.loc 1 362 7 is_stmt 0 view .LVU370
 1551 020c C8A29FE5 		ldr	r10, .L173+100
 1552              	.LVL138:
 1553              	.L121:
 1554              	.LBB138:
 1555              	.LBB137:
 1556              		.loc 1 117 5 is_stmt 1 view .LVU371
 1557 0210 000094E5 		ldr	r0, [r4]
 1558              	.LVL139:
 1559              		.loc 1 117 5 is_stmt 0 view .LVU372
 1560 0214 003090E5 		ldr	r3, [r0]
 1561 0218 083093E5 		ldr	r3, [r3, #8]
 1562 021c 33FF2FE1 		blx	r3
 1563              	.LVL140:
 1564              		.loc 1 116 10 is_stmt 1 view .LVU373
 1565 0220 0110FAE5 		ldrb	r1, [r10, #1]!	@ zero_extendqisi2
 1566              	.LVL141:
 1567              		.loc 1 116 10 is_stmt 0 view .LVU374
 1568 0224 000051E3 		cmp	r1, #0
 1569 0228 F8FFFF1A 		bne	.L121
 1570              	.LVL142:
 1571              		.loc 1 116 10 view .LVU375
 1572              	.LBE137:
 1573              	.LBE138:
 1574              		.loc 1 364 7 is_stmt 1 view .LVU376
 1575              		.loc 1 364 32 is_stmt 0 view .LVU377
 1576 022c 003098E5 		ldr	r3, [r8]
 1577 0230 00A093E5 		ldr	r10, [r3]
 1578              	.LVL143:
 1579              	.LBB139:
 1580              	.LBI139:
 1581              		.loc 1 114 6 is_stmt 1 view .LVU378
 1582              	.LBB140:
 1583              		.loc 1 116 10 view .LVU379
 1584 0234 0010DAE5 		ldrb	r1, [r10]	@ zero_extendqisi2
 1585 0238 000051E3 		cmp	r1, #0
 1586 023c 0600000A 		beq	.L125
 1587              	.L122:
 1588              		.loc 1 117 5 view .LVU380
ARM GAS  /tmp/ccv5AY6Y.s 			page 30


 1589 0240 000094E5 		ldr	r0, [r4]
 1590              	.LVL144:
 1591              		.loc 1 117 5 is_stmt 0 view .LVU381
 1592 0244 003090E5 		ldr	r3, [r0]
 1593 0248 083093E5 		ldr	r3, [r3, #8]
 1594 024c 33FF2FE1 		blx	r3
 1595              	.LVL145:
 1596              		.loc 1 116 10 is_stmt 1 view .LVU382
 1597 0250 0110FAE5 		ldrb	r1, [r10, #1]!	@ zero_extendqisi2
 1598              	.LVL146:
 1599              		.loc 1 116 10 is_stmt 0 view .LVU383
 1600 0254 000051E3 		cmp	r1, #0
 1601 0258 F8FFFF1A 		bne	.L122
 1602              	.L125:
 1603              	.LVL147:
 1604              		.loc 1 116 10 view .LVU384
 1605              	.LBE140:
 1606              	.LBE139:
 1607              	.LBB141:
 1608              	.LBB142:
 1609              	.LBB143:
 1610              	.LBB144:
 1611              		.loc 1 116 10 is_stmt 1 view .LVU385
 1612              		.loc 1 117 5 view .LVU386
 1613 025c 000094E5 		ldr	r0, [r4]
 1614              	.LVL148:
 1615              		.loc 1 117 5 is_stmt 0 view .LVU387
 1616 0260 2910A0E3 		mov	r1, #41
 1617 0264 003090E5 		ldr	r3, [r0]
 1618 0268 083093E5 		ldr	r3, [r3, #8]
 1619 026c 33FF2FE1 		blx	r3
 1620              	.LVL149:
 1621              		.loc 1 116 10 is_stmt 1 view .LVU388
 1622              		.loc 1 116 10 is_stmt 0 view .LVU389
 1623              	.LBE144:
 1624              	.LBE143:
 1625              		.loc 1 128 3 is_stmt 1 view .LVU390
 1626 0270 000094E5 		ldr	r0, [r4]
 1627 0274 0220A0E3 		mov	r2, #2
 1628 0278 003090E5 		ldr	r3, [r0]
 1629 027c 5C129FE5 		ldr	r1, .L173+104
 1630 0280 003093E5 		ldr	r3, [r3]
 1631 0284 33FF2FE1 		blx	r3
 1632              	.LVL150:
 1633              	.LBE142:
 1634              	.LBE141:
 1635              		.loc 1 367 7 view .LVU391
 1636 0288 C800A0E3 		mov	r0, #200
 1637 028c FEFFFFEB 		bl	chThdSleep
 1638              	.LVL151:
 1639              		.loc 1 369 7 view .LVU392
 1640 0290 00A098E5 		ldr	r10, [r8]
 1641              	.LVL152:
 1642              	.LBB145:
 1643              	.LBI116:
 1644              		.loc 1 286 13 view .LVU393
 1645              	.LBB126:
ARM GAS  /tmp/ccv5AY6Y.s 			page 31


 1646              		.loc 1 287 3 view .LVU394
 1647              		.loc 1 290 3 view .LVU395
 1648              	.LBB118:
 1649              	.LBI118:
 1650              		.loc 1 134 13 view .LVU396
 1651              	.LBB119:
 1652              		.loc 1 136 3 view .LVU397
 1653              	.LBE119:
 1654              	.LBE118:
 1655              		.loc 1 291 3 view .LVU398
 1656              		.loc 1 292 3 view .LVU399
 1657              		.loc 1 292 17 view .LVU400
 1658              		.loc 1 293 5 view .LVU401
 1659              	.LBB122:
 1660              	.LBB120:
 1661              		.loc 1 136 8 is_stmt 0 view .LVU402
 1662 0294 48329FE5 		ldr	r3, .L173+108
 1663              	.LBE120:
 1664              	.LBE122:
 1665              		.loc 1 295 10 view .LVU403
 1666 0298 04209AE5 		ldr	r2, [r10, #4]
 1667              	.LBB123:
 1668              	.LBB121:
 1669              		.loc 1 136 8 view .LVU404
 1670 029c 003086E5 		str	r3, [r6]
 1671              	.LBE121:
 1672              	.LBE123:
 1673              		.loc 1 291 14 view .LVU405
 1674 02a0 40329FE5 		ldr	r3, .L173+112
 1675              		.loc 1 295 6 view .LVU406
 1676 02a4 000052E3 		cmp	r2, #0
 1677              		.loc 1 291 14 view .LVU407
 1678 02a8 005083E5 		str	r5, [r3]
 1679              		.loc 1 293 16 view .LVU408
 1680 02ac 005087E5 		str	r5, [r7]
 1681              		.loc 1 292 33 is_stmt 1 view .LVU409
 1682              	.LVL153:
 1683              		.loc 1 292 17 view .LVU410
 1684              		.loc 1 293 5 view .LVU411
 1685              		.loc 1 293 16 is_stmt 0 view .LVU412
 1686 02b0 045087E5 		str	r5, [r7, #4]
 1687              		.loc 1 292 33 is_stmt 1 view .LVU413
 1688              	.LVL154:
 1689              		.loc 1 292 17 view .LVU414
 1690              		.loc 1 293 5 view .LVU415
 1691              		.loc 1 293 16 is_stmt 0 view .LVU416
 1692 02b4 085087E5 		str	r5, [r7, #8]
 1693              		.loc 1 292 33 is_stmt 1 view .LVU417
 1694              	.LVL155:
 1695              		.loc 1 292 17 view .LVU418
 1696              		.loc 1 293 5 view .LVU419
 1697              		.loc 1 293 16 is_stmt 0 view .LVU420
 1698 02b8 0C5087E5 		str	r5, [r7, #12]
 1699              		.loc 1 292 33 is_stmt 1 view .LVU421
 1700              	.LVL156:
 1701              		.loc 1 292 17 view .LVU422
 1702              		.loc 1 293 5 view .LVU423
ARM GAS  /tmp/ccv5AY6Y.s 			page 32


 1703              		.loc 1 293 16 is_stmt 0 view .LVU424
 1704 02bc 105087E5 		str	r5, [r7, #16]
 1705              		.loc 1 292 33 is_stmt 1 view .LVU425
 1706              	.LVL157:
 1707              		.loc 1 292 17 view .LVU426
 1708              		.loc 1 295 3 view .LVU427
 1709              		.loc 1 295 6 is_stmt 0 view .LVU428
 1710 02c0 0000000A 		beq	.L124
 1711              		.loc 1 296 5 is_stmt 1 view .LVU429
 1712 02c4 32FF2FE1 		blx	r2
 1713              	.LVL158:
 1714              	.L124:
 1715              		.loc 1 297 3 view .LVU430
 1716 02c8 0C209AE5 		ldr	r2, [r10, #12]
 1717 02cc 32FF2FE1 		blx	r2
 1718              	.LVL159:
 1719              		.loc 1 298 3 view .LVU431
 1720              		.loc 1 298 10 is_stmt 0 view .LVU432
 1721 02d0 08309AE5 		ldr	r3, [r10, #8]
 1722              		.loc 1 298 6 view .LVU433
 1723 02d4 000053E3 		cmp	r3, #0
 1724 02d8 0000000A 		beq	.L126
 1725              		.loc 1 299 5 is_stmt 1 view .LVU434
 1726 02dc 33FF2FE1 		blx	r3
 1727              	.LVL160:
 1728              	.L126:
 1729 02e0 E0A19FE5 		ldr	r10, .L173+80
 1730              	.LVL161:
 1731              	.L128:
 1732              	.LBB124:
 1733              	.LBB125:
 1734              		.loc 1 215 5 view .LVU435
 1735              		.loc 1 216 7 view .LVU436
 1736              		.loc 1 215 16 is_stmt 0 view .LVU437
 1737 02e4 04009AE4 		ldr	r0, [r10], #4
 1738              		.loc 1 215 8 view .LVU438
 1739 02e8 000050E3 		cmp	r0, #0
 1740 02ec 0100000A 		beq	.L127
 1741              		.loc 1 216 7 view .LVU439
 1742 02f0 FEFFFFEB 		bl	chThdWait
 1743              	.LVL162:
 1744              		.loc 1 217 7 is_stmt 1 view .LVU440
 1745              		.loc 1 217 18 is_stmt 0 view .LVU441
 1746 02f4 04500AE5 		str	r5, [r10, #-4]
 1747              	.L127:
 1748              		.loc 1 214 33 is_stmt 1 view .LVU442
 1749              		.loc 1 214 17 view .LVU443
 1750 02f8 0A005BE1 		cmp	fp, r10
 1751 02fc F8FFFF1A 		bne	.L128
 1752              	.LVL163:
 1753              		.loc 1 214 17 is_stmt 0 view .LVU444
 1754              	.LBE125:
 1755              	.LBE124:
 1756              	.LBE126:
 1757              	.LBE145:
 1758              		.loc 1 370 7 is_stmt 1 view .LVU445
 1759              		.loc 1 370 10 is_stmt 0 view .LVU446
ARM GAS  /tmp/ccv5AY6Y.s 			page 33


 1760 0300 E0319FE5 		ldr	r3, .L173+112
 1761              	.LBB146:
 1762              	.LBB147:
 1763              		.loc 1 116 10 view .LVU447
 1764 0304 2D10A0E3 		mov	r1, #45
 1765              	.LBE147:
 1766              	.LBE146:
 1767              		.loc 1 370 10 view .LVU448
 1768 0308 003093E5 		ldr	r3, [r3]
 1769 030c 000053E3 		cmp	r3, #0
 1770 0310 3900000A 		beq	.L143
 1771 0314 D0A19FE5 		ldr	r10, .L173+116
 1772              	.L130:
 1773              	.LVL164:
 1774              	.LBB149:
 1775              	.LBB148:
 1776              		.loc 1 117 5 is_stmt 1 view .LVU449
 1777 0318 000094E5 		ldr	r0, [r4]
 1778              	.LVL165:
 1779              		.loc 1 117 5 is_stmt 0 view .LVU450
 1780 031c 003090E5 		ldr	r3, [r0]
 1781 0320 083093E5 		ldr	r3, [r3, #8]
 1782 0324 33FF2FE1 		blx	r3
 1783              	.LVL166:
 1784              		.loc 1 116 10 is_stmt 1 view .LVU451
 1785 0328 0110FAE5 		ldrb	r1, [r10, #1]!	@ zero_extendqisi2
 1786              	.LVL167:
 1787              		.loc 1 116 10 is_stmt 0 view .LVU452
 1788 032c 000051E3 		cmp	r1, #0
 1789 0330 F8FFFF1A 		bne	.L130
 1790              	.LVL168:
 1791              		.loc 1 116 10 view .LVU453
 1792              	.LBE148:
 1793              	.LBE149:
 1794              		.loc 1 372 9 is_stmt 1 view .LVU454
 1795 0334 B4319FE5 		ldr	r3, .L173+120
 1796 0338 B4A19FE5 		ldr	r10, .L173+124
 1797 033c 000093E5 		ldr	r0, [r3]
 1798 0340 FEFFFFEB 		bl	test_printn
 1799              	.LVL169:
 1800              		.loc 1 373 9 view .LVU455
 1801              	.LBB150:
 1802              	.LBI150:
 1803              		.loc 1 114 6 view .LVU456
 1804              	.LBB151:
 1805              		.loc 1 116 10 view .LVU457
 1806 0344 2010A0E3 		mov	r1, #32
 1807              	.LVL170:
 1808              	.L131:
 1809              		.loc 1 117 5 view .LVU458
 1810 0348 000094E5 		ldr	r0, [r4]
 1811              	.LVL171:
 1812              		.loc 1 117 5 is_stmt 0 view .LVU459
 1813 034c 003090E5 		ldr	r3, [r0]
 1814 0350 083093E5 		ldr	r3, [r3, #8]
 1815 0354 33FF2FE1 		blx	r3
 1816              	.LVL172:
ARM GAS  /tmp/ccv5AY6Y.s 			page 34


 1817              		.loc 1 116 10 is_stmt 1 view .LVU460
 1818 0358 0110FAE5 		ldrb	r1, [r10, #1]!	@ zero_extendqisi2
 1819              	.LVL173:
 1820              		.loc 1 116 10 is_stmt 0 view .LVU461
 1821 035c 000051E3 		cmp	r1, #0
 1822 0360 F8FFFF1A 		bne	.L131
 1823              	.LVL174:
 1824              		.loc 1 116 10 view .LVU462
 1825              	.LBE151:
 1826              	.LBE150:
 1827              	.LBB152:
 1828              	.LBB153:
 1829              		.loc 1 142 13 is_stmt 1 view .LVU463
 1830 0364 003096E5 		ldr	r3, [r6]
 1831 0368 74219FE5 		ldr	r2, .L173+108
 1832 036c 020053E1 		cmp	r3, r2
 1833              		.loc 1 140 9 is_stmt 0 view .LVU464
 1834 0370 6CA19F85 		ldrhi	r10, .L173+108
 1835              		.loc 1 142 13 view .LVU465
 1836 0374 0700009A 		bls	.L134
 1837              	.LVL175:
 1838              	.L132:
 1839              		.loc 1 143 5 is_stmt 1 view .LVU466
 1840 0378 000094E5 		ldr	r0, [r4]
 1841              	.LVL176:
 1842              		.loc 1 143 5 is_stmt 0 view .LVU467
 1843 037c 0110DAE4 		ldrb	r1, [r10], #1	@ zero_extendqisi2
 1844              	.LVL177:
 1845              		.loc 1 143 5 view .LVU468
 1846 0380 003090E5 		ldr	r3, [r0]
 1847 0384 083093E5 		ldr	r3, [r3, #8]
 1848 0388 33FF2FE1 		blx	r3
 1849              	.LVL178:
 1850              		.loc 1 142 13 is_stmt 1 view .LVU469
 1851 038c 003096E5 		ldr	r3, [r6]
 1852 0390 03005AE1 		cmp	r10, r3
 1853 0394 F7FFFF3A 		bcc	.L132
 1854              	.LVL179:
 1855              	.L134:
 1856              		.loc 1 142 13 is_stmt 0 view .LVU470
 1857              	.LBE153:
 1858              	.LBE152:
 1859              	.LBB154:
 1860              	.LBB155:
 1861              	.LBB156:
 1862              	.LBB157:
 1863              		.loc 1 116 10 is_stmt 1 view .LVU471
 1864 0398 5D10A0E3 		mov	r1, #93
 1865 039c 54A19FE5 		ldr	r10, .L173+128
 1866              	.LVL180:
 1867              	.L133:
 1868              		.loc 1 117 5 view .LVU472
 1869 03a0 000094E5 		ldr	r0, [r4]
 1870              	.LVL181:
 1871              		.loc 1 117 5 is_stmt 0 view .LVU473
 1872 03a4 003090E5 		ldr	r3, [r0]
 1873 03a8 083093E5 		ldr	r3, [r3, #8]
ARM GAS  /tmp/ccv5AY6Y.s 			page 35


 1874 03ac 33FF2FE1 		blx	r3
 1875              	.LVL182:
 1876              		.loc 1 116 10 is_stmt 1 view .LVU474
 1877 03b0 0110FAE5 		ldrb	r1, [r10, #1]!	@ zero_extendqisi2
 1878              	.LVL183:
 1879              		.loc 1 116 10 is_stmt 0 view .LVU475
 1880 03b4 000051E3 		cmp	r1, #0
 1881 03b8 F8FFFF1A 		bne	.L133
 1882              	.LVL184:
 1883              	.L172:
 1884              		.loc 1 116 10 view .LVU476
 1885              	.LBE157:
 1886              	.LBE156:
 1887              	.LBE155:
 1888              	.LBE154:
 1889              	.LBB158:
 1890              	.LBB159:
 1891              		.loc 1 128 3 is_stmt 1 view .LVU477
 1892 03bc 000094E5 		ldr	r0, [r4]
 1893 03c0 0220A0E3 		mov	r2, #2
 1894 03c4 003090E5 		ldr	r3, [r0]
 1895 03c8 10119FE5 		ldr	r1, .L173+104
 1896 03cc 003093E5 		ldr	r3, [r3]
 1897 03d0 33FF2FE1 		blx	r3
 1898              	.LVL185:
 1899              		.loc 1 128 3 is_stmt 0 view .LVU478
 1900              	.LBE159:
 1901              	.LBE158:
 1902              		.loc 1 357 12 is_stmt 1 view .LVU479
 1903 03d4 0430B8E5 		ldr	r3, [r8, #4]!
 1904 03d8 000053E3 		cmp	r3, #0
 1905 03dc 75FFFF1A 		bne	.L136
 1906              	.LVL186:
 1907              	.L139:
 1908              		.loc 1 381 5 view .LVU480
 1909              		.loc 1 355 10 view .LVU481
 1910 03e0 08809DE5 		ldr	r8, [sp, #8]
 1911 03e4 000058E3 		cmp	r8, #0
 1912 03e8 0C00000A 		beq	.L137
 1913              		.loc 1 355 18 is_stmt 0 view .LVU482
 1914 03ec 0C309DE5 		ldr	r3, [sp, #12]
 1915 03f0 042093E4 		ldr	r2, [r3], #4
 1916 03f4 F820CDE1 		strd	r2, [sp, #8]
 1917 03f8 66FFFFEA 		b	.L119
 1918              	.LVL187:
 1919              	.L143:
 1920              		.loc 1 355 18 view .LVU483
 1921 03fc F8A09FE5 		ldr	r10, .L173+132
 1922              	.L129:
 1923              	.LVL188:
 1924              	.LBB163:
 1925              	.LBB162:
 1926              	.LBB160:
 1927              	.LBB161:
 1928              		.loc 1 117 5 is_stmt 1 view .LVU484
 1929 0400 000094E5 		ldr	r0, [r4]
 1930              	.LVL189:
ARM GAS  /tmp/ccv5AY6Y.s 			page 36


 1931              		.loc 1 117 5 is_stmt 0 view .LVU485
 1932 0404 003090E5 		ldr	r3, [r0]
 1933 0408 083093E5 		ldr	r3, [r3, #8]
 1934 040c 33FF2FE1 		blx	r3
 1935              	.LVL190:
 1936              		.loc 1 116 10 is_stmt 1 view .LVU486
 1937 0410 0110FAE5 		ldrb	r1, [r10, #1]!	@ zero_extendqisi2
 1938              	.LVL191:
 1939              		.loc 1 116 10 is_stmt 0 view .LVU487
 1940 0414 000051E3 		cmp	r1, #0
 1941 0418 F8FFFF1A 		bne	.L129
 1942 041c E6FFFFEA 		b	.L172
 1943              	.LVL192:
 1944              	.L137:
 1945              		.loc 1 116 10 view .LVU488
 1946              	.LBE161:
 1947              	.LBE160:
 1948              	.LBE162:
 1949              	.LBE163:
 1950              		.loc 1 383 3 is_stmt 1 view .LVU489
 1951 0420 FEFFFFEB 		bl	print_line
 1952              	.LVL193:
 1953              		.loc 1 384 3 view .LVU490
 1954 0424 50009FE5 		ldr	r0, .L173+4
 1955 0428 FEFFFFEB 		bl	test_println
 1956              	.LVL194:
 1957              		.loc 1 385 3 view .LVU491
 1958              	.LBB164:
 1959              	.LBI164:
 1960              		.loc 1 114 6 view .LVU492
 1961              	.LBB165:
 1962              		.loc 1 116 10 view .LVU493
 1963 042c 4610A0E3 		mov	r1, #70
 1964              	.LBE165:
 1965              	.LBE164:
 1966              		.loc 1 384 3 is_stmt 0 view .LVU494
 1967 0430 C8509FE5 		ldr	r5, .L173+136
 1968              	.LVL195:
 1969              	.L140:
 1970              	.LBB167:
 1971              	.LBB166:
 1972              		.loc 1 117 5 is_stmt 1 view .LVU495
 1973 0434 000094E5 		ldr	r0, [r4]
 1974              	.LVL196:
 1975              		.loc 1 117 5 is_stmt 0 view .LVU496
 1976 0438 003090E5 		ldr	r3, [r0]
 1977 043c 083093E5 		ldr	r3, [r3, #8]
 1978 0440 33FF2FE1 		blx	r3
 1979              	.LVL197:
 1980              		.loc 1 116 10 is_stmt 1 view .LVU497
 1981 0444 0110F5E5 		ldrb	r1, [r5, #1]!	@ zero_extendqisi2
 1982              	.LVL198:
 1983              		.loc 1 116 10 is_stmt 0 view .LVU498
 1984 0448 000051E3 		cmp	r1, #0
 1985 044c F8FFFF1A 		bne	.L140
 1986              	.LVL199:
 1987              		.loc 1 116 10 view .LVU499
ARM GAS  /tmp/ccv5AY6Y.s 			page 37


 1988              	.LBE166:
 1989              	.LBE167:
 1990              		.loc 1 386 3 is_stmt 1 view .LVU500
 1991              		.loc 1 386 6 is_stmt 0 view .LVU501
 1992 0450 74309FE5 		ldr	r3, .L173+84
 1993 0454 003093E5 		ldr	r3, [r3]
 1994 0458 000053E3 		cmp	r3, #0
 1995              		.loc 1 387 5 is_stmt 1 view .LVU502
 1996 045c A0009F15 		ldrne	r0, .L173+140
 1997              		.loc 1 389 5 view .LVU503
 1998 0460 A0009F05 		ldreq	r0, .L173+144
 1999 0464 FEFFFFEB 		bl	test_println
 2000              	.LVL200:
 2001              		.loc 1 391 3 view .LVU504
 2002              		.loc 1 392 1 is_stmt 0 view .LVU505
 2003 0468 5C309FE5 		ldr	r3, .L173+84
 2004 046c 000093E5 		ldr	r0, [r3]
 2005 0470 14D08DE2 		add	sp, sp, #20
 2006              		.cfi_def_cfa_offset 36
 2007              		@ sp needed
 2008 0474 F08FBDE8 		pop	{r4, r5, r6, r7, r8, r9, r10, fp, pc}
 2009              	.L174:
 2010              		.align	2
 2011              	.L173:
 2012 0478 00000000 		.word	.LANCHOR1
 2013 047c E4000000 		.word	.LC15
 2014 0480 E8000000 		.word	.LC16
 2015 0484 04010000 		.word	.LC17
 2016 0488 00000000 		.word	.LC1
 2017 048c 08010000 		.word	.LC18
 2018 0490 14000000 		.word	.LC2
 2019 0494 18010000 		.word	.LC19
 2020 0498 28000000 		.word	.LC3
 2021 049c 30010000 		.word	.LC20
 2022 04a0 3C000000 		.word	.LC4
 2023 04a4 3C010000 		.word	.LC21
 2024 04a8 50000000 		.word	.LC5
 2025 04ac 44010000 		.word	.LC22
 2026 04b0 64000000 		.word	.LC6
 2027 04b4 54010000 		.word	.LC23
 2028 04b8 78000000 		.word	.LC7
 2029 04bc 64010000 		.word	.LC24
 2030 04c0 08000000 		.word	.LANCHOR9+8
 2031 04c4 00000000 		.word	patternsem
 2032 04c8 00000000 		.word	.LANCHOR7
 2033 04cc 00000000 		.word	.LANCHOR4
 2034 04d0 00000000 		.word	patternthd
 2035 04d4 00000000 		.word	.LANCHOR2
 2036 04d8 8C000000 		.word	.LC8
 2037 04dc 9C000000 		.word	.LC9
 2038 04e0 00000000 		.word	.LC0
 2039 04e4 00000000 		.word	.LANCHOR6
 2040 04e8 00000000 		.word	.LANCHOR3
 2041 04ec A0000000 		.word	.LC10
 2042 04f0 00000000 		.word	.LANCHOR5
 2043 04f4 B8000000 		.word	.LC11
 2044 04f8 BC000000 		.word	.LC12
ARM GAS  /tmp/ccv5AY6Y.s 			page 38


 2045 04fc C0000000 		.word	.LC13
 2046 0500 D4000000 		.word	.LC14
 2047 0504 6C010000 		.word	.LC25
 2048 0508 74010000 		.word	.LC26
 2049              		.cfi_endproc
 2050              	.LFE25:
 2051              		.size	TestThread, .-TestThread
 2052              		.global	test_timer_done
 2053              		.global	wa
 2054              		.global	threads
 2055              		.global	test
 2056              		.section	.bss.chp,"aw",%nobits
 2057              		.align	2
 2058              		.set	.LANCHOR1,. + 0
 2059              		.type	chp, %object
 2060              		.size	chp, 4
 2061              	chp:
 2062 0000 00000000 		.space	4
 2063              		.section	.bss.failpoint,"aw",%nobits
 2064              		.align	2
 2065              		.set	.LANCHOR5,. + 0
 2066              		.type	failpoint, %object
 2067              		.size	failpoint, 4
 2068              	failpoint:
 2069 0000 00000000 		.space	4
 2070              		.section	.bss.global_fail,"aw",%nobits
 2071              		.align	2
 2072              		.set	.LANCHOR4,. + 0
 2073              		.type	global_fail, %object
 2074              		.size	global_fail, 4
 2075              	global_fail:
 2076 0000 00000000 		.space	4
 2077              		.section	.bss.local_fail,"aw",%nobits
 2078              		.align	2
 2079              		.set	.LANCHOR3,. + 0
 2080              		.type	local_fail, %object
 2081              		.size	local_fail, 4
 2082              	local_fail:
 2083 0000 00000000 		.space	4
 2084              		.section	.bss.test,"aw",%nobits
 2085              		.align	2
 2086              		.type	test, %object
 2087              		.size	test, 1400
 2088              	test:
 2089 0000 00000000 		.space	1400
 2089      00000000 
 2089      00000000 
 2089      00000000 
 2089      00000000 
 2090              		.section	.bss.test_timer_done,"aw",%nobits
 2091              		.align	2
 2092              		.set	.LANCHOR0,. + 0
 2093              		.type	test_timer_done, %object
 2094              		.size	test_timer_done, 4
 2095              	test_timer_done:
 2096 0000 00000000 		.space	4
 2097              		.section	.bss.threads,"aw",%nobits
ARM GAS  /tmp/ccv5AY6Y.s 			page 39


 2098              		.align	2
 2099              		.set	.LANCHOR7,. + 0
 2100              		.type	threads, %object
 2101              		.size	threads, 20
 2102              	threads:
 2103 0000 00000000 		.space	20
 2103      00000000 
 2103      00000000 
 2103      00000000 
 2103      00000000 
 2104              		.section	.bss.tokens_buffer,"aw",%nobits
 2105              		.align	2
 2106              		.set	.LANCHOR6,. + 0
 2107              		.type	tokens_buffer, %object
 2108              		.size	tokens_buffer, 16
 2109              	tokens_buffer:
 2110 0000 00000000 		.space	16
 2110      00000000 
 2110      00000000 
 2110      00000000 
 2111              		.section	.bss.tokp,"aw",%nobits
 2112              		.align	2
 2113              		.set	.LANCHOR2,. + 0
 2114              		.type	tokp, %object
 2115              		.size	tokp, 4
 2116              	tokp:
 2117 0000 00000000 		.space	4
 2118              		.section	.bss.vt,"aw",%nobits
 2119              		.align	2
 2120              		.set	.LANCHOR8,. + 0
 2121              		.type	vt, %object
 2122              		.size	vt, 20
 2123              	vt:
 2124 0000 00000000 		.space	20
 2124      00000000 
 2124      00000000 
 2124      00000000 
 2124      00000000 
 2125              		.section	.rodata.patterns,"a"
 2126              		.align	2
 2127              		.set	.LANCHOR9,. + 0
 2128              		.type	patterns, %object
 2129              		.size	patterns, 48
 2130              	patterns:
 2131 0000 00000000 		.word	patternthd
 2132 0004 00000000 		.word	patternsem
 2133 0008 00000000 		.word	patternmtx
 2134 000c 00000000 		.word	patternmsg
 2135 0010 00000000 		.word	patternmbox
 2136 0014 00000000 		.word	patternevt
 2137 0018 00000000 		.word	patternheap
 2138 001c 00000000 		.word	patternpools
 2139 0020 00000000 		.word	patterndyn
 2140 0024 00000000 		.word	patternqueues
 2141 0028 00000000 		.word	patternbmk
 2142 002c 00000000 		.word	0
 2143              		.section	.rodata.wa,"a"
ARM GAS  /tmp/ccv5AY6Y.s 			page 40


 2144              		.align	2
 2145              		.type	wa, %object
 2146              		.size	wa, 20
 2147              	wa:
 2148 0000 00000000 		.word	test
 2149 0004 18010000 		.word	test+280
 2150 0008 30020000 		.word	test+560
 2151 000c 48030000 		.word	test+840
 2152 0010 60040000 		.word	test+1120
 2153              		.text
 2154              	.Letext0:
 2155              		.file 2 "/usr/lib/gcc/arm-none-eabi/11.2.0/include/stddef.h"
 2156              		.file 3 "/usr/arm-none-eabi/include/machine/_default_types.h"
 2157              		.file 4 "/usr/arm-none-eabi/include/sys/_stdint.h"
 2158              		.file 5 "../../os/ports/GCC/ARM/chtypes.h"
 2159              		.file 6 "../../os/kernel/include/chlists.h"
 2160              		.file 7 "../../os/kernel/include/chthreads.h"
 2161              		.file 8 "../../os/ports/GCC/ARM/chcore.h"
 2162              		.file 9 "../../os/kernel/include/chvt.h"
 2163              		.file 10 "../../os/kernel/include/chschd.h"
 2164              		.file 11 "../../os/kernel/include/chmtx.h"
 2165              		.file 12 "../../os/kernel/include/chstreams.h"
 2166              		.file 13 "../../test/test.h"
 2167              		.file 14 "../../test/testthd.h"
 2168              		.file 15 "../../test/testsem.h"
 2169              		.file 16 "../../test/testmtx.h"
 2170              		.file 17 "../../test/testmsg.h"
 2171              		.file 18 "../../test/testmbox.h"
 2172              		.file 19 "../../test/testevt.h"
 2173              		.file 20 "../../test/testheap.h"
 2174              		.file 21 "../../test/testpools.h"
 2175              		.file 22 "../../test/testdyn.h"
 2176              		.file 23 "../../test/testqueues.h"
 2177              		.file 24 "../../test/testbmk.h"