ARM GAS  /tmp/ccrAlYmd.s 			page 1


   1              		.cpu arm1176jz-s
   2              		.eabi_attribute 20, 1
   3              		.eabi_attribute 21, 1
   4              		.eabi_attribute 23, 3
   5              		.eabi_attribute 24, 1
   6              		.eabi_attribute 25, 1
   7              		.eabi_attribute 26, 1
   8              		.eabi_attribute 30, 2
   9              		.eabi_attribute 34, 1
  10              		.eabi_attribute 18, 4
  11              		.file	"testmbox.c"
  12              		.text
  13              	.Ltext0:
  14              		.cfi_sections	.debug_frame
  15              		.section	.rodata.mbox1_execute.str1.4,"aMS",%progbits,1
  16              		.align	2
  17              	.LC0:
  18 0000 41424344 		.ascii	"ABCDE\000"
  18      4500
  19              		.section	.text.mbox1_execute,"ax",%progbits
  20              		.align	2
  21              		.arch armv6kz
  22              		.syntax unified
  23              		.arm
  24              		.fpu softvfp
  25              		.type	mbox1_execute, %function
  26              	mbox1_execute:
  27              	.LFB8:
  28              		.file 1 "../../test/testmbox.c"
  29              		.loc 1 80 33 view -0
  30              		.cfi_startproc
  31              		@ args = 0, pretend = 0, frame = 8
  32              		@ frame_needed = 0, uses_anonymous_args = 0
  33              		.loc 1 81 3 view .LVU1
  34              		.loc 1 82 3 view .LVU2
  35              		.loc 1 87 3 view .LVU3
  36              		.loc 1 80 33 is_stmt 0 view .LVU4
  37 0000 70402DE9 		push	{r4, r5, r6, lr}
  38              		.cfi_def_cfa_offset 16
  39              		.cfi_offset 4, -16
  40              		.cfi_offset 5, -12
  41              		.cfi_offset 6, -8
  42              		.cfi_offset 14, -4
  43              		.loc 1 87 3 view .LVU5
  44 0004 BC579FE5 		ldr	r5, .L30
  45 0008 0100A0E3 		mov	r0, #1
  46 000c 241095E5 		ldr	r1, [r5, #36]
  47              		.loc 1 80 33 view .LVU6
  48 0010 08D04DE2 		sub	sp, sp, #8
  49              		.cfi_def_cfa_offset 24
  50              		.loc 1 87 3 view .LVU7
  51 0014 051041E2 		sub	r1, r1, #5
  52 0018 111F6FE1 		clz	r1, r1
  53 001c A112A0E1 		lsr	r1, r1, #5
  54 0020 FEFFFFEB 		bl	_test_assert
  55              	.LVL0:
  56 0024 000050E3 		cmp	r0, #0
ARM GAS  /tmp/ccrAlYmd.s 			page 2


  57 0028 1900001A 		bne	.L1
  58 002c 4240A0E3 		mov	r4, #66
  59              	.L3:
  60              	.LVL1:
  61              		.loc 1 93 5 is_stmt 1 view .LVU8
  62              		.loc 1 93 12 is_stmt 0 view .LVU9
  63 0030 0410A0E1 		mov	r1, r4
  64 0034 0020E0E3 		mvn	r2, #0
  65 0038 0500A0E1 		mov	r0, r5
  66 003c FEFFFFEB 		bl	chMBPost
  67              	.LVL2:
  68 0040 0010A0E1 		mov	r1, r0
  69              	.LVL3:
  70              		.loc 1 94 5 is_stmt 1 view .LVU10
  71 0044 111F6FE1 		clz	r1, r1
  72 0048 0200A0E3 		mov	r0, #2
  73              	.LVL4:
  74              		.loc 1 94 5 is_stmt 0 view .LVU11
  75 004c A112A0E1 		lsr	r1, r1, #5
  76 0050 FEFFFFEB 		bl	_test_assert
  77              	.LVL5:
  78              		.loc 1 94 60 is_stmt 1 view .LVU12
  79              		.loc 1 92 33 view .LVU13
  80              		.loc 1 92 17 view .LVU14
  81              		.loc 1 94 5 is_stmt 0 view .LVU15
  82 0054 000050E3 		cmp	r0, #0
  83              		.loc 1 92 17 view .LVU16
  84 0058 014084E2 		add	r4, r4, #1
  85              		.loc 1 94 5 view .LVU17
  86 005c 0C00001A 		bne	.L1
  87              		.loc 1 92 17 discriminator 2 view .LVU18
  88 0060 460054E3 		cmp	r4, #70
  89 0064 F1FFFF1A 		bne	.L3
  90              		.loc 1 96 3 is_stmt 1 view .LVU19
  91              		.loc 1 96 10 is_stmt 0 view .LVU20
  92 0068 0020E0E3 		mvn	r2, #0
  93 006c 4110A0E3 		mov	r1, #65
  94 0070 50079FE5 		ldr	r0, .L30
  95 0074 FEFFFFEB 		bl	chMBPostAhead
  96              	.LVL6:
  97 0078 0010A0E1 		mov	r1, r0
  98              	.LVL7:
  99              		.loc 1 97 3 is_stmt 1 view .LVU21
 100 007c 111F6FE1 		clz	r1, r1
 101 0080 0300A0E3 		mov	r0, #3
 102              	.LVL8:
 103              		.loc 1 97 3 is_stmt 0 view .LVU22
 104 0084 A112A0E1 		lsr	r1, r1, #5
 105 0088 FEFFFFEB 		bl	_test_assert
 106              	.LVL9:
 107 008c 000050E3 		cmp	r0, #0
 108 0090 0100000A 		beq	.L29
 109              	.L1:
 110              		.loc 1 224 1 view .LVU23
 111 0094 08D08DE2 		add	sp, sp, #8
 112              		.cfi_remember_state
 113              		.cfi_def_cfa_offset 16
ARM GAS  /tmp/ccrAlYmd.s 			page 3


 114              		@ sp needed
 115 0098 7080BDE8 		pop	{r4, r5, r6, pc}
 116              	.L29:
 117              		.cfi_restore_state
 118              		.loc 1 97 58 is_stmt 1 discriminator 2 view .LVU24
 119              		.loc 1 102 3 discriminator 2 view .LVU25
 120              		.loc 1 102 10 is_stmt 0 discriminator 2 view .LVU26
 121 009c 0120A0E3 		mov	r2, #1
 122 00a0 5810A0E3 		mov	r1, #88
 123 00a4 1C079FE5 		ldr	r0, .L30
 124 00a8 FEFFFFEB 		bl	chMBPost
 125              	.LVL10:
 126 00ac 0010A0E1 		mov	r1, r0
 127              	.LVL11:
 128              		.loc 1 103 3 is_stmt 1 discriminator 2 view .LVU27
 129 00b0 010071E3 		cmn	r1, #1
 130 00b4 0010A013 		movne	r1, #0
 131 00b8 0110A003 		moveq	r1, #1
 132 00bc 0400A0E3 		mov	r0, #4
 133              	.LVL12:
 134              		.loc 1 103 3 is_stmt 0 discriminator 2 view .LVU28
 135 00c0 FEFFFFEB 		bl	_test_assert
 136              	.LVL13:
 137 00c4 000050E3 		cmp	r0, #0
 138 00c8 F1FFFF1A 		bne	.L1
 139              		.loc 1 103 63 is_stmt 1 discriminator 2 view .LVU29
 140              		.loc 1 104 3 discriminator 2 view .LVU30
 141              		.syntax divided
 142              	@ 104 "../../test/testmbox.c" 1
 143 00cc 9FF021E3 		msr     CPSR_c, #0x9F
 144              	@ 0 "" 2
 145              		.loc 1 104 3 discriminator 2 view .LVU31
 146              		.loc 1 104 14 discriminator 2 view .LVU32
 147              		.loc 1 105 3 discriminator 2 view .LVU33
 148              		.loc 1 105 10 is_stmt 0 discriminator 2 view .LVU34
 149              		.arm
 150              		.syntax unified
 151 00d0 5810A0E3 		mov	r1, #88
 152 00d4 EC069FE5 		ldr	r0, .L30
 153 00d8 FEFFFFEB 		bl	chMBPostI
 154              	.LVL14:
 155 00dc 0010A0E1 		mov	r1, r0
 156              	.LVL15:
 157              		.loc 1 106 3 is_stmt 1 discriminator 2 view .LVU35
 158              		.loc 1 106 3 discriminator 2 view .LVU36
 159              		.syntax divided
 160              	@ 106 "../../test/testmbox.c" 1
 161 00e0 1FF021E3 		msr     CPSR_c, #0x1F
 162              	@ 0 "" 2
 163              		.loc 1 106 16 discriminator 2 view .LVU37
 164              		.loc 1 107 3 discriminator 2 view .LVU38
 165              		.arm
 166              		.syntax unified
 167 00e4 010071E3 		cmn	r1, #1
 168 00e8 0010A013 		movne	r1, #0
 169 00ec 0110A003 		moveq	r1, #1
 170 00f0 0500A0E3 		mov	r0, #5
ARM GAS  /tmp/ccrAlYmd.s 			page 4


 171              	.LVL16:
 172              		.loc 1 107 3 is_stmt 0 discriminator 2 view .LVU39
 173 00f4 FEFFFFEB 		bl	_test_assert
 174              	.LVL17:
 175 00f8 000050E3 		cmp	r0, #0
 176 00fc E4FFFF1A 		bne	.L1
 177              		.loc 1 107 63 is_stmt 1 discriminator 2 view .LVU40
 178              		.loc 1 108 3 discriminator 2 view .LVU41
 179              		.loc 1 108 10 is_stmt 0 discriminator 2 view .LVU42
 180 0100 0120A0E3 		mov	r2, #1
 181 0104 5810A0E3 		mov	r1, #88
 182 0108 B8069FE5 		ldr	r0, .L30
 183 010c FEFFFFEB 		bl	chMBPostAhead
 184              	.LVL18:
 185 0110 0010A0E1 		mov	r1, r0
 186              	.LVL19:
 187              		.loc 1 109 3 is_stmt 1 discriminator 2 view .LVU43
 188 0114 010071E3 		cmn	r1, #1
 189 0118 0010A013 		movne	r1, #0
 190 011c 0110A003 		moveq	r1, #1
 191 0120 0600A0E3 		mov	r0, #6
 192              	.LVL20:
 193              		.loc 1 109 3 is_stmt 0 discriminator 2 view .LVU44
 194 0124 FEFFFFEB 		bl	_test_assert
 195              	.LVL21:
 196 0128 000050E3 		cmp	r0, #0
 197 012c D8FFFF1A 		bne	.L1
 198              		.loc 1 109 63 is_stmt 1 discriminator 2 view .LVU45
 199              		.loc 1 110 3 discriminator 2 view .LVU46
 200              		.syntax divided
 201              	@ 110 "../../test/testmbox.c" 1
 202 0130 9FF021E3 		msr     CPSR_c, #0x9F
 203              	@ 0 "" 2
 204              		.loc 1 110 3 discriminator 2 view .LVU47
 205              		.loc 1 110 14 discriminator 2 view .LVU48
 206              		.loc 1 111 3 discriminator 2 view .LVU49
 207              		.loc 1 111 10 is_stmt 0 discriminator 2 view .LVU50
 208              		.arm
 209              		.syntax unified
 210 0134 5810A0E3 		mov	r1, #88
 211 0138 88069FE5 		ldr	r0, .L30
 212 013c FEFFFFEB 		bl	chMBPostAheadI
 213              	.LVL22:
 214 0140 0010A0E1 		mov	r1, r0
 215              	.LVL23:
 216              		.loc 1 112 3 is_stmt 1 discriminator 2 view .LVU51
 217              		.loc 1 112 3 discriminator 2 view .LVU52
 218              		.syntax divided
 219              	@ 112 "../../test/testmbox.c" 1
 220 0144 1FF021E3 		msr     CPSR_c, #0x1F
 221              	@ 0 "" 2
 222              		.loc 1 112 16 discriminator 2 view .LVU53
 223              		.loc 1 113 3 discriminator 2 view .LVU54
 224              		.arm
 225              		.syntax unified
 226 0148 010071E3 		cmn	r1, #1
 227 014c 0010A013 		movne	r1, #0
ARM GAS  /tmp/ccrAlYmd.s 			page 5


 228 0150 0110A003 		moveq	r1, #1
 229 0154 0700A0E3 		mov	r0, #7
 230              	.LVL24:
 231              		.loc 1 113 3 is_stmt 0 discriminator 2 view .LVU55
 232 0158 FEFFFFEB 		bl	_test_assert
 233              	.LVL25:
 234 015c 000050E3 		cmp	r0, #0
 235 0160 CBFFFF1A 		bne	.L1
 236              		.loc 1 113 63 is_stmt 1 discriminator 2 view .LVU56
 237              		.loc 1 118 3 discriminator 2 view .LVU57
 238              		.syntax divided
 239              	@ 118 "../../test/testmbox.c" 1
 240 0164 9FF021E3 		msr     CPSR_c, #0x9F
 241              	@ 0 "" 2
 242              		.loc 1 118 3 discriminator 2 view .LVU58
 243              		.loc 1 118 3 discriminator 2 view .LVU59
 244              		.loc 1 118 3 discriminator 2 view .LVU60
 245              		.arm
 246              		.syntax unified
 247 0168 241095E5 		ldr	r1, [r5, #36]
 248 016c 0800A0E3 		mov	r0, #8
 249 0170 111F6FE1 		clz	r1, r1
 250 0174 A112A0E1 		lsr	r1, r1, #5
 251 0178 FEFFFFEB 		bl	_test_assert
 252              	.LVL26:
 253 017c 000050E3 		cmp	r0, #0
 254 0180 8E01001A 		bne	.L21
 255              		.loc 1 118 3 discriminator 2 view .LVU61
 256              		.loc 1 118 3 discriminator 2 view .LVU62
 257              		.syntax divided
 258              	@ 118 "../../test/testmbox.c" 1
 259 0184 1FF021E3 		msr     CPSR_c, #0x1F
 260              	@ 0 "" 2
 261              		.loc 1 118 3 discriminator 2 view .LVU63
 262              		.loc 1 118 67 discriminator 2 view .LVU64
 263              		.loc 1 119 3 discriminator 2 view .LVU65
 264              	@ 119 "../../test/testmbox.c" 1
 265 0188 9FF021E3 		msr     CPSR_c, #0x9F
 266              	@ 0 "" 2
 267              		.loc 1 119 3 discriminator 2 view .LVU66
 268              		.loc 1 119 3 discriminator 2 view .LVU67
 269              		.loc 1 119 3 discriminator 2 view .LVU68
 270              		.arm
 271              		.syntax unified
 272 018c 181095E5 		ldr	r1, [r5, #24]
 273 0190 0900A0E3 		mov	r0, #9
 274 0194 051041E2 		sub	r1, r1, #5
 275 0198 111F6FE1 		clz	r1, r1
 276 019c A112A0E1 		lsr	r1, r1, #5
 277 01a0 FEFFFFEB 		bl	_test_assert
 278              	.LVL27:
 279 01a4 000050E3 		cmp	r0, #0
 280 01a8 8401001A 		bne	.L21
 281              		.loc 1 119 3 discriminator 2 view .LVU69
 282              		.loc 1 119 3 discriminator 2 view .LVU70
 283              		.syntax divided
 284              	@ 119 "../../test/testmbox.c" 1
ARM GAS  /tmp/ccrAlYmd.s 			page 6


 285 01ac 1FF021E3 		msr     CPSR_c, #0x1F
 286              	@ 0 "" 2
 287              		.loc 1 119 3 discriminator 2 view .LVU71
 288              		.loc 1 119 70 discriminator 2 view .LVU72
 289              		.loc 1 120 3 discriminator 2 view .LVU73
 290              	@ 120 "../../test/testmbox.c" 1
 291 01b0 9FF021E3 		msr     CPSR_c, #0x9F
 292              	@ 0 "" 2
 293              		.loc 1 120 3 discriminator 2 view .LVU74
 294              		.loc 1 120 3 discriminator 2 view .LVU75
 295              		.loc 1 120 3 discriminator 2 view .LVU76
 296              		.arm
 297              		.syntax unified
 298 01b4 0C1095E5 		ldr	r1, [r5, #12]
 299 01b8 083095E5 		ldr	r3, [r5, #8]
 300 01bc 0A00A0E3 		mov	r0, #10
 301 01c0 031041E0 		sub	r1, r1, r3
 302 01c4 111F6FE1 		clz	r1, r1
 303 01c8 A112A0E1 		lsr	r1, r1, #5
 304 01cc FEFFFFEB 		bl	_test_assert
 305              	.LVL28:
 306 01d0 000050E3 		cmp	r0, #0
 307 01d4 7901001A 		bne	.L21
 308              		.loc 1 120 3 discriminator 2 view .LVU77
 309              		.loc 1 120 3 discriminator 2 view .LVU78
 310              		.syntax divided
 311              	@ 120 "../../test/testmbox.c" 1
 312 01d8 1FF021E3 		msr     CPSR_c, #0x1F
 313              	@ 0 "" 2
 314              		.loc 1 120 3 discriminator 2 view .LVU79
 315              		.loc 1 120 77 discriminator 2 view .LVU80
 316              		.loc 1 125 3 discriminator 2 view .LVU81
 317              	.LVL29:
 318              		.loc 1 125 17 discriminator 2 view .LVU82
 319              		.loc 1 120 3 is_stmt 0 discriminator 2 view .LVU83
 320              		.arm
 321              		.syntax unified
 322 01dc 0540A0E3 		mov	r4, #5
 323              		.loc 1 126 12 discriminator 2 view .LVU84
 324 01e0 E0659FE5 		ldr	r6, .L30
 325              	.LVL30:
 326              	.L8:
 327              		.loc 1 126 5 is_stmt 1 view .LVU85
 328              		.loc 1 126 12 is_stmt 0 view .LVU86
 329 01e4 0020E0E3 		mvn	r2, #0
 330 01e8 04108DE2 		add	r1, sp, #4
 331 01ec 0600A0E1 		mov	r0, r6
 332 01f0 FEFFFFEB 		bl	chMBFetch
 333              	.LVL31:
 334 01f4 0010A0E1 		mov	r1, r0
 335              	.LVL32:
 336              		.loc 1 127 5 is_stmt 1 view .LVU87
 337 01f8 111F6FE1 		clz	r1, r1
 338 01fc 0B00A0E3 		mov	r0, #11
 339              	.LVL33:
 340              		.loc 1 127 5 is_stmt 0 view .LVU88
 341 0200 A112A0E1 		lsr	r1, r1, #5
ARM GAS  /tmp/ccrAlYmd.s 			page 7


 342 0204 FEFFFFEB 		bl	_test_assert
 343              	.LVL34:
 344              		.loc 1 127 61 is_stmt 1 view .LVU89
 345              		.loc 1 128 5 view .LVU90
 346              		.loc 1 127 5 is_stmt 0 view .LVU91
 347 0208 000050E3 		cmp	r0, #0
 348 020c A0FFFF1A 		bne	.L1
 349              		.loc 1 128 5 discriminator 2 view .LVU92
 350 0210 0400DDE5 		ldrb	r0, [sp, #4]	@ zero_extendqisi2
 351 0214 FEFFFFEB 		bl	test_emit_token
 352              	.LVL35:
 353              		.loc 1 125 29 is_stmt 1 discriminator 2 view .LVU93
 354              		.loc 1 125 17 discriminator 2 view .LVU94
 355 0218 014054E2 		subs	r4, r4, #1
 356              	.LVL36:
 357              		.loc 1 125 17 is_stmt 0 discriminator 2 view .LVU95
 358 021c F0FFFF1A 		bne	.L8
 359              		.loc 1 130 3 is_stmt 1 view .LVU96
 360 0220 0C00A0E3 		mov	r0, #12
 361 0224 A0159FE5 		ldr	r1, .L30+4
 362 0228 FEFFFFEB 		bl	_test_assert_sequence
 363              	.LVL37:
 364 022c 000050E3 		cmp	r0, #0
 365 0230 97FFFF1A 		bne	.L1
 366              		.loc 1 130 36 discriminator 2 view .LVU97
 367              		.loc 1 135 3 discriminator 2 view .LVU98
 368              		.loc 1 135 10 is_stmt 0 discriminator 2 view .LVU99
 369 0234 0020E0E3 		mvn	r2, #0
 370 0238 4710A0E3 		mov	r1, #71
 371 023c 84059FE5 		ldr	r0, .L30
 372 0240 FEFFFFEB 		bl	chMBPost
 373              	.LVL38:
 374 0244 0010A0E1 		mov	r1, r0
 375              	.LVL39:
 376              		.loc 1 136 3 is_stmt 1 discriminator 2 view .LVU100
 377 0248 111F6FE1 		clz	r1, r1
 378 024c 0D00A0E3 		mov	r0, #13
 379              	.LVL40:
 380              		.loc 1 136 3 is_stmt 0 discriminator 2 view .LVU101
 381 0250 A112A0E1 		lsr	r1, r1, #5
 382 0254 FEFFFFEB 		bl	_test_assert
 383              	.LVL41:
 384 0258 000050E3 		cmp	r0, #0
 385 025c 8CFFFF1A 		bne	.L1
 386              		.loc 1 136 59 is_stmt 1 discriminator 2 view .LVU102
 387              		.loc 1 137 3 discriminator 2 view .LVU103
 388              		.loc 1 137 10 is_stmt 0 discriminator 2 view .LVU104
 389 0260 0020E0E3 		mvn	r2, #0
 390 0264 04108DE2 		add	r1, sp, #4
 391 0268 58059FE5 		ldr	r0, .L30
 392 026c FEFFFFEB 		bl	chMBFetch
 393              	.LVL42:
 394 0270 0010A0E1 		mov	r1, r0
 395              	.LVL43:
 396              		.loc 1 138 3 is_stmt 1 discriminator 2 view .LVU105
 397 0274 111F6FE1 		clz	r1, r1
 398 0278 0E00A0E3 		mov	r0, #14
ARM GAS  /tmp/ccrAlYmd.s 			page 8


 399              	.LVL44:
 400              		.loc 1 138 3 is_stmt 0 discriminator 2 view .LVU106
 401 027c A112A0E1 		lsr	r1, r1, #5
 402 0280 FEFFFFEB 		bl	_test_assert
 403              	.LVL45:
 404 0284 000050E3 		cmp	r0, #0
 405 0288 81FFFF1A 		bne	.L1
 406              		.loc 1 138 59 is_stmt 1 discriminator 2 view .LVU107
 407              		.loc 1 139 3 discriminator 2 view .LVU108
 408 028c 001095E5 		ldr	r1, [r5]
 409 0290 083095E5 		ldr	r3, [r5, #8]
 410 0294 0F00A0E3 		mov	r0, #15
 411 0298 031041E0 		sub	r1, r1, r3
 412 029c 111F6FE1 		clz	r1, r1
 413 02a0 A112A0E1 		lsr	r1, r1, #5
 414 02a4 FEFFFFEB 		bl	_test_assert
 415              	.LVL46:
 416 02a8 000050E3 		cmp	r0, #0
 417 02ac 78FFFF1A 		bne	.L1
 418              		.loc 1 139 86 discriminator 2 view .LVU109
 419              		.loc 1 140 3 discriminator 2 view .LVU110
 420 02b0 001095E5 		ldr	r1, [r5]
 421 02b4 0C3095E5 		ldr	r3, [r5, #12]
 422 02b8 1000A0E3 		mov	r0, #16
 423 02bc 031041E0 		sub	r1, r1, r3
 424 02c0 111F6FE1 		clz	r1, r1
 425 02c4 A112A0E1 		lsr	r1, r1, #5
 426 02c8 FEFFFFEB 		bl	_test_assert
 427              	.LVL47:
 428 02cc 000050E3 		cmp	r0, #0
 429 02d0 6FFFFF1A 		bne	.L1
 430              		.loc 1 140 85 discriminator 2 view .LVU111
 431              		.loc 1 145 3 discriminator 2 view .LVU112
 432              		.loc 1 145 10 is_stmt 0 discriminator 2 view .LVU113
 433 02d4 0120A0E3 		mov	r2, #1
 434 02d8 04108DE2 		add	r1, sp, #4
 435 02dc E4049FE5 		ldr	r0, .L30
 436 02e0 FEFFFFEB 		bl	chMBFetch
 437              	.LVL48:
 438 02e4 0010A0E1 		mov	r1, r0
 439              	.LVL49:
 440              		.loc 1 146 3 is_stmt 1 discriminator 2 view .LVU114
 441 02e8 010071E3 		cmn	r1, #1
 442 02ec 0010A013 		movne	r1, #0
 443 02f0 0110A003 		moveq	r1, #1
 444 02f4 1100A0E3 		mov	r0, #17
 445              	.LVL50:
 446              		.loc 1 146 3 is_stmt 0 discriminator 2 view .LVU115
 447 02f8 FEFFFFEB 		bl	_test_assert
 448              	.LVL51:
 449 02fc 000050E3 		cmp	r0, #0
 450 0300 63FFFF1A 		bne	.L1
 451              		.loc 1 146 64 is_stmt 1 discriminator 2 view .LVU116
 452              		.loc 1 147 3 discriminator 2 view .LVU117
 453              		.syntax divided
 454              	@ 147 "../../test/testmbox.c" 1
 455 0304 9FF021E3 		msr     CPSR_c, #0x9F
ARM GAS  /tmp/ccrAlYmd.s 			page 9


 456              	@ 0 "" 2
 457              		.loc 1 147 3 discriminator 2 view .LVU118
 458              		.loc 1 147 14 discriminator 2 view .LVU119
 459              		.loc 1 148 3 discriminator 2 view .LVU120
 460              		.loc 1 148 10 is_stmt 0 discriminator 2 view .LVU121
 461              		.arm
 462              		.syntax unified
 463 0308 B8049FE5 		ldr	r0, .L30
 464 030c 04108DE2 		add	r1, sp, #4
 465 0310 FEFFFFEB 		bl	chMBFetchI
 466              	.LVL52:
 467 0314 0010A0E1 		mov	r1, r0
 468              	.LVL53:
 469              		.loc 1 149 3 is_stmt 1 discriminator 2 view .LVU122
 470              		.loc 1 149 3 discriminator 2 view .LVU123
 471              		.syntax divided
 472              	@ 149 "../../test/testmbox.c" 1
 473 0318 1FF021E3 		msr     CPSR_c, #0x1F
 474              	@ 0 "" 2
 475              		.loc 1 149 16 discriminator 2 view .LVU124
 476              		.loc 1 150 3 discriminator 2 view .LVU125
 477              		.arm
 478              		.syntax unified
 479 031c 010071E3 		cmn	r1, #1
 480 0320 0010A013 		movne	r1, #0
 481 0324 0110A003 		moveq	r1, #1
 482 0328 1200A0E3 		mov	r0, #18
 483              	.LVL54:
 484              		.loc 1 150 3 is_stmt 0 discriminator 2 view .LVU126
 485 032c FEFFFFEB 		bl	_test_assert
 486              	.LVL55:
 487 0330 000050E3 		cmp	r0, #0
 488 0334 56FFFF1A 		bne	.L1
 489              		.loc 1 150 64 is_stmt 1 discriminator 2 view .LVU127
 490              		.loc 1 155 3 discriminator 2 view .LVU128
 491              		.syntax divided
 492              	@ 155 "../../test/testmbox.c" 1
 493 0338 9FF021E3 		msr     CPSR_c, #0x9F
 494              	@ 0 "" 2
 495              		.loc 1 155 3 discriminator 2 view .LVU129
 496              		.loc 1 155 3 discriminator 2 view .LVU130
 497              		.loc 1 155 3 discriminator 2 view .LVU131
 498              		.arm
 499              		.syntax unified
 500 033c 241095E5 		ldr	r1, [r5, #36]
 501 0340 1300A0E3 		mov	r0, #19
 502 0344 051041E2 		sub	r1, r1, #5
 503 0348 111F6FE1 		clz	r1, r1
 504 034c A112A0E1 		lsr	r1, r1, #5
 505 0350 FEFFFFEB 		bl	_test_assert
 506              	.LVL56:
 507 0354 000050E3 		cmp	r0, #0
 508 0358 1801001A 		bne	.L21
 509              		.loc 1 155 3 discriminator 2 view .LVU132
 510              		.loc 1 155 3 discriminator 2 view .LVU133
 511              		.syntax divided
 512              	@ 155 "../../test/testmbox.c" 1
ARM GAS  /tmp/ccrAlYmd.s 			page 10


 513 035c 1FF021E3 		msr     CPSR_c, #0x1F
 514              	@ 0 "" 2
 515              		.loc 1 155 3 discriminator 2 view .LVU134
 516              		.loc 1 155 72 discriminator 2 view .LVU135
 517              		.loc 1 156 3 discriminator 2 view .LVU136
 518              	@ 156 "../../test/testmbox.c" 1
 519 0360 9FF021E3 		msr     CPSR_c, #0x9F
 520              	@ 0 "" 2
 521              		.loc 1 156 3 discriminator 2 view .LVU137
 522              		.loc 1 156 3 discriminator 2 view .LVU138
 523              		.loc 1 156 3 discriminator 2 view .LVU139
 524              		.arm
 525              		.syntax unified
 526 0364 181095E5 		ldr	r1, [r5, #24]
 527 0368 1400A0E3 		mov	r0, #20
 528 036c 111F6FE1 		clz	r1, r1
 529 0370 A112A0E1 		lsr	r1, r1, #5
 530 0374 FEFFFFEB 		bl	_test_assert
 531              	.LVL57:
 532 0378 000050E3 		cmp	r0, #0
 533 037c 0F01001A 		bne	.L21
 534              		.loc 1 156 3 discriminator 2 view .LVU140
 535              		.loc 1 156 3 discriminator 2 view .LVU141
 536              		.syntax divided
 537              	@ 156 "../../test/testmbox.c" 1
 538 0380 1FF021E3 		msr     CPSR_c, #0x1F
 539              	@ 0 "" 2
 540              		.loc 1 156 3 discriminator 2 view .LVU142
 541              		.loc 1 156 67 discriminator 2 view .LVU143
 542              		.loc 1 157 3 discriminator 2 view .LVU144
 543              	@ 157 "../../test/testmbox.c" 1
 544 0384 9FF021E3 		msr     CPSR_c, #0x9F
 545              	@ 0 "" 2
 546              		.loc 1 157 3 discriminator 2 view .LVU145
 547              		.loc 1 157 3 discriminator 2 view .LVU146
 548              		.loc 1 157 3 discriminator 2 view .LVU147
 549              		.arm
 550              		.syntax unified
 551 0388 0C1095E5 		ldr	r1, [r5, #12]
 552 038c 083095E5 		ldr	r3, [r5, #8]
 553 0390 1500A0E3 		mov	r0, #21
 554 0394 031041E0 		sub	r1, r1, r3
 555 0398 111F6FE1 		clz	r1, r1
 556 039c A112A0E1 		lsr	r1, r1, #5
 557 03a0 FEFFFFEB 		bl	_test_assert
 558              	.LVL58:
 559 03a4 000050E3 		cmp	r0, #0
 560 03a8 0401001A 		bne	.L21
 561              		.loc 1 157 3 discriminator 2 view .LVU148
 562              		.loc 1 157 3 discriminator 2 view .LVU149
 563              		.syntax divided
 564              	@ 157 "../../test/testmbox.c" 1
 565 03ac 1FF021E3 		msr     CPSR_c, #0x1F
 566              	@ 0 "" 2
 567              		.loc 1 157 3 discriminator 2 view .LVU150
 568              		.loc 1 157 77 discriminator 2 view .LVU151
 569              		.loc 1 162 3 discriminator 2 view .LVU152
ARM GAS  /tmp/ccrAlYmd.s 			page 11


 570              	@ 162 "../../test/testmbox.c" 1
 571 03b0 9FF021E3 		msr     CPSR_c, #0x9F
 572              	@ 0 "" 2
 573              		.loc 1 162 3 discriminator 2 view .LVU153
 574              		.loc 1 163 3 discriminator 2 view .LVU154
 575              		.loc 1 163 10 is_stmt 0 discriminator 2 view .LVU155
 576              		.arm
 577              		.syntax unified
 578 03b4 4110A0E3 		mov	r1, #65
 579 03b8 08049FE5 		ldr	r0, .L30
 580 03bc FEFFFFEB 		bl	chMBPostI
 581              	.LVL59:
 582 03c0 0010A0E1 		mov	r1, r0
 583              	.LVL60:
 584              		.loc 1 164 3 is_stmt 1 discriminator 2 view .LVU156
 585 03c4 111F6FE1 		clz	r1, r1
 586 03c8 1600A0E3 		mov	r0, #22
 587              	.LVL61:
 588              		.loc 1 164 3 is_stmt 0 discriminator 2 view .LVU157
 589 03cc A112A0E1 		lsr	r1, r1, #5
 590 03d0 FEFFFFEB 		bl	_test_assert
 591              	.LVL62:
 592 03d4 000050E3 		cmp	r0, #0
 593 03d8 2DFFFF1A 		bne	.L1
 594              		.loc 1 164 59 is_stmt 1 discriminator 2 view .LVU158
 595              		.loc 1 165 3 discriminator 2 view .LVU159
 596              		.loc 1 165 10 is_stmt 0 discriminator 2 view .LVU160
 597 03dc 4210A0E3 		mov	r1, #66
 598 03e0 E0039FE5 		ldr	r0, .L30
 599 03e4 FEFFFFEB 		bl	chMBPostI
 600              	.LVL63:
 601 03e8 0010A0E1 		mov	r1, r0
 602              	.LVL64:
 603              		.loc 1 166 3 is_stmt 1 discriminator 2 view .LVU161
 604 03ec 111F6FE1 		clz	r1, r1
 605 03f0 1700A0E3 		mov	r0, #23
 606              	.LVL65:
 607              		.loc 1 166 3 is_stmt 0 discriminator 2 view .LVU162
 608 03f4 A112A0E1 		lsr	r1, r1, #5
 609 03f8 FEFFFFEB 		bl	_test_assert
 610              	.LVL66:
 611 03fc 000050E3 		cmp	r0, #0
 612 0400 23FFFF1A 		bne	.L1
 613              		.loc 1 166 59 is_stmt 1 discriminator 2 view .LVU163
 614              		.loc 1 167 3 discriminator 2 view .LVU164
 615              		.loc 1 167 10 is_stmt 0 discriminator 2 view .LVU165
 616 0404 4310A0E3 		mov	r1, #67
 617 0408 B8039FE5 		ldr	r0, .L30
 618 040c FEFFFFEB 		bl	chMBPostI
 619              	.LVL67:
 620 0410 0010A0E1 		mov	r1, r0
 621              	.LVL68:
 622              		.loc 1 168 3 is_stmt 1 discriminator 2 view .LVU166
 623 0414 111F6FE1 		clz	r1, r1
 624 0418 1800A0E3 		mov	r0, #24
 625              	.LVL69:
 626              		.loc 1 168 3 is_stmt 0 discriminator 2 view .LVU167
ARM GAS  /tmp/ccrAlYmd.s 			page 12


 627 041c A112A0E1 		lsr	r1, r1, #5
 628 0420 FEFFFFEB 		bl	_test_assert
 629              	.LVL70:
 630 0424 000050E3 		cmp	r0, #0
 631 0428 19FFFF1A 		bne	.L1
 632              		.loc 1 168 59 is_stmt 1 discriminator 2 view .LVU168
 633              		.loc 1 169 3 discriminator 2 view .LVU169
 634              		.loc 1 169 10 is_stmt 0 discriminator 2 view .LVU170
 635 042c 4410A0E3 		mov	r1, #68
 636 0430 90039FE5 		ldr	r0, .L30
 637 0434 FEFFFFEB 		bl	chMBPostI
 638              	.LVL71:
 639 0438 0010A0E1 		mov	r1, r0
 640              	.LVL72:
 641              		.loc 1 170 3 is_stmt 1 discriminator 2 view .LVU171
 642 043c 111F6FE1 		clz	r1, r1
 643 0440 1900A0E3 		mov	r0, #25
 644              	.LVL73:
 645              		.loc 1 170 3 is_stmt 0 discriminator 2 view .LVU172
 646 0444 A112A0E1 		lsr	r1, r1, #5
 647 0448 FEFFFFEB 		bl	_test_assert
 648              	.LVL74:
 649 044c 000050E3 		cmp	r0, #0
 650 0450 0FFFFF1A 		bne	.L1
 651              		.loc 1 170 59 is_stmt 1 discriminator 2 view .LVU173
 652              		.loc 1 171 3 discriminator 2 view .LVU174
 653              		.loc 1 171 10 is_stmt 0 discriminator 2 view .LVU175
 654 0454 4510A0E3 		mov	r1, #69
 655 0458 68039FE5 		ldr	r0, .L30
 656 045c FEFFFFEB 		bl	chMBPostI
 657              	.LVL75:
 658              		.loc 1 172 3 is_stmt 1 discriminator 2 view .LVU176
 659              		.loc 1 172 3 discriminator 2 view .LVU177
 660              		.syntax divided
 661              	@ 172 "../../test/testmbox.c" 1
 662 0460 1FF021E3 		msr     CPSR_c, #0x1F
 663              	@ 0 "" 2
 664              		.loc 1 173 3 discriminator 2 view .LVU178
 665              		.arm
 666              		.syntax unified
 667 0464 101F6FE1 		clz	r1, r0
 668 0468 1A00A0E3 		mov	r0, #26
 669              	.LVL76:
 670              		.loc 1 173 3 is_stmt 0 discriminator 2 view .LVU179
 671 046c A112A0E1 		lsr	r1, r1, #5
 672 0470 FEFFFFEB 		bl	_test_assert
 673              	.LVL77:
 674 0474 000050E3 		cmp	r0, #0
 675 0478 05FFFF1A 		bne	.L1
 676              		.loc 1 173 59 is_stmt 1 discriminator 2 view .LVU180
 677              		.loc 1 174 3 discriminator 2 view .LVU181
 678 047c 0C1095E5 		ldr	r1, [r5, #12]
 679 0480 083095E5 		ldr	r3, [r5, #8]
 680 0484 1B00A0E3 		mov	r0, #27
 681 0488 031041E0 		sub	r1, r1, r3
 682 048c 111F6FE1 		clz	r1, r1
 683 0490 A112A0E1 		lsr	r1, r1, #5
ARM GAS  /tmp/ccrAlYmd.s 			page 13


 684 0494 FEFFFFEB 		bl	_test_assert
 685              	.LVL78:
 686 0498 000050E3 		cmp	r0, #0
 687 049c FCFEFF1A 		bne	.L1
 688 04a0 0540A0E3 		mov	r4, #5
 689              	.LVL79:
 690              		.loc 1 177 12 is_stmt 0 view .LVU182
 691 04a4 1C639FE5 		ldr	r6, .L30
 692              	.L12:
 693              	.LVL80:
 694              		.loc 1 176 5 is_stmt 1 view .LVU183
 695              		.syntax divided
 696              	@ 176 "../../test/testmbox.c" 1
 697 04a8 9FF021E3 		msr     CPSR_c, #0x9F
 698              	@ 0 "" 2
 699              		.loc 1 176 5 view .LVU184
 700              		.loc 1 176 16 view .LVU185
 701              		.loc 1 177 5 view .LVU186
 702              		.loc 1 177 12 is_stmt 0 view .LVU187
 703              		.arm
 704              		.syntax unified
 705 04ac 0600A0E1 		mov	r0, r6
 706 04b0 04108DE2 		add	r1, sp, #4
 707 04b4 FEFFFFEB 		bl	chMBFetchI
 708              	.LVL81:
 709              		.loc 1 178 5 is_stmt 1 view .LVU188
 710              		.loc 1 178 5 view .LVU189
 711              		.syntax divided
 712              	@ 178 "../../test/testmbox.c" 1
 713 04b8 1FF021E3 		msr     CPSR_c, #0x1F
 714              	@ 0 "" 2
 715              		.loc 1 178 18 view .LVU190
 716              		.loc 1 179 5 view .LVU191
 717              		.arm
 718              		.syntax unified
 719 04bc 101F6FE1 		clz	r1, r0
 720 04c0 1C00A0E3 		mov	r0, #28
 721              	.LVL82:
 722              		.loc 1 179 5 is_stmt 0 view .LVU192
 723 04c4 A112A0E1 		lsr	r1, r1, #5
 724 04c8 FEFFFFEB 		bl	_test_assert
 725              	.LVL83:
 726              		.loc 1 179 61 is_stmt 1 view .LVU193
 727              		.loc 1 180 5 view .LVU194
 728              		.loc 1 179 5 is_stmt 0 view .LVU195
 729 04cc 000050E3 		cmp	r0, #0
 730 04d0 EFFEFF1A 		bne	.L1
 731              		.loc 1 180 5 discriminator 2 view .LVU196
 732 04d4 0400DDE5 		ldrb	r0, [sp, #4]	@ zero_extendqisi2
 733 04d8 FEFFFFEB 		bl	test_emit_token
 734              	.LVL84:
 735              		.loc 1 175 29 is_stmt 1 discriminator 2 view .LVU197
 736              		.loc 1 175 17 discriminator 2 view .LVU198
 737 04dc 014054E2 		subs	r4, r4, #1
 738              	.LVL85:
 739              		.loc 1 175 17 is_stmt 0 discriminator 2 view .LVU199
 740 04e0 F0FFFF1A 		bne	.L12
ARM GAS  /tmp/ccrAlYmd.s 			page 14


 741              		.loc 1 182 3 is_stmt 1 view .LVU200
 742 04e4 1D00A0E3 		mov	r0, #29
 743 04e8 DC129FE5 		ldr	r1, .L30+4
 744 04ec FEFFFFEB 		bl	_test_assert_sequence
 745              	.LVL86:
 746 04f0 000050E3 		cmp	r0, #0
 747 04f4 E6FEFF1A 		bne	.L1
 748              		.loc 1 182 36 discriminator 2 view .LVU201
 749              		.loc 1 183 3 discriminator 2 view .LVU202
 750              		.syntax divided
 751              	@ 183 "../../test/testmbox.c" 1
 752 04f8 9FF021E3 		msr     CPSR_c, #0x9F
 753              	@ 0 "" 2
 754              		.loc 1 183 3 discriminator 2 view .LVU203
 755              		.loc 1 183 3 discriminator 2 view .LVU204
 756              		.loc 1 183 3 discriminator 2 view .LVU205
 757              		.arm
 758              		.syntax unified
 759 04fc 241095E5 		ldr	r1, [r5, #36]
 760 0500 1E00A0E3 		mov	r0, #30
 761 0504 051041E2 		sub	r1, r1, #5
 762 0508 111F6FE1 		clz	r1, r1
 763 050c A112A0E1 		lsr	r1, r1, #5
 764 0510 FEFFFFEB 		bl	_test_assert
 765              	.LVL87:
 766 0514 000050E3 		cmp	r0, #0
 767 0518 A800001A 		bne	.L21
 768              		.loc 1 183 3 discriminator 2 view .LVU206
 769              		.loc 1 183 3 discriminator 2 view .LVU207
 770              		.syntax divided
 771              	@ 183 "../../test/testmbox.c" 1
 772 051c 1FF021E3 		msr     CPSR_c, #0x1F
 773              	@ 0 "" 2
 774              		.loc 1 183 3 discriminator 2 view .LVU208
 775              		.loc 1 183 72 discriminator 2 view .LVU209
 776              		.loc 1 184 3 discriminator 2 view .LVU210
 777              	@ 184 "../../test/testmbox.c" 1
 778 0520 9FF021E3 		msr     CPSR_c, #0x9F
 779              	@ 0 "" 2
 780              		.loc 1 184 3 discriminator 2 view .LVU211
 781              		.loc 1 184 3 discriminator 2 view .LVU212
 782              		.loc 1 184 3 discriminator 2 view .LVU213
 783              		.arm
 784              		.syntax unified
 785 0524 181095E5 		ldr	r1, [r5, #24]
 786 0528 1F00A0E3 		mov	r0, #31
 787 052c 111F6FE1 		clz	r1, r1
 788 0530 A112A0E1 		lsr	r1, r1, #5
 789 0534 FEFFFFEB 		bl	_test_assert
 790              	.LVL88:
 791 0538 000050E3 		cmp	r0, #0
 792 053c 9F00001A 		bne	.L21
 793              		.loc 1 184 3 discriminator 2 view .LVU214
 794              		.loc 1 184 3 discriminator 2 view .LVU215
 795              		.syntax divided
 796              	@ 184 "../../test/testmbox.c" 1
 797 0540 1FF021E3 		msr     CPSR_c, #0x1F
ARM GAS  /tmp/ccrAlYmd.s 			page 15


 798              	@ 0 "" 2
 799              		.loc 1 184 3 discriminator 2 view .LVU216
 800              		.loc 1 184 67 discriminator 2 view .LVU217
 801              		.loc 1 185 3 discriminator 2 view .LVU218
 802              		.arm
 803              		.syntax unified
 804 0544 0C1095E5 		ldr	r1, [r5, #12]
 805 0548 083095E5 		ldr	r3, [r5, #8]
 806 054c 2000A0E3 		mov	r0, #32
 807 0550 031041E0 		sub	r1, r1, r3
 808 0554 111F6FE1 		clz	r1, r1
 809 0558 A112A0E1 		lsr	r1, r1, #5
 810 055c FEFFFFEB 		bl	_test_assert
 811              	.LVL89:
 812 0560 000050E3 		cmp	r0, #0
 813 0564 CAFEFF1A 		bne	.L1
 814              		.loc 1 185 72 discriminator 2 view .LVU219
 815              		.loc 1 187 3 discriminator 2 view .LVU220
 816              		.syntax divided
 817              	@ 187 "../../test/testmbox.c" 1
 818 0568 9FF021E3 		msr     CPSR_c, #0x9F
 819              	@ 0 "" 2
 820              		.loc 1 187 3 discriminator 2 view .LVU221
 821              		.loc 1 187 14 discriminator 2 view .LVU222
 822              		.loc 1 188 3 discriminator 2 view .LVU223
 823              		.loc 1 188 10 is_stmt 0 discriminator 2 view .LVU224
 824              		.arm
 825              		.syntax unified
 826 056c 4510A0E3 		mov	r1, #69
 827 0570 50029FE5 		ldr	r0, .L30
 828 0574 FEFFFFEB 		bl	chMBPostAheadI
 829              	.LVL90:
 830 0578 0010A0E1 		mov	r1, r0
 831              	.LVL91:
 832              		.loc 1 189 3 is_stmt 1 discriminator 2 view .LVU225
 833 057c 111F6FE1 		clz	r1, r1
 834 0580 2100A0E3 		mov	r0, #33
 835              	.LVL92:
 836              		.loc 1 189 3 is_stmt 0 discriminator 2 view .LVU226
 837 0584 A112A0E1 		lsr	r1, r1, #5
 838 0588 FEFFFFEB 		bl	_test_assert
 839              	.LVL93:
 840 058c 000050E3 		cmp	r0, #0
 841 0590 BFFEFF1A 		bne	.L1
 842              		.loc 1 189 59 is_stmt 1 discriminator 2 view .LVU227
 843              		.loc 1 190 3 discriminator 2 view .LVU228
 844              		.loc 1 190 10 is_stmt 0 discriminator 2 view .LVU229
 845 0594 4410A0E3 		mov	r1, #68
 846 0598 28029FE5 		ldr	r0, .L30
 847 059c FEFFFFEB 		bl	chMBPostAheadI
 848              	.LVL94:
 849 05a0 0010A0E1 		mov	r1, r0
 850              	.LVL95:
 851              		.loc 1 191 3 is_stmt 1 discriminator 2 view .LVU230
 852 05a4 111F6FE1 		clz	r1, r1
 853 05a8 2200A0E3 		mov	r0, #34
 854              	.LVL96:
ARM GAS  /tmp/ccrAlYmd.s 			page 16


 855              		.loc 1 191 3 is_stmt 0 discriminator 2 view .LVU231
 856 05ac A112A0E1 		lsr	r1, r1, #5
 857 05b0 FEFFFFEB 		bl	_test_assert
 858              	.LVL97:
 859 05b4 000050E3 		cmp	r0, #0
 860 05b8 B5FEFF1A 		bne	.L1
 861              		.loc 1 191 59 is_stmt 1 discriminator 2 view .LVU232
 862              		.loc 1 192 3 discriminator 2 view .LVU233
 863              		.loc 1 192 10 is_stmt 0 discriminator 2 view .LVU234
 864 05bc 4310A0E3 		mov	r1, #67
 865 05c0 00029FE5 		ldr	r0, .L30
 866 05c4 FEFFFFEB 		bl	chMBPostAheadI
 867              	.LVL98:
 868 05c8 0010A0E1 		mov	r1, r0
 869              	.LVL99:
 870              		.loc 1 193 3 is_stmt 1 discriminator 2 view .LVU235
 871 05cc 111F6FE1 		clz	r1, r1
 872 05d0 2300A0E3 		mov	r0, #35
 873              	.LVL100:
 874              		.loc 1 193 3 is_stmt 0 discriminator 2 view .LVU236
 875 05d4 A112A0E1 		lsr	r1, r1, #5
 876 05d8 FEFFFFEB 		bl	_test_assert
 877              	.LVL101:
 878 05dc 000050E3 		cmp	r0, #0
 879 05e0 ABFEFF1A 		bne	.L1
 880              		.loc 1 193 59 is_stmt 1 discriminator 2 view .LVU237
 881              		.loc 1 194 3 discriminator 2 view .LVU238
 882              		.loc 1 194 10 is_stmt 0 discriminator 2 view .LVU239
 883 05e4 4210A0E3 		mov	r1, #66
 884 05e8 D8019FE5 		ldr	r0, .L30
 885 05ec FEFFFFEB 		bl	chMBPostAheadI
 886              	.LVL102:
 887 05f0 0010A0E1 		mov	r1, r0
 888              	.LVL103:
 889              		.loc 1 195 3 is_stmt 1 discriminator 2 view .LVU240
 890 05f4 111F6FE1 		clz	r1, r1
 891 05f8 2400A0E3 		mov	r0, #36
 892              	.LVL104:
 893              		.loc 1 195 3 is_stmt 0 discriminator 2 view .LVU241
 894 05fc A112A0E1 		lsr	r1, r1, #5
 895 0600 FEFFFFEB 		bl	_test_assert
 896              	.LVL105:
 897 0604 000050E3 		cmp	r0, #0
 898 0608 A1FEFF1A 		bne	.L1
 899              		.loc 1 195 59 is_stmt 1 discriminator 2 view .LVU242
 900              		.loc 1 196 3 discriminator 2 view .LVU243
 901              		.loc 1 196 10 is_stmt 0 discriminator 2 view .LVU244
 902 060c 4110A0E3 		mov	r1, #65
 903 0610 B0019FE5 		ldr	r0, .L30
 904 0614 FEFFFFEB 		bl	chMBPostAheadI
 905              	.LVL106:
 906              		.loc 1 197 3 is_stmt 1 discriminator 2 view .LVU245
 907              		.loc 1 197 3 discriminator 2 view .LVU246
 908              		.syntax divided
 909              	@ 197 "../../test/testmbox.c" 1
 910 0618 1FF021E3 		msr     CPSR_c, #0x1F
 911              	@ 0 "" 2
ARM GAS  /tmp/ccrAlYmd.s 			page 17


 912              		.loc 1 197 16 discriminator 2 view .LVU247
 913              		.loc 1 198 3 discriminator 2 view .LVU248
 914              		.arm
 915              		.syntax unified
 916 061c 101F6FE1 		clz	r1, r0
 917 0620 2500A0E3 		mov	r0, #37
 918              	.LVL107:
 919              		.loc 1 198 3 is_stmt 0 discriminator 2 view .LVU249
 920 0624 A112A0E1 		lsr	r1, r1, #5
 921 0628 FEFFFFEB 		bl	_test_assert
 922              	.LVL108:
 923 062c 000050E3 		cmp	r0, #0
 924 0630 97FEFF1A 		bne	.L1
 925              		.loc 1 198 59 is_stmt 1 discriminator 2 view .LVU250
 926              		.loc 1 199 3 discriminator 2 view .LVU251
 927 0634 0C1095E5 		ldr	r1, [r5, #12]
 928 0638 083095E5 		ldr	r3, [r5, #8]
 929 063c 2600A0E3 		mov	r0, #38
 930 0640 031041E0 		sub	r1, r1, r3
 931 0644 111F6FE1 		clz	r1, r1
 932 0648 A112A0E1 		lsr	r1, r1, #5
 933 064c FEFFFFEB 		bl	_test_assert
 934              	.LVL109:
 935 0650 000050E3 		cmp	r0, #0
 936 0654 8EFEFF1A 		bne	.L1
 937 0658 0540A0E3 		mov	r4, #5
 938              	.LVL110:
 939              		.loc 1 202 12 is_stmt 0 view .LVU252
 940 065c 64619FE5 		ldr	r6, .L30
 941              	.L15:
 942              	.LVL111:
 943              		.loc 1 201 5 is_stmt 1 view .LVU253
 944              		.syntax divided
 945              	@ 201 "../../test/testmbox.c" 1
 946 0660 9FF021E3 		msr     CPSR_c, #0x9F
 947              	@ 0 "" 2
 948              		.loc 1 201 5 view .LVU254
 949              		.loc 1 201 16 view .LVU255
 950              		.loc 1 202 5 view .LVU256
 951              		.loc 1 202 12 is_stmt 0 view .LVU257
 952              		.arm
 953              		.syntax unified
 954 0664 0600A0E1 		mov	r0, r6
 955 0668 04108DE2 		add	r1, sp, #4
 956 066c FEFFFFEB 		bl	chMBFetchI
 957              	.LVL112:
 958              		.loc 1 203 5 is_stmt 1 view .LVU258
 959              		.loc 1 203 5 view .LVU259
 960              		.syntax divided
 961              	@ 203 "../../test/testmbox.c" 1
 962 0670 1FF021E3 		msr     CPSR_c, #0x1F
 963              	@ 0 "" 2
 964              		.loc 1 203 18 view .LVU260
 965              		.loc 1 204 5 view .LVU261
 966              		.arm
 967              		.syntax unified
 968 0674 101F6FE1 		clz	r1, r0
ARM GAS  /tmp/ccrAlYmd.s 			page 18


 969 0678 2700A0E3 		mov	r0, #39
 970              	.LVL113:
 971              		.loc 1 204 5 is_stmt 0 view .LVU262
 972 067c A112A0E1 		lsr	r1, r1, #5
 973 0680 FEFFFFEB 		bl	_test_assert
 974              	.LVL114:
 975              		.loc 1 204 61 is_stmt 1 view .LVU263
 976              		.loc 1 205 5 view .LVU264
 977              		.loc 1 204 5 is_stmt 0 view .LVU265
 978 0684 000050E3 		cmp	r0, #0
 979 0688 81FEFF1A 		bne	.L1
 980              		.loc 1 205 5 discriminator 2 view .LVU266
 981 068c 0400DDE5 		ldrb	r0, [sp, #4]	@ zero_extendqisi2
 982 0690 FEFFFFEB 		bl	test_emit_token
 983              	.LVL115:
 984              		.loc 1 200 29 is_stmt 1 discriminator 2 view .LVU267
 985              		.loc 1 200 17 discriminator 2 view .LVU268
 986 0694 014054E2 		subs	r4, r4, #1
 987              	.LVL116:
 988              		.loc 1 200 17 is_stmt 0 discriminator 2 view .LVU269
 989 0698 F0FFFF1A 		bne	.L15
 990              		.loc 1 207 3 is_stmt 1 view .LVU270
 991 069c 2800A0E3 		mov	r0, #40
 992 06a0 24119FE5 		ldr	r1, .L30+4
 993 06a4 FEFFFFEB 		bl	_test_assert_sequence
 994              	.LVL117:
 995 06a8 000050E3 		cmp	r0, #0
 996 06ac 78FEFF1A 		bne	.L1
 997              		.loc 1 207 36 discriminator 2 view .LVU271
 998              		.loc 1 208 3 discriminator 2 view .LVU272
 999              		.syntax divided
 1000              	@ 208 "../../test/testmbox.c" 1
 1001 06b0 9FF021E3 		msr     CPSR_c, #0x9F
 1002              	@ 0 "" 2
 1003              		.loc 1 208 3 discriminator 2 view .LVU273
 1004              		.loc 1 208 3 discriminator 2 view .LVU274
 1005              		.loc 1 208 3 discriminator 2 view .LVU275
 1006              		.arm
 1007              		.syntax unified
 1008 06b4 241095E5 		ldr	r1, [r5, #36]
 1009 06b8 2900A0E3 		mov	r0, #41
 1010 06bc 051041E2 		sub	r1, r1, #5
 1011 06c0 111F6FE1 		clz	r1, r1
 1012 06c4 A112A0E1 		lsr	r1, r1, #5
 1013 06c8 FEFFFFEB 		bl	_test_assert
 1014              	.LVL118:
 1015 06cc 000050E3 		cmp	r0, #0
 1016 06d0 3A00001A 		bne	.L21
 1017              		.loc 1 208 3 discriminator 2 view .LVU276
 1018              		.loc 1 208 3 discriminator 2 view .LVU277
 1019              		.syntax divided
 1020              	@ 208 "../../test/testmbox.c" 1
 1021 06d4 1FF021E3 		msr     CPSR_c, #0x1F
 1022              	@ 0 "" 2
 1023              		.loc 1 208 3 discriminator 2 view .LVU278
 1024              		.loc 1 208 72 discriminator 2 view .LVU279
 1025              		.loc 1 209 3 discriminator 2 view .LVU280
ARM GAS  /tmp/ccrAlYmd.s 			page 19


 1026              	@ 209 "../../test/testmbox.c" 1
 1027 06d8 9FF021E3 		msr     CPSR_c, #0x9F
 1028              	@ 0 "" 2
 1029              		.loc 1 209 3 discriminator 2 view .LVU281
 1030              		.loc 1 209 3 discriminator 2 view .LVU282
 1031              		.loc 1 209 3 discriminator 2 view .LVU283
 1032              		.arm
 1033              		.syntax unified
 1034 06dc 181095E5 		ldr	r1, [r5, #24]
 1035 06e0 2A00A0E3 		mov	r0, #42
 1036 06e4 111F6FE1 		clz	r1, r1
 1037 06e8 A112A0E1 		lsr	r1, r1, #5
 1038 06ec FEFFFFEB 		bl	_test_assert
 1039              	.LVL119:
 1040 06f0 000050E3 		cmp	r0, #0
 1041 06f4 3100001A 		bne	.L21
 1042              		.loc 1 209 3 discriminator 2 view .LVU284
 1043              		.loc 1 209 3 discriminator 2 view .LVU285
 1044              		.syntax divided
 1045              	@ 209 "../../test/testmbox.c" 1
 1046 06f8 1FF021E3 		msr     CPSR_c, #0x1F
 1047              	@ 0 "" 2
 1048              		.loc 1 209 3 discriminator 2 view .LVU286
 1049              		.loc 1 209 67 discriminator 2 view .LVU287
 1050              		.loc 1 210 3 discriminator 2 view .LVU288
 1051              		.arm
 1052              		.syntax unified
 1053 06fc 0C1095E5 		ldr	r1, [r5, #12]
 1054 0700 083095E5 		ldr	r3, [r5, #8]
 1055 0704 2B00A0E3 		mov	r0, #43
 1056 0708 031041E0 		sub	r1, r1, r3
 1057 070c 111F6FE1 		clz	r1, r1
 1058 0710 A112A0E1 		lsr	r1, r1, #5
 1059 0714 FEFFFFEB 		bl	_test_assert
 1060              	.LVL120:
 1061 0718 000050E3 		cmp	r0, #0
 1062 071c 5CFEFF1A 		bne	.L1
 1063              		.loc 1 210 72 discriminator 2 view .LVU289
 1064              		.loc 1 215 3 discriminator 2 view .LVU290
 1065 0720 A0009FE5 		ldr	r0, .L30
 1066 0724 FEFFFFEB 		bl	chMBReset
 1067              	.LVL121:
 1068              		.loc 1 220 3 discriminator 2 view .LVU291
 1069              		.syntax divided
 1070              	@ 220 "../../test/testmbox.c" 1
 1071 0728 9FF021E3 		msr     CPSR_c, #0x9F
 1072              	@ 0 "" 2
 1073              		.loc 1 220 3 discriminator 2 view .LVU292
 1074              		.loc 1 220 3 discriminator 2 view .LVU293
 1075              		.loc 1 220 3 discriminator 2 view .LVU294
 1076              		.arm
 1077              		.syntax unified
 1078 072c 241095E5 		ldr	r1, [r5, #36]
 1079 0730 2C00A0E3 		mov	r0, #44
 1080 0734 051041E2 		sub	r1, r1, #5
 1081 0738 111F6FE1 		clz	r1, r1
 1082 073c A112A0E1 		lsr	r1, r1, #5
ARM GAS  /tmp/ccrAlYmd.s 			page 20


 1083 0740 FEFFFFEB 		bl	_test_assert
 1084              	.LVL122:
 1085 0744 000050E3 		cmp	r0, #0
 1086 0748 1C00001A 		bne	.L21
 1087              		.loc 1 220 3 discriminator 2 view .LVU295
 1088              		.loc 1 220 3 discriminator 2 view .LVU296
 1089              		.syntax divided
 1090              	@ 220 "../../test/testmbox.c" 1
 1091 074c 1FF021E3 		msr     CPSR_c, #0x1F
 1092              	@ 0 "" 2
 1093              		.loc 1 220 3 discriminator 2 view .LVU297
 1094              		.loc 1 220 72 discriminator 2 view .LVU298
 1095              		.loc 1 221 3 discriminator 2 view .LVU299
 1096              	@ 221 "../../test/testmbox.c" 1
 1097 0750 9FF021E3 		msr     CPSR_c, #0x9F
 1098              	@ 0 "" 2
 1099              		.loc 1 221 3 discriminator 2 view .LVU300
 1100              		.loc 1 221 3 discriminator 2 view .LVU301
 1101              		.loc 1 221 3 discriminator 2 view .LVU302
 1102              		.arm
 1103              		.syntax unified
 1104 0754 181095E5 		ldr	r1, [r5, #24]
 1105 0758 2D00A0E3 		mov	r0, #45
 1106 075c 111F6FE1 		clz	r1, r1
 1107 0760 A112A0E1 		lsr	r1, r1, #5
 1108 0764 FEFFFFEB 		bl	_test_assert
 1109              	.LVL123:
 1110 0768 000050E3 		cmp	r0, #0
 1111 076c 1300001A 		bne	.L21
 1112              		.loc 1 221 3 discriminator 2 view .LVU303
 1113              		.loc 1 221 3 discriminator 2 view .LVU304
 1114              		.syntax divided
 1115              	@ 221 "../../test/testmbox.c" 1
 1116 0770 1FF021E3 		msr     CPSR_c, #0x1F
 1117              	@ 0 "" 2
 1118              		.loc 1 221 3 discriminator 2 view .LVU305
 1119              		.loc 1 221 67 discriminator 2 view .LVU306
 1120              		.loc 1 222 3 discriminator 2 view .LVU307
 1121              	@ 222 "../../test/testmbox.c" 1
 1122 0774 9FF021E3 		msr     CPSR_c, #0x9F
 1123              	@ 0 "" 2
 1124              		.loc 1 222 3 discriminator 2 view .LVU308
 1125              		.loc 1 222 3 discriminator 2 view .LVU309
 1126              		.loc 1 222 3 discriminator 2 view .LVU310
 1127              		.arm
 1128              		.syntax unified
 1129 0778 001095E5 		ldr	r1, [r5]
 1130 077c 083095E5 		ldr	r3, [r5, #8]
 1131 0780 2E00A0E3 		mov	r0, #46
 1132 0784 031041E0 		sub	r1, r1, r3
 1133 0788 111F6FE1 		clz	r1, r1
 1134 078c A112A0E1 		lsr	r1, r1, #5
 1135 0790 FEFFFFEB 		bl	_test_assert
 1136              	.LVL124:
 1137 0794 000050E3 		cmp	r0, #0
 1138 0798 0800001A 		bne	.L21
 1139              		.loc 1 222 3 discriminator 2 view .LVU311
ARM GAS  /tmp/ccrAlYmd.s 			page 21


 1140              		.loc 1 222 3 discriminator 2 view .LVU312
 1141              		.syntax divided
 1142              	@ 222 "../../test/testmbox.c" 1
 1143 079c 1FF021E3 		msr     CPSR_c, #0x1F
 1144              	@ 0 "" 2
 1145              		.loc 1 222 3 discriminator 2 view .LVU313
 1146              		.loc 1 222 91 discriminator 2 view .LVU314
 1147              		.loc 1 223 3 discriminator 2 view .LVU315
 1148              	@ 223 "../../test/testmbox.c" 1
 1149 07a0 9FF021E3 		msr     CPSR_c, #0x9F
 1150              	@ 0 "" 2
 1151              		.loc 1 223 3 discriminator 2 view .LVU316
 1152              		.loc 1 223 3 discriminator 2 view .LVU317
 1153              		.loc 1 223 3 discriminator 2 view .LVU318
 1154              		.arm
 1155              		.syntax unified
 1156 07a4 001095E5 		ldr	r1, [r5]
 1157 07a8 0C3095E5 		ldr	r3, [r5, #12]
 1158 07ac 2F00A0E3 		mov	r0, #47
 1159 07b0 031041E0 		sub	r1, r1, r3
 1160 07b4 111F6FE1 		clz	r1, r1
 1161 07b8 A112A0E1 		lsr	r1, r1, #5
 1162 07bc FEFFFFEB 		bl	_test_assert
 1163              	.LVL125:
 1164              	.L21:
 1165              		.loc 1 223 3 discriminator 2 view .LVU319
 1166              		.loc 1 223 3 discriminator 2 view .LVU320
 1167              		.syntax divided
 1168              	@ 223 "../../test/testmbox.c" 1
 1169 07c0 1FF021E3 		msr     CPSR_c, #0x1F
 1170              	@ 0 "" 2
 1171              		.loc 1 223 3 discriminator 2 view .LVU321
 1172              		.loc 1 223 90 discriminator 2 view .LVU322
 1173              		.arm
 1174              		.syntax unified
 1175 07c4 32FEFFEA 		b	.L1
 1176              	.L31:
 1177              		.align	2
 1178              	.L30:
 1179 07c8 00000000 		.word	.LANCHOR0
 1180 07cc 00000000 		.word	.LC0
 1181              		.cfi_endproc
 1182              	.LFE8:
 1183              		.size	mbox1_execute, .-mbox1_execute
 1184              		.section	.text.mbox1_setup,"ax",%progbits
 1185              		.align	2
 1186              		.syntax unified
 1187              		.arm
 1188              		.fpu softvfp
 1189              		.type	mbox1_setup, %function
 1190              	mbox1_setup:
 1191              	.LFB7:
 1192              		.loc 1 75 31 view -0
 1193              		.cfi_startproc
 1194              		@ args = 0, pretend = 0, frame = 0
 1195              		@ frame_needed = 0, uses_anonymous_args = 0
 1196              		@ link register save eliminated.
ARM GAS  /tmp/ccrAlYmd.s 			page 22


 1197              		.loc 1 77 3 view .LVU324
 1198 0000 0520A0E3 		mov	r2, #5
 1199 0004 04109FE5 		ldr	r1, .L33
 1200 0008 04009FE5 		ldr	r0, .L33+4
 1201 000c FEFFFFEA 		b	chMBInit
 1202              	.LVL126:
 1203              	.L34:
 1204              		.align	2
 1205              	.L33:
 1206 0010 00000000 		.word	test
 1207 0014 00000000 		.word	.LANCHOR0
 1208              		.cfi_endproc
 1209              	.LFE7:
 1210              		.size	mbox1_setup, .-mbox1_setup
 1211              		.global	patternmbox
 1212              		.global	testmbox1
 1213              		.section	.rodata.str1.4,"aMS",%progbits,1
 1214              		.align	2
 1215              	.LC1:
 1216 0000 4D61696C 		.ascii	"Mailboxes, queuing and timeouts\000"
 1216      626F7865 
 1216      732C2071 
 1216      75657569 
 1216      6E672061 
 1217              		.section	.data.mb1,"aw"
 1218              		.align	2
 1219              		.set	.LANCHOR0,. + 0
 1220              		.type	mb1, %object
 1221              		.size	mb1, 40
 1222              	mb1:
 1223 0000 00000000 		.word	test
 1224 0004 14000000 		.word	test+20
 1225 0008 00000000 		.word	test
 1226 000c 00000000 		.word	test
 1227 0010 10000000 		.word	mb1+16
 1228 0014 10000000 		.word	mb1+16
 1229 0018 00000000 		.word	0
 1230 001c 1C000000 		.word	mb1+28
 1231 0020 1C000000 		.word	mb1+28
 1232 0024 05000000 		.word	5
 1233              		.section	.rodata.patternmbox,"a"
 1234              		.align	2
 1235              		.type	patternmbox, %object
 1236              		.size	patternmbox, 8
 1237              	patternmbox:
 1238 0000 00000000 		.word	testmbox1
 1239 0004 00000000 		.word	0
 1240              		.section	.rodata.testmbox1,"a"
 1241              		.align	2
 1242              		.type	testmbox1, %object
 1243              		.size	testmbox1, 16
 1244              	testmbox1:
 1245 0000 00000000 		.word	.LC1
 1246 0004 00000000 		.word	mbox1_setup
 1247 0008 00000000 		.word	0
 1248 000c 00000000 		.word	mbox1_execute
 1249              		.text
ARM GAS  /tmp/ccrAlYmd.s 			page 23


 1250              	.Letext0:
 1251              		.file 2 "/usr/arm-none-eabi/include/machine/_default_types.h"
 1252              		.file 3 "/usr/arm-none-eabi/include/sys/_stdint.h"
 1253              		.file 4 "../../os/ports/GCC/ARM/chtypes.h"
 1254              		.file 5 "../../os/kernel/include/chlists.h"
 1255              		.file 6 "../../os/kernel/include/chthreads.h"
 1256              		.file 7 "../../os/ports/GCC/ARM/chcore.h"
 1257              		.file 8 "../../os/kernel/include/chsem.h"
 1258              		.file 9 "../../os/kernel/include/chmtx.h"
 1259              		.file 10 "../../os/kernel/include/chmboxes.h"
 1260              		.file 11 "../../test/test.h"
 1261              		.section	.debug_info,"",%progbits
 1262              	.Ldebug_info0:
 1263 0000 AE0D0000 		.4byte	0xdae
 1264 0004 0500     		.2byte	0x5
 1265 0006 01       		.byte	0x1
 1266 0007 04       		.byte	0x4
 1267 0008 00000000 		.4byte	.Ldebug_abbrev0
 1268 000c 14       		.uleb128 0x14
 1269 000d CD010000 		.4byte	.LASF91
 1270 0011 1D       		.byte	0x1d
 1271 0012 4A030000 		.4byte	.LASF92
 1272 0016 7F020000 		.4byte	.LASF93
 1273 001a 0C000000 		.4byte	.LLRL2
 1274 001e 00000000 		.4byte	0
 1275 0022 00000000 		.4byte	.Ldebug_line0
 1276 0026 15       		.uleb128 0x15
 1277 0027 04       		.byte	0x4
 1278 0028 05       		.byte	0x5
 1279 0029 696E7400 		.ascii	"int\000"
 1280 002d 07       		.uleb128 0x7
 1281 002e 04       		.byte	0x4
 1282 002f 07       		.byte	0x7
 1283 0030 08010000 		.4byte	.LASF0
 1284 0034 07       		.uleb128 0x7
 1285 0035 01       		.byte	0x1
 1286 0036 06       		.byte	0x6
 1287 0037 87000000 		.4byte	.LASF1
 1288 003b 04       		.uleb128 0x4
 1289 003c 0D000000 		.4byte	.LASF5
 1290 0040 02       		.byte	0x2
 1291 0041 2B       		.byte	0x2b
 1292 0042 18       		.byte	0x18
 1293 0043 47000000 		.4byte	0x47
 1294 0047 07       		.uleb128 0x7
 1295 0048 01       		.byte	0x1
 1296 0049 08       		.byte	0x8
 1297 004a 19030000 		.4byte	.LASF2
 1298 004e 07       		.uleb128 0x7
 1299 004f 02       		.byte	0x2
 1300 0050 05       		.byte	0x5
 1301 0051 40030000 		.4byte	.LASF3
 1302 0055 07       		.uleb128 0x7
 1303 0056 02       		.byte	0x2
 1304 0057 07       		.byte	0x7
 1305 0058 62010000 		.4byte	.LASF4
 1306 005c 04       		.uleb128 0x4
ARM GAS  /tmp/ccrAlYmd.s 			page 24


 1307 005d C5030000 		.4byte	.LASF6
 1308 0061 02       		.byte	0x2
 1309 0062 4D       		.byte	0x4d
 1310 0063 18       		.byte	0x18
 1311 0064 68000000 		.4byte	0x68
 1312 0068 07       		.uleb128 0x7
 1313 0069 04       		.byte	0x4
 1314 006a 05       		.byte	0x5
 1315 006b C5000000 		.4byte	.LASF7
 1316 006f 04       		.uleb128 0x4
 1317 0070 EE000000 		.4byte	.LASF8
 1318 0074 02       		.byte	0x2
 1319 0075 4F       		.byte	0x4f
 1320 0076 19       		.byte	0x19
 1321 0077 7B000000 		.4byte	0x7b
 1322 007b 07       		.uleb128 0x7
 1323 007c 04       		.byte	0x4
 1324 007d 07       		.byte	0x7
 1325 007e 28010000 		.4byte	.LASF9
 1326 0082 07       		.uleb128 0x7
 1327 0083 08       		.byte	0x8
 1328 0084 05       		.byte	0x5
 1329 0085 79000000 		.4byte	.LASF10
 1330 0089 07       		.uleb128 0x7
 1331 008a 08       		.byte	0x8
 1332 008b 07       		.byte	0x7
 1333 008c 38000000 		.4byte	.LASF11
 1334 0090 04       		.uleb128 0x4
 1335 0091 29040000 		.4byte	.LASF12
 1336 0095 03       		.byte	0x3
 1337 0096 18       		.byte	0x18
 1338 0097 13       		.byte	0x13
 1339 0098 3B000000 		.4byte	0x3b
 1340 009c 04       		.uleb128 0x4
 1341 009d 11030000 		.4byte	.LASF13
 1342 00a1 03       		.byte	0x3
 1343 00a2 2C       		.byte	0x2c
 1344 00a3 13       		.byte	0x13
 1345 00a4 5C000000 		.4byte	0x5c
 1346 00a8 04       		.uleb128 0x4
 1347 00a9 9B030000 		.4byte	.LASF14
 1348 00ad 03       		.byte	0x3
 1349 00ae 30       		.byte	0x30
 1350 00af 14       		.byte	0x14
 1351 00b0 6F000000 		.4byte	0x6f
 1352 00b4 04       		.uleb128 0x4
 1353 00b5 93000000 		.4byte	.LASF15
 1354 00b9 04       		.byte	0x4
 1355 00ba 29       		.byte	0x29
 1356 00bb 19       		.byte	0x19
 1357 00bc 9C000000 		.4byte	0x9c
 1358 00c0 04       		.uleb128 0x4
 1359 00c1 86010000 		.4byte	.LASF16
 1360 00c5 04       		.byte	0x4
 1361 00c6 2A       		.byte	0x2a
 1362 00c7 19       		.byte	0x19
 1363 00c8 90000000 		.4byte	0x90
ARM GAS  /tmp/ccrAlYmd.s 			page 25


 1364 00cc 04       		.uleb128 0x4
 1365 00cd CE000000 		.4byte	.LASF17
 1366 00d1 04       		.byte	0x4
 1367 00d2 2B       		.byte	0x2b
 1368 00d3 19       		.byte	0x19
 1369 00d4 90000000 		.4byte	0x90
 1370 00d8 04       		.uleb128 0x4
 1371 00d9 F2020000 		.4byte	.LASF18
 1372 00dd 04       		.byte	0x4
 1373 00de 2C       		.byte	0x2c
 1374 00df 19       		.byte	0x19
 1375 00e0 90000000 		.4byte	0x90
 1376 00e4 04       		.uleb128 0x4
 1377 00e5 B2000000 		.4byte	.LASF19
 1378 00e9 04       		.byte	0x4
 1379 00ea 2D       		.byte	0x2d
 1380 00eb 19       		.byte	0x19
 1381 00ec 90000000 		.4byte	0x90
 1382 00f0 04       		.uleb128 0x4
 1383 00f1 09030000 		.4byte	.LASF20
 1384 00f5 04       		.byte	0x4
 1385 00f6 2E       		.byte	0x2e
 1386 00f7 19       		.byte	0x19
 1387 00f8 A8000000 		.4byte	0xa8
 1388 00fc 04       		.uleb128 0x4
 1389 00fd 80010000 		.4byte	.LASF21
 1390 0101 04       		.byte	0x4
 1391 0102 2F       		.byte	0x2f
 1392 0103 19       		.byte	0x19
 1393 0104 9C000000 		.4byte	0x9c
 1394 0108 04       		.uleb128 0x4
 1395 0109 A6010000 		.4byte	.LASF22
 1396 010d 04       		.byte	0x4
 1397 010e 31       		.byte	0x31
 1398 010f 19       		.byte	0x19
 1399 0110 A8000000 		.4byte	0xa8
 1400 0114 04       		.uleb128 0x4
 1401 0115 B0030000 		.4byte	.LASF23
 1402 0119 04       		.byte	0x4
 1403 011a 33       		.byte	0x33
 1404 011b 19       		.byte	0x19
 1405 011c A8000000 		.4byte	0xa8
 1406 0120 16       		.uleb128 0x16
 1407 0121 14010000 		.4byte	0x114
 1408 0125 04       		.uleb128 0x4
 1409 0126 02010000 		.4byte	.LASF24
 1410 012a 04       		.byte	0x4
 1411 012b 34       		.byte	0x34
 1412 012c 19       		.byte	0x19
 1413 012d 9C000000 		.4byte	0x9c
 1414 0131 04       		.uleb128 0x4
 1415 0132 80030000 		.4byte	.LASF25
 1416 0136 05       		.byte	0x5
 1417 0137 23       		.byte	0x23
 1418 0138 17       		.byte	0x17
 1419 0139 3D010000 		.4byte	0x13d
 1420 013d 0A       		.uleb128 0xa
ARM GAS  /tmp/ccrAlYmd.s 			page 26


 1421 013e 80030000 		.4byte	.LASF25
 1422 0142 44       		.byte	0x44
 1423 0143 06       		.byte	0x6
 1424 0144 57       		.byte	0x57
 1425 0145 08       		.byte	0x8
 1426 0146 42020000 		.4byte	0x242
 1427 014a 03       		.uleb128 0x3
 1428 014b 71030000 		.4byte	.LASF26
 1429 014f 06       		.byte	0x6
 1430 0150 58       		.byte	0x58
 1431 0151 1A       		.byte	0x1a
 1432 0152 65020000 		.4byte	0x265
 1433 0156 00       		.byte	0
 1434 0157 03       		.uleb128 0x3
 1435 0158 FA020000 		.4byte	.LASF27
 1436 015c 06       		.byte	0x6
 1437 015d 5A       		.byte	0x5a
 1438 015e 1A       		.byte	0x1a
 1439 015f 65020000 		.4byte	0x265
 1440 0163 04       		.byte	0x4
 1441 0164 03       		.uleb128 0x3
 1442 0165 72000000 		.4byte	.LASF28
 1443 0169 06       		.byte	0x6
 1444 016a 5C       		.byte	0x5c
 1445 016b 19       		.byte	0x19
 1446 016c F0000000 		.4byte	0xf0
 1447 0170 08       		.byte	0x8
 1448 0171 03       		.uleb128 0x3
 1449 0172 54040000 		.4byte	.LASF29
 1450 0176 06       		.byte	0x6
 1451 0177 5D       		.byte	0x5d
 1452 0178 19       		.byte	0x19
 1453 0179 2E030000 		.4byte	0x32e
 1454 017d 0C       		.byte	0xc
 1455 017e 03       		.uleb128 0x3
 1456 017f DE000000 		.4byte	.LASF30
 1457 0183 06       		.byte	0x6
 1458 0184 5F       		.byte	0x5f
 1459 0185 1A       		.byte	0x1a
 1460 0186 65020000 		.4byte	0x265
 1461 018a 10       		.byte	0x10
 1462 018b 03       		.uleb128 0x3
 1463 018c A9020000 		.4byte	.LASF31
 1464 0190 06       		.byte	0x6
 1465 0191 60       		.byte	0x60
 1466 0192 1A       		.byte	0x1a
 1467 0193 65020000 		.4byte	0x265
 1468 0197 14       		.byte	0x14
 1469 0198 03       		.uleb128 0x3
 1470 0199 38040000 		.4byte	.LASF32
 1471 019d 06       		.byte	0x6
 1472 019e 67       		.byte	0x67
 1473 019f 1A       		.byte	0x1a
 1474 01a0 6A040000 		.4byte	0x46a
 1475 01a4 18       		.byte	0x18
 1476 01a5 03       		.uleb128 0x3
 1477 01a6 9A000000 		.4byte	.LASF33
ARM GAS  /tmp/ccrAlYmd.s 			page 27


 1478 01aa 06       		.byte	0x6
 1479 01ab 72       		.byte	0x72
 1480 01ac 19       		.byte	0x19
 1481 01ad CC000000 		.4byte	0xcc
 1482 01b1 1C       		.byte	0x1c
 1483 01b2 03       		.uleb128 0x3
 1484 01b3 78030000 		.4byte	.LASF34
 1485 01b7 06       		.byte	0x6
 1486 01b8 76       		.byte	0x76
 1487 01b9 19       		.byte	0x19
 1488 01ba C0000000 		.4byte	0xc0
 1489 01be 1D       		.byte	0x1d
 1490 01bf 03       		.uleb128 0x3
 1491 01c0 22040000 		.4byte	.LASF35
 1492 01c4 06       		.byte	0x6
 1493 01c5 7B       		.byte	0x7b
 1494 01c6 19       		.byte	0x19
 1495 01c7 D8000000 		.4byte	0xd8
 1496 01cb 1E       		.byte	0x1e
 1497 01cc 03       		.uleb128 0x3
 1498 01cd 60030000 		.4byte	.LASF36
 1499 01d1 06       		.byte	0x6
 1500 01d2 81       		.byte	0x81
 1501 01d3 19       		.byte	0x19
 1502 01d4 E4000000 		.4byte	0xe4
 1503 01d8 1F       		.byte	0x1f
 1504 01d9 03       		.uleb128 0x3
 1505 01da CF030000 		.4byte	.LASF37
 1506 01de 06       		.byte	0x6
 1507 01df 88       		.byte	0x88
 1508 01e0 19       		.byte	0x19
 1509 01e1 20010000 		.4byte	0x120
 1510 01e5 20       		.byte	0x20
 1511 01e6 06       		.uleb128 0x6
 1512 01e7 705F7500 		.ascii	"p_u\000"
 1513 01eb 06       		.byte	0x6
 1514 01ec AD       		.byte	0xad
 1515 01ed 19       		.byte	0x19
 1516 01ee 30040000 		.4byte	0x430
 1517 01f2 24       		.byte	0x24
 1518 01f3 03       		.uleb128 0x3
 1519 01f4 5A040000 		.4byte	.LASF38
 1520 01f8 06       		.byte	0x6
 1521 01f9 B2       		.byte	0xb2
 1522 01fa 19       		.byte	0x19
 1523 01fb 8C020000 		.4byte	0x28c
 1524 01ff 28       		.byte	0x28
 1525 0200 03       		.uleb128 0x3
 1526 0201 EB030000 		.4byte	.LASF39
 1527 0205 06       		.byte	0x6
 1528 0206 B8       		.byte	0xb8
 1529 0207 19       		.byte	0x19
 1530 0208 6A020000 		.4byte	0x26a
 1531 020c 2C       		.byte	0x2c
 1532 020d 03       		.uleb128 0x3
 1533 020e 00000000 		.4byte	.LASF40
 1534 0212 06       		.byte	0x6
ARM GAS  /tmp/ccrAlYmd.s 			page 28


 1535 0213 BC       		.byte	0xbc
 1536 0214 19       		.byte	0x19
 1537 0215 FC000000 		.4byte	0xfc
 1538 0219 34       		.byte	0x34
 1539 021a 03       		.uleb128 0x3
 1540 021b 90030000 		.4byte	.LASF41
 1541 021f 06       		.byte	0x6
 1542 0220 C2       		.byte	0xc2
 1543 0221 19       		.byte	0x19
 1544 0222 08010000 		.4byte	0x108
 1545 0226 38       		.byte	0x38
 1546 0227 03       		.uleb128 0x3
 1547 0228 36030000 		.4byte	.LASF42
 1548 022c 06       		.byte	0x6
 1549 022d C9       		.byte	0xc9
 1550 022e 1A       		.byte	0x1a
 1551 022f 7B040000 		.4byte	0x47b
 1552 0233 3C       		.byte	0x3c
 1553 0234 03       		.uleb128 0x3
 1554 0235 BA030000 		.4byte	.LASF43
 1555 0239 06       		.byte	0x6
 1556 023a CD       		.byte	0xcd
 1557 023b 19       		.byte	0x19
 1558 023c F0000000 		.4byte	0xf0
 1559 0240 40       		.byte	0x40
 1560 0241 00       		.byte	0
 1561 0242 0E       		.uleb128 0xe
 1562 0243 08       		.byte	0x8
 1563 0244 05       		.byte	0x5
 1564 0245 5A       		.byte	0x5a
 1565 0246 65020000 		.4byte	0x265
 1566 024a 03       		.uleb128 0x3
 1567 024b 71030000 		.4byte	.LASF26
 1568 024f 05       		.byte	0x5
 1569 0250 5B       		.byte	0x5b
 1570 0251 1A       		.byte	0x1a
 1571 0252 65020000 		.4byte	0x265
 1572 0256 00       		.byte	0
 1573 0257 03       		.uleb128 0x3
 1574 0258 FA020000 		.4byte	.LASF27
 1575 025c 05       		.byte	0x5
 1576 025d 5D       		.byte	0x5d
 1577 025e 1A       		.byte	0x1a
 1578 025f 65020000 		.4byte	0x265
 1579 0263 04       		.byte	0x4
 1580 0264 00       		.byte	0
 1581 0265 08       		.uleb128 0x8
 1582 0266 31010000 		.4byte	0x131
 1583 026a 04       		.uleb128 0x4
 1584 026b B1020000 		.4byte	.LASF44
 1585 026f 05       		.byte	0x5
 1586 0270 5F       		.byte	0x5f
 1587 0271 03       		.byte	0x3
 1588 0272 42020000 		.4byte	0x242
 1589 0276 0E       		.uleb128 0xe
 1590 0277 04       		.byte	0x4
 1591 0278 05       		.byte	0x5
ARM GAS  /tmp/ccrAlYmd.s 			page 29


 1592 0279 64       		.byte	0x64
 1593 027a 8C020000 		.4byte	0x28c
 1594 027e 03       		.uleb128 0x3
 1595 027f 71030000 		.4byte	.LASF26
 1596 0283 05       		.byte	0x5
 1597 0284 66       		.byte	0x66
 1598 0285 16       		.byte	0x16
 1599 0286 65020000 		.4byte	0x265
 1600 028a 00       		.byte	0
 1601 028b 00       		.byte	0
 1602 028c 04       		.uleb128 0x4
 1603 028d 9A010000 		.4byte	.LASF45
 1604 0291 05       		.byte	0x5
 1605 0292 69       		.byte	0x69
 1606 0293 03       		.byte	0x3
 1607 0294 76020000 		.4byte	0x276
 1608 0298 04       		.uleb128 0x4
 1609 0299 C2010000 		.4byte	.LASF46
 1610 029d 07       		.byte	0x7
 1611 029e 9D       		.byte	0x9d
 1612 029f 12       		.byte	0x12
 1613 02a0 A8000000 		.4byte	0xa8
 1614 02a4 04       		.uleb128 0x4
 1615 02a5 F9000000 		.4byte	.LASF47
 1616 02a9 07       		.byte	0x7
 1617 02aa A2       		.byte	0xa2
 1618 02ab 0F       		.byte	0xf
 1619 02ac B0020000 		.4byte	0x2b0
 1620 02b0 17       		.uleb128 0x17
 1621 02b1 04       		.byte	0x4
 1622 02b2 0A       		.uleb128 0xa
 1623 02b3 E4030000 		.4byte	.LASF48
 1624 02b7 24       		.byte	0x24
 1625 02b8 07       		.byte	0x7
 1626 02b9 B9       		.byte	0xb9
 1627 02ba 08       		.byte	0x8
 1628 02bb 2E030000 		.4byte	0x32e
 1629 02bf 06       		.uleb128 0x6
 1630 02c0 723400   		.ascii	"r4\000"
 1631 02c3 07       		.byte	0x7
 1632 02c4 BA       		.byte	0xba
 1633 02c5 11       		.byte	0x11
 1634 02c6 A4020000 		.4byte	0x2a4
 1635 02ca 00       		.byte	0
 1636 02cb 06       		.uleb128 0x6
 1637 02cc 723500   		.ascii	"r5\000"
 1638 02cf 07       		.byte	0x7
 1639 02d0 BB       		.byte	0xbb
 1640 02d1 11       		.byte	0x11
 1641 02d2 A4020000 		.4byte	0x2a4
 1642 02d6 04       		.byte	0x4
 1643 02d7 06       		.uleb128 0x6
 1644 02d8 723600   		.ascii	"r6\000"
 1645 02db 07       		.byte	0x7
 1646 02dc BC       		.byte	0xbc
 1647 02dd 11       		.byte	0x11
 1648 02de A4020000 		.4byte	0x2a4
ARM GAS  /tmp/ccrAlYmd.s 			page 30


 1649 02e2 08       		.byte	0x8
 1650 02e3 06       		.uleb128 0x6
 1651 02e4 723700   		.ascii	"r7\000"
 1652 02e7 07       		.byte	0x7
 1653 02e8 BD       		.byte	0xbd
 1654 02e9 11       		.byte	0x11
 1655 02ea A4020000 		.4byte	0x2a4
 1656 02ee 0C       		.byte	0xc
 1657 02ef 06       		.uleb128 0x6
 1658 02f0 723800   		.ascii	"r8\000"
 1659 02f3 07       		.byte	0x7
 1660 02f4 BE       		.byte	0xbe
 1661 02f5 11       		.byte	0x11
 1662 02f6 A4020000 		.4byte	0x2a4
 1663 02fa 10       		.byte	0x10
 1664 02fb 06       		.uleb128 0x6
 1665 02fc 723900   		.ascii	"r9\000"
 1666 02ff 07       		.byte	0x7
 1667 0300 BF       		.byte	0xbf
 1668 0301 11       		.byte	0x11
 1669 0302 A4020000 		.4byte	0x2a4
 1670 0306 14       		.byte	0x14
 1671 0307 06       		.uleb128 0x6
 1672 0308 72313000 		.ascii	"r10\000"
 1673 030c 07       		.byte	0x7
 1674 030d C0       		.byte	0xc0
 1675 030e 11       		.byte	0x11
 1676 030f A4020000 		.4byte	0x2a4
 1677 0313 18       		.byte	0x18
 1678 0314 06       		.uleb128 0x6
 1679 0315 72313100 		.ascii	"r11\000"
 1680 0319 07       		.byte	0x7
 1681 031a C1       		.byte	0xc1
 1682 031b 11       		.byte	0x11
 1683 031c A4020000 		.4byte	0x2a4
 1684 0320 1C       		.byte	0x1c
 1685 0321 06       		.uleb128 0x6
 1686 0322 6C7200   		.ascii	"lr\000"
 1687 0325 07       		.byte	0x7
 1688 0326 C2       		.byte	0xc2
 1689 0327 11       		.byte	0x11
 1690 0328 A4020000 		.4byte	0x2a4
 1691 032c 20       		.byte	0x20
 1692 032d 00       		.byte	0
 1693 032e 0A       		.uleb128 0xa
 1694 032f 5A010000 		.4byte	.LASF49
 1695 0333 04       		.byte	0x4
 1696 0334 07       		.byte	0x7
 1697 0335 CA       		.byte	0xca
 1698 0336 08       		.byte	0x8
 1699 0337 49030000 		.4byte	0x349
 1700 033b 06       		.uleb128 0x6
 1701 033c 72313300 		.ascii	"r13\000"
 1702 0340 07       		.byte	0x7
 1703 0341 CB       		.byte	0xcb
 1704 0342 12       		.byte	0x12
 1705 0343 49030000 		.4byte	0x349
ARM GAS  /tmp/ccrAlYmd.s 			page 31


 1706 0347 00       		.byte	0
 1707 0348 00       		.byte	0
 1708 0349 08       		.uleb128 0x8
 1709 034a B2020000 		.4byte	0x2b2
 1710 034e 0A       		.uleb128 0xa
 1711 034f 00040000 		.4byte	.LASF50
 1712 0353 0C       		.byte	0xc
 1713 0354 08       		.byte	0x8
 1714 0355 25       		.byte	0x25
 1715 0356 10       		.byte	0x10
 1716 0357 76030000 		.4byte	0x376
 1717 035b 03       		.uleb128 0x3
 1718 035c E6000000 		.4byte	.LASF51
 1719 0360 08       		.byte	0x8
 1720 0361 26       		.byte	0x26
 1721 0362 19       		.byte	0x19
 1722 0363 6A020000 		.4byte	0x26a
 1723 0367 00       		.byte	0
 1724 0368 03       		.uleb128 0x3
 1725 0369 54010000 		.4byte	.LASF52
 1726 036d 08       		.byte	0x8
 1727 036e 28       		.byte	0x28
 1728 036f 19       		.byte	0x19
 1729 0370 25010000 		.4byte	0x125
 1730 0374 08       		.byte	0x8
 1731 0375 00       		.byte	0
 1732 0376 04       		.uleb128 0x4
 1733 0377 00040000 		.4byte	.LASF50
 1734 037b 08       		.byte	0x8
 1735 037c 29       		.byte	0x29
 1736 037d 03       		.byte	0x3
 1737 037e 4E030000 		.4byte	0x34e
 1738 0382 0A       		.uleb128 0xa
 1739 0383 B2010000 		.4byte	.LASF53
 1740 0387 10       		.byte	0x10
 1741 0388 09       		.byte	0x9
 1742 0389 25       		.byte	0x25
 1743 038a 10       		.byte	0x10
 1744 038b B7030000 		.4byte	0x3b7
 1745 038f 03       		.uleb128 0x3
 1746 0390 27030000 		.4byte	.LASF54
 1747 0394 09       		.byte	0x9
 1748 0395 26       		.byte	0x26
 1749 0396 19       		.byte	0x19
 1750 0397 6A020000 		.4byte	0x26a
 1751 039b 00       		.byte	0
 1752 039c 03       		.uleb128 0x3
 1753 039d 4C040000 		.4byte	.LASF55
 1754 03a1 09       		.byte	0x9
 1755 03a2 28       		.byte	0x28
 1756 03a3 1A       		.byte	0x1a
 1757 03a4 65020000 		.4byte	0x265
 1758 03a8 08       		.byte	0x8
 1759 03a9 03       		.uleb128 0x3
 1760 03aa A9030000 		.4byte	.LASF56
 1761 03ae 09       		.byte	0x9
 1762 03af 2A       		.byte	0x2a
ARM GAS  /tmp/ccrAlYmd.s 			page 32


 1763 03b0 1A       		.byte	0x1a
 1764 03b1 B7030000 		.4byte	0x3b7
 1765 03b5 0C       		.byte	0xc
 1766 03b6 00       		.byte	0
 1767 03b7 08       		.uleb128 0x8
 1768 03b8 82030000 		.4byte	0x382
 1769 03bc 04       		.uleb128 0x4
 1770 03bd B2010000 		.4byte	.LASF53
 1771 03c1 09       		.byte	0x9
 1772 03c2 2C       		.byte	0x2c
 1773 03c3 03       		.byte	0x3
 1774 03c4 82030000 		.4byte	0x382
 1775 03c8 0E       		.uleb128 0xe
 1776 03c9 28       		.byte	0x28
 1777 03ca 0A       		.byte	0xa
 1778 03cb 2C       		.byte	0x2c
 1779 03cc 1F040000 		.4byte	0x41f
 1780 03d0 03       		.uleb128 0x3
 1781 03d1 DA020000 		.4byte	.LASF57
 1782 03d5 0A       		.byte	0xa
 1783 03d6 2D       		.byte	0x2d
 1784 03d7 1A       		.byte	0x1a
 1785 03d8 1F040000 		.4byte	0x41f
 1786 03dc 00       		.byte	0
 1787 03dd 03       		.uleb128 0x3
 1788 03de 2F030000 		.4byte	.LASF58
 1789 03e2 0A       		.byte	0xa
 1790 03e3 2F       		.byte	0x2f
 1791 03e4 1A       		.byte	0x1a
 1792 03e5 1F040000 		.4byte	0x41f
 1793 03e9 04       		.byte	0x4
 1794 03ea 03       		.uleb128 0x3
 1795 03eb 69000000 		.4byte	.LASF59
 1796 03ef 0A       		.byte	0xa
 1797 03f0 31       		.byte	0x31
 1798 03f1 1A       		.byte	0x1a
 1799 03f2 1F040000 		.4byte	0x41f
 1800 03f6 08       		.byte	0x8
 1801 03f7 03       		.uleb128 0x3
 1802 03f8 6C020000 		.4byte	.LASF60
 1803 03fc 0A       		.byte	0xa
 1804 03fd 32       		.byte	0x32
 1805 03fe 1A       		.byte	0x1a
 1806 03ff 1F040000 		.4byte	0x41f
 1807 0403 0C       		.byte	0xc
 1808 0404 03       		.uleb128 0x3
 1809 0405 0A040000 		.4byte	.LASF61
 1810 0409 0A       		.byte	0xa
 1811 040a 33       		.byte	0x33
 1812 040b 19       		.byte	0x19
 1813 040c 76030000 		.4byte	0x376
 1814 0410 10       		.byte	0x10
 1815 0411 03       		.uleb128 0x3
 1816 0412 43010000 		.4byte	.LASF62
 1817 0416 0A       		.byte	0xa
 1818 0417 35       		.byte	0x35
 1819 0418 19       		.byte	0x19
ARM GAS  /tmp/ccrAlYmd.s 			page 33


 1820 0419 76030000 		.4byte	0x376
 1821 041d 1C       		.byte	0x1c
 1822 041e 00       		.byte	0
 1823 041f 08       		.uleb128 0x8
 1824 0420 FC000000 		.4byte	0xfc
 1825 0424 04       		.uleb128 0x4
 1826 0425 21000000 		.4byte	.LASF63
 1827 0429 0A       		.byte	0xa
 1828 042a 37       		.byte	0x37
 1829 042b 03       		.byte	0x3
 1830 042c C8030000 		.4byte	0x3c8
 1831 0430 18       		.uleb128 0x18
 1832 0431 04       		.byte	0x4
 1833 0432 06       		.byte	0x6
 1834 0433 8F       		.byte	0x8f
 1835 0434 03       		.byte	0x3
 1836 0435 6A040000 		.4byte	0x46a
 1837 0439 0B       		.uleb128 0xb
 1838 043a 06000000 		.4byte	.LASF64
 1839 043e 06       		.byte	0x6
 1840 043f 96       		.byte	0x96
 1841 0440 19       		.byte	0x19
 1842 0441 FC000000 		.4byte	0xfc
 1843 0445 0B       		.uleb128 0xb
 1844 0446 5B000000 		.4byte	.LASF65
 1845 044a 06       		.byte	0x6
 1846 044b 9D       		.byte	0x9d
 1847 044c 19       		.byte	0x19
 1848 044d FC000000 		.4byte	0xfc
 1849 0451 0B       		.uleb128 0xb
 1850 0452 31040000 		.4byte	.LASF66
 1851 0456 06       		.byte	0x6
 1852 0457 A4       		.byte	0xa4
 1853 0458 1A       		.byte	0x1a
 1854 0459 B0020000 		.4byte	0x2b0
 1855 045d 0B       		.uleb128 0xb
 1856 045e 6A030000 		.4byte	.LASF67
 1857 0462 06       		.byte	0x6
 1858 0463 AB       		.byte	0xab
 1859 0464 19       		.byte	0x19
 1860 0465 08010000 		.4byte	0x108
 1861 0469 00       		.byte	0
 1862 046a 08       		.uleb128 0x8
 1863 046b 76040000 		.4byte	0x476
 1864 046f 07       		.uleb128 0x7
 1865 0470 01       		.byte	0x1
 1866 0471 08       		.byte	0x8
 1867 0472 A4030000 		.4byte	.LASF68
 1868 0476 0C       		.uleb128 0xc
 1869 0477 6F040000 		.4byte	0x46f
 1870 047b 08       		.uleb128 0x8
 1871 047c BC030000 		.4byte	0x3bc
 1872 0480 0A       		.uleb128 0xa
 1873 0481 87030000 		.4byte	.LASF69
 1874 0485 10       		.byte	0x10
 1875 0486 0B       		.byte	0xb
 1876 0487 3F       		.byte	0x3f
ARM GAS  /tmp/ccrAlYmd.s 			page 34


 1877 0488 08       		.byte	0x8
 1878 0489 C2040000 		.4byte	0x4c2
 1879 048d 03       		.uleb128 0x3
 1880 048e 4F010000 		.4byte	.LASF70
 1881 0492 0B       		.byte	0xb
 1882 0493 40       		.byte	0x40
 1883 0494 0F       		.byte	0xf
 1884 0495 6A040000 		.4byte	0x46a
 1885 0499 00       		.byte	0
 1886 049a 03       		.uleb128 0x3
 1887 049b BE020000 		.4byte	.LASF71
 1888 049f 0B       		.byte	0xb
 1889 04a0 41       		.byte	0x41
 1890 04a1 0A       		.byte	0xa
 1891 04a2 C8040000 		.4byte	0x4c8
 1892 04a6 04       		.byte	0x4
 1893 04a7 03       		.uleb128 0x3
 1894 04a8 3A010000 		.4byte	.LASF72
 1895 04ac 0B       		.byte	0xb
 1896 04ad 42       		.byte	0x42
 1897 04ae 0A       		.byte	0xa
 1898 04af C8040000 		.4byte	0x4c8
 1899 04b3 08       		.byte	0x8
 1900 04b4 03       		.uleb128 0x3
 1901 04b5 01030000 		.4byte	.LASF73
 1902 04b9 0B       		.byte	0xb
 1903 04ba 43       		.byte	0x43
 1904 04bb 0A       		.byte	0xa
 1905 04bc C8040000 		.4byte	0x4c8
 1906 04c0 0C       		.byte	0xc
 1907 04c1 00       		.byte	0
 1908 04c2 0C       		.uleb128 0xc
 1909 04c3 80040000 		.4byte	0x480
 1910 04c7 19       		.uleb128 0x19
 1911 04c8 08       		.uleb128 0x8
 1912 04c9 C7040000 		.4byte	0x4c7
 1913 04cd 1A       		.uleb128 0x1a
 1914 04ce 7805     		.2byte	0x578
 1915 04d0 0B       		.byte	0xb
 1916 04d1 48       		.byte	0x48
 1917 04d2 03       		.byte	0x3
 1918 04d3 10050000 		.4byte	0x510
 1919 04d7 06       		.uleb128 0x6
 1920 04d8 543000   		.ascii	"T0\000"
 1921 04db 0B       		.byte	0xb
 1922 04dc 49       		.byte	0x49
 1923 04dd 05       		.byte	0x5
 1924 04de 10050000 		.4byte	0x510
 1925 04e2 00       		.byte	0
 1926 04e3 0D       		.uleb128 0xd
 1927 04e4 543100   		.ascii	"T1\000"
 1928 04e7 4A       		.byte	0x4a
 1929 04e8 10050000 		.4byte	0x510
 1930 04ec 1801     		.2byte	0x118
 1931 04ee 0D       		.uleb128 0xd
 1932 04ef 543200   		.ascii	"T2\000"
 1933 04f2 4B       		.byte	0x4b
ARM GAS  /tmp/ccrAlYmd.s 			page 35


 1934 04f3 10050000 		.4byte	0x510
 1935 04f7 3002     		.2byte	0x230
 1936 04f9 0D       		.uleb128 0xd
 1937 04fa 543300   		.ascii	"T3\000"
 1938 04fd 4C       		.byte	0x4c
 1939 04fe 10050000 		.4byte	0x510
 1940 0502 4803     		.2byte	0x348
 1941 0504 0D       		.uleb128 0xd
 1942 0505 543400   		.ascii	"T4\000"
 1943 0508 4D       		.byte	0x4d
 1944 0509 10050000 		.4byte	0x510
 1945 050d 6004     		.2byte	0x460
 1946 050f 00       		.byte	0
 1947 0510 0F       		.uleb128 0xf
 1948 0511 98020000 		.4byte	0x298
 1949 0515 20050000 		.4byte	0x520
 1950 0519 12       		.uleb128 0x12
 1951 051a 2D000000 		.4byte	0x2d
 1952 051e 45       		.byte	0x45
 1953 051f 00       		.byte	0
 1954 0520 1B       		.uleb128 0x1b
 1955 0521 15040000 		.4byte	.LASF94
 1956 0525 7805     		.2byte	0x578
 1957 0527 0B       		.byte	0xb
 1958 0528 47       		.byte	0x47
 1959 0529 07       		.byte	0x7
 1960 052a 46050000 		.4byte	0x546
 1961 052e 1C       		.uleb128 0x1c
 1962 052f 776100   		.ascii	"wa\000"
 1963 0532 0B       		.byte	0xb
 1964 0533 4E       		.byte	0x4e
 1965 0534 05       		.byte	0x5
 1966 0535 CD040000 		.4byte	0x4cd
 1967 0539 0B       		.uleb128 0xb
 1968 053a D7000000 		.4byte	.LASF74
 1969 053e 0B       		.byte	0xb
 1970 053f 4F       		.byte	0x4f
 1971 0540 0B       		.byte	0xb
 1972 0541 46050000 		.4byte	0x546
 1973 0545 00       		.byte	0
 1974 0546 0F       		.uleb128 0xf
 1975 0547 90000000 		.4byte	0x90
 1976 054b 57050000 		.4byte	0x557
 1977 054f 1D       		.uleb128 0x1d
 1978 0550 2D000000 		.4byte	0x2d
 1979 0554 7705     		.2byte	0x577
 1980 0556 00       		.byte	0
 1981 0557 1E       		.uleb128 0x1e
 1982 0558 64000000 		.4byte	.LASF75
 1983 055c 0B       		.byte	0xb
 1984 055d AA       		.byte	0xaa
 1985 055e 1B       		.byte	0x1b
 1986 055f 20050000 		.4byte	0x520
 1987 0563 1F       		.uleb128 0x1f
 1988 0564 6D623100 		.ascii	"mb1\000"
 1989 0568 01       		.byte	0x1
 1990 0569 40       		.byte	0x40
ARM GAS  /tmp/ccrAlYmd.s 			page 36


 1991 056a 08       		.byte	0x8
 1992 056b 24040000 		.4byte	0x424
 1993 056f 05       		.uleb128 0x5
 1994 0570 03       		.byte	0x3
 1995 0571 00000000 		.4byte	mb1
 1996 0575 13       		.uleb128 0x13
 1997 0576 B8010000 		.4byte	.LASF76
 1998 057a E2       		.byte	0xe2
 1999 057b 1A       		.byte	0x1a
 2000 057c C2040000 		.4byte	0x4c2
 2001 0580 05       		.uleb128 0x5
 2002 0581 03       		.byte	0x3
 2003 0582 00000000 		.4byte	testmbox1
 2004 0586 0F       		.uleb128 0xf
 2005 0587 A0050000 		.4byte	0x5a0
 2006 058b 96050000 		.4byte	0x596
 2007 058f 12       		.uleb128 0x12
 2008 0590 2D000000 		.4byte	0x2d
 2009 0594 01       		.byte	0x1
 2010 0595 00       		.byte	0
 2011 0596 0C       		.uleb128 0xc
 2012 0597 86050000 		.4byte	0x586
 2013 059b 08       		.uleb128 0x8
 2014 059c C2040000 		.4byte	0x4c2
 2015 05a0 0C       		.uleb128 0xc
 2016 05a1 9B050000 		.4byte	0x59b
 2017 05a5 13       		.uleb128 0x13
 2018 05a6 4F000000 		.4byte	.LASF77
 2019 05aa EE       		.byte	0xee
 2020 05ab 25       		.byte	0x25
 2021 05ac 96050000 		.4byte	0x596
 2022 05b0 05       		.uleb128 0x5
 2023 05b1 03       		.byte	0x3
 2024 05b2 00000000 		.4byte	patternmbox
 2025 05b6 10       		.uleb128 0x10
 2026 05b7 15010000 		.4byte	.LASF78
 2027 05bb 0A       		.byte	0xa
 2028 05bc 3C       		.byte	0x3c
 2029 05bd D1050000 		.4byte	0x5d1
 2030 05c1 05       		.uleb128 0x5
 2031 05c2 D1050000 		.4byte	0x5d1
 2032 05c6 05       		.uleb128 0x5
 2033 05c7 1F040000 		.4byte	0x41f
 2034 05cb 05       		.uleb128 0x5
 2035 05cc 25010000 		.4byte	0x125
 2036 05d0 00       		.byte	0
 2037 05d1 08       		.uleb128 0x8
 2038 05d2 24040000 		.4byte	0x424
 2039 05d6 10       		.uleb128 0x10
 2040 05d7 75020000 		.4byte	.LASF79
 2041 05db 0A       		.byte	0xa
 2042 05dc 3D       		.byte	0x3d
 2043 05dd E7050000 		.4byte	0x5e7
 2044 05e1 05       		.uleb128 0x5
 2045 05e2 D1050000 		.4byte	0x5d1
 2046 05e6 00       		.byte	0
 2047 05e7 09       		.uleb128 0x9
ARM GAS  /tmp/ccrAlYmd.s 			page 37


 2048 05e8 75010000 		.4byte	.LASF80
 2049 05ec 0A       		.byte	0xa
 2050 05ed 46       		.byte	0x46
 2051 05ee 09       		.byte	0x9
 2052 05ef FC000000 		.4byte	0xfc
 2053 05f3 02060000 		.4byte	0x602
 2054 05f7 05       		.uleb128 0x5
 2055 05f8 D1050000 		.4byte	0x5d1
 2056 05fc 05       		.uleb128 0x5
 2057 05fd 1F040000 		.4byte	0x41f
 2058 0601 00       		.byte	0
 2059 0602 09       		.uleb128 0x9
 2060 0603 C4020000 		.4byte	.LASF81
 2061 0607 0B       		.byte	0xb
 2062 0608 5D       		.byte	0x5d
 2063 0609 0A       		.byte	0xa
 2064 060a B4000000 		.4byte	0xb4
 2065 060e 1D060000 		.4byte	0x61d
 2066 0612 05       		.uleb128 0x5
 2067 0613 2D000000 		.4byte	0x2d
 2068 0617 05       		.uleb128 0x5
 2069 0618 1D060000 		.4byte	0x61d
 2070 061c 00       		.byte	0
 2071 061d 08       		.uleb128 0x8
 2072 061e 6F040000 		.4byte	0x46f
 2073 0622 10       		.uleb128 0x10
 2074 0623 A2000000 		.4byte	.LASF82
 2075 0627 0B       		.byte	0xb
 2076 0628 5A       		.byte	0x5a
 2077 0629 33060000 		.4byte	0x633
 2078 062d 05       		.uleb128 0x5
 2079 062e 6F040000 		.4byte	0x46f
 2080 0632 00       		.byte	0
 2081 0633 09       		.uleb128 0x9
 2082 0634 F6030000 		.4byte	.LASF83
 2083 0638 0A       		.byte	0xa
 2084 0639 44       		.byte	0x44
 2085 063a 09       		.byte	0x9
 2086 063b FC000000 		.4byte	0xfc
 2087 063f 53060000 		.4byte	0x653
 2088 0643 05       		.uleb128 0x5
 2089 0644 D1050000 		.4byte	0x5d1
 2090 0648 05       		.uleb128 0x5
 2091 0649 1F040000 		.4byte	0x41f
 2092 064d 05       		.uleb128 0x5
 2093 064e 14010000 		.4byte	0x114
 2094 0652 00       		.byte	0
 2095 0653 09       		.uleb128 0x9
 2096 0654 29000000 		.4byte	.LASF84
 2097 0658 0A       		.byte	0xa
 2098 0659 43       		.byte	0x43
 2099 065a 09       		.byte	0x9
 2100 065b FC000000 		.4byte	0xfc
 2101 065f 6E060000 		.4byte	0x66e
 2102 0663 05       		.uleb128 0x5
 2103 0664 D1050000 		.4byte	0x5d1
 2104 0668 05       		.uleb128 0x5
ARM GAS  /tmp/ccrAlYmd.s 			page 38


 2105 0669 FC000000 		.4byte	0xfc
 2106 066d 00       		.byte	0
 2107 066e 09       		.uleb128 0x9
 2108 066f 17000000 		.4byte	.LASF85
 2109 0673 0A       		.byte	0xa
 2110 0674 40       		.byte	0x40
 2111 0675 09       		.byte	0x9
 2112 0676 FC000000 		.4byte	0xfc
 2113 067a 89060000 		.4byte	0x689
 2114 067e 05       		.uleb128 0x5
 2115 067f D1050000 		.4byte	0x5d1
 2116 0683 05       		.uleb128 0x5
 2117 0684 FC000000 		.4byte	0xfc
 2118 0688 00       		.byte	0
 2119 0689 09       		.uleb128 0x9
 2120 068a D6030000 		.4byte	.LASF86
 2121 068e 0A       		.byte	0xa
 2122 068f 41       		.byte	0x41
 2123 0690 09       		.byte	0x9
 2124 0691 FC000000 		.4byte	0xfc
 2125 0695 A9060000 		.4byte	0x6a9
 2126 0699 05       		.uleb128 0x5
 2127 069a D1050000 		.4byte	0x5d1
 2128 069e 05       		.uleb128 0x5
 2129 069f FC000000 		.4byte	0xfc
 2130 06a3 05       		.uleb128 0x5
 2131 06a4 14010000 		.4byte	0x114
 2132 06a8 00       		.byte	0
 2133 06a9 09       		.uleb128 0x9
 2134 06aa BC000000 		.4byte	.LASF87
 2135 06ae 0A       		.byte	0xa
 2136 06af 3E       		.byte	0x3e
 2137 06b0 09       		.byte	0x9
 2138 06b1 FC000000 		.4byte	0xfc
 2139 06b5 C9060000 		.4byte	0x6c9
 2140 06b9 05       		.uleb128 0x5
 2141 06ba D1050000 		.4byte	0x5d1
 2142 06be 05       		.uleb128 0x5
 2143 06bf FC000000 		.4byte	0xfc
 2144 06c3 05       		.uleb128 0x5
 2145 06c4 14010000 		.4byte	0x114
 2146 06c8 00       		.byte	0
 2147 06c9 09       		.uleb128 0x9
 2148 06ca 3F040000 		.4byte	.LASF88
 2149 06ce 0B       		.byte	0xb
 2150 06cf 5C       		.byte	0x5c
 2151 06d0 0A       		.byte	0xa
 2152 06d1 B4000000 		.4byte	0xb4
 2153 06d5 E4060000 		.4byte	0x6e4
 2154 06d9 05       		.uleb128 0x5
 2155 06da 2D000000 		.4byte	0x2d
 2156 06de 05       		.uleb128 0x5
 2157 06df B4000000 		.4byte	0xb4
 2158 06e3 00       		.byte	0
 2159 06e4 20       		.uleb128 0x20
 2160 06e5 E4020000 		.4byte	.LASF95
 2161 06e9 01       		.byte	0x1
ARM GAS  /tmp/ccrAlYmd.s 			page 39


 2162 06ea 50       		.byte	0x50
 2163 06eb 0D       		.byte	0xd
 2164 06ec 00000000 		.4byte	.LFB8
 2165 06f0 D0070000 		.4byte	.LFE8-.LFB8
 2166 06f4 01       		.uleb128 0x1
 2167 06f5 9C       		.byte	0x9c
 2168 06f6 860D0000 		.4byte	0xd86
 2169 06fa 21       		.uleb128 0x21
 2170 06fb 1E010000 		.4byte	.LASF89
 2171 06ff 01       		.byte	0x1
 2172 0700 51       		.byte	0x51
 2173 0701 09       		.byte	0x9
 2174 0702 FC000000 		.4byte	0xfc
 2175 0706 3A000000 		.4byte	.LLST0
 2176 070a 0C000000 		.4byte	.LVUS0
 2177 070e 22       		.uleb128 0x22
 2178 070f 23010000 		.4byte	.LASF90
 2179 0713 01       		.byte	0x1
 2180 0714 51       		.byte	0x51
 2181 0715 0F       		.byte	0xf
 2182 0716 FC000000 		.4byte	0xfc
 2183 071a 02       		.uleb128 0x2
 2184 071b 91       		.byte	0x91
 2185 071c 6C       		.sleb128 -20
 2186 071d 23       		.uleb128 0x23
 2187 071e 6900     		.ascii	"i\000"
 2188 0720 01       		.byte	0x1
 2189 0721 52       		.byte	0x52
 2190 0722 0C       		.byte	0xc
 2191 0723 2D000000 		.4byte	0x2d
 2192 0727 F1000000 		.4byte	.LLST1
 2193 072b DB000000 		.4byte	.LVUS1
 2194 072f 02       		.uleb128 0x2
 2195 0730 24000000 		.4byte	.LVL0
 2196 0734 C9060000 		.4byte	0x6c9
 2197 0738 42070000 		.4byte	0x742
 2198 073c 01       		.uleb128 0x1
 2199 073d 01       		.uleb128 0x1
 2200 073e 50       		.byte	0x50
 2201 073f 01       		.uleb128 0x1
 2202 0740 31       		.byte	0x31
 2203 0741 00       		.byte	0
 2204 0742 02       		.uleb128 0x2
 2205 0743 40000000 		.4byte	.LVL2
 2206 0747 A9060000 		.4byte	0x6a9
 2207 074b 62070000 		.4byte	0x762
 2208 074f 01       		.uleb128 0x1
 2209 0750 01       		.uleb128 0x1
 2210 0751 50       		.byte	0x50
 2211 0752 02       		.uleb128 0x2
 2212 0753 75       		.byte	0x75
 2213 0754 00       		.sleb128 0
 2214 0755 01       		.uleb128 0x1
 2215 0756 01       		.uleb128 0x1
 2216 0757 51       		.byte	0x51
 2217 0758 02       		.uleb128 0x2
 2218 0759 74       		.byte	0x74
ARM GAS  /tmp/ccrAlYmd.s 			page 40


 2219 075a 00       		.sleb128 0
 2220 075b 01       		.uleb128 0x1
 2221 075c 01       		.uleb128 0x1
 2222 075d 52       		.byte	0x52
 2223 075e 02       		.uleb128 0x2
 2224 075f 09       		.byte	0x9
 2225 0760 FF       		.byte	0xff
 2226 0761 00       		.byte	0
 2227 0762 02       		.uleb128 0x2
 2228 0763 54000000 		.4byte	.LVL5
 2229 0767 C9060000 		.4byte	0x6c9
 2230 076b 75070000 		.4byte	0x775
 2231 076f 01       		.uleb128 0x1
 2232 0770 01       		.uleb128 0x1
 2233 0771 50       		.byte	0x50
 2234 0772 01       		.uleb128 0x1
 2235 0773 32       		.byte	0x32
 2236 0774 00       		.byte	0
 2237 0775 02       		.uleb128 0x2
 2238 0776 78000000 		.4byte	.LVL6
 2239 077a 89060000 		.4byte	0x689
 2240 077e 95070000 		.4byte	0x795
 2241 0782 01       		.uleb128 0x1
 2242 0783 01       		.uleb128 0x1
 2243 0784 50       		.byte	0x50
 2244 0785 02       		.uleb128 0x2
 2245 0786 75       		.byte	0x75
 2246 0787 00       		.sleb128 0
 2247 0788 01       		.uleb128 0x1
 2248 0789 01       		.uleb128 0x1
 2249 078a 51       		.byte	0x51
 2250 078b 02       		.uleb128 0x2
 2251 078c 08       		.byte	0x8
 2252 078d 41       		.byte	0x41
 2253 078e 01       		.uleb128 0x1
 2254 078f 01       		.uleb128 0x1
 2255 0790 52       		.byte	0x52
 2256 0791 02       		.uleb128 0x2
 2257 0792 09       		.byte	0x9
 2258 0793 FF       		.byte	0xff
 2259 0794 00       		.byte	0
 2260 0795 02       		.uleb128 0x2
 2261 0796 8C000000 		.4byte	.LVL9
 2262 079a C9060000 		.4byte	0x6c9
 2263 079e A8070000 		.4byte	0x7a8
 2264 07a2 01       		.uleb128 0x1
 2265 07a3 01       		.uleb128 0x1
 2266 07a4 50       		.byte	0x50
 2267 07a5 01       		.uleb128 0x1
 2268 07a6 33       		.byte	0x33
 2269 07a7 00       		.byte	0
 2270 07a8 02       		.uleb128 0x2
 2271 07a9 AC000000 		.4byte	.LVL10
 2272 07ad A9060000 		.4byte	0x6a9
 2273 07b1 C7070000 		.4byte	0x7c7
 2274 07b5 01       		.uleb128 0x1
 2275 07b6 01       		.uleb128 0x1
ARM GAS  /tmp/ccrAlYmd.s 			page 41


 2276 07b7 50       		.byte	0x50
 2277 07b8 02       		.uleb128 0x2
 2278 07b9 75       		.byte	0x75
 2279 07ba 00       		.sleb128 0
 2280 07bb 01       		.uleb128 0x1
 2281 07bc 01       		.uleb128 0x1
 2282 07bd 51       		.byte	0x51
 2283 07be 02       		.uleb128 0x2
 2284 07bf 08       		.byte	0x8
 2285 07c0 58       		.byte	0x58
 2286 07c1 01       		.uleb128 0x1
 2287 07c2 01       		.uleb128 0x1
 2288 07c3 52       		.byte	0x52
 2289 07c4 01       		.uleb128 0x1
 2290 07c5 31       		.byte	0x31
 2291 07c6 00       		.byte	0
 2292 07c7 02       		.uleb128 0x2
 2293 07c8 C4000000 		.4byte	.LVL13
 2294 07cc C9060000 		.4byte	0x6c9
 2295 07d0 DA070000 		.4byte	0x7da
 2296 07d4 01       		.uleb128 0x1
 2297 07d5 01       		.uleb128 0x1
 2298 07d6 50       		.byte	0x50
 2299 07d7 01       		.uleb128 0x1
 2300 07d8 34       		.byte	0x34
 2301 07d9 00       		.byte	0
 2302 07da 02       		.uleb128 0x2
 2303 07db DC000000 		.4byte	.LVL14
 2304 07df 6E060000 		.4byte	0x66e
 2305 07e3 F4070000 		.4byte	0x7f4
 2306 07e7 01       		.uleb128 0x1
 2307 07e8 01       		.uleb128 0x1
 2308 07e9 50       		.byte	0x50
 2309 07ea 02       		.uleb128 0x2
 2310 07eb 75       		.byte	0x75
 2311 07ec 00       		.sleb128 0
 2312 07ed 01       		.uleb128 0x1
 2313 07ee 01       		.uleb128 0x1
 2314 07ef 51       		.byte	0x51
 2315 07f0 02       		.uleb128 0x2
 2316 07f1 08       		.byte	0x8
 2317 07f2 58       		.byte	0x58
 2318 07f3 00       		.byte	0
 2319 07f4 02       		.uleb128 0x2
 2320 07f5 F8000000 		.4byte	.LVL17
 2321 07f9 C9060000 		.4byte	0x6c9
 2322 07fd 07080000 		.4byte	0x807
 2323 0801 01       		.uleb128 0x1
 2324 0802 01       		.uleb128 0x1
 2325 0803 50       		.byte	0x50
 2326 0804 01       		.uleb128 0x1
 2327 0805 35       		.byte	0x35
 2328 0806 00       		.byte	0
 2329 0807 02       		.uleb128 0x2
 2330 0808 10010000 		.4byte	.LVL18
 2331 080c 89060000 		.4byte	0x689
 2332 0810 26080000 		.4byte	0x826
ARM GAS  /tmp/ccrAlYmd.s 			page 42


 2333 0814 01       		.uleb128 0x1
 2334 0815 01       		.uleb128 0x1
 2335 0816 50       		.byte	0x50
 2336 0817 02       		.uleb128 0x2
 2337 0818 75       		.byte	0x75
 2338 0819 00       		.sleb128 0
 2339 081a 01       		.uleb128 0x1
 2340 081b 01       		.uleb128 0x1
 2341 081c 51       		.byte	0x51
 2342 081d 02       		.uleb128 0x2
 2343 081e 08       		.byte	0x8
 2344 081f 58       		.byte	0x58
 2345 0820 01       		.uleb128 0x1
 2346 0821 01       		.uleb128 0x1
 2347 0822 52       		.byte	0x52
 2348 0823 01       		.uleb128 0x1
 2349 0824 31       		.byte	0x31
 2350 0825 00       		.byte	0
 2351 0826 02       		.uleb128 0x2
 2352 0827 28010000 		.4byte	.LVL21
 2353 082b C9060000 		.4byte	0x6c9
 2354 082f 39080000 		.4byte	0x839
 2355 0833 01       		.uleb128 0x1
 2356 0834 01       		.uleb128 0x1
 2357 0835 50       		.byte	0x50
 2358 0836 01       		.uleb128 0x1
 2359 0837 36       		.byte	0x36
 2360 0838 00       		.byte	0
 2361 0839 02       		.uleb128 0x2
 2362 083a 40010000 		.4byte	.LVL22
 2363 083e 53060000 		.4byte	0x653
 2364 0842 53080000 		.4byte	0x853
 2365 0846 01       		.uleb128 0x1
 2366 0847 01       		.uleb128 0x1
 2367 0848 50       		.byte	0x50
 2368 0849 02       		.uleb128 0x2
 2369 084a 75       		.byte	0x75
 2370 084b 00       		.sleb128 0
 2371 084c 01       		.uleb128 0x1
 2372 084d 01       		.uleb128 0x1
 2373 084e 51       		.byte	0x51
 2374 084f 02       		.uleb128 0x2
 2375 0850 08       		.byte	0x8
 2376 0851 58       		.byte	0x58
 2377 0852 00       		.byte	0
 2378 0853 02       		.uleb128 0x2
 2379 0854 5C010000 		.4byte	.LVL25
 2380 0858 C9060000 		.4byte	0x6c9
 2381 085c 66080000 		.4byte	0x866
 2382 0860 01       		.uleb128 0x1
 2383 0861 01       		.uleb128 0x1
 2384 0862 50       		.byte	0x50
 2385 0863 01       		.uleb128 0x1
 2386 0864 37       		.byte	0x37
 2387 0865 00       		.byte	0
 2388 0866 02       		.uleb128 0x2
 2389 0867 7C010000 		.4byte	.LVL26
ARM GAS  /tmp/ccrAlYmd.s 			page 43


 2390 086b C9060000 		.4byte	0x6c9
 2391 086f 79080000 		.4byte	0x879
 2392 0873 01       		.uleb128 0x1
 2393 0874 01       		.uleb128 0x1
 2394 0875 50       		.byte	0x50
 2395 0876 01       		.uleb128 0x1
 2396 0877 38       		.byte	0x38
 2397 0878 00       		.byte	0
 2398 0879 02       		.uleb128 0x2
 2399 087a A4010000 		.4byte	.LVL27
 2400 087e C9060000 		.4byte	0x6c9
 2401 0882 8C080000 		.4byte	0x88c
 2402 0886 01       		.uleb128 0x1
 2403 0887 01       		.uleb128 0x1
 2404 0888 50       		.byte	0x50
 2405 0889 01       		.uleb128 0x1
 2406 088a 39       		.byte	0x39
 2407 088b 00       		.byte	0
 2408 088c 02       		.uleb128 0x2
 2409 088d D0010000 		.4byte	.LVL28
 2410 0891 C9060000 		.4byte	0x6c9
 2411 0895 9F080000 		.4byte	0x89f
 2412 0899 01       		.uleb128 0x1
 2413 089a 01       		.uleb128 0x1
 2414 089b 50       		.byte	0x50
 2415 089c 01       		.uleb128 0x1
 2416 089d 3A       		.byte	0x3a
 2417 089e 00       		.byte	0
 2418 089f 02       		.uleb128 0x2
 2419 08a0 F4010000 		.4byte	.LVL31
 2420 08a4 33060000 		.4byte	0x633
 2421 08a8 BF080000 		.4byte	0x8bf
 2422 08ac 01       		.uleb128 0x1
 2423 08ad 01       		.uleb128 0x1
 2424 08ae 50       		.byte	0x50
 2425 08af 02       		.uleb128 0x2
 2426 08b0 75       		.byte	0x75
 2427 08b1 00       		.sleb128 0
 2428 08b2 01       		.uleb128 0x1
 2429 08b3 01       		.uleb128 0x1
 2430 08b4 51       		.byte	0x51
 2431 08b5 02       		.uleb128 0x2
 2432 08b6 91       		.byte	0x91
 2433 08b7 64       		.sleb128 -28
 2434 08b8 01       		.uleb128 0x1
 2435 08b9 01       		.uleb128 0x1
 2436 08ba 52       		.byte	0x52
 2437 08bb 02       		.uleb128 0x2
 2438 08bc 09       		.byte	0x9
 2439 08bd FF       		.byte	0xff
 2440 08be 00       		.byte	0
 2441 08bf 02       		.uleb128 0x2
 2442 08c0 08020000 		.4byte	.LVL34
 2443 08c4 C9060000 		.4byte	0x6c9
 2444 08c8 D2080000 		.4byte	0x8d2
 2445 08cc 01       		.uleb128 0x1
 2446 08cd 01       		.uleb128 0x1
ARM GAS  /tmp/ccrAlYmd.s 			page 44


 2447 08ce 50       		.byte	0x50
 2448 08cf 01       		.uleb128 0x1
 2449 08d0 3B       		.byte	0x3b
 2450 08d1 00       		.byte	0
 2451 08d2 11       		.uleb128 0x11
 2452 08d3 18020000 		.4byte	.LVL35
 2453 08d7 22060000 		.4byte	0x622
 2454 08db 02       		.uleb128 0x2
 2455 08dc 2C020000 		.4byte	.LVL37
 2456 08e0 02060000 		.4byte	0x602
 2457 08e4 F7080000 		.4byte	0x8f7
 2458 08e8 01       		.uleb128 0x1
 2459 08e9 01       		.uleb128 0x1
 2460 08ea 50       		.byte	0x50
 2461 08eb 01       		.uleb128 0x1
 2462 08ec 3C       		.byte	0x3c
 2463 08ed 01       		.uleb128 0x1
 2464 08ee 01       		.uleb128 0x1
 2465 08ef 51       		.byte	0x51
 2466 08f0 05       		.uleb128 0x5
 2467 08f1 03       		.byte	0x3
 2468 08f2 00000000 		.4byte	.LC0
 2469 08f6 00       		.byte	0
 2470 08f7 02       		.uleb128 0x2
 2471 08f8 44020000 		.4byte	.LVL38
 2472 08fc A9060000 		.4byte	0x6a9
 2473 0900 17090000 		.4byte	0x917
 2474 0904 01       		.uleb128 0x1
 2475 0905 01       		.uleb128 0x1
 2476 0906 50       		.byte	0x50
 2477 0907 02       		.uleb128 0x2
 2478 0908 75       		.byte	0x75
 2479 0909 00       		.sleb128 0
 2480 090a 01       		.uleb128 0x1
 2481 090b 01       		.uleb128 0x1
 2482 090c 51       		.byte	0x51
 2483 090d 02       		.uleb128 0x2
 2484 090e 08       		.byte	0x8
 2485 090f 47       		.byte	0x47
 2486 0910 01       		.uleb128 0x1
 2487 0911 01       		.uleb128 0x1
 2488 0912 52       		.byte	0x52
 2489 0913 02       		.uleb128 0x2
 2490 0914 09       		.byte	0x9
 2491 0915 FF       		.byte	0xff
 2492 0916 00       		.byte	0
 2493 0917 02       		.uleb128 0x2
 2494 0918 58020000 		.4byte	.LVL41
 2495 091c C9060000 		.4byte	0x6c9
 2496 0920 2A090000 		.4byte	0x92a
 2497 0924 01       		.uleb128 0x1
 2498 0925 01       		.uleb128 0x1
 2499 0926 50       		.byte	0x50
 2500 0927 01       		.uleb128 0x1
 2501 0928 3D       		.byte	0x3d
 2502 0929 00       		.byte	0
 2503 092a 02       		.uleb128 0x2
ARM GAS  /tmp/ccrAlYmd.s 			page 45


 2504 092b 70020000 		.4byte	.LVL42
 2505 092f 33060000 		.4byte	0x633
 2506 0933 4A090000 		.4byte	0x94a
 2507 0937 01       		.uleb128 0x1
 2508 0938 01       		.uleb128 0x1
 2509 0939 50       		.byte	0x50
 2510 093a 02       		.uleb128 0x2
 2511 093b 75       		.byte	0x75
 2512 093c 00       		.sleb128 0
 2513 093d 01       		.uleb128 0x1
 2514 093e 01       		.uleb128 0x1
 2515 093f 51       		.byte	0x51
 2516 0940 02       		.uleb128 0x2
 2517 0941 91       		.byte	0x91
 2518 0942 64       		.sleb128 -28
 2519 0943 01       		.uleb128 0x1
 2520 0944 01       		.uleb128 0x1
 2521 0945 52       		.byte	0x52
 2522 0946 02       		.uleb128 0x2
 2523 0947 09       		.byte	0x9
 2524 0948 FF       		.byte	0xff
 2525 0949 00       		.byte	0
 2526 094a 02       		.uleb128 0x2
 2527 094b 84020000 		.4byte	.LVL45
 2528 094f C9060000 		.4byte	0x6c9
 2529 0953 5D090000 		.4byte	0x95d
 2530 0957 01       		.uleb128 0x1
 2531 0958 01       		.uleb128 0x1
 2532 0959 50       		.byte	0x50
 2533 095a 01       		.uleb128 0x1
 2534 095b 3E       		.byte	0x3e
 2535 095c 00       		.byte	0
 2536 095d 02       		.uleb128 0x2
 2537 095e A8020000 		.4byte	.LVL46
 2538 0962 C9060000 		.4byte	0x6c9
 2539 0966 70090000 		.4byte	0x970
 2540 096a 01       		.uleb128 0x1
 2541 096b 01       		.uleb128 0x1
 2542 096c 50       		.byte	0x50
 2543 096d 01       		.uleb128 0x1
 2544 096e 3F       		.byte	0x3f
 2545 096f 00       		.byte	0
 2546 0970 02       		.uleb128 0x2
 2547 0971 CC020000 		.4byte	.LVL47
 2548 0975 C9060000 		.4byte	0x6c9
 2549 0979 83090000 		.4byte	0x983
 2550 097d 01       		.uleb128 0x1
 2551 097e 01       		.uleb128 0x1
 2552 097f 50       		.byte	0x50
 2553 0980 01       		.uleb128 0x1
 2554 0981 40       		.byte	0x40
 2555 0982 00       		.byte	0
 2556 0983 02       		.uleb128 0x2
 2557 0984 E4020000 		.4byte	.LVL48
 2558 0988 33060000 		.4byte	0x633
 2559 098c A2090000 		.4byte	0x9a2
 2560 0990 01       		.uleb128 0x1
ARM GAS  /tmp/ccrAlYmd.s 			page 46


 2561 0991 01       		.uleb128 0x1
 2562 0992 50       		.byte	0x50
 2563 0993 02       		.uleb128 0x2
 2564 0994 75       		.byte	0x75
 2565 0995 00       		.sleb128 0
 2566 0996 01       		.uleb128 0x1
 2567 0997 01       		.uleb128 0x1
 2568 0998 51       		.byte	0x51
 2569 0999 02       		.uleb128 0x2
 2570 099a 91       		.byte	0x91
 2571 099b 64       		.sleb128 -28
 2572 099c 01       		.uleb128 0x1
 2573 099d 01       		.uleb128 0x1
 2574 099e 52       		.byte	0x52
 2575 099f 01       		.uleb128 0x1
 2576 09a0 31       		.byte	0x31
 2577 09a1 00       		.byte	0
 2578 09a2 02       		.uleb128 0x2
 2579 09a3 FC020000 		.4byte	.LVL51
 2580 09a7 C9060000 		.4byte	0x6c9
 2581 09ab B5090000 		.4byte	0x9b5
 2582 09af 01       		.uleb128 0x1
 2583 09b0 01       		.uleb128 0x1
 2584 09b1 50       		.byte	0x50
 2585 09b2 01       		.uleb128 0x1
 2586 09b3 41       		.byte	0x41
 2587 09b4 00       		.byte	0
 2588 09b5 02       		.uleb128 0x2
 2589 09b6 14030000 		.4byte	.LVL52
 2590 09ba E7050000 		.4byte	0x5e7
 2591 09be CF090000 		.4byte	0x9cf
 2592 09c2 01       		.uleb128 0x1
 2593 09c3 01       		.uleb128 0x1
 2594 09c4 50       		.byte	0x50
 2595 09c5 02       		.uleb128 0x2
 2596 09c6 75       		.byte	0x75
 2597 09c7 00       		.sleb128 0
 2598 09c8 01       		.uleb128 0x1
 2599 09c9 01       		.uleb128 0x1
 2600 09ca 51       		.byte	0x51
 2601 09cb 02       		.uleb128 0x2
 2602 09cc 91       		.byte	0x91
 2603 09cd 64       		.sleb128 -28
 2604 09ce 00       		.byte	0
 2605 09cf 02       		.uleb128 0x2
 2606 09d0 30030000 		.4byte	.LVL55
 2607 09d4 C9060000 		.4byte	0x6c9
 2608 09d8 E2090000 		.4byte	0x9e2
 2609 09dc 01       		.uleb128 0x1
 2610 09dd 01       		.uleb128 0x1
 2611 09de 50       		.byte	0x50
 2612 09df 01       		.uleb128 0x1
 2613 09e0 42       		.byte	0x42
 2614 09e1 00       		.byte	0
 2615 09e2 02       		.uleb128 0x2
 2616 09e3 54030000 		.4byte	.LVL56
 2617 09e7 C9060000 		.4byte	0x6c9
ARM GAS  /tmp/ccrAlYmd.s 			page 47


 2618 09eb F5090000 		.4byte	0x9f5
 2619 09ef 01       		.uleb128 0x1
 2620 09f0 01       		.uleb128 0x1
 2621 09f1 50       		.byte	0x50
 2622 09f2 01       		.uleb128 0x1
 2623 09f3 43       		.byte	0x43
 2624 09f4 00       		.byte	0
 2625 09f5 02       		.uleb128 0x2
 2626 09f6 78030000 		.4byte	.LVL57
 2627 09fa C9060000 		.4byte	0x6c9
 2628 09fe 080A0000 		.4byte	0xa08
 2629 0a02 01       		.uleb128 0x1
 2630 0a03 01       		.uleb128 0x1
 2631 0a04 50       		.byte	0x50
 2632 0a05 01       		.uleb128 0x1
 2633 0a06 44       		.byte	0x44
 2634 0a07 00       		.byte	0
 2635 0a08 02       		.uleb128 0x2
 2636 0a09 A4030000 		.4byte	.LVL58
 2637 0a0d C9060000 		.4byte	0x6c9
 2638 0a11 1B0A0000 		.4byte	0xa1b
 2639 0a15 01       		.uleb128 0x1
 2640 0a16 01       		.uleb128 0x1
 2641 0a17 50       		.byte	0x50
 2642 0a18 01       		.uleb128 0x1
 2643 0a19 45       		.byte	0x45
 2644 0a1a 00       		.byte	0
 2645 0a1b 02       		.uleb128 0x2
 2646 0a1c C0030000 		.4byte	.LVL59
 2647 0a20 6E060000 		.4byte	0x66e
 2648 0a24 350A0000 		.4byte	0xa35
 2649 0a28 01       		.uleb128 0x1
 2650 0a29 01       		.uleb128 0x1
 2651 0a2a 50       		.byte	0x50
 2652 0a2b 02       		.uleb128 0x2
 2653 0a2c 75       		.byte	0x75
 2654 0a2d 00       		.sleb128 0
 2655 0a2e 01       		.uleb128 0x1
 2656 0a2f 01       		.uleb128 0x1
 2657 0a30 51       		.byte	0x51
 2658 0a31 02       		.uleb128 0x2
 2659 0a32 08       		.byte	0x8
 2660 0a33 41       		.byte	0x41
 2661 0a34 00       		.byte	0
 2662 0a35 02       		.uleb128 0x2
 2663 0a36 D4030000 		.4byte	.LVL62
 2664 0a3a C9060000 		.4byte	0x6c9
 2665 0a3e 480A0000 		.4byte	0xa48
 2666 0a42 01       		.uleb128 0x1
 2667 0a43 01       		.uleb128 0x1
 2668 0a44 50       		.byte	0x50
 2669 0a45 01       		.uleb128 0x1
 2670 0a46 46       		.byte	0x46
 2671 0a47 00       		.byte	0
 2672 0a48 02       		.uleb128 0x2
 2673 0a49 E8030000 		.4byte	.LVL63
 2674 0a4d 6E060000 		.4byte	0x66e
ARM GAS  /tmp/ccrAlYmd.s 			page 48


 2675 0a51 620A0000 		.4byte	0xa62
 2676 0a55 01       		.uleb128 0x1
 2677 0a56 01       		.uleb128 0x1
 2678 0a57 50       		.byte	0x50
 2679 0a58 02       		.uleb128 0x2
 2680 0a59 75       		.byte	0x75
 2681 0a5a 00       		.sleb128 0
 2682 0a5b 01       		.uleb128 0x1
 2683 0a5c 01       		.uleb128 0x1
 2684 0a5d 51       		.byte	0x51
 2685 0a5e 02       		.uleb128 0x2
 2686 0a5f 08       		.byte	0x8
 2687 0a60 42       		.byte	0x42
 2688 0a61 00       		.byte	0
 2689 0a62 02       		.uleb128 0x2
 2690 0a63 FC030000 		.4byte	.LVL66
 2691 0a67 C9060000 		.4byte	0x6c9
 2692 0a6b 750A0000 		.4byte	0xa75
 2693 0a6f 01       		.uleb128 0x1
 2694 0a70 01       		.uleb128 0x1
 2695 0a71 50       		.byte	0x50
 2696 0a72 01       		.uleb128 0x1
 2697 0a73 47       		.byte	0x47
 2698 0a74 00       		.byte	0
 2699 0a75 02       		.uleb128 0x2
 2700 0a76 10040000 		.4byte	.LVL67
 2701 0a7a 6E060000 		.4byte	0x66e
 2702 0a7e 8F0A0000 		.4byte	0xa8f
 2703 0a82 01       		.uleb128 0x1
 2704 0a83 01       		.uleb128 0x1
 2705 0a84 50       		.byte	0x50
 2706 0a85 02       		.uleb128 0x2
 2707 0a86 75       		.byte	0x75
 2708 0a87 00       		.sleb128 0
 2709 0a88 01       		.uleb128 0x1
 2710 0a89 01       		.uleb128 0x1
 2711 0a8a 51       		.byte	0x51
 2712 0a8b 02       		.uleb128 0x2
 2713 0a8c 08       		.byte	0x8
 2714 0a8d 43       		.byte	0x43
 2715 0a8e 00       		.byte	0
 2716 0a8f 02       		.uleb128 0x2
 2717 0a90 24040000 		.4byte	.LVL70
 2718 0a94 C9060000 		.4byte	0x6c9
 2719 0a98 A20A0000 		.4byte	0xaa2
 2720 0a9c 01       		.uleb128 0x1
 2721 0a9d 01       		.uleb128 0x1
 2722 0a9e 50       		.byte	0x50
 2723 0a9f 01       		.uleb128 0x1
 2724 0aa0 48       		.byte	0x48
 2725 0aa1 00       		.byte	0
 2726 0aa2 02       		.uleb128 0x2
 2727 0aa3 38040000 		.4byte	.LVL71
 2728 0aa7 6E060000 		.4byte	0x66e
 2729 0aab BC0A0000 		.4byte	0xabc
 2730 0aaf 01       		.uleb128 0x1
 2731 0ab0 01       		.uleb128 0x1
ARM GAS  /tmp/ccrAlYmd.s 			page 49


 2732 0ab1 50       		.byte	0x50
 2733 0ab2 02       		.uleb128 0x2
 2734 0ab3 75       		.byte	0x75
 2735 0ab4 00       		.sleb128 0
 2736 0ab5 01       		.uleb128 0x1
 2737 0ab6 01       		.uleb128 0x1
 2738 0ab7 51       		.byte	0x51
 2739 0ab8 02       		.uleb128 0x2
 2740 0ab9 08       		.byte	0x8
 2741 0aba 44       		.byte	0x44
 2742 0abb 00       		.byte	0
 2743 0abc 02       		.uleb128 0x2
 2744 0abd 4C040000 		.4byte	.LVL74
 2745 0ac1 C9060000 		.4byte	0x6c9
 2746 0ac5 CF0A0000 		.4byte	0xacf
 2747 0ac9 01       		.uleb128 0x1
 2748 0aca 01       		.uleb128 0x1
 2749 0acb 50       		.byte	0x50
 2750 0acc 01       		.uleb128 0x1
 2751 0acd 49       		.byte	0x49
 2752 0ace 00       		.byte	0
 2753 0acf 02       		.uleb128 0x2
 2754 0ad0 60040000 		.4byte	.LVL75
 2755 0ad4 6E060000 		.4byte	0x66e
 2756 0ad8 E90A0000 		.4byte	0xae9
 2757 0adc 01       		.uleb128 0x1
 2758 0add 01       		.uleb128 0x1
 2759 0ade 50       		.byte	0x50
 2760 0adf 02       		.uleb128 0x2
 2761 0ae0 75       		.byte	0x75
 2762 0ae1 00       		.sleb128 0
 2763 0ae2 01       		.uleb128 0x1
 2764 0ae3 01       		.uleb128 0x1
 2765 0ae4 51       		.byte	0x51
 2766 0ae5 02       		.uleb128 0x2
 2767 0ae6 08       		.byte	0x8
 2768 0ae7 45       		.byte	0x45
 2769 0ae8 00       		.byte	0
 2770 0ae9 02       		.uleb128 0x2
 2771 0aea 74040000 		.4byte	.LVL77
 2772 0aee C9060000 		.4byte	0x6c9
 2773 0af2 FC0A0000 		.4byte	0xafc
 2774 0af6 01       		.uleb128 0x1
 2775 0af7 01       		.uleb128 0x1
 2776 0af8 50       		.byte	0x50
 2777 0af9 01       		.uleb128 0x1
 2778 0afa 4A       		.byte	0x4a
 2779 0afb 00       		.byte	0
 2780 0afc 02       		.uleb128 0x2
 2781 0afd 98040000 		.4byte	.LVL78
 2782 0b01 C9060000 		.4byte	0x6c9
 2783 0b05 0F0B0000 		.4byte	0xb0f
 2784 0b09 01       		.uleb128 0x1
 2785 0b0a 01       		.uleb128 0x1
 2786 0b0b 50       		.byte	0x50
 2787 0b0c 01       		.uleb128 0x1
 2788 0b0d 4B       		.byte	0x4b
ARM GAS  /tmp/ccrAlYmd.s 			page 50


 2789 0b0e 00       		.byte	0
 2790 0b0f 02       		.uleb128 0x2
 2791 0b10 B8040000 		.4byte	.LVL81
 2792 0b14 E7050000 		.4byte	0x5e7
 2793 0b18 290B0000 		.4byte	0xb29
 2794 0b1c 01       		.uleb128 0x1
 2795 0b1d 01       		.uleb128 0x1
 2796 0b1e 50       		.byte	0x50
 2797 0b1f 02       		.uleb128 0x2
 2798 0b20 75       		.byte	0x75
 2799 0b21 00       		.sleb128 0
 2800 0b22 01       		.uleb128 0x1
 2801 0b23 01       		.uleb128 0x1
 2802 0b24 51       		.byte	0x51
 2803 0b25 02       		.uleb128 0x2
 2804 0b26 91       		.byte	0x91
 2805 0b27 64       		.sleb128 -28
 2806 0b28 00       		.byte	0
 2807 0b29 02       		.uleb128 0x2
 2808 0b2a CC040000 		.4byte	.LVL83
 2809 0b2e C9060000 		.4byte	0x6c9
 2810 0b32 3C0B0000 		.4byte	0xb3c
 2811 0b36 01       		.uleb128 0x1
 2812 0b37 01       		.uleb128 0x1
 2813 0b38 50       		.byte	0x50
 2814 0b39 01       		.uleb128 0x1
 2815 0b3a 4C       		.byte	0x4c
 2816 0b3b 00       		.byte	0
 2817 0b3c 11       		.uleb128 0x11
 2818 0b3d DC040000 		.4byte	.LVL84
 2819 0b41 22060000 		.4byte	0x622
 2820 0b45 02       		.uleb128 0x2
 2821 0b46 F0040000 		.4byte	.LVL86
 2822 0b4a 02060000 		.4byte	0x602
 2823 0b4e 610B0000 		.4byte	0xb61
 2824 0b52 01       		.uleb128 0x1
 2825 0b53 01       		.uleb128 0x1
 2826 0b54 50       		.byte	0x50
 2827 0b55 01       		.uleb128 0x1
 2828 0b56 4D       		.byte	0x4d
 2829 0b57 01       		.uleb128 0x1
 2830 0b58 01       		.uleb128 0x1
 2831 0b59 51       		.byte	0x51
 2832 0b5a 05       		.uleb128 0x5
 2833 0b5b 03       		.byte	0x3
 2834 0b5c 00000000 		.4byte	.LC0
 2835 0b60 00       		.byte	0
 2836 0b61 02       		.uleb128 0x2
 2837 0b62 14050000 		.4byte	.LVL87
 2838 0b66 C9060000 		.4byte	0x6c9
 2839 0b6a 740B0000 		.4byte	0xb74
 2840 0b6e 01       		.uleb128 0x1
 2841 0b6f 01       		.uleb128 0x1
 2842 0b70 50       		.byte	0x50
 2843 0b71 01       		.uleb128 0x1
 2844 0b72 4E       		.byte	0x4e
 2845 0b73 00       		.byte	0
ARM GAS  /tmp/ccrAlYmd.s 			page 51


 2846 0b74 02       		.uleb128 0x2
 2847 0b75 38050000 		.4byte	.LVL88
 2848 0b79 C9060000 		.4byte	0x6c9
 2849 0b7d 870B0000 		.4byte	0xb87
 2850 0b81 01       		.uleb128 0x1
 2851 0b82 01       		.uleb128 0x1
 2852 0b83 50       		.byte	0x50
 2853 0b84 01       		.uleb128 0x1
 2854 0b85 4F       		.byte	0x4f
 2855 0b86 00       		.byte	0
 2856 0b87 02       		.uleb128 0x2
 2857 0b88 60050000 		.4byte	.LVL89
 2858 0b8c C9060000 		.4byte	0x6c9
 2859 0b90 9B0B0000 		.4byte	0xb9b
 2860 0b94 01       		.uleb128 0x1
 2861 0b95 01       		.uleb128 0x1
 2862 0b96 50       		.byte	0x50
 2863 0b97 02       		.uleb128 0x2
 2864 0b98 08       		.byte	0x8
 2865 0b99 20       		.byte	0x20
 2866 0b9a 00       		.byte	0
 2867 0b9b 02       		.uleb128 0x2
 2868 0b9c 78050000 		.4byte	.LVL90
 2869 0ba0 53060000 		.4byte	0x653
 2870 0ba4 B50B0000 		.4byte	0xbb5
 2871 0ba8 01       		.uleb128 0x1
 2872 0ba9 01       		.uleb128 0x1
 2873 0baa 50       		.byte	0x50
 2874 0bab 02       		.uleb128 0x2
 2875 0bac 75       		.byte	0x75
 2876 0bad 00       		.sleb128 0
 2877 0bae 01       		.uleb128 0x1
 2878 0baf 01       		.uleb128 0x1
 2879 0bb0 51       		.byte	0x51
 2880 0bb1 02       		.uleb128 0x2
 2881 0bb2 08       		.byte	0x8
 2882 0bb3 45       		.byte	0x45
 2883 0bb4 00       		.byte	0
 2884 0bb5 02       		.uleb128 0x2
 2885 0bb6 8C050000 		.4byte	.LVL93
 2886 0bba C9060000 		.4byte	0x6c9
 2887 0bbe C90B0000 		.4byte	0xbc9
 2888 0bc2 01       		.uleb128 0x1
 2889 0bc3 01       		.uleb128 0x1
 2890 0bc4 50       		.byte	0x50
 2891 0bc5 02       		.uleb128 0x2
 2892 0bc6 08       		.byte	0x8
 2893 0bc7 21       		.byte	0x21
 2894 0bc8 00       		.byte	0
 2895 0bc9 02       		.uleb128 0x2
 2896 0bca A0050000 		.4byte	.LVL94
 2897 0bce 53060000 		.4byte	0x653
 2898 0bd2 E30B0000 		.4byte	0xbe3
 2899 0bd6 01       		.uleb128 0x1
 2900 0bd7 01       		.uleb128 0x1
 2901 0bd8 50       		.byte	0x50
 2902 0bd9 02       		.uleb128 0x2
ARM GAS  /tmp/ccrAlYmd.s 			page 52


 2903 0bda 75       		.byte	0x75
 2904 0bdb 00       		.sleb128 0
 2905 0bdc 01       		.uleb128 0x1
 2906 0bdd 01       		.uleb128 0x1
 2907 0bde 51       		.byte	0x51
 2908 0bdf 02       		.uleb128 0x2
 2909 0be0 08       		.byte	0x8
 2910 0be1 44       		.byte	0x44
 2911 0be2 00       		.byte	0
 2912 0be3 02       		.uleb128 0x2
 2913 0be4 B4050000 		.4byte	.LVL97
 2914 0be8 C9060000 		.4byte	0x6c9
 2915 0bec F70B0000 		.4byte	0xbf7
 2916 0bf0 01       		.uleb128 0x1
 2917 0bf1 01       		.uleb128 0x1
 2918 0bf2 50       		.byte	0x50
 2919 0bf3 02       		.uleb128 0x2
 2920 0bf4 08       		.byte	0x8
 2921 0bf5 22       		.byte	0x22
 2922 0bf6 00       		.byte	0
 2923 0bf7 02       		.uleb128 0x2
 2924 0bf8 C8050000 		.4byte	.LVL98
 2925 0bfc 53060000 		.4byte	0x653
 2926 0c00 110C0000 		.4byte	0xc11
 2927 0c04 01       		.uleb128 0x1
 2928 0c05 01       		.uleb128 0x1
 2929 0c06 50       		.byte	0x50
 2930 0c07 02       		.uleb128 0x2
 2931 0c08 75       		.byte	0x75
 2932 0c09 00       		.sleb128 0
 2933 0c0a 01       		.uleb128 0x1
 2934 0c0b 01       		.uleb128 0x1
 2935 0c0c 51       		.byte	0x51
 2936 0c0d 02       		.uleb128 0x2
 2937 0c0e 08       		.byte	0x8
 2938 0c0f 43       		.byte	0x43
 2939 0c10 00       		.byte	0
 2940 0c11 02       		.uleb128 0x2
 2941 0c12 DC050000 		.4byte	.LVL101
 2942 0c16 C9060000 		.4byte	0x6c9
 2943 0c1a 250C0000 		.4byte	0xc25
 2944 0c1e 01       		.uleb128 0x1
 2945 0c1f 01       		.uleb128 0x1
 2946 0c20 50       		.byte	0x50
 2947 0c21 02       		.uleb128 0x2
 2948 0c22 08       		.byte	0x8
 2949 0c23 23       		.byte	0x23
 2950 0c24 00       		.byte	0
 2951 0c25 02       		.uleb128 0x2
 2952 0c26 F0050000 		.4byte	.LVL102
 2953 0c2a 53060000 		.4byte	0x653
 2954 0c2e 3F0C0000 		.4byte	0xc3f
 2955 0c32 01       		.uleb128 0x1
 2956 0c33 01       		.uleb128 0x1
 2957 0c34 50       		.byte	0x50
 2958 0c35 02       		.uleb128 0x2
 2959 0c36 75       		.byte	0x75
ARM GAS  /tmp/ccrAlYmd.s 			page 53


 2960 0c37 00       		.sleb128 0
 2961 0c38 01       		.uleb128 0x1
 2962 0c39 01       		.uleb128 0x1
 2963 0c3a 51       		.byte	0x51
 2964 0c3b 02       		.uleb128 0x2
 2965 0c3c 08       		.byte	0x8
 2966 0c3d 42       		.byte	0x42
 2967 0c3e 00       		.byte	0
 2968 0c3f 02       		.uleb128 0x2
 2969 0c40 04060000 		.4byte	.LVL105
 2970 0c44 C9060000 		.4byte	0x6c9
 2971 0c48 530C0000 		.4byte	0xc53
 2972 0c4c 01       		.uleb128 0x1
 2973 0c4d 01       		.uleb128 0x1
 2974 0c4e 50       		.byte	0x50
 2975 0c4f 02       		.uleb128 0x2
 2976 0c50 08       		.byte	0x8
 2977 0c51 24       		.byte	0x24
 2978 0c52 00       		.byte	0
 2979 0c53 02       		.uleb128 0x2
 2980 0c54 18060000 		.4byte	.LVL106
 2981 0c58 53060000 		.4byte	0x653
 2982 0c5c 6D0C0000 		.4byte	0xc6d
 2983 0c60 01       		.uleb128 0x1
 2984 0c61 01       		.uleb128 0x1
 2985 0c62 50       		.byte	0x50
 2986 0c63 02       		.uleb128 0x2
 2987 0c64 75       		.byte	0x75
 2988 0c65 00       		.sleb128 0
 2989 0c66 01       		.uleb128 0x1
 2990 0c67 01       		.uleb128 0x1
 2991 0c68 51       		.byte	0x51
 2992 0c69 02       		.uleb128 0x2
 2993 0c6a 08       		.byte	0x8
 2994 0c6b 41       		.byte	0x41
 2995 0c6c 00       		.byte	0
 2996 0c6d 02       		.uleb128 0x2
 2997 0c6e 2C060000 		.4byte	.LVL108
 2998 0c72 C9060000 		.4byte	0x6c9
 2999 0c76 810C0000 		.4byte	0xc81
 3000 0c7a 01       		.uleb128 0x1
 3001 0c7b 01       		.uleb128 0x1
 3002 0c7c 50       		.byte	0x50
 3003 0c7d 02       		.uleb128 0x2
 3004 0c7e 08       		.byte	0x8
 3005 0c7f 25       		.byte	0x25
 3006 0c80 00       		.byte	0
 3007 0c81 02       		.uleb128 0x2
 3008 0c82 50060000 		.4byte	.LVL109
 3009 0c86 C9060000 		.4byte	0x6c9
 3010 0c8a 950C0000 		.4byte	0xc95
 3011 0c8e 01       		.uleb128 0x1
 3012 0c8f 01       		.uleb128 0x1
 3013 0c90 50       		.byte	0x50
 3014 0c91 02       		.uleb128 0x2
 3015 0c92 08       		.byte	0x8
 3016 0c93 26       		.byte	0x26
ARM GAS  /tmp/ccrAlYmd.s 			page 54


 3017 0c94 00       		.byte	0
 3018 0c95 02       		.uleb128 0x2
 3019 0c96 70060000 		.4byte	.LVL112
 3020 0c9a E7050000 		.4byte	0x5e7
 3021 0c9e AF0C0000 		.4byte	0xcaf
 3022 0ca2 01       		.uleb128 0x1
 3023 0ca3 01       		.uleb128 0x1
 3024 0ca4 50       		.byte	0x50
 3025 0ca5 02       		.uleb128 0x2
 3026 0ca6 75       		.byte	0x75
 3027 0ca7 00       		.sleb128 0
 3028 0ca8 01       		.uleb128 0x1
 3029 0ca9 01       		.uleb128 0x1
 3030 0caa 51       		.byte	0x51
 3031 0cab 02       		.uleb128 0x2
 3032 0cac 91       		.byte	0x91
 3033 0cad 64       		.sleb128 -28
 3034 0cae 00       		.byte	0
 3035 0caf 02       		.uleb128 0x2
 3036 0cb0 84060000 		.4byte	.LVL114
 3037 0cb4 C9060000 		.4byte	0x6c9
 3038 0cb8 C30C0000 		.4byte	0xcc3
 3039 0cbc 01       		.uleb128 0x1
 3040 0cbd 01       		.uleb128 0x1
 3041 0cbe 50       		.byte	0x50
 3042 0cbf 02       		.uleb128 0x2
 3043 0cc0 08       		.byte	0x8
 3044 0cc1 27       		.byte	0x27
 3045 0cc2 00       		.byte	0
 3046 0cc3 11       		.uleb128 0x11
 3047 0cc4 94060000 		.4byte	.LVL115
 3048 0cc8 22060000 		.4byte	0x622
 3049 0ccc 02       		.uleb128 0x2
 3050 0ccd A8060000 		.4byte	.LVL117
 3051 0cd1 02060000 		.4byte	0x602
 3052 0cd5 E90C0000 		.4byte	0xce9
 3053 0cd9 01       		.uleb128 0x1
 3054 0cda 01       		.uleb128 0x1
 3055 0cdb 50       		.byte	0x50
 3056 0cdc 02       		.uleb128 0x2
 3057 0cdd 08       		.byte	0x8
 3058 0cde 28       		.byte	0x28
 3059 0cdf 01       		.uleb128 0x1
 3060 0ce0 01       		.uleb128 0x1
 3061 0ce1 51       		.byte	0x51
 3062 0ce2 05       		.uleb128 0x5
 3063 0ce3 03       		.byte	0x3
 3064 0ce4 00000000 		.4byte	.LC0
 3065 0ce8 00       		.byte	0
 3066 0ce9 02       		.uleb128 0x2
 3067 0cea CC060000 		.4byte	.LVL118
 3068 0cee C9060000 		.4byte	0x6c9
 3069 0cf2 FD0C0000 		.4byte	0xcfd
 3070 0cf6 01       		.uleb128 0x1
 3071 0cf7 01       		.uleb128 0x1
 3072 0cf8 50       		.byte	0x50
 3073 0cf9 02       		.uleb128 0x2
ARM GAS  /tmp/ccrAlYmd.s 			page 55


 3074 0cfa 08       		.byte	0x8
 3075 0cfb 29       		.byte	0x29
 3076 0cfc 00       		.byte	0
 3077 0cfd 02       		.uleb128 0x2
 3078 0cfe F0060000 		.4byte	.LVL119
 3079 0d02 C9060000 		.4byte	0x6c9
 3080 0d06 110D0000 		.4byte	0xd11
 3081 0d0a 01       		.uleb128 0x1
 3082 0d0b 01       		.uleb128 0x1
 3083 0d0c 50       		.byte	0x50
 3084 0d0d 02       		.uleb128 0x2
 3085 0d0e 08       		.byte	0x8
 3086 0d0f 2A       		.byte	0x2a
 3087 0d10 00       		.byte	0
 3088 0d11 02       		.uleb128 0x2
 3089 0d12 18070000 		.4byte	.LVL120
 3090 0d16 C9060000 		.4byte	0x6c9
 3091 0d1a 250D0000 		.4byte	0xd25
 3092 0d1e 01       		.uleb128 0x1
 3093 0d1f 01       		.uleb128 0x1
 3094 0d20 50       		.byte	0x50
 3095 0d21 02       		.uleb128 0x2
 3096 0d22 08       		.byte	0x8
 3097 0d23 2B       		.byte	0x2b
 3098 0d24 00       		.byte	0
 3099 0d25 02       		.uleb128 0x2
 3100 0d26 28070000 		.4byte	.LVL121
 3101 0d2a D6050000 		.4byte	0x5d6
 3102 0d2e 390D0000 		.4byte	0xd39
 3103 0d32 01       		.uleb128 0x1
 3104 0d33 01       		.uleb128 0x1
 3105 0d34 50       		.byte	0x50
 3106 0d35 02       		.uleb128 0x2
 3107 0d36 75       		.byte	0x75
 3108 0d37 00       		.sleb128 0
 3109 0d38 00       		.byte	0
 3110 0d39 02       		.uleb128 0x2
 3111 0d3a 44070000 		.4byte	.LVL122
 3112 0d3e C9060000 		.4byte	0x6c9
 3113 0d42 4D0D0000 		.4byte	0xd4d
 3114 0d46 01       		.uleb128 0x1
 3115 0d47 01       		.uleb128 0x1
 3116 0d48 50       		.byte	0x50
 3117 0d49 02       		.uleb128 0x2
 3118 0d4a 08       		.byte	0x8
 3119 0d4b 2C       		.byte	0x2c
 3120 0d4c 00       		.byte	0
 3121 0d4d 02       		.uleb128 0x2
 3122 0d4e 68070000 		.4byte	.LVL123
 3123 0d52 C9060000 		.4byte	0x6c9
 3124 0d56 610D0000 		.4byte	0xd61
 3125 0d5a 01       		.uleb128 0x1
 3126 0d5b 01       		.uleb128 0x1
 3127 0d5c 50       		.byte	0x50
 3128 0d5d 02       		.uleb128 0x2
 3129 0d5e 08       		.byte	0x8
 3130 0d5f 2D       		.byte	0x2d
ARM GAS  /tmp/ccrAlYmd.s 			page 56


 3131 0d60 00       		.byte	0
 3132 0d61 02       		.uleb128 0x2
 3133 0d62 94070000 		.4byte	.LVL124
 3134 0d66 C9060000 		.4byte	0x6c9
 3135 0d6a 750D0000 		.4byte	0xd75
 3136 0d6e 01       		.uleb128 0x1
 3137 0d6f 01       		.uleb128 0x1
 3138 0d70 50       		.byte	0x50
 3139 0d71 02       		.uleb128 0x2
 3140 0d72 08       		.byte	0x8
 3141 0d73 2E       		.byte	0x2e
 3142 0d74 00       		.byte	0
 3143 0d75 24       		.uleb128 0x24
 3144 0d76 C0070000 		.4byte	.LVL125
 3145 0d7a C9060000 		.4byte	0x6c9
 3146 0d7e 01       		.uleb128 0x1
 3147 0d7f 01       		.uleb128 0x1
 3148 0d80 50       		.byte	0x50
 3149 0d81 02       		.uleb128 0x2
 3150 0d82 08       		.byte	0x8
 3151 0d83 2F       		.byte	0x2f
 3152 0d84 00       		.byte	0
 3153 0d85 00       		.byte	0
 3154 0d86 25       		.uleb128 0x25
 3155 0d87 8E010000 		.4byte	.LASF96
 3156 0d8b 01       		.byte	0x1
 3157 0d8c 4B       		.byte	0x4b
 3158 0d8d 0D       		.byte	0xd
 3159 0d8e 00000000 		.4byte	.LFB7
 3160 0d92 18000000 		.4byte	.LFE7-.LFB7
 3161 0d96 01       		.uleb128 0x1
 3162 0d97 9C       		.byte	0x9c
 3163 0d98 26       		.uleb128 0x26
 3164 0d99 10000000 		.4byte	.LVL126
 3165 0d9d B6050000 		.4byte	0x5b6
 3166 0da1 01       		.uleb128 0x1
 3167 0da2 01       		.uleb128 0x1
 3168 0da3 50       		.byte	0x50
 3169 0da4 05       		.uleb128 0x5
 3170 0da5 03       		.byte	0x3
 3171 0da6 00000000 		.4byte	.LANCHOR0
 3172 0daa 01       		.uleb128 0x1
 3173 0dab 01       		.uleb128 0x1
 3174 0dac 52       		.byte	0x52
 3175 0dad 01       		.uleb128 0x1
 3176 0dae 35       		.byte	0x35
 3177 0daf 00       		.byte	0
 3178 0db0 00       		.byte	0
 3179 0db1 00       		.byte	0
 3180              		.section	.debug_abbrev,"",%progbits
 3181              	.Ldebug_abbrev0:
 3182 0000 01       		.uleb128 0x1
 3183 0001 49       		.uleb128 0x49
 3184 0002 00       		.byte	0
 3185 0003 02       		.uleb128 0x2
 3186 0004 18       		.uleb128 0x18
 3187 0005 7E       		.uleb128 0x7e
ARM GAS  /tmp/ccrAlYmd.s 			page 57


 3188 0006 18       		.uleb128 0x18
 3189 0007 00       		.byte	0
 3190 0008 00       		.byte	0
 3191 0009 02       		.uleb128 0x2
 3192 000a 48       		.uleb128 0x48
 3193 000b 01       		.byte	0x1
 3194 000c 7D       		.uleb128 0x7d
 3195 000d 01       		.uleb128 0x1
 3196 000e 7F       		.uleb128 0x7f
 3197 000f 13       		.uleb128 0x13
 3198 0010 01       		.uleb128 0x1
 3199 0011 13       		.uleb128 0x13
 3200 0012 00       		.byte	0
 3201 0013 00       		.byte	0
 3202 0014 03       		.uleb128 0x3
 3203 0015 0D       		.uleb128 0xd
 3204 0016 00       		.byte	0
 3205 0017 03       		.uleb128 0x3
 3206 0018 0E       		.uleb128 0xe
 3207 0019 3A       		.uleb128 0x3a
 3208 001a 0B       		.uleb128 0xb
 3209 001b 3B       		.uleb128 0x3b
 3210 001c 0B       		.uleb128 0xb
 3211 001d 39       		.uleb128 0x39
 3212 001e 0B       		.uleb128 0xb
 3213 001f 49       		.uleb128 0x49
 3214 0020 13       		.uleb128 0x13
 3215 0021 38       		.uleb128 0x38
 3216 0022 0B       		.uleb128 0xb
 3217 0023 00       		.byte	0
 3218 0024 00       		.byte	0
 3219 0025 04       		.uleb128 0x4
 3220 0026 16       		.uleb128 0x16
 3221 0027 00       		.byte	0
 3222 0028 03       		.uleb128 0x3
 3223 0029 0E       		.uleb128 0xe
 3224 002a 3A       		.uleb128 0x3a
 3225 002b 0B       		.uleb128 0xb
 3226 002c 3B       		.uleb128 0x3b
 3227 002d 0B       		.uleb128 0xb
 3228 002e 39       		.uleb128 0x39
 3229 002f 0B       		.uleb128 0xb
 3230 0030 49       		.uleb128 0x49
 3231 0031 13       		.uleb128 0x13
 3232 0032 00       		.byte	0
 3233 0033 00       		.byte	0
 3234 0034 05       		.uleb128 0x5
 3235 0035 05       		.uleb128 0x5
 3236 0036 00       		.byte	0
 3237 0037 49       		.uleb128 0x49
 3238 0038 13       		.uleb128 0x13
 3239 0039 00       		.byte	0
 3240 003a 00       		.byte	0
 3241 003b 06       		.uleb128 0x6
 3242 003c 0D       		.uleb128 0xd
 3243 003d 00       		.byte	0
 3244 003e 03       		.uleb128 0x3
ARM GAS  /tmp/ccrAlYmd.s 			page 58


 3245 003f 08       		.uleb128 0x8
 3246 0040 3A       		.uleb128 0x3a
 3247 0041 0B       		.uleb128 0xb
 3248 0042 3B       		.uleb128 0x3b
 3249 0043 0B       		.uleb128 0xb
 3250 0044 39       		.uleb128 0x39
 3251 0045 0B       		.uleb128 0xb
 3252 0046 49       		.uleb128 0x49
 3253 0047 13       		.uleb128 0x13
 3254 0048 38       		.uleb128 0x38
 3255 0049 0B       		.uleb128 0xb
 3256 004a 00       		.byte	0
 3257 004b 00       		.byte	0
 3258 004c 07       		.uleb128 0x7
 3259 004d 24       		.uleb128 0x24
 3260 004e 00       		.byte	0
 3261 004f 0B       		.uleb128 0xb
 3262 0050 0B       		.uleb128 0xb
 3263 0051 3E       		.uleb128 0x3e
 3264 0052 0B       		.uleb128 0xb
 3265 0053 03       		.uleb128 0x3
 3266 0054 0E       		.uleb128 0xe
 3267 0055 00       		.byte	0
 3268 0056 00       		.byte	0
 3269 0057 08       		.uleb128 0x8
 3270 0058 0F       		.uleb128 0xf
 3271 0059 00       		.byte	0
 3272 005a 0B       		.uleb128 0xb
 3273 005b 21       		.uleb128 0x21
 3274 005c 04       		.sleb128 4
 3275 005d 49       		.uleb128 0x49
 3276 005e 13       		.uleb128 0x13
 3277 005f 00       		.byte	0
 3278 0060 00       		.byte	0
 3279 0061 09       		.uleb128 0x9
 3280 0062 2E       		.uleb128 0x2e
 3281 0063 01       		.byte	0x1
 3282 0064 3F       		.uleb128 0x3f
 3283 0065 19       		.uleb128 0x19
 3284 0066 03       		.uleb128 0x3
 3285 0067 0E       		.uleb128 0xe
 3286 0068 3A       		.uleb128 0x3a
 3287 0069 0B       		.uleb128 0xb
 3288 006a 3B       		.uleb128 0x3b
 3289 006b 0B       		.uleb128 0xb
 3290 006c 39       		.uleb128 0x39
 3291 006d 0B       		.uleb128 0xb
 3292 006e 27       		.uleb128 0x27
 3293 006f 19       		.uleb128 0x19
 3294 0070 49       		.uleb128 0x49
 3295 0071 13       		.uleb128 0x13
 3296 0072 3C       		.uleb128 0x3c
 3297 0073 19       		.uleb128 0x19
 3298 0074 01       		.uleb128 0x1
 3299 0075 13       		.uleb128 0x13
 3300 0076 00       		.byte	0
 3301 0077 00       		.byte	0
ARM GAS  /tmp/ccrAlYmd.s 			page 59


 3302 0078 0A       		.uleb128 0xa
 3303 0079 13       		.uleb128 0x13
 3304 007a 01       		.byte	0x1
 3305 007b 03       		.uleb128 0x3
 3306 007c 0E       		.uleb128 0xe
 3307 007d 0B       		.uleb128 0xb
 3308 007e 0B       		.uleb128 0xb
 3309 007f 3A       		.uleb128 0x3a
 3310 0080 0B       		.uleb128 0xb
 3311 0081 3B       		.uleb128 0x3b
 3312 0082 0B       		.uleb128 0xb
 3313 0083 39       		.uleb128 0x39
 3314 0084 0B       		.uleb128 0xb
 3315 0085 01       		.uleb128 0x1
 3316 0086 13       		.uleb128 0x13
 3317 0087 00       		.byte	0
 3318 0088 00       		.byte	0
 3319 0089 0B       		.uleb128 0xb
 3320 008a 0D       		.uleb128 0xd
 3321 008b 00       		.byte	0
 3322 008c 03       		.uleb128 0x3
 3323 008d 0E       		.uleb128 0xe
 3324 008e 3A       		.uleb128 0x3a
 3325 008f 0B       		.uleb128 0xb
 3326 0090 3B       		.uleb128 0x3b
 3327 0091 0B       		.uleb128 0xb
 3328 0092 39       		.uleb128 0x39
 3329 0093 0B       		.uleb128 0xb
 3330 0094 49       		.uleb128 0x49
 3331 0095 13       		.uleb128 0x13
 3332 0096 00       		.byte	0
 3333 0097 00       		.byte	0
 3334 0098 0C       		.uleb128 0xc
 3335 0099 26       		.uleb128 0x26
 3336 009a 00       		.byte	0
 3337 009b 49       		.uleb128 0x49
 3338 009c 13       		.uleb128 0x13
 3339 009d 00       		.byte	0
 3340 009e 00       		.byte	0
 3341 009f 0D       		.uleb128 0xd
 3342 00a0 0D       		.uleb128 0xd
 3343 00a1 00       		.byte	0
 3344 00a2 03       		.uleb128 0x3
 3345 00a3 08       		.uleb128 0x8
 3346 00a4 3A       		.uleb128 0x3a
 3347 00a5 21       		.uleb128 0x21
 3348 00a6 0B       		.sleb128 11
 3349 00a7 3B       		.uleb128 0x3b
 3350 00a8 0B       		.uleb128 0xb
 3351 00a9 39       		.uleb128 0x39
 3352 00aa 21       		.uleb128 0x21
 3353 00ab 05       		.sleb128 5
 3354 00ac 49       		.uleb128 0x49
 3355 00ad 13       		.uleb128 0x13
 3356 00ae 38       		.uleb128 0x38
 3357 00af 05       		.uleb128 0x5
 3358 00b0 00       		.byte	0
ARM GAS  /tmp/ccrAlYmd.s 			page 60


 3359 00b1 00       		.byte	0
 3360 00b2 0E       		.uleb128 0xe
 3361 00b3 13       		.uleb128 0x13
 3362 00b4 01       		.byte	0x1
 3363 00b5 0B       		.uleb128 0xb
 3364 00b6 0B       		.uleb128 0xb
 3365 00b7 3A       		.uleb128 0x3a
 3366 00b8 0B       		.uleb128 0xb
 3367 00b9 3B       		.uleb128 0x3b
 3368 00ba 0B       		.uleb128 0xb
 3369 00bb 39       		.uleb128 0x39
 3370 00bc 21       		.uleb128 0x21
 3371 00bd 09       		.sleb128 9
 3372 00be 01       		.uleb128 0x1
 3373 00bf 13       		.uleb128 0x13
 3374 00c0 00       		.byte	0
 3375 00c1 00       		.byte	0
 3376 00c2 0F       		.uleb128 0xf
 3377 00c3 01       		.uleb128 0x1
 3378 00c4 01       		.byte	0x1
 3379 00c5 49       		.uleb128 0x49
 3380 00c6 13       		.uleb128 0x13
 3381 00c7 01       		.uleb128 0x1
 3382 00c8 13       		.uleb128 0x13
 3383 00c9 00       		.byte	0
 3384 00ca 00       		.byte	0
 3385 00cb 10       		.uleb128 0x10
 3386 00cc 2E       		.uleb128 0x2e
 3387 00cd 01       		.byte	0x1
 3388 00ce 3F       		.uleb128 0x3f
 3389 00cf 19       		.uleb128 0x19
 3390 00d0 03       		.uleb128 0x3
 3391 00d1 0E       		.uleb128 0xe
 3392 00d2 3A       		.uleb128 0x3a
 3393 00d3 0B       		.uleb128 0xb
 3394 00d4 3B       		.uleb128 0x3b
 3395 00d5 0B       		.uleb128 0xb
 3396 00d6 39       		.uleb128 0x39
 3397 00d7 21       		.uleb128 0x21
 3398 00d8 08       		.sleb128 8
 3399 00d9 27       		.uleb128 0x27
 3400 00da 19       		.uleb128 0x19
 3401 00db 3C       		.uleb128 0x3c
 3402 00dc 19       		.uleb128 0x19
 3403 00dd 01       		.uleb128 0x1
 3404 00de 13       		.uleb128 0x13
 3405 00df 00       		.byte	0
 3406 00e0 00       		.byte	0
 3407 00e1 11       		.uleb128 0x11
 3408 00e2 48       		.uleb128 0x48
 3409 00e3 00       		.byte	0
 3410 00e4 7D       		.uleb128 0x7d
 3411 00e5 01       		.uleb128 0x1
 3412 00e6 7F       		.uleb128 0x7f
 3413 00e7 13       		.uleb128 0x13
 3414 00e8 00       		.byte	0
 3415 00e9 00       		.byte	0
ARM GAS  /tmp/ccrAlYmd.s 			page 61


 3416 00ea 12       		.uleb128 0x12
 3417 00eb 21       		.uleb128 0x21
 3418 00ec 00       		.byte	0
 3419 00ed 49       		.uleb128 0x49
 3420 00ee 13       		.uleb128 0x13
 3421 00ef 2F       		.uleb128 0x2f
 3422 00f0 0B       		.uleb128 0xb
 3423 00f1 00       		.byte	0
 3424 00f2 00       		.byte	0
 3425 00f3 13       		.uleb128 0x13
 3426 00f4 34       		.uleb128 0x34
 3427 00f5 00       		.byte	0
 3428 00f6 03       		.uleb128 0x3
 3429 00f7 0E       		.uleb128 0xe
 3430 00f8 3A       		.uleb128 0x3a
 3431 00f9 21       		.uleb128 0x21
 3432 00fa 01       		.sleb128 1
 3433 00fb 3B       		.uleb128 0x3b
 3434 00fc 0B       		.uleb128 0xb
 3435 00fd 39       		.uleb128 0x39
 3436 00fe 0B       		.uleb128 0xb
 3437 00ff 49       		.uleb128 0x49
 3438 0100 13       		.uleb128 0x13
 3439 0101 3F       		.uleb128 0x3f
 3440 0102 19       		.uleb128 0x19
 3441 0103 02       		.uleb128 0x2
 3442 0104 18       		.uleb128 0x18
 3443 0105 00       		.byte	0
 3444 0106 00       		.byte	0
 3445 0107 14       		.uleb128 0x14
 3446 0108 11       		.uleb128 0x11
 3447 0109 01       		.byte	0x1
 3448 010a 25       		.uleb128 0x25
 3449 010b 0E       		.uleb128 0xe
 3450 010c 13       		.uleb128 0x13
 3451 010d 0B       		.uleb128 0xb
 3452 010e 03       		.uleb128 0x3
 3453 010f 0E       		.uleb128 0xe
 3454 0110 1B       		.uleb128 0x1b
 3455 0111 0E       		.uleb128 0xe
 3456 0112 55       		.uleb128 0x55
 3457 0113 17       		.uleb128 0x17
 3458 0114 11       		.uleb128 0x11
 3459 0115 01       		.uleb128 0x1
 3460 0116 10       		.uleb128 0x10
 3461 0117 17       		.uleb128 0x17
 3462 0118 00       		.byte	0
 3463 0119 00       		.byte	0
 3464 011a 15       		.uleb128 0x15
 3465 011b 24       		.uleb128 0x24
 3466 011c 00       		.byte	0
 3467 011d 0B       		.uleb128 0xb
 3468 011e 0B       		.uleb128 0xb
 3469 011f 3E       		.uleb128 0x3e
 3470 0120 0B       		.uleb128 0xb
 3471 0121 03       		.uleb128 0x3
 3472 0122 08       		.uleb128 0x8
ARM GAS  /tmp/ccrAlYmd.s 			page 62


 3473 0123 00       		.byte	0
 3474 0124 00       		.byte	0
 3475 0125 16       		.uleb128 0x16
 3476 0126 35       		.uleb128 0x35
 3477 0127 00       		.byte	0
 3478 0128 49       		.uleb128 0x49
 3479 0129 13       		.uleb128 0x13
 3480 012a 00       		.byte	0
 3481 012b 00       		.byte	0
 3482 012c 17       		.uleb128 0x17
 3483 012d 0F       		.uleb128 0xf
 3484 012e 00       		.byte	0
 3485 012f 0B       		.uleb128 0xb
 3486 0130 0B       		.uleb128 0xb
 3487 0131 00       		.byte	0
 3488 0132 00       		.byte	0
 3489 0133 18       		.uleb128 0x18
 3490 0134 17       		.uleb128 0x17
 3491 0135 01       		.byte	0x1
 3492 0136 0B       		.uleb128 0xb
 3493 0137 0B       		.uleb128 0xb
 3494 0138 3A       		.uleb128 0x3a
 3495 0139 0B       		.uleb128 0xb
 3496 013a 3B       		.uleb128 0x3b
 3497 013b 0B       		.uleb128 0xb
 3498 013c 39       		.uleb128 0x39
 3499 013d 0B       		.uleb128 0xb
 3500 013e 01       		.uleb128 0x1
 3501 013f 13       		.uleb128 0x13
 3502 0140 00       		.byte	0
 3503 0141 00       		.byte	0
 3504 0142 19       		.uleb128 0x19
 3505 0143 15       		.uleb128 0x15
 3506 0144 00       		.byte	0
 3507 0145 27       		.uleb128 0x27
 3508 0146 19       		.uleb128 0x19
 3509 0147 00       		.byte	0
 3510 0148 00       		.byte	0
 3511 0149 1A       		.uleb128 0x1a
 3512 014a 13       		.uleb128 0x13
 3513 014b 01       		.byte	0x1
 3514 014c 0B       		.uleb128 0xb
 3515 014d 05       		.uleb128 0x5
 3516 014e 3A       		.uleb128 0x3a
 3517 014f 0B       		.uleb128 0xb
 3518 0150 3B       		.uleb128 0x3b
 3519 0151 0B       		.uleb128 0xb
 3520 0152 39       		.uleb128 0x39
 3521 0153 0B       		.uleb128 0xb
 3522 0154 01       		.uleb128 0x1
 3523 0155 13       		.uleb128 0x13
 3524 0156 00       		.byte	0
 3525 0157 00       		.byte	0
 3526 0158 1B       		.uleb128 0x1b
 3527 0159 17       		.uleb128 0x17
 3528 015a 01       		.byte	0x1
 3529 015b 03       		.uleb128 0x3
ARM GAS  /tmp/ccrAlYmd.s 			page 63


 3530 015c 0E       		.uleb128 0xe
 3531 015d 0B       		.uleb128 0xb
 3532 015e 05       		.uleb128 0x5
 3533 015f 3A       		.uleb128 0x3a
 3534 0160 0B       		.uleb128 0xb
 3535 0161 3B       		.uleb128 0x3b
 3536 0162 0B       		.uleb128 0xb
 3537 0163 39       		.uleb128 0x39
 3538 0164 0B       		.uleb128 0xb
 3539 0165 01       		.uleb128 0x1
 3540 0166 13       		.uleb128 0x13
 3541 0167 00       		.byte	0
 3542 0168 00       		.byte	0
 3543 0169 1C       		.uleb128 0x1c
 3544 016a 0D       		.uleb128 0xd
 3545 016b 00       		.byte	0
 3546 016c 03       		.uleb128 0x3
 3547 016d 08       		.uleb128 0x8
 3548 016e 3A       		.uleb128 0x3a
 3549 016f 0B       		.uleb128 0xb
 3550 0170 3B       		.uleb128 0x3b
 3551 0171 0B       		.uleb128 0xb
 3552 0172 39       		.uleb128 0x39
 3553 0173 0B       		.uleb128 0xb
 3554 0174 49       		.uleb128 0x49
 3555 0175 13       		.uleb128 0x13
 3556 0176 00       		.byte	0
 3557 0177 00       		.byte	0
 3558 0178 1D       		.uleb128 0x1d
 3559 0179 21       		.uleb128 0x21
 3560 017a 00       		.byte	0
 3561 017b 49       		.uleb128 0x49
 3562 017c 13       		.uleb128 0x13
 3563 017d 2F       		.uleb128 0x2f
 3564 017e 05       		.uleb128 0x5
 3565 017f 00       		.byte	0
 3566 0180 00       		.byte	0
 3567 0181 1E       		.uleb128 0x1e
 3568 0182 34       		.uleb128 0x34
 3569 0183 00       		.byte	0
 3570 0184 03       		.uleb128 0x3
 3571 0185 0E       		.uleb128 0xe
 3572 0186 3A       		.uleb128 0x3a
 3573 0187 0B       		.uleb128 0xb
 3574 0188 3B       		.uleb128 0x3b
 3575 0189 0B       		.uleb128 0xb
 3576 018a 39       		.uleb128 0x39
 3577 018b 0B       		.uleb128 0xb
 3578 018c 49       		.uleb128 0x49
 3579 018d 13       		.uleb128 0x13
 3580 018e 3F       		.uleb128 0x3f
 3581 018f 19       		.uleb128 0x19
 3582 0190 3C       		.uleb128 0x3c
 3583 0191 19       		.uleb128 0x19
 3584 0192 00       		.byte	0
 3585 0193 00       		.byte	0
 3586 0194 1F       		.uleb128 0x1f
ARM GAS  /tmp/ccrAlYmd.s 			page 64


 3587 0195 34       		.uleb128 0x34
 3588 0196 00       		.byte	0
 3589 0197 03       		.uleb128 0x3
 3590 0198 08       		.uleb128 0x8
 3591 0199 3A       		.uleb128 0x3a
 3592 019a 0B       		.uleb128 0xb
 3593 019b 3B       		.uleb128 0x3b
 3594 019c 0B       		.uleb128 0xb
 3595 019d 39       		.uleb128 0x39
 3596 019e 0B       		.uleb128 0xb
 3597 019f 49       		.uleb128 0x49
 3598 01a0 13       		.uleb128 0x13
 3599 01a1 02       		.uleb128 0x2
 3600 01a2 18       		.uleb128 0x18
 3601 01a3 00       		.byte	0
 3602 01a4 00       		.byte	0
 3603 01a5 20       		.uleb128 0x20
 3604 01a6 2E       		.uleb128 0x2e
 3605 01a7 01       		.byte	0x1
 3606 01a8 03       		.uleb128 0x3
 3607 01a9 0E       		.uleb128 0xe
 3608 01aa 3A       		.uleb128 0x3a
 3609 01ab 0B       		.uleb128 0xb
 3610 01ac 3B       		.uleb128 0x3b
 3611 01ad 0B       		.uleb128 0xb
 3612 01ae 39       		.uleb128 0x39
 3613 01af 0B       		.uleb128 0xb
 3614 01b0 27       		.uleb128 0x27
 3615 01b1 19       		.uleb128 0x19
 3616 01b2 11       		.uleb128 0x11
 3617 01b3 01       		.uleb128 0x1
 3618 01b4 12       		.uleb128 0x12
 3619 01b5 06       		.uleb128 0x6
 3620 01b6 40       		.uleb128 0x40
 3621 01b7 18       		.uleb128 0x18
 3622 01b8 7A       		.uleb128 0x7a
 3623 01b9 19       		.uleb128 0x19
 3624 01ba 01       		.uleb128 0x1
 3625 01bb 13       		.uleb128 0x13
 3626 01bc 00       		.byte	0
 3627 01bd 00       		.byte	0
 3628 01be 21       		.uleb128 0x21
 3629 01bf 34       		.uleb128 0x34
 3630 01c0 00       		.byte	0
 3631 01c1 03       		.uleb128 0x3
 3632 01c2 0E       		.uleb128 0xe
 3633 01c3 3A       		.uleb128 0x3a
 3634 01c4 0B       		.uleb128 0xb
 3635 01c5 3B       		.uleb128 0x3b
 3636 01c6 0B       		.uleb128 0xb
 3637 01c7 39       		.uleb128 0x39
 3638 01c8 0B       		.uleb128 0xb
 3639 01c9 49       		.uleb128 0x49
 3640 01ca 13       		.uleb128 0x13
 3641 01cb 02       		.uleb128 0x2
 3642 01cc 17       		.uleb128 0x17
 3643 01cd B742     		.uleb128 0x2137
ARM GAS  /tmp/ccrAlYmd.s 			page 65


 3644 01cf 17       		.uleb128 0x17
 3645 01d0 00       		.byte	0
 3646 01d1 00       		.byte	0
 3647 01d2 22       		.uleb128 0x22
 3648 01d3 34       		.uleb128 0x34
 3649 01d4 00       		.byte	0
 3650 01d5 03       		.uleb128 0x3
 3651 01d6 0E       		.uleb128 0xe
 3652 01d7 3A       		.uleb128 0x3a
 3653 01d8 0B       		.uleb128 0xb
 3654 01d9 3B       		.uleb128 0x3b
 3655 01da 0B       		.uleb128 0xb
 3656 01db 39       		.uleb128 0x39
 3657 01dc 0B       		.uleb128 0xb
 3658 01dd 49       		.uleb128 0x49
 3659 01de 13       		.uleb128 0x13
 3660 01df 02       		.uleb128 0x2
 3661 01e0 18       		.uleb128 0x18
 3662 01e1 00       		.byte	0
 3663 01e2 00       		.byte	0
 3664 01e3 23       		.uleb128 0x23
 3665 01e4 34       		.uleb128 0x34
 3666 01e5 00       		.byte	0
 3667 01e6 03       		.uleb128 0x3
 3668 01e7 08       		.uleb128 0x8
 3669 01e8 3A       		.uleb128 0x3a
 3670 01e9 0B       		.uleb128 0xb
 3671 01ea 3B       		.uleb128 0x3b
 3672 01eb 0B       		.uleb128 0xb
 3673 01ec 39       		.uleb128 0x39
 3674 01ed 0B       		.uleb128 0xb
 3675 01ee 49       		.uleb128 0x49
 3676 01ef 13       		.uleb128 0x13
 3677 01f0 02       		.uleb128 0x2
 3678 01f1 17       		.uleb128 0x17
 3679 01f2 B742     		.uleb128 0x2137
 3680 01f4 17       		.uleb128 0x17
 3681 01f5 00       		.byte	0
 3682 01f6 00       		.byte	0
 3683 01f7 24       		.uleb128 0x24
 3684 01f8 48       		.uleb128 0x48
 3685 01f9 01       		.byte	0x1
 3686 01fa 7D       		.uleb128 0x7d
 3687 01fb 01       		.uleb128 0x1
 3688 01fc 7F       		.uleb128 0x7f
 3689 01fd 13       		.uleb128 0x13
 3690 01fe 00       		.byte	0
 3691 01ff 00       		.byte	0
 3692 0200 25       		.uleb128 0x25
 3693 0201 2E       		.uleb128 0x2e
 3694 0202 01       		.byte	0x1
 3695 0203 03       		.uleb128 0x3
 3696 0204 0E       		.uleb128 0xe
 3697 0205 3A       		.uleb128 0x3a
 3698 0206 0B       		.uleb128 0xb
 3699 0207 3B       		.uleb128 0x3b
 3700 0208 0B       		.uleb128 0xb
ARM GAS  /tmp/ccrAlYmd.s 			page 66


 3701 0209 39       		.uleb128 0x39
 3702 020a 0B       		.uleb128 0xb
 3703 020b 27       		.uleb128 0x27
 3704 020c 19       		.uleb128 0x19
 3705 020d 11       		.uleb128 0x11
 3706 020e 01       		.uleb128 0x1
 3707 020f 12       		.uleb128 0x12
 3708 0210 06       		.uleb128 0x6
 3709 0211 40       		.uleb128 0x40
 3710 0212 18       		.uleb128 0x18
 3711 0213 7A       		.uleb128 0x7a
 3712 0214 19       		.uleb128 0x19
 3713 0215 00       		.byte	0
 3714 0216 00       		.byte	0
 3715 0217 26       		.uleb128 0x26
 3716 0218 48       		.uleb128 0x48
 3717 0219 01       		.byte	0x1
 3718 021a 7D       		.uleb128 0x7d
 3719 021b 01       		.uleb128 0x1
 3720 021c 8201     		.uleb128 0x82
 3721 021e 19       		.uleb128 0x19
 3722 021f 7F       		.uleb128 0x7f
 3723 0220 13       		.uleb128 0x13
 3724 0221 00       		.byte	0
 3725 0222 00       		.byte	0
 3726 0223 00       		.byte	0
 3727              		.section	.debug_loclists,"",%progbits
 3728 0000 66010000 		.4byte	.Ldebug_loc3-.Ldebug_loc2
 3729              	.Ldebug_loc2:
 3730 0004 0500     		.2byte	0x5
 3731 0006 04       		.byte	0x4
 3732 0007 00       		.byte	0
 3733 0008 00000000 		.4byte	0
 3734              	.Ldebug_loc0:
 3735              	.LVUS0:
 3736 000c 00       		.uleb128 .LVU10
 3737 000d 00       		.uleb128 .LVU11
 3738 000e 00       		.uleb128 .LVU21
 3739 000f 00       		.uleb128 .LVU22
 3740 0010 00       		.uleb128 .LVU27
 3741 0011 00       		.uleb128 .LVU28
 3742 0012 00       		.uleb128 .LVU35
 3743 0013 00       		.uleb128 .LVU39
 3744 0014 00       		.uleb128 .LVU43
 3745 0015 00       		.uleb128 .LVU44
 3746 0016 00       		.uleb128 .LVU51
 3747 0017 00       		.uleb128 .LVU55
 3748 0018 00       		.uleb128 .LVU87
 3749 0019 00       		.uleb128 .LVU88
 3750 001a 00       		.uleb128 .LVU100
 3751 001b 00       		.uleb128 .LVU101
 3752 001c 00       		.uleb128 .LVU105
 3753 001d 00       		.uleb128 .LVU106
 3754 001e 00       		.uleb128 .LVU114
 3755 001f 00       		.uleb128 .LVU115
 3756 0020 00       		.uleb128 .LVU122
 3757 0021 00       		.uleb128 .LVU126
ARM GAS  /tmp/ccrAlYmd.s 			page 67


 3758 0022 00       		.uleb128 .LVU156
 3759 0023 00       		.uleb128 .LVU157
 3760 0024 00       		.uleb128 .LVU161
 3761 0025 00       		.uleb128 .LVU162
 3762 0026 00       		.uleb128 .LVU166
 3763 0027 00       		.uleb128 .LVU167
 3764 0028 00       		.uleb128 .LVU171
 3765 0029 00       		.uleb128 .LVU172
 3766 002a 00       		.uleb128 .LVU176
 3767 002b 00       		.uleb128 .LVU179
 3768 002c 00       		.uleb128 .LVU188
 3769 002d 00       		.uleb128 .LVU192
 3770 002e 00       		.uleb128 .LVU225
 3771 002f 00       		.uleb128 .LVU226
 3772 0030 00       		.uleb128 .LVU230
 3773 0031 00       		.uleb128 .LVU231
 3774 0032 00       		.uleb128 .LVU235
 3775 0033 00       		.uleb128 .LVU236
 3776 0034 00       		.uleb128 .LVU240
 3777 0035 00       		.uleb128 .LVU241
 3778 0036 00       		.uleb128 .LVU245
 3779 0037 00       		.uleb128 .LVU249
 3780 0038 00       		.uleb128 .LVU258
 3781 0039 00       		.uleb128 .LVU262
 3782              	.LLST0:
 3783 003a 06       		.byte	0x6
 3784 003b 44000000 		.4byte	.LVL3
 3785 003f 04       		.byte	0x4
 3786 0040 00       		.uleb128 .LVL3-.LVL3
 3787 0041 08       		.uleb128 .LVL4-.LVL3
 3788 0042 01       		.uleb128 0x1
 3789 0043 50       		.byte	0x50
 3790 0044 04       		.byte	0x4
 3791 0045 38       		.uleb128 .LVL7-.LVL3
 3792 0046 40       		.uleb128 .LVL8-.LVL3
 3793 0047 01       		.uleb128 0x1
 3794 0048 50       		.byte	0x50
 3795 0049 04       		.byte	0x4
 3796 004a 6C       		.uleb128 .LVL11-.LVL3
 3797 004b 7C       		.uleb128 .LVL12-.LVL3
 3798 004c 01       		.uleb128 0x1
 3799 004d 50       		.byte	0x50
 3800 004e 04       		.byte	0x4
 3801 004f 9C01     		.uleb128 .LVL15-.LVL3
 3802 0051 B001     		.uleb128 .LVL16-.LVL3
 3803 0053 01       		.uleb128 0x1
 3804 0054 50       		.byte	0x50
 3805 0055 04       		.byte	0x4
 3806 0056 D001     		.uleb128 .LVL19-.LVL3
 3807 0058 E001     		.uleb128 .LVL20-.LVL3
 3808 005a 01       		.uleb128 0x1
 3809 005b 50       		.byte	0x50
 3810 005c 04       		.byte	0x4
 3811 005d 8002     		.uleb128 .LVL23-.LVL3
 3812 005f 9402     		.uleb128 .LVL24-.LVL3
 3813 0061 01       		.uleb128 0x1
 3814 0062 50       		.byte	0x50
ARM GAS  /tmp/ccrAlYmd.s 			page 68


 3815 0063 04       		.byte	0x4
 3816 0064 B403     		.uleb128 .LVL32-.LVL3
 3817 0066 BC03     		.uleb128 .LVL33-.LVL3
 3818 0068 01       		.uleb128 0x1
 3819 0069 50       		.byte	0x50
 3820 006a 04       		.byte	0x4
 3821 006b 8404     		.uleb128 .LVL39-.LVL3
 3822 006d 8C04     		.uleb128 .LVL40-.LVL3
 3823 006f 01       		.uleb128 0x1
 3824 0070 50       		.byte	0x50
 3825 0071 04       		.byte	0x4
 3826 0072 B004     		.uleb128 .LVL43-.LVL3
 3827 0074 B804     		.uleb128 .LVL44-.LVL3
 3828 0076 01       		.uleb128 0x1
 3829 0077 50       		.byte	0x50
 3830 0078 04       		.byte	0x4
 3831 0079 A405     		.uleb128 .LVL49-.LVL3
 3832 007b B405     		.uleb128 .LVL50-.LVL3
 3833 007d 01       		.uleb128 0x1
 3834 007e 50       		.byte	0x50
 3835 007f 04       		.byte	0x4
 3836 0080 D405     		.uleb128 .LVL53-.LVL3
 3837 0082 E805     		.uleb128 .LVL54-.LVL3
 3838 0084 01       		.uleb128 0x1
 3839 0085 50       		.byte	0x50
 3840 0086 04       		.byte	0x4
 3841 0087 8007     		.uleb128 .LVL60-.LVL3
 3842 0089 8807     		.uleb128 .LVL61-.LVL3
 3843 008b 01       		.uleb128 0x1
 3844 008c 50       		.byte	0x50
 3845 008d 04       		.byte	0x4
 3846 008e A807     		.uleb128 .LVL64-.LVL3
 3847 0090 B007     		.uleb128 .LVL65-.LVL3
 3848 0092 01       		.uleb128 0x1
 3849 0093 50       		.byte	0x50
 3850 0094 04       		.byte	0x4
 3851 0095 D007     		.uleb128 .LVL68-.LVL3
 3852 0097 D807     		.uleb128 .LVL69-.LVL3
 3853 0099 01       		.uleb128 0x1
 3854 009a 50       		.byte	0x50
 3855 009b 04       		.byte	0x4
 3856 009c F807     		.uleb128 .LVL72-.LVL3
 3857 009e 8008     		.uleb128 .LVL73-.LVL3
 3858 00a0 01       		.uleb128 0x1
 3859 00a1 50       		.byte	0x50
 3860 00a2 04       		.byte	0x4
 3861 00a3 9C08     		.uleb128 .LVL75-.LVL3
 3862 00a5 A808     		.uleb128 .LVL76-.LVL3
 3863 00a7 01       		.uleb128 0x1
 3864 00a8 50       		.byte	0x50
 3865 00a9 04       		.byte	0x4
 3866 00aa F408     		.uleb128 .LVL81-.LVL3
 3867 00ac 8009     		.uleb128 .LVL82-.LVL3
 3868 00ae 01       		.uleb128 0x1
 3869 00af 50       		.byte	0x50
 3870 00b0 04       		.byte	0x4
 3871 00b1 B80A     		.uleb128 .LVL91-.LVL3
ARM GAS  /tmp/ccrAlYmd.s 			page 69


 3872 00b3 C00A     		.uleb128 .LVL92-.LVL3
 3873 00b5 01       		.uleb128 0x1
 3874 00b6 50       		.byte	0x50
 3875 00b7 04       		.byte	0x4
 3876 00b8 E00A     		.uleb128 .LVL95-.LVL3
 3877 00ba E80A     		.uleb128 .LVL96-.LVL3
 3878 00bc 01       		.uleb128 0x1
 3879 00bd 50       		.byte	0x50
 3880 00be 04       		.byte	0x4
 3881 00bf 880B     		.uleb128 .LVL99-.LVL3
 3882 00c1 900B     		.uleb128 .LVL100-.LVL3
 3883 00c3 01       		.uleb128 0x1
 3884 00c4 50       		.byte	0x50
 3885 00c5 04       		.byte	0x4
 3886 00c6 B00B     		.uleb128 .LVL103-.LVL3
 3887 00c8 B80B     		.uleb128 .LVL104-.LVL3
 3888 00ca 01       		.uleb128 0x1
 3889 00cb 50       		.byte	0x50
 3890 00cc 04       		.byte	0x4
 3891 00cd D40B     		.uleb128 .LVL106-.LVL3
 3892 00cf E00B     		.uleb128 .LVL107-.LVL3
 3893 00d1 01       		.uleb128 0x1
 3894 00d2 50       		.byte	0x50
 3895 00d3 04       		.byte	0x4
 3896 00d4 AC0C     		.uleb128 .LVL112-.LVL3
 3897 00d6 B80C     		.uleb128 .LVL113-.LVL3
 3898 00d8 01       		.uleb128 0x1
 3899 00d9 50       		.byte	0x50
 3900 00da 00       		.byte	0
 3901              	.LVUS1:
 3902 00db 00       		.uleb128 .LVU8
 3903 00dc 02       		.uleb128 .LVU14
 3904 00dd 03       		.uleb128 .LVU82
 3905 00de 00       		.uleb128 .LVU85
 3906 00df 00       		.uleb128 .LVU85
 3907 00e0 01       		.uleb128 .LVU94
 3908 00e1 01       		.uleb128 .LVU94
 3909 00e2 00       		.uleb128 .LVU95
 3910 00e3 00       		.uleb128 .LVU95
 3911 00e4 00       		.uleb128 .LVU182
 3912 00e5 00       		.uleb128 .LVU183
 3913 00e6 01       		.uleb128 .LVU198
 3914 00e7 01       		.uleb128 .LVU198
 3915 00e8 00       		.uleb128 .LVU199
 3916 00e9 00       		.uleb128 .LVU199
 3917 00ea 00       		.uleb128 .LVU252
 3918 00eb 00       		.uleb128 .LVU253
 3919 00ec 01       		.uleb128 .LVU268
 3920 00ed 01       		.uleb128 .LVU268
 3921 00ee 00       		.uleb128 .LVU269
 3922 00ef 00       		.uleb128 .LVU269
 3923 00f0 00       		.uleb128 .LVU319
 3924              	.LLST1:
 3925 00f1 06       		.byte	0x6
 3926 00f2 30000000 		.4byte	.LVL1
 3927 00f6 04       		.byte	0x4
 3928 00f7 00       		.uleb128 .LVL1-.LVL1
ARM GAS  /tmp/ccrAlYmd.s 			page 70


 3929 00f8 24       		.uleb128 .LVL5-.LVL1
 3930 00f9 04       		.uleb128 0x4
 3931 00fa 74       		.byte	0x74
 3932 00fb BE7F     		.sleb128 -66
 3933 00fd 9F       		.byte	0x9f
 3934 00fe 04       		.byte	0x4
 3935 00ff AC03     		.uleb128 .LVL29-.LVL1
 3936 0101 B403     		.uleb128 .LVL30-.LVL1
 3937 0103 02       		.uleb128 0x2
 3938 0104 30       		.byte	0x30
 3939 0105 9F       		.byte	0x9f
 3940 0106 04       		.byte	0x4
 3941 0107 B403     		.uleb128 .LVL30-.LVL1
 3942 0109 E803     		.uleb128 .LVL35-.LVL1
 3943 010b 05       		.uleb128 0x5
 3944 010c 35       		.byte	0x35
 3945 010d 74       		.byte	0x74
 3946 010e 00       		.sleb128 0
 3947 010f 1C       		.byte	0x1c
 3948 0110 9F       		.byte	0x9f
 3949 0111 04       		.byte	0x4
 3950 0112 E803     		.uleb128 .LVL35-.LVL1
 3951 0114 EC03     		.uleb128 .LVL36-.LVL1
 3952 0116 05       		.uleb128 0x5
 3953 0117 36       		.byte	0x36
 3954 0118 74       		.byte	0x74
 3955 0119 00       		.sleb128 0
 3956 011a 1C       		.byte	0x1c
 3957 011b 9F       		.byte	0x9f
 3958 011c 04       		.byte	0x4
 3959 011d EC03     		.uleb128 .LVL36-.LVL1
 3960 011f F408     		.uleb128 .LVL79-.LVL1
 3961 0121 05       		.uleb128 0x5
 3962 0122 35       		.byte	0x35
 3963 0123 74       		.byte	0x74
 3964 0124 00       		.sleb128 0
 3965 0125 1C       		.byte	0x1c
 3966 0126 9F       		.byte	0x9f
 3967 0127 04       		.byte	0x4
 3968 0128 F808     		.uleb128 .LVL80-.LVL1
 3969 012a AC09     		.uleb128 .LVL84-.LVL1
 3970 012c 05       		.uleb128 0x5
 3971 012d 35       		.byte	0x35
 3972 012e 74       		.byte	0x74
 3973 012f 00       		.sleb128 0
 3974 0130 1C       		.byte	0x1c
 3975 0131 9F       		.byte	0x9f
 3976 0132 04       		.byte	0x4
 3977 0133 AC09     		.uleb128 .LVL84-.LVL1
 3978 0135 B009     		.uleb128 .LVL85-.LVL1
 3979 0137 05       		.uleb128 0x5
 3980 0138 36       		.byte	0x36
 3981 0139 74       		.byte	0x74
 3982 013a 00       		.sleb128 0
 3983 013b 1C       		.byte	0x1c
 3984 013c 9F       		.byte	0x9f
 3985 013d 04       		.byte	0x4
ARM GAS  /tmp/ccrAlYmd.s 			page 71


 3986 013e B009     		.uleb128 .LVL85-.LVL1
 3987 0140 AC0C     		.uleb128 .LVL110-.LVL1
 3988 0142 05       		.uleb128 0x5
 3989 0143 35       		.byte	0x35
 3990 0144 74       		.byte	0x74
 3991 0145 00       		.sleb128 0
 3992 0146 1C       		.byte	0x1c
 3993 0147 9F       		.byte	0x9f
 3994 0148 04       		.byte	0x4
 3995 0149 B00C     		.uleb128 .LVL111-.LVL1
 3996 014b E40C     		.uleb128 .LVL115-.LVL1
 3997 014d 05       		.uleb128 0x5
 3998 014e 35       		.byte	0x35
 3999 014f 74       		.byte	0x74
 4000 0150 00       		.sleb128 0
 4001 0151 1C       		.byte	0x1c
 4002 0152 9F       		.byte	0x9f
 4003 0153 04       		.byte	0x4
 4004 0154 E40C     		.uleb128 .LVL115-.LVL1
 4005 0156 E80C     		.uleb128 .LVL116-.LVL1
 4006 0158 05       		.uleb128 0x5
 4007 0159 36       		.byte	0x36
 4008 015a 74       		.byte	0x74
 4009 015b 00       		.sleb128 0
 4010 015c 1C       		.byte	0x1c
 4011 015d 9F       		.byte	0x9f
 4012 015e 04       		.byte	0x4
 4013 015f E80C     		.uleb128 .LVL116-.LVL1
 4014 0161 900F     		.uleb128 .LVL125-.LVL1
 4015 0163 05       		.uleb128 0x5
 4016 0164 35       		.byte	0x35
 4017 0165 74       		.byte	0x74
 4018 0166 00       		.sleb128 0
 4019 0167 1C       		.byte	0x1c
 4020 0168 9F       		.byte	0x9f
 4021 0169 00       		.byte	0
 4022              	.Ldebug_loc3:
 4023              		.section	.debug_aranges,"",%progbits
 4024 0000 24000000 		.4byte	0x24
 4025 0004 0200     		.2byte	0x2
 4026 0006 00000000 		.4byte	.Ldebug_info0
 4027 000a 04       		.byte	0x4
 4028 000b 00       		.byte	0
 4029 000c 0000     		.2byte	0
 4030 000e 0000     		.2byte	0
 4031 0010 00000000 		.4byte	.LFB8
 4032 0014 D0070000 		.4byte	.LFE8-.LFB8
 4033 0018 00000000 		.4byte	.LFB7
 4034 001c 18000000 		.4byte	.LFE7-.LFB7
 4035 0020 00000000 		.4byte	0
 4036 0024 00000000 		.4byte	0
 4037              		.section	.debug_rnglists,"",%progbits
 4038              	.Ldebug_ranges0:
 4039 0000 16000000 		.4byte	.Ldebug_ranges3-.Ldebug_ranges2
 4040              	.Ldebug_ranges2:
 4041 0004 0500     		.2byte	0x5
 4042 0006 04       		.byte	0x4
ARM GAS  /tmp/ccrAlYmd.s 			page 72


 4043 0007 00       		.byte	0
 4044 0008 00000000 		.4byte	0
 4045              	.LLRL2:
 4046 000c 07       		.byte	0x7
 4047 000d 00000000 		.4byte	.LFB8
 4048 0011 D00F     		.uleb128 .LFE8-.LFB8
 4049 0013 07       		.byte	0x7
 4050 0014 00000000 		.4byte	.LFB7
 4051 0018 18       		.uleb128 .LFE7-.LFB7
 4052 0019 00       		.byte	0
 4053              	.Ldebug_ranges3:
 4054              		.section	.debug_line,"",%progbits
 4055              	.Ldebug_line0:
 4056 0000 A3080000 		.section	.debug_str,"MS",%progbits,1
 4056      03002101 
 4056      00000201 
 4056      FB0E0D00 
 4056      01010101 
 4057              	.LASF40:
 4058 0000 705F6D73 		.ascii	"p_msg\000"
 4058      6700
 4059              	.LASF64:
 4060 0006 7264796D 		.ascii	"rdymsg\000"
 4060      736700
 4061              	.LASF5:
 4062 000d 5F5F7569 		.ascii	"__uint8_t\000"
 4062      6E74385F 
 4062      7400
 4063              	.LASF85:
 4064 0017 63684D42 		.ascii	"chMBPostI\000"
 4064      506F7374 
 4064      4900
 4065              	.LASF63:
 4066 0021 4D61696C 		.ascii	"Mailbox\000"
 4066      626F7800 
 4067              	.LASF84:
 4068 0029 63684D42 		.ascii	"chMBPostAheadI\000"
 4068      506F7374 
 4068      41686561 
 4068      644900
 4069              	.LASF11:
 4070 0038 6C6F6E67 		.ascii	"long long unsigned int\000"
 4070      206C6F6E 
 4070      6720756E 
 4070      7369676E 
 4070      65642069 
 4071              	.LASF77:
 4072 004f 70617474 		.ascii	"patternmbox\000"
 4072      65726E6D 
 4072      626F7800 
 4073              	.LASF65:
 4074 005b 65786974 		.ascii	"exitcode\000"
 4074      636F6465 
 4074      00
 4075              	.LASF75:
 4076 0064 74657374 		.ascii	"test\000"
 4076      00
ARM GAS  /tmp/ccrAlYmd.s 			page 73


 4077              	.LASF59:
 4078 0069 6D625F77 		.ascii	"mb_wrptr\000"
 4078      72707472 
 4078      00
 4079              	.LASF28:
 4080 0072 705F7072 		.ascii	"p_prio\000"
 4080      696F00
 4081              	.LASF10:
 4082 0079 6C6F6E67 		.ascii	"long long int\000"
 4082      206C6F6E 
 4082      6720696E 
 4082      7400
 4083              	.LASF1:
 4084 0087 7369676E 		.ascii	"signed char\000"
 4084      65642063 
 4084      68617200 
 4085              	.LASF15:
 4086 0093 626F6F6C 		.ascii	"bool_t\000"
 4086      5F7400
 4087              	.LASF33:
 4088 009a 705F7374 		.ascii	"p_state\000"
 4088      61746500 
 4089              	.LASF82:
 4090 00a2 74657374 		.ascii	"test_emit_token\000"
 4090      5F656D69 
 4090      745F746F 
 4090      6B656E00 
 4091              	.LASF19:
 4092 00b2 74736C69 		.ascii	"tslices_t\000"
 4092      6365735F 
 4092      7400
 4093              	.LASF87:
 4094 00bc 63684D42 		.ascii	"chMBPost\000"
 4094      506F7374 
 4094      00
 4095              	.LASF7:
 4096 00c5 6C6F6E67 		.ascii	"long int\000"
 4096      20696E74 
 4096      00
 4097              	.LASF17:
 4098 00ce 74737461 		.ascii	"tstate_t\000"
 4098      74655F74 
 4098      00
 4099              	.LASF74:
 4100 00d7 62756666 		.ascii	"buffer\000"
 4100      657200
 4101              	.LASF30:
 4102 00de 705F6E65 		.ascii	"p_newer\000"
 4102      77657200 
 4103              	.LASF51:
 4104 00e6 735F7175 		.ascii	"s_queue\000"
 4104      65756500 
 4105              	.LASF8:
 4106 00ee 5F5F7569 		.ascii	"__uint32_t\000"
 4106      6E743332 
 4106      5F7400
 4107              	.LASF47:
ARM GAS  /tmp/ccrAlYmd.s 			page 74


 4108 00f9 72656761 		.ascii	"regarm_t\000"
 4108      726D5F74 
 4108      00
 4109              	.LASF24:
 4110 0102 636E745F 		.ascii	"cnt_t\000"
 4110      7400
 4111              	.LASF0:
 4112 0108 756E7369 		.ascii	"unsigned int\000"
 4112      676E6564 
 4112      20696E74 
 4112      00
 4113              	.LASF78:
 4114 0115 63684D42 		.ascii	"chMBInit\000"
 4114      496E6974 
 4114      00
 4115              	.LASF89:
 4116 011e 6D736731 		.ascii	"msg1\000"
 4116      00
 4117              	.LASF90:
 4118 0123 6D736732 		.ascii	"msg2\000"
 4118      00
 4119              	.LASF9:
 4120 0128 6C6F6E67 		.ascii	"long unsigned int\000"
 4120      20756E73 
 4120      69676E65 
 4120      6420696E 
 4120      7400
 4121              	.LASF72:
 4122 013a 74656172 		.ascii	"teardown\000"
 4122      646F776E 
 4122      00
 4123              	.LASF62:
 4124 0143 6D625F65 		.ascii	"mb_emptysem\000"
 4124      6D707479 
 4124      73656D00 
 4125              	.LASF70:
 4126 014f 6E616D65 		.ascii	"name\000"
 4126      00
 4127              	.LASF52:
 4128 0154 735F636E 		.ascii	"s_cnt\000"
 4128      7400
 4129              	.LASF49:
 4130 015a 636F6E74 		.ascii	"context\000"
 4130      65787400 
 4131              	.LASF4:
 4132 0162 73686F72 		.ascii	"short unsigned int\000"
 4132      7420756E 
 4132      7369676E 
 4132      65642069 
 4132      6E7400
 4133              	.LASF80:
 4134 0175 63684D42 		.ascii	"chMBFetchI\000"
 4134      46657463 
 4134      684900
 4135              	.LASF21:
 4136 0180 6D73675F 		.ascii	"msg_t\000"
 4136      7400
ARM GAS  /tmp/ccrAlYmd.s 			page 75


 4137              	.LASF16:
 4138 0186 746D6F64 		.ascii	"tmode_t\000"
 4138      655F7400 
 4139              	.LASF96:
 4140 018e 6D626F78 		.ascii	"mbox1_setup\000"
 4140      315F7365 
 4140      74757000 
 4141              	.LASF45:
 4142 019a 54687265 		.ascii	"ThreadsList\000"
 4142      6164734C 
 4142      69737400 
 4143              	.LASF22:
 4144 01a6 6576656E 		.ascii	"eventmask_t\000"
 4144      746D6173 
 4144      6B5F7400 
 4145              	.LASF53:
 4146 01b2 4D757465 		.ascii	"Mutex\000"
 4146      7800
 4147              	.LASF76:
 4148 01b8 74657374 		.ascii	"testmbox1\000"
 4148      6D626F78 
 4148      3100
 4149              	.LASF46:
 4150 01c2 73746B61 		.ascii	"stkalign_t\000"
 4150      6C69676E 
 4150      5F7400
 4151              	.LASF91:
 4152 01cd 474E5520 		.ascii	"GNU C17 11.2.0 -mcpu=arm1176jz-s -mno-thumb-interwo"
 4152      43313720 
 4152      31312E32 
 4152      2E30202D 
 4152      6D637075 
 4153 0200 726B202D 		.ascii	"rk -mfloat-abi=soft -marm -march=armv6kz -ggdb -O2 "
 4153      6D666C6F 
 4153      61742D61 
 4153      62693D73 
 4153      6F667420 
 4154 0233 2D666F6D 		.ascii	"-fomit-frame-pointer -ffunction-sections -fdata-sec"
 4154      69742D66 
 4154      72616D65 
 4154      2D706F69 
 4154      6E746572 
 4155 0266 74696F6E 		.ascii	"tions\000"
 4155      7300
 4156              	.LASF60:
 4157 026c 6D625F72 		.ascii	"mb_rdptr\000"
 4157      64707472 
 4157      00
 4158              	.LASF79:
 4159 0275 63684D42 		.ascii	"chMBReset\000"
 4159      52657365 
 4159      7400
 4160              	.LASF93:
 4161 027f 2F686F6D 		.ascii	"/home/sergi/uni/seu/ChibiOS-RPi/demos/led\000"
 4161      652F7365 
 4161      7267692F 
 4161      756E692F 
ARM GAS  /tmp/ccrAlYmd.s 			page 76


 4161      7365752F 
 4162              	.LASF31:
 4163 02a9 705F6F6C 		.ascii	"p_older\000"
 4163      64657200 
 4164              	.LASF44:
 4165 02b1 54687265 		.ascii	"ThreadsQueue\000"
 4165      61647351 
 4165      75657565 
 4165      00
 4166              	.LASF71:
 4167 02be 73657475 		.ascii	"setup\000"
 4167      7000
 4168              	.LASF81:
 4169 02c4 5F746573 		.ascii	"_test_assert_sequence\000"
 4169      745F6173 
 4169      73657274 
 4169      5F736571 
 4169      75656E63 
 4170              	.LASF57:
 4171 02da 6D625F62 		.ascii	"mb_buffer\000"
 4171      75666665 
 4171      7200
 4172              	.LASF95:
 4173 02e4 6D626F78 		.ascii	"mbox1_execute\000"
 4173      315F6578 
 4173      65637574 
 4173      6500
 4174              	.LASF18:
 4175 02f2 74726566 		.ascii	"trefs_t\000"
 4175      735F7400 
 4176              	.LASF27:
 4177 02fa 705F7072 		.ascii	"p_prev\000"
 4177      657600
 4178              	.LASF73:
 4179 0301 65786563 		.ascii	"execute\000"
 4179      75746500 
 4180              	.LASF20:
 4181 0309 74707269 		.ascii	"tprio_t\000"
 4181      6F5F7400 
 4182              	.LASF13:
 4183 0311 696E7433 		.ascii	"int32_t\000"
 4183      325F7400 
 4184              	.LASF2:
 4185 0319 756E7369 		.ascii	"unsigned char\000"
 4185      676E6564 
 4185      20636861 
 4185      7200
 4186              	.LASF54:
 4187 0327 6D5F7175 		.ascii	"m_queue\000"
 4187      65756500 
 4188              	.LASF58:
 4189 032f 6D625F74 		.ascii	"mb_top\000"
 4189      6F7000
 4190              	.LASF42:
 4191 0336 705F6D74 		.ascii	"p_mtxlist\000"
 4191      786C6973 
 4191      7400
ARM GAS  /tmp/ccrAlYmd.s 			page 77


 4192              	.LASF3:
 4193 0340 73686F72 		.ascii	"short int\000"
 4193      7420696E 
 4193      7400
 4194              	.LASF92:
 4195 034a 2E2E2F2E 		.ascii	"../../test/testmbox.c\000"
 4195      2E2F7465 
 4195      73742F74 
 4195      6573746D 
 4195      626F782E 
 4196              	.LASF36:
 4197 0360 705F7072 		.ascii	"p_preempt\000"
 4197      65656D70 
 4197      7400
 4198              	.LASF67:
 4199 036a 65776D61 		.ascii	"ewmask\000"
 4199      736B00
 4200              	.LASF26:
 4201 0371 705F6E65 		.ascii	"p_next\000"
 4201      787400
 4202              	.LASF34:
 4203 0378 705F666C 		.ascii	"p_flags\000"
 4203      61677300 
 4204              	.LASF25:
 4205 0380 54687265 		.ascii	"Thread\000"
 4205      616400
 4206              	.LASF69:
 4207 0387 74657374 		.ascii	"testcase\000"
 4207      63617365 
 4207      00
 4208              	.LASF41:
 4209 0390 705F6570 		.ascii	"p_epending\000"
 4209      656E6469 
 4209      6E6700
 4210              	.LASF14:
 4211 039b 75696E74 		.ascii	"uint32_t\000"
 4211      33325F74 
 4211      00
 4212              	.LASF68:
 4213 03a4 63686172 		.ascii	"char\000"
 4213      00
 4214              	.LASF56:
 4215 03a9 6D5F6E65 		.ascii	"m_next\000"
 4215      787400
 4216              	.LASF23:
 4217 03b0 73797374 		.ascii	"systime_t\000"
 4217      696D655F 
 4217      7400
 4218              	.LASF43:
 4219 03ba 705F7265 		.ascii	"p_realprio\000"
 4219      616C7072 
 4219      696F00
 4220              	.LASF6:
 4221 03c5 5F5F696E 		.ascii	"__int32_t\000"
 4221      7433325F 
 4221      7400
 4222              	.LASF37:
ARM GAS  /tmp/ccrAlYmd.s 			page 78


 4223 03cf 705F7469 		.ascii	"p_time\000"
 4223      6D6500
 4224              	.LASF86:
 4225 03d6 63684D42 		.ascii	"chMBPostAhead\000"
 4225      506F7374 
 4225      41686561 
 4225      6400
 4226              	.LASF48:
 4227 03e4 696E7463 		.ascii	"intctx\000"
 4227      747800
 4228              	.LASF39:
 4229 03eb 705F6D73 		.ascii	"p_msgqueue\000"
 4229      67717565 
 4229      756500
 4230              	.LASF83:
 4231 03f6 63684D42 		.ascii	"chMBFetch\000"
 4231      46657463 
 4231      6800
 4232              	.LASF50:
 4233 0400 53656D61 		.ascii	"Semaphore\000"
 4233      70686F72 
 4233      6500
 4234              	.LASF61:
 4235 040a 6D625F66 		.ascii	"mb_fullsem\000"
 4235      756C6C73 
 4235      656D00
 4236              	.LASF94:
 4237 0415 74657374 		.ascii	"test_buffers\000"
 4237      5F627566 
 4237      66657273 
 4237      00
 4238              	.LASF35:
 4239 0422 705F7265 		.ascii	"p_refs\000"
 4239      667300
 4240              	.LASF12:
 4241 0429 75696E74 		.ascii	"uint8_t\000"
 4241      385F7400 
 4242              	.LASF66:
 4243 0431 77746F62 		.ascii	"wtobjp\000"
 4243      6A7000
 4244              	.LASF32:
 4245 0438 705F6E61 		.ascii	"p_name\000"
 4245      6D6500
 4246              	.LASF88:
 4247 043f 5F746573 		.ascii	"_test_assert\000"
 4247      745F6173 
 4247      73657274 
 4247      00
 4248              	.LASF55:
 4249 044c 6D5F6F77 		.ascii	"m_owner\000"
 4249      6E657200 
 4250              	.LASF29:
 4251 0454 705F6374 		.ascii	"p_ctx\000"
 4251      7800
 4252              	.LASF38:
 4253 045a 705F7761 		.ascii	"p_waiting\000"
 4253      6974696E 
ARM GAS  /tmp/ccrAlYmd.s 			page 79


 4253      6700
 4254              		.ident	"GCC: (Arch Repository) 11.2.0"
ARM GAS  /tmp/ccrAlYmd.s 			page 80


DEFINED SYMBOLS
                            *ABS*:0000000000000000 testmbox.c
     /tmp/ccrAlYmd.s:16     .rodata.mbox1_execute.str1.4:0000000000000000 $d
     /tmp/ccrAlYmd.s:20     .text.mbox1_execute:0000000000000000 $a
     /tmp/ccrAlYmd.s:26     .text.mbox1_execute:0000000000000000 mbox1_execute
     /tmp/ccrAlYmd.s:1179   .text.mbox1_execute:00000000000007c8 $d
     /tmp/ccrAlYmd.s:1185   .text.mbox1_setup:0000000000000000 $a
     /tmp/ccrAlYmd.s:1190   .text.mbox1_setup:0000000000000000 mbox1_setup
     /tmp/ccrAlYmd.s:1206   .text.mbox1_setup:0000000000000010 $d
     /tmp/ccrAlYmd.s:1237   .rodata.patternmbox:0000000000000000 patternmbox
     /tmp/ccrAlYmd.s:1244   .rodata.testmbox1:0000000000000000 testmbox1
     /tmp/ccrAlYmd.s:1214   .rodata.str1.4:0000000000000000 $d
     /tmp/ccrAlYmd.s:1218   .data.mb1:0000000000000000 $d
     /tmp/ccrAlYmd.s:1222   .data.mb1:0000000000000000 mb1
     /tmp/ccrAlYmd.s:1234   .rodata.patternmbox:0000000000000000 $d
     /tmp/ccrAlYmd.s:1241   .rodata.testmbox1:0000000000000000 $d

UNDEFINED SYMBOLS
_test_assert
chMBPost
chMBPostAhead
chMBPostI
chMBPostAheadI
chMBFetch
test_emit_token
_test_assert_sequence
chMBFetchI
chMBReset
chMBInit
test
