ARM GAS  /tmp/cc2M6ISX.s 			page 1


   1              		.cpu arm1176jz-s
   2              		.eabi_attribute 20, 1
   3              		.eabi_attribute 21, 1
   4              		.eabi_attribute 23, 3
   5              		.eabi_attribute 24, 1
   6              		.eabi_attribute 25, 1
   7              		.eabi_attribute 26, 1
   8              		.eabi_attribute 30, 2
   9              		.eabi_attribute 34, 1
  10              		.eabi_attribute 18, 4
  11              		.file	"testbmk.c"
  12              		.text
  13              	.Ltext0:
  14              		.cfi_sections	.debug_frame
  15              		.section	.text.thread2,"ax",%progbits
  16              		.align	2
  17              		.arch armv6kz
  18              		.syntax unified
  19              		.arm
  20              		.fpu softvfp
  21              		.type	thread2, %function
  22              	thread2:
  23              	.LVL0:
  24              	.LFB11:
  25              		.file 1 "../../test/testbmk.c"
  26              		.loc 1 158 31 view -0
  27              		.cfi_startproc
  28              		@ args = 0, pretend = 0, frame = 0
  29              		@ frame_needed = 0, uses_anonymous_args = 0
  30              		@ link register save eliminated.
  31              		.loc 1 160 3 view .LVU1
  32              		.loc 1 161 1 is_stmt 0 view .LVU2
  33 0000 1EFF2FE1 		bx	lr
  34              		.cfi_endproc
  35              	.LFE11:
  36              		.size	thread2, .-thread2
  37              		.section	.text.tmo,"ax",%progbits
  38              		.align	2
  39              		.syntax unified
  40              		.arm
  41              		.fpu softvfp
  42              		.type	tmo, %function
  43              	tmo:
  44              	.LVL1:
  45              	.LFB23:
  46              		.loc 1 504 30 is_stmt 1 view -0
  47              		.cfi_startproc
  48              		@ args = 0, pretend = 0, frame = 0
  49              		@ frame_needed = 0, uses_anonymous_args = 0
  50              		@ link register save eliminated.
  51              		.loc 1 504 31 view .LVU4
  52              		.loc 1 504 43 is_stmt 0 view .LVU5
  53 0000 1EFF2FE1 		bx	lr
  54              		.cfi_endproc
  55              	.LFE23:
  56              		.size	tmo, .-tmo
  57              		.section	.rodata.bmk13_execute.str1.4,"aMS",%progbits,1
ARM GAS  /tmp/cc2M6ISX.s 			page 2


  58              		.align	2
  59              	.LC0:
  60 0000 2D2D2D20 		.ascii	"--- System: \000"
  60      53797374 
  60      656D3A20 
  60      00
  61 000d 000000   		.align	2
  62              	.LC1:
  63 0010 20627974 		.ascii	" bytes\000"
  63      657300
  64 0017 00       		.align	2
  65              	.LC2:
  66 0018 2D2D2D20 		.ascii	"--- Thread: \000"
  66      54687265 
  66      61643A20 
  66      00
  67 0025 000000   		.align	2
  68              	.LC3:
  69 0028 2D2D2D20 		.ascii	"--- Timer : \000"
  69      54696D65 
  69      72203A20 
  69      00
  70 0035 000000   		.align	2
  71              	.LC4:
  72 0038 2D2D2D20 		.ascii	"--- Semaph: \000"
  72      53656D61 
  72      70683A20 
  72      00
  73 0045 000000   		.align	2
  74              	.LC5:
  75 0048 2D2D2D20 		.ascii	"--- EventS: \000"
  75      4576656E 
  75      74533A20 
  75      00
  76 0055 000000   		.align	2
  77              	.LC6:
  78 0058 2D2D2D20 		.ascii	"--- EventL: \000"
  78      4576656E 
  78      744C3A20 
  78      00
  79 0065 000000   		.align	2
  80              	.LC7:
  81 0068 2D2D2D20 		.ascii	"--- Mutex : \000"
  81      4D757465 
  81      78203A20 
  81      00
  82 0075 000000   		.align	2
  83              	.LC8:
  84 0078 2D2D2D20 		.ascii	"--- CondV.: \000"
  84      436F6E64 
  84      562E3A20 
  84      00
  85 0085 000000   		.align	2
  86              	.LC9:
  87 0088 2D2D2D20 		.ascii	"--- Queue : \000"
  87      51756575 
  87      65203A20 
ARM GAS  /tmp/cc2M6ISX.s 			page 3


  87      00
  88 0095 000000   		.align	2
  89              	.LC10:
  90 0098 2D2D2D20 		.ascii	"--- MailB.: \000"
  90      4D61696C 
  90      422E3A20 
  90      00
  91              		.section	.text.bmk13_execute,"ax",%progbits
  92              		.align	2
  93              		.syntax unified
  94              		.arm
  95              		.fpu softvfp
  96              		.type	bmk13_execute, %function
  97              	bmk13_execute:
  98              	.LFB29:
  99              		.loc 1 637 33 is_stmt 1 view -0
 100              		.cfi_startproc
 101              		@ args = 0, pretend = 0, frame = 0
 102              		@ frame_needed = 0, uses_anonymous_args = 0
 103              		.loc 1 639 3 view .LVU7
 104              		.loc 1 637 33 is_stmt 0 view .LVU8
 105 0000 10402DE9 		push	{r4, lr}
 106              		.cfi_def_cfa_offset 8
 107              		.cfi_offset 4, -8
 108              		.cfi_offset 14, -4
 109              		.loc 1 639 3 view .LVU9
 110 0004 F0009FE5 		ldr	r0, .L6
 111              		.loc 1 645 3 view .LVU10
 112 0008 F0409FE5 		ldr	r4, .L6+4
 113              		.loc 1 639 3 view .LVU11
 114 000c FEFFFFEB 		bl	test_print
 115              	.LVL2:
 116              		.loc 1 640 3 is_stmt 1 view .LVU12
 117 0010 160EA0E3 		mov	r0, #352
 118 0014 FEFFFFEB 		bl	test_printn
 119              	.LVL3:
 120              		.loc 1 645 3 view .LVU13
 121 0018 0400A0E1 		mov	r0, r4
 122 001c FEFFFFEB 		bl	test_println
 123              	.LVL4:
 124              		.loc 1 646 3 view .LVU14
 125 0020 DC009FE5 		ldr	r0, .L6+8
 126 0024 FEFFFFEB 		bl	test_print
 127              	.LVL5:
 128              		.loc 1 647 3 view .LVU15
 129 0028 4400A0E3 		mov	r0, #68
 130 002c FEFFFFEB 		bl	test_printn
 131              	.LVL6:
 132              		.loc 1 648 3 view .LVU16
 133 0030 0400A0E1 		mov	r0, r4
 134 0034 FEFFFFEB 		bl	test_println
 135              	.LVL7:
 136              		.loc 1 649 3 view .LVU17
 137 0038 C8009FE5 		ldr	r0, .L6+12
 138 003c FEFFFFEB 		bl	test_print
 139              	.LVL8:
 140              		.loc 1 650 3 view .LVU18
ARM GAS  /tmp/cc2M6ISX.s 			page 4


 141 0040 1400A0E3 		mov	r0, #20
 142 0044 FEFFFFEB 		bl	test_printn
 143              	.LVL9:
 144              		.loc 1 651 3 view .LVU19
 145 0048 0400A0E1 		mov	r0, r4
 146 004c FEFFFFEB 		bl	test_println
 147              	.LVL10:
 148              		.loc 1 652 3 view .LVU20
 149 0050 B4009FE5 		ldr	r0, .L6+16
 150 0054 FEFFFFEB 		bl	test_print
 151              	.LVL11:
 152              		.loc 1 653 3 view .LVU21
 153 0058 0C00A0E3 		mov	r0, #12
 154 005c FEFFFFEB 		bl	test_printn
 155              	.LVL12:
 156              		.loc 1 654 3 view .LVU22
 157 0060 0400A0E1 		mov	r0, r4
 158 0064 FEFFFFEB 		bl	test_println
 159              	.LVL13:
 160              		.loc 1 656 3 view .LVU23
 161 0068 A0009FE5 		ldr	r0, .L6+20
 162 006c FEFFFFEB 		bl	test_print
 163              	.LVL14:
 164              		.loc 1 657 3 view .LVU24
 165 0070 0400A0E3 		mov	r0, #4
 166 0074 FEFFFFEB 		bl	test_printn
 167              	.LVL15:
 168              		.loc 1 658 3 view .LVU25
 169 0078 0400A0E1 		mov	r0, r4
 170 007c FEFFFFEB 		bl	test_println
 171              	.LVL16:
 172              		.loc 1 659 3 view .LVU26
 173 0080 8C009FE5 		ldr	r0, .L6+24
 174 0084 FEFFFFEB 		bl	test_print
 175              	.LVL17:
 176              		.loc 1 660 3 view .LVU27
 177 0088 1000A0E3 		mov	r0, #16
 178 008c FEFFFFEB 		bl	test_printn
 179              	.LVL18:
 180              		.loc 1 661 3 view .LVU28
 181 0090 0400A0E1 		mov	r0, r4
 182 0094 FEFFFFEB 		bl	test_println
 183              	.LVL19:
 184              		.loc 1 664 3 view .LVU29
 185 0098 78009FE5 		ldr	r0, .L6+28
 186 009c FEFFFFEB 		bl	test_print
 187              	.LVL20:
 188              		.loc 1 665 3 view .LVU30
 189 00a0 1000A0E3 		mov	r0, #16
 190 00a4 FEFFFFEB 		bl	test_printn
 191              	.LVL21:
 192              		.loc 1 666 3 view .LVU31
 193 00a8 0400A0E1 		mov	r0, r4
 194 00ac FEFFFFEB 		bl	test_println
 195              	.LVL22:
 196              		.loc 1 669 3 view .LVU32
 197 00b0 64009FE5 		ldr	r0, .L6+32
ARM GAS  /tmp/cc2M6ISX.s 			page 5


 198 00b4 FEFFFFEB 		bl	test_print
 199              	.LVL23:
 200              		.loc 1 670 3 view .LVU33
 201 00b8 0800A0E3 		mov	r0, #8
 202 00bc FEFFFFEB 		bl	test_printn
 203              	.LVL24:
 204              		.loc 1 671 3 view .LVU34
 205 00c0 0400A0E1 		mov	r0, r4
 206 00c4 FEFFFFEB 		bl	test_println
 207              	.LVL25:
 208              		.loc 1 674 3 view .LVU35
 209 00c8 50009FE5 		ldr	r0, .L6+36
 210 00cc FEFFFFEB 		bl	test_print
 211              	.LVL26:
 212              		.loc 1 675 3 view .LVU36
 213 00d0 2400A0E3 		mov	r0, #36
 214 00d4 FEFFFFEB 		bl	test_printn
 215              	.LVL27:
 216              		.loc 1 676 3 view .LVU37
 217 00d8 0400A0E1 		mov	r0, r4
 218 00dc FEFFFFEB 		bl	test_println
 219              	.LVL28:
 220              		.loc 1 679 3 view .LVU38
 221 00e0 3C009FE5 		ldr	r0, .L6+40
 222 00e4 FEFFFFEB 		bl	test_print
 223              	.LVL29:
 224              		.loc 1 680 3 view .LVU39
 225 00e8 2800A0E3 		mov	r0, #40
 226 00ec FEFFFFEB 		bl	test_printn
 227              	.LVL30:
 228              		.loc 1 681 3 view .LVU40
 229 00f0 0400A0E1 		mov	r0, r4
 230              		.loc 1 683 1 is_stmt 0 view .LVU41
 231 00f4 1040BDE8 		pop	{r4, lr}
 232              		.cfi_restore 14
 233              		.cfi_restore 4
 234              		.cfi_def_cfa_offset 0
 235              		.loc 1 681 3 view .LVU42
 236 00f8 FEFFFFEA 		b	test_println
 237              	.LVL31:
 238              	.L7:
 239              		.align	2
 240              	.L6:
 241 00fc 00000000 		.word	.LC0
 242 0100 10000000 		.word	.LC1
 243 0104 18000000 		.word	.LC2
 244 0108 28000000 		.word	.LC3
 245 010c 38000000 		.word	.LC4
 246 0110 48000000 		.word	.LC5
 247 0114 58000000 		.word	.LC6
 248 0118 68000000 		.word	.LC7
 249 011c 78000000 		.word	.LC8
 250 0120 88000000 		.word	.LC9
 251 0124 98000000 		.word	.LC10
 252              		.cfi_endproc
 253              	.LFE29:
 254              		.size	bmk13_execute, .-bmk13_execute
ARM GAS  /tmp/cc2M6ISX.s 			page 6


 255              		.section	.text.thread1,"ax",%progbits
 256              		.align	2
 257              		.syntax unified
 258              		.arm
 259              		.fpu softvfp
 260              		.type	thread1, %function
 261              	thread1:
 262              	.LFB7:
 263              		.loc 1 68 31 is_stmt 1 view -0
 264              		.cfi_startproc
 265              		@ args = 0, pretend = 0, frame = 0
 266              		@ frame_needed = 0, uses_anonymous_args = 0
 267              	.LVL32:
 268              		.loc 1 68 31 is_stmt 0 view .LVU44
 269 0000 10402DE9 		push	{r4, lr}
 270              		.cfi_def_cfa_offset 8
 271              		.cfi_offset 4, -8
 272              		.cfi_offset 14, -4
 273              	.LVL33:
 274              	.L9:
 275              		.loc 1 69 3 is_stmt 1 discriminator 1 view .LVU45
 276              		.loc 1 70 3 discriminator 1 view .LVU46
 277              		.loc 1 72 3 discriminator 1 view .LVU47
 278              		.loc 1 73 3 discriminator 1 view .LVU48
 279              		.loc 1 74 5 discriminator 1 view .LVU49
 280              		.loc 1 74 10 is_stmt 0 discriminator 1 view .LVU50
 281 0004 FEFFFFEB 		bl	chMsgWait
 282              	.LVL34:
 283              		.loc 1 75 5 is_stmt 1 discriminator 1 view .LVU51
 284              		.loc 1 75 9 is_stmt 0 discriminator 1 view .LVU52
 285 0008 344090E5 		ldr	r4, [r0, #52]
 286              	.LVL35:
 287              		.loc 1 76 5 is_stmt 1 discriminator 1 view .LVU53
 288 000c 0410A0E1 		mov	r1, r4
 289 0010 FEFFFFEB 		bl	chMsgRelease
 290              	.LVL36:
 291              		.loc 1 77 12 discriminator 1 view .LVU54
 292 0014 000054E3 		cmp	r4, #0
 293 0018 F9FFFF1A 		bne	.L9
 294              		.loc 1 78 3 view .LVU55
 295              		.loc 1 79 1 is_stmt 0 view .LVU56
 296 001c 0400A0E1 		mov	r0, r4
 297 0020 1080BDE8 		pop	{r4, pc}
 298              		.cfi_endproc
 299              	.LFE7:
 300              		.size	thread1, .-thread1
 301              		.section	.rodata.bmk6_execute.str1.4,"aMS",%progbits,1
 302              		.align	2
 303              	.LC11:
 304 0000 2D2D2D20 		.ascii	"--- Score : \000"
 304      53636F72 
 304      65203A20 
 304      00
 305 000d 000000   		.align	2
 306              	.LC12:
 307 0010 20746872 		.ascii	" threads/S\000"
 307      65616473 
ARM GAS  /tmp/cc2M6ISX.s 			page 7


 307      2F5300
 308              		.section	.text.bmk6_execute,"ax",%progbits
 309              		.align	2
 310              		.syntax unified
 311              		.arm
 312              		.fpu softvfp
 313              		.type	bmk6_execute, %function
 314              	bmk6_execute:
 315              	.LFB16:
 316              		.loc 1 308 32 is_stmt 1 view -0
 317              		.cfi_startproc
 318              		@ args = 0, pretend = 0, frame = 0
 319              		@ frame_needed = 0, uses_anonymous_args = 0
 320              		.loc 1 310 3 view .LVU58
 321              	.LVL37:
 322              		.loc 1 311 3 view .LVU59
 323              		.loc 1 308 32 is_stmt 0 view .LVU60
 324 0000 F0432DE9 		push	{r4, r5, r6, r7, r8, r9, lr}
 325              		.cfi_def_cfa_offset 28
 326              		.cfi_offset 4, -28
 327              		.cfi_offset 5, -24
 328              		.cfi_offset 6, -20
 329              		.cfi_offset 7, -16
 330              		.cfi_offset 8, -12
 331              		.cfi_offset 9, -8
 332              		.cfi_offset 14, -4
 333              		.loc 1 310 12 view .LVU61
 334 0004 0040A0E3 		mov	r4, #0
 335              		.loc 1 312 18 view .LVU62
 336 0008 74309FE5 		ldr	r3, .L17
 337              		.loc 1 311 9 view .LVU63
 338 000c 74209FE5 		ldr	r2, .L17+4
 339              		.loc 1 312 18 view .LVU64
 340 0010 183093E5 		ldr	r3, [r3, #24]
 341              		.loc 1 308 32 view .LVU65
 342 0014 0CD04DE2 		sub	sp, sp, #12
 343              		.cfi_def_cfa_offset 40
 344              		.loc 1 312 11 view .LVU66
 345 0018 085093E5 		ldr	r5, [r3, #8]
 346              		.loc 1 311 9 view .LVU67
 347 001c 009092E5 		ldr	r9, [r2]
 348              	.LVL38:
 349              		.loc 1 312 3 is_stmt 1 view .LVU68
 350              		.loc 1 313 3 is_stmt 0 view .LVU69
 351 0020 FEFFFFEB 		bl	test_wait_tick
 352              	.LVL39:
 353              		.loc 1 314 3 view .LVU70
 354 0024 FA0FA0E3 		mov	r0, #1000
 355 0028 FEFFFFEB 		bl	test_start_timer
 356              	.LVL40:
 357              		.loc 1 316 5 view .LVU71
 358 002c 0460A0E1 		mov	r6, r4
 359 0030 54809FE5 		ldr	r8, .L17+8
 360 0034 54709FE5 		ldr	r7, .L17+12
 361              		.loc 1 312 11 view .LVU72
 362 0038 015085E2 		add	r5, r5, #1
 363              	.LVL41:
ARM GAS  /tmp/cc2M6ISX.s 			page 8


 364              		.loc 1 313 3 is_stmt 1 view .LVU73
 365              		.loc 1 314 3 view .LVU74
 366              	.L13:
 367              		.loc 1 315 3 discriminator 1 view .LVU75
 368              		.loc 1 316 5 discriminator 1 view .LVU76
 369 003c 461FA0E3 		mov	r1, #280
 370 0040 0730A0E1 		mov	r3, r7
 371 0044 0520A0E1 		mov	r2, r5
 372 0048 0900A0E1 		mov	r0, r9
 373 004c 00608DE5 		str	r6, [sp]
 374 0050 FEFFFFEB 		bl	chThdCreateStatic
 375              	.LVL42:
 376              		.loc 1 317 5 discriminator 1 view .LVU77
 377              		.loc 1 321 12 is_stmt 0 discriminator 1 view .LVU78
 378 0054 001098E5 		ldr	r1, [r8]
 379              		.loc 1 317 6 discriminator 1 view .LVU79
 380 0058 014084E2 		add	r4, r4, #1
 381              	.LVL43:
 382              		.loc 1 321 12 is_stmt 1 discriminator 1 view .LVU80
 383 005c 000051E3 		cmp	r1, #0
 384 0060 F5FFFF0A 		beq	.L13
 385              		.loc 1 322 3 view .LVU81
 386 0064 28009FE5 		ldr	r0, .L17+16
 387 0068 FEFFFFEB 		bl	test_print
 388              	.LVL44:
 389              		.loc 1 323 3 view .LVU82
 390 006c 0400A0E1 		mov	r0, r4
 391 0070 FEFFFFEB 		bl	test_printn
 392              	.LVL45:
 393              		.loc 1 324 3 view .LVU83
 394 0074 1C009FE5 		ldr	r0, .L17+20
 395              		.loc 1 325 1 is_stmt 0 view .LVU84
 396 0078 0CD08DE2 		add	sp, sp, #12
 397              		.cfi_def_cfa_offset 28
 398              		@ sp needed
 399 007c F043BDE8 		pop	{r4, r5, r6, r7, r8, r9, lr}
 400              		.cfi_restore 14
 401              		.cfi_restore 9
 402              		.cfi_restore 8
 403              		.cfi_restore 7
 404              		.cfi_restore 6
 405              		.cfi_restore 5
 406              		.cfi_restore 4
 407              		.cfi_def_cfa_offset 0
 408              	.LVL46:
 409              		.loc 1 324 3 view .LVU85
 410 0080 FEFFFFEA 		b	test_println
 411              	.LVL47:
 412              	.L18:
 413              		.align	2
 414              	.L17:
 415 0084 00000000 		.word	rlist
 416 0088 00000000 		.word	wa
 417 008c 00000000 		.word	test_timer_done
 418 0090 00000000 		.word	thread2
 419 0094 00000000 		.word	.LC11
 420 0098 10000000 		.word	.LC12
ARM GAS  /tmp/cc2M6ISX.s 			page 9


 421              		.cfi_endproc
 422              	.LFE16:
 423              		.size	bmk6_execute, .-bmk6_execute
 424              		.section	.text.msg_loop_test,"ax",%progbits
 425              		.align	2
 426              		.syntax unified
 427              		.arm
 428              		.fpu softvfp
 429              		.type	msg_loop_test, %function
 430              	msg_loop_test:
 431              	.LVL48:
 432              	.LFB8:
 433              		.loc 1 84 47 is_stmt 1 view -0
 434              		.cfi_startproc
 435              		@ args = 0, pretend = 0, frame = 0
 436              		@ frame_needed = 0, uses_anonymous_args = 0
 437              		.loc 1 86 3 view .LVU87
 438              		.loc 1 87 3 view .LVU88
 439              		.loc 1 84 47 is_stmt 0 view .LVU89
 440 0000 70402DE9 		push	{r4, r5, r6, lr}
 441              		.cfi_def_cfa_offset 16
 442              		.cfi_offset 4, -16
 443              		.cfi_offset 5, -12
 444              		.cfi_offset 6, -8
 445              		.cfi_offset 14, -4
 446              		.loc 1 84 47 view .LVU90
 447 0004 0050A0E1 		mov	r5, r0
 448              		.loc 1 87 3 view .LVU91
 449 0008 FEFFFFEB 		bl	test_wait_tick
 450              	.LVL49:
 451              		.loc 1 88 3 is_stmt 1 view .LVU92
 452 000c FA0FA0E3 		mov	r0, #1000
 453              		.loc 1 86 12 is_stmt 0 view .LVU93
 454 0010 0040A0E3 		mov	r4, #0
 455 0014 30609FE5 		ldr	r6, .L24
 456              		.loc 1 88 3 view .LVU94
 457 0018 FEFFFFEB 		bl	test_start_timer
 458              	.LVL50:
 459              	.L20:
 460              		.loc 1 89 3 is_stmt 1 discriminator 1 view .LVU95
 461              		.loc 1 90 5 discriminator 1 view .LVU96
 462              		.loc 1 90 11 is_stmt 0 discriminator 1 view .LVU97
 463 001c 0110A0E3 		mov	r1, #1
 464 0020 0500A0E1 		mov	r0, r5
 465 0024 FEFFFFEB 		bl	chMsgSend
 466              	.LVL51:
 467              		.loc 1 91 5 is_stmt 1 discriminator 1 view .LVU98
 468              		.loc 1 95 12 is_stmt 0 discriminator 1 view .LVU99
 469 0028 003096E5 		ldr	r3, [r6]
 470              		.loc 1 91 6 discriminator 1 view .LVU100
 471 002c 014084E2 		add	r4, r4, #1
 472              	.LVL52:
 473              		.loc 1 95 12 is_stmt 1 discriminator 1 view .LVU101
 474 0030 000053E3 		cmp	r3, #0
 475 0034 F8FFFF0A 		beq	.L20
 476              		.loc 1 96 3 view .LVU102
 477              		.loc 1 96 9 is_stmt 0 view .LVU103
ARM GAS  /tmp/cc2M6ISX.s 			page 10


 478 0038 0010A0E3 		mov	r1, #0
 479 003c 0500A0E1 		mov	r0, r5
 480 0040 FEFFFFEB 		bl	chMsgSend
 481              	.LVL53:
 482              		.loc 1 97 3 is_stmt 1 view .LVU104
 483              		.loc 1 98 1 is_stmt 0 view .LVU105
 484 0044 0400A0E1 		mov	r0, r4
 485 0048 7080BDE8 		pop	{r4, r5, r6, pc}
 486              	.L25:
 487              		.align	2
 488              	.L24:
 489 004c 00000000 		.word	test_timer_done
 490              		.cfi_endproc
 491              	.LFE8:
 492              		.size	msg_loop_test, .-msg_loop_test
 493              		.section	.rodata.bmk1_execute.str1.4,"aMS",%progbits,1
 494              		.align	2
 495              	.LC13:
 496 0000 206D7367 		.ascii	" msgs/S, \000"
 496      732F532C 
 496      2000
 497 000a 0000     		.align	2
 498              	.LC14:
 499 000c 20637478 		.ascii	" ctxswc/S\000"
 499      7377632F 
 499      5300
 500              		.section	.text.bmk1_execute,"ax",%progbits
 501              		.align	2
 502              		.syntax unified
 503              		.arm
 504              		.fpu softvfp
 505              		.type	bmk1_execute, %function
 506              	bmk1_execute:
 507              	.LFB9:
 508              		.loc 1 109 32 is_stmt 1 view -0
 509              		.cfi_startproc
 510              		@ args = 0, pretend = 0, frame = 0
 511              		@ frame_needed = 0, uses_anonymous_args = 0
 512              		.loc 1 110 3 view .LVU107
 513              		.loc 1 112 3 view .LVU108
 514              		.loc 1 112 16 is_stmt 0 view .LVU109
 515 0000 00C0A0E3 		mov	ip, #0
 516              		.loc 1 109 32 view .LVU110
 517 0004 10402DE9 		push	{r4, lr}
 518              		.cfi_def_cfa_offset 8
 519              		.cfi_offset 4, -8
 520              		.cfi_offset 14, -4
 521              		.loc 1 112 50 view .LVU111
 522 0008 68309FE5 		ldr	r3, .L28
 523              		.loc 1 112 36 view .LVU112
 524 000c 68009FE5 		ldr	r0, .L28+4
 525              		.loc 1 112 50 view .LVU113
 526 0010 183093E5 		ldr	r3, [r3, #24]
 527              		.loc 1 109 32 view .LVU114
 528 0014 08D04DE2 		sub	sp, sp, #8
 529              		.cfi_def_cfa_offset 16
 530              		.loc 1 112 16 view .LVU115
ARM GAS  /tmp/cc2M6ISX.s 			page 11


 531 0018 082093E5 		ldr	r2, [r3, #8]
 532 001c 461FA0E3 		mov	r1, #280
 533 0020 012042E2 		sub	r2, r2, #1
 534 0024 00C08DE5 		str	ip, [sp]
 535 0028 50309FE5 		ldr	r3, .L28+8
 536 002c 000090E5 		ldr	r0, [r0]
 537 0030 FEFFFFEB 		bl	chThdCreateStatic
 538              	.LVL54:
 539              		.loc 1 112 14 view .LVU116
 540 0034 48309FE5 		ldr	r3, .L28+12
 541 0038 000083E5 		str	r0, [r3]
 542              		.loc 1 113 3 is_stmt 1 view .LVU117
 543              		.loc 1 113 7 is_stmt 0 view .LVU118
 544 003c FEFFFFEB 		bl	msg_loop_test
 545              	.LVL55:
 546 0040 0040A0E1 		mov	r4, r0
 547              	.LVL56:
 548              		.loc 1 114 3 is_stmt 1 view .LVU119
 549 0044 FEFFFFEB 		bl	test_wait_threads
 550              	.LVL57:
 551              		.loc 1 115 3 view .LVU120
 552 0048 38009FE5 		ldr	r0, .L28+16
 553 004c FEFFFFEB 		bl	test_print
 554              	.LVL58:
 555              		.loc 1 116 3 view .LVU121
 556 0050 0400A0E1 		mov	r0, r4
 557 0054 FEFFFFEB 		bl	test_printn
 558              	.LVL59:
 559              		.loc 1 117 3 view .LVU122
 560 0058 2C009FE5 		ldr	r0, .L28+20
 561 005c FEFFFFEB 		bl	test_print
 562              	.LVL60:
 563              		.loc 1 118 3 view .LVU123
 564 0060 8400A0E1 		lsl	r0, r4, #1
 565 0064 FEFFFFEB 		bl	test_printn
 566              	.LVL61:
 567              		.loc 1 119 3 view .LVU124
 568 0068 20009FE5 		ldr	r0, .L28+24
 569              		.loc 1 120 1 is_stmt 0 view .LVU125
 570 006c 08D08DE2 		add	sp, sp, #8
 571              		.cfi_def_cfa_offset 8
 572              		@ sp needed
 573 0070 1040BDE8 		pop	{r4, lr}
 574              		.cfi_restore 14
 575              		.cfi_restore 4
 576              		.cfi_def_cfa_offset 0
 577              	.LVL62:
 578              		.loc 1 119 3 view .LVU126
 579 0074 FEFFFFEA 		b	test_println
 580              	.LVL63:
 581              	.L29:
 582              		.align	2
 583              	.L28:
 584 0078 00000000 		.word	rlist
 585 007c 00000000 		.word	wa
 586 0080 00000000 		.word	thread1
 587 0084 00000000 		.word	threads
ARM GAS  /tmp/cc2M6ISX.s 			page 12


 588 0088 00000000 		.word	.LC11
 589 008c 00000000 		.word	.LC13
 590 0090 0C000000 		.word	.LC14
 591              		.cfi_endproc
 592              	.LFE9:
 593              		.size	bmk1_execute, .-bmk1_execute
 594              		.section	.text.bmk2_execute,"ax",%progbits
 595              		.align	2
 596              		.syntax unified
 597              		.arm
 598              		.fpu softvfp
 599              		.type	bmk2_execute, %function
 600              	bmk2_execute:
 601              	.LFB10:
 602              		.loc 1 138 32 is_stmt 1 view -0
 603              		.cfi_startproc
 604              		@ args = 0, pretend = 0, frame = 0
 605              		@ frame_needed = 0, uses_anonymous_args = 0
 606              		.loc 1 139 3 view .LVU128
 607              		.loc 1 141 3 view .LVU129
 608              		.loc 1 141 16 is_stmt 0 view .LVU130
 609 0000 00C0A0E3 		mov	ip, #0
 610              		.loc 1 138 32 view .LVU131
 611 0004 10402DE9 		push	{r4, lr}
 612              		.cfi_def_cfa_offset 8
 613              		.cfi_offset 4, -8
 614              		.cfi_offset 14, -4
 615              		.loc 1 141 50 view .LVU132
 616 0008 68309FE5 		ldr	r3, .L32
 617              		.loc 1 141 36 view .LVU133
 618 000c 68009FE5 		ldr	r0, .L32+4
 619              		.loc 1 141 50 view .LVU134
 620 0010 183093E5 		ldr	r3, [r3, #24]
 621              		.loc 1 138 32 view .LVU135
 622 0014 08D04DE2 		sub	sp, sp, #8
 623              		.cfi_def_cfa_offset 16
 624              		.loc 1 141 16 view .LVU136
 625 0018 082093E5 		ldr	r2, [r3, #8]
 626 001c 461FA0E3 		mov	r1, #280
 627 0020 012082E2 		add	r2, r2, #1
 628 0024 00C08DE5 		str	ip, [sp]
 629 0028 50309FE5 		ldr	r3, .L32+8
 630 002c 000090E5 		ldr	r0, [r0]
 631 0030 FEFFFFEB 		bl	chThdCreateStatic
 632              	.LVL64:
 633              		.loc 1 141 14 view .LVU137
 634 0034 48309FE5 		ldr	r3, .L32+12
 635 0038 000083E5 		str	r0, [r3]
 636              		.loc 1 142 3 is_stmt 1 view .LVU138
 637              		.loc 1 142 7 is_stmt 0 view .LVU139
 638 003c FEFFFFEB 		bl	msg_loop_test
 639              	.LVL65:
 640 0040 0040A0E1 		mov	r4, r0
 641              	.LVL66:
 642              		.loc 1 143 3 is_stmt 1 view .LVU140
 643 0044 FEFFFFEB 		bl	test_wait_threads
 644              	.LVL67:
ARM GAS  /tmp/cc2M6ISX.s 			page 13


 645              		.loc 1 144 3 view .LVU141
 646 0048 38009FE5 		ldr	r0, .L32+16
 647 004c FEFFFFEB 		bl	test_print
 648              	.LVL68:
 649              		.loc 1 145 3 view .LVU142
 650 0050 0400A0E1 		mov	r0, r4
 651 0054 FEFFFFEB 		bl	test_printn
 652              	.LVL69:
 653              		.loc 1 146 3 view .LVU143
 654 0058 2C009FE5 		ldr	r0, .L32+20
 655 005c FEFFFFEB 		bl	test_print
 656              	.LVL70:
 657              		.loc 1 147 3 view .LVU144
 658 0060 8400A0E1 		lsl	r0, r4, #1
 659 0064 FEFFFFEB 		bl	test_printn
 660              	.LVL71:
 661              		.loc 1 148 3 view .LVU145
 662 0068 20009FE5 		ldr	r0, .L32+24
 663              		.loc 1 149 1 is_stmt 0 view .LVU146
 664 006c 08D08DE2 		add	sp, sp, #8
 665              		.cfi_def_cfa_offset 8
 666              		@ sp needed
 667 0070 1040BDE8 		pop	{r4, lr}
 668              		.cfi_restore 14
 669              		.cfi_restore 4
 670              		.cfi_def_cfa_offset 0
 671              	.LVL72:
 672              		.loc 1 148 3 view .LVU147
 673 0074 FEFFFFEA 		b	test_println
 674              	.LVL73:
 675              	.L33:
 676              		.align	2
 677              	.L32:
 678 0078 00000000 		.word	rlist
 679 007c 00000000 		.word	wa
 680 0080 00000000 		.word	thread1
 681 0084 00000000 		.word	threads
 682 0088 00000000 		.word	.LC11
 683 008c 00000000 		.word	.LC13
 684 0090 0C000000 		.word	.LC14
 685              		.cfi_endproc
 686              	.LFE10:
 687              		.size	bmk2_execute, .-bmk2_execute
 688              		.section	.text.bmk3_execute,"ax",%progbits
 689              		.align	2
 690              		.syntax unified
 691              		.arm
 692              		.fpu softvfp
 693              		.type	bmk3_execute, %function
 694              	bmk3_execute:
 695              	.LFB12:
 696              		.loc 1 173 32 is_stmt 1 view -0
 697              		.cfi_startproc
 698              		@ args = 0, pretend = 0, frame = 0
 699              		@ frame_needed = 0, uses_anonymous_args = 0
 700              		.loc 1 174 3 view .LVU149
 701              		.loc 1 176 3 view .LVU150
ARM GAS  /tmp/cc2M6ISX.s 			page 14


 702              		.loc 1 173 32 is_stmt 0 view .LVU151
 703 0000 F0412DE9 		push	{r4, r5, r6, r7, r8, lr}
 704              		.cfi_def_cfa_offset 24
 705              		.cfi_offset 4, -24
 706              		.cfi_offset 5, -20
 707              		.cfi_offset 6, -16
 708              		.cfi_offset 7, -12
 709              		.cfi_offset 8, -8
 710              		.cfi_offset 14, -4
 711              		.loc 1 176 16 view .LVU152
 712 0004 0060A0E3 		mov	r6, #0
 713              		.loc 1 176 50 view .LVU153
 714 0008 08719FE5 		ldr	r7, .L36
 715              		.loc 1 176 36 view .LVU154
 716 000c 08519FE5 		ldr	r5, .L36+4
 717              		.loc 1 176 50 view .LVU155
 718 0010 182097E5 		ldr	r2, [r7, #24]
 719              		.loc 1 173 32 view .LVU156
 720 0014 08D04DE2 		sub	sp, sp, #8
 721              		.cfi_def_cfa_offset 32
 722              		.loc 1 176 16 view .LVU157
 723 0018 082092E5 		ldr	r2, [r2, #8]
 724 001c 461FA0E3 		mov	r1, #280
 725 0020 F8309FE5 		ldr	r3, .L36+8
 726 0024 000095E5 		ldr	r0, [r5]
 727 0028 012082E2 		add	r2, r2, #1
 728 002c 00608DE5 		str	r6, [sp]
 729 0030 FEFFFFEB 		bl	chThdCreateStatic
 730              	.LVL74:
 731              		.loc 1 177 50 view .LVU158
 732 0034 183097E5 		ldr	r3, [r7, #24]
 733              		.loc 1 176 14 view .LVU159
 734 0038 E4409FE5 		ldr	r4, .L36+12
 735              		.loc 1 177 16 view .LVU160
 736 003c E4809FE5 		ldr	r8, .L36+16
 737 0040 082093E5 		ldr	r2, [r3, #8]
 738              		.loc 1 176 14 view .LVU161
 739 0044 000084E5 		str	r0, [r4]
 740              		.loc 1 177 3 is_stmt 1 view .LVU162
 741              		.loc 1 177 16 is_stmt 0 view .LVU163
 742 0048 0830A0E1 		mov	r3, r8
 743 004c 461FA0E3 		mov	r1, #280
 744 0050 040095E5 		ldr	r0, [r5, #4]
 745 0054 00608DE5 		str	r6, [sp]
 746 0058 022042E2 		sub	r2, r2, #2
 747 005c FEFFFFEB 		bl	chThdCreateStatic
 748              	.LVL75:
 749              		.loc 1 178 50 view .LVU164
 750 0060 183097E5 		ldr	r3, [r7, #24]
 751              		.loc 1 177 14 view .LVU165
 752 0064 040084E5 		str	r0, [r4, #4]
 753              		.loc 1 178 3 is_stmt 1 view .LVU166
 754              		.loc 1 178 16 is_stmt 0 view .LVU167
 755 0068 082093E5 		ldr	r2, [r3, #8]
 756 006c 461FA0E3 		mov	r1, #280
 757 0070 0830A0E1 		mov	r3, r8
 758 0074 080095E5 		ldr	r0, [r5, #8]
ARM GAS  /tmp/cc2M6ISX.s 			page 15


 759 0078 00608DE5 		str	r6, [sp]
 760 007c 032042E2 		sub	r2, r2, #3
 761 0080 FEFFFFEB 		bl	chThdCreateStatic
 762              	.LVL76:
 763              		.loc 1 179 50 view .LVU168
 764 0084 183097E5 		ldr	r3, [r7, #24]
 765              		.loc 1 178 14 view .LVU169
 766 0088 080084E5 		str	r0, [r4, #8]
 767              		.loc 1 179 3 is_stmt 1 view .LVU170
 768              		.loc 1 179 16 is_stmt 0 view .LVU171
 769 008c 082093E5 		ldr	r2, [r3, #8]
 770 0090 461FA0E3 		mov	r1, #280
 771 0094 0830A0E1 		mov	r3, r8
 772 0098 0C0095E5 		ldr	r0, [r5, #12]
 773 009c 00608DE5 		str	r6, [sp]
 774 00a0 042042E2 		sub	r2, r2, #4
 775 00a4 FEFFFFEB 		bl	chThdCreateStatic
 776              	.LVL77:
 777 00a8 0010A0E1 		mov	r1, r0
 778              		.loc 1 180 50 view .LVU172
 779 00ac 182097E5 		ldr	r2, [r7, #24]
 780              		.loc 1 180 16 view .LVU173
 781 00b0 0830A0E1 		mov	r3, r8
 782 00b4 082092E5 		ldr	r2, [r2, #8]
 783 00b8 100095E5 		ldr	r0, [r5, #16]
 784 00bc 052042E2 		sub	r2, r2, #5
 785 00c0 00608DE5 		str	r6, [sp]
 786              		.loc 1 179 14 view .LVU174
 787 00c4 0C1084E5 		str	r1, [r4, #12]
 788              		.loc 1 180 3 is_stmt 1 view .LVU175
 789              		.loc 1 180 16 is_stmt 0 view .LVU176
 790 00c8 461FA0E3 		mov	r1, #280
 791 00cc FEFFFFEB 		bl	chThdCreateStatic
 792              	.LVL78:
 793 00d0 0030A0E1 		mov	r3, r0
 794              		.loc 1 181 7 view .LVU177
 795 00d4 000094E5 		ldr	r0, [r4]
 796              		.loc 1 180 14 view .LVU178
 797 00d8 103084E5 		str	r3, [r4, #16]
 798              		.loc 1 181 3 is_stmt 1 view .LVU179
 799              		.loc 1 181 7 is_stmt 0 view .LVU180
 800 00dc FEFFFFEB 		bl	msg_loop_test
 801              	.LVL79:
 802 00e0 0040A0E1 		mov	r4, r0
 803              	.LVL80:
 804              		.loc 1 182 3 is_stmt 1 view .LVU181
 805 00e4 FEFFFFEB 		bl	test_wait_threads
 806              	.LVL81:
 807              		.loc 1 183 3 view .LVU182
 808 00e8 3C009FE5 		ldr	r0, .L36+20
 809 00ec FEFFFFEB 		bl	test_print
 810              	.LVL82:
 811              		.loc 1 184 3 view .LVU183
 812 00f0 0400A0E1 		mov	r0, r4
 813 00f4 FEFFFFEB 		bl	test_printn
 814              	.LVL83:
 815              		.loc 1 185 3 view .LVU184
ARM GAS  /tmp/cc2M6ISX.s 			page 16


 816 00f8 30009FE5 		ldr	r0, .L36+24
 817 00fc FEFFFFEB 		bl	test_print
 818              	.LVL84:
 819              		.loc 1 186 3 view .LVU185
 820 0100 8400A0E1 		lsl	r0, r4, #1
 821 0104 FEFFFFEB 		bl	test_printn
 822              	.LVL85:
 823              		.loc 1 187 3 view .LVU186
 824 0108 24009FE5 		ldr	r0, .L36+28
 825              		.loc 1 188 1 is_stmt 0 view .LVU187
 826 010c 08D08DE2 		add	sp, sp, #8
 827              		.cfi_def_cfa_offset 24
 828              		@ sp needed
 829 0110 F041BDE8 		pop	{r4, r5, r6, r7, r8, lr}
 830              		.cfi_restore 14
 831              		.cfi_restore 8
 832              		.cfi_restore 7
 833              		.cfi_restore 6
 834              		.cfi_restore 5
 835              		.cfi_restore 4
 836              		.cfi_def_cfa_offset 0
 837              	.LVL86:
 838              		.loc 1 187 3 view .LVU188
 839 0114 FEFFFFEA 		b	test_println
 840              	.LVL87:
 841              	.L37:
 842              		.align	2
 843              	.L36:
 844 0118 00000000 		.word	rlist
 845 011c 00000000 		.word	wa
 846 0120 00000000 		.word	thread1
 847 0124 00000000 		.word	threads
 848 0128 00000000 		.word	thread2
 849 012c 00000000 		.word	.LC11
 850 0130 00000000 		.word	.LC13
 851 0134 0C000000 		.word	.LC14
 852              		.cfi_endproc
 853              	.LFE12:
 854              		.size	bmk3_execute, .-bmk3_execute
 855              		.section	.text.thread4,"ax",%progbits
 856              		.align	2
 857              		.global	thread4
 858              		.syntax unified
 859              		.arm
 860              		.fpu softvfp
 861              		.type	thread4, %function
 862              	thread4:
 863              	.LVL88:
 864              	.LFB13:
 865              		.loc 1 207 24 is_stmt 1 view -0
 866              		.cfi_startproc
 867              		@ args = 0, pretend = 0, frame = 0
 868              		@ frame_needed = 0, uses_anonymous_args = 0
 869              		.loc 1 208 3 view .LVU190
 870              		.loc 1 209 3 view .LVU191
 871              		.loc 1 209 11 is_stmt 0 view .LVU192
 872 0000 28309FE5 		ldr	r3, .L43
ARM GAS  /tmp/cc2M6ISX.s 			page 17


 873              		.loc 1 207 24 view .LVU193
 874 0004 10402DE9 		push	{r4, lr}
 875              		.cfi_def_cfa_offset 8
 876              		.cfi_offset 4, -8
 877              		.cfi_offset 14, -4
 878              		.loc 1 209 11 view .LVU194
 879 0008 184093E5 		ldr	r4, [r3, #24]
 880              	.LVL89:
 881              		.loc 1 211 3 is_stmt 1 view .LVU195
 882              		.loc 1 212 3 view .LVU196
 883              		.syntax divided
 884              	@ 212 "../../test/testbmk.c" 1
 885 000c 9FF021E3 		msr     CPSR_c, #0x9F
 886              	@ 0 "" 2
 887              	.LVL90:
 888              		.arm
 889              		.syntax unified
 890              	.L39:
 891              		.loc 1 212 3 discriminator 1 view .LVU197
 892              		.loc 1 212 14 discriminator 1 view .LVU198
 893              		.loc 1 213 3 discriminator 1 view .LVU199
 894              		.loc 1 214 5 discriminator 1 view .LVU200
 895 0010 0200A0E3 		mov	r0, #2
 896 0014 FEFFFFEB 		bl	chSchGoSleepS
 897              	.LVL91:
 898              		.loc 1 215 5 discriminator 1 view .LVU201
 899              		.loc 1 216 16 discriminator 1 view .LVU202
 900 0018 243094E5 		ldr	r3, [r4, #36]
 901 001c 000053E3 		cmp	r3, #0
 902 0020 FAFFFF0A 		beq	.L39
 903              		.loc 1 217 3 view .LVU203
 904              		.loc 1 217 3 view .LVU204
 905              		.syntax divided
 906              	@ 217 "../../test/testbmk.c" 1
 907 0024 1FF021E3 		msr     CPSR_c, #0x1F
 908              	@ 0 "" 2
 909              		.loc 1 217 16 view .LVU205
 910              		.loc 1 218 3 view .LVU206
 911              		.loc 1 219 1 is_stmt 0 view .LVU207
 912              		.arm
 913              		.syntax unified
 914 0028 0000A0E3 		mov	r0, #0
 915 002c 1080BDE8 		pop	{r4, pc}
 916              	.L44:
 917              		.align	2
 918              	.L43:
 919 0030 00000000 		.word	rlist
 920              		.cfi_endproc
 921              	.LFE13:
 922              		.size	thread4, .-thread4
 923              		.section	.text.bmk4_execute,"ax",%progbits
 924              		.align	2
 925              		.syntax unified
 926              		.arm
 927              		.fpu softvfp
 928              		.type	bmk4_execute, %function
 929              	bmk4_execute:
ARM GAS  /tmp/cc2M6ISX.s 			page 18


 930              	.LFB14:
 931              		.loc 1 221 32 is_stmt 1 view -0
 932              		.cfi_startproc
 933              		@ args = 0, pretend = 0, frame = 0
 934              		@ frame_needed = 0, uses_anonymous_args = 0
 935              		.loc 1 222 3 view .LVU209
 936              		.loc 1 223 3 view .LVU210
 937              		.loc 1 225 3 view .LVU211
 938              		.loc 1 221 32 is_stmt 0 view .LVU212
 939 0000 70402DE9 		push	{r4, r5, r6, lr}
 940              		.cfi_def_cfa_offset 16
 941              		.cfi_offset 4, -16
 942              		.cfi_offset 5, -12
 943              		.cfi_offset 6, -8
 944              		.cfi_offset 14, -4
 945              		.loc 1 225 21 view .LVU213
 946 0004 0050A0E3 		mov	r5, #0
 947              		.loc 1 225 55 view .LVU214
 948 0008 C0309FE5 		ldr	r3, .L50
 949              		.loc 1 225 41 view .LVU215
 950 000c C0009FE5 		ldr	r0, .L50+4
 951              		.loc 1 225 55 view .LVU216
 952 0010 183093E5 		ldr	r3, [r3, #24]
 953              		.loc 1 221 32 view .LVU217
 954 0014 08D04DE2 		sub	sp, sp, #8
 955              		.cfi_def_cfa_offset 24
 956              		.loc 1 225 21 view .LVU218
 957 0018 082093E5 		ldr	r2, [r3, #8]
 958 001c 461FA0E3 		mov	r1, #280
 959 0020 B0309FE5 		ldr	r3, .L50+8
 960 0024 012082E2 		add	r2, r2, #1
 961 0028 000090E5 		ldr	r0, [r0]
 962 002c 00508DE5 		str	r5, [sp]
 963 0030 FEFFFFEB 		bl	chThdCreateStatic
 964              	.LVL92:
 965              		.loc 1 225 19 view .LVU219
 966 0034 A0309FE5 		ldr	r3, .L50+12
 967              		.loc 1 225 21 view .LVU220
 968 0038 0040A0E1 		mov	r4, r0
 969              		.loc 1 225 19 view .LVU221
 970 003c 000083E5 		str	r0, [r3]
 971              	.LVL93:
 972              		.loc 1 226 3 is_stmt 1 view .LVU222
 973              		.loc 1 227 3 view .LVU223
 974 0040 FEFFFFEB 		bl	test_wait_tick
 975              	.LVL94:
 976              		.loc 1 228 3 view .LVU224
 977 0044 FA0FA0E3 		mov	r0, #1000
 978 0048 90609FE5 		ldr	r6, .L50+16
 979 004c FEFFFFEB 		bl	test_start_timer
 980              	.LVL95:
 981              	.L46:
 982              		.loc 1 229 3 discriminator 1 view .LVU225
 983              		.loc 1 230 5 discriminator 1 view .LVU226
 984              		.syntax divided
 985              	@ 230 "../../test/testbmk.c" 1
 986 0050 9FF021E3 		msr     CPSR_c, #0x9F
ARM GAS  /tmp/cc2M6ISX.s 			page 19


 987              	@ 0 "" 2
 988              		.loc 1 230 5 discriminator 1 view .LVU227
 989              		.loc 1 230 16 discriminator 1 view .LVU228
 990              		.loc 1 231 5 discriminator 1 view .LVU229
 991              		.arm
 992              		.syntax unified
 993 0054 0010A0E3 		mov	r1, #0
 994 0058 0400A0E1 		mov	r0, r4
 995 005c FEFFFFEB 		bl	chSchWakeupS
 996              	.LVL96:
 997              		.loc 1 232 5 discriminator 1 view .LVU230
 998 0060 0400A0E1 		mov	r0, r4
 999 0064 0010A0E3 		mov	r1, #0
 1000 0068 FEFFFFEB 		bl	chSchWakeupS
 1001              	.LVL97:
 1002              		.loc 1 233 5 discriminator 1 view .LVU231
 1003 006c 0400A0E1 		mov	r0, r4
 1004 0070 0010A0E3 		mov	r1, #0
 1005 0074 FEFFFFEB 		bl	chSchWakeupS
 1006              	.LVL98:
 1007              		.loc 1 234 5 discriminator 1 view .LVU232
 1008 0078 0010A0E3 		mov	r1, #0
 1009 007c 0400A0E1 		mov	r0, r4
 1010 0080 FEFFFFEB 		bl	chSchWakeupS
 1011              	.LVL99:
 1012              		.loc 1 235 5 discriminator 1 view .LVU233
 1013              		.loc 1 235 5 discriminator 1 view .LVU234
 1014              		.syntax divided
 1015              	@ 235 "../../test/testbmk.c" 1
 1016 0084 1FF021E3 		msr     CPSR_c, #0x1F
 1017              	@ 0 "" 2
 1018              		.loc 1 235 18 discriminator 1 view .LVU235
 1019              		.loc 1 236 5 discriminator 1 view .LVU236
 1020              		.loc 1 240 12 is_stmt 0 discriminator 1 view .LVU237
 1021              		.arm
 1022              		.syntax unified
 1023 0088 003096E5 		ldr	r3, [r6]
 1024              		.loc 1 236 7 discriminator 1 view .LVU238
 1025 008c 045085E2 		add	r5, r5, #4
 1026              	.LVL100:
 1027              		.loc 1 240 12 is_stmt 1 discriminator 1 view .LVU239
 1028 0090 000053E3 		cmp	r3, #0
 1029 0094 EDFFFF0A 		beq	.L46
 1030              		.loc 1 241 3 view .LVU240
 1031              		.syntax divided
 1032              	@ 241 "../../test/testbmk.c" 1
 1033 0098 9FF021E3 		msr     CPSR_c, #0x9F
 1034              	@ 0 "" 2
 1035              		.loc 1 241 3 view .LVU241
 1036              		.loc 1 241 14 view .LVU242
 1037              		.loc 1 242 3 view .LVU243
 1038              		.arm
 1039              		.syntax unified
 1040 009c 0010E0E3 		mvn	r1, #0
 1041 00a0 0400A0E1 		mov	r0, r4
 1042 00a4 FEFFFFEB 		bl	chSchWakeupS
 1043              	.LVL101:
ARM GAS  /tmp/cc2M6ISX.s 			page 20


 1044              		.loc 1 243 3 view .LVU244
 1045              		.loc 1 243 3 view .LVU245
 1046              		.syntax divided
 1047              	@ 243 "../../test/testbmk.c" 1
 1048 00a8 1FF021E3 		msr     CPSR_c, #0x1F
 1049              	@ 0 "" 2
 1050              		.loc 1 243 16 view .LVU246
 1051              		.loc 1 245 3 view .LVU247
 1052              		.arm
 1053              		.syntax unified
 1054 00ac FEFFFFEB 		bl	test_wait_threads
 1055              	.LVL102:
 1056              		.loc 1 246 3 view .LVU248
 1057 00b0 2C009FE5 		ldr	r0, .L50+20
 1058 00b4 FEFFFFEB 		bl	test_print
 1059              	.LVL103:
 1060              		.loc 1 247 3 view .LVU249
 1061 00b8 8500A0E1 		lsl	r0, r5, #1
 1062 00bc FEFFFFEB 		bl	test_printn
 1063              	.LVL104:
 1064              		.loc 1 248 3 view .LVU250
 1065 00c0 20009FE5 		ldr	r0, .L50+24
 1066              		.loc 1 249 1 is_stmt 0 view .LVU251
 1067 00c4 08D08DE2 		add	sp, sp, #8
 1068              		.cfi_def_cfa_offset 16
 1069              		@ sp needed
 1070 00c8 7040BDE8 		pop	{r4, r5, r6, lr}
 1071              		.cfi_restore 14
 1072              		.cfi_restore 6
 1073              		.cfi_restore 5
 1074              		.cfi_restore 4
 1075              		.cfi_def_cfa_offset 0
 1076              	.LVL105:
 1077              		.loc 1 248 3 view .LVU252
 1078 00cc FEFFFFEA 		b	test_println
 1079              	.LVL106:
 1080              	.L51:
 1081              		.align	2
 1082              	.L50:
 1083 00d0 00000000 		.word	rlist
 1084 00d4 00000000 		.word	wa
 1085 00d8 00000000 		.word	thread4
 1086 00dc 00000000 		.word	threads
 1087 00e0 00000000 		.word	test_timer_done
 1088 00e4 00000000 		.word	.LC11
 1089 00e8 0C000000 		.word	.LC14
 1090              		.cfi_endproc
 1091              	.LFE14:
 1092              		.size	bmk4_execute, .-bmk4_execute
 1093              		.section	.text.bmk5_execute,"ax",%progbits
 1094              		.align	2
 1095              		.syntax unified
 1096              		.arm
 1097              		.fpu softvfp
 1098              		.type	bmk5_execute, %function
 1099              	bmk5_execute:
 1100              	.LFB15:
ARM GAS  /tmp/cc2M6ISX.s 			page 21


 1101              		.loc 1 269 32 is_stmt 1 view -0
 1102              		.cfi_startproc
 1103              		@ args = 0, pretend = 0, frame = 0
 1104              		@ frame_needed = 0, uses_anonymous_args = 0
 1105              		.loc 1 271 3 view .LVU254
 1106              	.LVL107:
 1107              		.loc 1 272 3 view .LVU255
 1108              		.loc 1 269 32 is_stmt 0 view .LVU256
 1109 0000 F0432DE9 		push	{r4, r5, r6, r7, r8, r9, lr}
 1110              		.cfi_def_cfa_offset 28
 1111              		.cfi_offset 4, -28
 1112              		.cfi_offset 5, -24
 1113              		.cfi_offset 6, -20
 1114              		.cfi_offset 7, -16
 1115              		.cfi_offset 8, -12
 1116              		.cfi_offset 9, -8
 1117              		.cfi_offset 14, -4
 1118              		.loc 1 271 12 view .LVU257
 1119 0004 0040A0E3 		mov	r4, #0
 1120              		.loc 1 273 18 view .LVU258
 1121 0008 78309FE5 		ldr	r3, .L57
 1122              		.loc 1 272 9 view .LVU259
 1123 000c 78209FE5 		ldr	r2, .L57+4
 1124              		.loc 1 273 18 view .LVU260
 1125 0010 183093E5 		ldr	r3, [r3, #24]
 1126              		.loc 1 269 32 view .LVU261
 1127 0014 0CD04DE2 		sub	sp, sp, #12
 1128              		.cfi_def_cfa_offset 40
 1129              		.loc 1 273 11 view .LVU262
 1130 0018 085093E5 		ldr	r5, [r3, #8]
 1131              		.loc 1 272 9 view .LVU263
 1132 001c 009092E5 		ldr	r9, [r2]
 1133              	.LVL108:
 1134              		.loc 1 273 3 is_stmt 1 view .LVU264
 1135              		.loc 1 274 3 is_stmt 0 view .LVU265
 1136 0020 FEFFFFEB 		bl	test_wait_tick
 1137              	.LVL109:
 1138              		.loc 1 275 3 view .LVU266
 1139 0024 FA0FA0E3 		mov	r0, #1000
 1140 0028 FEFFFFEB 		bl	test_start_timer
 1141              	.LVL110:
 1142              		.loc 1 277 5 view .LVU267
 1143 002c 0460A0E1 		mov	r6, r4
 1144 0030 58809FE5 		ldr	r8, .L57+8
 1145 0034 58709FE5 		ldr	r7, .L57+12
 1146              		.loc 1 273 11 view .LVU268
 1147 0038 015045E2 		sub	r5, r5, #1
 1148              	.LVL111:
 1149              		.loc 1 274 3 is_stmt 1 view .LVU269
 1150              		.loc 1 275 3 view .LVU270
 1151              	.L53:
 1152              		.loc 1 276 3 discriminator 1 view .LVU271
 1153              		.loc 1 277 5 discriminator 1 view .LVU272
 1154 003c 461FA0E3 		mov	r1, #280
 1155 0040 0730A0E1 		mov	r3, r7
 1156 0044 0520A0E1 		mov	r2, r5
 1157 0048 0900A0E1 		mov	r0, r9
ARM GAS  /tmp/cc2M6ISX.s 			page 22


 1158 004c 00608DE5 		str	r6, [sp]
 1159 0050 FEFFFFEB 		bl	chThdCreateStatic
 1160              	.LVL112:
 1161 0054 FEFFFFEB 		bl	chThdWait
 1162              	.LVL113:
 1163              		.loc 1 278 5 discriminator 1 view .LVU273
 1164              		.loc 1 282 12 is_stmt 0 discriminator 1 view .LVU274
 1165 0058 001098E5 		ldr	r1, [r8]
 1166              		.loc 1 278 6 discriminator 1 view .LVU275
 1167 005c 014084E2 		add	r4, r4, #1
 1168              	.LVL114:
 1169              		.loc 1 282 12 is_stmt 1 discriminator 1 view .LVU276
 1170 0060 000051E3 		cmp	r1, #0
 1171 0064 F4FFFF0A 		beq	.L53
 1172              		.loc 1 283 3 view .LVU277
 1173 0068 28009FE5 		ldr	r0, .L57+16
 1174 006c FEFFFFEB 		bl	test_print
 1175              	.LVL115:
 1176              		.loc 1 284 3 view .LVU278
 1177 0070 0400A0E1 		mov	r0, r4
 1178 0074 FEFFFFEB 		bl	test_printn
 1179              	.LVL116:
 1180              		.loc 1 285 3 view .LVU279
 1181 0078 1C009FE5 		ldr	r0, .L57+20
 1182              		.loc 1 286 1 is_stmt 0 view .LVU280
 1183 007c 0CD08DE2 		add	sp, sp, #12
 1184              		.cfi_def_cfa_offset 28
 1185              		@ sp needed
 1186 0080 F043BDE8 		pop	{r4, r5, r6, r7, r8, r9, lr}
 1187              		.cfi_restore 14
 1188              		.cfi_restore 9
 1189              		.cfi_restore 8
 1190              		.cfi_restore 7
 1191              		.cfi_restore 6
 1192              		.cfi_restore 5
 1193              		.cfi_restore 4
 1194              		.cfi_def_cfa_offset 0
 1195              	.LVL117:
 1196              		.loc 1 285 3 view .LVU281
 1197 0084 FEFFFFEA 		b	test_println
 1198              	.LVL118:
 1199              	.L58:
 1200              		.align	2
 1201              	.L57:
 1202 0088 00000000 		.word	rlist
 1203 008c 00000000 		.word	wa
 1204 0090 00000000 		.word	test_timer_done
 1205 0094 00000000 		.word	thread2
 1206 0098 00000000 		.word	.LC11
 1207 009c 10000000 		.word	.LC12
 1208              		.cfi_endproc
 1209              	.LFE15:
 1210              		.size	bmk5_execute, .-bmk5_execute
 1211              		.section	.rodata.bmk7_execute.str1.4,"aMS",%progbits,1
 1212              		.align	2
 1213              	.LC15:
 1214 0000 20726573 		.ascii	" reschedules/S, \000"
ARM GAS  /tmp/cc2M6ISX.s 			page 23


 1214      63686564 
 1214      756C6573 
 1214      2F532C20 
 1214      00
 1215              		.section	.text.bmk7_execute,"ax",%progbits
 1216              		.align	2
 1217              		.syntax unified
 1218              		.arm
 1219              		.fpu softvfp
 1220              		.type	bmk7_execute, %function
 1221              	bmk7_execute:
 1222              	.LFB19:
 1223              		.loc 1 358 32 is_stmt 1 view -0
 1224              		.cfi_startproc
 1225              		@ args = 0, pretend = 0, frame = 0
 1226              		@ frame_needed = 0, uses_anonymous_args = 0
 1227              		.loc 1 359 3 view .LVU283
 1228              		.loc 1 361 3 view .LVU284
 1229              		.loc 1 358 32 is_stmt 0 view .LVU285
 1230 0000 F0432DE9 		push	{r4, r5, r6, r7, r8, r9, lr}
 1231              		.cfi_def_cfa_offset 28
 1232              		.cfi_offset 4, -28
 1233              		.cfi_offset 5, -24
 1234              		.cfi_offset 6, -20
 1235              		.cfi_offset 7, -16
 1236              		.cfi_offset 8, -12
 1237              		.cfi_offset 9, -8
 1238              		.cfi_offset 14, -4
 1239              		.loc 1 361 16 view .LVU286
 1240 0004 0040A0E3 		mov	r4, #0
 1241              		.loc 1 361 50 view .LVU287
 1242 0008 38919FE5 		ldr	r9, .L64
 1243              		.loc 1 361 36 view .LVU288
 1244 000c 38819FE5 		ldr	r8, .L64+4
 1245              		.loc 1 361 50 view .LVU289
 1246 0010 182099E5 		ldr	r2, [r9, #24]
 1247              		.loc 1 358 32 view .LVU290
 1248 0014 0CD04DE2 		sub	sp, sp, #12
 1249              		.cfi_def_cfa_offset 40
 1250              		.loc 1 361 16 view .LVU291
 1251 0018 082092E5 		ldr	r2, [r2, #8]
 1252 001c 461FA0E3 		mov	r1, #280
 1253 0020 28319FE5 		ldr	r3, .L64+8
 1254 0024 052082E2 		add	r2, r2, #5
 1255 0028 000098E5 		ldr	r0, [r8]
 1256 002c 00408DE5 		str	r4, [sp]
 1257 0030 FEFFFFEB 		bl	chThdCreateStatic
 1258              	.LVL119:
 1259              		.loc 1 362 50 view .LVU292
 1260 0034 183099E5 		ldr	r3, [r9, #24]
 1261              		.loc 1 361 14 view .LVU293
 1262 0038 14719FE5 		ldr	r7, .L64+12
 1263              		.loc 1 362 16 view .LVU294
 1264 003c 082093E5 		ldr	r2, [r3, #8]
 1265 0040 461FA0E3 		mov	r1, #280
 1266 0044 04319FE5 		ldr	r3, .L64+8
 1267              		.loc 1 361 14 view .LVU295
ARM GAS  /tmp/cc2M6ISX.s 			page 24


 1268 0048 000087E5 		str	r0, [r7]
 1269              		.loc 1 362 3 is_stmt 1 view .LVU296
 1270              		.loc 1 362 16 is_stmt 0 view .LVU297
 1271 004c 042082E2 		add	r2, r2, #4
 1272 0050 040098E5 		ldr	r0, [r8, #4]
 1273 0054 00408DE5 		str	r4, [sp]
 1274 0058 FEFFFFEB 		bl	chThdCreateStatic
 1275              	.LVL120:
 1276              		.loc 1 363 50 view .LVU298
 1277 005c 183099E5 		ldr	r3, [r9, #24]
 1278              		.loc 1 363 16 view .LVU299
 1279 0060 461FA0E3 		mov	r1, #280
 1280 0064 082093E5 		ldr	r2, [r3, #8]
 1281              		.loc 1 362 14 view .LVU300
 1282 0068 040087E5 		str	r0, [r7, #4]
 1283              		.loc 1 363 3 is_stmt 1 view .LVU301
 1284              		.loc 1 363 16 is_stmt 0 view .LVU302
 1285 006c DC309FE5 		ldr	r3, .L64+8
 1286 0070 032082E2 		add	r2, r2, #3
 1287 0074 080098E5 		ldr	r0, [r8, #8]
 1288 0078 00408DE5 		str	r4, [sp]
 1289 007c FEFFFFEB 		bl	chThdCreateStatic
 1290              	.LVL121:
 1291              		.loc 1 364 50 view .LVU303
 1292 0080 183099E5 		ldr	r3, [r9, #24]
 1293              		.loc 1 364 16 view .LVU304
 1294 0084 461FA0E3 		mov	r1, #280
 1295 0088 082093E5 		ldr	r2, [r3, #8]
 1296              		.loc 1 363 14 view .LVU305
 1297 008c 080087E5 		str	r0, [r7, #8]
 1298              		.loc 1 364 3 is_stmt 1 view .LVU306
 1299              		.loc 1 364 16 is_stmt 0 view .LVU307
 1300 0090 B8309FE5 		ldr	r3, .L64+8
 1301 0094 022082E2 		add	r2, r2, #2
 1302 0098 0C0098E5 		ldr	r0, [r8, #12]
 1303 009c 00408DE5 		str	r4, [sp]
 1304 00a0 FEFFFFEB 		bl	chThdCreateStatic
 1305              	.LVL122:
 1306 00a4 0030A0E1 		mov	r3, r0
 1307              		.loc 1 365 50 view .LVU308
 1308 00a8 182099E5 		ldr	r2, [r9, #24]
 1309              		.loc 1 365 16 view .LVU309
 1310 00ac 461FA0E3 		mov	r1, #280
 1311 00b0 082092E5 		ldr	r2, [r2, #8]
 1312 00b4 100098E5 		ldr	r0, [r8, #16]
 1313 00b8 012082E2 		add	r2, r2, #1
 1314              		.loc 1 364 14 view .LVU310
 1315 00bc 0C3087E5 		str	r3, [r7, #12]
 1316              		.loc 1 365 3 is_stmt 1 view .LVU311
 1317              		.loc 1 365 16 is_stmt 0 view .LVU312
 1318 00c0 00408DE5 		str	r4, [sp]
 1319 00c4 84309FE5 		ldr	r3, .L64+8
 1320 00c8 FEFFFFEB 		bl	chThdCreateStatic
 1321              	.LVL123:
 1322              		.loc 1 365 14 view .LVU313
 1323 00cc 100087E5 		str	r0, [r7, #16]
 1324              		.loc 1 367 3 is_stmt 1 view .LVU314
ARM GAS  /tmp/cc2M6ISX.s 			page 25


 1325              	.LVL124:
 1326              		.loc 1 368 3 view .LVU315
 1327 00d0 FEFFFFEB 		bl	test_wait_tick
 1328              	.LVL125:
 1329              		.loc 1 369 3 view .LVU316
 1330 00d4 FA0FA0E3 		mov	r0, #1000
 1331 00d8 78609FE5 		ldr	r6, .L64+16
 1332              		.loc 1 371 5 is_stmt 0 view .LVU317
 1333 00dc 78509FE5 		ldr	r5, .L64+20
 1334              		.loc 1 369 3 view .LVU318
 1335 00e0 FEFFFFEB 		bl	test_start_timer
 1336              	.LVL126:
 1337              	.L60:
 1338              		.loc 1 370 3 is_stmt 1 discriminator 1 view .LVU319
 1339              		.loc 1 371 5 discriminator 1 view .LVU320
 1340 00e4 0010A0E3 		mov	r1, #0
 1341 00e8 0500A0E1 		mov	r0, r5
 1342 00ec FEFFFFEB 		bl	chSemReset
 1343              	.LVL127:
 1344              		.loc 1 372 5 discriminator 1 view .LVU321
 1345              		.loc 1 376 12 is_stmt 0 discriminator 1 view .LVU322
 1346 00f0 003096E5 		ldr	r3, [r6]
 1347              		.loc 1 372 6 discriminator 1 view .LVU323
 1348 00f4 014084E2 		add	r4, r4, #1
 1349              	.LVL128:
 1350              		.loc 1 376 12 is_stmt 1 discriminator 1 view .LVU324
 1351 00f8 000053E3 		cmp	r3, #0
 1352 00fc F8FFFF0A 		beq	.L60
 1353              		.loc 1 377 3 view .LVU325
 1354 0100 FEFFFFEB 		bl	test_terminate_threads
 1355              	.LVL129:
 1356              		.loc 1 378 3 view .LVU326
 1357 0104 0010A0E3 		mov	r1, #0
 1358 0108 4C009FE5 		ldr	r0, .L64+20
 1359 010c FEFFFFEB 		bl	chSemReset
 1360              	.LVL130:
 1361              		.loc 1 379 3 view .LVU327
 1362 0110 FEFFFFEB 		bl	test_wait_threads
 1363              	.LVL131:
 1364              		.loc 1 381 3 view .LVU328
 1365 0114 44009FE5 		ldr	r0, .L64+24
 1366 0118 FEFFFFEB 		bl	test_print
 1367              	.LVL132:
 1368              		.loc 1 382 3 view .LVU329
 1369 011c 0400A0E1 		mov	r0, r4
 1370 0120 FEFFFFEB 		bl	test_printn
 1371              	.LVL133:
 1372              		.loc 1 383 3 view .LVU330
 1373              		.loc 1 384 3 is_stmt 0 view .LVU331
 1374 0124 844084E0 		add	r4, r4, r4, lsl #1
 1375              	.LVL134:
 1376              		.loc 1 383 3 view .LVU332
 1377 0128 34009FE5 		ldr	r0, .L64+28
 1378 012c FEFFFFEB 		bl	test_print
 1379              	.LVL135:
 1380              		.loc 1 384 3 is_stmt 1 view .LVU333
 1381 0130 8400A0E1 		lsl	r0, r4, #1
ARM GAS  /tmp/cc2M6ISX.s 			page 26


 1382 0134 FEFFFFEB 		bl	test_printn
 1383              	.LVL136:
 1384              		.loc 1 385 3 view .LVU334
 1385 0138 28009FE5 		ldr	r0, .L64+32
 1386              		.loc 1 386 1 is_stmt 0 view .LVU335
 1387 013c 0CD08DE2 		add	sp, sp, #12
 1388              		.cfi_def_cfa_offset 28
 1389              		@ sp needed
 1390 0140 F043BDE8 		pop	{r4, r5, r6, r7, r8, r9, lr}
 1391              		.cfi_restore 14
 1392              		.cfi_restore 9
 1393              		.cfi_restore 8
 1394              		.cfi_restore 7
 1395              		.cfi_restore 6
 1396              		.cfi_restore 5
 1397              		.cfi_restore 4
 1398              		.cfi_def_cfa_offset 0
 1399              		.loc 1 385 3 view .LVU336
 1400 0144 FEFFFFEA 		b	test_println
 1401              	.LVL137:
 1402              	.L65:
 1403              		.align	2
 1404              	.L64:
 1405 0148 00000000 		.word	rlist
 1406 014c 00000000 		.word	wa
 1407 0150 00000000 		.word	thread3
 1408 0154 00000000 		.word	threads
 1409 0158 00000000 		.word	test_timer_done
 1410 015c 00000000 		.word	.LANCHOR0
 1411 0160 00000000 		.word	.LC11
 1412 0164 00000000 		.word	.LC15
 1413 0168 0C000000 		.word	.LC14
 1414              		.cfi_endproc
 1415              	.LFE19:
 1416              		.size	bmk7_execute, .-bmk7_execute
 1417              		.section	.text.thread3,"ax",%progbits
 1418              		.align	2
 1419              		.syntax unified
 1420              		.arm
 1421              		.fpu softvfp
 1422              		.type	thread3, %function
 1423              	thread3:
 1424              	.LVL138:
 1425              	.LFB17:
 1426              		.loc 1 345 31 is_stmt 1 view -0
 1427              		.cfi_startproc
 1428              		@ args = 0, pretend = 0, frame = 0
 1429              		@ frame_needed = 0, uses_anonymous_args = 0
 1430              		.loc 1 347 3 view .LVU338
 1431              		.loc 1 348 3 view .LVU339
 1432              		.loc 1 348 10 view .LVU340
 1433              		.loc 1 345 31 is_stmt 0 view .LVU341
 1434 0000 70402DE9 		push	{r4, r5, r6, lr}
 1435              		.cfi_def_cfa_offset 16
 1436              		.cfi_offset 4, -16
 1437              		.cfi_offset 5, -12
 1438              		.cfi_offset 6, -8
ARM GAS  /tmp/cc2M6ISX.s 			page 27


 1439              		.cfi_offset 14, -4
 1440              		.loc 1 348 11 view .LVU342
 1441 0004 30409FE5 		ldr	r4, .L72
 1442 0008 183094E5 		ldr	r3, [r4, #24]
 1443              		.loc 1 348 10 view .LVU343
 1444 000c 1D30D3E5 		ldrb	r3, [r3, #29]	@ zero_extendqisi2
 1445 0010 040013E3 		tst	r3, #4
 1446 0014 0600001A 		bne	.L67
 1447              		.loc 1 349 5 view .LVU344
 1448 0018 20509FE5 		ldr	r5, .L72+4
 1449              	.LVL139:
 1450              	.L68:
 1451              		.loc 1 349 5 is_stmt 1 view .LVU345
 1452 001c 0500A0E1 		mov	r0, r5
 1453 0020 FEFFFFEB 		bl	chSemWait
 1454              	.LVL140:
 1455              		.loc 1 348 10 view .LVU346
 1456              		.loc 1 348 11 is_stmt 0 view .LVU347
 1457 0024 183094E5 		ldr	r3, [r4, #24]
 1458              		.loc 1 348 10 view .LVU348
 1459 0028 1D30D3E5 		ldrb	r3, [r3, #29]	@ zero_extendqisi2
 1460 002c 040013E3 		tst	r3, #4
 1461 0030 F9FFFF0A 		beq	.L68
 1462              	.L67:
 1463              		.loc 1 350 3 is_stmt 1 view .LVU349
 1464              		.loc 1 351 1 is_stmt 0 view .LVU350
 1465 0034 0000A0E3 		mov	r0, #0
 1466 0038 7080BDE8 		pop	{r4, r5, r6, pc}
 1467              	.L73:
 1468              		.align	2
 1469              	.L72:
 1470 003c 00000000 		.word	rlist
 1471 0040 00000000 		.word	.LANCHOR0
 1472              		.cfi_endproc
 1473              	.LFE17:
 1474              		.size	thread3, .-thread3
 1475              		.section	.text.bmk7_setup,"ax",%progbits
 1476              		.align	2
 1477              		.syntax unified
 1478              		.arm
 1479              		.fpu softvfp
 1480              		.type	bmk7_setup, %function
 1481              	bmk7_setup:
 1482              	.LFB18:
 1483              		.loc 1 353 30 is_stmt 1 view -0
 1484              		.cfi_startproc
 1485              		@ args = 0, pretend = 0, frame = 0
 1486              		@ frame_needed = 0, uses_anonymous_args = 0
 1487              		@ link register save eliminated.
 1488              		.loc 1 355 3 view .LVU352
 1489 0000 0010A0E3 		mov	r1, #0
 1490 0004 00009FE5 		ldr	r0, .L75
 1491 0008 FEFFFFEA 		b	chSemInit
 1492              	.LVL141:
 1493              	.L76:
 1494              		.align	2
 1495              	.L75:
ARM GAS  /tmp/cc2M6ISX.s 			page 28


 1496 000c 00000000 		.word	.LANCHOR0
 1497              		.cfi_endproc
 1498              	.LFE18:
 1499              		.size	bmk7_setup, .-bmk7_setup
 1500              		.section	.text.bmk11_setup,"ax",%progbits
 1501              		.align	2
 1502              		.syntax unified
 1503              		.arm
 1504              		.fpu softvfp
 1505              		.type	bmk11_setup, %function
 1506              	bmk11_setup:
 1507              	.LFB25:
 1508              		.loc 1 546 31 view -0
 1509              		.cfi_startproc
 1510              		@ args = 0, pretend = 0, frame = 0
 1511              		@ frame_needed = 0, uses_anonymous_args = 0
 1512              		@ link register save eliminated.
 1513              		.loc 1 548 3 view .LVU354
 1514 0000 0110A0E3 		mov	r1, #1
 1515 0004 00009FE5 		ldr	r0, .L78
 1516 0008 FEFFFFEA 		b	chSemInit
 1517              	.LVL142:
 1518              	.L79:
 1519              		.align	2
 1520              	.L78:
 1521 000c 00000000 		.word	.LANCHOR0
 1522              		.cfi_endproc
 1523              	.LFE25:
 1524              		.size	bmk11_setup, .-bmk11_setup
 1525              		.section	.text.bmk8_execute,"ax",%progbits
 1526              		.align	2
 1527              		.syntax unified
 1528              		.arm
 1529              		.fpu softvfp
 1530              		.type	bmk8_execute, %function
 1531              	bmk8_execute:
 1532              	.LFB21:
 1533              		.loc 1 420 32 view -0
 1534              		.cfi_startproc
 1535              		@ args = 0, pretend = 0, frame = 8
 1536              		@ frame_needed = 0, uses_anonymous_args = 0
 1537              		.loc 1 421 3 view .LVU356
 1538              		.loc 1 423 3 view .LVU357
 1539              		.loc 1 423 5 is_stmt 0 view .LVU358
 1540 0000 0030A0E3 		mov	r3, #0
 1541              		.loc 1 420 32 view .LVU359
 1542 0004 F0412DE9 		push	{r4, r5, r6, r7, r8, lr}
 1543              		.cfi_def_cfa_offset 24
 1544              		.cfi_offset 4, -24
 1545              		.cfi_offset 5, -20
 1546              		.cfi_offset 6, -16
 1547              		.cfi_offset 7, -12
 1548              		.cfi_offset 8, -8
 1549              		.cfi_offset 14, -4
 1550              		.loc 1 426 50 view .LVU360
 1551 0008 04819FE5 		ldr	r8, .L82
 1552              		.loc 1 420 32 view .LVU361
ARM GAS  /tmp/cc2M6ISX.s 			page 29


 1553 000c 10D04DE2 		sub	sp, sp, #16
 1554              		.cfi_def_cfa_offset 40
 1555              		.loc 1 423 5 view .LVU362
 1556 0010 0C308DE5 		str	r3, [sp, #12]
 1557              		.loc 1 424 3 is_stmt 1 view .LVU363
 1558 0014 FEFFFFEB 		bl	test_wait_tick
 1559              	.LVL143:
 1560              		.loc 1 426 3 view .LVU364
 1561              		.loc 1 426 50 is_stmt 0 view .LVU365
 1562 0018 183098E5 		ldr	r3, [r8, #24]
 1563              		.loc 1 426 16 view .LVU366
 1564 001c F4709FE5 		ldr	r7, .L82+4
 1565              		.loc 1 426 36 view .LVU367
 1566 0020 F4509FE5 		ldr	r5, .L82+8
 1567              		.loc 1 426 16 view .LVU368
 1568 0024 082093E5 		ldr	r2, [r3, #8]
 1569 0028 0C608DE2 		add	r6, sp, #12
 1570 002c 0730A0E1 		mov	r3, r7
 1571 0030 461FA0E3 		mov	r1, #280
 1572 0034 000095E5 		ldr	r0, [r5]
 1573 0038 00608DE5 		str	r6, [sp]
 1574 003c 012042E2 		sub	r2, r2, #1
 1575 0040 FEFFFFEB 		bl	chThdCreateStatic
 1576              	.LVL144:
 1577              		.loc 1 427 50 view .LVU369
 1578 0044 183098E5 		ldr	r3, [r8, #24]
 1579              		.loc 1 426 14 view .LVU370
 1580 0048 D0409FE5 		ldr	r4, .L82+12
 1581              		.loc 1 427 16 view .LVU371
 1582 004c 082093E5 		ldr	r2, [r3, #8]
 1583              		.loc 1 426 14 view .LVU372
 1584 0050 000084E5 		str	r0, [r4]
 1585              		.loc 1 427 3 is_stmt 1 view .LVU373
 1586              		.loc 1 427 16 is_stmt 0 view .LVU374
 1587 0054 0730A0E1 		mov	r3, r7
 1588 0058 461FA0E3 		mov	r1, #280
 1589 005c 040095E5 		ldr	r0, [r5, #4]
 1590 0060 00608DE5 		str	r6, [sp]
 1591 0064 012042E2 		sub	r2, r2, #1
 1592 0068 FEFFFFEB 		bl	chThdCreateStatic
 1593              	.LVL145:
 1594              		.loc 1 428 50 view .LVU375
 1595 006c 183098E5 		ldr	r3, [r8, #24]
 1596              		.loc 1 427 14 view .LVU376
 1597 0070 040084E5 		str	r0, [r4, #4]
 1598              		.loc 1 428 3 is_stmt 1 view .LVU377
 1599              		.loc 1 428 16 is_stmt 0 view .LVU378
 1600 0074 082093E5 		ldr	r2, [r3, #8]
 1601 0078 461FA0E3 		mov	r1, #280
 1602 007c 0730A0E1 		mov	r3, r7
 1603 0080 080095E5 		ldr	r0, [r5, #8]
 1604 0084 00608DE5 		str	r6, [sp]
 1605 0088 012042E2 		sub	r2, r2, #1
 1606 008c FEFFFFEB 		bl	chThdCreateStatic
 1607              	.LVL146:
 1608              		.loc 1 429 50 view .LVU379
 1609 0090 183098E5 		ldr	r3, [r8, #24]
ARM GAS  /tmp/cc2M6ISX.s 			page 30


 1610              		.loc 1 428 14 view .LVU380
 1611 0094 080084E5 		str	r0, [r4, #8]
 1612              		.loc 1 429 3 is_stmt 1 view .LVU381
 1613              		.loc 1 429 16 is_stmt 0 view .LVU382
 1614 0098 082093E5 		ldr	r2, [r3, #8]
 1615 009c 461FA0E3 		mov	r1, #280
 1616 00a0 0730A0E1 		mov	r3, r7
 1617 00a4 0C0095E5 		ldr	r0, [r5, #12]
 1618 00a8 00608DE5 		str	r6, [sp]
 1619 00ac 012042E2 		sub	r2, r2, #1
 1620 00b0 FEFFFFEB 		bl	chThdCreateStatic
 1621              	.LVL147:
 1622 00b4 0010A0E1 		mov	r1, r0
 1623              		.loc 1 430 50 view .LVU383
 1624 00b8 182098E5 		ldr	r2, [r8, #24]
 1625              		.loc 1 430 16 view .LVU384
 1626 00bc 0730A0E1 		mov	r3, r7
 1627 00c0 082092E5 		ldr	r2, [r2, #8]
 1628 00c4 100095E5 		ldr	r0, [r5, #16]
 1629 00c8 012042E2 		sub	r2, r2, #1
 1630              		.loc 1 429 14 view .LVU385
 1631 00cc 0C1084E5 		str	r1, [r4, #12]
 1632              		.loc 1 430 3 is_stmt 1 view .LVU386
 1633              		.loc 1 430 16 is_stmt 0 view .LVU387
 1634 00d0 00608DE5 		str	r6, [sp]
 1635 00d4 461FA0E3 		mov	r1, #280
 1636 00d8 FEFFFFEB 		bl	chThdCreateStatic
 1637              	.LVL148:
 1638 00dc 0030A0E1 		mov	r3, r0
 1639              		.loc 1 432 3 view .LVU388
 1640 00e0 FA0FA0E3 		mov	r0, #1000
 1641              		.loc 1 430 14 view .LVU389
 1642 00e4 103084E5 		str	r3, [r4, #16]
 1643              		.loc 1 432 3 is_stmt 1 view .LVU390
 1644 00e8 FEFFFFEB 		bl	chThdSleep
 1645              	.LVL149:
 1646              		.loc 1 433 3 view .LVU391
 1647 00ec FEFFFFEB 		bl	test_terminate_threads
 1648              	.LVL150:
 1649              		.loc 1 434 3 view .LVU392
 1650 00f0 FEFFFFEB 		bl	test_wait_threads
 1651              	.LVL151:
 1652              		.loc 1 436 3 view .LVU393
 1653 00f4 28009FE5 		ldr	r0, .L82+16
 1654 00f8 FEFFFFEB 		bl	test_print
 1655              	.LVL152:
 1656              		.loc 1 437 3 view .LVU394
 1657 00fc 0C009DE5 		ldr	r0, [sp, #12]
 1658 0100 FEFFFFEB 		bl	test_printn
 1659              	.LVL153:
 1660              		.loc 1 438 3 view .LVU395
 1661 0104 1C009FE5 		ldr	r0, .L82+20
 1662 0108 FEFFFFEB 		bl	test_println
 1663              	.LVL154:
 1664              		.loc 1 439 1 is_stmt 0 view .LVU396
 1665 010c 10D08DE2 		add	sp, sp, #16
 1666              		.cfi_def_cfa_offset 24
ARM GAS  /tmp/cc2M6ISX.s 			page 31


 1667              		@ sp needed
 1668 0110 F081BDE8 		pop	{r4, r5, r6, r7, r8, pc}
 1669              	.L83:
 1670              		.align	2
 1671              	.L82:
 1672 0114 00000000 		.word	rlist
 1673 0118 00000000 		.word	thread8
 1674 011c 00000000 		.word	wa
 1675 0120 00000000 		.word	threads
 1676 0124 00000000 		.word	.LC11
 1677 0128 0C000000 		.word	.LC14
 1678              		.cfi_endproc
 1679              	.LFE21:
 1680              		.size	bmk8_execute, .-bmk8_execute
 1681              		.section	.text.thread8,"ax",%progbits
 1682              		.align	2
 1683              		.syntax unified
 1684              		.arm
 1685              		.fpu softvfp
 1686              		.type	thread8, %function
 1687              	thread8:
 1688              	.LVL155:
 1689              	.LFB20:
 1690              		.loc 1 405 31 is_stmt 1 view -0
 1691              		.cfi_startproc
 1692              		@ args = 0, pretend = 0, frame = 0
 1693              		@ frame_needed = 0, uses_anonymous_args = 0
 1694              		.loc 1 405 31 is_stmt 0 view .LVU398
 1695 0000 70402DE9 		push	{r4, r5, r6, lr}
 1696              		.cfi_def_cfa_offset 16
 1697              		.cfi_offset 4, -16
 1698              		.cfi_offset 5, -12
 1699              		.cfi_offset 6, -8
 1700              		.cfi_offset 14, -4
 1701              		.loc 1 405 31 view .LVU399
 1702 0004 0040A0E1 		mov	r4, r0
 1703 0008 30509FE5 		ldr	r5, .L89
 1704              	.LVL156:
 1705              	.L85:
 1706              		.loc 1 407 3 is_stmt 1 discriminator 1 view .LVU400
 1707              		.loc 1 408 5 discriminator 1 view .LVU401
 1708 000c FEFFFFEB 		bl	chThdYield
 1709              	.LVL157:
 1710              		.loc 1 409 5 discriminator 1 view .LVU402
 1711 0010 FEFFFFEB 		bl	chThdYield
 1712              	.LVL158:
 1713              		.loc 1 410 5 discriminator 1 view .LVU403
 1714 0014 FEFFFFEB 		bl	chThdYield
 1715              	.LVL159:
 1716              		.loc 1 411 5 discriminator 1 view .LVU404
 1717 0018 FEFFFFEB 		bl	chThdYield
 1718              	.LVL160:
 1719              		.loc 1 412 5 discriminator 1 view .LVU405
 1720              		.loc 1 412 22 is_stmt 0 discriminator 1 view .LVU406
 1721 001c 003094E5 		ldr	r3, [r4]
 1722              		.loc 1 416 12 discriminator 1 view .LVU407
 1723 0020 182095E5 		ldr	r2, [r5, #24]
ARM GAS  /tmp/cc2M6ISX.s 			page 32


 1724              		.loc 1 412 22 discriminator 1 view .LVU408
 1725 0024 043083E2 		add	r3, r3, #4
 1726 0028 003084E5 		str	r3, [r4]
 1727              		.loc 1 416 11 is_stmt 1 discriminator 1 view .LVU409
 1728 002c 1D30D2E5 		ldrb	r3, [r2, #29]	@ zero_extendqisi2
 1729 0030 040013E3 		tst	r3, #4
 1730 0034 F4FFFF0A 		beq	.L85
 1731              		.loc 1 417 3 view .LVU410
 1732              		.loc 1 418 1 is_stmt 0 view .LVU411
 1733 0038 0000A0E3 		mov	r0, #0
 1734 003c 7080BDE8 		pop	{r4, r5, r6, pc}
 1735              	.L90:
 1736              		.align	2
 1737              	.L89:
 1738 0040 00000000 		.word	rlist
 1739              		.cfi_endproc
 1740              	.LFE20:
 1741              		.size	thread8, .-thread8
 1742              		.section	.rodata.bmk9_execute.str1.4,"aMS",%progbits,1
 1743              		.align	2
 1744              	.LC16:
 1745 0000 20627974 		.ascii	" bytes/S\000"
 1745      65732F53 
 1745      00
 1746              		.section	.text.bmk9_execute,"ax",%progbits
 1747              		.align	2
 1748              		.syntax unified
 1749              		.arm
 1750              		.fpu softvfp
 1751              		.type	bmk9_execute, %function
 1752              	bmk9_execute:
 1753              	.LFB22:
 1754              		.loc 1 458 32 is_stmt 1 view -0
 1755              		.cfi_startproc
 1756              		@ args = 0, pretend = 0, frame = 0
 1757              		@ frame_needed = 0, uses_anonymous_args = 0
 1758              		.loc 1 459 3 view .LVU413
 1759              		.loc 1 460 3 view .LVU414
 1760              		.loc 1 461 3 view .LVU415
 1761              		.loc 1 463 3 view .LVU416
 1762              		.loc 1 458 32 is_stmt 0 view .LVU417
 1763 0000 70402DE9 		push	{r4, r5, r6, lr}
 1764              		.cfi_def_cfa_offset 16
 1765              		.cfi_offset 4, -16
 1766              		.cfi_offset 5, -12
 1767              		.cfi_offset 6, -8
 1768              		.cfi_offset 14, -4
 1769              		.loc 1 463 3 view .LVU418
 1770 0004 0050A0E3 		mov	r5, #0
 1771 0008 C0009FE5 		ldr	r0, .L96
 1772              		.loc 1 458 32 view .LVU419
 1773 000c 08D04DE2 		sub	sp, sp, #8
 1774              		.cfi_def_cfa_offset 24
 1775              		.loc 1 463 3 view .LVU420
 1776 0010 1020A0E3 		mov	r2, #16
 1777 0014 0530A0E1 		mov	r3, r5
 1778 0018 B4109FE5 		ldr	r1, .L96+4
ARM GAS  /tmp/cc2M6ISX.s 			page 33


 1779 001c 00508DE5 		str	r5, [sp]
 1780              		.loc 1 469 5 view .LVU421
 1781 0020 0040A0E1 		mov	r4, r0
 1782              		.loc 1 463 3 view .LVU422
 1783 0024 FEFFFFEB 		bl	chIQInit
 1784              	.LVL161:
 1785              		.loc 1 464 3 is_stmt 1 view .LVU423
 1786              		.loc 1 465 3 view .LVU424
 1787 0028 FEFFFFEB 		bl	test_wait_tick
 1788              	.LVL162:
 1789              		.loc 1 466 3 view .LVU425
 1790 002c FA0FA0E3 		mov	r0, #1000
 1791 0030 A0609FE5 		ldr	r6, .L96+8
 1792 0034 FEFFFFEB 		bl	test_start_timer
 1793              	.LVL163:
 1794              	.L92:
 1795              		.loc 1 467 3 discriminator 1 view .LVU426
 1796              		.loc 1 468 5 discriminator 1 view .LVU427
 1797              		.syntax divided
 1798              	@ 468 "../../test/testbmk.c" 1
 1799 0038 9FF021E3 		msr     CPSR_c, #0x9F
 1800              	@ 0 "" 2
 1801              		.loc 1 468 5 discriminator 1 view .LVU428
 1802              		.loc 1 468 16 discriminator 1 view .LVU429
 1803              		.loc 1 469 5 discriminator 1 view .LVU430
 1804              		.arm
 1805              		.syntax unified
 1806 003c 0010A0E3 		mov	r1, #0
 1807 0040 0400A0E1 		mov	r0, r4
 1808 0044 FEFFFFEB 		bl	chIQPutI
 1809              	.LVL164:
 1810              		.loc 1 470 5 discriminator 1 view .LVU431
 1811 0048 0110A0E3 		mov	r1, #1
 1812 004c 0400A0E1 		mov	r0, r4
 1813 0050 FEFFFFEB 		bl	chIQPutI
 1814              	.LVL165:
 1815              		.loc 1 471 5 discriminator 1 view .LVU432
 1816 0054 0210A0E3 		mov	r1, #2
 1817 0058 0400A0E1 		mov	r0, r4
 1818 005c FEFFFFEB 		bl	chIQPutI
 1819              	.LVL166:
 1820              		.loc 1 472 5 discriminator 1 view .LVU433
 1821 0060 0310A0E3 		mov	r1, #3
 1822 0064 0400A0E1 		mov	r0, r4
 1823 0068 FEFFFFEB 		bl	chIQPutI
 1824              	.LVL167:
 1825              		.loc 1 473 5 discriminator 1 view .LVU434
 1826              		.loc 1 473 5 discriminator 1 view .LVU435
 1827              		.syntax divided
 1828              	@ 473 "../../test/testbmk.c" 1
 1829 006c 1FF021E3 		msr     CPSR_c, #0x1F
 1830              	@ 0 "" 2
 1831              		.loc 1 473 18 discriminator 1 view .LVU436
 1832              		.loc 1 474 5 discriminator 1 view .LVU437
 1833              		.loc 1 474 11 is_stmt 0 discriminator 1 view .LVU438
 1834              		.arm
 1835              		.syntax unified
ARM GAS  /tmp/cc2M6ISX.s 			page 34


 1836 0070 0010E0E3 		mvn	r1, #0
 1837 0074 0400A0E1 		mov	r0, r4
 1838 0078 FEFFFFEB 		bl	chIQGetTimeout
 1839              	.LVL168:
 1840              		.loc 1 475 5 is_stmt 1 discriminator 1 view .LVU439
 1841              		.loc 1 475 11 is_stmt 0 discriminator 1 view .LVU440
 1842 007c 0010E0E3 		mvn	r1, #0
 1843 0080 0400A0E1 		mov	r0, r4
 1844 0084 FEFFFFEB 		bl	chIQGetTimeout
 1845              	.LVL169:
 1846              		.loc 1 476 5 is_stmt 1 discriminator 1 view .LVU441
 1847              		.loc 1 476 11 is_stmt 0 discriminator 1 view .LVU442
 1848 0088 0010E0E3 		mvn	r1, #0
 1849 008c 0400A0E1 		mov	r0, r4
 1850 0090 FEFFFFEB 		bl	chIQGetTimeout
 1851              	.LVL170:
 1852              		.loc 1 477 5 is_stmt 1 discriminator 1 view .LVU443
 1853              		.loc 1 477 11 is_stmt 0 discriminator 1 view .LVU444
 1854 0094 0010E0E3 		mvn	r1, #0
 1855 0098 0400A0E1 		mov	r0, r4
 1856 009c FEFFFFEB 		bl	chIQGetTimeout
 1857              	.LVL171:
 1858              		.loc 1 478 5 is_stmt 1 discriminator 1 view .LVU445
 1859              		.loc 1 482 12 is_stmt 0 discriminator 1 view .LVU446
 1860 00a0 003096E5 		ldr	r3, [r6]
 1861              		.loc 1 478 6 discriminator 1 view .LVU447
 1862 00a4 015085E2 		add	r5, r5, #1
 1863              	.LVL172:
 1864              		.loc 1 482 12 is_stmt 1 discriminator 1 view .LVU448
 1865 00a8 000053E3 		cmp	r3, #0
 1866 00ac E1FFFF0A 		beq	.L92
 1867              		.loc 1 483 3 view .LVU449
 1868 00b0 24009FE5 		ldr	r0, .L96+12
 1869 00b4 FEFFFFEB 		bl	test_print
 1870              	.LVL173:
 1871              		.loc 1 484 3 view .LVU450
 1872 00b8 0501A0E1 		lsl	r0, r5, #2
 1873 00bc FEFFFFEB 		bl	test_printn
 1874              	.LVL174:
 1875              		.loc 1 485 3 view .LVU451
 1876 00c0 18009FE5 		ldr	r0, .L96+16
 1877              		.loc 1 486 1 is_stmt 0 view .LVU452
 1878 00c4 08D08DE2 		add	sp, sp, #8
 1879              		.cfi_def_cfa_offset 16
 1880              		@ sp needed
 1881 00c8 7040BDE8 		pop	{r4, r5, r6, lr}
 1882              		.cfi_restore 14
 1883              		.cfi_restore 6
 1884              		.cfi_restore 5
 1885              		.cfi_restore 4
 1886              		.cfi_def_cfa_offset 0
 1887              	.LVL175:
 1888              		.loc 1 485 3 view .LVU453
 1889 00cc FEFFFFEA 		b	test_println
 1890              	.LVL176:
 1891              	.L97:
 1892              		.align	2
ARM GAS  /tmp/cc2M6ISX.s 			page 35


 1893              	.L96:
 1894 00d0 00000000 		.word	.LANCHOR2
 1895 00d4 00000000 		.word	.LANCHOR1
 1896 00d8 00000000 		.word	test_timer_done
 1897 00dc 00000000 		.word	.LC11
 1898 00e0 00000000 		.word	.LC16
 1899              		.cfi_endproc
 1900              	.LFE22:
 1901              		.size	bmk9_execute, .-bmk9_execute
 1902              		.section	.rodata.bmk10_execute.str1.4,"aMS",%progbits,1
 1903              		.align	2
 1904              	.LC17:
 1905 0000 2074696D 		.ascii	" timers/S\000"
 1905      6572732F 
 1905      5300
 1906              		.section	.text.bmk10_execute,"ax",%progbits
 1907              		.align	2
 1908              		.syntax unified
 1909              		.arm
 1910              		.fpu softvfp
 1911              		.type	bmk10_execute, %function
 1912              	bmk10_execute:
 1913              	.LFB24:
 1914              		.loc 1 506 33 is_stmt 1 view -0
 1915              		.cfi_startproc
 1916              		@ args = 0, pretend = 0, frame = 0
 1917              		@ frame_needed = 0, uses_anonymous_args = 0
 1918              		.loc 1 507 3 view .LVU455
 1919              		.loc 1 508 3 view .LVU456
 1920              	.LVL177:
 1921              		.loc 1 510 3 view .LVU457
 1922              		.loc 1 506 33 is_stmt 0 view .LVU458
 1923 0000 F0412DE9 		push	{r4, r5, r6, r7, r8, lr}
 1924              		.cfi_def_cfa_offset 24
 1925              		.cfi_offset 4, -24
 1926              		.cfi_offset 5, -20
 1927              		.cfi_offset 6, -16
 1928              		.cfi_offset 7, -12
 1929              		.cfi_offset 8, -8
 1930              		.cfi_offset 14, -4
 1931              		.loc 1 510 3 view .LVU459
 1932 0004 FEFFFFEB 		bl	test_wait_tick
 1933              	.LVL178:
 1934              		.loc 1 511 3 is_stmt 1 view .LVU460
 1935 0008 FA0FA0E3 		mov	r0, #1000
 1936 000c FEFFFFEB 		bl	test_start_timer
 1937              	.LVL179:
 1938              		.loc 1 508 12 is_stmt 0 view .LVU461
 1939 0010 0040A0E3 		mov	r4, #0
 1940 0014 74809FE5 		ldr	r8, .L103
 1941              		.loc 1 514 5 view .LVU462
 1942 0018 74709FE5 		ldr	r7, .L103+4
 1943 001c 74609FE5 		ldr	r6, .L103+8
 1944              		.loc 1 515 5 view .LVU463
 1945 0020 74509FE5 		ldr	r5, .L103+12
 1946              	.LVL180:
 1947              	.L99:
ARM GAS  /tmp/cc2M6ISX.s 			page 36


 1948              		.loc 1 512 3 is_stmt 1 discriminator 1 view .LVU464
 1949              		.loc 1 513 5 discriminator 1 view .LVU465
 1950              		.syntax divided
 1951              	@ 513 "../../test/testbmk.c" 1
 1952 0024 9FF021E3 		msr     CPSR_c, #0x9F
 1953              	@ 0 "" 2
 1954              		.loc 1 513 5 discriminator 1 view .LVU466
 1955              		.loc 1 513 16 discriminator 1 view .LVU467
 1956              		.loc 1 514 5 discriminator 1 view .LVU468
 1957              		.arm
 1958              		.syntax unified
 1959 0028 0030A0E3 		mov	r3, #0
 1960 002c 0720A0E1 		mov	r2, r7
 1961 0030 0600A0E1 		mov	r0, r6
 1962 0034 0110A0E3 		mov	r1, #1
 1963 0038 FEFFFFEB 		bl	chVTSetI
 1964              	.LVL181:
 1965              		.loc 1 515 5 discriminator 1 view .LVU469
 1966 003c 0030A0E3 		mov	r3, #0
 1967 0040 0720A0E1 		mov	r2, r7
 1968 0044 54109FE5 		ldr	r1, .L103+16
 1969 0048 0500A0E1 		mov	r0, r5
 1970 004c FEFFFFEB 		bl	chVTSetI
 1971              	.LVL182:
 1972              		.loc 1 516 5 discriminator 1 view .LVU470
 1973 0050 0600A0E1 		mov	r0, r6
 1974 0054 FEFFFFEB 		bl	chVTResetI
 1975              	.LVL183:
 1976              		.loc 1 517 5 discriminator 1 view .LVU471
 1977 0058 0500A0E1 		mov	r0, r5
 1978 005c FEFFFFEB 		bl	chVTResetI
 1979              	.LVL184:
 1980              		.loc 1 518 5 discriminator 1 view .LVU472
 1981              		.loc 1 518 5 discriminator 1 view .LVU473
 1982              		.syntax divided
 1983              	@ 518 "../../test/testbmk.c" 1
 1984 0060 1FF021E3 		msr     CPSR_c, #0x1F
 1985              	@ 0 "" 2
 1986              		.loc 1 518 18 discriminator 1 view .LVU474
 1987              		.loc 1 519 5 discriminator 1 view .LVU475
 1988              		.loc 1 523 12 is_stmt 0 discriminator 1 view .LVU476
 1989              		.arm
 1990              		.syntax unified
 1991 0064 003098E5 		ldr	r3, [r8]
 1992              		.loc 1 519 6 discriminator 1 view .LVU477
 1993 0068 014084E2 		add	r4, r4, #1
 1994              	.LVL185:
 1995              		.loc 1 523 12 is_stmt 1 discriminator 1 view .LVU478
 1996 006c 000053E3 		cmp	r3, #0
 1997 0070 EBFFFF0A 		beq	.L99
 1998              		.loc 1 524 3 view .LVU479
 1999 0074 28009FE5 		ldr	r0, .L103+20
 2000 0078 FEFFFFEB 		bl	test_print
 2001              	.LVL186:
 2002              		.loc 1 525 3 view .LVU480
 2003 007c 8400A0E1 		lsl	r0, r4, #1
 2004 0080 FEFFFFEB 		bl	test_printn
ARM GAS  /tmp/cc2M6ISX.s 			page 37


 2005              	.LVL187:
 2006              		.loc 1 526 3 view .LVU481
 2007              		.loc 1 527 1 is_stmt 0 view .LVU482
 2008 0084 F041BDE8 		pop	{r4, r5, r6, r7, r8, lr}
 2009              		.cfi_restore 14
 2010              		.cfi_restore 8
 2011              		.cfi_restore 7
 2012              		.cfi_restore 6
 2013              		.cfi_restore 5
 2014              		.cfi_restore 4
 2015              		.cfi_def_cfa_offset 0
 2016              	.LVL188:
 2017              		.loc 1 526 3 view .LVU483
 2018 0088 18009FE5 		ldr	r0, .L103+24
 2019 008c FEFFFFEA 		b	test_println
 2020              	.LVL189:
 2021              	.L104:
 2022              		.align	2
 2023              	.L103:
 2024 0090 00000000 		.word	test_timer_done
 2025 0094 00000000 		.word	tmo
 2026 0098 00000000 		.word	.LANCHOR3
 2027 009c 00000000 		.word	.LANCHOR4
 2028 00a0 10270000 		.word	10000
 2029 00a4 00000000 		.word	.LC11
 2030 00a8 00000000 		.word	.LC17
 2031              		.cfi_endproc
 2032              	.LFE24:
 2033              		.size	bmk10_execute, .-bmk10_execute
 2034              		.section	.rodata.bmk11_execute.str1.4,"aMS",%progbits,1
 2035              		.align	2
 2036              	.LC18:
 2037 0000 20776169 		.ascii	" wait+signal/S\000"
 2037      742B7369 
 2037      676E616C 
 2037      2F5300
 2038              		.section	.text.bmk11_execute,"ax",%progbits
 2039              		.align	2
 2040              		.syntax unified
 2041              		.arm
 2042              		.fpu softvfp
 2043              		.type	bmk11_execute, %function
 2044              	bmk11_execute:
 2045              	.LFB26:
 2046              		.loc 1 551 33 is_stmt 1 view -0
 2047              		.cfi_startproc
 2048              		@ args = 0, pretend = 0, frame = 0
 2049              		@ frame_needed = 0, uses_anonymous_args = 0
 2050              		.loc 1 552 3 view .LVU485
 2051              	.LVL190:
 2052              		.loc 1 554 3 view .LVU486
 2053              		.loc 1 551 33 is_stmt 0 view .LVU487
 2054 0000 70402DE9 		push	{r4, r5, r6, lr}
 2055              		.cfi_def_cfa_offset 16
 2056              		.cfi_offset 4, -16
 2057              		.cfi_offset 5, -12
 2058              		.cfi_offset 6, -8
ARM GAS  /tmp/cc2M6ISX.s 			page 38


 2059              		.cfi_offset 14, -4
 2060              		.loc 1 554 3 view .LVU488
 2061 0004 FEFFFFEB 		bl	test_wait_tick
 2062              	.LVL191:
 2063              		.loc 1 555 3 is_stmt 1 view .LVU489
 2064 0008 FA0FA0E3 		mov	r0, #1000
 2065 000c FEFFFFEB 		bl	test_start_timer
 2066              	.LVL192:
 2067              		.loc 1 552 12 is_stmt 0 view .LVU490
 2068 0010 0050A0E3 		mov	r5, #0
 2069 0014 6C609FE5 		ldr	r6, .L110
 2070              		.loc 1 557 5 view .LVU491
 2071 0018 6C409FE5 		ldr	r4, .L110+4
 2072              	.LVL193:
 2073              	.L106:
 2074              		.loc 1 556 3 is_stmt 1 discriminator 1 view .LVU492
 2075              		.loc 1 557 5 discriminator 1 view .LVU493
 2076 001c 0400A0E1 		mov	r0, r4
 2077 0020 FEFFFFEB 		bl	chSemWait
 2078              	.LVL194:
 2079              		.loc 1 558 5 discriminator 1 view .LVU494
 2080 0024 0400A0E1 		mov	r0, r4
 2081 0028 FEFFFFEB 		bl	chSemSignal
 2082              	.LVL195:
 2083              		.loc 1 559 5 discriminator 1 view .LVU495
 2084 002c 0400A0E1 		mov	r0, r4
 2085 0030 FEFFFFEB 		bl	chSemWait
 2086              	.LVL196:
 2087              		.loc 1 560 5 discriminator 1 view .LVU496
 2088 0034 0400A0E1 		mov	r0, r4
 2089 0038 FEFFFFEB 		bl	chSemSignal
 2090              	.LVL197:
 2091              		.loc 1 561 5 discriminator 1 view .LVU497
 2092 003c 0400A0E1 		mov	r0, r4
 2093 0040 FEFFFFEB 		bl	chSemWait
 2094              	.LVL198:
 2095              		.loc 1 562 5 discriminator 1 view .LVU498
 2096 0044 0400A0E1 		mov	r0, r4
 2097 0048 FEFFFFEB 		bl	chSemSignal
 2098              	.LVL199:
 2099              		.loc 1 563 5 discriminator 1 view .LVU499
 2100 004c 0400A0E1 		mov	r0, r4
 2101 0050 FEFFFFEB 		bl	chSemWait
 2102              	.LVL200:
 2103              		.loc 1 564 5 discriminator 1 view .LVU500
 2104 0054 0400A0E1 		mov	r0, r4
 2105 0058 FEFFFFEB 		bl	chSemSignal
 2106              	.LVL201:
 2107              		.loc 1 565 5 discriminator 1 view .LVU501
 2108              		.loc 1 569 12 is_stmt 0 discriminator 1 view .LVU502
 2109 005c 003096E5 		ldr	r3, [r6]
 2110              		.loc 1 565 6 discriminator 1 view .LVU503
 2111 0060 015085E2 		add	r5, r5, #1
 2112              	.LVL202:
 2113              		.loc 1 569 12 is_stmt 1 discriminator 1 view .LVU504
 2114 0064 000053E3 		cmp	r3, #0
 2115 0068 EBFFFF0A 		beq	.L106
ARM GAS  /tmp/cc2M6ISX.s 			page 39


 2116              		.loc 1 570 3 view .LVU505
 2117 006c 1C009FE5 		ldr	r0, .L110+8
 2118 0070 FEFFFFEB 		bl	test_print
 2119              	.LVL203:
 2120              		.loc 1 571 3 view .LVU506
 2121 0074 0501A0E1 		lsl	r0, r5, #2
 2122 0078 FEFFFFEB 		bl	test_printn
 2123              	.LVL204:
 2124              		.loc 1 572 3 view .LVU507
 2125              		.loc 1 573 1 is_stmt 0 view .LVU508
 2126 007c 7040BDE8 		pop	{r4, r5, r6, lr}
 2127              		.cfi_restore 14
 2128              		.cfi_restore 6
 2129              		.cfi_restore 5
 2130              		.cfi_restore 4
 2131              		.cfi_def_cfa_offset 0
 2132              	.LVL205:
 2133              		.loc 1 572 3 view .LVU509
 2134 0080 0C009FE5 		ldr	r0, .L110+12
 2135 0084 FEFFFFEA 		b	test_println
 2136              	.LVL206:
 2137              	.L111:
 2138              		.align	2
 2139              	.L110:
 2140 0088 00000000 		.word	test_timer_done
 2141 008c 00000000 		.word	.LANCHOR0
 2142 0090 00000000 		.word	.LC11
 2143 0094 00000000 		.word	.LC18
 2144              		.cfi_endproc
 2145              	.LFE26:
 2146              		.size	bmk11_execute, .-bmk11_execute
 2147              		.section	.rodata.bmk12_execute.str1.4,"aMS",%progbits,1
 2148              		.align	2
 2149              	.LC19:
 2150 0000 206C6F63 		.ascii	" lock+unlock/S\000"
 2150      6B2B756E 
 2150      6C6F636B 
 2150      2F5300
 2151              		.section	.text.bmk12_execute,"ax",%progbits
 2152              		.align	2
 2153              		.syntax unified
 2154              		.arm
 2155              		.fpu softvfp
 2156              		.type	bmk12_execute, %function
 2157              	bmk12_execute:
 2158              	.LFB28:
 2159              		.loc 1 598 33 is_stmt 1 view -0
 2160              		.cfi_startproc
 2161              		@ args = 0, pretend = 0, frame = 0
 2162              		@ frame_needed = 0, uses_anonymous_args = 0
 2163              		.loc 1 599 3 view .LVU511
 2164              	.LVL207:
 2165              		.loc 1 601 3 view .LVU512
 2166              		.loc 1 598 33 is_stmt 0 view .LVU513
 2167 0000 70402DE9 		push	{r4, r5, r6, lr}
 2168              		.cfi_def_cfa_offset 16
 2169              		.cfi_offset 4, -16
ARM GAS  /tmp/cc2M6ISX.s 			page 40


 2170              		.cfi_offset 5, -12
 2171              		.cfi_offset 6, -8
 2172              		.cfi_offset 14, -4
 2173              		.loc 1 601 3 view .LVU514
 2174 0004 FEFFFFEB 		bl	test_wait_tick
 2175              	.LVL208:
 2176              		.loc 1 602 3 is_stmt 1 view .LVU515
 2177 0008 FA0FA0E3 		mov	r0, #1000
 2178 000c FEFFFFEB 		bl	test_start_timer
 2179              	.LVL209:
 2180              		.loc 1 599 12 is_stmt 0 view .LVU516
 2181 0010 0050A0E3 		mov	r5, #0
 2182 0014 5C609FE5 		ldr	r6, .L117
 2183              		.loc 1 604 5 view .LVU517
 2184 0018 5C409FE5 		ldr	r4, .L117+4
 2185              	.LVL210:
 2186              	.L113:
 2187              		.loc 1 603 3 is_stmt 1 discriminator 1 view .LVU518
 2188              		.loc 1 604 5 discriminator 1 view .LVU519
 2189 001c 0400A0E1 		mov	r0, r4
 2190 0020 FEFFFFEB 		bl	chMtxLock
 2191              	.LVL211:
 2192              		.loc 1 605 5 discriminator 1 view .LVU520
 2193 0024 FEFFFFEB 		bl	chMtxUnlock
 2194              	.LVL212:
 2195              		.loc 1 606 5 discriminator 1 view .LVU521
 2196 0028 0400A0E1 		mov	r0, r4
 2197 002c FEFFFFEB 		bl	chMtxLock
 2198              	.LVL213:
 2199              		.loc 1 607 5 discriminator 1 view .LVU522
 2200 0030 FEFFFFEB 		bl	chMtxUnlock
 2201              	.LVL214:
 2202              		.loc 1 608 5 discriminator 1 view .LVU523
 2203 0034 0400A0E1 		mov	r0, r4
 2204 0038 FEFFFFEB 		bl	chMtxLock
 2205              	.LVL215:
 2206              		.loc 1 609 5 discriminator 1 view .LVU524
 2207 003c FEFFFFEB 		bl	chMtxUnlock
 2208              	.LVL216:
 2209              		.loc 1 610 5 discriminator 1 view .LVU525
 2210 0040 0400A0E1 		mov	r0, r4
 2211 0044 FEFFFFEB 		bl	chMtxLock
 2212              	.LVL217:
 2213              		.loc 1 611 5 discriminator 1 view .LVU526
 2214 0048 FEFFFFEB 		bl	chMtxUnlock
 2215              	.LVL218:
 2216              		.loc 1 612 5 discriminator 1 view .LVU527
 2217              		.loc 1 616 12 is_stmt 0 discriminator 1 view .LVU528
 2218 004c 003096E5 		ldr	r3, [r6]
 2219              		.loc 1 612 6 discriminator 1 view .LVU529
 2220 0050 015085E2 		add	r5, r5, #1
 2221              	.LVL219:
 2222              		.loc 1 616 12 is_stmt 1 discriminator 1 view .LVU530
 2223 0054 000053E3 		cmp	r3, #0
 2224 0058 EFFFFF0A 		beq	.L113
 2225              		.loc 1 617 3 view .LVU531
 2226 005c 1C009FE5 		ldr	r0, .L117+8
ARM GAS  /tmp/cc2M6ISX.s 			page 41


 2227 0060 FEFFFFEB 		bl	test_print
 2228              	.LVL220:
 2229              		.loc 1 618 3 view .LVU532
 2230 0064 0501A0E1 		lsl	r0, r5, #2
 2231 0068 FEFFFFEB 		bl	test_printn
 2232              	.LVL221:
 2233              		.loc 1 619 3 view .LVU533
 2234              		.loc 1 620 1 is_stmt 0 view .LVU534
 2235 006c 7040BDE8 		pop	{r4, r5, r6, lr}
 2236              		.cfi_restore 14
 2237              		.cfi_restore 6
 2238              		.cfi_restore 5
 2239              		.cfi_restore 4
 2240              		.cfi_def_cfa_offset 0
 2241              	.LVL222:
 2242              		.loc 1 619 3 view .LVU535
 2243 0070 0C009FE5 		ldr	r0, .L117+12
 2244 0074 FEFFFFEA 		b	test_println
 2245              	.LVL223:
 2246              	.L118:
 2247              		.align	2
 2248              	.L117:
 2249 0078 00000000 		.word	test_timer_done
 2250 007c 00000000 		.word	.LANCHOR5
 2251 0080 00000000 		.word	.LC11
 2252 0084 00000000 		.word	.LC19
 2253              		.cfi_endproc
 2254              	.LFE28:
 2255              		.size	bmk12_execute, .-bmk12_execute
 2256              		.section	.text.bmk12_setup,"ax",%progbits
 2257              		.align	2
 2258              		.syntax unified
 2259              		.arm
 2260              		.fpu softvfp
 2261              		.type	bmk12_setup, %function
 2262              	bmk12_setup:
 2263              	.LFB27:
 2264              		.loc 1 593 31 is_stmt 1 view -0
 2265              		.cfi_startproc
 2266              		@ args = 0, pretend = 0, frame = 0
 2267              		@ frame_needed = 0, uses_anonymous_args = 0
 2268              		@ link register save eliminated.
 2269              		.loc 1 595 3 view .LVU537
 2270 0000 00009FE5 		ldr	r0, .L120
 2271 0004 FEFFFFEA 		b	chMtxInit
 2272              	.LVL224:
 2273              	.L121:
 2274              		.align	2
 2275              	.L120:
 2276 0008 00000000 		.word	.LANCHOR5
 2277              		.cfi_endproc
 2278              	.LFE27:
 2279              		.size	bmk12_setup, .-bmk12_setup
 2280              		.global	patternbmk
 2281              		.global	testbmk13
 2282              		.section	.rodata.str1.4,"aMS",%progbits,1
 2283              		.align	2
ARM GAS  /tmp/cc2M6ISX.s 			page 42


 2284              	.LC20:
 2285 0000 42656E63 		.ascii	"Benchmark, RAM footprint\000"
 2285      686D6172 
 2285      6B2C2052 
 2285      414D2066 
 2285      6F6F7470 
 2286              		.global	testbmk12
 2287 0019 000000   		.align	2
 2288              	.LC21:
 2289 001c 42656E63 		.ascii	"Benchmark, mutexes lock/unlock\000"
 2289      686D6172 
 2289      6B2C206D 
 2289      75746578 
 2289      6573206C 
 2290              		.global	testbmk11
 2291 003b 00       		.align	2
 2292              	.LC22:
 2293 003c 42656E63 		.ascii	"Benchmark, semaphores wait/signal\000"
 2293      686D6172 
 2293      6B2C2073 
 2293      656D6170 
 2293      686F7265 
 2294              		.global	testbmk10
 2295 005e 0000     		.align	2
 2296              	.LC23:
 2297 0060 42656E63 		.ascii	"Benchmark, virtual timers set/reset\000"
 2297      686D6172 
 2297      6B2C2076 
 2297      69727475 
 2297      616C2074 
 2298              		.global	testbmk9
 2299              		.align	2
 2300              	.LC24:
 2301 0084 42656E63 		.ascii	"Benchmark, I/O Queues throughput\000"
 2301      686D6172 
 2301      6B2C2049 
 2301      2F4F2051 
 2301      75657565 
 2302              		.global	testbmk8
 2303 00a5 000000   		.align	2
 2304              	.LC25:
 2305 00a8 42656E63 		.ascii	"Benchmark, round robin context switching\000"
 2305      686D6172 
 2305      6B2C2072 
 2305      6F756E64 
 2305      20726F62 
 2306              		.global	testbmk7
 2307 00d1 000000   		.align	2
 2308              	.LC26:
 2309 00d4 42656E63 		.ascii	"Benchmark, mass reschedule, 5 threads\000"
 2309      686D6172 
 2309      6B2C206D 
 2309      61737320 
 2309      72657363 
 2310              		.global	testbmk6
 2311 00fa 0000     		.align	2
 2312              	.LC27:
ARM GAS  /tmp/cc2M6ISX.s 			page 43


 2313 00fc 42656E63 		.ascii	"Benchmark, threads, create only\000"
 2313      686D6172 
 2313      6B2C2074 
 2313      68726561 
 2313      64732C20 
 2314              		.global	testbmk5
 2315              		.align	2
 2316              	.LC28:
 2317 011c 42656E63 		.ascii	"Benchmark, threads, full cycle\000"
 2317      686D6172 
 2317      6B2C2074 
 2317      68726561 
 2317      64732C20 
 2318              		.global	testbmk4
 2319 013b 00       		.align	2
 2320              	.LC29:
 2321 013c 42656E63 		.ascii	"Benchmark, context switch\000"
 2321      686D6172 
 2321      6B2C2063 
 2321      6F6E7465 
 2321      78742073 
 2322              		.global	testbmk3
 2323 0156 0000     		.align	2
 2324              	.LC30:
 2325 0158 42656E63 		.ascii	"Benchmark, messages #3\000"
 2325      686D6172 
 2325      6B2C206D 
 2325      65737361 
 2325      67657320 
 2326              		.global	testbmk2
 2327 016f 00       		.align	2
 2328              	.LC31:
 2329 0170 42656E63 		.ascii	"Benchmark, messages #2\000"
 2329      686D6172 
 2329      6B2C206D 
 2329      65737361 
 2329      67657320 
 2330              		.global	testbmk1
 2331 0187 00       		.align	2
 2332              	.LC32:
 2333 0188 42656E63 		.ascii	"Benchmark, messages #1\000"
 2333      686D6172 
 2333      6B2C206D 
 2333      65737361 
 2333      67657320 
 2334              		.section	.bss.ib.2,"aw",%nobits
 2335              		.align	2
 2336              		.set	.LANCHOR1,. + 0
 2337              		.type	ib.2, %object
 2338              		.size	ib.2, 16
 2339              	ib.2:
 2340 0000 00000000 		.space	16
 2340      00000000 
 2340      00000000 
 2340      00000000 
 2341              		.section	.bss.iq.3,"aw",%nobits
 2342              		.align	2
ARM GAS  /tmp/cc2M6ISX.s 			page 44


 2343              		.set	.LANCHOR2,. + 0
 2344              		.type	iq.3, %object
 2345              		.size	iq.3, 36
 2346              	iq.3:
 2347 0000 00000000 		.space	36
 2347      00000000 
 2347      00000000 
 2347      00000000 
 2347      00000000 
 2348              		.section	.bss.mtx1,"aw",%nobits
 2349              		.align	2
 2350              		.set	.LANCHOR5,. + 0
 2351              		.type	mtx1, %object
 2352              		.size	mtx1, 16
 2353              	mtx1:
 2354 0000 00000000 		.space	16
 2354      00000000 
 2354      00000000 
 2354      00000000 
 2355              		.section	.bss.sem1,"aw",%nobits
 2356              		.align	2
 2357              		.set	.LANCHOR0,. + 0
 2358              		.type	sem1, %object
 2359              		.size	sem1, 12
 2360              	sem1:
 2361 0000 00000000 		.space	12
 2361      00000000 
 2361      00000000 
 2362              		.section	.bss.vt1.1,"aw",%nobits
 2363              		.align	2
 2364              		.set	.LANCHOR3,. + 0
 2365              		.type	vt1.1, %object
 2366              		.size	vt1.1, 20
 2367              	vt1.1:
 2368 0000 00000000 		.space	20
 2368      00000000 
 2368      00000000 
 2368      00000000 
 2368      00000000 
 2369              		.section	.bss.vt2.0,"aw",%nobits
 2370              		.align	2
 2371              		.set	.LANCHOR4,. + 0
 2372              		.type	vt2.0, %object
 2373              		.size	vt2.0, 20
 2374              	vt2.0:
 2375 0000 00000000 		.space	20
 2375      00000000 
 2375      00000000 
 2375      00000000 
 2375      00000000 
 2376              		.section	.rodata.patternbmk,"a"
 2377              		.align	2
 2378              		.type	patternbmk, %object
 2379              		.size	patternbmk, 56
 2380              	patternbmk:
 2381 0000 00000000 		.word	testbmk1
 2382 0004 00000000 		.word	testbmk2
ARM GAS  /tmp/cc2M6ISX.s 			page 45


 2383 0008 00000000 		.word	testbmk3
 2384 000c 00000000 		.word	testbmk4
 2385 0010 00000000 		.word	testbmk5
 2386 0014 00000000 		.word	testbmk6
 2387 0018 00000000 		.word	testbmk7
 2388 001c 00000000 		.word	testbmk8
 2389 0020 00000000 		.word	testbmk9
 2390 0024 00000000 		.word	testbmk10
 2391 0028 00000000 		.word	testbmk11
 2392 002c 00000000 		.word	testbmk12
 2393 0030 00000000 		.word	testbmk13
 2394 0034 00000000 		.word	0
 2395              		.section	.rodata.testbmk1,"a"
 2396              		.align	2
 2397              		.type	testbmk1, %object
 2398              		.size	testbmk1, 16
 2399              	testbmk1:
 2400 0000 88010000 		.word	.LC32
 2401 0004 00000000 		.word	0
 2402 0008 00000000 		.word	0
 2403 000c 00000000 		.word	bmk1_execute
 2404              		.section	.rodata.testbmk10,"a"
 2405              		.align	2
 2406              		.type	testbmk10, %object
 2407              		.size	testbmk10, 16
 2408              	testbmk10:
 2409 0000 60000000 		.word	.LC23
 2410 0004 00000000 		.word	0
 2411 0008 00000000 		.word	0
 2412 000c 00000000 		.word	bmk10_execute
 2413              		.section	.rodata.testbmk11,"a"
 2414              		.align	2
 2415              		.type	testbmk11, %object
 2416              		.size	testbmk11, 16
 2417              	testbmk11:
 2418 0000 3C000000 		.word	.LC22
 2419 0004 00000000 		.word	bmk11_setup
 2420 0008 00000000 		.word	0
 2421 000c 00000000 		.word	bmk11_execute
 2422              		.section	.rodata.testbmk12,"a"
 2423              		.align	2
 2424              		.type	testbmk12, %object
 2425              		.size	testbmk12, 16
 2426              	testbmk12:
 2427 0000 1C000000 		.word	.LC21
 2428 0004 00000000 		.word	bmk12_setup
 2429 0008 00000000 		.word	0
 2430 000c 00000000 		.word	bmk12_execute
 2431              		.section	.rodata.testbmk13,"a"
 2432              		.align	2
 2433              		.type	testbmk13, %object
 2434              		.size	testbmk13, 16
 2435              	testbmk13:
 2436 0000 00000000 		.word	.LC20
 2437 0004 00000000 		.word	0
 2438 0008 00000000 		.word	0
 2439 000c 00000000 		.word	bmk13_execute
ARM GAS  /tmp/cc2M6ISX.s 			page 46


 2440              		.section	.rodata.testbmk2,"a"
 2441              		.align	2
 2442              		.type	testbmk2, %object
 2443              		.size	testbmk2, 16
 2444              	testbmk2:
 2445 0000 70010000 		.word	.LC31
 2446 0004 00000000 		.word	0
 2447 0008 00000000 		.word	0
 2448 000c 00000000 		.word	bmk2_execute
 2449              		.section	.rodata.testbmk3,"a"
 2450              		.align	2
 2451              		.type	testbmk3, %object
 2452              		.size	testbmk3, 16
 2453              	testbmk3:
 2454 0000 58010000 		.word	.LC30
 2455 0004 00000000 		.word	0
 2456 0008 00000000 		.word	0
 2457 000c 00000000 		.word	bmk3_execute
 2458              		.section	.rodata.testbmk4,"a"
 2459              		.align	2
 2460              		.type	testbmk4, %object
 2461              		.size	testbmk4, 16
 2462              	testbmk4:
 2463 0000 3C010000 		.word	.LC29
 2464 0004 00000000 		.word	0
 2465 0008 00000000 		.word	0
 2466 000c 00000000 		.word	bmk4_execute
 2467              		.section	.rodata.testbmk5,"a"
 2468              		.align	2
 2469              		.type	testbmk5, %object
 2470              		.size	testbmk5, 16
 2471              	testbmk5:
 2472 0000 1C010000 		.word	.LC28
 2473 0004 00000000 		.word	0
 2474 0008 00000000 		.word	0
 2475 000c 00000000 		.word	bmk5_execute
 2476              		.section	.rodata.testbmk6,"a"
 2477              		.align	2
 2478              		.type	testbmk6, %object
 2479              		.size	testbmk6, 16
 2480              	testbmk6:
 2481 0000 FC000000 		.word	.LC27
 2482 0004 00000000 		.word	0
 2483 0008 00000000 		.word	0
 2484 000c 00000000 		.word	bmk6_execute
 2485              		.section	.rodata.testbmk7,"a"
 2486              		.align	2
 2487              		.type	testbmk7, %object
 2488              		.size	testbmk7, 16
 2489              	testbmk7:
 2490 0000 D4000000 		.word	.LC26
 2491 0004 00000000 		.word	bmk7_setup
 2492 0008 00000000 		.word	0
 2493 000c 00000000 		.word	bmk7_execute
 2494              		.section	.rodata.testbmk8,"a"
 2495              		.align	2
 2496              		.type	testbmk8, %object
ARM GAS  /tmp/cc2M6ISX.s 			page 47


 2497              		.size	testbmk8, 16
 2498              	testbmk8:
 2499 0000 A8000000 		.word	.LC25
 2500 0004 00000000 		.word	0
 2501 0008 00000000 		.word	0
 2502 000c 00000000 		.word	bmk8_execute
 2503              		.section	.rodata.testbmk9,"a"
 2504              		.align	2
 2505              		.type	testbmk9, %object
 2506              		.size	testbmk9, 16
 2507              	testbmk9:
 2508 0000 84000000 		.word	.LC24
 2509 0004 00000000 		.word	0
 2510 0008 00000000 		.word	0
 2511 000c 00000000 		.word	bmk9_execute
 2512              		.text
 2513              	.Letext0:
 2514              		.file 2 "/usr/lib/gcc/arm-none-eabi/11.2.0/include/stddef.h"
 2515              		.file 3 "/usr/arm-none-eabi/include/machine/_default_types.h"
 2516              		.file 4 "/usr/arm-none-eabi/include/sys/_stdint.h"
 2517              		.file 5 "../../os/ports/GCC/ARM/chtypes.h"
 2518              		.file 6 "../../os/kernel/include/chlists.h"
 2519              		.file 7 "../../os/kernel/include/chthreads.h"
 2520              		.file 8 "../../os/ports/GCC/ARM/chcore.h"
 2521              		.file 9 "../../os/kernel/include/chvt.h"
 2522              		.file 10 "../../os/kernel/include/chschd.h"
 2523              		.file 11 "../../os/kernel/include/chsem.h"
 2524              		.file 12 "../../os/kernel/include/chmtx.h"
 2525              		.file 13 "../../os/kernel/include/chqueues.h"
 2526              		.file 14 "../../test/test.h"
 2527              		.file 15 "../../os/kernel/include/chmsg.h"