ARM GAS  /tmp/ccfsVjDs.s 			page 1


   1              		.cpu arm1176jz-s
   2              		.eabi_attribute 20, 1
   3              		.eabi_attribute 21, 1
   4              		.eabi_attribute 23, 3
   5              		.eabi_attribute 24, 1
   6              		.eabi_attribute 25, 1
   7              		.eabi_attribute 26, 1
   8              		.eabi_attribute 30, 2
   9              		.eabi_attribute 34, 1
  10              		.eabi_attribute 18, 4
  11              		.file	"testheap.c"
  12              		.text
  13              	.Ltext0:
  14              		.cfi_sections	.debug_frame
  15              		.section	.text.heap1_execute,"ax",%progbits
  16              		.align	2
  17              		.arch armv6kz
  18              		.syntax unified
  19              		.arm
  20              		.fpu softvfp
  21              		.type	heap1_execute, %function
  22              	heap1_execute:
  23              	.LFB8:
  24              		.file 1 "../../test/testheap.c"
  25              		.loc 1 73 33 view -0
  26              		.cfi_startproc
  27              		@ args = 0, pretend = 0, frame = 8
  28              		@ frame_needed = 0, uses_anonymous_args = 0
  29              		.loc 1 74 3 view .LVU1
  30              		.loc 1 75 3 view .LVU2
  31              		.loc 1 78 3 view .LVU3
  32              		.loc 1 73 33 is_stmt 0 view .LVU4
  33 0000 70402DE9 		push	{r4, r5, r6, lr}
  34              		.cfi_def_cfa_offset 16
  35              		.cfi_offset 4, -16
  36              		.cfi_offset 5, -12
  37              		.cfi_offset 6, -8
  38              		.cfi_offset 14, -4
  39 0004 08D04DE2 		sub	sp, sp, #8
  40              		.cfi_def_cfa_offset 24
  41              		.loc 1 78 9 view .LVU5
  42 0008 FEFFFFEB 		bl	chCoreStatus
  43              	.LVL0:
  44              		.loc 1 84 3 is_stmt 1 view .LVU6
  45              		.loc 1 84 9 is_stmt 0 view .LVU7
  46 000c 04108DE2 		add	r1, sp, #4
  47 0010 0000A0E3 		mov	r0, #0
  48 0014 FEFFFFEB 		bl	chHeapStatus
  49              	.LVL1:
  50              		.loc 1 85 3 is_stmt 1 view .LVU8
  51              		.loc 1 85 8 is_stmt 0 view .LVU9
  52 0018 1010A0E3 		mov	r1, #16
  53 001c 0000A0E3 		mov	r0, #0
  54 0020 FEFFFFEB 		bl	chHeapAlloc
  55              	.LVL2:
  56 0024 0050A0E1 		mov	r5, r0
  57              	.LVL3:
ARM GAS  /tmp/ccfsVjDs.s 			page 2


  58              		.loc 1 86 3 is_stmt 1 view .LVU10
  59 0028 001055E2 		subs	r1, r5, #0
  60 002c 0110A013 		movne	r1, #1
  61 0030 0100A0E3 		mov	r0, #1
  62              	.LVL4:
  63              		.loc 1 86 3 is_stmt 0 view .LVU11
  64 0034 FEFFFFEB 		bl	_test_assert
  65              	.LVL5:
  66 0038 004050E2 		subs	r4, r0, #0
  67 003c 0100000A 		beq	.L9
  68              	.LVL6:
  69              	.L1:
  70              		.loc 1 144 1 view .LVU12
  71 0040 08D08DE2 		add	sp, sp, #8
  72              		.cfi_remember_state
  73              		.cfi_def_cfa_offset 16
  74              		@ sp needed
  75 0044 7080BDE8 		pop	{r4, r5, r6, pc}
  76              	.LVL7:
  77              	.L9:
  78              		.cfi_restore_state
  79              		.loc 1 86 50 is_stmt 1 discriminator 2 view .LVU13
  80              		.loc 1 87 3 discriminator 2 view .LVU14
  81 0048 0500A0E1 		mov	r0, r5
  82 004c FEFFFFEB 		bl	chHeapFree
  83              	.LVL8:
  84              		.loc 1 88 3 discriminator 2 view .LVU15
  85              		.loc 1 88 8 is_stmt 0 discriminator 2 view .LVU16
  86 0050 FF10E0E3 		mvn	r1, #255
  87 0054 0400A0E1 		mov	r0, r4
  88 0058 FEFFFFEB 		bl	chHeapAlloc
  89              	.LVL9:
  90 005c 0010A0E1 		mov	r1, r0
  91              	.LVL10:
  92              		.loc 1 89 3 is_stmt 1 discriminator 2 view .LVU17
  93 0060 111F6FE1 		clz	r1, r1
  94 0064 0200A0E3 		mov	r0, #2
  95              	.LVL11:
  96              		.loc 1 89 3 is_stmt 0 discriminator 2 view .LVU18
  97 0068 A112A0E1 		lsr	r1, r1, #5
  98 006c FEFFFFEB 		bl	_test_assert
  99              	.LVL12:
 100 0070 000050E3 		cmp	r0, #0
 101 0074 F1FFFF1A 		bne	.L1
 102              		.loc 1 89 54 is_stmt 1 discriminator 2 view .LVU19
 103              		.loc 1 92 3 discriminator 2 view .LVU20
 104              		.loc 1 92 9 is_stmt 0 discriminator 2 view .LVU21
 105 0078 04108DE2 		add	r1, sp, #4
 106 007c F4029FE5 		ldr	r0, .L10
 107 0080 FEFFFFEB 		bl	chHeapStatus
 108              	.LVL13:
 109              		.loc 1 95 3 is_stmt 1 discriminator 2 view .LVU22
 110              		.loc 1 95 8 is_stmt 0 discriminator 2 view .LVU23
 111 0084 1010A0E3 		mov	r1, #16
 112 0088 E8029FE5 		ldr	r0, .L10
 113 008c FEFFFFEB 		bl	chHeapAlloc
 114              	.LVL14:
ARM GAS  /tmp/ccfsVjDs.s 			page 3


 115              		.loc 1 96 8 discriminator 2 view .LVU24
 116 0090 1010A0E3 		mov	r1, #16
 117              		.loc 1 95 8 discriminator 2 view .LVU25
 118 0094 0060A0E1 		mov	r6, r0
 119              	.LVL15:
 120              		.loc 1 96 3 is_stmt 1 discriminator 2 view .LVU26
 121              		.loc 1 96 8 is_stmt 0 discriminator 2 view .LVU27
 122 0098 D8029FE5 		ldr	r0, .L10
 123              	.LVL16:
 124              		.loc 1 96 8 discriminator 2 view .LVU28
 125 009c FEFFFFEB 		bl	chHeapAlloc
 126              	.LVL17:
 127              		.loc 1 97 8 discriminator 2 view .LVU29
 128 00a0 1010A0E3 		mov	r1, #16
 129              		.loc 1 96 8 discriminator 2 view .LVU30
 130 00a4 0050A0E1 		mov	r5, r0
 131              		.loc 1 97 8 discriminator 2 view .LVU31
 132 00a8 C8029FE5 		ldr	r0, .L10
 133              	.LVL18:
 134              		.loc 1 97 3 is_stmt 1 discriminator 2 view .LVU32
 135              		.loc 1 97 8 is_stmt 0 discriminator 2 view .LVU33
 136 00ac FEFFFFEB 		bl	chHeapAlloc
 137              	.LVL19:
 138 00b0 0040A0E1 		mov	r4, r0
 139              		.loc 1 98 3 discriminator 2 view .LVU34
 140 00b4 0600A0E1 		mov	r0, r6
 141              	.LVL20:
 142              		.loc 1 98 3 is_stmt 1 discriminator 2 view .LVU35
 143 00b8 FEFFFFEB 		bl	chHeapFree
 144              	.LVL21:
 145              		.loc 1 99 3 discriminator 2 view .LVU36
 146 00bc 0500A0E1 		mov	r0, r5
 147 00c0 FEFFFFEB 		bl	chHeapFree
 148              	.LVL22:
 149              		.loc 1 100 3 discriminator 2 view .LVU37
 150 00c4 0400A0E1 		mov	r0, r4
 151 00c8 FEFFFFEB 		bl	chHeapFree
 152              	.LVL23:
 153              		.loc 1 101 3 discriminator 2 view .LVU38
 154 00cc 0D10A0E1 		mov	r1, sp
 155 00d0 A0029FE5 		ldr	r0, .L10
 156 00d4 FEFFFFEB 		bl	chHeapStatus
 157              	.LVL24:
 158 00d8 0010A0E1 		mov	r1, r0
 159 00dc 011041E2 		sub	r1, r1, #1
 160 00e0 111F6FE1 		clz	r1, r1
 161 00e4 0300A0E3 		mov	r0, #3
 162 00e8 A112A0E1 		lsr	r1, r1, #5
 163 00ec FEFFFFEB 		bl	_test_assert
 164              	.LVL25:
 165 00f0 000050E3 		cmp	r0, #0
 166 00f4 D1FFFF1A 		bne	.L1
 167              		.loc 1 101 71 discriminator 2 view .LVU39
 168              		.loc 1 104 3 discriminator 2 view .LVU40
 169              		.loc 1 104 8 is_stmt 0 discriminator 2 view .LVU41
 170 00f8 1010A0E3 		mov	r1, #16
 171 00fc 74029FE5 		ldr	r0, .L10
ARM GAS  /tmp/ccfsVjDs.s 			page 4


 172 0100 FEFFFFEB 		bl	chHeapAlloc
 173              	.LVL26:
 174              		.loc 1 105 8 discriminator 2 view .LVU42
 175 0104 1010A0E3 		mov	r1, #16
 176              		.loc 1 104 8 discriminator 2 view .LVU43
 177 0108 0040A0E1 		mov	r4, r0
 178              	.LVL27:
 179              		.loc 1 105 8 discriminator 2 view .LVU44
 180 010c 64029FE5 		ldr	r0, .L10
 181              	.LVL28:
 182              		.loc 1 105 3 is_stmt 1 discriminator 2 view .LVU45
 183              		.loc 1 105 8 is_stmt 0 discriminator 2 view .LVU46
 184 0110 FEFFFFEB 		bl	chHeapAlloc
 185              	.LVL29:
 186 0114 0050A0E1 		mov	r5, r0
 187              	.LVL30:
 188              		.loc 1 106 8 discriminator 2 view .LVU47
 189 0118 1010A0E3 		mov	r1, #16
 190 011c 54029FE5 		ldr	r0, .L10
 191              	.LVL31:
 192              		.loc 1 106 3 is_stmt 1 discriminator 2 view .LVU48
 193              		.loc 1 106 8 is_stmt 0 discriminator 2 view .LVU49
 194 0120 FEFFFFEB 		bl	chHeapAlloc
 195              	.LVL32:
 196              		.loc 1 107 3 is_stmt 1 discriminator 2 view .LVU50
 197 0124 FEFFFFEB 		bl	chHeapFree
 198              	.LVL33:
 199              		.loc 1 108 3 discriminator 2 view .LVU51
 200 0128 0500A0E1 		mov	r0, r5
 201 012c FEFFFFEB 		bl	chHeapFree
 202              	.LVL34:
 203              		.loc 1 109 3 discriminator 2 view .LVU52
 204 0130 0400A0E1 		mov	r0, r4
 205 0134 FEFFFFEB 		bl	chHeapFree
 206              	.LVL35:
 207              		.loc 1 110 3 discriminator 2 view .LVU53
 208 0138 0D10A0E1 		mov	r1, sp
 209 013c 34029FE5 		ldr	r0, .L10
 210 0140 FEFFFFEB 		bl	chHeapStatus
 211              	.LVL36:
 212 0144 0010A0E1 		mov	r1, r0
 213 0148 011041E2 		sub	r1, r1, #1
 214 014c 111F6FE1 		clz	r1, r1
 215 0150 0400A0E3 		mov	r0, #4
 216 0154 A112A0E1 		lsr	r1, r1, #5
 217 0158 FEFFFFEB 		bl	_test_assert
 218              	.LVL37:
 219 015c 000050E3 		cmp	r0, #0
 220 0160 B6FFFF1A 		bne	.L1
 221              		.loc 1 110 71 discriminator 2 view .LVU54
 222              		.loc 1 113 3 discriminator 2 view .LVU55
 223              		.loc 1 113 8 is_stmt 0 discriminator 2 view .LVU56
 224 0164 1110A0E3 		mov	r1, #17
 225 0168 08029FE5 		ldr	r0, .L10
 226 016c FEFFFFEB 		bl	chHeapAlloc
 227              	.LVL38:
 228              		.loc 1 114 8 discriminator 2 view .LVU57
ARM GAS  /tmp/ccfsVjDs.s 			page 5


 229 0170 1010A0E3 		mov	r1, #16
 230              		.loc 1 113 8 discriminator 2 view .LVU58
 231 0174 0040A0E1 		mov	r4, r0
 232              	.LVL39:
 233              		.loc 1 114 8 discriminator 2 view .LVU59
 234 0178 F8019FE5 		ldr	r0, .L10
 235              	.LVL40:
 236              		.loc 1 114 3 is_stmt 1 discriminator 2 view .LVU60
 237              		.loc 1 114 8 is_stmt 0 discriminator 2 view .LVU61
 238 017c FEFFFFEB 		bl	chHeapAlloc
 239              	.LVL41:
 240 0180 0030A0E1 		mov	r3, r0
 241              		.loc 1 115 3 discriminator 2 view .LVU62
 242 0184 0400A0E1 		mov	r0, r4
 243              		.loc 1 114 8 discriminator 2 view .LVU63
 244 0188 0340A0E1 		mov	r4, r3
 245              	.LVL42:
 246              		.loc 1 115 3 is_stmt 1 discriminator 2 view .LVU64
 247 018c FEFFFFEB 		bl	chHeapFree
 248              	.LVL43:
 249              		.loc 1 116 3 discriminator 2 view .LVU65
 250 0190 0D10A0E1 		mov	r1, sp
 251 0194 DC019FE5 		ldr	r0, .L10
 252 0198 FEFFFFEB 		bl	chHeapStatus
 253              	.LVL44:
 254 019c 0010A0E1 		mov	r1, r0
 255 01a0 021041E2 		sub	r1, r1, #2
 256 01a4 111F6FE1 		clz	r1, r1
 257 01a8 0500A0E3 		mov	r0, #5
 258 01ac A112A0E1 		lsr	r1, r1, #5
 259 01b0 FEFFFFEB 		bl	_test_assert
 260              	.LVL45:
 261 01b4 000050E3 		cmp	r0, #0
 262 01b8 A0FFFF1A 		bne	.L1
 263              		.loc 1 116 69 discriminator 2 view .LVU66
 264              		.loc 1 117 3 discriminator 2 view .LVU67
 265              		.loc 1 117 8 is_stmt 0 discriminator 2 view .LVU68
 266 01bc 1010A0E3 		mov	r1, #16
 267 01c0 B0019FE5 		ldr	r0, .L10
 268 01c4 FEFFFFEB 		bl	chHeapAlloc
 269              	.LVL46:
 270              		.loc 1 120 3 discriminator 2 view .LVU69
 271 01c8 0D10A0E1 		mov	r1, sp
 272              		.loc 1 117 8 discriminator 2 view .LVU70
 273 01cc 0050A0E1 		mov	r5, r0
 274              		.loc 1 120 3 discriminator 2 view .LVU71
 275 01d0 A0019FE5 		ldr	r0, .L10
 276              	.LVL47:
 277              		.loc 1 120 3 is_stmt 1 discriminator 2 view .LVU72
 278 01d4 FEFFFFEB 		bl	chHeapStatus
 279              	.LVL48:
 280 01d8 010050E3 		cmp	r0, #1
 281 01dc 0010A0E1 		mov	r1, r0
 282 01e0 0500000A 		beq	.L5
 283 01e4 0D10A0E1 		mov	r1, sp
 284 01e8 88019FE5 		ldr	r0, .L10
 285 01ec FEFFFFEB 		bl	chHeapStatus
ARM GAS  /tmp/ccfsVjDs.s 			page 6


 286              	.LVL49:
 287 01f0 021040E2 		sub	r1, r0, #2
 288 01f4 111F6FE1 		clz	r1, r1
 289 01f8 A112A0E1 		lsr	r1, r1, #5
 290              	.L5:
 291              		.loc 1 120 3 is_stmt 0 discriminator 6 view .LVU73
 292 01fc 0600A0E3 		mov	r0, #6
 293 0200 FEFFFFEB 		bl	_test_assert
 294              	.LVL50:
 295 0204 000050E3 		cmp	r0, #0
 296 0208 8CFFFF1A 		bne	.L1
 297              		.loc 1 121 73 is_stmt 1 view .LVU74
 298              		.loc 1 122 3 view .LVU75
 299 020c 0400A0E1 		mov	r0, r4
 300 0210 FEFFFFEB 		bl	chHeapFree
 301              	.LVL51:
 302              		.loc 1 123 3 view .LVU76
 303 0214 0500A0E1 		mov	r0, r5
 304 0218 FEFFFFEB 		bl	chHeapFree
 305              	.LVL52:
 306              		.loc 1 124 3 view .LVU77
 307 021c 0D10A0E1 		mov	r1, sp
 308 0220 50019FE5 		ldr	r0, .L10
 309 0224 FEFFFFEB 		bl	chHeapStatus
 310              	.LVL53:
 311 0228 0010A0E1 		mov	r1, r0
 312 022c 011041E2 		sub	r1, r1, #1
 313 0230 111F6FE1 		clz	r1, r1
 314 0234 0700A0E3 		mov	r0, #7
 315 0238 A112A0E1 		lsr	r1, r1, #5
 316 023c FEFFFFEB 		bl	_test_assert
 317              	.LVL54:
 318 0240 000050E3 		cmp	r0, #0
 319 0244 7DFFFF1A 		bne	.L1
 320              		.loc 1 124 71 discriminator 2 view .LVU78
 321              		.loc 1 127 3 discriminator 2 view .LVU79
 322              		.loc 1 127 8 is_stmt 0 discriminator 2 view .LVU80
 323 0248 1010A0E3 		mov	r1, #16
 324 024c 24019FE5 		ldr	r0, .L10
 325 0250 FEFFFFEB 		bl	chHeapAlloc
 326              	.LVL55:
 327              		.loc 1 128 8 discriminator 2 view .LVU81
 328 0254 1010A0E3 		mov	r1, #16
 329              		.loc 1 127 8 discriminator 2 view .LVU82
 330 0258 0040A0E1 		mov	r4, r0
 331              	.LVL56:
 332              		.loc 1 128 8 discriminator 2 view .LVU83
 333 025c 14019FE5 		ldr	r0, .L10
 334              	.LVL57:
 335              		.loc 1 128 3 is_stmt 1 discriminator 2 view .LVU84
 336              		.loc 1 128 8 is_stmt 0 discriminator 2 view .LVU85
 337 0260 FEFFFFEB 		bl	chHeapAlloc
 338              	.LVL58:
 339 0264 0030A0E1 		mov	r3, r0
 340              		.loc 1 129 3 discriminator 2 view .LVU86
 341 0268 0400A0E1 		mov	r0, r4
 342              		.loc 1 128 8 discriminator 2 view .LVU87
ARM GAS  /tmp/ccfsVjDs.s 			page 7


 343 026c 0340A0E1 		mov	r4, r3
 344              	.LVL59:
 345              		.loc 1 129 3 is_stmt 1 discriminator 2 view .LVU88
 346 0270 FEFFFFEB 		bl	chHeapFree
 347              	.LVL60:
 348              		.loc 1 130 3 discriminator 2 view .LVU89
 349 0274 0D10A0E1 		mov	r1, sp
 350 0278 F8009FE5 		ldr	r0, .L10
 351 027c FEFFFFEB 		bl	chHeapStatus
 352              	.LVL61:
 353 0280 0010A0E1 		mov	r1, r0
 354 0284 021041E2 		sub	r1, r1, #2
 355 0288 111F6FE1 		clz	r1, r1
 356 028c 0800A0E3 		mov	r0, #8
 357 0290 A112A0E1 		lsr	r1, r1, #5
 358 0294 FEFFFFEB 		bl	_test_assert
 359              	.LVL62:
 360 0298 000050E3 		cmp	r0, #0
 361 029c 67FFFF1A 		bne	.L1
 362              		.loc 1 130 69 discriminator 2 view .LVU90
 363              		.loc 1 131 3 discriminator 2 view .LVU91
 364              		.loc 1 131 8 is_stmt 0 discriminator 2 view .LVU92
 365 02a0 2010A0E3 		mov	r1, #32
 366 02a4 CC009FE5 		ldr	r0, .L10
 367 02a8 FEFFFFEB 		bl	chHeapAlloc
 368              	.LVL63:
 369              		.loc 1 132 3 is_stmt 1 discriminator 2 view .LVU93
 370 02ac FEFFFFEB 		bl	chHeapFree
 371              	.LVL64:
 372              		.loc 1 133 3 discriminator 2 view .LVU94
 373 02b0 0400A0E1 		mov	r0, r4
 374 02b4 FEFFFFEB 		bl	chHeapFree
 375              	.LVL65:
 376              		.loc 1 134 3 discriminator 2 view .LVU95
 377 02b8 0D10A0E1 		mov	r1, sp
 378 02bc B4009FE5 		ldr	r0, .L10
 379 02c0 FEFFFFEB 		bl	chHeapStatus
 380              	.LVL66:
 381 02c4 0010A0E1 		mov	r1, r0
 382 02c8 011041E2 		sub	r1, r1, #1
 383 02cc 111F6FE1 		clz	r1, r1
 384 02d0 0900A0E3 		mov	r0, #9
 385 02d4 A112A0E1 		lsr	r1, r1, #5
 386 02d8 FEFFFFEB 		bl	_test_assert
 387              	.LVL67:
 388 02dc 000050E3 		cmp	r0, #0
 389 02e0 56FFFF1A 		bne	.L1
 390              		.loc 1 134 71 discriminator 2 view .LVU96
 391              		.loc 1 137 3 discriminator 2 view .LVU97
 392              		.loc 1 137 9 is_stmt 0 discriminator 2 view .LVU98
 393 02e4 0D10A0E1 		mov	r1, sp
 394 02e8 88009FE5 		ldr	r0, .L10
 395 02ec FEFFFFEB 		bl	chHeapStatus
 396              	.LVL68:
 397              		.loc 1 138 3 is_stmt 1 discriminator 2 view .LVU99
 398              		.loc 1 138 8 is_stmt 0 discriminator 2 view .LVU100
 399 02f0 00109DE5 		ldr	r1, [sp]
ARM GAS  /tmp/ccfsVjDs.s 			page 8


 400 02f4 7C009FE5 		ldr	r0, .L10
 401 02f8 FEFFFFEB 		bl	chHeapAlloc
 402              	.LVL69:
 403              		.loc 1 139 3 discriminator 2 view .LVU101
 404 02fc 0D10A0E1 		mov	r1, sp
 405              		.loc 1 138 8 discriminator 2 view .LVU102
 406 0300 0040A0E1 		mov	r4, r0
 407              	.LVL70:
 408              		.loc 1 139 3 discriminator 2 view .LVU103
 409 0304 6C009FE5 		ldr	r0, .L10
 410              	.LVL71:
 411              		.loc 1 139 3 is_stmt 1 discriminator 2 view .LVU104
 412 0308 FEFFFFEB 		bl	chHeapStatus
 413              	.LVL72:
 414 030c 0010A0E1 		mov	r1, r0
 415 0310 111F6FE1 		clz	r1, r1
 416 0314 0A00A0E3 		mov	r0, #10
 417 0318 A112A0E1 		lsr	r1, r1, #5
 418 031c FEFFFFEB 		bl	_test_assert
 419              	.LVL73:
 420 0320 000050E3 		cmp	r0, #0
 421 0324 45FFFF1A 		bne	.L1
 422              		.loc 1 139 66 discriminator 2 view .LVU105
 423              		.loc 1 140 3 discriminator 2 view .LVU106
 424 0328 0400A0E1 		mov	r0, r4
 425 032c FEFFFFEB 		bl	chHeapFree
 426              	.LVL74:
 427              		.loc 1 142 3 discriminator 2 view .LVU107
 428 0330 0D10A0E1 		mov	r1, sp
 429 0334 3C009FE5 		ldr	r0, .L10
 430 0338 FEFFFFEB 		bl	chHeapStatus
 431              	.LVL75:
 432 033c 0010A0E1 		mov	r1, r0
 433 0340 011041E2 		sub	r1, r1, #1
 434 0344 111F6FE1 		clz	r1, r1
 435 0348 0B00A0E3 		mov	r0, #11
 436 034c A112A0E1 		lsr	r1, r1, #5
 437 0350 FEFFFFEB 		bl	_test_assert
 438              	.LVL76:
 439 0354 000050E3 		cmp	r0, #0
 440 0358 38FFFF1A 		bne	.L1
 441              		.loc 1 142 72 discriminator 2 view .LVU108
 442              		.loc 1 143 3 discriminator 2 view .LVU109
 443 035c 0A009DE8 		ldm	sp, {r1, r3}
 444 0360 031041E0 		sub	r1, r1, r3
 445 0364 111F6FE1 		clz	r1, r1
 446 0368 0C00A0E3 		mov	r0, #12
 447 036c A112A0E1 		lsr	r1, r1, #5
 448 0370 FEFFFFEB 		bl	_test_assert
 449              	.LVL77:
 450              		.loc 1 143 3 discriminator 2 view .LVU110
 451 0374 31FFFFEA 		b	.L1
 452              	.L11:
 453              		.align	2
 454              	.L10:
 455 0378 00000000 		.word	.LANCHOR0
 456              		.cfi_endproc
ARM GAS  /tmp/ccfsVjDs.s 			page 9


 457              	.LFE8:
 458              		.size	heap1_execute, .-heap1_execute
 459              		.section	.text.heap1_setup,"ax",%progbits
 460              		.align	2
 461              		.syntax unified
 462              		.arm
 463              		.fpu softvfp
 464              		.type	heap1_setup, %function
 465              	heap1_setup:
 466              	.LFB7:
 467              		.loc 1 68 31 view -0
 468              		.cfi_startproc
 469              		@ args = 0, pretend = 0, frame = 0
 470              		@ frame_needed = 0, uses_anonymous_args = 0
 471              		@ link register save eliminated.
 472              		.loc 1 70 3 view .LVU112
 473 0000 08209FE5 		ldr	r2, .L13
 474 0004 08109FE5 		ldr	r1, .L13+4
 475 0008 08009FE5 		ldr	r0, .L13+8
 476 000c FEFFFFEA 		b	chHeapInit
 477              	.LVL78:
 478              	.L14:
 479              		.align	2
 480              	.L13:
 481 0010 78050000 		.word	1400
 482 0014 00000000 		.word	test
 483 0018 00000000 		.word	.LANCHOR0
 484              		.cfi_endproc
 485              	.LFE7:
 486              		.size	heap1_setup, .-heap1_setup
 487              		.global	patternheap
 488              		.global	testheap1
 489              		.section	.rodata.str1.4,"aMS",%progbits,1
 490              		.align	2
 491              	.LC0:
 492 0000 48656170 		.ascii	"Heap, allocation and fragmentation test\000"
 492      2C20616C 
 492      6C6F6361 
 492      74696F6E 
 492      20616E64 
 493              		.section	.bss.test_heap,"aw",%nobits
 494              		.align	2
 495              		.set	.LANCHOR0,. + 0
 496              		.type	test_heap, %object
 497              		.size	test_heap, 28
 498              	test_heap:
 499 0000 00000000 		.space	28
 499      00000000 
 499      00000000 
 499      00000000 
 499      00000000 
 500              		.section	.rodata.patternheap,"a"
 501              		.align	2
 502              		.type	patternheap, %object
 503              		.size	patternheap, 8
 504              	patternheap:
 505 0000 00000000 		.word	testheap1
ARM GAS  /tmp/ccfsVjDs.s 			page 10


 506 0004 00000000 		.word	0
 507              		.section	.rodata.testheap1,"a"
 508              		.align	2
 509              		.type	testheap1, %object
 510              		.size	testheap1, 16
 511              	testheap1:
 512 0000 00000000 		.word	.LC0
 513 0004 00000000 		.word	heap1_setup
 514 0008 00000000 		.word	0
 515 000c 00000000 		.word	heap1_execute
 516              		.text
 517              	.Letext0:
 518              		.file 2 "/usr/lib/gcc/arm-none-eabi/11.2.0/include/stddef.h"
 519              		.file 3 "/usr/arm-none-eabi/include/machine/_default_types.h"
 520              		.file 4 "/usr/arm-none-eabi/include/sys/_stdint.h"
 521              		.file 5 "../../os/ports/GCC/ARM/chtypes.h"
 522              		.file 6 "../../os/kernel/include/chlists.h"
 523              		.file 7 "../../os/kernel/include/chthreads.h"
 524              		.file 8 "../../os/ports/GCC/ARM/chcore.h"
 525              		.file 9 "../../os/kernel/include/chmtx.h"
 526              		.file 10 "../../os/kernel/include/chmemcore.h"
 527              		.file 11 "../../os/kernel/include/chheap.h"
 528              		.file 12 "../../test/test.h"