ARM GAS  /tmp/ccrAlYmd.s 			page 1


   1              		.cpu arm1176jz-s
   2              		.eabi_attribute 20, 1
   3              		.eabi_attribute 21, 1
   4              		.eabi_attribute 23, 3
   5              		.eabi_attribute 24, 1
   6              		.eabi_attribute 25, 1
   7              		.eabi_attribute 26, 1
   8              		.eabi_attribute 30, 2
   9              		.eabi_attribute 34, 1
  10              		.eabi_attribute 18, 4
  11              		.file	"testmbox.c"
  12              		.text
  13              	.Ltext0:
  14              		.cfi_sections	.debug_frame
  15              		.section	.rodata.mbox1_execute.str1.4,"aMS",%progbits,1
  16              		.align	2
  17              	.LC0:
  18 0000 41424344 		.ascii	"ABCDE\000"
  18      4500
  19              		.section	.text.mbox1_execute,"ax",%progbits
  20              		.align	2
  21              		.arch armv6kz
  22              		.syntax unified
  23              		.arm
  24              		.fpu softvfp
  25              		.type	mbox1_execute, %function
  26              	mbox1_execute:
  27              	.LFB8:
  28              		.file 1 "../../test/testmbox.c"
  29              		.loc 1 80 33 view -0
  30              		.cfi_startproc
  31              		@ args = 0, pretend = 0, frame = 8
  32              		@ frame_needed = 0, uses_anonymous_args = 0
  33              		.loc 1 81 3 view .LVU1
  34              		.loc 1 82 3 view .LVU2
  35              		.loc 1 87 3 view .LVU3
  36              		.loc 1 80 33 is_stmt 0 view .LVU4
  37 0000 70402DE9 		push	{r4, r5, r6, lr}
  38              		.cfi_def_cfa_offset 16
  39              		.cfi_offset 4, -16
  40              		.cfi_offset 5, -12
  41              		.cfi_offset 6, -8
  42              		.cfi_offset 14, -4
  43              		.loc 1 87 3 view .LVU5
  44 0004 BC579FE5 		ldr	r5, .L30
  45 0008 0100A0E3 		mov	r0, #1
  46 000c 241095E5 		ldr	r1, [r5, #36]
  47              		.loc 1 80 33 view .LVU6
  48 0010 08D04DE2 		sub	sp, sp, #8
  49              		.cfi_def_cfa_offset 24
  50              		.loc 1 87 3 view .LVU7
  51 0014 051041E2 		sub	r1, r1, #5
  52 0018 111F6FE1 		clz	r1, r1
  53 001c A112A0E1 		lsr	r1, r1, #5
  54 0020 FEFFFFEB 		bl	_test_assert
  55              	.LVL0:
  56 0024 000050E3 		cmp	r0, #0
ARM GAS  /tmp/ccrAlYmd.s 			page 2


  57 0028 1900001A 		bne	.L1
  58 002c 4240A0E3 		mov	r4, #66
  59              	.L3:
  60              	.LVL1:
  61              		.loc 1 93 5 is_stmt 1 view .LVU8
  62              		.loc 1 93 12 is_stmt 0 view .LVU9
  63 0030 0410A0E1 		mov	r1, r4
  64 0034 0020E0E3 		mvn	r2, #0
  65 0038 0500A0E1 		mov	r0, r5
  66 003c FEFFFFEB 		bl	chMBPost
  67              	.LVL2:
  68 0040 0010A0E1 		mov	r1, r0
  69              	.LVL3:
  70              		.loc 1 94 5 is_stmt 1 view .LVU10
  71 0044 111F6FE1 		clz	r1, r1
  72 0048 0200A0E3 		mov	r0, #2
  73              	.LVL4:
  74              		.loc 1 94 5 is_stmt 0 view .LVU11
  75 004c A112A0E1 		lsr	r1, r1, #5
  76 0050 FEFFFFEB 		bl	_test_assert
  77              	.LVL5:
  78              		.loc 1 94 60 is_stmt 1 view .LVU12
  79              		.loc 1 92 33 view .LVU13
  80              		.loc 1 92 17 view .LVU14
  81              		.loc 1 94 5 is_stmt 0 view .LVU15
  82 0054 000050E3 		cmp	r0, #0
  83              		.loc 1 92 17 view .LVU16
  84 0058 014084E2 		add	r4, r4, #1
  85              		.loc 1 94 5 view .LVU17
  86 005c 0C00001A 		bne	.L1
  87              		.loc 1 92 17 discriminator 2 view .LVU18
  88 0060 460054E3 		cmp	r4, #70
  89 0064 F1FFFF1A 		bne	.L3
  90              		.loc 1 96 3 is_stmt 1 view .LVU19
  91              		.loc 1 96 10 is_stmt 0 view .LVU20
  92 0068 0020E0E3 		mvn	r2, #0
  93 006c 4110A0E3 		mov	r1, #65
  94 0070 50079FE5 		ldr	r0, .L30
  95 0074 FEFFFFEB 		bl	chMBPostAhead
  96              	.LVL6:
  97 0078 0010A0E1 		mov	r1, r0
  98              	.LVL7:
  99              		.loc 1 97 3 is_stmt 1 view .LVU21
 100 007c 111F6FE1 		clz	r1, r1
 101 0080 0300A0E3 		mov	r0, #3
 102              	.LVL8:
 103              		.loc 1 97 3 is_stmt 0 view .LVU22
 104 0084 A112A0E1 		lsr	r1, r1, #5
 105 0088 FEFFFFEB 		bl	_test_assert
 106              	.LVL9:
 107 008c 000050E3 		cmp	r0, #0
 108 0090 0100000A 		beq	.L29
 109              	.L1:
 110              		.loc 1 224 1 view .LVU23
 111 0094 08D08DE2 		add	sp, sp, #8
 112              		.cfi_remember_state
 113              		.cfi_def_cfa_offset 16
ARM GAS  /tmp/ccrAlYmd.s 			page 3


 114              		@ sp needed
 115 0098 7080BDE8 		pop	{r4, r5, r6, pc}
 116              	.L29:
 117              		.cfi_restore_state
 118              		.loc 1 97 58 is_stmt 1 discriminator 2 view .LVU24
 119              		.loc 1 102 3 discriminator 2 view .LVU25
 120              		.loc 1 102 10 is_stmt 0 discriminator 2 view .LVU26
 121 009c 0120A0E3 		mov	r2, #1
 122 00a0 5810A0E3 		mov	r1, #88
 123 00a4 1C079FE5 		ldr	r0, .L30
 124 00a8 FEFFFFEB 		bl	chMBPost
 125              	.LVL10:
 126 00ac 0010A0E1 		mov	r1, r0
 127              	.LVL11:
 128              		.loc 1 103 3 is_stmt 1 discriminator 2 view .LVU27
 129 00b0 010071E3 		cmn	r1, #1
 130 00b4 0010A013 		movne	r1, #0
 131 00b8 0110A003 		moveq	r1, #1
 132 00bc 0400A0E3 		mov	r0, #4
 133              	.LVL12:
 134              		.loc 1 103 3 is_stmt 0 discriminator 2 view .LVU28
 135 00c0 FEFFFFEB 		bl	_test_assert
 136              	.LVL13:
 137 00c4 000050E3 		cmp	r0, #0
 138 00c8 F1FFFF1A 		bne	.L1
 139              		.loc 1 103 63 is_stmt 1 discriminator 2 view .LVU29
 140              		.loc 1 104 3 discriminator 2 view .LVU30
 141              		.syntax divided
 142              	@ 104 "../../test/testmbox.c" 1
 143 00cc 9FF021E3 		msr     CPSR_c, #0x9F
 144              	@ 0 "" 2
 145              		.loc 1 104 3 discriminator 2 view .LVU31
 146              		.loc 1 104 14 discriminator 2 view .LVU32
 147              		.loc 1 105 3 discriminator 2 view .LVU33
 148              		.loc 1 105 10 is_stmt 0 discriminator 2 view .LVU34
 149              		.arm
 150              		.syntax unified
 151 00d0 5810A0E3 		mov	r1, #88
 152 00d4 EC069FE5 		ldr	r0, .L30
 153 00d8 FEFFFFEB 		bl	chMBPostI
 154              	.LVL14:
 155 00dc 0010A0E1 		mov	r1, r0
 156              	.LVL15:
 157              		.loc 1 106 3 is_stmt 1 discriminator 2 view .LVU35
 158              		.loc 1 106 3 discriminator 2 view .LVU36
 159              		.syntax divided
 160              	@ 106 "../../test/testmbox.c" 1
 161 00e0 1FF021E3 		msr     CPSR_c, #0x1F
 162              	@ 0 "" 2
 163              		.loc 1 106 16 discriminator 2 view .LVU37
 164              		.loc 1 107 3 discriminator 2 view .LVU38
 165              		.arm
 166              		.syntax unified
 167 00e4 010071E3 		cmn	r1, #1
 168 00e8 0010A013 		movne	r1, #0
 169 00ec 0110A003 		moveq	r1, #1
 170 00f0 0500A0E3 		mov	r0, #5
ARM GAS  /tmp/ccrAlYmd.s 			page 4


 171              	.LVL16:
 172              		.loc 1 107 3 is_stmt 0 discriminator 2 view .LVU39
 173 00f4 FEFFFFEB 		bl	_test_assert
 174              	.LVL17:
 175 00f8 000050E3 		cmp	r0, #0
 176 00fc E4FFFF1A 		bne	.L1
 177              		.loc 1 107 63 is_stmt 1 discriminator 2 view .LVU40
 178              		.loc 1 108 3 discriminator 2 view .LVU41
 179              		.loc 1 108 10 is_stmt 0 discriminator 2 view .LVU42
 180 0100 0120A0E3 		mov	r2, #1
 181 0104 5810A0E3 		mov	r1, #88
 182 0108 B8069FE5 		ldr	r0, .L30
 183 010c FEFFFFEB 		bl	chMBPostAhead
 184              	.LVL18:
 185 0110 0010A0E1 		mov	r1, r0
 186              	.LVL19:
 187              		.loc 1 109 3 is_stmt 1 discriminator 2 view .LVU43
 188 0114 010071E3 		cmn	r1, #1
 189 0118 0010A013 		movne	r1, #0
 190 011c 0110A003 		moveq	r1, #1
 191 0120 0600A0E3 		mov	r0, #6
 192              	.LVL20:
 193              		.loc 1 109 3 is_stmt 0 discriminator 2 view .LVU44
 194 0124 FEFFFFEB 		bl	_test_assert
 195              	.LVL21:
 196 0128 000050E3 		cmp	r0, #0
 197 012c D8FFFF1A 		bne	.L1
 198              		.loc 1 109 63 is_stmt 1 discriminator 2 view .LVU45
 199              		.loc 1 110 3 discriminator 2 view .LVU46
 200              		.syntax divided
 201              	@ 110 "../../test/testmbox.c" 1
 202 0130 9FF021E3 		msr     CPSR_c, #0x9F
 203              	@ 0 "" 2
 204              		.loc 1 110 3 discriminator 2 view .LVU47
 205              		.loc 1 110 14 discriminator 2 view .LVU48
 206              		.loc 1 111 3 discriminator 2 view .LVU49
 207              		.loc 1 111 10 is_stmt 0 discriminator 2 view .LVU50
 208              		.arm
 209              		.syntax unified
 210 0134 5810A0E3 		mov	r1, #88
 211 0138 88069FE5 		ldr	r0, .L30
 212 013c FEFFFFEB 		bl	chMBPostAheadI
 213              	.LVL22:
 214 0140 0010A0E1 		mov	r1, r0
 215              	.LVL23:
 216              		.loc 1 112 3 is_stmt 1 discriminator 2 view .LVU51
 217              		.loc 1 112 3 discriminator 2 view .LVU52
 218              		.syntax divided
 219              	@ 112 "../../test/testmbox.c" 1
 220 0144 1FF021E3 		msr     CPSR_c, #0x1F
 221              	@ 0 "" 2
 222              		.loc 1 112 16 discriminator 2 view .LVU53
 223              		.loc 1 113 3 discriminator 2 view .LVU54
 224              		.arm
 225              		.syntax unified
 226 0148 010071E3 		cmn	r1, #1
 227 014c 0010A013 		movne	r1, #0
ARM GAS  /tmp/ccrAlYmd.s 			page 5


 228 0150 0110A003 		moveq	r1, #1
 229 0154 0700A0E3 		mov	r0, #7
 230              	.LVL24:
 231              		.loc 1 113 3 is_stmt 0 discriminator 2 view .LVU55
 232 0158 FEFFFFEB 		bl	_test_assert
 233              	.LVL25:
 234 015c 000050E3 		cmp	r0, #0
 235 0160 CBFFFF1A 		bne	.L1
 236              		.loc 1 113 63 is_stmt 1 discriminator 2 view .LVU56
 237              		.loc 1 118 3 discriminator 2 view .LVU57
 238              		.syntax divided
 239              	@ 118 "../../test/testmbox.c" 1
 240 0164 9FF021E3 		msr     CPSR_c, #0x9F
 241              	@ 0 "" 2
 242              		.loc 1 118 3 discriminator 2 view .LVU58
 243              		.loc 1 118 3 discriminator 2 view .LVU59
 244              		.loc 1 118 3 discriminator 2 view .LVU60
 245              		.arm
 246              		.syntax unified
 247 0168 241095E5 		ldr	r1, [r5, #36]
 248 016c 0800A0E3 		mov	r0, #8
 249 0170 111F6FE1 		clz	r1, r1
 250 0174 A112A0E1 		lsr	r1, r1, #5
 251 0178 FEFFFFEB 		bl	_test_assert
 252              	.LVL26:
 253 017c 000050E3 		cmp	r0, #0
 254 0180 8E01001A 		bne	.L21
 255              		.loc 1 118 3 discriminator 2 view .LVU61
 256              		.loc 1 118 3 discriminator 2 view .LVU62
 257              		.syntax divided
 258              	@ 118 "../../test/testmbox.c" 1
 259 0184 1FF021E3 		msr     CPSR_c, #0x1F
 260              	@ 0 "" 2
 261              		.loc 1 118 3 discriminator 2 view .LVU63
 262              		.loc 1 118 67 discriminator 2 view .LVU64
 263              		.loc 1 119 3 discriminator 2 view .LVU65
 264              	@ 119 "../../test/testmbox.c" 1
 265 0188 9FF021E3 		msr     CPSR_c, #0x9F
 266              	@ 0 "" 2
 267              		.loc 1 119 3 discriminator 2 view .LVU66
 268              		.loc 1 119 3 discriminator 2 view .LVU67
 269              		.loc 1 119 3 discriminator 2 view .LVU68
 270              		.arm
 271              		.syntax unified
 272 018c 181095E5 		ldr	r1, [r5, #24]
 273 0190 0900A0E3 		mov	r0, #9
 274 0194 051041E2 		sub	r1, r1, #5
 275 0198 111F6FE1 		clz	r1, r1
 276 019c A112A0E1 		lsr	r1, r1, #5
 277 01a0 FEFFFFEB 		bl	_test_assert
 278              	.LVL27:
 279 01a4 000050E3 		cmp	r0, #0
 280 01a8 8401001A 		bne	.L21
 281              		.loc 1 119 3 discriminator 2 view .LVU69
 282              		.loc 1 119 3 discriminator 2 view .LVU70
 283              		.syntax divided
 284              	@ 119 "../../test/testmbox.c" 1
ARM GAS  /tmp/ccrAlYmd.s 			page 6


 285 01ac 1FF021E3 		msr     CPSR_c, #0x1F
 286              	@ 0 "" 2
 287              		.loc 1 119 3 discriminator 2 view .LVU71
 288              		.loc 1 119 70 discriminator 2 view .LVU72
 289              		.loc 1 120 3 discriminator 2 view .LVU73
 290              	@ 120 "../../test/testmbox.c" 1
 291 01b0 9FF021E3 		msr     CPSR_c, #0x9F
 292              	@ 0 "" 2
 293              		.loc 1 120 3 discriminator 2 view .LVU74
 294              		.loc 1 120 3 discriminator 2 view .LVU75
 295              		.loc 1 120 3 discriminator 2 view .LVU76
 296              		.arm
 297              		.syntax unified
 298 01b4 0C1095E5 		ldr	r1, [r5, #12]
 299 01b8 083095E5 		ldr	r3, [r5, #8]
 300 01bc 0A00A0E3 		mov	r0, #10
 301 01c0 031041E0 		sub	r1, r1, r3
 302 01c4 111F6FE1 		clz	r1, r1
 303 01c8 A112A0E1 		lsr	r1, r1, #5
 304 01cc FEFFFFEB 		bl	_test_assert
 305              	.LVL28:
 306 01d0 000050E3 		cmp	r0, #0
 307 01d4 7901001A 		bne	.L21
 308              		.loc 1 120 3 discriminator 2 view .LVU77
 309              		.loc 1 120 3 discriminator 2 view .LVU78
 310              		.syntax divided
 311              	@ 120 "../../test/testmbox.c" 1
 312 01d8 1FF021E3 		msr     CPSR_c, #0x1F
 313              	@ 0 "" 2
 314              		.loc 1 120 3 discriminator 2 view .LVU79
 315              		.loc 1 120 77 discriminator 2 view .LVU80
 316              		.loc 1 125 3 discriminator 2 view .LVU81
 317              	.LVL29:
 318              		.loc 1 125 17 discriminator 2 view .LVU82
 319              		.loc 1 120 3 is_stmt 0 discriminator 2 view .LVU83
 320              		.arm
 321              		.syntax unified
 322 01dc 0540A0E3 		mov	r4, #5
 323              		.loc 1 126 12 discriminator 2 view .LVU84
 324 01e0 E0659FE5 		ldr	r6, .L30
 325              	.LVL30:
 326              	.L8:
 327              		.loc 1 126 5 is_stmt 1 view .LVU85
 328              		.loc 1 126 12 is_stmt 0 view .LVU86
 329 01e4 0020E0E3 		mvn	r2, #0
 330 01e8 04108DE2 		add	r1, sp, #4
 331 01ec 0600A0E1 		mov	r0, r6
 332 01f0 FEFFFFEB 		bl	chMBFetch
 333              	.LVL31:
 334 01f4 0010A0E1 		mov	r1, r0
 335              	.LVL32:
 336              		.loc 1 127 5 is_stmt 1 view .LVU87
 337 01f8 111F6FE1 		clz	r1, r1
 338 01fc 0B00A0E3 		mov	r0, #11
 339              	.LVL33:
 340              		.loc 1 127 5 is_stmt 0 view .LVU88
 341 0200 A112A0E1 		lsr	r1, r1, #5
ARM GAS  /tmp/ccrAlYmd.s 			page 7


 342 0204 FEFFFFEB 		bl	_test_assert
 343              	.LVL34:
 344              		.loc 1 127 61 is_stmt 1 view .LVU89
 345              		.loc 1 128 5 view .LVU90
 346              		.loc 1 127 5 is_stmt 0 view .LVU91
 347 0208 000050E3 		cmp	r0, #0
 348 020c A0FFFF1A 		bne	.L1
 349              		.loc 1 128 5 discriminator 2 view .LVU92
 350 0210 0400DDE5 		ldrb	r0, [sp, #4]	@ zero_extendqisi2
 351 0214 FEFFFFEB 		bl	test_emit_token
 352              	.LVL35:
 353              		.loc 1 125 29 is_stmt 1 discriminator 2 view .LVU93
 354              		.loc 1 125 17 discriminator 2 view .LVU94
 355 0218 014054E2 		subs	r4, r4, #1
 356              	.LVL36:
 357              		.loc 1 125 17 is_stmt 0 discriminator 2 view .LVU95
 358 021c F0FFFF1A 		bne	.L8
 359              		.loc 1 130 3 is_stmt 1 view .LVU96
 360 0220 0C00A0E3 		mov	r0, #12
 361 0224 A0159FE5 		ldr	r1, .L30+4
 362 0228 FEFFFFEB 		bl	_test_assert_sequence
 363              	.LVL37:
 364 022c 000050E3 		cmp	r0, #0
 365 0230 97FFFF1A 		bne	.L1
 366              		.loc 1 130 36 discriminator 2 view .LVU97
 367              		.loc 1 135 3 discriminator 2 view .LVU98
 368              		.loc 1 135 10 is_stmt 0 discriminator 2 view .LVU99
 369 0234 0020E0E3 		mvn	r2, #0
 370 0238 4710A0E3 		mov	r1, #71
 371 023c 84059FE5 		ldr	r0, .L30
 372 0240 FEFFFFEB 		bl	chMBPost
 373              	.LVL38:
 374 0244 0010A0E1 		mov	r1, r0
 375              	.LVL39:
 376              		.loc 1 136 3 is_stmt 1 discriminator 2 view .LVU100
 377 0248 111F6FE1 		clz	r1, r1
 378 024c 0D00A0E3 		mov	r0, #13
 379              	.LVL40:
 380              		.loc 1 136 3 is_stmt 0 discriminator 2 view .LVU101
 381 0250 A112A0E1 		lsr	r1, r1, #5
 382 0254 FEFFFFEB 		bl	_test_assert
 383              	.LVL41:
 384 0258 000050E3 		cmp	r0, #0
 385 025c 8CFFFF1A 		bne	.L1
 386              		.loc 1 136 59 is_stmt 1 discriminator 2 view .LVU102
 387              		.loc 1 137 3 discriminator 2 view .LVU103
 388              		.loc 1 137 10 is_stmt 0 discriminator 2 view .LVU104
 389 0260 0020E0E3 		mvn	r2, #0
 390 0264 04108DE2 		add	r1, sp, #4
 391 0268 58059FE5 		ldr	r0, .L30
 392 026c FEFFFFEB 		bl	chMBFetch
 393              	.LVL42:
 394 0270 0010A0E1 		mov	r1, r0
 395              	.LVL43:
 396              		.loc 1 138 3 is_stmt 1 discriminator 2 view .LVU105
 397 0274 111F6FE1 		clz	r1, r1
 398 0278 0E00A0E3 		mov	r0, #14
ARM GAS  /tmp/ccrAlYmd.s 			page 8


 399              	.LVL44:
 400              		.loc 1 138 3 is_stmt 0 discriminator 2 view .LVU106
 401 027c A112A0E1 		lsr	r1, r1, #5
 402 0280 FEFFFFEB 		bl	_test_assert
 403              	.LVL45:
 404 0284 000050E3 		cmp	r0, #0
 405 0288 81FFFF1A 		bne	.L1
 406              		.loc 1 138 59 is_stmt 1 discriminator 2 view .LVU107
 407              		.loc 1 139 3 discriminator 2 view .LVU108
 408 028c 001095E5 		ldr	r1, [r5]
 409 0290 083095E5 		ldr	r3, [r5, #8]
 410 0294 0F00A0E3 		mov	r0, #15
 411 0298 031041E0 		sub	r1, r1, r3
 412 029c 111F6FE1 		clz	r1, r1
 413 02a0 A112A0E1 		lsr	r1, r1, #5
 414 02a4 FEFFFFEB 		bl	_test_assert
 415              	.LVL46:
 416 02a8 000050E3 		cmp	r0, #0
 417 02ac 78FFFF1A 		bne	.L1
 418              		.loc 1 139 86 discriminator 2 view .LVU109
 419              		.loc 1 140 3 discriminator 2 view .LVU110
 420 02b0 001095E5 		ldr	r1, [r5]
 421 02b4 0C3095E5 		ldr	r3, [r5, #12]
 422 02b8 1000A0E3 		mov	r0, #16
 423 02bc 031041E0 		sub	r1, r1, r3
 424 02c0 111F6FE1 		clz	r1, r1
 425 02c4 A112A0E1 		lsr	r1, r1, #5
 426 02c8 FEFFFFEB 		bl	_test_assert
 427              	.LVL47:
 428 02cc 000050E3 		cmp	r0, #0
 429 02d0 6FFFFF1A 		bne	.L1
 430              		.loc 1 140 85 discriminator 2 view .LVU111
 431              		.loc 1 145 3 discriminator 2 view .LVU112
 432              		.loc 1 145 10 is_stmt 0 discriminator 2 view .LVU113
 433 02d4 0120A0E3 		mov	r2, #1
 434 02d8 04108DE2 		add	r1, sp, #4
 435 02dc E4049FE5 		ldr	r0, .L30
 436 02e0 FEFFFFEB 		bl	chMBFetch
 437              	.LVL48:
 438 02e4 0010A0E1 		mov	r1, r0
 439              	.LVL49:
 440              		.loc 1 146 3 is_stmt 1 discriminator 2 view .LVU114
 441 02e8 010071E3 		cmn	r1, #1
 442 02ec 0010A013 		movne	r1, #0
 443 02f0 0110A003 		moveq	r1, #1
 444 02f4 1100A0E3 		mov	r0, #17
 445              	.LVL50:
 446              		.loc 1 146 3 is_stmt 0 discriminator 2 view .LVU115
 447 02f8 FEFFFFEB 		bl	_test_assert
 448              	.LVL51:
 449 02fc 000050E3 		cmp	r0, #0
 450 0300 63FFFF1A 		bne	.L1
 451              		.loc 1 146 64 is_stmt 1 discriminator 2 view .LVU116
 452              		.loc 1 147 3 discriminator 2 view .LVU117
 453              		.syntax divided
 454              	@ 147 "../../test/testmbox.c" 1
 455 0304 9FF021E3 		msr     CPSR_c, #0x9F
ARM GAS  /tmp/ccrAlYmd.s 			page 9


 456              	@ 0 "" 2
 457              		.loc 1 147 3 discriminator 2 view .LVU118
 458              		.loc 1 147 14 discriminator 2 view .LVU119
 459              		.loc 1 148 3 discriminator 2 view .LVU120
 460              		.loc 1 148 10 is_stmt 0 discriminator 2 view .LVU121
 461              		.arm
 462              		.syntax unified
 463 0308 B8049FE5 		ldr	r0, .L30
 464 030c 04108DE2 		add	r1, sp, #4
 465 0310 FEFFFFEB 		bl	chMBFetchI
 466              	.LVL52:
 467 0314 0010A0E1 		mov	r1, r0
 468              	.LVL53:
 469              		.loc 1 149 3 is_stmt 1 discriminator 2 view .LVU122
 470              		.loc 1 149 3 discriminator 2 view .LVU123
 471              		.syntax divided
 472              	@ 149 "../../test/testmbox.c" 1
 473 0318 1FF021E3 		msr     CPSR_c, #0x1F
 474              	@ 0 "" 2
 475              		.loc 1 149 16 discriminator 2 view .LVU124
 476              		.loc 1 150 3 discriminator 2 view .LVU125
 477              		.arm
 478              		.syntax unified
 479 031c 010071E3 		cmn	r1, #1
 480 0320 0010A013 		movne	r1, #0
 481 0324 0110A003 		moveq	r1, #1
 482 0328 1200A0E3 		mov	r0, #18
 483              	.LVL54:
 484              		.loc 1 150 3 is_stmt 0 discriminator 2 view .LVU126
 485 032c FEFFFFEB 		bl	_test_assert
 486              	.LVL55:
 487 0330 000050E3 		cmp	r0, #0
 488 0334 56FFFF1A 		bne	.L1
 489              		.loc 1 150 64 is_stmt 1 discriminator 2 view .LVU127
 490              		.loc 1 155 3 discriminator 2 view .LVU128
 491              		.syntax divided
 492              	@ 155 "../../test/testmbox.c" 1
 493 0338 9FF021E3 		msr     CPSR_c, #0x9F
 494              	@ 0 "" 2
 495              		.loc 1 155 3 discriminator 2 view .LVU129
 496              		.loc 1 155 3 discriminator 2 view .LVU130
 497              		.loc 1 155 3 discriminator 2 view .LVU131
 498              		.arm
 499              		.syntax unified
 500 033c 241095E5 		ldr	r1, [r5, #36]
 501 0340 1300A0E3 		mov	r0, #19
 502 0344 051041E2 		sub	r1, r1, #5
 503 0348 111F6FE1 		clz	r1, r1
 504 034c A112A0E1 		lsr	r1, r1, #5
 505 0350 FEFFFFEB 		bl	_test_assert
 506              	.LVL56:
 507 0354 000050E3 		cmp	r0, #0
 508 0358 1801001A 		bne	.L21
 509              		.loc 1 155 3 discriminator 2 view .LVU132
 510              		.loc 1 155 3 discriminator 2 view .LVU133
 511              		.syntax divided
 512              	@ 155 "../../test/testmbox.c" 1
ARM GAS  /tmp/ccrAlYmd.s 			page 10


 513 035c 1FF021E3 		msr     CPSR_c, #0x1F
 514              	@ 0 "" 2
 515              		.loc 1 155 3 discriminator 2 view .LVU134
 516              		.loc 1 155 72 discriminator 2 view .LVU135
 517              		.loc 1 156 3 discriminator 2 view .LVU136
 518              	@ 156 "../../test/testmbox.c" 1
 519 0360 9FF021E3 		msr     CPSR_c, #0x9F
 520              	@ 0 "" 2
 521              		.loc 1 156 3 discriminator 2 view .LVU137
 522              		.loc 1 156 3 discriminator 2 view .LVU138
 523              		.loc 1 156 3 discriminator 2 view .LVU139
 524              		.arm
 525              		.syntax unified
 526 0364 181095E5 		ldr	r1, [r5, #24]
 527 0368 1400A0E3 		mov	r0, #20
 528 036c 111F6FE1 		clz	r1, r1
 529 0370 A112A0E1 		lsr	r1, r1, #5
 530 0374 FEFFFFEB 		bl	_test_assert
 531              	.LVL57:
 532 0378 000050E3 		cmp	r0, #0
 533 037c 0F01001A 		bne	.L21
 534              		.loc 1 156 3 discriminator 2 view .LVU140
 535              		.loc 1 156 3 discriminator 2 view .LVU141
 536              		.syntax divided
 537              	@ 156 "../../test/testmbox.c" 1
 538 0380 1FF021E3 		msr     CPSR_c, #0x1F
 539              	@ 0 "" 2
 540              		.loc 1 156 3 discriminator 2 view .LVU142
 541              		.loc 1 156 67 discriminator 2 view .LVU143
 542              		.loc 1 157 3 discriminator 2 view .LVU144
 543              	@ 157 "../../test/testmbox.c" 1
 544 0384 9FF021E3 		msr     CPSR_c, #0x9F
 545              	@ 0 "" 2
 546              		.loc 1 157 3 discriminator 2 view .LVU145
 547              		.loc 1 157 3 discriminator 2 view .LVU146
 548              		.loc 1 157 3 discriminator 2 view .LVU147
 549              		.arm
 550              		.syntax unified
 551 0388 0C1095E5 		ldr	r1, [r5, #12]
 552 038c 083095E5 		ldr	r3, [r5, #8]
 553 0390 1500A0E3 		mov	r0, #21
 554 0394 031041E0 		sub	r1, r1, r3
 555 0398 111F6FE1 		clz	r1, r1
 556 039c A112A0E1 		lsr	r1, r1, #5
 557 03a0 FEFFFFEB 		bl	_test_assert
 558              	.LVL58:
 559 03a4 000050E3 		cmp	r0, #0
 560 03a8 0401001A 		bne	.L21
 561              		.loc 1 157 3 discriminator 2 view .LVU148
 562              		.loc 1 157 3 discriminator 2 view .LVU149
 563              		.syntax divided
 564              	@ 157 "../../test/testmbox.c" 1
 565 03ac 1FF021E3 		msr     CPSR_c, #0x1F
 566              	@ 0 "" 2
 567              		.loc 1 157 3 discriminator 2 view .LVU150
 568              		.loc 1 157 77 discriminator 2 view .LVU151
 569              		.loc 1 162 3 discriminator 2 view .LVU152
ARM GAS  /tmp/ccrAlYmd.s 			page 11


 570              	@ 162 "../../test/testmbox.c" 1
 571 03b0 9FF021E3 		msr     CPSR_c, #0x9F
 572              	@ 0 "" 2
 573              		.loc 1 162 3 discriminator 2 view .LVU153
 574              		.loc 1 163 3 discriminator 2 view .LVU154
 575              		.loc 1 163 10 is_stmt 0 discriminator 2 view .LVU155
 576              		.arm
 577              		.syntax unified
 578 03b4 4110A0E3 		mov	r1, #65
 579 03b8 08049FE5 		ldr	r0, .L30
 580 03bc FEFFFFEB 		bl	chMBPostI
 581              	.LVL59:
 582 03c0 0010A0E1 		mov	r1, r0
 583              	.LVL60:
 584              		.loc 1 164 3 is_stmt 1 discriminator 2 view .LVU156
 585 03c4 111F6FE1 		clz	r1, r1
 586 03c8 1600A0E3 		mov	r0, #22
 587              	.LVL61:
 588              		.loc 1 164 3 is_stmt 0 discriminator 2 view .LVU157
 589 03cc A112A0E1 		lsr	r1, r1, #5
 590 03d0 FEFFFFEB 		bl	_test_assert
 591              	.LVL62:
 592 03d4 000050E3 		cmp	r0, #0
 593 03d8 2DFFFF1A 		bne	.L1
 594              		.loc 1 164 59 is_stmt 1 discriminator 2 view .LVU158
 595              		.loc 1 165 3 discriminator 2 view .LVU159
 596              		.loc 1 165 10 is_stmt 0 discriminator 2 view .LVU160
 597 03dc 4210A0E3 		mov	r1, #66
 598 03e0 E0039FE5 		ldr	r0, .L30
 599 03e4 FEFFFFEB 		bl	chMBPostI
 600              	.LVL63:
 601 03e8 0010A0E1 		mov	r1, r0
 602              	.LVL64:
 603              		.loc 1 166 3 is_stmt 1 discriminator 2 view .LVU161
 604 03ec 111F6FE1 		clz	r1, r1
 605 03f0 1700A0E3 		mov	r0, #23
 606              	.LVL65:
 607              		.loc 1 166 3 is_stmt 0 discriminator 2 view .LVU162
 608 03f4 A112A0E1 		lsr	r1, r1, #5
 609 03f8 FEFFFFEB 		bl	_test_assert
 610              	.LVL66:
 611 03fc 000050E3 		cmp	r0, #0
 612 0400 23FFFF1A 		bne	.L1
 613              		.loc 1 166 59 is_stmt 1 discriminator 2 view .LVU163
 614              		.loc 1 167 3 discriminator 2 view .LVU164
 615              		.loc 1 167 10 is_stmt 0 discriminator 2 view .LVU165
 616 0404 4310A0E3 		mov	r1, #67
 617 0408 B8039FE5 		ldr	r0, .L30
 618 040c FEFFFFEB 		bl	chMBPostI
 619              	.LVL67:
 620 0410 0010A0E1 		mov	r1, r0
 621              	.LVL68:
 622              		.loc 1 168 3 is_stmt 1 discriminator 2 view .LVU166
 623 0414 111F6FE1 		clz	r1, r1
 624 0418 1800A0E3 		mov	r0, #24
 625              	.LVL69:
 626              		.loc 1 168 3 is_stmt 0 discriminator 2 view .LVU167
ARM GAS  /tmp/ccrAlYmd.s 			page 12


 627 041c A112A0E1 		lsr	r1, r1, #5
 628 0420 FEFFFFEB 		bl	_test_assert
 629              	.LVL70:
 630 0424 000050E3 		cmp	r0, #0
 631 0428 19FFFF1A 		bne	.L1
 632              		.loc 1 168 59 is_stmt 1 discriminator 2 view .LVU168
 633              		.loc 1 169 3 discriminator 2 view .LVU169
 634              		.loc 1 169 10 is_stmt 0 discriminator 2 view .LVU170
 635 042c 4410A0E3 		mov	r1, #68
 636 0430 90039FE5 		ldr	r0, .L30
 637 0434 FEFFFFEB 		bl	chMBPostI
 638              	.LVL71:
 639 0438 0010A0E1 		mov	r1, r0
 640              	.LVL72:
 641              		.loc 1 170 3 is_stmt 1 discriminator 2 view .LVU171
 642 043c 111F6FE1 		clz	r1, r1
 643 0440 1900A0E3 		mov	r0, #25
 644              	.LVL73:
 645              		.loc 1 170 3 is_stmt 0 discriminator 2 view .LVU172
 646 0444 A112A0E1 		lsr	r1, r1, #5
 647 0448 FEFFFFEB 		bl	_test_assert
 648              	.LVL74:
 649 044c 000050E3 		cmp	r0, #0
 650 0450 0FFFFF1A 		bne	.L1
 651              		.loc 1 170 59 is_stmt 1 discriminator 2 view .LVU173
 652              		.loc 1 171 3 discriminator 2 view .LVU174
 653              		.loc 1 171 10 is_stmt 0 discriminator 2 view .LVU175
 654 0454 4510A0E3 		mov	r1, #69
 655 0458 68039FE5 		ldr	r0, .L30
 656 045c FEFFFFEB 		bl	chMBPostI
 657              	.LVL75:
 658              		.loc 1 172 3 is_stmt 1 discriminator 2 view .LVU176
 659              		.loc 1 172 3 discriminator 2 view .LVU177
 660              		.syntax divided
 661              	@ 172 "../../test/testmbox.c" 1
 662 0460 1FF021E3 		msr     CPSR_c, #0x1F
 663              	@ 0 "" 2
 664              		.loc 1 173 3 discriminator 2 view .LVU178
 665              		.arm
 666              		.syntax unified
 667 0464 101F6FE1 		clz	r1, r0
 668 0468 1A00A0E3 		mov	r0, #26
 669              	.LVL76:
 670              		.loc 1 173 3 is_stmt 0 discriminator 2 view .LVU179
 671 046c A112A0E1 		lsr	r1, r1, #5
 672 0470 FEFFFFEB 		bl	_test_assert
 673              	.LVL77:
 674 0474 000050E3 		cmp	r0, #0
 675 0478 05FFFF1A 		bne	.L1
 676              		.loc 1 173 59 is_stmt 1 discriminator 2 view .LVU180
 677              		.loc 1 174 3 discriminator 2 view .LVU181
 678 047c 0C1095E5 		ldr	r1, [r5, #12]
 679 0480 083095E5 		ldr	r3, [r5, #8]
 680 0484 1B00A0E3 		mov	r0, #27
 681 0488 031041E0 		sub	r1, r1, r3
 682 048c 111F6FE1 		clz	r1, r1
 683 0490 A112A0E1 		lsr	r1, r1, #5
ARM GAS  /tmp/ccrAlYmd.s 			page 13


 684 0494 FEFFFFEB 		bl	_test_assert
 685              	.LVL78:
 686 0498 000050E3 		cmp	r0, #0
 687 049c FCFEFF1A 		bne	.L1
 688 04a0 0540A0E3 		mov	r4, #5
 689              	.LVL79:
 690              		.loc 1 177 12 is_stmt 0 view .LVU182
 691 04a4 1C639FE5 		ldr	r6, .L30
 692              	.L12:
 693              	.LVL80:
 694              		.loc 1 176 5 is_stmt 1 view .LVU183
 695              		.syntax divided
 696              	@ 176 "../../test/testmbox.c" 1
 697 04a8 9FF021E3 		msr     CPSR_c, #0x9F
 698              	@ 0 "" 2
 699              		.loc 1 176 5 view .LVU184
 700              		.loc 1 176 16 view .LVU185
 701              		.loc 1 177 5 view .LVU186
 702              		.loc 1 177 12 is_stmt 0 view .LVU187
 703              		.arm
 704              		.syntax unified
 705 04ac 0600A0E1 		mov	r0, r6
 706 04b0 04108DE2 		add	r1, sp, #4
 707 04b4 FEFFFFEB 		bl	chMBFetchI
 708              	.LVL81:
 709              		.loc 1 178 5 is_stmt 1 view .LVU188
 710              		.loc 1 178 5 view .LVU189
 711              		.syntax divided
 712              	@ 178 "../../test/testmbox.c" 1
 713 04b8 1FF021E3 		msr     CPSR_c, #0x1F
 714              	@ 0 "" 2
 715              		.loc 1 178 18 view .LVU190
 716              		.loc 1 179 5 view .LVU191
 717              		.arm
 718              		.syntax unified
 719 04bc 101F6FE1 		clz	r1, r0
 720 04c0 1C00A0E3 		mov	r0, #28
 721              	.LVL82:
 722              		.loc 1 179 5 is_stmt 0 view .LVU192
 723 04c4 A112A0E1 		lsr	r1, r1, #5
 724 04c8 FEFFFFEB 		bl	_test_assert
 725              	.LVL83:
 726              		.loc 1 179 61 is_stmt 1 view .LVU193
 727              		.loc 1 180 5 view .LVU194
 728              		.loc 1 179 5 is_stmt 0 view .LVU195
 729 04cc 000050E3 		cmp	r0, #0
 730 04d0 EFFEFF1A 		bne	.L1
 731              		.loc 1 180 5 discriminator 2 view .LVU196
 732 04d4 0400DDE5 		ldrb	r0, [sp, #4]	@ zero_extendqisi2
 733 04d8 FEFFFFEB 		bl	test_emit_token
 734              	.LVL84:
 735              		.loc 1 175 29 is_stmt 1 discriminator 2 view .LVU197
 736              		.loc 1 175 17 discriminator 2 view .LVU198
 737 04dc 014054E2 		subs	r4, r4, #1
 738              	.LVL85:
 739              		.loc 1 175 17 is_stmt 0 discriminator 2 view .LVU199
 740 04e0 F0FFFF1A 		bne	.L12
ARM GAS  /tmp/ccrAlYmd.s 			page 14


 741              		.loc 1 182 3 is_stmt 1 view .LVU200
 742 04e4 1D00A0E3 		mov	r0, #29
 743 04e8 DC129FE5 		ldr	r1, .L30+4
 744 04ec FEFFFFEB 		bl	_test_assert_sequence
 745              	.LVL86:
 746 04f0 000050E3 		cmp	r0, #0
 747 04f4 E6FEFF1A 		bne	.L1
 748              		.loc 1 182 36 discriminator 2 view .LVU201
 749              		.loc 1 183 3 discriminator 2 view .LVU202
 750              		.syntax divided
 751              	@ 183 "../../test/testmbox.c" 1
 752 04f8 9FF021E3 		msr     CPSR_c, #0x9F
 753              	@ 0 "" 2
 754              		.loc 1 183 3 discriminator 2 view .LVU203
 755              		.loc 1 183 3 discriminator 2 view .LVU204
 756              		.loc 1 183 3 discriminator 2 view .LVU205
 757              		.arm
 758              		.syntax unified
 759 04fc 241095E5 		ldr	r1, [r5, #36]
 760 0500 1E00A0E3 		mov	r0, #30
 761 0504 051041E2 		sub	r1, r1, #5
 762 0508 111F6FE1 		clz	r1, r1
 763 050c A112A0E1 		lsr	r1, r1, #5
 764 0510 FEFFFFEB 		bl	_test_assert
 765              	.LVL87:
 766 0514 000050E3 		cmp	r0, #0
 767 0518 A800001A 		bne	.L21
 768              		.loc 1 183 3 discriminator 2 view .LVU206
 769              		.loc 1 183 3 discriminator 2 view .LVU207
 770              		.syntax divided
 771              	@ 183 "../../test/testmbox.c" 1
 772 051c 1FF021E3 		msr     CPSR_c, #0x1F
 773              	@ 0 "" 2
 774              		.loc 1 183 3 discriminator 2 view .LVU208
 775              		.loc 1 183 72 discriminator 2 view .LVU209
 776              		.loc 1 184 3 discriminator 2 view .LVU210
 777              	@ 184 "../../test/testmbox.c" 1
 778 0520 9FF021E3 		msr     CPSR_c, #0x9F
 779              	@ 0 "" 2
 780              		.loc 1 184 3 discriminator 2 view .LVU211
 781              		.loc 1 184 3 discriminator 2 view .LVU212
 782              		.loc 1 184 3 discriminator 2 view .LVU213
 783              		.arm
 784              		.syntax unified
 785 0524 181095E5 		ldr	r1, [r5, #24]
 786 0528 1F00A0E3 		mov	r0, #31
 787 052c 111F6FE1 		clz	r1, r1
 788 0530 A112A0E1 		lsr	r1, r1, #5
 789 0534 FEFFFFEB 		bl	_test_assert
 790              	.LVL88:
 791 0538 000050E3 		cmp	r0, #0
 792 053c 9F00001A 		bne	.L21
 793              		.loc 1 184 3 discriminator 2 view .LVU214
 794              		.loc 1 184 3 discriminator 2 view .LVU215
 795              		.syntax divided
 796              	@ 184 "../../test/testmbox.c" 1
 797 0540 1FF021E3 		msr     CPSR_c, #0x1F
ARM GAS  /tmp/ccrAlYmd.s 			page 15


 798              	@ 0 "" 2
 799              		.loc 1 184 3 discriminator 2 view .LVU216
 800              		.loc 1 184 67 discriminator 2 view .LVU217
 801              		.loc 1 185 3 discriminator 2 view .LVU218
 802              		.arm
 803              		.syntax unified
 804 0544 0C1095E5 		ldr	r1, [r5, #12]
 805 0548 083095E5 		ldr	r3, [r5, #8]
 806 054c 2000A0E3 		mov	r0, #32
 807 0550 031041E0 		sub	r1, r1, r3
 808 0554 111F6FE1 		clz	r1, r1
 809 0558 A112A0E1 		lsr	r1, r1, #5
 810 055c FEFFFFEB 		bl	_test_assert
 811              	.LVL89:
 812 0560 000050E3 		cmp	r0, #0
 813 0564 CAFEFF1A 		bne	.L1
 814              		.loc 1 185 72 discriminator 2 view .LVU219
 815              		.loc 1 187 3 discriminator 2 view .LVU220
 816              		.syntax divided
 817              	@ 187 "../../test/testmbox.c" 1
 818 0568 9FF021E3 		msr     CPSR_c, #0x9F
 819              	@ 0 "" 2
 820              		.loc 1 187 3 discriminator 2 view .LVU221
 821              		.loc 1 187 14 discriminator 2 view .LVU222
 822              		.loc 1 188 3 discriminator 2 view .LVU223
 823              		.loc 1 188 10 is_stmt 0 discriminator 2 view .LVU224
 824              		.arm
 825              		.syntax unified
 826 056c 4510A0E3 		mov	r1, #69
 827 0570 50029FE5 		ldr	r0, .L30
 828 0574 FEFFFFEB 		bl	chMBPostAheadI
 829              	.LVL90:
 830 0578 0010A0E1 		mov	r1, r0
 831              	.LVL91:
 832              		.loc 1 189 3 is_stmt 1 discriminator 2 view .LVU225
 833 057c 111F6FE1 		clz	r1, r1
 834 0580 2100A0E3 		mov	r0, #33
 835              	.LVL92:
 836              		.loc 1 189 3 is_stmt 0 discriminator 2 view .LVU226
 837 0584 A112A0E1 		lsr	r1, r1, #5
 838 0588 FEFFFFEB 		bl	_test_assert
 839              	.LVL93:
 840 058c 000050E3 		cmp	r0, #0
 841 0590 BFFEFF1A 		bne	.L1
 842              		.loc 1 189 59 is_stmt 1 discriminator 2 view .LVU227
 843              		.loc 1 190 3 discriminator 2 view .LVU228
 844              		.loc 1 190 10 is_stmt 0 discriminator 2 view .LVU229
 845 0594 4410A0E3 		mov	r1, #68
 846 0598 28029FE5 		ldr	r0, .L30
 847 059c FEFFFFEB 		bl	chMBPostAheadI
 848              	.LVL94:
 849 05a0 0010A0E1 		mov	r1, r0
 850              	.LVL95:
 851              		.loc 1 191 3 is_stmt 1 discriminator 2 view .LVU230
 852 05a4 111F6FE1 		clz	r1, r1
 853 05a8 2200A0E3 		mov	r0, #34
 854              	.LVL96:
ARM GAS  /tmp/ccrAlYmd.s 			page 16


 855              		.loc 1 191 3 is_stmt 0 discriminator 2 view .LVU231
 856 05ac A112A0E1 		lsr	r1, r1, #5
 857 05b0 FEFFFFEB 		bl	_test_assert
 858              	.LVL97:
 859 05b4 000050E3 		cmp	r0, #0
 860 05b8 B5FEFF1A 		bne	.L1
 861              		.loc 1 191 59 is_stmt 1 discriminator 2 view .LVU232
 862              		.loc 1 192 3 discriminator 2 view .LVU233
 863              		.loc 1 192 10 is_stmt 0 discriminator 2 view .LVU234
 864 05bc 4310A0E3 		mov	r1, #67
 865 05c0 00029FE5 		ldr	r0, .L30
 866 05c4 FEFFFFEB 		bl	chMBPostAheadI
 867              	.LVL98:
 868 05c8 0010A0E1 		mov	r1, r0
 869              	.LVL99:
 870              		.loc 1 193 3 is_stmt 1 discriminator 2 view .LVU235
 871 05cc 111F6FE1 		clz	r1, r1
 872 05d0 2300A0E3 		mov	r0, #35
 873              	.LVL100:
 874              		.loc 1 193 3 is_stmt 0 discriminator 2 view .LVU236
 875 05d4 A112A0E1 		lsr	r1, r1, #5
 876 05d8 FEFFFFEB 		bl	_test_assert
 877              	.LVL101:
 878 05dc 000050E3 		cmp	r0, #0
 879 05e0 ABFEFF1A 		bne	.L1
 880              		.loc 1 193 59 is_stmt 1 discriminator 2 view .LVU237
 881              		.loc 1 194 3 discriminator 2 view .LVU238
 882              		.loc 1 194 10 is_stmt 0 discriminator 2 view .LVU239
 883 05e4 4210A0E3 		mov	r1, #66
 884 05e8 D8019FE5 		ldr	r0, .L30
 885 05ec FEFFFFEB 		bl	chMBPostAheadI
 886              	.LVL102:
 887 05f0 0010A0E1 		mov	r1, r0
 888              	.LVL103:
 889              		.loc 1 195 3 is_stmt 1 discriminator 2 view .LVU240
 890 05f4 111F6FE1 		clz	r1, r1
 891 05f8 2400A0E3 		mov	r0, #36
 892              	.LVL104:
 893              		.loc 1 195 3 is_stmt 0 discriminator 2 view .LVU241
 894 05fc A112A0E1 		lsr	r1, r1, #5
 895 0600 FEFFFFEB 		bl	_test_assert
 896              	.LVL105:
 897 0604 000050E3 		cmp	r0, #0
 898 0608 A1FEFF1A 		bne	.L1
 899              		.loc 1 195 59 is_stmt 1 discriminator 2 view .LVU242
 900              		.loc 1 196 3 discriminator 2 view .LVU243
 901              		.loc 1 196 10 is_stmt 0 discriminator 2 view .LVU244
 902 060c 4110A0E3 		mov	r1, #65
 903 0610 B0019FE5 		ldr	r0, .L30
 904 0614 FEFFFFEB 		bl	chMBPostAheadI
 905              	.LVL106:
 906              		.loc 1 197 3 is_stmt 1 discriminator 2 view .LVU245
 907              		.loc 1 197 3 discriminator 2 view .LVU246
 908              		.syntax divided
 909              	@ 197 "../../test/testmbox.c" 1
 910 0618 1FF021E3 		msr     CPSR_c, #0x1F
 911              	@ 0 "" 2
ARM GAS  /tmp/ccrAlYmd.s 			page 17


 912              		.loc 1 197 16 discriminator 2 view .LVU247
 913              		.loc 1 198 3 discriminator 2 view .LVU248
 914              		.arm
 915              		.syntax unified
 916 061c 101F6FE1 		clz	r1, r0
 917 0620 2500A0E3 		mov	r0, #37
 918              	.LVL107:
 919              		.loc 1 198 3 is_stmt 0 discriminator 2 view .LVU249
 920 0624 A112A0E1 		lsr	r1, r1, #5
 921 0628 FEFFFFEB 		bl	_test_assert
 922              	.LVL108:
 923 062c 000050E3 		cmp	r0, #0
 924 0630 97FEFF1A 		bne	.L1
 925              		.loc 1 198 59 is_stmt 1 discriminator 2 view .LVU250
 926              		.loc 1 199 3 discriminator 2 view .LVU251
 927 0634 0C1095E5 		ldr	r1, [r5, #12]
 928 0638 083095E5 		ldr	r3, [r5, #8]
 929 063c 2600A0E3 		mov	r0, #38
 930 0640 031041E0 		sub	r1, r1, r3
 931 0644 111F6FE1 		clz	r1, r1
 932 0648 A112A0E1 		lsr	r1, r1, #5
 933 064c FEFFFFEB 		bl	_test_assert
 934              	.LVL109:
 935 0650 000050E3 		cmp	r0, #0
 936 0654 8EFEFF1A 		bne	.L1
 937 0658 0540A0E3 		mov	r4, #5
 938              	.LVL110:
 939              		.loc 1 202 12 is_stmt 0 view .LVU252
 940 065c 64619FE5 		ldr	r6, .L30
 941              	.L15:
 942              	.LVL111:
 943              		.loc 1 201 5 is_stmt 1 view .LVU253
 944              		.syntax divided
 945              	@ 201 "../../test/testmbox.c" 1
 946 0660 9FF021E3 		msr     CPSR_c, #0x9F
 947              	@ 0 "" 2
 948              		.loc 1 201 5 view .LVU254
 949              		.loc 1 201 16 view .LVU255
 950              		.loc 1 202 5 view .LVU256
 951              		.loc 1 202 12 is_stmt 0 view .LVU257
 952              		.arm
 953              		.syntax unified
 954 0664 0600A0E1 		mov	r0, r6
 955 0668 04108DE2 		add	r1, sp, #4
 956 066c FEFFFFEB 		bl	chMBFetchI
 957              	.LVL112:
 958              		.loc 1 203 5 is_stmt 1 view .LVU258
 959              		.loc 1 203 5 view .LVU259
 960              		.syntax divided
 961              	@ 203 "../../test/testmbox.c" 1
 962 0670 1FF021E3 		msr     CPSR_c, #0x1F
 963              	@ 0 "" 2
 964              		.loc 1 203 18 view .LVU260
 965              		.loc 1 204 5 view .LVU261
 966              		.arm
 967              		.syntax unified
 968 0674 101F6FE1 		clz	r1, r0
ARM GAS  /tmp/ccrAlYmd.s 			page 18


 969 0678 2700A0E3 		mov	r0, #39
 970              	.LVL113:
 971              		.loc 1 204 5 is_stmt 0 view .LVU262
 972 067c A112A0E1 		lsr	r1, r1, #5
 973 0680 FEFFFFEB 		bl	_test_assert
 974              	.LVL114:
 975              		.loc 1 204 61 is_stmt 1 view .LVU263
 976              		.loc 1 205 5 view .LVU264
 977              		.loc 1 204 5 is_stmt 0 view .LVU265
 978 0684 000050E3 		cmp	r0, #0
 979 0688 81FEFF1A 		bne	.L1
 980              		.loc 1 205 5 discriminator 2 view .LVU266
 981 068c 0400DDE5 		ldrb	r0, [sp, #4]	@ zero_extendqisi2
 982 0690 FEFFFFEB 		bl	test_emit_token
 983              	.LVL115:
 984              		.loc 1 200 29 is_stmt 1 discriminator 2 view .LVU267
 985              		.loc 1 200 17 discriminator 2 view .LVU268
 986 0694 014054E2 		subs	r4, r4, #1
 987              	.LVL116:
 988              		.loc 1 200 17 is_stmt 0 discriminator 2 view .LVU269
 989 0698 F0FFFF1A 		bne	.L15
 990              		.loc 1 207 3 is_stmt 1 view .LVU270
 991 069c 2800A0E3 		mov	r0, #40
 992 06a0 24119FE5 		ldr	r1, .L30+4
 993 06a4 FEFFFFEB 		bl	_test_assert_sequence
 994              	.LVL117:
 995 06a8 000050E3 		cmp	r0, #0
 996 06ac 78FEFF1A 		bne	.L1
 997              		.loc 1 207 36 discriminator 2 view .LVU271
 998              		.loc 1 208 3 discriminator 2 view .LVU272
 999              		.syntax divided
 1000              	@ 208 "../../test/testmbox.c" 1
 1001 06b0 9FF021E3 		msr     CPSR_c, #0x9F
 1002              	@ 0 "" 2
 1003              		.loc 1 208 3 discriminator 2 view .LVU273
 1004              		.loc 1 208 3 discriminator 2 view .LVU274
 1005              		.loc 1 208 3 discriminator 2 view .LVU275
 1006              		.arm
 1007              		.syntax unified
 1008 06b4 241095E5 		ldr	r1, [r5, #36]
 1009 06b8 2900A0E3 		mov	r0, #41
 1010 06bc 051041E2 		sub	r1, r1, #5
 1011 06c0 111F6FE1 		clz	r1, r1
 1012 06c4 A112A0E1 		lsr	r1, r1, #5
 1013 06c8 FEFFFFEB 		bl	_test_assert
 1014              	.LVL118:
 1015 06cc 000050E3 		cmp	r0, #0
 1016 06d0 3A00001A 		bne	.L21
 1017              		.loc 1 208 3 discriminator 2 view .LVU276
 1018              		.loc 1 208 3 discriminator 2 view .LVU277
 1019              		.syntax divided
 1020              	@ 208 "../../test/testmbox.c" 1
 1021 06d4 1FF021E3 		msr     CPSR_c, #0x1F
 1022              	@ 0 "" 2
 1023              		.loc 1 208 3 discriminator 2 view .LVU278
 1024              		.loc 1 208 72 discriminator 2 view .LVU279
 1025              		.loc 1 209 3 discriminator 2 view .LVU280
ARM GAS  /tmp/ccrAlYmd.s 			page 19


 1026              	@ 209 "../../test/testmbox.c" 1
 1027 06d8 9FF021E3 		msr     CPSR_c, #0x9F
 1028              	@ 0 "" 2
 1029              		.loc 1 209 3 discriminator 2 view .LVU281
 1030              		.loc 1 209 3 discriminator 2 view .LVU282
 1031              		.loc 1 209 3 discriminator 2 view .LVU283
 1032              		.arm
 1033              		.syntax unified
 1034 06dc 181095E5 		ldr	r1, [r5, #24]
 1035 06e0 2A00A0E3 		mov	r0, #42
 1036 06e4 111F6FE1 		clz	r1, r1
 1037 06e8 A112A0E1 		lsr	r1, r1, #5
 1038 06ec FEFFFFEB 		bl	_test_assert
 1039              	.LVL119:
 1040 06f0 000050E3 		cmp	r0, #0
 1041 06f4 3100001A 		bne	.L21
 1042              		.loc 1 209 3 discriminator 2 view .LVU284
 1043              		.loc 1 209 3 discriminator 2 view .LVU285
 1044              		.syntax divided
 1045              	@ 209 "../../test/testmbox.c" 1
 1046 06f8 1FF021E3 		msr     CPSR_c, #0x1F
 1047              	@ 0 "" 2
 1048              		.loc 1 209 3 discriminator 2 view .LVU286
 1049              		.loc 1 209 67 discriminator 2 view .LVU287
 1050              		.loc 1 210 3 discriminator 2 view .LVU288
 1051              		.arm
 1052              		.syntax unified
 1053 06fc 0C1095E5 		ldr	r1, [r5, #12]
 1054 0700 083095E5 		ldr	r3, [r5, #8]
 1055 0704 2B00A0E3 		mov	r0, #43
 1056 0708 031041E0 		sub	r1, r1, r3
 1057 070c 111F6FE1 		clz	r1, r1
 1058 0710 A112A0E1 		lsr	r1, r1, #5
 1059 0714 FEFFFFEB 		bl	_test_assert
 1060              	.LVL120:
 1061 0718 000050E3 		cmp	r0, #0
 1062 071c 5CFEFF1A 		bne	.L1
 1063              		.loc 1 210 72 discriminator 2 view .LVU289
 1064              		.loc 1 215 3 discriminator 2 view .LVU290
 1065 0720 A0009FE5 		ldr	r0, .L30
 1066 0724 FEFFFFEB 		bl	chMBReset
 1067              	.LVL121:
 1068              		.loc 1 220 3 discriminator 2 view .LVU291
 1069              		.syntax divided
 1070              	@ 220 "../../test/testmbox.c" 1
 1071 0728 9FF021E3 		msr     CPSR_c, #0x9F
 1072              	@ 0 "" 2
 1073              		.loc 1 220 3 discriminator 2 view .LVU292
 1074              		.loc 1 220 3 discriminator 2 view .LVU293
 1075              		.loc 1 220 3 discriminator 2 view .LVU294
 1076              		.arm
 1077              		.syntax unified
 1078 072c 241095E5 		ldr	r1, [r5, #36]
 1079 0730 2C00A0E3 		mov	r0, #44
 1080 0734 051041E2 		sub	r1, r1, #5
 1081 0738 111F6FE1 		clz	r1, r1
 1082 073c A112A0E1 		lsr	r1, r1, #5
ARM GAS  /tmp/ccrAlYmd.s 			page 20


 1083 0740 FEFFFFEB 		bl	_test_assert
 1084              	.LVL122:
 1085 0744 000050E3 		cmp	r0, #0
 1086 0748 1C00001A 		bne	.L21
 1087              		.loc 1 220 3 discriminator 2 view .LVU295
 1088              		.loc 1 220 3 discriminator 2 view .LVU296
 1089              		.syntax divided
 1090              	@ 220 "../../test/testmbox.c" 1
 1091 074c 1FF021E3 		msr     CPSR_c, #0x1F
 1092              	@ 0 "" 2
 1093              		.loc 1 220 3 discriminator 2 view .LVU297
 1094              		.loc 1 220 72 discriminator 2 view .LVU298
 1095              		.loc 1 221 3 discriminator 2 view .LVU299
 1096              	@ 221 "../../test/testmbox.c" 1
 1097 0750 9FF021E3 		msr     CPSR_c, #0x9F
 1098              	@ 0 "" 2
 1099              		.loc 1 221 3 discriminator 2 view .LVU300
 1100              		.loc 1 221 3 discriminator 2 view .LVU301
 1101              		.loc 1 221 3 discriminator 2 view .LVU302
 1102              		.arm
 1103              		.syntax unified
 1104 0754 181095E5 		ldr	r1, [r5, #24]
 1105 0758 2D00A0E3 		mov	r0, #45
 1106 075c 111F6FE1 		clz	r1, r1
 1107 0760 A112A0E1 		lsr	r1, r1, #5
 1108 0764 FEFFFFEB 		bl	_test_assert
 1109              	.LVL123:
 1110 0768 000050E3 		cmp	r0, #0
 1111 076c 1300001A 		bne	.L21
 1112              		.loc 1 221 3 discriminator 2 view .LVU303
 1113              		.loc 1 221 3 discriminator 2 view .LVU304
 1114              		.syntax divided
 1115              	@ 221 "../../test/testmbox.c" 1
 1116 0770 1FF021E3 		msr     CPSR_c, #0x1F
 1117              	@ 0 "" 2
 1118              		.loc 1 221 3 discriminator 2 view .LVU305
 1119              		.loc 1 221 67 discriminator 2 view .LVU306
 1120              		.loc 1 222 3 discriminator 2 view .LVU307
 1121              	@ 222 "../../test/testmbox.c" 1
 1122 0774 9FF021E3 		msr     CPSR_c, #0x9F
 1123              	@ 0 "" 2
 1124              		.loc 1 222 3 discriminator 2 view .LVU308
 1125              		.loc 1 222 3 discriminator 2 view .LVU309
 1126              		.loc 1 222 3 discriminator 2 view .LVU310
 1127              		.arm
 1128              		.syntax unified
 1129 0778 001095E5 		ldr	r1, [r5]
 1130 077c 083095E5 		ldr	r3, [r5, #8]
 1131 0780 2E00A0E3 		mov	r0, #46
 1132 0784 031041E0 		sub	r1, r1, r3
 1133 0788 111F6FE1 		clz	r1, r1
 1134 078c A112A0E1 		lsr	r1, r1, #5
 1135 0790 FEFFFFEB 		bl	_test_assert
 1136              	.LVL124:
 1137 0794 000050E3 		cmp	r0, #0
 1138 0798 0800001A 		bne	.L21
 1139              		.loc 1 222 3 discriminator 2 view .LVU311
ARM GAS  /tmp/ccrAlYmd.s 			page 21


 1140              		.loc 1 222 3 discriminator 2 view .LVU312
 1141              		.syntax divided
 1142              	@ 222 "../../test/testmbox.c" 1
 1143 079c 1FF021E3 		msr     CPSR_c, #0x1F
 1144              	@ 0 "" 2
 1145              		.loc 1 222 3 discriminator 2 view .LVU313
 1146              		.loc 1 222 91 discriminator 2 view .LVU314
 1147              		.loc 1 223 3 discriminator 2 view .LVU315
 1148              	@ 223 "../../test/testmbox.c" 1
 1149 07a0 9FF021E3 		msr     CPSR_c, #0x9F
 1150              	@ 0 "" 2
 1151              		.loc 1 223 3 discriminator 2 view .LVU316
 1152              		.loc 1 223 3 discriminator 2 view .LVU317
 1153              		.loc 1 223 3 discriminator 2 view .LVU318
 1154              		.arm
 1155              		.syntax unified
 1156 07a4 001095E5 		ldr	r1, [r5]
 1157 07a8 0C3095E5 		ldr	r3, [r5, #12]
 1158 07ac 2F00A0E3 		mov	r0, #47
 1159 07b0 031041E0 		sub	r1, r1, r3
 1160 07b4 111F6FE1 		clz	r1, r1
 1161 07b8 A112A0E1 		lsr	r1, r1, #5
 1162 07bc FEFFFFEB 		bl	_test_assert
 1163              	.LVL125:
 1164              	.L21:
 1165              		.loc 1 223 3 discriminator 2 view .LVU319
 1166              		.loc 1 223 3 discriminator 2 view .LVU320
 1167              		.syntax divided
 1168              	@ 223 "../../test/testmbox.c" 1
 1169 07c0 1FF021E3 		msr     CPSR_c, #0x1F
 1170              	@ 0 "" 2
 1171              		.loc 1 223 3 discriminator 2 view .LVU321
 1172              		.loc 1 223 90 discriminator 2 view .LVU322
 1173              		.arm
 1174              		.syntax unified
 1175 07c4 32FEFFEA 		b	.L1
 1176              	.L31:
 1177              		.align	2
 1178              	.L30:
 1179 07c8 00000000 		.word	.LANCHOR0
 1180 07cc 00000000 		.word	.LC0
 1181              		.cfi_endproc
 1182              	.LFE8:
 1183              		.size	mbox1_execute, .-mbox1_execute
 1184              		.section	.text.mbox1_setup,"ax",%progbits
 1185              		.align	2
 1186              		.syntax unified
 1187              		.arm
 1188              		.fpu softvfp
 1189              		.type	mbox1_setup, %function
 1190              	mbox1_setup:
 1191              	.LFB7:
 1192              		.loc 1 75 31 view -0
 1193              		.cfi_startproc
 1194              		@ args = 0, pretend = 0, frame = 0
 1195              		@ frame_needed = 0, uses_anonymous_args = 0
 1196              		@ link register save eliminated.
ARM GAS  /tmp/ccrAlYmd.s 			page 22


 1197              		.loc 1 77 3 view .LVU324
 1198 0000 0520A0E3 		mov	r2, #5
 1199 0004 04109FE5 		ldr	r1, .L33
 1200 0008 04009FE5 		ldr	r0, .L33+4
 1201 000c FEFFFFEA 		b	chMBInit
 1202              	.LVL126:
 1203              	.L34:
 1204              		.align	2
 1205              	.L33:
 1206 0010 00000000 		.word	test
 1207 0014 00000000 		.word	.LANCHOR0
 1208              		.cfi_endproc
 1209              	.LFE7:
 1210              		.size	mbox1_setup, .-mbox1_setup
 1211              		.global	patternmbox
 1212              		.global	testmbox1
 1213              		.section	.rodata.str1.4,"aMS",%progbits,1
 1214              		.align	2
 1215              	.LC1:
 1216 0000 4D61696C 		.ascii	"Mailboxes, queuing and timeouts\000"
 1216      626F7865 
 1216      732C2071 
 1216      75657569 
 1216      6E672061 
 1217              		.section	.data.mb1,"aw"
 1218              		.align	2
 1219              		.set	.LANCHOR0,. + 0
 1220              		.type	mb1, %object
 1221              		.size	mb1, 40
 1222              	mb1:
 1223 0000 00000000 		.word	test
 1224 0004 14000000 		.word	test+20
 1225 0008 00000000 		.word	test
 1226 000c 00000000 		.word	test
 1227 0010 10000000 		.word	mb1+16
 1228 0014 10000000 		.word	mb1+16
 1229 0018 00000000 		.word	0
 1230 001c 1C000000 		.word	mb1+28
 1231 0020 1C000000 		.word	mb1+28
 1232 0024 05000000 		.word	5
 1233              		.section	.rodata.patternmbox,"a"
 1234              		.align	2
 1235              		.type	patternmbox, %object
 1236              		.size	patternmbox, 8
 1237              	patternmbox:
 1238 0000 00000000 		.word	testmbox1
 1239 0004 00000000 		.word	0
 1240              		.section	.rodata.testmbox1,"a"
 1241              		.align	2
 1242              		.type	testmbox1, %object
 1243              		.size	testmbox1, 16
 1244              	testmbox1:
 1245 0000 00000000 		.word	.LC1
 1246 0004 00000000 		.word	mbox1_setup
 1247 0008 00000000 		.word	0
 1248 000c 00000000 		.word	mbox1_execute
 1249              		.text
ARM GAS  /tmp/ccrAlYmd.s 			page 23


 1250              	.Letext0:
 1251              		.file 2 "/usr/arm-none-eabi/include/machine/_default_types.h"
 1252              		.file 3 "/usr/arm-none-eabi/include/sys/_stdint.h"
 1253              		.file 4 "../../os/ports/GCC/ARM/chtypes.h"
 1254              		.file 5 "../../os/kernel/include/chlists.h"
 1255              		.file 6 "../../os/kernel/include/chthreads.h"
 1256              		.file 7 "../../os/ports/GCC/ARM/chcore.h"
 1257              		.file 8 "../../os/kernel/include/chsem.h"
 1258              		.file 9 "../../os/kernel/include/chmtx.h"
 1259              		.file 10 "../../os/kernel/include/chmboxes.h"
 1260              		.file 11 "../../test/test.h"