ARM GAS  /tmp/ccv0R7bG.s 			page 1


   1              		.cpu arm1176jz-s
   2              		.eabi_attribute 20, 1
   3              		.eabi_attribute 21, 1
   4              		.eabi_attribute 23, 3
   5              		.eabi_attribute 24, 1
   6              		.eabi_attribute 25, 1
   7              		.eabi_attribute 26, 1
   8              		.eabi_attribute 30, 2
   9              		.eabi_attribute 34, 1
  10              		.eabi_attribute 18, 4
  11              		.file	"tm.c"
  12              		.text
  13              	.Ltext0:
  14              		.cfi_sections	.debug_frame
  15              		.section	.text.tm_start,"ax",%progbits
  16              		.align	2
  17              		.arch armv6kz
  18              		.syntax unified
  19              		.arm
  20              		.fpu softvfp
  21              		.type	tm_start, %function
  22              	tm_start:
  23              	.LVL0:
  24              	.LFB7:
  25              		.file 1 "../../os/hal/src/tm.c"
  26              		.loc 1 62 44 view -0
  27              		.cfi_startproc
  28              		@ args = 0, pretend = 0, frame = 0
  29              		@ frame_needed = 0, uses_anonymous_args = 0
  30              		@ link register save eliminated.
  31              		.loc 1 64 3 view .LVU1
  32              		.loc 1 64 15 is_stmt 0 view .LVU2
  33 0000 08309FE5 		ldr	r3, .L3
  34 0004 043093E5 		ldr	r3, [r3, #4]
  35              		.loc 1 64 13 view .LVU3
  36 0008 083080E5 		str	r3, [r0, #8]
  37              		.loc 1 65 1 view .LVU4
  38 000c 1EFF2FE1 		bx	lr
  39              	.L4:
  40              		.align	2
  41              	.L3:
  42 0010 00300020 		.word	536883200
  43              		.cfi_endproc
  44              	.LFE7:
  45              		.size	tm_start, .-tm_start
  46              		.section	.text.tm_stop,"ax",%progbits
  47              		.align	2
  48              		.syntax unified
  49              		.arm
  50              		.fpu softvfp
  51              		.type	tm_stop, %function
  52              	tm_stop:
  53              	.LVL1:
  54              	.LFB8:
  55              		.loc 1 74 43 is_stmt 1 view -0
  56              		.cfi_startproc
  57              		@ args = 0, pretend = 0, frame = 0
ARM GAS  /tmp/ccv0R7bG.s 			page 2


  58              		@ frame_needed = 0, uses_anonymous_args = 0
  59              		@ link register save eliminated.
  60              		.loc 1 76 3 view .LVU6
  61              		.loc 1 76 14 is_stmt 0 view .LVU7
  62 0000 3C309FE5 		ldr	r3, .L8
  63              		.loc 1 77 31 view .LVU8
  64 0004 3C209FE5 		ldr	r2, .L8+4
  65              		.loc 1 76 14 view .LVU9
  66 0008 043093E5 		ldr	r3, [r3, #4]
  67              	.LVL2:
  68              		.loc 1 77 3 is_stmt 1 view .LVU10
  69              		.loc 1 77 31 is_stmt 0 view .LVU11
  70 000c 002092E5 		ldr	r2, [r2]
  71 0010 081090E5 		ldr	r1, [r0, #8]
  72 0014 023043E0 		sub	r3, r3, r2
  73              	.LVL3:
  74              		.loc 1 78 6 view .LVU12
  75 0018 0C2090E5 		ldr	r2, [r0, #12]
  76              		.loc 1 77 31 view .LVU13
  77 001c 013043E0 		sub	r3, r3, r1
  78              		.loc 1 78 6 view .LVU14
  79 0020 020053E1 		cmp	r3, r2
  80              		.loc 1 77 13 view .LVU15
  81 0024 083080E5 		str	r3, [r0, #8]
  82              		.loc 1 78 3 is_stmt 1 view .LVU16
  83              		.loc 1 78 6 is_stmt 0 view .LVU17
  84 0028 0100009A 		bls	.L6
  85              		.loc 1 79 7 is_stmt 1 view .LVU18
  86              		.loc 1 79 18 is_stmt 0 view .LVU19
  87 002c 0C3080E5 		str	r3, [r0, #12]
  88 0030 1EFF2FE1 		bx	lr
  89              	.L6:
  90              		.loc 1 80 8 is_stmt 1 view .LVU20
  91              		.loc 1 80 11 is_stmt 0 view .LVU21
  92 0034 102090E5 		ldr	r2, [r0, #16]
  93 0038 020053E1 		cmp	r3, r2
  94              		.loc 1 81 7 is_stmt 1 view .LVU22
  95              		.loc 1 81 17 is_stmt 0 view .LVU23
  96 003c 10308035 		strcc	r3, [r0, #16]
  97              		.loc 1 82 1 view .LVU24
  98 0040 1EFF2FE1 		bx	lr
  99              	.L9:
 100              		.align	2
 101              	.L8:
 102 0044 00300020 		.word	536883200
 103 0048 00000000 		.word	.LANCHOR0
 104              		.cfi_endproc
 105              	.LFE8:
 106              		.size	tm_stop, .-tm_stop
 107              		.section	.text.tmInit,"ax",%progbits
 108              		.align	2
 109              		.global	tmInit
 110              		.syntax unified
 111              		.arm
 112              		.fpu softvfp
 113              		.type	tmInit, %function
 114              	tmInit:
ARM GAS  /tmp/ccv0R7bG.s 			page 3


 115              	.LFB9:
 116              		.loc 1 97 19 is_stmt 1 view -0
 117              		.cfi_startproc
 118              		@ args = 0, pretend = 0, frame = 24
 119              		@ frame_needed = 0, uses_anonymous_args = 0
 120              		.loc 1 98 3 view .LVU26
 121              		.loc 1 103 3 view .LVU27
 122              		.loc 1 103 22 is_stmt 0 view .LVU28
 123 0000 0030A0E3 		mov	r3, #0
 124              	.LBB8:
 125              	.LBB9:
 126              		.loc 1 123 14 view .LVU29
 127 0004 0010E0E3 		mvn	r1, #0
 128              	.LBE9:
 129              	.LBE8:
 130              		.loc 1 97 19 view .LVU30
 131 0008 10402DE9 		push	{r4, lr}
 132              		.cfi_def_cfa_offset 8
 133              		.cfi_offset 4, -8
 134              		.cfi_offset 14, -4
 135              		.loc 1 103 22 view .LVU31
 136 000c 34409FE5 		ldr	r4, .L12
 137              		.loc 1 97 19 view .LVU32
 138 0010 18D04DE2 		sub	sp, sp, #24
 139              		.cfi_def_cfa_offset 32
 140              	.LBB12:
 141              	.LBB13:
 142              		.loc 1 64 15 view .LVU33
 143 0014 30209FE5 		ldr	r2, .L12+4
 144              	.LBE13:
 145              	.LBE12:
 146              	.LBB16:
 147              	.LBB10:
 148              		.loc 1 121 14 view .LVU34
 149 0018 0C308DE5 		str	r3, [sp, #12]
 150              	.LBE10:
 151              	.LBE16:
 152              		.loc 1 103 22 view .LVU35
 153 001c 003084E5 		str	r3, [r4]
 154              		.loc 1 104 3 is_stmt 1 view .LVU36
 155              	.LVL4:
 156              	.LBB17:
 157              	.LBI8:
 158              		.loc 1 117 6 view .LVU37
 159              	.LBB11:
 160              		.loc 1 119 3 view .LVU38
 161              		.loc 1 120 3 view .LVU39
 162              		.loc 1 121 3 view .LVU40
 163              		.loc 1 122 3 view .LVU41
 164              		.loc 1 122 14 is_stmt 0 view .LVU42
 165 0020 10308DE5 		str	r3, [sp, #16]
 166              		.loc 1 123 3 is_stmt 1 view .LVU43
 167              		.loc 1 123 14 is_stmt 0 view .LVU44
 168 0024 14108DE5 		str	r1, [sp, #20]
 169              	.LVL5:
 170              		.loc 1 123 14 view .LVU45
 171              	.LBE11:
ARM GAS  /tmp/ccv0R7bG.s 			page 4


 172              	.LBE17:
 173              		.loc 1 105 3 is_stmt 1 view .LVU46
 174              	.LBB18:
 175              	.LBI12:
 176              		.loc 1 62 13 view .LVU47
 177              	.LBB14:
 178              		.loc 1 64 3 view .LVU48
 179              		.loc 1 64 15 is_stmt 0 view .LVU49
 180 0028 043092E5 		ldr	r3, [r2, #4]
 181              	.LBE14:
 182              	.LBE18:
 183              		.loc 1 106 3 view .LVU50
 184 002c 04008DE2 		add	r0, sp, #4
 185              	.LBB19:
 186              	.LBB15:
 187              		.loc 1 64 13 view .LVU51
 188 0030 0C308DE5 		str	r3, [sp, #12]
 189              	.LVL6:
 190              		.loc 1 64 13 view .LVU52
 191              	.LBE15:
 192              	.LBE19:
 193              		.loc 1 106 3 is_stmt 1 view .LVU53
 194 0034 FEFFFFEB 		bl	tm_stop
 195              	.LVL7:
 196              		.loc 1 107 3 view .LVU54
 197              		.loc 1 107 22 is_stmt 0 view .LVU55
 198 0038 0C309DE5 		ldr	r3, [sp, #12]
 199 003c 003084E5 		str	r3, [r4]
 200              		.loc 1 108 1 view .LVU56
 201 0040 18D08DE2 		add	sp, sp, #24
 202              		.cfi_def_cfa_offset 8
 203              		@ sp needed
 204 0044 1080BDE8 		pop	{r4, pc}
 205              	.L13:
 206              		.align	2
 207              	.L12:
 208 0048 00000000 		.word	.LANCHOR0
 209 004c 00300020 		.word	536883200
 210              		.cfi_endproc
 211              	.LFE9:
 212              		.size	tmInit, .-tmInit
 213              		.section	.text.tmObjectInit,"ax",%progbits
 214              		.align	2
 215              		.global	tmObjectInit
 216              		.syntax unified
 217              		.arm
 218              		.fpu softvfp
 219              		.type	tmObjectInit, %function
 220              	tmObjectInit:
 221              	.LVL8:
 222              	.LFB10:
 223              		.loc 1 117 41 is_stmt 1 view -0
 224              		.cfi_startproc
 225              		@ args = 0, pretend = 0, frame = 0
 226              		@ frame_needed = 0, uses_anonymous_args = 0
 227              		@ link register save eliminated.
 228              		.loc 1 119 3 view .LVU58
ARM GAS  /tmp/ccv0R7bG.s 			page 5


 229              		.loc 1 121 14 is_stmt 0 view .LVU59
 230 0000 0030A0E3 		mov	r3, #0
 231              		.loc 1 123 14 view .LVU60
 232 0004 0020E0E3 		mvn	r2, #0
 233              		.loc 1 119 14 view .LVU61
 234 0008 14C09FE5 		ldr	ip, .L15
 235              		.loc 1 120 14 view .LVU62
 236 000c 14109FE5 		ldr	r1, .L15+4
 237              		.loc 1 119 14 view .LVU63
 238 0010 00C080E5 		str	ip, [r0]
 239              		.loc 1 120 3 is_stmt 1 view .LVU64
 240              		.loc 1 121 14 is_stmt 0 view .LVU65
 241 0014 0A0080E9 		stmib	r0, {r1, r3}
 242              		.loc 1 122 3 is_stmt 1 view .LVU66
 243              		.loc 1 122 14 is_stmt 0 view .LVU67
 244 0018 0C3080E5 		str	r3, [r0, #12]
 245              		.loc 1 123 3 is_stmt 1 view .LVU68
 246              		.loc 1 123 14 is_stmt 0 view .LVU69
 247 001c 102080E5 		str	r2, [r0, #16]
 248              		.loc 1 124 1 view .LVU70
 249 0020 1EFF2FE1 		bx	lr
 250              	.L16:
 251              		.align	2
 252              	.L15:
 253 0024 00000000 		.word	tm_start
 254 0028 00000000 		.word	tm_stop
 255              		.cfi_endproc
 256              	.LFE10:
 257              		.size	tmObjectInit, .-tmObjectInit
 258              		.section	.bss.measurement_offset,"aw",%nobits
 259              		.align	2
 260              		.set	.LANCHOR0,. + 0
 261              		.type	measurement_offset, %object
 262              		.size	measurement_offset, 4
 263              	measurement_offset:
 264 0000 00000000 		.space	4
 265              		.text
 266              	.Letext0:
 267              		.file 2 "/usr/arm-none-eabi/include/machine/_default_types.h"
 268              		.file 3 "/usr/arm-none-eabi/include/sys/_stdint.h"
 269              		.file 4 "../../os/hal/platforms/BCM2835/hal_lld.h"
 270              		.file 5 "../../os/hal/include/tm.h"