ARM GAS  /tmp/ccv0R7bG.s 			page 1


   1              		.cpu arm1176jz-s
   2              		.eabi_attribute 20, 1
   3              		.eabi_attribute 21, 1
   4              		.eabi_attribute 23, 3
   5              		.eabi_attribute 24, 1
   6              		.eabi_attribute 25, 1
   7              		.eabi_attribute 26, 1
   8              		.eabi_attribute 30, 2
   9              		.eabi_attribute 34, 1
  10              		.eabi_attribute 18, 4
  11              		.file	"tm.c"
  12              		.text
  13              	.Ltext0:
  14              		.cfi_sections	.debug_frame
  15              		.section	.text.tm_start,"ax",%progbits
  16              		.align	2
  17              		.arch armv6kz
  18              		.syntax unified
  19              		.arm
  20              		.fpu softvfp
  21              		.type	tm_start, %function
  22              	tm_start:
  23              	.LVL0:
  24              	.LFB7:
  25              		.file 1 "../../os/hal/src/tm.c"
  26              		.loc 1 62 44 view -0
  27              		.cfi_startproc
  28              		@ args = 0, pretend = 0, frame = 0
  29              		@ frame_needed = 0, uses_anonymous_args = 0
  30              		@ link register save eliminated.
  31              		.loc 1 64 3 view .LVU1
  32              		.loc 1 64 15 is_stmt 0 view .LVU2
  33 0000 08309FE5 		ldr	r3, .L3
  34 0004 043093E5 		ldr	r3, [r3, #4]
  35              		.loc 1 64 13 view .LVU3
  36 0008 083080E5 		str	r3, [r0, #8]
  37              		.loc 1 65 1 view .LVU4
  38 000c 1EFF2FE1 		bx	lr
  39              	.L4:
  40              		.align	2
  41              	.L3:
  42 0010 00300020 		.word	536883200
  43              		.cfi_endproc
  44              	.LFE7:
  45              		.size	tm_start, .-tm_start
  46              		.section	.text.tm_stop,"ax",%progbits
  47              		.align	2
  48              		.syntax unified
  49              		.arm
  50              		.fpu softvfp
  51              		.type	tm_stop, %function
  52              	tm_stop:
  53              	.LVL1:
  54              	.LFB8:
  55              		.loc 1 74 43 is_stmt 1 view -0
  56              		.cfi_startproc
  57              		@ args = 0, pretend = 0, frame = 0
ARM GAS  /tmp/ccv0R7bG.s 			page 2


  58              		@ frame_needed = 0, uses_anonymous_args = 0
  59              		@ link register save eliminated.
  60              		.loc 1 76 3 view .LVU6
  61              		.loc 1 76 14 is_stmt 0 view .LVU7
  62 0000 3C309FE5 		ldr	r3, .L8
  63              		.loc 1 77 31 view .LVU8
  64 0004 3C209FE5 		ldr	r2, .L8+4
  65              		.loc 1 76 14 view .LVU9
  66 0008 043093E5 		ldr	r3, [r3, #4]
  67              	.LVL2:
  68              		.loc 1 77 3 is_stmt 1 view .LVU10
  69              		.loc 1 77 31 is_stmt 0 view .LVU11
  70 000c 002092E5 		ldr	r2, [r2]
  71 0010 081090E5 		ldr	r1, [r0, #8]
  72 0014 023043E0 		sub	r3, r3, r2
  73              	.LVL3:
  74              		.loc 1 78 6 view .LVU12
  75 0018 0C2090E5 		ldr	r2, [r0, #12]
  76              		.loc 1 77 31 view .LVU13
  77 001c 013043E0 		sub	r3, r3, r1
  78              		.loc 1 78 6 view .LVU14
  79 0020 020053E1 		cmp	r3, r2
  80              		.loc 1 77 13 view .LVU15
  81 0024 083080E5 		str	r3, [r0, #8]
  82              		.loc 1 78 3 is_stmt 1 view .LVU16
  83              		.loc 1 78 6 is_stmt 0 view .LVU17
  84 0028 0100009A 		bls	.L6
  85              		.loc 1 79 7 is_stmt 1 view .LVU18
  86              		.loc 1 79 18 is_stmt 0 view .LVU19
  87 002c 0C3080E5 		str	r3, [r0, #12]
  88 0030 1EFF2FE1 		bx	lr
  89              	.L6:
  90              		.loc 1 80 8 is_stmt 1 view .LVU20
  91              		.loc 1 80 11 is_stmt 0 view .LVU21
  92 0034 102090E5 		ldr	r2, [r0, #16]
  93 0038 020053E1 		cmp	r3, r2
  94              		.loc 1 81 7 is_stmt 1 view .LVU22
  95              		.loc 1 81 17 is_stmt 0 view .LVU23
  96 003c 10308035 		strcc	r3, [r0, #16]
  97              		.loc 1 82 1 view .LVU24
  98 0040 1EFF2FE1 		bx	lr
  99              	.L9:
 100              		.align	2
 101              	.L8:
 102 0044 00300020 		.word	536883200
 103 0048 00000000 		.word	.LANCHOR0
 104              		.cfi_endproc
 105              	.LFE8:
 106              		.size	tm_stop, .-tm_stop
 107              		.section	.text.tmInit,"ax",%progbits
 108              		.align	2
 109              		.global	tmInit
 110              		.syntax unified
 111              		.arm
 112              		.fpu softvfp
 113              		.type	tmInit, %function
 114              	tmInit:
ARM GAS  /tmp/ccv0R7bG.s 			page 3


 115              	.LFB9:
 116              		.loc 1 97 19 is_stmt 1 view -0
 117              		.cfi_startproc
 118              		@ args = 0, pretend = 0, frame = 24
 119              		@ frame_needed = 0, uses_anonymous_args = 0
 120              		.loc 1 98 3 view .LVU26
 121              		.loc 1 103 3 view .LVU27
 122              		.loc 1 103 22 is_stmt 0 view .LVU28
 123 0000 0030A0E3 		mov	r3, #0
 124              	.LBB8:
 125              	.LBB9:
 126              		.loc 1 123 14 view .LVU29
 127 0004 0010E0E3 		mvn	r1, #0
 128              	.LBE9:
 129              	.LBE8:
 130              		.loc 1 97 19 view .LVU30
 131 0008 10402DE9 		push	{r4, lr}
 132              		.cfi_def_cfa_offset 8
 133              		.cfi_offset 4, -8
 134              		.cfi_offset 14, -4
 135              		.loc 1 103 22 view .LVU31
 136 000c 34409FE5 		ldr	r4, .L12
 137              		.loc 1 97 19 view .LVU32
 138 0010 18D04DE2 		sub	sp, sp, #24
 139              		.cfi_def_cfa_offset 32
 140              	.LBB12:
 141              	.LBB13:
 142              		.loc 1 64 15 view .LVU33
 143 0014 30209FE5 		ldr	r2, .L12+4
 144              	.LBE13:
 145              	.LBE12:
 146              	.LBB16:
 147              	.LBB10:
 148              		.loc 1 121 14 view .LVU34
 149 0018 0C308DE5 		str	r3, [sp, #12]
 150              	.LBE10:
 151              	.LBE16:
 152              		.loc 1 103 22 view .LVU35
 153 001c 003084E5 		str	r3, [r4]
 154              		.loc 1 104 3 is_stmt 1 view .LVU36
 155              	.LVL4:
 156              	.LBB17:
 157              	.LBI8:
 158              		.loc 1 117 6 view .LVU37
 159              	.LBB11:
 160              		.loc 1 119 3 view .LVU38
 161              		.loc 1 120 3 view .LVU39
 162              		.loc 1 121 3 view .LVU40
 163              		.loc 1 122 3 view .LVU41
 164              		.loc 1 122 14 is_stmt 0 view .LVU42
 165 0020 10308DE5 		str	r3, [sp, #16]
 166              		.loc 1 123 3 is_stmt 1 view .LVU43
 167              		.loc 1 123 14 is_stmt 0 view .LVU44
 168 0024 14108DE5 		str	r1, [sp, #20]
 169              	.LVL5:
 170              		.loc 1 123 14 view .LVU45
 171              	.LBE11:
ARM GAS  /tmp/ccv0R7bG.s 			page 4


 172              	.LBE17:
 173              		.loc 1 105 3 is_stmt 1 view .LVU46
 174              	.LBB18:
 175              	.LBI12:
 176              		.loc 1 62 13 view .LVU47
 177              	.LBB14:
 178              		.loc 1 64 3 view .LVU48
 179              		.loc 1 64 15 is_stmt 0 view .LVU49
 180 0028 043092E5 		ldr	r3, [r2, #4]
 181              	.LBE14:
 182              	.LBE18:
 183              		.loc 1 106 3 view .LVU50
 184 002c 04008DE2 		add	r0, sp, #4
 185              	.LBB19:
 186              	.LBB15:
 187              		.loc 1 64 13 view .LVU51
 188 0030 0C308DE5 		str	r3, [sp, #12]
 189              	.LVL6:
 190              		.loc 1 64 13 view .LVU52
 191              	.LBE15:
 192              	.LBE19:
 193              		.loc 1 106 3 is_stmt 1 view .LVU53
 194 0034 FEFFFFEB 		bl	tm_stop
 195              	.LVL7:
 196              		.loc 1 107 3 view .LVU54
 197              		.loc 1 107 22 is_stmt 0 view .LVU55
 198 0038 0C309DE5 		ldr	r3, [sp, #12]
 199 003c 003084E5 		str	r3, [r4]
 200              		.loc 1 108 1 view .LVU56
 201 0040 18D08DE2 		add	sp, sp, #24
 202              		.cfi_def_cfa_offset 8
 203              		@ sp needed
 204 0044 1080BDE8 		pop	{r4, pc}
 205              	.L13:
 206              		.align	2
 207              	.L12:
 208 0048 00000000 		.word	.LANCHOR0
 209 004c 00300020 		.word	536883200
 210              		.cfi_endproc
 211              	.LFE9:
 212              		.size	tmInit, .-tmInit
 213              		.section	.text.tmObjectInit,"ax",%progbits
 214              		.align	2
 215              		.global	tmObjectInit
 216              		.syntax unified
 217              		.arm
 218              		.fpu softvfp
 219              		.type	tmObjectInit, %function
 220              	tmObjectInit:
 221              	.LVL8:
 222              	.LFB10:
 223              		.loc 1 117 41 is_stmt 1 view -0
 224              		.cfi_startproc
 225              		@ args = 0, pretend = 0, frame = 0
 226              		@ frame_needed = 0, uses_anonymous_args = 0
 227              		@ link register save eliminated.
 228              		.loc 1 119 3 view .LVU58
ARM GAS  /tmp/ccv0R7bG.s 			page 5


 229              		.loc 1 121 14 is_stmt 0 view .LVU59
 230 0000 0030A0E3 		mov	r3, #0
 231              		.loc 1 123 14 view .LVU60
 232 0004 0020E0E3 		mvn	r2, #0
 233              		.loc 1 119 14 view .LVU61
 234 0008 14C09FE5 		ldr	ip, .L15
 235              		.loc 1 120 14 view .LVU62
 236 000c 14109FE5 		ldr	r1, .L15+4
 237              		.loc 1 119 14 view .LVU63
 238 0010 00C080E5 		str	ip, [r0]
 239              		.loc 1 120 3 is_stmt 1 view .LVU64
 240              		.loc 1 121 14 is_stmt 0 view .LVU65
 241 0014 0A0080E9 		stmib	r0, {r1, r3}
 242              		.loc 1 122 3 is_stmt 1 view .LVU66
 243              		.loc 1 122 14 is_stmt 0 view .LVU67
 244 0018 0C3080E5 		str	r3, [r0, #12]
 245              		.loc 1 123 3 is_stmt 1 view .LVU68
 246              		.loc 1 123 14 is_stmt 0 view .LVU69
 247 001c 102080E5 		str	r2, [r0, #16]
 248              		.loc 1 124 1 view .LVU70
 249 0020 1EFF2FE1 		bx	lr
 250              	.L16:
 251              		.align	2
 252              	.L15:
 253 0024 00000000 		.word	tm_start
 254 0028 00000000 		.word	tm_stop
 255              		.cfi_endproc
 256              	.LFE10:
 257              		.size	tmObjectInit, .-tmObjectInit
 258              		.section	.bss.measurement_offset,"aw",%nobits
 259              		.align	2
 260              		.set	.LANCHOR0,. + 0
 261              		.type	measurement_offset, %object
 262              		.size	measurement_offset, 4
 263              	measurement_offset:
 264 0000 00000000 		.space	4
 265              		.text
 266              	.Letext0:
 267              		.file 2 "/usr/arm-none-eabi/include/machine/_default_types.h"
 268              		.file 3 "/usr/arm-none-eabi/include/sys/_stdint.h"
 269              		.file 4 "../../os/hal/platforms/BCM2835/hal_lld.h"
 270              		.file 5 "../../os/hal/include/tm.h"
 271              		.section	.debug_info,"",%progbits
 272              	.Ldebug_info0:
 273 0000 25020000 		.4byte	0x225
 274 0004 0500     		.2byte	0x5
 275 0006 01       		.byte	0x1
 276 0007 04       		.byte	0x4
 277 0008 00000000 		.4byte	.Ldebug_abbrev0
 278 000c 09       		.uleb128 0x9
 279 000d C4000000 		.4byte	.LASF20
 280 0011 1D       		.byte	0x1d
 281 0012 9C010000 		.4byte	.LASF21
 282 0016 6B000000 		.4byte	.LASF22
 283 001a 2A000000 		.4byte	.LLRL5
 284 001e 00000000 		.4byte	0
 285 0022 00000000 		.4byte	.Ldebug_line0
ARM GAS  /tmp/ccv0R7bG.s 			page 6


 286 0026 0A       		.uleb128 0xa
 287 0027 04       		.byte	0x4
 288 0028 05       		.byte	0x5
 289 0029 696E7400 		.ascii	"int\000"
 290 002d 01       		.uleb128 0x1
 291 002e 04       		.byte	0x4
 292 002f 07       		.byte	0x7
 293 0030 95000000 		.4byte	.LASF0
 294 0034 01       		.uleb128 0x1
 295 0035 01       		.byte	0x1
 296 0036 06       		.byte	0x6
 297 0037 C9010000 		.4byte	.LASF1
 298 003b 01       		.uleb128 0x1
 299 003c 01       		.byte	0x1
 300 003d 08       		.byte	0x8
 301 003e 0E000000 		.4byte	.LASF2
 302 0042 01       		.uleb128 0x1
 303 0043 02       		.byte	0x2
 304 0044 05       		.byte	0x5
 305 0045 92010000 		.4byte	.LASF3
 306 0049 01       		.uleb128 0x1
 307 004a 02       		.byte	0x2
 308 004b 07       		.byte	0x7
 309 004c 42000000 		.4byte	.LASF4
 310 0050 01       		.uleb128 0x1
 311 0051 04       		.byte	0x4
 312 0052 05       		.byte	0x5
 313 0053 C0010000 		.4byte	.LASF5
 314 0057 03       		.uleb128 0x3
 315 0058 60000000 		.4byte	.LASF9
 316 005c 02       		.byte	0x2
 317 005d 4F       		.byte	0x4f
 318 005e 19       		.byte	0x19
 319 005f 63000000 		.4byte	0x63
 320 0063 01       		.uleb128 0x1
 321 0064 04       		.byte	0x4
 322 0065 07       		.byte	0x7
 323 0066 23000000 		.4byte	.LASF6
 324 006a 01       		.uleb128 0x1
 325 006b 08       		.byte	0x8
 326 006c 05       		.byte	0x5
 327 006d 6C010000 		.4byte	.LASF7
 328 0071 01       		.uleb128 0x1
 329 0072 08       		.byte	0x8
 330 0073 07       		.byte	0x7
 331 0074 AD000000 		.4byte	.LASF8
 332 0078 03       		.uleb128 0x3
 333 0079 B7010000 		.4byte	.LASF10
 334 007d 03       		.byte	0x3
 335 007e 30       		.byte	0x30
 336 007f 14       		.byte	0x14
 337 0080 57000000 		.4byte	0x57
 338 0084 01       		.uleb128 0x1
 339 0085 01       		.byte	0x1
 340 0086 08       		.byte	0x8
 341 0087 7A010000 		.4byte	.LASF11
 342 008b 03       		.uleb128 0x3
ARM GAS  /tmp/ccv0R7bG.s 			page 7


 343 008c A2000000 		.4byte	.LASF12
 344 0090 04       		.byte	0x4
 345 0091 45       		.byte	0x45
 346 0092 12       		.byte	0x12
 347 0093 78000000 		.4byte	0x78
 348 0097 03       		.uleb128 0x3
 349 0098 D5010000 		.4byte	.LASF13
 350 009c 05       		.byte	0x5
 351 009d 3E       		.byte	0x3e
 352 009e 20       		.byte	0x20
 353 009f A3000000 		.4byte	0xa3
 354 00a3 0B       		.uleb128 0xb
 355 00a4 D5010000 		.4byte	.LASF13
 356 00a8 14       		.byte	0x14
 357 00a9 05       		.byte	0x5
 358 00aa 43       		.byte	0x43
 359 00ab 08       		.byte	0x8
 360 00ac ED000000 		.4byte	0xed
 361 00b0 02       		.uleb128 0x2
 362 00b1 08000000 		.4byte	.LASF14
 363 00b5 44       		.byte	0x44
 364 00b6 0A       		.byte	0xa
 365 00b7 FD000000 		.4byte	0xfd
 366 00bb 00       		.byte	0
 367 00bc 02       		.uleb128 0x2
 368 00bd 55000000 		.4byte	.LASF15
 369 00c1 45       		.byte	0x45
 370 00c2 0A       		.byte	0xa
 371 00c3 FD000000 		.4byte	0xfd
 372 00c7 04       		.byte	0x4
 373 00c8 02       		.uleb128 0x2
 374 00c9 E5010000 		.4byte	.LASF16
 375 00cd 46       		.byte	0x46
 376 00ce 18       		.byte	0x18
 377 00cf 8B000000 		.4byte	0x8b
 378 00d3 08       		.byte	0x8
 379 00d4 02       		.uleb128 0x2
 380 00d5 5A000000 		.4byte	.LASF17
 381 00d9 47       		.byte	0x47
 382 00da 18       		.byte	0x18
 383 00db 8B000000 		.4byte	0x8b
 384 00df 0C       		.byte	0xc
 385 00e0 02       		.uleb128 0x2
 386 00e1 B2010000 		.4byte	.LASF18
 387 00e5 48       		.byte	0x48
 388 00e6 18       		.byte	0x18
 389 00e7 8B000000 		.4byte	0x8b
 390 00eb 10       		.byte	0x10
 391 00ec 00       		.byte	0
 392 00ed 0C       		.uleb128 0xc
 393 00ee F8000000 		.4byte	0xf8
 394 00f2 0D       		.uleb128 0xd
 395 00f3 F8000000 		.4byte	0xf8
 396 00f7 00       		.byte	0
 397 00f8 04       		.uleb128 0x4
 398 00f9 97000000 		.4byte	0x97
 399 00fd 04       		.uleb128 0x4
ARM GAS  /tmp/ccv0R7bG.s 			page 8


 400 00fe ED000000 		.4byte	0xed
 401 0102 0E       		.uleb128 0xe
 402 0103 7F010000 		.4byte	.LASF19
 403 0107 01       		.byte	0x1
 404 0108 31       		.byte	0x31
 405 0109 13       		.byte	0x13
 406 010a 8B000000 		.4byte	0x8b
 407 010e 05       		.uleb128 0x5
 408 010f 03       		.byte	0x3
 409 0110 00000000 		.4byte	measurement_offset
 410 0114 0F       		.uleb128 0xf
 411 0115 35000000 		.4byte	.LASF23
 412 0119 01       		.byte	0x1
 413 011a 75       		.byte	0x75
 414 011b 06       		.byte	0x6
 415 011c 01       		.byte	0x1
 416 011d 2D010000 		.4byte	0x12d
 417 0121 05       		.uleb128 0x5
 418 0122 746D7000 		.ascii	"tmp\000"
 419 0126 75       		.byte	0x75
 420 0127 24       		.byte	0x24
 421 0128 F8000000 		.4byte	0xf8
 422 012c 00       		.byte	0
 423 012d 10       		.uleb128 0x10
 424 012e 1C000000 		.4byte	.LASF24
 425 0132 01       		.byte	0x1
 426 0133 61       		.byte	0x61
 427 0134 06       		.byte	0x6
 428 0135 00000000 		.4byte	.LFB9
 429 0139 50000000 		.4byte	.LFE9-.LFB9
 430 013d 01       		.uleb128 0x1
 431 013e 9C       		.byte	0x9c
 432 013f A4010000 		.4byte	0x1a4
 433 0143 11       		.uleb128 0x11
 434 0144 746D00   		.ascii	"tm\000"
 435 0147 01       		.byte	0x1
 436 0148 62       		.byte	0x62
 437 0149 13       		.byte	0x13
 438 014a 97000000 		.4byte	0x97
 439 014e 02       		.uleb128 0x2
 440 014f 91       		.byte	0x91
 441 0150 64       		.sleb128 -28
 442 0151 06       		.uleb128 0x6
 443 0152 14010000 		.4byte	0x114
 444 0156 20000000 		.4byte	.LBI8
 445 015a 01       		.byte	.LVU37
 446 015b 0C000000 		.4byte	.LLRL1
 447 015f 68       		.byte	0x68
 448 0160 72010000 		.4byte	0x172
 449 0164 07       		.uleb128 0x7
 450 0165 21010000 		.4byte	0x121
 451 0169 0E000000 		.4byte	.LLST2
 452 016d 0C000000 		.4byte	.LVUS2
 453 0171 00       		.byte	0
 454 0172 06       		.uleb128 0x6
 455 0173 DD010000 		.4byte	0x1dd
 456 0177 28000000 		.4byte	.LBI12
ARM GAS  /tmp/ccv0R7bG.s 			page 9


 457 017b 02       		.byte	.LVU47
 458 017c 1B000000 		.4byte	.LLRL3
 459 0180 69       		.byte	0x69
 460 0181 93010000 		.4byte	0x193
 461 0185 07       		.uleb128 0x7
 462 0186 EA010000 		.4byte	0x1ea
 463 018a 1B000000 		.4byte	.LLST4
 464 018e 19000000 		.4byte	.LVUS4
 465 0192 00       		.byte	0
 466 0193 12       		.uleb128 0x12
 467 0194 38000000 		.4byte	.LVL7
 468 0198 A4010000 		.4byte	0x1a4
 469 019c 13       		.uleb128 0x13
 470 019d 01       		.uleb128 0x1
 471 019e 50       		.byte	0x50
 472 019f 02       		.uleb128 0x2
 473 01a0 91       		.byte	0x91
 474 01a1 5C       		.sleb128 -36
 475 01a2 00       		.byte	0
 476 01a3 00       		.byte	0
 477 01a4 14       		.uleb128 0x14
 478 01a5 00000000 		.4byte	.LASF25
 479 01a9 01       		.byte	0x1
 480 01aa 4A       		.byte	0x4a
 481 01ab 0D       		.byte	0xd
 482 01ac 00000000 		.4byte	.LFB8
 483 01b0 4C000000 		.4byte	.LFE8-.LFB8
 484 01b4 01       		.uleb128 0x1
 485 01b5 9C       		.byte	0x9c
 486 01b6 DD010000 		.4byte	0x1dd
 487 01ba 15       		.uleb128 0x15
 488 01bb 746D7000 		.ascii	"tmp\000"
 489 01bf 01       		.byte	0x1
 490 01c0 4A       		.byte	0x4a
 491 01c1 26       		.byte	0x26
 492 01c2 F8000000 		.4byte	0xf8
 493 01c6 01       		.uleb128 0x1
 494 01c7 50       		.byte	0x50
 495 01c8 16       		.uleb128 0x16
 496 01c9 6E6F7700 		.ascii	"now\000"
 497 01cd 01       		.byte	0x1
 498 01ce 4C       		.byte	0x4c
 499 01cf 0E       		.byte	0xe
 500 01d0 8B000000 		.4byte	0x8b
 501 01d4 28000000 		.4byte	.LLST0
 502 01d8 26000000 		.4byte	.LVUS0
 503 01dc 00       		.byte	0
 504 01dd 17       		.uleb128 0x17
 505 01de 63010000 		.4byte	.LASF26
 506 01e2 01       		.byte	0x1
 507 01e3 3E       		.byte	0x3e
 508 01e4 0D       		.byte	0xd
 509 01e5 01       		.byte	0x1
 510 01e6 F6010000 		.4byte	0x1f6
 511 01ea 05       		.uleb128 0x5
 512 01eb 746D7000 		.ascii	"tmp\000"
 513 01ef 3E       		.byte	0x3e
ARM GAS  /tmp/ccv0R7bG.s 			page 10


 514 01f0 27       		.byte	0x27
 515 01f1 F8000000 		.4byte	0xf8
 516 01f5 00       		.byte	0
 517 01f6 18       		.uleb128 0x18
 518 01f7 DD010000 		.4byte	0x1dd
 519 01fb 00000000 		.4byte	.LFB7
 520 01ff 14000000 		.4byte	.LFE7-.LFB7
 521 0203 01       		.uleb128 0x1
 522 0204 9C       		.byte	0x9c
 523 0205 11020000 		.4byte	0x211
 524 0209 08       		.uleb128 0x8
 525 020a EA010000 		.4byte	0x1ea
 526 020e 01       		.uleb128 0x1
 527 020f 50       		.byte	0x50
 528 0210 00       		.byte	0
 529 0211 19       		.uleb128 0x19
 530 0212 14010000 		.4byte	0x114
 531 0216 00000000 		.4byte	.LFB10
 532 021a 2C000000 		.4byte	.LFE10-.LFB10
 533 021e 01       		.uleb128 0x1
 534 021f 9C       		.byte	0x9c
 535 0220 08       		.uleb128 0x8
 536 0221 21010000 		.4byte	0x121
 537 0225 01       		.uleb128 0x1
 538 0226 50       		.byte	0x50
 539 0227 00       		.byte	0
 540 0228 00       		.byte	0
 541              		.section	.debug_abbrev,"",%progbits
 542              	.Ldebug_abbrev0:
 543 0000 01       		.uleb128 0x1
 544 0001 24       		.uleb128 0x24
 545 0002 00       		.byte	0
 546 0003 0B       		.uleb128 0xb
 547 0004 0B       		.uleb128 0xb
 548 0005 3E       		.uleb128 0x3e
 549 0006 0B       		.uleb128 0xb
 550 0007 03       		.uleb128 0x3
 551 0008 0E       		.uleb128 0xe
 552 0009 00       		.byte	0
 553 000a 00       		.byte	0
 554 000b 02       		.uleb128 0x2
 555 000c 0D       		.uleb128 0xd
 556 000d 00       		.byte	0
 557 000e 03       		.uleb128 0x3
 558 000f 0E       		.uleb128 0xe
 559 0010 3A       		.uleb128 0x3a
 560 0011 21       		.uleb128 0x21
 561 0012 05       		.sleb128 5
 562 0013 3B       		.uleb128 0x3b
 563 0014 0B       		.uleb128 0xb
 564 0015 39       		.uleb128 0x39
 565 0016 0B       		.uleb128 0xb
 566 0017 49       		.uleb128 0x49
 567 0018 13       		.uleb128 0x13
 568 0019 38       		.uleb128 0x38
 569 001a 0B       		.uleb128 0xb
 570 001b 00       		.byte	0
ARM GAS  /tmp/ccv0R7bG.s 			page 11


 571 001c 00       		.byte	0
 572 001d 03       		.uleb128 0x3
 573 001e 16       		.uleb128 0x16
 574 001f 00       		.byte	0
 575 0020 03       		.uleb128 0x3
 576 0021 0E       		.uleb128 0xe
 577 0022 3A       		.uleb128 0x3a
 578 0023 0B       		.uleb128 0xb
 579 0024 3B       		.uleb128 0x3b
 580 0025 0B       		.uleb128 0xb
 581 0026 39       		.uleb128 0x39
 582 0027 0B       		.uleb128 0xb
 583 0028 49       		.uleb128 0x49
 584 0029 13       		.uleb128 0x13
 585 002a 00       		.byte	0
 586 002b 00       		.byte	0
 587 002c 04       		.uleb128 0x4
 588 002d 0F       		.uleb128 0xf
 589 002e 00       		.byte	0
 590 002f 0B       		.uleb128 0xb
 591 0030 21       		.uleb128 0x21
 592 0031 04       		.sleb128 4
 593 0032 49       		.uleb128 0x49
 594 0033 13       		.uleb128 0x13
 595 0034 00       		.byte	0
 596 0035 00       		.byte	0
 597 0036 05       		.uleb128 0x5
 598 0037 05       		.uleb128 0x5
 599 0038 00       		.byte	0
 600 0039 03       		.uleb128 0x3
 601 003a 08       		.uleb128 0x8
 602 003b 3A       		.uleb128 0x3a
 603 003c 21       		.uleb128 0x21
 604 003d 01       		.sleb128 1
 605 003e 3B       		.uleb128 0x3b
 606 003f 0B       		.uleb128 0xb
 607 0040 39       		.uleb128 0x39
 608 0041 0B       		.uleb128 0xb
 609 0042 49       		.uleb128 0x49
 610 0043 13       		.uleb128 0x13
 611 0044 00       		.byte	0
 612 0045 00       		.byte	0
 613 0046 06       		.uleb128 0x6
 614 0047 1D       		.uleb128 0x1d
 615 0048 01       		.byte	0x1
 616 0049 31       		.uleb128 0x31
 617 004a 13       		.uleb128 0x13
 618 004b 52       		.uleb128 0x52
 619 004c 01       		.uleb128 0x1
 620 004d B842     		.uleb128 0x2138
 621 004f 0B       		.uleb128 0xb
 622 0050 55       		.uleb128 0x55
 623 0051 17       		.uleb128 0x17
 624 0052 58       		.uleb128 0x58
 625 0053 21       		.uleb128 0x21
 626 0054 01       		.sleb128 1
 627 0055 59       		.uleb128 0x59
ARM GAS  /tmp/ccv0R7bG.s 			page 12


 628 0056 0B       		.uleb128 0xb
 629 0057 57       		.uleb128 0x57
 630 0058 21       		.uleb128 0x21
 631 0059 03       		.sleb128 3
 632 005a 01       		.uleb128 0x1
 633 005b 13       		.uleb128 0x13
 634 005c 00       		.byte	0
 635 005d 00       		.byte	0
 636 005e 07       		.uleb128 0x7
 637 005f 05       		.uleb128 0x5
 638 0060 00       		.byte	0
 639 0061 31       		.uleb128 0x31
 640 0062 13       		.uleb128 0x13
 641 0063 02       		.uleb128 0x2
 642 0064 17       		.uleb128 0x17
 643 0065 B742     		.uleb128 0x2137
 644 0067 17       		.uleb128 0x17
 645 0068 00       		.byte	0
 646 0069 00       		.byte	0
 647 006a 08       		.uleb128 0x8
 648 006b 05       		.uleb128 0x5
 649 006c 00       		.byte	0
 650 006d 31       		.uleb128 0x31
 651 006e 13       		.uleb128 0x13
 652 006f 02       		.uleb128 0x2
 653 0070 18       		.uleb128 0x18
 654 0071 00       		.byte	0
 655 0072 00       		.byte	0
 656 0073 09       		.uleb128 0x9
 657 0074 11       		.uleb128 0x11
 658 0075 01       		.byte	0x1
 659 0076 25       		.uleb128 0x25
 660 0077 0E       		.uleb128 0xe
 661 0078 13       		.uleb128 0x13
 662 0079 0B       		.uleb128 0xb
 663 007a 03       		.uleb128 0x3
 664 007b 0E       		.uleb128 0xe
 665 007c 1B       		.uleb128 0x1b
 666 007d 0E       		.uleb128 0xe
 667 007e 55       		.uleb128 0x55
 668 007f 17       		.uleb128 0x17
 669 0080 11       		.uleb128 0x11
 670 0081 01       		.uleb128 0x1
 671 0082 10       		.uleb128 0x10
 672 0083 17       		.uleb128 0x17
 673 0084 00       		.byte	0
 674 0085 00       		.byte	0
 675 0086 0A       		.uleb128 0xa
 676 0087 24       		.uleb128 0x24
 677 0088 00       		.byte	0
 678 0089 0B       		.uleb128 0xb
 679 008a 0B       		.uleb128 0xb
 680 008b 3E       		.uleb128 0x3e
 681 008c 0B       		.uleb128 0xb
 682 008d 03       		.uleb128 0x3
 683 008e 08       		.uleb128 0x8
 684 008f 00       		.byte	0
ARM GAS  /tmp/ccv0R7bG.s 			page 13


 685 0090 00       		.byte	0
 686 0091 0B       		.uleb128 0xb
 687 0092 13       		.uleb128 0x13
 688 0093 01       		.byte	0x1
 689 0094 03       		.uleb128 0x3
 690 0095 0E       		.uleb128 0xe
 691 0096 0B       		.uleb128 0xb
 692 0097 0B       		.uleb128 0xb
 693 0098 3A       		.uleb128 0x3a
 694 0099 0B       		.uleb128 0xb
 695 009a 3B       		.uleb128 0x3b
 696 009b 0B       		.uleb128 0xb
 697 009c 39       		.uleb128 0x39
 698 009d 0B       		.uleb128 0xb
 699 009e 01       		.uleb128 0x1
 700 009f 13       		.uleb128 0x13
 701 00a0 00       		.byte	0
 702 00a1 00       		.byte	0
 703 00a2 0C       		.uleb128 0xc
 704 00a3 15       		.uleb128 0x15
 705 00a4 01       		.byte	0x1
 706 00a5 27       		.uleb128 0x27
 707 00a6 19       		.uleb128 0x19
 708 00a7 01       		.uleb128 0x1
 709 00a8 13       		.uleb128 0x13
 710 00a9 00       		.byte	0
 711 00aa 00       		.byte	0
 712 00ab 0D       		.uleb128 0xd
 713 00ac 05       		.uleb128 0x5
 714 00ad 00       		.byte	0
 715 00ae 49       		.uleb128 0x49
 716 00af 13       		.uleb128 0x13
 717 00b0 00       		.byte	0
 718 00b1 00       		.byte	0
 719 00b2 0E       		.uleb128 0xe
 720 00b3 34       		.uleb128 0x34
 721 00b4 00       		.byte	0
 722 00b5 03       		.uleb128 0x3
 723 00b6 0E       		.uleb128 0xe
 724 00b7 3A       		.uleb128 0x3a
 725 00b8 0B       		.uleb128 0xb
 726 00b9 3B       		.uleb128 0x3b
 727 00ba 0B       		.uleb128 0xb
 728 00bb 39       		.uleb128 0x39
 729 00bc 0B       		.uleb128 0xb
 730 00bd 49       		.uleb128 0x49
 731 00be 13       		.uleb128 0x13
 732 00bf 02       		.uleb128 0x2
 733 00c0 18       		.uleb128 0x18
 734 00c1 00       		.byte	0
 735 00c2 00       		.byte	0
 736 00c3 0F       		.uleb128 0xf
 737 00c4 2E       		.uleb128 0x2e
 738 00c5 01       		.byte	0x1
 739 00c6 3F       		.uleb128 0x3f
 740 00c7 19       		.uleb128 0x19
 741 00c8 03       		.uleb128 0x3
ARM GAS  /tmp/ccv0R7bG.s 			page 14


 742 00c9 0E       		.uleb128 0xe
 743 00ca 3A       		.uleb128 0x3a
 744 00cb 0B       		.uleb128 0xb
 745 00cc 3B       		.uleb128 0x3b
 746 00cd 0B       		.uleb128 0xb
 747 00ce 39       		.uleb128 0x39
 748 00cf 0B       		.uleb128 0xb
 749 00d0 27       		.uleb128 0x27
 750 00d1 19       		.uleb128 0x19
 751 00d2 20       		.uleb128 0x20
 752 00d3 0B       		.uleb128 0xb
 753 00d4 01       		.uleb128 0x1
 754 00d5 13       		.uleb128 0x13
 755 00d6 00       		.byte	0
 756 00d7 00       		.byte	0
 757 00d8 10       		.uleb128 0x10
 758 00d9 2E       		.uleb128 0x2e
 759 00da 01       		.byte	0x1
 760 00db 3F       		.uleb128 0x3f
 761 00dc 19       		.uleb128 0x19
 762 00dd 03       		.uleb128 0x3
 763 00de 0E       		.uleb128 0xe
 764 00df 3A       		.uleb128 0x3a
 765 00e0 0B       		.uleb128 0xb
 766 00e1 3B       		.uleb128 0x3b
 767 00e2 0B       		.uleb128 0xb
 768 00e3 39       		.uleb128 0x39
 769 00e4 0B       		.uleb128 0xb
 770 00e5 27       		.uleb128 0x27
 771 00e6 19       		.uleb128 0x19
 772 00e7 11       		.uleb128 0x11
 773 00e8 01       		.uleb128 0x1
 774 00e9 12       		.uleb128 0x12
 775 00ea 06       		.uleb128 0x6
 776 00eb 40       		.uleb128 0x40
 777 00ec 18       		.uleb128 0x18
 778 00ed 7A       		.uleb128 0x7a
 779 00ee 19       		.uleb128 0x19
 780 00ef 01       		.uleb128 0x1
 781 00f0 13       		.uleb128 0x13
 782 00f1 00       		.byte	0
 783 00f2 00       		.byte	0
 784 00f3 11       		.uleb128 0x11
 785 00f4 34       		.uleb128 0x34
 786 00f5 00       		.byte	0
 787 00f6 03       		.uleb128 0x3
 788 00f7 08       		.uleb128 0x8
 789 00f8 3A       		.uleb128 0x3a
 790 00f9 0B       		.uleb128 0xb
 791 00fa 3B       		.uleb128 0x3b
 792 00fb 0B       		.uleb128 0xb
 793 00fc 39       		.uleb128 0x39
 794 00fd 0B       		.uleb128 0xb
 795 00fe 49       		.uleb128 0x49
 796 00ff 13       		.uleb128 0x13
 797 0100 02       		.uleb128 0x2
 798 0101 18       		.uleb128 0x18
ARM GAS  /tmp/ccv0R7bG.s 			page 15


 799 0102 00       		.byte	0
 800 0103 00       		.byte	0
 801 0104 12       		.uleb128 0x12
 802 0105 48       		.uleb128 0x48
 803 0106 01       		.byte	0x1
 804 0107 7D       		.uleb128 0x7d
 805 0108 01       		.uleb128 0x1
 806 0109 7F       		.uleb128 0x7f
 807 010a 13       		.uleb128 0x13
 808 010b 00       		.byte	0
 809 010c 00       		.byte	0
 810 010d 13       		.uleb128 0x13
 811 010e 49       		.uleb128 0x49
 812 010f 00       		.byte	0
 813 0110 02       		.uleb128 0x2
 814 0111 18       		.uleb128 0x18
 815 0112 7E       		.uleb128 0x7e
 816 0113 18       		.uleb128 0x18
 817 0114 00       		.byte	0
 818 0115 00       		.byte	0
 819 0116 14       		.uleb128 0x14
 820 0117 2E       		.uleb128 0x2e
 821 0118 01       		.byte	0x1
 822 0119 03       		.uleb128 0x3
 823 011a 0E       		.uleb128 0xe
 824 011b 3A       		.uleb128 0x3a
 825 011c 0B       		.uleb128 0xb
 826 011d 3B       		.uleb128 0x3b
 827 011e 0B       		.uleb128 0xb
 828 011f 39       		.uleb128 0x39
 829 0120 0B       		.uleb128 0xb
 830 0121 27       		.uleb128 0x27
 831 0122 19       		.uleb128 0x19
 832 0123 11       		.uleb128 0x11
 833 0124 01       		.uleb128 0x1
 834 0125 12       		.uleb128 0x12
 835 0126 06       		.uleb128 0x6
 836 0127 40       		.uleb128 0x40
 837 0128 18       		.uleb128 0x18
 838 0129 7A       		.uleb128 0x7a
 839 012a 19       		.uleb128 0x19
 840 012b 01       		.uleb128 0x1
 841 012c 13       		.uleb128 0x13
 842 012d 00       		.byte	0
 843 012e 00       		.byte	0
 844 012f 15       		.uleb128 0x15
 845 0130 05       		.uleb128 0x5
 846 0131 00       		.byte	0
 847 0132 03       		.uleb128 0x3
 848 0133 08       		.uleb128 0x8
 849 0134 3A       		.uleb128 0x3a
 850 0135 0B       		.uleb128 0xb
 851 0136 3B       		.uleb128 0x3b
 852 0137 0B       		.uleb128 0xb
 853 0138 39       		.uleb128 0x39
 854 0139 0B       		.uleb128 0xb
 855 013a 49       		.uleb128 0x49
ARM GAS  /tmp/ccv0R7bG.s 			page 16


 856 013b 13       		.uleb128 0x13
 857 013c 02       		.uleb128 0x2
 858 013d 18       		.uleb128 0x18
 859 013e 00       		.byte	0
 860 013f 00       		.byte	0
 861 0140 16       		.uleb128 0x16
 862 0141 34       		.uleb128 0x34
 863 0142 00       		.byte	0
 864 0143 03       		.uleb128 0x3
 865 0144 08       		.uleb128 0x8
 866 0145 3A       		.uleb128 0x3a
 867 0146 0B       		.uleb128 0xb
 868 0147 3B       		.uleb128 0x3b
 869 0148 0B       		.uleb128 0xb
 870 0149 39       		.uleb128 0x39
 871 014a 0B       		.uleb128 0xb
 872 014b 49       		.uleb128 0x49
 873 014c 13       		.uleb128 0x13
 874 014d 02       		.uleb128 0x2
 875 014e 17       		.uleb128 0x17
 876 014f B742     		.uleb128 0x2137
 877 0151 17       		.uleb128 0x17
 878 0152 00       		.byte	0
 879 0153 00       		.byte	0
 880 0154 17       		.uleb128 0x17
 881 0155 2E       		.uleb128 0x2e
 882 0156 01       		.byte	0x1
 883 0157 03       		.uleb128 0x3
 884 0158 0E       		.uleb128 0xe
 885 0159 3A       		.uleb128 0x3a
 886 015a 0B       		.uleb128 0xb
 887 015b 3B       		.uleb128 0x3b
 888 015c 0B       		.uleb128 0xb
 889 015d 39       		.uleb128 0x39
 890 015e 0B       		.uleb128 0xb
 891 015f 27       		.uleb128 0x27
 892 0160 19       		.uleb128 0x19
 893 0161 20       		.uleb128 0x20
 894 0162 0B       		.uleb128 0xb
 895 0163 01       		.uleb128 0x1
 896 0164 13       		.uleb128 0x13
 897 0165 00       		.byte	0
 898 0166 00       		.byte	0
 899 0167 18       		.uleb128 0x18
 900 0168 2E       		.uleb128 0x2e
 901 0169 01       		.byte	0x1
 902 016a 31       		.uleb128 0x31
 903 016b 13       		.uleb128 0x13
 904 016c 11       		.uleb128 0x11
 905 016d 01       		.uleb128 0x1
 906 016e 12       		.uleb128 0x12
 907 016f 06       		.uleb128 0x6
 908 0170 40       		.uleb128 0x40
 909 0171 18       		.uleb128 0x18
 910 0172 7A       		.uleb128 0x7a
 911 0173 19       		.uleb128 0x19
 912 0174 01       		.uleb128 0x1
ARM GAS  /tmp/ccv0R7bG.s 			page 17


 913 0175 13       		.uleb128 0x13
 914 0176 00       		.byte	0
 915 0177 00       		.byte	0
 916 0178 19       		.uleb128 0x19
 917 0179 2E       		.uleb128 0x2e
 918 017a 01       		.byte	0x1
 919 017b 31       		.uleb128 0x31
 920 017c 13       		.uleb128 0x13
 921 017d 11       		.uleb128 0x11
 922 017e 01       		.uleb128 0x1
 923 017f 12       		.uleb128 0x12
 924 0180 06       		.uleb128 0x6
 925 0181 40       		.uleb128 0x40
 926 0182 18       		.uleb128 0x18
 927 0183 7A       		.uleb128 0x7a
 928 0184 19       		.uleb128 0x19
 929 0185 00       		.byte	0
 930 0186 00       		.byte	0
 931 0187 00       		.byte	0
 932              		.section	.debug_loclists,"",%progbits
 933 0000 2D000000 		.4byte	.Ldebug_loc3-.Ldebug_loc2
 934              	.Ldebug_loc2:
 935 0004 0500     		.2byte	0x5
 936 0006 04       		.byte	0x4
 937 0007 00       		.byte	0
 938 0008 00000000 		.4byte	0
 939              	.Ldebug_loc0:
 940              	.LVUS2:
 941 000c 01       		.uleb128 .LVU37
 942 000d 00       		.uleb128 .LVU45
 943              	.LLST2:
 944 000e 08       		.byte	0x8
 945 000f 20000000 		.4byte	.LVL4
 946 0013 08       		.uleb128 .LVL5-.LVL4
 947 0014 03       		.uleb128 0x3
 948 0015 91       		.byte	0x91
 949 0016 5C       		.sleb128 -36
 950 0017 9F       		.byte	0x9f
 951 0018 00       		.byte	0
 952              	.LVUS4:
 953 0019 02       		.uleb128 .LVU47
 954 001a 00       		.uleb128 .LVU52
 955              	.LLST4:
 956 001b 08       		.byte	0x8
 957 001c 28000000 		.4byte	.LVL5
 958 0020 0C       		.uleb128 .LVL6-.LVL5
 959 0021 03       		.uleb128 0x3
 960 0022 91       		.byte	0x91
 961 0023 5C       		.sleb128 -36
 962 0024 9F       		.byte	0x9f
 963 0025 00       		.byte	0
 964              	.LVUS0:
 965 0026 00       		.uleb128 .LVU10
 966 0027 00       		.uleb128 .LVU12
 967              	.LLST0:
 968 0028 08       		.byte	0x8
 969 0029 0C000000 		.4byte	.LVL2
ARM GAS  /tmp/ccv0R7bG.s 			page 18


 970 002d 0C       		.uleb128 .LVL3-.LVL2
 971 002e 01       		.uleb128 0x1
 972 002f 53       		.byte	0x53
 973 0030 00       		.byte	0
 974              	.Ldebug_loc3:
 975              		.section	.debug_aranges,"",%progbits
 976 0000 34000000 		.4byte	0x34
 977 0004 0200     		.2byte	0x2
 978 0006 00000000 		.4byte	.Ldebug_info0
 979 000a 04       		.byte	0x4
 980 000b 00       		.byte	0
 981 000c 0000     		.2byte	0
 982 000e 0000     		.2byte	0
 983 0010 00000000 		.4byte	.LFB7
 984 0014 14000000 		.4byte	.LFE7-.LFB7
 985 0018 00000000 		.4byte	.LFB8
 986 001c 4C000000 		.4byte	.LFE8-.LFB8
 987 0020 00000000 		.4byte	.LFB9
 988 0024 50000000 		.4byte	.LFE9-.LFB9
 989 0028 00000000 		.4byte	.LFB10
 990 002c 2C000000 		.4byte	.LFE10-.LFB10
 991 0030 00000000 		.4byte	0
 992 0034 00000000 		.4byte	0
 993              		.section	.debug_rnglists,"",%progbits
 994              	.Ldebug_ranges0:
 995 0000 3F000000 		.4byte	.Ldebug_ranges3-.Ldebug_ranges2
 996              	.Ldebug_ranges2:
 997 0004 0500     		.2byte	0x5
 998 0006 04       		.byte	0x4
 999 0007 00       		.byte	0
 1000 0008 00000000 		.4byte	0
 1001              	.LLRL1:
 1002 000c 05       		.byte	0x5
 1003 000d 04000000 		.4byte	.LBB8
 1004 0011 04       		.byte	0x4
 1005 0012 00       		.uleb128 .LBB8-.LBB8
 1006 0013 04       		.uleb128 .LBE8-.LBB8
 1007 0014 04       		.byte	0x4
 1008 0015 14       		.uleb128 .LBB16-.LBB8
 1009 0016 18       		.uleb128 .LBE16-.LBB8
 1010 0017 04       		.byte	0x4
 1011 0018 1C       		.uleb128 .LBB17-.LBB8
 1012 0019 24       		.uleb128 .LBE17-.LBB8
 1013 001a 00       		.byte	0
 1014              	.LLRL3:
 1015 001b 05       		.byte	0x5
 1016 001c 14000000 		.4byte	.LBB12
 1017 0020 04       		.byte	0x4
 1018 0021 00       		.uleb128 .LBB12-.LBB12
 1019 0022 04       		.uleb128 .LBE12-.LBB12
 1020 0023 04       		.byte	0x4
 1021 0024 14       		.uleb128 .LBB18-.LBB12
 1022 0025 18       		.uleb128 .LBE18-.LBB12
 1023 0026 04       		.byte	0x4
 1024 0027 1C       		.uleb128 .LBB19-.LBB12
 1025 0028 20       		.uleb128 .LBE19-.LBB12
 1026 0029 00       		.byte	0
ARM GAS  /tmp/ccv0R7bG.s 			page 19


 1027              	.LLRL5:
 1028 002a 07       		.byte	0x7
 1029 002b 00000000 		.4byte	.LFB7
 1030 002f 14       		.uleb128 .LFE7-.LFB7
 1031 0030 07       		.byte	0x7
 1032 0031 00000000 		.4byte	.LFB8
 1033 0035 4C       		.uleb128 .LFE8-.LFB8
 1034 0036 07       		.byte	0x7
 1035 0037 00000000 		.4byte	.LFB9
 1036 003b 50       		.uleb128 .LFE9-.LFB9
 1037 003c 07       		.byte	0x7
 1038 003d 00000000 		.4byte	.LFB10
 1039 0041 2C       		.uleb128 .LFE10-.LFB10
 1040 0042 00       		.byte	0
 1041              	.Ldebug_ranges3:
 1042              		.section	.debug_line,"",%progbits
 1043              	.Ldebug_line0:
 1044 0000 0C020000 		.section	.debug_str,"MS",%progbits,1
 1044      0300D800 
 1044      00000201 
 1044      FB0E0D00 
 1044      01010101 
 1045              	.LASF25:
 1046 0000 746D5F73 		.ascii	"tm_stop\000"
 1046      746F7000 
 1047              	.LASF14:
 1048 0008 73746172 		.ascii	"start\000"
 1048      7400
 1049              	.LASF2:
 1050 000e 756E7369 		.ascii	"unsigned char\000"
 1050      676E6564 
 1050      20636861 
 1050      7200
 1051              	.LASF24:
 1052 001c 746D496E 		.ascii	"tmInit\000"
 1052      697400
 1053              	.LASF6:
 1054 0023 6C6F6E67 		.ascii	"long unsigned int\000"
 1054      20756E73 
 1054      69676E65 
 1054      6420696E 
 1054      7400
 1055              	.LASF23:
 1056 0035 746D4F62 		.ascii	"tmObjectInit\000"
 1056      6A656374 
 1056      496E6974 
 1056      00
 1057              	.LASF4:
 1058 0042 73686F72 		.ascii	"short unsigned int\000"
 1058      7420756E 
 1058      7369676E 
 1058      65642069 
 1058      6E7400
 1059              	.LASF15:
 1060 0055 73746F70 		.ascii	"stop\000"
 1060      00
 1061              	.LASF17:
ARM GAS  /tmp/ccv0R7bG.s 			page 20


 1062 005a 776F7273 		.ascii	"worst\000"
 1062      7400
 1063              	.LASF9:
 1064 0060 5F5F7569 		.ascii	"__uint32_t\000"
 1064      6E743332 
 1064      5F7400
 1065              	.LASF22:
 1066 006b 2F686F6D 		.ascii	"/home/sergi/uni/seu/ChibiOS-RPi/demos/led\000"
 1066      652F7365 
 1066      7267692F 
 1066      756E692F 
 1066      7365752F 
 1067              	.LASF0:
 1068 0095 756E7369 		.ascii	"unsigned int\000"
 1068      676E6564 
 1068      20696E74 
 1068      00
 1069              	.LASF12:
 1070 00a2 68616C72 		.ascii	"halrtcnt_t\000"
 1070      74636E74 
 1070      5F7400
 1071              	.LASF8:
 1072 00ad 6C6F6E67 		.ascii	"long long unsigned int\000"
 1072      206C6F6E 
 1072      6720756E 
 1072      7369676E 
 1072      65642069 
 1073              	.LASF20:
 1074 00c4 474E5520 		.ascii	"GNU C17 11.2.0 -mcpu=arm1176jz-s -mno-thumb-interwo"
 1074      43313720 
 1074      31312E32 
 1074      2E30202D 
 1074      6D637075 
 1075 00f7 726B202D 		.ascii	"rk -mfloat-abi=soft -marm -march=armv6kz -ggdb -O2 "
 1075      6D666C6F 
 1075      61742D61 
 1075      62693D73 
 1075      6F667420 
 1076 012a 2D666F6D 		.ascii	"-fomit-frame-pointer -ffunction-sections -fdata-sec"
 1076      69742D66 
 1076      72616D65 
 1076      2D706F69 
 1076      6E746572 
 1077 015d 74696F6E 		.ascii	"tions\000"
 1077      7300
 1078              	.LASF26:
 1079 0163 746D5F73 		.ascii	"tm_start\000"
 1079      74617274 
 1079      00
 1080              	.LASF7:
 1081 016c 6C6F6E67 		.ascii	"long long int\000"
 1081      206C6F6E 
 1081      6720696E 
 1081      7400
 1082              	.LASF11:
 1083 017a 63686172 		.ascii	"char\000"
 1083      00
ARM GAS  /tmp/ccv0R7bG.s 			page 21


 1084              	.LASF19:
 1085 017f 6D656173 		.ascii	"measurement_offset\000"
 1085      7572656D 
 1085      656E745F 
 1085      6F666673 
 1085      657400
 1086              	.LASF3:
 1087 0192 73686F72 		.ascii	"short int\000"
 1087      7420696E 
 1087      7400
 1088              	.LASF21:
 1089 019c 2E2E2F2E 		.ascii	"../../os/hal/src/tm.c\000"
 1089      2E2F6F73 
 1089      2F68616C 
 1089      2F737263 
 1089      2F746D2E 
 1090              	.LASF18:
 1091 01b2 62657374 		.ascii	"best\000"
 1091      00
 1092              	.LASF10:
 1093 01b7 75696E74 		.ascii	"uint32_t\000"
 1093      33325F74 
 1093      00
 1094              	.LASF5:
 1095 01c0 6C6F6E67 		.ascii	"long int\000"
 1095      20696E74 
 1095      00
 1096              	.LASF1:
 1097 01c9 7369676E 		.ascii	"signed char\000"
 1097      65642063 
 1097      68617200 
 1098              	.LASF13:
 1099 01d5 54696D65 		.ascii	"TimeMeasurement\000"
 1099      4D656173 
 1099      7572656D 
 1099      656E7400 
 1100              	.LASF16:
 1101 01e5 6C617374 		.ascii	"last\000"
 1101      00
 1102              		.ident	"GCC: (Arch Repository) 11.2.0"
ARM GAS  /tmp/ccv0R7bG.s 			page 22


DEFINED SYMBOLS
                            *ABS*:0000000000000000 tm.c
     /tmp/ccv0R7bG.s:16     .text.tm_start:0000000000000000 $a
     /tmp/ccv0R7bG.s:22     .text.tm_start:0000000000000000 tm_start
     /tmp/ccv0R7bG.s:42     .text.tm_start:0000000000000010 $d
     /tmp/ccv0R7bG.s:47     .text.tm_stop:0000000000000000 $a
     /tmp/ccv0R7bG.s:52     .text.tm_stop:0000000000000000 tm_stop
     /tmp/ccv0R7bG.s:102    .text.tm_stop:0000000000000044 $d
     /tmp/ccv0R7bG.s:108    .text.tmInit:0000000000000000 $a
     /tmp/ccv0R7bG.s:114    .text.tmInit:0000000000000000 tmInit
     /tmp/ccv0R7bG.s:208    .text.tmInit:0000000000000048 $d
     /tmp/ccv0R7bG.s:214    .text.tmObjectInit:0000000000000000 $a
     /tmp/ccv0R7bG.s:220    .text.tmObjectInit:0000000000000000 tmObjectInit
     /tmp/ccv0R7bG.s:253    .text.tmObjectInit:0000000000000024 $d
     /tmp/ccv0R7bG.s:259    .bss.measurement_offset:0000000000000000 $d
     /tmp/ccv0R7bG.s:263    .bss.measurement_offset:0000000000000000 measurement_offset

NO UNDEFINED SYMBOLS
