
build/ch.elf:     file format elf32-littlearm
build/ch.elf
architecture: armv6kz, flags 0x00000112:
EXEC_P, HAS_SYMS, D_PAGED
start address 0x00008000

Program Header:
    LOAD off    0x00000000 vaddr 0x00000000 paddr 0x00000000 align 2**16
         filesz 0x0000b2ab memsz 0x0000b604 flags rwx
private flags = 0x5000200: [Version5 EABI] [soft-float ABI]

Sections:
Idx Name          Size      VMA       LMA       File off  Algn
  0 .text         000032ab  00008000  00008000  00008000  2**4
                  CONTENTS, ALLOC, LOAD, READONLY, CODE
  1 .data         00000001  0000b2ab  0000b2ab  0000b2ab  2**0
                  ALLOC
  2 .bss          00000358  0000b2ac  0000b2ac  0000b2ab  2**2
                  ALLOC
  3 .ARM.attributes 0000002b  00000000  00000000  0000b2ab  2**0
                  CONTENTS, READONLY
  4 .comment      0000001e  00000000  00000000  0000b2d6  2**0
                  CONTENTS, READONLY
  5 .debug_info   0000cb8e  00000000  00000000  0000b2f4  2**0
                  CONTENTS, READONLY, DEBUGGING, OCTETS
  6 .debug_abbrev 00003a03  00000000  00000000  00017e82  2**0
                  CONTENTS, READONLY, DEBUGGING, OCTETS
  7 .debug_loclists 00003451  00000000  00000000  0001b885  2**0
                  CONTENTS, READONLY, DEBUGGING, OCTETS
  8 .debug_aranges 00000890  00000000  00000000  0001ecd8  2**3
                  CONTENTS, READONLY, DEBUGGING, OCTETS
  9 .debug_rnglists 000009d5  00000000  00000000  0001f568  2**0
                  CONTENTS, READONLY, DEBUGGING, OCTETS
 10 .debug_line   000071c4  00000000  00000000  0001ff3d  2**0
                  CONTENTS, READONLY, DEBUGGING, OCTETS
 11 .debug_str    0000184d  00000000  00000000  00027101  2**0
                  CONTENTS, READONLY, DEBUGGING, OCTETS
 12 .debug_frame  00001300  00000000  00000000  00028950  2**2
                  CONTENTS, READONLY, DEBUGGING, OCTETS
 13 .debug_line_str 00000060  00000000  00000000  00029c50  2**0
                  CONTENTS, READONLY, DEBUGGING, OCTETS
SYMBOL TABLE:
00008000 l    d  .text	00000000 .text
0000b2ab l    d  .data	00000000 .data
0000b2ac l    d  .bss	00000000 .bss
00000000 l    d  .ARM.attributes	00000000 .ARM.attributes
00000000 l    d  .comment	00000000 .comment
00000000 l    d  .debug_info	00000000 .debug_info
00000000 l    d  .debug_abbrev	00000000 .debug_abbrev
00000000 l    d  .debug_loclists	00000000 .debug_loclists
00000000 l    d  .debug_aranges	00000000 .debug_aranges
00000000 l    d  .debug_rnglists	00000000 .debug_rnglists
00000000 l    d  .debug_line	00000000 .debug_line
00000000 l    d  .debug_str	00000000 .debug_str
00000000 l    d  .debug_frame	00000000 .debug_frame
00000000 l    d  .debug_line_str	00000000 .debug_line_str
00000000 l    df *ABS*	00000000 vectors.o
00008000 l       .text	00000000 _start
00008020 l       .text	00000000 _reset
00008024 l       .text	00000000 _undefined
00008028 l       .text	00000000 _swi
0000802c l       .text	00000000 _prefetch
00008030 l       .text	00000000 _abort
00008038 l       .text	00000000 _irq
0000803c l       .text	00000000 _fiq
00000000 l    df *ABS*	00000000 crt0.o
00000010 l       *ABS*	00000000 MODE_USR
00000011 l       *ABS*	00000000 MODE_FIQ
00000012 l       *ABS*	00000000 MODE_IRQ
00000013 l       *ABS*	00000000 MODE_SVC
00000017 l       *ABS*	00000000 MODE_ABT
0000001b l       *ABS*	00000000 MODE_UND
0000001f l       *ABS*	00000000 MODE_SYS
00000080 l       *ABS*	00000000 I_BIT
00000040 l       *ABS*	00000000 F_BIT
000080ac l       .text	00000000 bssloop
000080c0 l       .text	00000000 .loop
000080c4 l       .text	00000000 hwinit0
00000000 l    df *ABS*	00000000 chcoreasm.o
00000010 l       *ABS*	00000000 MODE_USR
00000011 l       *ABS*	00000000 MODE_FIQ
00000012 l       *ABS*	00000000 MODE_IRQ
00000013 l       *ABS*	00000000 MODE_SVC
00000017 l       *ABS*	00000000 MODE_ABT
0000001b l       *ABS*	00000000 MODE_UND
0000001f l       *ABS*	00000000 MODE_SYS
00000080 l       *ABS*	00000000 I_BIT
00000040 l       *ABS*	00000000 F_BIT
00000000 l    df *ABS*	00000000 _arm_muldf3.o
00000000 l    df *ABS*	00000000 _udivsi3.o
00008450 l       .text	00000000 .udivsi3_skip_div0_test
00000000 l    df *ABS*	00000000 _dvmd_tls.o
00000000 l    df *ABS*	00000000 _arm_addsubdf3.o
00000000 l    df *ABS*	00000000 _arm_fixdfsi.o
00000000 l    df *ABS*	00000000 _arm_truncdfsf2.o
00000000 l    df *ABS*	00000000 _arm_cmpsf2.o
00000000 l    df *ABS*	00000000 _arm_fixsfsi.o
00000000 l    df *ABS*	00000000 chsys.c
0000b348 l     O .bss	00000044 mainthread.0
00000000 l    df *ABS*	00000000 chvt.c
00000000 l    df *ABS*	00000000 chschd.c
00008e40 l     F .text	000000b0 wakeup
00000000 l    df *ABS*	00000000 chthreads.c
00000000 l    df *ABS*	00000000 chdynamic.c
00000000 l    df *ABS*	00000000 chmtx.c
00000000 l    df *ABS*	00000000 chevents.c
00000000 l    df *ABS*	00000000 chqueues.c
00000000 l    df *ABS*	00000000 chmemcore.c
0000b3b8 l     O .bss	00000004 endmem
0000b3bc l     O .bss	00000004 nextmem
00000000 l    df *ABS*	00000000 chheap.c
0000b3c0 l     O .bss	0000001c default_heap
00000000 l    df *ABS*	00000000 hal.c
00000000 l    df *ABS*	00000000 i2c.c
00000000 l    df *ABS*	00000000 serial.c
00009e20 l     F .text	00000008 readt
00009e30 l     F .text	0000000c read
00009e40 l     F .text	00000008 writet
00009e50 l     F .text	0000000c write
00009e60 l     F .text	00000008 gett
00009e70 l     F .text	0000000c get
00009e80 l     F .text	00000008 putt
00009e90 l     F .text	0000000c put
0000b250 l     O .text	00000020 vmt
00000000 l    df *ABS*	00000000 spi.c
00000000 l    df *ABS*	00000000 tm.c
0000a000 l     F .text	0000004c tm_stop
0000b3dc l     O .bss	00000004 measurement_offset
00000000 l    df *ABS*	00000000 hal_lld.c
00000000 l    df *ABS*	00000000 pal_lld.c
00000000 l    df *ABS*	00000000 serial_lld.c
0000a400 l     F .text	00000018 output_notify
0000b270 l     O .text	00000004 default_config
00000000 l    df *ABS*	00000000 i2c_lld.c
00000000 l    df *ABS*	00000000 spi_lld.c
00000000 l    df *ABS*	00000000 bcm2835.c
00000000 l    df *ABS*	00000000 board.c
00000000 l    df *ABS*	00000000 chprintf.c
00000000 l    df *ABS*	00000000 main.c
0000b120 l     F .text	00000074 Thread_LED1
0000b4ec l     O .bss	00000118 waThread_LED1
00000000 l    df *ABS*	00000000 chregistry.c
0000b280 g     O .text	00000000 pal_default_config
00008cd0 g     F .text	00000090 chSysTimerHandlerI
00009410 g     F .text	00000008 chThdExit
00009720 g     F .text	00000088 chEvtBroadcastFlagsI
00008fb0 g     F .text	000000c4 chSchGoSleepTimeoutS
00009df0 g     F .text	00000004 i2cInit
000094e0 g     F .text	0000017c chMtxLockS
00008944 g     F .text	00000060 .hidden __floatdidf
00009d10 g     F .text	000000a8 chHeapFree
0000a720 g     F .text	00000174 spi_lld_serve_interrupt
0000a3e0 g     F .text	0000001c _pal_lld_writeport
000081b0 g       .text	00000000 get_cpsr
0000b2ab g       .text	00000000 __exidx_end
00008bd0 g     F .text	0000005c .hidden __fixsfsi
00008f60 g     F .text	00000044 chSchGoSleepS
00008180  w      .text	00000000 UndHandler
0000b604 g       *ABS*	00000000 __heap_base__
0000b484 g     O .bss	00000040 I2C0
0000b2ac g       .data	00000000 _etext
0000b3f8 g     O .bss	00000018 IOPORT1
0000049c g       *ABS*	00000000 __stacks_total_size__
00009080 g     F .text	000000a0 chSchWakeupS
00009f40 g     F .text	0000004c sdIncomingDataI
00009af0 g     F .text	00000078 chOQGetI
00008ef0 g     F .text	00000024 _scheduler_init
000092e0 g     F .text	000000a4 chThdCreateStatic
00008bac g     F .text	00000018 .hidden __aeabi_fcmpgt
000088c0 g     F .text	00000028 .hidden __floatsidf
00008f20 g     F .text	00000040 chSchReadyI
00008d60 g     F .text	00000024 _vt_init
00008450 g     F .text	000000f4 .hidden __udivsi3
00009ce0 g     F .text	00000024 _heap_init
00009dc0 g     F .text	0000002c halInit
00008ab8 g     F .text	0000006c .hidden __lesf2
0000b2ac g       .bss	00000000 _bss_start
06007b44 g       *ABS*	00000000 __heap_end__
0000889c g     F .text	00000024 .hidden __aeabi_ui2d
0000b3e0 g     O .bss	00000018 IOPORT0
00008580 g     F .text	00000000 .hidden __aeabi_drsub
00000004 g       *ABS*	00000000 __abt_stack_size__
00008040 g       .text	00000000 ResetHandler
00009930 g     F .text	000000d0 chIQReadTimeout
0000a0e0 g     F .text	00000050 hal_lld_init
000088e8 g     F .text	00000048 .hidden __extendsfdf2
0000858c g     F .text	00000310 .hidden __adddf3
00008ac0 g     F .text	00000064 .hidden __nesf2
0000a8a0 g     F .text	0000000c spi_lld_init
0000b2ab g       .text	00000000 __exidx_start
000081c0  w    F .text	00000290 .hidden __aeabi_dmul
0000a8b0 g     F .text	00000048 bcm2835_gpio_fnsel
000093b0 g     F .text	00000060 chThdExitS
0000889c g     F .text	00000024 .hidden __floatunsidf
0000b4c4 g     O .bss	00000028 SPI0
00008a10 g     F .text	000000a0 .hidden __aeabi_d2f
00008d90 g     F .text	00000064 chVTSetI
0000b604 g       .bss	00000000 _bss_end
0000a210 g     F .text	000001c8 _pal_lld_setgroupmode
00008b94 g     F .text	00000018 .hidden __aeabi_fcmpge
000089b0 g     F .text	0000005c .hidden __fixdfsi
0000a4d0 g     F .text	00000018 sd_lld_init
00008ab0 g     F .text	00000074 .hidden __gtsf2
0000858c g     F .text	00000310 .hidden __aeabi_dadd
00009660 g     F .text	00000014 chMtxLock
00008b7c g     F .text	00000018 .hidden __aeabi_fcmple
00008930 g     F .text	00000074 .hidden __aeabi_ul2d
000091e0 g     F .text	00000084 chSchDoReschedule
00008c50 g     F .text	00000078 chSysInit
00009390 g     F .text	0000001c chThdSleep
000097b0 g     F .text	00000038 chIQInit
00009f90 g     F .text	00000034 sdRequestDataI
00009fe0 g     F .text	0000001c spiObjectInit
0000a130 g     F .text	000000d8 _pal_lld_init
00009ea0 g     F .text	00000004 sdInit
00008588 g     F .text	00000314 .hidden __aeabi_dsub
00009c50 g     F .text	00000034 _core_init
00008930 g     F .text	00000074 .hidden __floatundidf
00009f20 g     F .text	00000020 sdStart
00000080 g       *ABS*	00000000 __irq_stack_size__
000080f0 g       .text	00000000 _port_switch_arm
00000400 g       *ABS*	00000000 __sys_stack_size__
05ffffe0 g       *ABS*	00000000 __ram_size__
00008bd0 g     F .text	0000005c .hidden __aeabi_f2iz
00008ac0 g     F .text	00000064 .hidden __eqsf2
000081a0 g       .text	00000000 arm_enable_irq
0000b38c g     O .bss	00000010 vtlist
00009c90 g     F .text	00000044 chCoreAlloc
000088c0 g     F .text	00000028 .hidden __aeabi_i2d
0000a5c0 g     F .text	0000013c i2c_lld_serve_interrupt
00008570  w    F .text	00000004 .hidden __aeabi_ldiv0
000081c0  w    F .text	00000290 .hidden __muldf3
0000b2ac g       *ABS*	00000000 _textdata
00008000 g       .text	00000000 _text
00008180  w      .text	00000000 PrefetchHandler
00008ac0 g     F .text	00000064 .hidden __cmpsf2
0000b1a0 g     F .text	00000074 main
0000b39c g     O .bss	0000001c rlist
00008ab8 g     F .text	0000006c .hidden __ltsf2
00009fd0 g     F .text	00000004 spiInit
00008450 g     F .text	00000000 .hidden __aeabi_uidiv
00008a10 g     F .text	000000a0 .hidden __truncdfsf2
00008944 g     F .text	00000060 .hidden __aeabi_l2d
000094c0 g     F .text	00000014 chMtxInit
00008c30 g     F .text	00000020 _idle_thread
00009b70 g     F .text	000000dc chOQWriteTimeout
00008b34 g     F .text	00000018 .hidden __aeabi_cfcmple
0000b230 g     O .text	00000016 ch_debug
0000a950 g     F .text	000007d0 chprintf
00008000 g       .text	00000000 __ram_start__
00008160 g       .text	00000000 _port_thread_start
0000a900 g     F .text	0000003c bcm2835_delay
00009170 g     F .text	00000070 chSchDoRescheduleAhead
0000a700 g     F .text	00000018 i2c_lld_init
00008ab0 g     F .text	00000074 .hidden __gesf2
00008b4c g     F .text	00000018 .hidden __aeabi_fcmpeq
00009e00 g     F .text	00000018 i2cObjectInit
00009470 g     F .text	00000050 chThdRelease
00008b24 g     F .text	00000028 .hidden __aeabi_cfrcmple
0000b2ac g     O .bss	0000009c _idle_thread_wa
00009a00 g     F .text	00000030 chOQInit
00009880 g     F .text	000000ac chIQGetTimeout
0000b2ab g       .data	00000000 _data
00008100 g       .text	00000000 _port_irq_common
00008180  w      .text	00000000 AbortHandler
000097f0 g     F .text	0000008c chIQPutI
0000a050 g     F .text	00000050 tmInit
00008b64 g     F .text	00000018 .hidden __aeabi_fcmplt
00009680 g     F .text	0000009c chMtxUnlock
00008544 g     F .text	00000020 .hidden __aeabi_uidivmod
0000b2ac g       .data	00000000 _edata
06007fe0 g       *ABS*	00000000 __ram_end__
0000b604 g       .bss	00000000 _end
00008e00 g     F .text	0000003c chVTResetI
00008180 g       .text	00000000 _unhandled_exception
00009eb0 g     F .text	00000064 sdObjectInit
06007b44 g       *ABS*	00000000 __main_thread_stack_base__
0000a420 g     F .text	000000a8 sd_lld_serve_interrupt
0000a0a0 g     F .text	00000040 IrqHandler
000089b0 g     F .text	0000005c .hidden __aeabi_d2iz
00008b34 g     F .text	00000018 .hidden __aeabi_cfcmpeq
00008180  w      .text	00000000 SwiHandler
00008570  w    F .text	00000004 .hidden __aeabi_idiv0
00009420 g     F .text	00000050 chThdWait
00009120 g     F .text	00000044 chSchIsPreemptionRequired
0000b410 g     O .bss	00000074 SD1
00000010 g       *ABS*	00000000 __fiq_stack_size__
00009270 g     F .text	0000006c _thread_init
00000004 g       *ABS*	00000000 __svc_stack_size__
00000004 g       *ABS*	00000000 __und_stack_size__
00009a30 g     F .text	000000b8 chOQPutTimeout
000088e8 g     F .text	00000048 .hidden __aeabi_f2d
0000a940 g     F .text	00000004 boardInit
0000a4f0 g     F .text	000000c8 sd_lld_start
000080c0  w      .text	00000000 _main_exit_handler
00008588 g     F .text	00000314 .hidden __subdf3
00008184 g       .text	00000000 __early_init
00008180  w      .text	00000000 FiqHandler



Disassembly of section .text:

00008000 <__ram_start__>:
    8000:	e59ff018 	ldr	pc, [pc, #24]	; 8020 <_reset>
    8004:	e59ff018 	ldr	pc, [pc, #24]	; 8024 <_undefined>
    8008:	e59ff018 	ldr	pc, [pc, #24]	; 8028 <_swi>
    800c:	e59ff018 	ldr	pc, [pc, #24]	; 802c <_prefetch>
    8010:	e59ff018 	ldr	pc, [pc, #24]	; 8030 <_abort>
    8014:	e320f000 	nop	{0}
    8018:	e59ff018 	ldr	pc, [pc, #24]	; 8038 <_irq>
    801c:	e59ff018 	ldr	pc, [pc, #24]	; 803c <_fiq>

00008020 <_reset>:
    8020:	00008040 	andeq	r8, r0, r0, asr #32

00008024 <_undefined>:
    8024:	00008180 	andeq	r8, r0, r0, lsl #3

00008028 <_swi>:
    8028:	00008180 	andeq	r8, r0, r0, lsl #3

0000802c <_prefetch>:
    802c:	00008180 	andeq	r8, r0, r0, lsl #3

00008030 <_abort>:
    8030:	00008180 	andeq	r8, r0, r0, lsl #3
    8034:	00000000 	andeq	r0, r0, r0

00008038 <_irq>:
    8038:	0000a0a0 	andeq	sl, r0, r0, lsr #1

0000803c <_fiq>:
    803c:	00008180 	andeq	r8, r0, r0, lsl #3

00008040 <ResetHandler>:
    8040:	e59f0080 	ldr	r0, [pc, #128]	; 80c8 <hwinit0+0x4>
    8044:	e321f0db 	msr	CPSR_c, #219	; 0xdb
    8048:	e1a0d000 	mov	sp, r0
    804c:	e59f1078 	ldr	r1, [pc, #120]	; 80cc <hwinit0+0x8>
    8050:	e0400001 	sub	r0, r0, r1
    8054:	e321f0d7 	msr	CPSR_c, #215	; 0xd7
    8058:	e1a0d000 	mov	sp, r0
    805c:	e59f106c 	ldr	r1, [pc, #108]	; 80d0 <hwinit0+0xc>
    8060:	e0400001 	sub	r0, r0, r1
    8064:	e321f0d1 	msr	CPSR_c, #209	; 0xd1
    8068:	e1a0d000 	mov	sp, r0
    806c:	e59f1060 	ldr	r1, [pc, #96]	; 80d4 <hwinit0+0x10>
    8070:	e0400001 	sub	r0, r0, r1
    8074:	e321f0d2 	msr	CPSR_c, #210	; 0xd2
    8078:	e1a0d000 	mov	sp, r0
    807c:	e59f1054 	ldr	r1, [pc, #84]	; 80d8 <hwinit0+0x14>
    8080:	e0400001 	sub	r0, r0, r1
    8084:	e321f0d3 	msr	CPSR_c, #211	; 0xd3
    8088:	e1a0d000 	mov	sp, r0
    808c:	e59f1048 	ldr	r1, [pc, #72]	; 80dc <hwinit0+0x18>
    8090:	e0400001 	sub	r0, r0, r1
    8094:	e321f0df 	msr	CPSR_c, #223	; 0xdf
    8098:	e1a0d000 	mov	sp, r0
    809c:	eb000038 	bl	8184 <__early_init>
    80a0:	e3a00000 	mov	r0, #0
    80a4:	e59f1034 	ldr	r1, [pc, #52]	; 80e0 <hwinit0+0x1c>
    80a8:	e59f2034 	ldr	r2, [pc, #52]	; 80e4 <hwinit0+0x20>

000080ac <bssloop>:
    80ac:	e1510002 	cmp	r1, r2
    80b0:	34810004 	strcc	r0, [r1], #4
    80b4:	3afffffc 	bcc	80ac <bssloop>
    80b8:	eb000c38 	bl	b1a0 <main>
    80bc:	eaffffff 	b	80c0 <_main_exit_handler>

000080c0 <_main_exit_handler>:
    80c0:	eafffffe 	b	80c0 <_main_exit_handler>

000080c4 <hwinit0>:
    80c4:	e12fff1e 	bx	lr
    80c8:	06007fe0 	streq	r7, [r0], -r0, ror #31
    80cc:	00000004 	andeq	r0, r0, r4
    80d0:	00000004 	andeq	r0, r0, r4
    80d4:	00000010 	andeq	r0, r0, r0, lsl r0
    80d8:	00000080 	andeq	r0, r0, r0, lsl #1
    80dc:	00000004 	andeq	r0, r0, r4
    80e0:	0000b2ac 	andeq	fp, r0, ip, lsr #5
    80e4:	0000b604 	andeq	fp, r0, r4, lsl #12
	...

000080f0 <_port_switch_arm>:
    80f0:	e92d4ff0 	push	{r4, r5, r6, r7, r8, r9, sl, fp, lr}
    80f4:	e581d00c 	str	sp, [r1, #12]
    80f8:	e590d00c 	ldr	sp, [r0, #12]
    80fc:	e8bd8ff0 	pop	{r4, r5, r6, r7, r8, r9, sl, fp, pc}

00008100 <_port_irq_common>:
    8100:	eb000406 	bl	9120 <chSchIsPreemptionRequired>
    8104:	e3500000 	cmp	r0, #0
    8108:	08bd500f 	popeq	{r0, r1, r2, r3, ip, lr}
    810c:	025ef004 	subseq	pc, lr, #4
    8110:	e8bd500f 	pop	{r0, r1, r2, r3, ip, lr}
    8114:	e321f09f 	msr	CPSR_c, #159	; 0x9f
    8118:	e92d500f 	push	{r0, r1, r2, r3, ip, lr}
    811c:	e321f092 	msr	CPSR_c, #146	; 0x92
    8120:	e14f0000 	mrs	r0, SPSR
    8124:	e1a0100e 	mov	r1, lr
    8128:	e321f09f 	msr	CPSR_c, #159	; 0x9f
    812c:	e92d0003 	push	{r0, r1}
    8130:	eb00042a 	bl	91e0 <chSchDoReschedule>
    8134:	e8bd0003 	pop	{r0, r1}
    8138:	e321f092 	msr	CPSR_c, #146	; 0x92
    813c:	e16ff000 	msr	SPSR_fsxc, r0
    8140:	e1a0e001 	mov	lr, r1
    8144:	e321f09f 	msr	CPSR_c, #159	; 0x9f
    8148:	e8bd500f 	pop	{r0, r1, r2, r3, ip, lr}
    814c:	e321f092 	msr	CPSR_c, #146	; 0x92
    8150:	e25ef004 	subs	pc, lr, #4
    8154:	e320f000 	nop	{0}
    8158:	e320f000 	nop	{0}
    815c:	e320f000 	nop	{0}

00008160 <_port_thread_start>:
    8160:	e321f01f 	msr	CPSR_c, #31
    8164:	e1a00005 	mov	r0, r5
    8168:	e1a0e00f 	mov	lr, pc
    816c:	e12fff14 	bx	r4
    8170:	eb0004a6 	bl	9410 <chThdExit>
	...

00008180 <_unhandled_exception>:
    8180:	eafffffe 	b	8180 <_unhandled_exception>

00008184 <__early_init>:
    8184:	e3a00902 	mov	r0, #32768	; 0x8000
    8188:	e3a01000 	mov	r1, #0
    818c:	e8b003fc 	ldm	r0!, {r2, r3, r4, r5, r6, r7, r8, r9}
    8190:	e8a103fc 	stmia	r1!, {r2, r3, r4, r5, r6, r7, r8, r9}
    8194:	e8b003fc 	ldm	r0!, {r2, r3, r4, r5, r6, r7, r8, r9}
    8198:	e8a103fc 	stmia	r1!, {r2, r3, r4, r5, r6, r7, r8, r9}
    819c:	e12fff1e 	bx	lr

000081a0 <arm_enable_irq>:
    81a0:	e10f0000 	mrs	r0, CPSR
    81a4:	e3c00080 	bic	r0, r0, #128	; 0x80
    81a8:	e121f000 	msr	CPSR_c, r0
    81ac:	e12fff1e 	bx	lr

000081b0 <get_cpsr>:
    81b0:	e10f0000 	mrs	r0, CPSR
    81b4:	e12fff1e 	bx	lr
	...

000081c0 <__aeabi_dmul>:
    81c0:	e92d4070 	push	{r4, r5, r6, lr}
    81c4:	e3a0c0ff 	mov	ip, #255	; 0xff
    81c8:	e38ccc07 	orr	ip, ip, #1792	; 0x700
    81cc:	e01c4a21 	ands	r4, ip, r1, lsr #20
    81d0:	101c5a23 	andsne	r5, ip, r3, lsr #20
    81d4:	1134000c 	teqne	r4, ip
    81d8:	1135000c 	teqne	r5, ip
    81dc:	0b000075 	bleq	83b8 <__aeabi_dmul+0x1f8>
    81e0:	e0844005 	add	r4, r4, r5
    81e4:	e0216003 	eor	r6, r1, r3
    81e8:	e1c11a8c 	bic	r1, r1, ip, lsl #21
    81ec:	e1c33a8c 	bic	r3, r3, ip, lsl #21
    81f0:	e1905601 	orrs	r5, r0, r1, lsl #12
    81f4:	11925603 	orrsne	r5, r2, r3, lsl #12
    81f8:	e3811601 	orr	r1, r1, #1048576	; 0x100000
    81fc:	e3833601 	orr	r3, r3, #1048576	; 0x100000
    8200:	0a00001d 	beq	827c <__aeabi_dmul+0xbc>
    8204:	e08ec290 	umull	ip, lr, r0, r2
    8208:	e3a05000 	mov	r5, #0
    820c:	e0a5e291 	umlal	lr, r5, r1, r2
    8210:	e2062102 	and	r2, r6, #-2147483648	; 0x80000000
    8214:	e0a5e390 	umlal	lr, r5, r0, r3
    8218:	e3a06000 	mov	r6, #0
    821c:	e0a65391 	umlal	r5, r6, r1, r3
    8220:	e33c0000 	teq	ip, #0
    8224:	138ee001 	orrne	lr, lr, #1
    8228:	e24440ff 	sub	r4, r4, #255	; 0xff
    822c:	e3560c02 	cmp	r6, #512	; 0x200
    8230:	e2c44c03 	sbc	r4, r4, #768	; 0x300
    8234:	2a000002 	bcs	8244 <__aeabi_dmul+0x84>
    8238:	e1b0e08e 	lsls	lr, lr, #1
    823c:	e0b55005 	adcs	r5, r5, r5
    8240:	e0a66006 	adc	r6, r6, r6
    8244:	e1821586 	orr	r1, r2, r6, lsl #11
    8248:	e1811aa5 	orr	r1, r1, r5, lsr #21
    824c:	e1a00585 	lsl	r0, r5, #11
    8250:	e1800aae 	orr	r0, r0, lr, lsr #21
    8254:	e1a0e58e 	lsl	lr, lr, #11
    8258:	e254c0fd 	subs	ip, r4, #253	; 0xfd
    825c:	835c0c07 	cmphi	ip, #1792	; 0x700
    8260:	8a000011 	bhi	82ac <__aeabi_dmul+0xec>
    8264:	e35e0102 	cmp	lr, #-2147483648	; 0x80000000
    8268:	01b0e0a0 	lsrseq	lr, r0, #1
    826c:	e2b00000 	adcs	r0, r0, #0
    8270:	e0a11a04 	adc	r1, r1, r4, lsl #20
    8274:	e8bd4070 	pop	{r4, r5, r6, lr}
    8278:	e12fff1e 	bx	lr
    827c:	e2066102 	and	r6, r6, #-2147483648	; 0x80000000
    8280:	e1861001 	orr	r1, r6, r1
    8284:	e1800002 	orr	r0, r0, r2
    8288:	e0211003 	eor	r1, r1, r3
    828c:	e05440ac 	subs	r4, r4, ip, lsr #1
    8290:	c074500c 	rsbsgt	r5, r4, ip
    8294:	c1811a04 	orrgt	r1, r1, r4, lsl #20
    8298:	c8bd4070 	popgt	{r4, r5, r6, lr}
    829c:	c12fff1e 	bxgt	lr
    82a0:	e3811601 	orr	r1, r1, #1048576	; 0x100000
    82a4:	e3a0e000 	mov	lr, #0
    82a8:	e2544001 	subs	r4, r4, #1
    82ac:	ca00005d 	bgt	8428 <__aeabi_dmul+0x268>
    82b0:	e3740036 	cmn	r4, #54	; 0x36
    82b4:	d3a00000 	movle	r0, #0
    82b8:	d2011102 	andle	r1, r1, #-2147483648	; 0x80000000
    82bc:	d8bd4070 	pople	{r4, r5, r6, lr}
    82c0:	d12fff1e 	bxle	lr
    82c4:	e2644000 	rsb	r4, r4, #0
    82c8:	e2544020 	subs	r4, r4, #32
    82cc:	aa00001a 	bge	833c <__aeabi_dmul+0x17c>
    82d0:	e294400c 	adds	r4, r4, #12
    82d4:	ca00000c 	bgt	830c <__aeabi_dmul+0x14c>
    82d8:	e2844014 	add	r4, r4, #20
    82dc:	e2645020 	rsb	r5, r4, #32
    82e0:	e1a03510 	lsl	r3, r0, r5
    82e4:	e1a00430 	lsr	r0, r0, r4
    82e8:	e1800511 	orr	r0, r0, r1, lsl r5
    82ec:	e2012102 	and	r2, r1, #-2147483648	; 0x80000000
    82f0:	e3c11102 	bic	r1, r1, #-2147483648	; 0x80000000
    82f4:	e0900fa3 	adds	r0, r0, r3, lsr #31
    82f8:	e0a21431 	adc	r1, r2, r1, lsr r4
    82fc:	e19ee083 	orrs	lr, lr, r3, lsl #1
    8300:	01c00fa3 	biceq	r0, r0, r3, lsr #31
    8304:	e8bd4070 	pop	{r4, r5, r6, lr}
    8308:	e12fff1e 	bx	lr
    830c:	e264400c 	rsb	r4, r4, #12
    8310:	e2645020 	rsb	r5, r4, #32
    8314:	e1a03410 	lsl	r3, r0, r4
    8318:	e1a00530 	lsr	r0, r0, r5
    831c:	e1800411 	orr	r0, r0, r1, lsl r4
    8320:	e2011102 	and	r1, r1, #-2147483648	; 0x80000000
    8324:	e0900fa3 	adds	r0, r0, r3, lsr #31
    8328:	e2a11000 	adc	r1, r1, #0
    832c:	e19ee083 	orrs	lr, lr, r3, lsl #1
    8330:	01c00fa3 	biceq	r0, r0, r3, lsr #31
    8334:	e8bd4070 	pop	{r4, r5, r6, lr}
    8338:	e12fff1e 	bx	lr
    833c:	e2645020 	rsb	r5, r4, #32
    8340:	e18ee510 	orr	lr, lr, r0, lsl r5
    8344:	e1a03430 	lsr	r3, r0, r4
    8348:	e1833511 	orr	r3, r3, r1, lsl r5
    834c:	e1a00431 	lsr	r0, r1, r4
    8350:	e2011102 	and	r1, r1, #-2147483648	; 0x80000000
    8354:	e1c00431 	bic	r0, r0, r1, lsr r4
    8358:	e0800fa3 	add	r0, r0, r3, lsr #31
    835c:	e19ee083 	orrs	lr, lr, r3, lsl #1
    8360:	01c00fa3 	biceq	r0, r0, r3, lsr #31
    8364:	e8bd4070 	pop	{r4, r5, r6, lr}
    8368:	e12fff1e 	bx	lr
    836c:	e3340000 	teq	r4, #0
    8370:	1a000008 	bne	8398 <__aeabi_dmul+0x1d8>
    8374:	e2016102 	and	r6, r1, #-2147483648	; 0x80000000
    8378:	e1b00080 	lsls	r0, r0, #1
    837c:	e0a11001 	adc	r1, r1, r1
    8380:	e3110601 	tst	r1, #1048576	; 0x100000
    8384:	02444001 	subeq	r4, r4, #1
    8388:	0afffffa 	beq	8378 <__aeabi_dmul+0x1b8>
    838c:	e1811006 	orr	r1, r1, r6
    8390:	e3350000 	teq	r5, #0
    8394:	112fff1e 	bxne	lr
    8398:	e2036102 	and	r6, r3, #-2147483648	; 0x80000000
    839c:	e1b02082 	lsls	r2, r2, #1
    83a0:	e0a33003 	adc	r3, r3, r3
    83a4:	e3130601 	tst	r3, #1048576	; 0x100000
    83a8:	02455001 	subeq	r5, r5, #1
    83ac:	0afffffa 	beq	839c <__aeabi_dmul+0x1dc>
    83b0:	e1833006 	orr	r3, r3, r6
    83b4:	e12fff1e 	bx	lr
    83b8:	e134000c 	teq	r4, ip
    83bc:	e00c5a23 	and	r5, ip, r3, lsr #20
    83c0:	1135000c 	teqne	r5, ip
    83c4:	0a000007 	beq	83e8 <__aeabi_dmul+0x228>
    83c8:	e1906081 	orrs	r6, r0, r1, lsl #1
    83cc:	11926083 	orrsne	r6, r2, r3, lsl #1
    83d0:	1affffe5 	bne	836c <__aeabi_dmul+0x1ac>
    83d4:	e0211003 	eor	r1, r1, r3
    83d8:	e2011102 	and	r1, r1, #-2147483648	; 0x80000000
    83dc:	e3a00000 	mov	r0, #0
    83e0:	e8bd4070 	pop	{r4, r5, r6, lr}
    83e4:	e12fff1e 	bx	lr
    83e8:	e1906081 	orrs	r6, r0, r1, lsl #1
    83ec:	01a00002 	moveq	r0, r2
    83f0:	01a01003 	moveq	r1, r3
    83f4:	11926083 	orrsne	r6, r2, r3, lsl #1
    83f8:	0a000010 	beq	8440 <__aeabi_dmul+0x280>
    83fc:	e134000c 	teq	r4, ip
    8400:	1a000001 	bne	840c <__aeabi_dmul+0x24c>
    8404:	e1906601 	orrs	r6, r0, r1, lsl #12
    8408:	1a00000c 	bne	8440 <__aeabi_dmul+0x280>
    840c:	e135000c 	teq	r5, ip
    8410:	1a000003 	bne	8424 <__aeabi_dmul+0x264>
    8414:	e1926603 	orrs	r6, r2, r3, lsl #12
    8418:	11a00002 	movne	r0, r2
    841c:	11a01003 	movne	r1, r3
    8420:	1a000006 	bne	8440 <__aeabi_dmul+0x280>
    8424:	e0211003 	eor	r1, r1, r3
    8428:	e2011102 	and	r1, r1, #-2147483648	; 0x80000000
    842c:	e381147f 	orr	r1, r1, #2130706432	; 0x7f000000
    8430:	e381160f 	orr	r1, r1, #15728640	; 0xf00000
    8434:	e3a00000 	mov	r0, #0
    8438:	e8bd4070 	pop	{r4, r5, r6, lr}
    843c:	e12fff1e 	bx	lr
    8440:	e381147f 	orr	r1, r1, #2130706432	; 0x7f000000
    8444:	e381173e 	orr	r1, r1, #16252928	; 0xf80000
    8448:	e8bd4070 	pop	{r4, r5, r6, lr}
    844c:	e12fff1e 	bx	lr

00008450 <__udivsi3>:
    8450:	e2512001 	subs	r2, r1, #1
    8454:	012fff1e 	bxeq	lr
    8458:	3a000036 	bcc	8538 <__udivsi3+0xe8>
    845c:	e1500001 	cmp	r0, r1
    8460:	9a000022 	bls	84f0 <__udivsi3+0xa0>
    8464:	e1110002 	tst	r1, r2
    8468:	0a000023 	beq	84fc <__udivsi3+0xac>
    846c:	e311020e 	tst	r1, #-536870912	; 0xe0000000
    8470:	01a01181 	lsleq	r1, r1, #3
    8474:	03a03008 	moveq	r3, #8
    8478:	13a03001 	movne	r3, #1
    847c:	e3510201 	cmp	r1, #268435456	; 0x10000000
    8480:	31510000 	cmpcc	r1, r0
    8484:	31a01201 	lslcc	r1, r1, #4
    8488:	31a03203 	lslcc	r3, r3, #4
    848c:	3afffffa 	bcc	847c <__udivsi3+0x2c>
    8490:	e3510102 	cmp	r1, #-2147483648	; 0x80000000
    8494:	31510000 	cmpcc	r1, r0
    8498:	31a01081 	lslcc	r1, r1, #1
    849c:	31a03083 	lslcc	r3, r3, #1
    84a0:	3afffffa 	bcc	8490 <__udivsi3+0x40>
    84a4:	e3a02000 	mov	r2, #0
    84a8:	e1500001 	cmp	r0, r1
    84ac:	20400001 	subcs	r0, r0, r1
    84b0:	21822003 	orrcs	r2, r2, r3
    84b4:	e15000a1 	cmp	r0, r1, lsr #1
    84b8:	204000a1 	subcs	r0, r0, r1, lsr #1
    84bc:	218220a3 	orrcs	r2, r2, r3, lsr #1
    84c0:	e1500121 	cmp	r0, r1, lsr #2
    84c4:	20400121 	subcs	r0, r0, r1, lsr #2
    84c8:	21822123 	orrcs	r2, r2, r3, lsr #2
    84cc:	e15001a1 	cmp	r0, r1, lsr #3
    84d0:	204001a1 	subcs	r0, r0, r1, lsr #3
    84d4:	218221a3 	orrcs	r2, r2, r3, lsr #3
    84d8:	e3500000 	cmp	r0, #0
    84dc:	11b03223 	lsrsne	r3, r3, #4
    84e0:	11a01221 	lsrne	r1, r1, #4
    84e4:	1affffef 	bne	84a8 <__udivsi3+0x58>
    84e8:	e1a00002 	mov	r0, r2
    84ec:	e12fff1e 	bx	lr
    84f0:	03a00001 	moveq	r0, #1
    84f4:	13a00000 	movne	r0, #0
    84f8:	e12fff1e 	bx	lr
    84fc:	e3510801 	cmp	r1, #65536	; 0x10000
    8500:	21a01821 	lsrcs	r1, r1, #16
    8504:	23a02010 	movcs	r2, #16
    8508:	33a02000 	movcc	r2, #0
    850c:	e3510c01 	cmp	r1, #256	; 0x100
    8510:	21a01421 	lsrcs	r1, r1, #8
    8514:	22822008 	addcs	r2, r2, #8
    8518:	e3510010 	cmp	r1, #16
    851c:	21a01221 	lsrcs	r1, r1, #4
    8520:	22822004 	addcs	r2, r2, #4
    8524:	e3510004 	cmp	r1, #4
    8528:	82822003 	addhi	r2, r2, #3
    852c:	908220a1 	addls	r2, r2, r1, lsr #1
    8530:	e1a00230 	lsr	r0, r0, r2
    8534:	e12fff1e 	bx	lr
    8538:	e3500000 	cmp	r0, #0
    853c:	13e00000 	mvnne	r0, #0
    8540:	ea00000a 	b	8570 <__aeabi_idiv0>

00008544 <__aeabi_uidivmod>:
    8544:	e3510000 	cmp	r1, #0
    8548:	0afffffa 	beq	8538 <__udivsi3+0xe8>
    854c:	e92d4003 	push	{r0, r1, lr}
    8550:	ebffffbe 	bl	8450 <__udivsi3>
    8554:	e8bd4006 	pop	{r1, r2, lr}
    8558:	e0030092 	mul	r3, r2, r0
    855c:	e0411003 	sub	r1, r1, r3
    8560:	e12fff1e 	bx	lr
	...

00008570 <__aeabi_idiv0>:
    8570:	e12fff1e 	bx	lr
	...

00008580 <__aeabi_drsub>:
    8580:	e2211102 	eor	r1, r1, #-2147483648	; 0x80000000
    8584:	ea000000 	b	858c <__adddf3>

00008588 <__aeabi_dsub>:
    8588:	e2233102 	eor	r3, r3, #-2147483648	; 0x80000000

0000858c <__adddf3>:
    858c:	e92d4030 	push	{r4, r5, lr}
    8590:	e1a04081 	lsl	r4, r1, #1
    8594:	e1a05083 	lsl	r5, r3, #1
    8598:	e1340005 	teq	r4, r5
    859c:	01300002 	teqeq	r0, r2
    85a0:	1194c000 	orrsne	ip, r4, r0
    85a4:	1195c002 	orrsne	ip, r5, r2
    85a8:	11f0cac4 	mvnsne	ip, r4, asr #21
    85ac:	11f0cac5 	mvnsne	ip, r5, asr #21
    85b0:	0a00008c 	beq	87e8 <__adddf3+0x25c>
    85b4:	e1a04aa4 	lsr	r4, r4, #21
    85b8:	e0745aa5 	rsbs	r5, r4, r5, lsr #21
    85bc:	b2655000 	rsblt	r5, r5, #0
    85c0:	da000006 	ble	85e0 <__adddf3+0x54>
    85c4:	e0844005 	add	r4, r4, r5
    85c8:	e0202002 	eor	r2, r0, r2
    85cc:	e0213003 	eor	r3, r1, r3
    85d0:	e0220000 	eor	r0, r2, r0
    85d4:	e0231001 	eor	r1, r3, r1
    85d8:	e0202002 	eor	r2, r0, r2
    85dc:	e0213003 	eor	r3, r1, r3
    85e0:	e3550036 	cmp	r5, #54	; 0x36
    85e4:	88bd4030 	pophi	{r4, r5, lr}
    85e8:	812fff1e 	bxhi	lr
    85ec:	e3110102 	tst	r1, #-2147483648	; 0x80000000
    85f0:	e1a01601 	lsl	r1, r1, #12
    85f4:	e3a0c601 	mov	ip, #1048576	; 0x100000
    85f8:	e18c1621 	orr	r1, ip, r1, lsr #12
    85fc:	0a000001 	beq	8608 <__adddf3+0x7c>
    8600:	e2700000 	rsbs	r0, r0, #0
    8604:	e2e11000 	rsc	r1, r1, #0
    8608:	e3130102 	tst	r3, #-2147483648	; 0x80000000
    860c:	e1a03603 	lsl	r3, r3, #12
    8610:	e18c3623 	orr	r3, ip, r3, lsr #12
    8614:	0a000001 	beq	8620 <__adddf3+0x94>
    8618:	e2722000 	rsbs	r2, r2, #0
    861c:	e2e33000 	rsc	r3, r3, #0
    8620:	e1340005 	teq	r4, r5
    8624:	0a000069 	beq	87d0 <__adddf3+0x244>
    8628:	e2444001 	sub	r4, r4, #1
    862c:	e275e020 	rsbs	lr, r5, #32
    8630:	ba000005 	blt	864c <__adddf3+0xc0>
    8634:	e1a0ce12 	lsl	ip, r2, lr
    8638:	e0900532 	adds	r0, r0, r2, lsr r5
    863c:	e2a11000 	adc	r1, r1, #0
    8640:	e0900e13 	adds	r0, r0, r3, lsl lr
    8644:	e0b11553 	adcs	r1, r1, r3, asr r5
    8648:	ea000006 	b	8668 <__adddf3+0xdc>
    864c:	e2455020 	sub	r5, r5, #32
    8650:	e28ee020 	add	lr, lr, #32
    8654:	e3520001 	cmp	r2, #1
    8658:	e1a0ce13 	lsl	ip, r3, lr
    865c:	238cc002 	orrcs	ip, ip, #2
    8660:	e0900553 	adds	r0, r0, r3, asr r5
    8664:	e0b11fc3 	adcs	r1, r1, r3, asr #31
    8668:	e2015102 	and	r5, r1, #-2147483648	; 0x80000000
    866c:	5a000002 	bpl	867c <__adddf3+0xf0>
    8670:	e27cc000 	rsbs	ip, ip, #0
    8674:	e2f00000 	rscs	r0, r0, #0
    8678:	e2e11000 	rsc	r1, r1, #0
    867c:	e3510601 	cmp	r1, #1048576	; 0x100000
    8680:	3a00000f 	bcc	86c4 <__adddf3+0x138>
    8684:	e3510602 	cmp	r1, #2097152	; 0x200000
    8688:	3a000006 	bcc	86a8 <__adddf3+0x11c>
    868c:	e1b010a1 	lsrs	r1, r1, #1
    8690:	e1b00060 	rrxs	r0, r0
    8694:	e1a0c06c 	rrx	ip, ip
    8698:	e2844001 	add	r4, r4, #1
    869c:	e1a02a84 	lsl	r2, r4, #21
    86a0:	e3720501 	cmn	r2, #4194304	; 0x400000
    86a4:	2a00006b 	bcs	8858 <__adddf3+0x2cc>
    86a8:	e35c0102 	cmp	ip, #-2147483648	; 0x80000000
    86ac:	01b0c0a0 	lsrseq	ip, r0, #1
    86b0:	e2b00000 	adcs	r0, r0, #0
    86b4:	e0a11a04 	adc	r1, r1, r4, lsl #20
    86b8:	e1811005 	orr	r1, r1, r5
    86bc:	e8bd4030 	pop	{r4, r5, lr}
    86c0:	e12fff1e 	bx	lr
    86c4:	e1b0c08c 	lsls	ip, ip, #1
    86c8:	e0b00000 	adcs	r0, r0, r0
    86cc:	e0a11001 	adc	r1, r1, r1
    86d0:	e2544001 	subs	r4, r4, #1
    86d4:	23510601 	cmpcs	r1, #1048576	; 0x100000
    86d8:	2afffff2 	bcs	86a8 <__adddf3+0x11c>
    86dc:	e3310000 	teq	r1, #0
    86e0:	13a03014 	movne	r3, #20
    86e4:	03a03034 	moveq	r3, #52	; 0x34
    86e8:	01a01000 	moveq	r1, r0
    86ec:	03a00000 	moveq	r0, #0
    86f0:	e1a02001 	mov	r2, r1
    86f4:	e3520801 	cmp	r2, #65536	; 0x10000
    86f8:	21a02822 	lsrcs	r2, r2, #16
    86fc:	22433010 	subcs	r3, r3, #16
    8700:	e3520c01 	cmp	r2, #256	; 0x100
    8704:	21a02422 	lsrcs	r2, r2, #8
    8708:	22433008 	subcs	r3, r3, #8
    870c:	e3520010 	cmp	r2, #16
    8710:	21a02222 	lsrcs	r2, r2, #4
    8714:	22433004 	subcs	r3, r3, #4
    8718:	e3520004 	cmp	r2, #4
    871c:	22433002 	subcs	r3, r3, #2
    8720:	304330a2 	subcc	r3, r3, r2, lsr #1
    8724:	e04331a2 	sub	r3, r3, r2, lsr #3
    8728:	e2532020 	subs	r2, r3, #32
    872c:	aa000007 	bge	8750 <__adddf3+0x1c4>
    8730:	e292200c 	adds	r2, r2, #12
    8734:	da000004 	ble	874c <__adddf3+0x1c0>
    8738:	e282c014 	add	ip, r2, #20
    873c:	e262200c 	rsb	r2, r2, #12
    8740:	e1a00c11 	lsl	r0, r1, ip
    8744:	e1a01231 	lsr	r1, r1, r2
    8748:	ea000004 	b	8760 <__adddf3+0x1d4>
    874c:	e2822014 	add	r2, r2, #20
    8750:	d262c020 	rsble	ip, r2, #32
    8754:	e1a01211 	lsl	r1, r1, r2
    8758:	d1811c30 	orrle	r1, r1, r0, lsr ip
    875c:	d1a00210 	lslle	r0, r0, r2
    8760:	e0544003 	subs	r4, r4, r3
    8764:	a0811a04 	addge	r1, r1, r4, lsl #20
    8768:	a1811005 	orrge	r1, r1, r5
    876c:	a8bd4030 	popge	{r4, r5, lr}
    8770:	a12fff1e 	bxge	lr
    8774:	e1e04004 	mvn	r4, r4
    8778:	e254401f 	subs	r4, r4, #31
    877c:	aa00000f 	bge	87c0 <__adddf3+0x234>
    8780:	e294400c 	adds	r4, r4, #12
    8784:	ca000006 	bgt	87a4 <__adddf3+0x218>
    8788:	e2844014 	add	r4, r4, #20
    878c:	e2642020 	rsb	r2, r4, #32
    8790:	e1a00430 	lsr	r0, r0, r4
    8794:	e1800211 	orr	r0, r0, r1, lsl r2
    8798:	e1851431 	orr	r1, r5, r1, lsr r4
    879c:	e8bd4030 	pop	{r4, r5, lr}
    87a0:	e12fff1e 	bx	lr
    87a4:	e264400c 	rsb	r4, r4, #12
    87a8:	e2642020 	rsb	r2, r4, #32
    87ac:	e1a00230 	lsr	r0, r0, r2
    87b0:	e1800411 	orr	r0, r0, r1, lsl r4
    87b4:	e1a01005 	mov	r1, r5
    87b8:	e8bd4030 	pop	{r4, r5, lr}
    87bc:	e12fff1e 	bx	lr
    87c0:	e1a00431 	lsr	r0, r1, r4
    87c4:	e1a01005 	mov	r1, r5
    87c8:	e8bd4030 	pop	{r4, r5, lr}
    87cc:	e12fff1e 	bx	lr
    87d0:	e3340000 	teq	r4, #0
    87d4:	e2233601 	eor	r3, r3, #1048576	; 0x100000
    87d8:	02211601 	eoreq	r1, r1, #1048576	; 0x100000
    87dc:	02844001 	addeq	r4, r4, #1
    87e0:	12455001 	subne	r5, r5, #1
    87e4:	eaffff8f 	b	8628 <__adddf3+0x9c>
    87e8:	e1f0cac4 	mvns	ip, r4, asr #21
    87ec:	11f0cac5 	mvnsne	ip, r5, asr #21
    87f0:	0a00001d 	beq	886c <__adddf3+0x2e0>
    87f4:	e1340005 	teq	r4, r5
    87f8:	01300002 	teqeq	r0, r2
    87fc:	0a000004 	beq	8814 <__adddf3+0x288>
    8800:	e194c000 	orrs	ip, r4, r0
    8804:	01a01003 	moveq	r1, r3
    8808:	01a00002 	moveq	r0, r2
    880c:	e8bd4030 	pop	{r4, r5, lr}
    8810:	e12fff1e 	bx	lr
    8814:	e1310003 	teq	r1, r3
    8818:	13a01000 	movne	r1, #0
    881c:	13a00000 	movne	r0, #0
    8820:	18bd4030 	popne	{r4, r5, lr}
    8824:	112fff1e 	bxne	lr
    8828:	e1b0caa4 	lsrs	ip, r4, #21
    882c:	1a000004 	bne	8844 <__adddf3+0x2b8>
    8830:	e1b00080 	lsls	r0, r0, #1
    8834:	e0b11001 	adcs	r1, r1, r1
    8838:	23811102 	orrcs	r1, r1, #-2147483648	; 0x80000000
    883c:	e8bd4030 	pop	{r4, r5, lr}
    8840:	e12fff1e 	bx	lr
    8844:	e2944501 	adds	r4, r4, #4194304	; 0x400000
    8848:	32811601 	addcc	r1, r1, #1048576	; 0x100000
    884c:	38bd4030 	popcc	{r4, r5, lr}
    8850:	312fff1e 	bxcc	lr
    8854:	e2015102 	and	r5, r1, #-2147483648	; 0x80000000
    8858:	e385147f 	orr	r1, r5, #2130706432	; 0x7f000000
    885c:	e381160f 	orr	r1, r1, #15728640	; 0xf00000
    8860:	e3a00000 	mov	r0, #0
    8864:	e8bd4030 	pop	{r4, r5, lr}
    8868:	e12fff1e 	bx	lr
    886c:	e1f0cac4 	mvns	ip, r4, asr #21
    8870:	11a01003 	movne	r1, r3
    8874:	11a00002 	movne	r0, r2
    8878:	01f0cac5 	mvnseq	ip, r5, asr #21
    887c:	11a03001 	movne	r3, r1
    8880:	11a02000 	movne	r2, r0
    8884:	e1904601 	orrs	r4, r0, r1, lsl #12
    8888:	01925603 	orrseq	r5, r2, r3, lsl #12
    888c:	01310003 	teqeq	r1, r3
    8890:	13811702 	orrne	r1, r1, #524288	; 0x80000
    8894:	e8bd4030 	pop	{r4, r5, lr}
    8898:	e12fff1e 	bx	lr

0000889c <__aeabi_ui2d>:
    889c:	e3300000 	teq	r0, #0
    88a0:	03a01000 	moveq	r1, #0
    88a4:	012fff1e 	bxeq	lr
    88a8:	e92d4030 	push	{r4, r5, lr}
    88ac:	e3a04b01 	mov	r4, #1024	; 0x400
    88b0:	e2844032 	add	r4, r4, #50	; 0x32
    88b4:	e3a05000 	mov	r5, #0
    88b8:	e3a01000 	mov	r1, #0
    88bc:	eaffff86 	b	86dc <__adddf3+0x150>

000088c0 <__aeabi_i2d>:
    88c0:	e3300000 	teq	r0, #0
    88c4:	03a01000 	moveq	r1, #0
    88c8:	012fff1e 	bxeq	lr
    88cc:	e92d4030 	push	{r4, r5, lr}
    88d0:	e3a04b01 	mov	r4, #1024	; 0x400
    88d4:	e2844032 	add	r4, r4, #50	; 0x32
    88d8:	e2105102 	ands	r5, r0, #-2147483648	; 0x80000000
    88dc:	42600000 	rsbmi	r0, r0, #0
    88e0:	e3a01000 	mov	r1, #0
    88e4:	eaffff7c 	b	86dc <__adddf3+0x150>

000088e8 <__aeabi_f2d>:
    88e8:	e1b02080 	lsls	r2, r0, #1
    88ec:	e1a011c2 	asr	r1, r2, #3
    88f0:	e1a01061 	rrx	r1, r1
    88f4:	e1a00e02 	lsl	r0, r2, #28
    88f8:	121234ff 	andsne	r3, r2, #-16777216	; 0xff000000
    88fc:	133304ff 	teqne	r3, #-16777216	; 0xff000000
    8900:	1221130e 	eorne	r1, r1, #939524096	; 0x38000000
    8904:	112fff1e 	bxne	lr
    8908:	e3d224ff 	bics	r2, r2, #-16777216	; 0xff000000
    890c:	012fff1e 	bxeq	lr
    8910:	e33304ff 	teq	r3, #-16777216	; 0xff000000
    8914:	03811702 	orreq	r1, r1, #524288	; 0x80000
    8918:	012fff1e 	bxeq	lr
    891c:	e92d4030 	push	{r4, r5, lr}
    8920:	e3a04d0e 	mov	r4, #896	; 0x380
    8924:	e2015102 	and	r5, r1, #-2147483648	; 0x80000000
    8928:	e3c11102 	bic	r1, r1, #-2147483648	; 0x80000000
    892c:	eaffff6a 	b	86dc <__adddf3+0x150>

00008930 <__aeabi_ul2d>:
    8930:	e1902001 	orrs	r2, r0, r1
    8934:	012fff1e 	bxeq	lr
    8938:	e92d4030 	push	{r4, r5, lr}
    893c:	e3a05000 	mov	r5, #0
    8940:	ea000006 	b	8960 <__aeabi_l2d+0x1c>

00008944 <__aeabi_l2d>:
    8944:	e1902001 	orrs	r2, r0, r1
    8948:	012fff1e 	bxeq	lr
    894c:	e92d4030 	push	{r4, r5, lr}
    8950:	e2115102 	ands	r5, r1, #-2147483648	; 0x80000000
    8954:	5a000001 	bpl	8960 <__aeabi_l2d+0x1c>
    8958:	e2700000 	rsbs	r0, r0, #0
    895c:	e2e11000 	rsc	r1, r1, #0
    8960:	e3a04b01 	mov	r4, #1024	; 0x400
    8964:	e2844032 	add	r4, r4, #50	; 0x32
    8968:	e1b0cb21 	lsrs	ip, r1, #22
    896c:	0affff42 	beq	867c <__adddf3+0xf0>
    8970:	e3a02003 	mov	r2, #3
    8974:	e1b0c1ac 	lsrs	ip, ip, #3
    8978:	12822003 	addne	r2, r2, #3
    897c:	e1b0c1ac 	lsrs	ip, ip, #3
    8980:	12822003 	addne	r2, r2, #3
    8984:	e08221ac 	add	r2, r2, ip, lsr #3
    8988:	e2623020 	rsb	r3, r2, #32
    898c:	e1a0c310 	lsl	ip, r0, r3
    8990:	e1a00230 	lsr	r0, r0, r2
    8994:	e1800311 	orr	r0, r0, r1, lsl r3
    8998:	e1a01231 	lsr	r1, r1, r2
    899c:	e0844002 	add	r4, r4, r2
    89a0:	eaffff35 	b	867c <__adddf3+0xf0>
	...

000089b0 <__aeabi_d2iz>:
    89b0:	e1a02081 	lsl	r2, r1, #1
    89b4:	e2922602 	adds	r2, r2, #2097152	; 0x200000
    89b8:	2a00000c 	bcs	89f0 <__aeabi_d2iz+0x40>
    89bc:	5a000009 	bpl	89e8 <__aeabi_d2iz+0x38>
    89c0:	e3e03e3e 	mvn	r3, #992	; 0x3e0
    89c4:	e0532ac2 	subs	r2, r3, r2, asr #21
    89c8:	9a00000a 	bls	89f8 <__aeabi_d2iz+0x48>
    89cc:	e1a03581 	lsl	r3, r1, #11
    89d0:	e3833102 	orr	r3, r3, #-2147483648	; 0x80000000
    89d4:	e1833aa0 	orr	r3, r3, r0, lsr #21
    89d8:	e3110102 	tst	r1, #-2147483648	; 0x80000000
    89dc:	e1a00233 	lsr	r0, r3, r2
    89e0:	12600000 	rsbne	r0, r0, #0
    89e4:	e12fff1e 	bx	lr
    89e8:	e3a00000 	mov	r0, #0
    89ec:	e12fff1e 	bx	lr
    89f0:	e1900601 	orrs	r0, r0, r1, lsl #12
    89f4:	1a000002 	bne	8a04 <__aeabi_d2iz+0x54>
    89f8:	e2110102 	ands	r0, r1, #-2147483648	; 0x80000000
    89fc:	03e00102 	mvneq	r0, #-2147483648	; 0x80000000
    8a00:	e12fff1e 	bx	lr
    8a04:	e3a00000 	mov	r0, #0
    8a08:	e12fff1e 	bx	lr
    8a0c:	00000000 	andeq	r0, r0, r0

00008a10 <__aeabi_d2f>:
    8a10:	e1a02081 	lsl	r2, r1, #1
    8a14:	e2523207 	subs	r3, r2, #1879048192	; 0x70000000
    8a18:	2253c602 	subscs	ip, r3, #2097152	; 0x200000
    8a1c:	227cc57f 	rsbscs	ip, ip, #532676608	; 0x1fc00000
    8a20:	9a000006 	bls	8a40 <__aeabi_d2f+0x30>
    8a24:	e201c102 	and	ip, r1, #-2147483648	; 0x80000000
    8a28:	e1a02180 	lsl	r2, r0, #3
    8a2c:	e18c0ea0 	orr	r0, ip, r0, lsr #29
    8a30:	e3520102 	cmp	r2, #-2147483648	; 0x80000000
    8a34:	e0a00103 	adc	r0, r0, r3, lsl #2
    8a38:	03c00001 	biceq	r0, r0, #1
    8a3c:	e12fff1e 	bx	lr
    8a40:	e3110101 	tst	r1, #1073741824	; 0x40000000
    8a44:	1a00000f 	bne	8a88 <__aeabi_d2f+0x78>
    8a48:	e293262e 	adds	r2, r3, #48234496	; 0x2e00000
    8a4c:	b2010102 	andlt	r0, r1, #-2147483648	; 0x80000000
    8a50:	b12fff1e 	bxlt	lr
    8a54:	e3811601 	orr	r1, r1, #1048576	; 0x100000
    8a58:	e1a02aa2 	lsr	r2, r2, #21
    8a5c:	e2622018 	rsb	r2, r2, #24
    8a60:	e262c020 	rsb	ip, r2, #32
    8a64:	e1b03c10 	lsls	r3, r0, ip
    8a68:	e1a00230 	lsr	r0, r0, r2
    8a6c:	13800001 	orrne	r0, r0, #1
    8a70:	e1a03581 	lsl	r3, r1, #11
    8a74:	e1a035a3 	lsr	r3, r3, #11
    8a78:	e1800c13 	orr	r0, r0, r3, lsl ip
    8a7c:	e1a03233 	lsr	r3, r3, r2
    8a80:	e1a03083 	lsl	r3, r3, #1
    8a84:	eaffffe6 	b	8a24 <__aeabi_d2f+0x14>
    8a88:	e1f03ac2 	mvns	r3, r2, asr #21
    8a8c:	1a000003 	bne	8aa0 <__aeabi_d2f+0x90>
    8a90:	e1903601 	orrs	r3, r0, r1, lsl #12
    8a94:	13a0047f 	movne	r0, #2130706432	; 0x7f000000
    8a98:	13800503 	orrne	r0, r0, #12582912	; 0xc00000
    8a9c:	112fff1e 	bxne	lr
    8aa0:	e2010102 	and	r0, r1, #-2147483648	; 0x80000000
    8aa4:	e380047f 	orr	r0, r0, #2130706432	; 0x7f000000
    8aa8:	e3800502 	orr	r0, r0, #8388608	; 0x800000
    8aac:	e12fff1e 	bx	lr

00008ab0 <__gesf2>:
    8ab0:	e3e0c000 	mvn	ip, #0
    8ab4:	ea000002 	b	8ac4 <__cmpsf2+0x4>

00008ab8 <__lesf2>:
    8ab8:	e3a0c001 	mov	ip, #1
    8abc:	ea000000 	b	8ac4 <__cmpsf2+0x4>

00008ac0 <__cmpsf2>:
    8ac0:	e3a0c001 	mov	ip, #1
    8ac4:	e52dc004 	push	{ip}		; (str ip, [sp, #-4]!)
    8ac8:	e1a02080 	lsl	r2, r0, #1
    8acc:	e1a03081 	lsl	r3, r1, #1
    8ad0:	e1f0cc42 	mvns	ip, r2, asr #24
    8ad4:	11f0cc43 	mvnsne	ip, r3, asr #24
    8ad8:	0a000007 	beq	8afc <__cmpsf2+0x3c>
    8adc:	e28dd004 	add	sp, sp, #4
    8ae0:	e192c0a3 	orrs	ip, r2, r3, lsr #1
    8ae4:	11300001 	teqne	r0, r1
    8ae8:	50520003 	subspl	r0, r2, r3
    8aec:	81a00fc1 	asrhi	r0, r1, #31
    8af0:	31e00fc1 	mvncc	r0, r1, asr #31
    8af4:	13800001 	orrne	r0, r0, #1
    8af8:	e12fff1e 	bx	lr
    8afc:	e1f0cc42 	mvns	ip, r2, asr #24
    8b00:	1a000001 	bne	8b0c <__cmpsf2+0x4c>
    8b04:	e1b0c480 	lsls	ip, r0, #9
    8b08:	1a000003 	bne	8b1c <__cmpsf2+0x5c>
    8b0c:	e1f0cc43 	mvns	ip, r3, asr #24
    8b10:	1afffff1 	bne	8adc <__cmpsf2+0x1c>
    8b14:	e1b0c481 	lsls	ip, r1, #9
    8b18:	0affffef 	beq	8adc <__cmpsf2+0x1c>
    8b1c:	e49d0004 	pop	{r0}		; (ldr r0, [sp], #4)
    8b20:	e12fff1e 	bx	lr

00008b24 <__aeabi_cfrcmple>:
    8b24:	e1a0c000 	mov	ip, r0
    8b28:	e1a00001 	mov	r0, r1
    8b2c:	e1a0100c 	mov	r1, ip
    8b30:	eaffffff 	b	8b34 <__aeabi_cfcmpeq>

00008b34 <__aeabi_cfcmpeq>:
    8b34:	e92d400f 	push	{r0, r1, r2, r3, lr}
    8b38:	ebffffe0 	bl	8ac0 <__cmpsf2>
    8b3c:	e3500000 	cmp	r0, #0
    8b40:	43700000 	cmnmi	r0, #0
    8b44:	e8bd400f 	pop	{r0, r1, r2, r3, lr}
    8b48:	e12fff1e 	bx	lr

00008b4c <__aeabi_fcmpeq>:
    8b4c:	e52de008 	str	lr, [sp, #-8]!
    8b50:	ebfffff7 	bl	8b34 <__aeabi_cfcmpeq>
    8b54:	03a00001 	moveq	r0, #1
    8b58:	13a00000 	movne	r0, #0
    8b5c:	e49de008 	ldr	lr, [sp], #8
    8b60:	e12fff1e 	bx	lr

00008b64 <__aeabi_fcmplt>:
    8b64:	e52de008 	str	lr, [sp, #-8]!
    8b68:	ebfffff1 	bl	8b34 <__aeabi_cfcmpeq>
    8b6c:	33a00001 	movcc	r0, #1
    8b70:	23a00000 	movcs	r0, #0
    8b74:	e49de008 	ldr	lr, [sp], #8
    8b78:	e12fff1e 	bx	lr

00008b7c <__aeabi_fcmple>:
    8b7c:	e52de008 	str	lr, [sp, #-8]!
    8b80:	ebffffeb 	bl	8b34 <__aeabi_cfcmpeq>
    8b84:	93a00001 	movls	r0, #1
    8b88:	83a00000 	movhi	r0, #0
    8b8c:	e49de008 	ldr	lr, [sp], #8
    8b90:	e12fff1e 	bx	lr

00008b94 <__aeabi_fcmpge>:
    8b94:	e52de008 	str	lr, [sp, #-8]!
    8b98:	ebffffe1 	bl	8b24 <__aeabi_cfrcmple>
    8b9c:	93a00001 	movls	r0, #1
    8ba0:	83a00000 	movhi	r0, #0
    8ba4:	e49de008 	ldr	lr, [sp], #8
    8ba8:	e12fff1e 	bx	lr

00008bac <__aeabi_fcmpgt>:
    8bac:	e52de008 	str	lr, [sp, #-8]!
    8bb0:	ebffffdb 	bl	8b24 <__aeabi_cfrcmple>
    8bb4:	33a00001 	movcc	r0, #1
    8bb8:	23a00000 	movcs	r0, #0
    8bbc:	e49de008 	ldr	lr, [sp], #8
    8bc0:	e12fff1e 	bx	lr
	...

00008bd0 <__aeabi_f2iz>:
    8bd0:	e1a02080 	lsl	r2, r0, #1
    8bd4:	e352047f 	cmp	r2, #2130706432	; 0x7f000000
    8bd8:	3a000008 	bcc	8c00 <__aeabi_f2iz+0x30>
    8bdc:	e3a0309e 	mov	r3, #158	; 0x9e
    8be0:	e0532c22 	subs	r2, r3, r2, lsr #24
    8be4:	9a000007 	bls	8c08 <__aeabi_f2iz+0x38>
    8be8:	e1a03400 	lsl	r3, r0, #8
    8bec:	e3833102 	orr	r3, r3, #-2147483648	; 0x80000000
    8bf0:	e3100102 	tst	r0, #-2147483648	; 0x80000000
    8bf4:	e1a00233 	lsr	r0, r3, r2
    8bf8:	12600000 	rsbne	r0, r0, #0
    8bfc:	e12fff1e 	bx	lr
    8c00:	e3a00000 	mov	r0, #0
    8c04:	e12fff1e 	bx	lr
    8c08:	e3720061 	cmn	r2, #97	; 0x61
    8c0c:	1a000001 	bne	8c18 <__aeabi_f2iz+0x48>
    8c10:	e1b02480 	lsls	r2, r0, #9
    8c14:	1a000002 	bne	8c24 <__aeabi_f2iz+0x54>
    8c18:	e2100102 	ands	r0, r0, #-2147483648	; 0x80000000
    8c1c:	03e00102 	mvneq	r0, #-2147483648	; 0x80000000
    8c20:	e12fff1e 	bx	lr
    8c24:	e3a00000 	mov	r0, #0
    8c28:	e12fff1e 	bx	lr
    8c2c:	00000000 	andeq	r0, r0, r0

00008c30 <_idle_thread>:
    8c30:	e59f3010 	ldr	r3, [pc, #16]	; 8c48 <_idle_thread+0x18>
    8c34:	e59f2010 	ldr	r2, [pc, #16]	; 8c4c <_idle_thread+0x1c>
    8c38:	e5933018 	ldr	r3, [r3, #24]
    8c3c:	e5832018 	str	r2, [r3, #24]
    8c40:	ee070f90 	mcr	15, 0, r0, cr7, cr0, {4}
    8c44:	eafffffd 	b	8c40 <_idle_thread+0x10>
    8c48:	0000b39c 	muleq	r0, ip, r3
    8c4c:	0000b220 	andeq	fp, r0, r0, lsr #4

00008c50 <chSysInit>:
    8c50:	e52de004 	push	{lr}		; (str lr, [sp, #-4]!)
    8c54:	e24dd00c 	sub	sp, sp, #12
    8c58:	eb0000a4 	bl	8ef0 <_scheduler_init>
    8c5c:	eb00003f 	bl	8d60 <_vt_init>
    8c60:	eb0003fa 	bl	9c50 <_core_init>
    8c64:	eb00041d 	bl	9ce0 <_heap_init>
    8c68:	e3a01040 	mov	r1, #64	; 0x40
    8c6c:	e59f0040 	ldr	r0, [pc, #64]	; 8cb4 <chSysInit+0x64>
    8c70:	eb00017e 	bl	9270 <_thread_init>
    8c74:	e3a02001 	mov	r2, #1
    8c78:	e59f3038 	ldr	r3, [pc, #56]	; 8cb8 <chSysInit+0x68>
    8c7c:	e5c0201c 	strb	r2, [r0, #28]
    8c80:	e5830018 	str	r0, [r3, #24]
    8c84:	e321f01f 	msr	CPSR_c, #31
    8c88:	e3a0c000 	mov	ip, #0
    8c8c:	e5933018 	ldr	r3, [r3, #24]
    8c90:	e59f1024 	ldr	r1, [pc, #36]	; 8cbc <chSysInit+0x6c>
    8c94:	e59f0024 	ldr	r0, [pc, #36]	; 8cc0 <chSysInit+0x70>
    8c98:	e5831018 	str	r1, [r3, #24]
    8c9c:	e3a0109c 	mov	r1, #156	; 0x9c
    8ca0:	e59f301c 	ldr	r3, [pc, #28]	; 8cc4 <chSysInit+0x74>
    8ca4:	e58dc000 	str	ip, [sp]
    8ca8:	eb00018c 	bl	92e0 <chThdCreateStatic>
    8cac:	e28dd00c 	add	sp, sp, #12
    8cb0:	e49df004 	pop	{pc}		; (ldr pc, [sp], #4)
    8cb4:	0000b348 	andeq	fp, r0, r8, asr #6
    8cb8:	0000b39c 	muleq	r0, ip, r3
    8cbc:	0000b230 	andeq	fp, r0, r0, lsr r2
    8cc0:	0000b2ac 	andeq	fp, r0, ip, lsr #5
    8cc4:	00008c30 	andeq	r8, r0, r0, lsr ip
	...

00008cd0 <chSysTimerHandlerI>:
    8cd0:	e92d4070 	push	{r4, r5, r6, lr}
    8cd4:	e59f307c 	ldr	r3, [pc, #124]	; 8d58 <chSysTimerHandlerI+0x88>
    8cd8:	e59f407c 	ldr	r4, [pc, #124]	; 8d5c <chSysTimerHandlerI+0x8c>
    8cdc:	e5933018 	ldr	r3, [r3, #24]
    8ce0:	e5d3201f 	ldrb	r2, [r3, #31]
    8ce4:	e3520000 	cmp	r2, #0
    8ce8:	12422001 	subne	r2, r2, #1
    8cec:	15c3201f 	strbne	r2, [r3, #31]
    8cf0:	e5932020 	ldr	r2, [r3, #32]
    8cf4:	e2822001 	add	r2, r2, #1
    8cf8:	e5832020 	str	r2, [r3, #32]
    8cfc:	e594200c 	ldr	r2, [r4, #12]
    8d00:	e5943000 	ldr	r3, [r4]
    8d04:	e2822001 	add	r2, r2, #1
    8d08:	e1530004 	cmp	r3, r4
    8d0c:	e584200c 	str	r2, [r4, #12]
    8d10:	08bd8070 	popeq	{r4, r5, r6, pc}
    8d14:	e5935008 	ldr	r5, [r3, #8]
    8d18:	e2455001 	sub	r5, r5, #1
    8d1c:	e3550000 	cmp	r5, #0
    8d20:	e5835008 	str	r5, [r3, #8]
    8d24:	18bd8070 	popne	{r4, r5, r6, pc}
    8d28:	e5932000 	ldr	r2, [r3]
    8d2c:	e593100c 	ldr	r1, [r3, #12]
    8d30:	e5930010 	ldr	r0, [r3, #16]
    8d34:	e583500c 	str	r5, [r3, #12]
    8d38:	e5842000 	str	r2, [r4]
    8d3c:	e5824004 	str	r4, [r2, #4]
    8d40:	e12fff31 	blx	r1
    8d44:	e5943000 	ldr	r3, [r4]
    8d48:	e5932008 	ldr	r2, [r3, #8]
    8d4c:	e3520000 	cmp	r2, #0
    8d50:	0afffff4 	beq	8d28 <chSysTimerHandlerI+0x58>
    8d54:	e8bd8070 	pop	{r4, r5, r6, pc}
    8d58:	0000b39c 	muleq	r0, ip, r3
    8d5c:	0000b38c 	andeq	fp, r0, ip, lsl #7

00008d60 <_vt_init>:
    8d60:	e3e01000 	mvn	r1, #0
    8d64:	e3a02000 	mov	r2, #0
    8d68:	e59f3010 	ldr	r3, [pc, #16]	; 8d80 <_vt_init+0x20>
    8d6c:	e5833004 	str	r3, [r3, #4]
    8d70:	e5833000 	str	r3, [r3]
    8d74:	e5831008 	str	r1, [r3, #8]
    8d78:	e583200c 	str	r2, [r3, #12]
    8d7c:	e12fff1e 	bx	lr
    8d80:	0000b38c 	andeq	fp, r0, ip, lsl #7
	...

00008d90 <chVTSetI>:
    8d90:	e92d4010 	push	{r4, lr}
    8d94:	e59f4054 	ldr	r4, [pc, #84]	; 8df0 <chVTSetI+0x60>
    8d98:	e594c000 	ldr	ip, [r4]
    8d9c:	e59ce008 	ldr	lr, [ip, #8]
    8da0:	e1c020fc 	strd	r2, [r0, #12]
    8da4:	e151000e 	cmp	r1, lr
    8da8:	9a000004 	bls	8dc0 <chVTSetI+0x30>
    8dac:	e59cc000 	ldr	ip, [ip]
    8db0:	e041100e 	sub	r1, r1, lr
    8db4:	e59ce008 	ldr	lr, [ip, #8]
    8db8:	e15e0001 	cmp	lr, r1
    8dbc:	3afffffa 	bcc	8dac <chVTSetI+0x1c>
    8dc0:	e59c3004 	ldr	r3, [ip, #4]
    8dc4:	e580c000 	str	ip, [r0]
    8dc8:	e5803004 	str	r3, [r0, #4]
    8dcc:	e58c0004 	str	r0, [ip, #4]
    8dd0:	e5903004 	ldr	r3, [r0, #4]
    8dd4:	e15c0004 	cmp	ip, r4
    8dd8:	e5830000 	str	r0, [r3]
    8ddc:	e5801008 	str	r1, [r0, #8]
    8de0:	159c3008 	ldrne	r3, [ip, #8]
    8de4:	10433001 	subne	r3, r3, r1
    8de8:	158c3008 	strne	r3, [ip, #8]
    8dec:	e8bd8010 	pop	{r4, pc}
    8df0:	0000b38c 	andeq	fp, r0, ip, lsl #7
	...

00008e00 <chVTResetI>:
    8e00:	e5903000 	ldr	r3, [r0]
    8e04:	e59f202c 	ldr	r2, [pc, #44]	; 8e38 <chVTResetI+0x38>
    8e08:	e1530002 	cmp	r3, r2
    8e0c:	15932008 	ldrne	r2, [r3, #8]
    8e10:	15901008 	ldrne	r1, [r0, #8]
    8e14:	10822001 	addne	r2, r2, r1
    8e18:	e3a01000 	mov	r1, #0
    8e1c:	15832008 	strne	r2, [r3, #8]
    8e20:	e5902004 	ldr	r2, [r0, #4]
    8e24:	e5823000 	str	r3, [r2]
    8e28:	e5903000 	ldr	r3, [r0]
    8e2c:	e5832004 	str	r2, [r3, #4]
    8e30:	e580100c 	str	r1, [r0, #12]
    8e34:	e12fff1e 	bx	lr
    8e38:	0000b38c 	andeq	fp, r0, ip, lsl #7
    8e3c:	00000000 	andeq	r0, r0, r0

00008e40 <wakeup>:
    8e40:	e5d0301c 	ldrb	r3, [r0, #28]
    8e44:	e353000d 	cmp	r3, #13
    8e48:	979ff103 	ldrls	pc, [pc, r3, lsl #2]
    8e4c:	ea000015 	b	8ea8 <wakeup+0x68>
    8e50:	00008ee8 	andeq	r8, r0, r8, ror #29
    8e54:	00008ea8 	andeq	r8, r0, r8, lsr #29
    8e58:	00008ea8 	andeq	r8, r0, r8, lsr #29
    8e5c:	00008e88 	andeq	r8, r0, r8, lsl #29
    8e60:	00008ea8 	andeq	r8, r0, r8, lsr #29
    8e64:	00008e98 	muleq	r0, r8, lr
    8e68:	00008ea8 	andeq	r8, r0, r8, lsr #29
    8e6c:	00008ea8 	andeq	r8, r0, r8, lsr #29
    8e70:	00008ea8 	andeq	r8, r0, r8, lsr #29
    8e74:	00008ea8 	andeq	r8, r0, r8, lsr #29
    8e78:	00008ea8 	andeq	r8, r0, r8, lsr #29
    8e7c:	00008ea8 	andeq	r8, r0, r8, lsr #29
    8e80:	00008ea8 	andeq	r8, r0, r8, lsr #29
    8e84:	00008e98 	muleq	r0, r8, lr
    8e88:	e5902024 	ldr	r2, [r0, #36]	; 0x24
    8e8c:	e5923008 	ldr	r3, [r2, #8]
    8e90:	e2833001 	add	r3, r3, #1
    8e94:	e5823008 	str	r3, [r2, #8]
    8e98:	e5902004 	ldr	r2, [r0, #4]
    8e9c:	e5903000 	ldr	r3, [r0]
    8ea0:	e5823000 	str	r3, [r2]
    8ea4:	e5832004 	str	r2, [r3, #4]
    8ea8:	e3e0c000 	mvn	ip, #0
    8eac:	e3a02000 	mov	r2, #0
    8eb0:	e5901008 	ldr	r1, [r0, #8]
    8eb4:	e59f3030 	ldr	r3, [pc, #48]	; 8eec <wakeup+0xac>
    8eb8:	e580c024 	str	ip, [r0, #36]	; 0x24
    8ebc:	e5c0201c 	strb	r2, [r0, #28]
    8ec0:	e5933000 	ldr	r3, [r3]
    8ec4:	e5932008 	ldr	r2, [r3, #8]
    8ec8:	e1520001 	cmp	r2, r1
    8ecc:	2afffffb 	bcs	8ec0 <wakeup+0x80>
    8ed0:	e5932004 	ldr	r2, [r3, #4]
    8ed4:	e5803000 	str	r3, [r0]
    8ed8:	e5802004 	str	r2, [r0, #4]
    8edc:	e5830004 	str	r0, [r3, #4]
    8ee0:	e5903004 	ldr	r3, [r0, #4]
    8ee4:	e5830000 	str	r0, [r3]
    8ee8:	e12fff1e 	bx	lr
    8eec:	0000b39c 	muleq	r0, ip, r3

00008ef0 <_scheduler_init>:
    8ef0:	e3a02000 	mov	r2, #0
    8ef4:	e59f3014 	ldr	r3, [pc, #20]	; 8f10 <_scheduler_init+0x20>
    8ef8:	e5833004 	str	r3, [r3, #4]
    8efc:	e5833000 	str	r3, [r3]
    8f00:	e5833014 	str	r3, [r3, #20]
    8f04:	e5833010 	str	r3, [r3, #16]
    8f08:	e5832008 	str	r2, [r3, #8]
    8f0c:	e12fff1e 	bx	lr
    8f10:	0000b39c 	muleq	r0, ip, r3
	...

00008f20 <chSchReadyI>:
    8f20:	e3a02000 	mov	r2, #0
    8f24:	e59f3030 	ldr	r3, [pc, #48]	; 8f5c <chSchReadyI+0x3c>
    8f28:	e5901008 	ldr	r1, [r0, #8]
    8f2c:	e5c0201c 	strb	r2, [r0, #28]
    8f30:	e5933000 	ldr	r3, [r3]
    8f34:	e5932008 	ldr	r2, [r3, #8]
    8f38:	e1520001 	cmp	r2, r1
    8f3c:	2afffffb 	bcs	8f30 <chSchReadyI+0x10>
    8f40:	e5932004 	ldr	r2, [r3, #4]
    8f44:	e5803000 	str	r3, [r0]
    8f48:	e5802004 	str	r2, [r0, #4]
    8f4c:	e5830004 	str	r0, [r3, #4]
    8f50:	e5903004 	ldr	r3, [r0, #4]
    8f54:	e5830000 	str	r0, [r3]
    8f58:	e12fff1e 	bx	lr
    8f5c:	0000b39c 	muleq	r0, ip, r3

00008f60 <chSchGoSleepS>:
    8f60:	e52de004 	push	{lr}		; (str lr, [sp, #-4]!)
    8f64:	e3a02014 	mov	r2, #20
    8f68:	e1a0e000 	mov	lr, r0
    8f6c:	e3a0c001 	mov	ip, #1
    8f70:	e59f3028 	ldr	r3, [pc, #40]	; 8fa0 <chSchGoSleepS+0x40>
    8f74:	e5931018 	ldr	r1, [r3, #24]
    8f78:	e5930000 	ldr	r0, [r3]
    8f7c:	e5c1e01c 	strb	lr, [r1, #28]
    8f80:	e5c1201f 	strb	r2, [r1, #31]
    8f84:	e5902000 	ldr	r2, [r0]
    8f88:	e5823004 	str	r3, [r2, #4]
    8f8c:	e5c0c01c 	strb	ip, [r0, #28]
    8f90:	e49de004 	pop	{lr}		; (ldr lr, [sp], #4)
    8f94:	e5832000 	str	r2, [r3]
    8f98:	e5830018 	str	r0, [r3, #24]
    8f9c:	eafffc53 	b	80f0 <_port_switch_arm>
    8fa0:	0000b39c 	muleq	r0, ip, r3
	...

00008fb0 <chSchGoSleepTimeoutS>:
    8fb0:	e92d4030 	push	{r4, r5, lr}
    8fb4:	e59f40b0 	ldr	r4, [pc, #176]	; 906c <chSchGoSleepTimeoutS+0xbc>
    8fb8:	e3710001 	cmn	r1, #1
    8fbc:	e1a05000 	mov	r5, r0
    8fc0:	e5943018 	ldr	r3, [r4, #24]
    8fc4:	e24dd01c 	sub	sp, sp, #28
    8fc8:	0a000017 	beq	902c <chSchGoSleepTimeoutS+0x7c>
    8fcc:	e59f209c 	ldr	r2, [pc, #156]	; 9070 <chSchGoSleepTimeoutS+0xc0>
    8fd0:	e28d0004 	add	r0, sp, #4
    8fd4:	ebffff6d 	bl	8d90 <chVTSetI>
    8fd8:	e3a03014 	mov	r3, #20
    8fdc:	e3a02001 	mov	r2, #1
    8fe0:	e5941018 	ldr	r1, [r4, #24]
    8fe4:	e5940000 	ldr	r0, [r4]
    8fe8:	e5c1501c 	strb	r5, [r1, #28]
    8fec:	e5c1301f 	strb	r3, [r1, #31]
    8ff0:	e5903000 	ldr	r3, [r0]
    8ff4:	e5834004 	str	r4, [r3, #4]
    8ff8:	e5c0201c 	strb	r2, [r0, #28]
    8ffc:	e5843000 	str	r3, [r4]
    9000:	e5840018 	str	r0, [r4, #24]
    9004:	ebfffc39 	bl	80f0 <_port_switch_arm>
    9008:	e59d3010 	ldr	r3, [sp, #16]
    900c:	e3530000 	cmp	r3, #0
    9010:	0a000001 	beq	901c <chSchGoSleepTimeoutS+0x6c>
    9014:	e28d0004 	add	r0, sp, #4
    9018:	ebffff78 	bl	8e00 <chVTResetI>
    901c:	e5943018 	ldr	r3, [r4, #24]
    9020:	e5930024 	ldr	r0, [r3, #36]	; 0x24
    9024:	e28dd01c 	add	sp, sp, #28
    9028:	e8bd8030 	pop	{r4, r5, pc}
    902c:	e3a0c014 	mov	ip, #20
    9030:	e3a02001 	mov	r2, #1
    9034:	e5940000 	ldr	r0, [r4]
    9038:	e5c3501c 	strb	r5, [r3, #28]
    903c:	e5c3c01f 	strb	ip, [r3, #31]
    9040:	e1a01003 	mov	r1, r3
    9044:	e5903000 	ldr	r3, [r0]
    9048:	e5834004 	str	r4, [r3, #4]
    904c:	e5c0201c 	strb	r2, [r0, #28]
    9050:	e5843000 	str	r3, [r4]
    9054:	e5840018 	str	r0, [r4, #24]
    9058:	ebfffc24 	bl	80f0 <_port_switch_arm>
    905c:	e5943018 	ldr	r3, [r4, #24]
    9060:	e5930024 	ldr	r0, [r3, #36]	; 0x24
    9064:	e28dd01c 	add	sp, sp, #28
    9068:	e8bd8030 	pop	{r4, r5, pc}
    906c:	0000b39c 	muleq	r0, ip, r3
    9070:	00008e40 	andeq	r8, r0, r0, asr #28
	...

00009080 <chSchWakeupS>:
    9080:	e59f2094 	ldr	r2, [pc, #148]	; 911c <chSchWakeupS+0x9c>
    9084:	e92d4010 	push	{r4, lr}
    9088:	e5924018 	ldr	r4, [r2, #24]
    908c:	e590c008 	ldr	ip, [r0, #8]
    9090:	e594e008 	ldr	lr, [r4, #8]
    9094:	e1a03002 	mov	r3, r2
    9098:	e15c000e 	cmp	ip, lr
    909c:	e5801024 	str	r1, [r0, #36]	; 0x24
    90a0:	e3a01000 	mov	r1, #0
    90a4:	8a00000b 	bhi	90d8 <chSchWakeupS+0x58>
    90a8:	e5c0101c 	strb	r1, [r0, #28]
    90ac:	e5933000 	ldr	r3, [r3]
    90b0:	e5932008 	ldr	r2, [r3, #8]
    90b4:	e15c0002 	cmp	ip, r2
    90b8:	9afffffb 	bls	90ac <chSchWakeupS+0x2c>
    90bc:	e5932004 	ldr	r2, [r3, #4]
    90c0:	e5803000 	str	r3, [r0]
    90c4:	e5802004 	str	r2, [r0, #4]
    90c8:	e5830004 	str	r0, [r3, #4]
    90cc:	e5903004 	ldr	r3, [r0, #4]
    90d0:	e5830000 	str	r0, [r3]
    90d4:	e8bd8010 	pop	{r4, pc}
    90d8:	e5c4101c 	strb	r1, [r4, #28]
    90dc:	e5933000 	ldr	r3, [r3]
    90e0:	e593c008 	ldr	ip, [r3, #8]
    90e4:	e15e000c 	cmp	lr, ip
    90e8:	9afffffb 	bls	90dc <chSchWakeupS+0x5c>
    90ec:	e3a0c001 	mov	ip, #1
    90f0:	e5931004 	ldr	r1, [r3, #4]
    90f4:	e5843000 	str	r3, [r4]
    90f8:	e5841004 	str	r1, [r4, #4]
    90fc:	e5834004 	str	r4, [r3, #4]
    9100:	e5943004 	ldr	r3, [r4, #4]
    9104:	e1a01004 	mov	r1, r4
    9108:	e5834000 	str	r4, [r3]
    910c:	e5c0c01c 	strb	ip, [r0, #28]
    9110:	e8bd4010 	pop	{r4, lr}
    9114:	e5820018 	str	r0, [r2, #24]
    9118:	eafffbf4 	b	80f0 <_port_switch_arm>
    911c:	0000b39c 	muleq	r0, ip, r3

00009120 <chSchIsPreemptionRequired>:
    9120:	e59f2038 	ldr	r2, [pc, #56]	; 9160 <chSchIsPreemptionRequired+0x40>
    9124:	e5923018 	ldr	r3, [r2, #24]
    9128:	e5921000 	ldr	r1, [r2]
    912c:	e5d3201f 	ldrb	r2, [r3, #31]
    9130:	e5910008 	ldr	r0, [r1, #8]
    9134:	e3520000 	cmp	r2, #0
    9138:	e5933008 	ldr	r3, [r3, #8]
    913c:	0a000003 	beq	9150 <chSchIsPreemptionRequired+0x30>
    9140:	e1500003 	cmp	r0, r3
    9144:	93a00000 	movls	r0, #0
    9148:	83a00001 	movhi	r0, #1
    914c:	e12fff1e 	bx	lr
    9150:	e1500003 	cmp	r0, r3
    9154:	33a00000 	movcc	r0, #0
    9158:	23a00001 	movcs	r0, #1
    915c:	e12fff1e 	bx	lr
    9160:	0000b39c 	muleq	r0, ip, r3
	...

00009170 <chSchDoRescheduleAhead>:
    9170:	e92d4010 	push	{r4, lr}
    9174:	e3a04001 	mov	r4, #1
    9178:	e3a0e000 	mov	lr, #0
    917c:	e59f2058 	ldr	r2, [pc, #88]	; 91dc <chSchDoRescheduleAhead+0x6c>
    9180:	e5920000 	ldr	r0, [r2]
    9184:	e5921018 	ldr	r1, [r2, #24]
    9188:	e590c000 	ldr	ip, [r0]
    918c:	e1a03000 	mov	r3, r0
    9190:	e58c2004 	str	r2, [ip, #4]
    9194:	e5c0401c 	strb	r4, [r0, #28]
    9198:	e582c000 	str	ip, [r2]
    919c:	e5820018 	str	r0, [r2, #24]
    91a0:	e591c008 	ldr	ip, [r1, #8]
    91a4:	e5c1e01c 	strb	lr, [r1, #28]
    91a8:	ea000000 	b	91b0 <chSchDoRescheduleAhead+0x40>
    91ac:	e5933000 	ldr	r3, [r3]
    91b0:	e5932008 	ldr	r2, [r3, #8]
    91b4:	e152000c 	cmp	r2, ip
    91b8:	8afffffb 	bhi	91ac <chSchDoRescheduleAhead+0x3c>
    91bc:	e8bd4010 	pop	{r4, lr}
    91c0:	e5932004 	ldr	r2, [r3, #4]
    91c4:	e5813000 	str	r3, [r1]
    91c8:	e5812004 	str	r2, [r1, #4]
    91cc:	e5831004 	str	r1, [r3, #4]
    91d0:	e5913004 	ldr	r3, [r1, #4]
    91d4:	e5831000 	str	r1, [r3]
    91d8:	eafffbc4 	b	80f0 <_port_switch_arm>
    91dc:	0000b39c 	muleq	r0, ip, r3

000091e0 <chSchDoReschedule>:
    91e0:	e59f3078 	ldr	r3, [pc, #120]	; 9260 <chSchDoReschedule+0x80>
    91e4:	e5931018 	ldr	r1, [r3, #24]
    91e8:	e5d1201f 	ldrb	r2, [r1, #31]
    91ec:	e3520000 	cmp	r2, #0
    91f0:	1a000019 	bne	925c <chSchDoReschedule+0x7c>
    91f4:	e5930000 	ldr	r0, [r3]
    91f8:	e52de004 	push	{lr}		; (str lr, [sp, #-4]!)
    91fc:	e590c000 	ldr	ip, [r0]
    9200:	e3a0e014 	mov	lr, #20
    9204:	e58c3004 	str	r3, [ip, #4]
    9208:	e583c000 	str	ip, [r3]
    920c:	e3a0c001 	mov	ip, #1
    9210:	e5c0c01c 	strb	ip, [r0, #28]
    9214:	e5830018 	str	r0, [r3, #24]
    9218:	e591c008 	ldr	ip, [r1, #8]
    921c:	e1a03000 	mov	r3, r0
    9220:	e5c1201c 	strb	r2, [r1, #28]
    9224:	e5c1e01f 	strb	lr, [r1, #31]
    9228:	ea000000 	b	9230 <chSchDoReschedule+0x50>
    922c:	e5933000 	ldr	r3, [r3]
    9230:	e5932008 	ldr	r2, [r3, #8]
    9234:	e152000c 	cmp	r2, ip
    9238:	2afffffb 	bcs	922c <chSchDoReschedule+0x4c>
    923c:	e5932004 	ldr	r2, [r3, #4]
    9240:	e5813000 	str	r3, [r1]
    9244:	e5812004 	str	r2, [r1, #4]
    9248:	e5831004 	str	r1, [r3, #4]
    924c:	e5913004 	ldr	r3, [r1, #4]
    9250:	e49de004 	pop	{lr}		; (ldr lr, [sp], #4)
    9254:	e5831000 	str	r1, [r3]
    9258:	eafffba4 	b	80f0 <_port_switch_arm>
    925c:	eaffffc3 	b	9170 <chSchDoRescheduleAhead>
    9260:	0000b39c 	muleq	r0, ip, r3
	...

00009270 <_thread_init>:
    9270:	e3a02000 	mov	r2, #0
    9274:	e92d4070 	push	{r4, r5, r6, lr}
    9278:	e3a04002 	mov	r4, #2
    927c:	e3a06014 	mov	r6, #20
    9280:	e3a05001 	mov	r5, #1
    9284:	e59fc04c 	ldr	ip, [pc, #76]	; 92d8 <_thread_init+0x68>
    9288:	e5801040 	str	r1, [r0, #64]	; 0x40
    928c:	e59ce014 	ldr	lr, [ip, #20]
    9290:	e580203c 	str	r2, [r0, #60]	; 0x3c
    9294:	e5801008 	str	r1, [r0, #8]
    9298:	e5802038 	str	r2, [r0, #56]	; 0x38
    929c:	e5802020 	str	r2, [r0, #32]
    92a0:	e5802018 	str	r2, [r0, #24]
    92a4:	e2801028 	add	r1, r0, #40	; 0x28
    92a8:	e280202c 	add	r2, r0, #44	; 0x2c
    92ac:	e580c010 	str	ip, [r0, #16]
    92b0:	e580e014 	str	lr, [r0, #20]
    92b4:	e5c0601f 	strb	r6, [r0, #31]
    92b8:	e5c0501e 	strb	r5, [r0, #30]
    92bc:	e58c0014 	str	r0, [ip, #20]
    92c0:	e1c041bc 	strh	r4, [r0, #28]
    92c4:	e58e0010 	str	r0, [lr, #16]
    92c8:	e5801028 	str	r1, [r0, #40]	; 0x28
    92cc:	e5802030 	str	r2, [r0, #48]	; 0x30
    92d0:	e580202c 	str	r2, [r0, #44]	; 0x2c
    92d4:	e8bd8070 	pop	{r4, r5, r6, pc}
    92d8:	0000b39c 	muleq	r0, ip, r3
    92dc:	00000000 	andeq	r0, r0, r0

000092e0 <chThdCreateStatic>:
    92e0:	e92d47f0 	push	{r4, r5, r6, r7, r8, r9, sl, lr}
    92e4:	e1a04000 	mov	r4, r0
    92e8:	e321f09f 	msr	CPSR_c, #159	; 0x9f
    92ec:	e3a09002 	mov	r9, #2
    92f0:	e241c024 	sub	ip, r1, #36	; 0x24
    92f4:	e3a08014 	mov	r8, #20
    92f8:	e3a01000 	mov	r1, #0
    92fc:	e3a07001 	mov	r7, #1
    9300:	e59fe074 	ldr	lr, [pc, #116]	; 937c <chThdCreateStatic+0x9c>
    9304:	e080500c 	add	r5, r0, ip
    9308:	e59e6014 	ldr	r6, [lr, #20]
    930c:	e59fa06c 	ldr	sl, [pc, #108]	; 9380 <chThdCreateStatic+0xa0>
    9310:	e580500c 	str	r5, [r0, #12]
    9314:	e780300c 	str	r3, [r0, ip]
    9318:	e59d3020 	ldr	r3, [sp, #32]
    931c:	e585a020 	str	sl, [r5, #32]
    9320:	e5853004 	str	r3, [r5, #4]
    9324:	e5802008 	str	r2, [r0, #8]
    9328:	e5802040 	str	r2, [r0, #64]	; 0x40
    932c:	e280302c 	add	r3, r0, #44	; 0x2c
    9330:	e2802028 	add	r2, r0, #40	; 0x28
    9334:	e580e010 	str	lr, [r0, #16]
    9338:	e5806014 	str	r6, [r0, #20]
    933c:	e1c091bc 	strh	r9, [r0, #28]
    9340:	e5c0801f 	strb	r8, [r0, #31]
    9344:	e5c0701e 	strb	r7, [r0, #30]
    9348:	e580103c 	str	r1, [r0, #60]	; 0x3c
    934c:	e5801038 	str	r1, [r0, #56]	; 0x38
    9350:	e5801020 	str	r1, [r0, #32]
    9354:	e5801018 	str	r1, [r0, #24]
    9358:	e58e0014 	str	r0, [lr, #20]
    935c:	e5860010 	str	r0, [r6, #16]
    9360:	e5802028 	str	r2, [r0, #40]	; 0x28
    9364:	e5803030 	str	r3, [r0, #48]	; 0x30
    9368:	e580302c 	str	r3, [r0, #44]	; 0x2c
    936c:	ebffff43 	bl	9080 <chSchWakeupS>
    9370:	e321f01f 	msr	CPSR_c, #31
    9374:	e1a00004 	mov	r0, r4
    9378:	e8bd87f0 	pop	{r4, r5, r6, r7, r8, r9, sl, pc}
    937c:	0000b39c 	muleq	r0, ip, r3
    9380:	00008160 	andeq	r8, r0, r0, ror #2
	...

00009390 <chThdSleep>:
    9390:	e1a01000 	mov	r1, r0
    9394:	e92d4010 	push	{r4, lr}
    9398:	e321f09f 	msr	CPSR_c, #159	; 0x9f
    939c:	e3a00006 	mov	r0, #6
    93a0:	ebffff02 	bl	8fb0 <chSchGoSleepTimeoutS>
    93a4:	e321f01f 	msr	CPSR_c, #31
    93a8:	e8bd8010 	pop	{r4, pc}
    93ac:	00000000 	andeq	r0, r0, r0

000093b0 <chThdExitS>:
    93b0:	e59f3054 	ldr	r3, [pc, #84]	; 940c <chThdExitS+0x5c>
    93b4:	e92d4070 	push	{r4, r5, r6, lr}
    93b8:	e5934018 	ldr	r4, [r3, #24]
    93bc:	e1a05004 	mov	r5, r4
    93c0:	e5840024 	str	r0, [r4, #36]	; 0x24
    93c4:	e5b50028 	ldr	r0, [r5, #40]!	; 0x28
    93c8:	e1550000 	cmp	r5, r0
    93cc:	0a000005 	beq	93e8 <chThdExitS+0x38>
    93d0:	e5903000 	ldr	r3, [r0]
    93d4:	e5843028 	str	r3, [r4, #40]	; 0x28
    93d8:	ebfffed0 	bl	8f20 <chSchReadyI>
    93dc:	e5940028 	ldr	r0, [r4, #40]	; 0x28
    93e0:	e1500005 	cmp	r0, r5
    93e4:	1afffff9 	bne	93d0 <chThdExitS+0x20>
    93e8:	e5d4301d 	ldrb	r3, [r4, #29]
    93ec:	e3a0000e 	mov	r0, #14
    93f0:	e3130003 	tst	r3, #3
    93f4:	05942014 	ldreq	r2, [r4, #20]
    93f8:	05943010 	ldreq	r3, [r4, #16]
    93fc:	e8bd4070 	pop	{r4, r5, r6, lr}
    9400:	05823010 	streq	r3, [r2, #16]
    9404:	05832014 	streq	r2, [r3, #20]
    9408:	eafffed4 	b	8f60 <chSchGoSleepS>
    940c:	0000b39c 	muleq	r0, ip, r3

00009410 <chThdExit>:
    9410:	e321f09f 	msr	CPSR_c, #159	; 0x9f
    9414:	eaffffe5 	b	93b0 <chThdExitS>
	...

00009420 <chThdWait>:
    9420:	e92d4070 	push	{r4, r5, r6, lr}
    9424:	e1a04000 	mov	r4, r0
    9428:	e321f09f 	msr	CPSR_c, #159	; 0x9f
    942c:	e5d0301c 	ldrb	r3, [r0, #28]
    9430:	e353000e 	cmp	r3, #14
    9434:	0a000006 	beq	9454 <chThdWait+0x34>
    9438:	e59f302c 	ldr	r3, [pc, #44]	; 946c <chThdWait+0x4c>
    943c:	e5902028 	ldr	r2, [r0, #40]	; 0x28
    9440:	e5933018 	ldr	r3, [r3, #24]
    9444:	e3a00007 	mov	r0, #7
    9448:	e5832000 	str	r2, [r3]
    944c:	e5843028 	str	r3, [r4, #40]	; 0x28
    9450:	ebfffec2 	bl	8f60 <chSchGoSleepS>
    9454:	e5945024 	ldr	r5, [r4, #36]	; 0x24
    9458:	e321f01f 	msr	CPSR_c, #31
    945c:	e1a00004 	mov	r0, r4
    9460:	eb000002 	bl	9470 <chThdRelease>
    9464:	e1a00005 	mov	r0, r5
    9468:	e8bd8070 	pop	{r4, r5, r6, pc}
    946c:	0000b39c 	muleq	r0, ip, r3

00009470 <chThdRelease>:
    9470:	e321f09f 	msr	CPSR_c, #159	; 0x9f
    9474:	e5d0301e 	ldrb	r3, [r0, #30]
    9478:	e2433001 	sub	r3, r3, #1
    947c:	e6ef3073 	uxtb	r3, r3
    9480:	e5c0301e 	strb	r3, [r0, #30]
    9484:	e321f01f 	msr	CPSR_c, #31
    9488:	e3530000 	cmp	r3, #0
    948c:	112fff1e 	bxne	lr
    9490:	e5d0301c 	ldrb	r3, [r0, #28]
    9494:	e353000e 	cmp	r3, #14
    9498:	112fff1e 	bxne	lr
    949c:	e5d0301d 	ldrb	r3, [r0, #29]
    94a0:	e2033003 	and	r3, r3, #3
    94a4:	e3530001 	cmp	r3, #1
    94a8:	112fff1e 	bxne	lr
    94ac:	e5901014 	ldr	r1, [r0, #20]
    94b0:	e5903010 	ldr	r3, [r0, #16]
    94b4:	e5813010 	str	r3, [r1, #16]
    94b8:	e5831014 	str	r1, [r3, #20]
    94bc:	ea000213 	b	9d10 <chHeapFree>

000094c0 <chMtxInit>:
    94c0:	e3a03000 	mov	r3, #0
    94c4:	e5800004 	str	r0, [r0, #4]
    94c8:	e5800000 	str	r0, [r0]
    94cc:	e5803008 	str	r3, [r0, #8]
    94d0:	e12fff1e 	bx	lr
	...

000094e0 <chMtxLockS>:
    94e0:	e92d4070 	push	{r4, r5, r6, lr}
    94e4:	e1a05000 	mov	r5, r0
    94e8:	e5900008 	ldr	r0, [r0, #8]
    94ec:	e59f3164 	ldr	r3, [pc, #356]	; 9658 <chMtxLockS+0x178>
    94f0:	e3500000 	cmp	r0, #0
    94f4:	e5934018 	ldr	r4, [r3, #24]
    94f8:	0a00001e 	beq	9578 <chMtxLockS+0x98>
    94fc:	e5942008 	ldr	r2, [r4, #8]
    9500:	e5903008 	ldr	r3, [r0, #8]
    9504:	e1530002 	cmp	r3, r2
    9508:	2a000007 	bcs	952c <chMtxLockS+0x4c>
    950c:	e5d0301c 	ldrb	r3, [r0, #28]
    9510:	e5802008 	str	r2, [r0, #8]
    9514:	e3530004 	cmp	r3, #4
    9518:	0a000035 	beq	95f4 <chMtxLockS+0x114>
    951c:	e3530005 	cmp	r3, #5
    9520:	0a00001f 	beq	95a4 <chMtxLockS+0xc4>
    9524:	e3530000 	cmp	r3, #0
    9528:	0a000017 	beq	958c <chMtxLockS+0xac>
    952c:	e1a03005 	mov	r3, r5
    9530:	ea000003 	b	9544 <chMtxLockS+0x64>
    9534:	e5931008 	ldr	r1, [r3, #8]
    9538:	e5942008 	ldr	r2, [r4, #8]
    953c:	e1510002 	cmp	r1, r2
    9540:	3a000002 	bcc	9550 <chMtxLockS+0x70>
    9544:	e5933000 	ldr	r3, [r3]
    9548:	e1550003 	cmp	r5, r3
    954c:	1afffff8 	bne	9534 <chMtxLockS+0x54>
    9550:	e5932004 	ldr	r2, [r3, #4]
    9554:	e5843000 	str	r3, [r4]
    9558:	e5842004 	str	r2, [r4, #4]
    955c:	e5834004 	str	r4, [r3, #4]
    9560:	e5943004 	ldr	r3, [r4, #4]
    9564:	e3a00004 	mov	r0, #4
    9568:	e5834000 	str	r4, [r3]
    956c:	e5845024 	str	r5, [r4, #36]	; 0x24
    9570:	e8bd4070 	pop	{r4, r5, r6, lr}
    9574:	eafffe79 	b	8f60 <chSchGoSleepS>
    9578:	e594303c 	ldr	r3, [r4, #60]	; 0x3c
    957c:	e5854008 	str	r4, [r5, #8]
    9580:	e585300c 	str	r3, [r5, #12]
    9584:	e584503c 	str	r5, [r4, #60]	; 0x3c
    9588:	e8bd8070 	pop	{r4, r5, r6, pc}
    958c:	e5902004 	ldr	r2, [r0, #4]
    9590:	e5903000 	ldr	r3, [r0]
    9594:	e5823000 	str	r3, [r2]
    9598:	e5832004 	str	r2, [r3, #4]
    959c:	ebfffe5f 	bl	8f20 <chSchReadyI>
    95a0:	eaffffe1 	b	952c <chMtxLockS+0x4c>
    95a4:	e590c024 	ldr	ip, [r0, #36]	; 0x24
    95a8:	e5903000 	ldr	r3, [r0]
    95ac:	e5901004 	ldr	r1, [r0, #4]
    95b0:	e5813000 	str	r3, [r1]
    95b4:	e5831004 	str	r1, [r3, #4]
    95b8:	e1a0300c 	mov	r3, ip
    95bc:	ea000002 	b	95cc <chMtxLockS+0xec>
    95c0:	e5931008 	ldr	r1, [r3, #8]
    95c4:	e1520001 	cmp	r2, r1
    95c8:	8a000002 	bhi	95d8 <chMtxLockS+0xf8>
    95cc:	e5933000 	ldr	r3, [r3]
    95d0:	e15c0003 	cmp	ip, r3
    95d4:	1afffff9 	bne	95c0 <chMtxLockS+0xe0>
    95d8:	e5932004 	ldr	r2, [r3, #4]
    95dc:	e5803000 	str	r3, [r0]
    95e0:	e5802004 	str	r2, [r0, #4]
    95e4:	e5830004 	str	r0, [r3, #4]
    95e8:	e5903004 	ldr	r3, [r0, #4]
    95ec:	e5830000 	str	r0, [r3]
    95f0:	eaffffcd 	b	952c <chMtxLockS+0x4c>
    95f4:	e590c024 	ldr	ip, [r0, #36]	; 0x24
    95f8:	e5903000 	ldr	r3, [r0]
    95fc:	e5901004 	ldr	r1, [r0, #4]
    9600:	e5813000 	str	r3, [r1]
    9604:	e5831004 	str	r1, [r3, #4]
    9608:	e1a0300c 	mov	r3, ip
    960c:	ea000002 	b	961c <chMtxLockS+0x13c>
    9610:	e5931008 	ldr	r1, [r3, #8]
    9614:	e1520001 	cmp	r2, r1
    9618:	8a000002 	bhi	9628 <chMtxLockS+0x148>
    961c:	e5933000 	ldr	r3, [r3]
    9620:	e15c0003 	cmp	ip, r3
    9624:	1afffff9 	bne	9610 <chMtxLockS+0x130>
    9628:	e5932004 	ldr	r2, [r3, #4]
    962c:	e5803000 	str	r3, [r0]
    9630:	e5802004 	str	r2, [r0, #4]
    9634:	e5830004 	str	r0, [r3, #4]
    9638:	e5903004 	ldr	r3, [r0, #4]
    963c:	e5942008 	ldr	r2, [r4, #8]
    9640:	e5830000 	str	r0, [r3]
    9644:	e59c0008 	ldr	r0, [ip, #8]
    9648:	e5903008 	ldr	r3, [r0, #8]
    964c:	e1530002 	cmp	r3, r2
    9650:	3affffad 	bcc	950c <chMtxLockS+0x2c>
    9654:	eaffffb4 	b	952c <chMtxLockS+0x4c>
    9658:	0000b39c 	muleq	r0, ip, r3
    965c:	00000000 	andeq	r0, r0, r0

00009660 <chMtxLock>:
    9660:	e92d4010 	push	{r4, lr}
    9664:	e321f09f 	msr	CPSR_c, #159	; 0x9f
    9668:	ebffff9c 	bl	94e0 <chMtxLockS>
    966c:	e321f01f 	msr	CPSR_c, #31
    9670:	e8bd8010 	pop	{r4, pc}
	...

00009680 <chMtxUnlock>:
    9680:	e59f3090 	ldr	r3, [pc, #144]	; 9718 <chMtxUnlock+0x98>
    9684:	e92d4010 	push	{r4, lr}
    9688:	e593c018 	ldr	ip, [r3, #24]
    968c:	e321f09f 	msr	CPSR_c, #159	; 0x9f
    9690:	e59c403c 	ldr	r4, [ip, #60]	; 0x3c
    9694:	e5940000 	ldr	r0, [r4]
    9698:	e594300c 	ldr	r3, [r4, #12]
    969c:	e1500004 	cmp	r0, r4
    96a0:	e58c303c 	str	r3, [ip, #60]	; 0x3c
    96a4:	0a000018 	beq	970c <chMtxUnlock+0x8c>
    96a8:	e3530000 	cmp	r3, #0
    96ac:	e59c1040 	ldr	r1, [ip, #64]	; 0x40
    96b0:	0a000008 	beq	96d8 <chMtxUnlock+0x58>
    96b4:	e5932000 	ldr	r2, [r3]
    96b8:	e1520003 	cmp	r2, r3
    96bc:	0a000002 	beq	96cc <chMtxUnlock+0x4c>
    96c0:	e5922008 	ldr	r2, [r2, #8]
    96c4:	e1510002 	cmp	r1, r2
    96c8:	31a01002 	movcc	r1, r2
    96cc:	e593300c 	ldr	r3, [r3, #12]
    96d0:	e3530000 	cmp	r3, #0
    96d4:	1afffff6 	bne	96b4 <chMtxUnlock+0x34>
    96d8:	e5903000 	ldr	r3, [r0]
    96dc:	e590203c 	ldr	r2, [r0, #60]	; 0x3c
    96e0:	e58c1008 	str	r1, [ip, #8]
    96e4:	e5843000 	str	r3, [r4]
    96e8:	e3a01000 	mov	r1, #0
    96ec:	e5834004 	str	r4, [r3, #4]
    96f0:	e5840008 	str	r0, [r4, #8]
    96f4:	e584200c 	str	r2, [r4, #12]
    96f8:	e580403c 	str	r4, [r0, #60]	; 0x3c
    96fc:	ebfffe5f 	bl	9080 <chSchWakeupS>
    9700:	e321f01f 	msr	CPSR_c, #31
    9704:	e1a00004 	mov	r0, r4
    9708:	e8bd8010 	pop	{r4, pc}
    970c:	e3a03000 	mov	r3, #0
    9710:	e5843008 	str	r3, [r4, #8]
    9714:	eafffff9 	b	9700 <chMtxUnlock+0x80>
    9718:	0000b39c 	muleq	r0, ip, r3
    971c:	00000000 	andeq	r0, r0, r0

00009720 <chEvtBroadcastFlagsI>:
    9720:	e92d41f0 	push	{r4, r5, r6, r7, r8, lr}
    9724:	e5904000 	ldr	r4, [r0]
    9728:	e1500004 	cmp	r0, r4
    972c:	08bd81f0 	popeq	{r4, r5, r6, r7, r8, pc}
    9730:	e1a06000 	mov	r6, r0
    9734:	e1a07001 	mov	r7, r1
    9738:	e3a05000 	mov	r5, #0
    973c:	ea000004 	b	9754 <chEvtBroadcastFlagsI+0x34>
    9740:	e3520009 	cmp	r2, #9
    9744:	0a000013 	beq	9798 <chEvtBroadcastFlagsI+0x78>
    9748:	e5944000 	ldr	r4, [r4]
    974c:	e1560004 	cmp	r6, r4
    9750:	08bd81f0 	popeq	{r4, r5, r6, r7, r8, pc}
    9754:	e594300c 	ldr	r3, [r4, #12]
    9758:	e5940004 	ldr	r0, [r4, #4]
    975c:	e1833007 	orr	r3, r3, r7
    9760:	e584300c 	str	r3, [r4, #12]
    9764:	e590c038 	ldr	ip, [r0, #56]	; 0x38
    9768:	e5943008 	ldr	r3, [r4, #8]
    976c:	e5d0201c 	ldrb	r2, [r0, #28]
    9770:	e183300c 	orr	r3, r3, ip
    9774:	e3520008 	cmp	r2, #8
    9778:	e5803038 	str	r3, [r0, #56]	; 0x38
    977c:	1affffef 	bne	9740 <chEvtBroadcastFlagsI+0x20>
    9780:	e5902024 	ldr	r2, [r0, #36]	; 0x24
    9784:	e1130002 	tst	r3, r2
    9788:	0affffee 	beq	9748 <chEvtBroadcastFlagsI+0x28>
    978c:	ebfffde3 	bl	8f20 <chSchReadyI>
    9790:	e5805024 	str	r5, [r0, #36]	; 0x24
    9794:	eaffffeb 	b	9748 <chEvtBroadcastFlagsI+0x28>
    9798:	e5902024 	ldr	r2, [r0, #36]	; 0x24
    979c:	e1d22003 	bics	r2, r2, r3
    97a0:	1affffe8 	bne	9748 <chEvtBroadcastFlagsI+0x28>
    97a4:	eafffff8 	b	978c <chEvtBroadcastFlagsI+0x6c>
	...

000097b0 <chIQInit>:
    97b0:	e52de004 	push	{lr}		; (str lr, [sp, #-4]!)
    97b4:	e3a0e000 	mov	lr, #0
    97b8:	e59dc004 	ldr	ip, [sp, #4]
    97bc:	e0812002 	add	r2, r1, r2
    97c0:	e580e008 	str	lr, [r0, #8]
    97c4:	e5800004 	str	r0, [r0, #4]
    97c8:	e5800000 	str	r0, [r0]
    97cc:	e5801014 	str	r1, [r0, #20]
    97d0:	e5801018 	str	r1, [r0, #24]
    97d4:	e580100c 	str	r1, [r0, #12]
    97d8:	e5802010 	str	r2, [r0, #16]
    97dc:	e580301c 	str	r3, [r0, #28]
    97e0:	e580c020 	str	ip, [r0, #32]
    97e4:	e49df004 	pop	{pc}		; (ldr pc, [sp], #4)
	...

000097f0 <chIQPutI>:
    97f0:	e1a03000 	mov	r3, r0
    97f4:	e5900014 	ldr	r0, [r0, #20]
    97f8:	e593c018 	ldr	ip, [r3, #24]
    97fc:	e5932008 	ldr	r2, [r3, #8]
    9800:	e150000c 	cmp	r0, ip
    9804:	0a000018 	beq	986c <chIQPutI+0x7c>
    9808:	e2822001 	add	r2, r2, #1
    980c:	e280c001 	add	ip, r0, #1
    9810:	e583c014 	str	ip, [r3, #20]
    9814:	e5832008 	str	r2, [r3, #8]
    9818:	e5c01000 	strb	r1, [r0]
    981c:	e5932010 	ldr	r2, [r3, #16]
    9820:	e5931014 	ldr	r1, [r3, #20]
    9824:	e5930000 	ldr	r0, [r3]
    9828:	e1510002 	cmp	r1, r2
    982c:	2593200c 	ldrcs	r2, [r3, #12]
    9830:	25832014 	strcs	r2, [r3, #20]
    9834:	e1500003 	cmp	r0, r3
    9838:	0a000009 	beq	9864 <chIQPutI+0x74>
    983c:	e5902000 	ldr	r2, [r0]
    9840:	e92d4010 	push	{r4, lr}
    9844:	e5832000 	str	r2, [r3]
    9848:	e5823004 	str	r3, [r2, #4]
    984c:	ebfffdb3 	bl	8f20 <chSchReadyI>
    9850:	e3a02000 	mov	r2, #0
    9854:	e1a03000 	mov	r3, r0
    9858:	e1a00002 	mov	r0, r2
    985c:	e5832024 	str	r2, [r3, #36]	; 0x24
    9860:	e8bd8010 	pop	{r4, pc}
    9864:	e3a00000 	mov	r0, #0
    9868:	e12fff1e 	bx	lr
    986c:	e3520000 	cmp	r2, #0
    9870:	0affffe4 	beq	9808 <chIQPutI+0x18>
    9874:	e3e00003 	mvn	r0, #3
    9878:	e12fff1e 	bx	lr
    987c:	00000000 	andeq	r0, r0, r0

00009880 <chIQGetTimeout>:
    9880:	e92d4070 	push	{r4, r5, r6, lr}
    9884:	e1a04000 	mov	r4, r0
    9888:	e1a05001 	mov	r5, r1
    988c:	e321f09f 	msr	CPSR_c, #159	; 0x9f
    9890:	e590301c 	ldr	r3, [r0, #28]
    9894:	e3530000 	cmp	r3, #0
    9898:	0a000000 	beq	98a0 <chIQGetTimeout+0x20>
    989c:	e12fff33 	blx	r3
    98a0:	e59f6080 	ldr	r6, [pc, #128]	; 9928 <chIQGetTimeout+0xa8>
    98a4:	ea00000d 	b	98e0 <chIQGetTimeout+0x60>
    98a8:	e3550000 	cmp	r5, #0
    98ac:	0a00001a 	beq	991c <chIQGetTimeout+0x9c>
    98b0:	e5963018 	ldr	r3, [r6, #24]
    98b4:	e5942004 	ldr	r2, [r4, #4]
    98b8:	e1a01005 	mov	r1, r5
    98bc:	e5834024 	str	r4, [r3, #36]	; 0x24
    98c0:	e5834000 	str	r4, [r3]
    98c4:	e5832004 	str	r2, [r3, #4]
    98c8:	e3a0000d 	mov	r0, #13
    98cc:	e5843004 	str	r3, [r4, #4]
    98d0:	e5823000 	str	r3, [r2]
    98d4:	ebfffdb5 	bl	8fb0 <chSchGoSleepTimeoutS>
    98d8:	e3500000 	cmp	r0, #0
    98dc:	ba00000c 	blt	9914 <chIQGetTimeout+0x94>
    98e0:	e5943008 	ldr	r3, [r4, #8]
    98e4:	e3530000 	cmp	r3, #0
    98e8:	0affffee 	beq	98a8 <chIQGetTimeout+0x28>
    98ec:	e5941018 	ldr	r1, [r4, #24]
    98f0:	e2433001 	sub	r3, r3, #1
    98f4:	e5843008 	str	r3, [r4, #8]
    98f8:	e5943010 	ldr	r3, [r4, #16]
    98fc:	e2812001 	add	r2, r1, #1
    9900:	e1520003 	cmp	r2, r3
    9904:	2594300c 	ldrcs	r3, [r4, #12]
    9908:	e5842018 	str	r2, [r4, #24]
    990c:	e5d10000 	ldrb	r0, [r1]
    9910:	25843018 	strcs	r3, [r4, #24]
    9914:	e321f01f 	msr	CPSR_c, #31
    9918:	e8bd8070 	pop	{r4, r5, r6, pc}
    991c:	e3e00000 	mvn	r0, #0
    9920:	e321f01f 	msr	CPSR_c, #31
    9924:	e8bd8070 	pop	{r4, r5, r6, pc}
    9928:	0000b39c 	muleq	r0, ip, r3
    992c:	00000000 	andeq	r0, r0, r0

00009930 <chIQReadTimeout>:
    9930:	e92d47f0 	push	{r4, r5, r6, r7, r8, r9, sl, lr}
    9934:	e1a04000 	mov	r4, r0
    9938:	e1a07001 	mov	r7, r1
    993c:	e1a09002 	mov	r9, r2
    9940:	e1a0a003 	mov	sl, r3
    9944:	e590801c 	ldr	r8, [r0, #28]
    9948:	e321f09f 	msr	CPSR_c, #159	; 0x9f
    994c:	e3a06000 	mov	r6, #0
    9950:	e59f50a4 	ldr	r5, [pc, #164]	; 99fc <chIQReadTimeout+0xcc>
    9954:	e3580000 	cmp	r8, #0
    9958:	0a00000f 	beq	999c <chIQReadTimeout+0x6c>
    995c:	e1a00004 	mov	r0, r4
    9960:	e12fff38 	blx	r8
    9964:	ea00000c 	b	999c <chIQReadTimeout+0x6c>
    9968:	e35a0000 	cmp	sl, #0
    996c:	0a00001f 	beq	99f0 <chIQReadTimeout+0xc0>
    9970:	e595c018 	ldr	ip, [r5, #24]
    9974:	e594e004 	ldr	lr, [r4, #4]
    9978:	e1a0100a 	mov	r1, sl
    997c:	e88c4010 	stm	ip, {r4, lr}
    9980:	e58c4024 	str	r4, [ip, #36]	; 0x24
    9984:	e3a0000d 	mov	r0, #13
    9988:	e584c004 	str	ip, [r4, #4]
    998c:	e58ec000 	str	ip, [lr]
    9990:	ebfffd86 	bl	8fb0 <chSchGoSleepTimeoutS>
    9994:	e3500000 	cmp	r0, #0
    9998:	1a000014 	bne	99f0 <chIQReadTimeout+0xc0>
    999c:	e5942008 	ldr	r2, [r4, #8]
    99a0:	e3520000 	cmp	r2, #0
    99a4:	0affffef 	beq	9968 <chIQReadTimeout+0x38>
    99a8:	e5943018 	ldr	r3, [r4, #24]
    99ac:	e2422001 	sub	r2, r2, #1
    99b0:	e5842008 	str	r2, [r4, #8]
    99b4:	e2832001 	add	r2, r3, #1
    99b8:	e5842018 	str	r2, [r4, #24]
    99bc:	e5d33000 	ldrb	r3, [r3]
    99c0:	e4c73001 	strb	r3, [r7], #1
    99c4:	e5943010 	ldr	r3, [r4, #16]
    99c8:	e5942018 	ldr	r2, [r4, #24]
    99cc:	e1520003 	cmp	r2, r3
    99d0:	2594300c 	ldrcs	r3, [r4, #12]
    99d4:	25843018 	strcs	r3, [r4, #24]
    99d8:	e321f01f 	msr	CPSR_c, #31
    99dc:	e2866001 	add	r6, r6, #1
    99e0:	e1590006 	cmp	r9, r6
    99e4:	0a000002 	beq	99f4 <chIQReadTimeout+0xc4>
    99e8:	e321f09f 	msr	CPSR_c, #159	; 0x9f
    99ec:	eaffffd8 	b	9954 <chIQReadTimeout+0x24>
    99f0:	e321f01f 	msr	CPSR_c, #31
    99f4:	e1a00006 	mov	r0, r6
    99f8:	e8bd87f0 	pop	{r4, r5, r6, r7, r8, r9, sl, pc}
    99fc:	0000b39c 	muleq	r0, ip, r3

00009a00 <chOQInit>:
    9a00:	e59dc000 	ldr	ip, [sp]
    9a04:	e5802008 	str	r2, [r0, #8]
    9a08:	e0812002 	add	r2, r1, r2
    9a0c:	e580301c 	str	r3, [r0, #28]
    9a10:	e5800004 	str	r0, [r0, #4]
    9a14:	e5800000 	str	r0, [r0]
    9a18:	e5802010 	str	r2, [r0, #16]
    9a1c:	e5801014 	str	r1, [r0, #20]
    9a20:	e5801018 	str	r1, [r0, #24]
    9a24:	e580100c 	str	r1, [r0, #12]
    9a28:	e580c020 	str	ip, [r0, #32]
    9a2c:	e12fff1e 	bx	lr

00009a30 <chOQPutTimeout>:
    9a30:	e92d41f0 	push	{r4, r5, r6, r7, r8, lr}
    9a34:	e1a04000 	mov	r4, r0
    9a38:	e1a06001 	mov	r6, r1
    9a3c:	e1a05002 	mov	r5, r2
    9a40:	e321f09f 	msr	CPSR_c, #159	; 0x9f
    9a44:	e59f7098 	ldr	r7, [pc, #152]	; 9ae4 <chOQPutTimeout+0xb4>
    9a48:	ea00000c 	b	9a80 <chOQPutTimeout+0x50>
    9a4c:	e3550000 	cmp	r5, #0
    9a50:	0a000020 	beq	9ad8 <chOQPutTimeout+0xa8>
    9a54:	e5973018 	ldr	r3, [r7, #24]
    9a58:	e594c004 	ldr	ip, [r4, #4]
    9a5c:	e1a01005 	mov	r1, r5
    9a60:	e8831010 	stm	r3, {r4, ip}
    9a64:	e5834024 	str	r4, [r3, #36]	; 0x24
    9a68:	e3a0000d 	mov	r0, #13
    9a6c:	e5843004 	str	r3, [r4, #4]
    9a70:	e58c3000 	str	r3, [ip]
    9a74:	ebfffd4d 	bl	8fb0 <chSchGoSleepTimeoutS>
    9a78:	e3500000 	cmp	r0, #0
    9a7c:	ba000016 	blt	9adc <chOQPutTimeout+0xac>
    9a80:	e5943008 	ldr	r3, [r4, #8]
    9a84:	e3530000 	cmp	r3, #0
    9a88:	0affffef 	beq	9a4c <chOQPutTimeout+0x1c>
    9a8c:	e5942014 	ldr	r2, [r4, #20]
    9a90:	e2433001 	sub	r3, r3, #1
    9a94:	e2821001 	add	r1, r2, #1
    9a98:	e5841014 	str	r1, [r4, #20]
    9a9c:	e5843008 	str	r3, [r4, #8]
    9aa0:	e5c26000 	strb	r6, [r2]
    9aa4:	e5943010 	ldr	r3, [r4, #16]
    9aa8:	e5942014 	ldr	r2, [r4, #20]
    9aac:	e1520003 	cmp	r2, r3
    9ab0:	2594300c 	ldrcs	r3, [r4, #12]
    9ab4:	25843014 	strcs	r3, [r4, #20]
    9ab8:	e594301c 	ldr	r3, [r4, #28]
    9abc:	e3530000 	cmp	r3, #0
    9ac0:	0a000001 	beq	9acc <chOQPutTimeout+0x9c>
    9ac4:	e1a00004 	mov	r0, r4
    9ac8:	e12fff33 	blx	r3
    9acc:	e321f01f 	msr	CPSR_c, #31
    9ad0:	e3a00000 	mov	r0, #0
    9ad4:	e8bd81f0 	pop	{r4, r5, r6, r7, r8, pc}
    9ad8:	e3e00000 	mvn	r0, #0
    9adc:	e321f01f 	msr	CPSR_c, #31
    9ae0:	e8bd81f0 	pop	{r4, r5, r6, r7, r8, pc}
    9ae4:	0000b39c 	muleq	r0, ip, r3
	...

00009af0 <chOQGetI>:
    9af0:	e1a03000 	mov	r3, r0
    9af4:	e1c001d4 	ldrd	r0, [r0, #20]
    9af8:	e1500001 	cmp	r0, r1
    9afc:	e5932008 	ldr	r2, [r3, #8]
    9b00:	0a000014 	beq	9b58 <chOQGetI+0x68>
    9b04:	e92d4010 	push	{r4, lr}
    9b08:	e593c010 	ldr	ip, [r3, #16]
    9b0c:	e2810001 	add	r0, r1, #1
    9b10:	e150000c 	cmp	r0, ip
    9b14:	e2822001 	add	r2, r2, #1
    9b18:	e5830018 	str	r0, [r3, #24]
    9b1c:	e5832008 	str	r2, [r3, #8]
    9b20:	e5930000 	ldr	r0, [r3]
    9b24:	2593200c 	ldrcs	r2, [r3, #12]
    9b28:	e5d14000 	ldrb	r4, [r1]
    9b2c:	25832018 	strcs	r2, [r3, #24]
    9b30:	e1500003 	cmp	r0, r3
    9b34:	0a000005 	beq	9b50 <chOQGetI+0x60>
    9b38:	e5902000 	ldr	r2, [r0]
    9b3c:	e5832000 	str	r2, [r3]
    9b40:	e5823004 	str	r3, [r2, #4]
    9b44:	ebfffcf5 	bl	8f20 <chSchReadyI>
    9b48:	e3a03000 	mov	r3, #0
    9b4c:	e5803024 	str	r3, [r0, #36]	; 0x24
    9b50:	e1a00004 	mov	r0, r4
    9b54:	e8bd8010 	pop	{r4, pc}
    9b58:	e3520000 	cmp	r2, #0
    9b5c:	0affffe8 	beq	9b04 <chOQGetI+0x14>
    9b60:	e3e00002 	mvn	r0, #2
    9b64:	e12fff1e 	bx	lr
	...

00009b70 <chOQWriteTimeout>:
    9b70:	e92d47f0 	push	{r4, r5, r6, r7, r8, r9, sl, lr}
    9b74:	e1a04000 	mov	r4, r0
    9b78:	e1a05001 	mov	r5, r1
    9b7c:	e1a06002 	mov	r6, r2
    9b80:	e1a09003 	mov	r9, r3
    9b84:	e590801c 	ldr	r8, [r0, #28]
    9b88:	e321f09f 	msr	CPSR_c, #159	; 0x9f
    9b8c:	e3a07000 	mov	r7, #0
    9b90:	e59fa0b0 	ldr	sl, [pc, #176]	; 9c48 <chOQWriteTimeout+0xd8>
    9b94:	e5940008 	ldr	r0, [r4, #8]
    9b98:	e3500000 	cmp	r0, #0
    9b9c:	e2402001 	sub	r2, r0, #1
    9ba0:	0a000017 	beq	9c04 <chOQWriteTimeout+0x94>
    9ba4:	e5943014 	ldr	r3, [r4, #20]
    9ba8:	e5842008 	str	r2, [r4, #8]
    9bac:	e2832001 	add	r2, r3, #1
    9bb0:	e5842014 	str	r2, [r4, #20]
    9bb4:	e4d52001 	ldrb	r2, [r5], #1
    9bb8:	e5c32000 	strb	r2, [r3]
    9bbc:	e5943010 	ldr	r3, [r4, #16]
    9bc0:	e5942014 	ldr	r2, [r4, #20]
    9bc4:	e1520003 	cmp	r2, r3
    9bc8:	2594300c 	ldrcs	r3, [r4, #12]
    9bcc:	25843014 	strcs	r3, [r4, #20]
    9bd0:	e3580000 	cmp	r8, #0
    9bd4:	0a000001 	beq	9be0 <chOQWriteTimeout+0x70>
    9bd8:	e1a00004 	mov	r0, r4
    9bdc:	e12fff38 	blx	r8
    9be0:	e321f01f 	msr	CPSR_c, #31
    9be4:	e2566001 	subs	r6, r6, #1
    9be8:	e2877001 	add	r7, r7, #1
    9bec:	0a000013 	beq	9c40 <chOQWriteTimeout+0xd0>
    9bf0:	e321f09f 	msr	CPSR_c, #159	; 0x9f
    9bf4:	e5940008 	ldr	r0, [r4, #8]
    9bf8:	e3500000 	cmp	r0, #0
    9bfc:	e2402001 	sub	r2, r0, #1
    9c00:	1affffe7 	bne	9ba4 <chOQWriteTimeout+0x34>
    9c04:	e3590000 	cmp	r9, #0
    9c08:	0a00000b 	beq	9c3c <chOQWriteTimeout+0xcc>
    9c0c:	e59a3018 	ldr	r3, [sl, #24]
    9c10:	e5942004 	ldr	r2, [r4, #4]
    9c14:	e1a01009 	mov	r1, r9
    9c18:	e5834024 	str	r4, [r3, #36]	; 0x24
    9c1c:	e5834000 	str	r4, [r3]
    9c20:	e5832004 	str	r2, [r3, #4]
    9c24:	e3a0000d 	mov	r0, #13
    9c28:	e5843004 	str	r3, [r4, #4]
    9c2c:	e5823000 	str	r3, [r2]
    9c30:	ebfffcde 	bl	8fb0 <chSchGoSleepTimeoutS>
    9c34:	e3500000 	cmp	r0, #0
    9c38:	0affffd5 	beq	9b94 <chOQWriteTimeout+0x24>
    9c3c:	e321f01f 	msr	CPSR_c, #31
    9c40:	e1a00007 	mov	r0, r7
    9c44:	e8bd87f0 	pop	{r4, r5, r6, r7, r8, r9, sl, pc}
    9c48:	0000b39c 	muleq	r0, ip, r3
    9c4c:	00000000 	andeq	r0, r0, r0

00009c50 <_core_init>:
    9c50:	e59f201c 	ldr	r2, [pc, #28]	; 9c74 <_core_init+0x24>
    9c54:	e59f301c 	ldr	r3, [pc, #28]	; 9c78 <_core_init+0x28>
    9c58:	e59f001c 	ldr	r0, [pc, #28]	; 9c7c <_core_init+0x2c>
    9c5c:	e59f101c 	ldr	r1, [pc, #28]	; 9c80 <_core_init+0x30>
    9c60:	e3c22003 	bic	r2, r2, #3
    9c64:	e3c33003 	bic	r3, r3, #3
    9c68:	e5802000 	str	r2, [r0]
    9c6c:	e5813000 	str	r3, [r1]
    9c70:	e12fff1e 	bx	lr
    9c74:	0000b607 	andeq	fp, r0, r7, lsl #12
    9c78:	06007b44 	streq	r7, [r0], -r4, asr #22
    9c7c:	0000b3bc 			; <UNDEFINED> instruction: 0x0000b3bc
    9c80:	0000b3b8 			; <UNDEFINED> instruction: 0x0000b3b8
	...

00009c90 <chCoreAlloc>:
    9c90:	e1a03000 	mov	r3, r0
    9c94:	e321f09f 	msr	CPSR_c, #159	; 0x9f
    9c98:	e59f102c 	ldr	r1, [pc, #44]	; 9ccc <chCoreAlloc+0x3c>
    9c9c:	e59f202c 	ldr	r2, [pc, #44]	; 9cd0 <chCoreAlloc+0x40>
    9ca0:	e5910000 	ldr	r0, [r1]
    9ca4:	e5922000 	ldr	r2, [r2]
    9ca8:	e2833003 	add	r3, r3, #3
    9cac:	e3c33003 	bic	r3, r3, #3
    9cb0:	e0422000 	sub	r2, r2, r0
    9cb4:	e1530002 	cmp	r3, r2
    9cb8:	90803003 	addls	r3, r0, r3
    9cbc:	83a00000 	movhi	r0, #0
    9cc0:	95813000 	strls	r3, [r1]
    9cc4:	e321f01f 	msr	CPSR_c, #31
    9cc8:	e12fff1e 	bx	lr
    9ccc:	0000b3bc 			; <UNDEFINED> instruction: 0x0000b3bc
    9cd0:	0000b3b8 			; <UNDEFINED> instruction: 0x0000b3b8
	...

00009ce0 <_heap_init>:
    9ce0:	e3a02000 	mov	r2, #0
    9ce4:	e59f3010 	ldr	r3, [pc, #16]	; 9cfc <_heap_init+0x1c>
    9ce8:	e59f1010 	ldr	r1, [pc, #16]	; 9d00 <_heap_init+0x20>
    9cec:	e283000c 	add	r0, r3, #12
    9cf0:	e8830006 	stm	r3, {r1, r2}
    9cf4:	e5832008 	str	r2, [r3, #8]
    9cf8:	eafffdf0 	b	94c0 <chMtxInit>
    9cfc:	0000b3c0 	andeq	fp, r0, r0, asr #7
    9d00:	00009c90 	muleq	r0, r0, ip
	...

00009d10 <chHeapFree>:
    9d10:	e92d4070 	push	{r4, r5, r6, lr}
    9d14:	e1a06000 	mov	r6, r0
    9d18:	e5100008 	ldr	r0, [r0, #-8]
    9d1c:	e2464008 	sub	r4, r6, #8
    9d20:	e2805004 	add	r5, r0, #4
    9d24:	e280000c 	add	r0, r0, #12
    9d28:	ebfffe4c 	bl	9660 <chMtxLock>
    9d2c:	e1a03005 	mov	r3, r5
    9d30:	e0432005 	sub	r2, r3, r5
    9d34:	e16f2f12 	clz	r2, r2
    9d38:	e1a022a2 	lsr	r2, r2, #5
    9d3c:	e1530004 	cmp	r3, r4
    9d40:	33822001 	orrcc	r2, r2, #1
    9d44:	e3520000 	cmp	r2, #0
    9d48:	e1a01003 	mov	r1, r3
    9d4c:	e5933000 	ldr	r3, [r3]
    9d50:	0afffff6 	beq	9d30 <chHeapFree+0x20>
    9d54:	e3530000 	cmp	r3, #0
    9d58:	0a000001 	beq	9d64 <chHeapFree+0x54>
    9d5c:	e1540003 	cmp	r4, r3
    9d60:	2afffff2 	bcs	9d30 <chHeapFree+0x20>
    9d64:	e5063008 	str	r3, [r6, #-8]
    9d68:	e5163004 	ldr	r3, [r6, #-4]
    9d6c:	e5814000 	str	r4, [r1]
    9d70:	e5162008 	ldr	r2, [r6, #-8]
    9d74:	e0860003 	add	r0, r6, r3
    9d78:	e1520000 	cmp	r2, r0
    9d7c:	05920004 	ldreq	r0, [r2, #4]
    9d80:	02833008 	addeq	r3, r3, #8
    9d84:	05922000 	ldreq	r2, [r2]
    9d88:	00803003 	addeq	r3, r0, r3
    9d8c:	014620f8 	strdeq	r2, [r6, #-8]
    9d90:	e5912004 	ldr	r2, [r1, #4]
    9d94:	e2823008 	add	r3, r2, #8
    9d98:	e0813003 	add	r3, r1, r3
    9d9c:	e1540003 	cmp	r4, r3
    9da0:	09160009 	ldmdbeq	r6, {r0, r3}
    9da4:	02833008 	addeq	r3, r3, #8
    9da8:	00833002 	addeq	r3, r3, r2
    9dac:	08810009 	stmeq	r1, {r0, r3}
    9db0:	e8bd4070 	pop	{r4, r5, r6, lr}
    9db4:	eafffe31 	b	9680 <chMtxUnlock>
	...

00009dc0 <halInit>:
    9dc0:	e92d4010 	push	{r4, lr}
    9dc4:	eb0000c5 	bl	a0e0 <hal_lld_init>
    9dc8:	eb0000a0 	bl	a050 <tmInit>
    9dcc:	e59f0014 	ldr	r0, [pc, #20]	; 9de8 <halInit+0x28>
    9dd0:	eb0000d6 	bl	a130 <_pal_lld_init>
    9dd4:	eb000005 	bl	9df0 <i2cInit>
    9dd8:	eb000030 	bl	9ea0 <sdInit>
    9ddc:	eb00007b 	bl	9fd0 <spiInit>
    9de0:	e8bd4010 	pop	{r4, lr}
    9de4:	ea0002d5 	b	a940 <boardInit>
    9de8:	0000b280 	andeq	fp, r0, r0, lsl #5
    9dec:	00000000 	andeq	r0, r0, r0

00009df0 <i2cInit>:
    9df0:	ea000242 	b	a700 <i2c_lld_init>
	...

00009e00 <i2cObjectInit>:
    9e00:	e3a02001 	mov	r2, #1
    9e04:	e3a03000 	mov	r3, #0
    9e08:	e5c02000 	strb	r2, [r0]
    9e0c:	e5803004 	str	r3, [r0, #4]
    9e10:	e2800010 	add	r0, r0, #16
    9e14:	eafffda9 	b	94c0 <chMtxInit>
	...

00009e20 <readt>:
    9e20:	e280000c 	add	r0, r0, #12
    9e24:	eafffec1 	b	9930 <chIQReadTimeout>
	...

00009e30 <read>:
    9e30:	e3e03000 	mvn	r3, #0
    9e34:	e280000c 	add	r0, r0, #12
    9e38:	eafffebc 	b	9930 <chIQReadTimeout>
    9e3c:	00000000 	andeq	r0, r0, r0

00009e40 <writet>:
    9e40:	e2800030 	add	r0, r0, #48	; 0x30
    9e44:	eaffff49 	b	9b70 <chOQWriteTimeout>
	...

00009e50 <write>:
    9e50:	e3e03000 	mvn	r3, #0
    9e54:	e2800030 	add	r0, r0, #48	; 0x30
    9e58:	eaffff44 	b	9b70 <chOQWriteTimeout>
    9e5c:	00000000 	andeq	r0, r0, r0

00009e60 <gett>:
    9e60:	e280000c 	add	r0, r0, #12
    9e64:	eafffe85 	b	9880 <chIQGetTimeout>
	...

00009e70 <get>:
    9e70:	e3e01000 	mvn	r1, #0
    9e74:	e280000c 	add	r0, r0, #12
    9e78:	eafffe80 	b	9880 <chIQGetTimeout>
    9e7c:	00000000 	andeq	r0, r0, r0

00009e80 <putt>:
    9e80:	e2800030 	add	r0, r0, #48	; 0x30
    9e84:	eafffee9 	b	9a30 <chOQPutTimeout>
	...

00009e90 <put>:
    9e90:	e3e02000 	mvn	r2, #0
    9e94:	e2800030 	add	r0, r0, #48	; 0x30
    9e98:	eafffee4 	b	9a30 <chOQPutTimeout>
    9e9c:	00000000 	andeq	r0, r0, r0

00009ea0 <sdInit>:
    9ea0:	ea00018a 	b	a4d0 <sd_lld_init>
	...

00009eb0 <sdObjectInit>:
    9eb0:	e1a03001 	mov	r3, r1
    9eb4:	e1a01000 	mov	r1, r0
    9eb8:	e3a0c001 	mov	ip, #1
    9ebc:	e92d4030 	push	{r4, r5, lr}
    9ec0:	e1a04000 	mov	r4, r0
    9ec4:	e1a05002 	mov	r5, r2
    9ec8:	e59fe040 	ldr	lr, [pc, #64]	; 9f10 <sdObjectInit+0x60>
    9ecc:	e24dd00c 	sub	sp, sp, #12
    9ed0:	e58d0000 	str	r0, [sp]
    9ed4:	e481e004 	str	lr, [r1], #4
    9ed8:	e5801004 	str	r1, [r0, #4]
    9edc:	e5c0c008 	strb	ip, [r0, #8]
    9ee0:	e2801054 	add	r1, r0, #84	; 0x54
    9ee4:	e3a02010 	mov	r2, #16
    9ee8:	e280000c 	add	r0, r0, #12
    9eec:	ebfffe2f 	bl	97b0 <chIQInit>
    9ef0:	e1a03005 	mov	r3, r5
    9ef4:	e3a02010 	mov	r2, #16
    9ef8:	e58d4000 	str	r4, [sp]
    9efc:	e2841064 	add	r1, r4, #100	; 0x64
    9f00:	e2840030 	add	r0, r4, #48	; 0x30
    9f04:	ebfffebd 	bl	9a00 <chOQInit>
    9f08:	e28dd00c 	add	sp, sp, #12
    9f0c:	e8bd8030 	pop	{r4, r5, pc}
    9f10:	0000b250 	andeq	fp, r0, r0, asr r2
	...

00009f20 <sdStart>:
    9f20:	e92d4010 	push	{r4, lr}
    9f24:	e1a04000 	mov	r4, r0
    9f28:	e321f09f 	msr	CPSR_c, #159	; 0x9f
    9f2c:	eb00016f 	bl	a4f0 <sd_lld_start>
    9f30:	e3a03002 	mov	r3, #2
    9f34:	e5c43008 	strb	r3, [r4, #8]
    9f38:	e321f01f 	msr	CPSR_c, #31
    9f3c:	e8bd8010 	pop	{r4, pc}

00009f40 <sdIncomingDataI>:
    9f40:	e5903014 	ldr	r3, [r0, #20]
    9f44:	e92d4070 	push	{r4, r5, r6, lr}
    9f48:	e3530000 	cmp	r3, #0
    9f4c:	e1a04000 	mov	r4, r0
    9f50:	e1a05001 	mov	r5, r1
    9f54:	0a000008 	beq	9f7c <sdIncomingDataI+0x3c>
    9f58:	e1a01005 	mov	r1, r5
    9f5c:	e284000c 	add	r0, r4, #12
    9f60:	ebfffe22 	bl	97f0 <chIQPutI>
    9f64:	e3500000 	cmp	r0, #0
    9f68:	a8bd8070 	popge	{r4, r5, r6, pc}
    9f6c:	e2840004 	add	r0, r4, #4
    9f70:	e3a01080 	mov	r1, #128	; 0x80
    9f74:	e8bd4070 	pop	{r4, r5, r6, lr}
    9f78:	eafffde8 	b	9720 <chEvtBroadcastFlagsI>
    9f7c:	e3a01004 	mov	r1, #4
    9f80:	e0800001 	add	r0, r0, r1
    9f84:	ebfffde5 	bl	9720 <chEvtBroadcastFlagsI>
    9f88:	eafffff2 	b	9f58 <sdIncomingDataI+0x18>
    9f8c:	00000000 	andeq	r0, r0, r0

00009f90 <sdRequestDataI>:
    9f90:	e92d4070 	push	{r4, r5, r6, lr}
    9f94:	e1a05000 	mov	r5, r0
    9f98:	e2800030 	add	r0, r0, #48	; 0x30
    9f9c:	ebfffed3 	bl	9af0 <chOQGetI>
    9fa0:	e2504000 	subs	r4, r0, #0
    9fa4:	ba000001 	blt	9fb0 <sdRequestDataI+0x20>
    9fa8:	e1a00004 	mov	r0, r4
    9fac:	e8bd8070 	pop	{r4, r5, r6, pc}
    9fb0:	e2850004 	add	r0, r5, #4
    9fb4:	e3a01008 	mov	r1, #8
    9fb8:	ebfffdd8 	bl	9720 <chEvtBroadcastFlagsI>
    9fbc:	e1a00004 	mov	r0, r4
    9fc0:	e8bd8070 	pop	{r4, r5, r6, pc}
	...

00009fd0 <spiInit>:
    9fd0:	ea000232 	b	a8a0 <spi_lld_init>
	...

00009fe0 <spiObjectInit>:
    9fe0:	e3a03000 	mov	r3, #0
    9fe4:	e3a02001 	mov	r2, #1
    9fe8:	e5803004 	str	r3, [r0, #4]
    9fec:	e5c02000 	strb	r2, [r0]
    9ff0:	e5803008 	str	r3, [r0, #8]
    9ff4:	e280000c 	add	r0, r0, #12
    9ff8:	eafffd30 	b	94c0 <chMtxInit>
    9ffc:	00000000 	andeq	r0, r0, r0

0000a000 <tm_stop>:
    a000:	e59f303c 	ldr	r3, [pc, #60]	; a044 <tm_stop+0x44>
    a004:	e59f203c 	ldr	r2, [pc, #60]	; a048 <tm_stop+0x48>
    a008:	e5933004 	ldr	r3, [r3, #4]
    a00c:	e5922000 	ldr	r2, [r2]
    a010:	e5901008 	ldr	r1, [r0, #8]
    a014:	e0433002 	sub	r3, r3, r2
    a018:	e590200c 	ldr	r2, [r0, #12]
    a01c:	e0433001 	sub	r3, r3, r1
    a020:	e1530002 	cmp	r3, r2
    a024:	e5803008 	str	r3, [r0, #8]
    a028:	9a000001 	bls	a034 <tm_stop+0x34>
    a02c:	e580300c 	str	r3, [r0, #12]
    a030:	e12fff1e 	bx	lr
    a034:	e5902010 	ldr	r2, [r0, #16]
    a038:	e1530002 	cmp	r3, r2
    a03c:	35803010 	strcc	r3, [r0, #16]
    a040:	e12fff1e 	bx	lr
    a044:	20003000 	andcs	r3, r0, r0
    a048:	0000b3dc 	ldrdeq	fp, [r0], -ip
    a04c:	00000000 	andeq	r0, r0, r0

0000a050 <tmInit>:
    a050:	e3a03000 	mov	r3, #0
    a054:	e3e01000 	mvn	r1, #0
    a058:	e92d4010 	push	{r4, lr}
    a05c:	e59f4034 	ldr	r4, [pc, #52]	; a098 <tmInit+0x48>
    a060:	e24dd018 	sub	sp, sp, #24
    a064:	e59f2030 	ldr	r2, [pc, #48]	; a09c <tmInit+0x4c>
    a068:	e58d300c 	str	r3, [sp, #12]
    a06c:	e5843000 	str	r3, [r4]
    a070:	e58d3010 	str	r3, [sp, #16]
    a074:	e58d1014 	str	r1, [sp, #20]
    a078:	e5923004 	ldr	r3, [r2, #4]
    a07c:	e28d0004 	add	r0, sp, #4
    a080:	e58d300c 	str	r3, [sp, #12]
    a084:	ebffffdd 	bl	a000 <tm_stop>
    a088:	e59d300c 	ldr	r3, [sp, #12]
    a08c:	e5843000 	str	r3, [r4]
    a090:	e28dd018 	add	sp, sp, #24
    a094:	e8bd8010 	pop	{r4, pc}
    a098:	0000b3dc 	ldrdeq	fp, [r0], -ip
    a09c:	20003000 	andcs	r3, r0, r0

0000a0a0 <IrqHandler>:
    a0a0:	e92d500f 	push	{r0, r1, r2, r3, ip, lr}
    a0a4:	ebfffb09 	bl	8cd0 <chSysTimerHandlerI>
    a0a8:	e3a02000 	mov	r2, #0
    a0ac:	e59f301c 	ldr	r3, [pc, #28]	; a0d0 <IrqHandler+0x30>
    a0b0:	e59f001c 	ldr	r0, [pc, #28]	; a0d4 <IrqHandler+0x34>
    a0b4:	e583240c 	str	r2, [r3, #1036]	; 0x40c
    a0b8:	eb0000d8 	bl	a420 <sd_lld_serve_interrupt>
    a0bc:	e59f0014 	ldr	r0, [pc, #20]	; a0d8 <IrqHandler+0x38>
    a0c0:	eb00013e 	bl	a5c0 <i2c_lld_serve_interrupt>
    a0c4:	e59f0010 	ldr	r0, [pc, #16]	; a0dc <IrqHandler+0x3c>
    a0c8:	eb000194 	bl	a720 <spi_lld_serve_interrupt>
    a0cc:	eafff80b 	b	8100 <_port_irq_common>
    a0d0:	2000b000 	andcs	fp, r0, r0
    a0d4:	0000b410 	andeq	fp, r0, r0, lsl r4
    a0d8:	0000b484 	andeq	fp, r0, r4, lsl #9
    a0dc:	0000b4c4 	andeq	fp, r0, r4, asr #9

0000a0e0 <hal_lld_init>:
    a0e0:	e52de004 	push	{lr}		; (str lr, [sp, #-4]!)
    a0e4:	e3a0c0f9 	mov	ip, #249	; 0xf9
    a0e8:	e3a0e83e 	mov	lr, #4063232	; 0x3e0000
    a0ec:	e3a00000 	mov	r0, #0
    a0f0:	e59f302c 	ldr	r3, [pc, #44]	; a124 <hal_lld_init+0x44>
    a0f4:	e59f202c 	ldr	r2, [pc, #44]	; a128 <hal_lld_init+0x48>
    a0f8:	e59f102c 	ldr	r1, [pc, #44]	; a12c <hal_lld_init+0x4c>
    a0fc:	e583e408 	str	lr, [r3, #1032]	; 0x408
    a100:	e5832400 	str	r2, [r3, #1024]	; 0x400
    a104:	e5832418 	str	r2, [r3, #1048]	; 0x418
    a108:	e583c41c 	str	ip, [r3, #1052]	; 0x41c
    a10c:	e583040c 	str	r0, [r3, #1036]	; 0x40c
    a110:	e5831408 	str	r1, [r3, #1032]	; 0x408
    a114:	e5932218 	ldr	r2, [r3, #536]	; 0x218
    a118:	e3822001 	orr	r2, r2, #1
    a11c:	e5832218 	str	r2, [r3, #536]	; 0x218
    a120:	e49df004 	pop	{pc}		; (ldr pc, [sp], #4)
    a124:	2000b000 	andcs	fp, r0, r0
    a128:	000003e7 	andeq	r0, r0, r7, ror #7
    a12c:	003e00a2 	eorseq	r0, lr, r2, lsr #1

0000a130 <_pal_lld_init>:
    a130:	e92d41f0 	push	{r4, r5, r6, r7, r8, lr}
    a134:	e59f20b4 	ldr	r2, [pc, #180]	; a1f0 <_pal_lld_init+0xc0>
    a138:	e59f60b4 	ldr	r6, [pc, #180]	; a1f4 <_pal_lld_init+0xc4>
    a13c:	e59f30b4 	ldr	r3, [pc, #180]	; a1f8 <_pal_lld_init+0xc8>
    a140:	e3a04000 	mov	r4, #0
    a144:	e1c620f4 	strd	r2, [r6, #4]
    a148:	e2822018 	add	r2, r2, #24
    a14c:	e2833070 	add	r3, r3, #112	; 0x70
    a150:	e3e05000 	mvn	r5, #0
    a154:	e1c620fc 	strd	r2, [r6, #12]
    a158:	ea000003 	b	a16c <_pal_lld_init+0x3c>
    a15c:	e2844001 	add	r4, r4, #1
    a160:	e3540020 	cmp	r4, #32
    a164:	e1a050a5 	lsr	r5, r5, #1
    a168:	0a000009 	beq	a194 <_pal_lld_init+0x64>
    a16c:	e3150001 	tst	r5, #1
    a170:	0afffff9 	beq	a15c <_pal_lld_init+0x2c>
    a174:	e5960014 	ldr	r0, [r6, #20]
    a178:	e3a01000 	mov	r1, #0
    a17c:	e0840000 	add	r0, r4, r0
    a180:	e2844001 	add	r4, r4, #1
    a184:	eb0001c9 	bl	a8b0 <bcm2835_gpio_fnsel>
    a188:	e3540020 	cmp	r4, #32
    a18c:	e1a050a5 	lsr	r5, r5, #1
    a190:	1afffff5 	bne	a16c <_pal_lld_init+0x3c>
    a194:	e59f7060 	ldr	r7, [pc, #96]	; a1fc <_pal_lld_init+0xcc>
    a198:	e59f3060 	ldr	r3, [pc, #96]	; a200 <_pal_lld_init+0xd0>
    a19c:	e59f2060 	ldr	r2, [pc, #96]	; a204 <_pal_lld_init+0xd4>
    a1a0:	e5873004 	str	r3, [r7, #4]
    a1a4:	e2833018 	add	r3, r3, #24
    a1a8:	e1c720f8 	strd	r2, [r7, #8]
    a1ac:	e2833064 	add	r3, r3, #100	; 0x64
    a1b0:	e3a05000 	mov	r5, #0
    a1b4:	e3e06000 	mvn	r6, #0
    a1b8:	e5874014 	str	r4, [r7, #20]
    a1bc:	e5873010 	str	r3, [r7, #16]
    a1c0:	ea000003 	b	a1d4 <_pal_lld_init+0xa4>
    a1c4:	e2855001 	add	r5, r5, #1
    a1c8:	e3550020 	cmp	r5, #32
    a1cc:	e1a060a6 	lsr	r6, r6, #1
    a1d0:	08bd81f0 	popeq	{r4, r5, r6, r7, r8, pc}
    a1d4:	e3160001 	tst	r6, #1
    a1d8:	0afffff9 	beq	a1c4 <_pal_lld_init+0x94>
    a1dc:	e5970014 	ldr	r0, [r7, #20]
    a1e0:	e3a01000 	mov	r1, #0
    a1e4:	e0850000 	add	r0, r5, r0
    a1e8:	eb0001b0 	bl	a8b0 <bcm2835_gpio_fnsel>
    a1ec:	eafffff4 	b	a1c4 <_pal_lld_init+0x94>
    a1f0:	2020001c 	eorcs	r0, r0, ip, lsl r0
    a1f4:	0000b3e0 	andeq	fp, r0, r0, ror #7
    a1f8:	20200028 	eorcs	r0, r0, r8, lsr #32
    a1fc:	0000b3f8 	strdeq	fp, [r0], -r8
    a200:	20200020 	eorcs	r0, r0, r0, lsr #32
    a204:	2020002c 	eorcs	r0, r0, ip, lsr #32
	...

0000a210 <_pal_lld_setgroupmode>:
    a210:	e3520007 	cmp	r2, #7
    a214:	e92d41f0 	push	{r4, r5, r6, r7, r8, lr}
    a218:	e1a07000 	mov	r7, r0
    a21c:	e1a04001 	mov	r4, r1
    a220:	8a00000b 	bhi	a254 <_pal_lld_setgroupmode+0x44>
    a224:	e3520001 	cmp	r2, #1
    a228:	98bd81f0 	popls	{r4, r5, r6, r7, r8, pc}
    a22c:	e2422002 	sub	r2, r2, #2
    a230:	e3520005 	cmp	r2, #5
    a234:	979ff102 	ldrls	pc, [pc, r2, lsl #2]
    a238:	ea000014 	b	a290 <_pal_lld_setgroupmode+0x80>
    a23c:	0000a2e0 	andeq	sl, r0, r0, ror #5
    a240:	0000a358 	andeq	sl, r0, r8, asr r3
    a244:	0000a294 	muleq	r0, r4, r2
    a248:	0000a290 	muleq	r0, r0, r2
    a24c:	0000a25c 	andeq	sl, r0, ip, asr r2
    a250:	0000a25c 	andeq	sl, r0, ip, asr r2
    a254:	e35200ff 	cmp	r2, #255	; 0xff
    a258:	18bd81f0 	popne	{r4, r5, r6, r7, r8, pc}
    a25c:	e3a05000 	mov	r5, #0
    a260:	ea000003 	b	a274 <_pal_lld_setgroupmode+0x64>
    a264:	e2855001 	add	r5, r5, #1
    a268:	e3550020 	cmp	r5, #32
    a26c:	e1a040a4 	lsr	r4, r4, #1
    a270:	08bd81f0 	popeq	{r4, r5, r6, r7, r8, pc}
    a274:	e3140001 	tst	r4, #1
    a278:	0afffff9 	beq	a264 <_pal_lld_setgroupmode+0x54>
    a27c:	e5970014 	ldr	r0, [r7, #20]
    a280:	e3a01001 	mov	r1, #1
    a284:	e0850000 	add	r0, r5, r0
    a288:	eb000188 	bl	a8b0 <bcm2835_gpio_fnsel>
    a28c:	eafffff4 	b	a264 <_pal_lld_setgroupmode+0x54>
    a290:	e8bd81f0 	pop	{r4, r5, r6, r7, r8, pc}
    a294:	e1a06001 	mov	r6, r1
    a298:	e3a05000 	mov	r5, #0
    a29c:	ea000003 	b	a2b0 <_pal_lld_setgroupmode+0xa0>
    a2a0:	e2855001 	add	r5, r5, #1
    a2a4:	e3550020 	cmp	r5, #32
    a2a8:	e1a060a6 	lsr	r6, r6, #1
    a2ac:	0a000009 	beq	a2d8 <_pal_lld_setgroupmode+0xc8>
    a2b0:	e3160001 	tst	r6, #1
    a2b4:	0afffff9 	beq	a2a0 <_pal_lld_setgroupmode+0x90>
    a2b8:	e5970014 	ldr	r0, [r7, #20]
    a2bc:	e3a01000 	mov	r1, #0
    a2c0:	e0850000 	add	r0, r5, r0
    a2c4:	e2855001 	add	r5, r5, #1
    a2c8:	eb000178 	bl	a8b0 <bcm2835_gpio_fnsel>
    a2cc:	e3550020 	cmp	r5, #32
    a2d0:	e1a060a6 	lsr	r6, r6, #1
    a2d4:	1afffff5 	bne	a2b0 <_pal_lld_setgroupmode+0xa0>
    a2d8:	e3a03001 	mov	r3, #1
    a2dc:	ea00002f 	b	a3a0 <_pal_lld_setgroupmode+0x190>
    a2e0:	e1a06001 	mov	r6, r1
    a2e4:	e3a05000 	mov	r5, #0
    a2e8:	ea000003 	b	a2fc <_pal_lld_setgroupmode+0xec>
    a2ec:	e2855001 	add	r5, r5, #1
    a2f0:	e3550020 	cmp	r5, #32
    a2f4:	e1a060a6 	lsr	r6, r6, #1
    a2f8:	0a000009 	beq	a324 <_pal_lld_setgroupmode+0x114>
    a2fc:	e3160001 	tst	r6, #1
    a300:	0afffff9 	beq	a2ec <_pal_lld_setgroupmode+0xdc>
    a304:	e5970014 	ldr	r0, [r7, #20]
    a308:	e3a01000 	mov	r1, #0
    a30c:	e0850000 	add	r0, r5, r0
    a310:	e2855001 	add	r5, r5, #1
    a314:	eb000165 	bl	a8b0 <bcm2835_gpio_fnsel>
    a318:	e3550020 	cmp	r5, #32
    a31c:	e1a060a6 	lsr	r6, r6, #1
    a320:	1afffff5 	bne	a2fc <_pal_lld_setgroupmode+0xec>
    a324:	e3a05000 	mov	r5, #0
    a328:	e59f60a4 	ldr	r6, [pc, #164]	; a3d4 <_pal_lld_setgroupmode+0x1c4>
    a32c:	e3a00096 	mov	r0, #150	; 0x96
    a330:	e5865094 	str	r5, [r6, #148]	; 0x94
    a334:	eb000171 	bl	a900 <bcm2835_delay>
    a338:	e5973010 	ldr	r3, [r7, #16]
    a33c:	e3a00096 	mov	r0, #150	; 0x96
    a340:	e5834000 	str	r4, [r3]
    a344:	eb00016d 	bl	a900 <bcm2835_delay>
    a348:	e5973010 	ldr	r3, [r7, #16]
    a34c:	e5865094 	str	r5, [r6, #148]	; 0x94
    a350:	e5835000 	str	r5, [r3]
    a354:	e8bd81f0 	pop	{r4, r5, r6, r7, r8, pc}
    a358:	e1a06001 	mov	r6, r1
    a35c:	e3a05000 	mov	r5, #0
    a360:	ea000003 	b	a374 <_pal_lld_setgroupmode+0x164>
    a364:	e2855001 	add	r5, r5, #1
    a368:	e3550020 	cmp	r5, #32
    a36c:	e1a060a6 	lsr	r6, r6, #1
    a370:	0a000009 	beq	a39c <_pal_lld_setgroupmode+0x18c>
    a374:	e3160001 	tst	r6, #1
    a378:	0afffff9 	beq	a364 <_pal_lld_setgroupmode+0x154>
    a37c:	e5970014 	ldr	r0, [r7, #20]
    a380:	e3a01000 	mov	r1, #0
    a384:	e0850000 	add	r0, r5, r0
    a388:	e2855001 	add	r5, r5, #1
    a38c:	eb000147 	bl	a8b0 <bcm2835_gpio_fnsel>
    a390:	e3550020 	cmp	r5, #32
    a394:	e1a060a6 	lsr	r6, r6, #1
    a398:	1afffff5 	bne	a374 <_pal_lld_setgroupmode+0x164>
    a39c:	e3a03002 	mov	r3, #2
    a3a0:	e59f502c 	ldr	r5, [pc, #44]	; a3d4 <_pal_lld_setgroupmode+0x1c4>
    a3a4:	e3a00096 	mov	r0, #150	; 0x96
    a3a8:	e5853094 	str	r3, [r5, #148]	; 0x94
    a3ac:	eb000153 	bl	a900 <bcm2835_delay>
    a3b0:	e5973010 	ldr	r3, [r7, #16]
    a3b4:	e3a00096 	mov	r0, #150	; 0x96
    a3b8:	e5834000 	str	r4, [r3]
    a3bc:	eb00014f 	bl	a900 <bcm2835_delay>
    a3c0:	e3a03000 	mov	r3, #0
    a3c4:	e5972010 	ldr	r2, [r7, #16]
    a3c8:	e5853094 	str	r3, [r5, #148]	; 0x94
    a3cc:	e5823000 	str	r3, [r2]
    a3d0:	e8bd81f0 	pop	{r4, r5, r6, r7, r8, pc}
    a3d4:	20200000 	eorcs	r0, r0, r0
	...

0000a3e0 <_pal_lld_writeport>:
    a3e0:	e1e02001 	mvn	r2, r1
    a3e4:	e590c004 	ldr	ip, [r0, #4]
    a3e8:	e5903008 	ldr	r3, [r0, #8]
    a3ec:	e5801000 	str	r1, [r0]
    a3f0:	e58c1000 	str	r1, [ip]
    a3f4:	e5832000 	str	r2, [r3]
    a3f8:	e12fff1e 	bx	lr
    a3fc:	00000000 	andeq	r0, r0, r0

0000a400 <output_notify>:
    a400:	e59f200c 	ldr	r2, [pc, #12]	; a414 <output_notify+0x14>
    a404:	e5923044 	ldr	r3, [r2, #68]	; 0x44
    a408:	e3833002 	orr	r3, r3, #2
    a40c:	e5823044 	str	r3, [r2, #68]	; 0x44
    a410:	e12fff1e 	bx	lr
    a414:	20215000 	eorcs	r5, r1, r0
	...

0000a420 <sd_lld_serve_interrupt>:
    a420:	e59f209c 	ldr	r2, [pc, #156]	; a4c4 <sd_lld_serve_interrupt+0xa4>
    a424:	e92d4070 	push	{r4, r5, r6, lr}
    a428:	e5923048 	ldr	r3, [r2, #72]	; 0x48
    a42c:	e1a05000 	mov	r5, r0
    a430:	e2033007 	and	r3, r3, #7
    a434:	e3530004 	cmp	r3, #4
    a438:	0a000011 	beq	a484 <sd_lld_serve_interrupt+0x64>
    a43c:	e59f4080 	ldr	r4, [pc, #128]	; a4c4 <sd_lld_serve_interrupt+0xa4>
    a440:	e5943048 	ldr	r3, [r4, #72]	; 0x48
    a444:	e2033007 	and	r3, r3, #7
    a448:	e3530002 	cmp	r3, #2
    a44c:	18bd8070 	popne	{r4, r5, r6, pc}
    a450:	e5943054 	ldr	r3, [r4, #84]	; 0x54
    a454:	e3130020 	tst	r3, #32
    a458:	0afffffc 	beq	a450 <sd_lld_serve_interrupt+0x30>
    a45c:	e1a00005 	mov	r0, r5
    a460:	ebfffeca 	bl	9f90 <sdRequestDataI>
    a464:	e3500000 	cmp	r0, #0
    a468:	ba000011 	blt	a4b4 <sd_lld_serve_interrupt+0x94>
    a46c:	e59f2050 	ldr	r2, [pc, #80]	; a4c4 <sd_lld_serve_interrupt+0xa4>
    a470:	e5923054 	ldr	r3, [r2, #84]	; 0x54
    a474:	e3130020 	tst	r3, #32
    a478:	0afffffc 	beq	a470 <sd_lld_serve_interrupt+0x50>
    a47c:	e5820040 	str	r0, [r2, #64]	; 0x40
    a480:	e8bd8070 	pop	{r4, r5, r6, pc}
    a484:	e5923054 	ldr	r3, [r2, #84]	; 0x54
    a488:	e3130001 	tst	r3, #1
    a48c:	0afffffc 	beq	a484 <sd_lld_serve_interrupt+0x64>
    a490:	e59f402c 	ldr	r4, [pc, #44]	; a4c4 <sd_lld_serve_interrupt+0xa4>
    a494:	e5941040 	ldr	r1, [r4, #64]	; 0x40
    a498:	e1a00005 	mov	r0, r5
    a49c:	e6ef1071 	uxtb	r1, r1
    a4a0:	ebfffea6 	bl	9f40 <sdIncomingDataI>
    a4a4:	e5943054 	ldr	r3, [r4, #84]	; 0x54
    a4a8:	e3130001 	tst	r3, #1
    a4ac:	1afffff8 	bne	a494 <sd_lld_serve_interrupt+0x74>
    a4b0:	eaffffe1 	b	a43c <sd_lld_serve_interrupt+0x1c>
    a4b4:	e5943044 	ldr	r3, [r4, #68]	; 0x44
    a4b8:	e3c33002 	bic	r3, r3, #2
    a4bc:	e5843044 	str	r3, [r4, #68]	; 0x44
    a4c0:	e8bd8070 	pop	{r4, r5, r6, pc}
    a4c4:	20215000 	eorcs	r5, r1, r0
	...

0000a4d0 <sd_lld_init>:
    a4d0:	e3a01000 	mov	r1, #0
    a4d4:	e59f2004 	ldr	r2, [pc, #4]	; a4e0 <sd_lld_init+0x10>
    a4d8:	e59f0004 	ldr	r0, [pc, #4]	; a4e4 <sd_lld_init+0x14>
    a4dc:	eafffe73 	b	9eb0 <sdObjectInit>
    a4e0:	0000a400 	andeq	sl, r0, r0, lsl #8
    a4e4:	0000b410 	andeq	fp, r0, r0, lsl r4
	...

0000a4f0 <sd_lld_start>:
    a4f0:	e92d47f0 	push	{r4, r5, r6, r7, r8, r9, sl, lr}
    a4f4:	e3a05000 	mov	r5, #0
    a4f8:	e3a0e001 	mov	lr, #1
    a4fc:	e1510005 	cmp	r1, r5
    a500:	e3a0c005 	mov	ip, #5
    a504:	e3a020c6 	mov	r2, #198	; 0xc6
    a508:	e3a09003 	mov	r9, #3
    a50c:	e3a08202 	mov	r8, #536870912	; 0x20000000
    a510:	e59f308c 	ldr	r3, [pc, #140]	; a5a4 <sd_lld_start+0xb4>
    a514:	11a03001 	movne	r3, r1
    a518:	e59f4088 	ldr	r4, [pc, #136]	; a5a8 <sd_lld_start+0xb8>
    a51c:	e59f7088 	ldr	r7, [pc, #136]	; a5ac <sd_lld_start+0xbc>
    a520:	e59f0088 	ldr	r0, [pc, #136]	; a5b0 <sd_lld_start+0xc0>
    a524:	e587821c 	str	r8, [r7, #540]	; 0x21c
    a528:	e584e004 	str	lr, [r4, #4]
    a52c:	e5845044 	str	r5, [r4, #68]	; 0x44
    a530:	e5845060 	str	r5, [r4, #96]	; 0x60
    a534:	e584904c 	str	r9, [r4, #76]	; 0x4c
    a538:	e5845050 	str	r5, [r4, #80]	; 0x50
    a53c:	e584c044 	str	ip, [r4, #68]	; 0x44
    a540:	e5842048 	str	r2, [r4, #72]	; 0x48
    a544:	e5931000 	ldr	r1, [r3]
    a548:	e59f6064 	ldr	r6, [pc, #100]	; a5b4 <sd_lld_start+0xc4>
    a54c:	e1a01911 	lsl	r1, r1, r9
    a550:	ebfff7be 	bl	8450 <__udivsi3>
    a554:	e1a03000 	mov	r3, r0
    a558:	e2433001 	sub	r3, r3, #1
    a55c:	e5843068 	str	r3, [r4, #104]	; 0x68
    a560:	e3a01002 	mov	r1, #2
    a564:	e3a0000e 	mov	r0, #14
    a568:	eb0000d0 	bl	a8b0 <bcm2835_gpio_fnsel>
    a56c:	e3a01002 	mov	r1, #2
    a570:	e3a0000f 	mov	r0, #15
    a574:	eb0000cd 	bl	a8b0 <bcm2835_gpio_fnsel>
    a578:	e3a00096 	mov	r0, #150	; 0x96
    a57c:	e5865094 	str	r5, [r6, #148]	; 0x94
    a580:	eb0000de 	bl	a900 <bcm2835_delay>
    a584:	e3a03903 	mov	r3, #49152	; 0xc000
    a588:	e3a00096 	mov	r0, #150	; 0x96
    a58c:	e5863098 	str	r3, [r6, #152]	; 0x98
    a590:	eb0000da 	bl	a900 <bcm2835_delay>
    a594:	e5865098 	str	r5, [r6, #152]	; 0x98
    a598:	e5849060 	str	r9, [r4, #96]	; 0x60
    a59c:	e5878210 	str	r8, [r7, #528]	; 0x210
    a5a0:	e8bd87f0 	pop	{r4, r5, r6, r7, r8, r9, sl, pc}
    a5a4:	0000b270 	andeq	fp, r0, r0, ror r2
    a5a8:	20215000 	eorcs	r5, r1, r0
    a5ac:	2000b000 	andcs	fp, r0, r0
    a5b0:	0ee6b280 	cdpeq	2, 14, cr11, cr6, cr0, {4}
    a5b4:	20200000 	eorcs	r0, r0, r0
	...

0000a5c0 <i2c_lld_serve_interrupt>:
    a5c0:	e590100c 	ldr	r1, [r0, #12]
    a5c4:	e1a03000 	mov	r3, r0
    a5c8:	e5910004 	ldr	r0, [r1, #4]
    a5cc:	e3100c03 	tst	r0, #768	; 0x300
    a5d0:	0a000007 	beq	a5f4 <i2c_lld_serve_interrupt+0x34>
    a5d4:	e5930020 	ldr	r0, [r3, #32]
    a5d8:	e3500000 	cmp	r0, #0
    a5dc:	012fff1e 	bxeq	lr
    a5e0:	e3a01000 	mov	r1, #0
    a5e4:	e3e02001 	mvn	r2, #1
    a5e8:	e5831020 	str	r1, [r3, #32]
    a5ec:	e5802024 	str	r2, [r0, #36]	; 0x24
    a5f0:	eafffa4a 	b	8f20 <chSchReadyI>
    a5f4:	e3100002 	tst	r0, #2
    a5f8:	e52de004 	push	{lr}		; (str lr, [sp, #-4]!)
    a5fc:	0a000016 	beq	a65c <i2c_lld_serve_interrupt+0x9c>
    a600:	e3100020 	tst	r0, #32
    a604:	1a000004 	bne	a61c <i2c_lld_serve_interrupt+0x5c>
    a608:	ea000008 	b	a630 <i2c_lld_serve_interrupt+0x70>
    a60c:	e591e010 	ldr	lr, [r1, #16]
    a610:	e5930034 	ldr	r0, [r3, #52]	; 0x34
    a614:	e583c03c 	str	ip, [r3, #60]	; 0x3c
    a618:	e7c0e002 	strb	lr, [r0, r2]
    a61c:	e593203c 	ldr	r2, [r3, #60]	; 0x3c
    a620:	e5930038 	ldr	r0, [r3, #56]	; 0x38
    a624:	e282c001 	add	ip, r2, #1
    a628:	e1520000 	cmp	r2, r0
    a62c:	3afffff6 	bcc	a60c <i2c_lld_serve_interrupt+0x4c>
    a630:	e3a02000 	mov	r2, #0
    a634:	e5930020 	ldr	r0, [r3, #32]
    a638:	e59fc0b8 	ldr	ip, [pc, #184]	; a6f8 <i2c_lld_serve_interrupt+0x138>
    a63c:	e1500002 	cmp	r0, r2
    a640:	e5812000 	str	r2, [r1]
    a644:	e581c004 	str	ip, [r1, #4]
    a648:	049df004 	popeq	{pc}		; (ldreq pc, [sp], #4)
    a64c:	e5832020 	str	r2, [r3, #32]
    a650:	e49de004 	pop	{lr}		; (ldr lr, [sp], #4)
    a654:	e5802024 	str	r2, [r0, #36]	; 0x24
    a658:	eafffa30 	b	8f20 <chSchReadyI>
    a65c:	e3100004 	tst	r0, #4
    a660:	0a000012 	beq	a6b0 <i2c_lld_serve_interrupt+0xf0>
    a664:	e5932030 	ldr	r2, [r3, #48]	; 0x30
    a668:	e593c02c 	ldr	ip, [r3, #44]	; 0x2c
    a66c:	e15c0002 	cmp	ip, r2
    a670:	949df004 	popls	{pc}		; (ldrls pc, [sp], #4)
    a674:	e3100010 	tst	r0, #16
    a678:	049df004 	popeq	{pc}		; (ldreq pc, [sp], #4)
    a67c:	e593e028 	ldr	lr, [r3, #40]	; 0x28
    a680:	e2422001 	sub	r2, r2, #1
    a684:	e24cc001 	sub	ip, ip, #1
    a688:	e08e2002 	add	r2, lr, r2
    a68c:	e08ec00c 	add	ip, lr, ip
    a690:	e26ee002 	rsb	lr, lr, #2
    a694:	e08e0002 	add	r0, lr, r2
    a698:	e5830030 	str	r0, [r3, #48]	; 0x30
    a69c:	e5f20001 	ldrb	r0, [r2, #1]!
    a6a0:	e152000c 	cmp	r2, ip
    a6a4:	e5810010 	str	r0, [r1, #16]
    a6a8:	1afffff9 	bne	a694 <i2c_lld_serve_interrupt+0xd4>
    a6ac:	e49df004 	pop	{pc}		; (ldr pc, [sp], #4)
    a6b0:	e3100008 	tst	r0, #8
    a6b4:	049df004 	popeq	{pc}		; (ldreq pc, [sp], #4)
    a6b8:	e593203c 	ldr	r2, [r3, #60]	; 0x3c
    a6bc:	e593c038 	ldr	ip, [r3, #56]	; 0x38
    a6c0:	e15c0002 	cmp	ip, r2
    a6c4:	949df004 	popls	{pc}		; (ldrls pc, [sp], #4)
    a6c8:	e3100020 	tst	r0, #32
    a6cc:	049df004 	popeq	{pc}		; (ldreq pc, [sp], #4)
    a6d0:	e591c010 	ldr	ip, [r1, #16]
    a6d4:	e5930034 	ldr	r0, [r3, #52]	; 0x34
    a6d8:	e282e001 	add	lr, r2, #1
    a6dc:	e583e03c 	str	lr, [r3, #60]	; 0x3c
    a6e0:	e7c0c002 	strb	ip, [r0, r2]
    a6e4:	e593203c 	ldr	r2, [r3, #60]	; 0x3c
    a6e8:	e5930038 	ldr	r0, [r3, #56]	; 0x38
    a6ec:	e1520000 	cmp	r2, r0
    a6f0:	3afffff6 	bcc	a6d0 <i2c_lld_serve_interrupt+0x110>
    a6f4:	e49df004 	pop	{pc}		; (ldr pc, [sp], #4)
    a6f8:	00000302 	andeq	r0, r0, r2, lsl #6
    a6fc:	00000000 	andeq	r0, r0, r0

0000a700 <i2c_lld_init>:
    a700:	e59f0008 	ldr	r0, [pc, #8]	; a710 <i2c_lld_init+0x10>
    a704:	e59f3008 	ldr	r3, [pc, #8]	; a714 <i2c_lld_init+0x14>
    a708:	e580300c 	str	r3, [r0, #12]
    a70c:	eafffdbb 	b	9e00 <i2cObjectInit>
    a710:	0000b484 	andeq	fp, r0, r4, lsl #9
    a714:	20804000 	addcs	r4, r0, r0
	...

0000a720 <spi_lld_serve_interrupt>:
    a720:	e59f3164 	ldr	r3, [pc, #356]	; a88c <spi_lld_serve_interrupt+0x16c>
    a724:	e5933208 	ldr	r3, [r3, #520]	; 0x208
    a728:	e3130501 	tst	r3, #4194304	; 0x400000
    a72c:	012fff1e 	bxeq	lr
    a730:	e59f3158 	ldr	r3, [pc, #344]	; a890 <spi_lld_serve_interrupt+0x170>
    a734:	e92d4010 	push	{r4, lr}
    a738:	e5932000 	ldr	r2, [r3]
    a73c:	e1a04000 	mov	r4, r0
    a740:	e3120801 	tst	r2, #65536	; 0x10000
    a744:	0a000016 	beq	a7a4 <spi_lld_serve_interrupt+0x84>
    a748:	e5902024 	ldr	r2, [r0, #36]	; 0x24
    a74c:	e3520000 	cmp	r2, #0
    a750:	0a000023 	beq	a7e4 <spi_lld_serve_interrupt+0xc4>
    a754:	e5901004 	ldr	r1, [r0, #4]
    a758:	e5900020 	ldr	r0, [r0, #32]
    a75c:	e5d11004 	ldrb	r1, [r1, #4]
    a760:	e3510000 	cmp	r1, #0
    a764:	e5931000 	ldr	r1, [r3]
    a768:	0a000038 	beq	a850 <spi_lld_serve_interrupt+0x130>
    a76c:	e3110701 	tst	r1, #262144	; 0x40000
    a770:	0a00000b 	beq	a7a4 <spi_lld_serve_interrupt+0x84>
    a774:	e1a01000 	mov	r1, r0
    a778:	e3500000 	cmp	r0, #0
    a77c:	01a0c000 	moveq	ip, r0
    a780:	10d1c0b2 	ldrhne	ip, [r1], #2
    a784:	e2422002 	sub	r2, r2, #2
    a788:	e583c004 	str	ip, [r3, #4]
    a78c:	e593c000 	ldr	ip, [r3]
    a790:	e31c0701 	tst	ip, #262144	; 0x40000
    a794:	0a000001 	beq	a7a0 <spi_lld_serve_interrupt+0x80>
    a798:	e3520000 	cmp	r2, #0
    a79c:	1afffff5 	bne	a778 <spi_lld_serve_interrupt+0x58>
    a7a0:	e5842024 	str	r2, [r4, #36]	; 0x24
    a7a4:	e59f30e4 	ldr	r3, [pc, #228]	; a890 <spi_lld_serve_interrupt+0x170>
    a7a8:	e5932000 	ldr	r2, [r3]
    a7ac:	e3120702 	tst	r2, #524288	; 0x80000
    a7b0:	08bd8010 	popeq	{r4, pc}
    a7b4:	e5932000 	ldr	r2, [r3]
    a7b8:	e3120802 	tst	r2, #131072	; 0x20000
    a7bc:	08bd8010 	popeq	{r4, pc}
    a7c0:	e594201c 	ldr	r2, [r4, #28]
    a7c4:	e5931004 	ldr	r1, [r3, #4]
    a7c8:	e3520000 	cmp	r2, #0
    a7cc:	15c21000 	strbne	r1, [r2]
    a7d0:	eafffff7 	b	a7b4 <spi_lld_serve_interrupt+0x94>
    a7d4:	e594201c 	ldr	r2, [r4, #28]
    a7d8:	e5931004 	ldr	r1, [r3, #4]
    a7dc:	e3520000 	cmp	r2, #0
    a7e0:	15c21000 	strbne	r1, [r2]
    a7e4:	e5932000 	ldr	r2, [r3]
    a7e8:	e3120802 	tst	r2, #131072	; 0x20000
    a7ec:	1afffff8 	bne	a7d4 <spi_lld_serve_interrupt+0xb4>
    a7f0:	e5941004 	ldr	r1, [r4, #4]
    a7f4:	e5932000 	ldr	r2, [r3]
    a7f8:	e5911000 	ldr	r1, [r1]
    a7fc:	e3c22d1a 	bic	r2, r2, #1664	; 0x680
    a800:	e3510000 	cmp	r1, #0
    a804:	e5832000 	str	r2, [r3]
    a808:	0a00000d 	beq	a844 <spi_lld_serve_interrupt+0x124>
    a80c:	e3a03004 	mov	r3, #4
    a810:	e1a00004 	mov	r0, r4
    a814:	e5c43000 	strb	r3, [r4]
    a818:	e12fff31 	blx	r1
    a81c:	e5d43000 	ldrb	r3, [r4]
    a820:	e3530004 	cmp	r3, #4
    a824:	0a000006 	beq	a844 <spi_lld_serve_interrupt+0x124>
    a828:	e5940008 	ldr	r0, [r4, #8]
    a82c:	e3500000 	cmp	r0, #0
    a830:	0affffdb 	beq	a7a4 <spi_lld_serve_interrupt+0x84>
    a834:	e3a03000 	mov	r3, #0
    a838:	e5843008 	str	r3, [r4, #8]
    a83c:	ebfff9b7 	bl	8f20 <chSchReadyI>
    a840:	eaffffd7 	b	a7a4 <spi_lld_serve_interrupt+0x84>
    a844:	e3a03002 	mov	r3, #2
    a848:	e5c43000 	strb	r3, [r4]
    a84c:	eafffff5 	b	a828 <spi_lld_serve_interrupt+0x108>
    a850:	e3110701 	tst	r1, #262144	; 0x40000
    a854:	0affffd2 	beq	a7a4 <spi_lld_serve_interrupt+0x84>
    a858:	e1a01000 	mov	r1, r0
    a85c:	e3500000 	cmp	r0, #0
    a860:	01a0c000 	moveq	ip, r0
    a864:	14d1c001 	ldrbne	ip, [r1], #1
    a868:	e2422001 	sub	r2, r2, #1
    a86c:	e583c004 	str	ip, [r3, #4]
    a870:	e593c000 	ldr	ip, [r3]
    a874:	e5842024 	str	r2, [r4, #36]	; 0x24
    a878:	e31c0701 	tst	ip, #262144	; 0x40000
    a87c:	0affffc8 	beq	a7a4 <spi_lld_serve_interrupt+0x84>
    a880:	e3520000 	cmp	r2, #0
    a884:	1afffff4 	bne	a85c <spi_lld_serve_interrupt+0x13c>
    a888:	eaffffc5 	b	a7a4 <spi_lld_serve_interrupt+0x84>
    a88c:	2000b000 	andcs	fp, r0, r0
    a890:	20204000 	eorcs	r4, r0, r0
	...

0000a8a0 <spi_lld_init>:
    a8a0:	e59f0000 	ldr	r0, [pc]	; a8a8 <spi_lld_init+0x8>
    a8a4:	eafffdcd 	b	9fe0 <spiObjectInit>
    a8a8:	0000b4c4 	andeq	fp, r0, r4, asr #9
    a8ac:	00000000 	andeq	r0, r0, r0

0000a8b0 <bcm2835_gpio_fnsel>:
    a8b0:	e3a0c007 	mov	ip, #7
    a8b4:	e59f3038 	ldr	r3, [pc, #56]	; a8f4 <bcm2835_gpio_fnsel+0x44>
    a8b8:	e0832093 	umull	r2, r3, r3, r0
    a8bc:	e1a031a3 	lsr	r3, r3, #3
    a8c0:	e1a02103 	lsl	r2, r3, #2
    a8c4:	e2822202 	add	r2, r2, #536870912	; 0x20000000
    a8c8:	e2822602 	add	r2, r2, #2097152	; 0x200000
    a8cc:	e0833103 	add	r3, r3, r3, lsl #2
    a8d0:	e0400083 	sub	r0, r0, r3, lsl #1
    a8d4:	e5923000 	ldr	r3, [r2]
    a8d8:	e0800080 	add	r0, r0, r0, lsl #1
    a8dc:	e1c3301c 	bic	r3, r3, ip, lsl r0
    a8e0:	e5823000 	str	r3, [r2]
    a8e4:	e5923000 	ldr	r3, [r2]
    a8e8:	e1833011 	orr	r3, r3, r1, lsl r0
    a8ec:	e5823000 	str	r3, [r2]
    a8f0:	e12fff1e 	bx	lr
    a8f4:	cccccccd 	stclgt	12, cr12, [ip], {205}	; 0xcd
	...

0000a900 <bcm2835_delay>:
    a900:	e3a03000 	mov	r3, #0
    a904:	e24dd008 	sub	sp, sp, #8
    a908:	e58d3004 	str	r3, [sp, #4]
    a90c:	e58d3004 	str	r3, [sp, #4]
    a910:	e59d3004 	ldr	r3, [sp, #4]
    a914:	e1500003 	cmp	r0, r3
    a918:	9a000005 	bls	a934 <bcm2835_delay+0x34>
    a91c:	e59d3004 	ldr	r3, [sp, #4]
    a920:	e2833001 	add	r3, r3, #1
    a924:	e58d3004 	str	r3, [sp, #4]
    a928:	e59d3004 	ldr	r3, [sp, #4]
    a92c:	e1530000 	cmp	r3, r0
    a930:	3afffff9 	bcc	a91c <bcm2835_delay+0x1c>
    a934:	e28dd008 	add	sp, sp, #8
    a938:	e12fff1e 	bx	lr
    a93c:	00000000 	andeq	r0, r0, r0

0000a940 <boardInit>:
    a940:	e12fff1e 	bx	lr
	...

0000a950 <chprintf>:
    a950:	e92d000e 	push	{r1, r2, r3}
    a954:	e92d4ff0 	push	{r4, r5, r6, r7, r8, r9, sl, fp, lr}
    a958:	e24dd030 	sub	sp, sp, #48	; 0x30
    a95c:	e59da054 	ldr	sl, [sp, #84]	; 0x54
    a960:	e28d3058 	add	r3, sp, #88	; 0x58
    a964:	e1a0400a 	mov	r4, sl
    a968:	e4d41001 	ldrb	r1, [r4], #1
    a96c:	e58d3014 	str	r3, [sp, #20]
    a970:	e3510000 	cmp	r1, #0
    a974:	0a000090 	beq	abbc <chprintf+0x26c>
    a978:	e1a05000 	mov	r5, r0
    a97c:	ea000008 	b	a9a4 <chprintf+0x54>
    a980:	e5953000 	ldr	r3, [r5]
    a984:	e1a00005 	mov	r0, r5
    a988:	e5933008 	ldr	r3, [r3, #8]
    a98c:	e12fff33 	blx	r3
    a990:	e1a0a004 	mov	sl, r4
    a994:	e1a0400a 	mov	r4, sl
    a998:	e4d41001 	ldrb	r1, [r4], #1
    a99c:	e3510000 	cmp	r1, #0
    a9a0:	0a000085 	beq	abbc <chprintf+0x26c>
    a9a4:	e3510025 	cmp	r1, #37	; 0x25
    a9a8:	1afffff4 	bne	a980 <chprintf+0x30>
    a9ac:	e3a0e000 	mov	lr, #0
    a9b0:	e5da3001 	ldrb	r3, [sl, #1]
    a9b4:	e59d0014 	ldr	r0, [sp, #20]
    a9b8:	e353002d 	cmp	r3, #45	; 0x2d
    a9bc:	028a4002 	addeq	r4, sl, #2
    a9c0:	e5d41000 	ldrb	r1, [r4]
    a9c4:	03a0b001 	moveq	fp, #1
    a9c8:	13a0b000 	movne	fp, #0
    a9cc:	e351002e 	cmp	r1, #46	; 0x2e
    a9d0:	05d41001 	ldrbeq	r1, [r4, #1]
    a9d4:	02844001 	addeq	r4, r4, #1
    a9d8:	e2842001 	add	r2, r4, #1
    a9dc:	03a08030 	moveq	r8, #48	; 0x30
    a9e0:	13a08020 	movne	r8, #32
    a9e4:	e1a0400e 	mov	r4, lr
    a9e8:	ea000004 	b	aa00 <chprintf+0xb0>
    a9ec:	e3a0e001 	mov	lr, #1
    a9f0:	e4903004 	ldr	r3, [r0], #4
    a9f4:	e6ef3073 	uxtb	r3, r3
    a9f8:	e4d21001 	ldrb	r1, [r2], #1
    a9fc:	e083408c 	add	r4, r3, ip, lsl #1
    aa00:	e2413030 	sub	r3, r1, #48	; 0x30
    aa04:	e6ef3073 	uxtb	r3, r3
    aa08:	e3530009 	cmp	r3, #9
    aa0c:	e1a0a002 	mov	sl, r2
    aa10:	e084c104 	add	ip, r4, r4, lsl #2
    aa14:	9afffff7 	bls	a9f8 <chprintf+0xa8>
    aa18:	e351002a 	cmp	r1, #42	; 0x2a
    aa1c:	0afffff2 	beq	a9ec <chprintf+0x9c>
    aa20:	e35e0000 	cmp	lr, #0
    aa24:	158d0014 	strne	r0, [sp, #20]
    aa28:	e351002e 	cmp	r1, #46	; 0x2e
    aa2c:	13a02000 	movne	r2, #0
    aa30:	0a00012f 	beq	aef4 <chprintf+0x5a4>
    aa34:	e20130df 	and	r3, r1, #223	; 0xdf
    aa38:	e353004c 	cmp	r3, #76	; 0x4c
    aa3c:	1a000062 	bne	abcc <chprintf+0x27c>
    aa40:	e5da3000 	ldrb	r3, [sl]
    aa44:	e3530000 	cmp	r3, #0
    aa48:	11a01003 	movne	r1, r3
    aa4c:	e2413044 	sub	r3, r1, #68	; 0x44
    aa50:	128aa001 	addne	sl, sl, #1
    aa54:	e3530034 	cmp	r3, #52	; 0x34
    aa58:	979ff103 	ldrls	pc, [pc, r3, lsl #2]
    aa5c:	ea000039 	b	ab48 <chprintf+0x1f8>
    aa60:	0000b098 	muleq	r0, r8, r0
    aa64:	0000ab48 	andeq	sl, r0, r8, asr #22
    aa68:	0000ab48 	andeq	sl, r0, r8, asr #22
    aa6c:	0000ab48 	andeq	sl, r0, r8, asr #22
    aa70:	0000ab48 	andeq	sl, r0, r8, asr #22
    aa74:	0000ab48 	andeq	sl, r0, r8, asr #22
    aa78:	0000ab48 	andeq	sl, r0, r8, asr #22
    aa7c:	0000ab48 	andeq	sl, r0, r8, asr #22
    aa80:	0000ab48 	andeq	sl, r0, r8, asr #22
    aa84:	0000ab48 	andeq	sl, r0, r8, asr #22
    aa88:	0000ab48 	andeq	sl, r0, r8, asr #22
    aa8c:	0000b06c 	andeq	fp, r0, ip, rrx
    aa90:	0000ab48 	andeq	sl, r0, r8, asr #22
    aa94:	0000ab48 	andeq	sl, r0, r8, asr #22
    aa98:	0000ab48 	andeq	sl, r0, r8, asr #22
    aa9c:	0000ab48 	andeq	sl, r0, r8, asr #22
    aaa0:	0000ab48 	andeq	sl, r0, r8, asr #22
    aaa4:	0000b0cc 	andeq	fp, r0, ip, asr #1
    aaa8:	0000ab48 	andeq	sl, r0, r8, asr #22
    aaac:	0000ab48 	andeq	sl, r0, r8, asr #22
    aab0:	0000b084 	andeq	fp, r0, r4, lsl #1
    aab4:	0000ab48 	andeq	sl, r0, r8, asr #22
    aab8:	0000ab48 	andeq	sl, r0, r8, asr #22
    aabc:	0000ab48 	andeq	sl, r0, r8, asr #22
    aac0:	0000ab48 	andeq	sl, r0, r8, asr #22
    aac4:	0000ab48 	andeq	sl, r0, r8, asr #22
    aac8:	0000ab48 	andeq	sl, r0, r8, asr #22
    aacc:	0000ab48 	andeq	sl, r0, r8, asr #22
    aad0:	0000ab48 	andeq	sl, r0, r8, asr #22
    aad4:	0000ab48 	andeq	sl, r0, r8, asr #22
    aad8:	0000ab48 	andeq	sl, r0, r8, asr #22
    aadc:	0000ab34 	andeq	sl, r0, r4, lsr fp
    aae0:	0000b098 	muleq	r0, r8, r0
    aae4:	0000ab48 	andeq	sl, r0, r8, asr #22
    aae8:	0000ad90 	muleq	r0, r0, sp
    aaec:	0000ab48 	andeq	sl, r0, r8, asr #22
    aaf0:	0000ab48 	andeq	sl, r0, r8, asr #22
    aaf4:	0000ab48 	andeq	sl, r0, r8, asr #22
    aaf8:	0000ab48 	andeq	sl, r0, r8, asr #22
    aafc:	0000ab48 	andeq	sl, r0, r8, asr #22
    ab00:	0000ab48 	andeq	sl, r0, r8, asr #22
    ab04:	0000ab48 	andeq	sl, r0, r8, asr #22
    ab08:	0000ab48 	andeq	sl, r0, r8, asr #22
    ab0c:	0000b06c 	andeq	fp, r0, ip, rrx
    ab10:	0000ab48 	andeq	sl, r0, r8, asr #22
    ab14:	0000ab48 	andeq	sl, r0, r8, asr #22
    ab18:	0000ab48 	andeq	sl, r0, r8, asr #22
    ab1c:	0000ad08 	andeq	sl, r0, r8, lsl #26
    ab20:	0000ab48 	andeq	sl, r0, r8, asr #22
    ab24:	0000b0cc 	andeq	fp, r0, ip, asr #1
    ab28:	0000ab48 	andeq	sl, r0, r8, asr #22
    ab2c:	0000ab48 	andeq	sl, r0, r8, asr #22
    ab30:	0000b084 	andeq	fp, r0, r4, lsl #1
    ab34:	e3a08020 	mov	r8, #32
    ab38:	e59d3014 	ldr	r3, [sp, #20]
    ab3c:	e2832004 	add	r2, r3, #4
    ab40:	e5d31000 	ldrb	r1, [r3]
    ab44:	e58d2014 	str	r2, [sp, #20]
    ab48:	e35b0000 	cmp	fp, #0
    ab4c:	e2447001 	sub	r7, r4, #1
    ab50:	e5cd1018 	strb	r1, [sp, #24]
    ab54:	13a04000 	movne	r4, #0
    ab58:	e1c77fc7 	bic	r7, r7, r7, asr #31
    ab5c:	128d6018 	addne	r6, sp, #24
    ab60:	0a000054 	beq	acb8 <chprintf+0x368>
    ab64:	e0864004 	add	r4, r6, r4
    ab68:	e5953000 	ldr	r3, [r5]
    ab6c:	e4d61001 	ldrb	r1, [r6], #1
    ab70:	e5933008 	ldr	r3, [r3, #8]
    ab74:	e1a00005 	mov	r0, r5
    ab78:	e12fff33 	blx	r3
    ab7c:	e0443006 	sub	r3, r4, r6
    ab80:	e3530000 	cmp	r3, #0
    ab84:	aafffff7 	bge	ab68 <chprintf+0x218>
    ab88:	e3570000 	cmp	r7, #0
    ab8c:	0affff80 	beq	a994 <chprintf+0x44>
    ab90:	e5953000 	ldr	r3, [r5]
    ab94:	e1a01008 	mov	r1, r8
    ab98:	e1a00005 	mov	r0, r5
    ab9c:	e5933008 	ldr	r3, [r3, #8]
    aba0:	e12fff33 	blx	r3
    aba4:	e2577001 	subs	r7, r7, #1
    aba8:	1afffff8 	bne	ab90 <chprintf+0x240>
    abac:	e1a0400a 	mov	r4, sl
    abb0:	e4d41001 	ldrb	r1, [r4], #1
    abb4:	e3510000 	cmp	r1, #0
    abb8:	1affff79 	bne	a9a4 <chprintf+0x54>
    abbc:	e28dd030 	add	sp, sp, #48	; 0x30
    abc0:	e8bd4ff0 	pop	{r4, r5, r6, r7, r8, r9, sl, fp, lr}
    abc4:	e28dd00c 	add	sp, sp, #12
    abc8:	e12fff1e 	bx	lr
    abcc:	e2413041 	sub	r3, r1, #65	; 0x41
    abd0:	e2410044 	sub	r0, r1, #68	; 0x44
    abd4:	e6ef3073 	uxtb	r3, r3
    abd8:	e3500034 	cmp	r0, #52	; 0x34
    abdc:	979ff100 	ldrls	pc, [pc, r0, lsl #2]
    abe0:	eaffffd8 	b	ab48 <chprintf+0x1f8>
    abe4:	0000af54 	andeq	sl, r0, r4, asr pc
    abe8:	0000ab48 	andeq	sl, r0, r8, asr #22
    abec:	0000ab48 	andeq	sl, r0, r8, asr #22
    abf0:	0000ab48 	andeq	sl, r0, r8, asr #22
    abf4:	0000ab48 	andeq	sl, r0, r8, asr #22
    abf8:	0000ab48 	andeq	sl, r0, r8, asr #22
    abfc:	0000ab48 	andeq	sl, r0, r8, asr #22
    ac00:	0000ab48 	andeq	sl, r0, r8, asr #22
    ac04:	0000ab48 	andeq	sl, r0, r8, asr #22
    ac08:	0000ab48 	andeq	sl, r0, r8, asr #22
    ac0c:	0000ab48 	andeq	sl, r0, r8, asr #22
    ac10:	0000afe4 	andeq	sl, r0, r4, ror #31
    ac14:	0000ab48 	andeq	sl, r0, r8, asr #22
    ac18:	0000ab48 	andeq	sl, r0, r8, asr #22
    ac1c:	0000ab48 	andeq	sl, r0, r8, asr #22
    ac20:	0000ab48 	andeq	sl, r0, r8, asr #22
    ac24:	0000ab48 	andeq	sl, r0, r8, asr #22
    ac28:	0000b090 	muleq	r0, r0, r0
    ac2c:	0000ab48 	andeq	sl, r0, r8, asr #22
    ac30:	0000ab48 	andeq	sl, r0, r8, asr #22
    ac34:	0000b0d8 	ldrdeq	fp, [r0], -r8
    ac38:	0000ab48 	andeq	sl, r0, r8, asr #22
    ac3c:	0000ab48 	andeq	sl, r0, r8, asr #22
    ac40:	0000ab48 	andeq	sl, r0, r8, asr #22
    ac44:	0000ab48 	andeq	sl, r0, r8, asr #22
    ac48:	0000ab48 	andeq	sl, r0, r8, asr #22
    ac4c:	0000ab48 	andeq	sl, r0, r8, asr #22
    ac50:	0000ab48 	andeq	sl, r0, r8, asr #22
    ac54:	0000ab48 	andeq	sl, r0, r8, asr #22
    ac58:	0000ab48 	andeq	sl, r0, r8, asr #22
    ac5c:	0000ab48 	andeq	sl, r0, r8, asr #22
    ac60:	0000ab34 	andeq	sl, r0, r4, lsr fp
    ac64:	0000af54 	andeq	sl, r0, r4, asr pc
    ac68:	0000ab48 	andeq	sl, r0, r8, asr #22
    ac6c:	0000ad90 	muleq	r0, r0, sp
    ac70:	0000ab48 	andeq	sl, r0, r8, asr #22
    ac74:	0000ab48 	andeq	sl, r0, r8, asr #22
    ac78:	0000ab48 	andeq	sl, r0, r8, asr #22
    ac7c:	0000ab48 	andeq	sl, r0, r8, asr #22
    ac80:	0000ab48 	andeq	sl, r0, r8, asr #22
    ac84:	0000ab48 	andeq	sl, r0, r8, asr #22
    ac88:	0000ab48 	andeq	sl, r0, r8, asr #22
    ac8c:	0000ab48 	andeq	sl, r0, r8, asr #22
    ac90:	0000afe4 	andeq	sl, r0, r4, ror #31
    ac94:	0000ab48 	andeq	sl, r0, r8, asr #22
    ac98:	0000ab48 	andeq	sl, r0, r8, asr #22
    ac9c:	0000ab48 	andeq	sl, r0, r8, asr #22
    aca0:	0000ad08 	andeq	sl, r0, r8, lsl #26
    aca4:	0000ab48 	andeq	sl, r0, r8, asr #22
    aca8:	0000b090 	muleq	r0, r0, r0
    acac:	0000ab48 	andeq	sl, r0, r8, asr #22
    acb0:	0000ab48 	andeq	sl, r0, r8, asr #22
    acb4:	0000b0d8 	ldrdeq	fp, [r0], -r8
    acb8:	e3540001 	cmp	r4, #1
    acbc:	e2677000 	rsb	r7, r7, #0
    acc0:	e1a0400b 	mov	r4, fp
    acc4:	d1a0700b 	movle	r7, fp
    acc8:	e28d6018 	add	r6, sp, #24
    accc:	daffffa4 	ble	ab64 <chprintf+0x214>
    acd0:	e5d63000 	ldrb	r3, [r6]
    acd4:	e353002d 	cmp	r3, #45	; 0x2d
    acd8:	03580030 	cmpeq	r8, #48	; 0x30
    acdc:	0a0000f2 	beq	b0ac <chprintf+0x75c>
    ace0:	e5953000 	ldr	r3, [r5]
    ace4:	e1a01008 	mov	r1, r8
    ace8:	e1a00005 	mov	r0, r5
    acec:	e5933008 	ldr	r3, [r3, #8]
    acf0:	e12fff33 	blx	r3
    acf4:	e2977001 	adds	r7, r7, #1
    acf8:	1afffff8 	bne	ace0 <chprintf+0x390>
    acfc:	e3540000 	cmp	r4, #0
    ad00:	aaffff97 	bge	ab64 <chprintf+0x214>
    ad04:	eaffff22 	b	a994 <chprintf+0x44>
    ad08:	e59d3014 	ldr	r3, [sp, #20]
    ad0c:	e5936000 	ldr	r6, [r3]
    ad10:	e2833004 	add	r3, r3, #4
    ad14:	e3560000 	cmp	r6, #0
    ad18:	e58d3014 	str	r3, [sp, #20]
    ad1c:	0a000087 	beq	af40 <chprintf+0x5f0>
    ad20:	e5d63000 	ldrb	r3, [r6]
    ad24:	e59f13e4 	ldr	r1, [pc, #996]	; b110 <chprintf+0x7c0>
    ad28:	e3520000 	cmp	r2, #0
    ad2c:	01a02001 	moveq	r2, r1
    ad30:	e3530000 	cmp	r3, #0
    ad34:	0a0000eb 	beq	b0e8 <chprintf+0x798>
    ad38:	e1a0c006 	mov	ip, r6
    ad3c:	ea000001 	b	ad48 <chprintf+0x3f8>
    ad40:	e1730002 	cmn	r3, r2
    ad44:	4a000004 	bmi	ad5c <chprintf+0x40c>
    ad48:	e5fc1001 	ldrb	r1, [ip, #1]!
    ad4c:	e046300c 	sub	r3, r6, ip
    ad50:	e3510000 	cmp	r1, #0
    ad54:	e2433001 	sub	r3, r3, #1
    ad58:	1afffff8 	bne	ad40 <chprintf+0x3f0>
    ad5c:	e3a08020 	mov	r8, #32
    ad60:	e04cc006 	sub	ip, ip, r6
    ad64:	e044300c 	sub	r3, r4, ip
    ad68:	e35b0000 	cmp	fp, #0
    ad6c:	e24c4001 	sub	r4, ip, #1
    ad70:	e1c37fc3 	bic	r7, r3, r3, asr #31
    ad74:	1a000002 	bne	ad84 <chprintf+0x434>
    ad78:	e3530000 	cmp	r3, #0
    ad7c:	e2677000 	rsb	r7, r7, #0
    ad80:	caffffd2 	bgt	acd0 <chprintf+0x380>
    ad84:	e3540000 	cmp	r4, #0
    ad88:	aaffff75 	bge	ab64 <chprintf+0x214>
    ad8c:	eaffff7d 	b	ab88 <chprintf+0x238>
    ad90:	e59d3014 	ldr	r3, [sp, #20]
    ad94:	e2833007 	add	r3, r3, #7
    ad98:	e3c33007 	bic	r3, r3, #7
    ad9c:	e2832008 	add	r2, r3, #8
    ada0:	e1c300d0 	ldrd	r0, [r3]
    ada4:	e58d2014 	str	r2, [sp, #20]
    ada8:	ebfff718 	bl	8a10 <__aeabi_d2f>
    adac:	e3a01000 	mov	r1, #0
    adb0:	e1a09000 	mov	r9, r0
    adb4:	ebfff76a 	bl	8b64 <__aeabi_fcmplt>
    adb8:	e3500000 	cmp	r0, #0
    adbc:	13a0302d 	movne	r3, #45	; 0x2d
    adc0:	12899102 	addne	r9, r9, #-2147483648	; 0x80000000
    adc4:	028d6018 	addeq	r6, sp, #24
    adc8:	e1a00009 	mov	r0, r9
    adcc:	01a07006 	moveq	r7, r6
    add0:	15cd3018 	strbne	r3, [sp, #24]
    add4:	128d7019 	addne	r7, sp, #25
    add8:	128d6018 	addne	r6, sp, #24
    addc:	ebfff6c1 	bl	88e8 <__aeabi_f2d>
    ade0:	e1a02000 	mov	r2, r0
    ade4:	e1a03001 	mov	r3, r1
    ade8:	e1a00009 	mov	r0, r9
    adec:	e1cd20f8 	strd	r2, [sp, #8]
    adf0:	ebfff776 	bl	8bd0 <__aeabi_f2iz>
    adf4:	e287100b 	add	r1, r7, #11
    adf8:	e1a02001 	mov	r2, r1
    adfc:	e1a0c000 	mov	ip, r0
    ae00:	e59f330c 	ldr	r3, [pc, #780]	; b114 <chprintf+0x7c4>
    ae04:	e35c0009 	cmp	ip, #9
    ae08:	e083ec93 	umull	lr, r3, r3, ip
    ae0c:	e1a0e00c 	mov	lr, ip
    ae10:	e1a031a3 	lsr	r3, r3, #3
    ae14:	e1a0c003 	mov	ip, r3
    ae18:	e0833103 	add	r3, r3, r3, lsl #2
    ae1c:	e04e3083 	sub	r3, lr, r3, lsl #1
    ae20:	e2833030 	add	r3, r3, #48	; 0x30
    ae24:	e6ef3073 	uxtb	r3, r3
    ae28:	e5623001 	strb	r3, [r2, #-1]!
    ae2c:	8afffff3 	bhi	ae00 <chprintf+0x4b0>
    ae30:	e0411002 	sub	r1, r1, r2
    ae34:	e1a09007 	mov	r9, r7
    ae38:	e087c001 	add	ip, r7, r1
    ae3c:	ea000000 	b	ae44 <chprintf+0x4f4>
    ae40:	e5f23001 	ldrb	r3, [r2, #1]!
    ae44:	e4c93001 	strb	r3, [r9], #1
    ae48:	e159000c 	cmp	r9, ip
    ae4c:	1afffffb 	bne	ae40 <chprintf+0x4f0>
    ae50:	e2411001 	sub	r1, r1, #1
    ae54:	e0873001 	add	r3, r7, r1
    ae58:	e58d3004 	str	r3, [sp, #4]
    ae5c:	e1a07009 	mov	r7, r9
    ae60:	e3a0302e 	mov	r3, #46	; 0x2e
    ae64:	e4c7300c 	strb	r3, [r7], #12
    ae68:	ebfff694 	bl	88c0 <__aeabi_i2d>
    ae6c:	e1a02000 	mov	r2, r0
    ae70:	e1a03001 	mov	r3, r1
    ae74:	e1cd00d8 	ldrd	r0, [sp, #8]
    ae78:	ebfff5c2 	bl	8588 <__aeabi_dsub>
    ae7c:	e3a02000 	mov	r2, #0
    ae80:	e59f3290 	ldr	r3, [pc, #656]	; b118 <chprintf+0x7c8>
    ae84:	ebfff4cd 	bl	81c0 <__aeabi_dmul>
    ae88:	ebfff6c8 	bl	89b0 <__aeabi_d2iz>
    ae8c:	e1a02007 	mov	r2, r7
    ae90:	e59d3004 	ldr	r3, [sp, #4]
    ae94:	e2899007 	add	r9, r9, #7
    ae98:	e283e002 	add	lr, r3, #2
    ae9c:	e59f3270 	ldr	r3, [pc, #624]	; b114 <chprintf+0x7c4>
    aea0:	e0831093 	umull	r1, r3, r3, r0
    aea4:	e1a031a3 	lsr	r3, r3, #3
    aea8:	e1a01003 	mov	r1, r3
    aeac:	e0833103 	add	r3, r3, r3, lsl #2
    aeb0:	e0403083 	sub	r3, r0, r3, lsl #1
    aeb4:	e2833030 	add	r3, r3, #48	; 0x30
    aeb8:	e6ef3073 	uxtb	r3, r3
    aebc:	e5623001 	strb	r3, [r2, #-1]!
    aec0:	e1520009 	cmp	r2, r9
    aec4:	e1a00001 	mov	r0, r1
    aec8:	1afffff3 	bne	ae9c <chprintf+0x54c>
    aecc:	e59d1004 	ldr	r1, [sp, #4]
    aed0:	e047c002 	sub	ip, r7, r2
    aed4:	e28cc002 	add	ip, ip, #2
    aed8:	e081c00c 	add	ip, r1, ip
    aedc:	ea000000 	b	aee4 <chprintf+0x594>
    aee0:	e5f23001 	ldrb	r3, [r2, #1]!
    aee4:	e4ce3001 	strb	r3, [lr], #1
    aee8:	e15e000c 	cmp	lr, ip
    aeec:	1afffffb 	bne	aee0 <chprintf+0x590>
    aef0:	eaffff9a 	b	ad60 <chprintf+0x410>
    aef4:	e3a0e000 	mov	lr, #0
    aef8:	e59d0014 	ldr	r0, [sp, #20]
    aefc:	e1a0200e 	mov	r2, lr
    af00:	ea000003 	b	af14 <chprintf+0x5c4>
    af04:	e3a0e001 	mov	lr, #1
    af08:	e4903004 	ldr	r3, [r0], #4
    af0c:	e6ef3073 	uxtb	r3, r3
    af10:	e083208c 	add	r2, r3, ip, lsl #1
    af14:	e4da1001 	ldrb	r1, [sl], #1
    af18:	e082c102 	add	ip, r2, r2, lsl #2
    af1c:	e2413030 	sub	r3, r1, #48	; 0x30
    af20:	e6ef3073 	uxtb	r3, r3
    af24:	e3530009 	cmp	r3, #9
    af28:	9afffff8 	bls	af10 <chprintf+0x5c0>
    af2c:	e351002a 	cmp	r1, #42	; 0x2a
    af30:	0afffff3 	beq	af04 <chprintf+0x5b4>
    af34:	e35e0000 	cmp	lr, #0
    af38:	158d0014 	strne	r0, [sp, #20]
    af3c:	eafffebc 	b	aa34 <chprintf+0xe4>
    af40:	e3520000 	cmp	r2, #0
    af44:	1a000065 	bne	b0e0 <chprintf+0x790>
    af48:	e59f21c0 	ldr	r2, [pc, #448]	; b110 <chprintf+0x7c0>
    af4c:	e59f61c8 	ldr	r6, [pc, #456]	; b11c <chprintf+0x7cc>
    af50:	eaffff78 	b	ad38 <chprintf+0x3e8>
    af54:	e3530019 	cmp	r3, #25
    af58:	e59d3014 	ldr	r3, [sp, #20]
    af5c:	e1a02003 	mov	r2, r3
    af60:	e492c004 	ldr	ip, [r2], #4
    af64:	858d2014 	strhi	r2, [sp, #20]
    af68:	9a00004b 	bls	b09c <chprintf+0x74c>
    af6c:	e35c0000 	cmp	ip, #0
    af70:	a28d6018 	addge	r6, sp, #24
    af74:	a1a01006 	movge	r1, r6
    af78:	b28d1019 	addlt	r1, sp, #25
    af7c:	b3a0302d 	movlt	r3, #45	; 0x2d
    af80:	e281200b 	add	r2, r1, #11
    af84:	e1a00002 	mov	r0, r2
    af88:	b26cc000 	rsblt	ip, ip, #0
    af8c:	b5cd3018 	strblt	r3, [sp, #24]
    af90:	b28d6018 	addlt	r6, sp, #24
    af94:	e59f3178 	ldr	r3, [pc, #376]	; b114 <chprintf+0x7c4>
    af98:	e35c0009 	cmp	ip, #9
    af9c:	e083ec93 	umull	lr, r3, r3, ip
    afa0:	e1a031a3 	lsr	r3, r3, #3
    afa4:	e1a0e003 	mov	lr, r3
    afa8:	e0833103 	add	r3, r3, r3, lsl #2
    afac:	e04c3083 	sub	r3, ip, r3, lsl #1
    afb0:	e2833030 	add	r3, r3, #48	; 0x30
    afb4:	e6ef3073 	uxtb	r3, r3
    afb8:	e1a0c00e 	mov	ip, lr
    afbc:	e5603001 	strb	r3, [r0, #-1]!
    afc0:	cafffff3 	bgt	af94 <chprintf+0x644>
    afc4:	e0422000 	sub	r2, r2, r0
    afc8:	e081c002 	add	ip, r1, r2
    afcc:	ea000000 	b	afd4 <chprintf+0x684>
    afd0:	e5f03001 	ldrb	r3, [r0, #1]!
    afd4:	e4c13001 	strb	r3, [r1], #1
    afd8:	e151000c 	cmp	r1, ip
    afdc:	1afffffb 	bne	afd0 <chprintf+0x680>
    afe0:	eaffff5e 	b	ad60 <chprintf+0x410>
    afe4:	e3a07008 	mov	r7, #8
    afe8:	e3530019 	cmp	r3, #25
    afec:	e59d3014 	ldr	r3, [sp, #20]
    aff0:	e1a01003 	mov	r1, r3
    aff4:	e4910004 	ldr	r0, [r1], #4
    aff8:	858d1014 	strhi	r1, [sp, #20]
    affc:	9a00001c 	bls	b074 <chprintf+0x724>
    b000:	e28d6023 	add	r6, sp, #35	; 0x23
    b004:	ea000000 	b	b00c <chprintf+0x6bc>
    b008:	e1a0600c 	mov	r6, ip
    b00c:	e1a01007 	mov	r1, r7
    b010:	e1a09000 	mov	r9, r0
    b014:	ebfff54a 	bl	8544 <__aeabi_uidivmod>
    b018:	e2813030 	add	r3, r1, #48	; 0x30
    b01c:	e3530039 	cmp	r3, #57	; 0x39
    b020:	c2813037 	addgt	r3, r1, #55	; 0x37
    b024:	e6ef3073 	uxtb	r3, r3
    b028:	e1590007 	cmp	r9, r7
    b02c:	e246c001 	sub	ip, r6, #1
    b030:	e5463001 	strb	r3, [r6, #-1]
    b034:	2afffff3 	bcs	b008 <chprintf+0x6b8>
    b038:	e28d1023 	add	r1, sp, #35	; 0x23
    b03c:	e1a02006 	mov	r2, r6
    b040:	e28d6018 	add	r6, sp, #24
    b044:	e1a07001 	mov	r7, r1
    b048:	e041c00c 	sub	ip, r1, ip
    b04c:	e1a01006 	mov	r1, r6
    b050:	ea000000 	b	b058 <chprintf+0x708>
    b054:	e4d23001 	ldrb	r3, [r2], #1
    b058:	e1570002 	cmp	r7, r2
    b05c:	e4c13001 	strb	r3, [r1], #1
    b060:	1afffffb 	bne	b054 <chprintf+0x704>
    b064:	e086c00c 	add	ip, r6, ip
    b068:	eaffff3c 	b	ad60 <chprintf+0x410>
    b06c:	e3a07008 	mov	r7, #8
    b070:	e59d3014 	ldr	r3, [sp, #20]
    b074:	e2831004 	add	r1, r3, #4
    b078:	e5930000 	ldr	r0, [r3]
    b07c:	e58d1014 	str	r1, [sp, #20]
    b080:	eaffffde 	b	b000 <chprintf+0x6b0>
    b084:	e3a07010 	mov	r7, #16
    b088:	e59d3014 	ldr	r3, [sp, #20]
    b08c:	eafffff8 	b	b074 <chprintf+0x724>
    b090:	e3a0700a 	mov	r7, #10
    b094:	eaffffd3 	b	afe8 <chprintf+0x698>
    b098:	e59d3014 	ldr	r3, [sp, #20]
    b09c:	e2832004 	add	r2, r3, #4
    b0a0:	e593c000 	ldr	ip, [r3]
    b0a4:	e58d2014 	str	r2, [sp, #20]
    b0a8:	eaffffaf 	b	af6c <chprintf+0x61c>
    b0ac:	e5953000 	ldr	r3, [r5]
    b0b0:	e3a0102d 	mov	r1, #45	; 0x2d
    b0b4:	e1a00005 	mov	r0, r5
    b0b8:	e5933008 	ldr	r3, [r3, #8]
    b0bc:	e2866001 	add	r6, r6, #1
    b0c0:	e2444001 	sub	r4, r4, #1
    b0c4:	e12fff33 	blx	r3
    b0c8:	eaffff04 	b	ace0 <chprintf+0x390>
    b0cc:	e3a0700a 	mov	r7, #10
    b0d0:	e59d3014 	ldr	r3, [sp, #20]
    b0d4:	eaffffe6 	b	b074 <chprintf+0x724>
    b0d8:	e3a07010 	mov	r7, #16
    b0dc:	eaffffc1 	b	afe8 <chprintf+0x698>
    b0e0:	e59f6034 	ldr	r6, [pc, #52]	; b11c <chprintf+0x7cc>
    b0e4:	eaffff13 	b	ad38 <chprintf+0x3e8>
    b0e8:	e35b0000 	cmp	fp, #0
    b0ec:	11a07004 	movne	r7, r4
    b0f0:	13a08020 	movne	r8, #32
    b0f4:	1afffea3 	bne	ab88 <chprintf+0x238>
    b0f8:	e3540000 	cmp	r4, #0
    b0fc:	e2647000 	rsb	r7, r4, #0
    b100:	0afffe23 	beq	a994 <chprintf+0x44>
    b104:	e3a08020 	mov	r8, #32
    b108:	e3e04000 	mvn	r4, #0
    b10c:	eafffef3 	b	ace0 <chprintf+0x390>
    b110:	00007fff 	strdeq	r7, [r0], -pc	; <UNPREDICTABLE>
    b114:	cccccccd 	stclgt	12, cr12, [ip], {205}	; 0xcd
    b118:	40f86a00 	rscsmi	r6, r8, r0, lsl #20
    b11c:	0000b280 	andeq	fp, r0, r0, lsl #5

0000b120 <Thread_LED1>:
    b120:	e59f3058 	ldr	r3, [pc, #88]	; b180 <Thread_LED1+0x60>
    b124:	e59f2058 	ldr	r2, [pc, #88]	; b184 <Thread_LED1+0x64>
    b128:	e5933018 	ldr	r3, [r3, #24]
    b12c:	e92d4010 	push	{r4, lr}
    b130:	e59f6050 	ldr	r6, [pc, #80]	; b188 <Thread_LED1+0x68>
    b134:	e59f4050 	ldr	r4, [pc, #80]	; b18c <Thread_LED1+0x6c>
    b138:	e59f5050 	ldr	r5, [pc, #80]	; b190 <Thread_LED1+0x70>
    b13c:	e5832018 	str	r2, [r3, #24]
    b140:	e5941000 	ldr	r1, [r4]
    b144:	e1a00004 	mov	r0, r4
    b148:	e3c11402 	bic	r1, r1, #33554432	; 0x2000000
    b14c:	ebfffca3 	bl	a3e0 <_pal_lld_writeport>
    b150:	e3a00064 	mov	r0, #100	; 0x64
    b154:	ebfff88d 	bl	9390 <chThdSleep>
    b158:	e5941000 	ldr	r1, [r4]
    b15c:	e1a00004 	mov	r0, r4
    b160:	e3811402 	orr	r1, r1, #33554432	; 0x2000000
    b164:	ebfffc9d 	bl	a3e0 <_pal_lld_writeport>
    b168:	e3a00fe1 	mov	r0, #900	; 0x384
    b16c:	ebfff887 	bl	9390 <chThdSleep>
    b170:	e1a01006 	mov	r1, r6
    b174:	e1a00005 	mov	r0, r5
    b178:	ebfffdf4 	bl	a950 <chprintf>
    b17c:	eaffffef 	b	b140 <Thread_LED1+0x20>
    b180:	0000b39c 	muleq	r0, ip, r3
    b184:	0000b290 	muleq	r0, r0, r2
    b188:	0000b29c 	muleq	r0, ip, r2
    b18c:	0000b3e0 	andeq	fp, r0, r0, ror #7
    b190:	0000b410 	andeq	fp, r0, r0, lsl r4
	...

0000b1a0 <main>:
    b1a0:	e92d4010 	push	{r4, lr}
    b1a4:	e3a04000 	mov	r4, #0
    b1a8:	e24dd008 	sub	sp, sp, #8
    b1ac:	ebfffb03 	bl	9dc0 <halInit>
    b1b0:	ebfff6a6 	bl	8c50 <chSysInit>
    b1b4:	e3a020ff 	mov	r2, #255	; 0xff
    b1b8:	e3a01402 	mov	r1, #33554432	; 0x2000000
    b1bc:	e59f003c 	ldr	r0, [pc, #60]	; b200 <main+0x60>
    b1c0:	ebfffc12 	bl	a210 <_pal_lld_setgroupmode>
    b1c4:	e1a01004 	mov	r1, r4
    b1c8:	e59f0034 	ldr	r0, [pc, #52]	; b204 <main+0x64>
    b1cc:	ebfffb53 	bl	9f20 <sdStart>
    b1d0:	e3a0207f 	mov	r2, #127	; 0x7f
    b1d4:	e3a01f46 	mov	r1, #280	; 0x118
    b1d8:	e59f3028 	ldr	r3, [pc, #40]	; b208 <main+0x68>
    b1dc:	e58d4000 	str	r4, [sp]
    b1e0:	e59f0024 	ldr	r0, [pc, #36]	; b20c <main+0x6c>
    b1e4:	ebfff83d 	bl	92e0 <chThdCreateStatic>
    b1e8:	e59f3020 	ldr	r3, [pc, #32]	; b210 <main+0x70>
    b1ec:	e5930018 	ldr	r0, [r3, #24]
    b1f0:	ebfff88a 	bl	9420 <chThdWait>
    b1f4:	e1a00004 	mov	r0, r4
    b1f8:	e28dd008 	add	sp, sp, #8
    b1fc:	e8bd8010 	pop	{r4, pc}
    b200:	0000b3e0 	andeq	fp, r0, r0, ror #7
    b204:	0000b410 	andeq	fp, r0, r0, lsl r4
    b208:	0000b120 	andeq	fp, r0, r0, lsr #2
    b20c:	0000b4ec 	andeq	fp, r0, ip, ror #9
    b210:	0000b39c 	muleq	r0, ip, r3
	...
    b220:	656c6469 	strbvs	r6, [ip, #-1129]!	; 0xfffffb97
	...

0000b230 <ch_debug>:
    b230:	6e69616d 	powvsez	f6, f1, #5.0
    b234:	11411600 	cmpne	r1, r0, lsl #12
    b238:	08440404 	stmdaeq	r4, {r2, sl}^
    b23c:	1814100c 	ldmdane	r4, {r2, r3, ip}
    b240:	1e1d1c00 	cdpne	12, 1, cr1, cr13, cr0, {0}
    b244:	0000201f 	andeq	r2, r0, pc, lsl r0
	...

0000b250 <vmt>:
    b250:	00009e50 	andeq	r9, r0, r0, asr lr
    b254:	00009e30 	andeq	r9, r0, r0, lsr lr
    b258:	00009e90 	muleq	r0, r0, lr
    b25c:	00009e70 	andeq	r9, r0, r0, ror lr
    b260:	00009e80 	andeq	r9, r0, r0, lsl #29
    b264:	00009e60 	andeq	r9, r0, r0, ror #28
    b268:	00009e40 	andeq	r9, r0, r0, asr #28
    b26c:	00009e20 	andeq	r9, r0, r0, lsr #28

0000b270 <default_config>:
    b270:	0001c200 	andeq	ip, r1, r0, lsl #4
	...

0000b280 <pal_default_config>:
    b280:	6c756e28 	ldclvs	14, cr6, [r5], #-160	; 0xffffff60
    b284:	0000296c 	andeq	r2, r0, ip, ror #18
	...
    b290:	6e696c62 	cdpvs	12, 6, cr6, cr9, cr2, {3}
    b294:	2d72656b 	cfldr64cs	mvdx6, [r2, #-428]!	; 0xfffffe54
    b298:	00000031 	andeq	r0, r0, r1, lsr r0
    b29c:	6e6d6144 	powvsem	f6, f5, f4
    b2a0:	7469202c 	strbtvc	r2, [r9], #-44	; 0xffffffd4
    b2a4:	726f7720 	rsbvc	r7, pc, #32, 14	; 0x800000
    b2a8:	Address 0x000000000000b2a8 is out of bounds.

