ARM GAS  /var/folders/l5/0x54b2c10074c8bt31ycjvl80000gp/T//ccp2SSgC.s 			page 1


   1              		.cpu arm1176jz-s
   2              		.eabi_attribute 20, 1
   3              		.eabi_attribute 21, 1
   4              		.eabi_attribute 23, 3
   5              		.eabi_attribute 24, 1
   6              		.eabi_attribute 25, 1
   7              		.eabi_attribute 26, 1
   8              		.eabi_attribute 30, 2
   9              		.eabi_attribute 34, 1
  10              		.eabi_attribute 18, 4
  11              		.file	"chcond.c"
  12              		.text
  13              	.Ltext0:
  14              		.cfi_sections	.debug_frame
  15              		.section	.text.chCondInit,"ax",%progbits
  16              		.align	2
  17              		.global	chCondInit
  18              		.arch armv6kz
  19              		.syntax unified
  20              		.arm
  21              		.fpu softvfp
  22              		.type	chCondInit, %function
  23              	chCondInit:
  24              	.LVL0:
  25              	.LFB7:
  26              		.file 1 "../../os/kernel/src/chcond.c"
  27              		.loc 1 52 30 view -0
  28              		.cfi_startproc
  29              		@ args = 0, pretend = 0, frame = 0
  30              		@ frame_needed = 0, uses_anonymous_args = 0
  31              		@ link register save eliminated.
  32              		.loc 1 54 3 view .LVU1
  33              		.loc 1 54 39 view .LVU2
  34              		.loc 1 56 3 view .LVU3
  35 0000 040080E5 		str	r0, [r0, #4]
  36 0004 000080E5 		str	r0, [r0]
  37              		.loc 1 56 27 view .LVU4
  38              		.loc 1 57 1 is_stmt 0 view .LVU5
  39 0008 1EFF2FE1 		bx	lr
  40              		.cfi_endproc
  41              	.LFE7:
  42              		.size	chCondInit, .-chCondInit
  43              		.section	.text.chCondSignal,"ax",%progbits
  44              		.align	2
  45              		.global	chCondSignal
  46              		.syntax unified
  47              		.arm
  48              		.fpu softvfp
  49              		.type	chCondSignal, %function
  50              	chCondSignal:
  51              	.LVL1:
  52              	.LFB8:
  53              		.loc 1 66 32 is_stmt 1 view -0
  54              		.cfi_startproc
  55              		@ args = 0, pretend = 0, frame = 0
  56              		@ frame_needed = 0, uses_anonymous_args = 0
  57              		.loc 1 68 3 view .LVU7
ARM GAS  /var/folders/l5/0x54b2c10074c8bt31ycjvl80000gp/T//ccp2SSgC.s 			page 2


  58              		.loc 1 68 41 view .LVU8
  59              		.loc 1 70 3 view .LVU9
  60              		.syntax divided
  61              	@ 70 "../../os/kernel/src/chcond.c" 1
  62 0000 9FF021E3 		msr     CPSR_c, #0x9F
  63              	@ 0 "" 2
  64              		.loc 1 70 3 view .LVU10
  65              		.loc 1 70 14 view .LVU11
  66              		.loc 1 71 3 view .LVU12
  67              		.loc 1 71 7 is_stmt 0 view .LVU13
  68              		.arm
  69              		.syntax unified
  70 0004 002090E5 		ldr	r2, [r0]
  71              		.loc 1 71 6 view .LVU14
  72 0008 000052E1 		cmp	r2, r0
  73 000c 0900000A 		beq	.L6
  74 0010 0030A0E1 		mov	r3, r0
  75              		.loc 1 72 5 is_stmt 1 view .LVU15
  76              	.LVL2:
  77              	.LBB16:
  78              	.LBI16:
  79              		.file 2 "../../os/kernel/include/chinline.h"
  80              		.loc 2 52 23 view .LVU16
  81              	.LBB17:
  82              		.loc 2 53 3 view .LVU17
  83              		.loc 2 55 3 view .LVU18
  84              		.loc 2 55 20 is_stmt 0 view .LVU19
  85 0014 00C092E5 		ldr	ip, [r2]
  86              	.LBE17:
  87              	.LBE16:
  88              		.loc 1 66 32 view .LVU20
  89 0018 10402DE9 		push	{r4, lr}
  90              		.cfi_def_cfa_offset 8
  91              		.cfi_offset 4, -8
  92              		.cfi_offset 14, -4
  93              		.loc 1 72 5 view .LVU21
  94 001c 0200A0E1 		mov	r0, r2
  95              	.LVL3:
  96              	.LBB20:
  97              	.LBB18:
  98              		.loc 2 55 16 view .LVU22
  99 0020 00C083E5 		str	ip, [r3]
 100              	.LBE18:
 101              	.LBE20:
 102              		.loc 1 72 5 view .LVU23
 103 0024 0010A0E3 		mov	r1, #0
 104              	.LBB21:
 105              	.LBB19:
 106              		.loc 2 55 38 view .LVU24
 107 0028 04308CE5 		str	r3, [ip, #4]
 108              		.loc 2 56 3 is_stmt 1 view .LVU25
 109              	.LVL4:
 110              		.loc 2 56 3 is_stmt 0 view .LVU26
 111              	.LBE19:
 112              	.LBE21:
 113              		.loc 1 72 5 view .LVU27
 114 002c FEFFFFEB 		bl	chSchWakeupS
ARM GAS  /var/folders/l5/0x54b2c10074c8bt31ycjvl80000gp/T//ccp2SSgC.s 			page 3


 115              	.LVL5:
 116              		.loc 1 73 3 is_stmt 1 view .LVU28
 117              		.loc 1 73 3 view .LVU29
 118              		.syntax divided
 119              	@ 73 "../../os/kernel/src/chcond.c" 1
 120 0030 1FF021E3 		msr     CPSR_c, #0x1F
 121              	@ 0 "" 2
 122              		.loc 1 73 16 view .LVU30
 123              		.loc 1 74 1 is_stmt 0 view .LVU31
 124              		.arm
 125              		.syntax unified
 126 0034 1080BDE8 		pop	{r4, pc}
 127              	.LVL6:
 128              	.L6:
 129              		.cfi_def_cfa_offset 0
 130              		.cfi_restore 4
 131              		.cfi_restore 14
 132              		.loc 1 73 3 is_stmt 1 view .LVU32
 133              		.loc 1 73 3 view .LVU33
 134              		.syntax divided
 135              	@ 73 "../../os/kernel/src/chcond.c" 1
 136 0038 1FF021E3 		msr     CPSR_c, #0x1F
 137              	@ 0 "" 2
 138              		.loc 1 73 16 view .LVU34
 139              		.loc 1 73 3 is_stmt 0 view .LVU35
 140              		.arm
 141              		.syntax unified
 142 003c 1EFF2FE1 		bx	lr
 143              		.cfi_endproc
 144              	.LFE8:
 145              		.size	chCondSignal, .-chCondSignal
 146              		.section	.text.chCondSignalI,"ax",%progbits
 147              		.align	2
 148              		.global	chCondSignalI
 149              		.syntax unified
 150              		.arm
 151              		.fpu softvfp
 152              		.type	chCondSignalI, %function
 153              	chCondSignalI:
 154              	.LVL7:
 155              	.LFB9:
 156              		.loc 1 87 33 is_stmt 1 view -0
 157              		.cfi_startproc
 158              		@ args = 0, pretend = 0, frame = 0
 159              		@ frame_needed = 0, uses_anonymous_args = 0
 160              		.loc 1 89 3 view .LVU37
 161              		.loc 1 89 21 view .LVU38
 162              		.loc 1 90 3 view .LVU39
 163              		.loc 1 90 42 view .LVU40
 164              		.loc 1 92 3 view .LVU41
 165              		.loc 1 92 7 is_stmt 0 view .LVU42
 166 0000 002090E5 		ldr	r2, [r0]
 167              		.loc 1 92 6 view .LVU43
 168 0004 000052E1 		cmp	r2, r0
 169 0008 1EFF2F01 		bxeq	lr
 170 000c 0030A0E1 		mov	r3, r0
 171              		.loc 1 93 5 is_stmt 1 view .LVU44
ARM GAS  /var/folders/l5/0x54b2c10074c8bt31ycjvl80000gp/T//ccp2SSgC.s 			page 4


 172              	.LVL8:
 173              	.LBB22:
 174              	.LBI22:
 175              		.loc 2 52 23 view .LVU45
 176              	.LBB23:
 177              		.loc 2 53 3 view .LVU46
 178              		.loc 2 55 3 view .LVU47
 179              		.loc 2 55 20 is_stmt 0 view .LVU48
 180 0010 001092E5 		ldr	r1, [r2]
 181              	.LBE23:
 182              	.LBE22:
 183              		.loc 1 87 33 view .LVU49
 184 0014 10402DE9 		push	{r4, lr}
 185              		.cfi_def_cfa_offset 8
 186              		.cfi_offset 4, -8
 187              		.cfi_offset 14, -4
 188              		.loc 1 93 5 view .LVU50
 189 0018 0200A0E1 		mov	r0, r2
 190              	.LVL9:
 191              	.LBB25:
 192              	.LBB24:
 193              		.loc 2 55 16 view .LVU51
 194 001c 001083E5 		str	r1, [r3]
 195              		.loc 2 55 38 view .LVU52
 196 0020 043081E5 		str	r3, [r1, #4]
 197              		.loc 2 56 3 is_stmt 1 view .LVU53
 198              	.LVL10:
 199              		.loc 2 56 3 is_stmt 0 view .LVU54
 200              	.LBE24:
 201              	.LBE25:
 202              		.loc 1 93 5 view .LVU55
 203 0024 FEFFFFEB 		bl	chSchReadyI
 204              	.LVL11:
 205              		.loc 1 93 56 view .LVU56
 206 0028 0030A0E3 		mov	r3, #0
 207 002c 243080E5 		str	r3, [r0, #36]
 208              		.loc 1 94 1 view .LVU57
 209 0030 1080BDE8 		pop	{r4, pc}
 210              		.cfi_endproc
 211              	.LFE9:
 212              		.size	chCondSignalI, .-chCondSignalI
 213              		.section	.text.chCondBroadcast,"ax",%progbits
 214              		.align	2
 215              		.global	chCondBroadcast
 216              		.syntax unified
 217              		.arm
 218              		.fpu softvfp
 219              		.type	chCondBroadcast, %function
 220              	chCondBroadcast:
 221              	.LVL12:
 222              	.LFB10:
 223              		.loc 1 103 35 is_stmt 1 view -0
 224              		.cfi_startproc
 225              		@ args = 0, pretend = 0, frame = 0
 226              		@ frame_needed = 0, uses_anonymous_args = 0
 227              		.loc 1 105 3 view .LVU59
 228              		.loc 1 103 35 is_stmt 0 view .LVU60
ARM GAS  /var/folders/l5/0x54b2c10074c8bt31ycjvl80000gp/T//ccp2SSgC.s 			page 5


 229 0000 70402DE9 		push	{r4, r5, r6, lr}
 230              		.cfi_def_cfa_offset 16
 231              		.cfi_offset 4, -16
 232              		.cfi_offset 5, -12
 233              		.cfi_offset 6, -8
 234              		.cfi_offset 14, -4
 235              		.loc 1 105 3 view .LVU61
 236              		.syntax divided
 237              	@ 105 "../../os/kernel/src/chcond.c" 1
 238 0004 9FF021E3 		msr     CPSR_c, #0x9F
 239              	@ 0 "" 2
 240              		.loc 1 105 3 is_stmt 1 view .LVU62
 241              		.loc 1 105 14 view .LVU63
 242              		.loc 1 106 3 view .LVU64
 243              	.LVL13:
 244              		.arm
 245              		.syntax unified
 246              	.LBB26:
 247              	.LBI26:
 248              		.loc 1 122 6 view .LVU65
 249              	.LBB27:
 250              		.loc 1 124 3 view .LVU66
 251              		.loc 1 124 21 view .LVU67
 252              		.loc 1 125 3 view .LVU68
 253              		.loc 1 125 45 view .LVU69
 254              		.loc 1 130 3 view .LVU70
 255              		.loc 1 130 21 is_stmt 0 view .LVU71
 256 0008 003090E5 		ldr	r3, [r0]
 257              		.loc 1 130 9 view .LVU72
 258 000c 000053E1 		cmp	r3, r0
 259 0010 0A00000A 		beq	.L16
 260 0014 0040A0E1 		mov	r4, r0
 261              		.loc 1 131 56 view .LVU73
 262 0018 0150E0E3 		mvn	r5, #1
 263              	.LVL14:
 264              	.L17:
 265              		.loc 1 131 5 is_stmt 1 view .LVU74
 266              	.LBB28:
 267              	.LBI28:
 268              		.loc 2 52 23 view .LVU75
 269              	.LBB29:
 270              		.loc 2 53 3 view .LVU76
 271              		.loc 2 55 3 view .LVU77
 272              		.loc 2 55 20 is_stmt 0 view .LVU78
 273 001c 002093E5 		ldr	r2, [r3]
 274              	.LBE29:
 275              	.LBE28:
 276              		.loc 1 131 5 view .LVU79
 277 0020 0300A0E1 		mov	r0, r3
 278              	.LBB31:
 279              	.LBB30:
 280              		.loc 2 55 16 view .LVU80
 281 0024 002084E5 		str	r2, [r4]
 282              		.loc 2 55 38 view .LVU81
 283 0028 044082E5 		str	r4, [r2, #4]
 284              		.loc 2 56 3 is_stmt 1 view .LVU82
 285              	.LVL15:
ARM GAS  /var/folders/l5/0x54b2c10074c8bt31ycjvl80000gp/T//ccp2SSgC.s 			page 6


 286              		.loc 2 56 3 is_stmt 0 view .LVU83
 287              	.LBE30:
 288              	.LBE31:
 289              		.loc 1 131 5 view .LVU84
 290 002c FEFFFFEB 		bl	chSchReadyI
 291              	.LVL16:
 292              		.loc 1 130 21 view .LVU85
 293 0030 003094E5 		ldr	r3, [r4]
 294              		.loc 1 131 56 view .LVU86
 295 0034 245080E5 		str	r5, [r0, #36]
 296              		.loc 1 130 9 view .LVU87
 297 0038 040053E1 		cmp	r3, r4
 298 003c F6FFFF1A 		bne	.L17
 299              	.LVL17:
 300              	.L16:
 301              		.loc 1 130 9 view .LVU88
 302              	.LBE27:
 303              	.LBE26:
 304              		.loc 1 107 3 is_stmt 1 view .LVU89
 305 0040 FEFFFFEB 		bl	chSchRescheduleS
 306              	.LVL18:
 307              		.loc 1 108 3 view .LVU90
 308              		.loc 1 108 3 view .LVU91
 309              		.syntax divided
 310              	@ 108 "../../os/kernel/src/chcond.c" 1
 311 0044 1FF021E3 		msr     CPSR_c, #0x1F
 312              	@ 0 "" 2
 313              		.loc 1 108 16 view .LVU92
 314              		.loc 1 109 1 is_stmt 0 view .LVU93
 315              		.arm
 316              		.syntax unified
 317 0048 7080BDE8 		pop	{r4, r5, r6, pc}
 318              		.cfi_endproc
 319              	.LFE10:
 320              		.size	chCondBroadcast, .-chCondBroadcast
 321              		.section	.text.chCondBroadcastI,"ax",%progbits
 322              		.align	2
 323              		.global	chCondBroadcastI
 324              		.syntax unified
 325              		.arm
 326              		.fpu softvfp
 327              		.type	chCondBroadcastI, %function
 328              	chCondBroadcastI:
 329              	.LVL19:
 330              	.LFB11:
 331              		.loc 1 122 36 is_stmt 1 view -0
 332              		.cfi_startproc
 333              		@ args = 0, pretend = 0, frame = 0
 334              		@ frame_needed = 0, uses_anonymous_args = 0
 335              		.loc 1 124 3 view .LVU95
 336              		.loc 1 124 21 view .LVU96
 337              		.loc 1 125 3 view .LVU97
 338              		.loc 1 125 45 view .LVU98
 339              		.loc 1 130 3 view .LVU99
 340              		.loc 1 130 21 is_stmt 0 view .LVU100
 341 0000 003090E5 		ldr	r3, [r0]
 342              		.loc 1 130 9 view .LVU101
ARM GAS  /var/folders/l5/0x54b2c10074c8bt31ycjvl80000gp/T//ccp2SSgC.s 			page 7


 343 0004 000053E1 		cmp	r3, r0
 344 0008 1EFF2F01 		bxeq	lr
 345              		.loc 1 122 36 view .LVU102
 346 000c 70402DE9 		push	{r4, r5, r6, lr}
 347              		.cfi_def_cfa_offset 16
 348              		.cfi_offset 4, -16
 349              		.cfi_offset 5, -12
 350              		.cfi_offset 6, -8
 351              		.cfi_offset 14, -4
 352 0010 0040A0E1 		mov	r4, r0
 353              		.loc 1 131 56 view .LVU103
 354 0014 0150E0E3 		mvn	r5, #1
 355              	.LVL20:
 356              	.L22:
 357              		.loc 1 131 5 is_stmt 1 view .LVU104
 358              	.LBB32:
 359              	.LBI32:
 360              		.loc 2 52 23 view .LVU105
 361              	.LBB33:
 362              		.loc 2 53 3 view .LVU106
 363              		.loc 2 55 3 view .LVU107
 364              		.loc 2 55 20 is_stmt 0 view .LVU108
 365 0018 002093E5 		ldr	r2, [r3]
 366              	.LBE33:
 367              	.LBE32:
 368              		.loc 1 131 5 view .LVU109
 369 001c 0300A0E1 		mov	r0, r3
 370              	.LBB35:
 371              	.LBB34:
 372              		.loc 2 55 16 view .LVU110
 373 0020 002084E5 		str	r2, [r4]
 374              		.loc 2 55 38 view .LVU111
 375 0024 044082E5 		str	r4, [r2, #4]
 376              		.loc 2 56 3 is_stmt 1 view .LVU112
 377              	.LVL21:
 378              		.loc 2 56 3 is_stmt 0 view .LVU113
 379              	.LBE34:
 380              	.LBE35:
 381              		.loc 1 131 5 view .LVU114
 382 0028 FEFFFFEB 		bl	chSchReadyI
 383              	.LVL22:
 384              		.loc 1 130 21 view .LVU115
 385 002c 003094E5 		ldr	r3, [r4]
 386              		.loc 1 131 56 view .LVU116
 387 0030 245080E5 		str	r5, [r0, #36]
 388              		.loc 1 130 9 view .LVU117
 389 0034 040053E1 		cmp	r3, r4
 390 0038 F6FFFF1A 		bne	.L22
 391 003c 7080BDE8 		pop	{r4, r5, r6, pc}
 392              		.cfi_endproc
 393              	.LFE11:
 394              		.size	chCondBroadcastI, .-chCondBroadcastI
 395              		.section	.text.chCondWaitS,"ax",%progbits
 396              		.align	2
 397              		.global	chCondWaitS
 398              		.syntax unified
 399              		.arm
ARM GAS  /var/folders/l5/0x54b2c10074c8bt31ycjvl80000gp/T//ccp2SSgC.s 			page 8


 400              		.fpu softvfp
 401              		.type	chCondWaitS, %function
 402              	chCondWaitS:
 403              	.LVL23:
 404              	.LFB13:
 405              		.loc 1 177 32 is_stmt 1 view -0
 406              		.cfi_startproc
 407              		@ args = 0, pretend = 0, frame = 0
 408              		@ frame_needed = 0, uses_anonymous_args = 0
 409              		.loc 1 178 3 view .LVU119
 410              		.loc 1 178 11 is_stmt 0 view .LVU120
 411 0000 6C309FE5 		ldr	r3, .L34
 412              		.loc 1 177 32 view .LVU121
 413 0004 70402DE9 		push	{r4, r5, r6, lr}
 414              		.cfi_def_cfa_offset 16
 415              		.cfi_offset 4, -16
 416              		.cfi_offset 5, -12
 417              		.cfi_offset 6, -8
 418              		.cfi_offset 14, -4
 419              		.loc 1 177 32 view .LVU122
 420 0008 0050A0E1 		mov	r5, r0
 421              		.loc 1 178 11 view .LVU123
 422 000c 184093E5 		ldr	r4, [r3, #24]
 423              	.LVL24:
 424              		.loc 1 179 3 is_stmt 1 view .LVU124
 425              		.loc 1 180 3 view .LVU125
 426              		.loc 1 182 3 view .LVU126
 427              		.loc 1 182 21 view .LVU127
 428              		.loc 1 183 3 view .LVU128
 429              		.loc 1 183 40 view .LVU129
 430              		.loc 1 184 3 view .LVU130
 431              		.loc 1 186 36 view .LVU131
 432              		.loc 1 188 3 view .LVU132
 433              		.loc 1 188 8 is_stmt 0 view .LVU133
 434 0010 FEFFFFEB 		bl	chMtxUnlockS
 435              	.LVL25:
 436              	.LBB36:
 437              	.LBB37:
 438              		.loc 2 36 11 view .LVU134
 439 0014 0530A0E1 		mov	r3, r5
 440              	.LBE37:
 441              	.LBE36:
 442              		.loc 1 188 8 view .LVU135
 443 0018 0060A0E1 		mov	r6, r0
 444              	.LVL26:
 445              		.loc 1 189 3 is_stmt 1 view .LVU136
 446              		.loc 1 189 19 is_stmt 0 view .LVU137
 447 001c 245084E5 		str	r5, [r4, #36]
 448              		.loc 1 190 3 is_stmt 1 view .LVU138
 449              	.LVL27:
 450              	.LBB40:
 451              	.LBI36:
 452              		.loc 2 34 20 view .LVU139
 453              	.LBB38:
 454              		.loc 2 36 3 view .LVU140
 455              		.loc 2 36 3 is_stmt 0 view .LVU141
 456 0020 030000EA 		b	.L30
ARM GAS  /var/folders/l5/0x54b2c10074c8bt31ycjvl80000gp/T//ccp2SSgC.s 			page 9


 457              	.LVL28:
 458              	.L33:
 459              		.loc 2 39 34 view .LVU142
 460 0024 081093E5 		ldr	r1, [r3, #8]
 461 0028 082094E5 		ldr	r2, [r4, #8]
 462 002c 020051E1 		cmp	r1, r2
 463 0030 0200003A 		bcc	.L29
 464              	.L30:
 465              		.loc 2 37 3 is_stmt 1 view .LVU143
 466              		.loc 2 38 5 view .LVU144
 467              		.loc 2 38 8 is_stmt 0 view .LVU145
 468 0034 003093E5 		ldr	r3, [r3]
 469              	.LVL29:
 470              		.loc 2 39 3 view .LVU146
 471 0038 030055E1 		cmp	r5, r3
 472 003c F8FFFF1A 		bne	.L33
 473              	.L29:
 474              		.loc 2 40 3 is_stmt 1 view .LVU147
 475              		.loc 2 41 18 is_stmt 0 view .LVU148
 476 0040 042093E5 		ldr	r2, [r3, #4]
 477              		.loc 2 40 14 view .LVU149
 478 0044 003084E5 		str	r3, [r4]
 479              		.loc 2 41 3 is_stmt 1 view .LVU150
 480              		.loc 2 41 14 is_stmt 0 view .LVU151
 481 0048 042084E5 		str	r2, [r4, #4]
 482              		.loc 2 42 3 is_stmt 1 view .LVU152
 483              		.loc 2 42 35 is_stmt 0 view .LVU153
 484 004c 044083E5 		str	r4, [r3, #4]
 485              		.loc 2 42 22 view .LVU154
 486 0050 043094E5 		ldr	r3, [r4, #4]
 487              	.LVL30:
 488              		.loc 2 42 22 view .LVU155
 489              	.LBE38:
 490              	.LBE40:
 491              		.loc 1 191 3 view .LVU156
 492 0054 0500A0E3 		mov	r0, #5
 493              	.LVL31:
 494              	.LBB41:
 495              	.LBB39:
 496              		.loc 2 42 22 view .LVU157
 497 0058 004083E5 		str	r4, [r3]
 498              	.LVL32:
 499              		.loc 2 42 22 view .LVU158
 500              	.LBE39:
 501              	.LBE41:
 502              		.loc 1 191 3 is_stmt 1 view .LVU159
 503 005c FEFFFFEB 		bl	chSchGoSleepS
 504              	.LVL33:
 505              		.loc 1 192 3 view .LVU160
 506              		.loc 1 192 7 is_stmt 0 view .LVU161
 507 0060 244094E5 		ldr	r4, [r4, #36]
 508              	.LVL34:
 509              		.loc 1 193 3 is_stmt 1 view .LVU162
 510 0064 0600A0E1 		mov	r0, r6
 511 0068 FEFFFFEB 		bl	chMtxLockS
 512              	.LVL35:
 513              		.loc 1 194 3 view .LVU163
ARM GAS  /var/folders/l5/0x54b2c10074c8bt31ycjvl80000gp/T//ccp2SSgC.s 			page 10


 514              		.loc 1 195 1 is_stmt 0 view .LVU164
 515 006c 0400A0E1 		mov	r0, r4
 516 0070 7080BDE8 		pop	{r4, r5, r6, pc}
 517              	.L35:
 518              		.align	2
 519              	.L34:
 520 0074 00000000 		.word	rlist
 521              		.cfi_endproc
 522              	.LFE13:
 523              		.size	chCondWaitS, .-chCondWaitS
 524              		.section	.text.chCondWait,"ax",%progbits
 525              		.align	2
 526              		.global	chCondWait
 527              		.syntax unified
 528              		.arm
 529              		.fpu softvfp
 530              		.type	chCondWait, %function
 531              	chCondWait:
 532              	.LVL36:
 533              	.LFB12:
 534              		.loc 1 151 31 is_stmt 1 view -0
 535              		.cfi_startproc
 536              		@ args = 0, pretend = 0, frame = 0
 537              		@ frame_needed = 0, uses_anonymous_args = 0
 538              		.loc 1 152 3 view .LVU166
 539              		.loc 1 154 3 view .LVU167
 540              		.loc 1 151 31 is_stmt 0 view .LVU168
 541 0000 10402DE9 		push	{r4, lr}
 542              		.cfi_def_cfa_offset 8
 543              		.cfi_offset 4, -8
 544              		.cfi_offset 14, -4
 545              		.loc 1 154 3 view .LVU169
 546              		.syntax divided
 547              	@ 154 "../../os/kernel/src/chcond.c" 1
 548 0004 9FF021E3 		msr     CPSR_c, #0x9F
 549              	@ 0 "" 2
 550              		.loc 1 154 3 is_stmt 1 view .LVU170
 551              		.loc 1 154 14 view .LVU171
 552              		.loc 1 155 3 view .LVU172
 553              		.loc 1 155 9 is_stmt 0 view .LVU173
 554              		.arm
 555              		.syntax unified
 556 0008 FEFFFFEB 		bl	chCondWaitS
 557              	.LVL37:
 558              		.loc 1 156 3 is_stmt 1 view .LVU174
 559              		.loc 1 156 3 view .LVU175
 560              		.syntax divided
 561              	@ 156 "../../os/kernel/src/chcond.c" 1
 562 000c 1FF021E3 		msr     CPSR_c, #0x1F
 563              	@ 0 "" 2
 564              		.loc 1 156 16 view .LVU176
 565              		.loc 1 157 3 view .LVU177
 566              		.loc 1 158 1 is_stmt 0 view .LVU178
 567              		.arm
 568              		.syntax unified
 569 0010 1080BDE8 		pop	{r4, pc}
 570              		.cfi_endproc
ARM GAS  /var/folders/l5/0x54b2c10074c8bt31ycjvl80000gp/T//ccp2SSgC.s 			page 11


 571              	.LFE12:
 572              		.size	chCondWait, .-chCondWait
 573              		.section	.text.chCondWaitTimeoutS,"ax",%progbits
 574              		.align	2
 575              		.global	chCondWaitTimeoutS
 576              		.syntax unified
 577              		.arm
 578              		.fpu softvfp
 579              		.type	chCondWaitTimeoutS, %function
 580              	chCondWaitTimeoutS:
 581              	.LVL38:
 582              	.LFB15:
 583              		.loc 1 263 55 is_stmt 1 view -0
 584              		.cfi_startproc
 585              		@ args = 0, pretend = 0, frame = 0
 586              		@ frame_needed = 0, uses_anonymous_args = 0
 587              		.loc 1 264 3 view .LVU180
 588              		.loc 1 265 3 view .LVU181
 589              		.loc 1 267 3 view .LVU182
 590              		.loc 1 267 21 view .LVU183
 591              		.loc 1 268 3 view .LVU184
 592              		.loc 1 268 77 view .LVU185
 593              		.loc 1 269 3 view .LVU186
 594              		.loc 1 271 36 view .LVU187
 595              		.loc 1 273 3 view .LVU188
 596              		.loc 1 263 55 is_stmt 0 view .LVU189
 597 0000 70402DE9 		push	{r4, r5, r6, lr}
 598              		.cfi_def_cfa_offset 16
 599              		.cfi_offset 4, -16
 600              		.cfi_offset 5, -12
 601              		.cfi_offset 6, -8
 602              		.cfi_offset 14, -4
 603              		.loc 1 263 55 view .LVU190
 604 0004 0040A0E1 		mov	r4, r0
 605 0008 0160A0E1 		mov	r6, r1
 606              		.loc 1 273 8 view .LVU191
 607 000c FEFFFFEB 		bl	chMtxUnlockS
 608              	.LVL39:
 609              		.loc 1 274 3 view .LVU192
 610 0010 6C209FE5 		ldr	r2, .L48
 611              		.loc 1 273 8 view .LVU193
 612 0014 0050A0E1 		mov	r5, r0
 613              	.LVL40:
 614              		.loc 1 274 3 is_stmt 1 view .LVU194
 615 0018 18C092E5 		ldr	ip, [r2, #24]
 616              	.LBB42:
 617              	.LBB43:
 618              		.loc 2 36 11 is_stmt 0 view .LVU195
 619 001c 0430A0E1 		mov	r3, r4
 620              	.LBE43:
 621              	.LBE42:
 622              		.loc 1 274 21 view .LVU196
 623 0020 24408CE5 		str	r4, [ip, #36]
 624              		.loc 1 275 3 is_stmt 1 view .LVU197
 625              	.LVL41:
 626              	.LBB46:
 627              	.LBI42:
ARM GAS  /var/folders/l5/0x54b2c10074c8bt31ycjvl80000gp/T//ccp2SSgC.s 			page 12


 628              		.loc 2 34 20 view .LVU198
 629              	.LBB44:
 630              		.loc 2 36 3 view .LVU199
 631              		.loc 2 36 3 is_stmt 0 view .LVU200
 632 0024 030000EA 		b	.L40
 633              	.LVL42:
 634              	.L47:
 635              		.loc 2 39 34 view .LVU201
 636 0028 080093E5 		ldr	r0, [r3, #8]
 637 002c 08209CE5 		ldr	r2, [ip, #8]
 638 0030 020050E1 		cmp	r0, r2
 639 0034 0200003A 		bcc	.L39
 640              	.L40:
 641              		.loc 2 37 3 is_stmt 1 view .LVU202
 642              		.loc 2 38 5 view .LVU203
 643              		.loc 2 38 8 is_stmt 0 view .LVU204
 644 0038 003093E5 		ldr	r3, [r3]
 645              	.LVL43:
 646              		.loc 2 39 3 view .LVU205
 647 003c 030054E1 		cmp	r4, r3
 648 0040 F8FFFF1A 		bne	.L47
 649              	.L39:
 650              		.loc 2 40 3 is_stmt 1 view .LVU206
 651              		.loc 2 41 18 is_stmt 0 view .LVU207
 652 0044 042093E5 		ldr	r2, [r3, #4]
 653              		.loc 2 40 14 view .LVU208
 654 0048 00308CE5 		str	r3, [ip]
 655              		.loc 2 41 3 is_stmt 1 view .LVU209
 656              		.loc 2 41 14 is_stmt 0 view .LVU210
 657 004c 04208CE5 		str	r2, [ip, #4]
 658              		.loc 2 42 3 is_stmt 1 view .LVU211
 659              		.loc 2 42 35 is_stmt 0 view .LVU212
 660 0050 04C083E5 		str	ip, [r3, #4]
 661              		.loc 2 42 22 view .LVU213
 662 0054 04309CE5 		ldr	r3, [ip, #4]
 663              	.LVL44:
 664              		.loc 2 42 22 view .LVU214
 665              	.LBE44:
 666              	.LBE46:
 667              		.loc 1 276 9 view .LVU215
 668 0058 0610A0E1 		mov	r1, r6
 669              	.LBB47:
 670              	.LBB45:
 671              		.loc 2 42 22 view .LVU216
 672 005c 00C083E5 		str	ip, [r3]
 673              	.LVL45:
 674              		.loc 2 42 22 view .LVU217
 675              	.LBE45:
 676              	.LBE47:
 677              		.loc 1 276 3 is_stmt 1 view .LVU218
 678              		.loc 1 276 9 is_stmt 0 view .LVU219
 679 0060 0500A0E3 		mov	r0, #5
 680 0064 FEFFFFEB 		bl	chSchGoSleepTimeoutS
 681              	.LVL46:
 682              		.loc 1 277 6 view .LVU220
 683 0068 010070E3 		cmn	r0, #1
 684              		.loc 1 276 9 view .LVU221
ARM GAS  /var/folders/l5/0x54b2c10074c8bt31ycjvl80000gp/T//ccp2SSgC.s 			page 13


 685 006c 0040A0E1 		mov	r4, r0
 686              	.LVL47:
 687              		.loc 1 277 3 is_stmt 1 view .LVU222
 688              		.loc 1 277 6 is_stmt 0 view .LVU223
 689 0070 0100000A 		beq	.L38
 690              		.loc 1 278 5 is_stmt 1 view .LVU224
 691 0074 0500A0E1 		mov	r0, r5
 692              	.LVL48:
 693              		.loc 1 278 5 is_stmt 0 view .LVU225
 694 0078 FEFFFFEB 		bl	chMtxLockS
 695              	.LVL49:
 696              		.loc 1 279 3 is_stmt 1 view .LVU226
 697              	.L38:
 698              		.loc 1 280 1 is_stmt 0 view .LVU227
 699 007c 0400A0E1 		mov	r0, r4
 700 0080 7080BDE8 		pop	{r4, r5, r6, pc}
 701              	.L49:
 702              		.align	2
 703              	.L48:
 704 0084 00000000 		.word	rlist
 705              		.cfi_endproc
 706              	.LFE15:
 707              		.size	chCondWaitTimeoutS, .-chCondWaitTimeoutS
 708              		.section	.text.chCondWaitTimeout,"ax",%progbits
 709              		.align	2
 710              		.global	chCondWaitTimeout
 711              		.syntax unified
 712              		.arm
 713              		.fpu softvfp
 714              		.type	chCondWaitTimeout, %function
 715              	chCondWaitTimeout:
 716              	.LVL50:
 717              	.LFB14:
 718              		.loc 1 226 54 is_stmt 1 view -0
 719              		.cfi_startproc
 720              		@ args = 0, pretend = 0, frame = 0
 721              		@ frame_needed = 0, uses_anonymous_args = 0
 722              		.loc 1 227 3 view .LVU229
 723              		.loc 1 229 3 view .LVU230
 724              		.loc 1 226 54 is_stmt 0 view .LVU231
 725 0000 10402DE9 		push	{r4, lr}
 726              		.cfi_def_cfa_offset 8
 727              		.cfi_offset 4, -8
 728              		.cfi_offset 14, -4
 729              		.loc 1 229 3 view .LVU232
 730              		.syntax divided
 731              	@ 229 "../../os/kernel/src/chcond.c" 1
 732 0004 9FF021E3 		msr     CPSR_c, #0x9F
 733              	@ 0 "" 2
 734              		.loc 1 229 3 is_stmt 1 view .LVU233
 735              		.loc 1 229 14 view .LVU234
 736              		.loc 1 230 3 view .LVU235
 737              		.loc 1 230 9 is_stmt 0 view .LVU236
 738              		.arm
 739              		.syntax unified
 740 0008 FEFFFFEB 		bl	chCondWaitTimeoutS
 741              	.LVL51:
ARM GAS  /var/folders/l5/0x54b2c10074c8bt31ycjvl80000gp/T//ccp2SSgC.s 			page 14


 742              		.loc 1 231 3 is_stmt 1 view .LVU237
 743              		.loc 1 231 3 view .LVU238
 744              		.syntax divided
 745              	@ 231 "../../os/kernel/src/chcond.c" 1
 746 000c 1FF021E3 		msr     CPSR_c, #0x1F
 747              	@ 0 "" 2
 748              		.loc 1 231 16 view .LVU239
 749              		.loc 1 232 3 view .LVU240
 750              		.loc 1 233 1 is_stmt 0 view .LVU241
 751              		.arm
 752              		.syntax unified
 753 0010 1080BDE8 		pop	{r4, pc}
 754              		.cfi_endproc
 755              	.LFE14:
 756              		.size	chCondWaitTimeout, .-chCondWaitTimeout
 757              		.text
 758              	.Letext0:
 759              		.file 3 "/usr/local/Cellar/arm-gcc-bin/8-2019-q3-update/arm-none-eabi/include/machine/_default_typ
 760              		.file 4 "/usr/local/Cellar/arm-gcc-bin/8-2019-q3-update/arm-none-eabi/include/sys/_stdint.h"
 761              		.file 5 "../../os/ports/GCC/ARM/chtypes.h"
 762              		.file 6 "../../os/kernel/include/chlists.h"
 763              		.file 7 "../../os/kernel/include/chthreads.h"
 764              		.file 8 "../../os/ports/GCC/ARM/chcore.h"
 765              		.file 9 "../../os/kernel/include/chvt.h"
 766              		.file 10 "../../os/kernel/include/chschd.h"
 767              		.file 11 "../../os/kernel/include/chmtx.h"
 768              		.file 12 "../../os/kernel/include/chcond.h"
 769              		.file 13 "../../os/kernel/include/chregistry.h"
 770              		.file 14 "../../os/kernel/include/ch.h"
 771              		.section	.debug_info,"",%progbits
 772              	.Ldebug_info0:
 773 0000 BA0B0000 		.4byte	0xbba
 774 0004 0400     		.2byte	0x4
 775 0006 00000000 		.4byte	.Ldebug_abbrev0
 776 000a 04       		.byte	0x4
 777 000b 01       		.uleb128 0x1
 778 000c 05020000 		.4byte	.LASF114
 779 0010 0C       		.byte	0xc
 780 0011 5F010000 		.4byte	.LASF115
 781 0015 92050000 		.4byte	.LASF116
 782 0019 A8000000 		.4byte	.Ldebug_ranges0+0xa8
 783 001d 00000000 		.4byte	0
 784 0021 00000000 		.4byte	.Ldebug_line0
 785 0025 02       		.uleb128 0x2
 786 0026 04       		.byte	0x4
 787 0027 05       		.byte	0x5
 788 0028 696E7400 		.ascii	"int\000"
 789 002c 03       		.uleb128 0x3
 790 002d 04       		.byte	0x4
 791 002e 07       		.byte	0x7
 792 002f 96010000 		.4byte	.LASF0
 793 0033 03       		.uleb128 0x3
 794 0034 01       		.byte	0x1
 795 0035 06       		.byte	0x6
 796 0036 97000000 		.4byte	.LASF1
 797 003a 04       		.uleb128 0x4
 798 003b 25000000 		.4byte	.LASF4
ARM GAS  /var/folders/l5/0x54b2c10074c8bt31ycjvl80000gp/T//ccp2SSgC.s 			page 15


 799 003f 03       		.byte	0x3
 800 0040 2B       		.byte	0x2b
 801 0041 18       		.byte	0x18
 802 0042 46000000 		.4byte	0x46
 803 0046 03       		.uleb128 0x3
 804 0047 01       		.byte	0x1
 805 0048 08       		.byte	0x8
 806 0049 D7030000 		.4byte	.LASF2
 807 004d 03       		.uleb128 0x3
 808 004e 02       		.byte	0x2
 809 004f 05       		.byte	0x5
 810 0050 EF030000 		.4byte	.LASF3
 811 0054 04       		.uleb128 0x4
 812 0055 9C040000 		.4byte	.LASF5
 813 0059 03       		.byte	0x3
 814 005a 39       		.byte	0x39
 815 005b 19       		.byte	0x19
 816 005c 60000000 		.4byte	0x60
 817 0060 03       		.uleb128 0x3
 818 0061 02       		.byte	0x2
 819 0062 07       		.byte	0x7
 820 0063 D7010000 		.4byte	.LASF6
 821 0067 04       		.uleb128 0x4
 822 0068 CF040000 		.4byte	.LASF7
 823 006c 03       		.byte	0x3
 824 006d 4D       		.byte	0x4d
 825 006e 18       		.byte	0x18
 826 006f 73000000 		.4byte	0x73
 827 0073 03       		.uleb128 0x3
 828 0074 04       		.byte	0x4
 829 0075 05       		.byte	0x5
 830 0076 DE000000 		.4byte	.LASF8
 831 007a 04       		.uleb128 0x4
 832 007b 43010000 		.4byte	.LASF9
 833 007f 03       		.byte	0x3
 834 0080 4F       		.byte	0x4f
 835 0081 19       		.byte	0x19
 836 0082 86000000 		.4byte	0x86
 837 0086 03       		.uleb128 0x3
 838 0087 04       		.byte	0x4
 839 0088 07       		.byte	0x7
 840 0089 AB010000 		.4byte	.LASF10
 841 008d 03       		.uleb128 0x3
 842 008e 08       		.byte	0x8
 843 008f 05       		.byte	0x5
 844 0090 89000000 		.4byte	.LASF11
 845 0094 03       		.uleb128 0x3
 846 0095 08       		.byte	0x8
 847 0096 07       		.byte	0x7
 848 0097 36000000 		.4byte	.LASF12
 849 009b 04       		.uleb128 0x4
 850 009c 32050000 		.4byte	.LASF13
 851 00a0 04       		.byte	0x4
 852 00a1 18       		.byte	0x18
 853 00a2 13       		.byte	0x13
 854 00a3 3A000000 		.4byte	0x3a
 855 00a7 04       		.uleb128 0x4
ARM GAS  /var/folders/l5/0x54b2c10074c8bt31ycjvl80000gp/T//ccp2SSgC.s 			page 16


 856 00a8 07010000 		.4byte	.LASF14
 857 00ac 04       		.byte	0x4
 858 00ad 24       		.byte	0x24
 859 00ae 14       		.byte	0x14
 860 00af 54000000 		.4byte	0x54
 861 00b3 04       		.uleb128 0x4
 862 00b4 CF030000 		.4byte	.LASF15
 863 00b8 04       		.byte	0x4
 864 00b9 2C       		.byte	0x2c
 865 00ba 13       		.byte	0x13
 866 00bb 67000000 		.4byte	0x67
 867 00bf 04       		.uleb128 0x4
 868 00c0 61040000 		.4byte	.LASF16
 869 00c4 04       		.byte	0x4
 870 00c5 30       		.byte	0x30
 871 00c6 14       		.byte	0x14
 872 00c7 7A000000 		.4byte	0x7a
 873 00cb 04       		.uleb128 0x4
 874 00cc D5020000 		.4byte	.LASF17
 875 00d0 05       		.byte	0x5
 876 00d1 2A       		.byte	0x2a
 877 00d2 19       		.byte	0x19
 878 00d3 9B000000 		.4byte	0x9b
 879 00d7 04       		.uleb128 0x4
 880 00d8 F3000000 		.4byte	.LASF18
 881 00dc 05       		.byte	0x5
 882 00dd 2B       		.byte	0x2b
 883 00de 19       		.byte	0x19
 884 00df 9B000000 		.4byte	0x9b
 885 00e3 04       		.uleb128 0x4
 886 00e4 9F030000 		.4byte	.LASF19
 887 00e8 05       		.byte	0x5
 888 00e9 2C       		.byte	0x2c
 889 00ea 19       		.byte	0x19
 890 00eb 9B000000 		.4byte	0x9b
 891 00ef 04       		.uleb128 0x4
 892 00f0 B9030000 		.4byte	.LASF20
 893 00f4 05       		.byte	0x5
 894 00f5 2E       		.byte	0x2e
 895 00f6 19       		.byte	0x19
 896 00f7 BF000000 		.4byte	0xbf
 897 00fb 04       		.uleb128 0x4
 898 00fc F7010000 		.4byte	.LASF21
 899 0100 05       		.byte	0x5
 900 0101 2F       		.byte	0x2f
 901 0102 19       		.byte	0x19
 902 0103 B3000000 		.4byte	0xb3
 903 0107 04       		.uleb128 0x4
 904 0108 E9020000 		.4byte	.LASF22
 905 010c 05       		.byte	0x5
 906 010d 31       		.byte	0x31
 907 010e 19       		.byte	0x19
 908 010f BF000000 		.4byte	0xbf
 909 0113 04       		.uleb128 0x4
 910 0114 BA040000 		.4byte	.LASF23
 911 0118 05       		.byte	0x5
 912 0119 33       		.byte	0x33
ARM GAS  /var/folders/l5/0x54b2c10074c8bt31ycjvl80000gp/T//ccp2SSgC.s 			page 17


 913 011a 19       		.byte	0x19
 914 011b BF000000 		.4byte	0xbf
 915 011f 05       		.uleb128 0x5
 916 0120 13010000 		.4byte	0x113
 917 0124 04       		.uleb128 0x4
 918 0125 39040000 		.4byte	.LASF24
 919 0129 06       		.byte	0x6
 920 012a 23       		.byte	0x23
 921 012b 17       		.byte	0x17
 922 012c 30010000 		.4byte	0x130
 923 0130 06       		.uleb128 0x6
 924 0131 39040000 		.4byte	.LASF24
 925 0135 44       		.byte	0x44
 926 0136 07       		.byte	0x7
 927 0137 57       		.byte	0x57
 928 0138 08       		.byte	0x8
 929 0139 28020000 		.4byte	0x228
 930 013d 07       		.uleb128 0x7
 931 013e 1B040000 		.4byte	.LASF25
 932 0142 07       		.byte	0x7
 933 0143 58       		.byte	0x58
 934 0144 1A       		.byte	0x1a
 935 0145 4C020000 		.4byte	0x24c
 936 0149 00       		.byte	0
 937 014a 07       		.uleb128 0x7
 938 014b B2030000 		.4byte	.LASF26
 939 014f 07       		.byte	0x7
 940 0150 5A       		.byte	0x5a
 941 0151 1A       		.byte	0x1a
 942 0152 4C020000 		.4byte	0x24c
 943 0156 04       		.byte	0x4
 944 0157 07       		.uleb128 0x7
 945 0158 75000000 		.4byte	.LASF27
 946 015c 07       		.byte	0x7
 947 015d 5C       		.byte	0x5c
 948 015e 19       		.byte	0x19
 949 015f EF000000 		.4byte	0xef
 950 0163 08       		.byte	0x8
 951 0164 07       		.uleb128 0x7
 952 0165 E9050000 		.4byte	.LASF28
 953 0169 07       		.byte	0x7
 954 016a 5D       		.byte	0x5d
 955 016b 19       		.byte	0x19
 956 016c 17030000 		.4byte	0x317
 957 0170 0C       		.byte	0xc
 958 0171 07       		.uleb128 0x7
 959 0172 1A010000 		.4byte	.LASF29
 960 0176 07       		.byte	0x7
 961 0177 5F       		.byte	0x5f
 962 0178 1A       		.byte	0x1a
 963 0179 4C020000 		.4byte	0x24c
 964 017d 10       		.byte	0x10
 965 017e 07       		.uleb128 0x7
 966 017f 55030000 		.4byte	.LASF30
 967 0183 07       		.byte	0x7
 968 0184 60       		.byte	0x60
 969 0185 1A       		.byte	0x1a
ARM GAS  /var/folders/l5/0x54b2c10074c8bt31ycjvl80000gp/T//ccp2SSgC.s 			page 18


 970 0186 4C020000 		.4byte	0x24c
 971 018a 14       		.byte	0x14
 972 018b 07       		.uleb128 0x7
 973 018c 4E050000 		.4byte	.LASF31
 974 0190 07       		.byte	0x7
 975 0191 67       		.byte	0x67
 976 0192 1A       		.byte	0x1a
 977 0193 24050000 		.4byte	0x524
 978 0197 18       		.byte	0x18
 979 0198 07       		.uleb128 0x7
 980 0199 F9030000 		.4byte	.LASF32
 981 019d 07       		.byte	0x7
 982 019e 72       		.byte	0x72
 983 019f 19       		.byte	0x19
 984 01a0 D7000000 		.4byte	0xd7
 985 01a4 1C       		.byte	0x1c
 986 01a5 07       		.uleb128 0x7
 987 01a6 31040000 		.4byte	.LASF33
 988 01aa 07       		.byte	0x7
 989 01ab 76       		.byte	0x76
 990 01ac 19       		.byte	0x19
 991 01ad CB000000 		.4byte	0xcb
 992 01b1 1D       		.byte	0x1d
 993 01b2 07       		.uleb128 0x7
 994 01b3 1B050000 		.4byte	.LASF34
 995 01b7 07       		.byte	0x7
 996 01b8 7B       		.byte	0x7b
 997 01b9 19       		.byte	0x19
 998 01ba E3000000 		.4byte	0xe3
 999 01be 1E       		.byte	0x1e
 1000 01bf 07       		.uleb128 0x7
 1001 01c0 F0040000 		.4byte	.LASF35
 1002 01c4 07       		.byte	0x7
 1003 01c5 88       		.byte	0x88
 1004 01c6 19       		.byte	0x19
 1005 01c7 1F010000 		.4byte	0x11f
 1006 01cb 20       		.byte	0x20
 1007 01cc 08       		.uleb128 0x8
 1008 01cd 705F7500 		.ascii	"p_u\000"
 1009 01d1 07       		.byte	0x7
 1010 01d2 AD       		.byte	0xad
 1011 01d3 19       		.byte	0x19
 1012 01d4 EA040000 		.4byte	0x4ea
 1013 01d8 24       		.byte	0x24
 1014 01d9 07       		.uleb128 0x7
 1015 01da EF050000 		.4byte	.LASF36
 1016 01de 07       		.byte	0x7
 1017 01df B2       		.byte	0xb2
 1018 01e0 19       		.byte	0x19
 1019 01e1 75020000 		.4byte	0x275
 1020 01e5 28       		.byte	0x28
 1021 01e6 07       		.uleb128 0x7
 1022 01e7 FE040000 		.4byte	.LASF37
 1023 01eb 07       		.byte	0x7
 1024 01ec B8       		.byte	0xb8
 1025 01ed 19       		.byte	0x19
 1026 01ee 52020000 		.4byte	0x252
ARM GAS  /var/folders/l5/0x54b2c10074c8bt31ycjvl80000gp/T//ccp2SSgC.s 			page 19


 1027 01f2 2C       		.byte	0x2c
 1028 01f3 07       		.uleb128 0x7
 1029 01f4 0D000000 		.4byte	.LASF38
 1030 01f8 07       		.byte	0x7
 1031 01f9 BC       		.byte	0xbc
 1032 01fa 19       		.byte	0x19
 1033 01fb FB000000 		.4byte	0xfb
 1034 01ff 34       		.byte	0x34
 1035 0200 07       		.uleb128 0x7
 1036 0201 56040000 		.4byte	.LASF39
 1037 0205 07       		.byte	0x7
 1038 0206 C2       		.byte	0xc2
 1039 0207 19       		.byte	0x19
 1040 0208 07010000 		.4byte	0x107
 1041 020c 38       		.byte	0x38
 1042 020d 07       		.uleb128 0x7
 1043 020e E5030000 		.4byte	.LASF40
 1044 0212 07       		.byte	0x7
 1045 0213 C9       		.byte	0xc9
 1046 0214 1A       		.byte	0x1a
 1047 0215 36050000 		.4byte	0x536
 1048 0219 3C       		.byte	0x3c
 1049 021a 07       		.uleb128 0x7
 1050 021b C4040000 		.4byte	.LASF41
 1051 021f 07       		.byte	0x7
 1052 0220 CD       		.byte	0xcd
 1053 0221 19       		.byte	0x19
 1054 0222 EF000000 		.4byte	0xef
 1055 0226 40       		.byte	0x40
 1056 0227 00       		.byte	0
 1057 0228 09       		.uleb128 0x9
 1058 0229 08       		.byte	0x8
 1059 022a 06       		.byte	0x6
 1060 022b 5A       		.byte	0x5a
 1061 022c 09       		.byte	0x9
 1062 022d 4C020000 		.4byte	0x24c
 1063 0231 07       		.uleb128 0x7
 1064 0232 1B040000 		.4byte	.LASF25
 1065 0236 06       		.byte	0x6
 1066 0237 5B       		.byte	0x5b
 1067 0238 1A       		.byte	0x1a
 1068 0239 4C020000 		.4byte	0x24c
 1069 023d 00       		.byte	0
 1070 023e 07       		.uleb128 0x7
 1071 023f B2030000 		.4byte	.LASF26
 1072 0243 06       		.byte	0x6
 1073 0244 5D       		.byte	0x5d
 1074 0245 1A       		.byte	0x1a
 1075 0246 4C020000 		.4byte	0x24c
 1076 024a 04       		.byte	0x4
 1077 024b 00       		.byte	0
 1078 024c 0A       		.uleb128 0xa
 1079 024d 04       		.byte	0x4
 1080 024e 24010000 		.4byte	0x124
 1081 0252 04       		.uleb128 0x4
 1082 0253 63030000 		.4byte	.LASF42
 1083 0257 06       		.byte	0x6
ARM GAS  /var/folders/l5/0x54b2c10074c8bt31ycjvl80000gp/T//ccp2SSgC.s 			page 20


 1084 0258 5F       		.byte	0x5f
 1085 0259 03       		.byte	0x3
 1086 025a 28020000 		.4byte	0x228
 1087 025e 09       		.uleb128 0x9
 1088 025f 04       		.byte	0x4
 1089 0260 06       		.byte	0x6
 1090 0261 64       		.byte	0x64
 1091 0262 09       		.byte	0x9
 1092 0263 75020000 		.4byte	0x275
 1093 0267 07       		.uleb128 0x7
 1094 0268 1B040000 		.4byte	.LASF25
 1095 026c 06       		.byte	0x6
 1096 026d 66       		.byte	0x66
 1097 026e 16       		.byte	0x16
 1098 026f 4C020000 		.4byte	0x24c
 1099 0273 00       		.byte	0
 1100 0274 00       		.byte	0
 1101 0275 04       		.uleb128 0x4
 1102 0276 DD020000 		.4byte	.LASF43
 1103 027a 06       		.byte	0x6
 1104 027b 69       		.byte	0x69
 1105 027c 03       		.byte	0x3
 1106 027d 5E020000 		.4byte	0x25e
 1107 0281 04       		.uleb128 0x4
 1108 0282 FB020000 		.4byte	.LASF44
 1109 0286 08       		.byte	0x8
 1110 0287 9D       		.byte	0x9d
 1111 0288 12       		.byte	0x12
 1112 0289 BF000000 		.4byte	0xbf
 1113 028d 04       		.uleb128 0x4
 1114 028e 4E010000 		.4byte	.LASF45
 1115 0292 08       		.byte	0x8
 1116 0293 A2       		.byte	0xa2
 1117 0294 0F       		.byte	0xf
 1118 0295 99020000 		.4byte	0x299
 1119 0299 0B       		.uleb128 0xb
 1120 029a 04       		.byte	0x4
 1121 029b 06       		.uleb128 0x6
 1122 029c F7040000 		.4byte	.LASF46
 1123 02a0 24       		.byte	0x24
 1124 02a1 08       		.byte	0x8
 1125 02a2 B9       		.byte	0xb9
 1126 02a3 08       		.byte	0x8
 1127 02a4 17030000 		.4byte	0x317
 1128 02a8 08       		.uleb128 0x8
 1129 02a9 723400   		.ascii	"r4\000"
 1130 02ac 08       		.byte	0x8
 1131 02ad BA       		.byte	0xba
 1132 02ae 11       		.byte	0x11
 1133 02af 8D020000 		.4byte	0x28d
 1134 02b3 00       		.byte	0
 1135 02b4 08       		.uleb128 0x8
 1136 02b5 723500   		.ascii	"r5\000"
 1137 02b8 08       		.byte	0x8
 1138 02b9 BB       		.byte	0xbb
 1139 02ba 11       		.byte	0x11
 1140 02bb 8D020000 		.4byte	0x28d
ARM GAS  /var/folders/l5/0x54b2c10074c8bt31ycjvl80000gp/T//ccp2SSgC.s 			page 21


 1141 02bf 04       		.byte	0x4
 1142 02c0 08       		.uleb128 0x8
 1143 02c1 723600   		.ascii	"r6\000"
 1144 02c4 08       		.byte	0x8
 1145 02c5 BC       		.byte	0xbc
 1146 02c6 11       		.byte	0x11
 1147 02c7 8D020000 		.4byte	0x28d
 1148 02cb 08       		.byte	0x8
 1149 02cc 08       		.uleb128 0x8
 1150 02cd 723700   		.ascii	"r7\000"
 1151 02d0 08       		.byte	0x8
 1152 02d1 BD       		.byte	0xbd
 1153 02d2 11       		.byte	0x11
 1154 02d3 8D020000 		.4byte	0x28d
 1155 02d7 0C       		.byte	0xc
 1156 02d8 08       		.uleb128 0x8
 1157 02d9 723800   		.ascii	"r8\000"
 1158 02dc 08       		.byte	0x8
 1159 02dd BE       		.byte	0xbe
 1160 02de 11       		.byte	0x11
 1161 02df 8D020000 		.4byte	0x28d
 1162 02e3 10       		.byte	0x10
 1163 02e4 08       		.uleb128 0x8
 1164 02e5 723900   		.ascii	"r9\000"
 1165 02e8 08       		.byte	0x8
 1166 02e9 BF       		.byte	0xbf
 1167 02ea 11       		.byte	0x11
 1168 02eb 8D020000 		.4byte	0x28d
 1169 02ef 14       		.byte	0x14
 1170 02f0 08       		.uleb128 0x8
 1171 02f1 72313000 		.ascii	"r10\000"
 1172 02f5 08       		.byte	0x8
 1173 02f6 C0       		.byte	0xc0
 1174 02f7 11       		.byte	0x11
 1175 02f8 8D020000 		.4byte	0x28d
 1176 02fc 18       		.byte	0x18
 1177 02fd 08       		.uleb128 0x8
 1178 02fe 72313100 		.ascii	"r11\000"
 1179 0302 08       		.byte	0x8
 1180 0303 C1       		.byte	0xc1
 1181 0304 11       		.byte	0x11
 1182 0305 8D020000 		.4byte	0x28d
 1183 0309 1C       		.byte	0x1c
 1184 030a 08       		.uleb128 0x8
 1185 030b 6C7200   		.ascii	"lr\000"
 1186 030e 08       		.byte	0x8
 1187 030f C2       		.byte	0xc2
 1188 0310 11       		.byte	0x11
 1189 0311 8D020000 		.4byte	0x28d
 1190 0315 20       		.byte	0x20
 1191 0316 00       		.byte	0
 1192 0317 06       		.uleb128 0x6
 1193 0318 CF010000 		.4byte	.LASF47
 1194 031c 04       		.byte	0x4
 1195 031d 08       		.byte	0x8
 1196 031e CA       		.byte	0xca
 1197 031f 08       		.byte	0x8
ARM GAS  /var/folders/l5/0x54b2c10074c8bt31ycjvl80000gp/T//ccp2SSgC.s 			page 22


 1198 0320 32030000 		.4byte	0x332
 1199 0324 08       		.uleb128 0x8
 1200 0325 72313300 		.ascii	"r13\000"
 1201 0329 08       		.byte	0x8
 1202 032a CB       		.byte	0xcb
 1203 032b 12       		.byte	0x12
 1204 032c 32030000 		.4byte	0x332
 1205 0330 00       		.byte	0
 1206 0331 00       		.byte	0
 1207 0332 0A       		.uleb128 0xa
 1208 0333 04       		.byte	0x4
 1209 0334 9B020000 		.4byte	0x29b
 1210 0338 04       		.uleb128 0x4
 1211 0339 C6010000 		.4byte	.LASF48
 1212 033d 09       		.byte	0x9
 1213 033e 4E       		.byte	0x4e
 1214 033f 10       		.byte	0x10
 1215 0340 44030000 		.4byte	0x344
 1216 0344 0A       		.uleb128 0xa
 1217 0345 04       		.byte	0x4
 1218 0346 4A030000 		.4byte	0x34a
 1219 034a 0C       		.uleb128 0xc
 1220 034b 55030000 		.4byte	0x355
 1221 034f 0D       		.uleb128 0xd
 1222 0350 99020000 		.4byte	0x299
 1223 0354 00       		.byte	0
 1224 0355 04       		.uleb128 0x4
 1225 0356 7E040000 		.4byte	.LASF49
 1226 035a 09       		.byte	0x9
 1227 035b 53       		.byte	0x53
 1228 035c 1D       		.byte	0x1d
 1229 035d 61030000 		.4byte	0x361
 1230 0361 06       		.uleb128 0x6
 1231 0362 7E040000 		.4byte	.LASF49
 1232 0366 14       		.byte	0x14
 1233 0367 09       		.byte	0x9
 1234 0368 5A       		.byte	0x5a
 1235 0369 08       		.byte	0x8
 1236 036a B0030000 		.4byte	0x3b0
 1237 036e 07       		.uleb128 0x7
 1238 036f A3010000 		.4byte	.LASF50
 1239 0373 09       		.byte	0x9
 1240 0374 5B       		.byte	0x5b
 1241 0375 1A       		.byte	0x1a
 1242 0376 B0030000 		.4byte	0x3b0
 1243 037a 00       		.byte	0
 1244 037b 07       		.uleb128 0x7
 1245 037c 57010000 		.4byte	.LASF51
 1246 0380 09       		.byte	0x9
 1247 0381 5D       		.byte	0x5d
 1248 0382 1A       		.byte	0x1a
 1249 0383 B0030000 		.4byte	0x3b0
 1250 0387 04       		.byte	0x4
 1251 0388 07       		.uleb128 0x7
 1252 0389 1A030000 		.4byte	.LASF52
 1253 038d 09       		.byte	0x9
 1254 038e 5F       		.byte	0x5f
ARM GAS  /var/folders/l5/0x54b2c10074c8bt31ycjvl80000gp/T//ccp2SSgC.s 			page 23


 1255 038f 19       		.byte	0x19
 1256 0390 13010000 		.4byte	0x113
 1257 0394 08       		.byte	0x8
 1258 0395 07       		.uleb128 0x7
 1259 0396 22030000 		.4byte	.LASF53
 1260 039a 09       		.byte	0x9
 1261 039b 60       		.byte	0x60
 1262 039c 19       		.byte	0x19
 1263 039d 38030000 		.4byte	0x338
 1264 03a1 0C       		.byte	0xc
 1265 03a2 07       		.uleb128 0x7
 1266 03a3 09050000 		.4byte	.LASF54
 1267 03a7 09       		.byte	0x9
 1268 03a8 62       		.byte	0x62
 1269 03a9 1A       		.byte	0x1a
 1270 03aa 99020000 		.4byte	0x299
 1271 03ae 10       		.byte	0x10
 1272 03af 00       		.byte	0
 1273 03b0 0A       		.uleb128 0xa
 1274 03b1 04       		.byte	0x4
 1275 03b2 55030000 		.4byte	0x355
 1276 03b6 09       		.uleb128 0x9
 1277 03b7 10       		.byte	0x10
 1278 03b8 09       		.byte	0x9
 1279 03b9 6C       		.byte	0x6c
 1280 03ba 09       		.byte	0x9
 1281 03bb F4030000 		.4byte	0x3f4
 1282 03bf 07       		.uleb128 0x7
 1283 03c0 A3010000 		.4byte	.LASF50
 1284 03c4 09       		.byte	0x9
 1285 03c5 6D       		.byte	0x6d
 1286 03c6 1A       		.byte	0x1a
 1287 03c7 B0030000 		.4byte	0x3b0
 1288 03cb 00       		.byte	0
 1289 03cc 07       		.uleb128 0x7
 1290 03cd 57010000 		.4byte	.LASF51
 1291 03d1 09       		.byte	0x9
 1292 03d2 6F       		.byte	0x6f
 1293 03d3 1A       		.byte	0x1a
 1294 03d4 B0030000 		.4byte	0x3b0
 1295 03d8 04       		.byte	0x4
 1296 03d9 07       		.uleb128 0x7
 1297 03da 1A030000 		.4byte	.LASF52
 1298 03de 09       		.byte	0x9
 1299 03df 71       		.byte	0x71
 1300 03e0 19       		.byte	0x19
 1301 03e1 13010000 		.4byte	0x113
 1302 03e5 08       		.byte	0x8
 1303 03e6 07       		.uleb128 0x7
 1304 03e7 67050000 		.4byte	.LASF55
 1305 03eb 09       		.byte	0x9
 1306 03ec 72       		.byte	0x72
 1307 03ed 19       		.byte	0x19
 1308 03ee 1F010000 		.4byte	0x11f
 1309 03f2 0C       		.byte	0xc
 1310 03f3 00       		.byte	0
 1311 03f4 04       		.uleb128 0x4
ARM GAS  /var/folders/l5/0x54b2c10074c8bt31ycjvl80000gp/T//ccp2SSgC.s 			page 24


 1312 03f5 DA050000 		.4byte	.LASF56
 1313 03f9 09       		.byte	0x9
 1314 03fa 73       		.byte	0x73
 1315 03fb 03       		.byte	0x3
 1316 03fc B6030000 		.4byte	0x3b6
 1317 0400 0E       		.uleb128 0xe
 1318 0401 2F000000 		.4byte	.LASF64
 1319 0405 09       		.byte	0x9
 1320 0406 D1       		.byte	0xd1
 1321 0407 0F       		.byte	0xf
 1322 0408 F4030000 		.4byte	0x3f4
 1323 040c 09       		.uleb128 0x9
 1324 040d 1C       		.byte	0x1c
 1325 040e 0A       		.byte	0xa
 1326 040f 57       		.byte	0x57
 1327 0410 09       		.byte	0x9
 1328 0411 64040000 		.4byte	0x464
 1329 0415 07       		.uleb128 0x7
 1330 0416 76040000 		.4byte	.LASF57
 1331 041a 0A       		.byte	0xa
 1332 041b 58       		.byte	0x58
 1333 041c 19       		.byte	0x19
 1334 041d 52020000 		.4byte	0x252
 1335 0421 00       		.byte	0
 1336 0422 07       		.uleb128 0x7
 1337 0423 0D040000 		.4byte	.LASF58
 1338 0427 0A       		.byte	0xa
 1339 0428 59       		.byte	0x59
 1340 0429 19       		.byte	0x19
 1341 042a EF000000 		.4byte	0xef
 1342 042e 08       		.byte	0x8
 1343 042f 07       		.uleb128 0x7
 1344 0430 5D030000 		.4byte	.LASF59
 1345 0434 0A       		.byte	0xa
 1346 0435 5B       		.byte	0x5b
 1347 0436 19       		.byte	0x19
 1348 0437 17030000 		.4byte	0x317
 1349 043b 0C       		.byte	0xc
 1350 043c 07       		.uleb128 0x7
 1351 043d FD010000 		.4byte	.LASF60
 1352 0441 0A       		.byte	0xa
 1353 0442 5E       		.byte	0x5e
 1354 0443 1A       		.byte	0x1a
 1355 0444 4C020000 		.4byte	0x24c
 1356 0448 10       		.byte	0x10
 1357 0449 07       		.uleb128 0x7
 1358 044a 87030000 		.4byte	.LASF61
 1359 044e 0A       		.byte	0xa
 1360 044f 5F       		.byte	0x5f
 1361 0450 1A       		.byte	0x1a
 1362 0451 4C020000 		.4byte	0x24c
 1363 0455 14       		.byte	0x14
 1364 0456 07       		.uleb128 0x7
 1365 0457 7D030000 		.4byte	.LASF62
 1366 045b 0A       		.byte	0xa
 1367 045c 62       		.byte	0x62
 1368 045d 1A       		.byte	0x1a
ARM GAS  /var/folders/l5/0x54b2c10074c8bt31ycjvl80000gp/T//ccp2SSgC.s 			page 25


 1369 045e 4C020000 		.4byte	0x24c
 1370 0462 18       		.byte	0x18
 1371 0463 00       		.byte	0
 1372 0464 04       		.uleb128 0x4
 1373 0465 22050000 		.4byte	.LASF63
 1374 0469 0A       		.byte	0xa
 1375 046a 64       		.byte	0x64
 1376 046b 03       		.byte	0x3
 1377 046c 0C040000 		.4byte	0x40c
 1378 0470 0E       		.uleb128 0xe
 1379 0471 2C050000 		.4byte	.LASF65
 1380 0475 0A       		.byte	0xa
 1381 0476 68       		.byte	0x68
 1382 0477 12       		.byte	0x12
 1383 0478 64040000 		.4byte	0x464
 1384 047c 06       		.uleb128 0x6
 1385 047d F5020000 		.4byte	.LASF66
 1386 0481 10       		.byte	0x10
 1387 0482 0B       		.byte	0xb
 1388 0483 25       		.byte	0x25
 1389 0484 10       		.byte	0x10
 1390 0485 B1040000 		.4byte	0x4b1
 1391 0489 07       		.uleb128 0x7
 1392 048a C0000000 		.4byte	.LASF67
 1393 048e 0B       		.byte	0xb
 1394 048f 26       		.byte	0x26
 1395 0490 19       		.byte	0x19
 1396 0491 52020000 		.4byte	0x252
 1397 0495 00       		.byte	0
 1398 0496 07       		.uleb128 0x7
 1399 0497 E1050000 		.4byte	.LASF68
 1400 049b 0B       		.byte	0xb
 1401 049c 28       		.byte	0x28
 1402 049d 1A       		.byte	0x1a
 1403 049e 4C020000 		.4byte	0x24c
 1404 04a2 08       		.byte	0x8
 1405 04a3 07       		.uleb128 0x7
 1406 04a4 B3040000 		.4byte	.LASF69
 1407 04a8 0B       		.byte	0xb
 1408 04a9 2A       		.byte	0x2a
 1409 04aa 1A       		.byte	0x1a
 1410 04ab B1040000 		.4byte	0x4b1
 1411 04af 0C       		.byte	0xc
 1412 04b0 00       		.byte	0
 1413 04b1 0A       		.uleb128 0xa
 1414 04b2 04       		.byte	0x4
 1415 04b3 7C040000 		.4byte	0x47c
 1416 04b7 04       		.uleb128 0x4
 1417 04b8 F5020000 		.4byte	.LASF66
 1418 04bc 0B       		.byte	0xb
 1419 04bd 2C       		.byte	0x2c
 1420 04be 03       		.byte	0x3
 1421 04bf 7C040000 		.4byte	0x47c
 1422 04c3 06       		.uleb128 0x6
 1423 04c4 D6000000 		.4byte	.LASF70
 1424 04c8 08       		.byte	0x8
 1425 04c9 0C       		.byte	0xc
ARM GAS  /var/folders/l5/0x54b2c10074c8bt31ycjvl80000gp/T//ccp2SSgC.s 			page 26


 1426 04ca 2F       		.byte	0x2f
 1427 04cb 10       		.byte	0x10
 1428 04cc DE040000 		.4byte	0x4de
 1429 04d0 07       		.uleb128 0x7
 1430 04d1 40040000 		.4byte	.LASF71
 1431 04d5 0C       		.byte	0xc
 1432 04d6 30       		.byte	0x30
 1433 04d7 19       		.byte	0x19
 1434 04d8 52020000 		.4byte	0x252
 1435 04dc 00       		.byte	0
 1436 04dd 00       		.byte	0
 1437 04de 04       		.uleb128 0x4
 1438 04df D6000000 		.4byte	.LASF70
 1439 04e3 0C       		.byte	0xc
 1440 04e4 31       		.byte	0x31
 1441 04e5 03       		.byte	0x3
 1442 04e6 C3040000 		.4byte	0x4c3
 1443 04ea 0F       		.uleb128 0xf
 1444 04eb 04       		.byte	0x4
 1445 04ec 07       		.byte	0x7
 1446 04ed 8F       		.byte	0x8f
 1447 04ee 03       		.byte	0x3
 1448 04ef 24050000 		.4byte	0x524
 1449 04f3 10       		.uleb128 0x10
 1450 04f4 1E000000 		.4byte	.LASF72
 1451 04f8 07       		.byte	0x7
 1452 04f9 96       		.byte	0x96
 1453 04fa 19       		.byte	0x19
 1454 04fb FB000000 		.4byte	0xfb
 1455 04ff 10       		.uleb128 0x10
 1456 0500 5B000000 		.4byte	.LASF73
 1457 0504 07       		.byte	0x7
 1458 0505 9D       		.byte	0x9d
 1459 0506 19       		.byte	0x19
 1460 0507 FB000000 		.4byte	0xfb
 1461 050b 10       		.uleb128 0x10
 1462 050c 3A050000 		.4byte	.LASF74
 1463 0510 07       		.byte	0x7
 1464 0511 A4       		.byte	0xa4
 1465 0512 1A       		.byte	0x1a
 1466 0513 99020000 		.4byte	0x299
 1467 0517 10       		.uleb128 0x10
 1468 0518 14040000 		.4byte	.LASF75
 1469 051c 07       		.byte	0x7
 1470 051d AB       		.byte	0xab
 1471 051e 19       		.byte	0x19
 1472 051f 07010000 		.4byte	0x107
 1473 0523 00       		.byte	0
 1474 0524 0A       		.uleb128 0xa
 1475 0525 04       		.byte	0x4
 1476 0526 31050000 		.4byte	0x531
 1477 052a 03       		.uleb128 0x3
 1478 052b 01       		.byte	0x1
 1479 052c 08       		.byte	0x8
 1480 052d 8B040000 		.4byte	.LASF76
 1481 0531 11       		.uleb128 0x11
 1482 0532 2A050000 		.4byte	0x52a
ARM GAS  /var/folders/l5/0x54b2c10074c8bt31ycjvl80000gp/T//ccp2SSgC.s 			page 27


 1483 0536 0A       		.uleb128 0xa
 1484 0537 04       		.byte	0x4
 1485 0538 B7040000 		.4byte	0x4b7
 1486 053c 09       		.uleb128 0x9
 1487 053d 16       		.byte	0x16
 1488 053e 0D       		.byte	0xd
 1489 053f 25       		.byte	0x25
 1490 0540 09       		.byte	0x9
 1491 0541 30060000 		.4byte	0x630
 1492 0545 07       		.uleb128 0x7
 1493 0546 C8000000 		.4byte	.LASF77
 1494 054a 0D       		.byte	0xd
 1495 054b 26       		.byte	0x26
 1496 054c 0D       		.byte	0xd
 1497 054d 30060000 		.4byte	0x630
 1498 0551 00       		.byte	0
 1499 0552 07       		.uleb128 0x7
 1500 0553 06030000 		.4byte	.LASF78
 1501 0557 0D       		.byte	0xd
 1502 0558 27       		.byte	0x27
 1503 0559 0D       		.byte	0xd
 1504 055a 9B000000 		.4byte	0x9b
 1505 055e 04       		.byte	0x4
 1506 055f 07       		.uleb128 0x7
 1507 0560 70030000 		.4byte	.LASF79
 1508 0564 0D       		.byte	0xd
 1509 0565 28       		.byte	0x28
 1510 0566 0D       		.byte	0xd
 1511 0567 9B000000 		.4byte	0x9b
 1512 056b 05       		.byte	0x5
 1513 056c 07       		.uleb128 0x7
 1514 056d 87050000 		.4byte	.LASF80
 1515 0571 0D       		.byte	0xd
 1516 0572 29       		.byte	0x29
 1517 0573 0D       		.byte	0xd
 1518 0574 A7000000 		.4byte	0xa7
 1519 0578 06       		.byte	0x6
 1520 0579 07       		.uleb128 0x7
 1521 057a A7030000 		.4byte	.LASF81
 1522 057e 0D       		.byte	0xd
 1523 057f 2A       		.byte	0x2a
 1524 0580 0D       		.byte	0xd
 1525 0581 9B000000 		.4byte	0x9b
 1526 0585 08       		.byte	0x8
 1527 0586 07       		.uleb128 0x7
 1528 0587 3D030000 		.4byte	.LASF82
 1529 058b 0D       		.byte	0xd
 1530 058c 2B       		.byte	0x2b
 1531 058d 0D       		.byte	0xd
 1532 058e 9B000000 		.4byte	0x9b
 1533 0592 09       		.byte	0x9
 1534 0593 07       		.uleb128 0x7
 1535 0594 4D000000 		.4byte	.LASF83
 1536 0598 0D       		.byte	0xd
 1537 0599 2C       		.byte	0x2c
 1538 059a 0D       		.byte	0xd
 1539 059b 9B000000 		.4byte	0x9b
ARM GAS  /var/folders/l5/0x54b2c10074c8bt31ycjvl80000gp/T//ccp2SSgC.s 			page 28


 1540 059f 0A       		.byte	0xa
 1541 05a0 07       		.uleb128 0x7
 1542 05a1 6A040000 		.4byte	.LASF84
 1543 05a5 0D       		.byte	0xd
 1544 05a6 2D       		.byte	0x2d
 1545 05a7 0D       		.byte	0xd
 1546 05a8 9B000000 		.4byte	0x9b
 1547 05ac 0B       		.byte	0xb
 1548 05ad 07       		.uleb128 0x7
 1549 05ae 10050000 		.4byte	.LASF85
 1550 05b2 0D       		.byte	0xd
 1551 05b3 2E       		.byte	0x2e
 1552 05b4 0D       		.byte	0xd
 1553 05b5 9B000000 		.4byte	0x9b
 1554 05b9 0C       		.byte	0xc
 1555 05ba 07       		.uleb128 0x7
 1556 05bb 41050000 		.4byte	.LASF86
 1557 05bf 0D       		.byte	0xd
 1558 05c0 2F       		.byte	0x2f
 1559 05c1 0D       		.byte	0xd
 1560 05c2 9B000000 		.4byte	0x9b
 1561 05c6 0D       		.byte	0xd
 1562 05c7 07       		.uleb128 0x7
 1563 05c8 00000000 		.4byte	.LASF87
 1564 05cc 0D       		.byte	0xd
 1565 05cd 30       		.byte	0x30
 1566 05ce 0D       		.byte	0xd
 1567 05cf 9B000000 		.4byte	0x9b
 1568 05d3 0E       		.byte	0xe
 1569 05d4 07       		.uleb128 0x7
 1570 05d5 49030000 		.4byte	.LASF88
 1571 05d9 0D       		.byte	0xd
 1572 05da 31       		.byte	0x31
 1573 05db 0D       		.byte	0xd
 1574 05dc 9B000000 		.4byte	0x9b
 1575 05e0 0F       		.byte	0xf
 1576 05e1 07       		.uleb128 0x7
 1577 05e2 A3000000 		.4byte	.LASF89
 1578 05e6 0D       		.byte	0xd
 1579 05e7 32       		.byte	0x32
 1580 05e8 0D       		.byte	0xd
 1581 05e9 9B000000 		.4byte	0x9b
 1582 05ed 10       		.byte	0x10
 1583 05ee 07       		.uleb128 0x7
 1584 05ef 7C000000 		.4byte	.LASF90
 1585 05f3 0D       		.byte	0xd
 1586 05f4 34       		.byte	0x34
 1587 05f5 0D       		.byte	0xd
 1588 05f6 9B000000 		.4byte	0x9b
 1589 05fa 11       		.byte	0x11
 1590 05fb 07       		.uleb128 0x7
 1591 05fc B3000000 		.4byte	.LASF91
 1592 0600 0D       		.byte	0xd
 1593 0601 35       		.byte	0x35
 1594 0602 0D       		.byte	0xd
 1595 0603 9B000000 		.4byte	0x9b
 1596 0607 12       		.byte	0x12
ARM GAS  /var/folders/l5/0x54b2c10074c8bt31ycjvl80000gp/T//ccp2SSgC.s 			page 29


 1597 0608 07       		.uleb128 0x7
 1598 0609 0E030000 		.4byte	.LASF92
 1599 060d 0D       		.byte	0xd
 1600 060e 36       		.byte	0x36
 1601 060f 0D       		.byte	0xd
 1602 0610 9B000000 		.4byte	0x9b
 1603 0614 13       		.byte	0x13
 1604 0615 07       		.uleb128 0x7
 1605 0616 22040000 		.4byte	.LASF93
 1606 061a 0D       		.byte	0xd
 1607 061b 37       		.byte	0x37
 1608 061c 0D       		.byte	0xd
 1609 061d 9B000000 		.4byte	0x9b
 1610 0621 14       		.byte	0x14
 1611 0622 07       		.uleb128 0x7
 1612 0623 01040000 		.4byte	.LASF94
 1613 0627 0D       		.byte	0xd
 1614 0628 39       		.byte	0x39
 1615 0629 0D       		.byte	0xd
 1616 062a 9B000000 		.4byte	0x9b
 1617 062e 15       		.byte	0x15
 1618 062f 00       		.byte	0
 1619 0630 12       		.uleb128 0x12
 1620 0631 2A050000 		.4byte	0x52a
 1621 0635 40060000 		.4byte	0x640
 1622 0639 13       		.uleb128 0x13
 1623 063a 2C000000 		.4byte	0x2c
 1624 063e 03       		.byte	0x3
 1625 063f 00       		.byte	0
 1626 0640 04       		.uleb128 0x4
 1627 0641 10010000 		.4byte	.LASF95
 1628 0645 0D       		.byte	0xd
 1629 0646 3A       		.byte	0x3a
 1630 0647 03       		.byte	0x3
 1631 0648 3C050000 		.4byte	0x53c
 1632 064c 11       		.uleb128 0x11
 1633 064d 40060000 		.4byte	0x640
 1634 0651 0E       		.uleb128 0xe
 1635 0652 BD010000 		.4byte	.LASF96
 1636 0656 0D       		.byte	0xd
 1637 0657 77       		.byte	0x77
 1638 0658 1D       		.byte	0x1d
 1639 0659 4C060000 		.4byte	0x64c
 1640 065d 12       		.uleb128 0x12
 1641 065e 81020000 		.4byte	0x281
 1642 0662 6D060000 		.4byte	0x66d
 1643 0666 13       		.uleb128 0x13
 1644 0667 2C000000 		.4byte	0x2c
 1645 066b 26       		.byte	0x26
 1646 066c 00       		.byte	0
 1647 066d 0E       		.uleb128 0xe
 1648 066e 22010000 		.4byte	.LASF97
 1649 0672 0E       		.byte	0xe
 1650 0673 82       		.byte	0x82
 1651 0674 08       		.byte	0x8
 1652 0675 5D060000 		.4byte	0x65d
 1653 0679 14       		.uleb128 0x14
ARM GAS  /var/folders/l5/0x54b2c10074c8bt31ycjvl80000gp/T//ccp2SSgC.s 			page 30


 1654 067a 2A030000 		.4byte	.LASF99
 1655 067e 01       		.byte	0x1
 1656 067f 0701     		.2byte	0x107
 1657 0681 07       		.byte	0x7
 1658 0682 FB000000 		.4byte	0xfb
 1659 0686 00000000 		.4byte	.LFB15
 1660 068a 88000000 		.4byte	.LFE15-.LFB15
 1661 068e 01       		.uleb128 0x1
 1662 068f 9C       		.byte	0x9c
 1663 0690 5D070000 		.4byte	0x75d
 1664 0694 15       		.uleb128 0x15
 1665 0695 637000   		.ascii	"cp\000"
 1666 0698 01       		.byte	0x1
 1667 0699 0701     		.2byte	0x107
 1668 069b 23       		.byte	0x23
 1669 069c 5D070000 		.4byte	0x75d
 1670 06a0 06000000 		.4byte	.LLST22
 1671 06a4 00000000 		.4byte	.LVUS22
 1672 06a8 16       		.uleb128 0x16
 1673 06a9 78030000 		.4byte	.LASF98
 1674 06ad 01       		.byte	0x1
 1675 06ae 0701     		.2byte	0x107
 1676 06b0 31       		.byte	0x31
 1677 06b1 13010000 		.4byte	0x113
 1678 06b5 36000000 		.4byte	.LLST23
 1679 06b9 32000000 		.4byte	.LVUS23
 1680 06bd 17       		.uleb128 0x17
 1681 06be 6D7000   		.ascii	"mp\000"
 1682 06c1 01       		.byte	0x1
 1683 06c2 0801     		.2byte	0x108
 1684 06c4 0A       		.byte	0xa
 1685 06c5 36050000 		.4byte	0x536
 1686 06c9 58000000 		.4byte	.LLST24
 1687 06cd 54000000 		.4byte	.LVUS24
 1688 06d1 17       		.uleb128 0x17
 1689 06d2 6D736700 		.ascii	"msg\000"
 1690 06d6 01       		.byte	0x1
 1691 06d7 0901     		.2byte	0x109
 1692 06d9 09       		.byte	0x9
 1693 06da FB000000 		.4byte	0xfb
 1694 06de 7A000000 		.4byte	.LLST25
 1695 06e2 76000000 		.4byte	.LVUS25
 1696 06e6 18       		.uleb128 0x18
 1697 06e7 D90A0000 		.4byte	0xad9
 1698 06eb 24000000 		.4byte	.LBI42
 1699 06ef 01       		.byte	.LVU198
 1700 06f0 88000000 		.4byte	.Ldebug_ranges0+0x88
 1701 06f4 01       		.byte	0x1
 1702 06f5 1301     		.2byte	0x113
 1703 06f7 03       		.byte	0x3
 1704 06f8 2A070000 		.4byte	0x72a
 1705 06fc 19       		.uleb128 0x19
 1706 06fd F10A0000 		.4byte	0xaf1
 1707 0701 9A000000 		.4byte	.LLST26
 1708 0705 98000000 		.4byte	.LVUS26
 1709 0709 19       		.uleb128 0x19
 1710 070a E60A0000 		.4byte	0xae6
ARM GAS  /var/folders/l5/0x54b2c10074c8bt31ycjvl80000gp/T//ccp2SSgC.s 			page 31


 1711 070e AF000000 		.4byte	.LLST27
 1712 0712 AD000000 		.4byte	.LVUS27
 1713 0716 1A       		.uleb128 0x1a
 1714 0717 88000000 		.4byte	.Ldebug_ranges0+0x88
 1715 071b 1B       		.uleb128 0x1b
 1716 071c FD0A0000 		.4byte	0xafd
 1717 0720 C8000000 		.4byte	.LLST28
 1718 0724 C2000000 		.4byte	.LVUS28
 1719 0728 00       		.byte	0
 1720 0729 00       		.byte	0
 1721 072a 1C       		.uleb128 0x1c
 1722 072b 10000000 		.4byte	.LVL39
 1723 072f 690B0000 		.4byte	0xb69
 1724 0733 1D       		.uleb128 0x1d
 1725 0734 68000000 		.4byte	.LVL46
 1726 0738 750B0000 		.4byte	0xb75
 1727 073c 4C070000 		.4byte	0x74c
 1728 0740 1E       		.uleb128 0x1e
 1729 0741 01       		.uleb128 0x1
 1730 0742 50       		.byte	0x50
 1731 0743 01       		.uleb128 0x1
 1732 0744 35       		.byte	0x35
 1733 0745 1E       		.uleb128 0x1e
 1734 0746 01       		.uleb128 0x1
 1735 0747 51       		.byte	0x51
 1736 0748 02       		.uleb128 0x2
 1737 0749 76       		.byte	0x76
 1738 074a 00       		.sleb128 0
 1739 074b 00       		.byte	0
 1740 074c 1F       		.uleb128 0x1f
 1741 074d 7C000000 		.4byte	.LVL49
 1742 0751 810B0000 		.4byte	0xb81
 1743 0755 1E       		.uleb128 0x1e
 1744 0756 01       		.uleb128 0x1
 1745 0757 50       		.byte	0x50
 1746 0758 02       		.uleb128 0x2
 1747 0759 75       		.byte	0x75
 1748 075a 00       		.sleb128 0
 1749 075b 00       		.byte	0
 1750 075c 00       		.byte	0
 1751 075d 0A       		.uleb128 0xa
 1752 075e 04       		.byte	0x4
 1753 075f DE040000 		.4byte	0x4de
 1754 0763 20       		.uleb128 0x20
 1755 0764 55050000 		.4byte	.LASF100
 1756 0768 01       		.byte	0x1
 1757 0769 E2       		.byte	0xe2
 1758 076a 07       		.byte	0x7
 1759 076b FB000000 		.4byte	0xfb
 1760 076f 00000000 		.4byte	.LFB14
 1761 0773 14000000 		.4byte	.LFE14-.LFB14
 1762 0777 01       		.uleb128 0x1
 1763 0778 9C       		.byte	0x9c
 1764 0779 D1070000 		.4byte	0x7d1
 1765 077d 21       		.uleb128 0x21
 1766 077e 637000   		.ascii	"cp\000"
 1767 0781 01       		.byte	0x1
ARM GAS  /var/folders/l5/0x54b2c10074c8bt31ycjvl80000gp/T//ccp2SSgC.s 			page 32


 1768 0782 E2       		.byte	0xe2
 1769 0783 22       		.byte	0x22
 1770 0784 5D070000 		.4byte	0x75d
 1771 0788 F6000000 		.4byte	.LLST29
 1772 078c F2000000 		.4byte	.LVUS29
 1773 0790 22       		.uleb128 0x22
 1774 0791 78030000 		.4byte	.LASF98
 1775 0795 01       		.byte	0x1
 1776 0796 E2       		.byte	0xe2
 1777 0797 30       		.byte	0x30
 1778 0798 13010000 		.4byte	0x113
 1779 079c 1B010000 		.4byte	.LLST30
 1780 07a0 17010000 		.4byte	.LVUS30
 1781 07a4 23       		.uleb128 0x23
 1782 07a5 6D736700 		.ascii	"msg\000"
 1783 07a9 01       		.byte	0x1
 1784 07aa E3       		.byte	0xe3
 1785 07ab 09       		.byte	0x9
 1786 07ac FB000000 		.4byte	0xfb
 1787 07b0 3E010000 		.4byte	.LLST31
 1788 07b4 3C010000 		.4byte	.LVUS31
 1789 07b8 1F       		.uleb128 0x1f
 1790 07b9 0C000000 		.4byte	.LVL51
 1791 07bd 79060000 		.4byte	0x679
 1792 07c1 1E       		.uleb128 0x1e
 1793 07c2 01       		.uleb128 0x1
 1794 07c3 50       		.byte	0x50
 1795 07c4 03       		.uleb128 0x3
 1796 07c5 F3       		.byte	0xf3
 1797 07c6 01       		.uleb128 0x1
 1798 07c7 50       		.byte	0x50
 1799 07c8 1E       		.uleb128 0x1e
 1800 07c9 01       		.uleb128 0x1
 1801 07ca 51       		.byte	0x51
 1802 07cb 03       		.uleb128 0x3
 1803 07cc F3       		.byte	0xf3
 1804 07cd 01       		.uleb128 0x1
 1805 07ce 51       		.byte	0x51
 1806 07cf 00       		.byte	0
 1807 07d0 00       		.byte	0
 1808 07d1 20       		.uleb128 0x20
 1809 07d2 E7000000 		.4byte	.LASF101
 1810 07d6 01       		.byte	0x1
 1811 07d7 B1       		.byte	0xb1
 1812 07d8 07       		.byte	0x7
 1813 07d9 FB000000 		.4byte	0xfb
 1814 07dd 00000000 		.4byte	.LFB13
 1815 07e1 78000000 		.4byte	.LFE13-.LFB13
 1816 07e5 01       		.uleb128 0x1
 1817 07e6 9C       		.byte	0x9c
 1818 07e7 A9080000 		.4byte	0x8a9
 1819 07eb 21       		.uleb128 0x21
 1820 07ec 637000   		.ascii	"cp\000"
 1821 07ef 01       		.byte	0x1
 1822 07f0 B1       		.byte	0xb1
 1823 07f1 1C       		.byte	0x1c
 1824 07f2 5D070000 		.4byte	0x75d
ARM GAS  /var/folders/l5/0x54b2c10074c8bt31ycjvl80000gp/T//ccp2SSgC.s 			page 33


 1825 07f6 55010000 		.4byte	.LLST13
 1826 07fa 51010000 		.4byte	.LVUS13
 1827 07fe 23       		.uleb128 0x23
 1828 07ff 63747000 		.ascii	"ctp\000"
 1829 0803 01       		.byte	0x1
 1830 0804 B2       		.byte	0xb2
 1831 0805 0B       		.byte	0xb
 1832 0806 4C020000 		.4byte	0x24c
 1833 080a 75010000 		.4byte	.LLST14
 1834 080e 73010000 		.4byte	.LVUS14
 1835 0812 23       		.uleb128 0x23
 1836 0813 6D7000   		.ascii	"mp\000"
 1837 0816 01       		.byte	0x1
 1838 0817 B3       		.byte	0xb3
 1839 0818 0A       		.byte	0xa
 1840 0819 36050000 		.4byte	0x536
 1841 081d 8C010000 		.4byte	.LLST15
 1842 0821 88010000 		.4byte	.LVUS15
 1843 0825 23       		.uleb128 0x23
 1844 0826 6D736700 		.ascii	"msg\000"
 1845 082a 01       		.byte	0x1
 1846 082b B4       		.byte	0xb4
 1847 082c 09       		.byte	0x9
 1848 082d FB000000 		.4byte	0xfb
 1849 0831 AC010000 		.4byte	.LLST16
 1850 0835 AA010000 		.4byte	.LVUS16
 1851 0839 24       		.uleb128 0x24
 1852 083a D90A0000 		.4byte	0xad9
 1853 083e 20000000 		.4byte	.LBI36
 1854 0842 01       		.byte	.LVU139
 1855 0843 68000000 		.4byte	.Ldebug_ranges0+0x68
 1856 0847 01       		.byte	0x1
 1857 0848 BE       		.byte	0xbe
 1858 0849 03       		.byte	0x3
 1859 084a 7C080000 		.4byte	0x87c
 1860 084e 19       		.uleb128 0x19
 1861 084f F10A0000 		.4byte	0xaf1
 1862 0853 C1010000 		.4byte	.LLST17
 1863 0857 BF010000 		.4byte	.LVUS17
 1864 085b 19       		.uleb128 0x19
 1865 085c E60A0000 		.4byte	0xae6
 1866 0860 D6010000 		.4byte	.LLST18
 1867 0864 D4010000 		.4byte	.LVUS18
 1868 0868 1A       		.uleb128 0x1a
 1869 0869 68000000 		.4byte	.Ldebug_ranges0+0x68
 1870 086d 1B       		.uleb128 0x1b
 1871 086e FD0A0000 		.4byte	0xafd
 1872 0872 EF010000 		.4byte	.LLST19
 1873 0876 E9010000 		.4byte	.LVUS19
 1874 087a 00       		.byte	0
 1875 087b 00       		.byte	0
 1876 087c 1C       		.uleb128 0x1c
 1877 087d 14000000 		.4byte	.LVL25
 1878 0881 690B0000 		.4byte	0xb69
 1879 0885 1D       		.uleb128 0x1d
 1880 0886 60000000 		.4byte	.LVL33
 1881 088a 8D0B0000 		.4byte	0xb8d
ARM GAS  /var/folders/l5/0x54b2c10074c8bt31ycjvl80000gp/T//ccp2SSgC.s 			page 34


 1882 088e 98080000 		.4byte	0x898
 1883 0892 1E       		.uleb128 0x1e
 1884 0893 01       		.uleb128 0x1
 1885 0894 50       		.byte	0x50
 1886 0895 01       		.uleb128 0x1
 1887 0896 35       		.byte	0x35
 1888 0897 00       		.byte	0
 1889 0898 1F       		.uleb128 0x1f
 1890 0899 6C000000 		.4byte	.LVL35
 1891 089d 810B0000 		.4byte	0xb81
 1892 08a1 1E       		.uleb128 0x1e
 1893 08a2 01       		.uleb128 0x1
 1894 08a3 50       		.byte	0x50
 1895 08a4 02       		.uleb128 0x2
 1896 08a5 76       		.byte	0x76
 1897 08a6 00       		.sleb128 0
 1898 08a7 00       		.byte	0
 1899 08a8 00       		.byte	0
 1900 08a9 20       		.uleb128 0x20
 1901 08aa E5040000 		.4byte	.LASF102
 1902 08ae 01       		.byte	0x1
 1903 08af 97       		.byte	0x97
 1904 08b0 07       		.byte	0x7
 1905 08b1 FB000000 		.4byte	0xfb
 1906 08b5 00000000 		.4byte	.LFB12
 1907 08b9 14000000 		.4byte	.LFE12-.LFB12
 1908 08bd 01       		.uleb128 0x1
 1909 08be 9C       		.byte	0x9c
 1910 08bf FC080000 		.4byte	0x8fc
 1911 08c3 21       		.uleb128 0x21
 1912 08c4 637000   		.ascii	"cp\000"
 1913 08c7 01       		.byte	0x1
 1914 08c8 97       		.byte	0x97
 1915 08c9 1B       		.byte	0x1b
 1916 08ca 5D070000 		.4byte	0x75d
 1917 08ce 1D020000 		.4byte	.LLST20
 1918 08d2 19020000 		.4byte	.LVUS20
 1919 08d6 23       		.uleb128 0x23
 1920 08d7 6D736700 		.ascii	"msg\000"
 1921 08db 01       		.byte	0x1
 1922 08dc 98       		.byte	0x98
 1923 08dd 09       		.byte	0x9
 1924 08de FB000000 		.4byte	0xfb
 1925 08e2 40020000 		.4byte	.LLST21
 1926 08e6 3E020000 		.4byte	.LVUS21
 1927 08ea 1F       		.uleb128 0x1f
 1928 08eb 0C000000 		.4byte	.LVL37
 1929 08ef D1070000 		.4byte	0x7d1
 1930 08f3 1E       		.uleb128 0x1e
 1931 08f4 01       		.uleb128 0x1
 1932 08f5 50       		.byte	0x50
 1933 08f6 03       		.uleb128 0x3
 1934 08f7 F3       		.byte	0xf3
 1935 08f8 01       		.uleb128 0x1
 1936 08f9 50       		.byte	0x50
 1937 08fa 00       		.byte	0
 1938 08fb 00       		.byte	0
ARM GAS  /var/folders/l5/0x54b2c10074c8bt31ycjvl80000gp/T//ccp2SSgC.s 			page 35


 1939 08fc 25       		.uleb128 0x25
 1940 08fd 64000000 		.4byte	.LASF117
 1941 0901 01       		.byte	0x1
 1942 0902 7A       		.byte	0x7a
 1943 0903 06       		.byte	0x6
 1944 0904 01       		.byte	0x1
 1945 0905 15090000 		.4byte	0x915
 1946 0909 26       		.uleb128 0x26
 1947 090a 637000   		.ascii	"cp\000"
 1948 090d 01       		.byte	0x1
 1949 090e 7A       		.byte	0x7a
 1950 090f 20       		.byte	0x20
 1951 0910 5D070000 		.4byte	0x75d
 1952 0914 00       		.byte	0
 1953 0915 27       		.uleb128 0x27
 1954 0916 8F030000 		.4byte	.LASF103
 1955 091a 01       		.byte	0x1
 1956 091b 67       		.byte	0x67
 1957 091c 06       		.byte	0x6
 1958 091d 00000000 		.4byte	.LFB10
 1959 0921 4C000000 		.4byte	.LFE10-.LFB10
 1960 0925 01       		.uleb128 0x1
 1961 0926 9C       		.byte	0x9c
 1962 0927 AE090000 		.4byte	0x9ae
 1963 092b 21       		.uleb128 0x21
 1964 092c 637000   		.ascii	"cp\000"
 1965 092f 01       		.byte	0x1
 1966 0930 67       		.byte	0x67
 1967 0931 1F       		.byte	0x1f
 1968 0932 5D070000 		.4byte	0x75d
 1969 0936 59020000 		.4byte	.LLST6
 1970 093a 53020000 		.4byte	.LVUS6
 1971 093e 28       		.uleb128 0x28
 1972 093f FC080000 		.4byte	0x8fc
 1973 0943 08000000 		.4byte	.LBI26
 1974 0947 03       		.byte	.LVU65
 1975 0948 08000000 		.4byte	.LBB26
 1976 094c 38000000 		.4byte	.LBE26-.LBB26
 1977 0950 01       		.byte	0x1
 1978 0951 6A       		.byte	0x6a
 1979 0952 03       		.byte	0x3
 1980 0953 A4090000 		.4byte	0x9a4
 1981 0957 19       		.uleb128 0x19
 1982 0958 09090000 		.4byte	0x909
 1983 095c 89020000 		.4byte	.LLST7
 1984 0960 85020000 		.4byte	.LVUS7
 1985 0964 24       		.uleb128 0x24
 1986 0965 AA0A0000 		.4byte	0xaaa
 1987 0969 1C000000 		.4byte	.LBI28
 1988 096d 01       		.byte	.LVU75
 1989 096e 38000000 		.4byte	.Ldebug_ranges0+0x38
 1990 0972 01       		.byte	0x1
 1991 0973 83       		.byte	0x83
 1992 0974 05       		.byte	0x5
 1993 0975 9A090000 		.4byte	0x99a
 1994 0979 19       		.uleb128 0x19
 1995 097a BB0A0000 		.4byte	0xabb
ARM GAS  /var/folders/l5/0x54b2c10074c8bt31ycjvl80000gp/T//ccp2SSgC.s 			page 36


 1996 097e A9020000 		.4byte	.LLST8
 1997 0982 A7020000 		.4byte	.LVUS8
 1998 0986 1A       		.uleb128 0x1a
 1999 0987 38000000 		.4byte	.Ldebug_ranges0+0x38
 2000 098b 1B       		.uleb128 0x1b
 2001 098c C70A0000 		.4byte	0xac7
 2002 0990 BE020000 		.4byte	.LLST9
 2003 0994 BC020000 		.4byte	.LVUS9
 2004 0998 00       		.byte	0
 2005 0999 00       		.byte	0
 2006 099a 1C       		.uleb128 0x1c
 2007 099b 30000000 		.4byte	.LVL16
 2008 099f 990B0000 		.4byte	0xb99
 2009 09a3 00       		.byte	0
 2010 09a4 1C       		.uleb128 0x1c
 2011 09a5 44000000 		.4byte	.LVL18
 2012 09a9 A50B0000 		.4byte	0xba5
 2013 09ad 00       		.byte	0
 2014 09ae 27       		.uleb128 0x27
 2015 09af C1030000 		.4byte	.LASF104
 2016 09b3 01       		.byte	0x1
 2017 09b4 57       		.byte	0x57
 2018 09b5 06       		.byte	0x6
 2019 09b6 00000000 		.4byte	.LFB9
 2020 09ba 34000000 		.4byte	.LFE9-.LFB9
 2021 09be 01       		.uleb128 0x1
 2022 09bf 9C       		.byte	0x9c
 2023 09c0 170A0000 		.4byte	0xa17
 2024 09c4 21       		.uleb128 0x21
 2025 09c5 637000   		.ascii	"cp\000"
 2026 09c8 01       		.byte	0x1
 2027 09c9 57       		.byte	0x57
 2028 09ca 1D       		.byte	0x1d
 2029 09cb 5D070000 		.4byte	0x75d
 2030 09cf D7020000 		.4byte	.LLST3
 2031 09d3 D1020000 		.4byte	.LVUS3
 2032 09d7 24       		.uleb128 0x24
 2033 09d8 AA0A0000 		.4byte	0xaaa
 2034 09dc 10000000 		.4byte	.LBI22
 2035 09e0 01       		.byte	.LVU45
 2036 09e1 20000000 		.4byte	.Ldebug_ranges0+0x20
 2037 09e5 01       		.byte	0x1
 2038 09e6 5D       		.byte	0x5d
 2039 09e7 05       		.byte	0x5
 2040 09e8 0D0A0000 		.4byte	0xa0d
 2041 09ec 19       		.uleb128 0x19
 2042 09ed BB0A0000 		.4byte	0xabb
 2043 09f1 07030000 		.4byte	.LLST4
 2044 09f5 03030000 		.4byte	.LVUS4
 2045 09f9 1A       		.uleb128 0x1a
 2046 09fa 20000000 		.4byte	.Ldebug_ranges0+0x20
 2047 09fe 1B       		.uleb128 0x1b
 2048 09ff C70A0000 		.4byte	0xac7
 2049 0a03 27030000 		.4byte	.LLST5
 2050 0a07 25030000 		.4byte	.LVUS5
 2051 0a0b 00       		.byte	0
 2052 0a0c 00       		.byte	0
ARM GAS  /var/folders/l5/0x54b2c10074c8bt31ycjvl80000gp/T//ccp2SSgC.s 			page 37


 2053 0a0d 1C       		.uleb128 0x1c
 2054 0a0e 28000000 		.4byte	.LVL11
 2055 0a12 990B0000 		.4byte	0xb99
 2056 0a16 00       		.byte	0
 2057 0a17 27       		.uleb128 0x27
 2058 0a18 7C010000 		.4byte	.LASF105
 2059 0a1c 01       		.byte	0x1
 2060 0a1d 42       		.byte	0x42
 2061 0a1e 06       		.byte	0x6
 2062 0a1f 00000000 		.4byte	.LFB8
 2063 0a23 40000000 		.4byte	.LFE8-.LFB8
 2064 0a27 01       		.uleb128 0x1
 2065 0a28 9C       		.byte	0x9c
 2066 0a29 860A0000 		.4byte	0xa86
 2067 0a2d 21       		.uleb128 0x21
 2068 0a2e 637000   		.ascii	"cp\000"
 2069 0a31 01       		.byte	0x1
 2070 0a32 42       		.byte	0x42
 2071 0a33 1C       		.byte	0x1c
 2072 0a34 5D070000 		.4byte	0x75d
 2073 0a38 42030000 		.4byte	.LLST0
 2074 0a3c 3A030000 		.4byte	.LVUS0
 2075 0a40 24       		.uleb128 0x24
 2076 0a41 AA0A0000 		.4byte	0xaaa
 2077 0a45 14000000 		.4byte	.LBI16
 2078 0a49 01       		.byte	.LVU16
 2079 0a4a 00000000 		.4byte	.Ldebug_ranges0+0
 2080 0a4e 01       		.byte	0x1
 2081 0a4f 48       		.byte	0x48
 2082 0a50 05       		.byte	0x5
 2083 0a51 760A0000 		.4byte	0xa76
 2084 0a55 19       		.uleb128 0x19
 2085 0a56 BB0A0000 		.4byte	0xabb
 2086 0a5a 7D030000 		.4byte	.LLST1
 2087 0a5e 79030000 		.4byte	.LVUS1
 2088 0a62 1A       		.uleb128 0x1a
 2089 0a63 00000000 		.4byte	.Ldebug_ranges0+0
 2090 0a67 1B       		.uleb128 0x1b
 2091 0a68 C70A0000 		.4byte	0xac7
 2092 0a6c 9D030000 		.4byte	.LLST2
 2093 0a70 9B030000 		.4byte	.LVUS2
 2094 0a74 00       		.byte	0
 2095 0a75 00       		.byte	0
 2096 0a76 1F       		.uleb128 0x1f
 2097 0a77 30000000 		.4byte	.LVL5
 2098 0a7b B10B0000 		.4byte	0xbb1
 2099 0a7f 1E       		.uleb128 0x1e
 2100 0a80 01       		.uleb128 0x1
 2101 0a81 51       		.byte	0x51
 2102 0a82 01       		.uleb128 0x1
 2103 0a83 30       		.byte	0x30
 2104 0a84 00       		.byte	0
 2105 0a85 00       		.byte	0
 2106 0a86 27       		.uleb128 0x27
 2107 0a87 13000000 		.4byte	.LASF106
 2108 0a8b 01       		.byte	0x1
 2109 0a8c 34       		.byte	0x34
ARM GAS  /var/folders/l5/0x54b2c10074c8bt31ycjvl80000gp/T//ccp2SSgC.s 			page 38


 2110 0a8d 06       		.byte	0x6
 2111 0a8e 00000000 		.4byte	.LFB7
 2112 0a92 0C000000 		.4byte	.LFE7-.LFB7
 2113 0a96 01       		.uleb128 0x1
 2114 0a97 9C       		.byte	0x9c
 2115 0a98 AA0A0000 		.4byte	0xaaa
 2116 0a9c 29       		.uleb128 0x29
 2117 0a9d 637000   		.ascii	"cp\000"
 2118 0aa0 01       		.byte	0x1
 2119 0aa1 34       		.byte	0x34
 2120 0aa2 1A       		.byte	0x1a
 2121 0aa3 5D070000 		.4byte	0x75d
 2122 0aa7 01       		.uleb128 0x1
 2123 0aa8 50       		.byte	0x50
 2124 0aa9 00       		.byte	0
 2125 0aaa 2A       		.uleb128 0x2a
 2126 0aab 90040000 		.4byte	.LASF118
 2127 0aaf 02       		.byte	0x2
 2128 0ab0 34       		.byte	0x34
 2129 0ab1 17       		.byte	0x17
 2130 0ab2 4C020000 		.4byte	0x24c
 2131 0ab6 03       		.byte	0x3
 2132 0ab7 D30A0000 		.4byte	0xad3
 2133 0abb 26       		.uleb128 0x26
 2134 0abc 74717000 		.ascii	"tqp\000"
 2135 0ac0 02       		.byte	0x2
 2136 0ac1 34       		.byte	0x34
 2137 0ac2 31       		.byte	0x31
 2138 0ac3 D30A0000 		.4byte	0xad3
 2139 0ac7 2B       		.uleb128 0x2b
 2140 0ac8 747000   		.ascii	"tp\000"
 2141 0acb 02       		.byte	0x2
 2142 0acc 35       		.byte	0x35
 2143 0acd 0B       		.byte	0xb
 2144 0ace 4C020000 		.4byte	0x24c
 2145 0ad2 00       		.byte	0
 2146 0ad3 0A       		.uleb128 0xa
 2147 0ad4 04       		.byte	0x4
 2148 0ad5 52020000 		.4byte	0x252
 2149 0ad9 2C       		.uleb128 0x2c
 2150 0ada D9040000 		.4byte	.LASF119
 2151 0ade 02       		.byte	0x2
 2152 0adf 22       		.byte	0x22
 2153 0ae0 14       		.byte	0x14
 2154 0ae1 03       		.byte	0x3
 2155 0ae2 090B0000 		.4byte	0xb09
 2156 0ae6 26       		.uleb128 0x26
 2157 0ae7 747000   		.ascii	"tp\000"
 2158 0aea 02       		.byte	0x2
 2159 0aeb 22       		.byte	0x22
 2160 0aec 28       		.byte	0x28
 2161 0aed 4C020000 		.4byte	0x24c
 2162 0af1 26       		.uleb128 0x26
 2163 0af2 74717000 		.ascii	"tqp\000"
 2164 0af6 02       		.byte	0x2
 2165 0af7 22       		.byte	0x22
 2166 0af8 3A       		.byte	0x3a
ARM GAS  /var/folders/l5/0x54b2c10074c8bt31ycjvl80000gp/T//ccp2SSgC.s 			page 39


 2167 0af9 D30A0000 		.4byte	0xad3
 2168 0afd 2B       		.uleb128 0x2b
 2169 0afe 637000   		.ascii	"cp\000"
 2170 0b01 02       		.byte	0x2
 2171 0b02 24       		.byte	0x24
 2172 0b03 0B       		.byte	0xb
 2173 0b04 4C020000 		.4byte	0x24c
 2174 0b08 00       		.byte	0
 2175 0b09 2D       		.uleb128 0x2d
 2176 0b0a FC080000 		.4byte	0x8fc
 2177 0b0e 00000000 		.4byte	.LFB11
 2178 0b12 40000000 		.4byte	.LFE11-.LFB11
 2179 0b16 01       		.uleb128 0x1
 2180 0b17 9C       		.byte	0x9c
 2181 0b18 690B0000 		.4byte	0xb69
 2182 0b1c 19       		.uleb128 0x19
 2183 0b1d 09090000 		.4byte	0x909
 2184 0b21 B4030000 		.4byte	.LLST10
 2185 0b25 B0030000 		.4byte	.LVUS10
 2186 0b29 24       		.uleb128 0x24
 2187 0b2a AA0A0000 		.4byte	0xaaa
 2188 0b2e 18000000 		.4byte	.LBI32
 2189 0b32 01       		.byte	.LVU105
 2190 0b33 50000000 		.4byte	.Ldebug_ranges0+0x50
 2191 0b37 01       		.byte	0x1
 2192 0b38 83       		.byte	0x83
 2193 0b39 05       		.byte	0x5
 2194 0b3a 5F0B0000 		.4byte	0xb5f
 2195 0b3e 19       		.uleb128 0x19
 2196 0b3f BB0A0000 		.4byte	0xabb
 2197 0b43 D4030000 		.4byte	.LLST11
 2198 0b47 D2030000 		.4byte	.LVUS11
 2199 0b4b 1A       		.uleb128 0x1a
 2200 0b4c 50000000 		.4byte	.Ldebug_ranges0+0x50
 2201 0b50 1B       		.uleb128 0x1b
 2202 0b51 C70A0000 		.4byte	0xac7
 2203 0b55 E9030000 		.4byte	.LLST12
 2204 0b59 E7030000 		.4byte	.LVUS12
 2205 0b5d 00       		.byte	0
 2206 0b5e 00       		.byte	0
 2207 0b5f 1C       		.uleb128 0x1c
 2208 0b60 2C000000 		.4byte	.LVL22
 2209 0b64 990B0000 		.4byte	0xb99
 2210 0b68 00       		.byte	0
 2211 0b69 2E       		.uleb128 0x2e
 2212 0b6a 89010000 		.4byte	.LASF107
 2213 0b6e 89010000 		.4byte	.LASF107
 2214 0b72 0B       		.byte	0xb
 2215 0b73 37       		.byte	0x37
 2216 0b74 0A       		.byte	0xa
 2217 0b75 2E       		.uleb128 0x2e
 2218 0b76 72050000 		.4byte	.LASF108
 2219 0b7a 72050000 		.4byte	.LASF108
 2220 0b7e 0A       		.byte	0xa
 2221 0b7f 8F       		.byte	0x8f
 2222 0b80 09       		.byte	0x9
 2223 0b81 2E       		.uleb128 0x2e
ARM GAS  /var/folders/l5/0x54b2c10074c8bt31ycjvl80000gp/T//ccp2SSgC.s 			page 40


 2224 0b82 FC000000 		.4byte	.LASF109
 2225 0b86 FC000000 		.4byte	.LASF109
 2226 0b8a 0B       		.byte	0xb
 2227 0b8b 33       		.byte	0x33
 2228 0b8c 08       		.byte	0x8
 2229 0b8d 2E       		.uleb128 0x2e
 2230 0b8e 48040000 		.4byte	.LASF110
 2231 0b92 48040000 		.4byte	.LASF110
 2232 0b96 0A       		.byte	0xa
 2233 0b97 8C       		.byte	0x8c
 2234 0b98 08       		.byte	0x8
 2235 0b99 2E       		.uleb128 0x2e
 2236 0b9a A7040000 		.4byte	.LASF111
 2237 0b9e A7040000 		.4byte	.LASF111
 2238 0ba2 0A       		.byte	0xa
 2239 0ba3 89       		.byte	0x89
 2240 0ba4 0B       		.byte	0xb
 2241 0ba5 2E       		.uleb128 0x2e
 2242 0ba6 32010000 		.4byte	.LASF112
 2243 0baa 32010000 		.4byte	.LASF112
 2244 0bae 0A       		.byte	0xa
 2245 0baf 95       		.byte	0x95
 2246 0bb0 08       		.byte	0x8
 2247 0bb1 2E       		.uleb128 0x2e
 2248 0bb2 EA010000 		.4byte	.LASF113
 2249 0bb6 EA010000 		.4byte	.LASF113
 2250 0bba 0A       		.byte	0xa
 2251 0bbb 92       		.byte	0x92
 2252 0bbc 08       		.byte	0x8
 2253 0bbd 00       		.byte	0
 2254              		.section	.debug_abbrev,"",%progbits
 2255              	.Ldebug_abbrev0:
 2256 0000 01       		.uleb128 0x1
 2257 0001 11       		.uleb128 0x11
 2258 0002 01       		.byte	0x1
 2259 0003 25       		.uleb128 0x25
 2260 0004 0E       		.uleb128 0xe
 2261 0005 13       		.uleb128 0x13
 2262 0006 0B       		.uleb128 0xb
 2263 0007 03       		.uleb128 0x3
 2264 0008 0E       		.uleb128 0xe
 2265 0009 1B       		.uleb128 0x1b
 2266 000a 0E       		.uleb128 0xe
 2267 000b 55       		.uleb128 0x55
 2268 000c 17       		.uleb128 0x17
 2269 000d 11       		.uleb128 0x11
 2270 000e 01       		.uleb128 0x1
 2271 000f 10       		.uleb128 0x10
 2272 0010 17       		.uleb128 0x17
 2273 0011 00       		.byte	0
 2274 0012 00       		.byte	0
 2275 0013 02       		.uleb128 0x2
 2276 0014 24       		.uleb128 0x24
 2277 0015 00       		.byte	0
 2278 0016 0B       		.uleb128 0xb
 2279 0017 0B       		.uleb128 0xb
 2280 0018 3E       		.uleb128 0x3e
ARM GAS  /var/folders/l5/0x54b2c10074c8bt31ycjvl80000gp/T//ccp2SSgC.s 			page 41


 2281 0019 0B       		.uleb128 0xb
 2282 001a 03       		.uleb128 0x3
 2283 001b 08       		.uleb128 0x8
 2284 001c 00       		.byte	0
 2285 001d 00       		.byte	0
 2286 001e 03       		.uleb128 0x3
 2287 001f 24       		.uleb128 0x24
 2288 0020 00       		.byte	0
 2289 0021 0B       		.uleb128 0xb
 2290 0022 0B       		.uleb128 0xb
 2291 0023 3E       		.uleb128 0x3e
 2292 0024 0B       		.uleb128 0xb
 2293 0025 03       		.uleb128 0x3
 2294 0026 0E       		.uleb128 0xe
 2295 0027 00       		.byte	0
 2296 0028 00       		.byte	0
 2297 0029 04       		.uleb128 0x4
 2298 002a 16       		.uleb128 0x16
 2299 002b 00       		.byte	0
 2300 002c 03       		.uleb128 0x3
 2301 002d 0E       		.uleb128 0xe
 2302 002e 3A       		.uleb128 0x3a
 2303 002f 0B       		.uleb128 0xb
 2304 0030 3B       		.uleb128 0x3b
 2305 0031 0B       		.uleb128 0xb
 2306 0032 39       		.uleb128 0x39
 2307 0033 0B       		.uleb128 0xb
 2308 0034 49       		.uleb128 0x49
 2309 0035 13       		.uleb128 0x13
 2310 0036 00       		.byte	0
 2311 0037 00       		.byte	0
 2312 0038 05       		.uleb128 0x5
 2313 0039 35       		.uleb128 0x35
 2314 003a 00       		.byte	0
 2315 003b 49       		.uleb128 0x49
 2316 003c 13       		.uleb128 0x13
 2317 003d 00       		.byte	0
 2318 003e 00       		.byte	0
 2319 003f 06       		.uleb128 0x6
 2320 0040 13       		.uleb128 0x13
 2321 0041 01       		.byte	0x1
 2322 0042 03       		.uleb128 0x3
 2323 0043 0E       		.uleb128 0xe
 2324 0044 0B       		.uleb128 0xb
 2325 0045 0B       		.uleb128 0xb
 2326 0046 3A       		.uleb128 0x3a
 2327 0047 0B       		.uleb128 0xb
 2328 0048 3B       		.uleb128 0x3b
 2329 0049 0B       		.uleb128 0xb
 2330 004a 39       		.uleb128 0x39
 2331 004b 0B       		.uleb128 0xb
 2332 004c 01       		.uleb128 0x1
 2333 004d 13       		.uleb128 0x13
 2334 004e 00       		.byte	0
 2335 004f 00       		.byte	0
 2336 0050 07       		.uleb128 0x7
 2337 0051 0D       		.uleb128 0xd
ARM GAS  /var/folders/l5/0x54b2c10074c8bt31ycjvl80000gp/T//ccp2SSgC.s 			page 42


 2338 0052 00       		.byte	0
 2339 0053 03       		.uleb128 0x3
 2340 0054 0E       		.uleb128 0xe
 2341 0055 3A       		.uleb128 0x3a
 2342 0056 0B       		.uleb128 0xb
 2343 0057 3B       		.uleb128 0x3b
 2344 0058 0B       		.uleb128 0xb
 2345 0059 39       		.uleb128 0x39
 2346 005a 0B       		.uleb128 0xb
 2347 005b 49       		.uleb128 0x49
 2348 005c 13       		.uleb128 0x13
 2349 005d 38       		.uleb128 0x38
 2350 005e 0B       		.uleb128 0xb
 2351 005f 00       		.byte	0
 2352 0060 00       		.byte	0
 2353 0061 08       		.uleb128 0x8
 2354 0062 0D       		.uleb128 0xd
 2355 0063 00       		.byte	0
 2356 0064 03       		.uleb128 0x3
 2357 0065 08       		.uleb128 0x8
 2358 0066 3A       		.uleb128 0x3a
 2359 0067 0B       		.uleb128 0xb
 2360 0068 3B       		.uleb128 0x3b
 2361 0069 0B       		.uleb128 0xb
 2362 006a 39       		.uleb128 0x39
 2363 006b 0B       		.uleb128 0xb
 2364 006c 49       		.uleb128 0x49
 2365 006d 13       		.uleb128 0x13
 2366 006e 38       		.uleb128 0x38
 2367 006f 0B       		.uleb128 0xb
 2368 0070 00       		.byte	0
 2369 0071 00       		.byte	0
 2370 0072 09       		.uleb128 0x9
 2371 0073 13       		.uleb128 0x13
 2372 0074 01       		.byte	0x1
 2373 0075 0B       		.uleb128 0xb
 2374 0076 0B       		.uleb128 0xb
 2375 0077 3A       		.uleb128 0x3a
 2376 0078 0B       		.uleb128 0xb
 2377 0079 3B       		.uleb128 0x3b
 2378 007a 0B       		.uleb128 0xb
 2379 007b 39       		.uleb128 0x39
 2380 007c 0B       		.uleb128 0xb
 2381 007d 01       		.uleb128 0x1
 2382 007e 13       		.uleb128 0x13
 2383 007f 00       		.byte	0
 2384 0080 00       		.byte	0
 2385 0081 0A       		.uleb128 0xa
 2386 0082 0F       		.uleb128 0xf
 2387 0083 00       		.byte	0
 2388 0084 0B       		.uleb128 0xb
 2389 0085 0B       		.uleb128 0xb
 2390 0086 49       		.uleb128 0x49
 2391 0087 13       		.uleb128 0x13
 2392 0088 00       		.byte	0
 2393 0089 00       		.byte	0
 2394 008a 0B       		.uleb128 0xb
ARM GAS  /var/folders/l5/0x54b2c10074c8bt31ycjvl80000gp/T//ccp2SSgC.s 			page 43


 2395 008b 0F       		.uleb128 0xf
 2396 008c 00       		.byte	0
 2397 008d 0B       		.uleb128 0xb
 2398 008e 0B       		.uleb128 0xb
 2399 008f 00       		.byte	0
 2400 0090 00       		.byte	0
 2401 0091 0C       		.uleb128 0xc
 2402 0092 15       		.uleb128 0x15
 2403 0093 01       		.byte	0x1
 2404 0094 27       		.uleb128 0x27
 2405 0095 19       		.uleb128 0x19
 2406 0096 01       		.uleb128 0x1
 2407 0097 13       		.uleb128 0x13
 2408 0098 00       		.byte	0
 2409 0099 00       		.byte	0
 2410 009a 0D       		.uleb128 0xd
 2411 009b 05       		.uleb128 0x5
 2412 009c 00       		.byte	0
 2413 009d 49       		.uleb128 0x49
 2414 009e 13       		.uleb128 0x13
 2415 009f 00       		.byte	0
 2416 00a0 00       		.byte	0
 2417 00a1 0E       		.uleb128 0xe
 2418 00a2 34       		.uleb128 0x34
 2419 00a3 00       		.byte	0
 2420 00a4 03       		.uleb128 0x3
 2421 00a5 0E       		.uleb128 0xe
 2422 00a6 3A       		.uleb128 0x3a
 2423 00a7 0B       		.uleb128 0xb
 2424 00a8 3B       		.uleb128 0x3b
 2425 00a9 0B       		.uleb128 0xb
 2426 00aa 39       		.uleb128 0x39
 2427 00ab 0B       		.uleb128 0xb
 2428 00ac 49       		.uleb128 0x49
 2429 00ad 13       		.uleb128 0x13
 2430 00ae 3F       		.uleb128 0x3f
 2431 00af 19       		.uleb128 0x19
 2432 00b0 3C       		.uleb128 0x3c
 2433 00b1 19       		.uleb128 0x19
 2434 00b2 00       		.byte	0
 2435 00b3 00       		.byte	0
 2436 00b4 0F       		.uleb128 0xf
 2437 00b5 17       		.uleb128 0x17
 2438 00b6 01       		.byte	0x1
 2439 00b7 0B       		.uleb128 0xb
 2440 00b8 0B       		.uleb128 0xb
 2441 00b9 3A       		.uleb128 0x3a
 2442 00ba 0B       		.uleb128 0xb
 2443 00bb 3B       		.uleb128 0x3b
 2444 00bc 0B       		.uleb128 0xb
 2445 00bd 39       		.uleb128 0x39
 2446 00be 0B       		.uleb128 0xb
 2447 00bf 01       		.uleb128 0x1
 2448 00c0 13       		.uleb128 0x13
 2449 00c1 00       		.byte	0
 2450 00c2 00       		.byte	0
 2451 00c3 10       		.uleb128 0x10
ARM GAS  /var/folders/l5/0x54b2c10074c8bt31ycjvl80000gp/T//ccp2SSgC.s 			page 44


 2452 00c4 0D       		.uleb128 0xd
 2453 00c5 00       		.byte	0
 2454 00c6 03       		.uleb128 0x3
 2455 00c7 0E       		.uleb128 0xe
 2456 00c8 3A       		.uleb128 0x3a
 2457 00c9 0B       		.uleb128 0xb
 2458 00ca 3B       		.uleb128 0x3b
 2459 00cb 0B       		.uleb128 0xb
 2460 00cc 39       		.uleb128 0x39
 2461 00cd 0B       		.uleb128 0xb
 2462 00ce 49       		.uleb128 0x49
 2463 00cf 13       		.uleb128 0x13
 2464 00d0 00       		.byte	0
 2465 00d1 00       		.byte	0
 2466 00d2 11       		.uleb128 0x11
 2467 00d3 26       		.uleb128 0x26
 2468 00d4 00       		.byte	0
 2469 00d5 49       		.uleb128 0x49
 2470 00d6 13       		.uleb128 0x13
 2471 00d7 00       		.byte	0
 2472 00d8 00       		.byte	0
 2473 00d9 12       		.uleb128 0x12
 2474 00da 01       		.uleb128 0x1
 2475 00db 01       		.byte	0x1
 2476 00dc 49       		.uleb128 0x49
 2477 00dd 13       		.uleb128 0x13
 2478 00de 01       		.uleb128 0x1
 2479 00df 13       		.uleb128 0x13
 2480 00e0 00       		.byte	0
 2481 00e1 00       		.byte	0
 2482 00e2 13       		.uleb128 0x13
 2483 00e3 21       		.uleb128 0x21
 2484 00e4 00       		.byte	0
 2485 00e5 49       		.uleb128 0x49
 2486 00e6 13       		.uleb128 0x13
 2487 00e7 2F       		.uleb128 0x2f
 2488 00e8 0B       		.uleb128 0xb
 2489 00e9 00       		.byte	0
 2490 00ea 00       		.byte	0
 2491 00eb 14       		.uleb128 0x14
 2492 00ec 2E       		.uleb128 0x2e
 2493 00ed 01       		.byte	0x1
 2494 00ee 3F       		.uleb128 0x3f
 2495 00ef 19       		.uleb128 0x19
 2496 00f0 03       		.uleb128 0x3
 2497 00f1 0E       		.uleb128 0xe
 2498 00f2 3A       		.uleb128 0x3a
 2499 00f3 0B       		.uleb128 0xb
 2500 00f4 3B       		.uleb128 0x3b
 2501 00f5 05       		.uleb128 0x5
 2502 00f6 39       		.uleb128 0x39
 2503 00f7 0B       		.uleb128 0xb
 2504 00f8 27       		.uleb128 0x27
 2505 00f9 19       		.uleb128 0x19
 2506 00fa 49       		.uleb128 0x49
 2507 00fb 13       		.uleb128 0x13
 2508 00fc 11       		.uleb128 0x11
ARM GAS  /var/folders/l5/0x54b2c10074c8bt31ycjvl80000gp/T//ccp2SSgC.s 			page 45


 2509 00fd 01       		.uleb128 0x1
 2510 00fe 12       		.uleb128 0x12
 2511 00ff 06       		.uleb128 0x6
 2512 0100 40       		.uleb128 0x40
 2513 0101 18       		.uleb128 0x18
 2514 0102 9742     		.uleb128 0x2117
 2515 0104 19       		.uleb128 0x19
 2516 0105 01       		.uleb128 0x1
 2517 0106 13       		.uleb128 0x13
 2518 0107 00       		.byte	0
 2519 0108 00       		.byte	0
 2520 0109 15       		.uleb128 0x15
 2521 010a 05       		.uleb128 0x5
 2522 010b 00       		.byte	0
 2523 010c 03       		.uleb128 0x3
 2524 010d 08       		.uleb128 0x8
 2525 010e 3A       		.uleb128 0x3a
 2526 010f 0B       		.uleb128 0xb
 2527 0110 3B       		.uleb128 0x3b
 2528 0111 05       		.uleb128 0x5
 2529 0112 39       		.uleb128 0x39
 2530 0113 0B       		.uleb128 0xb
 2531 0114 49       		.uleb128 0x49
 2532 0115 13       		.uleb128 0x13
 2533 0116 02       		.uleb128 0x2
 2534 0117 17       		.uleb128 0x17
 2535 0118 B742     		.uleb128 0x2137
 2536 011a 17       		.uleb128 0x17
 2537 011b 00       		.byte	0
 2538 011c 00       		.byte	0
 2539 011d 16       		.uleb128 0x16
 2540 011e 05       		.uleb128 0x5
 2541 011f 00       		.byte	0
 2542 0120 03       		.uleb128 0x3
 2543 0121 0E       		.uleb128 0xe
 2544 0122 3A       		.uleb128 0x3a
 2545 0123 0B       		.uleb128 0xb
 2546 0124 3B       		.uleb128 0x3b
 2547 0125 05       		.uleb128 0x5
 2548 0126 39       		.uleb128 0x39
 2549 0127 0B       		.uleb128 0xb
 2550 0128 49       		.uleb128 0x49
 2551 0129 13       		.uleb128 0x13
 2552 012a 02       		.uleb128 0x2
 2553 012b 17       		.uleb128 0x17
 2554 012c B742     		.uleb128 0x2137
 2555 012e 17       		.uleb128 0x17
 2556 012f 00       		.byte	0
 2557 0130 00       		.byte	0
 2558 0131 17       		.uleb128 0x17
 2559 0132 34       		.uleb128 0x34
 2560 0133 00       		.byte	0
 2561 0134 03       		.uleb128 0x3
 2562 0135 08       		.uleb128 0x8
 2563 0136 3A       		.uleb128 0x3a
 2564 0137 0B       		.uleb128 0xb
 2565 0138 3B       		.uleb128 0x3b
ARM GAS  /var/folders/l5/0x54b2c10074c8bt31ycjvl80000gp/T//ccp2SSgC.s 			page 46


 2566 0139 05       		.uleb128 0x5
 2567 013a 39       		.uleb128 0x39
 2568 013b 0B       		.uleb128 0xb
 2569 013c 49       		.uleb128 0x49
 2570 013d 13       		.uleb128 0x13
 2571 013e 02       		.uleb128 0x2
 2572 013f 17       		.uleb128 0x17
 2573 0140 B742     		.uleb128 0x2137
 2574 0142 17       		.uleb128 0x17
 2575 0143 00       		.byte	0
 2576 0144 00       		.byte	0
 2577 0145 18       		.uleb128 0x18
 2578 0146 1D       		.uleb128 0x1d
 2579 0147 01       		.byte	0x1
 2580 0148 31       		.uleb128 0x31
 2581 0149 13       		.uleb128 0x13
 2582 014a 52       		.uleb128 0x52
 2583 014b 01       		.uleb128 0x1
 2584 014c B842     		.uleb128 0x2138
 2585 014e 0B       		.uleb128 0xb
 2586 014f 55       		.uleb128 0x55
 2587 0150 17       		.uleb128 0x17
 2588 0151 58       		.uleb128 0x58
 2589 0152 0B       		.uleb128 0xb
 2590 0153 59       		.uleb128 0x59
 2591 0154 05       		.uleb128 0x5
 2592 0155 57       		.uleb128 0x57
 2593 0156 0B       		.uleb128 0xb
 2594 0157 01       		.uleb128 0x1
 2595 0158 13       		.uleb128 0x13
 2596 0159 00       		.byte	0
 2597 015a 00       		.byte	0
 2598 015b 19       		.uleb128 0x19
 2599 015c 05       		.uleb128 0x5
 2600 015d 00       		.byte	0
 2601 015e 31       		.uleb128 0x31
 2602 015f 13       		.uleb128 0x13
 2603 0160 02       		.uleb128 0x2
 2604 0161 17       		.uleb128 0x17
 2605 0162 B742     		.uleb128 0x2137
 2606 0164 17       		.uleb128 0x17
 2607 0165 00       		.byte	0
 2608 0166 00       		.byte	0
 2609 0167 1A       		.uleb128 0x1a
 2610 0168 0B       		.uleb128 0xb
 2611 0169 01       		.byte	0x1
 2612 016a 55       		.uleb128 0x55
 2613 016b 17       		.uleb128 0x17
 2614 016c 00       		.byte	0
 2615 016d 00       		.byte	0
 2616 016e 1B       		.uleb128 0x1b
 2617 016f 34       		.uleb128 0x34
 2618 0170 00       		.byte	0
 2619 0171 31       		.uleb128 0x31
 2620 0172 13       		.uleb128 0x13
 2621 0173 02       		.uleb128 0x2
 2622 0174 17       		.uleb128 0x17
ARM GAS  /var/folders/l5/0x54b2c10074c8bt31ycjvl80000gp/T//ccp2SSgC.s 			page 47


 2623 0175 B742     		.uleb128 0x2137
 2624 0177 17       		.uleb128 0x17
 2625 0178 00       		.byte	0
 2626 0179 00       		.byte	0
 2627 017a 1C       		.uleb128 0x1c
 2628 017b 898201   		.uleb128 0x4109
 2629 017e 00       		.byte	0
 2630 017f 11       		.uleb128 0x11
 2631 0180 01       		.uleb128 0x1
 2632 0181 31       		.uleb128 0x31
 2633 0182 13       		.uleb128 0x13
 2634 0183 00       		.byte	0
 2635 0184 00       		.byte	0
 2636 0185 1D       		.uleb128 0x1d
 2637 0186 898201   		.uleb128 0x4109
 2638 0189 01       		.byte	0x1
 2639 018a 11       		.uleb128 0x11
 2640 018b 01       		.uleb128 0x1
 2641 018c 31       		.uleb128 0x31
 2642 018d 13       		.uleb128 0x13
 2643 018e 01       		.uleb128 0x1
 2644 018f 13       		.uleb128 0x13
 2645 0190 00       		.byte	0
 2646 0191 00       		.byte	0
 2647 0192 1E       		.uleb128 0x1e
 2648 0193 8A8201   		.uleb128 0x410a
 2649 0196 00       		.byte	0
 2650 0197 02       		.uleb128 0x2
 2651 0198 18       		.uleb128 0x18
 2652 0199 9142     		.uleb128 0x2111
 2653 019b 18       		.uleb128 0x18
 2654 019c 00       		.byte	0
 2655 019d 00       		.byte	0
 2656 019e 1F       		.uleb128 0x1f
 2657 019f 898201   		.uleb128 0x4109
 2658 01a2 01       		.byte	0x1
 2659 01a3 11       		.uleb128 0x11
 2660 01a4 01       		.uleb128 0x1
 2661 01a5 31       		.uleb128 0x31
 2662 01a6 13       		.uleb128 0x13
 2663 01a7 00       		.byte	0
 2664 01a8 00       		.byte	0
 2665 01a9 20       		.uleb128 0x20
 2666 01aa 2E       		.uleb128 0x2e
 2667 01ab 01       		.byte	0x1
 2668 01ac 3F       		.uleb128 0x3f
 2669 01ad 19       		.uleb128 0x19
 2670 01ae 03       		.uleb128 0x3
 2671 01af 0E       		.uleb128 0xe
 2672 01b0 3A       		.uleb128 0x3a
 2673 01b1 0B       		.uleb128 0xb
 2674 01b2 3B       		.uleb128 0x3b
 2675 01b3 0B       		.uleb128 0xb
 2676 01b4 39       		.uleb128 0x39
 2677 01b5 0B       		.uleb128 0xb
 2678 01b6 27       		.uleb128 0x27
 2679 01b7 19       		.uleb128 0x19
ARM GAS  /var/folders/l5/0x54b2c10074c8bt31ycjvl80000gp/T//ccp2SSgC.s 			page 48


 2680 01b8 49       		.uleb128 0x49
 2681 01b9 13       		.uleb128 0x13
 2682 01ba 11       		.uleb128 0x11
 2683 01bb 01       		.uleb128 0x1
 2684 01bc 12       		.uleb128 0x12
 2685 01bd 06       		.uleb128 0x6
 2686 01be 40       		.uleb128 0x40
 2687 01bf 18       		.uleb128 0x18
 2688 01c0 9742     		.uleb128 0x2117
 2689 01c2 19       		.uleb128 0x19
 2690 01c3 01       		.uleb128 0x1
 2691 01c4 13       		.uleb128 0x13
 2692 01c5 00       		.byte	0
 2693 01c6 00       		.byte	0
 2694 01c7 21       		.uleb128 0x21
 2695 01c8 05       		.uleb128 0x5
 2696 01c9 00       		.byte	0
 2697 01ca 03       		.uleb128 0x3
 2698 01cb 08       		.uleb128 0x8
 2699 01cc 3A       		.uleb128 0x3a
 2700 01cd 0B       		.uleb128 0xb
 2701 01ce 3B       		.uleb128 0x3b
 2702 01cf 0B       		.uleb128 0xb
 2703 01d0 39       		.uleb128 0x39
 2704 01d1 0B       		.uleb128 0xb
 2705 01d2 49       		.uleb128 0x49
 2706 01d3 13       		.uleb128 0x13
 2707 01d4 02       		.uleb128 0x2
 2708 01d5 17       		.uleb128 0x17
 2709 01d6 B742     		.uleb128 0x2137
 2710 01d8 17       		.uleb128 0x17
 2711 01d9 00       		.byte	0
 2712 01da 00       		.byte	0
 2713 01db 22       		.uleb128 0x22
 2714 01dc 05       		.uleb128 0x5
 2715 01dd 00       		.byte	0
 2716 01de 03       		.uleb128 0x3
 2717 01df 0E       		.uleb128 0xe
 2718 01e0 3A       		.uleb128 0x3a
 2719 01e1 0B       		.uleb128 0xb
 2720 01e2 3B       		.uleb128 0x3b
 2721 01e3 0B       		.uleb128 0xb
 2722 01e4 39       		.uleb128 0x39
 2723 01e5 0B       		.uleb128 0xb
 2724 01e6 49       		.uleb128 0x49
 2725 01e7 13       		.uleb128 0x13
 2726 01e8 02       		.uleb128 0x2
 2727 01e9 17       		.uleb128 0x17
 2728 01ea B742     		.uleb128 0x2137
 2729 01ec 17       		.uleb128 0x17
 2730 01ed 00       		.byte	0
 2731 01ee 00       		.byte	0
 2732 01ef 23       		.uleb128 0x23
 2733 01f0 34       		.uleb128 0x34
 2734 01f1 00       		.byte	0
 2735 01f2 03       		.uleb128 0x3
 2736 01f3 08       		.uleb128 0x8
ARM GAS  /var/folders/l5/0x54b2c10074c8bt31ycjvl80000gp/T//ccp2SSgC.s 			page 49


 2737 01f4 3A       		.uleb128 0x3a
 2738 01f5 0B       		.uleb128 0xb
 2739 01f6 3B       		.uleb128 0x3b
 2740 01f7 0B       		.uleb128 0xb
 2741 01f8 39       		.uleb128 0x39
 2742 01f9 0B       		.uleb128 0xb
 2743 01fa 49       		.uleb128 0x49
 2744 01fb 13       		.uleb128 0x13
 2745 01fc 02       		.uleb128 0x2
 2746 01fd 17       		.uleb128 0x17
 2747 01fe B742     		.uleb128 0x2137
 2748 0200 17       		.uleb128 0x17
 2749 0201 00       		.byte	0
 2750 0202 00       		.byte	0
 2751 0203 24       		.uleb128 0x24
 2752 0204 1D       		.uleb128 0x1d
 2753 0205 01       		.byte	0x1
 2754 0206 31       		.uleb128 0x31
 2755 0207 13       		.uleb128 0x13
 2756 0208 52       		.uleb128 0x52
 2757 0209 01       		.uleb128 0x1
 2758 020a B842     		.uleb128 0x2138
 2759 020c 0B       		.uleb128 0xb
 2760 020d 55       		.uleb128 0x55
 2761 020e 17       		.uleb128 0x17
 2762 020f 58       		.uleb128 0x58
 2763 0210 0B       		.uleb128 0xb
 2764 0211 59       		.uleb128 0x59
 2765 0212 0B       		.uleb128 0xb
 2766 0213 57       		.uleb128 0x57
 2767 0214 0B       		.uleb128 0xb
 2768 0215 01       		.uleb128 0x1
 2769 0216 13       		.uleb128 0x13
 2770 0217 00       		.byte	0
 2771 0218 00       		.byte	0
 2772 0219 25       		.uleb128 0x25
 2773 021a 2E       		.uleb128 0x2e
 2774 021b 01       		.byte	0x1
 2775 021c 3F       		.uleb128 0x3f
 2776 021d 19       		.uleb128 0x19
 2777 021e 03       		.uleb128 0x3
 2778 021f 0E       		.uleb128 0xe
 2779 0220 3A       		.uleb128 0x3a
 2780 0221 0B       		.uleb128 0xb
 2781 0222 3B       		.uleb128 0x3b
 2782 0223 0B       		.uleb128 0xb
 2783 0224 39       		.uleb128 0x39
 2784 0225 0B       		.uleb128 0xb
 2785 0226 27       		.uleb128 0x27
 2786 0227 19       		.uleb128 0x19
 2787 0228 20       		.uleb128 0x20
 2788 0229 0B       		.uleb128 0xb
 2789 022a 01       		.uleb128 0x1
 2790 022b 13       		.uleb128 0x13
 2791 022c 00       		.byte	0
 2792 022d 00       		.byte	0
 2793 022e 26       		.uleb128 0x26
ARM GAS  /var/folders/l5/0x54b2c10074c8bt31ycjvl80000gp/T//ccp2SSgC.s 			page 50


 2794 022f 05       		.uleb128 0x5
 2795 0230 00       		.byte	0
 2796 0231 03       		.uleb128 0x3
 2797 0232 08       		.uleb128 0x8
 2798 0233 3A       		.uleb128 0x3a
 2799 0234 0B       		.uleb128 0xb
 2800 0235 3B       		.uleb128 0x3b
 2801 0236 0B       		.uleb128 0xb
 2802 0237 39       		.uleb128 0x39
 2803 0238 0B       		.uleb128 0xb
 2804 0239 49       		.uleb128 0x49
 2805 023a 13       		.uleb128 0x13
 2806 023b 00       		.byte	0
 2807 023c 00       		.byte	0
 2808 023d 27       		.uleb128 0x27
 2809 023e 2E       		.uleb128 0x2e
 2810 023f 01       		.byte	0x1
 2811 0240 3F       		.uleb128 0x3f
 2812 0241 19       		.uleb128 0x19
 2813 0242 03       		.uleb128 0x3
 2814 0243 0E       		.uleb128 0xe
 2815 0244 3A       		.uleb128 0x3a
 2816 0245 0B       		.uleb128 0xb
 2817 0246 3B       		.uleb128 0x3b
 2818 0247 0B       		.uleb128 0xb
 2819 0248 39       		.uleb128 0x39
 2820 0249 0B       		.uleb128 0xb
 2821 024a 27       		.uleb128 0x27
 2822 024b 19       		.uleb128 0x19
 2823 024c 11       		.uleb128 0x11
 2824 024d 01       		.uleb128 0x1
 2825 024e 12       		.uleb128 0x12
 2826 024f 06       		.uleb128 0x6
 2827 0250 40       		.uleb128 0x40
 2828 0251 18       		.uleb128 0x18
 2829 0252 9742     		.uleb128 0x2117
 2830 0254 19       		.uleb128 0x19
 2831 0255 01       		.uleb128 0x1
 2832 0256 13       		.uleb128 0x13
 2833 0257 00       		.byte	0
 2834 0258 00       		.byte	0
 2835 0259 28       		.uleb128 0x28
 2836 025a 1D       		.uleb128 0x1d
 2837 025b 01       		.byte	0x1
 2838 025c 31       		.uleb128 0x31
 2839 025d 13       		.uleb128 0x13
 2840 025e 52       		.uleb128 0x52
 2841 025f 01       		.uleb128 0x1
 2842 0260 B842     		.uleb128 0x2138
 2843 0262 0B       		.uleb128 0xb
 2844 0263 11       		.uleb128 0x11
 2845 0264 01       		.uleb128 0x1
 2846 0265 12       		.uleb128 0x12
 2847 0266 06       		.uleb128 0x6
 2848 0267 58       		.uleb128 0x58
 2849 0268 0B       		.uleb128 0xb
 2850 0269 59       		.uleb128 0x59
ARM GAS  /var/folders/l5/0x54b2c10074c8bt31ycjvl80000gp/T//ccp2SSgC.s 			page 51


 2851 026a 0B       		.uleb128 0xb
 2852 026b 57       		.uleb128 0x57
 2853 026c 0B       		.uleb128 0xb
 2854 026d 01       		.uleb128 0x1
 2855 026e 13       		.uleb128 0x13
 2856 026f 00       		.byte	0
 2857 0270 00       		.byte	0
 2858 0271 29       		.uleb128 0x29
 2859 0272 05       		.uleb128 0x5
 2860 0273 00       		.byte	0
 2861 0274 03       		.uleb128 0x3
 2862 0275 08       		.uleb128 0x8
 2863 0276 3A       		.uleb128 0x3a
 2864 0277 0B       		.uleb128 0xb
 2865 0278 3B       		.uleb128 0x3b
 2866 0279 0B       		.uleb128 0xb
 2867 027a 39       		.uleb128 0x39
 2868 027b 0B       		.uleb128 0xb
 2869 027c 49       		.uleb128 0x49
 2870 027d 13       		.uleb128 0x13
 2871 027e 02       		.uleb128 0x2
 2872 027f 18       		.uleb128 0x18
 2873 0280 00       		.byte	0
 2874 0281 00       		.byte	0
 2875 0282 2A       		.uleb128 0x2a
 2876 0283 2E       		.uleb128 0x2e
 2877 0284 01       		.byte	0x1
 2878 0285 03       		.uleb128 0x3
 2879 0286 0E       		.uleb128 0xe
 2880 0287 3A       		.uleb128 0x3a
 2881 0288 0B       		.uleb128 0xb
 2882 0289 3B       		.uleb128 0x3b
 2883 028a 0B       		.uleb128 0xb
 2884 028b 39       		.uleb128 0x39
 2885 028c 0B       		.uleb128 0xb
 2886 028d 27       		.uleb128 0x27
 2887 028e 19       		.uleb128 0x19
 2888 028f 49       		.uleb128 0x49
 2889 0290 13       		.uleb128 0x13
 2890 0291 20       		.uleb128 0x20
 2891 0292 0B       		.uleb128 0xb
 2892 0293 01       		.uleb128 0x1
 2893 0294 13       		.uleb128 0x13
 2894 0295 00       		.byte	0
 2895 0296 00       		.byte	0
 2896 0297 2B       		.uleb128 0x2b
 2897 0298 34       		.uleb128 0x34
 2898 0299 00       		.byte	0
 2899 029a 03       		.uleb128 0x3
 2900 029b 08       		.uleb128 0x8
 2901 029c 3A       		.uleb128 0x3a
 2902 029d 0B       		.uleb128 0xb
 2903 029e 3B       		.uleb128 0x3b
 2904 029f 0B       		.uleb128 0xb
 2905 02a0 39       		.uleb128 0x39
 2906 02a1 0B       		.uleb128 0xb
 2907 02a2 49       		.uleb128 0x49
ARM GAS  /var/folders/l5/0x54b2c10074c8bt31ycjvl80000gp/T//ccp2SSgC.s 			page 52


 2908 02a3 13       		.uleb128 0x13
 2909 02a4 00       		.byte	0
 2910 02a5 00       		.byte	0
 2911 02a6 2C       		.uleb128 0x2c
 2912 02a7 2E       		.uleb128 0x2e
 2913 02a8 01       		.byte	0x1
 2914 02a9 03       		.uleb128 0x3
 2915 02aa 0E       		.uleb128 0xe
 2916 02ab 3A       		.uleb128 0x3a
 2917 02ac 0B       		.uleb128 0xb
 2918 02ad 3B       		.uleb128 0x3b
 2919 02ae 0B       		.uleb128 0xb
 2920 02af 39       		.uleb128 0x39
 2921 02b0 0B       		.uleb128 0xb
 2922 02b1 27       		.uleb128 0x27
 2923 02b2 19       		.uleb128 0x19
 2924 02b3 20       		.uleb128 0x20
 2925 02b4 0B       		.uleb128 0xb
 2926 02b5 01       		.uleb128 0x1
 2927 02b6 13       		.uleb128 0x13
 2928 02b7 00       		.byte	0
 2929 02b8 00       		.byte	0
 2930 02b9 2D       		.uleb128 0x2d
 2931 02ba 2E       		.uleb128 0x2e
 2932 02bb 01       		.byte	0x1
 2933 02bc 31       		.uleb128 0x31
 2934 02bd 13       		.uleb128 0x13
 2935 02be 11       		.uleb128 0x11
 2936 02bf 01       		.uleb128 0x1
 2937 02c0 12       		.uleb128 0x12
 2938 02c1 06       		.uleb128 0x6
 2939 02c2 40       		.uleb128 0x40
 2940 02c3 18       		.uleb128 0x18
 2941 02c4 9742     		.uleb128 0x2117
 2942 02c6 19       		.uleb128 0x19
 2943 02c7 01       		.uleb128 0x1
 2944 02c8 13       		.uleb128 0x13
 2945 02c9 00       		.byte	0
 2946 02ca 00       		.byte	0
 2947 02cb 2E       		.uleb128 0x2e
 2948 02cc 2E       		.uleb128 0x2e
 2949 02cd 00       		.byte	0
 2950 02ce 3F       		.uleb128 0x3f
 2951 02cf 19       		.uleb128 0x19
 2952 02d0 3C       		.uleb128 0x3c
 2953 02d1 19       		.uleb128 0x19
 2954 02d2 6E       		.uleb128 0x6e
 2955 02d3 0E       		.uleb128 0xe
 2956 02d4 03       		.uleb128 0x3
 2957 02d5 0E       		.uleb128 0xe
 2958 02d6 3A       		.uleb128 0x3a
 2959 02d7 0B       		.uleb128 0xb
 2960 02d8 3B       		.uleb128 0x3b
 2961 02d9 0B       		.uleb128 0xb
 2962 02da 39       		.uleb128 0x39
 2963 02db 0B       		.uleb128 0xb
 2964 02dc 00       		.byte	0
ARM GAS  /var/folders/l5/0x54b2c10074c8bt31ycjvl80000gp/T//ccp2SSgC.s 			page 53


 2965 02dd 00       		.byte	0
 2966 02de 00       		.byte	0
 2967              		.section	.debug_loc,"",%progbits
 2968              	.Ldebug_loc0:
 2969              	.LVUS22:
 2970 0000 00       		.uleb128 0
 2971 0001 00       		.uleb128 .LVU192
 2972 0002 00       		.uleb128 .LVU192
 2973 0003 00       		.uleb128 .LVU222
 2974 0004 00       		.uleb128 .LVU222
 2975 0005 00       		.uleb128 0
 2976              	.LLST22:
 2977 0006 00000000 		.4byte	.LVL38
 2978 000a 0F000000 		.4byte	.LVL39-1
 2979 000e 0100     		.2byte	0x1
 2980 0010 50       		.byte	0x50
 2981 0011 0F000000 		.4byte	.LVL39-1
 2982 0015 70000000 		.4byte	.LVL47
 2983 0019 0100     		.2byte	0x1
 2984 001b 54       		.byte	0x54
 2985 001c 70000000 		.4byte	.LVL47
 2986 0020 88000000 		.4byte	.LFE15
 2987 0024 0400     		.2byte	0x4
 2988 0026 F3       		.byte	0xf3
 2989 0027 01       		.uleb128 0x1
 2990 0028 50       		.byte	0x50
 2991 0029 9F       		.byte	0x9f
 2992 002a 00000000 		.4byte	0
 2993 002e 00000000 		.4byte	0
 2994              	.LVUS23:
 2995 0032 00       		.uleb128 0
 2996 0033 00       		.uleb128 .LVU192
 2997 0034 00       		.uleb128 .LVU192
 2998 0035 00       		.uleb128 0
 2999              	.LLST23:
 3000 0036 00000000 		.4byte	.LVL38
 3001 003a 0F000000 		.4byte	.LVL39-1
 3002 003e 0100     		.2byte	0x1
 3003 0040 51       		.byte	0x51
 3004 0041 0F000000 		.4byte	.LVL39-1
 3005 0045 88000000 		.4byte	.LFE15
 3006 0049 0100     		.2byte	0x1
 3007 004b 56       		.byte	0x56
 3008 004c 00000000 		.4byte	0
 3009 0050 00000000 		.4byte	0
 3010              	.LVUS24:
 3011 0054 00       		.uleb128 .LVU194
 3012 0055 00       		.uleb128 .LVU201
 3013 0056 00       		.uleb128 .LVU201
 3014 0057 00       		.uleb128 0
 3015              	.LLST24:
 3016 0058 18000000 		.4byte	.LVL40
 3017 005c 28000000 		.4byte	.LVL42
 3018 0060 0100     		.2byte	0x1
 3019 0062 50       		.byte	0x50
 3020 0063 28000000 		.4byte	.LVL42
 3021 0067 88000000 		.4byte	.LFE15
ARM GAS  /var/folders/l5/0x54b2c10074c8bt31ycjvl80000gp/T//ccp2SSgC.s 			page 54


 3022 006b 0100     		.2byte	0x1
 3023 006d 55       		.byte	0x55
 3024 006e 00000000 		.4byte	0
 3025 0072 00000000 		.4byte	0
 3026              	.LVUS25:
 3027 0076 00       		.uleb128 .LVU222
 3028 0077 00       		.uleb128 .LVU225
 3029 0078 00       		.uleb128 .LVU225
 3030 0079 00       		.uleb128 0
 3031              	.LLST25:
 3032 007a 70000000 		.4byte	.LVL47
 3033 007e 78000000 		.4byte	.LVL48
 3034 0082 0100     		.2byte	0x1
 3035 0084 50       		.byte	0x50
 3036 0085 78000000 		.4byte	.LVL48
 3037 0089 88000000 		.4byte	.LFE15
 3038 008d 0100     		.2byte	0x1
 3039 008f 54       		.byte	0x54
 3040 0090 00000000 		.4byte	0
 3041 0094 00000000 		.4byte	0
 3042              	.LVUS26:
 3043 0098 01       		.uleb128 .LVU198
 3044 0099 00       		.uleb128 .LVU217
 3045              	.LLST26:
 3046 009a 24000000 		.4byte	.LVL41
 3047 009e 60000000 		.4byte	.LVL45
 3048 00a2 0100     		.2byte	0x1
 3049 00a4 54       		.byte	0x54
 3050 00a5 00000000 		.4byte	0
 3051 00a9 00000000 		.4byte	0
 3052              	.LVUS27:
 3053 00ad 01       		.uleb128 .LVU198
 3054 00ae 00       		.uleb128 .LVU217
 3055              	.LLST27:
 3056 00af 24000000 		.4byte	.LVL41
 3057 00b3 60000000 		.4byte	.LVL45
 3058 00b7 0100     		.2byte	0x1
 3059 00b9 5C       		.byte	0x5c
 3060 00ba 00000000 		.4byte	0
 3061 00be 00000000 		.4byte	0
 3062              	.LVUS28:
 3063 00c2 03       		.uleb128 .LVU200
 3064 00c3 00       		.uleb128 .LVU201
 3065 00c4 00       		.uleb128 .LVU201
 3066 00c5 00       		.uleb128 .LVU214
 3067 00c6 00       		.uleb128 .LVU214
 3068 00c7 00       		.uleb128 .LVU217
 3069              	.LLST28:
 3070 00c8 24000000 		.4byte	.LVL41
 3071 00cc 28000000 		.4byte	.LVL42
 3072 00d0 0100     		.2byte	0x1
 3073 00d2 54       		.byte	0x54
 3074 00d3 28000000 		.4byte	.LVL42
 3075 00d7 58000000 		.4byte	.LVL44
 3076 00db 0100     		.2byte	0x1
 3077 00dd 53       		.byte	0x53
 3078 00de 58000000 		.4byte	.LVL44
ARM GAS  /var/folders/l5/0x54b2c10074c8bt31ycjvl80000gp/T//ccp2SSgC.s 			page 55


 3079 00e2 60000000 		.4byte	.LVL45
 3080 00e6 0200     		.2byte	0x2
 3081 00e8 7C       		.byte	0x7c
 3082 00e9 00       		.sleb128 0
 3083 00ea 00000000 		.4byte	0
 3084 00ee 00000000 		.4byte	0
 3085              	.LVUS29:
 3086 00f2 00       		.uleb128 0
 3087 00f3 00       		.uleb128 .LVU237
 3088 00f4 00       		.uleb128 .LVU237
 3089 00f5 00       		.uleb128 0
 3090              	.LLST29:
 3091 00f6 00000000 		.4byte	.LVL50
 3092 00fa 0B000000 		.4byte	.LVL51-1
 3093 00fe 0100     		.2byte	0x1
 3094 0100 50       		.byte	0x50
 3095 0101 0B000000 		.4byte	.LVL51-1
 3096 0105 14000000 		.4byte	.LFE14
 3097 0109 0400     		.2byte	0x4
 3098 010b F3       		.byte	0xf3
 3099 010c 01       		.uleb128 0x1
 3100 010d 50       		.byte	0x50
 3101 010e 9F       		.byte	0x9f
 3102 010f 00000000 		.4byte	0
 3103 0113 00000000 		.4byte	0
 3104              	.LVUS30:
 3105 0117 00       		.uleb128 0
 3106 0118 00       		.uleb128 .LVU237
 3107 0119 00       		.uleb128 .LVU237
 3108 011a 00       		.uleb128 0
 3109              	.LLST30:
 3110 011b 00000000 		.4byte	.LVL50
 3111 011f 0B000000 		.4byte	.LVL51-1
 3112 0123 0100     		.2byte	0x1
 3113 0125 51       		.byte	0x51
 3114 0126 0B000000 		.4byte	.LVL51-1
 3115 012a 14000000 		.4byte	.LFE14
 3116 012e 0400     		.2byte	0x4
 3117 0130 F3       		.byte	0xf3
 3118 0131 01       		.uleb128 0x1
 3119 0132 51       		.byte	0x51
 3120 0133 9F       		.byte	0x9f
 3121 0134 00000000 		.4byte	0
 3122 0138 00000000 		.4byte	0
 3123              	.LVUS31:
 3124 013c 00       		.uleb128 .LVU237
 3125 013d 00       		.uleb128 0
 3126              	.LLST31:
 3127 013e 0C000000 		.4byte	.LVL51
 3128 0142 14000000 		.4byte	.LFE14
 3129 0146 0100     		.2byte	0x1
 3130 0148 50       		.byte	0x50
 3131 0149 00000000 		.4byte	0
 3132 014d 00000000 		.4byte	0
 3133              	.LVUS13:
 3134 0151 00       		.uleb128 0
 3135 0152 00       		.uleb128 .LVU134
ARM GAS  /var/folders/l5/0x54b2c10074c8bt31ycjvl80000gp/T//ccp2SSgC.s 			page 56


 3136 0153 00       		.uleb128 .LVU134
 3137 0154 00       		.uleb128 0
 3138              	.LLST13:
 3139 0155 00000000 		.4byte	.LVL23
 3140 0159 13000000 		.4byte	.LVL25-1
 3141 015d 0100     		.2byte	0x1
 3142 015f 50       		.byte	0x50
 3143 0160 13000000 		.4byte	.LVL25-1
 3144 0164 78000000 		.4byte	.LFE13
 3145 0168 0100     		.2byte	0x1
 3146 016a 55       		.byte	0x55
 3147 016b 00000000 		.4byte	0
 3148 016f 00000000 		.4byte	0
 3149              	.LVUS14:
 3150 0173 00       		.uleb128 .LVU124
 3151 0174 00       		.uleb128 .LVU162
 3152              	.LLST14:
 3153 0175 10000000 		.4byte	.LVL24
 3154 0179 64000000 		.4byte	.LVL34
 3155 017d 0100     		.2byte	0x1
 3156 017f 54       		.byte	0x54
 3157 0180 00000000 		.4byte	0
 3158 0184 00000000 		.4byte	0
 3159              	.LVUS15:
 3160 0188 00       		.uleb128 .LVU136
 3161 0189 00       		.uleb128 .LVU157
 3162 018a 00       		.uleb128 .LVU157
 3163 018b 00       		.uleb128 0
 3164              	.LLST15:
 3165 018c 1C000000 		.4byte	.LVL26
 3166 0190 58000000 		.4byte	.LVL31
 3167 0194 0100     		.2byte	0x1
 3168 0196 50       		.byte	0x50
 3169 0197 58000000 		.4byte	.LVL31
 3170 019b 78000000 		.4byte	.LFE13
 3171 019f 0100     		.2byte	0x1
 3172 01a1 56       		.byte	0x56
 3173 01a2 00000000 		.4byte	0
 3174 01a6 00000000 		.4byte	0
 3175              	.LVUS16:
 3176 01aa 00       		.uleb128 .LVU162
 3177 01ab 00       		.uleb128 0
 3178              	.LLST16:
 3179 01ac 64000000 		.4byte	.LVL34
 3180 01b0 78000000 		.4byte	.LFE13
 3181 01b4 0100     		.2byte	0x1
 3182 01b6 54       		.byte	0x54
 3183 01b7 00000000 		.4byte	0
 3184 01bb 00000000 		.4byte	0
 3185              	.LVUS17:
 3186 01bf 01       		.uleb128 .LVU139
 3187 01c0 00       		.uleb128 .LVU158
 3188              	.LLST17:
 3189 01c1 20000000 		.4byte	.LVL27
 3190 01c5 5C000000 		.4byte	.LVL32
 3191 01c9 0100     		.2byte	0x1
 3192 01cb 55       		.byte	0x55
ARM GAS  /var/folders/l5/0x54b2c10074c8bt31ycjvl80000gp/T//ccp2SSgC.s 			page 57


 3193 01cc 00000000 		.4byte	0
 3194 01d0 00000000 		.4byte	0
 3195              	.LVUS18:
 3196 01d4 01       		.uleb128 .LVU139
 3197 01d5 00       		.uleb128 .LVU158
 3198              	.LLST18:
 3199 01d6 20000000 		.4byte	.LVL27
 3200 01da 5C000000 		.4byte	.LVL32
 3201 01de 0100     		.2byte	0x1
 3202 01e0 54       		.byte	0x54
 3203 01e1 00000000 		.4byte	0
 3204 01e5 00000000 		.4byte	0
 3205              	.LVUS19:
 3206 01e9 03       		.uleb128 .LVU141
 3207 01ea 00       		.uleb128 .LVU142
 3208 01eb 00       		.uleb128 .LVU142
 3209 01ec 00       		.uleb128 .LVU155
 3210 01ed 00       		.uleb128 .LVU155
 3211 01ee 00       		.uleb128 .LVU158
 3212              	.LLST19:
 3213 01ef 20000000 		.4byte	.LVL27
 3214 01f3 24000000 		.4byte	.LVL28
 3215 01f7 0100     		.2byte	0x1
 3216 01f9 55       		.byte	0x55
 3217 01fa 24000000 		.4byte	.LVL28
 3218 01fe 54000000 		.4byte	.LVL30
 3219 0202 0100     		.2byte	0x1
 3220 0204 53       		.byte	0x53
 3221 0205 54000000 		.4byte	.LVL30
 3222 0209 5C000000 		.4byte	.LVL32
 3223 020d 0200     		.2byte	0x2
 3224 020f 74       		.byte	0x74
 3225 0210 00       		.sleb128 0
 3226 0211 00000000 		.4byte	0
 3227 0215 00000000 		.4byte	0
 3228              	.LVUS20:
 3229 0219 00       		.uleb128 0
 3230 021a 00       		.uleb128 .LVU174
 3231 021b 00       		.uleb128 .LVU174
 3232 021c 00       		.uleb128 0
 3233              	.LLST20:
 3234 021d 00000000 		.4byte	.LVL36
 3235 0221 0B000000 		.4byte	.LVL37-1
 3236 0225 0100     		.2byte	0x1
 3237 0227 50       		.byte	0x50
 3238 0228 0B000000 		.4byte	.LVL37-1
 3239 022c 14000000 		.4byte	.LFE12
 3240 0230 0400     		.2byte	0x4
 3241 0232 F3       		.byte	0xf3
 3242 0233 01       		.uleb128 0x1
 3243 0234 50       		.byte	0x50
 3244 0235 9F       		.byte	0x9f
 3245 0236 00000000 		.4byte	0
 3246 023a 00000000 		.4byte	0
 3247              	.LVUS21:
 3248 023e 00       		.uleb128 .LVU174
 3249 023f 00       		.uleb128 0
ARM GAS  /var/folders/l5/0x54b2c10074c8bt31ycjvl80000gp/T//ccp2SSgC.s 			page 58


 3250              	.LLST21:
 3251 0240 0C000000 		.4byte	.LVL37
 3252 0244 14000000 		.4byte	.LFE12
 3253 0248 0100     		.2byte	0x1
 3254 024a 50       		.byte	0x50
 3255 024b 00000000 		.4byte	0
 3256 024f 00000000 		.4byte	0
 3257              	.LVUS6:
 3258 0253 00       		.uleb128 0
 3259 0254 00       		.uleb128 .LVU74
 3260 0255 00       		.uleb128 .LVU74
 3261 0256 00       		.uleb128 .LVU88
 3262 0257 00       		.uleb128 .LVU88
 3263 0258 00       		.uleb128 0
 3264              	.LLST6:
 3265 0259 00000000 		.4byte	.LVL12
 3266 025d 1C000000 		.4byte	.LVL14
 3267 0261 0100     		.2byte	0x1
 3268 0263 50       		.byte	0x50
 3269 0264 1C000000 		.4byte	.LVL14
 3270 0268 40000000 		.4byte	.LVL17
 3271 026c 0100     		.2byte	0x1
 3272 026e 54       		.byte	0x54
 3273 026f 40000000 		.4byte	.LVL17
 3274 0273 4C000000 		.4byte	.LFE10
 3275 0277 0400     		.2byte	0x4
 3276 0279 F3       		.byte	0xf3
 3277 027a 01       		.uleb128 0x1
 3278 027b 50       		.byte	0x50
 3279 027c 9F       		.byte	0x9f
 3280 027d 00000000 		.4byte	0
 3281 0281 00000000 		.4byte	0
 3282              	.LVUS7:
 3283 0285 03       		.uleb128 .LVU65
 3284 0286 00       		.uleb128 .LVU74
 3285 0287 00       		.uleb128 .LVU74
 3286 0288 00       		.uleb128 .LVU88
 3287              	.LLST7:
 3288 0289 08000000 		.4byte	.LVL13
 3289 028d 1C000000 		.4byte	.LVL14
 3290 0291 0100     		.2byte	0x1
 3291 0293 50       		.byte	0x50
 3292 0294 1C000000 		.4byte	.LVL14
 3293 0298 40000000 		.4byte	.LVL17
 3294 029c 0100     		.2byte	0x1
 3295 029e 54       		.byte	0x54
 3296 029f 00000000 		.4byte	0
 3297 02a3 00000000 		.4byte	0
 3298              	.LVUS8:
 3299 02a7 01       		.uleb128 .LVU75
 3300 02a8 01       		.uleb128 .LVU83
 3301              	.LLST8:
 3302 02a9 1C000000 		.4byte	.LVL14
 3303 02ad 2C000000 		.4byte	.LVL15
 3304 02b1 0100     		.2byte	0x1
 3305 02b3 54       		.byte	0x54
 3306 02b4 00000000 		.4byte	0
ARM GAS  /var/folders/l5/0x54b2c10074c8bt31ycjvl80000gp/T//ccp2SSgC.s 			page 59


 3307 02b8 00000000 		.4byte	0
 3308              	.LVUS9:
 3309 02bc 03       		.uleb128 .LVU77
 3310 02bd 01       		.uleb128 .LVU83
 3311              	.LLST9:
 3312 02be 1C000000 		.4byte	.LVL14
 3313 02c2 2C000000 		.4byte	.LVL15
 3314 02c6 0100     		.2byte	0x1
 3315 02c8 53       		.byte	0x53
 3316 02c9 00000000 		.4byte	0
 3317 02cd 00000000 		.4byte	0
 3318              	.LVUS3:
 3319 02d1 00       		.uleb128 0
 3320 02d2 00       		.uleb128 .LVU51
 3321 02d3 00       		.uleb128 .LVU51
 3322 02d4 00       		.uleb128 .LVU56
 3323 02d5 00       		.uleb128 .LVU56
 3324 02d6 00       		.uleb128 0
 3325              	.LLST3:
 3326 02d7 00000000 		.4byte	.LVL7
 3327 02db 1C000000 		.4byte	.LVL9
 3328 02df 0100     		.2byte	0x1
 3329 02e1 50       		.byte	0x50
 3330 02e2 1C000000 		.4byte	.LVL9
 3331 02e6 27000000 		.4byte	.LVL11-1
 3332 02ea 0100     		.2byte	0x1
 3333 02ec 53       		.byte	0x53
 3334 02ed 27000000 		.4byte	.LVL11-1
 3335 02f1 34000000 		.4byte	.LFE9
 3336 02f5 0400     		.2byte	0x4
 3337 02f7 F3       		.byte	0xf3
 3338 02f8 01       		.uleb128 0x1
 3339 02f9 50       		.byte	0x50
 3340 02fa 9F       		.byte	0x9f
 3341 02fb 00000000 		.4byte	0
 3342 02ff 00000000 		.4byte	0
 3343              	.LVUS4:
 3344 0303 01       		.uleb128 .LVU45
 3345 0304 00       		.uleb128 .LVU51
 3346 0305 00       		.uleb128 .LVU51
 3347 0306 01       		.uleb128 .LVU54
 3348              	.LLST4:
 3349 0307 10000000 		.4byte	.LVL8
 3350 030b 1C000000 		.4byte	.LVL9
 3351 030f 0100     		.2byte	0x1
 3352 0311 50       		.byte	0x50
 3353 0312 1C000000 		.4byte	.LVL9
 3354 0316 24000000 		.4byte	.LVL10
 3355 031a 0100     		.2byte	0x1
 3356 031c 53       		.byte	0x53
 3357 031d 00000000 		.4byte	0
 3358 0321 00000000 		.4byte	0
 3359              	.LVUS5:
 3360 0325 03       		.uleb128 .LVU47
 3361 0326 01       		.uleb128 .LVU54
 3362              	.LLST5:
 3363 0327 10000000 		.4byte	.LVL8
ARM GAS  /var/folders/l5/0x54b2c10074c8bt31ycjvl80000gp/T//ccp2SSgC.s 			page 60


 3364 032b 24000000 		.4byte	.LVL10
 3365 032f 0100     		.2byte	0x1
 3366 0331 52       		.byte	0x52
 3367 0332 00000000 		.4byte	0
 3368 0336 00000000 		.4byte	0
 3369              	.LVUS0:
 3370 033a 00       		.uleb128 0
 3371 033b 00       		.uleb128 .LVU22
 3372 033c 00       		.uleb128 .LVU22
 3373 033d 00       		.uleb128 .LVU28
 3374 033e 00       		.uleb128 .LVU28
 3375 033f 00       		.uleb128 .LVU32
 3376 0340 00       		.uleb128 .LVU32
 3377 0341 00       		.uleb128 0
 3378              	.LLST0:
 3379 0342 00000000 		.4byte	.LVL1
 3380 0346 20000000 		.4byte	.LVL3
 3381 034a 0100     		.2byte	0x1
 3382 034c 50       		.byte	0x50
 3383 034d 20000000 		.4byte	.LVL3
 3384 0351 2F000000 		.4byte	.LVL5-1
 3385 0355 0100     		.2byte	0x1
 3386 0357 53       		.byte	0x53
 3387 0358 2F000000 		.4byte	.LVL5-1
 3388 035c 38000000 		.4byte	.LVL6
 3389 0360 0400     		.2byte	0x4
 3390 0362 F3       		.byte	0xf3
 3391 0363 01       		.uleb128 0x1
 3392 0364 50       		.byte	0x50
 3393 0365 9F       		.byte	0x9f
 3394 0366 38000000 		.4byte	.LVL6
 3395 036a 40000000 		.4byte	.LFE8
 3396 036e 0100     		.2byte	0x1
 3397 0370 50       		.byte	0x50
 3398 0371 00000000 		.4byte	0
 3399 0375 00000000 		.4byte	0
 3400              	.LVUS1:
 3401 0379 01       		.uleb128 .LVU16
 3402 037a 00       		.uleb128 .LVU22
 3403 037b 00       		.uleb128 .LVU22
 3404 037c 01       		.uleb128 .LVU26
 3405              	.LLST1:
 3406 037d 14000000 		.4byte	.LVL2
 3407 0381 20000000 		.4byte	.LVL3
 3408 0385 0100     		.2byte	0x1
 3409 0387 50       		.byte	0x50
 3410 0388 20000000 		.4byte	.LVL3
 3411 038c 2C000000 		.4byte	.LVL4
 3412 0390 0100     		.2byte	0x1
 3413 0392 53       		.byte	0x53
 3414 0393 00000000 		.4byte	0
 3415 0397 00000000 		.4byte	0
 3416              	.LVUS2:
 3417 039b 03       		.uleb128 .LVU18
 3418 039c 01       		.uleb128 .LVU26
 3419              	.LLST2:
 3420 039d 14000000 		.4byte	.LVL2
ARM GAS  /var/folders/l5/0x54b2c10074c8bt31ycjvl80000gp/T//ccp2SSgC.s 			page 61


 3421 03a1 2C000000 		.4byte	.LVL4
 3422 03a5 0100     		.2byte	0x1
 3423 03a7 52       		.byte	0x52
 3424 03a8 00000000 		.4byte	0
 3425 03ac 00000000 		.4byte	0
 3426              	.LVUS10:
 3427 03b0 00       		.uleb128 0
 3428 03b1 00       		.uleb128 .LVU104
 3429 03b2 00       		.uleb128 .LVU104
 3430 03b3 00       		.uleb128 0
 3431              	.LLST10:
 3432 03b4 00000000 		.4byte	.LVL19
 3433 03b8 18000000 		.4byte	.LVL20
 3434 03bc 0100     		.2byte	0x1
 3435 03be 50       		.byte	0x50
 3436 03bf 18000000 		.4byte	.LVL20
 3437 03c3 40000000 		.4byte	.LFE11
 3438 03c7 0100     		.2byte	0x1
 3439 03c9 54       		.byte	0x54
 3440 03ca 00000000 		.4byte	0
 3441 03ce 00000000 		.4byte	0
 3442              	.LVUS11:
 3443 03d2 01       		.uleb128 .LVU105
 3444 03d3 01       		.uleb128 .LVU113
 3445              	.LLST11:
 3446 03d4 18000000 		.4byte	.LVL20
 3447 03d8 28000000 		.4byte	.LVL21
 3448 03dc 0100     		.2byte	0x1
 3449 03de 54       		.byte	0x54
 3450 03df 00000000 		.4byte	0
 3451 03e3 00000000 		.4byte	0
 3452              	.LVUS12:
 3453 03e7 03       		.uleb128 .LVU107
 3454 03e8 01       		.uleb128 .LVU113
 3455              	.LLST12:
 3456 03e9 18000000 		.4byte	.LVL20
 3457 03ed 28000000 		.4byte	.LVL21
 3458 03f1 0100     		.2byte	0x1
 3459 03f3 53       		.byte	0x53
 3460 03f4 00000000 		.4byte	0
 3461 03f8 00000000 		.4byte	0
 3462              		.section	.debug_aranges,"",%progbits
 3463 0000 5C000000 		.4byte	0x5c
 3464 0004 0200     		.2byte	0x2
 3465 0006 00000000 		.4byte	.Ldebug_info0
 3466 000a 04       		.byte	0x4
 3467 000b 00       		.byte	0
 3468 000c 0000     		.2byte	0
 3469 000e 0000     		.2byte	0
 3470 0010 00000000 		.4byte	.LFB7
 3471 0014 0C000000 		.4byte	.LFE7-.LFB7
 3472 0018 00000000 		.4byte	.LFB8
 3473 001c 40000000 		.4byte	.LFE8-.LFB8
 3474 0020 00000000 		.4byte	.LFB9
 3475 0024 34000000 		.4byte	.LFE9-.LFB9
 3476 0028 00000000 		.4byte	.LFB10
 3477 002c 4C000000 		.4byte	.LFE10-.LFB10
ARM GAS  /var/folders/l5/0x54b2c10074c8bt31ycjvl80000gp/T//ccp2SSgC.s 			page 62


 3478 0030 00000000 		.4byte	.LFB11
 3479 0034 40000000 		.4byte	.LFE11-.LFB11
 3480 0038 00000000 		.4byte	.LFB13
 3481 003c 78000000 		.4byte	.LFE13-.LFB13
 3482 0040 00000000 		.4byte	.LFB12
 3483 0044 14000000 		.4byte	.LFE12-.LFB12
 3484 0048 00000000 		.4byte	.LFB15
 3485 004c 88000000 		.4byte	.LFE15-.LFB15
 3486 0050 00000000 		.4byte	.LFB14
 3487 0054 14000000 		.4byte	.LFE14-.LFB14
 3488 0058 00000000 		.4byte	0
 3489 005c 00000000 		.4byte	0
 3490              		.section	.debug_ranges,"",%progbits
 3491              	.Ldebug_ranges0:
 3492 0000 14000000 		.4byte	.LBB16
 3493 0004 18000000 		.4byte	.LBE16
 3494 0008 20000000 		.4byte	.LBB20
 3495 000c 24000000 		.4byte	.LBE20
 3496 0010 28000000 		.4byte	.LBB21
 3497 0014 2C000000 		.4byte	.LBE21
 3498 0018 00000000 		.4byte	0
 3499 001c 00000000 		.4byte	0
 3500 0020 10000000 		.4byte	.LBB22
 3501 0024 14000000 		.4byte	.LBE22
 3502 0028 1C000000 		.4byte	.LBB25
 3503 002c 24000000 		.4byte	.LBE25
 3504 0030 00000000 		.4byte	0
 3505 0034 00000000 		.4byte	0
 3506 0038 1C000000 		.4byte	.LBB28
 3507 003c 20000000 		.4byte	.LBE28
 3508 0040 24000000 		.4byte	.LBB31
 3509 0044 2C000000 		.4byte	.LBE31
 3510 0048 00000000 		.4byte	0
 3511 004c 00000000 		.4byte	0
 3512 0050 18000000 		.4byte	.LBB32
 3513 0054 1C000000 		.4byte	.LBE32
 3514 0058 20000000 		.4byte	.LBB35
 3515 005c 28000000 		.4byte	.LBE35
 3516 0060 00000000 		.4byte	0
 3517 0064 00000000 		.4byte	0
 3518 0068 14000000 		.4byte	.LBB36
 3519 006c 18000000 		.4byte	.LBE36
 3520 0070 20000000 		.4byte	.LBB40
 3521 0074 54000000 		.4byte	.LBE40
 3522 0078 58000000 		.4byte	.LBB41
 3523 007c 5C000000 		.4byte	.LBE41
 3524 0080 00000000 		.4byte	0
 3525 0084 00000000 		.4byte	0
 3526 0088 1C000000 		.4byte	.LBB42
 3527 008c 20000000 		.4byte	.LBE42
 3528 0090 24000000 		.4byte	.LBB46
 3529 0094 58000000 		.4byte	.LBE46
 3530 0098 5C000000 		.4byte	.LBB47
 3531 009c 60000000 		.4byte	.LBE47
 3532 00a0 00000000 		.4byte	0
 3533 00a4 00000000 		.4byte	0
 3534 00a8 00000000 		.4byte	.LFB7
ARM GAS  /var/folders/l5/0x54b2c10074c8bt31ycjvl80000gp/T//ccp2SSgC.s 			page 63


 3535 00ac 0C000000 		.4byte	.LFE7
 3536 00b0 00000000 		.4byte	.LFB8
 3537 00b4 40000000 		.4byte	.LFE8
 3538 00b8 00000000 		.4byte	.LFB9
 3539 00bc 34000000 		.4byte	.LFE9
 3540 00c0 00000000 		.4byte	.LFB10
 3541 00c4 4C000000 		.4byte	.LFE10
 3542 00c8 00000000 		.4byte	.LFB11
 3543 00cc 40000000 		.4byte	.LFE11
 3544 00d0 00000000 		.4byte	.LFB13
 3545 00d4 78000000 		.4byte	.LFE13
 3546 00d8 00000000 		.4byte	.LFB12
 3547 00dc 14000000 		.4byte	.LFE12
 3548 00e0 00000000 		.4byte	.LFB15
 3549 00e4 88000000 		.4byte	.LFE15
 3550 00e8 00000000 		.4byte	.LFB14
 3551 00ec 14000000 		.4byte	.LFE14
 3552 00f0 00000000 		.4byte	0
 3553 00f4 00000000 		.4byte	0
 3554              		.section	.debug_line,"",%progbits
 3555              	.Ldebug_line0:
 3556 0000 9E050000 		.section	.debug_str,"MS",%progbits,1
 3556      0300A101 
 3556      00000201 
 3556      FB0E0D00 
 3556      01010101 
 3557              	.LASF87:
 3558 0000 63665F6F 		.ascii	"cf_off_older\000"
 3558      66665F6F 
 3558      6C646572 
 3558      00
 3559              	.LASF38:
 3560 000d 705F6D73 		.ascii	"p_msg\000"
 3560      6700
 3561              	.LASF106:
 3562 0013 6368436F 		.ascii	"chCondInit\000"
 3562      6E64496E 
 3562      697400
 3563              	.LASF72:
 3564 001e 7264796D 		.ascii	"rdymsg\000"
 3564      736700
 3565              	.LASF4:
 3566 0025 5F5F7569 		.ascii	"__uint8_t\000"
 3566      6E74385F 
 3566      7400
 3567              	.LASF64:
 3568 002f 76746C69 		.ascii	"vtlist\000"
 3568      737400
 3569              	.LASF12:
 3570 0036 6C6F6E67 		.ascii	"long long unsigned int\000"
 3570      206C6F6E 
 3570      6720756E 
 3570      7369676E 
 3570      65642069 
 3571              	.LASF83:
 3572 004d 63685F74 		.ascii	"ch_threadsize\000"
 3572      68726561 
ARM GAS  /var/folders/l5/0x54b2c10074c8bt31ycjvl80000gp/T//ccp2SSgC.s 			page 64


 3572      6473697A 
 3572      6500
 3573              	.LASF73:
 3574 005b 65786974 		.ascii	"exitcode\000"
 3574      636F6465 
 3574      00
 3575              	.LASF117:
 3576 0064 6368436F 		.ascii	"chCondBroadcastI\000"
 3576      6E644272 
 3576      6F616463 
 3576      61737449 
 3576      00
 3577              	.LASF27:
 3578 0075 705F7072 		.ascii	"p_prio\000"
 3578      696F00
 3579              	.LASF90:
 3580 007c 63665F6F 		.ascii	"cf_off_state\000"
 3580      66665F73 
 3580      74617465 
 3580      00
 3581              	.LASF11:
 3582 0089 6C6F6E67 		.ascii	"long long int\000"
 3582      206C6F6E 
 3582      6720696E 
 3582      7400
 3583              	.LASF1:
 3584 0097 7369676E 		.ascii	"signed char\000"
 3584      65642063 
 3584      68617200 
 3585              	.LASF89:
 3586 00a3 63665F6F 		.ascii	"cf_off_stklimit\000"
 3586      66665F73 
 3586      746B6C69 
 3586      6D697400 
 3587              	.LASF91:
 3588 00b3 63665F6F 		.ascii	"cf_off_flags\000"
 3588      66665F66 
 3588      6C616773 
 3588      00
 3589              	.LASF67:
 3590 00c0 6D5F7175 		.ascii	"m_queue\000"
 3590      65756500 
 3591              	.LASF77:
 3592 00c8 63685F69 		.ascii	"ch_identifier\000"
 3592      64656E74 
 3592      69666965 
 3592      7200
 3593              	.LASF70:
 3594 00d6 436F6E64 		.ascii	"CondVar\000"
 3594      56617200 
 3595              	.LASF8:
 3596 00de 6C6F6E67 		.ascii	"long int\000"
 3596      20696E74 
 3596      00
 3597              	.LASF101:
 3598 00e7 6368436F 		.ascii	"chCondWaitS\000"
 3598      6E645761 
ARM GAS  /var/folders/l5/0x54b2c10074c8bt31ycjvl80000gp/T//ccp2SSgC.s 			page 65


 3598      69745300 
 3599              	.LASF18:
 3600 00f3 74737461 		.ascii	"tstate_t\000"
 3600      74655F74 
 3600      00
 3601              	.LASF109:
 3602 00fc 63684D74 		.ascii	"chMtxLockS\000"
 3602      784C6F63 
 3602      6B5300
 3603              	.LASF14:
 3604 0107 75696E74 		.ascii	"uint16_t\000"
 3604      31365F74 
 3604      00
 3605              	.LASF95:
 3606 0110 63686465 		.ascii	"chdebug_t\000"
 3606      6275675F 
 3606      7400
 3607              	.LASF29:
 3608 011a 705F6E65 		.ascii	"p_newer\000"
 3608      77657200 
 3609              	.LASF97:
 3610 0122 5F69646C 		.ascii	"_idle_thread_wa\000"
 3610      655F7468 
 3610      72656164 
 3610      5F776100 
 3611              	.LASF112:
 3612 0132 63685363 		.ascii	"chSchRescheduleS\000"
 3612      68526573 
 3612      63686564 
 3612      756C6553 
 3612      00
 3613              	.LASF9:
 3614 0143 5F5F7569 		.ascii	"__uint32_t\000"
 3614      6E743332 
 3614      5F7400
 3615              	.LASF45:
 3616 014e 72656761 		.ascii	"regarm_t\000"
 3616      726D5F74 
 3616      00
 3617              	.LASF51:
 3618 0157 76745F70 		.ascii	"vt_prev\000"
 3618      72657600 
 3619              	.LASF115:
 3620 015f 2E2E2F2E 		.ascii	"../../os/kernel/src/chcond.c\000"
 3620      2E2F6F73 
 3620      2F6B6572 
 3620      6E656C2F 
 3620      7372632F 
 3621              	.LASF105:
 3622 017c 6368436F 		.ascii	"chCondSignal\000"
 3622      6E645369 
 3622      676E616C 
 3622      00
 3623              	.LASF107:
 3624 0189 63684D74 		.ascii	"chMtxUnlockS\000"
 3624      78556E6C 
 3624      6F636B53 
ARM GAS  /var/folders/l5/0x54b2c10074c8bt31ycjvl80000gp/T//ccp2SSgC.s 			page 66


 3624      00
 3625              	.LASF0:
 3626 0196 756E7369 		.ascii	"unsigned int\000"
 3626      676E6564 
 3626      20696E74 
 3626      00
 3627              	.LASF50:
 3628 01a3 76745F6E 		.ascii	"vt_next\000"
 3628      65787400 
 3629              	.LASF10:
 3630 01ab 6C6F6E67 		.ascii	"long unsigned int\000"
 3630      20756E73 
 3630      69676E65 
 3630      6420696E 
 3630      7400
 3631              	.LASF96:
 3632 01bd 63685F64 		.ascii	"ch_debug\000"
 3632      65627567 
 3632      00
 3633              	.LASF48:
 3634 01c6 76746675 		.ascii	"vtfunc_t\000"
 3634      6E635F74 
 3634      00
 3635              	.LASF47:
 3636 01cf 636F6E74 		.ascii	"context\000"
 3636      65787400 
 3637              	.LASF6:
 3638 01d7 73686F72 		.ascii	"short unsigned int\000"
 3638      7420756E 
 3638      7369676E 
 3638      65642069 
 3638      6E7400
 3639              	.LASF113:
 3640 01ea 63685363 		.ascii	"chSchWakeupS\000"
 3640      6857616B 
 3640      65757053 
 3640      00
 3641              	.LASF21:
 3642 01f7 6D73675F 		.ascii	"msg_t\000"
 3642      7400
 3643              	.LASF60:
 3644 01fd 725F6E65 		.ascii	"r_newer\000"
 3644      77657200 
 3645              	.LASF114:
 3646 0205 474E5520 		.ascii	"GNU C17 8.3.1 20190703 (release) [gcc-8-branch revi"
 3646      43313720 
 3646      382E332E 
 3646      31203230 
 3646      31393037 
 3647 0238 73696F6E 		.ascii	"sion 273027] -mcpu=arm1176jz-s -mno-thumb-interwork"
 3647      20323733 
 3647      3032375D 
 3647      202D6D63 
 3647      70753D61 
 3648 026b 202D6D66 		.ascii	" -mfloat-abi=soft -marm -march=armv6kz -ggdb -O2 -f"
 3648      6C6F6174 
 3648      2D616269 
ARM GAS  /var/folders/l5/0x54b2c10074c8bt31ycjvl80000gp/T//ccp2SSgC.s 			page 67


 3648      3D736F66 
 3648      74202D6D 
 3649 029e 6F6D6974 		.ascii	"omit-frame-pointer -ffunction-sections -fdata-secti"
 3649      2D667261 
 3649      6D652D70 
 3649      6F696E74 
 3649      6572202D 
 3650 02d1 6F6E7300 		.ascii	"ons\000"
 3651              	.LASF17:
 3652 02d5 746D6F64 		.ascii	"tmode_t\000"
 3652      655F7400 
 3653              	.LASF43:
 3654 02dd 54687265 		.ascii	"ThreadsList\000"
 3654      6164734C 
 3654      69737400 
 3655              	.LASF22:
 3656 02e9 6576656E 		.ascii	"eventmask_t\000"
 3656      746D6173 
 3656      6B5F7400 
 3657              	.LASF66:
 3658 02f5 4D757465 		.ascii	"Mutex\000"
 3658      7800
 3659              	.LASF44:
 3660 02fb 73746B61 		.ascii	"stkalign_t\000"
 3660      6C69676E 
 3660      5F7400
 3661              	.LASF78:
 3662 0306 63685F7A 		.ascii	"ch_zero\000"
 3662      65726F00 
 3663              	.LASF92:
 3664 030e 63665F6F 		.ascii	"cf_off_refs\000"
 3664      66665F72 
 3664      65667300 
 3665              	.LASF52:
 3666 031a 76745F74 		.ascii	"vt_time\000"
 3666      696D6500 
 3667              	.LASF53:
 3668 0322 76745F66 		.ascii	"vt_func\000"
 3668      756E6300 
 3669              	.LASF99:
 3670 032a 6368436F 		.ascii	"chCondWaitTimeoutS\000"
 3670      6E645761 
 3670      69745469 
 3670      6D656F75 
 3670      745300
 3671              	.LASF82:
 3672 033d 63685F74 		.ascii	"ch_timesize\000"
 3672      696D6573 
 3672      697A6500 
 3673              	.LASF88:
 3674 0349 63665F6F 		.ascii	"cf_off_name\000"
 3674      66665F6E 
 3674      616D6500 
 3675              	.LASF30:
 3676 0355 705F6F6C 		.ascii	"p_older\000"
 3676      64657200 
 3677              	.LASF59:
ARM GAS  /var/folders/l5/0x54b2c10074c8bt31ycjvl80000gp/T//ccp2SSgC.s 			page 68


 3678 035d 725F6374 		.ascii	"r_ctx\000"
 3678      7800
 3679              	.LASF42:
 3680 0363 54687265 		.ascii	"ThreadsQueue\000"
 3680      61647351 
 3680      75657565 
 3680      00
 3681              	.LASF79:
 3682 0370 63685F73 		.ascii	"ch_size\000"
 3682      697A6500 
 3683              	.LASF98:
 3684 0378 74696D65 		.ascii	"time\000"
 3684      00
 3685              	.LASF62:
 3686 037d 725F6375 		.ascii	"r_current\000"
 3686      7272656E 
 3686      7400
 3687              	.LASF61:
 3688 0387 725F6F6C 		.ascii	"r_older\000"
 3688      64657200 
 3689              	.LASF103:
 3690 038f 6368436F 		.ascii	"chCondBroadcast\000"
 3690      6E644272 
 3690      6F616463 
 3690      61737400 
 3691              	.LASF19:
 3692 039f 74726566 		.ascii	"trefs_t\000"
 3692      735F7400 
 3693              	.LASF81:
 3694 03a7 63685F70 		.ascii	"ch_ptrsize\000"
 3694      74727369 
 3694      7A6500
 3695              	.LASF26:
 3696 03b2 705F7072 		.ascii	"p_prev\000"
 3696      657600
 3697              	.LASF20:
 3698 03b9 74707269 		.ascii	"tprio_t\000"
 3698      6F5F7400 
 3699              	.LASF104:
 3700 03c1 6368436F 		.ascii	"chCondSignalI\000"
 3700      6E645369 
 3700      676E616C 
 3700      4900
 3701              	.LASF15:
 3702 03cf 696E7433 		.ascii	"int32_t\000"
 3702      325F7400 
 3703              	.LASF2:
 3704 03d7 756E7369 		.ascii	"unsigned char\000"
 3704      676E6564 
 3704      20636861 
 3704      7200
 3705              	.LASF40:
 3706 03e5 705F6D74 		.ascii	"p_mtxlist\000"
 3706      786C6973 
 3706      7400
 3707              	.LASF3:
 3708 03ef 73686F72 		.ascii	"short int\000"
ARM GAS  /var/folders/l5/0x54b2c10074c8bt31ycjvl80000gp/T//ccp2SSgC.s 			page 69


 3708      7420696E 
 3708      7400
 3709              	.LASF32:
 3710 03f9 705F7374 		.ascii	"p_state\000"
 3710      61746500 
 3711              	.LASF94:
 3712 0401 63665F6F 		.ascii	"cf_off_time\000"
 3712      66665F74 
 3712      696D6500 
 3713              	.LASF58:
 3714 040d 725F7072 		.ascii	"r_prio\000"
 3714      696F00
 3715              	.LASF75:
 3716 0414 65776D61 		.ascii	"ewmask\000"
 3716      736B00
 3717              	.LASF25:
 3718 041b 705F6E65 		.ascii	"p_next\000"
 3718      787400
 3719              	.LASF93:
 3720 0422 63665F6F 		.ascii	"cf_off_preempt\000"
 3720      66665F70 
 3720      7265656D 
 3720      707400
 3721              	.LASF33:
 3722 0431 705F666C 		.ascii	"p_flags\000"
 3722      61677300 
 3723              	.LASF24:
 3724 0439 54687265 		.ascii	"Thread\000"
 3724      616400
 3725              	.LASF71:
 3726 0440 635F7175 		.ascii	"c_queue\000"
 3726      65756500 
 3727              	.LASF110:
 3728 0448 63685363 		.ascii	"chSchGoSleepS\000"
 3728      68476F53 
 3728      6C656570 
 3728      5300
 3729              	.LASF39:
 3730 0456 705F6570 		.ascii	"p_epending\000"
 3730      656E6469 
 3730      6E6700
 3731              	.LASF16:
 3732 0461 75696E74 		.ascii	"uint32_t\000"
 3732      33325F74 
 3732      00
 3733              	.LASF84:
 3734 046a 63665F6F 		.ascii	"cf_off_prio\000"
 3734      66665F70 
 3734      72696F00 
 3735              	.LASF57:
 3736 0476 725F7175 		.ascii	"r_queue\000"
 3736      65756500 
 3737              	.LASF49:
 3738 047e 56697274 		.ascii	"VirtualTimer\000"
 3738      75616C54 
 3738      696D6572 
 3738      00
ARM GAS  /var/folders/l5/0x54b2c10074c8bt31ycjvl80000gp/T//ccp2SSgC.s 			page 70


 3739              	.LASF76:
 3740 048b 63686172 		.ascii	"char\000"
 3740      00
 3741              	.LASF118:
 3742 0490 6669666F 		.ascii	"fifo_remove\000"
 3742      5F72656D 
 3742      6F766500 
 3743              	.LASF5:
 3744 049c 5F5F7569 		.ascii	"__uint16_t\000"
 3744      6E743136 
 3744      5F7400
 3745              	.LASF111:
 3746 04a7 63685363 		.ascii	"chSchReadyI\000"
 3746      68526561 
 3746      64794900 
 3747              	.LASF69:
 3748 04b3 6D5F6E65 		.ascii	"m_next\000"
 3748      787400
 3749              	.LASF23:
 3750 04ba 73797374 		.ascii	"systime_t\000"
 3750      696D655F 
 3750      7400
 3751              	.LASF41:
 3752 04c4 705F7265 		.ascii	"p_realprio\000"
 3752      616C7072 
 3752      696F00
 3753              	.LASF7:
 3754 04cf 5F5F696E 		.ascii	"__int32_t\000"
 3754      7433325F 
 3754      7400
 3755              	.LASF119:
 3756 04d9 7072696F 		.ascii	"prio_insert\000"
 3756      5F696E73 
 3756      65727400 
 3757              	.LASF102:
 3758 04e5 6368436F 		.ascii	"chCondWait\000"
 3758      6E645761 
 3758      697400
 3759              	.LASF35:
 3760 04f0 705F7469 		.ascii	"p_time\000"
 3760      6D6500
 3761              	.LASF46:
 3762 04f7 696E7463 		.ascii	"intctx\000"
 3762      747800
 3763              	.LASF37:
 3764 04fe 705F6D73 		.ascii	"p_msgqueue\000"
 3764      67717565 
 3764      756500
 3765              	.LASF54:
 3766 0509 76745F70 		.ascii	"vt_par\000"
 3766      617200
 3767              	.LASF85:
 3768 0510 63665F6F 		.ascii	"cf_off_ctx\000"
 3768      66665F63 
 3768      747800
 3769              	.LASF34:
 3770 051b 705F7265 		.ascii	"p_refs\000"
ARM GAS  /var/folders/l5/0x54b2c10074c8bt31ycjvl80000gp/T//ccp2SSgC.s 			page 71


 3770      667300
 3771              	.LASF63:
 3772 0522 52656164 		.ascii	"ReadyList\000"
 3772      794C6973 
 3772      7400
 3773              	.LASF65:
 3774 052c 726C6973 		.ascii	"rlist\000"
 3774      7400
 3775              	.LASF13:
 3776 0532 75696E74 		.ascii	"uint8_t\000"
 3776      385F7400 
 3777              	.LASF74:
 3778 053a 77746F62 		.ascii	"wtobjp\000"
 3778      6A7000
 3779              	.LASF86:
 3780 0541 63665F6F 		.ascii	"cf_off_newer\000"
 3780      66665F6E 
 3780      65776572 
 3780      00
 3781              	.LASF31:
 3782 054e 705F6E61 		.ascii	"p_name\000"
 3782      6D6500
 3783              	.LASF100:
 3784 0555 6368436F 		.ascii	"chCondWaitTimeout\000"
 3784      6E645761 
 3784      69745469 
 3784      6D656F75 
 3784      7400
 3785              	.LASF55:
 3786 0567 76745F73 		.ascii	"vt_systime\000"
 3786      79737469 
 3786      6D6500
 3787              	.LASF108:
 3788 0572 63685363 		.ascii	"chSchGoSleepTimeoutS\000"
 3788      68476F53 
 3788      6C656570 
 3788      54696D65 
 3788      6F757453 
 3789              	.LASF80:
 3790 0587 63685F76 		.ascii	"ch_version\000"
 3790      65727369 
 3790      6F6E00
 3791              	.LASF116:
 3792 0592 2F557365 		.ascii	"/Users/fernandoguirado/eclipse-workspace/ChibiOS-RP"
 3792      72732F66 
 3792      65726E61 
 3792      6E646F67 
 3792      75697261 
 3793 05c5 692D636F 		.ascii	"i-copia/demos/timers\000"
 3793      7069612F 
 3793      64656D6F 
 3793      732F7469 
 3793      6D657273 
 3794              	.LASF56:
 3795 05da 56544C69 		.ascii	"VTList\000"
 3795      737400
 3796              	.LASF68:
ARM GAS  /var/folders/l5/0x54b2c10074c8bt31ycjvl80000gp/T//ccp2SSgC.s 			page 72


 3797 05e1 6D5F6F77 		.ascii	"m_owner\000"
 3797      6E657200 
 3798              	.LASF28:
 3799 05e9 705F6374 		.ascii	"p_ctx\000"
 3799      7800
 3800              	.LASF36:
 3801 05ef 705F7761 		.ascii	"p_waiting\000"
 3801      6974696E 
 3801      6700
 3802              		.ident	"GCC: (GNU Tools for Arm Embedded Processors 8-2019-q3-update) 8.3.1 20190703 (release) [gc
ARM GAS  /var/folders/l5/0x54b2c10074c8bt31ycjvl80000gp/T//ccp2SSgC.s 			page 73


DEFINED SYMBOLS
                            *ABS*:0000000000000000 chcond.c
/var/folders/l5/0x54b2c10074c8bt31ycjvl80000gp/T//ccp2SSgC.s:16     .text.chCondInit:0000000000000000 $a
/var/folders/l5/0x54b2c10074c8bt31ycjvl80000gp/T//ccp2SSgC.s:23     .text.chCondInit:0000000000000000 chCondInit
/var/folders/l5/0x54b2c10074c8bt31ycjvl80000gp/T//ccp2SSgC.s:44     .text.chCondSignal:0000000000000000 $a
/var/folders/l5/0x54b2c10074c8bt31ycjvl80000gp/T//ccp2SSgC.s:50     .text.chCondSignal:0000000000000000 chCondSignal
/var/folders/l5/0x54b2c10074c8bt31ycjvl80000gp/T//ccp2SSgC.s:147    .text.chCondSignalI:0000000000000000 $a
/var/folders/l5/0x54b2c10074c8bt31ycjvl80000gp/T//ccp2SSgC.s:153    .text.chCondSignalI:0000000000000000 chCondSignalI
/var/folders/l5/0x54b2c10074c8bt31ycjvl80000gp/T//ccp2SSgC.s:214    .text.chCondBroadcast:0000000000000000 $a
/var/folders/l5/0x54b2c10074c8bt31ycjvl80000gp/T//ccp2SSgC.s:220    .text.chCondBroadcast:0000000000000000 chCondBroadcast
/var/folders/l5/0x54b2c10074c8bt31ycjvl80000gp/T//ccp2SSgC.s:322    .text.chCondBroadcastI:0000000000000000 $a
/var/folders/l5/0x54b2c10074c8bt31ycjvl80000gp/T//ccp2SSgC.s:328    .text.chCondBroadcastI:0000000000000000 chCondBroadcastI
/var/folders/l5/0x54b2c10074c8bt31ycjvl80000gp/T//ccp2SSgC.s:396    .text.chCondWaitS:0000000000000000 $a
/var/folders/l5/0x54b2c10074c8bt31ycjvl80000gp/T//ccp2SSgC.s:402    .text.chCondWaitS:0000000000000000 chCondWaitS
/var/folders/l5/0x54b2c10074c8bt31ycjvl80000gp/T//ccp2SSgC.s:520    .text.chCondWaitS:0000000000000074 $d
/var/folders/l5/0x54b2c10074c8bt31ycjvl80000gp/T//ccp2SSgC.s:525    .text.chCondWait:0000000000000000 $a
/var/folders/l5/0x54b2c10074c8bt31ycjvl80000gp/T//ccp2SSgC.s:531    .text.chCondWait:0000000000000000 chCondWait
/var/folders/l5/0x54b2c10074c8bt31ycjvl80000gp/T//ccp2SSgC.s:574    .text.chCondWaitTimeoutS:0000000000000000 $a
/var/folders/l5/0x54b2c10074c8bt31ycjvl80000gp/T//ccp2SSgC.s:580    .text.chCondWaitTimeoutS:0000000000000000 chCondWaitTimeoutS
/var/folders/l5/0x54b2c10074c8bt31ycjvl80000gp/T//ccp2SSgC.s:704    .text.chCondWaitTimeoutS:0000000000000084 $d
/var/folders/l5/0x54b2c10074c8bt31ycjvl80000gp/T//ccp2SSgC.s:709    .text.chCondWaitTimeout:0000000000000000 $a
/var/folders/l5/0x54b2c10074c8bt31ycjvl80000gp/T//ccp2SSgC.s:715    .text.chCondWaitTimeout:0000000000000000 chCondWaitTimeout

UNDEFINED SYMBOLS
chSchWakeupS
chSchReadyI
chSchRescheduleS
chMtxUnlockS
chSchGoSleepS
chMtxLockS
rlist
chSchGoSleepTimeoutS
