ARM GAS  /var/folders/l5/0x54b2c10074c8bt31ycjvl80000gp/T//ccp2SSgC.s 			page 1


   1              		.cpu arm1176jz-s
   2              		.eabi_attribute 20, 1
   3              		.eabi_attribute 21, 1
   4              		.eabi_attribute 23, 3
   5              		.eabi_attribute 24, 1
   6              		.eabi_attribute 25, 1
   7              		.eabi_attribute 26, 1
   8              		.eabi_attribute 30, 2
   9              		.eabi_attribute 34, 1
  10              		.eabi_attribute 18, 4
  11              		.file	"chcond.c"
  12              		.text
  13              	.Ltext0:
  14              		.cfi_sections	.debug_frame
  15              		.section	.text.chCondInit,"ax",%progbits
  16              		.align	2
  17              		.global	chCondInit
  18              		.arch armv6kz
  19              		.syntax unified
  20              		.arm
  21              		.fpu softvfp
  22              		.type	chCondInit, %function
  23              	chCondInit:
  24              	.LVL0:
  25              	.LFB7:
  26              		.file 1 "../../os/kernel/src/chcond.c"
  27              		.loc 1 52 30 view -0
  28              		.cfi_startproc
  29              		@ args = 0, pretend = 0, frame = 0
  30              		@ frame_needed = 0, uses_anonymous_args = 0
  31              		@ link register save eliminated.
  32              		.loc 1 54 3 view .LVU1
  33              		.loc 1 54 39 view .LVU2
  34              		.loc 1 56 3 view .LVU3
  35 0000 040080E5 		str	r0, [r0, #4]
  36 0004 000080E5 		str	r0, [r0]
  37              		.loc 1 56 27 view .LVU4
  38              		.loc 1 57 1 is_stmt 0 view .LVU5
  39 0008 1EFF2FE1 		bx	lr
  40              		.cfi_endproc
  41              	.LFE7:
  42              		.size	chCondInit, .-chCondInit
  43              		.section	.text.chCondSignal,"ax",%progbits
  44              		.align	2
  45              		.global	chCondSignal
  46              		.syntax unified
  47              		.arm
  48              		.fpu softvfp
  49              		.type	chCondSignal, %function
  50              	chCondSignal:
  51              	.LVL1:
  52              	.LFB8:
  53              		.loc 1 66 32 is_stmt 1 view -0
  54              		.cfi_startproc
  55              		@ args = 0, pretend = 0, frame = 0
  56              		@ frame_needed = 0, uses_anonymous_args = 0
  57              		.loc 1 68 3 view .LVU7
ARM GAS  /var/folders/l5/0x54b2c10074c8bt31ycjvl80000gp/T//ccp2SSgC.s 			page 2


  58              		.loc 1 68 41 view .LVU8
  59              		.loc 1 70 3 view .LVU9
  60              		.syntax divided
  61              	@ 70 "../../os/kernel/src/chcond.c" 1
  62 0000 9FF021E3 		msr     CPSR_c, #0x9F
  63              	@ 0 "" 2
  64              		.loc 1 70 3 view .LVU10
  65              		.loc 1 70 14 view .LVU11
  66              		.loc 1 71 3 view .LVU12
  67              		.loc 1 71 7 is_stmt 0 view .LVU13
  68              		.arm
  69              		.syntax unified
  70 0004 002090E5 		ldr	r2, [r0]
  71              		.loc 1 71 6 view .LVU14
  72 0008 000052E1 		cmp	r2, r0
  73 000c 0900000A 		beq	.L6
  74 0010 0030A0E1 		mov	r3, r0
  75              		.loc 1 72 5 is_stmt 1 view .LVU15
  76              	.LVL2:
  77              	.LBB16:
  78              	.LBI16:
  79              		.file 2 "../../os/kernel/include/chinline.h"
  80              		.loc 2 52 23 view .LVU16
  81              	.LBB17:
  82              		.loc 2 53 3 view .LVU17
  83              		.loc 2 55 3 view .LVU18
  84              		.loc 2 55 20 is_stmt 0 view .LVU19
  85 0014 00C092E5 		ldr	ip, [r2]
  86              	.LBE17:
  87              	.LBE16:
  88              		.loc 1 66 32 view .LVU20
  89 0018 10402DE9 		push	{r4, lr}
  90              		.cfi_def_cfa_offset 8
  91              		.cfi_offset 4, -8
  92              		.cfi_offset 14, -4
  93              		.loc 1 72 5 view .LVU21
  94 001c 0200A0E1 		mov	r0, r2
  95              	.LVL3:
  96              	.LBB20:
  97              	.LBB18:
  98              		.loc 2 55 16 view .LVU22
  99 0020 00C083E5 		str	ip, [r3]
 100              	.LBE18:
 101              	.LBE20:
 102              		.loc 1 72 5 view .LVU23
 103 0024 0010A0E3 		mov	r1, #0
 104              	.LBB21:
 105              	.LBB19:
 106              		.loc 2 55 38 view .LVU24
 107 0028 04308CE5 		str	r3, [ip, #4]
 108              		.loc 2 56 3 is_stmt 1 view .LVU25
 109              	.LVL4:
 110              		.loc 2 56 3 is_stmt 0 view .LVU26
 111              	.LBE19:
 112              	.LBE21:
 113              		.loc 1 72 5 view .LVU27
 114 002c FEFFFFEB 		bl	chSchWakeupS
ARM GAS  /var/folders/l5/0x54b2c10074c8bt31ycjvl80000gp/T//ccp2SSgC.s 			page 3


 115              	.LVL5:
 116              		.loc 1 73 3 is_stmt 1 view .LVU28
 117              		.loc 1 73 3 view .LVU29
 118              		.syntax divided
 119              	@ 73 "../../os/kernel/src/chcond.c" 1
 120 0030 1FF021E3 		msr     CPSR_c, #0x1F
 121              	@ 0 "" 2
 122              		.loc 1 73 16 view .LVU30
 123              		.loc 1 74 1 is_stmt 0 view .LVU31
 124              		.arm
 125              		.syntax unified
 126 0034 1080BDE8 		pop	{r4, pc}
 127              	.LVL6:
 128              	.L6:
 129              		.cfi_def_cfa_offset 0
 130              		.cfi_restore 4
 131              		.cfi_restore 14
 132              		.loc 1 73 3 is_stmt 1 view .LVU32
 133              		.loc 1 73 3 view .LVU33
 134              		.syntax divided
 135              	@ 73 "../../os/kernel/src/chcond.c" 1
 136 0038 1FF021E3 		msr     CPSR_c, #0x1F
 137              	@ 0 "" 2
 138              		.loc 1 73 16 view .LVU34
 139              		.loc 1 73 3 is_stmt 0 view .LVU35
 140              		.arm
 141              		.syntax unified
 142 003c 1EFF2FE1 		bx	lr
 143              		.cfi_endproc
 144              	.LFE8:
 145              		.size	chCondSignal, .-chCondSignal
 146              		.section	.text.chCondSignalI,"ax",%progbits
 147              		.align	2
 148              		.global	chCondSignalI
 149              		.syntax unified
 150              		.arm
 151              		.fpu softvfp
 152              		.type	chCondSignalI, %function
 153              	chCondSignalI:
 154              	.LVL7:
 155              	.LFB9:
 156              		.loc 1 87 33 is_stmt 1 view -0
 157              		.cfi_startproc
 158              		@ args = 0, pretend = 0, frame = 0
 159              		@ frame_needed = 0, uses_anonymous_args = 0
 160              		.loc 1 89 3 view .LVU37
 161              		.loc 1 89 21 view .LVU38
 162              		.loc 1 90 3 view .LVU39
 163              		.loc 1 90 42 view .LVU40
 164              		.loc 1 92 3 view .LVU41
 165              		.loc 1 92 7 is_stmt 0 view .LVU42
 166 0000 002090E5 		ldr	r2, [r0]
 167              		.loc 1 92 6 view .LVU43
 168 0004 000052E1 		cmp	r2, r0
 169 0008 1EFF2F01 		bxeq	lr
 170 000c 0030A0E1 		mov	r3, r0
 171              		.loc 1 93 5 is_stmt 1 view .LVU44
ARM GAS  /var/folders/l5/0x54b2c10074c8bt31ycjvl80000gp/T//ccp2SSgC.s 			page 4


 172              	.LVL8:
 173              	.LBB22:
 174              	.LBI22:
 175              		.loc 2 52 23 view .LVU45
 176              	.LBB23:
 177              		.loc 2 53 3 view .LVU46
 178              		.loc 2 55 3 view .LVU47
 179              		.loc 2 55 20 is_stmt 0 view .LVU48
 180 0010 001092E5 		ldr	r1, [r2]
 181              	.LBE23:
 182              	.LBE22:
 183              		.loc 1 87 33 view .LVU49
 184 0014 10402DE9 		push	{r4, lr}
 185              		.cfi_def_cfa_offset 8
 186              		.cfi_offset 4, -8
 187              		.cfi_offset 14, -4
 188              		.loc 1 93 5 view .LVU50
 189 0018 0200A0E1 		mov	r0, r2
 190              	.LVL9:
 191              	.LBB25:
 192              	.LBB24:
 193              		.loc 2 55 16 view .LVU51
 194 001c 001083E5 		str	r1, [r3]
 195              		.loc 2 55 38 view .LVU52
 196 0020 043081E5 		str	r3, [r1, #4]
 197              		.loc 2 56 3 is_stmt 1 view .LVU53
 198              	.LVL10:
 199              		.loc 2 56 3 is_stmt 0 view .LVU54
 200              	.LBE24:
 201              	.LBE25:
 202              		.loc 1 93 5 view .LVU55
 203 0024 FEFFFFEB 		bl	chSchReadyI
 204              	.LVL11:
 205              		.loc 1 93 56 view .LVU56
 206 0028 0030A0E3 		mov	r3, #0
 207 002c 243080E5 		str	r3, [r0, #36]
 208              		.loc 1 94 1 view .LVU57
 209 0030 1080BDE8 		pop	{r4, pc}
 210              		.cfi_endproc
 211              	.LFE9:
 212              		.size	chCondSignalI, .-chCondSignalI
 213              		.section	.text.chCondBroadcast,"ax",%progbits
 214              		.align	2
 215              		.global	chCondBroadcast
 216              		.syntax unified
 217              		.arm
 218              		.fpu softvfp
 219              		.type	chCondBroadcast, %function
 220              	chCondBroadcast:
 221              	.LVL12:
 222              	.LFB10:
 223              		.loc 1 103 35 is_stmt 1 view -0
 224              		.cfi_startproc
 225              		@ args = 0, pretend = 0, frame = 0
 226              		@ frame_needed = 0, uses_anonymous_args = 0
 227              		.loc 1 105 3 view .LVU59
 228              		.loc 1 103 35 is_stmt 0 view .LVU60
ARM GAS  /var/folders/l5/0x54b2c10074c8bt31ycjvl80000gp/T//ccp2SSgC.s 			page 5


 229 0000 70402DE9 		push	{r4, r5, r6, lr}
 230              		.cfi_def_cfa_offset 16
 231              		.cfi_offset 4, -16
 232              		.cfi_offset 5, -12
 233              		.cfi_offset 6, -8
 234              		.cfi_offset 14, -4
 235              		.loc 1 105 3 view .LVU61
 236              		.syntax divided
 237              	@ 105 "../../os/kernel/src/chcond.c" 1
 238 0004 9FF021E3 		msr     CPSR_c, #0x9F
 239              	@ 0 "" 2
 240              		.loc 1 105 3 is_stmt 1 view .LVU62
 241              		.loc 1 105 14 view .LVU63
 242              		.loc 1 106 3 view .LVU64
 243              	.LVL13:
 244              		.arm
 245              		.syntax unified
 246              	.LBB26:
 247              	.LBI26:
 248              		.loc 1 122 6 view .LVU65
 249              	.LBB27:
 250              		.loc 1 124 3 view .LVU66
 251              		.loc 1 124 21 view .LVU67
 252              		.loc 1 125 3 view .LVU68
 253              		.loc 1 125 45 view .LVU69
 254              		.loc 1 130 3 view .LVU70
 255              		.loc 1 130 21 is_stmt 0 view .LVU71
 256 0008 003090E5 		ldr	r3, [r0]
 257              		.loc 1 130 9 view .LVU72
 258 000c 000053E1 		cmp	r3, r0
 259 0010 0A00000A 		beq	.L16
 260 0014 0040A0E1 		mov	r4, r0
 261              		.loc 1 131 56 view .LVU73
 262 0018 0150E0E3 		mvn	r5, #1
 263              	.LVL14:
 264              	.L17:
 265              		.loc 1 131 5 is_stmt 1 view .LVU74
 266              	.LBB28:
 267              	.LBI28:
 268              		.loc 2 52 23 view .LVU75
 269              	.LBB29:
 270              		.loc 2 53 3 view .LVU76
 271              		.loc 2 55 3 view .LVU77
 272              		.loc 2 55 20 is_stmt 0 view .LVU78
 273 001c 002093E5 		ldr	r2, [r3]
 274              	.LBE29:
 275              	.LBE28:
 276              		.loc 1 131 5 view .LVU79
 277 0020 0300A0E1 		mov	r0, r3
 278              	.LBB31:
 279              	.LBB30:
 280              		.loc 2 55 16 view .LVU80
 281 0024 002084E5 		str	r2, [r4]
 282              		.loc 2 55 38 view .LVU81
 283 0028 044082E5 		str	r4, [r2, #4]
 284              		.loc 2 56 3 is_stmt 1 view .LVU82
 285              	.LVL15:
ARM GAS  /var/folders/l5/0x54b2c10074c8bt31ycjvl80000gp/T//ccp2SSgC.s 			page 6


 286              		.loc 2 56 3 is_stmt 0 view .LVU83
 287              	.LBE30:
 288              	.LBE31:
 289              		.loc 1 131 5 view .LVU84
 290 002c FEFFFFEB 		bl	chSchReadyI
 291              	.LVL16:
 292              		.loc 1 130 21 view .LVU85
 293 0030 003094E5 		ldr	r3, [r4]
 294              		.loc 1 131 56 view .LVU86
 295 0034 245080E5 		str	r5, [r0, #36]
 296              		.loc 1 130 9 view .LVU87
 297 0038 040053E1 		cmp	r3, r4
 298 003c F6FFFF1A 		bne	.L17
 299              	.LVL17:
 300              	.L16:
 301              		.loc 1 130 9 view .LVU88
 302              	.LBE27:
 303              	.LBE26:
 304              		.loc 1 107 3 is_stmt 1 view .LVU89
 305 0040 FEFFFFEB 		bl	chSchRescheduleS
 306              	.LVL18:
 307              		.loc 1 108 3 view .LVU90
 308              		.loc 1 108 3 view .LVU91
 309              		.syntax divided
 310              	@ 108 "../../os/kernel/src/chcond.c" 1
 311 0044 1FF021E3 		msr     CPSR_c, #0x1F
 312              	@ 0 "" 2
 313              		.loc 1 108 16 view .LVU92
 314              		.loc 1 109 1 is_stmt 0 view .LVU93
 315              		.arm
 316              		.syntax unified
 317 0048 7080BDE8 		pop	{r4, r5, r6, pc}
 318              		.cfi_endproc
 319              	.LFE10:
 320              		.size	chCondBroadcast, .-chCondBroadcast
 321              		.section	.text.chCondBroadcastI,"ax",%progbits
 322              		.align	2
 323              		.global	chCondBroadcastI
 324              		.syntax unified
 325              		.arm
 326              		.fpu softvfp
 327              		.type	chCondBroadcastI, %function
 328              	chCondBroadcastI:
 329              	.LVL19:
 330              	.LFB11:
 331              		.loc 1 122 36 is_stmt 1 view -0
 332              		.cfi_startproc
 333              		@ args = 0, pretend = 0, frame = 0
 334              		@ frame_needed = 0, uses_anonymous_args = 0
 335              		.loc 1 124 3 view .LVU95
 336              		.loc 1 124 21 view .LVU96
 337              		.loc 1 125 3 view .LVU97
 338              		.loc 1 125 45 view .LVU98
 339              		.loc 1 130 3 view .LVU99
 340              		.loc 1 130 21 is_stmt 0 view .LVU100
 341 0000 003090E5 		ldr	r3, [r0]
 342              		.loc 1 130 9 view .LVU101
ARM GAS  /var/folders/l5/0x54b2c10074c8bt31ycjvl80000gp/T//ccp2SSgC.s 			page 7


 343 0004 000053E1 		cmp	r3, r0
 344 0008 1EFF2F01 		bxeq	lr
 345              		.loc 1 122 36 view .LVU102
 346 000c 70402DE9 		push	{r4, r5, r6, lr}
 347              		.cfi_def_cfa_offset 16
 348              		.cfi_offset 4, -16
 349              		.cfi_offset 5, -12
 350              		.cfi_offset 6, -8
 351              		.cfi_offset 14, -4
 352 0010 0040A0E1 		mov	r4, r0
 353              		.loc 1 131 56 view .LVU103
 354 0014 0150E0E3 		mvn	r5, #1
 355              	.LVL20:
 356              	.L22:
 357              		.loc 1 131 5 is_stmt 1 view .LVU104
 358              	.LBB32:
 359              	.LBI32:
 360              		.loc 2 52 23 view .LVU105
 361              	.LBB33:
 362              		.loc 2 53 3 view .LVU106
 363              		.loc 2 55 3 view .LVU107
 364              		.loc 2 55 20 is_stmt 0 view .LVU108
 365 0018 002093E5 		ldr	r2, [r3]
 366              	.LBE33:
 367              	.LBE32:
 368              		.loc 1 131 5 view .LVU109
 369 001c 0300A0E1 		mov	r0, r3
 370              	.LBB35:
 371              	.LBB34:
 372              		.loc 2 55 16 view .LVU110
 373 0020 002084E5 		str	r2, [r4]
 374              		.loc 2 55 38 view .LVU111
 375 0024 044082E5 		str	r4, [r2, #4]
 376              		.loc 2 56 3 is_stmt 1 view .LVU112
 377              	.LVL21:
 378              		.loc 2 56 3 is_stmt 0 view .LVU113
 379              	.LBE34:
 380              	.LBE35:
 381              		.loc 1 131 5 view .LVU114
 382 0028 FEFFFFEB 		bl	chSchReadyI
 383              	.LVL22:
 384              		.loc 1 130 21 view .LVU115
 385 002c 003094E5 		ldr	r3, [r4]
 386              		.loc 1 131 56 view .LVU116
 387 0030 245080E5 		str	r5, [r0, #36]
 388              		.loc 1 130 9 view .LVU117
 389 0034 040053E1 		cmp	r3, r4
 390 0038 F6FFFF1A 		bne	.L22
 391 003c 7080BDE8 		pop	{r4, r5, r6, pc}
 392              		.cfi_endproc
 393              	.LFE11:
 394              		.size	chCondBroadcastI, .-chCondBroadcastI
 395              		.section	.text.chCondWaitS,"ax",%progbits
 396              		.align	2
 397              		.global	chCondWaitS
 398              		.syntax unified
 399              		.arm
ARM GAS  /var/folders/l5/0x54b2c10074c8bt31ycjvl80000gp/T//ccp2SSgC.s 			page 8


 400              		.fpu softvfp
 401              		.type	chCondWaitS, %function
 402              	chCondWaitS:
 403              	.LVL23:
 404              	.LFB13:
 405              		.loc 1 177 32 is_stmt 1 view -0
 406              		.cfi_startproc
 407              		@ args = 0, pretend = 0, frame = 0
 408              		@ frame_needed = 0, uses_anonymous_args = 0
 409              		.loc 1 178 3 view .LVU119
 410              		.loc 1 178 11 is_stmt 0 view .LVU120
 411 0000 6C309FE5 		ldr	r3, .L34
 412              		.loc 1 177 32 view .LVU121
 413 0004 70402DE9 		push	{r4, r5, r6, lr}
 414              		.cfi_def_cfa_offset 16
 415              		.cfi_offset 4, -16
 416              		.cfi_offset 5, -12
 417              		.cfi_offset 6, -8
 418              		.cfi_offset 14, -4
 419              		.loc 1 177 32 view .LVU122
 420 0008 0050A0E1 		mov	r5, r0
 421              		.loc 1 178 11 view .LVU123
 422 000c 184093E5 		ldr	r4, [r3, #24]
 423              	.LVL24:
 424              		.loc 1 179 3 is_stmt 1 view .LVU124
 425              		.loc 1 180 3 view .LVU125
 426              		.loc 1 182 3 view .LVU126
 427              		.loc 1 182 21 view .LVU127
 428              		.loc 1 183 3 view .LVU128
 429              		.loc 1 183 40 view .LVU129
 430              		.loc 1 184 3 view .LVU130
 431              		.loc 1 186 36 view .LVU131
 432              		.loc 1 188 3 view .LVU132
 433              		.loc 1 188 8 is_stmt 0 view .LVU133
 434 0010 FEFFFFEB 		bl	chMtxUnlockS
 435              	.LVL25:
 436              	.LBB36:
 437              	.LBB37:
 438              		.loc 2 36 11 view .LVU134
 439 0014 0530A0E1 		mov	r3, r5
 440              	.LBE37:
 441              	.LBE36:
 442              		.loc 1 188 8 view .LVU135
 443 0018 0060A0E1 		mov	r6, r0
 444              	.LVL26:
 445              		.loc 1 189 3 is_stmt 1 view .LVU136
 446              		.loc 1 189 19 is_stmt 0 view .LVU137
 447 001c 245084E5 		str	r5, [r4, #36]
 448              		.loc 1 190 3 is_stmt 1 view .LVU138
 449              	.LVL27:
 450              	.LBB40:
 451              	.LBI36:
 452              		.loc 2 34 20 view .LVU139
 453              	.LBB38:
 454              		.loc 2 36 3 view .LVU140
 455              		.loc 2 36 3 is_stmt 0 view .LVU141
 456 0020 030000EA 		b	.L30
ARM GAS  /var/folders/l5/0x54b2c10074c8bt31ycjvl80000gp/T//ccp2SSgC.s 			page 9


 457              	.LVL28:
 458              	.L33:
 459              		.loc 2 39 34 view .LVU142
 460 0024 081093E5 		ldr	r1, [r3, #8]
 461 0028 082094E5 		ldr	r2, [r4, #8]
 462 002c 020051E1 		cmp	r1, r2
 463 0030 0200003A 		bcc	.L29
 464              	.L30:
 465              		.loc 2 37 3 is_stmt 1 view .LVU143
 466              		.loc 2 38 5 view .LVU144
 467              		.loc 2 38 8 is_stmt 0 view .LVU145
 468 0034 003093E5 		ldr	r3, [r3]
 469              	.LVL29:
 470              		.loc 2 39 3 view .LVU146
 471 0038 030055E1 		cmp	r5, r3
 472 003c F8FFFF1A 		bne	.L33
 473              	.L29:
 474              		.loc 2 40 3 is_stmt 1 view .LVU147
 475              		.loc 2 41 18 is_stmt 0 view .LVU148
 476 0040 042093E5 		ldr	r2, [r3, #4]
 477              		.loc 2 40 14 view .LVU149
 478 0044 003084E5 		str	r3, [r4]
 479              		.loc 2 41 3 is_stmt 1 view .LVU150
 480              		.loc 2 41 14 is_stmt 0 view .LVU151
 481 0048 042084E5 		str	r2, [r4, #4]
 482              		.loc 2 42 3 is_stmt 1 view .LVU152
 483              		.loc 2 42 35 is_stmt 0 view .LVU153
 484 004c 044083E5 		str	r4, [r3, #4]
 485              		.loc 2 42 22 view .LVU154
 486 0050 043094E5 		ldr	r3, [r4, #4]
 487              	.LVL30:
 488              		.loc 2 42 22 view .LVU155
 489              	.LBE38:
 490              	.LBE40:
 491              		.loc 1 191 3 view .LVU156
 492 0054 0500A0E3 		mov	r0, #5
 493              	.LVL31:
 494              	.LBB41:
 495              	.LBB39:
 496              		.loc 2 42 22 view .LVU157
 497 0058 004083E5 		str	r4, [r3]
 498              	.LVL32:
 499              		.loc 2 42 22 view .LVU158
 500              	.LBE39:
 501              	.LBE41:
 502              		.loc 1 191 3 is_stmt 1 view .LVU159
 503 005c FEFFFFEB 		bl	chSchGoSleepS
 504              	.LVL33:
 505              		.loc 1 192 3 view .LVU160
 506              		.loc 1 192 7 is_stmt 0 view .LVU161
 507 0060 244094E5 		ldr	r4, [r4, #36]
 508              	.LVL34:
 509              		.loc 1 193 3 is_stmt 1 view .LVU162
 510 0064 0600A0E1 		mov	r0, r6
 511 0068 FEFFFFEB 		bl	chMtxLockS
 512              	.LVL35:
 513              		.loc 1 194 3 view .LVU163
ARM GAS  /var/folders/l5/0x54b2c10074c8bt31ycjvl80000gp/T//ccp2SSgC.s 			page 10


 514              		.loc 1 195 1 is_stmt 0 view .LVU164
 515 006c 0400A0E1 		mov	r0, r4
 516 0070 7080BDE8 		pop	{r4, r5, r6, pc}
 517              	.L35:
 518              		.align	2
 519              	.L34:
 520 0074 00000000 		.word	rlist
 521              		.cfi_endproc
 522              	.LFE13:
 523              		.size	chCondWaitS, .-chCondWaitS
 524              		.section	.text.chCondWait,"ax",%progbits
 525              		.align	2
 526              		.global	chCondWait
 527              		.syntax unified
 528              		.arm
 529              		.fpu softvfp
 530              		.type	chCondWait, %function
 531              	chCondWait:
 532              	.LVL36:
 533              	.LFB12:
 534              		.loc 1 151 31 is_stmt 1 view -0
 535              		.cfi_startproc
 536              		@ args = 0, pretend = 0, frame = 0
 537              		@ frame_needed = 0, uses_anonymous_args = 0
 538              		.loc 1 152 3 view .LVU166
 539              		.loc 1 154 3 view .LVU167
 540              		.loc 1 151 31 is_stmt 0 view .LVU168
 541 0000 10402DE9 		push	{r4, lr}
 542              		.cfi_def_cfa_offset 8
 543              		.cfi_offset 4, -8
 544              		.cfi_offset 14, -4
 545              		.loc 1 154 3 view .LVU169
 546              		.syntax divided
 547              	@ 154 "../../os/kernel/src/chcond.c" 1
 548 0004 9FF021E3 		msr     CPSR_c, #0x9F
 549              	@ 0 "" 2
 550              		.loc 1 154 3 is_stmt 1 view .LVU170
 551              		.loc 1 154 14 view .LVU171
 552              		.loc 1 155 3 view .LVU172
 553              		.loc 1 155 9 is_stmt 0 view .LVU173
 554              		.arm
 555              		.syntax unified
 556 0008 FEFFFFEB 		bl	chCondWaitS
 557              	.LVL37:
 558              		.loc 1 156 3 is_stmt 1 view .LVU174
 559              		.loc 1 156 3 view .LVU175
 560              		.syntax divided
 561              	@ 156 "../../os/kernel/src/chcond.c" 1
 562 000c 1FF021E3 		msr     CPSR_c, #0x1F
 563              	@ 0 "" 2
 564              		.loc 1 156 16 view .LVU176
 565              		.loc 1 157 3 view .LVU177
 566              		.loc 1 158 1 is_stmt 0 view .LVU178
 567              		.arm
 568              		.syntax unified
 569 0010 1080BDE8 		pop	{r4, pc}
 570              		.cfi_endproc
ARM GAS  /var/folders/l5/0x54b2c10074c8bt31ycjvl80000gp/T//ccp2SSgC.s 			page 11


 571              	.LFE12:
 572              		.size	chCondWait, .-chCondWait
 573              		.section	.text.chCondWaitTimeoutS,"ax",%progbits
 574              		.align	2
 575              		.global	chCondWaitTimeoutS
 576              		.syntax unified
 577              		.arm
 578              		.fpu softvfp
 579              		.type	chCondWaitTimeoutS, %function
 580              	chCondWaitTimeoutS:
 581              	.LVL38:
 582              	.LFB15:
 583              		.loc 1 263 55 is_stmt 1 view -0
 584              		.cfi_startproc
 585              		@ args = 0, pretend = 0, frame = 0
 586              		@ frame_needed = 0, uses_anonymous_args = 0
 587              		.loc 1 264 3 view .LVU180
 588              		.loc 1 265 3 view .LVU181
 589              		.loc 1 267 3 view .LVU182
 590              		.loc 1 267 21 view .LVU183
 591              		.loc 1 268 3 view .LVU184
 592              		.loc 1 268 77 view .LVU185
 593              		.loc 1 269 3 view .LVU186
 594              		.loc 1 271 36 view .LVU187
 595              		.loc 1 273 3 view .LVU188
 596              		.loc 1 263 55 is_stmt 0 view .LVU189
 597 0000 70402DE9 		push	{r4, r5, r6, lr}
 598              		.cfi_def_cfa_offset 16
 599              		.cfi_offset 4, -16
 600              		.cfi_offset 5, -12
 601              		.cfi_offset 6, -8
 602              		.cfi_offset 14, -4
 603              		.loc 1 263 55 view .LVU190
 604 0004 0040A0E1 		mov	r4, r0
 605 0008 0160A0E1 		mov	r6, r1
 606              		.loc 1 273 8 view .LVU191
 607 000c FEFFFFEB 		bl	chMtxUnlockS
 608              	.LVL39:
 609              		.loc 1 274 3 view .LVU192
 610 0010 6C209FE5 		ldr	r2, .L48
 611              		.loc 1 273 8 view .LVU193
 612 0014 0050A0E1 		mov	r5, r0
 613              	.LVL40:
 614              		.loc 1 274 3 is_stmt 1 view .LVU194
 615 0018 18C092E5 		ldr	ip, [r2, #24]
 616              	.LBB42:
 617              	.LBB43:
 618              		.loc 2 36 11 is_stmt 0 view .LVU195
 619 001c 0430A0E1 		mov	r3, r4
 620              	.LBE43:
 621              	.LBE42:
 622              		.loc 1 274 21 view .LVU196
 623 0020 24408CE5 		str	r4, [ip, #36]
 624              		.loc 1 275 3 is_stmt 1 view .LVU197
 625              	.LVL41:
 626              	.LBB46:
 627              	.LBI42:
ARM GAS  /var/folders/l5/0x54b2c10074c8bt31ycjvl80000gp/T//ccp2SSgC.s 			page 12


 628              		.loc 2 34 20 view .LVU198
 629              	.LBB44:
 630              		.loc 2 36 3 view .LVU199
 631              		.loc 2 36 3 is_stmt 0 view .LVU200
 632 0024 030000EA 		b	.L40
 633              	.LVL42:
 634              	.L47:
 635              		.loc 2 39 34 view .LVU201
 636 0028 080093E5 		ldr	r0, [r3, #8]
 637 002c 08209CE5 		ldr	r2, [ip, #8]
 638 0030 020050E1 		cmp	r0, r2
 639 0034 0200003A 		bcc	.L39
 640              	.L40:
 641              		.loc 2 37 3 is_stmt 1 view .LVU202
 642              		.loc 2 38 5 view .LVU203
 643              		.loc 2 38 8 is_stmt 0 view .LVU204
 644 0038 003093E5 		ldr	r3, [r3]
 645              	.LVL43:
 646              		.loc 2 39 3 view .LVU205
 647 003c 030054E1 		cmp	r4, r3
 648 0040 F8FFFF1A 		bne	.L47
 649              	.L39:
 650              		.loc 2 40 3 is_stmt 1 view .LVU206
 651              		.loc 2 41 18 is_stmt 0 view .LVU207
 652 0044 042093E5 		ldr	r2, [r3, #4]
 653              		.loc 2 40 14 view .LVU208
 654 0048 00308CE5 		str	r3, [ip]
 655              		.loc 2 41 3 is_stmt 1 view .LVU209
 656              		.loc 2 41 14 is_stmt 0 view .LVU210
 657 004c 04208CE5 		str	r2, [ip, #4]
 658              		.loc 2 42 3 is_stmt 1 view .LVU211
 659              		.loc 2 42 35 is_stmt 0 view .LVU212
 660 0050 04C083E5 		str	ip, [r3, #4]
 661              		.loc 2 42 22 view .LVU213
 662 0054 04309CE5 		ldr	r3, [ip, #4]
 663              	.LVL44:
 664              		.loc 2 42 22 view .LVU214
 665              	.LBE44:
 666              	.LBE46:
 667              		.loc 1 276 9 view .LVU215
 668 0058 0610A0E1 		mov	r1, r6
 669              	.LBB47:
 670              	.LBB45:
 671              		.loc 2 42 22 view .LVU216
 672 005c 00C083E5 		str	ip, [r3]
 673              	.LVL45:
 674              		.loc 2 42 22 view .LVU217
 675              	.LBE45:
 676              	.LBE47:
 677              		.loc 1 276 3 is_stmt 1 view .LVU218
 678              		.loc 1 276 9 is_stmt 0 view .LVU219
 679 0060 0500A0E3 		mov	r0, #5
 680 0064 FEFFFFEB 		bl	chSchGoSleepTimeoutS
 681              	.LVL46:
 682              		.loc 1 277 6 view .LVU220
 683 0068 010070E3 		cmn	r0, #1
 684              		.loc 1 276 9 view .LVU221
ARM GAS  /var/folders/l5/0x54b2c10074c8bt31ycjvl80000gp/T//ccp2SSgC.s 			page 13


 685 006c 0040A0E1 		mov	r4, r0
 686              	.LVL47:
 687              		.loc 1 277 3 is_stmt 1 view .LVU222
 688              		.loc 1 277 6 is_stmt 0 view .LVU223
 689 0070 0100000A 		beq	.L38
 690              		.loc 1 278 5 is_stmt 1 view .LVU224
 691 0074 0500A0E1 		mov	r0, r5
 692              	.LVL48:
 693              		.loc 1 278 5 is_stmt 0 view .LVU225
 694 0078 FEFFFFEB 		bl	chMtxLockS
 695              	.LVL49:
 696              		.loc 1 279 3 is_stmt 1 view .LVU226
 697              	.L38:
 698              		.loc 1 280 1 is_stmt 0 view .LVU227
 699 007c 0400A0E1 		mov	r0, r4
 700 0080 7080BDE8 		pop	{r4, r5, r6, pc}
 701              	.L49:
 702              		.align	2
 703              	.L48:
 704 0084 00000000 		.word	rlist
 705              		.cfi_endproc
 706              	.LFE15:
 707              		.size	chCondWaitTimeoutS, .-chCondWaitTimeoutS
 708              		.section	.text.chCondWaitTimeout,"ax",%progbits
 709              		.align	2
 710              		.global	chCondWaitTimeout
 711              		.syntax unified
 712              		.arm
 713              		.fpu softvfp
 714              		.type	chCondWaitTimeout, %function
 715              	chCondWaitTimeout:
 716              	.LVL50:
 717              	.LFB14:
 718              		.loc 1 226 54 is_stmt 1 view -0
 719              		.cfi_startproc
 720              		@ args = 0, pretend = 0, frame = 0
 721              		@ frame_needed = 0, uses_anonymous_args = 0
 722              		.loc 1 227 3 view .LVU229
 723              		.loc 1 229 3 view .LVU230
 724              		.loc 1 226 54 is_stmt 0 view .LVU231
 725 0000 10402DE9 		push	{r4, lr}
 726              		.cfi_def_cfa_offset 8
 727              		.cfi_offset 4, -8
 728              		.cfi_offset 14, -4
 729              		.loc 1 229 3 view .LVU232
 730              		.syntax divided
 731              	@ 229 "../../os/kernel/src/chcond.c" 1
 732 0004 9FF021E3 		msr     CPSR_c, #0x9F
 733              	@ 0 "" 2
 734              		.loc 1 229 3 is_stmt 1 view .LVU233
 735              		.loc 1 229 14 view .LVU234
 736              		.loc 1 230 3 view .LVU235
 737              		.loc 1 230 9 is_stmt 0 view .LVU236
 738              		.arm
 739              		.syntax unified
 740 0008 FEFFFFEB 		bl	chCondWaitTimeoutS
 741              	.LVL51:
ARM GAS  /var/folders/l5/0x54b2c10074c8bt31ycjvl80000gp/T//ccp2SSgC.s 			page 14


 742              		.loc 1 231 3 is_stmt 1 view .LVU237
 743              		.loc 1 231 3 view .LVU238
 744              		.syntax divided
 745              	@ 231 "../../os/kernel/src/chcond.c" 1
 746 000c 1FF021E3 		msr     CPSR_c, #0x1F
 747              	@ 0 "" 2
 748              		.loc 1 231 16 view .LVU239
 749              		.loc 1 232 3 view .LVU240
 750              		.loc 1 233 1 is_stmt 0 view .LVU241
 751              		.arm
 752              		.syntax unified
 753 0010 1080BDE8 		pop	{r4, pc}
 754              		.cfi_endproc
 755              	.LFE14:
 756              		.size	chCondWaitTimeout, .-chCondWaitTimeout
 757              		.text
 758              	.Letext0:
 759              		.file 3 "/usr/local/Cellar/arm-gcc-bin/8-2019-q3-update/arm-none-eabi/include/machine/_default_typ
 760              		.file 4 "/usr/local/Cellar/arm-gcc-bin/8-2019-q3-update/arm-none-eabi/include/sys/_stdint.h"
 761              		.file 5 "../../os/ports/GCC/ARM/chtypes.h"
 762              		.file 6 "../../os/kernel/include/chlists.h"
 763              		.file 7 "../../os/kernel/include/chthreads.h"
 764              		.file 8 "../../os/ports/GCC/ARM/chcore.h"
 765              		.file 9 "../../os/kernel/include/chvt.h"
 766              		.file 10 "../../os/kernel/include/chschd.h"
 767              		.file 11 "../../os/kernel/include/chmtx.h"
 768              		.file 12 "../../os/kernel/include/chcond.h"
 769              		.file 13 "../../os/kernel/include/chregistry.h"
 770              		.file 14 "../../os/kernel/include/ch.h"