ARM GAS  /var/folders/l5/0x54b2c10074c8bt31ycjvl80000gp/T//ccZpBjn1.s 			page 1


   1              		.cpu arm1176jz-s
   2              		.eabi_attribute 20, 1
   3              		.eabi_attribute 21, 1
   4              		.eabi_attribute 23, 3
   5              		.eabi_attribute 24, 1
   6              		.eabi_attribute 25, 1
   7              		.eabi_attribute 26, 1
   8              		.eabi_attribute 30, 2
   9              		.eabi_attribute 34, 1
  10              		.eabi_attribute 18, 4
  11              		.file	"chdynamic.c"
  12              		.text
  13              	.Ltext0:
  14              		.cfi_sections	.debug_frame
  15              		.section	.text.chThdAddRef,"ax",%progbits
  16              		.align	2
  17              		.global	chThdAddRef
  18              		.arch armv6kz
  19              		.syntax unified
  20              		.arm
  21              		.fpu softvfp
  22              		.type	chThdAddRef, %function
  23              	chThdAddRef:
  24              	.LVL0:
  25              	.LFB7:
  26              		.file 1 "../../os/kernel/src/chdynamic.c"
  27              		.loc 1 45 33 view -0
  28              		.cfi_startproc
  29              		@ args = 0, pretend = 0, frame = 0
  30              		@ frame_needed = 0, uses_anonymous_args = 0
  31              		@ link register save eliminated.
  32              		.loc 1 47 3 view .LVU1
  33              		.syntax divided
  34              	@ 47 "../../os/kernel/src/chdynamic.c" 1
  35 0000 9FF021E3 		msr     CPSR_c, #0x9F
  36              	@ 0 "" 2
  37              		.loc 1 47 3 view .LVU2
  38              		.loc 1 47 14 view .LVU3
  39              		.loc 1 48 3 view .LVU4
  40              		.loc 1 48 76 view .LVU5
  41              		.loc 1 49 3 view .LVU6
  42              		.loc 1 49 13 is_stmt 0 view .LVU7
  43              		.arm
  44              		.syntax unified
  45 0004 1E30D0E5 		ldrb	r3, [r0, #30]	@ zero_extendqisi2
  46 0008 013083E2 		add	r3, r3, #1
  47 000c 1E30C0E5 		strb	r3, [r0, #30]
  48              		.loc 1 50 3 is_stmt 1 view .LVU8
  49              		.loc 1 50 3 view .LVU9
  50              		.syntax divided
  51              	@ 50 "../../os/kernel/src/chdynamic.c" 1
  52 0010 1FF021E3 		msr     CPSR_c, #0x1F
  53              	@ 0 "" 2
  54              		.loc 1 50 16 view .LVU10
  55              		.loc 1 51 3 view .LVU11
  56              		.loc 1 52 1 is_stmt 0 view .LVU12
  57              		.arm
ARM GAS  /var/folders/l5/0x54b2c10074c8bt31ycjvl80000gp/T//ccZpBjn1.s 			page 2


  58              		.syntax unified
  59 0014 1EFF2FE1 		bx	lr
  60              		.cfi_endproc
  61              	.LFE7:
  62              		.size	chThdAddRef, .-chThdAddRef
  63              		.section	.text.chThdRelease,"ax",%progbits
  64              		.align	2
  65              		.global	chThdRelease
  66              		.syntax unified
  67              		.arm
  68              		.fpu softvfp
  69              		.type	chThdRelease, %function
  70              	chThdRelease:
  71              	.LVL1:
  72              	.LFB8:
  73              		.loc 1 67 31 is_stmt 1 view -0
  74              		.cfi_startproc
  75              		@ args = 0, pretend = 0, frame = 0
  76              		@ frame_needed = 0, uses_anonymous_args = 0
  77              		@ link register save eliminated.
  78              		.loc 1 68 3 view .LVU14
  79              		.loc 1 70 3 view .LVU15
  80              		.syntax divided
  81              	@ 70 "../../os/kernel/src/chdynamic.c" 1
  82 0000 9FF021E3 		msr     CPSR_c, #0x9F
  83              	@ 0 "" 2
  84              		.loc 1 70 3 view .LVU16
  85              		.loc 1 70 14 view .LVU17
  86              		.loc 1 71 3 view .LVU18
  87              		.loc 1 71 70 view .LVU19
  88              		.loc 1 72 3 view .LVU20
  89              		.loc 1 72 10 is_stmt 0 view .LVU21
  90              		.arm
  91              		.syntax unified
  92 0004 1E30D0E5 		ldrb	r3, [r0, #30]	@ zero_extendqisi2
  93 0008 013043E2 		sub	r3, r3, #1
  94 000c 7330EFE6 		uxtb	r3, r3
  95              		.loc 1 72 8 view .LVU22
  96 0010 1E30C0E5 		strb	r3, [r0, #30]
  97              	.LVL2:
  98              		.loc 1 73 3 is_stmt 1 view .LVU23
  99              		.loc 1 73 3 view .LVU24
 100              		.syntax divided
 101              	@ 73 "../../os/kernel/src/chdynamic.c" 1
 102 0014 1FF021E3 		msr     CPSR_c, #0x1F
 103              	@ 0 "" 2
 104              		.loc 1 73 16 view .LVU25
 105              		.loc 1 78 3 view .LVU26
 106              		.loc 1 78 6 is_stmt 0 view .LVU27
 107              		.arm
 108              		.syntax unified
 109 0018 000053E3 		cmp	r3, #0
 110 001c 1EFF2F11 		bxne	lr
 111              		.loc 1 78 19 discriminator 1 view .LVU28
 112 0020 1C30D0E5 		ldrb	r3, [r0, #28]	@ zero_extendqisi2
 113              	.LVL3:
 114              		.loc 1 78 19 discriminator 1 view .LVU29
ARM GAS  /var/folders/l5/0x54b2c10074c8bt31ycjvl80000gp/T//ccZpBjn1.s 			page 3


 115 0024 0E0053E3 		cmp	r3, #14
 116 0028 1EFF2F11 		bxne	lr
 117              		.loc 1 79 5 is_stmt 1 view .LVU30
 118 002c 1D30D0E5 		ldrb	r3, [r0, #29]	@ zero_extendqisi2
 119 0030 033003E2 		and	r3, r3, #3
 120 0034 010053E3 		cmp	r3, #1
 121 0038 1EFF2F11 		bxne	lr
 122              		.loc 1 83 7 view .LVU31
 123 003c 141090E5 		ldr	r1, [r0, #20]
 124 0040 103090E5 		ldr	r3, [r0, #16]
 125 0044 103081E5 		str	r3, [r1, #16]
 126              	.LVL4:
 127              		.loc 1 83 7 view .LVU32
 128 0048 141083E5 		str	r1, [r3, #20]
 129              		.loc 1 83 21 view .LVU33
 130              		.loc 1 85 7 view .LVU34
 131 004c FEFFFFEA 		b	chHeapFree
 132              	.LVL5:
 133              		.loc 1 85 7 is_stmt 0 view .LVU35
 134              		.cfi_endproc
 135              	.LFE8:
 136              		.size	chThdRelease, .-chThdRelease
 137              		.section	.text.chThdCreateFromHeap,"ax",%progbits
 138              		.align	2
 139              		.global	chThdCreateFromHeap
 140              		.syntax unified
 141              		.arm
 142              		.fpu softvfp
 143              		.type	chThdCreateFromHeap, %function
 144              	chThdCreateFromHeap:
 145              	.LVL6:
 146              	.LFB9:
 147              		.loc 1 124 66 is_stmt 1 view -0
 148              		.cfi_startproc
 149              		@ args = 4, pretend = 0, frame = 0
 150              		@ frame_needed = 0, uses_anonymous_args = 0
 151              		.loc 1 125 3 view .LVU37
 152              		.loc 1 126 3 view .LVU38
 153              		.loc 1 128 3 view .LVU39
 154              		.loc 1 124 66 is_stmt 0 view .LVU40
 155 0000 F0402DE9 		push	{r4, r5, r6, r7, lr}
 156              		.cfi_def_cfa_offset 20
 157              		.cfi_offset 4, -20
 158              		.cfi_offset 5, -16
 159              		.cfi_offset 6, -12
 160              		.cfi_offset 7, -8
 161              		.cfi_offset 14, -4
 162 0004 0CD04DE2 		sub	sp, sp, #12
 163              		.cfi_def_cfa_offset 32
 164              		.loc 1 124 66 view .LVU41
 165 0008 0260A0E1 		mov	r6, r2
 166 000c 0370A0E1 		mov	r7, r3
 167 0010 0150A0E1 		mov	r5, r1
 168              		.loc 1 128 9 view .LVU42
 169 0014 FEFFFFEB 		bl	chHeapAlloc
 170              	.LVL7:
 171              		.loc 1 129 3 is_stmt 1 view .LVU43
ARM GAS  /var/folders/l5/0x54b2c10074c8bt31ycjvl80000gp/T//ccZpBjn1.s 			page 4


 172              		.loc 1 129 6 is_stmt 0 view .LVU44
 173 0018 004050E2 		subs	r4, r0, #0
 174 001c 0C00000A 		beq	.L5
 175              		.loc 1 141 3 is_stmt 1 view .LVU45
 176              		.syntax divided
 177              	@ 141 "../../os/kernel/src/chdynamic.c" 1
 178 0020 9FF021E3 		msr     CPSR_c, #0x9F
 179              	@ 0 "" 2
 180              		.loc 1 141 3 view .LVU46
 181              		.loc 1 141 14 view .LVU47
 182              		.loc 1 142 3 view .LVU48
 183              		.loc 1 142 8 is_stmt 0 view .LVU49
 184              		.arm
 185              		.syntax unified
 186 0024 20309DE5 		ldr	r3, [sp, #32]
 187 0028 0620A0E1 		mov	r2, r6
 188 002c 00308DE5 		str	r3, [sp]
 189 0030 0510A0E1 		mov	r1, r5
 190 0034 0730A0E1 		mov	r3, r7
 191 0038 FEFFFFEB 		bl	chThdCreateI
 192              	.LVL8:
 193              		.loc 1 143 15 view .LVU50
 194 003c 0130A0E3 		mov	r3, #1
 195              		.loc 1 144 3 view .LVU51
 196 0040 0010A0E3 		mov	r1, #0
 197              		.loc 1 143 15 view .LVU52
 198 0044 1D30C0E5 		strb	r3, [r0, #29]
 199              		.loc 1 142 8 view .LVU53
 200 0048 0040A0E1 		mov	r4, r0
 201              	.LVL9:
 202              		.loc 1 143 3 is_stmt 1 view .LVU54
 203              		.loc 1 144 3 view .LVU55
 204 004c FEFFFFEB 		bl	chSchWakeupS
 205              	.LVL10:
 206              		.loc 1 145 3 view .LVU56
 207              		.loc 1 145 3 view .LVU57
 208              		.syntax divided
 209              	@ 145 "../../os/kernel/src/chdynamic.c" 1
 210 0050 1FF021E3 		msr     CPSR_c, #0x1F
 211              	@ 0 "" 2
 212              		.loc 1 145 16 view .LVU58
 213              		.loc 1 146 3 view .LVU59
 214              	.LVL11:
 215              		.arm
 216              		.syntax unified
 217              	.L5:
 218              		.loc 1 147 1 is_stmt 0 view .LVU60
 219 0054 0400A0E1 		mov	r0, r4
 220 0058 0CD08DE2 		add	sp, sp, #12
 221              		.cfi_def_cfa_offset 20
 222              		@ sp needed
 223 005c F080BDE8 		pop	{r4, r5, r6, r7, pc}
 224              		.loc 1 147 1 view .LVU61
 225              		.cfi_endproc
 226              	.LFE9:
 227              		.size	chThdCreateFromHeap, .-chThdCreateFromHeap
 228              		.text
ARM GAS  /var/folders/l5/0x54b2c10074c8bt31ycjvl80000gp/T//ccZpBjn1.s 			page 5


 229              	.Letext0:
 230              		.file 2 "/usr/local/Cellar/arm-gcc-bin/8-2019-q3-update/lib/gcc/arm-none-eabi/8.3.1/include/stddef
 231              		.file 3 "/usr/local/Cellar/arm-gcc-bin/8-2019-q3-update/arm-none-eabi/include/machine/_default_typ
 232              		.file 4 "/usr/local/Cellar/arm-gcc-bin/8-2019-q3-update/arm-none-eabi/include/sys/_stdint.h"
 233              		.file 5 "../../os/ports/GCC/ARM/chtypes.h"
 234              		.file 6 "../../os/kernel/include/chlists.h"
 235              		.file 7 "../../os/kernel/include/chthreads.h"
 236              		.file 8 "../../os/ports/GCC/ARM/chcore.h"
 237              		.file 9 "../../os/kernel/include/chvt.h"
 238              		.file 10 "../../os/kernel/include/chschd.h"
 239              		.file 11 "../../os/kernel/include/chmtx.h"
 240              		.file 12 "../../os/kernel/include/chmemcore.h"
 241              		.file 13 "../../os/kernel/include/chheap.h"
 242              		.file 14 "../../os/kernel/include/chregistry.h"
 243              		.file 15 "../../os/kernel/include/ch.h"
 244              		.section	.debug_info,"",%progbits
 245              	.Ldebug_info0:
 246 0000 F8080000 		.4byte	0x8f8
 247 0004 0400     		.2byte	0x4
 248 0006 00000000 		.4byte	.Ldebug_abbrev0
 249 000a 04       		.byte	0x4
 250 000b 01       		.uleb128 0x1
 251 000c 12020000 		.4byte	.LASF117
 252 0010 0C       		.byte	0xc
 253 0011 0E000000 		.4byte	.LASF118
 254 0015 4E050000 		.4byte	.LASF119
 255 0019 00000000 		.4byte	.Ldebug_ranges0+0
 256 001d 00000000 		.4byte	0
 257 0021 00000000 		.4byte	.Ldebug_line0
 258 0025 02       		.uleb128 0x2
 259 0026 04       		.byte	0x4
 260 0027 05       		.byte	0x5
 261 0028 696E7400 		.ascii	"int\000"
 262 002c 03       		.uleb128 0x3
 263 002d 2E000000 		.4byte	.LASF2
 264 0031 02       		.byte	0x2
 265 0032 D8       		.byte	0xd8
 266 0033 17       		.byte	0x17
 267 0034 38000000 		.4byte	0x38
 268 0038 04       		.uleb128 0x4
 269 0039 04       		.byte	0x4
 270 003a 07       		.byte	0x7
 271 003b 91010000 		.4byte	.LASF0
 272 003f 04       		.uleb128 0x4
 273 0040 01       		.byte	0x1
 274 0041 06       		.byte	0x6
 275 0042 C1000000 		.4byte	.LASF1
 276 0046 03       		.uleb128 0x3
 277 0047 41000000 		.4byte	.LASF3
 278 004b 03       		.byte	0x3
 279 004c 2B       		.byte	0x2b
 280 004d 18       		.byte	0x18
 281 004e 52000000 		.4byte	0x52
 282 0052 04       		.uleb128 0x4
 283 0053 01       		.byte	0x1
 284 0054 08       		.byte	0x8
 285 0055 CA030000 		.4byte	.LASF4
ARM GAS  /var/folders/l5/0x54b2c10074c8bt31ycjvl80000gp/T//ccZpBjn1.s 			page 6


 286 0059 04       		.uleb128 0x4
 287 005a 02       		.byte	0x2
 288 005b 05       		.byte	0x5
 289 005c ED030000 		.4byte	.LASF5
 290 0060 03       		.uleb128 0x3
 291 0061 AF040000 		.4byte	.LASF6
 292 0065 03       		.byte	0x3
 293 0066 39       		.byte	0x39
 294 0067 19       		.byte	0x19
 295 0068 6C000000 		.4byte	0x6c
 296 006c 04       		.uleb128 0x4
 297 006d 02       		.byte	0x2
 298 006e 07       		.byte	0x7
 299 006f E4010000 		.4byte	.LASF7
 300 0073 03       		.uleb128 0x3
 301 0074 D6040000 		.4byte	.LASF8
 302 0078 03       		.byte	0x3
 303 0079 4D       		.byte	0x4d
 304 007a 18       		.byte	0x18
 305 007b 7F000000 		.4byte	0x7f
 306 007f 04       		.uleb128 0x4
 307 0080 04       		.byte	0x4
 308 0081 05       		.byte	0x5
 309 0082 1E010000 		.4byte	.LASF9
 310 0086 03       		.uleb128 0x3
 311 0087 6F010000 		.4byte	.LASF10
 312 008b 03       		.byte	0x3
 313 008c 4F       		.byte	0x4f
 314 008d 19       		.byte	0x19
 315 008e 92000000 		.4byte	0x92
 316 0092 04       		.uleb128 0x4
 317 0093 04       		.byte	0x4
 318 0094 07       		.byte	0x7
 319 0095 B3010000 		.4byte	.LASF11
 320 0099 04       		.uleb128 0x4
 321 009a 08       		.byte	0x8
 322 009b 05       		.byte	0x5
 323 009c B3000000 		.4byte	.LASF12
 324 00a0 04       		.uleb128 0x4
 325 00a1 08       		.byte	0x8
 326 00a2 07       		.byte	0x7
 327 00a3 5F000000 		.4byte	.LASF13
 328 00a7 03       		.uleb128 0x3
 329 00a8 22050000 		.4byte	.LASF14
 330 00ac 04       		.byte	0x4
 331 00ad 18       		.byte	0x18
 332 00ae 13       		.byte	0x13
 333 00af 46000000 		.4byte	0x46
 334 00b3 03       		.uleb128 0x3
 335 00b4 44010000 		.4byte	.LASF15
 336 00b8 04       		.byte	0x4
 337 00b9 24       		.byte	0x24
 338 00ba 14       		.byte	0x14
 339 00bb 60000000 		.4byte	0x60
 340 00bf 03       		.uleb128 0x3
 341 00c0 C2030000 		.4byte	.LASF16
 342 00c4 04       		.byte	0x4
ARM GAS  /var/folders/l5/0x54b2c10074c8bt31ycjvl80000gp/T//ccZpBjn1.s 			page 7


 343 00c5 2C       		.byte	0x2c
 344 00c6 13       		.byte	0x13
 345 00c7 73000000 		.4byte	0x73
 346 00cb 03       		.uleb128 0x3
 347 00cc 7B040000 		.4byte	.LASF17
 348 00d0 04       		.byte	0x4
 349 00d1 30       		.byte	0x30
 350 00d2 14       		.byte	0x14
 351 00d3 86000000 		.4byte	0x86
 352 00d7 03       		.uleb128 0x3
 353 00d8 E2020000 		.4byte	.LASF18
 354 00dc 05       		.byte	0x5
 355 00dd 2A       		.byte	0x2a
 356 00de 19       		.byte	0x19
 357 00df A7000000 		.4byte	0xa7
 358 00e3 03       		.uleb128 0x3
 359 00e4 3B010000 		.4byte	.LASF19
 360 00e8 05       		.byte	0x5
 361 00e9 2B       		.byte	0x2b
 362 00ea 19       		.byte	0x19
 363 00eb A7000000 		.4byte	0xa7
 364 00ef 03       		.uleb128 0x3
 365 00f0 9B030000 		.4byte	.LASF20
 366 00f4 05       		.byte	0x5
 367 00f5 2C       		.byte	0x2c
 368 00f6 19       		.byte	0x19
 369 00f7 A7000000 		.4byte	0xa7
 370 00fb 03       		.uleb128 0x3
 371 00fc BA030000 		.4byte	.LASF21
 372 0100 05       		.byte	0x5
 373 0101 2E       		.byte	0x2e
 374 0102 19       		.byte	0x19
 375 0103 CB000000 		.4byte	0xcb
 376 0107 03       		.uleb128 0x3
 377 0108 04020000 		.4byte	.LASF22
 378 010c 05       		.byte	0x5
 379 010d 2F       		.byte	0x2f
 380 010e 19       		.byte	0x19
 381 010f BF000000 		.4byte	0xbf
 382 0113 03       		.uleb128 0x3
 383 0114 F6020000 		.4byte	.LASF23
 384 0118 05       		.byte	0x5
 385 0119 31       		.byte	0x31
 386 011a 19       		.byte	0x19
 387 011b CB000000 		.4byte	0xcb
 388 011f 03       		.uleb128 0x3
 389 0120 C1040000 		.4byte	.LASF24
 390 0124 05       		.byte	0x5
 391 0125 33       		.byte	0x33
 392 0126 19       		.byte	0x19
 393 0127 CB000000 		.4byte	0xcb
 394 012b 05       		.uleb128 0x5
 395 012c 1F010000 		.4byte	0x11f
 396 0130 03       		.uleb128 0x3
 397 0131 50040000 		.4byte	.LASF25
 398 0135 06       		.byte	0x6
 399 0136 23       		.byte	0x23
ARM GAS  /var/folders/l5/0x54b2c10074c8bt31ycjvl80000gp/T//ccZpBjn1.s 			page 8


 400 0137 17       		.byte	0x17
 401 0138 3C010000 		.4byte	0x13c
 402 013c 06       		.uleb128 0x6
 403 013d 50040000 		.4byte	.LASF25
 404 0141 44       		.byte	0x44
 405 0142 07       		.byte	0x7
 406 0143 57       		.byte	0x57
 407 0144 08       		.byte	0x8
 408 0145 34020000 		.4byte	0x234
 409 0149 07       		.uleb128 0x7
 410 014a 25040000 		.4byte	.LASF26
 411 014e 07       		.byte	0x7
 412 014f 58       		.byte	0x58
 413 0150 1A       		.byte	0x1a
 414 0151 58020000 		.4byte	0x258
 415 0155 00       		.byte	0
 416 0156 07       		.uleb128 0x7
 417 0157 B3030000 		.4byte	.LASF27
 418 015b 07       		.byte	0x7
 419 015c 5A       		.byte	0x5a
 420 015d 1A       		.byte	0x1a
 421 015e 58020000 		.4byte	0x258
 422 0162 04       		.byte	0x4
 423 0163 07       		.uleb128 0x7
 424 0164 9F000000 		.4byte	.LASF28
 425 0168 07       		.byte	0x7
 426 0169 5C       		.byte	0x5c
 427 016a 19       		.byte	0x19
 428 016b FB000000 		.4byte	0xfb
 429 016f 08       		.byte	0x8
 430 0170 07       		.uleb128 0x7
 431 0171 A5050000 		.4byte	.LASF29
 432 0175 07       		.byte	0x7
 433 0176 5D       		.byte	0x5d
 434 0177 19       		.byte	0x19
 435 0178 23030000 		.4byte	0x323
 436 017c 0C       		.byte	0xc
 437 017d 07       		.uleb128 0x7
 438 017e 57010000 		.4byte	.LASF30
 439 0182 07       		.byte	0x7
 440 0183 5F       		.byte	0x5f
 441 0184 1A       		.byte	0x1a
 442 0185 58020000 		.4byte	0x258
 443 0189 10       		.byte	0x10
 444 018a 07       		.uleb128 0x7
 445 018b 5B030000 		.4byte	.LASF31
 446 018f 07       		.byte	0x7
 447 0190 60       		.byte	0x60
 448 0191 1A       		.byte	0x1a
 449 0192 58020000 		.4byte	0x258
 450 0196 14       		.byte	0x14
 451 0197 07       		.uleb128 0x7
 452 0198 31050000 		.4byte	.LASF32
 453 019c 07       		.byte	0x7
 454 019d 67       		.byte	0x67
 455 019e 1A       		.byte	0x1a
 456 019f DF050000 		.4byte	0x5df
ARM GAS  /var/folders/l5/0x54b2c10074c8bt31ycjvl80000gp/T//ccZpBjn1.s 			page 9


 457 01a3 18       		.byte	0x18
 458 01a4 07       		.uleb128 0x7
 459 01a5 F7030000 		.4byte	.LASF33
 460 01a9 07       		.byte	0x7
 461 01aa 72       		.byte	0x72
 462 01ab 19       		.byte	0x19
 463 01ac E3000000 		.4byte	0xe3
 464 01b0 1C       		.byte	0x1c
 465 01b1 07       		.uleb128 0x7
 466 01b2 3B040000 		.4byte	.LASF34
 467 01b6 07       		.byte	0x7
 468 01b7 76       		.byte	0x76
 469 01b8 19       		.byte	0x19
 470 01b9 D7000000 		.4byte	0xd7
 471 01bd 1D       		.byte	0x1d
 472 01be 07       		.uleb128 0x7
 473 01bf 0B050000 		.4byte	.LASF35
 474 01c3 07       		.byte	0x7
 475 01c4 7B       		.byte	0x7b
 476 01c5 19       		.byte	0x19
 477 01c6 EF000000 		.4byte	0xef
 478 01ca 1E       		.byte	0x1e
 479 01cb 07       		.uleb128 0x7
 480 01cc E0040000 		.4byte	.LASF36
 481 01d0 07       		.byte	0x7
 482 01d1 88       		.byte	0x88
 483 01d2 19       		.byte	0x19
 484 01d3 2B010000 		.4byte	0x12b
 485 01d7 20       		.byte	0x20
 486 01d8 08       		.uleb128 0x8
 487 01d9 705F7500 		.ascii	"p_u\000"
 488 01dd 07       		.byte	0x7
 489 01de AD       		.byte	0xad
 490 01df 19       		.byte	0x19
 491 01e0 A5050000 		.4byte	0x5a5
 492 01e4 24       		.byte	0x24
 493 01e5 07       		.uleb128 0x7
 494 01e6 AB050000 		.4byte	.LASF37
 495 01ea 07       		.byte	0x7
 496 01eb B2       		.byte	0xb2
 497 01ec 19       		.byte	0x19
 498 01ed 81020000 		.4byte	0x281
 499 01f1 28       		.byte	0x28
 500 01f2 07       		.uleb128 0x7
 501 01f3 EE040000 		.4byte	.LASF38
 502 01f7 07       		.byte	0x7
 503 01f8 B8       		.byte	0xb8
 504 01f9 19       		.byte	0x19
 505 01fa 5E020000 		.4byte	0x25e
 506 01fe 2C       		.byte	0x2c
 507 01ff 07       		.uleb128 0x7
 508 0200 08000000 		.4byte	.LASF39
 509 0204 07       		.byte	0x7
 510 0205 BC       		.byte	0xbc
 511 0206 19       		.byte	0x19
 512 0207 07010000 		.4byte	0x107
 513 020b 34       		.byte	0x34
ARM GAS  /var/folders/l5/0x54b2c10074c8bt31ycjvl80000gp/T//ccZpBjn1.s 			page 10


 514 020c 07       		.uleb128 0x7
 515 020d 70040000 		.4byte	.LASF40
 516 0211 07       		.byte	0x7
 517 0212 C2       		.byte	0xc2
 518 0213 19       		.byte	0x19
 519 0214 13010000 		.4byte	0x113
 520 0218 38       		.byte	0x38
 521 0219 07       		.uleb128 0x7
 522 021a E3030000 		.4byte	.LASF41
 523 021e 07       		.byte	0x7
 524 021f C9       		.byte	0xc9
 525 0220 1A       		.byte	0x1a
 526 0221 F1050000 		.4byte	0x5f1
 527 0225 3C       		.byte	0x3c
 528 0226 07       		.uleb128 0x7
 529 0227 CB040000 		.4byte	.LASF42
 530 022b 07       		.byte	0x7
 531 022c CD       		.byte	0xcd
 532 022d 19       		.byte	0x19
 533 022e FB000000 		.4byte	0xfb
 534 0232 40       		.byte	0x40
 535 0233 00       		.byte	0
 536 0234 09       		.uleb128 0x9
 537 0235 08       		.byte	0x8
 538 0236 06       		.byte	0x6
 539 0237 5A       		.byte	0x5a
 540 0238 09       		.byte	0x9
 541 0239 58020000 		.4byte	0x258
 542 023d 07       		.uleb128 0x7
 543 023e 25040000 		.4byte	.LASF26
 544 0242 06       		.byte	0x6
 545 0243 5B       		.byte	0x5b
 546 0244 1A       		.byte	0x1a
 547 0245 58020000 		.4byte	0x258
 548 0249 00       		.byte	0
 549 024a 07       		.uleb128 0x7
 550 024b B3030000 		.4byte	.LASF27
 551 024f 06       		.byte	0x6
 552 0250 5D       		.byte	0x5d
 553 0251 1A       		.byte	0x1a
 554 0252 58020000 		.4byte	0x258
 555 0256 04       		.byte	0x4
 556 0257 00       		.byte	0
 557 0258 0A       		.uleb128 0xa
 558 0259 04       		.byte	0x4
 559 025a 30010000 		.4byte	0x130
 560 025e 03       		.uleb128 0x3
 561 025f 69030000 		.4byte	.LASF43
 562 0263 06       		.byte	0x6
 563 0264 5F       		.byte	0x5f
 564 0265 03       		.byte	0x3
 565 0266 34020000 		.4byte	0x234
 566 026a 09       		.uleb128 0x9
 567 026b 04       		.byte	0x4
 568 026c 06       		.byte	0x6
 569 026d 64       		.byte	0x64
 570 026e 09       		.byte	0x9
ARM GAS  /var/folders/l5/0x54b2c10074c8bt31ycjvl80000gp/T//ccZpBjn1.s 			page 11


 571 026f 81020000 		.4byte	0x281
 572 0273 07       		.uleb128 0x7
 573 0274 25040000 		.4byte	.LASF26
 574 0278 06       		.byte	0x6
 575 0279 66       		.byte	0x66
 576 027a 16       		.byte	0x16
 577 027b 58020000 		.4byte	0x258
 578 027f 00       		.byte	0
 579 0280 00       		.byte	0
 580 0281 03       		.uleb128 0x3
 581 0282 EA020000 		.4byte	.LASF44
 582 0286 06       		.byte	0x6
 583 0287 69       		.byte	0x69
 584 0288 03       		.byte	0x3
 585 0289 6A020000 		.4byte	0x26a
 586 028d 03       		.uleb128 0x3
 587 028e 14030000 		.4byte	.LASF45
 588 0292 08       		.byte	0x8
 589 0293 9D       		.byte	0x9d
 590 0294 12       		.byte	0x12
 591 0295 CB000000 		.4byte	0xcb
 592 0299 03       		.uleb128 0x3
 593 029a 7A010000 		.4byte	.LASF46
 594 029e 08       		.byte	0x8
 595 029f A2       		.byte	0xa2
 596 02a0 0F       		.byte	0xf
 597 02a1 A5020000 		.4byte	0x2a5
 598 02a5 0B       		.uleb128 0xb
 599 02a6 04       		.byte	0x4
 600 02a7 06       		.uleb128 0x6
 601 02a8 E7040000 		.4byte	.LASF47
 602 02ac 24       		.byte	0x24
 603 02ad 08       		.byte	0x8
 604 02ae B9       		.byte	0xb9
 605 02af 08       		.byte	0x8
 606 02b0 23030000 		.4byte	0x323
 607 02b4 08       		.uleb128 0x8
 608 02b5 723400   		.ascii	"r4\000"
 609 02b8 08       		.byte	0x8
 610 02b9 BA       		.byte	0xba
 611 02ba 11       		.byte	0x11
 612 02bb 99020000 		.4byte	0x299
 613 02bf 00       		.byte	0
 614 02c0 08       		.uleb128 0x8
 615 02c1 723500   		.ascii	"r5\000"
 616 02c4 08       		.byte	0x8
 617 02c5 BB       		.byte	0xbb
 618 02c6 11       		.byte	0x11
 619 02c7 99020000 		.4byte	0x299
 620 02cb 04       		.byte	0x4
 621 02cc 08       		.uleb128 0x8
 622 02cd 723600   		.ascii	"r6\000"
 623 02d0 08       		.byte	0x8
 624 02d1 BC       		.byte	0xbc
 625 02d2 11       		.byte	0x11
 626 02d3 99020000 		.4byte	0x299
 627 02d7 08       		.byte	0x8
ARM GAS  /var/folders/l5/0x54b2c10074c8bt31ycjvl80000gp/T//ccZpBjn1.s 			page 12


 628 02d8 08       		.uleb128 0x8
 629 02d9 723700   		.ascii	"r7\000"
 630 02dc 08       		.byte	0x8
 631 02dd BD       		.byte	0xbd
 632 02de 11       		.byte	0x11
 633 02df 99020000 		.4byte	0x299
 634 02e3 0C       		.byte	0xc
 635 02e4 08       		.uleb128 0x8
 636 02e5 723800   		.ascii	"r8\000"
 637 02e8 08       		.byte	0x8
 638 02e9 BE       		.byte	0xbe
 639 02ea 11       		.byte	0x11
 640 02eb 99020000 		.4byte	0x299
 641 02ef 10       		.byte	0x10
 642 02f0 08       		.uleb128 0x8
 643 02f1 723900   		.ascii	"r9\000"
 644 02f4 08       		.byte	0x8
 645 02f5 BF       		.byte	0xbf
 646 02f6 11       		.byte	0x11
 647 02f7 99020000 		.4byte	0x299
 648 02fb 14       		.byte	0x14
 649 02fc 08       		.uleb128 0x8
 650 02fd 72313000 		.ascii	"r10\000"
 651 0301 08       		.byte	0x8
 652 0302 C0       		.byte	0xc0
 653 0303 11       		.byte	0x11
 654 0304 99020000 		.4byte	0x299
 655 0308 18       		.byte	0x18
 656 0309 08       		.uleb128 0x8
 657 030a 72313100 		.ascii	"r11\000"
 658 030e 08       		.byte	0x8
 659 030f C1       		.byte	0xc1
 660 0310 11       		.byte	0x11
 661 0311 99020000 		.4byte	0x299
 662 0315 1C       		.byte	0x1c
 663 0316 08       		.uleb128 0x8
 664 0317 6C7200   		.ascii	"lr\000"
 665 031a 08       		.byte	0x8
 666 031b C2       		.byte	0xc2
 667 031c 11       		.byte	0x11
 668 031d 99020000 		.4byte	0x299
 669 0321 20       		.byte	0x20
 670 0322 00       		.byte	0
 671 0323 06       		.uleb128 0x6
 672 0324 D7010000 		.4byte	.LASF48
 673 0328 04       		.byte	0x4
 674 0329 08       		.byte	0x8
 675 032a CA       		.byte	0xca
 676 032b 08       		.byte	0x8
 677 032c 3E030000 		.4byte	0x33e
 678 0330 08       		.uleb128 0x8
 679 0331 72313300 		.ascii	"r13\000"
 680 0335 08       		.byte	0x8
 681 0336 CB       		.byte	0xcb
 682 0337 12       		.byte	0x12
 683 0338 3E030000 		.4byte	0x33e
 684 033c 00       		.byte	0
ARM GAS  /var/folders/l5/0x54b2c10074c8bt31ycjvl80000gp/T//ccZpBjn1.s 			page 13


 685 033d 00       		.byte	0
 686 033e 0A       		.uleb128 0xa
 687 033f 04       		.byte	0x4
 688 0340 A7020000 		.4byte	0x2a7
 689 0344 03       		.uleb128 0x3
 690 0345 CE010000 		.4byte	.LASF49
 691 0349 09       		.byte	0x9
 692 034a 4E       		.byte	0x4e
 693 034b 10       		.byte	0x10
 694 034c 50030000 		.4byte	0x350
 695 0350 0A       		.uleb128 0xa
 696 0351 04       		.byte	0x4
 697 0352 56030000 		.4byte	0x356
 698 0356 0C       		.uleb128 0xc
 699 0357 61030000 		.4byte	0x361
 700 035b 0D       		.uleb128 0xd
 701 035c A5020000 		.4byte	0x2a5
 702 0360 00       		.byte	0
 703 0361 03       		.uleb128 0x3
 704 0362 98040000 		.4byte	.LASF50
 705 0366 09       		.byte	0x9
 706 0367 53       		.byte	0x53
 707 0368 1D       		.byte	0x1d
 708 0369 6D030000 		.4byte	0x36d
 709 036d 06       		.uleb128 0x6
 710 036e 98040000 		.4byte	.LASF50
 711 0372 14       		.byte	0x14
 712 0373 09       		.byte	0x9
 713 0374 5A       		.byte	0x5a
 714 0375 08       		.byte	0x8
 715 0376 BC030000 		.4byte	0x3bc
 716 037a 07       		.uleb128 0x7
 717 037b 9E010000 		.4byte	.LASF51
 718 037f 09       		.byte	0x9
 719 0380 5B       		.byte	0x5b
 720 0381 1A       		.byte	0x1a
 721 0382 BC030000 		.4byte	0x3bc
 722 0386 00       		.byte	0
 723 0387 07       		.uleb128 0x7
 724 0388 83010000 		.4byte	.LASF52
 725 038c 09       		.byte	0x9
 726 038d 5D       		.byte	0x5d
 727 038e 1A       		.byte	0x1a
 728 038f BC030000 		.4byte	0x3bc
 729 0393 04       		.byte	0x4
 730 0394 07       		.uleb128 0x7
 731 0395 33030000 		.4byte	.LASF53
 732 0399 09       		.byte	0x9
 733 039a 5F       		.byte	0x5f
 734 039b 19       		.byte	0x19
 735 039c 1F010000 		.4byte	0x11f
 736 03a0 08       		.byte	0x8
 737 03a1 07       		.uleb128 0x7
 738 03a2 3B030000 		.4byte	.LASF54
 739 03a6 09       		.byte	0x9
 740 03a7 60       		.byte	0x60
 741 03a8 19       		.byte	0x19
ARM GAS  /var/folders/l5/0x54b2c10074c8bt31ycjvl80000gp/T//ccZpBjn1.s 			page 14


 742 03a9 44030000 		.4byte	0x344
 743 03ad 0C       		.byte	0xc
 744 03ae 07       		.uleb128 0x7
 745 03af F9040000 		.4byte	.LASF55
 746 03b3 09       		.byte	0x9
 747 03b4 62       		.byte	0x62
 748 03b5 1A       		.byte	0x1a
 749 03b6 A5020000 		.4byte	0x2a5
 750 03ba 10       		.byte	0x10
 751 03bb 00       		.byte	0
 752 03bc 0A       		.uleb128 0xa
 753 03bd 04       		.byte	0x4
 754 03be 61030000 		.4byte	0x361
 755 03c2 09       		.uleb128 0x9
 756 03c3 10       		.byte	0x10
 757 03c4 09       		.byte	0x9
 758 03c5 6C       		.byte	0x6c
 759 03c6 09       		.byte	0x9
 760 03c7 00040000 		.4byte	0x400
 761 03cb 07       		.uleb128 0x7
 762 03cc 9E010000 		.4byte	.LASF51
 763 03d0 09       		.byte	0x9
 764 03d1 6D       		.byte	0x6d
 765 03d2 1A       		.byte	0x1a
 766 03d3 BC030000 		.4byte	0x3bc
 767 03d7 00       		.byte	0
 768 03d8 07       		.uleb128 0x7
 769 03d9 83010000 		.4byte	.LASF52
 770 03dd 09       		.byte	0x9
 771 03de 6F       		.byte	0x6f
 772 03df 1A       		.byte	0x1a
 773 03e0 BC030000 		.4byte	0x3bc
 774 03e4 04       		.byte	0x4
 775 03e5 07       		.uleb128 0x7
 776 03e6 33030000 		.4byte	.LASF53
 777 03ea 09       		.byte	0x9
 778 03eb 71       		.byte	0x71
 779 03ec 19       		.byte	0x19
 780 03ed 1F010000 		.4byte	0x11f
 781 03f1 08       		.byte	0x8
 782 03f2 07       		.uleb128 0x7
 783 03f3 38050000 		.4byte	.LASF56
 784 03f7 09       		.byte	0x9
 785 03f8 72       		.byte	0x72
 786 03f9 19       		.byte	0x19
 787 03fa 2B010000 		.4byte	0x12b
 788 03fe 0C       		.byte	0xc
 789 03ff 00       		.byte	0
 790 0400 03       		.uleb128 0x3
 791 0401 96050000 		.4byte	.LASF57
 792 0405 09       		.byte	0x9
 793 0406 73       		.byte	0x73
 794 0407 03       		.byte	0x3
 795 0408 C2030000 		.4byte	0x3c2
 796 040c 0E       		.uleb128 0xe
 797 040d 4B000000 		.4byte	.LASF65
 798 0411 09       		.byte	0x9
ARM GAS  /var/folders/l5/0x54b2c10074c8bt31ycjvl80000gp/T//ccZpBjn1.s 			page 15


 799 0412 D1       		.byte	0xd1
 800 0413 0F       		.byte	0xf
 801 0414 00040000 		.4byte	0x400
 802 0418 09       		.uleb128 0x9
 803 0419 1C       		.byte	0x1c
 804 041a 0A       		.byte	0xa
 805 041b 57       		.byte	0x57
 806 041c 09       		.byte	0x9
 807 041d 70040000 		.4byte	0x470
 808 0421 07       		.uleb128 0x7
 809 0422 90040000 		.4byte	.LASF58
 810 0426 0A       		.byte	0xa
 811 0427 58       		.byte	0x58
 812 0428 19       		.byte	0x19
 813 0429 5E020000 		.4byte	0x25e
 814 042d 00       		.byte	0
 815 042e 07       		.uleb128 0x7
 816 042f 0B040000 		.4byte	.LASF59
 817 0433 0A       		.byte	0xa
 818 0434 59       		.byte	0x59
 819 0435 19       		.byte	0x19
 820 0436 FB000000 		.4byte	0xfb
 821 043a 08       		.byte	0x8
 822 043b 07       		.uleb128 0x7
 823 043c 63030000 		.4byte	.LASF60
 824 0440 0A       		.byte	0xa
 825 0441 5B       		.byte	0x5b
 826 0442 19       		.byte	0x19
 827 0443 23030000 		.4byte	0x323
 828 0447 0C       		.byte	0xc
 829 0448 07       		.uleb128 0x7
 830 0449 0A020000 		.4byte	.LASF61
 831 044d 0A       		.byte	0xa
 832 044e 5E       		.byte	0x5e
 833 044f 1A       		.byte	0x1a
 834 0450 58020000 		.4byte	0x258
 835 0454 10       		.byte	0x10
 836 0455 07       		.uleb128 0x7
 837 0456 88030000 		.4byte	.LASF62
 838 045a 0A       		.byte	0xa
 839 045b 5F       		.byte	0x5f
 840 045c 1A       		.byte	0x1a
 841 045d 58020000 		.4byte	0x258
 842 0461 14       		.byte	0x14
 843 0462 07       		.uleb128 0x7
 844 0463 7E030000 		.4byte	.LASF63
 845 0467 0A       		.byte	0xa
 846 0468 62       		.byte	0x62
 847 0469 1A       		.byte	0x1a
 848 046a 58020000 		.4byte	0x258
 849 046e 18       		.byte	0x18
 850 046f 00       		.byte	0
 851 0470 03       		.uleb128 0x3
 852 0471 12050000 		.4byte	.LASF64
 853 0475 0A       		.byte	0xa
 854 0476 64       		.byte	0x64
 855 0477 03       		.byte	0x3
ARM GAS  /var/folders/l5/0x54b2c10074c8bt31ycjvl80000gp/T//ccZpBjn1.s 			page 16


 856 0478 18040000 		.4byte	0x418
 857 047c 0E       		.uleb128 0xe
 858 047d 1C050000 		.4byte	.LASF66
 859 0481 0A       		.byte	0xa
 860 0482 68       		.byte	0x68
 861 0483 12       		.byte	0x12
 862 0484 70040000 		.4byte	0x470
 863 0488 06       		.uleb128 0x6
 864 0489 02030000 		.4byte	.LASF67
 865 048d 10       		.byte	0x10
 866 048e 0B       		.byte	0xb
 867 048f 25       		.byte	0x25
 868 0490 10       		.byte	0x10
 869 0491 BD040000 		.4byte	0x4bd
 870 0495 07       		.uleb128 0x7
 871 0496 F0000000 		.4byte	.LASF68
 872 049a 0B       		.byte	0xb
 873 049b 26       		.byte	0x26
 874 049c 19       		.byte	0x19
 875 049d 5E020000 		.4byte	0x25e
 876 04a1 00       		.byte	0
 877 04a2 07       		.uleb128 0x7
 878 04a3 9D050000 		.4byte	.LASF69
 879 04a7 0B       		.byte	0xb
 880 04a8 28       		.byte	0x28
 881 04a9 1A       		.byte	0x1a
 882 04aa 58020000 		.4byte	0x258
 883 04ae 08       		.byte	0x8
 884 04af 07       		.uleb128 0x7
 885 04b0 BA040000 		.4byte	.LASF70
 886 04b4 0B       		.byte	0xb
 887 04b5 2A       		.byte	0x2a
 888 04b6 1A       		.byte	0x1a
 889 04b7 BD040000 		.4byte	0x4bd
 890 04bb 0C       		.byte	0xc
 891 04bc 00       		.byte	0
 892 04bd 0A       		.uleb128 0xa
 893 04be 04       		.byte	0x4
 894 04bf 88040000 		.4byte	0x488
 895 04c3 03       		.uleb128 0x3
 896 04c4 02030000 		.4byte	.LASF67
 897 04c8 0B       		.byte	0xb
 898 04c9 2C       		.byte	0x2c
 899 04ca 03       		.byte	0x3
 900 04cb 88040000 		.4byte	0x488
 901 04cf 03       		.uleb128 0x3
 902 04d0 52000000 		.4byte	.LASF71
 903 04d4 0C       		.byte	0xc
 904 04d5 25       		.byte	0x25
 905 04d6 11       		.byte	0x11
 906 04d7 DB040000 		.4byte	0x4db
 907 04db 0A       		.uleb128 0xa
 908 04dc 04       		.byte	0x4
 909 04dd E1040000 		.4byte	0x4e1
 910 04e1 0F       		.uleb128 0xf
 911 04e2 A5020000 		.4byte	0x2a5
 912 04e6 F0040000 		.4byte	0x4f0
ARM GAS  /var/folders/l5/0x54b2c10074c8bt31ycjvl80000gp/T//ccZpBjn1.s 			page 17


 913 04ea 0D       		.uleb128 0xd
 914 04eb 2C000000 		.4byte	0x2c
 915 04ef 00       		.byte	0
 916 04f0 03       		.uleb128 0x3
 917 04f1 90030000 		.4byte	.LASF72
 918 04f5 0D       		.byte	0xd
 919 04f6 2D       		.byte	0x2d
 920 04f7 1C       		.byte	0x1c
 921 04f8 FC040000 		.4byte	0x4fc
 922 04fc 06       		.uleb128 0x6
 923 04fd B5050000 		.4byte	.LASF73
 924 0501 1C       		.byte	0x1c
 925 0502 0D       		.byte	0xd
 926 0503 40       		.byte	0x40
 927 0504 08       		.byte	0x8
 928 0505 31050000 		.4byte	0x531
 929 0509 07       		.uleb128 0x7
 930 050a D8030000 		.4byte	.LASF74
 931 050e 0D       		.byte	0xd
 932 050f 41       		.byte	0x41
 933 0510 19       		.byte	0x19
 934 0511 CF040000 		.4byte	0x4cf
 935 0515 00       		.byte	0
 936 0516 07       		.uleb128 0x7
 937 0517 8D000000 		.4byte	.LASF75
 938 051b 0D       		.byte	0xd
 939 051c 43       		.byte	0x43
 940 051d 19       		.byte	0x19
 941 051e 53050000 		.4byte	0x553
 942 0522 04       		.byte	0x4
 943 0523 07       		.uleb128 0x7
 944 0524 CD000000 		.4byte	.LASF76
 945 0528 0D       		.byte	0xd
 946 0529 45       		.byte	0x45
 947 052a 19       		.byte	0x19
 948 052b C3040000 		.4byte	0x4c3
 949 052f 0C       		.byte	0xc
 950 0530 00       		.byte	0
 951 0531 10       		.uleb128 0x10
 952 0532 04       		.byte	0x4
 953 0533 0D       		.byte	0xd
 954 0534 35       		.byte	0x35
 955 0535 05       		.byte	0x5
 956 0536 53050000 		.4byte	0x553
 957 053a 11       		.uleb128 0x11
 958 053b 9A000000 		.4byte	.LASF77
 959 053f 0D       		.byte	0xd
 960 0540 36       		.byte	0x36
 961 0541 1A       		.byte	0x1a
 962 0542 77050000 		.4byte	0x577
 963 0546 11       		.uleb128 0x11
 964 0547 A5040000 		.4byte	.LASF78
 965 054b 0D       		.byte	0xd
 966 054c 37       		.byte	0x37
 967 054d 1A       		.byte	0x1a
 968 054e 7D050000 		.4byte	0x57d
 969 0552 00       		.byte	0
ARM GAS  /var/folders/l5/0x54b2c10074c8bt31ycjvl80000gp/T//ccZpBjn1.s 			page 18


 970 0553 12       		.uleb128 0x12
 971 0554 12040000 		.4byte	.LASF120
 972 0558 08       		.byte	0x8
 973 0559 0D       		.byte	0xd
 974 055a 32       		.byte	0x32
 975 055b 07       		.byte	0x7
 976 055c 77050000 		.4byte	0x577
 977 0560 11       		.uleb128 0x11
 978 0561 8B010000 		.4byte	.LASF79
 979 0565 0D       		.byte	0xd
 980 0566 33       		.byte	0x33
 981 0567 0E       		.byte	0xe
 982 0568 8D020000 		.4byte	0x28d
 983 056c 13       		.uleb128 0x13
 984 056d 6800     		.ascii	"h\000"
 985 056f 0D       		.byte	0xd
 986 0570 3A       		.byte	0x3a
 987 0571 05       		.byte	0x5
 988 0572 83050000 		.4byte	0x583
 989 0576 00       		.byte	0
 990 0577 0A       		.uleb128 0xa
 991 0578 04       		.byte	0x4
 992 0579 53050000 		.4byte	0x553
 993 057d 0A       		.uleb128 0xa
 994 057e 04       		.byte	0x4
 995 057f F0040000 		.4byte	0x4f0
 996 0583 09       		.uleb128 0x9
 997 0584 08       		.byte	0x8
 998 0585 0D       		.byte	0xd
 999 0586 34       		.byte	0x34
 1000 0587 03       		.byte	0x3
 1001 0588 A5050000 		.4byte	0x5a5
 1002 058c 08       		.uleb128 0x8
 1003 058d 7500     		.ascii	"u\000"
 1004 058f 0D       		.byte	0xd
 1005 0590 38       		.byte	0x38
 1006 0591 07       		.byte	0x7
 1007 0592 31050000 		.4byte	0x531
 1008 0596 00       		.byte	0
 1009 0597 07       		.uleb128 0x7
 1010 0598 DF010000 		.4byte	.LASF80
 1011 059c 0D       		.byte	0xd
 1012 059d 39       		.byte	0x39
 1013 059e 19       		.byte	0x19
 1014 059f 2C000000 		.4byte	0x2c
 1015 05a3 04       		.byte	0x4
 1016 05a4 00       		.byte	0
 1017 05a5 10       		.uleb128 0x10
 1018 05a6 04       		.byte	0x4
 1019 05a7 07       		.byte	0x7
 1020 05a8 8F       		.byte	0x8f
 1021 05a9 03       		.byte	0x3
 1022 05aa DF050000 		.4byte	0x5df
 1023 05ae 11       		.uleb128 0x11
 1024 05af 3A000000 		.4byte	.LASF81
 1025 05b3 07       		.byte	0x7
 1026 05b4 96       		.byte	0x96
ARM GAS  /var/folders/l5/0x54b2c10074c8bt31ycjvl80000gp/T//ccZpBjn1.s 			page 19


 1027 05b5 19       		.byte	0x19
 1028 05b6 07010000 		.4byte	0x107
 1029 05ba 11       		.uleb128 0x11
 1030 05bb 84000000 		.4byte	.LASF82
 1031 05bf 07       		.byte	0x7
 1032 05c0 9D       		.byte	0x9d
 1033 05c1 19       		.byte	0x19
 1034 05c2 07010000 		.4byte	0x107
 1035 05c6 11       		.uleb128 0x11
 1036 05c7 2A050000 		.4byte	.LASF83
 1037 05cb 07       		.byte	0x7
 1038 05cc A4       		.byte	0xa4
 1039 05cd 1A       		.byte	0x1a
 1040 05ce A5020000 		.4byte	0x2a5
 1041 05d2 11       		.uleb128 0x11
 1042 05d3 1E040000 		.4byte	.LASF84
 1043 05d7 07       		.byte	0x7
 1044 05d8 AB       		.byte	0xab
 1045 05d9 19       		.byte	0x19
 1046 05da 13010000 		.4byte	0x113
 1047 05de 00       		.byte	0
 1048 05df 0A       		.uleb128 0xa
 1049 05e0 04       		.byte	0x4
 1050 05e1 EC050000 		.4byte	0x5ec
 1051 05e5 04       		.uleb128 0x4
 1052 05e6 01       		.byte	0x1
 1053 05e7 08       		.byte	0x8
 1054 05e8 AA040000 		.4byte	.LASF85
 1055 05ec 14       		.uleb128 0x14
 1056 05ed E5050000 		.4byte	0x5e5
 1057 05f1 0A       		.uleb128 0xa
 1058 05f2 04       		.byte	0x4
 1059 05f3 C3040000 		.4byte	0x4c3
 1060 05f7 03       		.uleb128 0x3
 1061 05f8 00000000 		.4byte	.LASF86
 1062 05fc 07       		.byte	0x7
 1063 05fd DE       		.byte	0xde
 1064 05fe 11       		.byte	0x11
 1065 05ff 03060000 		.4byte	0x603
 1066 0603 0A       		.uleb128 0xa
 1067 0604 04       		.byte	0x4
 1068 0605 09060000 		.4byte	0x609
 1069 0609 0F       		.uleb128 0xf
 1070 060a 07010000 		.4byte	0x107
 1071 060e 18060000 		.4byte	0x618
 1072 0612 0D       		.uleb128 0xd
 1073 0613 A5020000 		.4byte	0x2a5
 1074 0617 00       		.byte	0
 1075 0618 09       		.uleb128 0x9
 1076 0619 16       		.byte	0x16
 1077 061a 0E       		.byte	0xe
 1078 061b 25       		.byte	0x25
 1079 061c 09       		.byte	0x9
 1080 061d 0C070000 		.4byte	0x70c
 1081 0621 07       		.uleb128 0x7
 1082 0622 03010000 		.4byte	.LASF87
 1083 0626 0E       		.byte	0xe
ARM GAS  /var/folders/l5/0x54b2c10074c8bt31ycjvl80000gp/T//ccZpBjn1.s 			page 20


 1084 0627 26       		.byte	0x26
 1085 0628 0D       		.byte	0xd
 1086 0629 0C070000 		.4byte	0x70c
 1087 062d 00       		.byte	0
 1088 062e 07       		.uleb128 0x7
 1089 062f 1F030000 		.4byte	.LASF88
 1090 0633 0E       		.byte	0xe
 1091 0634 27       		.byte	0x27
 1092 0635 0D       		.byte	0xd
 1093 0636 A7000000 		.4byte	0xa7
 1094 063a 04       		.byte	0x4
 1095 063b 07       		.uleb128 0x7
 1096 063c 76030000 		.4byte	.LASF89
 1097 0640 0E       		.byte	0xe
 1098 0641 28       		.byte	0x28
 1099 0642 0D       		.byte	0xd
 1100 0643 A7000000 		.4byte	0xa7
 1101 0647 05       		.byte	0x5
 1102 0648 07       		.uleb128 0x7
 1103 0649 43050000 		.4byte	.LASF90
 1104 064d 0E       		.byte	0xe
 1105 064e 29       		.byte	0x29
 1106 064f 0D       		.byte	0xd
 1107 0650 B3000000 		.4byte	0xb3
 1108 0654 06       		.byte	0x6
 1109 0655 07       		.uleb128 0x7
 1110 0656 A3030000 		.4byte	.LASF91
 1111 065a 0E       		.byte	0xe
 1112 065b 2A       		.byte	0x2a
 1113 065c 0D       		.byte	0xd
 1114 065d A7000000 		.4byte	0xa7
 1115 0661 08       		.byte	0x8
 1116 0662 07       		.uleb128 0x7
 1117 0663 43030000 		.4byte	.LASF92
 1118 0667 0E       		.byte	0xe
 1119 0668 2B       		.byte	0x2b
 1120 0669 0D       		.byte	0xd
 1121 066a A7000000 		.4byte	0xa7
 1122 066e 09       		.byte	0x9
 1123 066f 07       		.uleb128 0x7
 1124 0670 76000000 		.4byte	.LASF93
 1125 0674 0E       		.byte	0xe
 1126 0675 2C       		.byte	0x2c
 1127 0676 0D       		.byte	0xd
 1128 0677 A7000000 		.4byte	0xa7
 1129 067b 0A       		.byte	0xa
 1130 067c 07       		.uleb128 0x7
 1131 067d 84040000 		.4byte	.LASF94
 1132 0681 0E       		.byte	0xe
 1133 0682 2D       		.byte	0x2d
 1134 0683 0D       		.byte	0xd
 1135 0684 A7000000 		.4byte	0xa7
 1136 0688 0B       		.byte	0xb
 1137 0689 07       		.uleb128 0x7
 1138 068a 00050000 		.4byte	.LASF95
 1139 068e 0E       		.byte	0xe
 1140 068f 2E       		.byte	0x2e
ARM GAS  /var/folders/l5/0x54b2c10074c8bt31ycjvl80000gp/T//ccZpBjn1.s 			page 21


 1141 0690 0D       		.byte	0xd
 1142 0691 A7000000 		.4byte	0xa7
 1143 0695 0C       		.byte	0xc
 1144 0696 07       		.uleb128 0x7
 1145 0697 63040000 		.4byte	.LASF96
 1146 069b 0E       		.byte	0xe
 1147 069c 2F       		.byte	0x2f
 1148 069d 0D       		.byte	0xd
 1149 069e A7000000 		.4byte	0xa7
 1150 06a2 0D       		.byte	0xd
 1151 06a3 07       		.uleb128 0x7
 1152 06a4 A6010000 		.4byte	.LASF97
 1153 06a8 0E       		.byte	0xe
 1154 06a9 30       		.byte	0x30
 1155 06aa 0D       		.byte	0xd
 1156 06ab A7000000 		.4byte	0xa7
 1157 06af 0E       		.byte	0xe
 1158 06b0 07       		.uleb128 0x7
 1159 06b1 4F030000 		.4byte	.LASF98
 1160 06b5 0E       		.byte	0xe
 1161 06b6 31       		.byte	0x31
 1162 06b7 0D       		.byte	0xd
 1163 06b8 A7000000 		.4byte	0xa7
 1164 06bc 0F       		.byte	0xf
 1165 06bd 07       		.uleb128 0x7
 1166 06be D3000000 		.4byte	.LASF99
 1167 06c2 0E       		.byte	0xe
 1168 06c3 32       		.byte	0x32
 1169 06c4 0D       		.byte	0xd
 1170 06c5 A7000000 		.4byte	0xa7
 1171 06c9 10       		.byte	0x10
 1172 06ca 07       		.uleb128 0x7
 1173 06cb A6000000 		.4byte	.LASF100
 1174 06cf 0E       		.byte	0xe
 1175 06d0 34       		.byte	0x34
 1176 06d1 0D       		.byte	0xd
 1177 06d2 A7000000 		.4byte	0xa7
 1178 06d6 11       		.byte	0x11
 1179 06d7 07       		.uleb128 0x7
 1180 06d8 E3000000 		.4byte	.LASF101
 1181 06dc 0E       		.byte	0xe
 1182 06dd 35       		.byte	0x35
 1183 06de 0D       		.byte	0xd
 1184 06df A7000000 		.4byte	0xa7
 1185 06e3 12       		.byte	0x12
 1186 06e4 07       		.uleb128 0x7
 1187 06e5 27030000 		.4byte	.LASF102
 1188 06e9 0E       		.byte	0xe
 1189 06ea 36       		.byte	0x36
 1190 06eb 0D       		.byte	0xd
 1191 06ec A7000000 		.4byte	0xa7
 1192 06f0 13       		.byte	0x13
 1193 06f1 07       		.uleb128 0x7
 1194 06f2 2C040000 		.4byte	.LASF103
 1195 06f6 0E       		.byte	0xe
 1196 06f7 37       		.byte	0x37
 1197 06f8 0D       		.byte	0xd
ARM GAS  /var/folders/l5/0x54b2c10074c8bt31ycjvl80000gp/T//ccZpBjn1.s 			page 22


 1198 06f9 A7000000 		.4byte	0xa7
 1199 06fd 14       		.byte	0x14
 1200 06fe 07       		.uleb128 0x7
 1201 06ff FF030000 		.4byte	.LASF104
 1202 0703 0E       		.byte	0xe
 1203 0704 39       		.byte	0x39
 1204 0705 0D       		.byte	0xd
 1205 0706 A7000000 		.4byte	0xa7
 1206 070a 15       		.byte	0x15
 1207 070b 00       		.byte	0
 1208 070c 15       		.uleb128 0x15
 1209 070d E5050000 		.4byte	0x5e5
 1210 0711 1C070000 		.4byte	0x71c
 1211 0715 16       		.uleb128 0x16
 1212 0716 38000000 		.4byte	0x38
 1213 071a 03       		.byte	0x3
 1214 071b 00       		.byte	0
 1215 071c 03       		.uleb128 0x3
 1216 071d 4D010000 		.4byte	.LASF105
 1217 0721 0E       		.byte	0xe
 1218 0722 3A       		.byte	0x3a
 1219 0723 03       		.byte	0x3
 1220 0724 18060000 		.4byte	0x618
 1221 0728 14       		.uleb128 0x14
 1222 0729 1C070000 		.4byte	0x71c
 1223 072d 0E       		.uleb128 0xe
 1224 072e C5010000 		.4byte	.LASF106
 1225 0732 0E       		.byte	0xe
 1226 0733 77       		.byte	0x77
 1227 0734 1D       		.byte	0x1d
 1228 0735 28070000 		.4byte	0x728
 1229 0739 15       		.uleb128 0x15
 1230 073a 8D020000 		.4byte	0x28d
 1231 073e 49070000 		.4byte	0x749
 1232 0742 16       		.uleb128 0x16
 1233 0743 38000000 		.4byte	0x38
 1234 0747 26       		.byte	0x26
 1235 0748 00       		.byte	0
 1236 0749 0E       		.uleb128 0xe
 1237 074a 5F010000 		.4byte	.LASF107
 1238 074e 0F       		.byte	0xf
 1239 074f 82       		.byte	0x82
 1240 0750 08       		.byte	0x8
 1241 0751 39070000 		.4byte	0x739
 1242 0755 17       		.uleb128 0x17
 1243 0756 27010000 		.4byte	.LASF111
 1244 075a 01       		.byte	0x1
 1245 075b 7B       		.byte	0x7b
 1246 075c 09       		.byte	0x9
 1247 075d 58020000 		.4byte	0x258
 1248 0761 00000000 		.4byte	.LFB9
 1249 0765 60000000 		.4byte	.LFE9-.LFB9
 1250 0769 01       		.uleb128 0x1
 1251 076a 9C       		.byte	0x9c
 1252 076b 53080000 		.4byte	0x853
 1253 076f 18       		.uleb128 0x18
 1254 0770 94000000 		.4byte	.LASF108
ARM GAS  /var/folders/l5/0x54b2c10074c8bt31ycjvl80000gp/T//ccZpBjn1.s 			page 23


 1255 0774 01       		.byte	0x1
 1256 0775 7B       		.byte	0x7b
 1257 0776 29       		.byte	0x29
 1258 0777 7D050000 		.4byte	0x57d
 1259 077b 04000000 		.4byte	.LLST2
 1260 077f 00000000 		.4byte	.LVUS2
 1261 0783 18       		.uleb128 0x18
 1262 0784 DF010000 		.4byte	.LASF80
 1263 0788 01       		.byte	0x1
 1264 0789 7B       		.byte	0x7b
 1265 078a 37       		.byte	0x37
 1266 078b 2C000000 		.4byte	0x2c
 1267 078f 29000000 		.4byte	.LLST3
 1268 0793 25000000 		.4byte	.LVUS3
 1269 0797 18       		.uleb128 0x18
 1270 0798 35000000 		.4byte	.LASF109
 1271 079c 01       		.byte	0x1
 1272 079d 7C       		.byte	0x7c
 1273 079e 25       		.byte	0x25
 1274 079f FB000000 		.4byte	0xfb
 1275 07a3 4B000000 		.4byte	.LLST4
 1276 07a7 47000000 		.4byte	.LVUS4
 1277 07ab 19       		.uleb128 0x19
 1278 07ac 706600   		.ascii	"pf\000"
 1279 07af 01       		.byte	0x1
 1280 07b0 7C       		.byte	0x7c
 1281 07b1 33       		.byte	0x33
 1282 07b2 F7050000 		.4byte	0x5f7
 1283 07b6 6D000000 		.4byte	.LLST5
 1284 07ba 69000000 		.4byte	.LVUS5
 1285 07be 1A       		.uleb128 0x1a
 1286 07bf 61726700 		.ascii	"arg\000"
 1287 07c3 01       		.byte	0x1
 1288 07c4 7C       		.byte	0x7c
 1289 07c5 3D       		.byte	0x3d
 1290 07c6 A5020000 		.4byte	0x2a5
 1291 07ca 02       		.uleb128 0x2
 1292 07cb 91       		.byte	0x91
 1293 07cc 00       		.sleb128 0
 1294 07cd 1B       		.uleb128 0x1b
 1295 07ce 77737000 		.ascii	"wsp\000"
 1296 07d2 01       		.byte	0x1
 1297 07d3 7D       		.byte	0x7d
 1298 07d4 09       		.byte	0x9
 1299 07d5 A5020000 		.4byte	0x2a5
 1300 07d9 8F000000 		.4byte	.LLST6
 1301 07dd 8B000000 		.4byte	.LVUS6
 1302 07e1 1B       		.uleb128 0x1b
 1303 07e2 747000   		.ascii	"tp\000"
 1304 07e5 01       		.byte	0x1
 1305 07e6 7E       		.byte	0x7e
 1306 07e7 0B       		.byte	0xb
 1307 07e8 58020000 		.4byte	0x258
 1308 07ec B1000000 		.4byte	.LLST7
 1309 07f0 AD000000 		.4byte	.LVUS7
 1310 07f4 1C       		.uleb128 0x1c
 1311 07f5 18000000 		.4byte	.LVL7
ARM GAS  /var/folders/l5/0x54b2c10074c8bt31ycjvl80000gp/T//ccZpBjn1.s 			page 24


 1312 07f9 CA080000 		.4byte	0x8ca
 1313 07fd 0F080000 		.4byte	0x80f
 1314 0801 1D       		.uleb128 0x1d
 1315 0802 01       		.uleb128 0x1
 1316 0803 50       		.byte	0x50
 1317 0804 03       		.uleb128 0x3
 1318 0805 F3       		.byte	0xf3
 1319 0806 01       		.uleb128 0x1
 1320 0807 50       		.byte	0x50
 1321 0808 1D       		.uleb128 0x1d
 1322 0809 01       		.uleb128 0x1
 1323 080a 51       		.byte	0x51
 1324 080b 02       		.uleb128 0x2
 1325 080c 75       		.byte	0x75
 1326 080d 00       		.sleb128 0
 1327 080e 00       		.byte	0
 1328 080f 1C       		.uleb128 0x1c
 1329 0810 3C000000 		.4byte	.LVL8
 1330 0814 D6080000 		.4byte	0x8d6
 1331 0818 3D080000 		.4byte	0x83d
 1332 081c 1D       		.uleb128 0x1d
 1333 081d 01       		.uleb128 0x1
 1334 081e 50       		.byte	0x50
 1335 081f 02       		.uleb128 0x2
 1336 0820 74       		.byte	0x74
 1337 0821 00       		.sleb128 0
 1338 0822 1D       		.uleb128 0x1d
 1339 0823 01       		.uleb128 0x1
 1340 0824 51       		.byte	0x51
 1341 0825 02       		.uleb128 0x2
 1342 0826 75       		.byte	0x75
 1343 0827 00       		.sleb128 0
 1344 0828 1D       		.uleb128 0x1d
 1345 0829 01       		.uleb128 0x1
 1346 082a 52       		.byte	0x52
 1347 082b 02       		.uleb128 0x2
 1348 082c 76       		.byte	0x76
 1349 082d 00       		.sleb128 0
 1350 082e 1D       		.uleb128 0x1d
 1351 082f 01       		.uleb128 0x1
 1352 0830 53       		.byte	0x53
 1353 0831 02       		.uleb128 0x2
 1354 0832 77       		.byte	0x77
 1355 0833 00       		.sleb128 0
 1356 0834 1D       		.uleb128 0x1d
 1357 0835 02       		.uleb128 0x2
 1358 0836 7D       		.byte	0x7d
 1359 0837 00       		.sleb128 0
 1360 0838 03       		.uleb128 0x3
 1361 0839 91       		.byte	0x91
 1362 083a 78       		.sleb128 -8
 1363 083b 06       		.byte	0x6
 1364 083c 00       		.byte	0
 1365 083d 1E       		.uleb128 0x1e
 1366 083e 50000000 		.4byte	.LVL10
 1367 0842 E3080000 		.4byte	0x8e3
 1368 0846 1D       		.uleb128 0x1d
ARM GAS  /var/folders/l5/0x54b2c10074c8bt31ycjvl80000gp/T//ccZpBjn1.s 			page 25


 1369 0847 01       		.uleb128 0x1
 1370 0848 50       		.byte	0x50
 1371 0849 02       		.uleb128 0x2
 1372 084a 74       		.byte	0x74
 1373 084b 00       		.sleb128 0
 1374 084c 1D       		.uleb128 0x1d
 1375 084d 01       		.uleb128 0x1
 1376 084e 51       		.byte	0x51
 1377 084f 01       		.uleb128 0x1
 1378 0850 30       		.byte	0x30
 1379 0851 00       		.byte	0
 1380 0852 00       		.byte	0
 1381 0853 1F       		.uleb128 0x1f
 1382 0854 43040000 		.4byte	.LASF121
 1383 0858 01       		.byte	0x1
 1384 0859 43       		.byte	0x43
 1385 085a 06       		.byte	0x6
 1386 085b 00000000 		.4byte	.LFB8
 1387 085f 50000000 		.4byte	.LFE8-.LFB8
 1388 0863 01       		.uleb128 0x1
 1389 0864 9C       		.byte	0x9c
 1390 0865 A2080000 		.4byte	0x8a2
 1391 0869 19       		.uleb128 0x19
 1392 086a 747000   		.ascii	"tp\000"
 1393 086d 01       		.byte	0x1
 1394 086e 43       		.byte	0x43
 1395 086f 1B       		.byte	0x1b
 1396 0870 58020000 		.4byte	0x258
 1397 0874 D3000000 		.4byte	.LLST0
 1398 0878 CF000000 		.4byte	.LVUS0
 1399 087c 20       		.uleb128 0x20
 1400 087d AE030000 		.4byte	.LASF110
 1401 0881 01       		.byte	0x1
 1402 0882 44       		.byte	0x44
 1403 0883 0B       		.byte	0xb
 1404 0884 EF000000 		.4byte	0xef
 1405 0888 F8000000 		.4byte	.LLST1
 1406 088c F4000000 		.4byte	.LVUS1
 1407 0890 21       		.uleb128 0x21
 1408 0891 50000000 		.4byte	.LVL5
 1409 0895 EF080000 		.4byte	0x8ef
 1410 0899 1D       		.uleb128 0x1d
 1411 089a 01       		.uleb128 0x1
 1412 089b 50       		.byte	0x50
 1413 089c 03       		.uleb128 0x3
 1414 089d F3       		.byte	0xf3
 1415 089e 01       		.uleb128 0x1
 1416 089f 50       		.byte	0x50
 1417 08a0 00       		.byte	0
 1418 08a1 00       		.byte	0
 1419 08a2 17       		.uleb128 0x17
 1420 08a3 08030000 		.4byte	.LASF112
 1421 08a7 01       		.byte	0x1
 1422 08a8 2D       		.byte	0x2d
 1423 08a9 09       		.byte	0x9
 1424 08aa 58020000 		.4byte	0x258
 1425 08ae 00000000 		.4byte	.LFB7
ARM GAS  /var/folders/l5/0x54b2c10074c8bt31ycjvl80000gp/T//ccZpBjn1.s 			page 26


 1426 08b2 18000000 		.4byte	.LFE7-.LFB7
 1427 08b6 01       		.uleb128 0x1
 1428 08b7 9C       		.byte	0x9c
 1429 08b8 CA080000 		.4byte	0x8ca
 1430 08bc 1A       		.uleb128 0x1a
 1431 08bd 747000   		.ascii	"tp\000"
 1432 08c0 01       		.byte	0x1
 1433 08c1 2D       		.byte	0x2d
 1434 08c2 1D       		.byte	0x1d
 1435 08c3 58020000 		.4byte	0x258
 1436 08c7 01       		.uleb128 0x1
 1437 08c8 50       		.byte	0x50
 1438 08c9 00       		.byte	0
 1439 08ca 22       		.uleb128 0x22
 1440 08cb 57040000 		.4byte	.LASF113
 1441 08cf 57040000 		.4byte	.LASF113
 1442 08d3 0D       		.byte	0xd
 1443 08d4 52       		.byte	0x52
 1444 08d5 09       		.byte	0x9
 1445 08d6 23       		.uleb128 0x23
 1446 08d7 11010000 		.4byte	.LASF114
 1447 08db 11010000 		.4byte	.LASF114
 1448 08df 07       		.byte	0x7
 1449 08e0 6201     		.2byte	0x162
 1450 08e2 0B       		.byte	0xb
 1451 08e3 22       		.uleb128 0x22
 1452 08e4 F7010000 		.4byte	.LASF115
 1453 08e8 F7010000 		.4byte	.LASF115
 1454 08ec 0A       		.byte	0xa
 1455 08ed 92       		.byte	0x92
 1456 08ee 08       		.byte	0x8
 1457 08ef 22       		.uleb128 0x22
 1458 08f0 F8000000 		.4byte	.LASF116
 1459 08f4 F8000000 		.4byte	.LASF116
 1460 08f8 0D       		.byte	0xd
 1461 08f9 53       		.byte	0x53
 1462 08fa 08       		.byte	0x8
 1463 08fb 00       		.byte	0
 1464              		.section	.debug_abbrev,"",%progbits
 1465              	.Ldebug_abbrev0:
 1466 0000 01       		.uleb128 0x1
 1467 0001 11       		.uleb128 0x11
 1468 0002 01       		.byte	0x1
 1469 0003 25       		.uleb128 0x25
 1470 0004 0E       		.uleb128 0xe
 1471 0005 13       		.uleb128 0x13
 1472 0006 0B       		.uleb128 0xb
 1473 0007 03       		.uleb128 0x3
 1474 0008 0E       		.uleb128 0xe
 1475 0009 1B       		.uleb128 0x1b
 1476 000a 0E       		.uleb128 0xe
 1477 000b 55       		.uleb128 0x55
 1478 000c 17       		.uleb128 0x17
 1479 000d 11       		.uleb128 0x11
 1480 000e 01       		.uleb128 0x1
 1481 000f 10       		.uleb128 0x10
 1482 0010 17       		.uleb128 0x17
ARM GAS  /var/folders/l5/0x54b2c10074c8bt31ycjvl80000gp/T//ccZpBjn1.s 			page 27


 1483 0011 00       		.byte	0
 1484 0012 00       		.byte	0
 1485 0013 02       		.uleb128 0x2
 1486 0014 24       		.uleb128 0x24
 1487 0015 00       		.byte	0
 1488 0016 0B       		.uleb128 0xb
 1489 0017 0B       		.uleb128 0xb
 1490 0018 3E       		.uleb128 0x3e
 1491 0019 0B       		.uleb128 0xb
 1492 001a 03       		.uleb128 0x3
 1493 001b 08       		.uleb128 0x8
 1494 001c 00       		.byte	0
 1495 001d 00       		.byte	0
 1496 001e 03       		.uleb128 0x3
 1497 001f 16       		.uleb128 0x16
 1498 0020 00       		.byte	0
 1499 0021 03       		.uleb128 0x3
 1500 0022 0E       		.uleb128 0xe
 1501 0023 3A       		.uleb128 0x3a
 1502 0024 0B       		.uleb128 0xb
 1503 0025 3B       		.uleb128 0x3b
 1504 0026 0B       		.uleb128 0xb
 1505 0027 39       		.uleb128 0x39
 1506 0028 0B       		.uleb128 0xb
 1507 0029 49       		.uleb128 0x49
 1508 002a 13       		.uleb128 0x13
 1509 002b 00       		.byte	0
 1510 002c 00       		.byte	0
 1511 002d 04       		.uleb128 0x4
 1512 002e 24       		.uleb128 0x24
 1513 002f 00       		.byte	0
 1514 0030 0B       		.uleb128 0xb
 1515 0031 0B       		.uleb128 0xb
 1516 0032 3E       		.uleb128 0x3e
 1517 0033 0B       		.uleb128 0xb
 1518 0034 03       		.uleb128 0x3
 1519 0035 0E       		.uleb128 0xe
 1520 0036 00       		.byte	0
 1521 0037 00       		.byte	0
 1522 0038 05       		.uleb128 0x5
 1523 0039 35       		.uleb128 0x35
 1524 003a 00       		.byte	0
 1525 003b 49       		.uleb128 0x49
 1526 003c 13       		.uleb128 0x13
 1527 003d 00       		.byte	0
 1528 003e 00       		.byte	0
 1529 003f 06       		.uleb128 0x6
 1530 0040 13       		.uleb128 0x13
 1531 0041 01       		.byte	0x1
 1532 0042 03       		.uleb128 0x3
 1533 0043 0E       		.uleb128 0xe
 1534 0044 0B       		.uleb128 0xb
 1535 0045 0B       		.uleb128 0xb
 1536 0046 3A       		.uleb128 0x3a
 1537 0047 0B       		.uleb128 0xb
 1538 0048 3B       		.uleb128 0x3b
 1539 0049 0B       		.uleb128 0xb
ARM GAS  /var/folders/l5/0x54b2c10074c8bt31ycjvl80000gp/T//ccZpBjn1.s 			page 28


 1540 004a 39       		.uleb128 0x39
 1541 004b 0B       		.uleb128 0xb
 1542 004c 01       		.uleb128 0x1
 1543 004d 13       		.uleb128 0x13
 1544 004e 00       		.byte	0
 1545 004f 00       		.byte	0
 1546 0050 07       		.uleb128 0x7
 1547 0051 0D       		.uleb128 0xd
 1548 0052 00       		.byte	0
 1549 0053 03       		.uleb128 0x3
 1550 0054 0E       		.uleb128 0xe
 1551 0055 3A       		.uleb128 0x3a
 1552 0056 0B       		.uleb128 0xb
 1553 0057 3B       		.uleb128 0x3b
 1554 0058 0B       		.uleb128 0xb
 1555 0059 39       		.uleb128 0x39
 1556 005a 0B       		.uleb128 0xb
 1557 005b 49       		.uleb128 0x49
 1558 005c 13       		.uleb128 0x13
 1559 005d 38       		.uleb128 0x38
 1560 005e 0B       		.uleb128 0xb
 1561 005f 00       		.byte	0
 1562 0060 00       		.byte	0
 1563 0061 08       		.uleb128 0x8
 1564 0062 0D       		.uleb128 0xd
 1565 0063 00       		.byte	0
 1566 0064 03       		.uleb128 0x3
 1567 0065 08       		.uleb128 0x8
 1568 0066 3A       		.uleb128 0x3a
 1569 0067 0B       		.uleb128 0xb
 1570 0068 3B       		.uleb128 0x3b
 1571 0069 0B       		.uleb128 0xb
 1572 006a 39       		.uleb128 0x39
 1573 006b 0B       		.uleb128 0xb
 1574 006c 49       		.uleb128 0x49
 1575 006d 13       		.uleb128 0x13
 1576 006e 38       		.uleb128 0x38
 1577 006f 0B       		.uleb128 0xb
 1578 0070 00       		.byte	0
 1579 0071 00       		.byte	0
 1580 0072 09       		.uleb128 0x9
 1581 0073 13       		.uleb128 0x13
 1582 0074 01       		.byte	0x1
 1583 0075 0B       		.uleb128 0xb
 1584 0076 0B       		.uleb128 0xb
 1585 0077 3A       		.uleb128 0x3a
 1586 0078 0B       		.uleb128 0xb
 1587 0079 3B       		.uleb128 0x3b
 1588 007a 0B       		.uleb128 0xb
 1589 007b 39       		.uleb128 0x39
 1590 007c 0B       		.uleb128 0xb
 1591 007d 01       		.uleb128 0x1
 1592 007e 13       		.uleb128 0x13
 1593 007f 00       		.byte	0
 1594 0080 00       		.byte	0
 1595 0081 0A       		.uleb128 0xa
 1596 0082 0F       		.uleb128 0xf
ARM GAS  /var/folders/l5/0x54b2c10074c8bt31ycjvl80000gp/T//ccZpBjn1.s 			page 29


 1597 0083 00       		.byte	0
 1598 0084 0B       		.uleb128 0xb
 1599 0085 0B       		.uleb128 0xb
 1600 0086 49       		.uleb128 0x49
 1601 0087 13       		.uleb128 0x13
 1602 0088 00       		.byte	0
 1603 0089 00       		.byte	0
 1604 008a 0B       		.uleb128 0xb
 1605 008b 0F       		.uleb128 0xf
 1606 008c 00       		.byte	0
 1607 008d 0B       		.uleb128 0xb
 1608 008e 0B       		.uleb128 0xb
 1609 008f 00       		.byte	0
 1610 0090 00       		.byte	0
 1611 0091 0C       		.uleb128 0xc
 1612 0092 15       		.uleb128 0x15
 1613 0093 01       		.byte	0x1
 1614 0094 27       		.uleb128 0x27
 1615 0095 19       		.uleb128 0x19
 1616 0096 01       		.uleb128 0x1
 1617 0097 13       		.uleb128 0x13
 1618 0098 00       		.byte	0
 1619 0099 00       		.byte	0
 1620 009a 0D       		.uleb128 0xd
 1621 009b 05       		.uleb128 0x5
 1622 009c 00       		.byte	0
 1623 009d 49       		.uleb128 0x49
 1624 009e 13       		.uleb128 0x13
 1625 009f 00       		.byte	0
 1626 00a0 00       		.byte	0
 1627 00a1 0E       		.uleb128 0xe
 1628 00a2 34       		.uleb128 0x34
 1629 00a3 00       		.byte	0
 1630 00a4 03       		.uleb128 0x3
 1631 00a5 0E       		.uleb128 0xe
 1632 00a6 3A       		.uleb128 0x3a
 1633 00a7 0B       		.uleb128 0xb
 1634 00a8 3B       		.uleb128 0x3b
 1635 00a9 0B       		.uleb128 0xb
 1636 00aa 39       		.uleb128 0x39
 1637 00ab 0B       		.uleb128 0xb
 1638 00ac 49       		.uleb128 0x49
 1639 00ad 13       		.uleb128 0x13
 1640 00ae 3F       		.uleb128 0x3f
 1641 00af 19       		.uleb128 0x19
 1642 00b0 3C       		.uleb128 0x3c
 1643 00b1 19       		.uleb128 0x19
 1644 00b2 00       		.byte	0
 1645 00b3 00       		.byte	0
 1646 00b4 0F       		.uleb128 0xf
 1647 00b5 15       		.uleb128 0x15
 1648 00b6 01       		.byte	0x1
 1649 00b7 27       		.uleb128 0x27
 1650 00b8 19       		.uleb128 0x19
 1651 00b9 49       		.uleb128 0x49
 1652 00ba 13       		.uleb128 0x13
 1653 00bb 01       		.uleb128 0x1
ARM GAS  /var/folders/l5/0x54b2c10074c8bt31ycjvl80000gp/T//ccZpBjn1.s 			page 30


 1654 00bc 13       		.uleb128 0x13
 1655 00bd 00       		.byte	0
 1656 00be 00       		.byte	0
 1657 00bf 10       		.uleb128 0x10
 1658 00c0 17       		.uleb128 0x17
 1659 00c1 01       		.byte	0x1
 1660 00c2 0B       		.uleb128 0xb
 1661 00c3 0B       		.uleb128 0xb
 1662 00c4 3A       		.uleb128 0x3a
 1663 00c5 0B       		.uleb128 0xb
 1664 00c6 3B       		.uleb128 0x3b
 1665 00c7 0B       		.uleb128 0xb
 1666 00c8 39       		.uleb128 0x39
 1667 00c9 0B       		.uleb128 0xb
 1668 00ca 01       		.uleb128 0x1
 1669 00cb 13       		.uleb128 0x13
 1670 00cc 00       		.byte	0
 1671 00cd 00       		.byte	0
 1672 00ce 11       		.uleb128 0x11
 1673 00cf 0D       		.uleb128 0xd
 1674 00d0 00       		.byte	0
 1675 00d1 03       		.uleb128 0x3
 1676 00d2 0E       		.uleb128 0xe
 1677 00d3 3A       		.uleb128 0x3a
 1678 00d4 0B       		.uleb128 0xb
 1679 00d5 3B       		.uleb128 0x3b
 1680 00d6 0B       		.uleb128 0xb
 1681 00d7 39       		.uleb128 0x39
 1682 00d8 0B       		.uleb128 0xb
 1683 00d9 49       		.uleb128 0x49
 1684 00da 13       		.uleb128 0x13
 1685 00db 00       		.byte	0
 1686 00dc 00       		.byte	0
 1687 00dd 12       		.uleb128 0x12
 1688 00de 17       		.uleb128 0x17
 1689 00df 01       		.byte	0x1
 1690 00e0 03       		.uleb128 0x3
 1691 00e1 0E       		.uleb128 0xe
 1692 00e2 0B       		.uleb128 0xb
 1693 00e3 0B       		.uleb128 0xb
 1694 00e4 3A       		.uleb128 0x3a
 1695 00e5 0B       		.uleb128 0xb
 1696 00e6 3B       		.uleb128 0x3b
 1697 00e7 0B       		.uleb128 0xb
 1698 00e8 39       		.uleb128 0x39
 1699 00e9 0B       		.uleb128 0xb
 1700 00ea 01       		.uleb128 0x1
 1701 00eb 13       		.uleb128 0x13
 1702 00ec 00       		.byte	0
 1703 00ed 00       		.byte	0
 1704 00ee 13       		.uleb128 0x13
 1705 00ef 0D       		.uleb128 0xd
 1706 00f0 00       		.byte	0
 1707 00f1 03       		.uleb128 0x3
 1708 00f2 08       		.uleb128 0x8
 1709 00f3 3A       		.uleb128 0x3a
 1710 00f4 0B       		.uleb128 0xb
ARM GAS  /var/folders/l5/0x54b2c10074c8bt31ycjvl80000gp/T//ccZpBjn1.s 			page 31


 1711 00f5 3B       		.uleb128 0x3b
 1712 00f6 0B       		.uleb128 0xb
 1713 00f7 39       		.uleb128 0x39
 1714 00f8 0B       		.uleb128 0xb
 1715 00f9 49       		.uleb128 0x49
 1716 00fa 13       		.uleb128 0x13
 1717 00fb 00       		.byte	0
 1718 00fc 00       		.byte	0
 1719 00fd 14       		.uleb128 0x14
 1720 00fe 26       		.uleb128 0x26
 1721 00ff 00       		.byte	0
 1722 0100 49       		.uleb128 0x49
 1723 0101 13       		.uleb128 0x13
 1724 0102 00       		.byte	0
 1725 0103 00       		.byte	0
 1726 0104 15       		.uleb128 0x15
 1727 0105 01       		.uleb128 0x1
 1728 0106 01       		.byte	0x1
 1729 0107 49       		.uleb128 0x49
 1730 0108 13       		.uleb128 0x13
 1731 0109 01       		.uleb128 0x1
 1732 010a 13       		.uleb128 0x13
 1733 010b 00       		.byte	0
 1734 010c 00       		.byte	0
 1735 010d 16       		.uleb128 0x16
 1736 010e 21       		.uleb128 0x21
 1737 010f 00       		.byte	0
 1738 0110 49       		.uleb128 0x49
 1739 0111 13       		.uleb128 0x13
 1740 0112 2F       		.uleb128 0x2f
 1741 0113 0B       		.uleb128 0xb
 1742 0114 00       		.byte	0
 1743 0115 00       		.byte	0
 1744 0116 17       		.uleb128 0x17
 1745 0117 2E       		.uleb128 0x2e
 1746 0118 01       		.byte	0x1
 1747 0119 3F       		.uleb128 0x3f
 1748 011a 19       		.uleb128 0x19
 1749 011b 03       		.uleb128 0x3
 1750 011c 0E       		.uleb128 0xe
 1751 011d 3A       		.uleb128 0x3a
 1752 011e 0B       		.uleb128 0xb
 1753 011f 3B       		.uleb128 0x3b
 1754 0120 0B       		.uleb128 0xb
 1755 0121 39       		.uleb128 0x39
 1756 0122 0B       		.uleb128 0xb
 1757 0123 27       		.uleb128 0x27
 1758 0124 19       		.uleb128 0x19
 1759 0125 49       		.uleb128 0x49
 1760 0126 13       		.uleb128 0x13
 1761 0127 11       		.uleb128 0x11
 1762 0128 01       		.uleb128 0x1
 1763 0129 12       		.uleb128 0x12
 1764 012a 06       		.uleb128 0x6
 1765 012b 40       		.uleb128 0x40
 1766 012c 18       		.uleb128 0x18
 1767 012d 9742     		.uleb128 0x2117
ARM GAS  /var/folders/l5/0x54b2c10074c8bt31ycjvl80000gp/T//ccZpBjn1.s 			page 32


 1768 012f 19       		.uleb128 0x19
 1769 0130 01       		.uleb128 0x1
 1770 0131 13       		.uleb128 0x13
 1771 0132 00       		.byte	0
 1772 0133 00       		.byte	0
 1773 0134 18       		.uleb128 0x18
 1774 0135 05       		.uleb128 0x5
 1775 0136 00       		.byte	0
 1776 0137 03       		.uleb128 0x3
 1777 0138 0E       		.uleb128 0xe
 1778 0139 3A       		.uleb128 0x3a
 1779 013a 0B       		.uleb128 0xb
 1780 013b 3B       		.uleb128 0x3b
 1781 013c 0B       		.uleb128 0xb
 1782 013d 39       		.uleb128 0x39
 1783 013e 0B       		.uleb128 0xb
 1784 013f 49       		.uleb128 0x49
 1785 0140 13       		.uleb128 0x13
 1786 0141 02       		.uleb128 0x2
 1787 0142 17       		.uleb128 0x17
 1788 0143 B742     		.uleb128 0x2137
 1789 0145 17       		.uleb128 0x17
 1790 0146 00       		.byte	0
 1791 0147 00       		.byte	0
 1792 0148 19       		.uleb128 0x19
 1793 0149 05       		.uleb128 0x5
 1794 014a 00       		.byte	0
 1795 014b 03       		.uleb128 0x3
 1796 014c 08       		.uleb128 0x8
 1797 014d 3A       		.uleb128 0x3a
 1798 014e 0B       		.uleb128 0xb
 1799 014f 3B       		.uleb128 0x3b
 1800 0150 0B       		.uleb128 0xb
 1801 0151 39       		.uleb128 0x39
 1802 0152 0B       		.uleb128 0xb
 1803 0153 49       		.uleb128 0x49
 1804 0154 13       		.uleb128 0x13
 1805 0155 02       		.uleb128 0x2
 1806 0156 17       		.uleb128 0x17
 1807 0157 B742     		.uleb128 0x2137
 1808 0159 17       		.uleb128 0x17
 1809 015a 00       		.byte	0
 1810 015b 00       		.byte	0
 1811 015c 1A       		.uleb128 0x1a
 1812 015d 05       		.uleb128 0x5
 1813 015e 00       		.byte	0
 1814 015f 03       		.uleb128 0x3
 1815 0160 08       		.uleb128 0x8
 1816 0161 3A       		.uleb128 0x3a
 1817 0162 0B       		.uleb128 0xb
 1818 0163 3B       		.uleb128 0x3b
 1819 0164 0B       		.uleb128 0xb
 1820 0165 39       		.uleb128 0x39
 1821 0166 0B       		.uleb128 0xb
 1822 0167 49       		.uleb128 0x49
 1823 0168 13       		.uleb128 0x13
 1824 0169 02       		.uleb128 0x2
ARM GAS  /var/folders/l5/0x54b2c10074c8bt31ycjvl80000gp/T//ccZpBjn1.s 			page 33


 1825 016a 18       		.uleb128 0x18
 1826 016b 00       		.byte	0
 1827 016c 00       		.byte	0
 1828 016d 1B       		.uleb128 0x1b
 1829 016e 34       		.uleb128 0x34
 1830 016f 00       		.byte	0
 1831 0170 03       		.uleb128 0x3
 1832 0171 08       		.uleb128 0x8
 1833 0172 3A       		.uleb128 0x3a
 1834 0173 0B       		.uleb128 0xb
 1835 0174 3B       		.uleb128 0x3b
 1836 0175 0B       		.uleb128 0xb
 1837 0176 39       		.uleb128 0x39
 1838 0177 0B       		.uleb128 0xb
 1839 0178 49       		.uleb128 0x49
 1840 0179 13       		.uleb128 0x13
 1841 017a 02       		.uleb128 0x2
 1842 017b 17       		.uleb128 0x17
 1843 017c B742     		.uleb128 0x2137
 1844 017e 17       		.uleb128 0x17
 1845 017f 00       		.byte	0
 1846 0180 00       		.byte	0
 1847 0181 1C       		.uleb128 0x1c
 1848 0182 898201   		.uleb128 0x4109
 1849 0185 01       		.byte	0x1
 1850 0186 11       		.uleb128 0x11
 1851 0187 01       		.uleb128 0x1
 1852 0188 31       		.uleb128 0x31
 1853 0189 13       		.uleb128 0x13
 1854 018a 01       		.uleb128 0x1
 1855 018b 13       		.uleb128 0x13
 1856 018c 00       		.byte	0
 1857 018d 00       		.byte	0
 1858 018e 1D       		.uleb128 0x1d
 1859 018f 8A8201   		.uleb128 0x410a
 1860 0192 00       		.byte	0
 1861 0193 02       		.uleb128 0x2
 1862 0194 18       		.uleb128 0x18
 1863 0195 9142     		.uleb128 0x2111
 1864 0197 18       		.uleb128 0x18
 1865 0198 00       		.byte	0
 1866 0199 00       		.byte	0
 1867 019a 1E       		.uleb128 0x1e
 1868 019b 898201   		.uleb128 0x4109
 1869 019e 01       		.byte	0x1
 1870 019f 11       		.uleb128 0x11
 1871 01a0 01       		.uleb128 0x1
 1872 01a1 31       		.uleb128 0x31
 1873 01a2 13       		.uleb128 0x13
 1874 01a3 00       		.byte	0
 1875 01a4 00       		.byte	0
 1876 01a5 1F       		.uleb128 0x1f
 1877 01a6 2E       		.uleb128 0x2e
 1878 01a7 01       		.byte	0x1
 1879 01a8 3F       		.uleb128 0x3f
 1880 01a9 19       		.uleb128 0x19
 1881 01aa 03       		.uleb128 0x3
ARM GAS  /var/folders/l5/0x54b2c10074c8bt31ycjvl80000gp/T//ccZpBjn1.s 			page 34


 1882 01ab 0E       		.uleb128 0xe
 1883 01ac 3A       		.uleb128 0x3a
 1884 01ad 0B       		.uleb128 0xb
 1885 01ae 3B       		.uleb128 0x3b
 1886 01af 0B       		.uleb128 0xb
 1887 01b0 39       		.uleb128 0x39
 1888 01b1 0B       		.uleb128 0xb
 1889 01b2 27       		.uleb128 0x27
 1890 01b3 19       		.uleb128 0x19
 1891 01b4 11       		.uleb128 0x11
 1892 01b5 01       		.uleb128 0x1
 1893 01b6 12       		.uleb128 0x12
 1894 01b7 06       		.uleb128 0x6
 1895 01b8 40       		.uleb128 0x40
 1896 01b9 18       		.uleb128 0x18
 1897 01ba 9742     		.uleb128 0x2117
 1898 01bc 19       		.uleb128 0x19
 1899 01bd 01       		.uleb128 0x1
 1900 01be 13       		.uleb128 0x13
 1901 01bf 00       		.byte	0
 1902 01c0 00       		.byte	0
 1903 01c1 20       		.uleb128 0x20
 1904 01c2 34       		.uleb128 0x34
 1905 01c3 00       		.byte	0
 1906 01c4 03       		.uleb128 0x3
 1907 01c5 0E       		.uleb128 0xe
 1908 01c6 3A       		.uleb128 0x3a
 1909 01c7 0B       		.uleb128 0xb
 1910 01c8 3B       		.uleb128 0x3b
 1911 01c9 0B       		.uleb128 0xb
 1912 01ca 39       		.uleb128 0x39
 1913 01cb 0B       		.uleb128 0xb
 1914 01cc 49       		.uleb128 0x49
 1915 01cd 13       		.uleb128 0x13
 1916 01ce 02       		.uleb128 0x2
 1917 01cf 17       		.uleb128 0x17
 1918 01d0 B742     		.uleb128 0x2137
 1919 01d2 17       		.uleb128 0x17
 1920 01d3 00       		.byte	0
 1921 01d4 00       		.byte	0
 1922 01d5 21       		.uleb128 0x21
 1923 01d6 898201   		.uleb128 0x4109
 1924 01d9 01       		.byte	0x1
 1925 01da 11       		.uleb128 0x11
 1926 01db 01       		.uleb128 0x1
 1927 01dc 9542     		.uleb128 0x2115
 1928 01de 19       		.uleb128 0x19
 1929 01df 31       		.uleb128 0x31
 1930 01e0 13       		.uleb128 0x13
 1931 01e1 00       		.byte	0
 1932 01e2 00       		.byte	0
 1933 01e3 22       		.uleb128 0x22
 1934 01e4 2E       		.uleb128 0x2e
 1935 01e5 00       		.byte	0
 1936 01e6 3F       		.uleb128 0x3f
 1937 01e7 19       		.uleb128 0x19
 1938 01e8 3C       		.uleb128 0x3c
ARM GAS  /var/folders/l5/0x54b2c10074c8bt31ycjvl80000gp/T//ccZpBjn1.s 			page 35


 1939 01e9 19       		.uleb128 0x19
 1940 01ea 6E       		.uleb128 0x6e
 1941 01eb 0E       		.uleb128 0xe
 1942 01ec 03       		.uleb128 0x3
 1943 01ed 0E       		.uleb128 0xe
 1944 01ee 3A       		.uleb128 0x3a
 1945 01ef 0B       		.uleb128 0xb
 1946 01f0 3B       		.uleb128 0x3b
 1947 01f1 0B       		.uleb128 0xb
 1948 01f2 39       		.uleb128 0x39
 1949 01f3 0B       		.uleb128 0xb
 1950 01f4 00       		.byte	0
 1951 01f5 00       		.byte	0
 1952 01f6 23       		.uleb128 0x23
 1953 01f7 2E       		.uleb128 0x2e
 1954 01f8 00       		.byte	0
 1955 01f9 3F       		.uleb128 0x3f
 1956 01fa 19       		.uleb128 0x19
 1957 01fb 3C       		.uleb128 0x3c
 1958 01fc 19       		.uleb128 0x19
 1959 01fd 6E       		.uleb128 0x6e
 1960 01fe 0E       		.uleb128 0xe
 1961 01ff 03       		.uleb128 0x3
 1962 0200 0E       		.uleb128 0xe
 1963 0201 3A       		.uleb128 0x3a
 1964 0202 0B       		.uleb128 0xb
 1965 0203 3B       		.uleb128 0x3b
 1966 0204 05       		.uleb128 0x5
 1967 0205 39       		.uleb128 0x39
 1968 0206 0B       		.uleb128 0xb
 1969 0207 00       		.byte	0
 1970 0208 00       		.byte	0
 1971 0209 00       		.byte	0
 1972              		.section	.debug_loc,"",%progbits
 1973              	.Ldebug_loc0:
 1974              	.LVUS2:
 1975 0000 00       		.uleb128 0
 1976 0001 00       		.uleb128 .LVU43
 1977 0002 00       		.uleb128 .LVU43
 1978 0003 00       		.uleb128 0
 1979              	.LLST2:
 1980 0004 00000000 		.4byte	.LVL6
 1981 0008 17000000 		.4byte	.LVL7-1
 1982 000c 0100     		.2byte	0x1
 1983 000e 50       		.byte	0x50
 1984 000f 17000000 		.4byte	.LVL7-1
 1985 0013 60000000 		.4byte	.LFE9
 1986 0017 0400     		.2byte	0x4
 1987 0019 F3       		.byte	0xf3
 1988 001a 01       		.uleb128 0x1
 1989 001b 50       		.byte	0x50
 1990 001c 9F       		.byte	0x9f
 1991 001d 00000000 		.4byte	0
 1992 0021 00000000 		.4byte	0
 1993              	.LVUS3:
 1994 0025 00       		.uleb128 0
 1995 0026 00       		.uleb128 .LVU43
ARM GAS  /var/folders/l5/0x54b2c10074c8bt31ycjvl80000gp/T//ccZpBjn1.s 			page 36


 1996 0027 00       		.uleb128 .LVU43
 1997 0028 00       		.uleb128 0
 1998              	.LLST3:
 1999 0029 00000000 		.4byte	.LVL6
 2000 002d 17000000 		.4byte	.LVL7-1
 2001 0031 0100     		.2byte	0x1
 2002 0033 51       		.byte	0x51
 2003 0034 17000000 		.4byte	.LVL7-1
 2004 0038 60000000 		.4byte	.LFE9
 2005 003c 0100     		.2byte	0x1
 2006 003e 55       		.byte	0x55
 2007 003f 00000000 		.4byte	0
 2008 0043 00000000 		.4byte	0
 2009              	.LVUS4:
 2010 0047 00       		.uleb128 0
 2011 0048 00       		.uleb128 .LVU43
 2012 0049 00       		.uleb128 .LVU43
 2013 004a 00       		.uleb128 0
 2014              	.LLST4:
 2015 004b 00000000 		.4byte	.LVL6
 2016 004f 17000000 		.4byte	.LVL7-1
 2017 0053 0100     		.2byte	0x1
 2018 0055 52       		.byte	0x52
 2019 0056 17000000 		.4byte	.LVL7-1
 2020 005a 60000000 		.4byte	.LFE9
 2021 005e 0100     		.2byte	0x1
 2022 0060 56       		.byte	0x56
 2023 0061 00000000 		.4byte	0
 2024 0065 00000000 		.4byte	0
 2025              	.LVUS5:
 2026 0069 00       		.uleb128 0
 2027 006a 00       		.uleb128 .LVU43
 2028 006b 00       		.uleb128 .LVU43
 2029 006c 00       		.uleb128 0
 2030              	.LLST5:
 2031 006d 00000000 		.4byte	.LVL6
 2032 0071 17000000 		.4byte	.LVL7-1
 2033 0075 0100     		.2byte	0x1
 2034 0077 53       		.byte	0x53
 2035 0078 17000000 		.4byte	.LVL7-1
 2036 007c 60000000 		.4byte	.LFE9
 2037 0080 0100     		.2byte	0x1
 2038 0082 57       		.byte	0x57
 2039 0083 00000000 		.4byte	0
 2040 0087 00000000 		.4byte	0
 2041              	.LVUS6:
 2042 008b 00       		.uleb128 .LVU43
 2043 008c 00       		.uleb128 .LVU50
 2044 008d 00       		.uleb128 .LVU50
 2045 008e 00       		.uleb128 .LVU54
 2046              	.LLST6:
 2047 008f 18000000 		.4byte	.LVL7
 2048 0093 3B000000 		.4byte	.LVL8-1
 2049 0097 0100     		.2byte	0x1
 2050 0099 50       		.byte	0x50
 2051 009a 3B000000 		.4byte	.LVL8-1
 2052 009e 4C000000 		.4byte	.LVL9
ARM GAS  /var/folders/l5/0x54b2c10074c8bt31ycjvl80000gp/T//ccZpBjn1.s 			page 37


 2053 00a2 0100     		.2byte	0x1
 2054 00a4 54       		.byte	0x54
 2055 00a5 00000000 		.4byte	0
 2056 00a9 00000000 		.4byte	0
 2057              	.LVUS7:
 2058 00ad 00       		.uleb128 .LVU54
 2059 00ae 00       		.uleb128 .LVU56
 2060 00af 00       		.uleb128 .LVU56
 2061 00b0 02       		.uleb128 .LVU60
 2062              	.LLST7:
 2063 00b1 4C000000 		.4byte	.LVL9
 2064 00b5 4F000000 		.4byte	.LVL10-1
 2065 00b9 0100     		.2byte	0x1
 2066 00bb 50       		.byte	0x50
 2067 00bc 4F000000 		.4byte	.LVL10-1
 2068 00c0 54000000 		.4byte	.LVL11
 2069 00c4 0100     		.2byte	0x1
 2070 00c6 54       		.byte	0x54
 2071 00c7 00000000 		.4byte	0
 2072 00cb 00000000 		.4byte	0
 2073              	.LVUS0:
 2074 00cf 00       		.uleb128 0
 2075 00d0 00       		.uleb128 .LVU35
 2076 00d1 00       		.uleb128 .LVU35
 2077 00d2 00       		.uleb128 0
 2078              	.LLST0:
 2079 00d3 00000000 		.4byte	.LVL1
 2080 00d7 4F000000 		.4byte	.LVL5-1
 2081 00db 0100     		.2byte	0x1
 2082 00dd 50       		.byte	0x50
 2083 00de 4F000000 		.4byte	.LVL5-1
 2084 00e2 50000000 		.4byte	.LFE8
 2085 00e6 0400     		.2byte	0x4
 2086 00e8 F3       		.byte	0xf3
 2087 00e9 01       		.uleb128 0x1
 2088 00ea 50       		.byte	0x50
 2089 00eb 9F       		.byte	0x9f
 2090 00ec 00000000 		.4byte	0
 2091 00f0 00000000 		.4byte	0
 2092              	.LVUS1:
 2093 00f4 00       		.uleb128 .LVU23
 2094 00f5 00       		.uleb128 .LVU29
 2095 00f6 00       		.uleb128 .LVU29
 2096 00f7 00       		.uleb128 .LVU32
 2097              	.LLST1:
 2098 00f8 14000000 		.4byte	.LVL2
 2099 00fc 24000000 		.4byte	.LVL3
 2100 0100 0100     		.2byte	0x1
 2101 0102 53       		.byte	0x53
 2102 0103 24000000 		.4byte	.LVL3
 2103 0107 48000000 		.4byte	.LVL4
 2104 010b 0200     		.2byte	0x2
 2105 010d 70       		.byte	0x70
 2106 010e 1E       		.sleb128 30
 2107 010f 00000000 		.4byte	0
 2108 0113 00000000 		.4byte	0
 2109              		.section	.debug_aranges,"",%progbits
ARM GAS  /var/folders/l5/0x54b2c10074c8bt31ycjvl80000gp/T//ccZpBjn1.s 			page 38


 2110 0000 2C000000 		.4byte	0x2c
 2111 0004 0200     		.2byte	0x2
 2112 0006 00000000 		.4byte	.Ldebug_info0
 2113 000a 04       		.byte	0x4
 2114 000b 00       		.byte	0
 2115 000c 0000     		.2byte	0
 2116 000e 0000     		.2byte	0
 2117 0010 00000000 		.4byte	.LFB7
 2118 0014 18000000 		.4byte	.LFE7-.LFB7
 2119 0018 00000000 		.4byte	.LFB8
 2120 001c 50000000 		.4byte	.LFE8-.LFB8
 2121 0020 00000000 		.4byte	.LFB9
 2122 0024 60000000 		.4byte	.LFE9-.LFB9
 2123 0028 00000000 		.4byte	0
 2124 002c 00000000 		.4byte	0
 2125              		.section	.debug_ranges,"",%progbits
 2126              	.Ldebug_ranges0:
 2127 0000 00000000 		.4byte	.LFB7
 2128 0004 18000000 		.4byte	.LFE7
 2129 0008 00000000 		.4byte	.LFB8
 2130 000c 50000000 		.4byte	.LFE8
 2131 0010 00000000 		.4byte	.LFB9
 2132 0014 60000000 		.4byte	.LFE9
 2133 0018 00000000 		.4byte	0
 2134 001c 00000000 		.4byte	0
 2135              		.section	.debug_line,"",%progbits
 2136              	.Ldebug_line0:
 2137 0000 E9020000 		.section	.debug_str,"MS",%progbits,1
 2137      03000402 
 2137      00000201 
 2137      FB0E0D00 
 2137      01010101 
 2138              	.LASF86:
 2139 0000 7466756E 		.ascii	"tfunc_t\000"
 2139      635F7400 
 2140              	.LASF39:
 2141 0008 705F6D73 		.ascii	"p_msg\000"
 2141      6700
 2142              	.LASF118:
 2143 000e 2E2E2F2E 		.ascii	"../../os/kernel/src/chdynamic.c\000"
 2143      2E2F6F73 
 2143      2F6B6572 
 2143      6E656C2F 
 2143      7372632F 
 2144              	.LASF2:
 2145 002e 73697A65 		.ascii	"size_t\000"
 2145      5F7400
 2146              	.LASF109:
 2147 0035 7072696F 		.ascii	"prio\000"
 2147      00
 2148              	.LASF81:
 2149 003a 7264796D 		.ascii	"rdymsg\000"
 2149      736700
 2150              	.LASF3:
 2151 0041 5F5F7569 		.ascii	"__uint8_t\000"
 2151      6E74385F 
 2151      7400
ARM GAS  /var/folders/l5/0x54b2c10074c8bt31ycjvl80000gp/T//ccZpBjn1.s 			page 39


 2152              	.LASF65:
 2153 004b 76746C69 		.ascii	"vtlist\000"
 2153      737400
 2154              	.LASF71:
 2155 0052 6D656D67 		.ascii	"memgetfunc_t\000"
 2155      65746675 
 2155      6E635F74 
 2155      00
 2156              	.LASF13:
 2157 005f 6C6F6E67 		.ascii	"long long unsigned int\000"
 2157      206C6F6E 
 2157      6720756E 
 2157      7369676E 
 2157      65642069 
 2158              	.LASF93:
 2159 0076 63685F74 		.ascii	"ch_threadsize\000"
 2159      68726561 
 2159      6473697A 
 2159      6500
 2160              	.LASF82:
 2161 0084 65786974 		.ascii	"exitcode\000"
 2161      636F6465 
 2161      00
 2162              	.LASF75:
 2163 008d 685F6672 		.ascii	"h_free\000"
 2163      656500
 2164              	.LASF108:
 2165 0094 68656170 		.ascii	"heapp\000"
 2165      7000
 2166              	.LASF77:
 2167 009a 6E657874 		.ascii	"next\000"
 2167      00
 2168              	.LASF28:
 2169 009f 705F7072 		.ascii	"p_prio\000"
 2169      696F00
 2170              	.LASF100:
 2171 00a6 63665F6F 		.ascii	"cf_off_state\000"
 2171      66665F73 
 2171      74617465 
 2171      00
 2172              	.LASF12:
 2173 00b3 6C6F6E67 		.ascii	"long long int\000"
 2173      206C6F6E 
 2173      6720696E 
 2173      7400
 2174              	.LASF1:
 2175 00c1 7369676E 		.ascii	"signed char\000"
 2175      65642063 
 2175      68617200 
 2176              	.LASF76:
 2177 00cd 685F6D74 		.ascii	"h_mtx\000"
 2177      7800
 2178              	.LASF99:
 2179 00d3 63665F6F 		.ascii	"cf_off_stklimit\000"
 2179      66665F73 
 2179      746B6C69 
 2179      6D697400 
ARM GAS  /var/folders/l5/0x54b2c10074c8bt31ycjvl80000gp/T//ccZpBjn1.s 			page 40


 2180              	.LASF101:
 2181 00e3 63665F6F 		.ascii	"cf_off_flags\000"
 2181      66665F66 
 2181      6C616773 
 2181      00
 2182              	.LASF68:
 2183 00f0 6D5F7175 		.ascii	"m_queue\000"
 2183      65756500 
 2184              	.LASF116:
 2185 00f8 63684865 		.ascii	"chHeapFree\000"
 2185      61704672 
 2185      656500
 2186              	.LASF87:
 2187 0103 63685F69 		.ascii	"ch_identifier\000"
 2187      64656E74 
 2187      69666965 
 2187      7200
 2188              	.LASF114:
 2189 0111 63685468 		.ascii	"chThdCreateI\000"
 2189      64437265 
 2189      61746549 
 2189      00
 2190              	.LASF9:
 2191 011e 6C6F6E67 		.ascii	"long int\000"
 2191      20696E74 
 2191      00
 2192              	.LASF111:
 2193 0127 63685468 		.ascii	"chThdCreateFromHeap\000"
 2193      64437265 
 2193      61746546 
 2193      726F6D48 
 2193      65617000 
 2194              	.LASF19:
 2195 013b 74737461 		.ascii	"tstate_t\000"
 2195      74655F74 
 2195      00
 2196              	.LASF15:
 2197 0144 75696E74 		.ascii	"uint16_t\000"
 2197      31365F74 
 2197      00
 2198              	.LASF105:
 2199 014d 63686465 		.ascii	"chdebug_t\000"
 2199      6275675F 
 2199      7400
 2200              	.LASF30:
 2201 0157 705F6E65 		.ascii	"p_newer\000"
 2201      77657200 
 2202              	.LASF107:
 2203 015f 5F69646C 		.ascii	"_idle_thread_wa\000"
 2203      655F7468 
 2203      72656164 
 2203      5F776100 
 2204              	.LASF10:
 2205 016f 5F5F7569 		.ascii	"__uint32_t\000"
 2205      6E743332 
 2205      5F7400
 2206              	.LASF46:
ARM GAS  /var/folders/l5/0x54b2c10074c8bt31ycjvl80000gp/T//ccZpBjn1.s 			page 41


 2207 017a 72656761 		.ascii	"regarm_t\000"
 2207      726D5F74 
 2207      00
 2208              	.LASF52:
 2209 0183 76745F70 		.ascii	"vt_prev\000"
 2209      72657600 
 2210              	.LASF79:
 2211 018b 616C6967 		.ascii	"align\000"
 2211      6E00
 2212              	.LASF0:
 2213 0191 756E7369 		.ascii	"unsigned int\000"
 2213      676E6564 
 2213      20696E74 
 2213      00
 2214              	.LASF51:
 2215 019e 76745F6E 		.ascii	"vt_next\000"
 2215      65787400 
 2216              	.LASF97:
 2217 01a6 63665F6F 		.ascii	"cf_off_older\000"
 2217      66665F6F 
 2217      6C646572 
 2217      00
 2218              	.LASF11:
 2219 01b3 6C6F6E67 		.ascii	"long unsigned int\000"
 2219      20756E73 
 2219      69676E65 
 2219      6420696E 
 2219      7400
 2220              	.LASF106:
 2221 01c5 63685F64 		.ascii	"ch_debug\000"
 2221      65627567 
 2221      00
 2222              	.LASF49:
 2223 01ce 76746675 		.ascii	"vtfunc_t\000"
 2223      6E635F74 
 2223      00
 2224              	.LASF48:
 2225 01d7 636F6E74 		.ascii	"context\000"
 2225      65787400 
 2226              	.LASF80:
 2227 01df 73697A65 		.ascii	"size\000"
 2227      00
 2228              	.LASF7:
 2229 01e4 73686F72 		.ascii	"short unsigned int\000"
 2229      7420756E 
 2229      7369676E 
 2229      65642069 
 2229      6E7400
 2230              	.LASF115:
 2231 01f7 63685363 		.ascii	"chSchWakeupS\000"
 2231      6857616B 
 2231      65757053 
 2231      00
 2232              	.LASF22:
 2233 0204 6D73675F 		.ascii	"msg_t\000"
 2233      7400
 2234              	.LASF61:
ARM GAS  /var/folders/l5/0x54b2c10074c8bt31ycjvl80000gp/T//ccZpBjn1.s 			page 42


 2235 020a 725F6E65 		.ascii	"r_newer\000"
 2235      77657200 
 2236              	.LASF117:
 2237 0212 474E5520 		.ascii	"GNU C17 8.3.1 20190703 (release) [gcc-8-branch revi"
 2237      43313720 
 2237      382E332E 
 2237      31203230 
 2237      31393037 
 2238 0245 73696F6E 		.ascii	"sion 273027] -mcpu=arm1176jz-s -mno-thumb-interwork"
 2238      20323733 
 2238      3032375D 
 2238      202D6D63 
 2238      70753D61 
 2239 0278 202D6D66 		.ascii	" -mfloat-abi=soft -marm -march=armv6kz -ggdb -O2 -f"
 2239      6C6F6174 
 2239      2D616269 
 2239      3D736F66 
 2239      74202D6D 
 2240 02ab 6F6D6974 		.ascii	"omit-frame-pointer -ffunction-sections -fdata-secti"
 2240      2D667261 
 2240      6D652D70 
 2240      6F696E74 
 2240      6572202D 
 2241 02de 6F6E7300 		.ascii	"ons\000"
 2242              	.LASF18:
 2243 02e2 746D6F64 		.ascii	"tmode_t\000"
 2243      655F7400 
 2244              	.LASF44:
 2245 02ea 54687265 		.ascii	"ThreadsList\000"
 2245      6164734C 
 2245      69737400 
 2246              	.LASF23:
 2247 02f6 6576656E 		.ascii	"eventmask_t\000"
 2247      746D6173 
 2247      6B5F7400 
 2248              	.LASF67:
 2249 0302 4D757465 		.ascii	"Mutex\000"
 2249      7800
 2250              	.LASF112:
 2251 0308 63685468 		.ascii	"chThdAddRef\000"
 2251      64416464 
 2251      52656600 
 2252              	.LASF45:
 2253 0314 73746B61 		.ascii	"stkalign_t\000"
 2253      6C69676E 
 2253      5F7400
 2254              	.LASF88:
 2255 031f 63685F7A 		.ascii	"ch_zero\000"
 2255      65726F00 
 2256              	.LASF102:
 2257 0327 63665F6F 		.ascii	"cf_off_refs\000"
 2257      66665F72 
 2257      65667300 
 2258              	.LASF53:
 2259 0333 76745F74 		.ascii	"vt_time\000"
 2259      696D6500 
 2260              	.LASF54:
ARM GAS  /var/folders/l5/0x54b2c10074c8bt31ycjvl80000gp/T//ccZpBjn1.s 			page 43


 2261 033b 76745F66 		.ascii	"vt_func\000"
 2261      756E6300 
 2262              	.LASF92:
 2263 0343 63685F74 		.ascii	"ch_timesize\000"
 2263      696D6573 
 2263      697A6500 
 2264              	.LASF98:
 2265 034f 63665F6F 		.ascii	"cf_off_name\000"
 2265      66665F6E 
 2265      616D6500 
 2266              	.LASF31:
 2267 035b 705F6F6C 		.ascii	"p_older\000"
 2267      64657200 
 2268              	.LASF60:
 2269 0363 725F6374 		.ascii	"r_ctx\000"
 2269      7800
 2270              	.LASF43:
 2271 0369 54687265 		.ascii	"ThreadsQueue\000"
 2271      61647351 
 2271      75657565 
 2271      00
 2272              	.LASF89:
 2273 0376 63685F73 		.ascii	"ch_size\000"
 2273      697A6500 
 2274              	.LASF63:
 2275 037e 725F6375 		.ascii	"r_current\000"
 2275      7272656E 
 2275      7400
 2276              	.LASF62:
 2277 0388 725F6F6C 		.ascii	"r_older\000"
 2277      64657200 
 2278              	.LASF72:
 2279 0390 4D656D6F 		.ascii	"MemoryHeap\000"
 2279      72794865 
 2279      617000
 2280              	.LASF20:
 2281 039b 74726566 		.ascii	"trefs_t\000"
 2281      735F7400 
 2282              	.LASF91:
 2283 03a3 63685F70 		.ascii	"ch_ptrsize\000"
 2283      74727369 
 2283      7A6500
 2284              	.LASF110:
 2285 03ae 72656673 		.ascii	"refs\000"
 2285      00
 2286              	.LASF27:
 2287 03b3 705F7072 		.ascii	"p_prev\000"
 2287      657600
 2288              	.LASF21:
 2289 03ba 74707269 		.ascii	"tprio_t\000"
 2289      6F5F7400 
 2290              	.LASF16:
 2291 03c2 696E7433 		.ascii	"int32_t\000"
 2291      325F7400 
 2292              	.LASF4:
 2293 03ca 756E7369 		.ascii	"unsigned char\000"
 2293      676E6564 
ARM GAS  /var/folders/l5/0x54b2c10074c8bt31ycjvl80000gp/T//ccZpBjn1.s 			page 44


 2293      20636861 
 2293      7200
 2294              	.LASF74:
 2295 03d8 685F7072 		.ascii	"h_provider\000"
 2295      6F766964 
 2295      657200
 2296              	.LASF41:
 2297 03e3 705F6D74 		.ascii	"p_mtxlist\000"
 2297      786C6973 
 2297      7400
 2298              	.LASF5:
 2299 03ed 73686F72 		.ascii	"short int\000"
 2299      7420696E 
 2299      7400
 2300              	.LASF33:
 2301 03f7 705F7374 		.ascii	"p_state\000"
 2301      61746500 
 2302              	.LASF104:
 2303 03ff 63665F6F 		.ascii	"cf_off_time\000"
 2303      66665F74 
 2303      696D6500 
 2304              	.LASF59:
 2305 040b 725F7072 		.ascii	"r_prio\000"
 2305      696F00
 2306              	.LASF120:
 2307 0412 68656170 		.ascii	"heap_header\000"
 2307      5F686561 
 2307      64657200 
 2308              	.LASF84:
 2309 041e 65776D61 		.ascii	"ewmask\000"
 2309      736B00
 2310              	.LASF26:
 2311 0425 705F6E65 		.ascii	"p_next\000"
 2311      787400
 2312              	.LASF103:
 2313 042c 63665F6F 		.ascii	"cf_off_preempt\000"
 2313      66665F70 
 2313      7265656D 
 2313      707400
 2314              	.LASF34:
 2315 043b 705F666C 		.ascii	"p_flags\000"
 2315      61677300 
 2316              	.LASF121:
 2317 0443 63685468 		.ascii	"chThdRelease\000"
 2317      6452656C 
 2317      65617365 
 2317      00
 2318              	.LASF25:
 2319 0450 54687265 		.ascii	"Thread\000"
 2319      616400
 2320              	.LASF113:
 2321 0457 63684865 		.ascii	"chHeapAlloc\000"
 2321      6170416C 
 2321      6C6F6300 
 2322              	.LASF96:
 2323 0463 63665F6F 		.ascii	"cf_off_newer\000"
 2323      66665F6E 
ARM GAS  /var/folders/l5/0x54b2c10074c8bt31ycjvl80000gp/T//ccZpBjn1.s 			page 45


 2323      65776572 
 2323      00
 2324              	.LASF40:
 2325 0470 705F6570 		.ascii	"p_epending\000"
 2325      656E6469 
 2325      6E6700
 2326              	.LASF17:
 2327 047b 75696E74 		.ascii	"uint32_t\000"
 2327      33325F74 
 2327      00
 2328              	.LASF94:
 2329 0484 63665F6F 		.ascii	"cf_off_prio\000"
 2329      66665F70 
 2329      72696F00 
 2330              	.LASF58:
 2331 0490 725F7175 		.ascii	"r_queue\000"
 2331      65756500 
 2332              	.LASF50:
 2333 0498 56697274 		.ascii	"VirtualTimer\000"
 2333      75616C54 
 2333      696D6572 
 2333      00
 2334              	.LASF78:
 2335 04a5 68656170 		.ascii	"heap\000"
 2335      00
 2336              	.LASF85:
 2337 04aa 63686172 		.ascii	"char\000"
 2337      00
 2338              	.LASF6:
 2339 04af 5F5F7569 		.ascii	"__uint16_t\000"
 2339      6E743136 
 2339      5F7400
 2340              	.LASF70:
 2341 04ba 6D5F6E65 		.ascii	"m_next\000"
 2341      787400
 2342              	.LASF24:
 2343 04c1 73797374 		.ascii	"systime_t\000"
 2343      696D655F 
 2343      7400
 2344              	.LASF42:
 2345 04cb 705F7265 		.ascii	"p_realprio\000"
 2345      616C7072 
 2345      696F00
 2346              	.LASF8:
 2347 04d6 5F5F696E 		.ascii	"__int32_t\000"
 2347      7433325F 
 2347      7400
 2348              	.LASF36:
 2349 04e0 705F7469 		.ascii	"p_time\000"
 2349      6D6500
 2350              	.LASF47:
 2351 04e7 696E7463 		.ascii	"intctx\000"
 2351      747800
 2352              	.LASF38:
 2353 04ee 705F6D73 		.ascii	"p_msgqueue\000"
 2353      67717565 
 2353      756500
ARM GAS  /var/folders/l5/0x54b2c10074c8bt31ycjvl80000gp/T//ccZpBjn1.s 			page 46


 2354              	.LASF55:
 2355 04f9 76745F70 		.ascii	"vt_par\000"
 2355      617200
 2356              	.LASF95:
 2357 0500 63665F6F 		.ascii	"cf_off_ctx\000"
 2357      66665F63 
 2357      747800
 2358              	.LASF35:
 2359 050b 705F7265 		.ascii	"p_refs\000"
 2359      667300
 2360              	.LASF64:
 2361 0512 52656164 		.ascii	"ReadyList\000"
 2361      794C6973 
 2361      7400
 2362              	.LASF66:
 2363 051c 726C6973 		.ascii	"rlist\000"
 2363      7400
 2364              	.LASF14:
 2365 0522 75696E74 		.ascii	"uint8_t\000"
 2365      385F7400 
 2366              	.LASF83:
 2367 052a 77746F62 		.ascii	"wtobjp\000"
 2367      6A7000
 2368              	.LASF32:
 2369 0531 705F6E61 		.ascii	"p_name\000"
 2369      6D6500
 2370              	.LASF56:
 2371 0538 76745F73 		.ascii	"vt_systime\000"
 2371      79737469 
 2371      6D6500
 2372              	.LASF90:
 2373 0543 63685F76 		.ascii	"ch_version\000"
 2373      65727369 
 2373      6F6E00
 2374              	.LASF119:
 2375 054e 2F557365 		.ascii	"/Users/fernandoguirado/eclipse-workspace/ChibiOS-RP"
 2375      72732F66 
 2375      65726E61 
 2375      6E646F67 
 2375      75697261 
 2376 0581 692D636F 		.ascii	"i-copia/demos/timers\000"
 2376      7069612F 
 2376      64656D6F 
 2376      732F7469 
 2376      6D657273 
 2377              	.LASF57:
 2378 0596 56544C69 		.ascii	"VTList\000"
 2378      737400
 2379              	.LASF69:
 2380 059d 6D5F6F77 		.ascii	"m_owner\000"
 2380      6E657200 
 2381              	.LASF29:
 2382 05a5 705F6374 		.ascii	"p_ctx\000"
 2382      7800
 2383              	.LASF37:
 2384 05ab 705F7761 		.ascii	"p_waiting\000"
 2384      6974696E 
ARM GAS  /var/folders/l5/0x54b2c10074c8bt31ycjvl80000gp/T//ccZpBjn1.s 			page 47


 2384      6700
 2385              	.LASF73:
 2386 05b5 6D656D6F 		.ascii	"memory_heap\000"
 2386      72795F68 
 2386      65617000 
 2387              		.ident	"GCC: (GNU Tools for Arm Embedded Processors 8-2019-q3-update) 8.3.1 20190703 (release) [gc
ARM GAS  /var/folders/l5/0x54b2c10074c8bt31ycjvl80000gp/T//ccZpBjn1.s 			page 48


DEFINED SYMBOLS
                            *ABS*:0000000000000000 chdynamic.c
/var/folders/l5/0x54b2c10074c8bt31ycjvl80000gp/T//ccZpBjn1.s:16     .text.chThdAddRef:0000000000000000 $a
/var/folders/l5/0x54b2c10074c8bt31ycjvl80000gp/T//ccZpBjn1.s:23     .text.chThdAddRef:0000000000000000 chThdAddRef
/var/folders/l5/0x54b2c10074c8bt31ycjvl80000gp/T//ccZpBjn1.s:64     .text.chThdRelease:0000000000000000 $a
/var/folders/l5/0x54b2c10074c8bt31ycjvl80000gp/T//ccZpBjn1.s:70     .text.chThdRelease:0000000000000000 chThdRelease
/var/folders/l5/0x54b2c10074c8bt31ycjvl80000gp/T//ccZpBjn1.s:138    .text.chThdCreateFromHeap:0000000000000000 $a
/var/folders/l5/0x54b2c10074c8bt31ycjvl80000gp/T//ccZpBjn1.s:144    .text.chThdCreateFromHeap:0000000000000000 chThdCreateFromHeap

UNDEFINED SYMBOLS
chHeapFree
chHeapAlloc
chThdCreateI
chSchWakeupS
