ARM GAS  /var/folders/l5/0x54b2c10074c8bt31ycjvl80000gp/T//ccZpBjn1.s 			page 1


   1              		.cpu arm1176jz-s
   2              		.eabi_attribute 20, 1
   3              		.eabi_attribute 21, 1
   4              		.eabi_attribute 23, 3
   5              		.eabi_attribute 24, 1
   6              		.eabi_attribute 25, 1
   7              		.eabi_attribute 26, 1
   8              		.eabi_attribute 30, 2
   9              		.eabi_attribute 34, 1
  10              		.eabi_attribute 18, 4
  11              		.file	"chdynamic.c"
  12              		.text
  13              	.Ltext0:
  14              		.cfi_sections	.debug_frame
  15              		.section	.text.chThdAddRef,"ax",%progbits
  16              		.align	2
  17              		.global	chThdAddRef
  18              		.arch armv6kz
  19              		.syntax unified
  20              		.arm
  21              		.fpu softvfp
  22              		.type	chThdAddRef, %function
  23              	chThdAddRef:
  24              	.LVL0:
  25              	.LFB7:
  26              		.file 1 "../../os/kernel/src/chdynamic.c"
  27              		.loc 1 45 33 view -0
  28              		.cfi_startproc
  29              		@ args = 0, pretend = 0, frame = 0
  30              		@ frame_needed = 0, uses_anonymous_args = 0
  31              		@ link register save eliminated.
  32              		.loc 1 47 3 view .LVU1
  33              		.syntax divided
  34              	@ 47 "../../os/kernel/src/chdynamic.c" 1
  35 0000 9FF021E3 		msr     CPSR_c, #0x9F
  36              	@ 0 "" 2
  37              		.loc 1 47 3 view .LVU2
  38              		.loc 1 47 14 view .LVU3
  39              		.loc 1 48 3 view .LVU4
  40              		.loc 1 48 76 view .LVU5
  41              		.loc 1 49 3 view .LVU6
  42              		.loc 1 49 13 is_stmt 0 view .LVU7
  43              		.arm
  44              		.syntax unified
  45 0004 1E30D0E5 		ldrb	r3, [r0, #30]	@ zero_extendqisi2
  46 0008 013083E2 		add	r3, r3, #1
  47 000c 1E30C0E5 		strb	r3, [r0, #30]
  48              		.loc 1 50 3 is_stmt 1 view .LVU8
  49              		.loc 1 50 3 view .LVU9
  50              		.syntax divided
  51              	@ 50 "../../os/kernel/src/chdynamic.c" 1
  52 0010 1FF021E3 		msr     CPSR_c, #0x1F
  53              	@ 0 "" 2
  54              		.loc 1 50 16 view .LVU10
  55              		.loc 1 51 3 view .LVU11
  56              		.loc 1 52 1 is_stmt 0 view .LVU12
  57              		.arm
ARM GAS  /var/folders/l5/0x54b2c10074c8bt31ycjvl80000gp/T//ccZpBjn1.s 			page 2


  58              		.syntax unified
  59 0014 1EFF2FE1 		bx	lr
  60              		.cfi_endproc
  61              	.LFE7:
  62              		.size	chThdAddRef, .-chThdAddRef
  63              		.section	.text.chThdRelease,"ax",%progbits
  64              		.align	2
  65              		.global	chThdRelease
  66              		.syntax unified
  67              		.arm
  68              		.fpu softvfp
  69              		.type	chThdRelease, %function
  70              	chThdRelease:
  71              	.LVL1:
  72              	.LFB8:
  73              		.loc 1 67 31 is_stmt 1 view -0
  74              		.cfi_startproc
  75              		@ args = 0, pretend = 0, frame = 0
  76              		@ frame_needed = 0, uses_anonymous_args = 0
  77              		@ link register save eliminated.
  78              		.loc 1 68 3 view .LVU14
  79              		.loc 1 70 3 view .LVU15
  80              		.syntax divided
  81              	@ 70 "../../os/kernel/src/chdynamic.c" 1
  82 0000 9FF021E3 		msr     CPSR_c, #0x9F
  83              	@ 0 "" 2
  84              		.loc 1 70 3 view .LVU16
  85              		.loc 1 70 14 view .LVU17
  86              		.loc 1 71 3 view .LVU18
  87              		.loc 1 71 70 view .LVU19
  88              		.loc 1 72 3 view .LVU20
  89              		.loc 1 72 10 is_stmt 0 view .LVU21
  90              		.arm
  91              		.syntax unified
  92 0004 1E30D0E5 		ldrb	r3, [r0, #30]	@ zero_extendqisi2
  93 0008 013043E2 		sub	r3, r3, #1
  94 000c 7330EFE6 		uxtb	r3, r3
  95              		.loc 1 72 8 view .LVU22
  96 0010 1E30C0E5 		strb	r3, [r0, #30]
  97              	.LVL2:
  98              		.loc 1 73 3 is_stmt 1 view .LVU23
  99              		.loc 1 73 3 view .LVU24
 100              		.syntax divided
 101              	@ 73 "../../os/kernel/src/chdynamic.c" 1
 102 0014 1FF021E3 		msr     CPSR_c, #0x1F
 103              	@ 0 "" 2
 104              		.loc 1 73 16 view .LVU25
 105              		.loc 1 78 3 view .LVU26
 106              		.loc 1 78 6 is_stmt 0 view .LVU27
 107              		.arm
 108              		.syntax unified
 109 0018 000053E3 		cmp	r3, #0
 110 001c 1EFF2F11 		bxne	lr
 111              		.loc 1 78 19 discriminator 1 view .LVU28
 112 0020 1C30D0E5 		ldrb	r3, [r0, #28]	@ zero_extendqisi2
 113              	.LVL3:
 114              		.loc 1 78 19 discriminator 1 view .LVU29
ARM GAS  /var/folders/l5/0x54b2c10074c8bt31ycjvl80000gp/T//ccZpBjn1.s 			page 3


 115 0024 0E0053E3 		cmp	r3, #14
 116 0028 1EFF2F11 		bxne	lr
 117              		.loc 1 79 5 is_stmt 1 view .LVU30
 118 002c 1D30D0E5 		ldrb	r3, [r0, #29]	@ zero_extendqisi2
 119 0030 033003E2 		and	r3, r3, #3
 120 0034 010053E3 		cmp	r3, #1
 121 0038 1EFF2F11 		bxne	lr
 122              		.loc 1 83 7 view .LVU31
 123 003c 141090E5 		ldr	r1, [r0, #20]
 124 0040 103090E5 		ldr	r3, [r0, #16]
 125 0044 103081E5 		str	r3, [r1, #16]
 126              	.LVL4:
 127              		.loc 1 83 7 view .LVU32
 128 0048 141083E5 		str	r1, [r3, #20]
 129              		.loc 1 83 21 view .LVU33
 130              		.loc 1 85 7 view .LVU34
 131 004c FEFFFFEA 		b	chHeapFree
 132              	.LVL5:
 133              		.loc 1 85 7 is_stmt 0 view .LVU35
 134              		.cfi_endproc
 135              	.LFE8:
 136              		.size	chThdRelease, .-chThdRelease
 137              		.section	.text.chThdCreateFromHeap,"ax",%progbits
 138              		.align	2
 139              		.global	chThdCreateFromHeap
 140              		.syntax unified
 141              		.arm
 142              		.fpu softvfp
 143              		.type	chThdCreateFromHeap, %function
 144              	chThdCreateFromHeap:
 145              	.LVL6:
 146              	.LFB9:
 147              		.loc 1 124 66 is_stmt 1 view -0
 148              		.cfi_startproc
 149              		@ args = 4, pretend = 0, frame = 0
 150              		@ frame_needed = 0, uses_anonymous_args = 0
 151              		.loc 1 125 3 view .LVU37
 152              		.loc 1 126 3 view .LVU38
 153              		.loc 1 128 3 view .LVU39
 154              		.loc 1 124 66 is_stmt 0 view .LVU40
 155 0000 F0402DE9 		push	{r4, r5, r6, r7, lr}
 156              		.cfi_def_cfa_offset 20
 157              		.cfi_offset 4, -20
 158              		.cfi_offset 5, -16
 159              		.cfi_offset 6, -12
 160              		.cfi_offset 7, -8
 161              		.cfi_offset 14, -4
 162 0004 0CD04DE2 		sub	sp, sp, #12
 163              		.cfi_def_cfa_offset 32
 164              		.loc 1 124 66 view .LVU41
 165 0008 0260A0E1 		mov	r6, r2
 166 000c 0370A0E1 		mov	r7, r3
 167 0010 0150A0E1 		mov	r5, r1
 168              		.loc 1 128 9 view .LVU42
 169 0014 FEFFFFEB 		bl	chHeapAlloc
 170              	.LVL7:
 171              		.loc 1 129 3 is_stmt 1 view .LVU43
ARM GAS  /var/folders/l5/0x54b2c10074c8bt31ycjvl80000gp/T//ccZpBjn1.s 			page 4


 172              		.loc 1 129 6 is_stmt 0 view .LVU44
 173 0018 004050E2 		subs	r4, r0, #0
 174 001c 0C00000A 		beq	.L5
 175              		.loc 1 141 3 is_stmt 1 view .LVU45
 176              		.syntax divided
 177              	@ 141 "../../os/kernel/src/chdynamic.c" 1
 178 0020 9FF021E3 		msr     CPSR_c, #0x9F
 179              	@ 0 "" 2
 180              		.loc 1 141 3 view .LVU46
 181              		.loc 1 141 14 view .LVU47
 182              		.loc 1 142 3 view .LVU48
 183              		.loc 1 142 8 is_stmt 0 view .LVU49
 184              		.arm
 185              		.syntax unified
 186 0024 20309DE5 		ldr	r3, [sp, #32]
 187 0028 0620A0E1 		mov	r2, r6
 188 002c 00308DE5 		str	r3, [sp]
 189 0030 0510A0E1 		mov	r1, r5
 190 0034 0730A0E1 		mov	r3, r7
 191 0038 FEFFFFEB 		bl	chThdCreateI
 192              	.LVL8:
 193              		.loc 1 143 15 view .LVU50
 194 003c 0130A0E3 		mov	r3, #1
 195              		.loc 1 144 3 view .LVU51
 196 0040 0010A0E3 		mov	r1, #0
 197              		.loc 1 143 15 view .LVU52
 198 0044 1D30C0E5 		strb	r3, [r0, #29]
 199              		.loc 1 142 8 view .LVU53
 200 0048 0040A0E1 		mov	r4, r0
 201              	.LVL9:
 202              		.loc 1 143 3 is_stmt 1 view .LVU54
 203              		.loc 1 144 3 view .LVU55
 204 004c FEFFFFEB 		bl	chSchWakeupS
 205              	.LVL10:
 206              		.loc 1 145 3 view .LVU56
 207              		.loc 1 145 3 view .LVU57
 208              		.syntax divided
 209              	@ 145 "../../os/kernel/src/chdynamic.c" 1
 210 0050 1FF021E3 		msr     CPSR_c, #0x1F
 211              	@ 0 "" 2
 212              		.loc 1 145 16 view .LVU58
 213              		.loc 1 146 3 view .LVU59
 214              	.LVL11:
 215              		.arm
 216              		.syntax unified
 217              	.L5:
 218              		.loc 1 147 1 is_stmt 0 view .LVU60
 219 0054 0400A0E1 		mov	r0, r4
 220 0058 0CD08DE2 		add	sp, sp, #12
 221              		.cfi_def_cfa_offset 20
 222              		@ sp needed
 223 005c F080BDE8 		pop	{r4, r5, r6, r7, pc}
 224              		.loc 1 147 1 view .LVU61
 225              		.cfi_endproc
 226              	.LFE9:
 227              		.size	chThdCreateFromHeap, .-chThdCreateFromHeap
 228              		.text
ARM GAS  /var/folders/l5/0x54b2c10074c8bt31ycjvl80000gp/T//ccZpBjn1.s 			page 5


 229              	.Letext0:
 230              		.file 2 "/usr/local/Cellar/arm-gcc-bin/8-2019-q3-update/lib/gcc/arm-none-eabi/8.3.1/include/stddef
 231              		.file 3 "/usr/local/Cellar/arm-gcc-bin/8-2019-q3-update/arm-none-eabi/include/machine/_default_typ
 232              		.file 4 "/usr/local/Cellar/arm-gcc-bin/8-2019-q3-update/arm-none-eabi/include/sys/_stdint.h"
 233              		.file 5 "../../os/ports/GCC/ARM/chtypes.h"
 234              		.file 6 "../../os/kernel/include/chlists.h"
 235              		.file 7 "../../os/kernel/include/chthreads.h"
 236              		.file 8 "../../os/ports/GCC/ARM/chcore.h"
 237              		.file 9 "../../os/kernel/include/chvt.h"
 238              		.file 10 "../../os/kernel/include/chschd.h"
 239              		.file 11 "../../os/kernel/include/chmtx.h"
 240              		.file 12 "../../os/kernel/include/chmemcore.h"
 241              		.file 13 "../../os/kernel/include/chheap.h"
 242              		.file 14 "../../os/kernel/include/chregistry.h"
 243              		.file 15 "../../os/kernel/include/ch.h"