ARM GAS  /var/folders/l5/0x54b2c10074c8bt31ycjvl80000gp/T//cc6w9WWc.s 			page 1


   1              		.cpu arm1176jz-s
   2              		.eabi_attribute 20, 1
   3              		.eabi_attribute 21, 1
   4              		.eabi_attribute 23, 3
   5              		.eabi_attribute 24, 1
   6              		.eabi_attribute 25, 1
   7              		.eabi_attribute 26, 1
   8              		.eabi_attribute 30, 2
   9              		.eabi_attribute 34, 1
  10              		.eabi_attribute 18, 4
  11              		.file	"chevents.c"
  12              		.text
  13              	.Ltext0:
  14              		.cfi_sections	.debug_frame
  15              		.section	.text.chEvtRegisterMask,"ax",%progbits
  16              		.align	2
  17              		.global	chEvtRegisterMask
  18              		.arch armv6kz
  19              		.syntax unified
  20              		.arm
  21              		.fpu softvfp
  22              		.type	chEvtRegisterMask, %function
  23              	chEvtRegisterMask:
  24              	.LVL0:
  25              	.LFB7:
  26              		.file 1 "../../os/kernel/src/chevents.c"
  27              		.loc 1 78 80 view -0
  28              		.cfi_startproc
  29              		@ args = 0, pretend = 0, frame = 0
  30              		@ frame_needed = 0, uses_anonymous_args = 0
  31              		.loc 1 80 3 view .LVU1
  32              		.loc 1 80 66 view .LVU2
  33              		.loc 1 82 3 view .LVU3
  34              		.loc 1 78 80 is_stmt 0 view .LVU4
  35 0000 04E02DE5 		str	lr, [sp, #-4]!
  36              		.cfi_def_cfa_offset 4
  37              		.cfi_offset 14, -4
  38              		.loc 1 82 3 view .LVU5
  39              		.syntax divided
  40              	@ 82 "../../os/kernel/src/chevents.c" 1
  41 0004 9FF021E3 		msr     CPSR_c, #0x9F
  42              	@ 0 "" 2
  43              		.loc 1 82 3 is_stmt 1 view .LVU6
  44              		.loc 1 82 14 view .LVU7
  45              		.loc 1 83 3 view .LVU8
  46              		.loc 1 87 20 is_stmt 0 view .LVU9
  47              		.arm
  48              		.syntax unified
  49 0008 0030A0E3 		mov	r3, #0
  50              		.loc 1 85 22 view .LVU10
  51 000c 1CC09FE5 		ldr	ip, .L4
  52              		.loc 1 83 20 view .LVU11
  53 0010 00E090E5 		ldr	lr, [r0]
  54              		.loc 1 85 20 view .LVU12
  55 0014 18C09CE5 		ldr	ip, [ip, #24]
  56              		.loc 1 83 20 view .LVU13
  57 0018 00E081E5 		str	lr, [r1]
ARM GAS  /var/folders/l5/0x54b2c10074c8bt31ycjvl80000gp/T//cc6w9WWc.s 			page 2


  58              		.loc 1 84 3 is_stmt 1 view .LVU14
  59              		.loc 1 84 20 is_stmt 0 view .LVU15
  60 001c 001080E5 		str	r1, [r0]
  61              		.loc 1 85 3 is_stmt 1 view .LVU16
  62              		.loc 1 85 20 is_stmt 0 view .LVU17
  63 0020 04C081E5 		str	ip, [r1, #4]
  64              		.loc 1 86 3 is_stmt 1 view .LVU18
  65              		.loc 1 87 20 is_stmt 0 view .LVU19
  66 0024 F820C1E1 		strd	r2, [r1, #8]
  67              		.loc 1 88 3 is_stmt 1 view .LVU20
  68              		.loc 1 88 3 view .LVU21
  69              		.syntax divided
  70              	@ 88 "../../os/kernel/src/chevents.c" 1
  71 0028 1FF021E3 		msr     CPSR_c, #0x1F
  72              	@ 0 "" 2
  73              		.loc 1 88 16 view .LVU22
  74              		.loc 1 89 1 is_stmt 0 view .LVU23
  75              		.arm
  76              		.syntax unified
  77 002c 04F09DE4 		ldr	pc, [sp], #4
  78              	.L5:
  79              		.align	2
  80              	.L4:
  81 0030 00000000 		.word	rlist
  82              		.cfi_endproc
  83              	.LFE7:
  84              		.size	chEvtRegisterMask, .-chEvtRegisterMask
  85              		.section	.text.chEvtUnregister,"ax",%progbits
  86              		.align	2
  87              		.global	chEvtUnregister
  88              		.syntax unified
  89              		.arm
  90              		.fpu softvfp
  91              		.type	chEvtUnregister, %function
  92              	chEvtUnregister:
  93              	.LVL1:
  94              	.LFB8:
  95              		.loc 1 104 60 is_stmt 1 view -0
  96              		.cfi_startproc
  97              		@ args = 0, pretend = 0, frame = 0
  98              		@ frame_needed = 0, uses_anonymous_args = 0
  99              		@ link register save eliminated.
 100              		.loc 1 105 3 view .LVU25
 101              		.loc 1 107 3 view .LVU26
 102              		.loc 1 107 64 view .LVU27
 103              		.loc 1 109 3 view .LVU28
 104              		.loc 1 110 3 view .LVU29
 105              		.syntax divided
 106              	@ 110 "../../os/kernel/src/chevents.c" 1
 107 0000 9FF021E3 		msr     CPSR_c, #0x9F
 108              	@ 0 "" 2
 109              		.loc 1 110 3 view .LVU30
 110              		.loc 1 110 14 view .LVU31
 111              		.loc 1 111 3 view .LVU32
 112              		.loc 1 109 5 is_stmt 0 view .LVU33
 113              		.arm
 114              		.syntax unified
ARM GAS  /var/folders/l5/0x54b2c10074c8bt31ycjvl80000gp/T//cc6w9WWc.s 			page 3


 115 0004 0020A0E1 		mov	r2, r0
 116              		.loc 1 111 9 view .LVU34
 117 0008 020000EA 		b	.L7
 118              	.LVL2:
 119              	.L9:
 120              		.loc 1 112 8 view .LVU35
 121 000c 010053E1 		cmp	r3, r1
 122 0010 0500000A 		beq	.L11
 123 0014 0320A0E1 		mov	r2, r3
 124              	.LVL3:
 125              	.L7:
 126              		.loc 1 112 5 is_stmt 1 view .LVU36
 127              		.loc 1 111 11 is_stmt 0 view .LVU37
 128 0018 003092E5 		ldr	r3, [r2]
 129              		.loc 1 111 9 view .LVU38
 130 001c 000053E1 		cmp	r3, r0
 131 0020 F9FFFF1A 		bne	.L9
 132              		.loc 1 118 3 is_stmt 1 view .LVU39
 133              		.loc 1 118 3 view .LVU40
 134              		.syntax divided
 135              	@ 118 "../../os/kernel/src/chevents.c" 1
 136 0024 1FF021E3 		msr     CPSR_c, #0x1F
 137              	@ 0 "" 2
 138              		.loc 1 118 16 view .LVU41
 139              		.loc 1 119 1 is_stmt 0 view .LVU42
 140              		.arm
 141              		.syntax unified
 142 0028 1EFF2FE1 		bx	lr
 143              	.L11:
 144              		.loc 1 113 7 is_stmt 1 view .LVU43
 145              		.loc 1 113 23 is_stmt 0 view .LVU44
 146 002c 003091E5 		ldr	r3, [r1]
 147              		.loc 1 113 18 view .LVU45
 148 0030 003082E5 		str	r3, [r2]
 149              		.loc 1 114 7 is_stmt 1 view .LVU46
 150              		.loc 1 118 3 view .LVU47
 151              		.loc 1 118 3 view .LVU48
 152              		.syntax divided
 153              	@ 118 "../../os/kernel/src/chevents.c" 1
 154 0034 1FF021E3 		msr     CPSR_c, #0x1F
 155              	@ 0 "" 2
 156              		.loc 1 118 16 view .LVU49
 157              		.loc 1 119 1 is_stmt 0 view .LVU50
 158              		.arm
 159              		.syntax unified
 160 0038 1EFF2FE1 		bx	lr
 161              		.cfi_endproc
 162              	.LFE8:
 163              		.size	chEvtUnregister, .-chEvtUnregister
 164              		.section	.text.chEvtGetAndClearEvents,"ax",%progbits
 165              		.align	2
 166              		.global	chEvtGetAndClearEvents
 167              		.syntax unified
 168              		.arm
 169              		.fpu softvfp
 170              		.type	chEvtGetAndClearEvents, %function
 171              	chEvtGetAndClearEvents:
ARM GAS  /var/folders/l5/0x54b2c10074c8bt31ycjvl80000gp/T//cc6w9WWc.s 			page 4


 172              	.LVL4:
 173              	.LFB9:
 174              		.loc 1 129 54 is_stmt 1 view -0
 175              		.cfi_startproc
 176              		@ args = 0, pretend = 0, frame = 0
 177              		@ frame_needed = 0, uses_anonymous_args = 0
 178              		@ link register save eliminated.
 179              		.loc 1 130 3 view .LVU52
 180              		.loc 1 132 3 view .LVU53
 181              		.syntax divided
 182              	@ 132 "../../os/kernel/src/chevents.c" 1
 183 0000 9FF021E3 		msr     CPSR_c, #0x9F
 184              	@ 0 "" 2
 185              		.loc 1 132 3 view .LVU54
 186              		.loc 1 132 14 view .LVU55
 187              		.loc 1 134 3 view .LVU56
 188              		.loc 1 134 7 is_stmt 0 view .LVU57
 189              		.arm
 190              		.syntax unified
 191 0004 18309FE5 		ldr	r3, .L13
 192 0008 182093E5 		ldr	r2, [r3, #24]
 193              		.loc 1 134 12 view .LVU58
 194 000c 383092E5 		ldr	r3, [r2, #56]
 195              	.LVL5:
 196              		.loc 1 135 3 is_stmt 1 view .LVU59
 197              		.loc 1 135 21 is_stmt 0 view .LVU60
 198 0010 0010C3E1 		bic	r1, r3, r0
 199 0014 381082E5 		str	r1, [r2, #56]
 200              		.loc 1 137 3 is_stmt 1 view .LVU61
 201              		.loc 1 137 3 view .LVU62
 202              		.syntax divided
 203              	@ 137 "../../os/kernel/src/chevents.c" 1
 204 0018 1FF021E3 		msr     CPSR_c, #0x1F
 205              	@ 0 "" 2
 206              		.loc 1 137 16 view .LVU63
 207              		.loc 1 138 3 view .LVU64
 208              		.loc 1 139 1 is_stmt 0 view .LVU65
 209              		.arm
 210              		.syntax unified
 211 001c 030000E0 		and	r0, r0, r3
 212              	.LVL6:
 213              		.loc 1 139 1 view .LVU66
 214 0020 1EFF2FE1 		bx	lr
 215              	.L14:
 216              		.align	2
 217              	.L13:
 218 0024 00000000 		.word	rlist
 219              		.cfi_endproc
 220              	.LFE9:
 221              		.size	chEvtGetAndClearEvents, .-chEvtGetAndClearEvents
 222              		.section	.text.chEvtAddEvents,"ax",%progbits
 223              		.align	2
 224              		.global	chEvtAddEvents
 225              		.syntax unified
 226              		.arm
 227              		.fpu softvfp
 228              		.type	chEvtAddEvents, %function
ARM GAS  /var/folders/l5/0x54b2c10074c8bt31ycjvl80000gp/T//cc6w9WWc.s 			page 5


 229              	chEvtAddEvents:
 230              	.LVL7:
 231              	.LFB10:
 232              		.loc 1 150 46 is_stmt 1 view -0
 233              		.cfi_startproc
 234              		@ args = 0, pretend = 0, frame = 0
 235              		@ frame_needed = 0, uses_anonymous_args = 0
 236              		@ link register save eliminated.
 237              		.loc 1 152 3 view .LVU68
 238              		.syntax divided
 239              	@ 152 "../../os/kernel/src/chevents.c" 1
 240 0000 9FF021E3 		msr     CPSR_c, #0x9F
 241              	@ 0 "" 2
 242              		.loc 1 152 3 view .LVU69
 243              		.loc 1 152 14 view .LVU70
 244              		.loc 1 154 3 view .LVU71
 245              		.loc 1 154 11 is_stmt 0 view .LVU72
 246              		.arm
 247              		.syntax unified
 248 0004 14309FE5 		ldr	r3, .L16
 249 0008 183093E5 		ldr	r3, [r3, #24]
 250              		.loc 1 154 29 view .LVU73
 251 000c 382093E5 		ldr	r2, [r3, #56]
 252 0010 020080E1 		orr	r0, r0, r2
 253              	.LVL8:
 254              		.loc 1 154 29 view .LVU74
 255 0014 380083E5 		str	r0, [r3, #56]
 256              	.LVL9:
 257              		.loc 1 156 3 is_stmt 1 view .LVU75
 258              		.loc 1 156 3 view .LVU76
 259              		.syntax divided
 260              	@ 156 "../../os/kernel/src/chevents.c" 1
 261 0018 1FF021E3 		msr     CPSR_c, #0x1F
 262              	@ 0 "" 2
 263              		.loc 1 156 16 view .LVU77
 264              		.loc 1 157 3 view .LVU78
 265              		.loc 1 158 1 is_stmt 0 view .LVU79
 266              		.arm
 267              		.syntax unified
 268 001c 1EFF2FE1 		bx	lr
 269              	.L17:
 270              		.align	2
 271              	.L16:
 272 0020 00000000 		.word	rlist
 273              		.cfi_endproc
 274              	.LFE10:
 275              		.size	chEvtAddEvents, .-chEvtAddEvents
 276              		.section	.text.chEvtGetAndClearFlags,"ax",%progbits
 277              		.align	2
 278              		.global	chEvtGetAndClearFlags
 279              		.syntax unified
 280              		.arm
 281              		.fpu softvfp
 282              		.type	chEvtGetAndClearFlags, %function
 283              	chEvtGetAndClearFlags:
 284              	.LVL10:
 285              	.LFB12:
ARM GAS  /var/folders/l5/0x54b2c10074c8bt31ycjvl80000gp/T//cc6w9WWc.s 			page 6


 286              		.loc 1 202 55 is_stmt 1 view -0
 287              		.cfi_startproc
 288              		@ args = 0, pretend = 0, frame = 0
 289              		@ frame_needed = 0, uses_anonymous_args = 0
 290              		@ link register save eliminated.
 291              		.loc 1 203 3 view .LVU81
 292              		.loc 1 205 3 view .LVU82
 293              		.loc 1 202 55 is_stmt 0 view .LVU83
 294 0000 0030A0E1 		mov	r3, r0
 295              		.loc 1 205 3 view .LVU84
 296              		.syntax divided
 297              	@ 205 "../../os/kernel/src/chevents.c" 1
 298 0004 9FF021E3 		msr     CPSR_c, #0x9F
 299              	@ 0 "" 2
 300              		.loc 1 205 3 is_stmt 1 view .LVU85
 301              		.loc 1 205 14 view .LVU86
 302              		.loc 1 207 3 view .LVU87
 303              		.loc 1 208 17 is_stmt 0 view .LVU88
 304              		.arm
 305              		.syntax unified
 306 0008 0020A0E3 		mov	r2, #0
 307              		.loc 1 207 9 view .LVU89
 308 000c 0C0090E5 		ldr	r0, [r0, #12]
 309              	.LVL11:
 310              		.loc 1 208 3 is_stmt 1 view .LVU90
 311              		.loc 1 208 17 is_stmt 0 view .LVU91
 312 0010 0C2083E5 		str	r2, [r3, #12]
 313              		.loc 1 210 3 is_stmt 1 view .LVU92
 314              		.loc 1 210 3 view .LVU93
 315              		.syntax divided
 316              	@ 210 "../../os/kernel/src/chevents.c" 1
 317 0014 1FF021E3 		msr     CPSR_c, #0x1F
 318              	@ 0 "" 2
 319              		.loc 1 210 16 view .LVU94
 320              		.loc 1 211 3 view .LVU95
 321              		.loc 1 212 1 is_stmt 0 view .LVU96
 322              		.arm
 323              		.syntax unified
 324 0018 1EFF2FE1 		bx	lr
 325              		.cfi_endproc
 326              	.LFE12:
 327              		.size	chEvtGetAndClearFlags, .-chEvtGetAndClearFlags
 328              		.section	.text.chEvtSignalI,"ax",%progbits
 329              		.align	2
 330              		.global	chEvtSignalI
 331              		.syntax unified
 332              		.arm
 333              		.fpu softvfp
 334              		.type	chEvtSignalI, %function
 335              	chEvtSignalI:
 336              	.LVL12:
 337              	.LFB14:
 338              		.loc 1 244 49 is_stmt 1 view -0
 339              		.cfi_startproc
 340              		@ args = 0, pretend = 0, frame = 0
 341              		@ frame_needed = 0, uses_anonymous_args = 0
 342              		.loc 1 246 3 view .LVU98
ARM GAS  /var/folders/l5/0x54b2c10074c8bt31ycjvl80000gp/T//cc6w9WWc.s 			page 7


 343              		.loc 1 246 21 view .LVU99
 344              		.loc 1 247 3 view .LVU100
 345              		.loc 1 247 41 view .LVU101
 346              		.loc 1 249 3 view .LVU102
 347              		.loc 1 249 18 is_stmt 0 view .LVU103
 348 0000 383090E5 		ldr	r3, [r0, #56]
 349              		.loc 1 251 11 view .LVU104
 350 0004 1C20D0E5 		ldrb	r2, [r0, #28]	@ zero_extendqisi2
 351              		.loc 1 249 18 view .LVU105
 352 0008 031081E1 		orr	r1, r1, r3
 353              	.LVL13:
 354              		.loc 1 251 6 view .LVU106
 355 000c 080052E3 		cmp	r2, #8
 356              		.loc 1 249 18 view .LVU107
 357 0010 381080E5 		str	r1, [r0, #56]
 358              		.loc 1 251 3 is_stmt 1 view .LVU108
 359              		.loc 1 251 6 is_stmt 0 view .LVU109
 360 0014 0900000A 		beq	.L27
 361              		.loc 1 252 50 view .LVU110
 362 0018 090052E3 		cmp	r2, #9
 363 001c 1EFF2F11 		bxne	lr
 364              		.loc 1 254 34 view .LVU111
 365 0020 243090E5 		ldr	r3, [r0, #36]
 366              		.loc 1 253 44 view .LVU112
 367 0024 0130D3E1 		bics	r3, r3, r1
 368 0028 1EFF2F11 		bxne	lr
 369              	.L21:
 370              	.LVL14:
 371              	.LBB4:
 372              	.LBI4:
 373              		.loc 1 244 6 is_stmt 1 view .LVU113
 374              	.LBB5:
 375              		.loc 1 255 5 view .LVU114
 376              	.LBE5:
 377              	.LBE4:
 378              		.loc 1 244 49 is_stmt 0 view .LVU115
 379 002c 10402DE9 		push	{r4, lr}
 380              		.cfi_def_cfa_offset 8
 381              		.cfi_offset 4, -8
 382              		.cfi_offset 14, -4
 383              	.LBB7:
 384              	.LBB6:
 385              		.loc 1 255 5 view .LVU116
 386 0030 FEFFFFEB 		bl	chSchReadyI
 387              	.LVL15:
 388              		.loc 1 255 33 view .LVU117
 389 0034 0030A0E3 		mov	r3, #0
 390 0038 243080E5 		str	r3, [r0, #36]
 391              	.LBE6:
 392              	.LBE7:
 393              		.loc 1 256 1 view .LVU118
 394 003c 1080BDE8 		pop	{r4, pc}
 395              	.LVL16:
 396              	.L27:
 397              		.cfi_def_cfa_offset 0
 398              		.cfi_restore 4
 399              		.cfi_restore 14
ARM GAS  /var/folders/l5/0x54b2c10074c8bt31ycjvl80000gp/T//cc6w9WWc.s 			page 8


 400              		.loc 1 252 25 discriminator 1 view .LVU119
 401 0040 243090E5 		ldr	r3, [r0, #36]
 402              		.loc 1 251 43 discriminator 1 view .LVU120
 403 0044 030011E1 		tst	r1, r3
 404 0048 1EFF2F01 		bxeq	lr
 405 004c F6FFFFEA 		b	.L21
 406              		.cfi_endproc
 407              	.LFE14:
 408              		.size	chEvtSignalI, .-chEvtSignalI
 409              		.section	.text.chEvtBroadcastFlagsI,"ax",%progbits
 410              		.align	2
 411              		.global	chEvtBroadcastFlagsI
 412              		.syntax unified
 413              		.arm
 414              		.fpu softvfp
 415              		.type	chEvtBroadcastFlagsI, %function
 416              	chEvtBroadcastFlagsI:
 417              	.LVL17:
 418              	.LFB11:
 419              		.loc 1 177 64 is_stmt 1 view -0
 420              		.cfi_startproc
 421              		@ args = 0, pretend = 0, frame = 0
 422              		@ frame_needed = 0, uses_anonymous_args = 0
 423              		.loc 1 178 3 view .LVU122
 424              		.loc 1 180 3 view .LVU123
 425              		.loc 1 180 21 view .LVU124
 426              		.loc 1 181 3 view .LVU125
 427              		.loc 1 181 49 view .LVU126
 428              		.loc 1 183 3 view .LVU127
 429              		.loc 1 177 64 is_stmt 0 view .LVU128
 430 0000 70402DE9 		push	{r4, r5, r6, lr}
 431              		.cfi_def_cfa_offset 16
 432              		.cfi_offset 4, -16
 433              		.cfi_offset 5, -12
 434              		.cfi_offset 6, -8
 435              		.cfi_offset 14, -4
 436              		.loc 1 183 7 view .LVU129
 437 0004 004090E5 		ldr	r4, [r0]
 438              	.LVL18:
 439              		.loc 1 184 3 is_stmt 1 view .LVU130
 440              		.loc 1 184 9 is_stmt 0 view .LVU131
 441 0008 040050E1 		cmp	r0, r4
 442 000c 7080BD08 		popeq	{r4, r5, r6, pc}
 443 0010 0050A0E1 		mov	r5, r0
 444 0014 0160A0E1 		mov	r6, r1
 445              	.LVL19:
 446              	.L30:
 447              		.loc 1 185 5 is_stmt 1 view .LVU132
 448              		.loc 1 185 19 is_stmt 0 view .LVU133
 449 0018 0C3094E5 		ldr	r3, [r4, #12]
 450              		.loc 1 186 5 view .LVU134
 451 001c 081094E5 		ldr	r1, [r4, #8]
 452              		.loc 1 185 19 view .LVU135
 453 0020 063083E1 		orr	r3, r3, r6
 454 0024 0C3084E5 		str	r3, [r4, #12]
 455              		.loc 1 186 5 is_stmt 1 view .LVU136
 456 0028 040094E5 		ldr	r0, [r4, #4]
ARM GAS  /var/folders/l5/0x54b2c10074c8bt31ycjvl80000gp/T//cc6w9WWc.s 			page 9


 457 002c FEFFFFEB 		bl	chEvtSignalI
 458              	.LVL20:
 459              		.loc 1 187 5 view .LVU137
 460              		.loc 1 187 9 is_stmt 0 view .LVU138
 461 0030 004094E5 		ldr	r4, [r4]
 462              	.LVL21:
 463              		.loc 1 184 9 view .LVU139
 464 0034 040055E1 		cmp	r5, r4
 465 0038 F6FFFF1A 		bne	.L30
 466 003c 7080BDE8 		pop	{r4, r5, r6, pc}
 467              		.cfi_endproc
 468              	.LFE11:
 469              		.size	chEvtBroadcastFlagsI, .-chEvtBroadcastFlagsI
 470              		.section	.text.chEvtSignal,"ax",%progbits
 471              		.align	2
 472              		.global	chEvtSignal
 473              		.syntax unified
 474              		.arm
 475              		.fpu softvfp
 476              		.type	chEvtSignal, %function
 477              	chEvtSignal:
 478              	.LVL22:
 479              	.LFB13:
 480              		.loc 1 222 48 is_stmt 1 view -0
 481              		.cfi_startproc
 482              		@ args = 0, pretend = 0, frame = 0
 483              		@ frame_needed = 0, uses_anonymous_args = 0
 484              		.loc 1 224 3 view .LVU141
 485              		.loc 1 224 40 view .LVU142
 486              		.loc 1 226 3 view .LVU143
 487              		.loc 1 222 48 is_stmt 0 view .LVU144
 488 0000 10402DE9 		push	{r4, lr}
 489              		.cfi_def_cfa_offset 8
 490              		.cfi_offset 4, -8
 491              		.cfi_offset 14, -4
 492              		.loc 1 226 3 view .LVU145
 493              		.syntax divided
 494              	@ 226 "../../os/kernel/src/chevents.c" 1
 495 0004 9FF021E3 		msr     CPSR_c, #0x9F
 496              	@ 0 "" 2
 497              		.loc 1 226 3 is_stmt 1 view .LVU146
 498              		.loc 1 226 14 view .LVU147
 499              		.loc 1 227 3 view .LVU148
 500              		.arm
 501              		.syntax unified
 502 0008 FEFFFFEB 		bl	chEvtSignalI
 503              	.LVL23:
 504              		.loc 1 228 3 view .LVU149
 505 000c FEFFFFEB 		bl	chSchRescheduleS
 506              	.LVL24:
 507              		.loc 1 229 3 view .LVU150
 508              		.loc 1 229 3 view .LVU151
 509              		.syntax divided
 510              	@ 229 "../../os/kernel/src/chevents.c" 1
 511 0010 1FF021E3 		msr     CPSR_c, #0x1F
 512              	@ 0 "" 2
 513              		.loc 1 229 16 view .LVU152
ARM GAS  /var/folders/l5/0x54b2c10074c8bt31ycjvl80000gp/T//cc6w9WWc.s 			page 10


 514              		.loc 1 230 1 is_stmt 0 view .LVU153
 515              		.arm
 516              		.syntax unified
 517 0014 1080BDE8 		pop	{r4, pc}
 518              		.cfi_endproc
 519              	.LFE13:
 520              		.size	chEvtSignal, .-chEvtSignal
 521              		.section	.text.chEvtBroadcastFlags,"ax",%progbits
 522              		.align	2
 523              		.global	chEvtBroadcastFlags
 524              		.syntax unified
 525              		.arm
 526              		.fpu softvfp
 527              		.type	chEvtBroadcastFlags, %function
 528              	chEvtBroadcastFlags:
 529              	.LVL25:
 530              	.LFB15:
 531              		.loc 1 271 63 is_stmt 1 view -0
 532              		.cfi_startproc
 533              		@ args = 0, pretend = 0, frame = 0
 534              		@ frame_needed = 0, uses_anonymous_args = 0
 535              		.loc 1 273 3 view .LVU155
 536              		.loc 1 271 63 is_stmt 0 view .LVU156
 537 0000 10402DE9 		push	{r4, lr}
 538              		.cfi_def_cfa_offset 8
 539              		.cfi_offset 4, -8
 540              		.cfi_offset 14, -4
 541              		.loc 1 273 3 view .LVU157
 542              		.syntax divided
 543              	@ 273 "../../os/kernel/src/chevents.c" 1
 544 0004 9FF021E3 		msr     CPSR_c, #0x9F
 545              	@ 0 "" 2
 546              		.loc 1 273 3 is_stmt 1 view .LVU158
 547              		.loc 1 273 14 view .LVU159
 548              		.loc 1 274 3 view .LVU160
 549              		.arm
 550              		.syntax unified
 551 0008 FEFFFFEB 		bl	chEvtBroadcastFlagsI
 552              	.LVL26:
 553              		.loc 1 275 3 view .LVU161
 554 000c FEFFFFEB 		bl	chSchRescheduleS
 555              	.LVL27:
 556              		.loc 1 276 3 view .LVU162
 557              		.loc 1 276 3 view .LVU163
 558              		.syntax divided
 559              	@ 276 "../../os/kernel/src/chevents.c" 1
 560 0010 1FF021E3 		msr     CPSR_c, #0x1F
 561              	@ 0 "" 2
 562              		.loc 1 276 16 view .LVU164
 563              		.loc 1 277 1 is_stmt 0 view .LVU165
 564              		.arm
 565              		.syntax unified
 566 0014 1080BDE8 		pop	{r4, pc}
 567              		.cfi_endproc
 568              	.LFE15:
 569              		.size	chEvtBroadcastFlags, .-chEvtBroadcastFlags
 570              		.section	.text.chEvtGetAndClearFlagsI,"ax",%progbits
ARM GAS  /var/folders/l5/0x54b2c10074c8bt31ycjvl80000gp/T//cc6w9WWc.s 			page 11


 571              		.align	2
 572              		.global	chEvtGetAndClearFlagsI
 573              		.syntax unified
 574              		.arm
 575              		.fpu softvfp
 576              		.type	chEvtGetAndClearFlagsI, %function
 577              	chEvtGetAndClearFlagsI:
 578              	.LVL28:
 579              	.LFB16:
 580              		.loc 1 290 56 is_stmt 1 view -0
 581              		.cfi_startproc
 582              		@ args = 0, pretend = 0, frame = 0
 583              		@ frame_needed = 0, uses_anonymous_args = 0
 584              		@ link register save eliminated.
 585              		.loc 1 291 3 view .LVU167
 586              		.loc 1 293 3 view .LVU168
 587              		.loc 1 290 56 is_stmt 0 view .LVU169
 588 0000 0030A0E1 		mov	r3, r0
 589              		.loc 1 294 17 view .LVU170
 590 0004 0020A0E3 		mov	r2, #0
 591              		.loc 1 293 9 view .LVU171
 592 0008 0C0090E5 		ldr	r0, [r0, #12]
 593              	.LVL29:
 594              		.loc 1 294 3 is_stmt 1 view .LVU172
 595              		.loc 1 294 17 is_stmt 0 view .LVU173
 596 000c 0C2083E5 		str	r2, [r3, #12]
 597              		.loc 1 296 3 is_stmt 1 view .LVU174
 598              		.loc 1 297 1 is_stmt 0 view .LVU175
 599 0010 1EFF2FE1 		bx	lr
 600              		.cfi_endproc
 601              	.LFE16:
 602              		.size	chEvtGetAndClearFlagsI, .-chEvtGetAndClearFlagsI
 603              		.section	.text.chEvtDispatch,"ax",%progbits
 604              		.align	2
 605              		.global	chEvtDispatch
 606              		.syntax unified
 607              		.arm
 608              		.fpu softvfp
 609              		.type	chEvtDispatch, %function
 610              	chEvtDispatch:
 611              	.LVL30:
 612              	.LFB17:
 613              		.loc 1 308 67 is_stmt 1 view -0
 614              		.cfi_startproc
 615              		@ args = 0, pretend = 0, frame = 0
 616              		@ frame_needed = 0, uses_anonymous_args = 0
 617              		.loc 1 309 3 view .LVU177
 618              		.loc 1 311 3 view .LVU178
 619              		.loc 1 311 48 view .LVU179
 620              		.loc 1 313 3 view .LVU180
 621              		.loc 1 314 3 view .LVU181
 622              		.loc 1 308 67 is_stmt 0 view .LVU182
 623 0000 F0412DE9 		push	{r4, r5, r6, r7, r8, lr}
 624              		.cfi_def_cfa_offset 24
 625              		.cfi_offset 4, -24
 626              		.cfi_offset 5, -20
 627              		.cfi_offset 6, -16
ARM GAS  /var/folders/l5/0x54b2c10074c8bt31ycjvl80000gp/T//cc6w9WWc.s 			page 12


 628              		.cfi_offset 7, -12
 629              		.cfi_offset 8, -8
 630              		.cfi_offset 14, -4
 631              		.loc 1 314 9 view .LVU183
 632 0004 005051E2 		subs	r5, r1, #0
 633 0008 F081BD08 		popeq	{r4, r5, r6, r7, r8, pc}
 634 000c 0070A0E1 		mov	r7, r0
 635              		.loc 1 313 7 view .LVU184
 636 0010 0040A0E3 		mov	r4, #0
 637              		.loc 1 315 16 view .LVU185
 638 0014 0160A0E3 		mov	r6, #1
 639              	.LVL31:
 640              	.L41:
 641              		.loc 1 315 5 is_stmt 1 view .LVU186
 642              		.loc 1 316 7 view .LVU187
 643              		.loc 1 318 34 view .LVU188
 644              		.loc 1 319 7 view .LVU189
 645              		.loc 1 322 5 view .LVU190
 646              		.loc 1 315 16 is_stmt 0 view .LVU191
 647 0018 1634A0E1 		lsl	r3, r6, r4
 648              		.loc 1 315 8 view .LVU192
 649 001c 050013E1 		tst	r3, r5
 650 0020 0900000A 		beq	.L40
 651              	.L51:
 652              		.loc 1 319 12 view .LVU193
 653 0024 0350C5E1 		bic	r5, r5, r3
 654              	.LVL32:
 655              		.loc 1 320 7 is_stmt 1 view .LVU194
 656 0028 0400A0E1 		mov	r0, r4
 657 002c 043197E7 		ldr	r3, [r7, r4, lsl #2]
 658 0030 33FF2FE1 		blx	r3
 659              	.LVL33:
 660              		.loc 1 322 5 view .LVU195
 661              		.loc 1 314 9 is_stmt 0 view .LVU196
 662 0034 000055E3 		cmp	r5, #0
 663              		.loc 1 322 8 view .LVU197
 664 0038 014084E2 		add	r4, r4, #1
 665              	.LVL34:
 666              		.loc 1 314 9 view .LVU198
 667 003c F081BD08 		popeq	{r4, r5, r6, r7, r8, pc}
 668              		.loc 1 315 5 is_stmt 1 view .LVU199
 669              		.loc 1 316 7 view .LVU200
 670              		.loc 1 318 34 view .LVU201
 671              		.loc 1 319 7 view .LVU202
 672              		.loc 1 322 5 view .LVU203
 673              		.loc 1 315 16 is_stmt 0 view .LVU204
 674 0040 1634A0E1 		lsl	r3, r6, r4
 675              		.loc 1 315 8 view .LVU205
 676 0044 050013E1 		tst	r3, r5
 677 0048 F5FFFF1A 		bne	.L51
 678              	.L40:
 679              		.loc 1 322 8 view .LVU206
 680 004c 014084E2 		add	r4, r4, #1
 681              	.LVL35:
 682              		.loc 1 322 8 view .LVU207
 683 0050 F0FFFFEA 		b	.L41
 684              		.cfi_endproc
ARM GAS  /var/folders/l5/0x54b2c10074c8bt31ycjvl80000gp/T//cc6w9WWc.s 			page 13


 685              	.LFE17:
 686              		.size	chEvtDispatch, .-chEvtDispatch
 687              		.section	.text.chEvtWaitOne,"ax",%progbits
 688              		.align	2
 689              		.global	chEvtWaitOne
 690              		.syntax unified
 691              		.arm
 692              		.fpu softvfp
 693              		.type	chEvtWaitOne, %function
 694              	chEvtWaitOne:
 695              	.LVL36:
 696              	.LFB18:
 697              		.loc 1 343 44 is_stmt 1 view -0
 698              		.cfi_startproc
 699              		@ args = 0, pretend = 0, frame = 0
 700              		@ frame_needed = 0, uses_anonymous_args = 0
 701              		.loc 1 344 3 view .LVU209
 702              		.loc 1 344 11 is_stmt 0 view .LVU210
 703 0000 48309FE5 		ldr	r3, .L56
 704              		.loc 1 343 44 view .LVU211
 705 0004 70402DE9 		push	{r4, r5, r6, lr}
 706              		.cfi_def_cfa_offset 16
 707              		.cfi_offset 4, -16
 708              		.cfi_offset 5, -12
 709              		.cfi_offset 6, -8
 710              		.cfi_offset 14, -4
 711              		.loc 1 344 11 view .LVU212
 712 0008 185093E5 		ldr	r5, [r3, #24]
 713              	.LVL37:
 714              		.loc 1 345 3 is_stmt 1 view .LVU213
 715              		.loc 1 347 3 view .LVU214
 716              		.syntax divided
 717              	@ 347 "../../os/kernel/src/chevents.c" 1
 718 000c 9FF021E3 		msr     CPSR_c, #0x9F
 719              	@ 0 "" 2
 720              		.loc 1 347 3 view .LVU215
 721              		.loc 1 347 14 view .LVU216
 722              		.loc 1 349 3 view .LVU217
 723              		.loc 1 349 16 is_stmt 0 view .LVU218
 724              		.arm
 725              		.syntax unified
 726 0010 383095E5 		ldr	r3, [r5, #56]
 727              	.LVL38:
 728              		.loc 1 349 6 view .LVU219
 729 0014 004013E0 		ands	r4, r3, r0
 730              	.LVL39:
 731              		.loc 1 349 6 view .LVU220
 732 0018 0500000A 		beq	.L55
 733              	.LVL40:
 734              	.L53:
 735              		.loc 1 354 3 is_stmt 1 view .LVU221
 736              		.loc 1 354 8 is_stmt 0 view .LVU222
 737 001c 000064E2 		rsb	r0, r4, #0
 738              		.loc 1 354 5 view .LVU223
 739 0020 040000E0 		and	r0, r0, r4
 740              	.LVL41:
 741              		.loc 1 355 3 is_stmt 1 view .LVU224
ARM GAS  /var/folders/l5/0x54b2c10074c8bt31ycjvl80000gp/T//cc6w9WWc.s 			page 14


 742              		.loc 1 355 19 is_stmt 0 view .LVU225
 743 0024 0030C3E1 		bic	r3, r3, r0
 744 0028 383085E5 		str	r3, [r5, #56]
 745              		.loc 1 357 3 is_stmt 1 view .LVU226
 746              		.loc 1 357 3 view .LVU227
 747              		.syntax divided
 748              	@ 357 "../../os/kernel/src/chevents.c" 1
 749 002c 1FF021E3 		msr     CPSR_c, #0x1F
 750              	@ 0 "" 2
 751              		.loc 1 357 16 view .LVU228
 752              		.loc 1 358 3 view .LVU229
 753              		.loc 1 359 1 is_stmt 0 view .LVU230
 754              		.arm
 755              		.syntax unified
 756 0030 7080BDE8 		pop	{r4, r5, r6, pc}
 757              	.LVL42:
 758              	.L55:
 759              		.loc 1 359 1 view .LVU231
 760 0034 0040A0E1 		mov	r4, r0
 761              	.LVL43:
 762              		.loc 1 350 5 is_stmt 1 view .LVU232
 763              		.loc 1 350 21 is_stmt 0 view .LVU233
 764 0038 240085E5 		str	r0, [r5, #36]
 765              		.loc 1 351 5 is_stmt 1 view .LVU234
 766 003c 0800A0E3 		mov	r0, #8
 767              	.LVL44:
 768              		.loc 1 351 5 is_stmt 0 view .LVU235
 769 0040 FEFFFFEB 		bl	chSchGoSleepS
 770              	.LVL45:
 771              		.loc 1 352 5 is_stmt 1 view .LVU236
 772              		.loc 1 352 12 is_stmt 0 view .LVU237
 773 0044 383095E5 		ldr	r3, [r5, #56]
 774              		.loc 1 352 7 view .LVU238
 775 0048 034004E0 		and	r4, r4, r3
 776              	.LVL46:
 777              		.loc 1 352 7 view .LVU239
 778 004c F2FFFFEA 		b	.L53
 779              	.L57:
 780              		.align	2
 781              	.L56:
 782 0050 00000000 		.word	rlist
 783              		.cfi_endproc
 784              	.LFE18:
 785              		.size	chEvtWaitOne, .-chEvtWaitOne
 786              		.section	.text.chEvtWaitAny,"ax",%progbits
 787              		.align	2
 788              		.global	chEvtWaitAny
 789              		.syntax unified
 790              		.arm
 791              		.fpu softvfp
 792              		.type	chEvtWaitAny, %function
 793              	chEvtWaitAny:
 794              	.LVL47:
 795              	.LFB19:
 796              		.loc 1 372 44 is_stmt 1 view -0
 797              		.cfi_startproc
 798              		@ args = 0, pretend = 0, frame = 0
ARM GAS  /var/folders/l5/0x54b2c10074c8bt31ycjvl80000gp/T//cc6w9WWc.s 			page 15


 799              		@ frame_needed = 0, uses_anonymous_args = 0
 800              		.loc 1 373 3 view .LVU241
 801              		.loc 1 373 11 is_stmt 0 view .LVU242
 802 0000 44309FE5 		ldr	r3, .L62
 803              		.loc 1 372 44 view .LVU243
 804 0004 70402DE9 		push	{r4, r5, r6, lr}
 805              		.cfi_def_cfa_offset 16
 806              		.cfi_offset 4, -16
 807              		.cfi_offset 5, -12
 808              		.cfi_offset 6, -8
 809              		.cfi_offset 14, -4
 810              		.loc 1 373 11 view .LVU244
 811 0008 185093E5 		ldr	r5, [r3, #24]
 812              	.LVL48:
 813              		.loc 1 374 3 is_stmt 1 view .LVU245
 814              		.loc 1 376 3 view .LVU246
 815              		.syntax divided
 816              	@ 376 "../../os/kernel/src/chevents.c" 1
 817 000c 9FF021E3 		msr     CPSR_c, #0x9F
 818              	@ 0 "" 2
 819              		.loc 1 376 3 view .LVU247
 820              		.loc 1 376 14 view .LVU248
 821              		.loc 1 378 3 view .LVU249
 822              		.loc 1 378 16 is_stmt 0 view .LVU250
 823              		.arm
 824              		.syntax unified
 825 0010 383095E5 		ldr	r3, [r5, #56]
 826              	.LVL49:
 827              		.loc 1 378 6 view .LVU251
 828 0014 004013E0 		ands	r4, r3, r0
 829              	.LVL50:
 830              		.loc 1 378 6 view .LVU252
 831 0018 0400000A 		beq	.L61
 832              	.LVL51:
 833              	.L59:
 834              		.loc 1 383 3 is_stmt 1 view .LVU253
 835              		.loc 1 383 19 is_stmt 0 view .LVU254
 836 001c 0430C3E1 		bic	r3, r3, r4
 837 0020 383085E5 		str	r3, [r5, #56]
 838              		.loc 1 385 3 is_stmt 1 view .LVU255
 839              		.loc 1 385 3 view .LVU256
 840              		.syntax divided
 841              	@ 385 "../../os/kernel/src/chevents.c" 1
 842 0024 1FF021E3 		msr     CPSR_c, #0x1F
 843              	@ 0 "" 2
 844              		.loc 1 385 16 view .LVU257
 845              		.loc 1 386 3 view .LVU258
 846              		.loc 1 387 1 is_stmt 0 view .LVU259
 847              		.arm
 848              		.syntax unified
 849 0028 0400A0E1 		mov	r0, r4
 850 002c 7080BDE8 		pop	{r4, r5, r6, pc}
 851              	.LVL52:
 852              	.L61:
 853              		.loc 1 387 1 view .LVU260
 854 0030 0040A0E1 		mov	r4, r0
 855              	.LVL53:
ARM GAS  /var/folders/l5/0x54b2c10074c8bt31ycjvl80000gp/T//cc6w9WWc.s 			page 16


 856              		.loc 1 379 5 is_stmt 1 view .LVU261
 857              		.loc 1 379 21 is_stmt 0 view .LVU262
 858 0034 240085E5 		str	r0, [r5, #36]
 859              		.loc 1 380 5 is_stmt 1 view .LVU263
 860 0038 0800A0E3 		mov	r0, #8
 861              	.LVL54:
 862              		.loc 1 380 5 is_stmt 0 view .LVU264
 863 003c FEFFFFEB 		bl	chSchGoSleepS
 864              	.LVL55:
 865              		.loc 1 381 5 is_stmt 1 view .LVU265
 866              		.loc 1 381 12 is_stmt 0 view .LVU266
 867 0040 383095E5 		ldr	r3, [r5, #56]
 868              		.loc 1 381 7 view .LVU267
 869 0044 034004E0 		and	r4, r4, r3
 870              	.LVL56:
 871              		.loc 1 381 7 view .LVU268
 872 0048 F3FFFFEA 		b	.L59
 873              	.L63:
 874              		.align	2
 875              	.L62:
 876 004c 00000000 		.word	rlist
 877              		.cfi_endproc
 878              	.LFE19:
 879              		.size	chEvtWaitAny, .-chEvtWaitAny
 880              		.section	.text.chEvtWaitAll,"ax",%progbits
 881              		.align	2
 882              		.global	chEvtWaitAll
 883              		.syntax unified
 884              		.arm
 885              		.fpu softvfp
 886              		.type	chEvtWaitAll, %function
 887              	chEvtWaitAll:
 888              	.LVL57:
 889              	.LFB20:
 890              		.loc 1 400 44 is_stmt 1 view -0
 891              		.cfi_startproc
 892              		@ args = 0, pretend = 0, frame = 0
 893              		@ frame_needed = 0, uses_anonymous_args = 0
 894              		.loc 1 401 3 view .LVU270
 895              		.loc 1 401 11 is_stmt 0 view .LVU271
 896 0000 3C309FE5 		ldr	r3, .L67
 897              		.loc 1 400 44 view .LVU272
 898 0004 70402DE9 		push	{r4, r5, r6, lr}
 899              		.cfi_def_cfa_offset 16
 900              		.cfi_offset 4, -16
 901              		.cfi_offset 5, -12
 902              		.cfi_offset 6, -8
 903              		.cfi_offset 14, -4
 904              		.loc 1 400 44 view .LVU273
 905 0008 0040A0E1 		mov	r4, r0
 906              		.loc 1 401 11 view .LVU274
 907 000c 185093E5 		ldr	r5, [r3, #24]
 908              	.LVL58:
 909              		.loc 1 403 3 is_stmt 1 view .LVU275
 910              		.syntax divided
 911              	@ 403 "../../os/kernel/src/chevents.c" 1
 912 0010 9FF021E3 		msr     CPSR_c, #0x9F
ARM GAS  /var/folders/l5/0x54b2c10074c8bt31ycjvl80000gp/T//cc6w9WWc.s 			page 17


 913              	@ 0 "" 2
 914              		.loc 1 403 3 view .LVU276
 915              		.loc 1 403 14 view .LVU277
 916              		.loc 1 405 3 view .LVU278
 917              		.loc 1 405 11 is_stmt 0 view .LVU279
 918              		.arm
 919              		.syntax unified
 920 0014 383095E5 		ldr	r3, [r5, #56]
 921              		.loc 1 405 6 view .LVU280
 922 0018 0320D0E1 		bics	r2, r0, r3
 923 001c 0300000A 		beq	.L65
 924              		.loc 1 406 5 is_stmt 1 view .LVU281
 925              		.loc 1 406 21 is_stmt 0 view .LVU282
 926 0020 240085E5 		str	r0, [r5, #36]
 927              		.loc 1 407 5 is_stmt 1 view .LVU283
 928 0024 0900A0E3 		mov	r0, #9
 929              	.LVL59:
 930              		.loc 1 407 5 is_stmt 0 view .LVU284
 931 0028 FEFFFFEB 		bl	chSchGoSleepS
 932              	.LVL60:
 933 002c 383095E5 		ldr	r3, [r5, #56]
 934              	.L65:
 935              		.loc 1 409 3 is_stmt 1 view .LVU285
 936              		.loc 1 409 19 is_stmt 0 view .LVU286
 937 0030 0430C3E1 		bic	r3, r3, r4
 938 0034 383085E5 		str	r3, [r5, #56]
 939              		.loc 1 411 3 is_stmt 1 view .LVU287
 940              		.loc 1 411 3 view .LVU288
 941              		.syntax divided
 942              	@ 411 "../../os/kernel/src/chevents.c" 1
 943 0038 1FF021E3 		msr     CPSR_c, #0x1F
 944              	@ 0 "" 2
 945              		.loc 1 411 16 view .LVU289
 946              		.loc 1 412 3 view .LVU290
 947              		.loc 1 413 1 is_stmt 0 view .LVU291
 948              		.arm
 949              		.syntax unified
 950 003c 0400A0E1 		mov	r0, r4
 951 0040 7080BDE8 		pop	{r4, r5, r6, pc}
 952              	.L68:
 953              		.align	2
 954              	.L67:
 955 0044 00000000 		.word	rlist
 956              		.cfi_endproc
 957              	.LFE20:
 958              		.size	chEvtWaitAll, .-chEvtWaitAll
 959              		.section	.text.chEvtWaitOneTimeout,"ax",%progbits
 960              		.align	2
 961              		.global	chEvtWaitOneTimeout
 962              		.syntax unified
 963              		.arm
 964              		.fpu softvfp
 965              		.type	chEvtWaitOneTimeout, %function
 966              	chEvtWaitOneTimeout:
 967              	.LVL61:
 968              	.LFB21:
 969              		.loc 1 439 67 is_stmt 1 view -0
ARM GAS  /var/folders/l5/0x54b2c10074c8bt31ycjvl80000gp/T//cc6w9WWc.s 			page 18


 970              		.cfi_startproc
 971              		@ args = 0, pretend = 0, frame = 0
 972              		@ frame_needed = 0, uses_anonymous_args = 0
 973              		.loc 1 440 3 view .LVU293
 974              		.loc 1 440 11 is_stmt 0 view .LVU294
 975 0000 5C309FE5 		ldr	r3, .L76
 976              		.loc 1 439 67 view .LVU295
 977 0004 70402DE9 		push	{r4, r5, r6, lr}
 978              		.cfi_def_cfa_offset 16
 979              		.cfi_offset 4, -16
 980              		.cfi_offset 5, -12
 981              		.cfi_offset 6, -8
 982              		.cfi_offset 14, -4
 983              		.loc 1 440 11 view .LVU296
 984 0008 186093E5 		ldr	r6, [r3, #24]
 985              	.LVL62:
 986              		.loc 1 441 3 is_stmt 1 view .LVU297
 987              		.loc 1 443 3 view .LVU298
 988              		.syntax divided
 989              	@ 443 "../../os/kernel/src/chevents.c" 1
 990 000c 9FF021E3 		msr     CPSR_c, #0x9F
 991              	@ 0 "" 2
 992              		.loc 1 443 3 view .LVU299
 993              		.loc 1 443 14 view .LVU300
 994              		.loc 1 445 3 view .LVU301
 995              		.loc 1 445 16 is_stmt 0 view .LVU302
 996              		.arm
 997              		.syntax unified
 998 0010 383096E5 		ldr	r3, [r6, #56]
 999              	.LVL63:
 1000              		.loc 1 445 6 view .LVU303
 1001 0014 004013E0 		ands	r4, r3, r0
 1002              	.LVL64:
 1003              		.loc 1 445 6 view .LVU304
 1004 0018 0C00001A 		bne	.L70
 1005              		.loc 1 446 5 is_stmt 1 view .LVU305
 1006              		.loc 1 446 8 is_stmt 0 view .LVU306
 1007 001c 000051E3 		cmp	r1, #0
 1008 0020 0200001A 		bne	.L71
 1009              	.LVL65:
 1010              	.L75:
 1011              		.loc 1 460 3 is_stmt 1 view .LVU307
 1012              		.loc 1 460 3 view .LVU308
 1013              		.syntax divided
 1014              	@ 460 "../../os/kernel/src/chevents.c" 1
 1015 0024 1FF021E3 		msr     CPSR_c, #0x1F
 1016              	@ 0 "" 2
 1017              		.loc 1 460 16 view .LVU309
 1018              		.loc 1 461 3 view .LVU310
 1019              		.loc 1 462 1 is_stmt 0 view .LVU311
 1020              		.arm
 1021              		.syntax unified
 1022 0028 0400A0E1 		mov	r0, r4
 1023 002c 7080BDE8 		pop	{r4, r5, r6, pc}
 1024              	.LVL66:
 1025              	.L71:
 1026              		.loc 1 450 5 is_stmt 1 view .LVU312
ARM GAS  /var/folders/l5/0x54b2c10074c8bt31ycjvl80000gp/T//cc6w9WWc.s 			page 19


 1027              		.loc 1 450 21 is_stmt 0 view .LVU313
 1028 0030 240086E5 		str	r0, [r6, #36]
 1029              		.loc 1 451 5 is_stmt 1 view .LVU314
 1030 0034 0050A0E1 		mov	r5, r0
 1031              		.loc 1 451 9 is_stmt 0 view .LVU315
 1032 0038 0800A0E3 		mov	r0, #8
 1033              	.LVL67:
 1034              		.loc 1 451 9 view .LVU316
 1035 003c FEFFFFEB 		bl	chSchGoSleepTimeoutS
 1036              	.LVL68:
 1037              		.loc 1 451 8 view .LVU317
 1038 0040 000050E3 		cmp	r0, #0
 1039 0044 F6FFFFBA 		blt	.L75
 1040              		.loc 1 455 5 is_stmt 1 view .LVU318
 1041              		.loc 1 455 12 is_stmt 0 view .LVU319
 1042 0048 383096E5 		ldr	r3, [r6, #56]
 1043              		.loc 1 455 7 view .LVU320
 1044 004c 054003E0 		and	r4, r3, r5
 1045              	.LVL69:
 1046              	.L70:
 1047              		.loc 1 457 3 is_stmt 1 view .LVU321
 1048              		.loc 1 457 8 is_stmt 0 view .LVU322
 1049 0050 002064E2 		rsb	r2, r4, #0
 1050              		.loc 1 457 5 view .LVU323
 1051 0054 024004E0 		and	r4, r4, r2
 1052              	.LVL70:
 1053              		.loc 1 458 3 is_stmt 1 view .LVU324
 1054              		.loc 1 458 19 is_stmt 0 view .LVU325
 1055 0058 0430C3E1 		bic	r3, r3, r4
 1056 005c 383086E5 		str	r3, [r6, #56]
 1057 0060 EFFFFFEA 		b	.L75
 1058              	.L77:
 1059              		.align	2
 1060              	.L76:
 1061 0064 00000000 		.word	rlist
 1062              		.cfi_endproc
 1063              	.LFE21:
 1064              		.size	chEvtWaitOneTimeout, .-chEvtWaitOneTimeout
 1065              		.section	.text.chEvtWaitAnyTimeout,"ax",%progbits
 1066              		.align	2
 1067              		.global	chEvtWaitAnyTimeout
 1068              		.syntax unified
 1069              		.arm
 1070              		.fpu softvfp
 1071              		.type	chEvtWaitAnyTimeout, %function
 1072              	chEvtWaitAnyTimeout:
 1073              	.LVL71:
 1074              	.LFB22:
 1075              		.loc 1 482 67 is_stmt 1 view -0
 1076              		.cfi_startproc
 1077              		@ args = 0, pretend = 0, frame = 0
 1078              		@ frame_needed = 0, uses_anonymous_args = 0
 1079              		.loc 1 483 3 view .LVU327
 1080              		.loc 1 483 11 is_stmt 0 view .LVU328
 1081 0000 54309FE5 		ldr	r3, .L85
 1082              		.loc 1 482 67 view .LVU329
 1083 0004 70402DE9 		push	{r4, r5, r6, lr}
ARM GAS  /var/folders/l5/0x54b2c10074c8bt31ycjvl80000gp/T//cc6w9WWc.s 			page 20


 1084              		.cfi_def_cfa_offset 16
 1085              		.cfi_offset 4, -16
 1086              		.cfi_offset 5, -12
 1087              		.cfi_offset 6, -8
 1088              		.cfi_offset 14, -4
 1089              		.loc 1 483 11 view .LVU330
 1090 0008 185093E5 		ldr	r5, [r3, #24]
 1091              	.LVL72:
 1092              		.loc 1 484 3 is_stmt 1 view .LVU331
 1093              		.loc 1 486 3 view .LVU332
 1094              		.syntax divided
 1095              	@ 486 "../../os/kernel/src/chevents.c" 1
 1096 000c 9FF021E3 		msr     CPSR_c, #0x9F
 1097              	@ 0 "" 2
 1098              		.loc 1 486 3 view .LVU333
 1099              		.loc 1 486 14 view .LVU334
 1100              		.loc 1 488 3 view .LVU335
 1101              		.loc 1 488 16 is_stmt 0 view .LVU336
 1102              		.arm
 1103              		.syntax unified
 1104 0010 383095E5 		ldr	r3, [r5, #56]
 1105              	.LVL73:
 1106              		.loc 1 488 6 view .LVU337
 1107 0014 006013E0 		ands	r6, r3, r0
 1108              	.LVL74:
 1109              		.loc 1 488 6 view .LVU338
 1110 0018 0C00001A 		bne	.L79
 1111              		.loc 1 489 5 is_stmt 1 view .LVU339
 1112              		.loc 1 489 8 is_stmt 0 view .LVU340
 1113 001c 000051E3 		cmp	r1, #0
 1114 0020 0200001A 		bne	.L80
 1115              	.LVL75:
 1116              	.L84:
 1117              		.loc 1 502 3 is_stmt 1 view .LVU341
 1118              		.loc 1 502 3 view .LVU342
 1119              		.syntax divided
 1120              	@ 502 "../../os/kernel/src/chevents.c" 1
 1121 0024 1FF021E3 		msr     CPSR_c, #0x1F
 1122              	@ 0 "" 2
 1123              		.loc 1 502 16 view .LVU343
 1124              		.loc 1 503 3 view .LVU344
 1125              		.loc 1 504 1 is_stmt 0 view .LVU345
 1126              		.arm
 1127              		.syntax unified
 1128 0028 0600A0E1 		mov	r0, r6
 1129 002c 7080BDE8 		pop	{r4, r5, r6, pc}
 1130              	.LVL76:
 1131              	.L80:
 1132              		.loc 1 493 5 is_stmt 1 view .LVU346
 1133              		.loc 1 493 21 is_stmt 0 view .LVU347
 1134 0030 240085E5 		str	r0, [r5, #36]
 1135              		.loc 1 494 5 is_stmt 1 view .LVU348
 1136 0034 0040A0E1 		mov	r4, r0
 1137              		.loc 1 494 9 is_stmt 0 view .LVU349
 1138 0038 0800A0E3 		mov	r0, #8
 1139              	.LVL77:
 1140              		.loc 1 494 9 view .LVU350
ARM GAS  /var/folders/l5/0x54b2c10074c8bt31ycjvl80000gp/T//cc6w9WWc.s 			page 21


 1141 003c FEFFFFEB 		bl	chSchGoSleepTimeoutS
 1142              	.LVL78:
 1143              		.loc 1 494 8 view .LVU351
 1144 0040 000050E3 		cmp	r0, #0
 1145 0044 F6FFFFBA 		blt	.L84
 1146              		.loc 1 498 5 is_stmt 1 view .LVU352
 1147              		.loc 1 498 12 is_stmt 0 view .LVU353
 1148 0048 383095E5 		ldr	r3, [r5, #56]
 1149              		.loc 1 498 7 view .LVU354
 1150 004c 046003E0 		and	r6, r3, r4
 1151              	.LVL79:
 1152              	.L79:
 1153              		.loc 1 500 3 is_stmt 1 view .LVU355
 1154              		.loc 1 500 19 is_stmt 0 view .LVU356
 1155 0050 0630C3E1 		bic	r3, r3, r6
 1156 0054 383085E5 		str	r3, [r5, #56]
 1157 0058 F1FFFFEA 		b	.L84
 1158              	.L86:
 1159              		.align	2
 1160              	.L85:
 1161 005c 00000000 		.word	rlist
 1162              		.cfi_endproc
 1163              	.LFE22:
 1164              		.size	chEvtWaitAnyTimeout, .-chEvtWaitAnyTimeout
 1165              		.section	.text.chEvtWaitAllTimeout,"ax",%progbits
 1166              		.align	2
 1167              		.global	chEvtWaitAllTimeout
 1168              		.syntax unified
 1169              		.arm
 1170              		.fpu softvfp
 1171              		.type	chEvtWaitAllTimeout, %function
 1172              	chEvtWaitAllTimeout:
 1173              	.LVL80:
 1174              	.LFB23:
 1175              		.loc 1 523 67 is_stmt 1 view -0
 1176              		.cfi_startproc
 1177              		@ args = 0, pretend = 0, frame = 0
 1178              		@ frame_needed = 0, uses_anonymous_args = 0
 1179              		.loc 1 524 3 view .LVU358
 1180              		.loc 1 524 11 is_stmt 0 view .LVU359
 1181 0000 64309FE5 		ldr	r3, .L93
 1182              		.loc 1 523 67 view .LVU360
 1183 0004 70402DE9 		push	{r4, r5, r6, lr}
 1184              		.cfi_def_cfa_offset 16
 1185              		.cfi_offset 4, -16
 1186              		.cfi_offset 5, -12
 1187              		.cfi_offset 6, -8
 1188              		.cfi_offset 14, -4
 1189              		.loc 1 523 67 view .LVU361
 1190 0008 0040A0E1 		mov	r4, r0
 1191              		.loc 1 524 11 view .LVU362
 1192 000c 185093E5 		ldr	r5, [r3, #24]
 1193              	.LVL81:
 1194              		.loc 1 526 3 is_stmt 1 view .LVU363
 1195              		.syntax divided
 1196              	@ 526 "../../os/kernel/src/chevents.c" 1
 1197 0010 9FF021E3 		msr     CPSR_c, #0x9F
ARM GAS  /var/folders/l5/0x54b2c10074c8bt31ycjvl80000gp/T//cc6w9WWc.s 			page 22


 1198              	@ 0 "" 2
 1199              		.loc 1 526 3 view .LVU364
 1200              		.loc 1 526 14 view .LVU365
 1201              		.loc 1 528 3 view .LVU366
 1202              		.loc 1 528 11 is_stmt 0 view .LVU367
 1203              		.arm
 1204              		.syntax unified
 1205 0014 383095E5 		ldr	r3, [r5, #56]
 1206              		.loc 1 528 6 view .LVU368
 1207 0018 0320D0E1 		bics	r2, r0, r3
 1208 001c 0A00000A 		beq	.L88
 1209              		.loc 1 529 8 view .LVU369
 1210 0020 000051E3 		cmp	r1, #0
 1211 0024 0100A0E1 		mov	r0, r1
 1212              	.LVL82:
 1213              		.loc 1 529 5 is_stmt 1 view .LVU370
 1214              		.loc 1 529 8 is_stmt 0 view .LVU371
 1215 0028 0100001A 		bne	.L89
 1216              		.loc 1 530 7 is_stmt 1 view .LVU372
 1217              		.loc 1 530 7 view .LVU373
 1218              		.syntax divided
 1219              	@ 530 "../../os/kernel/src/chevents.c" 1
 1220 002c 1FF021E3 		msr     CPSR_c, #0x1F
 1221              	@ 0 "" 2
 1222              		.loc 1 530 20 view .LVU374
 1223              		.loc 1 531 7 view .LVU375
 1224              		.loc 1 531 14 is_stmt 0 view .LVU376
 1225              		.arm
 1226              		.syntax unified
 1227 0030 7080BDE8 		pop	{r4, r5, r6, pc}
 1228              	.L89:
 1229              		.loc 1 533 5 is_stmt 1 view .LVU377
 1230              		.loc 1 533 21 is_stmt 0 view .LVU378
 1231 0034 244085E5 		str	r4, [r5, #36]
 1232              		.loc 1 534 5 is_stmt 1 view .LVU379
 1233              		.loc 1 534 9 is_stmt 0 view .LVU380
 1234 0038 0900A0E3 		mov	r0, #9
 1235 003c FEFFFFEB 		bl	chSchGoSleepTimeoutS
 1236              	.LVL83:
 1237              		.loc 1 534 8 view .LVU381
 1238 0040 000050E3 		cmp	r0, #0
 1239 0044 050000BA 		blt	.L91
 1240 0048 383095E5 		ldr	r3, [r5, #56]
 1241              	.L88:
 1242              		.loc 1 539 3 is_stmt 1 view .LVU382
 1243              		.loc 1 539 19 is_stmt 0 view .LVU383
 1244 004c 0430C3E1 		bic	r3, r3, r4
 1245 0050 383085E5 		str	r3, [r5, #56]
 1246              		.loc 1 541 3 is_stmt 1 view .LVU384
 1247              		.loc 1 541 3 view .LVU385
 1248              		.syntax divided
 1249              	@ 541 "../../os/kernel/src/chevents.c" 1
 1250 0054 1FF021E3 		msr     CPSR_c, #0x1F
 1251              	@ 0 "" 2
 1252              		.loc 1 541 16 view .LVU386
 1253              		.loc 1 542 3 view .LVU387
 1254              		.loc 1 542 10 is_stmt 0 view .LVU388
ARM GAS  /var/folders/l5/0x54b2c10074c8bt31ycjvl80000gp/T//cc6w9WWc.s 			page 23


 1255              		.arm
 1256              		.syntax unified
 1257 0058 0400A0E1 		mov	r0, r4
 1258              		.loc 1 543 1 view .LVU389
 1259 005c 7080BDE8 		pop	{r4, r5, r6, pc}
 1260              	.L91:
 1261              		.loc 1 535 7 is_stmt 1 view .LVU390
 1262              		.loc 1 535 7 view .LVU391
 1263              		.syntax divided
 1264              	@ 535 "../../os/kernel/src/chevents.c" 1
 1265 0060 1FF021E3 		msr     CPSR_c, #0x1F
 1266              	@ 0 "" 2
 1267              		.loc 1 535 20 view .LVU392
 1268              		.loc 1 536 7 view .LVU393
 1269              		.loc 1 536 14 is_stmt 0 view .LVU394
 1270              		.arm
 1271              		.syntax unified
 1272 0064 0000A0E3 		mov	r0, #0
 1273 0068 7080BDE8 		pop	{r4, r5, r6, pc}
 1274              	.L94:
 1275              		.align	2
 1276              	.L93:
 1277 006c 00000000 		.word	rlist
 1278              		.cfi_endproc
 1279              	.LFE23:
 1280              		.size	chEvtWaitAllTimeout, .-chEvtWaitAllTimeout
 1281              		.text
 1282              	.Letext0:
 1283              		.file 2 "/usr/local/Cellar/arm-gcc-bin/8-2019-q3-update/arm-none-eabi/include/machine/_default_typ
 1284              		.file 3 "/usr/local/Cellar/arm-gcc-bin/8-2019-q3-update/arm-none-eabi/include/sys/_stdint.h"
 1285              		.file 4 "../../os/ports/GCC/ARM/chtypes.h"
 1286              		.file 5 "../../os/kernel/include/chlists.h"
 1287              		.file 6 "../../os/kernel/include/chthreads.h"
 1288              		.file 7 "../../os/ports/GCC/ARM/chcore.h"
 1289              		.file 8 "../../os/kernel/include/chvt.h"
 1290              		.file 9 "../../os/kernel/include/chschd.h"
 1291              		.file 10 "../../os/kernel/include/chmtx.h"
 1292              		.file 11 "../../os/kernel/include/chevents.h"
 1293              		.file 12 "../../os/kernel/include/chregistry.h"
 1294              		.file 13 "../../os/kernel/include/ch.h"