ARM GAS  /var/folders/l5/0x54b2c10074c8bt31ycjvl80000gp/T//cc6w9WWc.s 			page 1


   1              		.cpu arm1176jz-s
   2              		.eabi_attribute 20, 1
   3              		.eabi_attribute 21, 1
   4              		.eabi_attribute 23, 3
   5              		.eabi_attribute 24, 1
   6              		.eabi_attribute 25, 1
   7              		.eabi_attribute 26, 1
   8              		.eabi_attribute 30, 2
   9              		.eabi_attribute 34, 1
  10              		.eabi_attribute 18, 4
  11              		.file	"chevents.c"
  12              		.text
  13              	.Ltext0:
  14              		.cfi_sections	.debug_frame
  15              		.section	.text.chEvtRegisterMask,"ax",%progbits
  16              		.align	2
  17              		.global	chEvtRegisterMask
  18              		.arch armv6kz
  19              		.syntax unified
  20              		.arm
  21              		.fpu softvfp
  22              		.type	chEvtRegisterMask, %function
  23              	chEvtRegisterMask:
  24              	.LVL0:
  25              	.LFB7:
  26              		.file 1 "../../os/kernel/src/chevents.c"
  27              		.loc 1 78 80 view -0
  28              		.cfi_startproc
  29              		@ args = 0, pretend = 0, frame = 0
  30              		@ frame_needed = 0, uses_anonymous_args = 0
  31              		.loc 1 80 3 view .LVU1
  32              		.loc 1 80 66 view .LVU2
  33              		.loc 1 82 3 view .LVU3
  34              		.loc 1 78 80 is_stmt 0 view .LVU4
  35 0000 04E02DE5 		str	lr, [sp, #-4]!
  36              		.cfi_def_cfa_offset 4
  37              		.cfi_offset 14, -4
  38              		.loc 1 82 3 view .LVU5
  39              		.syntax divided
  40              	@ 82 "../../os/kernel/src/chevents.c" 1
  41 0004 9FF021E3 		msr     CPSR_c, #0x9F
  42              	@ 0 "" 2
  43              		.loc 1 82 3 is_stmt 1 view .LVU6
  44              		.loc 1 82 14 view .LVU7
  45              		.loc 1 83 3 view .LVU8
  46              		.loc 1 87 20 is_stmt 0 view .LVU9
  47              		.arm
  48              		.syntax unified
  49 0008 0030A0E3 		mov	r3, #0
  50              		.loc 1 85 22 view .LVU10
  51 000c 1CC09FE5 		ldr	ip, .L4
  52              		.loc 1 83 20 view .LVU11
  53 0010 00E090E5 		ldr	lr, [r0]
  54              		.loc 1 85 20 view .LVU12
  55 0014 18C09CE5 		ldr	ip, [ip, #24]
  56              		.loc 1 83 20 view .LVU13
  57 0018 00E081E5 		str	lr, [r1]
ARM GAS  /var/folders/l5/0x54b2c10074c8bt31ycjvl80000gp/T//cc6w9WWc.s 			page 2


  58              		.loc 1 84 3 is_stmt 1 view .LVU14
  59              		.loc 1 84 20 is_stmt 0 view .LVU15
  60 001c 001080E5 		str	r1, [r0]
  61              		.loc 1 85 3 is_stmt 1 view .LVU16
  62              		.loc 1 85 20 is_stmt 0 view .LVU17
  63 0020 04C081E5 		str	ip, [r1, #4]
  64              		.loc 1 86 3 is_stmt 1 view .LVU18
  65              		.loc 1 87 20 is_stmt 0 view .LVU19
  66 0024 F820C1E1 		strd	r2, [r1, #8]
  67              		.loc 1 88 3 is_stmt 1 view .LVU20
  68              		.loc 1 88 3 view .LVU21
  69              		.syntax divided
  70              	@ 88 "../../os/kernel/src/chevents.c" 1
  71 0028 1FF021E3 		msr     CPSR_c, #0x1F
  72              	@ 0 "" 2
  73              		.loc 1 88 16 view .LVU22
  74              		.loc 1 89 1 is_stmt 0 view .LVU23
  75              		.arm
  76              		.syntax unified
  77 002c 04F09DE4 		ldr	pc, [sp], #4
  78              	.L5:
  79              		.align	2
  80              	.L4:
  81 0030 00000000 		.word	rlist
  82              		.cfi_endproc
  83              	.LFE7:
  84              		.size	chEvtRegisterMask, .-chEvtRegisterMask
  85              		.section	.text.chEvtUnregister,"ax",%progbits
  86              		.align	2
  87              		.global	chEvtUnregister
  88              		.syntax unified
  89              		.arm
  90              		.fpu softvfp
  91              		.type	chEvtUnregister, %function
  92              	chEvtUnregister:
  93              	.LVL1:
  94              	.LFB8:
  95              		.loc 1 104 60 is_stmt 1 view -0
  96              		.cfi_startproc
  97              		@ args = 0, pretend = 0, frame = 0
  98              		@ frame_needed = 0, uses_anonymous_args = 0
  99              		@ link register save eliminated.
 100              		.loc 1 105 3 view .LVU25
 101              		.loc 1 107 3 view .LVU26
 102              		.loc 1 107 64 view .LVU27
 103              		.loc 1 109 3 view .LVU28
 104              		.loc 1 110 3 view .LVU29
 105              		.syntax divided
 106              	@ 110 "../../os/kernel/src/chevents.c" 1
 107 0000 9FF021E3 		msr     CPSR_c, #0x9F
 108              	@ 0 "" 2
 109              		.loc 1 110 3 view .LVU30
 110              		.loc 1 110 14 view .LVU31
 111              		.loc 1 111 3 view .LVU32
 112              		.loc 1 109 5 is_stmt 0 view .LVU33
 113              		.arm
 114              		.syntax unified
ARM GAS  /var/folders/l5/0x54b2c10074c8bt31ycjvl80000gp/T//cc6w9WWc.s 			page 3


 115 0004 0020A0E1 		mov	r2, r0
 116              		.loc 1 111 9 view .LVU34
 117 0008 020000EA 		b	.L7
 118              	.LVL2:
 119              	.L9:
 120              		.loc 1 112 8 view .LVU35
 121 000c 010053E1 		cmp	r3, r1
 122 0010 0500000A 		beq	.L11
 123 0014 0320A0E1 		mov	r2, r3
 124              	.LVL3:
 125              	.L7:
 126              		.loc 1 112 5 is_stmt 1 view .LVU36
 127              		.loc 1 111 11 is_stmt 0 view .LVU37
 128 0018 003092E5 		ldr	r3, [r2]
 129              		.loc 1 111 9 view .LVU38
 130 001c 000053E1 		cmp	r3, r0
 131 0020 F9FFFF1A 		bne	.L9
 132              		.loc 1 118 3 is_stmt 1 view .LVU39
 133              		.loc 1 118 3 view .LVU40
 134              		.syntax divided
 135              	@ 118 "../../os/kernel/src/chevents.c" 1
 136 0024 1FF021E3 		msr     CPSR_c, #0x1F
 137              	@ 0 "" 2
 138              		.loc 1 118 16 view .LVU41
 139              		.loc 1 119 1 is_stmt 0 view .LVU42
 140              		.arm
 141              		.syntax unified
 142 0028 1EFF2FE1 		bx	lr
 143              	.L11:
 144              		.loc 1 113 7 is_stmt 1 view .LVU43
 145              		.loc 1 113 23 is_stmt 0 view .LVU44
 146 002c 003091E5 		ldr	r3, [r1]
 147              		.loc 1 113 18 view .LVU45
 148 0030 003082E5 		str	r3, [r2]
 149              		.loc 1 114 7 is_stmt 1 view .LVU46
 150              		.loc 1 118 3 view .LVU47
 151              		.loc 1 118 3 view .LVU48
 152              		.syntax divided
 153              	@ 118 "../../os/kernel/src/chevents.c" 1
 154 0034 1FF021E3 		msr     CPSR_c, #0x1F
 155              	@ 0 "" 2
 156              		.loc 1 118 16 view .LVU49
 157              		.loc 1 119 1 is_stmt 0 view .LVU50
 158              		.arm
 159              		.syntax unified
 160 0038 1EFF2FE1 		bx	lr
 161              		.cfi_endproc
 162              	.LFE8:
 163              		.size	chEvtUnregister, .-chEvtUnregister
 164              		.section	.text.chEvtGetAndClearEvents,"ax",%progbits
 165              		.align	2
 166              		.global	chEvtGetAndClearEvents
 167              		.syntax unified
 168              		.arm
 169              		.fpu softvfp
 170              		.type	chEvtGetAndClearEvents, %function
 171              	chEvtGetAndClearEvents:
ARM GAS  /var/folders/l5/0x54b2c10074c8bt31ycjvl80000gp/T//cc6w9WWc.s 			page 4


 172              	.LVL4:
 173              	.LFB9:
 174              		.loc 1 129 54 is_stmt 1 view -0
 175              		.cfi_startproc
 176              		@ args = 0, pretend = 0, frame = 0
 177              		@ frame_needed = 0, uses_anonymous_args = 0
 178              		@ link register save eliminated.
 179              		.loc 1 130 3 view .LVU52
 180              		.loc 1 132 3 view .LVU53
 181              		.syntax divided
 182              	@ 132 "../../os/kernel/src/chevents.c" 1
 183 0000 9FF021E3 		msr     CPSR_c, #0x9F
 184              	@ 0 "" 2
 185              		.loc 1 132 3 view .LVU54
 186              		.loc 1 132 14 view .LVU55
 187              		.loc 1 134 3 view .LVU56
 188              		.loc 1 134 7 is_stmt 0 view .LVU57
 189              		.arm
 190              		.syntax unified
 191 0004 18309FE5 		ldr	r3, .L13
 192 0008 182093E5 		ldr	r2, [r3, #24]
 193              		.loc 1 134 12 view .LVU58
 194 000c 383092E5 		ldr	r3, [r2, #56]
 195              	.LVL5:
 196              		.loc 1 135 3 is_stmt 1 view .LVU59
 197              		.loc 1 135 21 is_stmt 0 view .LVU60
 198 0010 0010C3E1 		bic	r1, r3, r0
 199 0014 381082E5 		str	r1, [r2, #56]
 200              		.loc 1 137 3 is_stmt 1 view .LVU61
 201              		.loc 1 137 3 view .LVU62
 202              		.syntax divided
 203              	@ 137 "../../os/kernel/src/chevents.c" 1
 204 0018 1FF021E3 		msr     CPSR_c, #0x1F
 205              	@ 0 "" 2
 206              		.loc 1 137 16 view .LVU63
 207              		.loc 1 138 3 view .LVU64
 208              		.loc 1 139 1 is_stmt 0 view .LVU65
 209              		.arm
 210              		.syntax unified
 211 001c 030000E0 		and	r0, r0, r3
 212              	.LVL6:
 213              		.loc 1 139 1 view .LVU66
 214 0020 1EFF2FE1 		bx	lr
 215              	.L14:
 216              		.align	2
 217              	.L13:
 218 0024 00000000 		.word	rlist
 219              		.cfi_endproc
 220              	.LFE9:
 221              		.size	chEvtGetAndClearEvents, .-chEvtGetAndClearEvents
 222              		.section	.text.chEvtAddEvents,"ax",%progbits
 223              		.align	2
 224              		.global	chEvtAddEvents
 225              		.syntax unified
 226              		.arm
 227              		.fpu softvfp
 228              		.type	chEvtAddEvents, %function
ARM GAS  /var/folders/l5/0x54b2c10074c8bt31ycjvl80000gp/T//cc6w9WWc.s 			page 5


 229              	chEvtAddEvents:
 230              	.LVL7:
 231              	.LFB10:
 232              		.loc 1 150 46 is_stmt 1 view -0
 233              		.cfi_startproc
 234              		@ args = 0, pretend = 0, frame = 0
 235              		@ frame_needed = 0, uses_anonymous_args = 0
 236              		@ link register save eliminated.
 237              		.loc 1 152 3 view .LVU68
 238              		.syntax divided
 239              	@ 152 "../../os/kernel/src/chevents.c" 1
 240 0000 9FF021E3 		msr     CPSR_c, #0x9F
 241              	@ 0 "" 2
 242              		.loc 1 152 3 view .LVU69
 243              		.loc 1 152 14 view .LVU70
 244              		.loc 1 154 3 view .LVU71
 245              		.loc 1 154 11 is_stmt 0 view .LVU72
 246              		.arm
 247              		.syntax unified
 248 0004 14309FE5 		ldr	r3, .L16
 249 0008 183093E5 		ldr	r3, [r3, #24]
 250              		.loc 1 154 29 view .LVU73
 251 000c 382093E5 		ldr	r2, [r3, #56]
 252 0010 020080E1 		orr	r0, r0, r2
 253              	.LVL8:
 254              		.loc 1 154 29 view .LVU74
 255 0014 380083E5 		str	r0, [r3, #56]
 256              	.LVL9:
 257              		.loc 1 156 3 is_stmt 1 view .LVU75
 258              		.loc 1 156 3 view .LVU76
 259              		.syntax divided
 260              	@ 156 "../../os/kernel/src/chevents.c" 1
 261 0018 1FF021E3 		msr     CPSR_c, #0x1F
 262              	@ 0 "" 2
 263              		.loc 1 156 16 view .LVU77
 264              		.loc 1 157 3 view .LVU78
 265              		.loc 1 158 1 is_stmt 0 view .LVU79
 266              		.arm
 267              		.syntax unified
 268 001c 1EFF2FE1 		bx	lr
 269              	.L17:
 270              		.align	2
 271              	.L16:
 272 0020 00000000 		.word	rlist
 273              		.cfi_endproc
 274              	.LFE10:
 275              		.size	chEvtAddEvents, .-chEvtAddEvents
 276              		.section	.text.chEvtGetAndClearFlags,"ax",%progbits
 277              		.align	2
 278              		.global	chEvtGetAndClearFlags
 279              		.syntax unified
 280              		.arm
 281              		.fpu softvfp
 282              		.type	chEvtGetAndClearFlags, %function
 283              	chEvtGetAndClearFlags:
 284              	.LVL10:
 285              	.LFB12:
ARM GAS  /var/folders/l5/0x54b2c10074c8bt31ycjvl80000gp/T//cc6w9WWc.s 			page 6


 286              		.loc 1 202 55 is_stmt 1 view -0
 287              		.cfi_startproc
 288              		@ args = 0, pretend = 0, frame = 0
 289              		@ frame_needed = 0, uses_anonymous_args = 0
 290              		@ link register save eliminated.
 291              		.loc 1 203 3 view .LVU81
 292              		.loc 1 205 3 view .LVU82
 293              		.loc 1 202 55 is_stmt 0 view .LVU83
 294 0000 0030A0E1 		mov	r3, r0
 295              		.loc 1 205 3 view .LVU84
 296              		.syntax divided
 297              	@ 205 "../../os/kernel/src/chevents.c" 1
 298 0004 9FF021E3 		msr     CPSR_c, #0x9F
 299              	@ 0 "" 2
 300              		.loc 1 205 3 is_stmt 1 view .LVU85
 301              		.loc 1 205 14 view .LVU86
 302              		.loc 1 207 3 view .LVU87
 303              		.loc 1 208 17 is_stmt 0 view .LVU88
 304              		.arm
 305              		.syntax unified
 306 0008 0020A0E3 		mov	r2, #0
 307              		.loc 1 207 9 view .LVU89
 308 000c 0C0090E5 		ldr	r0, [r0, #12]
 309              	.LVL11:
 310              		.loc 1 208 3 is_stmt 1 view .LVU90
 311              		.loc 1 208 17 is_stmt 0 view .LVU91
 312 0010 0C2083E5 		str	r2, [r3, #12]
 313              		.loc 1 210 3 is_stmt 1 view .LVU92
 314              		.loc 1 210 3 view .LVU93
 315              		.syntax divided
 316              	@ 210 "../../os/kernel/src/chevents.c" 1
 317 0014 1FF021E3 		msr     CPSR_c, #0x1F
 318              	@ 0 "" 2
 319              		.loc 1 210 16 view .LVU94
 320              		.loc 1 211 3 view .LVU95
 321              		.loc 1 212 1 is_stmt 0 view .LVU96
 322              		.arm
 323              		.syntax unified
 324 0018 1EFF2FE1 		bx	lr
 325              		.cfi_endproc
 326              	.LFE12:
 327              		.size	chEvtGetAndClearFlags, .-chEvtGetAndClearFlags
 328              		.section	.text.chEvtSignalI,"ax",%progbits
 329              		.align	2
 330              		.global	chEvtSignalI
 331              		.syntax unified
 332              		.arm
 333              		.fpu softvfp
 334              		.type	chEvtSignalI, %function
 335              	chEvtSignalI:
 336              	.LVL12:
 337              	.LFB14:
 338              		.loc 1 244 49 is_stmt 1 view -0
 339              		.cfi_startproc
 340              		@ args = 0, pretend = 0, frame = 0
 341              		@ frame_needed = 0, uses_anonymous_args = 0
 342              		.loc 1 246 3 view .LVU98
ARM GAS  /var/folders/l5/0x54b2c10074c8bt31ycjvl80000gp/T//cc6w9WWc.s 			page 7


 343              		.loc 1 246 21 view .LVU99
 344              		.loc 1 247 3 view .LVU100
 345              		.loc 1 247 41 view .LVU101
 346              		.loc 1 249 3 view .LVU102
 347              		.loc 1 249 18 is_stmt 0 view .LVU103
 348 0000 383090E5 		ldr	r3, [r0, #56]
 349              		.loc 1 251 11 view .LVU104
 350 0004 1C20D0E5 		ldrb	r2, [r0, #28]	@ zero_extendqisi2
 351              		.loc 1 249 18 view .LVU105
 352 0008 031081E1 		orr	r1, r1, r3
 353              	.LVL13:
 354              		.loc 1 251 6 view .LVU106
 355 000c 080052E3 		cmp	r2, #8
 356              		.loc 1 249 18 view .LVU107
 357 0010 381080E5 		str	r1, [r0, #56]
 358              		.loc 1 251 3 is_stmt 1 view .LVU108
 359              		.loc 1 251 6 is_stmt 0 view .LVU109
 360 0014 0900000A 		beq	.L27
 361              		.loc 1 252 50 view .LVU110
 362 0018 090052E3 		cmp	r2, #9
 363 001c 1EFF2F11 		bxne	lr
 364              		.loc 1 254 34 view .LVU111
 365 0020 243090E5 		ldr	r3, [r0, #36]
 366              		.loc 1 253 44 view .LVU112
 367 0024 0130D3E1 		bics	r3, r3, r1
 368 0028 1EFF2F11 		bxne	lr
 369              	.L21:
 370              	.LVL14:
 371              	.LBB4:
 372              	.LBI4:
 373              		.loc 1 244 6 is_stmt 1 view .LVU113
 374              	.LBB5:
 375              		.loc 1 255 5 view .LVU114
 376              	.LBE5:
 377              	.LBE4:
 378              		.loc 1 244 49 is_stmt 0 view .LVU115
 379 002c 10402DE9 		push	{r4, lr}
 380              		.cfi_def_cfa_offset 8
 381              		.cfi_offset 4, -8
 382              		.cfi_offset 14, -4
 383              	.LBB7:
 384              	.LBB6:
 385              		.loc 1 255 5 view .LVU116
 386 0030 FEFFFFEB 		bl	chSchReadyI
 387              	.LVL15:
 388              		.loc 1 255 33 view .LVU117
 389 0034 0030A0E3 		mov	r3, #0
 390 0038 243080E5 		str	r3, [r0, #36]
 391              	.LBE6:
 392              	.LBE7:
 393              		.loc 1 256 1 view .LVU118
 394 003c 1080BDE8 		pop	{r4, pc}
 395              	.LVL16:
 396              	.L27:
 397              		.cfi_def_cfa_offset 0
 398              		.cfi_restore 4
 399              		.cfi_restore 14
ARM GAS  /var/folders/l5/0x54b2c10074c8bt31ycjvl80000gp/T//cc6w9WWc.s 			page 8


 400              		.loc 1 252 25 discriminator 1 view .LVU119
 401 0040 243090E5 		ldr	r3, [r0, #36]
 402              		.loc 1 251 43 discriminator 1 view .LVU120
 403 0044 030011E1 		tst	r1, r3
 404 0048 1EFF2F01 		bxeq	lr
 405 004c F6FFFFEA 		b	.L21
 406              		.cfi_endproc
 407              	.LFE14:
 408              		.size	chEvtSignalI, .-chEvtSignalI
 409              		.section	.text.chEvtBroadcastFlagsI,"ax",%progbits
 410              		.align	2
 411              		.global	chEvtBroadcastFlagsI
 412              		.syntax unified
 413              		.arm
 414              		.fpu softvfp
 415              		.type	chEvtBroadcastFlagsI, %function
 416              	chEvtBroadcastFlagsI:
 417              	.LVL17:
 418              	.LFB11:
 419              		.loc 1 177 64 is_stmt 1 view -0
 420              		.cfi_startproc
 421              		@ args = 0, pretend = 0, frame = 0
 422              		@ frame_needed = 0, uses_anonymous_args = 0
 423              		.loc 1 178 3 view .LVU122
 424              		.loc 1 180 3 view .LVU123
 425              		.loc 1 180 21 view .LVU124
 426              		.loc 1 181 3 view .LVU125
 427              		.loc 1 181 49 view .LVU126
 428              		.loc 1 183 3 view .LVU127
 429              		.loc 1 177 64 is_stmt 0 view .LVU128
 430 0000 70402DE9 		push	{r4, r5, r6, lr}
 431              		.cfi_def_cfa_offset 16
 432              		.cfi_offset 4, -16
 433              		.cfi_offset 5, -12
 434              		.cfi_offset 6, -8
 435              		.cfi_offset 14, -4
 436              		.loc 1 183 7 view .LVU129
 437 0004 004090E5 		ldr	r4, [r0]
 438              	.LVL18:
 439              		.loc 1 184 3 is_stmt 1 view .LVU130
 440              		.loc 1 184 9 is_stmt 0 view .LVU131
 441 0008 040050E1 		cmp	r0, r4
 442 000c 7080BD08 		popeq	{r4, r5, r6, pc}
 443 0010 0050A0E1 		mov	r5, r0
 444 0014 0160A0E1 		mov	r6, r1
 445              	.LVL19:
 446              	.L30:
 447              		.loc 1 185 5 is_stmt 1 view .LVU132
 448              		.loc 1 185 19 is_stmt 0 view .LVU133
 449 0018 0C3094E5 		ldr	r3, [r4, #12]
 450              		.loc 1 186 5 view .LVU134
 451 001c 081094E5 		ldr	r1, [r4, #8]
 452              		.loc 1 185 19 view .LVU135
 453 0020 063083E1 		orr	r3, r3, r6
 454 0024 0C3084E5 		str	r3, [r4, #12]
 455              		.loc 1 186 5 is_stmt 1 view .LVU136
 456 0028 040094E5 		ldr	r0, [r4, #4]
ARM GAS  /var/folders/l5/0x54b2c10074c8bt31ycjvl80000gp/T//cc6w9WWc.s 			page 9


 457 002c FEFFFFEB 		bl	chEvtSignalI
 458              	.LVL20:
 459              		.loc 1 187 5 view .LVU137
 460              		.loc 1 187 9 is_stmt 0 view .LVU138
 461 0030 004094E5 		ldr	r4, [r4]
 462              	.LVL21:
 463              		.loc 1 184 9 view .LVU139
 464 0034 040055E1 		cmp	r5, r4
 465 0038 F6FFFF1A 		bne	.L30
 466 003c 7080BDE8 		pop	{r4, r5, r6, pc}
 467              		.cfi_endproc
 468              	.LFE11:
 469              		.size	chEvtBroadcastFlagsI, .-chEvtBroadcastFlagsI
 470              		.section	.text.chEvtSignal,"ax",%progbits
 471              		.align	2
 472              		.global	chEvtSignal
 473              		.syntax unified
 474              		.arm
 475              		.fpu softvfp
 476              		.type	chEvtSignal, %function
 477              	chEvtSignal:
 478              	.LVL22:
 479              	.LFB13:
 480              		.loc 1 222 48 is_stmt 1 view -0
 481              		.cfi_startproc
 482              		@ args = 0, pretend = 0, frame = 0
 483              		@ frame_needed = 0, uses_anonymous_args = 0
 484              		.loc 1 224 3 view .LVU141
 485              		.loc 1 224 40 view .LVU142
 486              		.loc 1 226 3 view .LVU143
 487              		.loc 1 222 48 is_stmt 0 view .LVU144
 488 0000 10402DE9 		push	{r4, lr}
 489              		.cfi_def_cfa_offset 8
 490              		.cfi_offset 4, -8
 491              		.cfi_offset 14, -4
 492              		.loc 1 226 3 view .LVU145
 493              		.syntax divided
 494              	@ 226 "../../os/kernel/src/chevents.c" 1
 495 0004 9FF021E3 		msr     CPSR_c, #0x9F
 496              	@ 0 "" 2
 497              		.loc 1 226 3 is_stmt 1 view .LVU146
 498              		.loc 1 226 14 view .LVU147
 499              		.loc 1 227 3 view .LVU148
 500              		.arm
 501              		.syntax unified
 502 0008 FEFFFFEB 		bl	chEvtSignalI
 503              	.LVL23:
 504              		.loc 1 228 3 view .LVU149
 505 000c FEFFFFEB 		bl	chSchRescheduleS
 506              	.LVL24:
 507              		.loc 1 229 3 view .LVU150
 508              		.loc 1 229 3 view .LVU151
 509              		.syntax divided
 510              	@ 229 "../../os/kernel/src/chevents.c" 1
 511 0010 1FF021E3 		msr     CPSR_c, #0x1F
 512              	@ 0 "" 2
 513              		.loc 1 229 16 view .LVU152
ARM GAS  /var/folders/l5/0x54b2c10074c8bt31ycjvl80000gp/T//cc6w9WWc.s 			page 10


 514              		.loc 1 230 1 is_stmt 0 view .LVU153
 515              		.arm
 516              		.syntax unified
 517 0014 1080BDE8 		pop	{r4, pc}
 518              		.cfi_endproc
 519              	.LFE13:
 520              		.size	chEvtSignal, .-chEvtSignal
 521              		.section	.text.chEvtBroadcastFlags,"ax",%progbits
 522              		.align	2
 523              		.global	chEvtBroadcastFlags
 524              		.syntax unified
 525              		.arm
 526              		.fpu softvfp
 527              		.type	chEvtBroadcastFlags, %function
 528              	chEvtBroadcastFlags:
 529              	.LVL25:
 530              	.LFB15:
 531              		.loc 1 271 63 is_stmt 1 view -0
 532              		.cfi_startproc
 533              		@ args = 0, pretend = 0, frame = 0
 534              		@ frame_needed = 0, uses_anonymous_args = 0
 535              		.loc 1 273 3 view .LVU155
 536              		.loc 1 271 63 is_stmt 0 view .LVU156
 537 0000 10402DE9 		push	{r4, lr}
 538              		.cfi_def_cfa_offset 8
 539              		.cfi_offset 4, -8
 540              		.cfi_offset 14, -4
 541              		.loc 1 273 3 view .LVU157
 542              		.syntax divided
 543              	@ 273 "../../os/kernel/src/chevents.c" 1
 544 0004 9FF021E3 		msr     CPSR_c, #0x9F
 545              	@ 0 "" 2
 546              		.loc 1 273 3 is_stmt 1 view .LVU158
 547              		.loc 1 273 14 view .LVU159
 548              		.loc 1 274 3 view .LVU160
 549              		.arm
 550              		.syntax unified
 551 0008 FEFFFFEB 		bl	chEvtBroadcastFlagsI
 552              	.LVL26:
 553              		.loc 1 275 3 view .LVU161
 554 000c FEFFFFEB 		bl	chSchRescheduleS
 555              	.LVL27:
 556              		.loc 1 276 3 view .LVU162
 557              		.loc 1 276 3 view .LVU163
 558              		.syntax divided
 559              	@ 276 "../../os/kernel/src/chevents.c" 1
 560 0010 1FF021E3 		msr     CPSR_c, #0x1F
 561              	@ 0 "" 2
 562              		.loc 1 276 16 view .LVU164
 563              		.loc 1 277 1 is_stmt 0 view .LVU165
 564              		.arm
 565              		.syntax unified
 566 0014 1080BDE8 		pop	{r4, pc}
 567              		.cfi_endproc
 568              	.LFE15:
 569              		.size	chEvtBroadcastFlags, .-chEvtBroadcastFlags
 570              		.section	.text.chEvtGetAndClearFlagsI,"ax",%progbits
ARM GAS  /var/folders/l5/0x54b2c10074c8bt31ycjvl80000gp/T//cc6w9WWc.s 			page 11


 571              		.align	2
 572              		.global	chEvtGetAndClearFlagsI
 573              		.syntax unified
 574              		.arm
 575              		.fpu softvfp
 576              		.type	chEvtGetAndClearFlagsI, %function
 577              	chEvtGetAndClearFlagsI:
 578              	.LVL28:
 579              	.LFB16:
 580              		.loc 1 290 56 is_stmt 1 view -0
 581              		.cfi_startproc
 582              		@ args = 0, pretend = 0, frame = 0
 583              		@ frame_needed = 0, uses_anonymous_args = 0
 584              		@ link register save eliminated.
 585              		.loc 1 291 3 view .LVU167
 586              		.loc 1 293 3 view .LVU168
 587              		.loc 1 290 56 is_stmt 0 view .LVU169
 588 0000 0030A0E1 		mov	r3, r0
 589              		.loc 1 294 17 view .LVU170
 590 0004 0020A0E3 		mov	r2, #0
 591              		.loc 1 293 9 view .LVU171
 592 0008 0C0090E5 		ldr	r0, [r0, #12]
 593              	.LVL29:
 594              		.loc 1 294 3 is_stmt 1 view .LVU172
 595              		.loc 1 294 17 is_stmt 0 view .LVU173
 596 000c 0C2083E5 		str	r2, [r3, #12]
 597              		.loc 1 296 3 is_stmt 1 view .LVU174
 598              		.loc 1 297 1 is_stmt 0 view .LVU175
 599 0010 1EFF2FE1 		bx	lr
 600              		.cfi_endproc
 601              	.LFE16:
 602              		.size	chEvtGetAndClearFlagsI, .-chEvtGetAndClearFlagsI
 603              		.section	.text.chEvtDispatch,"ax",%progbits
 604              		.align	2
 605              		.global	chEvtDispatch
 606              		.syntax unified
 607              		.arm
 608              		.fpu softvfp
 609              		.type	chEvtDispatch, %function
 610              	chEvtDispatch:
 611              	.LVL30:
 612              	.LFB17:
 613              		.loc 1 308 67 is_stmt 1 view -0
 614              		.cfi_startproc
 615              		@ args = 0, pretend = 0, frame = 0
 616              		@ frame_needed = 0, uses_anonymous_args = 0
 617              		.loc 1 309 3 view .LVU177
 618              		.loc 1 311 3 view .LVU178
 619              		.loc 1 311 48 view .LVU179
 620              		.loc 1 313 3 view .LVU180
 621              		.loc 1 314 3 view .LVU181
 622              		.loc 1 308 67 is_stmt 0 view .LVU182
 623 0000 F0412DE9 		push	{r4, r5, r6, r7, r8, lr}
 624              		.cfi_def_cfa_offset 24
 625              		.cfi_offset 4, -24
 626              		.cfi_offset 5, -20
 627              		.cfi_offset 6, -16
ARM GAS  /var/folders/l5/0x54b2c10074c8bt31ycjvl80000gp/T//cc6w9WWc.s 			page 12


 628              		.cfi_offset 7, -12
 629              		.cfi_offset 8, -8
 630              		.cfi_offset 14, -4
 631              		.loc 1 314 9 view .LVU183
 632 0004 005051E2 		subs	r5, r1, #0
 633 0008 F081BD08 		popeq	{r4, r5, r6, r7, r8, pc}
 634 000c 0070A0E1 		mov	r7, r0
 635              		.loc 1 313 7 view .LVU184
 636 0010 0040A0E3 		mov	r4, #0
 637              		.loc 1 315 16 view .LVU185
 638 0014 0160A0E3 		mov	r6, #1
 639              	.LVL31:
 640              	.L41:
 641              		.loc 1 315 5 is_stmt 1 view .LVU186
 642              		.loc 1 316 7 view .LVU187
 643              		.loc 1 318 34 view .LVU188
 644              		.loc 1 319 7 view .LVU189
 645              		.loc 1 322 5 view .LVU190
 646              		.loc 1 315 16 is_stmt 0 view .LVU191
 647 0018 1634A0E1 		lsl	r3, r6, r4
 648              		.loc 1 315 8 view .LVU192
 649 001c 050013E1 		tst	r3, r5
 650 0020 0900000A 		beq	.L40
 651              	.L51:
 652              		.loc 1 319 12 view .LVU193
 653 0024 0350C5E1 		bic	r5, r5, r3
 654              	.LVL32:
 655              		.loc 1 320 7 is_stmt 1 view .LVU194
 656 0028 0400A0E1 		mov	r0, r4
 657 002c 043197E7 		ldr	r3, [r7, r4, lsl #2]
 658 0030 33FF2FE1 		blx	r3
 659              	.LVL33:
 660              		.loc 1 322 5 view .LVU195
 661              		.loc 1 314 9 is_stmt 0 view .LVU196
 662 0034 000055E3 		cmp	r5, #0
 663              		.loc 1 322 8 view .LVU197
 664 0038 014084E2 		add	r4, r4, #1
 665              	.LVL34:
 666              		.loc 1 314 9 view .LVU198
 667 003c F081BD08 		popeq	{r4, r5, r6, r7, r8, pc}
 668              		.loc 1 315 5 is_stmt 1 view .LVU199
 669              		.loc 1 316 7 view .LVU200
 670              		.loc 1 318 34 view .LVU201
 671              		.loc 1 319 7 view .LVU202
 672              		.loc 1 322 5 view .LVU203
 673              		.loc 1 315 16 is_stmt 0 view .LVU204
 674 0040 1634A0E1 		lsl	r3, r6, r4
 675              		.loc 1 315 8 view .LVU205
 676 0044 050013E1 		tst	r3, r5
 677 0048 F5FFFF1A 		bne	.L51
 678              	.L40:
 679              		.loc 1 322 8 view .LVU206
 680 004c 014084E2 		add	r4, r4, #1
 681              	.LVL35:
 682              		.loc 1 322 8 view .LVU207
 683 0050 F0FFFFEA 		b	.L41
 684              		.cfi_endproc
ARM GAS  /var/folders/l5/0x54b2c10074c8bt31ycjvl80000gp/T//cc6w9WWc.s 			page 13


 685              	.LFE17:
 686              		.size	chEvtDispatch, .-chEvtDispatch
 687              		.section	.text.chEvtWaitOne,"ax",%progbits
 688              		.align	2
 689              		.global	chEvtWaitOne
 690              		.syntax unified
 691              		.arm
 692              		.fpu softvfp
 693              		.type	chEvtWaitOne, %function
 694              	chEvtWaitOne:
 695              	.LVL36:
 696              	.LFB18:
 697              		.loc 1 343 44 is_stmt 1 view -0
 698              		.cfi_startproc
 699              		@ args = 0, pretend = 0, frame = 0
 700              		@ frame_needed = 0, uses_anonymous_args = 0
 701              		.loc 1 344 3 view .LVU209
 702              		.loc 1 344 11 is_stmt 0 view .LVU210
 703 0000 48309FE5 		ldr	r3, .L56
 704              		.loc 1 343 44 view .LVU211
 705 0004 70402DE9 		push	{r4, r5, r6, lr}
 706              		.cfi_def_cfa_offset 16
 707              		.cfi_offset 4, -16
 708              		.cfi_offset 5, -12
 709              		.cfi_offset 6, -8
 710              		.cfi_offset 14, -4
 711              		.loc 1 344 11 view .LVU212
 712 0008 185093E5 		ldr	r5, [r3, #24]
 713              	.LVL37:
 714              		.loc 1 345 3 is_stmt 1 view .LVU213
 715              		.loc 1 347 3 view .LVU214
 716              		.syntax divided
 717              	@ 347 "../../os/kernel/src/chevents.c" 1
 718 000c 9FF021E3 		msr     CPSR_c, #0x9F
 719              	@ 0 "" 2
 720              		.loc 1 347 3 view .LVU215
 721              		.loc 1 347 14 view .LVU216
 722              		.loc 1 349 3 view .LVU217
 723              		.loc 1 349 16 is_stmt 0 view .LVU218
 724              		.arm
 725              		.syntax unified
 726 0010 383095E5 		ldr	r3, [r5, #56]
 727              	.LVL38:
 728              		.loc 1 349 6 view .LVU219
 729 0014 004013E0 		ands	r4, r3, r0
 730              	.LVL39:
 731              		.loc 1 349 6 view .LVU220
 732 0018 0500000A 		beq	.L55
 733              	.LVL40:
 734              	.L53:
 735              		.loc 1 354 3 is_stmt 1 view .LVU221
 736              		.loc 1 354 8 is_stmt 0 view .LVU222
 737 001c 000064E2 		rsb	r0, r4, #0
 738              		.loc 1 354 5 view .LVU223
 739 0020 040000E0 		and	r0, r0, r4
 740              	.LVL41:
 741              		.loc 1 355 3 is_stmt 1 view .LVU224
ARM GAS  /var/folders/l5/0x54b2c10074c8bt31ycjvl80000gp/T//cc6w9WWc.s 			page 14


 742              		.loc 1 355 19 is_stmt 0 view .LVU225
 743 0024 0030C3E1 		bic	r3, r3, r0
 744 0028 383085E5 		str	r3, [r5, #56]
 745              		.loc 1 357 3 is_stmt 1 view .LVU226
 746              		.loc 1 357 3 view .LVU227
 747              		.syntax divided
 748              	@ 357 "../../os/kernel/src/chevents.c" 1
 749 002c 1FF021E3 		msr     CPSR_c, #0x1F
 750              	@ 0 "" 2
 751              		.loc 1 357 16 view .LVU228
 752              		.loc 1 358 3 view .LVU229
 753              		.loc 1 359 1 is_stmt 0 view .LVU230
 754              		.arm
 755              		.syntax unified
 756 0030 7080BDE8 		pop	{r4, r5, r6, pc}
 757              	.LVL42:
 758              	.L55:
 759              		.loc 1 359 1 view .LVU231
 760 0034 0040A0E1 		mov	r4, r0
 761              	.LVL43:
 762              		.loc 1 350 5 is_stmt 1 view .LVU232
 763              		.loc 1 350 21 is_stmt 0 view .LVU233
 764 0038 240085E5 		str	r0, [r5, #36]
 765              		.loc 1 351 5 is_stmt 1 view .LVU234
 766 003c 0800A0E3 		mov	r0, #8
 767              	.LVL44:
 768              		.loc 1 351 5 is_stmt 0 view .LVU235
 769 0040 FEFFFFEB 		bl	chSchGoSleepS
 770              	.LVL45:
 771              		.loc 1 352 5 is_stmt 1 view .LVU236
 772              		.loc 1 352 12 is_stmt 0 view .LVU237
 773 0044 383095E5 		ldr	r3, [r5, #56]
 774              		.loc 1 352 7 view .LVU238
 775 0048 034004E0 		and	r4, r4, r3
 776              	.LVL46:
 777              		.loc 1 352 7 view .LVU239
 778 004c F2FFFFEA 		b	.L53
 779              	.L57:
 780              		.align	2
 781              	.L56:
 782 0050 00000000 		.word	rlist
 783              		.cfi_endproc
 784              	.LFE18:
 785              		.size	chEvtWaitOne, .-chEvtWaitOne
 786              		.section	.text.chEvtWaitAny,"ax",%progbits
 787              		.align	2
 788              		.global	chEvtWaitAny
 789              		.syntax unified
 790              		.arm
 791              		.fpu softvfp
 792              		.type	chEvtWaitAny, %function
 793              	chEvtWaitAny:
 794              	.LVL47:
 795              	.LFB19:
 796              		.loc 1 372 44 is_stmt 1 view -0
 797              		.cfi_startproc
 798              		@ args = 0, pretend = 0, frame = 0
ARM GAS  /var/folders/l5/0x54b2c10074c8bt31ycjvl80000gp/T//cc6w9WWc.s 			page 15


 799              		@ frame_needed = 0, uses_anonymous_args = 0
 800              		.loc 1 373 3 view .LVU241
 801              		.loc 1 373 11 is_stmt 0 view .LVU242
 802 0000 44309FE5 		ldr	r3, .L62
 803              		.loc 1 372 44 view .LVU243
 804 0004 70402DE9 		push	{r4, r5, r6, lr}
 805              		.cfi_def_cfa_offset 16
 806              		.cfi_offset 4, -16
 807              		.cfi_offset 5, -12
 808              		.cfi_offset 6, -8
 809              		.cfi_offset 14, -4
 810              		.loc 1 373 11 view .LVU244
 811 0008 185093E5 		ldr	r5, [r3, #24]
 812              	.LVL48:
 813              		.loc 1 374 3 is_stmt 1 view .LVU245
 814              		.loc 1 376 3 view .LVU246
 815              		.syntax divided
 816              	@ 376 "../../os/kernel/src/chevents.c" 1
 817 000c 9FF021E3 		msr     CPSR_c, #0x9F
 818              	@ 0 "" 2
 819              		.loc 1 376 3 view .LVU247
 820              		.loc 1 376 14 view .LVU248
 821              		.loc 1 378 3 view .LVU249
 822              		.loc 1 378 16 is_stmt 0 view .LVU250
 823              		.arm
 824              		.syntax unified
 825 0010 383095E5 		ldr	r3, [r5, #56]
 826              	.LVL49:
 827              		.loc 1 378 6 view .LVU251
 828 0014 004013E0 		ands	r4, r3, r0
 829              	.LVL50:
 830              		.loc 1 378 6 view .LVU252
 831 0018 0400000A 		beq	.L61
 832              	.LVL51:
 833              	.L59:
 834              		.loc 1 383 3 is_stmt 1 view .LVU253
 835              		.loc 1 383 19 is_stmt 0 view .LVU254
 836 001c 0430C3E1 		bic	r3, r3, r4
 837 0020 383085E5 		str	r3, [r5, #56]
 838              		.loc 1 385 3 is_stmt 1 view .LVU255
 839              		.loc 1 385 3 view .LVU256
 840              		.syntax divided
 841              	@ 385 "../../os/kernel/src/chevents.c" 1
 842 0024 1FF021E3 		msr     CPSR_c, #0x1F
 843              	@ 0 "" 2
 844              		.loc 1 385 16 view .LVU257
 845              		.loc 1 386 3 view .LVU258
 846              		.loc 1 387 1 is_stmt 0 view .LVU259
 847              		.arm
 848              		.syntax unified
 849 0028 0400A0E1 		mov	r0, r4
 850 002c 7080BDE8 		pop	{r4, r5, r6, pc}
 851              	.LVL52:
 852              	.L61:
 853              		.loc 1 387 1 view .LVU260
 854 0030 0040A0E1 		mov	r4, r0
 855              	.LVL53:
ARM GAS  /var/folders/l5/0x54b2c10074c8bt31ycjvl80000gp/T//cc6w9WWc.s 			page 16


 856              		.loc 1 379 5 is_stmt 1 view .LVU261
 857              		.loc 1 379 21 is_stmt 0 view .LVU262
 858 0034 240085E5 		str	r0, [r5, #36]
 859              		.loc 1 380 5 is_stmt 1 view .LVU263
 860 0038 0800A0E3 		mov	r0, #8
 861              	.LVL54:
 862              		.loc 1 380 5 is_stmt 0 view .LVU264
 863 003c FEFFFFEB 		bl	chSchGoSleepS
 864              	.LVL55:
 865              		.loc 1 381 5 is_stmt 1 view .LVU265
 866              		.loc 1 381 12 is_stmt 0 view .LVU266
 867 0040 383095E5 		ldr	r3, [r5, #56]
 868              		.loc 1 381 7 view .LVU267
 869 0044 034004E0 		and	r4, r4, r3
 870              	.LVL56:
 871              		.loc 1 381 7 view .LVU268
 872 0048 F3FFFFEA 		b	.L59
 873              	.L63:
 874              		.align	2
 875              	.L62:
 876 004c 00000000 		.word	rlist
 877              		.cfi_endproc
 878              	.LFE19:
 879              		.size	chEvtWaitAny, .-chEvtWaitAny
 880              		.section	.text.chEvtWaitAll,"ax",%progbits
 881              		.align	2
 882              		.global	chEvtWaitAll
 883              		.syntax unified
 884              		.arm
 885              		.fpu softvfp
 886              		.type	chEvtWaitAll, %function
 887              	chEvtWaitAll:
 888              	.LVL57:
 889              	.LFB20:
 890              		.loc 1 400 44 is_stmt 1 view -0
 891              		.cfi_startproc
 892              		@ args = 0, pretend = 0, frame = 0
 893              		@ frame_needed = 0, uses_anonymous_args = 0
 894              		.loc 1 401 3 view .LVU270
 895              		.loc 1 401 11 is_stmt 0 view .LVU271
 896 0000 3C309FE5 		ldr	r3, .L67
 897              		.loc 1 400 44 view .LVU272
 898 0004 70402DE9 		push	{r4, r5, r6, lr}
 899              		.cfi_def_cfa_offset 16
 900              		.cfi_offset 4, -16
 901              		.cfi_offset 5, -12
 902              		.cfi_offset 6, -8
 903              		.cfi_offset 14, -4
 904              		.loc 1 400 44 view .LVU273
 905 0008 0040A0E1 		mov	r4, r0
 906              		.loc 1 401 11 view .LVU274
 907 000c 185093E5 		ldr	r5, [r3, #24]
 908              	.LVL58:
 909              		.loc 1 403 3 is_stmt 1 view .LVU275
 910              		.syntax divided
 911              	@ 403 "../../os/kernel/src/chevents.c" 1
 912 0010 9FF021E3 		msr     CPSR_c, #0x9F
ARM GAS  /var/folders/l5/0x54b2c10074c8bt31ycjvl80000gp/T//cc6w9WWc.s 			page 17


 913              	@ 0 "" 2
 914              		.loc 1 403 3 view .LVU276
 915              		.loc 1 403 14 view .LVU277
 916              		.loc 1 405 3 view .LVU278
 917              		.loc 1 405 11 is_stmt 0 view .LVU279
 918              		.arm
 919              		.syntax unified
 920 0014 383095E5 		ldr	r3, [r5, #56]
 921              		.loc 1 405 6 view .LVU280
 922 0018 0320D0E1 		bics	r2, r0, r3
 923 001c 0300000A 		beq	.L65
 924              		.loc 1 406 5 is_stmt 1 view .LVU281
 925              		.loc 1 406 21 is_stmt 0 view .LVU282
 926 0020 240085E5 		str	r0, [r5, #36]
 927              		.loc 1 407 5 is_stmt 1 view .LVU283
 928 0024 0900A0E3 		mov	r0, #9
 929              	.LVL59:
 930              		.loc 1 407 5 is_stmt 0 view .LVU284
 931 0028 FEFFFFEB 		bl	chSchGoSleepS
 932              	.LVL60:
 933 002c 383095E5 		ldr	r3, [r5, #56]
 934              	.L65:
 935              		.loc 1 409 3 is_stmt 1 view .LVU285
 936              		.loc 1 409 19 is_stmt 0 view .LVU286
 937 0030 0430C3E1 		bic	r3, r3, r4
 938 0034 383085E5 		str	r3, [r5, #56]
 939              		.loc 1 411 3 is_stmt 1 view .LVU287
 940              		.loc 1 411 3 view .LVU288
 941              		.syntax divided
 942              	@ 411 "../../os/kernel/src/chevents.c" 1
 943 0038 1FF021E3 		msr     CPSR_c, #0x1F
 944              	@ 0 "" 2
 945              		.loc 1 411 16 view .LVU289
 946              		.loc 1 412 3 view .LVU290
 947              		.loc 1 413 1 is_stmt 0 view .LVU291
 948              		.arm
 949              		.syntax unified
 950 003c 0400A0E1 		mov	r0, r4
 951 0040 7080BDE8 		pop	{r4, r5, r6, pc}
 952              	.L68:
 953              		.align	2
 954              	.L67:
 955 0044 00000000 		.word	rlist
 956              		.cfi_endproc
 957              	.LFE20:
 958              		.size	chEvtWaitAll, .-chEvtWaitAll
 959              		.section	.text.chEvtWaitOneTimeout,"ax",%progbits
 960              		.align	2
 961              		.global	chEvtWaitOneTimeout
 962              		.syntax unified
 963              		.arm
 964              		.fpu softvfp
 965              		.type	chEvtWaitOneTimeout, %function
 966              	chEvtWaitOneTimeout:
 967              	.LVL61:
 968              	.LFB21:
 969              		.loc 1 439 67 is_stmt 1 view -0
ARM GAS  /var/folders/l5/0x54b2c10074c8bt31ycjvl80000gp/T//cc6w9WWc.s 			page 18


 970              		.cfi_startproc
 971              		@ args = 0, pretend = 0, frame = 0
 972              		@ frame_needed = 0, uses_anonymous_args = 0
 973              		.loc 1 440 3 view .LVU293
 974              		.loc 1 440 11 is_stmt 0 view .LVU294
 975 0000 5C309FE5 		ldr	r3, .L76
 976              		.loc 1 439 67 view .LVU295
 977 0004 70402DE9 		push	{r4, r5, r6, lr}
 978              		.cfi_def_cfa_offset 16
 979              		.cfi_offset 4, -16
 980              		.cfi_offset 5, -12
 981              		.cfi_offset 6, -8
 982              		.cfi_offset 14, -4
 983              		.loc 1 440 11 view .LVU296
 984 0008 186093E5 		ldr	r6, [r3, #24]
 985              	.LVL62:
 986              		.loc 1 441 3 is_stmt 1 view .LVU297
 987              		.loc 1 443 3 view .LVU298
 988              		.syntax divided
 989              	@ 443 "../../os/kernel/src/chevents.c" 1
 990 000c 9FF021E3 		msr     CPSR_c, #0x9F
 991              	@ 0 "" 2
 992              		.loc 1 443 3 view .LVU299
 993              		.loc 1 443 14 view .LVU300
 994              		.loc 1 445 3 view .LVU301
 995              		.loc 1 445 16 is_stmt 0 view .LVU302
 996              		.arm
 997              		.syntax unified
 998 0010 383096E5 		ldr	r3, [r6, #56]
 999              	.LVL63:
 1000              		.loc 1 445 6 view .LVU303
 1001 0014 004013E0 		ands	r4, r3, r0
 1002              	.LVL64:
 1003              		.loc 1 445 6 view .LVU304
 1004 0018 0C00001A 		bne	.L70
 1005              		.loc 1 446 5 is_stmt 1 view .LVU305
 1006              		.loc 1 446 8 is_stmt 0 view .LVU306
 1007 001c 000051E3 		cmp	r1, #0
 1008 0020 0200001A 		bne	.L71
 1009              	.LVL65:
 1010              	.L75:
 1011              		.loc 1 460 3 is_stmt 1 view .LVU307
 1012              		.loc 1 460 3 view .LVU308
 1013              		.syntax divided
 1014              	@ 460 "../../os/kernel/src/chevents.c" 1
 1015 0024 1FF021E3 		msr     CPSR_c, #0x1F
 1016              	@ 0 "" 2
 1017              		.loc 1 460 16 view .LVU309
 1018              		.loc 1 461 3 view .LVU310
 1019              		.loc 1 462 1 is_stmt 0 view .LVU311
 1020              		.arm
 1021              		.syntax unified
 1022 0028 0400A0E1 		mov	r0, r4
 1023 002c 7080BDE8 		pop	{r4, r5, r6, pc}
 1024              	.LVL66:
 1025              	.L71:
 1026              		.loc 1 450 5 is_stmt 1 view .LVU312
ARM GAS  /var/folders/l5/0x54b2c10074c8bt31ycjvl80000gp/T//cc6w9WWc.s 			page 19


 1027              		.loc 1 450 21 is_stmt 0 view .LVU313
 1028 0030 240086E5 		str	r0, [r6, #36]
 1029              		.loc 1 451 5 is_stmt 1 view .LVU314
 1030 0034 0050A0E1 		mov	r5, r0
 1031              		.loc 1 451 9 is_stmt 0 view .LVU315
 1032 0038 0800A0E3 		mov	r0, #8
 1033              	.LVL67:
 1034              		.loc 1 451 9 view .LVU316
 1035 003c FEFFFFEB 		bl	chSchGoSleepTimeoutS
 1036              	.LVL68:
 1037              		.loc 1 451 8 view .LVU317
 1038 0040 000050E3 		cmp	r0, #0
 1039 0044 F6FFFFBA 		blt	.L75
 1040              		.loc 1 455 5 is_stmt 1 view .LVU318
 1041              		.loc 1 455 12 is_stmt 0 view .LVU319
 1042 0048 383096E5 		ldr	r3, [r6, #56]
 1043              		.loc 1 455 7 view .LVU320
 1044 004c 054003E0 		and	r4, r3, r5
 1045              	.LVL69:
 1046              	.L70:
 1047              		.loc 1 457 3 is_stmt 1 view .LVU321
 1048              		.loc 1 457 8 is_stmt 0 view .LVU322
 1049 0050 002064E2 		rsb	r2, r4, #0
 1050              		.loc 1 457 5 view .LVU323
 1051 0054 024004E0 		and	r4, r4, r2
 1052              	.LVL70:
 1053              		.loc 1 458 3 is_stmt 1 view .LVU324
 1054              		.loc 1 458 19 is_stmt 0 view .LVU325
 1055 0058 0430C3E1 		bic	r3, r3, r4
 1056 005c 383086E5 		str	r3, [r6, #56]
 1057 0060 EFFFFFEA 		b	.L75
 1058              	.L77:
 1059              		.align	2
 1060              	.L76:
 1061 0064 00000000 		.word	rlist
 1062              		.cfi_endproc
 1063              	.LFE21:
 1064              		.size	chEvtWaitOneTimeout, .-chEvtWaitOneTimeout
 1065              		.section	.text.chEvtWaitAnyTimeout,"ax",%progbits
 1066              		.align	2
 1067              		.global	chEvtWaitAnyTimeout
 1068              		.syntax unified
 1069              		.arm
 1070              		.fpu softvfp
 1071              		.type	chEvtWaitAnyTimeout, %function
 1072              	chEvtWaitAnyTimeout:
 1073              	.LVL71:
 1074              	.LFB22:
 1075              		.loc 1 482 67 is_stmt 1 view -0
 1076              		.cfi_startproc
 1077              		@ args = 0, pretend = 0, frame = 0
 1078              		@ frame_needed = 0, uses_anonymous_args = 0
 1079              		.loc 1 483 3 view .LVU327
 1080              		.loc 1 483 11 is_stmt 0 view .LVU328
 1081 0000 54309FE5 		ldr	r3, .L85
 1082              		.loc 1 482 67 view .LVU329
 1083 0004 70402DE9 		push	{r4, r5, r6, lr}
ARM GAS  /var/folders/l5/0x54b2c10074c8bt31ycjvl80000gp/T//cc6w9WWc.s 			page 20


 1084              		.cfi_def_cfa_offset 16
 1085              		.cfi_offset 4, -16
 1086              		.cfi_offset 5, -12
 1087              		.cfi_offset 6, -8
 1088              		.cfi_offset 14, -4
 1089              		.loc 1 483 11 view .LVU330
 1090 0008 185093E5 		ldr	r5, [r3, #24]
 1091              	.LVL72:
 1092              		.loc 1 484 3 is_stmt 1 view .LVU331
 1093              		.loc 1 486 3 view .LVU332
 1094              		.syntax divided
 1095              	@ 486 "../../os/kernel/src/chevents.c" 1
 1096 000c 9FF021E3 		msr     CPSR_c, #0x9F
 1097              	@ 0 "" 2
 1098              		.loc 1 486 3 view .LVU333
 1099              		.loc 1 486 14 view .LVU334
 1100              		.loc 1 488 3 view .LVU335
 1101              		.loc 1 488 16 is_stmt 0 view .LVU336
 1102              		.arm
 1103              		.syntax unified
 1104 0010 383095E5 		ldr	r3, [r5, #56]
 1105              	.LVL73:
 1106              		.loc 1 488 6 view .LVU337
 1107 0014 006013E0 		ands	r6, r3, r0
 1108              	.LVL74:
 1109              		.loc 1 488 6 view .LVU338
 1110 0018 0C00001A 		bne	.L79
 1111              		.loc 1 489 5 is_stmt 1 view .LVU339
 1112              		.loc 1 489 8 is_stmt 0 view .LVU340
 1113 001c 000051E3 		cmp	r1, #0
 1114 0020 0200001A 		bne	.L80
 1115              	.LVL75:
 1116              	.L84:
 1117              		.loc 1 502 3 is_stmt 1 view .LVU341
 1118              		.loc 1 502 3 view .LVU342
 1119              		.syntax divided
 1120              	@ 502 "../../os/kernel/src/chevents.c" 1
 1121 0024 1FF021E3 		msr     CPSR_c, #0x1F
 1122              	@ 0 "" 2
 1123              		.loc 1 502 16 view .LVU343
 1124              		.loc 1 503 3 view .LVU344
 1125              		.loc 1 504 1 is_stmt 0 view .LVU345
 1126              		.arm
 1127              		.syntax unified
 1128 0028 0600A0E1 		mov	r0, r6
 1129 002c 7080BDE8 		pop	{r4, r5, r6, pc}
 1130              	.LVL76:
 1131              	.L80:
 1132              		.loc 1 493 5 is_stmt 1 view .LVU346
 1133              		.loc 1 493 21 is_stmt 0 view .LVU347
 1134 0030 240085E5 		str	r0, [r5, #36]
 1135              		.loc 1 494 5 is_stmt 1 view .LVU348
 1136 0034 0040A0E1 		mov	r4, r0
 1137              		.loc 1 494 9 is_stmt 0 view .LVU349
 1138 0038 0800A0E3 		mov	r0, #8
 1139              	.LVL77:
 1140              		.loc 1 494 9 view .LVU350
ARM GAS  /var/folders/l5/0x54b2c10074c8bt31ycjvl80000gp/T//cc6w9WWc.s 			page 21


 1141 003c FEFFFFEB 		bl	chSchGoSleepTimeoutS
 1142              	.LVL78:
 1143              		.loc 1 494 8 view .LVU351
 1144 0040 000050E3 		cmp	r0, #0
 1145 0044 F6FFFFBA 		blt	.L84
 1146              		.loc 1 498 5 is_stmt 1 view .LVU352
 1147              		.loc 1 498 12 is_stmt 0 view .LVU353
 1148 0048 383095E5 		ldr	r3, [r5, #56]
 1149              		.loc 1 498 7 view .LVU354
 1150 004c 046003E0 		and	r6, r3, r4
 1151              	.LVL79:
 1152              	.L79:
 1153              		.loc 1 500 3 is_stmt 1 view .LVU355
 1154              		.loc 1 500 19 is_stmt 0 view .LVU356
 1155 0050 0630C3E1 		bic	r3, r3, r6
 1156 0054 383085E5 		str	r3, [r5, #56]
 1157 0058 F1FFFFEA 		b	.L84
 1158              	.L86:
 1159              		.align	2
 1160              	.L85:
 1161 005c 00000000 		.word	rlist
 1162              		.cfi_endproc
 1163              	.LFE22:
 1164              		.size	chEvtWaitAnyTimeout, .-chEvtWaitAnyTimeout
 1165              		.section	.text.chEvtWaitAllTimeout,"ax",%progbits
 1166              		.align	2
 1167              		.global	chEvtWaitAllTimeout
 1168              		.syntax unified
 1169              		.arm
 1170              		.fpu softvfp
 1171              		.type	chEvtWaitAllTimeout, %function
 1172              	chEvtWaitAllTimeout:
 1173              	.LVL80:
 1174              	.LFB23:
 1175              		.loc 1 523 67 is_stmt 1 view -0
 1176              		.cfi_startproc
 1177              		@ args = 0, pretend = 0, frame = 0
 1178              		@ frame_needed = 0, uses_anonymous_args = 0
 1179              		.loc 1 524 3 view .LVU358
 1180              		.loc 1 524 11 is_stmt 0 view .LVU359
 1181 0000 64309FE5 		ldr	r3, .L93
 1182              		.loc 1 523 67 view .LVU360
 1183 0004 70402DE9 		push	{r4, r5, r6, lr}
 1184              		.cfi_def_cfa_offset 16
 1185              		.cfi_offset 4, -16
 1186              		.cfi_offset 5, -12
 1187              		.cfi_offset 6, -8
 1188              		.cfi_offset 14, -4
 1189              		.loc 1 523 67 view .LVU361
 1190 0008 0040A0E1 		mov	r4, r0
 1191              		.loc 1 524 11 view .LVU362
 1192 000c 185093E5 		ldr	r5, [r3, #24]
 1193              	.LVL81:
 1194              		.loc 1 526 3 is_stmt 1 view .LVU363
 1195              		.syntax divided
 1196              	@ 526 "../../os/kernel/src/chevents.c" 1
 1197 0010 9FF021E3 		msr     CPSR_c, #0x9F
ARM GAS  /var/folders/l5/0x54b2c10074c8bt31ycjvl80000gp/T//cc6w9WWc.s 			page 22


 1198              	@ 0 "" 2
 1199              		.loc 1 526 3 view .LVU364
 1200              		.loc 1 526 14 view .LVU365
 1201              		.loc 1 528 3 view .LVU366
 1202              		.loc 1 528 11 is_stmt 0 view .LVU367
 1203              		.arm
 1204              		.syntax unified
 1205 0014 383095E5 		ldr	r3, [r5, #56]
 1206              		.loc 1 528 6 view .LVU368
 1207 0018 0320D0E1 		bics	r2, r0, r3
 1208 001c 0A00000A 		beq	.L88
 1209              		.loc 1 529 8 view .LVU369
 1210 0020 000051E3 		cmp	r1, #0
 1211 0024 0100A0E1 		mov	r0, r1
 1212              	.LVL82:
 1213              		.loc 1 529 5 is_stmt 1 view .LVU370
 1214              		.loc 1 529 8 is_stmt 0 view .LVU371
 1215 0028 0100001A 		bne	.L89
 1216              		.loc 1 530 7 is_stmt 1 view .LVU372
 1217              		.loc 1 530 7 view .LVU373
 1218              		.syntax divided
 1219              	@ 530 "../../os/kernel/src/chevents.c" 1
 1220 002c 1FF021E3 		msr     CPSR_c, #0x1F
 1221              	@ 0 "" 2
 1222              		.loc 1 530 20 view .LVU374
 1223              		.loc 1 531 7 view .LVU375
 1224              		.loc 1 531 14 is_stmt 0 view .LVU376
 1225              		.arm
 1226              		.syntax unified
 1227 0030 7080BDE8 		pop	{r4, r5, r6, pc}
 1228              	.L89:
 1229              		.loc 1 533 5 is_stmt 1 view .LVU377
 1230              		.loc 1 533 21 is_stmt 0 view .LVU378
 1231 0034 244085E5 		str	r4, [r5, #36]
 1232              		.loc 1 534 5 is_stmt 1 view .LVU379
 1233              		.loc 1 534 9 is_stmt 0 view .LVU380
 1234 0038 0900A0E3 		mov	r0, #9
 1235 003c FEFFFFEB 		bl	chSchGoSleepTimeoutS
 1236              	.LVL83:
 1237              		.loc 1 534 8 view .LVU381
 1238 0040 000050E3 		cmp	r0, #0
 1239 0044 050000BA 		blt	.L91
 1240 0048 383095E5 		ldr	r3, [r5, #56]
 1241              	.L88:
 1242              		.loc 1 539 3 is_stmt 1 view .LVU382
 1243              		.loc 1 539 19 is_stmt 0 view .LVU383
 1244 004c 0430C3E1 		bic	r3, r3, r4
 1245 0050 383085E5 		str	r3, [r5, #56]
 1246              		.loc 1 541 3 is_stmt 1 view .LVU384
 1247              		.loc 1 541 3 view .LVU385
 1248              		.syntax divided
 1249              	@ 541 "../../os/kernel/src/chevents.c" 1
 1250 0054 1FF021E3 		msr     CPSR_c, #0x1F
 1251              	@ 0 "" 2
 1252              		.loc 1 541 16 view .LVU386
 1253              		.loc 1 542 3 view .LVU387
 1254              		.loc 1 542 10 is_stmt 0 view .LVU388
ARM GAS  /var/folders/l5/0x54b2c10074c8bt31ycjvl80000gp/T//cc6w9WWc.s 			page 23


 1255              		.arm
 1256              		.syntax unified
 1257 0058 0400A0E1 		mov	r0, r4
 1258              		.loc 1 543 1 view .LVU389
 1259 005c 7080BDE8 		pop	{r4, r5, r6, pc}
 1260              	.L91:
 1261              		.loc 1 535 7 is_stmt 1 view .LVU390
 1262              		.loc 1 535 7 view .LVU391
 1263              		.syntax divided
 1264              	@ 535 "../../os/kernel/src/chevents.c" 1
 1265 0060 1FF021E3 		msr     CPSR_c, #0x1F
 1266              	@ 0 "" 2
 1267              		.loc 1 535 20 view .LVU392
 1268              		.loc 1 536 7 view .LVU393
 1269              		.loc 1 536 14 is_stmt 0 view .LVU394
 1270              		.arm
 1271              		.syntax unified
 1272 0064 0000A0E3 		mov	r0, #0
 1273 0068 7080BDE8 		pop	{r4, r5, r6, pc}
 1274              	.L94:
 1275              		.align	2
 1276              	.L93:
 1277 006c 00000000 		.word	rlist
 1278              		.cfi_endproc
 1279              	.LFE23:
 1280              		.size	chEvtWaitAllTimeout, .-chEvtWaitAllTimeout
 1281              		.text
 1282              	.Letext0:
 1283              		.file 2 "/usr/local/Cellar/arm-gcc-bin/8-2019-q3-update/arm-none-eabi/include/machine/_default_typ
 1284              		.file 3 "/usr/local/Cellar/arm-gcc-bin/8-2019-q3-update/arm-none-eabi/include/sys/_stdint.h"
 1285              		.file 4 "../../os/ports/GCC/ARM/chtypes.h"
 1286              		.file 5 "../../os/kernel/include/chlists.h"
 1287              		.file 6 "../../os/kernel/include/chthreads.h"
 1288              		.file 7 "../../os/ports/GCC/ARM/chcore.h"
 1289              		.file 8 "../../os/kernel/include/chvt.h"
 1290              		.file 9 "../../os/kernel/include/chschd.h"
 1291              		.file 10 "../../os/kernel/include/chmtx.h"
 1292              		.file 11 "../../os/kernel/include/chevents.h"
 1293              		.file 12 "../../os/kernel/include/chregistry.h"
 1294              		.file 13 "../../os/kernel/include/ch.h"
 1295              		.section	.debug_info,"",%progbits
 1296              	.Ldebug_info0:
 1297 0000 610D0000 		.4byte	0xd61
 1298 0004 0400     		.2byte	0x4
 1299 0006 00000000 		.4byte	.Ldebug_abbrev0
 1300 000a 04       		.byte	0x4
 1301 000b 01       		.uleb128 0x1
 1302 000c 7C020000 		.4byte	.LASF130
 1303 0010 0C       		.byte	0xc
 1304 0011 D9050000 		.4byte	.LASF131
 1305 0015 5C060000 		.4byte	.LASF132
 1306 0019 18000000 		.4byte	.Ldebug_ranges0+0x18
 1307 001d 00000000 		.4byte	0
 1308 0021 00000000 		.4byte	.Ldebug_line0
 1309 0025 02       		.uleb128 0x2
 1310 0026 04       		.byte	0x4
 1311 0027 05       		.byte	0x5
ARM GAS  /var/folders/l5/0x54b2c10074c8bt31ycjvl80000gp/T//cc6w9WWc.s 			page 24


 1312 0028 696E7400 		.ascii	"int\000"
 1313 002c 03       		.uleb128 0x3
 1314 002d 04       		.byte	0x4
 1315 002e 07       		.byte	0x7
 1316 002f E9010000 		.4byte	.LASF0
 1317 0033 03       		.uleb128 0x3
 1318 0034 01       		.byte	0x1
 1319 0035 06       		.byte	0x6
 1320 0036 AA000000 		.4byte	.LASF1
 1321 003a 04       		.uleb128 0x4
 1322 003b 1A000000 		.4byte	.LASF4
 1323 003f 02       		.byte	0x2
 1324 0040 2B       		.byte	0x2b
 1325 0041 18       		.byte	0x18
 1326 0042 46000000 		.4byte	0x46
 1327 0046 03       		.uleb128 0x3
 1328 0047 01       		.byte	0x1
 1329 0048 08       		.byte	0x8
 1330 0049 49040000 		.4byte	.LASF2
 1331 004d 03       		.uleb128 0x3
 1332 004e 02       		.byte	0x2
 1333 004f 05       		.byte	0x5
 1334 0050 83040000 		.4byte	.LASF3
 1335 0054 04       		.uleb128 0x4
 1336 0055 40050000 		.4byte	.LASF5
 1337 0059 02       		.byte	0x2
 1338 005a 39       		.byte	0x39
 1339 005b 19       		.byte	0x19
 1340 005c 60000000 		.4byte	0x60
 1341 0060 03       		.uleb128 0x3
 1342 0061 02       		.byte	0x2
 1343 0062 07       		.byte	0x7
 1344 0063 41020000 		.4byte	.LASF6
 1345 0067 04       		.uleb128 0x4
 1346 0068 73050000 		.4byte	.LASF7
 1347 006c 02       		.byte	0x2
 1348 006d 4D       		.byte	0x4d
 1349 006e 18       		.byte	0x18
 1350 006f 73000000 		.4byte	0x73
 1351 0073 03       		.uleb128 0x3
 1352 0074 04       		.byte	0x4
 1353 0075 05       		.byte	0x5
 1354 0076 0D010000 		.4byte	.LASF8
 1355 007a 04       		.uleb128 0x4
 1356 007b 92010000 		.4byte	.LASF9
 1357 007f 02       		.byte	0x2
 1358 0080 4F       		.byte	0x4f
 1359 0081 19       		.byte	0x19
 1360 0082 86000000 		.4byte	0x86
 1361 0086 03       		.uleb128 0x3
 1362 0087 04       		.byte	0x4
 1363 0088 07       		.byte	0x7
 1364 0089 FE010000 		.4byte	.LASF10
 1365 008d 03       		.uleb128 0x3
 1366 008e 08       		.byte	0x8
 1367 008f 05       		.byte	0x5
 1368 0090 9C000000 		.4byte	.LASF11
ARM GAS  /var/folders/l5/0x54b2c10074c8bt31ycjvl80000gp/T//cc6w9WWc.s 			page 25


 1369 0094 03       		.uleb128 0x3
 1370 0095 08       		.byte	0x8
 1371 0096 07       		.byte	0x7
 1372 0097 37000000 		.4byte	.LASF12
 1373 009b 04       		.uleb128 0x4
 1374 009c CB050000 		.4byte	.LASF13
 1375 00a0 03       		.byte	0x3
 1376 00a1 18       		.byte	0x18
 1377 00a2 13       		.byte	0x13
 1378 00a3 3A000000 		.4byte	0x3a
 1379 00a7 04       		.uleb128 0x4
 1380 00a8 41010000 		.4byte	.LASF14
 1381 00ac 03       		.byte	0x3
 1382 00ad 24       		.byte	0x24
 1383 00ae 14       		.byte	0x14
 1384 00af 54000000 		.4byte	0x54
 1385 00b3 04       		.uleb128 0x4
 1386 00b4 41040000 		.4byte	.LASF15
 1387 00b8 03       		.byte	0x3
 1388 00b9 2C       		.byte	0x2c
 1389 00ba 13       		.byte	0x13
 1390 00bb 67000000 		.4byte	0x67
 1391 00bf 04       		.uleb128 0x4
 1392 00c0 11050000 		.4byte	.LASF16
 1393 00c4 03       		.byte	0x3
 1394 00c5 30       		.byte	0x30
 1395 00c6 14       		.byte	0x14
 1396 00c7 7A000000 		.4byte	0x7a
 1397 00cb 04       		.uleb128 0x4
 1398 00cc 4C030000 		.4byte	.LASF17
 1399 00d0 04       		.byte	0x4
 1400 00d1 2A       		.byte	0x2a
 1401 00d2 19       		.byte	0x19
 1402 00d3 9B000000 		.4byte	0x9b
 1403 00d7 04       		.uleb128 0x4
 1404 00d8 16010000 		.4byte	.LASF18
 1405 00dc 04       		.byte	0x4
 1406 00dd 2B       		.byte	0x2b
 1407 00de 19       		.byte	0x19
 1408 00df 9B000000 		.4byte	0x9b
 1409 00e3 04       		.uleb128 0x4
 1410 00e4 1F040000 		.4byte	.LASF19
 1411 00e8 04       		.byte	0x4
 1412 00e9 2C       		.byte	0x2c
 1413 00ea 19       		.byte	0x19
 1414 00eb 9B000000 		.4byte	0x9b
 1415 00ef 04       		.uleb128 0x4
 1416 00f0 39040000 		.4byte	.LASF20
 1417 00f4 04       		.byte	0x4
 1418 00f5 2E       		.byte	0x2e
 1419 00f6 19       		.byte	0x19
 1420 00f7 BF000000 		.4byte	0xbf
 1421 00fb 04       		.uleb128 0x4
 1422 00fc 66020000 		.4byte	.LASF21
 1423 0100 04       		.byte	0x4
 1424 0101 2F       		.byte	0x2f
 1425 0102 19       		.byte	0x19
ARM GAS  /var/folders/l5/0x54b2c10074c8bt31ycjvl80000gp/T//cc6w9WWc.s 			page 26


 1426 0103 B3000000 		.4byte	0xb3
 1427 0107 04       		.uleb128 0x4
 1428 0108 C7010000 		.4byte	.LASF22
 1429 010c 04       		.byte	0x4
 1430 010d 30       		.byte	0x30
 1431 010e 19       		.byte	0x19
 1432 010f B3000000 		.4byte	0xb3
 1433 0113 04       		.uleb128 0x4
 1434 0114 60030000 		.4byte	.LASF23
 1435 0118 04       		.byte	0x4
 1436 0119 31       		.byte	0x31
 1437 011a 19       		.byte	0x19
 1438 011b BF000000 		.4byte	0xbf
 1439 011f 04       		.uleb128 0x4
 1440 0120 9D050000 		.4byte	.LASF24
 1441 0124 04       		.byte	0x4
 1442 0125 32       		.byte	0x32
 1443 0126 19       		.byte	0x19
 1444 0127 BF000000 		.4byte	0xbf
 1445 012b 04       		.uleb128 0x4
 1446 012c 5E050000 		.4byte	.LASF25
 1447 0130 04       		.byte	0x4
 1448 0131 33       		.byte	0x33
 1449 0132 19       		.byte	0x19
 1450 0133 BF000000 		.4byte	0xbf
 1451 0137 05       		.uleb128 0x5
 1452 0138 2B010000 		.4byte	0x12b
 1453 013c 04       		.uleb128 0x4
 1454 013d E4040000 		.4byte	.LASF26
 1455 0141 05       		.byte	0x5
 1456 0142 23       		.byte	0x23
 1457 0143 17       		.byte	0x17
 1458 0144 48010000 		.4byte	0x148
 1459 0148 06       		.uleb128 0x6
 1460 0149 E4040000 		.4byte	.LASF26
 1461 014d 44       		.byte	0x44
 1462 014e 06       		.byte	0x6
 1463 014f 57       		.byte	0x57
 1464 0150 08       		.byte	0x8
 1465 0151 40020000 		.4byte	0x240
 1466 0155 07       		.uleb128 0x7
 1467 0156 C6040000 		.4byte	.LASF27
 1468 015a 06       		.byte	0x6
 1469 015b 58       		.byte	0x58
 1470 015c 1A       		.byte	0x1a
 1471 015d 64020000 		.4byte	0x264
 1472 0161 00       		.byte	0
 1473 0162 07       		.uleb128 0x7
 1474 0163 32040000 		.4byte	.LASF28
 1475 0167 06       		.byte	0x6
 1476 0168 5A       		.byte	0x5a
 1477 0169 1A       		.byte	0x1a
 1478 016a 64020000 		.4byte	0x264
 1479 016e 04       		.byte	0x4
 1480 016f 07       		.uleb128 0x7
 1481 0170 88000000 		.4byte	.LASF29
 1482 0174 06       		.byte	0x6
ARM GAS  /var/folders/l5/0x54b2c10074c8bt31ycjvl80000gp/T//cc6w9WWc.s 			page 27


 1483 0175 5C       		.byte	0x5c
 1484 0176 19       		.byte	0x19
 1485 0177 EF000000 		.4byte	0xef
 1486 017b 08       		.byte	0x8
 1487 017c 07       		.uleb128 0x7
 1488 017d B3060000 		.4byte	.LASF30
 1489 0181 06       		.byte	0x6
 1490 0182 5D       		.byte	0x5d
 1491 0183 19       		.byte	0x19
 1492 0184 2F030000 		.4byte	0x32f
 1493 0188 0C       		.byte	0xc
 1494 0189 07       		.uleb128 0x7
 1495 018a 69010000 		.4byte	.LASF31
 1496 018e 06       		.byte	0x6
 1497 018f 5F       		.byte	0x5f
 1498 0190 1A       		.byte	0x1a
 1499 0191 64020000 		.4byte	0x264
 1500 0195 10       		.byte	0x10
 1501 0196 07       		.uleb128 0x7
 1502 0197 C7030000 		.4byte	.LASF32
 1503 019b 06       		.byte	0x6
 1504 019c 60       		.byte	0x60
 1505 019d 1A       		.byte	0x1a
 1506 019e 64020000 		.4byte	0x264
 1507 01a2 14       		.byte	0x14
 1508 01a3 07       		.uleb128 0x7
 1509 01a4 21060000 		.4byte	.LASF33
 1510 01a8 06       		.byte	0x6
 1511 01a9 67       		.byte	0x67
 1512 01aa 1A       		.byte	0x1a
 1513 01ab B2050000 		.4byte	0x5b2
 1514 01af 18       		.byte	0x18
 1515 01b0 07       		.uleb128 0x7
 1516 01b1 8D040000 		.4byte	.LASF34
 1517 01b5 06       		.byte	0x6
 1518 01b6 72       		.byte	0x72
 1519 01b7 19       		.byte	0x19
 1520 01b8 D7000000 		.4byte	0xd7
 1521 01bc 1C       		.byte	0x1c
 1522 01bd 07       		.uleb128 0x7
 1523 01be DC040000 		.4byte	.LASF35
 1524 01c2 06       		.byte	0x6
 1525 01c3 76       		.byte	0x76
 1526 01c4 19       		.byte	0x19
 1527 01c5 CB000000 		.4byte	0xcb
 1528 01c9 1D       		.byte	0x1d
 1529 01ca 07       		.uleb128 0x7
 1530 01cb B4050000 		.4byte	.LASF36
 1531 01cf 06       		.byte	0x6
 1532 01d0 7B       		.byte	0x7b
 1533 01d1 19       		.byte	0x19
 1534 01d2 E3000000 		.4byte	0xe3
 1535 01d6 1E       		.byte	0x1e
 1536 01d7 07       		.uleb128 0x7
 1537 01d8 7D050000 		.4byte	.LASF37
 1538 01dc 06       		.byte	0x6
 1539 01dd 88       		.byte	0x88
ARM GAS  /var/folders/l5/0x54b2c10074c8bt31ycjvl80000gp/T//cc6w9WWc.s 			page 28


 1540 01de 19       		.byte	0x19
 1541 01df 37010000 		.4byte	0x137
 1542 01e3 20       		.byte	0x20
 1543 01e4 08       		.uleb128 0x8
 1544 01e5 705F7500 		.ascii	"p_u\000"
 1545 01e9 06       		.byte	0x6
 1546 01ea AD       		.byte	0xad
 1547 01eb 19       		.byte	0x19
 1548 01ec 78050000 		.4byte	0x578
 1549 01f0 24       		.byte	0x24
 1550 01f1 07       		.uleb128 0x7
 1551 01f2 B9060000 		.4byte	.LASF38
 1552 01f6 06       		.byte	0x6
 1553 01f7 B2       		.byte	0xb2
 1554 01f8 19       		.byte	0x19
 1555 01f9 8D020000 		.4byte	0x28d
 1556 01fd 28       		.byte	0x28
 1557 01fe 07       		.uleb128 0x7
 1558 01ff 8B050000 		.4byte	.LASF39
 1559 0203 06       		.byte	0x6
 1560 0204 B8       		.byte	0xb8
 1561 0205 19       		.byte	0x19
 1562 0206 6A020000 		.4byte	0x26a
 1563 020a 2C       		.byte	0x2c
 1564 020b 07       		.uleb128 0x7
 1565 020c 0D000000 		.4byte	.LASF40
 1566 0210 06       		.byte	0x6
 1567 0211 BC       		.byte	0xbc
 1568 0212 19       		.byte	0x19
 1569 0213 FB000000 		.4byte	0xfb
 1570 0217 34       		.byte	0x34
 1571 0218 07       		.uleb128 0x7
 1572 0219 06050000 		.4byte	.LASF41
 1573 021d 06       		.byte	0x6
 1574 021e C2       		.byte	0xc2
 1575 021f 19       		.byte	0x19
 1576 0220 13010000 		.4byte	0x113
 1577 0224 38       		.byte	0x38
 1578 0225 07       		.uleb128 0x7
 1579 0226 79040000 		.4byte	.LASF42
 1580 022a 06       		.byte	0x6
 1581 022b C9       		.byte	0xc9
 1582 022c 1A       		.byte	0x1a
 1583 022d C4050000 		.4byte	0x5c4
 1584 0231 3C       		.byte	0x3c
 1585 0232 07       		.uleb128 0x7
 1586 0233 68050000 		.4byte	.LASF43
 1587 0237 06       		.byte	0x6
 1588 0238 CD       		.byte	0xcd
 1589 0239 19       		.byte	0x19
 1590 023a EF000000 		.4byte	0xef
 1591 023e 40       		.byte	0x40
 1592 023f 00       		.byte	0
 1593 0240 09       		.uleb128 0x9
 1594 0241 08       		.byte	0x8
 1595 0242 05       		.byte	0x5
 1596 0243 5A       		.byte	0x5a
ARM GAS  /var/folders/l5/0x54b2c10074c8bt31ycjvl80000gp/T//cc6w9WWc.s 			page 29


 1597 0244 09       		.byte	0x9
 1598 0245 64020000 		.4byte	0x264
 1599 0249 07       		.uleb128 0x7
 1600 024a C6040000 		.4byte	.LASF27
 1601 024e 05       		.byte	0x5
 1602 024f 5B       		.byte	0x5b
 1603 0250 1A       		.byte	0x1a
 1604 0251 64020000 		.4byte	0x264
 1605 0255 00       		.byte	0
 1606 0256 07       		.uleb128 0x7
 1607 0257 32040000 		.4byte	.LASF28
 1608 025b 05       		.byte	0x5
 1609 025c 5D       		.byte	0x5d
 1610 025d 1A       		.byte	0x1a
 1611 025e 64020000 		.4byte	0x264
 1612 0262 04       		.byte	0x4
 1613 0263 00       		.byte	0
 1614 0264 0A       		.uleb128 0xa
 1615 0265 04       		.byte	0x4
 1616 0266 3C010000 		.4byte	0x13c
 1617 026a 04       		.uleb128 0x4
 1618 026b D5030000 		.4byte	.LASF44
 1619 026f 05       		.byte	0x5
 1620 0270 5F       		.byte	0x5f
 1621 0271 03       		.byte	0x3
 1622 0272 40020000 		.4byte	0x240
 1623 0276 09       		.uleb128 0x9
 1624 0277 04       		.byte	0x4
 1625 0278 05       		.byte	0x5
 1626 0279 64       		.byte	0x64
 1627 027a 09       		.byte	0x9
 1628 027b 8D020000 		.4byte	0x28d
 1629 027f 07       		.uleb128 0x7
 1630 0280 C6040000 		.4byte	.LASF27
 1631 0284 05       		.byte	0x5
 1632 0285 66       		.byte	0x66
 1633 0286 16       		.byte	0x16
 1634 0287 64020000 		.4byte	0x264
 1635 028b 00       		.byte	0
 1636 028c 00       		.byte	0
 1637 028d 04       		.uleb128 0x4
 1638 028e 54030000 		.4byte	.LASF45
 1639 0292 05       		.byte	0x5
 1640 0293 69       		.byte	0x69
 1641 0294 03       		.byte	0x3
 1642 0295 76020000 		.4byte	0x276
 1643 0299 04       		.uleb128 0x4
 1644 029a 72030000 		.4byte	.LASF46
 1645 029e 07       		.byte	0x7
 1646 029f 9D       		.byte	0x9d
 1647 02a0 12       		.byte	0x12
 1648 02a1 BF000000 		.4byte	0xbf
 1649 02a5 04       		.uleb128 0x4
 1650 02a6 A2010000 		.4byte	.LASF47
 1651 02aa 07       		.byte	0x7
 1652 02ab A2       		.byte	0xa2
 1653 02ac 0F       		.byte	0xf
ARM GAS  /var/folders/l5/0x54b2c10074c8bt31ycjvl80000gp/T//cc6w9WWc.s 			page 30


 1654 02ad B1020000 		.4byte	0x2b1
 1655 02b1 0B       		.uleb128 0xb
 1656 02b2 04       		.byte	0x4
 1657 02b3 06       		.uleb128 0x6
 1658 02b4 84050000 		.4byte	.LASF48
 1659 02b8 24       		.byte	0x24
 1660 02b9 07       		.byte	0x7
 1661 02ba B9       		.byte	0xb9
 1662 02bb 08       		.byte	0x8
 1663 02bc 2F030000 		.4byte	0x32f
 1664 02c0 08       		.uleb128 0x8
 1665 02c1 723400   		.ascii	"r4\000"
 1666 02c4 07       		.byte	0x7
 1667 02c5 BA       		.byte	0xba
 1668 02c6 11       		.byte	0x11
 1669 02c7 A5020000 		.4byte	0x2a5
 1670 02cb 00       		.byte	0
 1671 02cc 08       		.uleb128 0x8
 1672 02cd 723500   		.ascii	"r5\000"
 1673 02d0 07       		.byte	0x7
 1674 02d1 BB       		.byte	0xbb
 1675 02d2 11       		.byte	0x11
 1676 02d3 A5020000 		.4byte	0x2a5
 1677 02d7 04       		.byte	0x4
 1678 02d8 08       		.uleb128 0x8
 1679 02d9 723600   		.ascii	"r6\000"
 1680 02dc 07       		.byte	0x7
 1681 02dd BC       		.byte	0xbc
 1682 02de 11       		.byte	0x11
 1683 02df A5020000 		.4byte	0x2a5
 1684 02e3 08       		.byte	0x8
 1685 02e4 08       		.uleb128 0x8
 1686 02e5 723700   		.ascii	"r7\000"
 1687 02e8 07       		.byte	0x7
 1688 02e9 BD       		.byte	0xbd
 1689 02ea 11       		.byte	0x11
 1690 02eb A5020000 		.4byte	0x2a5
 1691 02ef 0C       		.byte	0xc
 1692 02f0 08       		.uleb128 0x8
 1693 02f1 723800   		.ascii	"r8\000"
 1694 02f4 07       		.byte	0x7
 1695 02f5 BE       		.byte	0xbe
 1696 02f6 11       		.byte	0x11
 1697 02f7 A5020000 		.4byte	0x2a5
 1698 02fb 10       		.byte	0x10
 1699 02fc 08       		.uleb128 0x8
 1700 02fd 723900   		.ascii	"r9\000"
 1701 0300 07       		.byte	0x7
 1702 0301 BF       		.byte	0xbf
 1703 0302 11       		.byte	0x11
 1704 0303 A5020000 		.4byte	0x2a5
 1705 0307 14       		.byte	0x14
 1706 0308 08       		.uleb128 0x8
 1707 0309 72313000 		.ascii	"r10\000"
 1708 030d 07       		.byte	0x7
 1709 030e C0       		.byte	0xc0
 1710 030f 11       		.byte	0x11
ARM GAS  /var/folders/l5/0x54b2c10074c8bt31ycjvl80000gp/T//cc6w9WWc.s 			page 31


 1711 0310 A5020000 		.4byte	0x2a5
 1712 0314 18       		.byte	0x18
 1713 0315 08       		.uleb128 0x8
 1714 0316 72313100 		.ascii	"r11\000"
 1715 031a 07       		.byte	0x7
 1716 031b C1       		.byte	0xc1
 1717 031c 11       		.byte	0x11
 1718 031d A5020000 		.4byte	0x2a5
 1719 0321 1C       		.byte	0x1c
 1720 0322 08       		.uleb128 0x8
 1721 0323 6C7200   		.ascii	"lr\000"
 1722 0326 07       		.byte	0x7
 1723 0327 C2       		.byte	0xc2
 1724 0328 11       		.byte	0x11
 1725 0329 A5020000 		.4byte	0x2a5
 1726 032d 20       		.byte	0x20
 1727 032e 00       		.byte	0
 1728 032f 06       		.uleb128 0x6
 1729 0330 39020000 		.4byte	.LASF49
 1730 0334 04       		.byte	0x4
 1731 0335 07       		.byte	0x7
 1732 0336 CA       		.byte	0xca
 1733 0337 08       		.byte	0x8
 1734 0338 4A030000 		.4byte	0x34a
 1735 033c 08       		.uleb128 0x8
 1736 033d 72313300 		.ascii	"r13\000"
 1737 0341 07       		.byte	0x7
 1738 0342 CB       		.byte	0xcb
 1739 0343 12       		.byte	0x12
 1740 0344 4A030000 		.4byte	0x34a
 1741 0348 00       		.byte	0
 1742 0349 00       		.byte	0
 1743 034a 0A       		.uleb128 0xa
 1744 034b 04       		.byte	0x4
 1745 034c B3020000 		.4byte	0x2b3
 1746 0350 04       		.uleb128 0x4
 1747 0351 30020000 		.4byte	.LASF50
 1748 0355 08       		.byte	0x8
 1749 0356 4E       		.byte	0x4e
 1750 0357 10       		.byte	0x10
 1751 0358 5C030000 		.4byte	0x35c
 1752 035c 0A       		.uleb128 0xa
 1753 035d 04       		.byte	0x4
 1754 035e 62030000 		.4byte	0x362
 1755 0362 0C       		.uleb128 0xc
 1756 0363 6D030000 		.4byte	0x36d
 1757 0367 0D       		.uleb128 0xd
 1758 0368 B1020000 		.4byte	0x2b1
 1759 036c 00       		.byte	0
 1760 036d 04       		.uleb128 0x4
 1761 036e 2E050000 		.4byte	.LASF51
 1762 0372 08       		.byte	0x8
 1763 0373 53       		.byte	0x53
 1764 0374 1D       		.byte	0x1d
 1765 0375 79030000 		.4byte	0x379
 1766 0379 06       		.uleb128 0x6
 1767 037a 2E050000 		.4byte	.LASF51
ARM GAS  /var/folders/l5/0x54b2c10074c8bt31ycjvl80000gp/T//cc6w9WWc.s 			page 32


 1768 037e 14       		.byte	0x14
 1769 037f 08       		.byte	0x8
 1770 0380 5A       		.byte	0x5a
 1771 0381 08       		.byte	0x8
 1772 0382 C8030000 		.4byte	0x3c8
 1773 0386 07       		.uleb128 0x7
 1774 0387 F6010000 		.4byte	.LASF52
 1775 038b 08       		.byte	0x8
 1776 038c 5B       		.byte	0x5b
 1777 038d 1A       		.byte	0x1a
 1778 038e C8030000 		.4byte	0x3c8
 1779 0392 00       		.byte	0
 1780 0393 07       		.uleb128 0x7
 1781 0394 AB010000 		.4byte	.LASF53
 1782 0398 08       		.byte	0x8
 1783 0399 5D       		.byte	0x5d
 1784 039a 1A       		.byte	0x1a
 1785 039b C8030000 		.4byte	0x3c8
 1786 039f 04       		.byte	0x4
 1787 03a0 07       		.uleb128 0x7
 1788 03a1 91030000 		.4byte	.LASF54
 1789 03a5 08       		.byte	0x8
 1790 03a6 5F       		.byte	0x5f
 1791 03a7 19       		.byte	0x19
 1792 03a8 2B010000 		.4byte	0x12b
 1793 03ac 08       		.byte	0x8
 1794 03ad 07       		.uleb128 0x7
 1795 03ae 99030000 		.4byte	.LASF55
 1796 03b2 08       		.byte	0x8
 1797 03b3 60       		.byte	0x60
 1798 03b4 19       		.byte	0x19
 1799 03b5 50030000 		.4byte	0x350
 1800 03b9 0C       		.byte	0xc
 1801 03ba 07       		.uleb128 0x7
 1802 03bb 96050000 		.4byte	.LASF56
 1803 03bf 08       		.byte	0x8
 1804 03c0 62       		.byte	0x62
 1805 03c1 1A       		.byte	0x1a
 1806 03c2 B1020000 		.4byte	0x2b1
 1807 03c6 10       		.byte	0x10
 1808 03c7 00       		.byte	0
 1809 03c8 0A       		.uleb128 0xa
 1810 03c9 04       		.byte	0x4
 1811 03ca 6D030000 		.4byte	0x36d
 1812 03ce 09       		.uleb128 0x9
 1813 03cf 10       		.byte	0x10
 1814 03d0 08       		.byte	0x8
 1815 03d1 6C       		.byte	0x6c
 1816 03d2 09       		.byte	0x9
 1817 03d3 0C040000 		.4byte	0x40c
 1818 03d7 07       		.uleb128 0x7
 1819 03d8 F6010000 		.4byte	.LASF52
 1820 03dc 08       		.byte	0x8
 1821 03dd 6D       		.byte	0x6d
 1822 03de 1A       		.byte	0x1a
 1823 03df C8030000 		.4byte	0x3c8
 1824 03e3 00       		.byte	0
ARM GAS  /var/folders/l5/0x54b2c10074c8bt31ycjvl80000gp/T//cc6w9WWc.s 			page 33


 1825 03e4 07       		.uleb128 0x7
 1826 03e5 AB010000 		.4byte	.LASF53
 1827 03e9 08       		.byte	0x8
 1828 03ea 6F       		.byte	0x6f
 1829 03eb 1A       		.byte	0x1a
 1830 03ec C8030000 		.4byte	0x3c8
 1831 03f0 04       		.byte	0x4
 1832 03f1 07       		.uleb128 0x7
 1833 03f2 91030000 		.4byte	.LASF54
 1834 03f6 08       		.byte	0x8
 1835 03f7 71       		.byte	0x71
 1836 03f8 19       		.byte	0x19
 1837 03f9 2B010000 		.4byte	0x12b
 1838 03fd 08       		.byte	0x8
 1839 03fe 07       		.uleb128 0x7
 1840 03ff 28060000 		.4byte	.LASF57
 1841 0403 08       		.byte	0x8
 1842 0404 72       		.byte	0x72
 1843 0405 19       		.byte	0x19
 1844 0406 37010000 		.4byte	0x137
 1845 040a 0C       		.byte	0xc
 1846 040b 00       		.byte	0
 1847 040c 04       		.uleb128 0x4
 1848 040d A4060000 		.4byte	.LASF58
 1849 0411 08       		.byte	0x8
 1850 0412 73       		.byte	0x73
 1851 0413 03       		.byte	0x3
 1852 0414 CE030000 		.4byte	0x3ce
 1853 0418 0E       		.uleb128 0xe
 1854 0419 24000000 		.4byte	.LASF66
 1855 041d 08       		.byte	0x8
 1856 041e D1       		.byte	0xd1
 1857 041f 0F       		.byte	0xf
 1858 0420 0C040000 		.4byte	0x40c
 1859 0424 09       		.uleb128 0x9
 1860 0425 1C       		.byte	0x1c
 1861 0426 09       		.byte	0x9
 1862 0427 57       		.byte	0x57
 1863 0428 09       		.byte	0x9
 1864 0429 7C040000 		.4byte	0x47c
 1865 042d 07       		.uleb128 0x7
 1866 042e 26050000 		.4byte	.LASF59
 1867 0432 09       		.byte	0x9
 1868 0433 58       		.byte	0x58
 1869 0434 19       		.byte	0x19
 1870 0435 6A020000 		.4byte	0x26a
 1871 0439 00       		.byte	0
 1872 043a 07       		.uleb128 0x7
 1873 043b A1040000 		.4byte	.LASF60
 1874 043f 09       		.byte	0x9
 1875 0440 59       		.byte	0x59
 1876 0441 19       		.byte	0x19
 1877 0442 EF000000 		.4byte	0xef
 1878 0446 08       		.byte	0x8
 1879 0447 07       		.uleb128 0x7
 1880 0448 CF030000 		.4byte	.LASF61
 1881 044c 09       		.byte	0x9
ARM GAS  /var/folders/l5/0x54b2c10074c8bt31ycjvl80000gp/T//cc6w9WWc.s 			page 34


 1882 044d 5B       		.byte	0x5b
 1883 044e 19       		.byte	0x19
 1884 044f 2F030000 		.4byte	0x32f
 1885 0453 0C       		.byte	0xc
 1886 0454 07       		.uleb128 0x7
 1887 0455 6C020000 		.4byte	.LASF62
 1888 0459 09       		.byte	0x9
 1889 045a 5E       		.byte	0x5e
 1890 045b 1A       		.byte	0x1a
 1891 045c 64020000 		.4byte	0x264
 1892 0460 10       		.byte	0x10
 1893 0461 07       		.uleb128 0x7
 1894 0462 06040000 		.4byte	.LASF63
 1895 0466 09       		.byte	0x9
 1896 0467 5F       		.byte	0x5f
 1897 0468 1A       		.byte	0x1a
 1898 0469 64020000 		.4byte	0x264
 1899 046d 14       		.byte	0x14
 1900 046e 07       		.uleb128 0x7
 1901 046f FC030000 		.4byte	.LASF64
 1902 0473 09       		.byte	0x9
 1903 0474 62       		.byte	0x62
 1904 0475 1A       		.byte	0x1a
 1905 0476 64020000 		.4byte	0x264
 1906 047a 18       		.byte	0x18
 1907 047b 00       		.byte	0
 1908 047c 04       		.uleb128 0x4
 1909 047d BB050000 		.4byte	.LASF65
 1910 0481 09       		.byte	0x9
 1911 0482 64       		.byte	0x64
 1912 0483 03       		.byte	0x3
 1913 0484 24040000 		.4byte	0x424
 1914 0488 0E       		.uleb128 0xe
 1915 0489 C5050000 		.4byte	.LASF67
 1916 048d 09       		.byte	0x9
 1917 048e 68       		.byte	0x68
 1918 048f 12       		.byte	0x12
 1919 0490 7C040000 		.4byte	0x47c
 1920 0494 06       		.uleb128 0x6
 1921 0495 6C030000 		.4byte	.LASF68
 1922 0499 10       		.byte	0x10
 1923 049a 0A       		.byte	0xa
 1924 049b 25       		.byte	0x25
 1925 049c 10       		.byte	0x10
 1926 049d C9040000 		.4byte	0x4c9
 1927 04a1 07       		.uleb128 0x7
 1928 04a2 E7000000 		.4byte	.LASF69
 1929 04a6 0A       		.byte	0xa
 1930 04a7 26       		.byte	0x26
 1931 04a8 19       		.byte	0x19
 1932 04a9 6A020000 		.4byte	0x26a
 1933 04ad 00       		.byte	0
 1934 04ae 07       		.uleb128 0x7
 1935 04af AB060000 		.4byte	.LASF70
 1936 04b3 0A       		.byte	0xa
 1937 04b4 28       		.byte	0x28
 1938 04b5 1A       		.byte	0x1a
ARM GAS  /var/folders/l5/0x54b2c10074c8bt31ycjvl80000gp/T//cc6w9WWc.s 			page 35


 1939 04b6 64020000 		.4byte	0x264
 1940 04ba 08       		.byte	0x8
 1941 04bb 07       		.uleb128 0x7
 1942 04bc 57050000 		.4byte	.LASF71
 1943 04c0 0A       		.byte	0xa
 1944 04c1 2A       		.byte	0x2a
 1945 04c2 1A       		.byte	0x1a
 1946 04c3 C9040000 		.4byte	0x4c9
 1947 04c7 0C       		.byte	0xc
 1948 04c8 00       		.byte	0
 1949 04c9 0A       		.uleb128 0xa
 1950 04ca 04       		.byte	0x4
 1951 04cb 94040000 		.4byte	0x494
 1952 04cf 04       		.uleb128 0x4
 1953 04d0 6C030000 		.4byte	.LASF68
 1954 04d4 0A       		.byte	0xa
 1955 04d5 2C       		.byte	0x2c
 1956 04d6 03       		.byte	0x3
 1957 04d7 94040000 		.4byte	0x494
 1958 04db 04       		.uleb128 0x4
 1959 04dc F8050000 		.4byte	.LASF72
 1960 04e0 0B       		.byte	0xb
 1961 04e1 25       		.byte	0x25
 1962 04e2 1E       		.byte	0x1e
 1963 04e3 E7040000 		.4byte	0x4e7
 1964 04e7 06       		.uleb128 0x6
 1965 04e8 F8050000 		.4byte	.LASF72
 1966 04ec 10       		.byte	0x10
 1967 04ed 0B       		.byte	0xb
 1968 04ee 2A       		.byte	0x2a
 1969 04ef 08       		.byte	0x8
 1970 04f0 29050000 		.4byte	0x529
 1971 04f4 07       		.uleb128 0x7
 1972 04f5 74020000 		.4byte	.LASF73
 1973 04f9 0B       		.byte	0xb
 1974 04fa 2B       		.byte	0x2b
 1975 04fb 1A       		.byte	0x1a
 1976 04fc 29050000 		.4byte	0x529
 1977 0500 00       		.byte	0
 1978 0501 07       		.uleb128 0x7
 1979 0502 64040000 		.4byte	.LASF74
 1980 0506 0B       		.byte	0xb
 1981 0507 2E       		.byte	0x2e
 1982 0508 1A       		.byte	0x1a
 1983 0509 64020000 		.4byte	0x264
 1984 050d 04       		.byte	0x4
 1985 050e 07       		.uleb128 0x7
 1986 050f 0E040000 		.4byte	.LASF75
 1987 0513 0B       		.byte	0xb
 1988 0514 30       		.byte	0x30
 1989 0515 19       		.byte	0x19
 1990 0516 13010000 		.4byte	0x113
 1991 051a 08       		.byte	0x8
 1992 051b 07       		.uleb128 0x7
 1993 051c 70040000 		.4byte	.LASF76
 1994 0520 0B       		.byte	0xb
 1995 0521 33       		.byte	0x33
ARM GAS  /var/folders/l5/0x54b2c10074c8bt31ycjvl80000gp/T//cc6w9WWc.s 			page 36


 1996 0522 19       		.byte	0x19
 1997 0523 1F010000 		.4byte	0x11f
 1998 0527 0C       		.byte	0xc
 1999 0528 00       		.byte	0
 2000 0529 0A       		.uleb128 0xa
 2001 052a 04       		.byte	0x4
 2002 052b DB040000 		.4byte	0x4db
 2003 052f 06       		.uleb128 0x6
 2004 0530 D1010000 		.4byte	.LASF77
 2005 0534 04       		.byte	0x4
 2006 0535 0B       		.byte	0xb
 2007 0536 3A       		.byte	0x3a
 2008 0537 10       		.byte	0x10
 2009 0538 4A050000 		.4byte	0x54a
 2010 053c 07       		.uleb128 0x7
 2011 053d 33060000 		.4byte	.LASF78
 2012 0541 0B       		.byte	0xb
 2013 0542 3B       		.byte	0x3b
 2014 0543 1A       		.byte	0x1a
 2015 0544 29050000 		.4byte	0x529
 2016 0548 00       		.byte	0
 2017 0549 00       		.byte	0
 2018 054a 04       		.uleb128 0x4
 2019 054b D1010000 		.4byte	.LASF77
 2020 054f 0B       		.byte	0xb
 2021 0550 3E       		.byte	0x3e
 2022 0551 03       		.byte	0x3
 2023 0552 2F050000 		.4byte	0x52f
 2024 0556 04       		.uleb128 0x4
 2025 0557 DD010000 		.4byte	.LASF79
 2026 055b 0B       		.byte	0xb
 2027 055c 43       		.byte	0x43
 2028 055d 10       		.byte	0x10
 2029 055e 67050000 		.4byte	0x567
 2030 0562 0F       		.uleb128 0xf
 2031 0563 56050000 		.4byte	0x556
 2032 0567 0A       		.uleb128 0xa
 2033 0568 04       		.byte	0x4
 2034 0569 6D050000 		.4byte	0x56d
 2035 056d 0C       		.uleb128 0xc
 2036 056e 78050000 		.4byte	0x578
 2037 0572 0D       		.uleb128 0xd
 2038 0573 07010000 		.4byte	0x107
 2039 0577 00       		.byte	0
 2040 0578 10       		.uleb128 0x10
 2041 0579 04       		.byte	0x4
 2042 057a 06       		.byte	0x6
 2043 057b 8F       		.byte	0x8f
 2044 057c 03       		.byte	0x3
 2045 057d B2050000 		.4byte	0x5b2
 2046 0581 11       		.uleb128 0x11
 2047 0582 13000000 		.4byte	.LASF80
 2048 0586 06       		.byte	0x6
 2049 0587 96       		.byte	0x96
 2050 0588 19       		.byte	0x19
 2051 0589 FB000000 		.4byte	0xfb
 2052 058d 11       		.uleb128 0x11
ARM GAS  /var/folders/l5/0x54b2c10074c8bt31ycjvl80000gp/T//cc6w9WWc.s 			page 37


 2053 058e 6B000000 		.4byte	.LASF81
 2054 0592 06       		.byte	0x6
 2055 0593 9D       		.byte	0x9d
 2056 0594 19       		.byte	0x19
 2057 0595 FB000000 		.4byte	0xfb
 2058 0599 11       		.uleb128 0x11
 2059 059a 1A060000 		.4byte	.LASF82
 2060 059e 06       		.byte	0x6
 2061 059f A4       		.byte	0xa4
 2062 05a0 1A       		.byte	0x1a
 2063 05a1 B1020000 		.4byte	0x2b1
 2064 05a5 11       		.uleb128 0x11
 2065 05a6 BF040000 		.4byte	.LASF83
 2066 05aa 06       		.byte	0x6
 2067 05ab AB       		.byte	0xab
 2068 05ac 19       		.byte	0x19
 2069 05ad 13010000 		.4byte	0x113
 2070 05b1 00       		.byte	0
 2071 05b2 0A       		.uleb128 0xa
 2072 05b3 04       		.byte	0x4
 2073 05b4 BF050000 		.4byte	0x5bf
 2074 05b8 03       		.uleb128 0x3
 2075 05b9 01       		.byte	0x1
 2076 05ba 08       		.byte	0x8
 2077 05bb 3B050000 		.4byte	.LASF84
 2078 05bf 0F       		.uleb128 0xf
 2079 05c0 B8050000 		.4byte	0x5b8
 2080 05c4 0A       		.uleb128 0xa
 2081 05c5 04       		.byte	0x4
 2082 05c6 CF040000 		.4byte	0x4cf
 2083 05ca 09       		.uleb128 0x9
 2084 05cb 16       		.byte	0x16
 2085 05cc 0C       		.byte	0xc
 2086 05cd 25       		.byte	0x25
 2087 05ce 09       		.byte	0x9
 2088 05cf BE060000 		.4byte	0x6be
 2089 05d3 07       		.uleb128 0x7
 2090 05d4 EF000000 		.4byte	.LASF85
 2091 05d8 0C       		.byte	0xc
 2092 05d9 26       		.byte	0x26
 2093 05da 0D       		.byte	0xd
 2094 05db BE060000 		.4byte	0x6be
 2095 05df 00       		.byte	0
 2096 05e0 07       		.uleb128 0x7
 2097 05e1 7D030000 		.4byte	.LASF86
 2098 05e5 0C       		.byte	0xc
 2099 05e6 27       		.byte	0x27
 2100 05e7 0D       		.byte	0xd
 2101 05e8 9B000000 		.4byte	0x9b
 2102 05ec 04       		.byte	0x4
 2103 05ed 07       		.uleb128 0x7
 2104 05ee E2030000 		.4byte	.LASF87
 2105 05f2 0C       		.byte	0xc
 2106 05f3 28       		.byte	0x28
 2107 05f4 0D       		.byte	0xd
 2108 05f5 9B000000 		.4byte	0x9b
 2109 05f9 05       		.byte	0x5
ARM GAS  /var/folders/l5/0x54b2c10074c8bt31ycjvl80000gp/T//cc6w9WWc.s 			page 38


 2110 05fa 07       		.uleb128 0x7
 2111 05fb 51060000 		.4byte	.LASF88
 2112 05ff 0C       		.byte	0xc
 2113 0600 29       		.byte	0x29
 2114 0601 0D       		.byte	0xd
 2115 0602 A7000000 		.4byte	0xa7
 2116 0606 06       		.byte	0x6
 2117 0607 07       		.uleb128 0x7
 2118 0608 27040000 		.4byte	.LASF89
 2119 060c 0C       		.byte	0xc
 2120 060d 2A       		.byte	0x2a
 2121 060e 0D       		.byte	0xd
 2122 060f 9B000000 		.4byte	0x9b
 2123 0613 08       		.byte	0x8
 2124 0614 07       		.uleb128 0x7
 2125 0615 AF030000 		.4byte	.LASF90
 2126 0619 0C       		.byte	0xc
 2127 061a 2B       		.byte	0x2b
 2128 061b 0D       		.byte	0xd
 2129 061c 9B000000 		.4byte	0x9b
 2130 0620 09       		.byte	0x9
 2131 0621 07       		.uleb128 0x7
 2132 0622 5D000000 		.4byte	.LASF91
 2133 0626 0C       		.byte	0xc
 2134 0627 2C       		.byte	0x2c
 2135 0628 0D       		.byte	0xd
 2136 0629 9B000000 		.4byte	0x9b
 2137 062d 0A       		.byte	0xa
 2138 062e 07       		.uleb128 0x7
 2139 062f 1A050000 		.4byte	.LASF92
 2140 0633 0C       		.byte	0xc
 2141 0634 2D       		.byte	0x2d
 2142 0635 0D       		.byte	0xd
 2143 0636 9B000000 		.4byte	0x9b
 2144 063a 0B       		.byte	0xb
 2145 063b 07       		.uleb128 0x7
 2146 063c A9050000 		.4byte	.LASF93
 2147 0640 0C       		.byte	0xc
 2148 0641 2E       		.byte	0x2e
 2149 0642 0D       		.byte	0xd
 2150 0643 9B000000 		.4byte	0x9b
 2151 0647 0C       		.byte	0xc
 2152 0648 07       		.uleb128 0x7
 2153 0649 EB040000 		.4byte	.LASF94
 2154 064d 0C       		.byte	0xc
 2155 064e 2F       		.byte	0x2f
 2156 064f 0D       		.byte	0xd
 2157 0650 9B000000 		.4byte	0x9b
 2158 0654 0D       		.byte	0xd
 2159 0655 07       		.uleb128 0x7
 2160 0656 00000000 		.4byte	.LASF95
 2161 065a 0C       		.byte	0xc
 2162 065b 30       		.byte	0x30
 2163 065c 0D       		.byte	0xd
 2164 065d 9B000000 		.4byte	0x9b
 2165 0661 0E       		.byte	0xe
 2166 0662 07       		.uleb128 0x7
ARM GAS  /var/folders/l5/0x54b2c10074c8bt31ycjvl80000gp/T//cc6w9WWc.s 			page 39


 2167 0663 BB030000 		.4byte	.LASF96
 2168 0667 0C       		.byte	0xc
 2169 0668 31       		.byte	0x31
 2170 0669 0D       		.byte	0xd
 2171 066a 9B000000 		.4byte	0x9b
 2172 066e 0F       		.byte	0xf
 2173 066f 07       		.uleb128 0x7
 2174 0670 B6000000 		.4byte	.LASF97
 2175 0674 0C       		.byte	0xc
 2176 0675 32       		.byte	0x32
 2177 0676 0D       		.byte	0xd
 2178 0677 9B000000 		.4byte	0x9b
 2179 067b 10       		.byte	0x10
 2180 067c 07       		.uleb128 0x7
 2181 067d 8F000000 		.4byte	.LASF98
 2182 0681 0C       		.byte	0xc
 2183 0682 34       		.byte	0x34
 2184 0683 0D       		.byte	0xd
 2185 0684 9B000000 		.4byte	0x9b
 2186 0688 11       		.byte	0x11
 2187 0689 07       		.uleb128 0x7
 2188 068a DA000000 		.4byte	.LASF99
 2189 068e 0C       		.byte	0xc
 2190 068f 35       		.byte	0x35
 2191 0690 0D       		.byte	0xd
 2192 0691 9B000000 		.4byte	0x9b
 2193 0695 12       		.byte	0x12
 2194 0696 07       		.uleb128 0x7
 2195 0697 85030000 		.4byte	.LASF100
 2196 069b 0C       		.byte	0xc
 2197 069c 36       		.byte	0x36
 2198 069d 0D       		.byte	0xd
 2199 069e 9B000000 		.4byte	0x9b
 2200 06a2 13       		.byte	0x13
 2201 06a3 07       		.uleb128 0x7
 2202 06a4 CD040000 		.4byte	.LASF101
 2203 06a8 0C       		.byte	0xc
 2204 06a9 37       		.byte	0x37
 2205 06aa 0D       		.byte	0xd
 2206 06ab 9B000000 		.4byte	0x9b
 2207 06af 14       		.byte	0x14
 2208 06b0 07       		.uleb128 0x7
 2209 06b1 95040000 		.4byte	.LASF102
 2210 06b5 0C       		.byte	0xc
 2211 06b6 39       		.byte	0x39
 2212 06b7 0D       		.byte	0xd
 2213 06b8 9B000000 		.4byte	0x9b
 2214 06bc 15       		.byte	0x15
 2215 06bd 00       		.byte	0
 2216 06be 12       		.uleb128 0x12
 2217 06bf B8050000 		.4byte	0x5b8
 2218 06c3 CE060000 		.4byte	0x6ce
 2219 06c7 13       		.uleb128 0x13
 2220 06c8 2C000000 		.4byte	0x2c
 2221 06cc 03       		.byte	0x3
 2222 06cd 00       		.byte	0
 2223 06ce 04       		.uleb128 0x4
ARM GAS  /var/folders/l5/0x54b2c10074c8bt31ycjvl80000gp/T//cc6w9WWc.s 			page 40


 2224 06cf 4A010000 		.4byte	.LASF103
 2225 06d3 0C       		.byte	0xc
 2226 06d4 3A       		.byte	0x3a
 2227 06d5 03       		.byte	0x3
 2228 06d6 CA050000 		.4byte	0x5ca
 2229 06da 0F       		.uleb128 0xf
 2230 06db CE060000 		.4byte	0x6ce
 2231 06df 0E       		.uleb128 0xe
 2232 06e0 27020000 		.4byte	.LASF104
 2233 06e4 0C       		.byte	0xc
 2234 06e5 77       		.byte	0x77
 2235 06e6 1D       		.byte	0x1d
 2236 06e7 DA060000 		.4byte	0x6da
 2237 06eb 12       		.uleb128 0x12
 2238 06ec 99020000 		.4byte	0x299
 2239 06f0 FB060000 		.4byte	0x6fb
 2240 06f4 13       		.uleb128 0x13
 2241 06f5 2C000000 		.4byte	0x2c
 2242 06f9 26       		.byte	0x26
 2243 06fa 00       		.byte	0
 2244 06fb 0E       		.uleb128 0xe
 2245 06fc 71010000 		.4byte	.LASF105
 2246 0700 0D       		.byte	0xd
 2247 0701 82       		.byte	0x82
 2248 0702 08       		.byte	0x8
 2249 0703 EB060000 		.4byte	0x6eb
 2250 0707 14       		.uleb128 0x14
 2251 0708 C6000000 		.4byte	.LASF108
 2252 070c 01       		.byte	0x1
 2253 070d 0B02     		.2byte	0x20b
 2254 070f 0D       		.byte	0xd
 2255 0710 13010000 		.4byte	0x113
 2256 0714 00000000 		.4byte	.LFB23
 2257 0718 70000000 		.4byte	.LFE23-.LFB23
 2258 071c 01       		.uleb128 0x1
 2259 071d 9C       		.byte	0x9c
 2260 071e 71070000 		.4byte	0x771
 2261 0722 15       		.uleb128 0x15
 2262 0723 9D010000 		.4byte	.LASF106
 2263 0727 01       		.byte	0x1
 2264 0728 0B02     		.2byte	0x20b
 2265 072a 2D       		.byte	0x2d
 2266 072b 13010000 		.4byte	0x113
 2267 072f 04000000 		.4byte	.LLST38
 2268 0733 00000000 		.4byte	.LVUS38
 2269 0737 15       		.uleb128 0x15
 2270 0738 EA030000 		.4byte	.LASF107
 2271 073c 01       		.byte	0x1
 2272 073d 0B02     		.2byte	0x20b
 2273 073f 3D       		.byte	0x3d
 2274 0740 2B010000 		.4byte	0x12b
 2275 0744 26000000 		.4byte	.LLST39
 2276 0748 22000000 		.4byte	.LVUS39
 2277 074c 16       		.uleb128 0x16
 2278 074d 63747000 		.ascii	"ctp\000"
 2279 0751 01       		.byte	0x1
 2280 0752 0C02     		.2byte	0x20c
ARM GAS  /var/folders/l5/0x54b2c10074c8bt31ycjvl80000gp/T//cc6w9WWc.s 			page 41


 2281 0754 0B       		.byte	0xb
 2282 0755 64020000 		.4byte	0x264
 2283 0759 49000000 		.4byte	.LLST40
 2284 075d 47000000 		.4byte	.LVUS40
 2285 0761 17       		.uleb128 0x17
 2286 0762 40000000 		.4byte	.LVL83
 2287 0766 340D0000 		.4byte	0xd34
 2288 076a 18       		.uleb128 0x18
 2289 076b 01       		.uleb128 0x1
 2290 076c 50       		.byte	0x50
 2291 076d 01       		.uleb128 0x1
 2292 076e 39       		.byte	0x39
 2293 076f 00       		.byte	0
 2294 0770 00       		.byte	0
 2295 0771 14       		.uleb128 0x14
 2296 0772 74000000 		.4byte	.LASF109
 2297 0776 01       		.byte	0x1
 2298 0777 E201     		.2byte	0x1e2
 2299 0779 0D       		.byte	0xd
 2300 077a 13010000 		.4byte	0x113
 2301 077e 00000000 		.4byte	.LFB22
 2302 0782 60000000 		.4byte	.LFE22-.LFB22
 2303 0786 01       		.uleb128 0x1
 2304 0787 9C       		.byte	0x9c
 2305 0788 EE070000 		.4byte	0x7ee
 2306 078c 15       		.uleb128 0x15
 2307 078d 9D010000 		.4byte	.LASF106
 2308 0791 01       		.byte	0x1
 2309 0792 E201     		.2byte	0x1e2
 2310 0794 2D       		.byte	0x2d
 2311 0795 13010000 		.4byte	0x113
 2312 0799 66000000 		.4byte	.LLST34
 2313 079d 5C000000 		.4byte	.LVUS34
 2314 07a1 15       		.uleb128 0x15
 2315 07a2 EA030000 		.4byte	.LASF107
 2316 07a6 01       		.byte	0x1
 2317 07a7 E201     		.2byte	0x1e2
 2318 07a9 3D       		.byte	0x3d
 2319 07aa 2B010000 		.4byte	0x12b
 2320 07ae B3000000 		.4byte	.LLST35
 2321 07b2 AB000000 		.4byte	.LVUS35
 2322 07b6 16       		.uleb128 0x16
 2323 07b7 63747000 		.ascii	"ctp\000"
 2324 07bb 01       		.byte	0x1
 2325 07bc E301     		.2byte	0x1e3
 2326 07be 0B       		.byte	0xb
 2327 07bf 64020000 		.4byte	0x264
 2328 07c3 EF000000 		.4byte	.LLST36
 2329 07c7 ED000000 		.4byte	.LVUS36
 2330 07cb 16       		.uleb128 0x16
 2331 07cc 6D00     		.ascii	"m\000"
 2332 07ce 01       		.byte	0x1
 2333 07cf E401     		.2byte	0x1e4
 2334 07d1 0F       		.byte	0xf
 2335 07d2 13010000 		.4byte	0x113
 2336 07d6 08010000 		.4byte	.LLST37
 2337 07da 02010000 		.4byte	.LVUS37
ARM GAS  /var/folders/l5/0x54b2c10074c8bt31ycjvl80000gp/T//cc6w9WWc.s 			page 42


 2338 07de 17       		.uleb128 0x17
 2339 07df 40000000 		.4byte	.LVL78
 2340 07e3 340D0000 		.4byte	0xd34
 2341 07e7 18       		.uleb128 0x18
 2342 07e8 01       		.uleb128 0x1
 2343 07e9 50       		.byte	0x50
 2344 07ea 01       		.uleb128 0x1
 2345 07eb 38       		.byte	0x38
 2346 07ec 00       		.byte	0
 2347 07ed 00       		.byte	0
 2348 07ee 14       		.uleb128 0x14
 2349 07ef 06060000 		.4byte	.LASF110
 2350 07f3 01       		.byte	0x1
 2351 07f4 B701     		.2byte	0x1b7
 2352 07f6 0D       		.byte	0xd
 2353 07f7 13010000 		.4byte	0x113
 2354 07fb 00000000 		.4byte	.LFB21
 2355 07ff 68000000 		.4byte	.LFE21-.LFB21
 2356 0803 01       		.uleb128 0x1
 2357 0804 9C       		.byte	0x9c
 2358 0805 6B080000 		.4byte	0x86b
 2359 0809 15       		.uleb128 0x15
 2360 080a 9D010000 		.4byte	.LASF106
 2361 080e 01       		.byte	0x1
 2362 080f B701     		.2byte	0x1b7
 2363 0811 2D       		.byte	0x2d
 2364 0812 13010000 		.4byte	0x113
 2365 0816 40010000 		.4byte	.LLST30
 2366 081a 36010000 		.4byte	.LVUS30
 2367 081e 15       		.uleb128 0x15
 2368 081f EA030000 		.4byte	.LASF107
 2369 0823 01       		.byte	0x1
 2370 0824 B701     		.2byte	0x1b7
 2371 0826 3D       		.byte	0x3d
 2372 0827 2B010000 		.4byte	0x12b
 2373 082b 8D010000 		.4byte	.LLST31
 2374 082f 85010000 		.4byte	.LVUS31
 2375 0833 16       		.uleb128 0x16
 2376 0834 63747000 		.ascii	"ctp\000"
 2377 0838 01       		.byte	0x1
 2378 0839 B801     		.2byte	0x1b8
 2379 083b 0B       		.byte	0xb
 2380 083c 64020000 		.4byte	0x264
 2381 0840 C9010000 		.4byte	.LLST32
 2382 0844 C7010000 		.4byte	.LVUS32
 2383 0848 16       		.uleb128 0x16
 2384 0849 6D00     		.ascii	"m\000"
 2385 084b 01       		.byte	0x1
 2386 084c B901     		.2byte	0x1b9
 2387 084e 0F       		.byte	0xf
 2388 084f 13010000 		.4byte	0x113
 2389 0853 E2010000 		.4byte	.LLST33
 2390 0857 DC010000 		.4byte	.LVUS33
 2391 085b 17       		.uleb128 0x17
 2392 085c 40000000 		.4byte	.LVL68
 2393 0860 340D0000 		.4byte	0xd34
 2394 0864 18       		.uleb128 0x18
ARM GAS  /var/folders/l5/0x54b2c10074c8bt31ycjvl80000gp/T//cc6w9WWc.s 			page 43


 2395 0865 01       		.uleb128 0x1
 2396 0866 50       		.byte	0x50
 2397 0867 01       		.uleb128 0x1
 2398 0868 38       		.byte	0x38
 2399 0869 00       		.byte	0
 2400 086a 00       		.byte	0
 2401 086b 14       		.uleb128 0x14
 2402 086c EF030000 		.4byte	.LASF111
 2403 0870 01       		.byte	0x1
 2404 0871 9001     		.2byte	0x190
 2405 0873 0D       		.byte	0xd
 2406 0874 13010000 		.4byte	0x113
 2407 0878 00000000 		.4byte	.LFB20
 2408 087c 48000000 		.4byte	.LFE20-.LFB20
 2409 0880 01       		.uleb128 0x1
 2410 0881 9C       		.byte	0x9c
 2411 0882 C0080000 		.4byte	0x8c0
 2412 0886 15       		.uleb128 0x15
 2413 0887 9D010000 		.4byte	.LASF106
 2414 088b 01       		.byte	0x1
 2415 088c 9001     		.2byte	0x190
 2416 088e 26       		.byte	0x26
 2417 088f 13010000 		.4byte	0x113
 2418 0893 14020000 		.4byte	.LLST28
 2419 0897 10020000 		.4byte	.LVUS28
 2420 089b 16       		.uleb128 0x16
 2421 089c 63747000 		.ascii	"ctp\000"
 2422 08a0 01       		.byte	0x1
 2423 08a1 9101     		.2byte	0x191
 2424 08a3 0B       		.byte	0xb
 2425 08a4 64020000 		.4byte	0x264
 2426 08a8 34020000 		.4byte	.LLST29
 2427 08ac 32020000 		.4byte	.LVUS29
 2428 08b0 17       		.uleb128 0x17
 2429 08b1 2C000000 		.4byte	.LVL60
 2430 08b5 400D0000 		.4byte	0xd40
 2431 08b9 18       		.uleb128 0x18
 2432 08ba 01       		.uleb128 0x1
 2433 08bb 50       		.byte	0x50
 2434 08bc 01       		.uleb128 0x1
 2435 08bd 39       		.byte	0x39
 2436 08be 00       		.byte	0
 2437 08bf 00       		.byte	0
 2438 08c0 14       		.uleb128 0x14
 2439 08c1 1F010000 		.4byte	.LASF112
 2440 08c5 01       		.byte	0x1
 2441 08c6 7401     		.2byte	0x174
 2442 08c8 0D       		.byte	0xd
 2443 08c9 13010000 		.4byte	0x113
 2444 08cd 00000000 		.4byte	.LFB19
 2445 08d1 50000000 		.4byte	.LFE19-.LFB19
 2446 08d5 01       		.uleb128 0x1
 2447 08d6 9C       		.byte	0x9c
 2448 08d7 28090000 		.4byte	0x928
 2449 08db 15       		.uleb128 0x15
 2450 08dc 9D010000 		.4byte	.LASF106
 2451 08e0 01       		.byte	0x1
ARM GAS  /var/folders/l5/0x54b2c10074c8bt31ycjvl80000gp/T//cc6w9WWc.s 			page 44


 2452 08e1 7401     		.2byte	0x174
 2453 08e3 26       		.byte	0x26
 2454 08e4 13010000 		.4byte	0x113
 2455 08e8 51020000 		.4byte	.LLST25
 2456 08ec 47020000 		.4byte	.LVUS25
 2457 08f0 16       		.uleb128 0x16
 2458 08f1 63747000 		.ascii	"ctp\000"
 2459 08f5 01       		.byte	0x1
 2460 08f6 7501     		.2byte	0x175
 2461 08f8 0B       		.byte	0xb
 2462 08f9 64020000 		.4byte	0x264
 2463 08fd 98020000 		.4byte	.LLST26
 2464 0901 96020000 		.4byte	.LVUS26
 2465 0905 16       		.uleb128 0x16
 2466 0906 6D00     		.ascii	"m\000"
 2467 0908 01       		.byte	0x1
 2468 0909 7601     		.2byte	0x176
 2469 090b 0F       		.byte	0xf
 2470 090c 13010000 		.4byte	0x113
 2471 0910 B5020000 		.4byte	.LLST27
 2472 0914 AB020000 		.4byte	.LVUS27
 2473 0918 17       		.uleb128 0x17
 2474 0919 40000000 		.4byte	.LVL55
 2475 091d 400D0000 		.4byte	0xd40
 2476 0921 18       		.uleb128 0x18
 2477 0922 01       		.uleb128 0x1
 2478 0923 50       		.byte	0x50
 2479 0924 01       		.uleb128 0x1
 2480 0925 38       		.byte	0x38
 2481 0926 00       		.byte	0
 2482 0927 00       		.byte	0
 2483 0928 14       		.uleb128 0x14
 2484 0929 57040000 		.4byte	.LASF113
 2485 092d 01       		.byte	0x1
 2486 092e 5701     		.2byte	0x157
 2487 0930 0D       		.byte	0xd
 2488 0931 13010000 		.4byte	0x113
 2489 0935 00000000 		.4byte	.LFB18
 2490 0939 54000000 		.4byte	.LFE18-.LFB18
 2491 093d 01       		.uleb128 0x1
 2492 093e 9C       		.byte	0x9c
 2493 093f 90090000 		.4byte	0x990
 2494 0943 15       		.uleb128 0x15
 2495 0944 9D010000 		.4byte	.LASF106
 2496 0948 01       		.byte	0x1
 2497 0949 5701     		.2byte	0x157
 2498 094b 26       		.byte	0x26
 2499 094c 13010000 		.4byte	0x113
 2500 0950 0D030000 		.4byte	.LLST22
 2501 0954 03030000 		.4byte	.LVUS22
 2502 0958 16       		.uleb128 0x16
 2503 0959 63747000 		.ascii	"ctp\000"
 2504 095d 01       		.byte	0x1
 2505 095e 5801     		.2byte	0x158
 2506 0960 0B       		.byte	0xb
 2507 0961 64020000 		.4byte	0x264
 2508 0965 54030000 		.4byte	.LLST23
ARM GAS  /var/folders/l5/0x54b2c10074c8bt31ycjvl80000gp/T//cc6w9WWc.s 			page 45


 2509 0969 52030000 		.4byte	.LVUS23
 2510 096d 16       		.uleb128 0x16
 2511 096e 6D00     		.ascii	"m\000"
 2512 0970 01       		.byte	0x1
 2513 0971 5901     		.2byte	0x159
 2514 0973 0F       		.byte	0xf
 2515 0974 13010000 		.4byte	0x113
 2516 0978 75030000 		.4byte	.LLST24
 2517 097c 67030000 		.4byte	.LVUS24
 2518 0980 17       		.uleb128 0x17
 2519 0981 44000000 		.4byte	.LVL45
 2520 0985 400D0000 		.4byte	0xd40
 2521 0989 18       		.uleb128 0x18
 2522 098a 01       		.uleb128 0x1
 2523 098b 50       		.byte	0x50
 2524 098c 01       		.uleb128 0x1
 2525 098d 38       		.byte	0x38
 2526 098e 00       		.byte	0
 2527 098f 00       		.byte	0
 2528 0990 19       		.uleb128 0x19
 2529 0991 A1030000 		.4byte	.LASF117
 2530 0995 01       		.byte	0x1
 2531 0996 3401     		.2byte	0x134
 2532 0998 06       		.byte	0x6
 2533 0999 00000000 		.4byte	.LFB17
 2534 099d 54000000 		.4byte	.LFE17-.LFB17
 2535 09a1 01       		.uleb128 0x1
 2536 09a2 9C       		.byte	0x9c
 2537 09a3 F3090000 		.4byte	0x9f3
 2538 09a7 15       		.uleb128 0x15
 2539 09a8 16040000 		.4byte	.LASF114
 2540 09ac 01       		.byte	0x1
 2541 09ad 3401     		.2byte	0x134
 2542 09af 27       		.byte	0x27
 2543 09b0 F3090000 		.4byte	0x9f3
 2544 09b4 DD030000 		.4byte	.LLST19
 2545 09b8 D9030000 		.4byte	.LVUS19
 2546 09bc 15       		.uleb128 0x15
 2547 09bd 9D010000 		.4byte	.LASF106
 2548 09c1 01       		.byte	0x1
 2549 09c2 3401     		.2byte	0x134
 2550 09c4 3D       		.byte	0x3d
 2551 09c5 13010000 		.4byte	0x113
 2552 09c9 FF030000 		.4byte	.LLST20
 2553 09cd FB030000 		.4byte	.LVUS20
 2554 09d1 16       		.uleb128 0x16
 2555 09d2 65696400 		.ascii	"eid\000"
 2556 09d6 01       		.byte	0x1
 2557 09d7 3501     		.2byte	0x135
 2558 09d9 0D       		.byte	0xd
 2559 09da 07010000 		.4byte	0x107
 2560 09de 21040000 		.4byte	.LLST21
 2561 09e2 1D040000 		.4byte	.LVUS21
 2562 09e6 1A       		.uleb128 0x1a
 2563 09e7 34000000 		.4byte	.LVL33
 2564 09eb 18       		.uleb128 0x18
 2565 09ec 01       		.uleb128 0x1
ARM GAS  /var/folders/l5/0x54b2c10074c8bt31ycjvl80000gp/T//cc6w9WWc.s 			page 46


 2566 09ed 50       		.byte	0x50
 2567 09ee 02       		.uleb128 0x2
 2568 09ef 74       		.byte	0x74
 2569 09f0 00       		.sleb128 0
 2570 09f1 00       		.byte	0
 2571 09f2 00       		.byte	0
 2572 09f3 0A       		.uleb128 0xa
 2573 09f4 04       		.byte	0x4
 2574 09f5 62050000 		.4byte	0x562
 2575 09f9 14       		.uleb128 0x14
 2576 09fa A8040000 		.4byte	.LASF115
 2577 09fe 01       		.byte	0x1
 2578 09ff 2201     		.2byte	0x122
 2579 0a01 0D       		.byte	0xd
 2580 0a02 1F010000 		.4byte	0x11f
 2581 0a06 00000000 		.4byte	.LFB16
 2582 0a0a 14000000 		.4byte	.LFE16-.LFB16
 2583 0a0e 01       		.uleb128 0x1
 2584 0a0f 9C       		.byte	0x9c
 2585 0a10 3F0A0000 		.4byte	0xa3f
 2586 0a14 1B       		.uleb128 0x1b
 2587 0a15 656C7000 		.ascii	"elp\000"
 2588 0a19 01       		.byte	0x1
 2589 0a1a 2201     		.2byte	0x122
 2590 0a1c 33       		.byte	0x33
 2591 0a1d 29050000 		.4byte	0x529
 2592 0a21 44040000 		.4byte	.LLST17
 2593 0a25 40040000 		.4byte	.LVUS17
 2594 0a29 1C       		.uleb128 0x1c
 2595 0a2a D3050000 		.4byte	.LASF116
 2596 0a2e 01       		.byte	0x1
 2597 0a2f 2301     		.2byte	0x123
 2598 0a31 0F       		.byte	0xf
 2599 0a32 1F010000 		.4byte	0x11f
 2600 0a36 64040000 		.4byte	.LLST18
 2601 0a3a 62040000 		.4byte	.LVUS18
 2602 0a3e 00       		.byte	0
 2603 0a3f 19       		.uleb128 0x19
 2604 0a40 B3010000 		.4byte	.LASF118
 2605 0a44 01       		.byte	0x1
 2606 0a45 0F01     		.2byte	0x10f
 2607 0a47 06       		.byte	0x6
 2608 0a48 00000000 		.4byte	.LFB15
 2609 0a4c 18000000 		.4byte	.LFE15-.LFB15
 2610 0a50 01       		.uleb128 0x1
 2611 0a51 9C       		.byte	0x9c
 2612 0a52 A60A0000 		.4byte	0xaa6
 2613 0a56 1B       		.uleb128 0x1b
 2614 0a57 65737000 		.ascii	"esp\000"
 2615 0a5b 01       		.byte	0x1
 2616 0a5c 0F01     		.2byte	0x10f
 2617 0a5e 27       		.byte	0x27
 2618 0a5f A60A0000 		.4byte	0xaa6
 2619 0a63 7B040000 		.4byte	.LLST15
 2620 0a67 77040000 		.4byte	.LVUS15
 2621 0a6b 15       		.uleb128 0x15
 2622 0a6c D3050000 		.4byte	.LASF116
ARM GAS  /var/folders/l5/0x54b2c10074c8bt31ycjvl80000gp/T//cc6w9WWc.s 			page 47


 2623 0a70 01       		.byte	0x1
 2624 0a71 0F01     		.2byte	0x10f
 2625 0a73 38       		.byte	0x38
 2626 0a74 1F010000 		.4byte	0x11f
 2627 0a78 A0040000 		.4byte	.LLST16
 2628 0a7c 9C040000 		.4byte	.LVUS16
 2629 0a80 1D       		.uleb128 0x1d
 2630 0a81 0C000000 		.4byte	.LVL26
 2631 0a85 770B0000 		.4byte	0xb77
 2632 0a89 9C0A0000 		.4byte	0xa9c
 2633 0a8d 18       		.uleb128 0x18
 2634 0a8e 01       		.uleb128 0x1
 2635 0a8f 50       		.byte	0x50
 2636 0a90 03       		.uleb128 0x3
 2637 0a91 F3       		.byte	0xf3
 2638 0a92 01       		.uleb128 0x1
 2639 0a93 50       		.byte	0x50
 2640 0a94 18       		.uleb128 0x18
 2641 0a95 01       		.uleb128 0x1
 2642 0a96 51       		.byte	0x51
 2643 0a97 03       		.uleb128 0x3
 2644 0a98 F3       		.byte	0xf3
 2645 0a99 01       		.uleb128 0x1
 2646 0a9a 51       		.byte	0x51
 2647 0a9b 00       		.byte	0
 2648 0a9c 1E       		.uleb128 0x1e
 2649 0a9d 10000000 		.4byte	.LVL27
 2650 0aa1 4C0D0000 		.4byte	0xd4c
 2651 0aa5 00       		.byte	0
 2652 0aa6 0A       		.uleb128 0xa
 2653 0aa7 04       		.byte	0x4
 2654 0aa8 4A050000 		.4byte	0x54a
 2655 0aac 1F       		.uleb128 0x1f
 2656 0aad C3060000 		.4byte	.LASF133
 2657 0ab1 01       		.byte	0x1
 2658 0ab2 F4       		.byte	0xf4
 2659 0ab3 06       		.byte	0x6
 2660 0ab4 01       		.byte	0x1
 2661 0ab5 D10A0000 		.4byte	0xad1
 2662 0ab9 20       		.uleb128 0x20
 2663 0aba 747000   		.ascii	"tp\000"
 2664 0abd 01       		.byte	0x1
 2665 0abe F4       		.byte	0xf4
 2666 0abf 1B       		.byte	0x1b
 2667 0ac0 64020000 		.4byte	0x264
 2668 0ac4 21       		.uleb128 0x21
 2669 0ac5 9D010000 		.4byte	.LASF106
 2670 0ac9 01       		.byte	0x1
 2671 0aca F4       		.byte	0xf4
 2672 0acb 2B       		.byte	0x2b
 2673 0acc 13010000 		.4byte	0x113
 2674 0ad0 00       		.byte	0
 2675 0ad1 22       		.uleb128 0x22
 2676 0ad2 2B000000 		.4byte	.LASF119
 2677 0ad6 01       		.byte	0x1
 2678 0ad7 DE       		.byte	0xde
 2679 0ad8 06       		.byte	0x6
ARM GAS  /var/folders/l5/0x54b2c10074c8bt31ycjvl80000gp/T//cc6w9WWc.s 			page 48


 2680 0ad9 00000000 		.4byte	.LFB13
 2681 0add 18000000 		.4byte	.LFE13-.LFB13
 2682 0ae1 01       		.uleb128 0x1
 2683 0ae2 9C       		.byte	0x9c
 2684 0ae3 340B0000 		.4byte	0xb34
 2685 0ae7 23       		.uleb128 0x23
 2686 0ae8 747000   		.ascii	"tp\000"
 2687 0aeb 01       		.byte	0x1
 2688 0aec DE       		.byte	0xde
 2689 0aed 1A       		.byte	0x1a
 2690 0aee 64020000 		.4byte	0x264
 2691 0af2 C5040000 		.4byte	.LLST13
 2692 0af6 C1040000 		.4byte	.LVUS13
 2693 0afa 24       		.uleb128 0x24
 2694 0afb 9D010000 		.4byte	.LASF106
 2695 0aff 01       		.byte	0x1
 2696 0b00 DE       		.byte	0xde
 2697 0b01 2A       		.byte	0x2a
 2698 0b02 13010000 		.4byte	0x113
 2699 0b06 EA040000 		.4byte	.LLST14
 2700 0b0a E6040000 		.4byte	.LVUS14
 2701 0b0e 1D       		.uleb128 0x1d
 2702 0b0f 0C000000 		.4byte	.LVL23
 2703 0b13 AC0A0000 		.4byte	0xaac
 2704 0b17 2A0B0000 		.4byte	0xb2a
 2705 0b1b 18       		.uleb128 0x18
 2706 0b1c 01       		.uleb128 0x1
 2707 0b1d 50       		.byte	0x50
 2708 0b1e 03       		.uleb128 0x3
 2709 0b1f F3       		.byte	0xf3
 2710 0b20 01       		.uleb128 0x1
 2711 0b21 50       		.byte	0x50
 2712 0b22 18       		.uleb128 0x18
 2713 0b23 01       		.uleb128 0x1
 2714 0b24 51       		.byte	0x51
 2715 0b25 03       		.uleb128 0x3
 2716 0b26 F3       		.byte	0xf3
 2717 0b27 01       		.uleb128 0x1
 2718 0b28 51       		.byte	0x51
 2719 0b29 00       		.byte	0
 2720 0b2a 1E       		.uleb128 0x1e
 2721 0b2b 10000000 		.4byte	.LVL24
 2722 0b2f 4C0D0000 		.4byte	0xd4c
 2723 0b33 00       		.byte	0
 2724 0b34 25       		.uleb128 0x25
 2725 0b35 3B060000 		.4byte	.LASF120
 2726 0b39 01       		.byte	0x1
 2727 0b3a CA       		.byte	0xca
 2728 0b3b 0D       		.byte	0xd
 2729 0b3c 1F010000 		.4byte	0x11f
 2730 0b40 00000000 		.4byte	.LFB12
 2731 0b44 1C000000 		.4byte	.LFE12-.LFB12
 2732 0b48 01       		.uleb128 0x1
 2733 0b49 9C       		.byte	0x9c
 2734 0b4a 770B0000 		.4byte	0xb77
 2735 0b4e 23       		.uleb128 0x23
 2736 0b4f 656C7000 		.ascii	"elp\000"
ARM GAS  /var/folders/l5/0x54b2c10074c8bt31ycjvl80000gp/T//cc6w9WWc.s 			page 49


 2737 0b53 01       		.byte	0x1
 2738 0b54 CA       		.byte	0xca
 2739 0b55 32       		.byte	0x32
 2740 0b56 29050000 		.4byte	0x529
 2741 0b5a 0F050000 		.4byte	.LLST4
 2742 0b5e 0B050000 		.4byte	.LVUS4
 2743 0b62 26       		.uleb128 0x26
 2744 0b63 D3050000 		.4byte	.LASF116
 2745 0b67 01       		.byte	0x1
 2746 0b68 CB       		.byte	0xcb
 2747 0b69 0F       		.byte	0xf
 2748 0b6a 1F010000 		.4byte	0x11f
 2749 0b6e 2F050000 		.4byte	.LLST5
 2750 0b72 2D050000 		.4byte	.LVUS5
 2751 0b76 00       		.byte	0
 2752 0b77 22       		.uleb128 0x22
 2753 0b78 54010000 		.4byte	.LASF121
 2754 0b7c 01       		.byte	0x1
 2755 0b7d B1       		.byte	0xb1
 2756 0b7e 06       		.byte	0x6
 2757 0b7f 00000000 		.4byte	.LFB11
 2758 0b83 40000000 		.4byte	.LFE11-.LFB11
 2759 0b87 01       		.uleb128 0x1
 2760 0b88 9C       		.byte	0x9c
 2761 0b89 D30B0000 		.4byte	0xbd3
 2762 0b8d 23       		.uleb128 0x23
 2763 0b8e 65737000 		.ascii	"esp\000"
 2764 0b92 01       		.byte	0x1
 2765 0b93 B1       		.byte	0xb1
 2766 0b94 28       		.byte	0x28
 2767 0b95 A60A0000 		.4byte	0xaa6
 2768 0b99 46050000 		.4byte	.LLST10
 2769 0b9d 42050000 		.4byte	.LVUS10
 2770 0ba1 24       		.uleb128 0x24
 2771 0ba2 D3050000 		.4byte	.LASF116
 2772 0ba6 01       		.byte	0x1
 2773 0ba7 B1       		.byte	0xb1
 2774 0ba8 39       		.byte	0x39
 2775 0ba9 1F010000 		.4byte	0x11f
 2776 0bad 68050000 		.4byte	.LLST11
 2777 0bb1 64050000 		.4byte	.LVUS11
 2778 0bb5 27       		.uleb128 0x27
 2779 0bb6 656C7000 		.ascii	"elp\000"
 2780 0bba 01       		.byte	0x1
 2781 0bbb B2       		.byte	0xb2
 2782 0bbc 12       		.byte	0x12
 2783 0bbd 29050000 		.4byte	0x529
 2784 0bc1 88050000 		.4byte	.LLST12
 2785 0bc5 86050000 		.4byte	.LVUS12
 2786 0bc9 1E       		.uleb128 0x1e
 2787 0bca 30000000 		.4byte	.LVL20
 2788 0bce AC0A0000 		.4byte	0xaac
 2789 0bd2 00       		.byte	0
 2790 0bd3 25       		.uleb128 0x25
 2791 0bd4 4E000000 		.4byte	.LASF122
 2792 0bd8 01       		.byte	0x1
 2793 0bd9 96       		.byte	0x96
ARM GAS  /var/folders/l5/0x54b2c10074c8bt31ycjvl80000gp/T//cc6w9WWc.s 			page 50


 2794 0bda 0D       		.byte	0xd
 2795 0bdb 13010000 		.4byte	0x113
 2796 0bdf 00000000 		.4byte	.LFB10
 2797 0be3 24000000 		.4byte	.LFE10-.LFB10
 2798 0be7 01       		.uleb128 0x1
 2799 0be8 9C       		.byte	0x9c
 2800 0be9 020C0000 		.4byte	0xc02
 2801 0bed 24       		.uleb128 0x24
 2802 0bee 9D010000 		.4byte	.LASF106
 2803 0bf2 01       		.byte	0x1
 2804 0bf3 96       		.byte	0x96
 2805 0bf4 28       		.byte	0x28
 2806 0bf5 13010000 		.4byte	0x113
 2807 0bf9 A1050000 		.4byte	.LLST3
 2808 0bfd 9B050000 		.4byte	.LVUS3
 2809 0c01 00       		.byte	0
 2810 0c02 25       		.uleb128 0x25
 2811 0c03 10020000 		.4byte	.LASF123
 2812 0c07 01       		.byte	0x1
 2813 0c08 81       		.byte	0x81
 2814 0c09 0D       		.byte	0xd
 2815 0c0a 13010000 		.4byte	0x113
 2816 0c0e 00000000 		.4byte	.LFB9
 2817 0c12 28000000 		.4byte	.LFE9-.LFB9
 2818 0c16 01       		.uleb128 0x1
 2819 0c17 9C       		.byte	0x9c
 2820 0c18 430C0000 		.4byte	0xc43
 2821 0c1c 24       		.uleb128 0x24
 2822 0c1d 9D010000 		.4byte	.LASF106
 2823 0c21 01       		.byte	0x1
 2824 0c22 81       		.byte	0x81
 2825 0c23 30       		.byte	0x30
 2826 0c24 13010000 		.4byte	0x113
 2827 0c28 D1050000 		.4byte	.LLST1
 2828 0c2c CD050000 		.4byte	.LVUS1
 2829 0c30 27       		.uleb128 0x27
 2830 0c31 6D00     		.ascii	"m\000"
 2831 0c33 01       		.byte	0x1
 2832 0c34 82       		.byte	0x82
 2833 0c35 0F       		.byte	0xf
 2834 0c36 13010000 		.4byte	0x113
 2835 0c3a F6050000 		.4byte	.LLST2
 2836 0c3e F2050000 		.4byte	.LVUS2
 2837 0c42 00       		.byte	0
 2838 0c43 22       		.uleb128 0x22
 2839 0c44 FD000000 		.4byte	.LASF124
 2840 0c48 01       		.byte	0x1
 2841 0c49 68       		.byte	0x68
 2842 0c4a 06       		.byte	0x6
 2843 0c4b 00000000 		.4byte	.LFB8
 2844 0c4f 3C000000 		.4byte	.LFE8-.LFB8
 2845 0c53 01       		.uleb128 0x1
 2846 0c54 9C       		.byte	0x9c
 2847 0c55 880C0000 		.4byte	0xc88
 2848 0c59 28       		.uleb128 0x28
 2849 0c5a 65737000 		.ascii	"esp\000"
 2850 0c5e 01       		.byte	0x1
ARM GAS  /var/folders/l5/0x54b2c10074c8bt31ycjvl80000gp/T//cc6w9WWc.s 			page 51


 2851 0c5f 68       		.byte	0x68
 2852 0c60 23       		.byte	0x23
 2853 0c61 A60A0000 		.4byte	0xaa6
 2854 0c65 01       		.uleb128 0x1
 2855 0c66 50       		.byte	0x50
 2856 0c67 28       		.uleb128 0x28
 2857 0c68 656C7000 		.ascii	"elp\000"
 2858 0c6c 01       		.byte	0x1
 2859 0c6d 68       		.byte	0x68
 2860 0c6e 37       		.byte	0x37
 2861 0c6f 29050000 		.4byte	0x529
 2862 0c73 01       		.uleb128 0x1
 2863 0c74 51       		.byte	0x51
 2864 0c75 27       		.uleb128 0x27
 2865 0c76 7000     		.ascii	"p\000"
 2866 0c78 01       		.byte	0x1
 2867 0c79 69       		.byte	0x69
 2868 0c7a 12       		.byte	0x12
 2869 0c7b 29050000 		.4byte	0x529
 2870 0c7f 1F060000 		.4byte	.LLST0
 2871 0c83 19060000 		.4byte	.LVUS0
 2872 0c87 00       		.byte	0
 2873 0c88 22       		.uleb128 0x22
 2874 0c89 54020000 		.4byte	.LASF125
 2875 0c8d 01       		.byte	0x1
 2876 0c8e 4E       		.byte	0x4e
 2877 0c8f 06       		.byte	0x6
 2878 0c90 00000000 		.4byte	.LFB7
 2879 0c94 34000000 		.4byte	.LFE7-.LFB7
 2880 0c98 01       		.uleb128 0x1
 2881 0c99 9C       		.byte	0x9c
 2882 0c9a C90C0000 		.4byte	0xcc9
 2883 0c9e 28       		.uleb128 0x28
 2884 0c9f 65737000 		.ascii	"esp\000"
 2885 0ca3 01       		.byte	0x1
 2886 0ca4 4E       		.byte	0x4e
 2887 0ca5 25       		.byte	0x25
 2888 0ca6 A60A0000 		.4byte	0xaa6
 2889 0caa 01       		.uleb128 0x1
 2890 0cab 50       		.byte	0x50
 2891 0cac 28       		.uleb128 0x28
 2892 0cad 656C7000 		.ascii	"elp\000"
 2893 0cb1 01       		.byte	0x1
 2894 0cb2 4E       		.byte	0x4e
 2895 0cb3 39       		.byte	0x39
 2896 0cb4 29050000 		.4byte	0x529
 2897 0cb8 01       		.uleb128 0x1
 2898 0cb9 51       		.byte	0x51
 2899 0cba 29       		.uleb128 0x29
 2900 0cbb 9D010000 		.4byte	.LASF106
 2901 0cbf 01       		.byte	0x1
 2902 0cc0 4E       		.byte	0x4e
 2903 0cc1 4A       		.byte	0x4a
 2904 0cc2 13010000 		.4byte	0x113
 2905 0cc6 01       		.uleb128 0x1
 2906 0cc7 52       		.byte	0x52
 2907 0cc8 00       		.byte	0
ARM GAS  /var/folders/l5/0x54b2c10074c8bt31ycjvl80000gp/T//cc6w9WWc.s 			page 52


 2908 0cc9 2A       		.uleb128 0x2a
 2909 0cca AC0A0000 		.4byte	0xaac
 2910 0cce 00000000 		.4byte	.LFB14
 2911 0cd2 50000000 		.4byte	.LFE14-.LFB14
 2912 0cd6 01       		.uleb128 0x1
 2913 0cd7 9C       		.byte	0x9c
 2914 0cd8 340D0000 		.4byte	0xd34
 2915 0cdc 2B       		.uleb128 0x2b
 2916 0cdd B90A0000 		.4byte	0xab9
 2917 0ce1 4E060000 		.4byte	.LLST6
 2918 0ce5 48060000 		.4byte	.LVUS6
 2919 0ce9 2B       		.uleb128 0x2b
 2920 0cea C40A0000 		.4byte	0xac4
 2921 0cee 7E060000 		.4byte	.LLST7
 2922 0cf2 7A060000 		.4byte	.LVUS7
 2923 0cf6 2C       		.uleb128 0x2c
 2924 0cf7 AC0A0000 		.4byte	0xaac
 2925 0cfb 2C000000 		.4byte	.LBI4
 2926 0cff 00       		.byte	.LVU113
 2927 0d00 00000000 		.4byte	.Ldebug_ranges0+0
 2928 0d04 01       		.byte	0x1
 2929 0d05 F4       		.byte	0xf4
 2930 0d06 06       		.byte	0x6
 2931 0d07 2B       		.uleb128 0x2b
 2932 0d08 C40A0000 		.4byte	0xac4
 2933 0d0c A1060000 		.4byte	.LLST8
 2934 0d10 9F060000 		.4byte	.LVUS8
 2935 0d14 2B       		.uleb128 0x2b
 2936 0d15 B90A0000 		.4byte	0xab9
 2937 0d19 BB060000 		.4byte	.LLST9
 2938 0d1d B7060000 		.4byte	.LVUS9
 2939 0d21 17       		.uleb128 0x17
 2940 0d22 34000000 		.4byte	.LVL15
 2941 0d26 580D0000 		.4byte	0xd58
 2942 0d2a 18       		.uleb128 0x18
 2943 0d2b 01       		.uleb128 0x1
 2944 0d2c 50       		.byte	0x50
 2945 0d2d 03       		.uleb128 0x3
 2946 0d2e F3       		.byte	0xf3
 2947 0d2f 01       		.uleb128 0x1
 2948 0d30 50       		.byte	0x50
 2949 0d31 00       		.byte	0
 2950 0d32 00       		.byte	0
 2951 0d33 00       		.byte	0
 2952 0d34 2D       		.uleb128 0x2d
 2953 0d35 2C010000 		.4byte	.LASF126
 2954 0d39 2C010000 		.4byte	.LASF126
 2955 0d3d 09       		.byte	0x9
 2956 0d3e 8F       		.byte	0x8f
 2957 0d3f 09       		.byte	0x9
 2958 0d40 2D       		.uleb128 0x2d
 2959 0d41 F8040000 		.4byte	.LASF127
 2960 0d45 F8040000 		.4byte	.LASF127
 2961 0d49 09       		.byte	0x9
 2962 0d4a 8C       		.byte	0x8c
 2963 0d4b 08       		.byte	0x8
 2964 0d4c 2D       		.uleb128 0x2d
ARM GAS  /var/folders/l5/0x54b2c10074c8bt31ycjvl80000gp/T//cc6w9WWc.s 			page 53


 2965 0d4d 81010000 		.4byte	.LASF128
 2966 0d51 81010000 		.4byte	.LASF128
 2967 0d55 09       		.byte	0x9
 2968 0d56 95       		.byte	0x95
 2969 0d57 08       		.byte	0x8
 2970 0d58 2D       		.uleb128 0x2d
 2971 0d59 4B050000 		.4byte	.LASF129
 2972 0d5d 4B050000 		.4byte	.LASF129
 2973 0d61 09       		.byte	0x9
 2974 0d62 89       		.byte	0x89
 2975 0d63 0B       		.byte	0xb
 2976 0d64 00       		.byte	0
 2977              		.section	.debug_abbrev,"",%progbits
 2978              	.Ldebug_abbrev0:
 2979 0000 01       		.uleb128 0x1
 2980 0001 11       		.uleb128 0x11
 2981 0002 01       		.byte	0x1
 2982 0003 25       		.uleb128 0x25
 2983 0004 0E       		.uleb128 0xe
 2984 0005 13       		.uleb128 0x13
 2985 0006 0B       		.uleb128 0xb
 2986 0007 03       		.uleb128 0x3
 2987 0008 0E       		.uleb128 0xe
 2988 0009 1B       		.uleb128 0x1b
 2989 000a 0E       		.uleb128 0xe
 2990 000b 55       		.uleb128 0x55
 2991 000c 17       		.uleb128 0x17
 2992 000d 11       		.uleb128 0x11
 2993 000e 01       		.uleb128 0x1
 2994 000f 10       		.uleb128 0x10
 2995 0010 17       		.uleb128 0x17
 2996 0011 00       		.byte	0
 2997 0012 00       		.byte	0
 2998 0013 02       		.uleb128 0x2
 2999 0014 24       		.uleb128 0x24
 3000 0015 00       		.byte	0
 3001 0016 0B       		.uleb128 0xb
 3002 0017 0B       		.uleb128 0xb
 3003 0018 3E       		.uleb128 0x3e
 3004 0019 0B       		.uleb128 0xb
 3005 001a 03       		.uleb128 0x3
 3006 001b 08       		.uleb128 0x8
 3007 001c 00       		.byte	0
 3008 001d 00       		.byte	0
 3009 001e 03       		.uleb128 0x3
 3010 001f 24       		.uleb128 0x24
 3011 0020 00       		.byte	0
 3012 0021 0B       		.uleb128 0xb
 3013 0022 0B       		.uleb128 0xb
 3014 0023 3E       		.uleb128 0x3e
 3015 0024 0B       		.uleb128 0xb
 3016 0025 03       		.uleb128 0x3
 3017 0026 0E       		.uleb128 0xe
 3018 0027 00       		.byte	0
 3019 0028 00       		.byte	0
 3020 0029 04       		.uleb128 0x4
 3021 002a 16       		.uleb128 0x16
ARM GAS  /var/folders/l5/0x54b2c10074c8bt31ycjvl80000gp/T//cc6w9WWc.s 			page 54


 3022 002b 00       		.byte	0
 3023 002c 03       		.uleb128 0x3
 3024 002d 0E       		.uleb128 0xe
 3025 002e 3A       		.uleb128 0x3a
 3026 002f 0B       		.uleb128 0xb
 3027 0030 3B       		.uleb128 0x3b
 3028 0031 0B       		.uleb128 0xb
 3029 0032 39       		.uleb128 0x39
 3030 0033 0B       		.uleb128 0xb
 3031 0034 49       		.uleb128 0x49
 3032 0035 13       		.uleb128 0x13
 3033 0036 00       		.byte	0
 3034 0037 00       		.byte	0
 3035 0038 05       		.uleb128 0x5
 3036 0039 35       		.uleb128 0x35
 3037 003a 00       		.byte	0
 3038 003b 49       		.uleb128 0x49
 3039 003c 13       		.uleb128 0x13
 3040 003d 00       		.byte	0
 3041 003e 00       		.byte	0
 3042 003f 06       		.uleb128 0x6
 3043 0040 13       		.uleb128 0x13
 3044 0041 01       		.byte	0x1
 3045 0042 03       		.uleb128 0x3
 3046 0043 0E       		.uleb128 0xe
 3047 0044 0B       		.uleb128 0xb
 3048 0045 0B       		.uleb128 0xb
 3049 0046 3A       		.uleb128 0x3a
 3050 0047 0B       		.uleb128 0xb
 3051 0048 3B       		.uleb128 0x3b
 3052 0049 0B       		.uleb128 0xb
 3053 004a 39       		.uleb128 0x39
 3054 004b 0B       		.uleb128 0xb
 3055 004c 01       		.uleb128 0x1
 3056 004d 13       		.uleb128 0x13
 3057 004e 00       		.byte	0
 3058 004f 00       		.byte	0
 3059 0050 07       		.uleb128 0x7
 3060 0051 0D       		.uleb128 0xd
 3061 0052 00       		.byte	0
 3062 0053 03       		.uleb128 0x3
 3063 0054 0E       		.uleb128 0xe
 3064 0055 3A       		.uleb128 0x3a
 3065 0056 0B       		.uleb128 0xb
 3066 0057 3B       		.uleb128 0x3b
 3067 0058 0B       		.uleb128 0xb
 3068 0059 39       		.uleb128 0x39
 3069 005a 0B       		.uleb128 0xb
 3070 005b 49       		.uleb128 0x49
 3071 005c 13       		.uleb128 0x13
 3072 005d 38       		.uleb128 0x38
 3073 005e 0B       		.uleb128 0xb
 3074 005f 00       		.byte	0
 3075 0060 00       		.byte	0
 3076 0061 08       		.uleb128 0x8
 3077 0062 0D       		.uleb128 0xd
 3078 0063 00       		.byte	0
ARM GAS  /var/folders/l5/0x54b2c10074c8bt31ycjvl80000gp/T//cc6w9WWc.s 			page 55


 3079 0064 03       		.uleb128 0x3
 3080 0065 08       		.uleb128 0x8
 3081 0066 3A       		.uleb128 0x3a
 3082 0067 0B       		.uleb128 0xb
 3083 0068 3B       		.uleb128 0x3b
 3084 0069 0B       		.uleb128 0xb
 3085 006a 39       		.uleb128 0x39
 3086 006b 0B       		.uleb128 0xb
 3087 006c 49       		.uleb128 0x49
 3088 006d 13       		.uleb128 0x13
 3089 006e 38       		.uleb128 0x38
 3090 006f 0B       		.uleb128 0xb
 3091 0070 00       		.byte	0
 3092 0071 00       		.byte	0
 3093 0072 09       		.uleb128 0x9
 3094 0073 13       		.uleb128 0x13
 3095 0074 01       		.byte	0x1
 3096 0075 0B       		.uleb128 0xb
 3097 0076 0B       		.uleb128 0xb
 3098 0077 3A       		.uleb128 0x3a
 3099 0078 0B       		.uleb128 0xb
 3100 0079 3B       		.uleb128 0x3b
 3101 007a 0B       		.uleb128 0xb
 3102 007b 39       		.uleb128 0x39
 3103 007c 0B       		.uleb128 0xb
 3104 007d 01       		.uleb128 0x1
 3105 007e 13       		.uleb128 0x13
 3106 007f 00       		.byte	0
 3107 0080 00       		.byte	0
 3108 0081 0A       		.uleb128 0xa
 3109 0082 0F       		.uleb128 0xf
 3110 0083 00       		.byte	0
 3111 0084 0B       		.uleb128 0xb
 3112 0085 0B       		.uleb128 0xb
 3113 0086 49       		.uleb128 0x49
 3114 0087 13       		.uleb128 0x13
 3115 0088 00       		.byte	0
 3116 0089 00       		.byte	0
 3117 008a 0B       		.uleb128 0xb
 3118 008b 0F       		.uleb128 0xf
 3119 008c 00       		.byte	0
 3120 008d 0B       		.uleb128 0xb
 3121 008e 0B       		.uleb128 0xb
 3122 008f 00       		.byte	0
 3123 0090 00       		.byte	0
 3124 0091 0C       		.uleb128 0xc
 3125 0092 15       		.uleb128 0x15
 3126 0093 01       		.byte	0x1
 3127 0094 27       		.uleb128 0x27
 3128 0095 19       		.uleb128 0x19
 3129 0096 01       		.uleb128 0x1
 3130 0097 13       		.uleb128 0x13
 3131 0098 00       		.byte	0
 3132 0099 00       		.byte	0
 3133 009a 0D       		.uleb128 0xd
 3134 009b 05       		.uleb128 0x5
 3135 009c 00       		.byte	0
ARM GAS  /var/folders/l5/0x54b2c10074c8bt31ycjvl80000gp/T//cc6w9WWc.s 			page 56


 3136 009d 49       		.uleb128 0x49
 3137 009e 13       		.uleb128 0x13
 3138 009f 00       		.byte	0
 3139 00a0 00       		.byte	0
 3140 00a1 0E       		.uleb128 0xe
 3141 00a2 34       		.uleb128 0x34
 3142 00a3 00       		.byte	0
 3143 00a4 03       		.uleb128 0x3
 3144 00a5 0E       		.uleb128 0xe
 3145 00a6 3A       		.uleb128 0x3a
 3146 00a7 0B       		.uleb128 0xb
 3147 00a8 3B       		.uleb128 0x3b
 3148 00a9 0B       		.uleb128 0xb
 3149 00aa 39       		.uleb128 0x39
 3150 00ab 0B       		.uleb128 0xb
 3151 00ac 49       		.uleb128 0x49
 3152 00ad 13       		.uleb128 0x13
 3153 00ae 3F       		.uleb128 0x3f
 3154 00af 19       		.uleb128 0x19
 3155 00b0 3C       		.uleb128 0x3c
 3156 00b1 19       		.uleb128 0x19
 3157 00b2 00       		.byte	0
 3158 00b3 00       		.byte	0
 3159 00b4 0F       		.uleb128 0xf
 3160 00b5 26       		.uleb128 0x26
 3161 00b6 00       		.byte	0
 3162 00b7 49       		.uleb128 0x49
 3163 00b8 13       		.uleb128 0x13
 3164 00b9 00       		.byte	0
 3165 00ba 00       		.byte	0
 3166 00bb 10       		.uleb128 0x10
 3167 00bc 17       		.uleb128 0x17
 3168 00bd 01       		.byte	0x1
 3169 00be 0B       		.uleb128 0xb
 3170 00bf 0B       		.uleb128 0xb
 3171 00c0 3A       		.uleb128 0x3a
 3172 00c1 0B       		.uleb128 0xb
 3173 00c2 3B       		.uleb128 0x3b
 3174 00c3 0B       		.uleb128 0xb
 3175 00c4 39       		.uleb128 0x39
 3176 00c5 0B       		.uleb128 0xb
 3177 00c6 01       		.uleb128 0x1
 3178 00c7 13       		.uleb128 0x13
 3179 00c8 00       		.byte	0
 3180 00c9 00       		.byte	0
 3181 00ca 11       		.uleb128 0x11
 3182 00cb 0D       		.uleb128 0xd
 3183 00cc 00       		.byte	0
 3184 00cd 03       		.uleb128 0x3
 3185 00ce 0E       		.uleb128 0xe
 3186 00cf 3A       		.uleb128 0x3a
 3187 00d0 0B       		.uleb128 0xb
 3188 00d1 3B       		.uleb128 0x3b
 3189 00d2 0B       		.uleb128 0xb
 3190 00d3 39       		.uleb128 0x39
 3191 00d4 0B       		.uleb128 0xb
 3192 00d5 49       		.uleb128 0x49
ARM GAS  /var/folders/l5/0x54b2c10074c8bt31ycjvl80000gp/T//cc6w9WWc.s 			page 57


 3193 00d6 13       		.uleb128 0x13
 3194 00d7 00       		.byte	0
 3195 00d8 00       		.byte	0
 3196 00d9 12       		.uleb128 0x12
 3197 00da 01       		.uleb128 0x1
 3198 00db 01       		.byte	0x1
 3199 00dc 49       		.uleb128 0x49
 3200 00dd 13       		.uleb128 0x13
 3201 00de 01       		.uleb128 0x1
 3202 00df 13       		.uleb128 0x13
 3203 00e0 00       		.byte	0
 3204 00e1 00       		.byte	0
 3205 00e2 13       		.uleb128 0x13
 3206 00e3 21       		.uleb128 0x21
 3207 00e4 00       		.byte	0
 3208 00e5 49       		.uleb128 0x49
 3209 00e6 13       		.uleb128 0x13
 3210 00e7 2F       		.uleb128 0x2f
 3211 00e8 0B       		.uleb128 0xb
 3212 00e9 00       		.byte	0
 3213 00ea 00       		.byte	0
 3214 00eb 14       		.uleb128 0x14
 3215 00ec 2E       		.uleb128 0x2e
 3216 00ed 01       		.byte	0x1
 3217 00ee 3F       		.uleb128 0x3f
 3218 00ef 19       		.uleb128 0x19
 3219 00f0 03       		.uleb128 0x3
 3220 00f1 0E       		.uleb128 0xe
 3221 00f2 3A       		.uleb128 0x3a
 3222 00f3 0B       		.uleb128 0xb
 3223 00f4 3B       		.uleb128 0x3b
 3224 00f5 05       		.uleb128 0x5
 3225 00f6 39       		.uleb128 0x39
 3226 00f7 0B       		.uleb128 0xb
 3227 00f8 27       		.uleb128 0x27
 3228 00f9 19       		.uleb128 0x19
 3229 00fa 49       		.uleb128 0x49
 3230 00fb 13       		.uleb128 0x13
 3231 00fc 11       		.uleb128 0x11
 3232 00fd 01       		.uleb128 0x1
 3233 00fe 12       		.uleb128 0x12
 3234 00ff 06       		.uleb128 0x6
 3235 0100 40       		.uleb128 0x40
 3236 0101 18       		.uleb128 0x18
 3237 0102 9742     		.uleb128 0x2117
 3238 0104 19       		.uleb128 0x19
 3239 0105 01       		.uleb128 0x1
 3240 0106 13       		.uleb128 0x13
 3241 0107 00       		.byte	0
 3242 0108 00       		.byte	0
 3243 0109 15       		.uleb128 0x15
 3244 010a 05       		.uleb128 0x5
 3245 010b 00       		.byte	0
 3246 010c 03       		.uleb128 0x3
 3247 010d 0E       		.uleb128 0xe
 3248 010e 3A       		.uleb128 0x3a
 3249 010f 0B       		.uleb128 0xb
ARM GAS  /var/folders/l5/0x54b2c10074c8bt31ycjvl80000gp/T//cc6w9WWc.s 			page 58


 3250 0110 3B       		.uleb128 0x3b
 3251 0111 05       		.uleb128 0x5
 3252 0112 39       		.uleb128 0x39
 3253 0113 0B       		.uleb128 0xb
 3254 0114 49       		.uleb128 0x49
 3255 0115 13       		.uleb128 0x13
 3256 0116 02       		.uleb128 0x2
 3257 0117 17       		.uleb128 0x17
 3258 0118 B742     		.uleb128 0x2137
 3259 011a 17       		.uleb128 0x17
 3260 011b 00       		.byte	0
 3261 011c 00       		.byte	0
 3262 011d 16       		.uleb128 0x16
 3263 011e 34       		.uleb128 0x34
 3264 011f 00       		.byte	0
 3265 0120 03       		.uleb128 0x3
 3266 0121 08       		.uleb128 0x8
 3267 0122 3A       		.uleb128 0x3a
 3268 0123 0B       		.uleb128 0xb
 3269 0124 3B       		.uleb128 0x3b
 3270 0125 05       		.uleb128 0x5
 3271 0126 39       		.uleb128 0x39
 3272 0127 0B       		.uleb128 0xb
 3273 0128 49       		.uleb128 0x49
 3274 0129 13       		.uleb128 0x13
 3275 012a 02       		.uleb128 0x2
 3276 012b 17       		.uleb128 0x17
 3277 012c B742     		.uleb128 0x2137
 3278 012e 17       		.uleb128 0x17
 3279 012f 00       		.byte	0
 3280 0130 00       		.byte	0
 3281 0131 17       		.uleb128 0x17
 3282 0132 898201   		.uleb128 0x4109
 3283 0135 01       		.byte	0x1
 3284 0136 11       		.uleb128 0x11
 3285 0137 01       		.uleb128 0x1
 3286 0138 31       		.uleb128 0x31
 3287 0139 13       		.uleb128 0x13
 3288 013a 00       		.byte	0
 3289 013b 00       		.byte	0
 3290 013c 18       		.uleb128 0x18
 3291 013d 8A8201   		.uleb128 0x410a
 3292 0140 00       		.byte	0
 3293 0141 02       		.uleb128 0x2
 3294 0142 18       		.uleb128 0x18
 3295 0143 9142     		.uleb128 0x2111
 3296 0145 18       		.uleb128 0x18
 3297 0146 00       		.byte	0
 3298 0147 00       		.byte	0
 3299 0148 19       		.uleb128 0x19
 3300 0149 2E       		.uleb128 0x2e
 3301 014a 01       		.byte	0x1
 3302 014b 3F       		.uleb128 0x3f
 3303 014c 19       		.uleb128 0x19
 3304 014d 03       		.uleb128 0x3
 3305 014e 0E       		.uleb128 0xe
 3306 014f 3A       		.uleb128 0x3a
ARM GAS  /var/folders/l5/0x54b2c10074c8bt31ycjvl80000gp/T//cc6w9WWc.s 			page 59


 3307 0150 0B       		.uleb128 0xb
 3308 0151 3B       		.uleb128 0x3b
 3309 0152 05       		.uleb128 0x5
 3310 0153 39       		.uleb128 0x39
 3311 0154 0B       		.uleb128 0xb
 3312 0155 27       		.uleb128 0x27
 3313 0156 19       		.uleb128 0x19
 3314 0157 11       		.uleb128 0x11
 3315 0158 01       		.uleb128 0x1
 3316 0159 12       		.uleb128 0x12
 3317 015a 06       		.uleb128 0x6
 3318 015b 40       		.uleb128 0x40
 3319 015c 18       		.uleb128 0x18
 3320 015d 9742     		.uleb128 0x2117
 3321 015f 19       		.uleb128 0x19
 3322 0160 01       		.uleb128 0x1
 3323 0161 13       		.uleb128 0x13
 3324 0162 00       		.byte	0
 3325 0163 00       		.byte	0
 3326 0164 1A       		.uleb128 0x1a
 3327 0165 898201   		.uleb128 0x4109
 3328 0168 01       		.byte	0x1
 3329 0169 11       		.uleb128 0x11
 3330 016a 01       		.uleb128 0x1
 3331 016b 00       		.byte	0
 3332 016c 00       		.byte	0
 3333 016d 1B       		.uleb128 0x1b
 3334 016e 05       		.uleb128 0x5
 3335 016f 00       		.byte	0
 3336 0170 03       		.uleb128 0x3
 3337 0171 08       		.uleb128 0x8
 3338 0172 3A       		.uleb128 0x3a
 3339 0173 0B       		.uleb128 0xb
 3340 0174 3B       		.uleb128 0x3b
 3341 0175 05       		.uleb128 0x5
 3342 0176 39       		.uleb128 0x39
 3343 0177 0B       		.uleb128 0xb
 3344 0178 49       		.uleb128 0x49
 3345 0179 13       		.uleb128 0x13
 3346 017a 02       		.uleb128 0x2
 3347 017b 17       		.uleb128 0x17
 3348 017c B742     		.uleb128 0x2137
 3349 017e 17       		.uleb128 0x17
 3350 017f 00       		.byte	0
 3351 0180 00       		.byte	0
 3352 0181 1C       		.uleb128 0x1c
 3353 0182 34       		.uleb128 0x34
 3354 0183 00       		.byte	0
 3355 0184 03       		.uleb128 0x3
 3356 0185 0E       		.uleb128 0xe
 3357 0186 3A       		.uleb128 0x3a
 3358 0187 0B       		.uleb128 0xb
 3359 0188 3B       		.uleb128 0x3b
 3360 0189 05       		.uleb128 0x5
 3361 018a 39       		.uleb128 0x39
 3362 018b 0B       		.uleb128 0xb
 3363 018c 49       		.uleb128 0x49
ARM GAS  /var/folders/l5/0x54b2c10074c8bt31ycjvl80000gp/T//cc6w9WWc.s 			page 60


 3364 018d 13       		.uleb128 0x13
 3365 018e 02       		.uleb128 0x2
 3366 018f 17       		.uleb128 0x17
 3367 0190 B742     		.uleb128 0x2137
 3368 0192 17       		.uleb128 0x17
 3369 0193 00       		.byte	0
 3370 0194 00       		.byte	0
 3371 0195 1D       		.uleb128 0x1d
 3372 0196 898201   		.uleb128 0x4109
 3373 0199 01       		.byte	0x1
 3374 019a 11       		.uleb128 0x11
 3375 019b 01       		.uleb128 0x1
 3376 019c 31       		.uleb128 0x31
 3377 019d 13       		.uleb128 0x13
 3378 019e 01       		.uleb128 0x1
 3379 019f 13       		.uleb128 0x13
 3380 01a0 00       		.byte	0
 3381 01a1 00       		.byte	0
 3382 01a2 1E       		.uleb128 0x1e
 3383 01a3 898201   		.uleb128 0x4109
 3384 01a6 00       		.byte	0
 3385 01a7 11       		.uleb128 0x11
 3386 01a8 01       		.uleb128 0x1
 3387 01a9 31       		.uleb128 0x31
 3388 01aa 13       		.uleb128 0x13
 3389 01ab 00       		.byte	0
 3390 01ac 00       		.byte	0
 3391 01ad 1F       		.uleb128 0x1f
 3392 01ae 2E       		.uleb128 0x2e
 3393 01af 01       		.byte	0x1
 3394 01b0 3F       		.uleb128 0x3f
 3395 01b1 19       		.uleb128 0x19
 3396 01b2 03       		.uleb128 0x3
 3397 01b3 0E       		.uleb128 0xe
 3398 01b4 3A       		.uleb128 0x3a
 3399 01b5 0B       		.uleb128 0xb
 3400 01b6 3B       		.uleb128 0x3b
 3401 01b7 0B       		.uleb128 0xb
 3402 01b8 39       		.uleb128 0x39
 3403 01b9 0B       		.uleb128 0xb
 3404 01ba 27       		.uleb128 0x27
 3405 01bb 19       		.uleb128 0x19
 3406 01bc 20       		.uleb128 0x20
 3407 01bd 0B       		.uleb128 0xb
 3408 01be 01       		.uleb128 0x1
 3409 01bf 13       		.uleb128 0x13
 3410 01c0 00       		.byte	0
 3411 01c1 00       		.byte	0
 3412 01c2 20       		.uleb128 0x20
 3413 01c3 05       		.uleb128 0x5
 3414 01c4 00       		.byte	0
 3415 01c5 03       		.uleb128 0x3
 3416 01c6 08       		.uleb128 0x8
 3417 01c7 3A       		.uleb128 0x3a
 3418 01c8 0B       		.uleb128 0xb
 3419 01c9 3B       		.uleb128 0x3b
 3420 01ca 0B       		.uleb128 0xb
ARM GAS  /var/folders/l5/0x54b2c10074c8bt31ycjvl80000gp/T//cc6w9WWc.s 			page 61


 3421 01cb 39       		.uleb128 0x39
 3422 01cc 0B       		.uleb128 0xb
 3423 01cd 49       		.uleb128 0x49
 3424 01ce 13       		.uleb128 0x13
 3425 01cf 00       		.byte	0
 3426 01d0 00       		.byte	0
 3427 01d1 21       		.uleb128 0x21
 3428 01d2 05       		.uleb128 0x5
 3429 01d3 00       		.byte	0
 3430 01d4 03       		.uleb128 0x3
 3431 01d5 0E       		.uleb128 0xe
 3432 01d6 3A       		.uleb128 0x3a
 3433 01d7 0B       		.uleb128 0xb
 3434 01d8 3B       		.uleb128 0x3b
 3435 01d9 0B       		.uleb128 0xb
 3436 01da 39       		.uleb128 0x39
 3437 01db 0B       		.uleb128 0xb
 3438 01dc 49       		.uleb128 0x49
 3439 01dd 13       		.uleb128 0x13
 3440 01de 00       		.byte	0
 3441 01df 00       		.byte	0
 3442 01e0 22       		.uleb128 0x22
 3443 01e1 2E       		.uleb128 0x2e
 3444 01e2 01       		.byte	0x1
 3445 01e3 3F       		.uleb128 0x3f
 3446 01e4 19       		.uleb128 0x19
 3447 01e5 03       		.uleb128 0x3
 3448 01e6 0E       		.uleb128 0xe
 3449 01e7 3A       		.uleb128 0x3a
 3450 01e8 0B       		.uleb128 0xb
 3451 01e9 3B       		.uleb128 0x3b
 3452 01ea 0B       		.uleb128 0xb
 3453 01eb 39       		.uleb128 0x39
 3454 01ec 0B       		.uleb128 0xb
 3455 01ed 27       		.uleb128 0x27
 3456 01ee 19       		.uleb128 0x19
 3457 01ef 11       		.uleb128 0x11
 3458 01f0 01       		.uleb128 0x1
 3459 01f1 12       		.uleb128 0x12
 3460 01f2 06       		.uleb128 0x6
 3461 01f3 40       		.uleb128 0x40
 3462 01f4 18       		.uleb128 0x18
 3463 01f5 9742     		.uleb128 0x2117
 3464 01f7 19       		.uleb128 0x19
 3465 01f8 01       		.uleb128 0x1
 3466 01f9 13       		.uleb128 0x13
 3467 01fa 00       		.byte	0
 3468 01fb 00       		.byte	0
 3469 01fc 23       		.uleb128 0x23
 3470 01fd 05       		.uleb128 0x5
 3471 01fe 00       		.byte	0
 3472 01ff 03       		.uleb128 0x3
 3473 0200 08       		.uleb128 0x8
 3474 0201 3A       		.uleb128 0x3a
 3475 0202 0B       		.uleb128 0xb
 3476 0203 3B       		.uleb128 0x3b
 3477 0204 0B       		.uleb128 0xb
ARM GAS  /var/folders/l5/0x54b2c10074c8bt31ycjvl80000gp/T//cc6w9WWc.s 			page 62


 3478 0205 39       		.uleb128 0x39
 3479 0206 0B       		.uleb128 0xb
 3480 0207 49       		.uleb128 0x49
 3481 0208 13       		.uleb128 0x13
 3482 0209 02       		.uleb128 0x2
 3483 020a 17       		.uleb128 0x17
 3484 020b B742     		.uleb128 0x2137
 3485 020d 17       		.uleb128 0x17
 3486 020e 00       		.byte	0
 3487 020f 00       		.byte	0
 3488 0210 24       		.uleb128 0x24
 3489 0211 05       		.uleb128 0x5
 3490 0212 00       		.byte	0
 3491 0213 03       		.uleb128 0x3
 3492 0214 0E       		.uleb128 0xe
 3493 0215 3A       		.uleb128 0x3a
 3494 0216 0B       		.uleb128 0xb
 3495 0217 3B       		.uleb128 0x3b
 3496 0218 0B       		.uleb128 0xb
 3497 0219 39       		.uleb128 0x39
 3498 021a 0B       		.uleb128 0xb
 3499 021b 49       		.uleb128 0x49
 3500 021c 13       		.uleb128 0x13
 3501 021d 02       		.uleb128 0x2
 3502 021e 17       		.uleb128 0x17
 3503 021f B742     		.uleb128 0x2137
 3504 0221 17       		.uleb128 0x17
 3505 0222 00       		.byte	0
 3506 0223 00       		.byte	0
 3507 0224 25       		.uleb128 0x25
 3508 0225 2E       		.uleb128 0x2e
 3509 0226 01       		.byte	0x1
 3510 0227 3F       		.uleb128 0x3f
 3511 0228 19       		.uleb128 0x19
 3512 0229 03       		.uleb128 0x3
 3513 022a 0E       		.uleb128 0xe
 3514 022b 3A       		.uleb128 0x3a
 3515 022c 0B       		.uleb128 0xb
 3516 022d 3B       		.uleb128 0x3b
 3517 022e 0B       		.uleb128 0xb
 3518 022f 39       		.uleb128 0x39
 3519 0230 0B       		.uleb128 0xb
 3520 0231 27       		.uleb128 0x27
 3521 0232 19       		.uleb128 0x19
 3522 0233 49       		.uleb128 0x49
 3523 0234 13       		.uleb128 0x13
 3524 0235 11       		.uleb128 0x11
 3525 0236 01       		.uleb128 0x1
 3526 0237 12       		.uleb128 0x12
 3527 0238 06       		.uleb128 0x6
 3528 0239 40       		.uleb128 0x40
 3529 023a 18       		.uleb128 0x18
 3530 023b 9742     		.uleb128 0x2117
 3531 023d 19       		.uleb128 0x19
 3532 023e 01       		.uleb128 0x1
 3533 023f 13       		.uleb128 0x13
 3534 0240 00       		.byte	0
ARM GAS  /var/folders/l5/0x54b2c10074c8bt31ycjvl80000gp/T//cc6w9WWc.s 			page 63


 3535 0241 00       		.byte	0
 3536 0242 26       		.uleb128 0x26
 3537 0243 34       		.uleb128 0x34
 3538 0244 00       		.byte	0
 3539 0245 03       		.uleb128 0x3
 3540 0246 0E       		.uleb128 0xe
 3541 0247 3A       		.uleb128 0x3a
 3542 0248 0B       		.uleb128 0xb
 3543 0249 3B       		.uleb128 0x3b
 3544 024a 0B       		.uleb128 0xb
 3545 024b 39       		.uleb128 0x39
 3546 024c 0B       		.uleb128 0xb
 3547 024d 49       		.uleb128 0x49
 3548 024e 13       		.uleb128 0x13
 3549 024f 02       		.uleb128 0x2
 3550 0250 17       		.uleb128 0x17
 3551 0251 B742     		.uleb128 0x2137
 3552 0253 17       		.uleb128 0x17
 3553 0254 00       		.byte	0
 3554 0255 00       		.byte	0
 3555 0256 27       		.uleb128 0x27
 3556 0257 34       		.uleb128 0x34
 3557 0258 00       		.byte	0
 3558 0259 03       		.uleb128 0x3
 3559 025a 08       		.uleb128 0x8
 3560 025b 3A       		.uleb128 0x3a
 3561 025c 0B       		.uleb128 0xb
 3562 025d 3B       		.uleb128 0x3b
 3563 025e 0B       		.uleb128 0xb
 3564 025f 39       		.uleb128 0x39
 3565 0260 0B       		.uleb128 0xb
 3566 0261 49       		.uleb128 0x49
 3567 0262 13       		.uleb128 0x13
 3568 0263 02       		.uleb128 0x2
 3569 0264 17       		.uleb128 0x17
 3570 0265 B742     		.uleb128 0x2137
 3571 0267 17       		.uleb128 0x17
 3572 0268 00       		.byte	0
 3573 0269 00       		.byte	0
 3574 026a 28       		.uleb128 0x28
 3575 026b 05       		.uleb128 0x5
 3576 026c 00       		.byte	0
 3577 026d 03       		.uleb128 0x3
 3578 026e 08       		.uleb128 0x8
 3579 026f 3A       		.uleb128 0x3a
 3580 0270 0B       		.uleb128 0xb
 3581 0271 3B       		.uleb128 0x3b
 3582 0272 0B       		.uleb128 0xb
 3583 0273 39       		.uleb128 0x39
 3584 0274 0B       		.uleb128 0xb
 3585 0275 49       		.uleb128 0x49
 3586 0276 13       		.uleb128 0x13
 3587 0277 02       		.uleb128 0x2
 3588 0278 18       		.uleb128 0x18
 3589 0279 00       		.byte	0
 3590 027a 00       		.byte	0
 3591 027b 29       		.uleb128 0x29
ARM GAS  /var/folders/l5/0x54b2c10074c8bt31ycjvl80000gp/T//cc6w9WWc.s 			page 64


 3592 027c 05       		.uleb128 0x5
 3593 027d 00       		.byte	0
 3594 027e 03       		.uleb128 0x3
 3595 027f 0E       		.uleb128 0xe
 3596 0280 3A       		.uleb128 0x3a
 3597 0281 0B       		.uleb128 0xb
 3598 0282 3B       		.uleb128 0x3b
 3599 0283 0B       		.uleb128 0xb
 3600 0284 39       		.uleb128 0x39
 3601 0285 0B       		.uleb128 0xb
 3602 0286 49       		.uleb128 0x49
 3603 0287 13       		.uleb128 0x13
 3604 0288 02       		.uleb128 0x2
 3605 0289 18       		.uleb128 0x18
 3606 028a 00       		.byte	0
 3607 028b 00       		.byte	0
 3608 028c 2A       		.uleb128 0x2a
 3609 028d 2E       		.uleb128 0x2e
 3610 028e 01       		.byte	0x1
 3611 028f 31       		.uleb128 0x31
 3612 0290 13       		.uleb128 0x13
 3613 0291 11       		.uleb128 0x11
 3614 0292 01       		.uleb128 0x1
 3615 0293 12       		.uleb128 0x12
 3616 0294 06       		.uleb128 0x6
 3617 0295 40       		.uleb128 0x40
 3618 0296 18       		.uleb128 0x18
 3619 0297 9742     		.uleb128 0x2117
 3620 0299 19       		.uleb128 0x19
 3621 029a 01       		.uleb128 0x1
 3622 029b 13       		.uleb128 0x13
 3623 029c 00       		.byte	0
 3624 029d 00       		.byte	0
 3625 029e 2B       		.uleb128 0x2b
 3626 029f 05       		.uleb128 0x5
 3627 02a0 00       		.byte	0
 3628 02a1 31       		.uleb128 0x31
 3629 02a2 13       		.uleb128 0x13
 3630 02a3 02       		.uleb128 0x2
 3631 02a4 17       		.uleb128 0x17
 3632 02a5 B742     		.uleb128 0x2137
 3633 02a7 17       		.uleb128 0x17
 3634 02a8 00       		.byte	0
 3635 02a9 00       		.byte	0
 3636 02aa 2C       		.uleb128 0x2c
 3637 02ab 1D       		.uleb128 0x1d
 3638 02ac 01       		.byte	0x1
 3639 02ad 31       		.uleb128 0x31
 3640 02ae 13       		.uleb128 0x13
 3641 02af 52       		.uleb128 0x52
 3642 02b0 01       		.uleb128 0x1
 3643 02b1 B842     		.uleb128 0x2138
 3644 02b3 0B       		.uleb128 0xb
 3645 02b4 55       		.uleb128 0x55
 3646 02b5 17       		.uleb128 0x17
 3647 02b6 58       		.uleb128 0x58
 3648 02b7 0B       		.uleb128 0xb
ARM GAS  /var/folders/l5/0x54b2c10074c8bt31ycjvl80000gp/T//cc6w9WWc.s 			page 65


 3649 02b8 59       		.uleb128 0x59
 3650 02b9 0B       		.uleb128 0xb
 3651 02ba 57       		.uleb128 0x57
 3652 02bb 0B       		.uleb128 0xb
 3653 02bc 00       		.byte	0
 3654 02bd 00       		.byte	0
 3655 02be 2D       		.uleb128 0x2d
 3656 02bf 2E       		.uleb128 0x2e
 3657 02c0 00       		.byte	0
 3658 02c1 3F       		.uleb128 0x3f
 3659 02c2 19       		.uleb128 0x19
 3660 02c3 3C       		.uleb128 0x3c
 3661 02c4 19       		.uleb128 0x19
 3662 02c5 6E       		.uleb128 0x6e
 3663 02c6 0E       		.uleb128 0xe
 3664 02c7 03       		.uleb128 0x3
 3665 02c8 0E       		.uleb128 0xe
 3666 02c9 3A       		.uleb128 0x3a
 3667 02ca 0B       		.uleb128 0xb
 3668 02cb 3B       		.uleb128 0x3b
 3669 02cc 0B       		.uleb128 0xb
 3670 02cd 39       		.uleb128 0x39
 3671 02ce 0B       		.uleb128 0xb
 3672 02cf 00       		.byte	0
 3673 02d0 00       		.byte	0
 3674 02d1 00       		.byte	0
 3675              		.section	.debug_loc,"",%progbits
 3676              	.Ldebug_loc0:
 3677              	.LVUS38:
 3678 0000 00       		.uleb128 0
 3679 0001 00       		.uleb128 .LVU370
 3680 0002 00       		.uleb128 .LVU370
 3681 0003 00       		.uleb128 0
 3682              	.LLST38:
 3683 0004 00000000 		.4byte	.LVL80
 3684 0008 28000000 		.4byte	.LVL82
 3685 000c 0100     		.2byte	0x1
 3686 000e 50       		.byte	0x50
 3687 000f 28000000 		.4byte	.LVL82
 3688 0013 70000000 		.4byte	.LFE23
 3689 0017 0100     		.2byte	0x1
 3690 0019 54       		.byte	0x54
 3691 001a 00000000 		.4byte	0
 3692 001e 00000000 		.4byte	0
 3693              	.LVUS39:
 3694 0022 00       		.uleb128 0
 3695 0023 00       		.uleb128 .LVU381
 3696 0024 00       		.uleb128 .LVU381
 3697 0025 00       		.uleb128 0
 3698              	.LLST39:
 3699 0026 00000000 		.4byte	.LVL80
 3700 002a 3F000000 		.4byte	.LVL83-1
 3701 002e 0100     		.2byte	0x1
 3702 0030 51       		.byte	0x51
 3703 0031 3F000000 		.4byte	.LVL83-1
 3704 0035 70000000 		.4byte	.LFE23
 3705 0039 0400     		.2byte	0x4
ARM GAS  /var/folders/l5/0x54b2c10074c8bt31ycjvl80000gp/T//cc6w9WWc.s 			page 66


 3706 003b F3       		.byte	0xf3
 3707 003c 01       		.uleb128 0x1
 3708 003d 51       		.byte	0x51
 3709 003e 9F       		.byte	0x9f
 3710 003f 00000000 		.4byte	0
 3711 0043 00000000 		.4byte	0
 3712              	.LVUS40:
 3713 0047 00       		.uleb128 .LVU363
 3714 0048 00       		.uleb128 0
 3715              	.LLST40:
 3716 0049 10000000 		.4byte	.LVL81
 3717 004d 70000000 		.4byte	.LFE23
 3718 0051 0100     		.2byte	0x1
 3719 0053 55       		.byte	0x55
 3720 0054 00000000 		.4byte	0
 3721 0058 00000000 		.4byte	0
 3722              	.LVUS34:
 3723 005c 00       		.uleb128 0
 3724 005d 00       		.uleb128 .LVU341
 3725 005e 00       		.uleb128 .LVU341
 3726 005f 00       		.uleb128 .LVU346
 3727 0060 00       		.uleb128 .LVU346
 3728 0061 00       		.uleb128 .LVU350
 3729 0062 00       		.uleb128 .LVU350
 3730 0063 00       		.uleb128 .LVU355
 3731 0064 00       		.uleb128 .LVU355
 3732 0065 00       		.uleb128 0
 3733              	.LLST34:
 3734 0066 00000000 		.4byte	.LVL71
 3735 006a 24000000 		.4byte	.LVL75
 3736 006e 0100     		.2byte	0x1
 3737 0070 50       		.byte	0x50
 3738 0071 24000000 		.4byte	.LVL75
 3739 0075 30000000 		.4byte	.LVL76
 3740 0079 0400     		.2byte	0x4
 3741 007b F3       		.byte	0xf3
 3742 007c 01       		.uleb128 0x1
 3743 007d 50       		.byte	0x50
 3744 007e 9F       		.byte	0x9f
 3745 007f 30000000 		.4byte	.LVL76
 3746 0083 3C000000 		.4byte	.LVL77
 3747 0087 0100     		.2byte	0x1
 3748 0089 50       		.byte	0x50
 3749 008a 3C000000 		.4byte	.LVL77
 3750 008e 50000000 		.4byte	.LVL79
 3751 0092 0100     		.2byte	0x1
 3752 0094 54       		.byte	0x54
 3753 0095 50000000 		.4byte	.LVL79
 3754 0099 60000000 		.4byte	.LFE22
 3755 009d 0400     		.2byte	0x4
 3756 009f F3       		.byte	0xf3
 3757 00a0 01       		.uleb128 0x1
 3758 00a1 50       		.byte	0x50
 3759 00a2 9F       		.byte	0x9f
 3760 00a3 00000000 		.4byte	0
 3761 00a7 00000000 		.4byte	0
 3762              	.LVUS35:
ARM GAS  /var/folders/l5/0x54b2c10074c8bt31ycjvl80000gp/T//cc6w9WWc.s 			page 67


 3763 00ab 00       		.uleb128 0
 3764 00ac 00       		.uleb128 .LVU341
 3765 00ad 00       		.uleb128 .LVU341
 3766 00ae 00       		.uleb128 .LVU346
 3767 00af 00       		.uleb128 .LVU346
 3768 00b0 00       		.uleb128 .LVU351
 3769 00b1 00       		.uleb128 .LVU351
 3770 00b2 00       		.uleb128 0
 3771              	.LLST35:
 3772 00b3 00000000 		.4byte	.LVL71
 3773 00b7 24000000 		.4byte	.LVL75
 3774 00bb 0100     		.2byte	0x1
 3775 00bd 51       		.byte	0x51
 3776 00be 24000000 		.4byte	.LVL75
 3777 00c2 30000000 		.4byte	.LVL76
 3778 00c6 0400     		.2byte	0x4
 3779 00c8 F3       		.byte	0xf3
 3780 00c9 01       		.uleb128 0x1
 3781 00ca 51       		.byte	0x51
 3782 00cb 9F       		.byte	0x9f
 3783 00cc 30000000 		.4byte	.LVL76
 3784 00d0 3F000000 		.4byte	.LVL78-1
 3785 00d4 0100     		.2byte	0x1
 3786 00d6 51       		.byte	0x51
 3787 00d7 3F000000 		.4byte	.LVL78-1
 3788 00db 60000000 		.4byte	.LFE22
 3789 00df 0400     		.2byte	0x4
 3790 00e1 F3       		.byte	0xf3
 3791 00e2 01       		.uleb128 0x1
 3792 00e3 51       		.byte	0x51
 3793 00e4 9F       		.byte	0x9f
 3794 00e5 00000000 		.4byte	0
 3795 00e9 00000000 		.4byte	0
 3796              	.LVUS36:
 3797 00ed 00       		.uleb128 .LVU331
 3798 00ee 00       		.uleb128 0
 3799              	.LLST36:
 3800 00ef 0C000000 		.4byte	.LVL72
 3801 00f3 60000000 		.4byte	.LFE22
 3802 00f7 0100     		.2byte	0x1
 3803 00f9 55       		.byte	0x55
 3804 00fa 00000000 		.4byte	0
 3805 00fe 00000000 		.4byte	0
 3806              	.LVUS37:
 3807 0102 00       		.uleb128 .LVU337
 3808 0103 00       		.uleb128 .LVU338
 3809 0104 00       		.uleb128 .LVU338
 3810 0105 00       		.uleb128 .LVU341
 3811 0106 00       		.uleb128 .LVU346
 3812 0107 00       		.uleb128 0
 3813              	.LLST37:
 3814 0108 14000000 		.4byte	.LVL73
 3815 010c 18000000 		.4byte	.LVL74
 3816 0110 0600     		.2byte	0x6
 3817 0112 73       		.byte	0x73
 3818 0113 00       		.sleb128 0
 3819 0114 70       		.byte	0x70
ARM GAS  /var/folders/l5/0x54b2c10074c8bt31ycjvl80000gp/T//cc6w9WWc.s 			page 68


 3820 0115 00       		.sleb128 0
 3821 0116 1A       		.byte	0x1a
 3822 0117 9F       		.byte	0x9f
 3823 0118 18000000 		.4byte	.LVL74
 3824 011c 24000000 		.4byte	.LVL75
 3825 0120 0100     		.2byte	0x1
 3826 0122 56       		.byte	0x56
 3827 0123 30000000 		.4byte	.LVL76
 3828 0127 60000000 		.4byte	.LFE22
 3829 012b 0100     		.2byte	0x1
 3830 012d 56       		.byte	0x56
 3831 012e 00000000 		.4byte	0
 3832 0132 00000000 		.4byte	0
 3833              	.LVUS30:
 3834 0136 00       		.uleb128 0
 3835 0137 00       		.uleb128 .LVU307
 3836 0138 00       		.uleb128 .LVU307
 3837 0139 00       		.uleb128 .LVU312
 3838 013a 00       		.uleb128 .LVU312
 3839 013b 00       		.uleb128 .LVU316
 3840 013c 00       		.uleb128 .LVU316
 3841 013d 00       		.uleb128 .LVU321
 3842 013e 00       		.uleb128 .LVU321
 3843 013f 00       		.uleb128 0
 3844              	.LLST30:
 3845 0140 00000000 		.4byte	.LVL61
 3846 0144 24000000 		.4byte	.LVL65
 3847 0148 0100     		.2byte	0x1
 3848 014a 50       		.byte	0x50
 3849 014b 24000000 		.4byte	.LVL65
 3850 014f 30000000 		.4byte	.LVL66
 3851 0153 0400     		.2byte	0x4
 3852 0155 F3       		.byte	0xf3
 3853 0156 01       		.uleb128 0x1
 3854 0157 50       		.byte	0x50
 3855 0158 9F       		.byte	0x9f
 3856 0159 30000000 		.4byte	.LVL66
 3857 015d 3C000000 		.4byte	.LVL67
 3858 0161 0100     		.2byte	0x1
 3859 0163 50       		.byte	0x50
 3860 0164 3C000000 		.4byte	.LVL67
 3861 0168 50000000 		.4byte	.LVL69
 3862 016c 0100     		.2byte	0x1
 3863 016e 55       		.byte	0x55
 3864 016f 50000000 		.4byte	.LVL69
 3865 0173 68000000 		.4byte	.LFE21
 3866 0177 0400     		.2byte	0x4
 3867 0179 F3       		.byte	0xf3
 3868 017a 01       		.uleb128 0x1
 3869 017b 50       		.byte	0x50
 3870 017c 9F       		.byte	0x9f
 3871 017d 00000000 		.4byte	0
 3872 0181 00000000 		.4byte	0
 3873              	.LVUS31:
 3874 0185 00       		.uleb128 0
 3875 0186 00       		.uleb128 .LVU307
 3876 0187 00       		.uleb128 .LVU307
ARM GAS  /var/folders/l5/0x54b2c10074c8bt31ycjvl80000gp/T//cc6w9WWc.s 			page 69


 3877 0188 00       		.uleb128 .LVU312
 3878 0189 00       		.uleb128 .LVU312
 3879 018a 00       		.uleb128 .LVU317
 3880 018b 00       		.uleb128 .LVU317
 3881 018c 00       		.uleb128 0
 3882              	.LLST31:
 3883 018d 00000000 		.4byte	.LVL61
 3884 0191 24000000 		.4byte	.LVL65
 3885 0195 0100     		.2byte	0x1
 3886 0197 51       		.byte	0x51
 3887 0198 24000000 		.4byte	.LVL65
 3888 019c 30000000 		.4byte	.LVL66
 3889 01a0 0400     		.2byte	0x4
 3890 01a2 F3       		.byte	0xf3
 3891 01a3 01       		.uleb128 0x1
 3892 01a4 51       		.byte	0x51
 3893 01a5 9F       		.byte	0x9f
 3894 01a6 30000000 		.4byte	.LVL66
 3895 01aa 3F000000 		.4byte	.LVL68-1
 3896 01ae 0100     		.2byte	0x1
 3897 01b0 51       		.byte	0x51
 3898 01b1 3F000000 		.4byte	.LVL68-1
 3899 01b5 68000000 		.4byte	.LFE21
 3900 01b9 0400     		.2byte	0x4
 3901 01bb F3       		.byte	0xf3
 3902 01bc 01       		.uleb128 0x1
 3903 01bd 51       		.byte	0x51
 3904 01be 9F       		.byte	0x9f
 3905 01bf 00000000 		.4byte	0
 3906 01c3 00000000 		.4byte	0
 3907              	.LVUS32:
 3908 01c7 00       		.uleb128 .LVU297
 3909 01c8 00       		.uleb128 0
 3910              	.LLST32:
 3911 01c9 0C000000 		.4byte	.LVL62
 3912 01cd 68000000 		.4byte	.LFE21
 3913 01d1 0100     		.2byte	0x1
 3914 01d3 56       		.byte	0x56
 3915 01d4 00000000 		.4byte	0
 3916 01d8 00000000 		.4byte	0
 3917              	.LVUS33:
 3918 01dc 00       		.uleb128 .LVU303
 3919 01dd 00       		.uleb128 .LVU304
 3920 01de 00       		.uleb128 .LVU304
 3921 01df 00       		.uleb128 .LVU307
 3922 01e0 00       		.uleb128 .LVU312
 3923 01e1 00       		.uleb128 0
 3924              	.LLST33:
 3925 01e2 14000000 		.4byte	.LVL63
 3926 01e6 18000000 		.4byte	.LVL64
 3927 01ea 0600     		.2byte	0x6
 3928 01ec 73       		.byte	0x73
 3929 01ed 00       		.sleb128 0
 3930 01ee 70       		.byte	0x70
 3931 01ef 00       		.sleb128 0
 3932 01f0 1A       		.byte	0x1a
 3933 01f1 9F       		.byte	0x9f
ARM GAS  /var/folders/l5/0x54b2c10074c8bt31ycjvl80000gp/T//cc6w9WWc.s 			page 70


 3934 01f2 18000000 		.4byte	.LVL64
 3935 01f6 24000000 		.4byte	.LVL65
 3936 01fa 0100     		.2byte	0x1
 3937 01fc 54       		.byte	0x54
 3938 01fd 30000000 		.4byte	.LVL66
 3939 0201 68000000 		.4byte	.LFE21
 3940 0205 0100     		.2byte	0x1
 3941 0207 54       		.byte	0x54
 3942 0208 00000000 		.4byte	0
 3943 020c 00000000 		.4byte	0
 3944              	.LVUS28:
 3945 0210 00       		.uleb128 0
 3946 0211 00       		.uleb128 .LVU284
 3947 0212 00       		.uleb128 .LVU284
 3948 0213 00       		.uleb128 0
 3949              	.LLST28:
 3950 0214 00000000 		.4byte	.LVL57
 3951 0218 28000000 		.4byte	.LVL59
 3952 021c 0100     		.2byte	0x1
 3953 021e 50       		.byte	0x50
 3954 021f 28000000 		.4byte	.LVL59
 3955 0223 48000000 		.4byte	.LFE20
 3956 0227 0100     		.2byte	0x1
 3957 0229 54       		.byte	0x54
 3958 022a 00000000 		.4byte	0
 3959 022e 00000000 		.4byte	0
 3960              	.LVUS29:
 3961 0232 00       		.uleb128 .LVU275
 3962 0233 00       		.uleb128 0
 3963              	.LLST29:
 3964 0234 10000000 		.4byte	.LVL58
 3965 0238 48000000 		.4byte	.LFE20
 3966 023c 0100     		.2byte	0x1
 3967 023e 55       		.byte	0x55
 3968 023f 00000000 		.4byte	0
 3969 0243 00000000 		.4byte	0
 3970              	.LVUS25:
 3971 0247 00       		.uleb128 0
 3972 0248 00       		.uleb128 .LVU253
 3973 0249 00       		.uleb128 .LVU253
 3974 024a 00       		.uleb128 .LVU260
 3975 024b 00       		.uleb128 .LVU260
 3976 024c 00       		.uleb128 .LVU264
 3977 024d 00       		.uleb128 .LVU264
 3978 024e 00       		.uleb128 .LVU268
 3979 024f 00       		.uleb128 .LVU268
 3980 0250 00       		.uleb128 0
 3981              	.LLST25:
 3982 0251 00000000 		.4byte	.LVL47
 3983 0255 1C000000 		.4byte	.LVL51
 3984 0259 0100     		.2byte	0x1
 3985 025b 50       		.byte	0x50
 3986 025c 1C000000 		.4byte	.LVL51
 3987 0260 30000000 		.4byte	.LVL52
 3988 0264 0400     		.2byte	0x4
 3989 0266 F3       		.byte	0xf3
 3990 0267 01       		.uleb128 0x1
ARM GAS  /var/folders/l5/0x54b2c10074c8bt31ycjvl80000gp/T//cc6w9WWc.s 			page 71


 3991 0268 50       		.byte	0x50
 3992 0269 9F       		.byte	0x9f
 3993 026a 30000000 		.4byte	.LVL52
 3994 026e 3C000000 		.4byte	.LVL54
 3995 0272 0100     		.2byte	0x1
 3996 0274 50       		.byte	0x50
 3997 0275 3C000000 		.4byte	.LVL54
 3998 0279 48000000 		.4byte	.LVL56
 3999 027d 0100     		.2byte	0x1
 4000 027f 54       		.byte	0x54
 4001 0280 48000000 		.4byte	.LVL56
 4002 0284 50000000 		.4byte	.LFE19
 4003 0288 0400     		.2byte	0x4
 4004 028a F3       		.byte	0xf3
 4005 028b 01       		.uleb128 0x1
 4006 028c 50       		.byte	0x50
 4007 028d 9F       		.byte	0x9f
 4008 028e 00000000 		.4byte	0
 4009 0292 00000000 		.4byte	0
 4010              	.LVUS26:
 4011 0296 00       		.uleb128 .LVU245
 4012 0297 00       		.uleb128 0
 4013              	.LLST26:
 4014 0298 0C000000 		.4byte	.LVL48
 4015 029c 50000000 		.4byte	.LFE19
 4016 02a0 0100     		.2byte	0x1
 4017 02a2 55       		.byte	0x55
 4018 02a3 00000000 		.4byte	0
 4019 02a7 00000000 		.4byte	0
 4020              	.LVUS27:
 4021 02ab 00       		.uleb128 .LVU251
 4022 02ac 00       		.uleb128 .LVU252
 4023 02ad 00       		.uleb128 .LVU252
 4024 02ae 00       		.uleb128 .LVU261
 4025 02af 00       		.uleb128 .LVU261
 4026 02b0 00       		.uleb128 .LVU264
 4027 02b1 00       		.uleb128 .LVU264
 4028 02b2 00       		.uleb128 .LVU265
 4029 02b3 00       		.uleb128 .LVU268
 4030 02b4 00       		.uleb128 0
 4031              	.LLST27:
 4032 02b5 14000000 		.4byte	.LVL49
 4033 02b9 18000000 		.4byte	.LVL50
 4034 02bd 0600     		.2byte	0x6
 4035 02bf 73       		.byte	0x73
 4036 02c0 00       		.sleb128 0
 4037 02c1 70       		.byte	0x70
 4038 02c2 00       		.sleb128 0
 4039 02c3 1A       		.byte	0x1a
 4040 02c4 9F       		.byte	0x9f
 4041 02c5 18000000 		.4byte	.LVL50
 4042 02c9 34000000 		.4byte	.LVL53
 4043 02cd 0100     		.2byte	0x1
 4044 02cf 54       		.byte	0x54
 4045 02d0 34000000 		.4byte	.LVL53
 4046 02d4 3C000000 		.4byte	.LVL54
 4047 02d8 0600     		.2byte	0x6
ARM GAS  /var/folders/l5/0x54b2c10074c8bt31ycjvl80000gp/T//cc6w9WWc.s 			page 72


 4048 02da 73       		.byte	0x73
 4049 02db 00       		.sleb128 0
 4050 02dc 70       		.byte	0x70
 4051 02dd 00       		.sleb128 0
 4052 02de 1A       		.byte	0x1a
 4053 02df 9F       		.byte	0x9f
 4054 02e0 3C000000 		.4byte	.LVL54
 4055 02e4 3F000000 		.4byte	.LVL55-1
 4056 02e8 0600     		.2byte	0x6
 4057 02ea 73       		.byte	0x73
 4058 02eb 00       		.sleb128 0
 4059 02ec 74       		.byte	0x74
 4060 02ed 00       		.sleb128 0
 4061 02ee 1A       		.byte	0x1a
 4062 02ef 9F       		.byte	0x9f
 4063 02f0 48000000 		.4byte	.LVL56
 4064 02f4 50000000 		.4byte	.LFE19
 4065 02f8 0100     		.2byte	0x1
 4066 02fa 54       		.byte	0x54
 4067 02fb 00000000 		.4byte	0
 4068 02ff 00000000 		.4byte	0
 4069              	.LVUS22:
 4070 0303 00       		.uleb128 0
 4071 0304 00       		.uleb128 .LVU221
 4072 0305 00       		.uleb128 .LVU221
 4073 0306 00       		.uleb128 .LVU231
 4074 0307 00       		.uleb128 .LVU231
 4075 0308 00       		.uleb128 .LVU235
 4076 0309 00       		.uleb128 .LVU235
 4077 030a 00       		.uleb128 .LVU239
 4078 030b 00       		.uleb128 .LVU239
 4079 030c 00       		.uleb128 0
 4080              	.LLST22:
 4081 030d 00000000 		.4byte	.LVL36
 4082 0311 1C000000 		.4byte	.LVL40
 4083 0315 0100     		.2byte	0x1
 4084 0317 50       		.byte	0x50
 4085 0318 1C000000 		.4byte	.LVL40
 4086 031c 34000000 		.4byte	.LVL42
 4087 0320 0400     		.2byte	0x4
 4088 0322 F3       		.byte	0xf3
 4089 0323 01       		.uleb128 0x1
 4090 0324 50       		.byte	0x50
 4091 0325 9F       		.byte	0x9f
 4092 0326 34000000 		.4byte	.LVL42
 4093 032a 40000000 		.4byte	.LVL44
 4094 032e 0100     		.2byte	0x1
 4095 0330 50       		.byte	0x50
 4096 0331 40000000 		.4byte	.LVL44
 4097 0335 4C000000 		.4byte	.LVL46
 4098 0339 0100     		.2byte	0x1
 4099 033b 54       		.byte	0x54
 4100 033c 4C000000 		.4byte	.LVL46
 4101 0340 54000000 		.4byte	.LFE18
 4102 0344 0400     		.2byte	0x4
 4103 0346 F3       		.byte	0xf3
 4104 0347 01       		.uleb128 0x1
ARM GAS  /var/folders/l5/0x54b2c10074c8bt31ycjvl80000gp/T//cc6w9WWc.s 			page 73


 4105 0348 50       		.byte	0x50
 4106 0349 9F       		.byte	0x9f
 4107 034a 00000000 		.4byte	0
 4108 034e 00000000 		.4byte	0
 4109              	.LVUS23:
 4110 0352 00       		.uleb128 .LVU213
 4111 0353 00       		.uleb128 0
 4112              	.LLST23:
 4113 0354 0C000000 		.4byte	.LVL37
 4114 0358 54000000 		.4byte	.LFE18
 4115 035c 0100     		.2byte	0x1
 4116 035e 55       		.byte	0x55
 4117 035f 00000000 		.4byte	0
 4118 0363 00000000 		.4byte	0
 4119              	.LVUS24:
 4120 0367 00       		.uleb128 .LVU219
 4121 0368 00       		.uleb128 .LVU220
 4122 0369 00       		.uleb128 .LVU220
 4123 036a 00       		.uleb128 .LVU224
 4124 036b 00       		.uleb128 .LVU224
 4125 036c 00       		.uleb128 .LVU231
 4126 036d 00       		.uleb128 .LVU231
 4127 036e 00       		.uleb128 .LVU232
 4128 036f 00       		.uleb128 .LVU232
 4129 0370 00       		.uleb128 .LVU235
 4130 0371 00       		.uleb128 .LVU235
 4131 0372 00       		.uleb128 .LVU236
 4132 0373 00       		.uleb128 .LVU239
 4133 0374 00       		.uleb128 0
 4134              	.LLST24:
 4135 0375 14000000 		.4byte	.LVL38
 4136 0379 18000000 		.4byte	.LVL39
 4137 037d 0600     		.2byte	0x6
 4138 037f 73       		.byte	0x73
 4139 0380 00       		.sleb128 0
 4140 0381 70       		.byte	0x70
 4141 0382 00       		.sleb128 0
 4142 0383 1A       		.byte	0x1a
 4143 0384 9F       		.byte	0x9f
 4144 0385 18000000 		.4byte	.LVL39
 4145 0389 24000000 		.4byte	.LVL41
 4146 038d 0100     		.2byte	0x1
 4147 038f 54       		.byte	0x54
 4148 0390 24000000 		.4byte	.LVL41
 4149 0394 34000000 		.4byte	.LVL42
 4150 0398 0100     		.2byte	0x1
 4151 039a 50       		.byte	0x50
 4152 039b 34000000 		.4byte	.LVL42
 4153 039f 38000000 		.4byte	.LVL43
 4154 03a3 0100     		.2byte	0x1
 4155 03a5 54       		.byte	0x54
 4156 03a6 38000000 		.4byte	.LVL43
 4157 03aa 40000000 		.4byte	.LVL44
 4158 03ae 0600     		.2byte	0x6
 4159 03b0 73       		.byte	0x73
 4160 03b1 00       		.sleb128 0
 4161 03b2 70       		.byte	0x70
ARM GAS  /var/folders/l5/0x54b2c10074c8bt31ycjvl80000gp/T//cc6w9WWc.s 			page 74


 4162 03b3 00       		.sleb128 0
 4163 03b4 1A       		.byte	0x1a
 4164 03b5 9F       		.byte	0x9f
 4165 03b6 40000000 		.4byte	.LVL44
 4166 03ba 43000000 		.4byte	.LVL45-1
 4167 03be 0600     		.2byte	0x6
 4168 03c0 73       		.byte	0x73
 4169 03c1 00       		.sleb128 0
 4170 03c2 74       		.byte	0x74
 4171 03c3 00       		.sleb128 0
 4172 03c4 1A       		.byte	0x1a
 4173 03c5 9F       		.byte	0x9f
 4174 03c6 4C000000 		.4byte	.LVL46
 4175 03ca 54000000 		.4byte	.LFE18
 4176 03ce 0100     		.2byte	0x1
 4177 03d0 54       		.byte	0x54
 4178 03d1 00000000 		.4byte	0
 4179 03d5 00000000 		.4byte	0
 4180              	.LVUS19:
 4181 03d9 00       		.uleb128 0
 4182 03da 00       		.uleb128 .LVU186
 4183 03db 00       		.uleb128 .LVU186
 4184 03dc 00       		.uleb128 0
 4185              	.LLST19:
 4186 03dd 00000000 		.4byte	.LVL30
 4187 03e1 18000000 		.4byte	.LVL31
 4188 03e5 0100     		.2byte	0x1
 4189 03e7 50       		.byte	0x50
 4190 03e8 18000000 		.4byte	.LVL31
 4191 03ec 54000000 		.4byte	.LFE17
 4192 03f0 0100     		.2byte	0x1
 4193 03f2 57       		.byte	0x57
 4194 03f3 00000000 		.4byte	0
 4195 03f7 00000000 		.4byte	0
 4196              	.LVUS20:
 4197 03fb 00       		.uleb128 0
 4198 03fc 00       		.uleb128 .LVU186
 4199 03fd 00       		.uleb128 .LVU186
 4200 03fe 00       		.uleb128 0
 4201              	.LLST20:
 4202 03ff 00000000 		.4byte	.LVL30
 4203 0403 18000000 		.4byte	.LVL31
 4204 0407 0100     		.2byte	0x1
 4205 0409 51       		.byte	0x51
 4206 040a 18000000 		.4byte	.LVL31
 4207 040e 54000000 		.4byte	.LFE17
 4208 0412 0100     		.2byte	0x1
 4209 0414 55       		.byte	0x55
 4210 0415 00000000 		.4byte	0
 4211 0419 00000000 		.4byte	0
 4212              	.LVUS21:
 4213 041d 05       		.uleb128 .LVU181
 4214 041e 00       		.uleb128 .LVU186
 4215 041f 00       		.uleb128 .LVU186
 4216 0420 00       		.uleb128 0
 4217              	.LLST21:
 4218 0421 00000000 		.4byte	.LVL30
ARM GAS  /var/folders/l5/0x54b2c10074c8bt31ycjvl80000gp/T//cc6w9WWc.s 			page 75


 4219 0425 18000000 		.4byte	.LVL31
 4220 0429 0200     		.2byte	0x2
 4221 042b 30       		.byte	0x30
 4222 042c 9F       		.byte	0x9f
 4223 042d 18000000 		.4byte	.LVL31
 4224 0431 54000000 		.4byte	.LFE17
 4225 0435 0100     		.2byte	0x1
 4226 0437 54       		.byte	0x54
 4227 0438 00000000 		.4byte	0
 4228 043c 00000000 		.4byte	0
 4229              	.LVUS17:
 4230 0440 00       		.uleb128 0
 4231 0441 00       		.uleb128 .LVU172
 4232 0442 00       		.uleb128 .LVU172
 4233 0443 00       		.uleb128 0
 4234              	.LLST17:
 4235 0444 00000000 		.4byte	.LVL28
 4236 0448 0C000000 		.4byte	.LVL29
 4237 044c 0100     		.2byte	0x1
 4238 044e 50       		.byte	0x50
 4239 044f 0C000000 		.4byte	.LVL29
 4240 0453 14000000 		.4byte	.LFE16
 4241 0457 0100     		.2byte	0x1
 4242 0459 53       		.byte	0x53
 4243 045a 00000000 		.4byte	0
 4244 045e 00000000 		.4byte	0
 4245              	.LVUS18:
 4246 0462 00       		.uleb128 .LVU172
 4247 0463 00       		.uleb128 0
 4248              	.LLST18:
 4249 0464 0C000000 		.4byte	.LVL29
 4250 0468 14000000 		.4byte	.LFE16
 4251 046c 0100     		.2byte	0x1
 4252 046e 50       		.byte	0x50
 4253 046f 00000000 		.4byte	0
 4254 0473 00000000 		.4byte	0
 4255              	.LVUS15:
 4256 0477 00       		.uleb128 0
 4257 0478 00       		.uleb128 .LVU161
 4258 0479 00       		.uleb128 .LVU161
 4259 047a 00       		.uleb128 0
 4260              	.LLST15:
 4261 047b 00000000 		.4byte	.LVL25
 4262 047f 0B000000 		.4byte	.LVL26-1
 4263 0483 0100     		.2byte	0x1
 4264 0485 50       		.byte	0x50
 4265 0486 0B000000 		.4byte	.LVL26-1
 4266 048a 18000000 		.4byte	.LFE15
 4267 048e 0400     		.2byte	0x4
 4268 0490 F3       		.byte	0xf3
 4269 0491 01       		.uleb128 0x1
 4270 0492 50       		.byte	0x50
 4271 0493 9F       		.byte	0x9f
 4272 0494 00000000 		.4byte	0
 4273 0498 00000000 		.4byte	0
 4274              	.LVUS16:
 4275 049c 00       		.uleb128 0
ARM GAS  /var/folders/l5/0x54b2c10074c8bt31ycjvl80000gp/T//cc6w9WWc.s 			page 76


 4276 049d 00       		.uleb128 .LVU161
 4277 049e 00       		.uleb128 .LVU161
 4278 049f 00       		.uleb128 0
 4279              	.LLST16:
 4280 04a0 00000000 		.4byte	.LVL25
 4281 04a4 0B000000 		.4byte	.LVL26-1
 4282 04a8 0100     		.2byte	0x1
 4283 04aa 51       		.byte	0x51
 4284 04ab 0B000000 		.4byte	.LVL26-1
 4285 04af 18000000 		.4byte	.LFE15
 4286 04b3 0400     		.2byte	0x4
 4287 04b5 F3       		.byte	0xf3
 4288 04b6 01       		.uleb128 0x1
 4289 04b7 51       		.byte	0x51
 4290 04b8 9F       		.byte	0x9f
 4291 04b9 00000000 		.4byte	0
 4292 04bd 00000000 		.4byte	0
 4293              	.LVUS13:
 4294 04c1 00       		.uleb128 0
 4295 04c2 00       		.uleb128 .LVU149
 4296 04c3 00       		.uleb128 .LVU149
 4297 04c4 00       		.uleb128 0
 4298              	.LLST13:
 4299 04c5 00000000 		.4byte	.LVL22
 4300 04c9 0B000000 		.4byte	.LVL23-1
 4301 04cd 0100     		.2byte	0x1
 4302 04cf 50       		.byte	0x50
 4303 04d0 0B000000 		.4byte	.LVL23-1
 4304 04d4 18000000 		.4byte	.LFE13
 4305 04d8 0400     		.2byte	0x4
 4306 04da F3       		.byte	0xf3
 4307 04db 01       		.uleb128 0x1
 4308 04dc 50       		.byte	0x50
 4309 04dd 9F       		.byte	0x9f
 4310 04de 00000000 		.4byte	0
 4311 04e2 00000000 		.4byte	0
 4312              	.LVUS14:
 4313 04e6 00       		.uleb128 0
 4314 04e7 00       		.uleb128 .LVU149
 4315 04e8 00       		.uleb128 .LVU149
 4316 04e9 00       		.uleb128 0
 4317              	.LLST14:
 4318 04ea 00000000 		.4byte	.LVL22
 4319 04ee 0B000000 		.4byte	.LVL23-1
 4320 04f2 0100     		.2byte	0x1
 4321 04f4 51       		.byte	0x51
 4322 04f5 0B000000 		.4byte	.LVL23-1
 4323 04f9 18000000 		.4byte	.LFE13
 4324 04fd 0400     		.2byte	0x4
 4325 04ff F3       		.byte	0xf3
 4326 0500 01       		.uleb128 0x1
 4327 0501 51       		.byte	0x51
 4328 0502 9F       		.byte	0x9f
 4329 0503 00000000 		.4byte	0
 4330 0507 00000000 		.4byte	0
 4331              	.LVUS4:
 4332 050b 00       		.uleb128 0
ARM GAS  /var/folders/l5/0x54b2c10074c8bt31ycjvl80000gp/T//cc6w9WWc.s 			page 77


 4333 050c 00       		.uleb128 .LVU90
 4334 050d 00       		.uleb128 .LVU90
 4335 050e 00       		.uleb128 0
 4336              	.LLST4:
 4337 050f 00000000 		.4byte	.LVL10
 4338 0513 10000000 		.4byte	.LVL11
 4339 0517 0100     		.2byte	0x1
 4340 0519 50       		.byte	0x50
 4341 051a 10000000 		.4byte	.LVL11
 4342 051e 1C000000 		.4byte	.LFE12
 4343 0522 0100     		.2byte	0x1
 4344 0524 53       		.byte	0x53
 4345 0525 00000000 		.4byte	0
 4346 0529 00000000 		.4byte	0
 4347              	.LVUS5:
 4348 052d 00       		.uleb128 .LVU90
 4349 052e 00       		.uleb128 0
 4350              	.LLST5:
 4351 052f 10000000 		.4byte	.LVL11
 4352 0533 1C000000 		.4byte	.LFE12
 4353 0537 0100     		.2byte	0x1
 4354 0539 50       		.byte	0x50
 4355 053a 00000000 		.4byte	0
 4356 053e 00000000 		.4byte	0
 4357              	.LVUS10:
 4358 0542 00       		.uleb128 0
 4359 0543 00       		.uleb128 .LVU132
 4360 0544 00       		.uleb128 .LVU132
 4361 0545 00       		.uleb128 0
 4362              	.LLST10:
 4363 0546 00000000 		.4byte	.LVL17
 4364 054a 18000000 		.4byte	.LVL19
 4365 054e 0100     		.2byte	0x1
 4366 0550 50       		.byte	0x50
 4367 0551 18000000 		.4byte	.LVL19
 4368 0555 40000000 		.4byte	.LFE11
 4369 0559 0100     		.2byte	0x1
 4370 055b 55       		.byte	0x55
 4371 055c 00000000 		.4byte	0
 4372 0560 00000000 		.4byte	0
 4373              	.LVUS11:
 4374 0564 00       		.uleb128 0
 4375 0565 00       		.uleb128 .LVU132
 4376 0566 00       		.uleb128 .LVU132
 4377 0567 00       		.uleb128 0
 4378              	.LLST11:
 4379 0568 00000000 		.4byte	.LVL17
 4380 056c 18000000 		.4byte	.LVL19
 4381 0570 0100     		.2byte	0x1
 4382 0572 51       		.byte	0x51
 4383 0573 18000000 		.4byte	.LVL19
 4384 0577 40000000 		.4byte	.LFE11
 4385 057b 0100     		.2byte	0x1
 4386 057d 56       		.byte	0x56
 4387 057e 00000000 		.4byte	0
 4388 0582 00000000 		.4byte	0
 4389              	.LVUS12:
ARM GAS  /var/folders/l5/0x54b2c10074c8bt31ycjvl80000gp/T//cc6w9WWc.s 			page 78


 4390 0586 00       		.uleb128 .LVU130
 4391 0587 00       		.uleb128 0
 4392              	.LLST12:
 4393 0588 08000000 		.4byte	.LVL18
 4394 058c 40000000 		.4byte	.LFE11
 4395 0590 0100     		.2byte	0x1
 4396 0592 54       		.byte	0x54
 4397 0593 00000000 		.4byte	0
 4398 0597 00000000 		.4byte	0
 4399              	.LVUS3:
 4400 059b 00       		.uleb128 0
 4401 059c 00       		.uleb128 .LVU74
 4402 059d 00       		.uleb128 .LVU74
 4403 059e 00       		.uleb128 .LVU75
 4404 059f 00       		.uleb128 .LVU75
 4405 05a0 00       		.uleb128 0
 4406              	.LLST3:
 4407 05a1 00000000 		.4byte	.LVL7
 4408 05a5 14000000 		.4byte	.LVL8
 4409 05a9 0100     		.2byte	0x1
 4410 05ab 50       		.byte	0x50
 4411 05ac 14000000 		.4byte	.LVL8
 4412 05b0 18000000 		.4byte	.LVL9
 4413 05b4 0400     		.2byte	0x4
 4414 05b6 F3       		.byte	0xf3
 4415 05b7 01       		.uleb128 0x1
 4416 05b8 50       		.byte	0x50
 4417 05b9 9F       		.byte	0x9f
 4418 05ba 18000000 		.4byte	.LVL9
 4419 05be 24000000 		.4byte	.LFE10
 4420 05c2 0100     		.2byte	0x1
 4421 05c4 50       		.byte	0x50
 4422 05c5 00000000 		.4byte	0
 4423 05c9 00000000 		.4byte	0
 4424              	.LVUS1:
 4425 05cd 00       		.uleb128 0
 4426 05ce 00       		.uleb128 .LVU66
 4427 05cf 00       		.uleb128 .LVU66
 4428 05d0 00       		.uleb128 0
 4429              	.LLST1:
 4430 05d1 00000000 		.4byte	.LVL4
 4431 05d5 20000000 		.4byte	.LVL6
 4432 05d9 0100     		.2byte	0x1
 4433 05db 50       		.byte	0x50
 4434 05dc 20000000 		.4byte	.LVL6
 4435 05e0 28000000 		.4byte	.LFE9
 4436 05e4 0400     		.2byte	0x4
 4437 05e6 F3       		.byte	0xf3
 4438 05e7 01       		.uleb128 0x1
 4439 05e8 50       		.byte	0x50
 4440 05e9 9F       		.byte	0x9f
 4441 05ea 00000000 		.4byte	0
 4442 05ee 00000000 		.4byte	0
 4443              	.LVUS2:
 4444 05f2 00       		.uleb128 .LVU59
 4445 05f3 00       		.uleb128 .LVU66
 4446 05f4 00       		.uleb128 .LVU66
ARM GAS  /var/folders/l5/0x54b2c10074c8bt31ycjvl80000gp/T//cc6w9WWc.s 			page 79


 4447 05f5 00       		.uleb128 0
 4448              	.LLST2:
 4449 05f6 10000000 		.4byte	.LVL5
 4450 05fa 20000000 		.4byte	.LVL6
 4451 05fe 0600     		.2byte	0x6
 4452 0600 73       		.byte	0x73
 4453 0601 00       		.sleb128 0
 4454 0602 70       		.byte	0x70
 4455 0603 00       		.sleb128 0
 4456 0604 1A       		.byte	0x1a
 4457 0605 9F       		.byte	0x9f
 4458 0606 20000000 		.4byte	.LVL6
 4459 060a 28000000 		.4byte	.LFE9
 4460 060e 0100     		.2byte	0x1
 4461 0610 50       		.byte	0x50
 4462 0611 00000000 		.4byte	0
 4463 0615 00000000 		.4byte	0
 4464              	.LVUS0:
 4465 0619 05       		.uleb128 .LVU29
 4466 061a 00       		.uleb128 .LVU35
 4467 061b 00       		.uleb128 .LVU35
 4468 061c 00       		.uleb128 .LVU36
 4469 061d 01       		.uleb128 .LVU37
 4470 061e 00       		.uleb128 0
 4471              	.LLST0:
 4472 061f 00000000 		.4byte	.LVL1
 4473 0623 0C000000 		.4byte	.LVL2
 4474 0627 0100     		.2byte	0x1
 4475 0629 50       		.byte	0x50
 4476 062a 0C000000 		.4byte	.LVL2
 4477 062e 18000000 		.4byte	.LVL3
 4478 0632 0100     		.2byte	0x1
 4479 0634 52       		.byte	0x52
 4480 0635 18000000 		.4byte	.LVL3
 4481 0639 3C000000 		.4byte	.LFE8
 4482 063d 0100     		.2byte	0x1
 4483 063f 52       		.byte	0x52
 4484 0640 00000000 		.4byte	0
 4485 0644 00000000 		.4byte	0
 4486              	.LVUS6:
 4487 0648 00       		.uleb128 0
 4488 0649 00       		.uleb128 .LVU117
 4489 064a 00       		.uleb128 .LVU117
 4490 064b 00       		.uleb128 .LVU119
 4491 064c 00       		.uleb128 .LVU119
 4492 064d 00       		.uleb128 0
 4493              	.LLST6:
 4494 064e 00000000 		.4byte	.LVL12
 4495 0652 33000000 		.4byte	.LVL15-1
 4496 0656 0100     		.2byte	0x1
 4497 0658 50       		.byte	0x50
 4498 0659 33000000 		.4byte	.LVL15-1
 4499 065d 40000000 		.4byte	.LVL16
 4500 0661 0400     		.2byte	0x4
 4501 0663 F3       		.byte	0xf3
 4502 0664 01       		.uleb128 0x1
 4503 0665 50       		.byte	0x50
ARM GAS  /var/folders/l5/0x54b2c10074c8bt31ycjvl80000gp/T//cc6w9WWc.s 			page 80


 4504 0666 9F       		.byte	0x9f
 4505 0667 40000000 		.4byte	.LVL16
 4506 066b 50000000 		.4byte	.LFE14
 4507 066f 0100     		.2byte	0x1
 4508 0671 50       		.byte	0x50
 4509 0672 00000000 		.4byte	0
 4510 0676 00000000 		.4byte	0
 4511              	.LVUS7:
 4512 067a 00       		.uleb128 0
 4513 067b 00       		.uleb128 .LVU106
 4514 067c 00       		.uleb128 .LVU106
 4515 067d 00       		.uleb128 0
 4516              	.LLST7:
 4517 067e 00000000 		.4byte	.LVL12
 4518 0682 0C000000 		.4byte	.LVL13
 4519 0686 0100     		.2byte	0x1
 4520 0688 51       		.byte	0x51
 4521 0689 0C000000 		.4byte	.LVL13
 4522 068d 50000000 		.4byte	.LFE14
 4523 0691 0400     		.2byte	0x4
 4524 0693 F3       		.byte	0xf3
 4525 0694 01       		.uleb128 0x1
 4526 0695 51       		.byte	0x51
 4527 0696 9F       		.byte	0x9f
 4528 0697 00000000 		.4byte	0
 4529 069b 00000000 		.4byte	0
 4530              	.LVUS8:
 4531 069f 01       		.uleb128 .LVU114
 4532 06a0 00       		.uleb128 .LVU119
 4533              	.LLST8:
 4534 06a1 2C000000 		.4byte	.LVL14
 4535 06a5 40000000 		.4byte	.LVL16
 4536 06a9 0400     		.2byte	0x4
 4537 06ab F3       		.byte	0xf3
 4538 06ac 01       		.uleb128 0x1
 4539 06ad 51       		.byte	0x51
 4540 06ae 9F       		.byte	0x9f
 4541 06af 00000000 		.4byte	0
 4542 06b3 00000000 		.4byte	0
 4543              	.LVUS9:
 4544 06b7 00       		.uleb128 .LVU113
 4545 06b8 00       		.uleb128 .LVU117
 4546 06b9 00       		.uleb128 .LVU117
 4547 06ba 00       		.uleb128 .LVU119
 4548              	.LLST9:
 4549 06bb 2C000000 		.4byte	.LVL14
 4550 06bf 33000000 		.4byte	.LVL15-1
 4551 06c3 0100     		.2byte	0x1
 4552 06c5 50       		.byte	0x50
 4553 06c6 33000000 		.4byte	.LVL15-1
 4554 06ca 40000000 		.4byte	.LVL16
 4555 06ce 0400     		.2byte	0x4
 4556 06d0 F3       		.byte	0xf3
 4557 06d1 01       		.uleb128 0x1
 4558 06d2 50       		.byte	0x50
 4559 06d3 9F       		.byte	0x9f
 4560 06d4 00000000 		.4byte	0
ARM GAS  /var/folders/l5/0x54b2c10074c8bt31ycjvl80000gp/T//cc6w9WWc.s 			page 81


 4561 06d8 00000000 		.4byte	0
 4562              		.section	.debug_aranges,"",%progbits
 4563 0000 9C000000 		.4byte	0x9c
 4564 0004 0200     		.2byte	0x2
 4565 0006 00000000 		.4byte	.Ldebug_info0
 4566 000a 04       		.byte	0x4
 4567 000b 00       		.byte	0
 4568 000c 0000     		.2byte	0
 4569 000e 0000     		.2byte	0
 4570 0010 00000000 		.4byte	.LFB7
 4571 0014 34000000 		.4byte	.LFE7-.LFB7
 4572 0018 00000000 		.4byte	.LFB8
 4573 001c 3C000000 		.4byte	.LFE8-.LFB8
 4574 0020 00000000 		.4byte	.LFB9
 4575 0024 28000000 		.4byte	.LFE9-.LFB9
 4576 0028 00000000 		.4byte	.LFB10
 4577 002c 24000000 		.4byte	.LFE10-.LFB10
 4578 0030 00000000 		.4byte	.LFB12
 4579 0034 1C000000 		.4byte	.LFE12-.LFB12
 4580 0038 00000000 		.4byte	.LFB14
 4581 003c 50000000 		.4byte	.LFE14-.LFB14
 4582 0040 00000000 		.4byte	.LFB11
 4583 0044 40000000 		.4byte	.LFE11-.LFB11
 4584 0048 00000000 		.4byte	.LFB13
 4585 004c 18000000 		.4byte	.LFE13-.LFB13
 4586 0050 00000000 		.4byte	.LFB15
 4587 0054 18000000 		.4byte	.LFE15-.LFB15
 4588 0058 00000000 		.4byte	.LFB16
 4589 005c 14000000 		.4byte	.LFE16-.LFB16
 4590 0060 00000000 		.4byte	.LFB17
 4591 0064 54000000 		.4byte	.LFE17-.LFB17
 4592 0068 00000000 		.4byte	.LFB18
 4593 006c 54000000 		.4byte	.LFE18-.LFB18
 4594 0070 00000000 		.4byte	.LFB19
 4595 0074 50000000 		.4byte	.LFE19-.LFB19
 4596 0078 00000000 		.4byte	.LFB20
 4597 007c 48000000 		.4byte	.LFE20-.LFB20
 4598 0080 00000000 		.4byte	.LFB21
 4599 0084 68000000 		.4byte	.LFE21-.LFB21
 4600 0088 00000000 		.4byte	.LFB22
 4601 008c 60000000 		.4byte	.LFE22-.LFB22
 4602 0090 00000000 		.4byte	.LFB23
 4603 0094 70000000 		.4byte	.LFE23-.LFB23
 4604 0098 00000000 		.4byte	0
 4605 009c 00000000 		.4byte	0
 4606              		.section	.debug_ranges,"",%progbits
 4607              	.Ldebug_ranges0:
 4608 0000 2C000000 		.4byte	.LBB4
 4609 0004 2C000000 		.4byte	.LBE4
 4610 0008 30000000 		.4byte	.LBB7
 4611 000c 3C000000 		.4byte	.LBE7
 4612 0010 00000000 		.4byte	0
 4613 0014 00000000 		.4byte	0
 4614 0018 00000000 		.4byte	.LFB7
 4615 001c 34000000 		.4byte	.LFE7
 4616 0020 00000000 		.4byte	.LFB8
 4617 0024 3C000000 		.4byte	.LFE8
ARM GAS  /var/folders/l5/0x54b2c10074c8bt31ycjvl80000gp/T//cc6w9WWc.s 			page 82


 4618 0028 00000000 		.4byte	.LFB9
 4619 002c 28000000 		.4byte	.LFE9
 4620 0030 00000000 		.4byte	.LFB10
 4621 0034 24000000 		.4byte	.LFE10
 4622 0038 00000000 		.4byte	.LFB12
 4623 003c 1C000000 		.4byte	.LFE12
 4624 0040 00000000 		.4byte	.LFB14
 4625 0044 50000000 		.4byte	.LFE14
 4626 0048 00000000 		.4byte	.LFB11
 4627 004c 40000000 		.4byte	.LFE11
 4628 0050 00000000 		.4byte	.LFB13
 4629 0054 18000000 		.4byte	.LFE13
 4630 0058 00000000 		.4byte	.LFB15
 4631 005c 18000000 		.4byte	.LFE15
 4632 0060 00000000 		.4byte	.LFB16
 4633 0064 14000000 		.4byte	.LFE16
 4634 0068 00000000 		.4byte	.LFB17
 4635 006c 54000000 		.4byte	.LFE17
 4636 0070 00000000 		.4byte	.LFB18
 4637 0074 54000000 		.4byte	.LFE18
 4638 0078 00000000 		.4byte	.LFB19
 4639 007c 50000000 		.4byte	.LFE19
 4640 0080 00000000 		.4byte	.LFB20
 4641 0084 48000000 		.4byte	.LFE20
 4642 0088 00000000 		.4byte	.LFB21
 4643 008c 68000000 		.4byte	.LFE21
 4644 0090 00000000 		.4byte	.LFB22
 4645 0094 60000000 		.4byte	.LFE22
 4646 0098 00000000 		.4byte	.LFB23
 4647 009c 70000000 		.4byte	.LFE23
 4648 00a0 00000000 		.4byte	0
 4649 00a4 00000000 		.4byte	0
 4650              		.section	.debug_line,"",%progbits
 4651              	.Ldebug_line0:
 4652 0000 76070000 		.section	.debug_str,"MS",%progbits,1
 4652      03009701 
 4652      00000201 
 4652      FB0E0D00 
 4652      01010101 
 4653              	.LASF95:
 4654 0000 63665F6F 		.ascii	"cf_off_older\000"
 4654      66665F6F 
 4654      6C646572 
 4654      00
 4655              	.LASF40:
 4656 000d 705F6D73 		.ascii	"p_msg\000"
 4656      6700
 4657              	.LASF80:
 4658 0013 7264796D 		.ascii	"rdymsg\000"
 4658      736700
 4659              	.LASF4:
 4660 001a 5F5F7569 		.ascii	"__uint8_t\000"
 4660      6E74385F 
 4660      7400
 4661              	.LASF66:
 4662 0024 76746C69 		.ascii	"vtlist\000"
 4662      737400
ARM GAS  /var/folders/l5/0x54b2c10074c8bt31ycjvl80000gp/T//cc6w9WWc.s 			page 83


 4663              	.LASF119:
 4664 002b 63684576 		.ascii	"chEvtSignal\000"
 4664      74536967 
 4664      6E616C00 
 4665              	.LASF12:
 4666 0037 6C6F6E67 		.ascii	"long long unsigned int\000"
 4666      206C6F6E 
 4666      6720756E 
 4666      7369676E 
 4666      65642069 
 4667              	.LASF122:
 4668 004e 63684576 		.ascii	"chEvtAddEvents\000"
 4668      74416464 
 4668      4576656E 
 4668      747300
 4669              	.LASF91:
 4670 005d 63685F74 		.ascii	"ch_threadsize\000"
 4670      68726561 
 4670      6473697A 
 4670      6500
 4671              	.LASF81:
 4672 006b 65786974 		.ascii	"exitcode\000"
 4672      636F6465 
 4672      00
 4673              	.LASF109:
 4674 0074 63684576 		.ascii	"chEvtWaitAnyTimeout\000"
 4674      74576169 
 4674      74416E79 
 4674      54696D65 
 4674      6F757400 
 4675              	.LASF29:
 4676 0088 705F7072 		.ascii	"p_prio\000"
 4676      696F00
 4677              	.LASF98:
 4678 008f 63665F6F 		.ascii	"cf_off_state\000"
 4678      66665F73 
 4678      74617465 
 4678      00
 4679              	.LASF11:
 4680 009c 6C6F6E67 		.ascii	"long long int\000"
 4680      206C6F6E 
 4680      6720696E 
 4680      7400
 4681              	.LASF1:
 4682 00aa 7369676E 		.ascii	"signed char\000"
 4682      65642063 
 4682      68617200 
 4683              	.LASF97:
 4684 00b6 63665F6F 		.ascii	"cf_off_stklimit\000"
 4684      66665F73 
 4684      746B6C69 
 4684      6D697400 
 4685              	.LASF108:
 4686 00c6 63684576 		.ascii	"chEvtWaitAllTimeout\000"
 4686      74576169 
 4686      74416C6C 
 4686      54696D65 
ARM GAS  /var/folders/l5/0x54b2c10074c8bt31ycjvl80000gp/T//cc6w9WWc.s 			page 84


 4686      6F757400 
 4687              	.LASF99:
 4688 00da 63665F6F 		.ascii	"cf_off_flags\000"
 4688      66665F66 
 4688      6C616773 
 4688      00
 4689              	.LASF69:
 4690 00e7 6D5F7175 		.ascii	"m_queue\000"
 4690      65756500 
 4691              	.LASF85:
 4692 00ef 63685F69 		.ascii	"ch_identifier\000"
 4692      64656E74 
 4692      69666965 
 4692      7200
 4693              	.LASF124:
 4694 00fd 63684576 		.ascii	"chEvtUnregister\000"
 4694      74556E72 
 4694      65676973 
 4694      74657200 
 4695              	.LASF8:
 4696 010d 6C6F6E67 		.ascii	"long int\000"
 4696      20696E74 
 4696      00
 4697              	.LASF18:
 4698 0116 74737461 		.ascii	"tstate_t\000"
 4698      74655F74 
 4698      00
 4699              	.LASF112:
 4700 011f 63684576 		.ascii	"chEvtWaitAny\000"
 4700      74576169 
 4700      74416E79 
 4700      00
 4701              	.LASF126:
 4702 012c 63685363 		.ascii	"chSchGoSleepTimeoutS\000"
 4702      68476F53 
 4702      6C656570 
 4702      54696D65 
 4702      6F757453 
 4703              	.LASF14:
 4704 0141 75696E74 		.ascii	"uint16_t\000"
 4704      31365F74 
 4704      00
 4705              	.LASF103:
 4706 014a 63686465 		.ascii	"chdebug_t\000"
 4706      6275675F 
 4706      7400
 4707              	.LASF121:
 4708 0154 63684576 		.ascii	"chEvtBroadcastFlagsI\000"
 4708      7442726F 
 4708      61646361 
 4708      7374466C 
 4708      61677349 
 4709              	.LASF31:
 4710 0169 705F6E65 		.ascii	"p_newer\000"
 4710      77657200 
 4711              	.LASF105:
 4712 0171 5F69646C 		.ascii	"_idle_thread_wa\000"
ARM GAS  /var/folders/l5/0x54b2c10074c8bt31ycjvl80000gp/T//cc6w9WWc.s 			page 85


 4712      655F7468 
 4712      72656164 
 4712      5F776100 
 4713              	.LASF128:
 4714 0181 63685363 		.ascii	"chSchRescheduleS\000"
 4714      68526573 
 4714      63686564 
 4714      756C6553 
 4714      00
 4715              	.LASF9:
 4716 0192 5F5F7569 		.ascii	"__uint32_t\000"
 4716      6E743332 
 4716      5F7400
 4717              	.LASF106:
 4718 019d 6D61736B 		.ascii	"mask\000"
 4718      00
 4719              	.LASF47:
 4720 01a2 72656761 		.ascii	"regarm_t\000"
 4720      726D5F74 
 4720      00
 4721              	.LASF53:
 4722 01ab 76745F70 		.ascii	"vt_prev\000"
 4722      72657600 
 4723              	.LASF118:
 4724 01b3 63684576 		.ascii	"chEvtBroadcastFlags\000"
 4724      7442726F 
 4724      61646361 
 4724      7374466C 
 4724      61677300 
 4725              	.LASF22:
 4726 01c7 6576656E 		.ascii	"eventid_t\000"
 4726      7469645F 
 4726      7400
 4727              	.LASF77:
 4728 01d1 4576656E 		.ascii	"EventSource\000"
 4728      74536F75 
 4728      72636500 
 4729              	.LASF79:
 4730 01dd 65766861 		.ascii	"evhandler_t\000"
 4730      6E646C65 
 4730      725F7400 
 4731              	.LASF0:
 4732 01e9 756E7369 		.ascii	"unsigned int\000"
 4732      676E6564 
 4732      20696E74 
 4732      00
 4733              	.LASF52:
 4734 01f6 76745F6E 		.ascii	"vt_next\000"
 4734      65787400 
 4735              	.LASF10:
 4736 01fe 6C6F6E67 		.ascii	"long unsigned int\000"
 4736      20756E73 
 4736      69676E65 
 4736      6420696E 
 4736      7400
 4737              	.LASF123:
 4738 0210 63684576 		.ascii	"chEvtGetAndClearEvents\000"
ARM GAS  /var/folders/l5/0x54b2c10074c8bt31ycjvl80000gp/T//cc6w9WWc.s 			page 86


 4738      74476574 
 4738      416E6443 
 4738      6C656172 
 4738      4576656E 
 4739              	.LASF104:
 4740 0227 63685F64 		.ascii	"ch_debug\000"
 4740      65627567 
 4740      00
 4741              	.LASF50:
 4742 0230 76746675 		.ascii	"vtfunc_t\000"
 4742      6E635F74 
 4742      00
 4743              	.LASF49:
 4744 0239 636F6E74 		.ascii	"context\000"
 4744      65787400 
 4745              	.LASF6:
 4746 0241 73686F72 		.ascii	"short unsigned int\000"
 4746      7420756E 
 4746      7369676E 
 4746      65642069 
 4746      6E7400
 4747              	.LASF125:
 4748 0254 63684576 		.ascii	"chEvtRegisterMask\000"
 4748      74526567 
 4748      69737465 
 4748      724D6173 
 4748      6B00
 4749              	.LASF21:
 4750 0266 6D73675F 		.ascii	"msg_t\000"
 4750      7400
 4751              	.LASF62:
 4752 026c 725F6E65 		.ascii	"r_newer\000"
 4752      77657200 
 4753              	.LASF73:
 4754 0274 656C5F6E 		.ascii	"el_next\000"
 4754      65787400 
 4755              	.LASF130:
 4756 027c 474E5520 		.ascii	"GNU C17 8.3.1 20190703 (release) [gcc-8-branch revi"
 4756      43313720 
 4756      382E332E 
 4756      31203230 
 4756      31393037 
 4757 02af 73696F6E 		.ascii	"sion 273027] -mcpu=arm1176jz-s -mno-thumb-interwork"
 4757      20323733 
 4757      3032375D 
 4757      202D6D63 
 4757      70753D61 
 4758 02e2 202D6D66 		.ascii	" -mfloat-abi=soft -marm -march=armv6kz -ggdb -O2 -f"
 4758      6C6F6174 
 4758      2D616269 
 4758      3D736F66 
 4758      74202D6D 
 4759 0315 6F6D6974 		.ascii	"omit-frame-pointer -ffunction-sections -fdata-secti"
 4759      2D667261 
 4759      6D652D70 
 4759      6F696E74 
 4759      6572202D 
ARM GAS  /var/folders/l5/0x54b2c10074c8bt31ycjvl80000gp/T//cc6w9WWc.s 			page 87


 4760 0348 6F6E7300 		.ascii	"ons\000"
 4761              	.LASF17:
 4762 034c 746D6F64 		.ascii	"tmode_t\000"
 4762      655F7400 
 4763              	.LASF45:
 4764 0354 54687265 		.ascii	"ThreadsList\000"
 4764      6164734C 
 4764      69737400 
 4765              	.LASF23:
 4766 0360 6576656E 		.ascii	"eventmask_t\000"
 4766      746D6173 
 4766      6B5F7400 
 4767              	.LASF68:
 4768 036c 4D757465 		.ascii	"Mutex\000"
 4768      7800
 4769              	.LASF46:
 4770 0372 73746B61 		.ascii	"stkalign_t\000"
 4770      6C69676E 
 4770      5F7400
 4771              	.LASF86:
 4772 037d 63685F7A 		.ascii	"ch_zero\000"
 4772      65726F00 
 4773              	.LASF100:
 4774 0385 63665F6F 		.ascii	"cf_off_refs\000"
 4774      66665F72 
 4774      65667300 
 4775              	.LASF54:
 4776 0391 76745F74 		.ascii	"vt_time\000"
 4776      696D6500 
 4777              	.LASF55:
 4778 0399 76745F66 		.ascii	"vt_func\000"
 4778      756E6300 
 4779              	.LASF117:
 4780 03a1 63684576 		.ascii	"chEvtDispatch\000"
 4780      74446973 
 4780      70617463 
 4780      6800
 4781              	.LASF90:
 4782 03af 63685F74 		.ascii	"ch_timesize\000"
 4782      696D6573 
 4782      697A6500 
 4783              	.LASF96:
 4784 03bb 63665F6F 		.ascii	"cf_off_name\000"
 4784      66665F6E 
 4784      616D6500 
 4785              	.LASF32:
 4786 03c7 705F6F6C 		.ascii	"p_older\000"
 4786      64657200 
 4787              	.LASF61:
 4788 03cf 725F6374 		.ascii	"r_ctx\000"
 4788      7800
 4789              	.LASF44:
 4790 03d5 54687265 		.ascii	"ThreadsQueue\000"
 4790      61647351 
 4790      75657565 
 4790      00
 4791              	.LASF87:
ARM GAS  /var/folders/l5/0x54b2c10074c8bt31ycjvl80000gp/T//cc6w9WWc.s 			page 88


 4792 03e2 63685F73 		.ascii	"ch_size\000"
 4792      697A6500 
 4793              	.LASF107:
 4794 03ea 74696D65 		.ascii	"time\000"
 4794      00
 4795              	.LASF111:
 4796 03ef 63684576 		.ascii	"chEvtWaitAll\000"
 4796      74576169 
 4796      74416C6C 
 4796      00
 4797              	.LASF64:
 4798 03fc 725F6375 		.ascii	"r_current\000"
 4798      7272656E 
 4798      7400
 4799              	.LASF63:
 4800 0406 725F6F6C 		.ascii	"r_older\000"
 4800      64657200 
 4801              	.LASF75:
 4802 040e 656C5F6D 		.ascii	"el_mask\000"
 4802      61736B00 
 4803              	.LASF114:
 4804 0416 68616E64 		.ascii	"handlers\000"
 4804      6C657273 
 4804      00
 4805              	.LASF19:
 4806 041f 74726566 		.ascii	"trefs_t\000"
 4806      735F7400 
 4807              	.LASF89:
 4808 0427 63685F70 		.ascii	"ch_ptrsize\000"
 4808      74727369 
 4808      7A6500
 4809              	.LASF28:
 4810 0432 705F7072 		.ascii	"p_prev\000"
 4810      657600
 4811              	.LASF20:
 4812 0439 74707269 		.ascii	"tprio_t\000"
 4812      6F5F7400 
 4813              	.LASF15:
 4814 0441 696E7433 		.ascii	"int32_t\000"
 4814      325F7400 
 4815              	.LASF2:
 4816 0449 756E7369 		.ascii	"unsigned char\000"
 4816      676E6564 
 4816      20636861 
 4816      7200
 4817              	.LASF113:
 4818 0457 63684576 		.ascii	"chEvtWaitOne\000"
 4818      74576169 
 4818      744F6E65 
 4818      00
 4819              	.LASF74:
 4820 0464 656C5F6C 		.ascii	"el_listener\000"
 4820      69737465 
 4820      6E657200 
 4821              	.LASF76:
 4822 0470 656C5F66 		.ascii	"el_flags\000"
 4822      6C616773 
ARM GAS  /var/folders/l5/0x54b2c10074c8bt31ycjvl80000gp/T//cc6w9WWc.s 			page 89


 4822      00
 4823              	.LASF42:
 4824 0479 705F6D74 		.ascii	"p_mtxlist\000"
 4824      786C6973 
 4824      7400
 4825              	.LASF3:
 4826 0483 73686F72 		.ascii	"short int\000"
 4826      7420696E 
 4826      7400
 4827              	.LASF34:
 4828 048d 705F7374 		.ascii	"p_state\000"
 4828      61746500 
 4829              	.LASF102:
 4830 0495 63665F6F 		.ascii	"cf_off_time\000"
 4830      66665F74 
 4830      696D6500 
 4831              	.LASF60:
 4832 04a1 725F7072 		.ascii	"r_prio\000"
 4832      696F00
 4833              	.LASF115:
 4834 04a8 63684576 		.ascii	"chEvtGetAndClearFlagsI\000"
 4834      74476574 
 4834      416E6443 
 4834      6C656172 
 4834      466C6167 
 4835              	.LASF83:
 4836 04bf 65776D61 		.ascii	"ewmask\000"
 4836      736B00
 4837              	.LASF27:
 4838 04c6 705F6E65 		.ascii	"p_next\000"
 4838      787400
 4839              	.LASF101:
 4840 04cd 63665F6F 		.ascii	"cf_off_preempt\000"
 4840      66665F70 
 4840      7265656D 
 4840      707400
 4841              	.LASF35:
 4842 04dc 705F666C 		.ascii	"p_flags\000"
 4842      61677300 
 4843              	.LASF26:
 4844 04e4 54687265 		.ascii	"Thread\000"
 4844      616400
 4845              	.LASF94:
 4846 04eb 63665F6F 		.ascii	"cf_off_newer\000"
 4846      66665F6E 
 4846      65776572 
 4846      00
 4847              	.LASF127:
 4848 04f8 63685363 		.ascii	"chSchGoSleepS\000"
 4848      68476F53 
 4848      6C656570 
 4848      5300
 4849              	.LASF41:
 4850 0506 705F6570 		.ascii	"p_epending\000"
 4850      656E6469 
 4850      6E6700
 4851              	.LASF16:
ARM GAS  /var/folders/l5/0x54b2c10074c8bt31ycjvl80000gp/T//cc6w9WWc.s 			page 90


 4852 0511 75696E74 		.ascii	"uint32_t\000"
 4852      33325F74 
 4852      00
 4853              	.LASF92:
 4854 051a 63665F6F 		.ascii	"cf_off_prio\000"
 4854      66665F70 
 4854      72696F00 
 4855              	.LASF59:
 4856 0526 725F7175 		.ascii	"r_queue\000"
 4856      65756500 
 4857              	.LASF51:
 4858 052e 56697274 		.ascii	"VirtualTimer\000"
 4858      75616C54 
 4858      696D6572 
 4858      00
 4859              	.LASF84:
 4860 053b 63686172 		.ascii	"char\000"
 4860      00
 4861              	.LASF5:
 4862 0540 5F5F7569 		.ascii	"__uint16_t\000"
 4862      6E743136 
 4862      5F7400
 4863              	.LASF129:
 4864 054b 63685363 		.ascii	"chSchReadyI\000"
 4864      68526561 
 4864      64794900 
 4865              	.LASF71:
 4866 0557 6D5F6E65 		.ascii	"m_next\000"
 4866      787400
 4867              	.LASF25:
 4868 055e 73797374 		.ascii	"systime_t\000"
 4868      696D655F 
 4868      7400
 4869              	.LASF43:
 4870 0568 705F7265 		.ascii	"p_realprio\000"
 4870      616C7072 
 4870      696F00
 4871              	.LASF7:
 4872 0573 5F5F696E 		.ascii	"__int32_t\000"
 4872      7433325F 
 4872      7400
 4873              	.LASF37:
 4874 057d 705F7469 		.ascii	"p_time\000"
 4874      6D6500
 4875              	.LASF48:
 4876 0584 696E7463 		.ascii	"intctx\000"
 4876      747800
 4877              	.LASF39:
 4878 058b 705F6D73 		.ascii	"p_msgqueue\000"
 4878      67717565 
 4878      756500
 4879              	.LASF56:
 4880 0596 76745F70 		.ascii	"vt_par\000"
 4880      617200
 4881              	.LASF24:
 4882 059d 666C6167 		.ascii	"flagsmask_t\000"
 4882      736D6173 
ARM GAS  /var/folders/l5/0x54b2c10074c8bt31ycjvl80000gp/T//cc6w9WWc.s 			page 91


 4882      6B5F7400 
 4883              	.LASF93:
 4884 05a9 63665F6F 		.ascii	"cf_off_ctx\000"
 4884      66665F63 
 4884      747800
 4885              	.LASF36:
 4886 05b4 705F7265 		.ascii	"p_refs\000"
 4886      667300
 4887              	.LASF65:
 4888 05bb 52656164 		.ascii	"ReadyList\000"
 4888      794C6973 
 4888      7400
 4889              	.LASF67:
 4890 05c5 726C6973 		.ascii	"rlist\000"
 4890      7400
 4891              	.LASF13:
 4892 05cb 75696E74 		.ascii	"uint8_t\000"
 4892      385F7400 
 4893              	.LASF116:
 4894 05d3 666C6167 		.ascii	"flags\000"
 4894      7300
 4895              	.LASF131:
 4896 05d9 2E2E2F2E 		.ascii	"../../os/kernel/src/chevents.c\000"
 4896      2E2F6F73 
 4896      2F6B6572 
 4896      6E656C2F 
 4896      7372632F 
 4897              	.LASF72:
 4898 05f8 4576656E 		.ascii	"EventListener\000"
 4898      744C6973 
 4898      74656E65 
 4898      7200
 4899              	.LASF110:
 4900 0606 63684576 		.ascii	"chEvtWaitOneTimeout\000"
 4900      74576169 
 4900      744F6E65 
 4900      54696D65 
 4900      6F757400 
 4901              	.LASF82:
 4902 061a 77746F62 		.ascii	"wtobjp\000"
 4902      6A7000
 4903              	.LASF33:
 4904 0621 705F6E61 		.ascii	"p_name\000"
 4904      6D6500
 4905              	.LASF57:
 4906 0628 76745F73 		.ascii	"vt_systime\000"
 4906      79737469 
 4906      6D6500
 4907              	.LASF78:
 4908 0633 65735F6E 		.ascii	"es_next\000"
 4908      65787400 
 4909              	.LASF120:
 4910 063b 63684576 		.ascii	"chEvtGetAndClearFlags\000"
 4910      74476574 
 4910      416E6443 
 4910      6C656172 
 4910      466C6167 
ARM GAS  /var/folders/l5/0x54b2c10074c8bt31ycjvl80000gp/T//cc6w9WWc.s 			page 92


 4911              	.LASF88:
 4912 0651 63685F76 		.ascii	"ch_version\000"
 4912      65727369 
 4912      6F6E00
 4913              	.LASF132:
 4914 065c 2F557365 		.ascii	"/Users/fernandoguirado/eclipse-workspace/ChibiOS-RP"
 4914      72732F66 
 4914      65726E61 
 4914      6E646F67 
 4914      75697261 
 4915 068f 692D636F 		.ascii	"i-copia/demos/timers\000"
 4915      7069612F 
 4915      64656D6F 
 4915      732F7469 
 4915      6D657273 
 4916              	.LASF58:
 4917 06a4 56544C69 		.ascii	"VTList\000"
 4917      737400
 4918              	.LASF70:
 4919 06ab 6D5F6F77 		.ascii	"m_owner\000"
 4919      6E657200 
 4920              	.LASF30:
 4921 06b3 705F6374 		.ascii	"p_ctx\000"
 4921      7800
 4922              	.LASF38:
 4923 06b9 705F7761 		.ascii	"p_waiting\000"
 4923      6974696E 
 4923      6700
 4924              	.LASF133:
 4925 06c3 63684576 		.ascii	"chEvtSignalI\000"
 4925      74536967 
 4925      6E616C49 
 4925      00
 4926              		.ident	"GCC: (GNU Tools for Arm Embedded Processors 8-2019-q3-update) 8.3.1 20190703 (release) [gc
ARM GAS  /var/folders/l5/0x54b2c10074c8bt31ycjvl80000gp/T//cc6w9WWc.s 			page 93


DEFINED SYMBOLS
                            *ABS*:0000000000000000 chevents.c
/var/folders/l5/0x54b2c10074c8bt31ycjvl80000gp/T//cc6w9WWc.s:16     .text.chEvtRegisterMask:0000000000000000 $a
/var/folders/l5/0x54b2c10074c8bt31ycjvl80000gp/T//cc6w9WWc.s:23     .text.chEvtRegisterMask:0000000000000000 chEvtRegisterMask
/var/folders/l5/0x54b2c10074c8bt31ycjvl80000gp/T//cc6w9WWc.s:81     .text.chEvtRegisterMask:0000000000000030 $d
/var/folders/l5/0x54b2c10074c8bt31ycjvl80000gp/T//cc6w9WWc.s:86     .text.chEvtUnregister:0000000000000000 $a
/var/folders/l5/0x54b2c10074c8bt31ycjvl80000gp/T//cc6w9WWc.s:92     .text.chEvtUnregister:0000000000000000 chEvtUnregister
/var/folders/l5/0x54b2c10074c8bt31ycjvl80000gp/T//cc6w9WWc.s:165    .text.chEvtGetAndClearEvents:0000000000000000 $a
/var/folders/l5/0x54b2c10074c8bt31ycjvl80000gp/T//cc6w9WWc.s:171    .text.chEvtGetAndClearEvents:0000000000000000 chEvtGetAndClearEvents
/var/folders/l5/0x54b2c10074c8bt31ycjvl80000gp/T//cc6w9WWc.s:218    .text.chEvtGetAndClearEvents:0000000000000024 $d
/var/folders/l5/0x54b2c10074c8bt31ycjvl80000gp/T//cc6w9WWc.s:223    .text.chEvtAddEvents:0000000000000000 $a
/var/folders/l5/0x54b2c10074c8bt31ycjvl80000gp/T//cc6w9WWc.s:229    .text.chEvtAddEvents:0000000000000000 chEvtAddEvents
/var/folders/l5/0x54b2c10074c8bt31ycjvl80000gp/T//cc6w9WWc.s:272    .text.chEvtAddEvents:0000000000000020 $d
/var/folders/l5/0x54b2c10074c8bt31ycjvl80000gp/T//cc6w9WWc.s:277    .text.chEvtGetAndClearFlags:0000000000000000 $a
/var/folders/l5/0x54b2c10074c8bt31ycjvl80000gp/T//cc6w9WWc.s:283    .text.chEvtGetAndClearFlags:0000000000000000 chEvtGetAndClearFlags
/var/folders/l5/0x54b2c10074c8bt31ycjvl80000gp/T//cc6w9WWc.s:329    .text.chEvtSignalI:0000000000000000 $a
/var/folders/l5/0x54b2c10074c8bt31ycjvl80000gp/T//cc6w9WWc.s:335    .text.chEvtSignalI:0000000000000000 chEvtSignalI
/var/folders/l5/0x54b2c10074c8bt31ycjvl80000gp/T//cc6w9WWc.s:410    .text.chEvtBroadcastFlagsI:0000000000000000 $a
/var/folders/l5/0x54b2c10074c8bt31ycjvl80000gp/T//cc6w9WWc.s:416    .text.chEvtBroadcastFlagsI:0000000000000000 chEvtBroadcastFlagsI
/var/folders/l5/0x54b2c10074c8bt31ycjvl80000gp/T//cc6w9WWc.s:471    .text.chEvtSignal:0000000000000000 $a
/var/folders/l5/0x54b2c10074c8bt31ycjvl80000gp/T//cc6w9WWc.s:477    .text.chEvtSignal:0000000000000000 chEvtSignal
/var/folders/l5/0x54b2c10074c8bt31ycjvl80000gp/T//cc6w9WWc.s:522    .text.chEvtBroadcastFlags:0000000000000000 $a
/var/folders/l5/0x54b2c10074c8bt31ycjvl80000gp/T//cc6w9WWc.s:528    .text.chEvtBroadcastFlags:0000000000000000 chEvtBroadcastFlags
/var/folders/l5/0x54b2c10074c8bt31ycjvl80000gp/T//cc6w9WWc.s:571    .text.chEvtGetAndClearFlagsI:0000000000000000 $a
/var/folders/l5/0x54b2c10074c8bt31ycjvl80000gp/T//cc6w9WWc.s:577    .text.chEvtGetAndClearFlagsI:0000000000000000 chEvtGetAndClearFlagsI
/var/folders/l5/0x54b2c10074c8bt31ycjvl80000gp/T//cc6w9WWc.s:604    .text.chEvtDispatch:0000000000000000 $a
/var/folders/l5/0x54b2c10074c8bt31ycjvl80000gp/T//cc6w9WWc.s:610    .text.chEvtDispatch:0000000000000000 chEvtDispatch
/var/folders/l5/0x54b2c10074c8bt31ycjvl80000gp/T//cc6w9WWc.s:688    .text.chEvtWaitOne:0000000000000000 $a
/var/folders/l5/0x54b2c10074c8bt31ycjvl80000gp/T//cc6w9WWc.s:694    .text.chEvtWaitOne:0000000000000000 chEvtWaitOne
/var/folders/l5/0x54b2c10074c8bt31ycjvl80000gp/T//cc6w9WWc.s:782    .text.chEvtWaitOne:0000000000000050 $d
/var/folders/l5/0x54b2c10074c8bt31ycjvl80000gp/T//cc6w9WWc.s:787    .text.chEvtWaitAny:0000000000000000 $a
/var/folders/l5/0x54b2c10074c8bt31ycjvl80000gp/T//cc6w9WWc.s:793    .text.chEvtWaitAny:0000000000000000 chEvtWaitAny
/var/folders/l5/0x54b2c10074c8bt31ycjvl80000gp/T//cc6w9WWc.s:876    .text.chEvtWaitAny:000000000000004c $d
/var/folders/l5/0x54b2c10074c8bt31ycjvl80000gp/T//cc6w9WWc.s:881    .text.chEvtWaitAll:0000000000000000 $a
/var/folders/l5/0x54b2c10074c8bt31ycjvl80000gp/T//cc6w9WWc.s:887    .text.chEvtWaitAll:0000000000000000 chEvtWaitAll
/var/folders/l5/0x54b2c10074c8bt31ycjvl80000gp/T//cc6w9WWc.s:955    .text.chEvtWaitAll:0000000000000044 $d
/var/folders/l5/0x54b2c10074c8bt31ycjvl80000gp/T//cc6w9WWc.s:960    .text.chEvtWaitOneTimeout:0000000000000000 $a
/var/folders/l5/0x54b2c10074c8bt31ycjvl80000gp/T//cc6w9WWc.s:966    .text.chEvtWaitOneTimeout:0000000000000000 chEvtWaitOneTimeout
/var/folders/l5/0x54b2c10074c8bt31ycjvl80000gp/T//cc6w9WWc.s:1061   .text.chEvtWaitOneTimeout:0000000000000064 $d
/var/folders/l5/0x54b2c10074c8bt31ycjvl80000gp/T//cc6w9WWc.s:1066   .text.chEvtWaitAnyTimeout:0000000000000000 $a
/var/folders/l5/0x54b2c10074c8bt31ycjvl80000gp/T//cc6w9WWc.s:1072   .text.chEvtWaitAnyTimeout:0000000000000000 chEvtWaitAnyTimeout
/var/folders/l5/0x54b2c10074c8bt31ycjvl80000gp/T//cc6w9WWc.s:1161   .text.chEvtWaitAnyTimeout:000000000000005c $d
/var/folders/l5/0x54b2c10074c8bt31ycjvl80000gp/T//cc6w9WWc.s:1166   .text.chEvtWaitAllTimeout:0000000000000000 $a
/var/folders/l5/0x54b2c10074c8bt31ycjvl80000gp/T//cc6w9WWc.s:1172   .text.chEvtWaitAllTimeout:0000000000000000 chEvtWaitAllTimeout
/var/folders/l5/0x54b2c10074c8bt31ycjvl80000gp/T//cc6w9WWc.s:1277   .text.chEvtWaitAllTimeout:000000000000006c $d

UNDEFINED SYMBOLS
rlist
chSchReadyI
chSchRescheduleS
chSchGoSleepS
chSchGoSleepTimeoutS
