ARM GAS  /var/folders/l5/0x54b2c10074c8bt31ycjvl80000gp/T//ccne7TWQ.s 			page 1


   1              		.cpu arm1176jz-s
   2              		.eabi_attribute 20, 1
   3              		.eabi_attribute 21, 1
   4              		.eabi_attribute 23, 3
   5              		.eabi_attribute 24, 1
   6              		.eabi_attribute 25, 1
   7              		.eabi_attribute 26, 1
   8              		.eabi_attribute 30, 2
   9              		.eabi_attribute 34, 1
  10              		.eabi_attribute 18, 4
  11              		.file	"chmemcore.c"
  12              		.text
  13              	.Ltext0:
  14              		.cfi_sections	.debug_frame
  15              		.section	.text._core_init,"ax",%progbits
  16              		.align	2
  17              		.global	_core_init
  18              		.arch armv6kz
  19              		.syntax unified
  20              		.arm
  21              		.fpu softvfp
  22              		.type	_core_init, %function
  23              	_core_init:
  24              	.LFB7:
  25              		.file 1 "../../os/kernel/src/chmemcore.c"
  26              		.loc 1 59 23 view -0
  27              		.cfi_startproc
  28              		@ args = 0, pretend = 0, frame = 0
  29              		@ frame_needed = 0, uses_anonymous_args = 0
  30              		@ link register save eliminated.
  31              		.loc 1 61 3 view .LVU1
  32              		.loc 1 62 3 view .LVU2
  33              		.loc 1 63 3 view .LVU3
  34              		.loc 1 63 24 is_stmt 0 view .LVU4
  35 0000 1C209FE5 		ldr	r2, .L3
  36              		.loc 1 64 23 view .LVU5
  37 0004 1C309FE5 		ldr	r3, .L3+4
  38              		.loc 1 63 11 view .LVU6
  39 0008 1C009FE5 		ldr	r0, .L3+8
  40              		.loc 1 64 10 view .LVU7
  41 000c 1C109FE5 		ldr	r1, .L3+12
  42              		.loc 1 63 24 view .LVU8
  43 0010 0320C2E3 		bic	r2, r2, #3
  44              		.loc 1 64 23 view .LVU9
  45 0014 0330C3E3 		bic	r3, r3, #3
  46              		.loc 1 63 11 view .LVU10
  47 0018 002080E5 		str	r2, [r0]
  48              		.loc 1 64 3 is_stmt 1 view .LVU11
  49              		.loc 1 64 10 is_stmt 0 view .LVU12
  50 001c 003081E5 		str	r3, [r1]
  51              		.loc 1 70 1 view .LVU13
  52 0020 1EFF2FE1 		bx	lr
  53              	.L4:
  54              		.align	2
  55              	.L3:
  56 0024 03000000 		.word	__heap_base__+3
  57 0028 00000000 		.word	__heap_end__
ARM GAS  /var/folders/l5/0x54b2c10074c8bt31ycjvl80000gp/T//ccne7TWQ.s 			page 2


  58 002c 00000000 		.word	.LANCHOR0
  59 0030 00000000 		.word	.LANCHOR1
  60              		.cfi_endproc
  61              	.LFE7:
  62              		.size	_core_init, .-_core_init
  63              		.section	.text.chCoreAlloc,"ax",%progbits
  64              		.align	2
  65              		.global	chCoreAlloc
  66              		.syntax unified
  67              		.arm
  68              		.fpu softvfp
  69              		.type	chCoreAlloc, %function
  70              	chCoreAlloc:
  71              	.LVL0:
  72              	.LFB8:
  73              		.loc 1 84 32 is_stmt 1 view -0
  74              		.cfi_startproc
  75              		@ args = 0, pretend = 0, frame = 0
  76              		@ frame_needed = 0, uses_anonymous_args = 0
  77              		@ link register save eliminated.
  78              		.loc 1 85 3 view .LVU15
  79              		.loc 1 87 3 view .LVU16
  80              		.loc 1 84 32 is_stmt 0 view .LVU17
  81 0000 0030A0E1 		mov	r3, r0
  82              		.loc 1 87 3 view .LVU18
  83              		.syntax divided
  84              	@ 87 "../../os/kernel/src/chmemcore.c" 1
  85 0004 9FF021E3 		msr     CPSR_c, #0x9F
  86              	@ 0 "" 2
  87              		.loc 1 87 3 is_stmt 1 view .LVU19
  88              		.loc 1 87 14 view .LVU20
  89              		.loc 1 88 3 view .LVU21
  90              	.LVL1:
  91              		.arm
  92              		.syntax unified
  93              	.LBB4:
  94              	.LBI4:
  95              		.loc 1 105 7 view .LVU22
  96              	.LBB5:
  97              		.loc 1 106 3 view .LVU23
  98              		.loc 1 108 3 view .LVU24
  99              		.loc 1 108 21 view .LVU25
 100              		.loc 1 110 3 view .LVU26
 101              		.loc 1 111 23 is_stmt 0 view .LVU27
 102 0008 2C109FE5 		ldr	r1, .L8
 103 000c 2C209FE5 		ldr	r2, .L8+4
 104 0010 000091E5 		ldr	r0, [r1]
 105              	.LVL2:
 106              		.loc 1 111 23 view .LVU28
 107 0014 002092E5 		ldr	r2, [r2]
 108              		.loc 1 110 10 view .LVU29
 109 0018 033083E2 		add	r3, r3, #3
 110              	.LVL3:
 111              		.loc 1 110 8 view .LVU30
 112 001c 0330C3E3 		bic	r3, r3, #3
 113              	.LVL4:
 114              		.loc 1 111 3 is_stmt 1 view .LVU31
ARM GAS  /var/folders/l5/0x54b2c10074c8bt31ycjvl80000gp/T//ccne7TWQ.s 			page 3


 115              		.loc 1 111 23 is_stmt 0 view .LVU32
 116 0020 002042E0 		sub	r2, r2, r0
 117              		.loc 1 111 6 view .LVU33
 118 0024 020053E1 		cmp	r3, r2
 119              		.loc 1 113 3 is_stmt 1 view .LVU34
 120              	.LVL5:
 121              		.loc 1 114 3 view .LVU35
 122              		.loc 1 114 11 is_stmt 0 view .LVU36
 123 0028 03308090 		addls	r3, r0, r3
 124              	.LVL6:
 125              		.loc 1 114 11 view .LVU37
 126 002c 00308195 		strls	r3, [r1]
 127              		.loc 1 115 3 is_stmt 1 view .LVU38
 128              		.loc 1 112 12 is_stmt 0 view .LVU39
 129 0030 0000A083 		movhi	r0, #0
 130              	.LVL7:
 131              		.loc 1 112 12 view .LVU40
 132              	.LBE5:
 133              	.LBE4:
 134              		.loc 1 89 3 is_stmt 1 view .LVU41
 135              		.loc 1 89 3 view .LVU42
 136              		.syntax divided
 137              	@ 89 "../../os/kernel/src/chmemcore.c" 1
 138 0034 1FF021E3 		msr     CPSR_c, #0x1F
 139              	@ 0 "" 2
 140              		.loc 1 89 16 view .LVU43
 141              		.loc 1 90 3 view .LVU44
 142              		.loc 1 91 1 is_stmt 0 view .LVU45
 143              		.arm
 144              		.syntax unified
 145 0038 1EFF2FE1 		bx	lr
 146              	.L9:
 147              		.align	2
 148              	.L8:
 149 003c 00000000 		.word	.LANCHOR0
 150 0040 00000000 		.word	.LANCHOR1
 151              		.cfi_endproc
 152              	.LFE8:
 153              		.size	chCoreAlloc, .-chCoreAlloc
 154              		.section	.text.chCoreAllocI,"ax",%progbits
 155              		.align	2
 156              		.global	chCoreAllocI
 157              		.syntax unified
 158              		.arm
 159              		.fpu softvfp
 160              		.type	chCoreAllocI, %function
 161              	chCoreAllocI:
 162              	.LVL8:
 163              	.LFB9:
 164              		.loc 1 105 33 is_stmt 1 view -0
 165              		.cfi_startproc
 166              		@ args = 0, pretend = 0, frame = 0
 167              		@ frame_needed = 0, uses_anonymous_args = 0
 168              		@ link register save eliminated.
 169              		.loc 1 106 3 view .LVU47
 170              		.loc 1 108 3 view .LVU48
 171              		.loc 1 108 21 view .LVU49
ARM GAS  /var/folders/l5/0x54b2c10074c8bt31ycjvl80000gp/T//ccne7TWQ.s 			page 4


 172              		.loc 1 110 3 view .LVU50
 173              		.loc 1 111 23 is_stmt 0 view .LVU51
 174 0000 2C109FE5 		ldr	r1, .L13
 175 0004 2C309FE5 		ldr	r3, .L13+4
 176 0008 002091E5 		ldr	r2, [r1]
 177 000c 003093E5 		ldr	r3, [r3]
 178              		.loc 1 110 10 view .LVU52
 179 0010 030080E2 		add	r0, r0, #3
 180              	.LVL9:
 181              		.loc 1 110 8 view .LVU53
 182 0014 0300C0E3 		bic	r0, r0, #3
 183              	.LVL10:
 184              		.loc 1 111 3 is_stmt 1 view .LVU54
 185              		.loc 1 111 23 is_stmt 0 view .LVU55
 186 0018 023043E0 		sub	r3, r3, r2
 187              		.loc 1 111 6 view .LVU56
 188 001c 000053E1 		cmp	r3, r0
 189              		.loc 1 113 3 is_stmt 1 view .LVU57
 190              	.LVL11:
 191              		.loc 1 114 3 view .LVU58
 192              		.loc 1 112 12 is_stmt 0 view .LVU59
 193 0020 0020A033 		movcc	r2, #0
 194              	.LVL12:
 195              		.loc 1 114 11 view .LVU60
 196 0024 00008220 		addcs	r0, r2, r0
 197              	.LVL13:
 198              		.loc 1 114 11 view .LVU61
 199 0028 00008125 		strcs	r0, [r1]
 200              	.LVL14:
 201              		.loc 1 115 3 is_stmt 1 view .LVU62
 202              		.loc 1 116 1 is_stmt 0 view .LVU63
 203 002c 0200A0E1 		mov	r0, r2
 204 0030 1EFF2FE1 		bx	lr
 205              	.L14:
 206              		.align	2
 207              	.L13:
 208 0034 00000000 		.word	.LANCHOR0
 209 0038 00000000 		.word	.LANCHOR1
 210              		.cfi_endproc
 211              	.LFE9:
 212              		.size	chCoreAllocI, .-chCoreAllocI
 213              		.section	.text.chCoreStatus,"ax",%progbits
 214              		.align	2
 215              		.global	chCoreStatus
 216              		.syntax unified
 217              		.arm
 218              		.fpu softvfp
 219              		.type	chCoreStatus, %function
 220              	chCoreStatus:
 221              	.LFB10:
 222              		.loc 1 125 27 is_stmt 1 view -0
 223              		.cfi_startproc
 224              		@ args = 0, pretend = 0, frame = 0
 225              		@ frame_needed = 0, uses_anonymous_args = 0
 226              		@ link register save eliminated.
 227              		.loc 1 127 3 view .LVU65
 228              		.loc 1 127 26 is_stmt 0 view .LVU66
ARM GAS  /var/folders/l5/0x54b2c10074c8bt31ycjvl80000gp/T//ccne7TWQ.s 			page 5


 229 0000 10209FE5 		ldr	r2, .L16
 230 0004 10309FE5 		ldr	r3, .L16+4
 231 0008 000092E5 		ldr	r0, [r2]
 232 000c 003093E5 		ldr	r3, [r3]
 233              		.loc 1 128 1 view .LVU67
 234 0010 030040E0 		sub	r0, r0, r3
 235 0014 1EFF2FE1 		bx	lr
 236              	.L17:
 237              		.align	2
 238              	.L16:
 239 0018 00000000 		.word	.LANCHOR1
 240 001c 00000000 		.word	.LANCHOR0
 241              		.cfi_endproc
 242              	.LFE10:
 243              		.size	chCoreStatus, .-chCoreStatus
 244              		.section	.bss.endmem,"aw",%nobits
 245              		.align	2
 246              		.set	.LANCHOR1,. + 0
 247              		.type	endmem, %object
 248              		.size	endmem, 4
 249              	endmem:
 250 0000 00000000 		.space	4
 251              		.section	.bss.nextmem,"aw",%nobits
 252              		.align	2
 253              		.set	.LANCHOR0,. + 0
 254              		.type	nextmem, %object
 255              		.size	nextmem, 4
 256              	nextmem:
 257 0000 00000000 		.space	4
 258              		.text
 259              	.Letext0:
 260              		.file 2 "/usr/local/Cellar/arm-gcc-bin/8-2019-q3-update/lib/gcc/arm-none-eabi/8.3.1/include/stddef
 261              		.file 3 "/usr/local/Cellar/arm-gcc-bin/8-2019-q3-update/arm-none-eabi/include/machine/_default_typ
 262              		.file 4 "/usr/local/Cellar/arm-gcc-bin/8-2019-q3-update/arm-none-eabi/include/sys/_stdint.h"
 263              		.file 5 "../../os/ports/GCC/ARM/chtypes.h"
 264              		.file 6 "../../os/kernel/include/chlists.h"
 265              		.file 7 "../../os/kernel/include/chthreads.h"
 266              		.file 8 "../../os/ports/GCC/ARM/chcore.h"
 267              		.file 9 "../../os/kernel/include/chvt.h"
 268              		.file 10 "../../os/kernel/include/chschd.h"
 269              		.file 11 "../../os/kernel/include/chmtx.h"
 270              		.file 12 "../../os/kernel/include/chregistry.h"
 271              		.file 13 "../../os/kernel/include/ch.h"