ARM GAS  /var/folders/l5/0x54b2c10074c8bt31ycjvl80000gp/T//ccqOlie5.s 			page 1


   1              		.cpu arm1176jz-s
   2              		.eabi_attribute 20, 1
   3              		.eabi_attribute 21, 1
   4              		.eabi_attribute 23, 3
   5              		.eabi_attribute 24, 1
   6              		.eabi_attribute 25, 1
   7              		.eabi_attribute 26, 1
   8              		.eabi_attribute 30, 2
   9              		.eabi_attribute 34, 1
  10              		.eabi_attribute 18, 4
  11              		.file	"chmsg.c"
  12              		.text
  13              	.Ltext0:
  14              		.cfi_sections	.debug_frame
  15              		.section	.text.chMsgSend,"ax",%progbits
  16              		.align	2
  17              		.global	chMsgSend
  18              		.arch armv6kz
  19              		.syntax unified
  20              		.arm
  21              		.fpu softvfp
  22              		.type	chMsgSend, %function
  23              	chMsgSend:
  24              	.LVL0:
  25              	.LFB7:
  26              		.file 1 "../../os/kernel/src/chmsg.c"
  27              		.loc 1 68 40 view -0
  28              		.cfi_startproc
  29              		@ args = 0, pretend = 0, frame = 0
  30              		@ frame_needed = 0, uses_anonymous_args = 0
  31              		.loc 1 69 3 view .LVU1
  32              		.loc 1 69 11 is_stmt 0 view .LVU2
  33 0000 50309FE5 		ldr	r3, .L6
  34              		.loc 1 68 40 view .LVU3
  35 0004 10402DE9 		push	{r4, lr}
  36              		.cfi_def_cfa_offset 8
  37              		.cfi_offset 4, -8
  38              		.cfi_offset 14, -4
  39              		.loc 1 69 11 view .LVU4
  40 0008 184093E5 		ldr	r4, [r3, #24]
  41              	.LVL1:
  42              		.loc 1 71 3 is_stmt 1 view .LVU5
  43              		.loc 1 71 38 view .LVU6
  44              		.loc 1 73 3 view .LVU7
  45              		.syntax divided
  46              	@ 73 "../../os/kernel/src/chmsg.c" 1
  47 000c 9FF021E3 		msr     CPSR_c, #0x9F
  48              	@ 0 "" 2
  49              		.loc 1 73 3 view .LVU8
  50              		.loc 1 73 14 view .LVU9
  51              		.loc 1 74 3 view .LVU10
  52              		.arm
  53              		.syntax unified
  54              	.LBB6:
  55              	.LBB7:
  56              		.file 2 "../../os/kernel/include/chinline.h"
  57              		.loc 2 48 19 is_stmt 0 view .LVU11
ARM GAS  /var/folders/l5/0x54b2c10074c8bt31ycjvl80000gp/T//ccqOlie5.s 			page 2


  58 0010 302090E5 		ldr	r2, [r0, #48]
  59              	.LBE7:
  60              	.LBE6:
  61              		.loc 1 75 21 view .LVU12
  62 0014 2CC080E2 		add	ip, r0, #44
  63              		.loc 1 74 14 view .LVU13
  64 0018 341084E5 		str	r1, [r4, #52]
  65              		.loc 1 75 3 is_stmt 1 view .LVU14
  66              	.LBB10:
  67              	.LBB8:
  68              		.loc 2 48 14 is_stmt 0 view .LVU15
  69 001c 042084E5 		str	r2, [r4, #4]
  70              	.LBE8:
  71              	.LBE10:
  72              		.loc 1 75 19 view .LVU16
  73 0020 24C084E5 		str	ip, [r4, #36]
  74              		.loc 1 76 3 is_stmt 1 view .LVU17
  75              	.LVL2:
  76              	.LBB11:
  77              	.LBI6:
  78              		.loc 2 45 20 view .LVU18
  79              	.LBB9:
  80              		.loc 2 47 3 view .LVU19
  81              		.loc 2 47 14 is_stmt 0 view .LVU20
  82 0024 00C084E5 		str	ip, [r4]
  83              		.loc 2 48 3 is_stmt 1 view .LVU21
  84              		.loc 2 49 3 view .LVU22
  85              		.loc 2 49 36 is_stmt 0 view .LVU23
  86 0028 304080E5 		str	r4, [r0, #48]
  87              		.loc 2 49 22 view .LVU24
  88 002c 004082E5 		str	r4, [r2]
  89              	.LVL3:
  90              		.loc 2 49 22 view .LVU25
  91              	.LBE9:
  92              	.LBE11:
  93              		.loc 1 77 3 is_stmt 1 view .LVU26
  94              		.loc 1 77 6 is_stmt 0 view .LVU27
  95 0030 1C30D0E5 		ldrb	r3, [r0, #28]	@ zero_extendqisi2
  96 0034 0C0053E3 		cmp	r3, #12
  97 0038 0400000A 		beq	.L5
  98              	.LVL4:
  99              	.L2:
 100              		.loc 1 79 3 is_stmt 1 view .LVU28
 101 003c 0A00A0E3 		mov	r0, #10
 102 0040 FEFFFFEB 		bl	chSchGoSleepS
 103              	.LVL5:
 104              		.loc 1 80 3 view .LVU29
 105              		.loc 1 80 7 is_stmt 0 view .LVU30
 106 0044 240094E5 		ldr	r0, [r4, #36]
 107              	.LVL6:
 108              		.loc 1 81 3 is_stmt 1 view .LVU31
 109              		.loc 1 81 3 view .LVU32
 110              		.syntax divided
 111              	@ 81 "../../os/kernel/src/chmsg.c" 1
 112 0048 1FF021E3 		msr     CPSR_c, #0x1F
 113              	@ 0 "" 2
 114              		.loc 1 81 16 view .LVU33
ARM GAS  /var/folders/l5/0x54b2c10074c8bt31ycjvl80000gp/T//ccqOlie5.s 			page 3


 115              		.loc 1 82 3 view .LVU34
 116              		.loc 1 83 1 is_stmt 0 view .LVU35
 117              		.arm
 118              		.syntax unified
 119 004c 1080BDE8 		pop	{r4, pc}
 120              	.LVL7:
 121              	.L5:
 122              		.loc 1 78 5 is_stmt 1 view .LVU36
 123 0050 FEFFFFEB 		bl	chSchReadyI
 124              	.LVL8:
 125              		.loc 1 78 5 is_stmt 0 view .LVU37
 126 0054 F8FFFFEA 		b	.L2
 127              	.L7:
 128              		.align	2
 129              	.L6:
 130 0058 00000000 		.word	rlist
 131              		.cfi_endproc
 132              	.LFE7:
 133              		.size	chMsgSend, .-chMsgSend
 134              		.section	.text.chMsgWait,"ax",%progbits
 135              		.align	2
 136              		.global	chMsgWait
 137              		.syntax unified
 138              		.arm
 139              		.fpu softvfp
 140              		.type	chMsgWait, %function
 141              	chMsgWait:
 142              	.LFB8:
 143              		.loc 1 99 25 is_stmt 1 view -0
 144              		.cfi_startproc
 145              		@ args = 0, pretend = 0, frame = 0
 146              		@ frame_needed = 0, uses_anonymous_args = 0
 147              		.loc 1 100 3 view .LVU39
 148              		.loc 1 102 3 view .LVU40
 149              		.loc 1 99 25 is_stmt 0 view .LVU41
 150 0000 10402DE9 		push	{r4, lr}
 151              		.cfi_def_cfa_offset 8
 152              		.cfi_offset 4, -8
 153              		.cfi_offset 14, -4
 154              		.loc 1 102 3 view .LVU42
 155              		.syntax divided
 156              	@ 102 "../../os/kernel/src/chmsg.c" 1
 157 0004 9FF021E3 		msr     CPSR_c, #0x9F
 158              	@ 0 "" 2
 159              		.loc 1 102 3 is_stmt 1 view .LVU43
 160              		.loc 1 102 14 view .LVU44
 161              		.loc 1 103 3 view .LVU45
 162              		.loc 1 103 8 is_stmt 0 view .LVU46
 163              		.arm
 164              		.syntax unified
 165 0008 44409FE5 		ldr	r4, .L12
 166 000c 182094E5 		ldr	r2, [r4, #24]
 167 0010 0230A0E1 		mov	r3, r2
 168 0014 2C00B3E5 		ldr	r0, [r3, #44]!
 169              		.loc 1 103 6 view .LVU47
 170 0018 030050E1 		cmp	r0, r3
 171 001c 0600000A 		beq	.L11
ARM GAS  /var/folders/l5/0x54b2c10074c8bt31ycjvl80000gp/T//ccqOlie5.s 			page 4


 172              	.L9:
 173              		.loc 1 105 3 is_stmt 1 view .LVU48
 174              	.LVL9:
 175              	.LBB12:
 176              	.LBI12:
 177              		.loc 2 52 23 view .LVU49
 178              	.LBB13:
 179              		.loc 2 53 3 view .LVU50
 180              		.loc 2 55 3 view .LVU51
 181              	.LBE13:
 182              	.LBE12:
 183              		.loc 1 106 15 is_stmt 0 view .LVU52
 184 0020 0BC0A0E3 		mov	ip, #11
 185              	.LBB15:
 186              	.LBB14:
 187              		.loc 2 55 20 view .LVU53
 188 0024 001090E5 		ldr	r1, [r0]
 189              		.loc 2 55 16 view .LVU54
 190 0028 2C1082E5 		str	r1, [r2, #44]
 191              	.LVL10:
 192              		.loc 2 55 38 view .LVU55
 193 002c 043081E5 		str	r3, [r1, #4]
 194              		.loc 2 56 3 is_stmt 1 view .LVU56
 195              	.LVL11:
 196              		.loc 2 56 3 is_stmt 0 view .LVU57
 197              	.LBE14:
 198              	.LBE15:
 199              		.loc 1 106 3 is_stmt 1 view .LVU58
 200              		.loc 1 106 15 is_stmt 0 view .LVU59
 201 0030 1CC0C0E5 		strb	ip, [r0, #28]
 202              		.loc 1 107 3 is_stmt 1 view .LVU60
 203              		.loc 1 107 3 view .LVU61
 204              		.syntax divided
 205              	@ 107 "../../os/kernel/src/chmsg.c" 1
 206 0034 1FF021E3 		msr     CPSR_c, #0x1F
 207              	@ 0 "" 2
 208              		.loc 1 107 16 view .LVU62
 209              		.loc 1 108 3 view .LVU63
 210              		.loc 1 109 1 is_stmt 0 view .LVU64
 211              		.arm
 212              		.syntax unified
 213 0038 1080BDE8 		pop	{r4, pc}
 214              	.L11:
 215              		.loc 1 104 5 is_stmt 1 view .LVU65
 216 003c 0C00A0E3 		mov	r0, #12
 217 0040 FEFFFFEB 		bl	chSchGoSleepS
 218              	.LVL12:
 219 0044 182094E5 		ldr	r2, [r4, #24]
 220 0048 2C0092E5 		ldr	r0, [r2, #44]
 221 004c 2C3082E2 		add	r3, r2, #44
 222 0050 F2FFFFEA 		b	.L9
 223              	.L13:
 224              		.align	2
 225              	.L12:
 226 0054 00000000 		.word	rlist
 227              		.cfi_endproc
 228              	.LFE8:
ARM GAS  /var/folders/l5/0x54b2c10074c8bt31ycjvl80000gp/T//ccqOlie5.s 			page 5


 229              		.size	chMsgWait, .-chMsgWait
 230              		.section	.text.chMsgRelease,"ax",%progbits
 231              		.align	2
 232              		.global	chMsgRelease
 233              		.syntax unified
 234              		.arm
 235              		.fpu softvfp
 236              		.type	chMsgRelease, %function
 237              	chMsgRelease:
 238              	.LVL13:
 239              	.LFB9:
 240              		.loc 1 121 42 view -0
 241              		.cfi_startproc
 242              		@ args = 0, pretend = 0, frame = 0
 243              		@ frame_needed = 0, uses_anonymous_args = 0
 244              		.loc 1 123 3 view .LVU67
 245              		.loc 1 121 42 is_stmt 0 view .LVU68
 246 0000 10402DE9 		push	{r4, lr}
 247              		.cfi_def_cfa_offset 8
 248              		.cfi_offset 4, -8
 249              		.cfi_offset 14, -4
 250              		.loc 1 123 3 view .LVU69
 251              		.syntax divided
 252              	@ 123 "../../os/kernel/src/chmsg.c" 1
 253 0004 9FF021E3 		msr     CPSR_c, #0x9F
 254              	@ 0 "" 2
 255              		.loc 1 123 3 is_stmt 1 view .LVU70
 256              		.loc 1 123 14 view .LVU71
 257              		.loc 1 124 3 view .LVU72
 258              		.loc 1 125 53 view .LVU73
 259              		.loc 1 126 3 view .LVU74
 260              		.arm
 261              		.syntax unified
 262 0008 FEFFFFEB 		bl	chSchWakeupS
 263              	.LVL14:
 264              		.loc 1 127 3 view .LVU75
 265              		.loc 1 127 3 view .LVU76
 266              		.syntax divided
 267              	@ 127 "../../os/kernel/src/chmsg.c" 1
 268 000c 1FF021E3 		msr     CPSR_c, #0x1F
 269              	@ 0 "" 2
 270              		.loc 1 127 16 view .LVU77
 271              		.loc 1 128 1 is_stmt 0 view .LVU78
 272              		.arm
 273              		.syntax unified
 274 0010 1080BDE8 		pop	{r4, pc}
 275              		.cfi_endproc
 276              	.LFE9:
 277              		.size	chMsgRelease, .-chMsgRelease
 278              		.text
 279              	.Letext0:
 280              		.file 3 "/usr/local/Cellar/arm-gcc-bin/8-2019-q3-update/arm-none-eabi/include/machine/_default_typ
 281              		.file 4 "/usr/local/Cellar/arm-gcc-bin/8-2019-q3-update/arm-none-eabi/include/sys/_stdint.h"
 282              		.file 5 "../../os/ports/GCC/ARM/chtypes.h"
 283              		.file 6 "../../os/kernel/include/chlists.h"
 284              		.file 7 "../../os/kernel/include/chthreads.h"
 285              		.file 8 "../../os/ports/GCC/ARM/chcore.h"
ARM GAS  /var/folders/l5/0x54b2c10074c8bt31ycjvl80000gp/T//ccqOlie5.s 			page 6


 286              		.file 9 "../../os/kernel/include/chvt.h"
 287              		.file 10 "../../os/kernel/include/chschd.h"
 288              		.file 11 "../../os/kernel/include/chmtx.h"
 289              		.file 12 "../../os/kernel/include/chregistry.h"
 290              		.file 13 "../../os/kernel/include/ch.h"