ARM GAS  /var/folders/l5/0x54b2c10074c8bt31ycjvl80000gp/T//ccqOlie5.s 			page 1


   1              		.cpu arm1176jz-s
   2              		.eabi_attribute 20, 1
   3              		.eabi_attribute 21, 1
   4              		.eabi_attribute 23, 3
   5              		.eabi_attribute 24, 1
   6              		.eabi_attribute 25, 1
   7              		.eabi_attribute 26, 1
   8              		.eabi_attribute 30, 2
   9              		.eabi_attribute 34, 1
  10              		.eabi_attribute 18, 4
  11              		.file	"chmsg.c"
  12              		.text
  13              	.Ltext0:
  14              		.cfi_sections	.debug_frame
  15              		.section	.text.chMsgSend,"ax",%progbits
  16              		.align	2
  17              		.global	chMsgSend
  18              		.arch armv6kz
  19              		.syntax unified
  20              		.arm
  21              		.fpu softvfp
  22              		.type	chMsgSend, %function
  23              	chMsgSend:
  24              	.LVL0:
  25              	.LFB7:
  26              		.file 1 "../../os/kernel/src/chmsg.c"
  27              		.loc 1 68 40 view -0
  28              		.cfi_startproc
  29              		@ args = 0, pretend = 0, frame = 0
  30              		@ frame_needed = 0, uses_anonymous_args = 0
  31              		.loc 1 69 3 view .LVU1
  32              		.loc 1 69 11 is_stmt 0 view .LVU2
  33 0000 50309FE5 		ldr	r3, .L6
  34              		.loc 1 68 40 view .LVU3
  35 0004 10402DE9 		push	{r4, lr}
  36              		.cfi_def_cfa_offset 8
  37              		.cfi_offset 4, -8
  38              		.cfi_offset 14, -4
  39              		.loc 1 69 11 view .LVU4
  40 0008 184093E5 		ldr	r4, [r3, #24]
  41              	.LVL1:
  42              		.loc 1 71 3 is_stmt 1 view .LVU5
  43              		.loc 1 71 38 view .LVU6
  44              		.loc 1 73 3 view .LVU7
  45              		.syntax divided
  46              	@ 73 "../../os/kernel/src/chmsg.c" 1
  47 000c 9FF021E3 		msr     CPSR_c, #0x9F
  48              	@ 0 "" 2
  49              		.loc 1 73 3 view .LVU8
  50              		.loc 1 73 14 view .LVU9
  51              		.loc 1 74 3 view .LVU10
  52              		.arm
  53              		.syntax unified
  54              	.LBB6:
  55              	.LBB7:
  56              		.file 2 "../../os/kernel/include/chinline.h"
  57              		.loc 2 48 19 is_stmt 0 view .LVU11
ARM GAS  /var/folders/l5/0x54b2c10074c8bt31ycjvl80000gp/T//ccqOlie5.s 			page 2


  58 0010 302090E5 		ldr	r2, [r0, #48]
  59              	.LBE7:
  60              	.LBE6:
  61              		.loc 1 75 21 view .LVU12
  62 0014 2CC080E2 		add	ip, r0, #44
  63              		.loc 1 74 14 view .LVU13
  64 0018 341084E5 		str	r1, [r4, #52]
  65              		.loc 1 75 3 is_stmt 1 view .LVU14
  66              	.LBB10:
  67              	.LBB8:
  68              		.loc 2 48 14 is_stmt 0 view .LVU15
  69 001c 042084E5 		str	r2, [r4, #4]
  70              	.LBE8:
  71              	.LBE10:
  72              		.loc 1 75 19 view .LVU16
  73 0020 24C084E5 		str	ip, [r4, #36]
  74              		.loc 1 76 3 is_stmt 1 view .LVU17
  75              	.LVL2:
  76              	.LBB11:
  77              	.LBI6:
  78              		.loc 2 45 20 view .LVU18
  79              	.LBB9:
  80              		.loc 2 47 3 view .LVU19
  81              		.loc 2 47 14 is_stmt 0 view .LVU20
  82 0024 00C084E5 		str	ip, [r4]
  83              		.loc 2 48 3 is_stmt 1 view .LVU21
  84              		.loc 2 49 3 view .LVU22
  85              		.loc 2 49 36 is_stmt 0 view .LVU23
  86 0028 304080E5 		str	r4, [r0, #48]
  87              		.loc 2 49 22 view .LVU24
  88 002c 004082E5 		str	r4, [r2]
  89              	.LVL3:
  90              		.loc 2 49 22 view .LVU25
  91              	.LBE9:
  92              	.LBE11:
  93              		.loc 1 77 3 is_stmt 1 view .LVU26
  94              		.loc 1 77 6 is_stmt 0 view .LVU27
  95 0030 1C30D0E5 		ldrb	r3, [r0, #28]	@ zero_extendqisi2
  96 0034 0C0053E3 		cmp	r3, #12
  97 0038 0400000A 		beq	.L5
  98              	.LVL4:
  99              	.L2:
 100              		.loc 1 79 3 is_stmt 1 view .LVU28
 101 003c 0A00A0E3 		mov	r0, #10
 102 0040 FEFFFFEB 		bl	chSchGoSleepS
 103              	.LVL5:
 104              		.loc 1 80 3 view .LVU29
 105              		.loc 1 80 7 is_stmt 0 view .LVU30
 106 0044 240094E5 		ldr	r0, [r4, #36]
 107              	.LVL6:
 108              		.loc 1 81 3 is_stmt 1 view .LVU31
 109              		.loc 1 81 3 view .LVU32
 110              		.syntax divided
 111              	@ 81 "../../os/kernel/src/chmsg.c" 1
 112 0048 1FF021E3 		msr     CPSR_c, #0x1F
 113              	@ 0 "" 2
 114              		.loc 1 81 16 view .LVU33
ARM GAS  /var/folders/l5/0x54b2c10074c8bt31ycjvl80000gp/T//ccqOlie5.s 			page 3


 115              		.loc 1 82 3 view .LVU34
 116              		.loc 1 83 1 is_stmt 0 view .LVU35
 117              		.arm
 118              		.syntax unified
 119 004c 1080BDE8 		pop	{r4, pc}
 120              	.LVL7:
 121              	.L5:
 122              		.loc 1 78 5 is_stmt 1 view .LVU36
 123 0050 FEFFFFEB 		bl	chSchReadyI
 124              	.LVL8:
 125              		.loc 1 78 5 is_stmt 0 view .LVU37
 126 0054 F8FFFFEA 		b	.L2
 127              	.L7:
 128              		.align	2
 129              	.L6:
 130 0058 00000000 		.word	rlist
 131              		.cfi_endproc
 132              	.LFE7:
 133              		.size	chMsgSend, .-chMsgSend
 134              		.section	.text.chMsgWait,"ax",%progbits
 135              		.align	2
 136              		.global	chMsgWait
 137              		.syntax unified
 138              		.arm
 139              		.fpu softvfp
 140              		.type	chMsgWait, %function
 141              	chMsgWait:
 142              	.LFB8:
 143              		.loc 1 99 25 is_stmt 1 view -0
 144              		.cfi_startproc
 145              		@ args = 0, pretend = 0, frame = 0
 146              		@ frame_needed = 0, uses_anonymous_args = 0
 147              		.loc 1 100 3 view .LVU39
 148              		.loc 1 102 3 view .LVU40
 149              		.loc 1 99 25 is_stmt 0 view .LVU41
 150 0000 10402DE9 		push	{r4, lr}
 151              		.cfi_def_cfa_offset 8
 152              		.cfi_offset 4, -8
 153              		.cfi_offset 14, -4
 154              		.loc 1 102 3 view .LVU42
 155              		.syntax divided
 156              	@ 102 "../../os/kernel/src/chmsg.c" 1
 157 0004 9FF021E3 		msr     CPSR_c, #0x9F
 158              	@ 0 "" 2
 159              		.loc 1 102 3 is_stmt 1 view .LVU43
 160              		.loc 1 102 14 view .LVU44
 161              		.loc 1 103 3 view .LVU45
 162              		.loc 1 103 8 is_stmt 0 view .LVU46
 163              		.arm
 164              		.syntax unified
 165 0008 44409FE5 		ldr	r4, .L12
 166 000c 182094E5 		ldr	r2, [r4, #24]
 167 0010 0230A0E1 		mov	r3, r2
 168 0014 2C00B3E5 		ldr	r0, [r3, #44]!
 169              		.loc 1 103 6 view .LVU47
 170 0018 030050E1 		cmp	r0, r3
 171 001c 0600000A 		beq	.L11
ARM GAS  /var/folders/l5/0x54b2c10074c8bt31ycjvl80000gp/T//ccqOlie5.s 			page 4


 172              	.L9:
 173              		.loc 1 105 3 is_stmt 1 view .LVU48
 174              	.LVL9:
 175              	.LBB12:
 176              	.LBI12:
 177              		.loc 2 52 23 view .LVU49
 178              	.LBB13:
 179              		.loc 2 53 3 view .LVU50
 180              		.loc 2 55 3 view .LVU51
 181              	.LBE13:
 182              	.LBE12:
 183              		.loc 1 106 15 is_stmt 0 view .LVU52
 184 0020 0BC0A0E3 		mov	ip, #11
 185              	.LBB15:
 186              	.LBB14:
 187              		.loc 2 55 20 view .LVU53
 188 0024 001090E5 		ldr	r1, [r0]
 189              		.loc 2 55 16 view .LVU54
 190 0028 2C1082E5 		str	r1, [r2, #44]
 191              	.LVL10:
 192              		.loc 2 55 38 view .LVU55
 193 002c 043081E5 		str	r3, [r1, #4]
 194              		.loc 2 56 3 is_stmt 1 view .LVU56
 195              	.LVL11:
 196              		.loc 2 56 3 is_stmt 0 view .LVU57
 197              	.LBE14:
 198              	.LBE15:
 199              		.loc 1 106 3 is_stmt 1 view .LVU58
 200              		.loc 1 106 15 is_stmt 0 view .LVU59
 201 0030 1CC0C0E5 		strb	ip, [r0, #28]
 202              		.loc 1 107 3 is_stmt 1 view .LVU60
 203              		.loc 1 107 3 view .LVU61
 204              		.syntax divided
 205              	@ 107 "../../os/kernel/src/chmsg.c" 1
 206 0034 1FF021E3 		msr     CPSR_c, #0x1F
 207              	@ 0 "" 2
 208              		.loc 1 107 16 view .LVU62
 209              		.loc 1 108 3 view .LVU63
 210              		.loc 1 109 1 is_stmt 0 view .LVU64
 211              		.arm
 212              		.syntax unified
 213 0038 1080BDE8 		pop	{r4, pc}
 214              	.L11:
 215              		.loc 1 104 5 is_stmt 1 view .LVU65
 216 003c 0C00A0E3 		mov	r0, #12
 217 0040 FEFFFFEB 		bl	chSchGoSleepS
 218              	.LVL12:
 219 0044 182094E5 		ldr	r2, [r4, #24]
 220 0048 2C0092E5 		ldr	r0, [r2, #44]
 221 004c 2C3082E2 		add	r3, r2, #44
 222 0050 F2FFFFEA 		b	.L9
 223              	.L13:
 224              		.align	2
 225              	.L12:
 226 0054 00000000 		.word	rlist
 227              		.cfi_endproc
 228              	.LFE8:
ARM GAS  /var/folders/l5/0x54b2c10074c8bt31ycjvl80000gp/T//ccqOlie5.s 			page 5


 229              		.size	chMsgWait, .-chMsgWait
 230              		.section	.text.chMsgRelease,"ax",%progbits
 231              		.align	2
 232              		.global	chMsgRelease
 233              		.syntax unified
 234              		.arm
 235              		.fpu softvfp
 236              		.type	chMsgRelease, %function
 237              	chMsgRelease:
 238              	.LVL13:
 239              	.LFB9:
 240              		.loc 1 121 42 view -0
 241              		.cfi_startproc
 242              		@ args = 0, pretend = 0, frame = 0
 243              		@ frame_needed = 0, uses_anonymous_args = 0
 244              		.loc 1 123 3 view .LVU67
 245              		.loc 1 121 42 is_stmt 0 view .LVU68
 246 0000 10402DE9 		push	{r4, lr}
 247              		.cfi_def_cfa_offset 8
 248              		.cfi_offset 4, -8
 249              		.cfi_offset 14, -4
 250              		.loc 1 123 3 view .LVU69
 251              		.syntax divided
 252              	@ 123 "../../os/kernel/src/chmsg.c" 1
 253 0004 9FF021E3 		msr     CPSR_c, #0x9F
 254              	@ 0 "" 2
 255              		.loc 1 123 3 is_stmt 1 view .LVU70
 256              		.loc 1 123 14 view .LVU71
 257              		.loc 1 124 3 view .LVU72
 258              		.loc 1 125 53 view .LVU73
 259              		.loc 1 126 3 view .LVU74
 260              		.arm
 261              		.syntax unified
 262 0008 FEFFFFEB 		bl	chSchWakeupS
 263              	.LVL14:
 264              		.loc 1 127 3 view .LVU75
 265              		.loc 1 127 3 view .LVU76
 266              		.syntax divided
 267              	@ 127 "../../os/kernel/src/chmsg.c" 1
 268 000c 1FF021E3 		msr     CPSR_c, #0x1F
 269              	@ 0 "" 2
 270              		.loc 1 127 16 view .LVU77
 271              		.loc 1 128 1 is_stmt 0 view .LVU78
 272              		.arm
 273              		.syntax unified
 274 0010 1080BDE8 		pop	{r4, pc}
 275              		.cfi_endproc
 276              	.LFE9:
 277              		.size	chMsgRelease, .-chMsgRelease
 278              		.text
 279              	.Letext0:
 280              		.file 3 "/usr/local/Cellar/arm-gcc-bin/8-2019-q3-update/arm-none-eabi/include/machine/_default_typ
 281              		.file 4 "/usr/local/Cellar/arm-gcc-bin/8-2019-q3-update/arm-none-eabi/include/sys/_stdint.h"
 282              		.file 5 "../../os/ports/GCC/ARM/chtypes.h"
 283              		.file 6 "../../os/kernel/include/chlists.h"
 284              		.file 7 "../../os/kernel/include/chthreads.h"
 285              		.file 8 "../../os/ports/GCC/ARM/chcore.h"
ARM GAS  /var/folders/l5/0x54b2c10074c8bt31ycjvl80000gp/T//ccqOlie5.s 			page 6


 286              		.file 9 "../../os/kernel/include/chvt.h"
 287              		.file 10 "../../os/kernel/include/chschd.h"
 288              		.file 11 "../../os/kernel/include/chmtx.h"
 289              		.file 12 "../../os/kernel/include/chregistry.h"
 290              		.file 13 "../../os/kernel/include/ch.h"
 291              		.section	.debug_info,"",%progbits
 292              	.Ldebug_info0:
 293 0000 1A080000 		.4byte	0x81a
 294 0004 0400     		.2byte	0x4
 295 0006 00000000 		.4byte	.Ldebug_abbrev0
 296 000a 04       		.byte	0x4
 297 000b 01       		.uleb128 0x1
 298 000c A4010000 		.4byte	.LASF101
 299 0010 0C       		.byte	0xc
 300 0011 C1040000 		.4byte	.LASF102
 301 0015 DD040000 		.4byte	.LASF103
 302 0019 38000000 		.4byte	.Ldebug_ranges0+0x38
 303 001d 00000000 		.4byte	0
 304 0021 00000000 		.4byte	.Ldebug_line0
 305 0025 02       		.uleb128 0x2
 306 0026 04       		.byte	0x4
 307 0027 05       		.byte	0x5
 308 0028 696E7400 		.ascii	"int\000"
 309 002c 03       		.uleb128 0x3
 310 002d 04       		.byte	0x4
 311 002e 07       		.byte	0x7
 312 002f 2A010000 		.4byte	.LASF0
 313 0033 03       		.uleb128 0x3
 314 0034 01       		.byte	0x1
 315 0035 06       		.byte	0x6
 316 0036 88000000 		.4byte	.LASF1
 317 003a 04       		.uleb128 0x4
 318 003b 27000000 		.4byte	.LASF4
 319 003f 03       		.byte	0x3
 320 0040 2B       		.byte	0x2b
 321 0041 18       		.byte	0x18
 322 0042 46000000 		.4byte	0x46
 323 0046 03       		.uleb128 0x3
 324 0047 01       		.byte	0x1
 325 0048 08       		.byte	0x8
 326 0049 40030000 		.4byte	.LASF2
 327 004d 03       		.uleb128 0x3
 328 004e 02       		.byte	0x2
 329 004f 05       		.byte	0x5
 330 0050 58030000 		.4byte	.LASF3
 331 0054 04       		.uleb128 0x4
 332 0055 0A040000 		.4byte	.LASF5
 333 0059 03       		.byte	0x3
 334 005a 39       		.byte	0x39
 335 005b 19       		.byte	0x19
 336 005c 60000000 		.4byte	0x60
 337 0060 03       		.uleb128 0x3
 338 0061 02       		.byte	0x2
 339 0062 07       		.byte	0x7
 340 0063 6B010000 		.4byte	.LASF6
 341 0067 04       		.uleb128 0x4
 342 0068 3D040000 		.4byte	.LASF7
ARM GAS  /var/folders/l5/0x54b2c10074c8bt31ycjvl80000gp/T//ccqOlie5.s 			page 7


 343 006c 03       		.byte	0x3
 344 006d 4D       		.byte	0x4d
 345 006e 18       		.byte	0x18
 346 006f 73000000 		.4byte	0x73
 347 0073 03       		.uleb128 0x3
 348 0074 04       		.byte	0x4
 349 0075 05       		.byte	0x5
 350 0076 C7000000 		.4byte	.LASF8
 351 007a 04       		.uleb128 0x4
 352 007b 0E010000 		.4byte	.LASF9
 353 007f 03       		.byte	0x3
 354 0080 4F       		.byte	0x4f
 355 0081 19       		.byte	0x19
 356 0082 86000000 		.4byte	0x86
 357 0086 03       		.uleb128 0x3
 358 0087 04       		.byte	0x4
 359 0088 07       		.byte	0x7
 360 0089 3F010000 		.4byte	.LASF10
 361 008d 03       		.uleb128 0x3
 362 008e 08       		.byte	0x8
 363 008f 05       		.byte	0x5
 364 0090 7A000000 		.4byte	.LASF11
 365 0094 03       		.uleb128 0x3
 366 0095 08       		.byte	0x8
 367 0096 07       		.byte	0x7
 368 0097 38000000 		.4byte	.LASF12
 369 009b 04       		.uleb128 0x4
 370 009c A0040000 		.4byte	.LASF13
 371 00a0 04       		.byte	0x4
 372 00a1 18       		.byte	0x18
 373 00a2 13       		.byte	0x13
 374 00a3 3A000000 		.4byte	0x3a
 375 00a7 04       		.uleb128 0x4
 376 00a8 E3000000 		.4byte	.LASF14
 377 00ac 04       		.byte	0x4
 378 00ad 24       		.byte	0x24
 379 00ae 14       		.byte	0x14
 380 00af 54000000 		.4byte	0x54
 381 00b3 04       		.uleb128 0x4
 382 00b4 38030000 		.4byte	.LASF15
 383 00b8 04       		.byte	0x4
 384 00b9 2C       		.byte	0x2c
 385 00ba 13       		.byte	0x13
 386 00bb 67000000 		.4byte	0x67
 387 00bf 04       		.uleb128 0x4
 388 00c0 CF030000 		.4byte	.LASF16
 389 00c4 04       		.byte	0x4
 390 00c5 30       		.byte	0x30
 391 00c6 14       		.byte	0x14
 392 00c7 7A000000 		.4byte	0x7a
 393 00cb 04       		.uleb128 0x4
 394 00cc 74020000 		.4byte	.LASF17
 395 00d0 05       		.byte	0x5
 396 00d1 2A       		.byte	0x2a
 397 00d2 19       		.byte	0x19
 398 00d3 9B000000 		.4byte	0x9b
 399 00d7 04       		.uleb128 0x4
ARM GAS  /var/folders/l5/0x54b2c10074c8bt31ycjvl80000gp/T//ccqOlie5.s 			page 8


 400 00d8 DA000000 		.4byte	.LASF18
 401 00dc 05       		.byte	0x5
 402 00dd 2B       		.byte	0x2b
 403 00de 19       		.byte	0x19
 404 00df 9B000000 		.4byte	0x9b
 405 00e3 04       		.uleb128 0x4
 406 00e4 16030000 		.4byte	.LASF19
 407 00e8 05       		.byte	0x5
 408 00e9 2C       		.byte	0x2c
 409 00ea 19       		.byte	0x19
 410 00eb 9B000000 		.4byte	0x9b
 411 00ef 04       		.uleb128 0x4
 412 00f0 30030000 		.4byte	.LASF20
 413 00f4 05       		.byte	0x5
 414 00f5 2E       		.byte	0x2e
 415 00f6 19       		.byte	0x19
 416 00f7 BF000000 		.4byte	0xbf
 417 00fb 04       		.uleb128 0x4
 418 00fc 96010000 		.4byte	.LASF21
 419 0100 05       		.byte	0x5
 420 0101 2F       		.byte	0x2f
 421 0102 19       		.byte	0x19
 422 0103 B3000000 		.4byte	0xb3
 423 0107 04       		.uleb128 0x4
 424 0108 88020000 		.4byte	.LASF22
 425 010c 05       		.byte	0x5
 426 010d 31       		.byte	0x31
 427 010e 19       		.byte	0x19
 428 010f BF000000 		.4byte	0xbf
 429 0113 04       		.uleb128 0x4
 430 0114 28040000 		.4byte	.LASF23
 431 0118 05       		.byte	0x5
 432 0119 33       		.byte	0x33
 433 011a 19       		.byte	0x19
 434 011b BF000000 		.4byte	0xbf
 435 011f 05       		.uleb128 0x5
 436 0120 13010000 		.4byte	0x113
 437 0124 04       		.uleb128 0x4
 438 0125 A2030000 		.4byte	.LASF24
 439 0129 06       		.byte	0x6
 440 012a 23       		.byte	0x23
 441 012b 17       		.byte	0x17
 442 012c 30010000 		.4byte	0x130
 443 0130 06       		.uleb128 0x6
 444 0131 A2030000 		.4byte	.LASF24
 445 0135 44       		.byte	0x44
 446 0136 07       		.byte	0x7
 447 0137 57       		.byte	0x57
 448 0138 08       		.byte	0x8
 449 0139 28020000 		.4byte	0x228
 450 013d 07       		.uleb128 0x7
 451 013e 84030000 		.4byte	.LASF25
 452 0142 07       		.byte	0x7
 453 0143 58       		.byte	0x58
 454 0144 1A       		.byte	0x1a
 455 0145 4C020000 		.4byte	0x24c
 456 0149 00       		.byte	0
ARM GAS  /var/folders/l5/0x54b2c10074c8bt31ycjvl80000gp/T//ccqOlie5.s 			page 9


 457 014a 07       		.uleb128 0x7
 458 014b 29030000 		.4byte	.LASF26
 459 014f 07       		.byte	0x7
 460 0150 5A       		.byte	0x5a
 461 0151 1A       		.byte	0x1a
 462 0152 4C020000 		.4byte	0x24c
 463 0156 04       		.byte	0x4
 464 0157 07       		.uleb128 0x7
 465 0158 66000000 		.4byte	.LASF27
 466 015c 07       		.byte	0x7
 467 015d 5C       		.byte	0x5c
 468 015e 19       		.byte	0x19
 469 015f EF000000 		.4byte	0xef
 470 0163 08       		.byte	0x8
 471 0164 07       		.uleb128 0x7
 472 0165 34050000 		.4byte	.LASF28
 473 0169 07       		.byte	0x7
 474 016a 5D       		.byte	0x5d
 475 016b 19       		.byte	0x19
 476 016c 17030000 		.4byte	0x317
 477 0170 0C       		.byte	0xc
 478 0171 07       		.uleb128 0x7
 479 0172 F6000000 		.4byte	.LASF29
 480 0176 07       		.byte	0x7
 481 0177 5F       		.byte	0x5f
 482 0178 1A       		.byte	0x1a
 483 0179 4C020000 		.4byte	0x24c
 484 017d 10       		.byte	0x10
 485 017e 07       		.uleb128 0x7
 486 017f E1020000 		.4byte	.LASF30
 487 0183 07       		.byte	0x7
 488 0184 60       		.byte	0x60
 489 0185 1A       		.byte	0x1a
 490 0186 4C020000 		.4byte	0x24c
 491 018a 14       		.byte	0x14
 492 018b 07       		.uleb128 0x7
 493 018c AF040000 		.4byte	.LASF31
 494 0190 07       		.byte	0x7
 495 0191 67       		.byte	0x67
 496 0192 1A       		.byte	0x1a
 497 0193 FD040000 		.4byte	0x4fd
 498 0197 18       		.byte	0x18
 499 0198 07       		.uleb128 0x7
 500 0199 62030000 		.4byte	.LASF32
 501 019d 07       		.byte	0x7
 502 019e 72       		.byte	0x72
 503 019f 19       		.byte	0x19
 504 01a0 D7000000 		.4byte	0xd7
 505 01a4 1C       		.byte	0x1c
 506 01a5 07       		.uleb128 0x7
 507 01a6 9A030000 		.4byte	.LASF33
 508 01aa 07       		.byte	0x7
 509 01ab 76       		.byte	0x76
 510 01ac 19       		.byte	0x19
 511 01ad CB000000 		.4byte	0xcb
 512 01b1 1D       		.byte	0x1d
 513 01b2 07       		.uleb128 0x7
ARM GAS  /var/folders/l5/0x54b2c10074c8bt31ycjvl80000gp/T//ccqOlie5.s 			page 10


 514 01b3 7F040000 		.4byte	.LASF34
 515 01b7 07       		.byte	0x7
 516 01b8 7B       		.byte	0x7b
 517 01b9 19       		.byte	0x19
 518 01ba E3000000 		.4byte	0xe3
 519 01be 1E       		.byte	0x1e
 520 01bf 07       		.uleb128 0x7
 521 01c0 47040000 		.4byte	.LASF35
 522 01c4 07       		.byte	0x7
 523 01c5 88       		.byte	0x88
 524 01c6 19       		.byte	0x19
 525 01c7 1F010000 		.4byte	0x11f
 526 01cb 20       		.byte	0x20
 527 01cc 08       		.uleb128 0x8
 528 01cd 705F7500 		.ascii	"p_u\000"
 529 01d1 07       		.byte	0x7
 530 01d2 AD       		.byte	0xad
 531 01d3 19       		.byte	0x19
 532 01d4 C3040000 		.4byte	0x4c3
 533 01d8 24       		.byte	0x24
 534 01d9 07       		.uleb128 0x7
 535 01da 3A050000 		.4byte	.LASF36
 536 01de 07       		.byte	0x7
 537 01df B2       		.byte	0xb2
 538 01e0 19       		.byte	0x19
 539 01e1 75020000 		.4byte	0x275
 540 01e5 28       		.byte	0x28
 541 01e6 07       		.uleb128 0x7
 542 01e7 55040000 		.4byte	.LASF37
 543 01eb 07       		.byte	0x7
 544 01ec B8       		.byte	0xb8
 545 01ed 19       		.byte	0x19
 546 01ee 52020000 		.4byte	0x252
 547 01f2 2C       		.byte	0x2c
 548 01f3 07       		.uleb128 0x7
 549 01f4 0D000000 		.4byte	.LASF38
 550 01f8 07       		.byte	0x7
 551 01f9 BC       		.byte	0xbc
 552 01fa 19       		.byte	0x19
 553 01fb FB000000 		.4byte	0xfb
 554 01ff 34       		.byte	0x34
 555 0200 07       		.uleb128 0x7
 556 0201 C4030000 		.4byte	.LASF39
 557 0205 07       		.byte	0x7
 558 0206 C2       		.byte	0xc2
 559 0207 19       		.byte	0x19
 560 0208 07010000 		.4byte	0x107
 561 020c 38       		.byte	0x38
 562 020d 07       		.uleb128 0x7
 563 020e 4E030000 		.4byte	.LASF40
 564 0212 07       		.byte	0x7
 565 0213 C9       		.byte	0xc9
 566 0214 1A       		.byte	0x1a
 567 0215 0F050000 		.4byte	0x50f
 568 0219 3C       		.byte	0x3c
 569 021a 07       		.uleb128 0x7
 570 021b 32040000 		.4byte	.LASF41
ARM GAS  /var/folders/l5/0x54b2c10074c8bt31ycjvl80000gp/T//ccqOlie5.s 			page 11


 571 021f 07       		.byte	0x7
 572 0220 CD       		.byte	0xcd
 573 0221 19       		.byte	0x19
 574 0222 EF000000 		.4byte	0xef
 575 0226 40       		.byte	0x40
 576 0227 00       		.byte	0
 577 0228 09       		.uleb128 0x9
 578 0229 08       		.byte	0x8
 579 022a 06       		.byte	0x6
 580 022b 5A       		.byte	0x5a
 581 022c 09       		.byte	0x9
 582 022d 4C020000 		.4byte	0x24c
 583 0231 07       		.uleb128 0x7
 584 0232 84030000 		.4byte	.LASF25
 585 0236 06       		.byte	0x6
 586 0237 5B       		.byte	0x5b
 587 0238 1A       		.byte	0x1a
 588 0239 4C020000 		.4byte	0x24c
 589 023d 00       		.byte	0
 590 023e 07       		.uleb128 0x7
 591 023f 29030000 		.4byte	.LASF26
 592 0243 06       		.byte	0x6
 593 0244 5D       		.byte	0x5d
 594 0245 1A       		.byte	0x1a
 595 0246 4C020000 		.4byte	0x24c
 596 024a 04       		.byte	0x4
 597 024b 00       		.byte	0
 598 024c 0A       		.uleb128 0xa
 599 024d 04       		.byte	0x4
 600 024e 24010000 		.4byte	0x124
 601 0252 04       		.uleb128 0x4
 602 0253 EF020000 		.4byte	.LASF42
 603 0257 06       		.byte	0x6
 604 0258 5F       		.byte	0x5f
 605 0259 03       		.byte	0x3
 606 025a 28020000 		.4byte	0x228
 607 025e 09       		.uleb128 0x9
 608 025f 04       		.byte	0x4
 609 0260 06       		.byte	0x6
 610 0261 64       		.byte	0x64
 611 0262 09       		.byte	0x9
 612 0263 75020000 		.4byte	0x275
 613 0267 07       		.uleb128 0x7
 614 0268 84030000 		.4byte	.LASF25
 615 026c 06       		.byte	0x6
 616 026d 66       		.byte	0x66
 617 026e 16       		.byte	0x16
 618 026f 4C020000 		.4byte	0x24c
 619 0273 00       		.byte	0
 620 0274 00       		.byte	0
 621 0275 04       		.uleb128 0x4
 622 0276 7C020000 		.4byte	.LASF43
 623 027a 06       		.byte	0x6
 624 027b 69       		.byte	0x69
 625 027c 03       		.byte	0x3
 626 027d 5E020000 		.4byte	0x25e
 627 0281 04       		.uleb128 0x4
ARM GAS  /var/folders/l5/0x54b2c10074c8bt31ycjvl80000gp/T//ccqOlie5.s 			page 12


 628 0282 9A020000 		.4byte	.LASF44
 629 0286 08       		.byte	0x8
 630 0287 9D       		.byte	0x9d
 631 0288 12       		.byte	0x12
 632 0289 BF000000 		.4byte	0xbf
 633 028d 04       		.uleb128 0x4
 634 028e 19010000 		.4byte	.LASF45
 635 0292 08       		.byte	0x8
 636 0293 A2       		.byte	0xa2
 637 0294 0F       		.byte	0xf
 638 0295 99020000 		.4byte	0x299
 639 0299 0B       		.uleb128 0xb
 640 029a 04       		.byte	0x4
 641 029b 06       		.uleb128 0x6
 642 029c 4E040000 		.4byte	.LASF46
 643 02a0 24       		.byte	0x24
 644 02a1 08       		.byte	0x8
 645 02a2 B9       		.byte	0xb9
 646 02a3 08       		.byte	0x8
 647 02a4 17030000 		.4byte	0x317
 648 02a8 08       		.uleb128 0x8
 649 02a9 723400   		.ascii	"r4\000"
 650 02ac 08       		.byte	0x8
 651 02ad BA       		.byte	0xba
 652 02ae 11       		.byte	0x11
 653 02af 8D020000 		.4byte	0x28d
 654 02b3 00       		.byte	0
 655 02b4 08       		.uleb128 0x8
 656 02b5 723500   		.ascii	"r5\000"
 657 02b8 08       		.byte	0x8
 658 02b9 BB       		.byte	0xbb
 659 02ba 11       		.byte	0x11
 660 02bb 8D020000 		.4byte	0x28d
 661 02bf 04       		.byte	0x4
 662 02c0 08       		.uleb128 0x8
 663 02c1 723600   		.ascii	"r6\000"
 664 02c4 08       		.byte	0x8
 665 02c5 BC       		.byte	0xbc
 666 02c6 11       		.byte	0x11
 667 02c7 8D020000 		.4byte	0x28d
 668 02cb 08       		.byte	0x8
 669 02cc 08       		.uleb128 0x8
 670 02cd 723700   		.ascii	"r7\000"
 671 02d0 08       		.byte	0x8
 672 02d1 BD       		.byte	0xbd
 673 02d2 11       		.byte	0x11
 674 02d3 8D020000 		.4byte	0x28d
 675 02d7 0C       		.byte	0xc
 676 02d8 08       		.uleb128 0x8
 677 02d9 723800   		.ascii	"r8\000"
 678 02dc 08       		.byte	0x8
 679 02dd BE       		.byte	0xbe
 680 02de 11       		.byte	0x11
 681 02df 8D020000 		.4byte	0x28d
 682 02e3 10       		.byte	0x10
 683 02e4 08       		.uleb128 0x8
 684 02e5 723900   		.ascii	"r9\000"
ARM GAS  /var/folders/l5/0x54b2c10074c8bt31ycjvl80000gp/T//ccqOlie5.s 			page 13


 685 02e8 08       		.byte	0x8
 686 02e9 BF       		.byte	0xbf
 687 02ea 11       		.byte	0x11
 688 02eb 8D020000 		.4byte	0x28d
 689 02ef 14       		.byte	0x14
 690 02f0 08       		.uleb128 0x8
 691 02f1 72313000 		.ascii	"r10\000"
 692 02f5 08       		.byte	0x8
 693 02f6 C0       		.byte	0xc0
 694 02f7 11       		.byte	0x11
 695 02f8 8D020000 		.4byte	0x28d
 696 02fc 18       		.byte	0x18
 697 02fd 08       		.uleb128 0x8
 698 02fe 72313100 		.ascii	"r11\000"
 699 0302 08       		.byte	0x8
 700 0303 C1       		.byte	0xc1
 701 0304 11       		.byte	0x11
 702 0305 8D020000 		.4byte	0x28d
 703 0309 1C       		.byte	0x1c
 704 030a 08       		.uleb128 0x8
 705 030b 6C7200   		.ascii	"lr\000"
 706 030e 08       		.byte	0x8
 707 030f C2       		.byte	0xc2
 708 0310 11       		.byte	0x11
 709 0311 8D020000 		.4byte	0x28d
 710 0315 20       		.byte	0x20
 711 0316 00       		.byte	0
 712 0317 06       		.uleb128 0x6
 713 0318 63010000 		.4byte	.LASF47
 714 031c 04       		.byte	0x4
 715 031d 08       		.byte	0x8
 716 031e CA       		.byte	0xca
 717 031f 08       		.byte	0x8
 718 0320 32030000 		.4byte	0x332
 719 0324 08       		.uleb128 0x8
 720 0325 72313300 		.ascii	"r13\000"
 721 0329 08       		.byte	0x8
 722 032a CB       		.byte	0xcb
 723 032b 12       		.byte	0x12
 724 032c 32030000 		.4byte	0x332
 725 0330 00       		.byte	0
 726 0331 00       		.byte	0
 727 0332 0A       		.uleb128 0xa
 728 0333 04       		.byte	0x4
 729 0334 9B020000 		.4byte	0x29b
 730 0338 04       		.uleb128 0x4
 731 0339 5A010000 		.4byte	.LASF48
 732 033d 09       		.byte	0x9
 733 033e 4E       		.byte	0x4e
 734 033f 10       		.byte	0x10
 735 0340 44030000 		.4byte	0x344
 736 0344 0A       		.uleb128 0xa
 737 0345 04       		.byte	0x4
 738 0346 4A030000 		.4byte	0x34a
 739 034a 0C       		.uleb128 0xc
 740 034b 55030000 		.4byte	0x355
 741 034f 0D       		.uleb128 0xd
ARM GAS  /var/folders/l5/0x54b2c10074c8bt31ycjvl80000gp/T//ccqOlie5.s 			page 14


 742 0350 99020000 		.4byte	0x299
 743 0354 00       		.byte	0
 744 0355 04       		.uleb128 0x4
 745 0356 EC030000 		.4byte	.LASF49
 746 035a 09       		.byte	0x9
 747 035b 53       		.byte	0x53
 748 035c 1D       		.byte	0x1d
 749 035d 61030000 		.4byte	0x361
 750 0361 06       		.uleb128 0x6
 751 0362 EC030000 		.4byte	.LASF49
 752 0366 14       		.byte	0x14
 753 0367 09       		.byte	0x9
 754 0368 5A       		.byte	0x5a
 755 0369 08       		.byte	0x8
 756 036a B0030000 		.4byte	0x3b0
 757 036e 07       		.uleb128 0x7
 758 036f 37010000 		.4byte	.LASF50
 759 0373 09       		.byte	0x9
 760 0374 5B       		.byte	0x5b
 761 0375 1A       		.byte	0x1a
 762 0376 B0030000 		.4byte	0x3b0
 763 037a 00       		.byte	0
 764 037b 07       		.uleb128 0x7
 765 037c 22010000 		.4byte	.LASF51
 766 0380 09       		.byte	0x9
 767 0381 5D       		.byte	0x5d
 768 0382 1A       		.byte	0x1a
 769 0383 B0030000 		.4byte	0x3b0
 770 0387 04       		.byte	0x4
 771 0388 07       		.uleb128 0x7
 772 0389 B9020000 		.4byte	.LASF52
 773 038d 09       		.byte	0x9
 774 038e 5F       		.byte	0x5f
 775 038f 19       		.byte	0x19
 776 0390 13010000 		.4byte	0x113
 777 0394 08       		.byte	0x8
 778 0395 07       		.uleb128 0x7
 779 0396 C1020000 		.4byte	.LASF53
 780 039a 09       		.byte	0x9
 781 039b 60       		.byte	0x60
 782 039c 19       		.byte	0x19
 783 039d 38030000 		.4byte	0x338
 784 03a1 0C       		.byte	0xc
 785 03a2 07       		.uleb128 0x7
 786 03a3 60040000 		.4byte	.LASF54
 787 03a7 09       		.byte	0x9
 788 03a8 62       		.byte	0x62
 789 03a9 1A       		.byte	0x1a
 790 03aa 99020000 		.4byte	0x299
 791 03ae 10       		.byte	0x10
 792 03af 00       		.byte	0
 793 03b0 0A       		.uleb128 0xa
 794 03b1 04       		.byte	0x4
 795 03b2 55030000 		.4byte	0x355
 796 03b6 09       		.uleb128 0x9
 797 03b7 10       		.byte	0x10
 798 03b8 09       		.byte	0x9
ARM GAS  /var/folders/l5/0x54b2c10074c8bt31ycjvl80000gp/T//ccqOlie5.s 			page 15


 799 03b9 6C       		.byte	0x6c
 800 03ba 09       		.byte	0x9
 801 03bb F4030000 		.4byte	0x3f4
 802 03bf 07       		.uleb128 0x7
 803 03c0 37010000 		.4byte	.LASF50
 804 03c4 09       		.byte	0x9
 805 03c5 6D       		.byte	0x6d
 806 03c6 1A       		.byte	0x1a
 807 03c7 B0030000 		.4byte	0x3b0
 808 03cb 00       		.byte	0
 809 03cc 07       		.uleb128 0x7
 810 03cd 22010000 		.4byte	.LASF51
 811 03d1 09       		.byte	0x9
 812 03d2 6F       		.byte	0x6f
 813 03d3 1A       		.byte	0x1a
 814 03d4 B0030000 		.4byte	0x3b0
 815 03d8 04       		.byte	0x4
 816 03d9 07       		.uleb128 0x7
 817 03da B9020000 		.4byte	.LASF52
 818 03de 09       		.byte	0x9
 819 03df 71       		.byte	0x71
 820 03e0 19       		.byte	0x19
 821 03e1 13010000 		.4byte	0x113
 822 03e5 08       		.byte	0x8
 823 03e6 07       		.uleb128 0x7
 824 03e7 B6040000 		.4byte	.LASF55
 825 03eb 09       		.byte	0x9
 826 03ec 72       		.byte	0x72
 827 03ed 19       		.byte	0x19
 828 03ee 1F010000 		.4byte	0x11f
 829 03f2 0C       		.byte	0xc
 830 03f3 00       		.byte	0
 831 03f4 04       		.uleb128 0x4
 832 03f5 25050000 		.4byte	.LASF56
 833 03f9 09       		.byte	0x9
 834 03fa 73       		.byte	0x73
 835 03fb 03       		.byte	0x3
 836 03fc B6030000 		.4byte	0x3b6
 837 0400 0E       		.uleb128 0xe
 838 0401 31000000 		.4byte	.LASF64
 839 0405 09       		.byte	0x9
 840 0406 D1       		.byte	0xd1
 841 0407 0F       		.byte	0xf
 842 0408 F4030000 		.4byte	0x3f4
 843 040c 09       		.uleb128 0x9
 844 040d 1C       		.byte	0x1c
 845 040e 0A       		.byte	0xa
 846 040f 57       		.byte	0x57
 847 0410 09       		.byte	0x9
 848 0411 64040000 		.4byte	0x464
 849 0415 07       		.uleb128 0x7
 850 0416 E4030000 		.4byte	.LASF57
 851 041a 0A       		.byte	0xa
 852 041b 58       		.byte	0x58
 853 041c 19       		.byte	0x19
 854 041d 52020000 		.4byte	0x252
 855 0421 00       		.byte	0
ARM GAS  /var/folders/l5/0x54b2c10074c8bt31ycjvl80000gp/T//ccqOlie5.s 			page 16


 856 0422 07       		.uleb128 0x7
 857 0423 76030000 		.4byte	.LASF58
 858 0427 0A       		.byte	0xa
 859 0428 59       		.byte	0x59
 860 0429 19       		.byte	0x19
 861 042a EF000000 		.4byte	0xef
 862 042e 08       		.byte	0x8
 863 042f 07       		.uleb128 0x7
 864 0430 E9020000 		.4byte	.LASF59
 865 0434 0A       		.byte	0xa
 866 0435 5B       		.byte	0x5b
 867 0436 19       		.byte	0x19
 868 0437 17030000 		.4byte	0x317
 869 043b 0C       		.byte	0xc
 870 043c 07       		.uleb128 0x7
 871 043d 9C010000 		.4byte	.LASF60
 872 0441 0A       		.byte	0xa
 873 0442 5E       		.byte	0x5e
 874 0443 1A       		.byte	0x1a
 875 0444 4C020000 		.4byte	0x24c
 876 0448 10       		.byte	0x10
 877 0449 07       		.uleb128 0x7
 878 044a 0E030000 		.4byte	.LASF61
 879 044e 0A       		.byte	0xa
 880 044f 5F       		.byte	0x5f
 881 0450 1A       		.byte	0x1a
 882 0451 4C020000 		.4byte	0x24c
 883 0455 14       		.byte	0x14
 884 0456 07       		.uleb128 0x7
 885 0457 04030000 		.4byte	.LASF62
 886 045b 0A       		.byte	0xa
 887 045c 62       		.byte	0x62
 888 045d 1A       		.byte	0x1a
 889 045e 4C020000 		.4byte	0x24c
 890 0462 18       		.byte	0x18
 891 0463 00       		.byte	0
 892 0464 04       		.uleb128 0x4
 893 0465 86040000 		.4byte	.LASF63
 894 0469 0A       		.byte	0xa
 895 046a 64       		.byte	0x64
 896 046b 03       		.byte	0x3
 897 046c 0C040000 		.4byte	0x40c
 898 0470 0E       		.uleb128 0xe
 899 0471 9A040000 		.4byte	.LASF65
 900 0475 0A       		.byte	0xa
 901 0476 68       		.byte	0x68
 902 0477 12       		.byte	0x12
 903 0478 64040000 		.4byte	0x464
 904 047c 06       		.uleb128 0x6
 905 047d 94020000 		.4byte	.LASF66
 906 0481 10       		.byte	0x10
 907 0482 0B       		.byte	0xb
 908 0483 25       		.byte	0x25
 909 0484 10       		.byte	0x10
 910 0485 B1040000 		.4byte	0x4b1
 911 0489 07       		.uleb128 0x7
 912 048a B1000000 		.4byte	.LASF67
ARM GAS  /var/folders/l5/0x54b2c10074c8bt31ycjvl80000gp/T//ccqOlie5.s 			page 17


 913 048e 0B       		.byte	0xb
 914 048f 26       		.byte	0x26
 915 0490 19       		.byte	0x19
 916 0491 52020000 		.4byte	0x252
 917 0495 00       		.byte	0
 918 0496 07       		.uleb128 0x7
 919 0497 2C050000 		.4byte	.LASF68
 920 049b 0B       		.byte	0xb
 921 049c 28       		.byte	0x28
 922 049d 1A       		.byte	0x1a
 923 049e 4C020000 		.4byte	0x24c
 924 04a2 08       		.byte	0x8
 925 04a3 07       		.uleb128 0x7
 926 04a4 21040000 		.4byte	.LASF69
 927 04a8 0B       		.byte	0xb
 928 04a9 2A       		.byte	0x2a
 929 04aa 1A       		.byte	0x1a
 930 04ab B1040000 		.4byte	0x4b1
 931 04af 0C       		.byte	0xc
 932 04b0 00       		.byte	0
 933 04b1 0A       		.uleb128 0xa
 934 04b2 04       		.byte	0x4
 935 04b3 7C040000 		.4byte	0x47c
 936 04b7 04       		.uleb128 0x4
 937 04b8 94020000 		.4byte	.LASF66
 938 04bc 0B       		.byte	0xb
 939 04bd 2C       		.byte	0x2c
 940 04be 03       		.byte	0x3
 941 04bf 7C040000 		.4byte	0x47c
 942 04c3 0F       		.uleb128 0xf
 943 04c4 04       		.byte	0x4
 944 04c5 07       		.byte	0x7
 945 04c6 8F       		.byte	0x8f
 946 04c7 03       		.byte	0x3
 947 04c8 FD040000 		.4byte	0x4fd
 948 04cc 10       		.uleb128 0x10
 949 04cd 20000000 		.4byte	.LASF70
 950 04d1 07       		.byte	0x7
 951 04d2 96       		.byte	0x96
 952 04d3 19       		.byte	0x19
 953 04d4 FB000000 		.4byte	0xfb
 954 04d8 10       		.uleb128 0x10
 955 04d9 5D000000 		.4byte	.LASF71
 956 04dd 07       		.byte	0x7
 957 04de 9D       		.byte	0x9d
 958 04df 19       		.byte	0x19
 959 04e0 FB000000 		.4byte	0xfb
 960 04e4 10       		.uleb128 0x10
 961 04e5 A8040000 		.4byte	.LASF72
 962 04e9 07       		.byte	0x7
 963 04ea A4       		.byte	0xa4
 964 04eb 1A       		.byte	0x1a
 965 04ec 99020000 		.4byte	0x299
 966 04f0 10       		.uleb128 0x10
 967 04f1 7D030000 		.4byte	.LASF73
 968 04f5 07       		.byte	0x7
 969 04f6 AB       		.byte	0xab
ARM GAS  /var/folders/l5/0x54b2c10074c8bt31ycjvl80000gp/T//ccqOlie5.s 			page 18


 970 04f7 19       		.byte	0x19
 971 04f8 07010000 		.4byte	0x107
 972 04fc 00       		.byte	0
 973 04fd 0A       		.uleb128 0xa
 974 04fe 04       		.byte	0x4
 975 04ff 0A050000 		.4byte	0x50a
 976 0503 03       		.uleb128 0x3
 977 0504 01       		.byte	0x1
 978 0505 08       		.byte	0x8
 979 0506 F9030000 		.4byte	.LASF74
 980 050a 11       		.uleb128 0x11
 981 050b 03050000 		.4byte	0x503
 982 050f 0A       		.uleb128 0xa
 983 0510 04       		.byte	0x4
 984 0511 B7040000 		.4byte	0x4b7
 985 0515 09       		.uleb128 0x9
 986 0516 16       		.byte	0x16
 987 0517 0C       		.byte	0xc
 988 0518 25       		.byte	0x25
 989 0519 09       		.byte	0x9
 990 051a 09060000 		.4byte	0x609
 991 051e 07       		.uleb128 0x7
 992 051f B9000000 		.4byte	.LASF75
 993 0523 0C       		.byte	0xc
 994 0524 26       		.byte	0x26
 995 0525 0D       		.byte	0xd
 996 0526 09060000 		.4byte	0x609
 997 052a 00       		.byte	0
 998 052b 07       		.uleb128 0x7
 999 052c A5020000 		.4byte	.LASF76
 1000 0530 0C       		.byte	0xc
 1001 0531 27       		.byte	0x27
 1002 0532 0D       		.byte	0xd
 1003 0533 9B000000 		.4byte	0x9b
 1004 0537 04       		.byte	0x4
 1005 0538 07       		.uleb128 0x7
 1006 0539 FC020000 		.4byte	.LASF77
 1007 053d 0C       		.byte	0xc
 1008 053e 28       		.byte	0x28
 1009 053f 0D       		.byte	0xd
 1010 0540 9B000000 		.4byte	0x9b
 1011 0544 05       		.byte	0x5
 1012 0545 07       		.uleb128 0x7
 1013 0546 8B010000 		.4byte	.LASF78
 1014 054a 0C       		.byte	0xc
 1015 054b 29       		.byte	0x29
 1016 054c 0D       		.byte	0xd
 1017 054d A7000000 		.4byte	0xa7
 1018 0551 06       		.byte	0x6
 1019 0552 07       		.uleb128 0x7
 1020 0553 1E030000 		.4byte	.LASF79
 1021 0557 0C       		.byte	0xc
 1022 0558 2A       		.byte	0x2a
 1023 0559 0D       		.byte	0xd
 1024 055a 9B000000 		.4byte	0x9b
 1025 055e 08       		.byte	0x8
 1026 055f 07       		.uleb128 0x7
ARM GAS  /var/folders/l5/0x54b2c10074c8bt31ycjvl80000gp/T//ccqOlie5.s 			page 19


 1027 0560 C9020000 		.4byte	.LASF80
 1028 0564 0C       		.byte	0xc
 1029 0565 2B       		.byte	0x2b
 1030 0566 0D       		.byte	0xd
 1031 0567 9B000000 		.4byte	0x9b
 1032 056b 09       		.byte	0x9
 1033 056c 07       		.uleb128 0x7
 1034 056d 4F000000 		.4byte	.LASF81
 1035 0571 0C       		.byte	0xc
 1036 0572 2C       		.byte	0x2c
 1037 0573 0D       		.byte	0xd
 1038 0574 9B000000 		.4byte	0x9b
 1039 0578 0A       		.byte	0xa
 1040 0579 07       		.uleb128 0x7
 1041 057a D8030000 		.4byte	.LASF82
 1042 057e 0C       		.byte	0xc
 1043 057f 2D       		.byte	0x2d
 1044 0580 0D       		.byte	0xd
 1045 0581 9B000000 		.4byte	0x9b
 1046 0585 0B       		.byte	0xb
 1047 0586 07       		.uleb128 0x7
 1048 0587 74040000 		.4byte	.LASF83
 1049 058b 0C       		.byte	0xc
 1050 058c 2E       		.byte	0x2e
 1051 058d 0D       		.byte	0xd
 1052 058e 9B000000 		.4byte	0x9b
 1053 0592 0C       		.byte	0xc
 1054 0593 07       		.uleb128 0x7
 1055 0594 A9030000 		.4byte	.LASF84
 1056 0598 0C       		.byte	0xc
 1057 0599 2F       		.byte	0x2f
 1058 059a 0D       		.byte	0xd
 1059 059b 9B000000 		.4byte	0x9b
 1060 059f 0D       		.byte	0xd
 1061 05a0 07       		.uleb128 0x7
 1062 05a1 00000000 		.4byte	.LASF85
 1063 05a5 0C       		.byte	0xc
 1064 05a6 30       		.byte	0x30
 1065 05a7 0D       		.byte	0xd
 1066 05a8 9B000000 		.4byte	0x9b
 1067 05ac 0E       		.byte	0xe
 1068 05ad 07       		.uleb128 0x7
 1069 05ae D5020000 		.4byte	.LASF86
 1070 05b2 0C       		.byte	0xc
 1071 05b3 31       		.byte	0x31
 1072 05b4 0D       		.byte	0xd
 1073 05b5 9B000000 		.4byte	0x9b
 1074 05b9 0F       		.byte	0xf
 1075 05ba 07       		.uleb128 0x7
 1076 05bb 94000000 		.4byte	.LASF87
 1077 05bf 0C       		.byte	0xc
 1078 05c0 32       		.byte	0x32
 1079 05c1 0D       		.byte	0xd
 1080 05c2 9B000000 		.4byte	0x9b
 1081 05c6 10       		.byte	0x10
 1082 05c7 07       		.uleb128 0x7
 1083 05c8 6D000000 		.4byte	.LASF88
ARM GAS  /var/folders/l5/0x54b2c10074c8bt31ycjvl80000gp/T//ccqOlie5.s 			page 20


 1084 05cc 0C       		.byte	0xc
 1085 05cd 34       		.byte	0x34
 1086 05ce 0D       		.byte	0xd
 1087 05cf 9B000000 		.4byte	0x9b
 1088 05d3 11       		.byte	0x11
 1089 05d4 07       		.uleb128 0x7
 1090 05d5 A4000000 		.4byte	.LASF89
 1091 05d9 0C       		.byte	0xc
 1092 05da 35       		.byte	0x35
 1093 05db 0D       		.byte	0xd
 1094 05dc 9B000000 		.4byte	0x9b
 1095 05e0 12       		.byte	0x12
 1096 05e1 07       		.uleb128 0x7
 1097 05e2 AD020000 		.4byte	.LASF90
 1098 05e6 0C       		.byte	0xc
 1099 05e7 36       		.byte	0x36
 1100 05e8 0D       		.byte	0xd
 1101 05e9 9B000000 		.4byte	0x9b
 1102 05ed 13       		.byte	0x13
 1103 05ee 07       		.uleb128 0x7
 1104 05ef 8B030000 		.4byte	.LASF91
 1105 05f3 0C       		.byte	0xc
 1106 05f4 37       		.byte	0x37
 1107 05f5 0D       		.byte	0xd
 1108 05f6 9B000000 		.4byte	0x9b
 1109 05fa 14       		.byte	0x14
 1110 05fb 07       		.uleb128 0x7
 1111 05fc 6A030000 		.4byte	.LASF92
 1112 0600 0C       		.byte	0xc
 1113 0601 39       		.byte	0x39
 1114 0602 0D       		.byte	0xd
 1115 0603 9B000000 		.4byte	0x9b
 1116 0607 15       		.byte	0x15
 1117 0608 00       		.byte	0
 1118 0609 12       		.uleb128 0x12
 1119 060a 03050000 		.4byte	0x503
 1120 060e 19060000 		.4byte	0x619
 1121 0612 13       		.uleb128 0x13
 1122 0613 2C000000 		.4byte	0x2c
 1123 0617 03       		.byte	0x3
 1124 0618 00       		.byte	0
 1125 0619 04       		.uleb128 0x4
 1126 061a EC000000 		.4byte	.LASF93
 1127 061e 0C       		.byte	0xc
 1128 061f 3A       		.byte	0x3a
 1129 0620 03       		.byte	0x3
 1130 0621 15050000 		.4byte	0x515
 1131 0625 11       		.uleb128 0x11
 1132 0626 19060000 		.4byte	0x619
 1133 062a 0E       		.uleb128 0xe
 1134 062b 51010000 		.4byte	.LASF94
 1135 062f 0C       		.byte	0xc
 1136 0630 77       		.byte	0x77
 1137 0631 1D       		.byte	0x1d
 1138 0632 25060000 		.4byte	0x625
 1139 0636 12       		.uleb128 0x12
 1140 0637 81020000 		.4byte	0x281
ARM GAS  /var/folders/l5/0x54b2c10074c8bt31ycjvl80000gp/T//ccqOlie5.s 			page 21


 1141 063b 46060000 		.4byte	0x646
 1142 063f 13       		.uleb128 0x13
 1143 0640 2C000000 		.4byte	0x2c
 1144 0644 26       		.byte	0x26
 1145 0645 00       		.byte	0
 1146 0646 0E       		.uleb128 0xe
 1147 0647 FE000000 		.4byte	.LASF95
 1148 064b 0D       		.byte	0xd
 1149 064c 82       		.byte	0x82
 1150 064d 08       		.byte	0x8
 1151 064e 36060000 		.4byte	0x636
 1152 0652 14       		.uleb128 0x14
 1153 0653 67040000 		.4byte	.LASF104
 1154 0657 01       		.byte	0x1
 1155 0658 79       		.byte	0x79
 1156 0659 06       		.byte	0x6
 1157 065a 00000000 		.4byte	.LFB9
 1158 065e 14000000 		.4byte	.LFE9-.LFB9
 1159 0662 01       		.uleb128 0x1
 1160 0663 9C       		.byte	0x9c
 1161 0664 A8060000 		.4byte	0x6a8
 1162 0668 15       		.uleb128 0x15
 1163 0669 747000   		.ascii	"tp\000"
 1164 066c 01       		.byte	0x1
 1165 066d 79       		.byte	0x79
 1166 066e 1B       		.byte	0x1b
 1167 066f 4C020000 		.4byte	0x24c
 1168 0673 04000000 		.4byte	.LLST5
 1169 0677 00000000 		.4byte	.LVUS5
 1170 067b 15       		.uleb128 0x15
 1171 067c 6D736700 		.ascii	"msg\000"
 1172 0680 01       		.byte	0x1
 1173 0681 79       		.byte	0x79
 1174 0682 25       		.byte	0x25
 1175 0683 FB000000 		.4byte	0xfb
 1176 0687 29000000 		.4byte	.LLST6
 1177 068b 25000000 		.4byte	.LVUS6
 1178 068f 16       		.uleb128 0x16
 1179 0690 0C000000 		.4byte	.LVL14
 1180 0694 F9070000 		.4byte	0x7f9
 1181 0698 17       		.uleb128 0x17
 1182 0699 01       		.uleb128 0x1
 1183 069a 50       		.byte	0x50
 1184 069b 03       		.uleb128 0x3
 1185 069c F3       		.byte	0xf3
 1186 069d 01       		.uleb128 0x1
 1187 069e 50       		.byte	0x50
 1188 069f 17       		.uleb128 0x17
 1189 06a0 01       		.uleb128 0x1
 1190 06a1 51       		.byte	0x51
 1191 06a2 03       		.uleb128 0x3
 1192 06a3 F3       		.byte	0xf3
 1193 06a4 01       		.uleb128 0x1
 1194 06a5 51       		.byte	0x51
 1195 06a6 00       		.byte	0
 1196 06a7 00       		.byte	0
 1197 06a8 18       		.uleb128 0x18
ARM GAS  /var/folders/l5/0x54b2c10074c8bt31ycjvl80000gp/T//ccqOlie5.s 			page 22


 1198 06a9 90040000 		.4byte	.LASF96
 1199 06ad 01       		.byte	0x1
 1200 06ae 63       		.byte	0x63
 1201 06af 09       		.byte	0x9
 1202 06b0 4C020000 		.4byte	0x24c
 1203 06b4 00000000 		.4byte	.LFB8
 1204 06b8 58000000 		.4byte	.LFE8-.LFB8
 1205 06bc 01       		.uleb128 0x1
 1206 06bd 9C       		.byte	0x9c
 1207 06be 03070000 		.4byte	0x703
 1208 06c2 19       		.uleb128 0x19
 1209 06c3 747000   		.ascii	"tp\000"
 1210 06c6 01       		.byte	0x1
 1211 06c7 64       		.byte	0x64
 1212 06c8 0B       		.byte	0xb
 1213 06c9 4C020000 		.4byte	0x24c
 1214 06cd 1A       		.uleb128 0x1a
 1215 06ce A5070000 		.4byte	0x7a5
 1216 06d2 20000000 		.4byte	.LBI12
 1217 06d6 01       		.byte	.LVU49
 1218 06d7 20000000 		.4byte	.Ldebug_ranges0+0x20
 1219 06db 01       		.byte	0x1
 1220 06dc 69       		.byte	0x69
 1221 06dd 08       		.byte	0x8
 1222 06de F3060000 		.4byte	0x6f3
 1223 06e2 1B       		.uleb128 0x1b
 1224 06e3 B6070000 		.4byte	0x7b6
 1225 06e7 1C       		.uleb128 0x1c
 1226 06e8 20000000 		.4byte	.Ldebug_ranges0+0x20
 1227 06ec 1D       		.uleb128 0x1d
 1228 06ed C2070000 		.4byte	0x7c2
 1229 06f1 00       		.byte	0
 1230 06f2 00       		.byte	0
 1231 06f3 16       		.uleb128 0x16
 1232 06f4 44000000 		.4byte	.LVL12
 1233 06f8 05080000 		.4byte	0x805
 1234 06fc 17       		.uleb128 0x17
 1235 06fd 01       		.uleb128 0x1
 1236 06fe 50       		.byte	0x50
 1237 06ff 01       		.uleb128 0x1
 1238 0700 3C       		.byte	0x3c
 1239 0701 00       		.byte	0
 1240 0702 00       		.byte	0
 1241 0703 18       		.uleb128 0x18
 1242 0704 D0000000 		.4byte	.LASF97
 1243 0708 01       		.byte	0x1
 1244 0709 44       		.byte	0x44
 1245 070a 07       		.byte	0x7
 1246 070b FB000000 		.4byte	0xfb
 1247 070f 00000000 		.4byte	.LFB7
 1248 0713 5C000000 		.4byte	.LFE7-.LFB7
 1249 0717 01       		.uleb128 0x1
 1250 0718 9C       		.byte	0x9c
 1251 0719 A5070000 		.4byte	0x7a5
 1252 071d 15       		.uleb128 0x15
 1253 071e 747000   		.ascii	"tp\000"
 1254 0721 01       		.byte	0x1
ARM GAS  /var/folders/l5/0x54b2c10074c8bt31ycjvl80000gp/T//ccqOlie5.s 			page 23


 1255 0722 44       		.byte	0x44
 1256 0723 19       		.byte	0x19
 1257 0724 4C020000 		.4byte	0x24c
 1258 0728 52000000 		.4byte	.LLST0
 1259 072c 4A000000 		.4byte	.LVUS0
 1260 0730 15       		.uleb128 0x15
 1261 0731 6D736700 		.ascii	"msg\000"
 1262 0735 01       		.byte	0x1
 1263 0736 44       		.byte	0x44
 1264 0737 23       		.byte	0x23
 1265 0738 FB000000 		.4byte	0xfb
 1266 073c 96000000 		.4byte	.LLST1
 1267 0740 8C000000 		.4byte	.LVUS1
 1268 0744 1E       		.uleb128 0x1e
 1269 0745 63747000 		.ascii	"ctp\000"
 1270 0749 01       		.byte	0x1
 1271 074a 45       		.byte	0x45
 1272 074b 0B       		.byte	0xb
 1273 074c 4C020000 		.4byte	0x24c
 1274 0750 DD000000 		.4byte	.LLST2
 1275 0754 DB000000 		.4byte	.LVUS2
 1276 0758 1A       		.uleb128 0x1a
 1277 0759 D4070000 		.4byte	0x7d4
 1278 075d 24000000 		.4byte	.LBI6
 1279 0761 01       		.byte	.LVU18
 1280 0762 00000000 		.4byte	.Ldebug_ranges0+0
 1281 0766 01       		.byte	0x1
 1282 0767 4C       		.byte	0x4c
 1283 0768 03       		.byte	0x3
 1284 0769 88070000 		.4byte	0x788
 1285 076d 1F       		.uleb128 0x1f
 1286 076e EC070000 		.4byte	0x7ec
 1287 0772 F2000000 		.4byte	.LLST3
 1288 0776 F0000000 		.4byte	.LVUS3
 1289 077a 1F       		.uleb128 0x1f
 1290 077b E1070000 		.4byte	0x7e1
 1291 077f 07010000 		.4byte	.LLST4
 1292 0783 05010000 		.4byte	.LVUS4
 1293 0787 00       		.byte	0
 1294 0788 20       		.uleb128 0x20
 1295 0789 44000000 		.4byte	.LVL5
 1296 078d 05080000 		.4byte	0x805
 1297 0791 9B070000 		.4byte	0x79b
 1298 0795 17       		.uleb128 0x17
 1299 0796 01       		.uleb128 0x1
 1300 0797 50       		.byte	0x50
 1301 0798 01       		.uleb128 0x1
 1302 0799 3A       		.byte	0x3a
 1303 079a 00       		.byte	0
 1304 079b 21       		.uleb128 0x21
 1305 079c 54000000 		.4byte	.LVL8
 1306 07a0 11080000 		.4byte	0x811
 1307 07a4 00       		.byte	0
 1308 07a5 22       		.uleb128 0x22
 1309 07a6 FE030000 		.4byte	.LASF105
 1310 07aa 02       		.byte	0x2
 1311 07ab 34       		.byte	0x34
ARM GAS  /var/folders/l5/0x54b2c10074c8bt31ycjvl80000gp/T//ccqOlie5.s 			page 24


 1312 07ac 17       		.byte	0x17
 1313 07ad 4C020000 		.4byte	0x24c
 1314 07b1 03       		.byte	0x3
 1315 07b2 CE070000 		.4byte	0x7ce
 1316 07b6 23       		.uleb128 0x23
 1317 07b7 74717000 		.ascii	"tqp\000"
 1318 07bb 02       		.byte	0x2
 1319 07bc 34       		.byte	0x34
 1320 07bd 31       		.byte	0x31
 1321 07be CE070000 		.4byte	0x7ce
 1322 07c2 19       		.uleb128 0x19
 1323 07c3 747000   		.ascii	"tp\000"
 1324 07c6 02       		.byte	0x2
 1325 07c7 35       		.byte	0x35
 1326 07c8 0B       		.byte	0xb
 1327 07c9 4C020000 		.4byte	0x24c
 1328 07cd 00       		.byte	0
 1329 07ce 0A       		.uleb128 0xa
 1330 07cf 04       		.byte	0x4
 1331 07d0 52020000 		.4byte	0x252
 1332 07d4 24       		.uleb128 0x24
 1333 07d5 13000000 		.4byte	.LASF106
 1334 07d9 02       		.byte	0x2
 1335 07da 2D       		.byte	0x2d
 1336 07db 14       		.byte	0x14
 1337 07dc 03       		.byte	0x3
 1338 07dd F9070000 		.4byte	0x7f9
 1339 07e1 23       		.uleb128 0x23
 1340 07e2 747000   		.ascii	"tp\000"
 1341 07e5 02       		.byte	0x2
 1342 07e6 2D       		.byte	0x2d
 1343 07e7 29       		.byte	0x29
 1344 07e8 4C020000 		.4byte	0x24c
 1345 07ec 23       		.uleb128 0x23
 1346 07ed 74717000 		.ascii	"tqp\000"
 1347 07f1 02       		.byte	0x2
 1348 07f2 2D       		.byte	0x2d
 1349 07f3 3B       		.byte	0x3b
 1350 07f4 CE070000 		.4byte	0x7ce
 1351 07f8 00       		.byte	0
 1352 07f9 25       		.uleb128 0x25
 1353 07fa 7E010000 		.4byte	.LASF98
 1354 07fe 7E010000 		.4byte	.LASF98
 1355 0802 0A       		.byte	0xa
 1356 0803 92       		.byte	0x92
 1357 0804 08       		.byte	0x8
 1358 0805 25       		.uleb128 0x25
 1359 0806 B6030000 		.4byte	.LASF99
 1360 080a B6030000 		.4byte	.LASF99
 1361 080e 0A       		.byte	0xa
 1362 080f 8C       		.byte	0x8c
 1363 0810 08       		.byte	0x8
 1364 0811 25       		.uleb128 0x25
 1365 0812 15040000 		.4byte	.LASF100
 1366 0816 15040000 		.4byte	.LASF100
 1367 081a 0A       		.byte	0xa
 1368 081b 89       		.byte	0x89
ARM GAS  /var/folders/l5/0x54b2c10074c8bt31ycjvl80000gp/T//ccqOlie5.s 			page 25


 1369 081c 0B       		.byte	0xb
 1370 081d 00       		.byte	0
 1371              		.section	.debug_abbrev,"",%progbits
 1372              	.Ldebug_abbrev0:
 1373 0000 01       		.uleb128 0x1
 1374 0001 11       		.uleb128 0x11
 1375 0002 01       		.byte	0x1
 1376 0003 25       		.uleb128 0x25
 1377 0004 0E       		.uleb128 0xe
 1378 0005 13       		.uleb128 0x13
 1379 0006 0B       		.uleb128 0xb
 1380 0007 03       		.uleb128 0x3
 1381 0008 0E       		.uleb128 0xe
 1382 0009 1B       		.uleb128 0x1b
 1383 000a 0E       		.uleb128 0xe
 1384 000b 55       		.uleb128 0x55
 1385 000c 17       		.uleb128 0x17
 1386 000d 11       		.uleb128 0x11
 1387 000e 01       		.uleb128 0x1
 1388 000f 10       		.uleb128 0x10
 1389 0010 17       		.uleb128 0x17
 1390 0011 00       		.byte	0
 1391 0012 00       		.byte	0
 1392 0013 02       		.uleb128 0x2
 1393 0014 24       		.uleb128 0x24
 1394 0015 00       		.byte	0
 1395 0016 0B       		.uleb128 0xb
 1396 0017 0B       		.uleb128 0xb
 1397 0018 3E       		.uleb128 0x3e
 1398 0019 0B       		.uleb128 0xb
 1399 001a 03       		.uleb128 0x3
 1400 001b 08       		.uleb128 0x8
 1401 001c 00       		.byte	0
 1402 001d 00       		.byte	0
 1403 001e 03       		.uleb128 0x3
 1404 001f 24       		.uleb128 0x24
 1405 0020 00       		.byte	0
 1406 0021 0B       		.uleb128 0xb
 1407 0022 0B       		.uleb128 0xb
 1408 0023 3E       		.uleb128 0x3e
 1409 0024 0B       		.uleb128 0xb
 1410 0025 03       		.uleb128 0x3
 1411 0026 0E       		.uleb128 0xe
 1412 0027 00       		.byte	0
 1413 0028 00       		.byte	0
 1414 0029 04       		.uleb128 0x4
 1415 002a 16       		.uleb128 0x16
 1416 002b 00       		.byte	0
 1417 002c 03       		.uleb128 0x3
 1418 002d 0E       		.uleb128 0xe
 1419 002e 3A       		.uleb128 0x3a
 1420 002f 0B       		.uleb128 0xb
 1421 0030 3B       		.uleb128 0x3b
 1422 0031 0B       		.uleb128 0xb
 1423 0032 39       		.uleb128 0x39
 1424 0033 0B       		.uleb128 0xb
 1425 0034 49       		.uleb128 0x49
ARM GAS  /var/folders/l5/0x54b2c10074c8bt31ycjvl80000gp/T//ccqOlie5.s 			page 26


 1426 0035 13       		.uleb128 0x13
 1427 0036 00       		.byte	0
 1428 0037 00       		.byte	0
 1429 0038 05       		.uleb128 0x5
 1430 0039 35       		.uleb128 0x35
 1431 003a 00       		.byte	0
 1432 003b 49       		.uleb128 0x49
 1433 003c 13       		.uleb128 0x13
 1434 003d 00       		.byte	0
 1435 003e 00       		.byte	0
 1436 003f 06       		.uleb128 0x6
 1437 0040 13       		.uleb128 0x13
 1438 0041 01       		.byte	0x1
 1439 0042 03       		.uleb128 0x3
 1440 0043 0E       		.uleb128 0xe
 1441 0044 0B       		.uleb128 0xb
 1442 0045 0B       		.uleb128 0xb
 1443 0046 3A       		.uleb128 0x3a
 1444 0047 0B       		.uleb128 0xb
 1445 0048 3B       		.uleb128 0x3b
 1446 0049 0B       		.uleb128 0xb
 1447 004a 39       		.uleb128 0x39
 1448 004b 0B       		.uleb128 0xb
 1449 004c 01       		.uleb128 0x1
 1450 004d 13       		.uleb128 0x13
 1451 004e 00       		.byte	0
 1452 004f 00       		.byte	0
 1453 0050 07       		.uleb128 0x7
 1454 0051 0D       		.uleb128 0xd
 1455 0052 00       		.byte	0
 1456 0053 03       		.uleb128 0x3
 1457 0054 0E       		.uleb128 0xe
 1458 0055 3A       		.uleb128 0x3a
 1459 0056 0B       		.uleb128 0xb
 1460 0057 3B       		.uleb128 0x3b
 1461 0058 0B       		.uleb128 0xb
 1462 0059 39       		.uleb128 0x39
 1463 005a 0B       		.uleb128 0xb
 1464 005b 49       		.uleb128 0x49
 1465 005c 13       		.uleb128 0x13
 1466 005d 38       		.uleb128 0x38
 1467 005e 0B       		.uleb128 0xb
 1468 005f 00       		.byte	0
 1469 0060 00       		.byte	0
 1470 0061 08       		.uleb128 0x8
 1471 0062 0D       		.uleb128 0xd
 1472 0063 00       		.byte	0
 1473 0064 03       		.uleb128 0x3
 1474 0065 08       		.uleb128 0x8
 1475 0066 3A       		.uleb128 0x3a
 1476 0067 0B       		.uleb128 0xb
 1477 0068 3B       		.uleb128 0x3b
 1478 0069 0B       		.uleb128 0xb
 1479 006a 39       		.uleb128 0x39
 1480 006b 0B       		.uleb128 0xb
 1481 006c 49       		.uleb128 0x49
 1482 006d 13       		.uleb128 0x13
ARM GAS  /var/folders/l5/0x54b2c10074c8bt31ycjvl80000gp/T//ccqOlie5.s 			page 27


 1483 006e 38       		.uleb128 0x38
 1484 006f 0B       		.uleb128 0xb
 1485 0070 00       		.byte	0
 1486 0071 00       		.byte	0
 1487 0072 09       		.uleb128 0x9
 1488 0073 13       		.uleb128 0x13
 1489 0074 01       		.byte	0x1
 1490 0075 0B       		.uleb128 0xb
 1491 0076 0B       		.uleb128 0xb
 1492 0077 3A       		.uleb128 0x3a
 1493 0078 0B       		.uleb128 0xb
 1494 0079 3B       		.uleb128 0x3b
 1495 007a 0B       		.uleb128 0xb
 1496 007b 39       		.uleb128 0x39
 1497 007c 0B       		.uleb128 0xb
 1498 007d 01       		.uleb128 0x1
 1499 007e 13       		.uleb128 0x13
 1500 007f 00       		.byte	0
 1501 0080 00       		.byte	0
 1502 0081 0A       		.uleb128 0xa
 1503 0082 0F       		.uleb128 0xf
 1504 0083 00       		.byte	0
 1505 0084 0B       		.uleb128 0xb
 1506 0085 0B       		.uleb128 0xb
 1507 0086 49       		.uleb128 0x49
 1508 0087 13       		.uleb128 0x13
 1509 0088 00       		.byte	0
 1510 0089 00       		.byte	0
 1511 008a 0B       		.uleb128 0xb
 1512 008b 0F       		.uleb128 0xf
 1513 008c 00       		.byte	0
 1514 008d 0B       		.uleb128 0xb
 1515 008e 0B       		.uleb128 0xb
 1516 008f 00       		.byte	0
 1517 0090 00       		.byte	0
 1518 0091 0C       		.uleb128 0xc
 1519 0092 15       		.uleb128 0x15
 1520 0093 01       		.byte	0x1
 1521 0094 27       		.uleb128 0x27
 1522 0095 19       		.uleb128 0x19
 1523 0096 01       		.uleb128 0x1
 1524 0097 13       		.uleb128 0x13
 1525 0098 00       		.byte	0
 1526 0099 00       		.byte	0
 1527 009a 0D       		.uleb128 0xd
 1528 009b 05       		.uleb128 0x5
 1529 009c 00       		.byte	0
 1530 009d 49       		.uleb128 0x49
 1531 009e 13       		.uleb128 0x13
 1532 009f 00       		.byte	0
 1533 00a0 00       		.byte	0
 1534 00a1 0E       		.uleb128 0xe
 1535 00a2 34       		.uleb128 0x34
 1536 00a3 00       		.byte	0
 1537 00a4 03       		.uleb128 0x3
 1538 00a5 0E       		.uleb128 0xe
 1539 00a6 3A       		.uleb128 0x3a
ARM GAS  /var/folders/l5/0x54b2c10074c8bt31ycjvl80000gp/T//ccqOlie5.s 			page 28


 1540 00a7 0B       		.uleb128 0xb
 1541 00a8 3B       		.uleb128 0x3b
 1542 00a9 0B       		.uleb128 0xb
 1543 00aa 39       		.uleb128 0x39
 1544 00ab 0B       		.uleb128 0xb
 1545 00ac 49       		.uleb128 0x49
 1546 00ad 13       		.uleb128 0x13
 1547 00ae 3F       		.uleb128 0x3f
 1548 00af 19       		.uleb128 0x19
 1549 00b0 3C       		.uleb128 0x3c
 1550 00b1 19       		.uleb128 0x19
 1551 00b2 00       		.byte	0
 1552 00b3 00       		.byte	0
 1553 00b4 0F       		.uleb128 0xf
 1554 00b5 17       		.uleb128 0x17
 1555 00b6 01       		.byte	0x1
 1556 00b7 0B       		.uleb128 0xb
 1557 00b8 0B       		.uleb128 0xb
 1558 00b9 3A       		.uleb128 0x3a
 1559 00ba 0B       		.uleb128 0xb
 1560 00bb 3B       		.uleb128 0x3b
 1561 00bc 0B       		.uleb128 0xb
 1562 00bd 39       		.uleb128 0x39
 1563 00be 0B       		.uleb128 0xb
 1564 00bf 01       		.uleb128 0x1
 1565 00c0 13       		.uleb128 0x13
 1566 00c1 00       		.byte	0
 1567 00c2 00       		.byte	0
 1568 00c3 10       		.uleb128 0x10
 1569 00c4 0D       		.uleb128 0xd
 1570 00c5 00       		.byte	0
 1571 00c6 03       		.uleb128 0x3
 1572 00c7 0E       		.uleb128 0xe
 1573 00c8 3A       		.uleb128 0x3a
 1574 00c9 0B       		.uleb128 0xb
 1575 00ca 3B       		.uleb128 0x3b
 1576 00cb 0B       		.uleb128 0xb
 1577 00cc 39       		.uleb128 0x39
 1578 00cd 0B       		.uleb128 0xb
 1579 00ce 49       		.uleb128 0x49
 1580 00cf 13       		.uleb128 0x13
 1581 00d0 00       		.byte	0
 1582 00d1 00       		.byte	0
 1583 00d2 11       		.uleb128 0x11
 1584 00d3 26       		.uleb128 0x26
 1585 00d4 00       		.byte	0
 1586 00d5 49       		.uleb128 0x49
 1587 00d6 13       		.uleb128 0x13
 1588 00d7 00       		.byte	0
 1589 00d8 00       		.byte	0
 1590 00d9 12       		.uleb128 0x12
 1591 00da 01       		.uleb128 0x1
 1592 00db 01       		.byte	0x1
 1593 00dc 49       		.uleb128 0x49
 1594 00dd 13       		.uleb128 0x13
 1595 00de 01       		.uleb128 0x1
 1596 00df 13       		.uleb128 0x13
ARM GAS  /var/folders/l5/0x54b2c10074c8bt31ycjvl80000gp/T//ccqOlie5.s 			page 29


 1597 00e0 00       		.byte	0
 1598 00e1 00       		.byte	0
 1599 00e2 13       		.uleb128 0x13
 1600 00e3 21       		.uleb128 0x21
 1601 00e4 00       		.byte	0
 1602 00e5 49       		.uleb128 0x49
 1603 00e6 13       		.uleb128 0x13
 1604 00e7 2F       		.uleb128 0x2f
 1605 00e8 0B       		.uleb128 0xb
 1606 00e9 00       		.byte	0
 1607 00ea 00       		.byte	0
 1608 00eb 14       		.uleb128 0x14
 1609 00ec 2E       		.uleb128 0x2e
 1610 00ed 01       		.byte	0x1
 1611 00ee 3F       		.uleb128 0x3f
 1612 00ef 19       		.uleb128 0x19
 1613 00f0 03       		.uleb128 0x3
 1614 00f1 0E       		.uleb128 0xe
 1615 00f2 3A       		.uleb128 0x3a
 1616 00f3 0B       		.uleb128 0xb
 1617 00f4 3B       		.uleb128 0x3b
 1618 00f5 0B       		.uleb128 0xb
 1619 00f6 39       		.uleb128 0x39
 1620 00f7 0B       		.uleb128 0xb
 1621 00f8 27       		.uleb128 0x27
 1622 00f9 19       		.uleb128 0x19
 1623 00fa 11       		.uleb128 0x11
 1624 00fb 01       		.uleb128 0x1
 1625 00fc 12       		.uleb128 0x12
 1626 00fd 06       		.uleb128 0x6
 1627 00fe 40       		.uleb128 0x40
 1628 00ff 18       		.uleb128 0x18
 1629 0100 9742     		.uleb128 0x2117
 1630 0102 19       		.uleb128 0x19
 1631 0103 01       		.uleb128 0x1
 1632 0104 13       		.uleb128 0x13
 1633 0105 00       		.byte	0
 1634 0106 00       		.byte	0
 1635 0107 15       		.uleb128 0x15
 1636 0108 05       		.uleb128 0x5
 1637 0109 00       		.byte	0
 1638 010a 03       		.uleb128 0x3
 1639 010b 08       		.uleb128 0x8
 1640 010c 3A       		.uleb128 0x3a
 1641 010d 0B       		.uleb128 0xb
 1642 010e 3B       		.uleb128 0x3b
 1643 010f 0B       		.uleb128 0xb
 1644 0110 39       		.uleb128 0x39
 1645 0111 0B       		.uleb128 0xb
 1646 0112 49       		.uleb128 0x49
 1647 0113 13       		.uleb128 0x13
 1648 0114 02       		.uleb128 0x2
 1649 0115 17       		.uleb128 0x17
 1650 0116 B742     		.uleb128 0x2137
 1651 0118 17       		.uleb128 0x17
 1652 0119 00       		.byte	0
 1653 011a 00       		.byte	0
ARM GAS  /var/folders/l5/0x54b2c10074c8bt31ycjvl80000gp/T//ccqOlie5.s 			page 30


 1654 011b 16       		.uleb128 0x16
 1655 011c 898201   		.uleb128 0x4109
 1656 011f 01       		.byte	0x1
 1657 0120 11       		.uleb128 0x11
 1658 0121 01       		.uleb128 0x1
 1659 0122 31       		.uleb128 0x31
 1660 0123 13       		.uleb128 0x13
 1661 0124 00       		.byte	0
 1662 0125 00       		.byte	0
 1663 0126 17       		.uleb128 0x17
 1664 0127 8A8201   		.uleb128 0x410a
 1665 012a 00       		.byte	0
 1666 012b 02       		.uleb128 0x2
 1667 012c 18       		.uleb128 0x18
 1668 012d 9142     		.uleb128 0x2111
 1669 012f 18       		.uleb128 0x18
 1670 0130 00       		.byte	0
 1671 0131 00       		.byte	0
 1672 0132 18       		.uleb128 0x18
 1673 0133 2E       		.uleb128 0x2e
 1674 0134 01       		.byte	0x1
 1675 0135 3F       		.uleb128 0x3f
 1676 0136 19       		.uleb128 0x19
 1677 0137 03       		.uleb128 0x3
 1678 0138 0E       		.uleb128 0xe
 1679 0139 3A       		.uleb128 0x3a
 1680 013a 0B       		.uleb128 0xb
 1681 013b 3B       		.uleb128 0x3b
 1682 013c 0B       		.uleb128 0xb
 1683 013d 39       		.uleb128 0x39
 1684 013e 0B       		.uleb128 0xb
 1685 013f 27       		.uleb128 0x27
 1686 0140 19       		.uleb128 0x19
 1687 0141 49       		.uleb128 0x49
 1688 0142 13       		.uleb128 0x13
 1689 0143 11       		.uleb128 0x11
 1690 0144 01       		.uleb128 0x1
 1691 0145 12       		.uleb128 0x12
 1692 0146 06       		.uleb128 0x6
 1693 0147 40       		.uleb128 0x40
 1694 0148 18       		.uleb128 0x18
 1695 0149 9742     		.uleb128 0x2117
 1696 014b 19       		.uleb128 0x19
 1697 014c 01       		.uleb128 0x1
 1698 014d 13       		.uleb128 0x13
 1699 014e 00       		.byte	0
 1700 014f 00       		.byte	0
 1701 0150 19       		.uleb128 0x19
 1702 0151 34       		.uleb128 0x34
 1703 0152 00       		.byte	0
 1704 0153 03       		.uleb128 0x3
 1705 0154 08       		.uleb128 0x8
 1706 0155 3A       		.uleb128 0x3a
 1707 0156 0B       		.uleb128 0xb
 1708 0157 3B       		.uleb128 0x3b
 1709 0158 0B       		.uleb128 0xb
 1710 0159 39       		.uleb128 0x39
ARM GAS  /var/folders/l5/0x54b2c10074c8bt31ycjvl80000gp/T//ccqOlie5.s 			page 31


 1711 015a 0B       		.uleb128 0xb
 1712 015b 49       		.uleb128 0x49
 1713 015c 13       		.uleb128 0x13
 1714 015d 00       		.byte	0
 1715 015e 00       		.byte	0
 1716 015f 1A       		.uleb128 0x1a
 1717 0160 1D       		.uleb128 0x1d
 1718 0161 01       		.byte	0x1
 1719 0162 31       		.uleb128 0x31
 1720 0163 13       		.uleb128 0x13
 1721 0164 52       		.uleb128 0x52
 1722 0165 01       		.uleb128 0x1
 1723 0166 B842     		.uleb128 0x2138
 1724 0168 0B       		.uleb128 0xb
 1725 0169 55       		.uleb128 0x55
 1726 016a 17       		.uleb128 0x17
 1727 016b 58       		.uleb128 0x58
 1728 016c 0B       		.uleb128 0xb
 1729 016d 59       		.uleb128 0x59
 1730 016e 0B       		.uleb128 0xb
 1731 016f 57       		.uleb128 0x57
 1732 0170 0B       		.uleb128 0xb
 1733 0171 01       		.uleb128 0x1
 1734 0172 13       		.uleb128 0x13
 1735 0173 00       		.byte	0
 1736 0174 00       		.byte	0
 1737 0175 1B       		.uleb128 0x1b
 1738 0176 05       		.uleb128 0x5
 1739 0177 00       		.byte	0
 1740 0178 31       		.uleb128 0x31
 1741 0179 13       		.uleb128 0x13
 1742 017a 00       		.byte	0
 1743 017b 00       		.byte	0
 1744 017c 1C       		.uleb128 0x1c
 1745 017d 0B       		.uleb128 0xb
 1746 017e 01       		.byte	0x1
 1747 017f 55       		.uleb128 0x55
 1748 0180 17       		.uleb128 0x17
 1749 0181 00       		.byte	0
 1750 0182 00       		.byte	0
 1751 0183 1D       		.uleb128 0x1d
 1752 0184 34       		.uleb128 0x34
 1753 0185 00       		.byte	0
 1754 0186 31       		.uleb128 0x31
 1755 0187 13       		.uleb128 0x13
 1756 0188 00       		.byte	0
 1757 0189 00       		.byte	0
 1758 018a 1E       		.uleb128 0x1e
 1759 018b 34       		.uleb128 0x34
 1760 018c 00       		.byte	0
 1761 018d 03       		.uleb128 0x3
 1762 018e 08       		.uleb128 0x8
 1763 018f 3A       		.uleb128 0x3a
 1764 0190 0B       		.uleb128 0xb
 1765 0191 3B       		.uleb128 0x3b
 1766 0192 0B       		.uleb128 0xb
 1767 0193 39       		.uleb128 0x39
ARM GAS  /var/folders/l5/0x54b2c10074c8bt31ycjvl80000gp/T//ccqOlie5.s 			page 32


 1768 0194 0B       		.uleb128 0xb
 1769 0195 49       		.uleb128 0x49
 1770 0196 13       		.uleb128 0x13
 1771 0197 02       		.uleb128 0x2
 1772 0198 17       		.uleb128 0x17
 1773 0199 B742     		.uleb128 0x2137
 1774 019b 17       		.uleb128 0x17
 1775 019c 00       		.byte	0
 1776 019d 00       		.byte	0
 1777 019e 1F       		.uleb128 0x1f
 1778 019f 05       		.uleb128 0x5
 1779 01a0 00       		.byte	0
 1780 01a1 31       		.uleb128 0x31
 1781 01a2 13       		.uleb128 0x13
 1782 01a3 02       		.uleb128 0x2
 1783 01a4 17       		.uleb128 0x17
 1784 01a5 B742     		.uleb128 0x2137
 1785 01a7 17       		.uleb128 0x17
 1786 01a8 00       		.byte	0
 1787 01a9 00       		.byte	0
 1788 01aa 20       		.uleb128 0x20
 1789 01ab 898201   		.uleb128 0x4109
 1790 01ae 01       		.byte	0x1
 1791 01af 11       		.uleb128 0x11
 1792 01b0 01       		.uleb128 0x1
 1793 01b1 31       		.uleb128 0x31
 1794 01b2 13       		.uleb128 0x13
 1795 01b3 01       		.uleb128 0x1
 1796 01b4 13       		.uleb128 0x13
 1797 01b5 00       		.byte	0
 1798 01b6 00       		.byte	0
 1799 01b7 21       		.uleb128 0x21
 1800 01b8 898201   		.uleb128 0x4109
 1801 01bb 00       		.byte	0
 1802 01bc 11       		.uleb128 0x11
 1803 01bd 01       		.uleb128 0x1
 1804 01be 31       		.uleb128 0x31
 1805 01bf 13       		.uleb128 0x13
 1806 01c0 00       		.byte	0
 1807 01c1 00       		.byte	0
 1808 01c2 22       		.uleb128 0x22
 1809 01c3 2E       		.uleb128 0x2e
 1810 01c4 01       		.byte	0x1
 1811 01c5 03       		.uleb128 0x3
 1812 01c6 0E       		.uleb128 0xe
 1813 01c7 3A       		.uleb128 0x3a
 1814 01c8 0B       		.uleb128 0xb
 1815 01c9 3B       		.uleb128 0x3b
 1816 01ca 0B       		.uleb128 0xb
 1817 01cb 39       		.uleb128 0x39
 1818 01cc 0B       		.uleb128 0xb
 1819 01cd 27       		.uleb128 0x27
 1820 01ce 19       		.uleb128 0x19
 1821 01cf 49       		.uleb128 0x49
 1822 01d0 13       		.uleb128 0x13
 1823 01d1 20       		.uleb128 0x20
 1824 01d2 0B       		.uleb128 0xb
ARM GAS  /var/folders/l5/0x54b2c10074c8bt31ycjvl80000gp/T//ccqOlie5.s 			page 33


 1825 01d3 01       		.uleb128 0x1
 1826 01d4 13       		.uleb128 0x13
 1827 01d5 00       		.byte	0
 1828 01d6 00       		.byte	0
 1829 01d7 23       		.uleb128 0x23
 1830 01d8 05       		.uleb128 0x5
 1831 01d9 00       		.byte	0
 1832 01da 03       		.uleb128 0x3
 1833 01db 08       		.uleb128 0x8
 1834 01dc 3A       		.uleb128 0x3a
 1835 01dd 0B       		.uleb128 0xb
 1836 01de 3B       		.uleb128 0x3b
 1837 01df 0B       		.uleb128 0xb
 1838 01e0 39       		.uleb128 0x39
 1839 01e1 0B       		.uleb128 0xb
 1840 01e2 49       		.uleb128 0x49
 1841 01e3 13       		.uleb128 0x13
 1842 01e4 00       		.byte	0
 1843 01e5 00       		.byte	0
 1844 01e6 24       		.uleb128 0x24
 1845 01e7 2E       		.uleb128 0x2e
 1846 01e8 01       		.byte	0x1
 1847 01e9 03       		.uleb128 0x3
 1848 01ea 0E       		.uleb128 0xe
 1849 01eb 3A       		.uleb128 0x3a
 1850 01ec 0B       		.uleb128 0xb
 1851 01ed 3B       		.uleb128 0x3b
 1852 01ee 0B       		.uleb128 0xb
 1853 01ef 39       		.uleb128 0x39
 1854 01f0 0B       		.uleb128 0xb
 1855 01f1 27       		.uleb128 0x27
 1856 01f2 19       		.uleb128 0x19
 1857 01f3 20       		.uleb128 0x20
 1858 01f4 0B       		.uleb128 0xb
 1859 01f5 01       		.uleb128 0x1
 1860 01f6 13       		.uleb128 0x13
 1861 01f7 00       		.byte	0
 1862 01f8 00       		.byte	0
 1863 01f9 25       		.uleb128 0x25
 1864 01fa 2E       		.uleb128 0x2e
 1865 01fb 00       		.byte	0
 1866 01fc 3F       		.uleb128 0x3f
 1867 01fd 19       		.uleb128 0x19
 1868 01fe 3C       		.uleb128 0x3c
 1869 01ff 19       		.uleb128 0x19
 1870 0200 6E       		.uleb128 0x6e
 1871 0201 0E       		.uleb128 0xe
 1872 0202 03       		.uleb128 0x3
 1873 0203 0E       		.uleb128 0xe
 1874 0204 3A       		.uleb128 0x3a
 1875 0205 0B       		.uleb128 0xb
 1876 0206 3B       		.uleb128 0x3b
 1877 0207 0B       		.uleb128 0xb
 1878 0208 39       		.uleb128 0x39
 1879 0209 0B       		.uleb128 0xb
 1880 020a 00       		.byte	0
 1881 020b 00       		.byte	0
ARM GAS  /var/folders/l5/0x54b2c10074c8bt31ycjvl80000gp/T//ccqOlie5.s 			page 34


 1882 020c 00       		.byte	0
 1883              		.section	.debug_loc,"",%progbits
 1884              	.Ldebug_loc0:
 1885              	.LVUS5:
 1886 0000 00       		.uleb128 0
 1887 0001 00       		.uleb128 .LVU75
 1888 0002 00       		.uleb128 .LVU75
 1889 0003 00       		.uleb128 0
 1890              	.LLST5:
 1891 0004 00000000 		.4byte	.LVL13
 1892 0008 0B000000 		.4byte	.LVL14-1
 1893 000c 0100     		.2byte	0x1
 1894 000e 50       		.byte	0x50
 1895 000f 0B000000 		.4byte	.LVL14-1
 1896 0013 14000000 		.4byte	.LFE9
 1897 0017 0400     		.2byte	0x4
 1898 0019 F3       		.byte	0xf3
 1899 001a 01       		.uleb128 0x1
 1900 001b 50       		.byte	0x50
 1901 001c 9F       		.byte	0x9f
 1902 001d 00000000 		.4byte	0
 1903 0021 00000000 		.4byte	0
 1904              	.LVUS6:
 1905 0025 00       		.uleb128 0
 1906 0026 00       		.uleb128 .LVU75
 1907 0027 00       		.uleb128 .LVU75
 1908 0028 00       		.uleb128 0
 1909              	.LLST6:
 1910 0029 00000000 		.4byte	.LVL13
 1911 002d 0B000000 		.4byte	.LVL14-1
 1912 0031 0100     		.2byte	0x1
 1913 0033 51       		.byte	0x51
 1914 0034 0B000000 		.4byte	.LVL14-1
 1915 0038 14000000 		.4byte	.LFE9
 1916 003c 0400     		.2byte	0x4
 1917 003e F3       		.byte	0xf3
 1918 003f 01       		.uleb128 0x1
 1919 0040 51       		.byte	0x51
 1920 0041 9F       		.byte	0x9f
 1921 0042 00000000 		.4byte	0
 1922 0046 00000000 		.4byte	0
 1923              	.LVUS0:
 1924 004a 00       		.uleb128 0
 1925 004b 00       		.uleb128 .LVU28
 1926 004c 00       		.uleb128 .LVU28
 1927 004d 00       		.uleb128 .LVU36
 1928 004e 00       		.uleb128 .LVU36
 1929 004f 00       		.uleb128 .LVU37
 1930 0050 00       		.uleb128 .LVU37
 1931 0051 00       		.uleb128 0
 1932              	.LLST0:
 1933 0052 00000000 		.4byte	.LVL0
 1934 0056 3C000000 		.4byte	.LVL4
 1935 005a 0100     		.2byte	0x1
 1936 005c 50       		.byte	0x50
 1937 005d 3C000000 		.4byte	.LVL4
 1938 0061 50000000 		.4byte	.LVL7
ARM GAS  /var/folders/l5/0x54b2c10074c8bt31ycjvl80000gp/T//ccqOlie5.s 			page 35


 1939 0065 0400     		.2byte	0x4
 1940 0067 F3       		.byte	0xf3
 1941 0068 01       		.uleb128 0x1
 1942 0069 50       		.byte	0x50
 1943 006a 9F       		.byte	0x9f
 1944 006b 50000000 		.4byte	.LVL7
 1945 006f 53000000 		.4byte	.LVL8-1
 1946 0073 0100     		.2byte	0x1
 1947 0075 50       		.byte	0x50
 1948 0076 53000000 		.4byte	.LVL8-1
 1949 007a 5C000000 		.4byte	.LFE7
 1950 007e 0400     		.2byte	0x4
 1951 0080 F3       		.byte	0xf3
 1952 0081 01       		.uleb128 0x1
 1953 0082 50       		.byte	0x50
 1954 0083 9F       		.byte	0x9f
 1955 0084 00000000 		.4byte	0
 1956 0088 00000000 		.4byte	0
 1957              	.LVUS1:
 1958 008c 00       		.uleb128 0
 1959 008d 00       		.uleb128 .LVU28
 1960 008e 00       		.uleb128 .LVU28
 1961 008f 00       		.uleb128 .LVU31
 1962 0090 00       		.uleb128 .LVU31
 1963 0091 00       		.uleb128 .LVU36
 1964 0092 00       		.uleb128 .LVU36
 1965 0093 00       		.uleb128 .LVU37
 1966 0094 00       		.uleb128 .LVU37
 1967 0095 00       		.uleb128 0
 1968              	.LLST1:
 1969 0096 00000000 		.4byte	.LVL0
 1970 009a 3C000000 		.4byte	.LVL4
 1971 009e 0100     		.2byte	0x1
 1972 00a0 51       		.byte	0x51
 1973 00a1 3C000000 		.4byte	.LVL4
 1974 00a5 48000000 		.4byte	.LVL6
 1975 00a9 0400     		.2byte	0x4
 1976 00ab F3       		.byte	0xf3
 1977 00ac 01       		.uleb128 0x1
 1978 00ad 51       		.byte	0x51
 1979 00ae 9F       		.byte	0x9f
 1980 00af 48000000 		.4byte	.LVL6
 1981 00b3 50000000 		.4byte	.LVL7
 1982 00b7 0100     		.2byte	0x1
 1983 00b9 50       		.byte	0x50
 1984 00ba 50000000 		.4byte	.LVL7
 1985 00be 53000000 		.4byte	.LVL8-1
 1986 00c2 0100     		.2byte	0x1
 1987 00c4 51       		.byte	0x51
 1988 00c5 53000000 		.4byte	.LVL8-1
 1989 00c9 5C000000 		.4byte	.LFE7
 1990 00cd 0400     		.2byte	0x4
 1991 00cf F3       		.byte	0xf3
 1992 00d0 01       		.uleb128 0x1
 1993 00d1 51       		.byte	0x51
 1994 00d2 9F       		.byte	0x9f
 1995 00d3 00000000 		.4byte	0
ARM GAS  /var/folders/l5/0x54b2c10074c8bt31ycjvl80000gp/T//ccqOlie5.s 			page 36


 1996 00d7 00000000 		.4byte	0
 1997              	.LVUS2:
 1998 00db 00       		.uleb128 .LVU5
 1999 00dc 00       		.uleb128 0
 2000              	.LLST2:
 2001 00dd 0C000000 		.4byte	.LVL1
 2002 00e1 5C000000 		.4byte	.LFE7
 2003 00e5 0100     		.2byte	0x1
 2004 00e7 54       		.byte	0x54
 2005 00e8 00000000 		.4byte	0
 2006 00ec 00000000 		.4byte	0
 2007              	.LVUS3:
 2008 00f0 01       		.uleb128 .LVU18
 2009 00f1 00       		.uleb128 .LVU25
 2010              	.LLST3:
 2011 00f2 24000000 		.4byte	.LVL2
 2012 00f6 30000000 		.4byte	.LVL3
 2013 00fa 0100     		.2byte	0x1
 2014 00fc 5C       		.byte	0x5c
 2015 00fd 00000000 		.4byte	0
 2016 0101 00000000 		.4byte	0
 2017              	.LVUS4:
 2018 0105 01       		.uleb128 .LVU18
 2019 0106 00       		.uleb128 .LVU25
 2020              	.LLST4:
 2021 0107 24000000 		.4byte	.LVL2
 2022 010b 30000000 		.4byte	.LVL3
 2023 010f 0100     		.2byte	0x1
 2024 0111 54       		.byte	0x54
 2025 0112 00000000 		.4byte	0
 2026 0116 00000000 		.4byte	0
 2027              		.section	.debug_aranges,"",%progbits
 2028 0000 2C000000 		.4byte	0x2c
 2029 0004 0200     		.2byte	0x2
 2030 0006 00000000 		.4byte	.Ldebug_info0
 2031 000a 04       		.byte	0x4
 2032 000b 00       		.byte	0
 2033 000c 0000     		.2byte	0
 2034 000e 0000     		.2byte	0
 2035 0010 00000000 		.4byte	.LFB7
 2036 0014 5C000000 		.4byte	.LFE7-.LFB7
 2037 0018 00000000 		.4byte	.LFB8
 2038 001c 58000000 		.4byte	.LFE8-.LFB8
 2039 0020 00000000 		.4byte	.LFB9
 2040 0024 14000000 		.4byte	.LFE9-.LFB9
 2041 0028 00000000 		.4byte	0
 2042 002c 00000000 		.4byte	0
 2043              		.section	.debug_ranges,"",%progbits
 2044              	.Ldebug_ranges0:
 2045 0000 10000000 		.4byte	.LBB6
 2046 0004 14000000 		.4byte	.LBE6
 2047 0008 1C000000 		.4byte	.LBB10
 2048 000c 20000000 		.4byte	.LBE10
 2049 0010 24000000 		.4byte	.LBB11
 2050 0014 30000000 		.4byte	.LBE11
 2051 0018 00000000 		.4byte	0
 2052 001c 00000000 		.4byte	0
ARM GAS  /var/folders/l5/0x54b2c10074c8bt31ycjvl80000gp/T//ccqOlie5.s 			page 37


 2053 0020 20000000 		.4byte	.LBB12
 2054 0024 20000000 		.4byte	.LBE12
 2055 0028 24000000 		.4byte	.LBB15
 2056 002c 30000000 		.4byte	.LBE15
 2057 0030 00000000 		.4byte	0
 2058 0034 00000000 		.4byte	0
 2059 0038 00000000 		.4byte	.LFB7
 2060 003c 5C000000 		.4byte	.LFE7
 2061 0040 00000000 		.4byte	.LFB8
 2062 0044 58000000 		.4byte	.LFE8
 2063 0048 00000000 		.4byte	.LFB9
 2064 004c 14000000 		.4byte	.LFE9
 2065 0050 00000000 		.4byte	0
 2066 0054 00000000 		.4byte	0
 2067              		.section	.debug_line,"",%progbits
 2068              	.Ldebug_line0:
 2069 0000 DE020000 		.section	.debug_str,"MS",%progbits,1
 2069      03009401 
 2069      00000201 
 2069      FB0E0D00 
 2069      01010101 
 2070              	.LASF85:
 2071 0000 63665F6F 		.ascii	"cf_off_older\000"
 2071      66665F6F 
 2071      6C646572 
 2071      00
 2072              	.LASF38:
 2073 000d 705F6D73 		.ascii	"p_msg\000"
 2073      6700
 2074              	.LASF106:
 2075 0013 71756575 		.ascii	"queue_insert\000"
 2075      655F696E 
 2075      73657274 
 2075      00
 2076              	.LASF70:
 2077 0020 7264796D 		.ascii	"rdymsg\000"
 2077      736700
 2078              	.LASF4:
 2079 0027 5F5F7569 		.ascii	"__uint8_t\000"
 2079      6E74385F 
 2079      7400
 2080              	.LASF64:
 2081 0031 76746C69 		.ascii	"vtlist\000"
 2081      737400
 2082              	.LASF12:
 2083 0038 6C6F6E67 		.ascii	"long long unsigned int\000"
 2083      206C6F6E 
 2083      6720756E 
 2083      7369676E 
 2083      65642069 
 2084              	.LASF81:
 2085 004f 63685F74 		.ascii	"ch_threadsize\000"
 2085      68726561 
 2085      6473697A 
 2085      6500
 2086              	.LASF71:
 2087 005d 65786974 		.ascii	"exitcode\000"
ARM GAS  /var/folders/l5/0x54b2c10074c8bt31ycjvl80000gp/T//ccqOlie5.s 			page 38


 2087      636F6465 
 2087      00
 2088              	.LASF27:
 2089 0066 705F7072 		.ascii	"p_prio\000"
 2089      696F00
 2090              	.LASF88:
 2091 006d 63665F6F 		.ascii	"cf_off_state\000"
 2091      66665F73 
 2091      74617465 
 2091      00
 2092              	.LASF11:
 2093 007a 6C6F6E67 		.ascii	"long long int\000"
 2093      206C6F6E 
 2093      6720696E 
 2093      7400
 2094              	.LASF1:
 2095 0088 7369676E 		.ascii	"signed char\000"
 2095      65642063 
 2095      68617200 
 2096              	.LASF87:
 2097 0094 63665F6F 		.ascii	"cf_off_stklimit\000"
 2097      66665F73 
 2097      746B6C69 
 2097      6D697400 
 2098              	.LASF89:
 2099 00a4 63665F6F 		.ascii	"cf_off_flags\000"
 2099      66665F66 
 2099      6C616773 
 2099      00
 2100              	.LASF67:
 2101 00b1 6D5F7175 		.ascii	"m_queue\000"
 2101      65756500 
 2102              	.LASF75:
 2103 00b9 63685F69 		.ascii	"ch_identifier\000"
 2103      64656E74 
 2103      69666965 
 2103      7200
 2104              	.LASF8:
 2105 00c7 6C6F6E67 		.ascii	"long int\000"
 2105      20696E74 
 2105      00
 2106              	.LASF97:
 2107 00d0 63684D73 		.ascii	"chMsgSend\000"
 2107      6753656E 
 2107      6400
 2108              	.LASF18:
 2109 00da 74737461 		.ascii	"tstate_t\000"
 2109      74655F74 
 2109      00
 2110              	.LASF14:
 2111 00e3 75696E74 		.ascii	"uint16_t\000"
 2111      31365F74 
 2111      00
 2112              	.LASF93:
 2113 00ec 63686465 		.ascii	"chdebug_t\000"
 2113      6275675F 
 2113      7400
ARM GAS  /var/folders/l5/0x54b2c10074c8bt31ycjvl80000gp/T//ccqOlie5.s 			page 39


 2114              	.LASF29:
 2115 00f6 705F6E65 		.ascii	"p_newer\000"
 2115      77657200 
 2116              	.LASF95:
 2117 00fe 5F69646C 		.ascii	"_idle_thread_wa\000"
 2117      655F7468 
 2117      72656164 
 2117      5F776100 
 2118              	.LASF9:
 2119 010e 5F5F7569 		.ascii	"__uint32_t\000"
 2119      6E743332 
 2119      5F7400
 2120              	.LASF45:
 2121 0119 72656761 		.ascii	"regarm_t\000"
 2121      726D5F74 
 2121      00
 2122              	.LASF51:
 2123 0122 76745F70 		.ascii	"vt_prev\000"
 2123      72657600 
 2124              	.LASF0:
 2125 012a 756E7369 		.ascii	"unsigned int\000"
 2125      676E6564 
 2125      20696E74 
 2125      00
 2126              	.LASF50:
 2127 0137 76745F6E 		.ascii	"vt_next\000"
 2127      65787400 
 2128              	.LASF10:
 2129 013f 6C6F6E67 		.ascii	"long unsigned int\000"
 2129      20756E73 
 2129      69676E65 
 2129      6420696E 
 2129      7400
 2130              	.LASF94:
 2131 0151 63685F64 		.ascii	"ch_debug\000"
 2131      65627567 
 2131      00
 2132              	.LASF48:
 2133 015a 76746675 		.ascii	"vtfunc_t\000"
 2133      6E635F74 
 2133      00
 2134              	.LASF47:
 2135 0163 636F6E74 		.ascii	"context\000"
 2135      65787400 
 2136              	.LASF6:
 2137 016b 73686F72 		.ascii	"short unsigned int\000"
 2137      7420756E 
 2137      7369676E 
 2137      65642069 
 2137      6E7400
 2138              	.LASF98:
 2139 017e 63685363 		.ascii	"chSchWakeupS\000"
 2139      6857616B 
 2139      65757053 
 2139      00
 2140              	.LASF78:
 2141 018b 63685F76 		.ascii	"ch_version\000"
ARM GAS  /var/folders/l5/0x54b2c10074c8bt31ycjvl80000gp/T//ccqOlie5.s 			page 40


 2141      65727369 
 2141      6F6E00
 2142              	.LASF21:
 2143 0196 6D73675F 		.ascii	"msg_t\000"
 2143      7400
 2144              	.LASF60:
 2145 019c 725F6E65 		.ascii	"r_newer\000"
 2145      77657200 
 2146              	.LASF101:
 2147 01a4 474E5520 		.ascii	"GNU C17 8.3.1 20190703 (release) [gcc-8-branch revi"
 2147      43313720 
 2147      382E332E 
 2147      31203230 
 2147      31393037 
 2148 01d7 73696F6E 		.ascii	"sion 273027] -mcpu=arm1176jz-s -mno-thumb-interwork"
 2148      20323733 
 2148      3032375D 
 2148      202D6D63 
 2148      70753D61 
 2149 020a 202D6D66 		.ascii	" -mfloat-abi=soft -marm -march=armv6kz -ggdb -O2 -f"
 2149      6C6F6174 
 2149      2D616269 
 2149      3D736F66 
 2149      74202D6D 
 2150 023d 6F6D6974 		.ascii	"omit-frame-pointer -ffunction-sections -fdata-secti"
 2150      2D667261 
 2150      6D652D70 
 2150      6F696E74 
 2150      6572202D 
 2151 0270 6F6E7300 		.ascii	"ons\000"
 2152              	.LASF17:
 2153 0274 746D6F64 		.ascii	"tmode_t\000"
 2153      655F7400 
 2154              	.LASF43:
 2155 027c 54687265 		.ascii	"ThreadsList\000"
 2155      6164734C 
 2155      69737400 
 2156              	.LASF22:
 2157 0288 6576656E 		.ascii	"eventmask_t\000"
 2157      746D6173 
 2157      6B5F7400 
 2158              	.LASF66:
 2159 0294 4D757465 		.ascii	"Mutex\000"
 2159      7800
 2160              	.LASF44:
 2161 029a 73746B61 		.ascii	"stkalign_t\000"
 2161      6C69676E 
 2161      5F7400
 2162              	.LASF76:
 2163 02a5 63685F7A 		.ascii	"ch_zero\000"
 2163      65726F00 
 2164              	.LASF90:
 2165 02ad 63665F6F 		.ascii	"cf_off_refs\000"
 2165      66665F72 
 2165      65667300 
 2166              	.LASF52:
 2167 02b9 76745F74 		.ascii	"vt_time\000"
ARM GAS  /var/folders/l5/0x54b2c10074c8bt31ycjvl80000gp/T//ccqOlie5.s 			page 41


 2167      696D6500 
 2168              	.LASF53:
 2169 02c1 76745F66 		.ascii	"vt_func\000"
 2169      756E6300 
 2170              	.LASF80:
 2171 02c9 63685F74 		.ascii	"ch_timesize\000"
 2171      696D6573 
 2171      697A6500 
 2172              	.LASF86:
 2173 02d5 63665F6F 		.ascii	"cf_off_name\000"
 2173      66665F6E 
 2173      616D6500 
 2174              	.LASF30:
 2175 02e1 705F6F6C 		.ascii	"p_older\000"
 2175      64657200 
 2176              	.LASF59:
 2177 02e9 725F6374 		.ascii	"r_ctx\000"
 2177      7800
 2178              	.LASF42:
 2179 02ef 54687265 		.ascii	"ThreadsQueue\000"
 2179      61647351 
 2179      75657565 
 2179      00
 2180              	.LASF77:
 2181 02fc 63685F73 		.ascii	"ch_size\000"
 2181      697A6500 
 2182              	.LASF62:
 2183 0304 725F6375 		.ascii	"r_current\000"
 2183      7272656E 
 2183      7400
 2184              	.LASF61:
 2185 030e 725F6F6C 		.ascii	"r_older\000"
 2185      64657200 
 2186              	.LASF19:
 2187 0316 74726566 		.ascii	"trefs_t\000"
 2187      735F7400 
 2188              	.LASF79:
 2189 031e 63685F70 		.ascii	"ch_ptrsize\000"
 2189      74727369 
 2189      7A6500
 2190              	.LASF26:
 2191 0329 705F7072 		.ascii	"p_prev\000"
 2191      657600
 2192              	.LASF20:
 2193 0330 74707269 		.ascii	"tprio_t\000"
 2193      6F5F7400 
 2194              	.LASF15:
 2195 0338 696E7433 		.ascii	"int32_t\000"
 2195      325F7400 
 2196              	.LASF2:
 2197 0340 756E7369 		.ascii	"unsigned char\000"
 2197      676E6564 
 2197      20636861 
 2197      7200
 2198              	.LASF40:
 2199 034e 705F6D74 		.ascii	"p_mtxlist\000"
 2199      786C6973 
ARM GAS  /var/folders/l5/0x54b2c10074c8bt31ycjvl80000gp/T//ccqOlie5.s 			page 42


 2199      7400
 2200              	.LASF3:
 2201 0358 73686F72 		.ascii	"short int\000"
 2201      7420696E 
 2201      7400
 2202              	.LASF32:
 2203 0362 705F7374 		.ascii	"p_state\000"
 2203      61746500 
 2204              	.LASF92:
 2205 036a 63665F6F 		.ascii	"cf_off_time\000"
 2205      66665F74 
 2205      696D6500 
 2206              	.LASF58:
 2207 0376 725F7072 		.ascii	"r_prio\000"
 2207      696F00
 2208              	.LASF73:
 2209 037d 65776D61 		.ascii	"ewmask\000"
 2209      736B00
 2210              	.LASF25:
 2211 0384 705F6E65 		.ascii	"p_next\000"
 2211      787400
 2212              	.LASF91:
 2213 038b 63665F6F 		.ascii	"cf_off_preempt\000"
 2213      66665F70 
 2213      7265656D 
 2213      707400
 2214              	.LASF33:
 2215 039a 705F666C 		.ascii	"p_flags\000"
 2215      61677300 
 2216              	.LASF24:
 2217 03a2 54687265 		.ascii	"Thread\000"
 2217      616400
 2218              	.LASF84:
 2219 03a9 63665F6F 		.ascii	"cf_off_newer\000"
 2219      66665F6E 
 2219      65776572 
 2219      00
 2220              	.LASF99:
 2221 03b6 63685363 		.ascii	"chSchGoSleepS\000"
 2221      68476F53 
 2221      6C656570 
 2221      5300
 2222              	.LASF39:
 2223 03c4 705F6570 		.ascii	"p_epending\000"
 2223      656E6469 
 2223      6E6700
 2224              	.LASF16:
 2225 03cf 75696E74 		.ascii	"uint32_t\000"
 2225      33325F74 
 2225      00
 2226              	.LASF82:
 2227 03d8 63665F6F 		.ascii	"cf_off_prio\000"
 2227      66665F70 
 2227      72696F00 
 2228              	.LASF57:
 2229 03e4 725F7175 		.ascii	"r_queue\000"
 2229      65756500 
ARM GAS  /var/folders/l5/0x54b2c10074c8bt31ycjvl80000gp/T//ccqOlie5.s 			page 43


 2230              	.LASF49:
 2231 03ec 56697274 		.ascii	"VirtualTimer\000"
 2231      75616C54 
 2231      696D6572 
 2231      00
 2232              	.LASF74:
 2233 03f9 63686172 		.ascii	"char\000"
 2233      00
 2234              	.LASF105:
 2235 03fe 6669666F 		.ascii	"fifo_remove\000"
 2235      5F72656D 
 2235      6F766500 
 2236              	.LASF5:
 2237 040a 5F5F7569 		.ascii	"__uint16_t\000"
 2237      6E743136 
 2237      5F7400
 2238              	.LASF100:
 2239 0415 63685363 		.ascii	"chSchReadyI\000"
 2239      68526561 
 2239      64794900 
 2240              	.LASF69:
 2241 0421 6D5F6E65 		.ascii	"m_next\000"
 2241      787400
 2242              	.LASF23:
 2243 0428 73797374 		.ascii	"systime_t\000"
 2243      696D655F 
 2243      7400
 2244              	.LASF41:
 2245 0432 705F7265 		.ascii	"p_realprio\000"
 2245      616C7072 
 2245      696F00
 2246              	.LASF7:
 2247 043d 5F5F696E 		.ascii	"__int32_t\000"
 2247      7433325F 
 2247      7400
 2248              	.LASF35:
 2249 0447 705F7469 		.ascii	"p_time\000"
 2249      6D6500
 2250              	.LASF46:
 2251 044e 696E7463 		.ascii	"intctx\000"
 2251      747800
 2252              	.LASF37:
 2253 0455 705F6D73 		.ascii	"p_msgqueue\000"
 2253      67717565 
 2253      756500
 2254              	.LASF54:
 2255 0460 76745F70 		.ascii	"vt_par\000"
 2255      617200
 2256              	.LASF104:
 2257 0467 63684D73 		.ascii	"chMsgRelease\000"
 2257      6752656C 
 2257      65617365 
 2257      00
 2258              	.LASF83:
 2259 0474 63665F6F 		.ascii	"cf_off_ctx\000"
 2259      66665F63 
 2259      747800
ARM GAS  /var/folders/l5/0x54b2c10074c8bt31ycjvl80000gp/T//ccqOlie5.s 			page 44


 2260              	.LASF34:
 2261 047f 705F7265 		.ascii	"p_refs\000"
 2261      667300
 2262              	.LASF63:
 2263 0486 52656164 		.ascii	"ReadyList\000"
 2263      794C6973 
 2263      7400
 2264              	.LASF96:
 2265 0490 63684D73 		.ascii	"chMsgWait\000"
 2265      67576169 
 2265      7400
 2266              	.LASF65:
 2267 049a 726C6973 		.ascii	"rlist\000"
 2267      7400
 2268              	.LASF13:
 2269 04a0 75696E74 		.ascii	"uint8_t\000"
 2269      385F7400 
 2270              	.LASF72:
 2271 04a8 77746F62 		.ascii	"wtobjp\000"
 2271      6A7000
 2272              	.LASF31:
 2273 04af 705F6E61 		.ascii	"p_name\000"
 2273      6D6500
 2274              	.LASF55:
 2275 04b6 76745F73 		.ascii	"vt_systime\000"
 2275      79737469 
 2275      6D6500
 2276              	.LASF102:
 2277 04c1 2E2E2F2E 		.ascii	"../../os/kernel/src/chmsg.c\000"
 2277      2E2F6F73 
 2277      2F6B6572 
 2277      6E656C2F 
 2277      7372632F 
 2278              	.LASF103:
 2279 04dd 2F557365 		.ascii	"/Users/fernandoguirado/eclipse-workspace/ChibiOS-RP"
 2279      72732F66 
 2279      65726E61 
 2279      6E646F67 
 2279      75697261 
 2280 0510 692D636F 		.ascii	"i-copia/demos/timers\000"
 2280      7069612F 
 2280      64656D6F 
 2280      732F7469 
 2280      6D657273 
 2281              	.LASF56:
 2282 0525 56544C69 		.ascii	"VTList\000"
 2282      737400
 2283              	.LASF68:
 2284 052c 6D5F6F77 		.ascii	"m_owner\000"
 2284      6E657200 
 2285              	.LASF28:
 2286 0534 705F6374 		.ascii	"p_ctx\000"
 2286      7800
 2287              	.LASF36:
 2288 053a 705F7761 		.ascii	"p_waiting\000"
 2288      6974696E 
 2288      6700
ARM GAS  /var/folders/l5/0x54b2c10074c8bt31ycjvl80000gp/T//ccqOlie5.s 			page 45


 2289              		.ident	"GCC: (GNU Tools for Arm Embedded Processors 8-2019-q3-update) 8.3.1 20190703 (release) [gc
ARM GAS  /var/folders/l5/0x54b2c10074c8bt31ycjvl80000gp/T//ccqOlie5.s 			page 46


DEFINED SYMBOLS
                            *ABS*:0000000000000000 chmsg.c
/var/folders/l5/0x54b2c10074c8bt31ycjvl80000gp/T//ccqOlie5.s:16     .text.chMsgSend:0000000000000000 $a
/var/folders/l5/0x54b2c10074c8bt31ycjvl80000gp/T//ccqOlie5.s:23     .text.chMsgSend:0000000000000000 chMsgSend
/var/folders/l5/0x54b2c10074c8bt31ycjvl80000gp/T//ccqOlie5.s:130    .text.chMsgSend:0000000000000058 $d
/var/folders/l5/0x54b2c10074c8bt31ycjvl80000gp/T//ccqOlie5.s:135    .text.chMsgWait:0000000000000000 $a
/var/folders/l5/0x54b2c10074c8bt31ycjvl80000gp/T//ccqOlie5.s:141    .text.chMsgWait:0000000000000000 chMsgWait
/var/folders/l5/0x54b2c10074c8bt31ycjvl80000gp/T//ccqOlie5.s:226    .text.chMsgWait:0000000000000054 $d
/var/folders/l5/0x54b2c10074c8bt31ycjvl80000gp/T//ccqOlie5.s:231    .text.chMsgRelease:0000000000000000 $a
/var/folders/l5/0x54b2c10074c8bt31ycjvl80000gp/T//ccqOlie5.s:237    .text.chMsgRelease:0000000000000000 chMsgRelease

UNDEFINED SYMBOLS
chSchGoSleepS
chSchReadyI
rlist
chSchWakeupS
