ARM GAS  /var/folders/l5/0x54b2c10074c8bt31ycjvl80000gp/T//cc9SIASL.s 			page 1


   1              		.cpu arm1176jz-s
   2              		.eabi_attribute 20, 1
   3              		.eabi_attribute 21, 1
   4              		.eabi_attribute 23, 3
   5              		.eabi_attribute 24, 1
   6              		.eabi_attribute 25, 1
   7              		.eabi_attribute 26, 1
   8              		.eabi_attribute 30, 2
   9              		.eabi_attribute 34, 1
  10              		.eabi_attribute 18, 4
  11              		.file	"chmtx.c"
  12              		.text
  13              	.Ltext0:
  14              		.cfi_sections	.debug_frame
  15              		.section	.text.chMtxInit,"ax",%progbits
  16              		.align	2
  17              		.global	chMtxInit
  18              		.arch armv6kz
  19              		.syntax unified
  20              		.arm
  21              		.fpu softvfp
  22              		.type	chMtxInit, %function
  23              	chMtxInit:
  24              	.LVL0:
  25              	.LFB7:
  26              		.file 1 "../../os/kernel/src/chmtx.c"
  27              		.loc 1 79 27 view -0
  28              		.cfi_startproc
  29              		@ args = 0, pretend = 0, frame = 0
  30              		@ frame_needed = 0, uses_anonymous_args = 0
  31              		@ link register save eliminated.
  32              		.loc 1 81 3 view .LVU1
  33              		.loc 1 81 38 view .LVU2
  34              		.loc 1 83 3 view .LVU3
  35              		.loc 1 84 15 is_stmt 0 view .LVU4
  36 0000 0030A0E3 		mov	r3, #0
  37              		.loc 1 83 3 view .LVU5
  38 0004 040080E5 		str	r0, [r0, #4]
  39 0008 000080E5 		str	r0, [r0]
  40              		.loc 1 83 27 is_stmt 1 view .LVU6
  41              		.loc 1 84 3 view .LVU7
  42              		.loc 1 84 15 is_stmt 0 view .LVU8
  43 000c 083080E5 		str	r3, [r0, #8]
  44              		.loc 1 85 1 view .LVU9
  45 0010 1EFF2FE1 		bx	lr
  46              		.cfi_endproc
  47              	.LFE7:
  48              		.size	chMtxInit, .-chMtxInit
  49              		.section	.text.chMtxLockS,"ax",%progbits
  50              		.align	2
  51              		.global	chMtxLockS
  52              		.syntax unified
  53              		.arm
  54              		.fpu softvfp
  55              		.type	chMtxLockS, %function
  56              	chMtxLockS:
  57              	.LVL1:
ARM GAS  /var/folders/l5/0x54b2c10074c8bt31ycjvl80000gp/T//cc9SIASL.s 			page 2


  58              	.LFB9:
  59              		.loc 1 114 28 is_stmt 1 view -0
  60              		.cfi_startproc
  61              		@ args = 0, pretend = 0, frame = 0
  62              		@ frame_needed = 0, uses_anonymous_args = 0
  63              		.loc 1 115 3 view .LVU11
  64              		.loc 1 121 9 is_stmt 0 view .LVU12
  65 0000 082090E5 		ldr	r2, [r0, #8]
  66              		.loc 1 115 11 view .LVU13
  67 0004 70319FE5 		ldr	r3, .L30
  68              		.loc 1 121 6 view .LVU14
  69 0008 000052E3 		cmp	r2, #0
  70              		.loc 1 114 28 view .LVU15
  71 000c 70402DE9 		push	{r4, r5, r6, lr}
  72              		.cfi_def_cfa_offset 16
  73              		.cfi_offset 4, -16
  74              		.cfi_offset 5, -12
  75              		.cfi_offset 6, -8
  76              		.cfi_offset 14, -4
  77              		.loc 1 115 11 view .LVU16
  78 0010 184093E5 		ldr	r4, [r3, #24]
  79              	.LVL2:
  80              		.loc 1 117 3 is_stmt 1 view .LVU17
  81              		.loc 1 117 21 view .LVU18
  82              		.loc 1 118 3 view .LVU19
  83              		.loc 1 118 39 view .LVU20
  84              		.loc 1 121 3 view .LVU21
  85              		.loc 1 121 6 is_stmt 0 view .LVU22
  86 0014 1F00000A 		beq	.L25
  87              	.LBB27:
  88              		.loc 1 128 28 view .LVU23
  89 0018 081094E5 		ldr	r1, [r4, #8]
  90              		.loc 1 128 11 view .LVU24
  91 001c 083092E5 		ldr	r3, [r2, #8]
  92 0020 0050A0E1 		mov	r5, r0
  93              	.LVL3:
  94              		.loc 1 128 11 view .LVU25
  95 0024 010053E1 		cmp	r3, r1
  96 0028 0700002A 		bcs	.L9
  97              	.LVL4:
  98              	.L12:
  99              		.loc 1 130 7 is_stmt 1 view .LVU26
 100              		.loc 1 132 17 is_stmt 0 view .LVU27
 101 002c 1C30D2E5 		ldrb	r3, [r2, #28]	@ zero_extendqisi2
 102              		.loc 1 130 18 view .LVU28
 103 0030 081082E5 		str	r1, [r2, #8]
 104              		.loc 1 132 7 is_stmt 1 view .LVU29
 105 0034 040053E3 		cmp	r3, #4
 106 0038 3600000A 		beq	.L6
 107              		.loc 1 132 7 is_stmt 0 view .LVU30
 108 003c 050053E3 		cmp	r3, #5
 109 0040 2000000A 		beq	.L7
 110 0044 000053E3 		cmp	r3, #0
 111 0048 1700000A 		beq	.L26
 112              	.LVL5:
 113              	.L9:
 114              		.loc 1 166 5 is_stmt 1 view .LVU31
ARM GAS  /var/folders/l5/0x54b2c10074c8bt31ycjvl80000gp/T//cc9SIASL.s 			page 3


 115              	.LBB28:
 116              	.LBI28:
 117              		.file 2 "../../os/kernel/include/chinline.h"
 118              		.loc 2 34 20 view .LVU32
 119              	.LBB29:
 120              		.loc 2 36 3 view .LVU33
 121              		.loc 2 36 11 is_stmt 0 view .LVU34
 122 004c 0530A0E1 		mov	r3, r5
 123 0050 030000EA 		b	.L17
 124              	.LVL6:
 125              	.L27:
 126              		.loc 2 39 34 view .LVU35
 127 0054 081093E5 		ldr	r1, [r3, #8]
 128 0058 082094E5 		ldr	r2, [r4, #8]
 129 005c 020051E1 		cmp	r1, r2
 130 0060 0200003A 		bcc	.L16
 131              	.L17:
 132              		.loc 2 37 3 is_stmt 1 view .LVU36
 133              		.loc 2 38 5 view .LVU37
 134              		.loc 2 38 8 is_stmt 0 view .LVU38
 135 0064 003093E5 		ldr	r3, [r3]
 136              	.LVL7:
 137              		.loc 2 39 3 view .LVU39
 138 0068 030055E1 		cmp	r5, r3
 139 006c F8FFFF1A 		bne	.L27
 140              	.L16:
 141              		.loc 2 40 3 is_stmt 1 view .LVU40
 142              		.loc 2 41 18 is_stmt 0 view .LVU41
 143 0070 042093E5 		ldr	r2, [r3, #4]
 144              		.loc 2 40 14 view .LVU42
 145 0074 003084E5 		str	r3, [r4]
 146              		.loc 2 41 3 is_stmt 1 view .LVU43
 147              		.loc 2 41 14 is_stmt 0 view .LVU44
 148 0078 042084E5 		str	r2, [r4, #4]
 149              		.loc 2 42 3 is_stmt 1 view .LVU45
 150              		.loc 2 42 35 is_stmt 0 view .LVU46
 151 007c 044083E5 		str	r4, [r3, #4]
 152              		.loc 2 42 22 view .LVU47
 153 0080 043094E5 		ldr	r3, [r4, #4]
 154              	.LVL8:
 155              		.loc 2 42 22 view .LVU48
 156              	.LBE29:
 157              	.LBE28:
 158              		.loc 1 168 5 view .LVU49
 159 0084 0400A0E3 		mov	r0, #4
 160              	.LBB31:
 161              	.LBB30:
 162              		.loc 2 42 22 view .LVU50
 163 0088 004083E5 		str	r4, [r3]
 164              	.LVL9:
 165              		.loc 2 42 22 view .LVU51
 166              	.LBE30:
 167              	.LBE31:
 168              		.loc 1 167 5 is_stmt 1 view .LVU52
 169              		.loc 1 167 21 is_stmt 0 view .LVU53
 170 008c 245084E5 		str	r5, [r4, #36]
 171              		.loc 1 168 5 is_stmt 1 view .LVU54
ARM GAS  /var/folders/l5/0x54b2c10074c8bt31ycjvl80000gp/T//cc9SIASL.s 			page 4


 172              	.LBE27:
 173              		.loc 1 180 1 is_stmt 0 view .LVU55
 174 0090 7040BDE8 		pop	{r4, r5, r6, lr}
 175              		.cfi_remember_state
 176              		.cfi_restore 14
 177              		.cfi_restore 6
 178              		.cfi_restore 5
 179              		.cfi_restore 4
 180              		.cfi_def_cfa_offset 0
 181              	.LVL10:
 182              	.LBB56:
 183              		.loc 1 168 5 view .LVU56
 184 0094 FEFFFFEA 		b	chSchGoSleepS
 185              	.LVL11:
 186              	.L25:
 187              		.cfi_restore_state
 188              		.loc 1 168 5 view .LVU57
 189              	.LBE56:
 190              		.loc 1 176 5 is_stmt 1 view .LVU58
 191              		.loc 1 177 16 is_stmt 0 view .LVU59
 192 0098 3C3094E5 		ldr	r3, [r4, #60]
 193              		.loc 1 176 17 view .LVU60
 194 009c 084080E5 		str	r4, [r0, #8]
 195              		.loc 1 177 5 is_stmt 1 view .LVU61
 196              		.loc 1 177 16 is_stmt 0 view .LVU62
 197 00a0 0C3080E5 		str	r3, [r0, #12]
 198              		.loc 1 178 5 is_stmt 1 view .LVU63
 199              		.loc 1 178 20 is_stmt 0 view .LVU64
 200 00a4 3C0084E5 		str	r0, [r4, #60]
 201              		.loc 1 180 1 view .LVU65
 202 00a8 7080BDE8 		pop	{r4, r5, r6, pc}
 203              	.LVL12:
 204              	.L26:
 205              	.LBB57:
 206              		.loc 1 160 9 is_stmt 1 view .LVU66
 207              	.LBB32:
 208              	.LBI32:
 209              		.loc 2 66 23 view .LVU67
 210              	.LBB33:
 211              		.loc 2 68 3 view .LVU68
 212              		.loc 2 68 5 is_stmt 0 view .LVU69
 213 00ac 041092E5 		ldr	r1, [r2, #4]
 214              		.loc 2 68 26 view .LVU70
 215 00b0 003092E5 		ldr	r3, [r2]
 216              	.LBE33:
 217              	.LBE32:
 218              		.loc 1 160 9 view .LVU71
 219 00b4 0200A0E1 		mov	r0, r2
 220              	.LBB35:
 221              	.LBB34:
 222              		.loc 2 68 22 view .LVU72
 223 00b8 003081E5 		str	r3, [r1]
 224              		.loc 2 69 3 is_stmt 1 view .LVU73
 225              		.loc 2 69 22 is_stmt 0 view .LVU74
 226 00bc 041083E5 		str	r1, [r3, #4]
 227              		.loc 2 70 3 is_stmt 1 view .LVU75
 228              	.LVL13:
ARM GAS  /var/folders/l5/0x54b2c10074c8bt31ycjvl80000gp/T//cc9SIASL.s 			page 5


 229              		.loc 2 70 3 is_stmt 0 view .LVU76
 230              	.LBE34:
 231              	.LBE35:
 232              		.loc 1 160 9 view .LVU77
 233 00c0 FEFFFFEB 		bl	chSchReadyI
 234              	.LVL14:
 235              		.loc 1 161 9 is_stmt 1 view .LVU78
 236 00c4 E0FFFFEA 		b	.L9
 237              	.LVL15:
 238              	.L7:
 239              		.loc 1 151 9 view .LVU79
 240              	.LBB36:
 241              	.LBI36:
 242              		.loc 2 66 23 view .LVU80
 243              	.LBB37:
 244              		.loc 2 68 3 view .LVU81
 245              	.LBE37:
 246              	.LBE36:
 247              		.loc 1 151 57 is_stmt 0 view .LVU82
 248 00c8 24C092E5 		ldr	ip, [r2, #36]
 249              	.LBB40:
 250              	.LBB38:
 251              		.loc 2 68 5 view .LVU83
 252 00cc 04E092E5 		ldr	lr, [r2, #4]
 253              		.loc 2 68 26 view .LVU84
 254 00d0 000092E5 		ldr	r0, [r2]
 255              	.LBE38:
 256              	.LBE40:
 257              	.LBB41:
 258              	.LBB42:
 259              		.loc 2 36 11 view .LVU85
 260 00d4 0C30A0E1 		mov	r3, ip
 261              	.LBE42:
 262              	.LBE41:
 263              	.LBB44:
 264              	.LBB39:
 265              		.loc 2 68 22 view .LVU86
 266 00d8 00008EE5 		str	r0, [lr]
 267              		.loc 2 69 3 is_stmt 1 view .LVU87
 268              		.loc 2 69 22 is_stmt 0 view .LVU88
 269 00dc 04E080E5 		str	lr, [r0, #4]
 270              		.loc 2 70 3 is_stmt 1 view .LVU89
 271              	.LVL16:
 272              		.loc 2 70 3 is_stmt 0 view .LVU90
 273              	.LBE39:
 274              	.LBE44:
 275              	.LBB45:
 276              	.LBI41:
 277              		.loc 2 34 20 is_stmt 1 view .LVU91
 278 00e0 020000EA 		b	.L14
 279              	.LVL17:
 280              	.L28:
 281              	.LBB43:
 282              		.loc 2 39 34 is_stmt 0 view .LVU92
 283 00e4 080093E5 		ldr	r0, [r3, #8]
 284 00e8 000051E1 		cmp	r1, r0
 285 00ec 0200008A 		bhi	.L13
ARM GAS  /var/folders/l5/0x54b2c10074c8bt31ycjvl80000gp/T//cc9SIASL.s 			page 6


 286              	.LVL18:
 287              	.L14:
 288              		.loc 2 37 3 is_stmt 1 view .LVU93
 289              		.loc 2 38 5 view .LVU94
 290              		.loc 2 38 8 is_stmt 0 view .LVU95
 291 00f0 003093E5 		ldr	r3, [r3]
 292              	.LVL19:
 293              		.loc 2 39 3 view .LVU96
 294 00f4 03005CE1 		cmp	ip, r3
 295 00f8 F9FFFF1A 		bne	.L28
 296              	.L13:
 297              		.loc 2 40 3 is_stmt 1 view .LVU97
 298              		.loc 2 41 18 is_stmt 0 view .LVU98
 299 00fc 041093E5 		ldr	r1, [r3, #4]
 300              		.loc 2 40 14 view .LVU99
 301 0100 003082E5 		str	r3, [r2]
 302              		.loc 2 41 3 is_stmt 1 view .LVU100
 303              		.loc 2 41 14 is_stmt 0 view .LVU101
 304 0104 041082E5 		str	r1, [r2, #4]
 305              		.loc 2 42 3 is_stmt 1 view .LVU102
 306              		.loc 2 42 35 is_stmt 0 view .LVU103
 307 0108 042083E5 		str	r2, [r3, #4]
 308              		.loc 2 42 22 view .LVU104
 309 010c 043092E5 		ldr	r3, [r2, #4]
 310              	.LVL20:
 311              		.loc 2 42 22 view .LVU105
 312 0110 002083E5 		str	r2, [r3]
 313              	.LVL21:
 314              		.loc 2 42 22 view .LVU106
 315 0114 CCFFFFEA 		b	.L9
 316              	.LVL22:
 317              	.L6:
 318              		.loc 2 42 22 view .LVU107
 319              	.LBE43:
 320              	.LBE45:
 321              		.loc 1 135 9 is_stmt 1 view .LVU108
 322              	.LBB46:
 323              	.LBI46:
 324              		.loc 2 66 23 view .LVU109
 325              	.LBB47:
 326              		.loc 2 68 3 view .LVU110
 327              	.LBE47:
 328              	.LBE46:
 329              		.loc 1 135 57 is_stmt 0 view .LVU111
 330 0118 24C092E5 		ldr	ip, [r2, #36]
 331              	.LBB50:
 332              	.LBB48:
 333              		.loc 2 68 5 view .LVU112
 334 011c 04E092E5 		ldr	lr, [r2, #4]
 335              		.loc 2 68 26 view .LVU113
 336 0120 000092E5 		ldr	r0, [r2]
 337              	.LBE48:
 338              	.LBE50:
 339              		.loc 1 135 57 view .LVU114
 340 0124 0C30A0E1 		mov	r3, ip
 341              	.LBB51:
 342              	.LBB49:
ARM GAS  /var/folders/l5/0x54b2c10074c8bt31ycjvl80000gp/T//cc9SIASL.s 			page 7


 343              		.loc 2 68 22 view .LVU115
 344 0128 00008EE5 		str	r0, [lr]
 345              		.loc 2 69 3 is_stmt 1 view .LVU116
 346              		.loc 2 69 22 is_stmt 0 view .LVU117
 347 012c 04E080E5 		str	lr, [r0, #4]
 348              		.loc 2 70 3 is_stmt 1 view .LVU118
 349              	.LVL23:
 350              		.loc 2 70 3 is_stmt 0 view .LVU119
 351              	.LBE49:
 352              	.LBE51:
 353              	.LBB52:
 354              	.LBI52:
 355              		.loc 2 34 20 is_stmt 1 view .LVU120
 356 0130 020000EA 		b	.L11
 357              	.LVL24:
 358              	.L29:
 359              	.LBB53:
 360              		.loc 2 39 34 is_stmt 0 view .LVU121
 361 0134 080093E5 		ldr	r0, [r3, #8]
 362 0138 000051E1 		cmp	r1, r0
 363 013c 0200008A 		bhi	.L10
 364              	.LVL25:
 365              	.L11:
 366              		.loc 2 37 3 is_stmt 1 view .LVU122
 367              		.loc 2 38 5 view .LVU123
 368              		.loc 2 38 8 is_stmt 0 view .LVU124
 369 0140 003093E5 		ldr	r3, [r3]
 370              	.LVL26:
 371              		.loc 2 39 3 view .LVU125
 372 0144 03005CE1 		cmp	ip, r3
 373 0148 F9FFFF1A 		bne	.L29
 374              	.L10:
 375              		.loc 2 40 3 is_stmt 1 view .LVU126
 376              		.loc 2 41 18 is_stmt 0 view .LVU127
 377 014c 041093E5 		ldr	r1, [r3, #4]
 378              		.loc 2 40 14 view .LVU128
 379 0150 003082E5 		str	r3, [r2]
 380              		.loc 2 41 3 is_stmt 1 view .LVU129
 381              		.loc 2 41 14 is_stmt 0 view .LVU130
 382 0154 041082E5 		str	r1, [r2, #4]
 383              		.loc 2 42 3 is_stmt 1 view .LVU131
 384              		.loc 2 42 35 is_stmt 0 view .LVU132
 385 0158 042083E5 		str	r2, [r3, #4]
 386              		.loc 2 42 22 view .LVU133
 387 015c 043092E5 		ldr	r3, [r2, #4]
 388              	.LVL27:
 389              		.loc 2 42 22 view .LVU134
 390              	.LBE53:
 391              	.LBE52:
 392              		.loc 1 128 28 view .LVU135
 393 0160 081094E5 		ldr	r1, [r4, #8]
 394              	.LBB55:
 395              	.LBB54:
 396              		.loc 2 42 22 view .LVU136
 397 0164 002083E5 		str	r2, [r3]
 398              	.LVL28:
 399              		.loc 2 42 22 view .LVU137
ARM GAS  /var/folders/l5/0x54b2c10074c8bt31ycjvl80000gp/T//cc9SIASL.s 			page 8


 400              	.LBE54:
 401              	.LBE55:
 402              		.loc 1 136 9 is_stmt 1 view .LVU138
 403              		.loc 1 136 12 is_stmt 0 view .LVU139
 404 0168 08209CE5 		ldr	r2, [ip, #8]
 405              	.LVL29:
 406              		.loc 1 137 9 is_stmt 1 view .LVU140
 407              		.loc 1 128 11 is_stmt 0 view .LVU141
 408 016c 083092E5 		ldr	r3, [r2, #8]
 409 0170 010053E1 		cmp	r3, r1
 410 0174 ACFFFF3A 		bcc	.L12
 411 0178 B3FFFFEA 		b	.L9
 412              	.L31:
 413              		.align	2
 414              	.L30:
 415 017c 00000000 		.word	rlist
 416              	.LBE57:
 417              		.cfi_endproc
 418              	.LFE9:
 419              		.size	chMtxLockS, .-chMtxLockS
 420              		.section	.text.chMtxLock,"ax",%progbits
 421              		.align	2
 422              		.global	chMtxLock
 423              		.syntax unified
 424              		.arm
 425              		.fpu softvfp
 426              		.type	chMtxLock, %function
 427              	chMtxLock:
 428              	.LVL30:
 429              	.LFB8:
 430              		.loc 1 96 27 is_stmt 1 view -0
 431              		.cfi_startproc
 432              		@ args = 0, pretend = 0, frame = 0
 433              		@ frame_needed = 0, uses_anonymous_args = 0
 434              		.loc 1 98 3 view .LVU143
 435              		.loc 1 96 27 is_stmt 0 view .LVU144
 436 0000 10402DE9 		push	{r4, lr}
 437              		.cfi_def_cfa_offset 8
 438              		.cfi_offset 4, -8
 439              		.cfi_offset 14, -4
 440              		.loc 1 98 3 view .LVU145
 441              		.syntax divided
 442              	@ 98 "../../os/kernel/src/chmtx.c" 1
 443 0004 9FF021E3 		msr     CPSR_c, #0x9F
 444              	@ 0 "" 2
 445              		.loc 1 98 3 is_stmt 1 view .LVU146
 446              		.loc 1 98 14 view .LVU147
 447              		.loc 1 100 3 view .LVU148
 448              		.arm
 449              		.syntax unified
 450 0008 FEFFFFEB 		bl	chMtxLockS
 451              	.LVL31:
 452              		.loc 1 102 3 view .LVU149
 453              		.loc 1 102 3 view .LVU150
 454              		.syntax divided
 455              	@ 102 "../../os/kernel/src/chmtx.c" 1
 456 000c 1FF021E3 		msr     CPSR_c, #0x1F
ARM GAS  /var/folders/l5/0x54b2c10074c8bt31ycjvl80000gp/T//cc9SIASL.s 			page 9


 457              	@ 0 "" 2
 458              		.loc 1 102 16 view .LVU151
 459              		.loc 1 103 1 is_stmt 0 view .LVU152
 460              		.arm
 461              		.syntax unified
 462 0010 1080BDE8 		pop	{r4, pc}
 463              		.cfi_endproc
 464              	.LFE8:
 465              		.size	chMtxLock, .-chMtxLock
 466              		.section	.text.chMtxTryLock,"ax",%progbits
 467              		.align	2
 468              		.global	chMtxTryLock
 469              		.syntax unified
 470              		.arm
 471              		.fpu softvfp
 472              		.type	chMtxTryLock, %function
 473              	chMtxTryLock:
 474              	.LVL32:
 475              	.LFB10:
 476              		.loc 1 199 32 is_stmt 1 view -0
 477              		.cfi_startproc
 478              		@ args = 0, pretend = 0, frame = 0
 479              		@ frame_needed = 0, uses_anonymous_args = 0
 480              		@ link register save eliminated.
 481              		.loc 1 200 3 view .LVU154
 482              		.loc 1 202 3 view .LVU155
 483              		.loc 1 199 32 is_stmt 0 view .LVU156
 484 0000 0030A0E1 		mov	r3, r0
 485              		.loc 1 202 3 view .LVU157
 486              		.syntax divided
 487              	@ 202 "../../os/kernel/src/chmtx.c" 1
 488 0004 9FF021E3 		msr     CPSR_c, #0x9F
 489              	@ 0 "" 2
 490              		.loc 1 202 3 is_stmt 1 view .LVU158
 491              		.loc 1 202 14 view .LVU159
 492              		.loc 1 204 3 view .LVU160
 493              	.LVL33:
 494              		.arm
 495              		.syntax unified
 496              	.LBB62:
 497              	.LBI62:
 498              		.loc 1 227 8 view .LVU161
 499              	.LBB63:
 500              		.loc 1 229 3 view .LVU162
 501              		.loc 1 229 21 view .LVU163
 502              		.loc 1 230 3 view .LVU164
 503              		.loc 1 230 42 view .LVU165
 504              		.loc 1 232 3 view .LVU166
 505              		.loc 1 232 6 is_stmt 0 view .LVU167
 506 0008 082090E5 		ldr	r2, [r0, #8]
 507 000c 000052E3 		cmp	r2, #0
 508              	.LVL34:
 509              	.LBB64:
 510              	.LBI64:
 511              		.loc 1 227 8 is_stmt 1 view .LVU168
 512              	.LBB65:
 513              		.loc 1 234 3 view .LVU169
ARM GAS  /var/folders/l5/0x54b2c10074c8bt31ycjvl80000gp/T//cc9SIASL.s 			page 10


 514              		.loc 1 234 17 is_stmt 0 view .LVU170
 515 0010 20209F05 		ldreq	r2, .L37
 516              		.loc 1 236 20 view .LVU171
 517 0014 0100A003 		moveq	r0, #1
 518              	.LVL35:
 519              		.loc 1 234 17 view .LVU172
 520 0018 18209205 		ldreq	r2, [r2, #24]
 521              	.LBE65:
 522              	.LBE64:
 523              		.loc 1 233 12 view .LVU173
 524 001c 0000A013 		movne	r0, #0
 525              	.LBB67:
 526              	.LBB66:
 527              		.loc 1 235 14 view .LVU174
 528 0020 3C109205 		ldreq	r1, [r2, #60]
 529              		.loc 1 234 15 view .LVU175
 530 0024 08208305 		streq	r2, [r3, #8]
 531              		.loc 1 235 3 is_stmt 1 view .LVU176
 532              		.loc 1 235 14 is_stmt 0 view .LVU177
 533 0028 0C108305 		streq	r1, [r3, #12]
 534              		.loc 1 236 3 is_stmt 1 view .LVU178
 535              		.loc 1 236 20 is_stmt 0 view .LVU179
 536 002c 3C308205 		streq	r3, [r2, #60]
 537              		.loc 1 237 3 is_stmt 1 view .LVU180
 538              	.LVL36:
 539              		.loc 1 237 3 is_stmt 0 view .LVU181
 540              	.LBE66:
 541              	.LBE67:
 542              	.LBE63:
 543              	.LBE62:
 544              		.loc 1 206 3 is_stmt 1 view .LVU182
 545              		.loc 1 206 3 view .LVU183
 546              		.syntax divided
 547              	@ 206 "../../os/kernel/src/chmtx.c" 1
 548 0030 1FF021E3 		msr     CPSR_c, #0x1F
 549              	@ 0 "" 2
 550              		.loc 1 206 16 view .LVU184
 551              		.loc 1 207 3 view .LVU185
 552              		.loc 1 208 1 is_stmt 0 view .LVU186
 553              		.arm
 554              		.syntax unified
 555 0034 1EFF2FE1 		bx	lr
 556              	.L38:
 557              		.align	2
 558              	.L37:
 559 0038 00000000 		.word	rlist
 560              		.cfi_endproc
 561              	.LFE10:
 562              		.size	chMtxTryLock, .-chMtxTryLock
 563              		.section	.text.chMtxTryLockS,"ax",%progbits
 564              		.align	2
 565              		.global	chMtxTryLockS
 566              		.syntax unified
 567              		.arm
 568              		.fpu softvfp
 569              		.type	chMtxTryLockS, %function
 570              	chMtxTryLockS:
ARM GAS  /var/folders/l5/0x54b2c10074c8bt31ycjvl80000gp/T//cc9SIASL.s 			page 11


 571              	.LVL37:
 572              	.LFB11:
 573              		.loc 1 227 33 is_stmt 1 view -0
 574              		.cfi_startproc
 575              		@ args = 0, pretend = 0, frame = 0
 576              		@ frame_needed = 0, uses_anonymous_args = 0
 577              		@ link register save eliminated.
 578              		.loc 1 229 3 view .LVU188
 579              		.loc 1 229 21 view .LVU189
 580              		.loc 1 230 3 view .LVU190
 581              		.loc 1 230 42 view .LVU191
 582              		.loc 1 232 3 view .LVU192
 583              		.loc 1 227 33 is_stmt 0 view .LVU193
 584 0000 0030A0E1 		mov	r3, r0
 585              		.loc 1 232 6 view .LVU194
 586 0004 082090E5 		ldr	r2, [r0, #8]
 587 0008 000052E3 		cmp	r2, #0
 588              	.LVL38:
 589              	.LBB70:
 590              	.LBI70:
 591              		.loc 1 227 8 is_stmt 1 view .LVU195
 592              	.LBB71:
 593              		.loc 1 234 3 view .LVU196
 594              		.loc 1 234 17 is_stmt 0 view .LVU197
 595 000c 1C209F05 		ldreq	r2, .L42
 596              		.loc 1 236 20 view .LVU198
 597 0010 0100A003 		moveq	r0, #1
 598              	.LVL39:
 599              		.loc 1 234 17 view .LVU199
 600 0014 18209205 		ldreq	r2, [r2, #24]
 601              	.LBE71:
 602              	.LBE70:
 603              		.loc 1 233 12 view .LVU200
 604 0018 0000A013 		movne	r0, #0
 605              	.LBB73:
 606              	.LBB72:
 607              		.loc 1 235 14 view .LVU201
 608 001c 3C109205 		ldreq	r1, [r2, #60]
 609              		.loc 1 234 15 view .LVU202
 610 0020 08208305 		streq	r2, [r3, #8]
 611              		.loc 1 235 3 is_stmt 1 view .LVU203
 612              		.loc 1 235 14 is_stmt 0 view .LVU204
 613 0024 0C108305 		streq	r1, [r3, #12]
 614              		.loc 1 236 3 is_stmt 1 view .LVU205
 615              		.loc 1 236 20 is_stmt 0 view .LVU206
 616 0028 3C308205 		streq	r3, [r2, #60]
 617              		.loc 1 237 3 is_stmt 1 view .LVU207
 618              	.LVL40:
 619              		.loc 1 237 3 is_stmt 0 view .LVU208
 620              	.LBE72:
 621              	.LBE73:
 622              		.loc 1 238 1 view .LVU209
 623 002c 1EFF2FE1 		bx	lr
 624              	.L43:
 625              		.align	2
 626              	.L42:
 627 0030 00000000 		.word	rlist
ARM GAS  /var/folders/l5/0x54b2c10074c8bt31ycjvl80000gp/T//cc9SIASL.s 			page 12


 628              		.cfi_endproc
 629              	.LFE11:
 630              		.size	chMtxTryLockS, .-chMtxTryLockS
 631              		.section	.text.chMtxUnlock,"ax",%progbits
 632              		.align	2
 633              		.global	chMtxUnlock
 634              		.syntax unified
 635              		.arm
 636              		.fpu softvfp
 637              		.type	chMtxUnlock, %function
 638              	chMtxUnlock:
 639              	.LFB12:
 640              		.loc 1 250 26 is_stmt 1 view -0
 641              		.cfi_startproc
 642              		@ args = 0, pretend = 0, frame = 0
 643              		@ frame_needed = 0, uses_anonymous_args = 0
 644              		.loc 1 251 3 view .LVU211
 645              		.loc 1 251 11 is_stmt 0 view .LVU212
 646 0000 94309FE5 		ldr	r3, .L55
 647              		.loc 1 250 26 view .LVU213
 648 0004 10402DE9 		push	{r4, lr}
 649              		.cfi_def_cfa_offset 8
 650              		.cfi_offset 4, -8
 651              		.cfi_offset 14, -4
 652              		.loc 1 251 11 view .LVU214
 653 0008 180093E5 		ldr	r0, [r3, #24]
 654              	.LVL41:
 655              		.loc 1 252 3 is_stmt 1 view .LVU215
 656              		.loc 1 254 3 view .LVU216
 657              		.syntax divided
 658              	@ 254 "../../os/kernel/src/chmtx.c" 1
 659 000c 9FF021E3 		msr     CPSR_c, #0x9F
 660              	@ 0 "" 2
 661              		.loc 1 254 3 view .LVU217
 662              		.loc 1 254 14 view .LVU218
 663              		.loc 1 255 3 view .LVU219
 664              		.arm
 665              		.syntax unified
 666 0010 3C4090E5 		ldr	r4, [r0, #60]
 667              		.loc 1 257 42 view .LVU220
 668              		.loc 1 258 3 view .LVU221
 669              		.loc 1 260 35 view .LVU222
 670              		.loc 1 263 3 view .LVU223
 671              	.LVL42:
 672              		.loc 1 264 3 view .LVU224
 673              		.loc 1 266 7 is_stmt 0 view .LVU225
 674 0014 00C094E5 		ldr	ip, [r4]
 675              		.loc 1 264 23 view .LVU226
 676 0018 0C3094E5 		ldr	r3, [r4, #12]
 677              		.loc 1 266 6 view .LVU227
 678 001c 04005CE1 		cmp	ip, r4
 679              		.loc 1 264 18 view .LVU228
 680 0020 3C3080E5 		str	r3, [r0, #60]
 681              		.loc 1 266 3 is_stmt 1 view .LVU229
 682              		.loc 1 266 6 is_stmt 0 view .LVU230
 683 0024 1900000A 		beq	.L45
 684              	.LBB74:
ARM GAS  /var/folders/l5/0x54b2c10074c8bt31ycjvl80000gp/T//cc9SIASL.s 			page 13


 685              		.loc 1 267 5 is_stmt 1 view .LVU231
 686              		.loc 1 271 5 view .LVU232
 687              		.loc 1 273 11 is_stmt 0 view .LVU233
 688 0028 000053E3 		cmp	r3, #0
 689              		.loc 1 271 13 view .LVU234
 690 002c 401090E5 		ldr	r1, [r0, #64]
 691              	.LVL43:
 692              		.loc 1 272 5 is_stmt 1 view .LVU235
 693              		.loc 1 273 5 view .LVU236
 694              		.loc 1 273 11 is_stmt 0 view .LVU237
 695 0030 0800000A 		beq	.L46
 696              	.L48:
 697              		.loc 1 277 7 is_stmt 1 view .LVU238
 698              		.loc 1 277 11 is_stmt 0 view .LVU239
 699 0034 002093E5 		ldr	r2, [r3]
 700              		.loc 1 277 10 view .LVU240
 701 0038 030052E1 		cmp	r2, r3
 702 003c 0200000A 		beq	.L47
 703              		.loc 1 277 10 view .LVU241
 704 0040 082092E5 		ldr	r2, [r2, #8]
 705 0044 020051E1 		cmp	r1, r2
 706 0048 0210A031 		movcc	r1, r2
 707              	.LVL44:
 708              	.L47:
 709              		.loc 1 279 7 is_stmt 1 view .LVU242
 710              		.loc 1 279 10 is_stmt 0 view .LVU243
 711 004c 0C3093E5 		ldr	r3, [r3, #12]
 712              	.LVL45:
 713              		.loc 1 273 11 view .LVU244
 714 0050 000053E3 		cmp	r3, #0
 715 0054 F6FFFF1A 		bne	.L48
 716              	.L46:
 717              		.loc 1 283 5 is_stmt 1 view .LVU245
 718              		.loc 1 288 17 is_stmt 0 view .LVU246
 719 0058 3C209CE5 		ldr	r2, [ip, #60]
 720              	.LBB75:
 721              	.LBB76:
 722              		.loc 2 55 20 view .LVU247
 723 005c 00309CE5 		ldr	r3, [ip]
 724              	.LVL46:
 725              		.loc 2 55 20 view .LVU248
 726              	.LBE76:
 727              	.LBE75:
 728              		.loc 1 283 17 view .LVU249
 729 0060 081080E5 		str	r1, [r0, #8]
 730              		.loc 1 286 5 is_stmt 1 view .LVU250
 731              	.LVL47:
 732              	.LBB79:
 733              	.LBI75:
 734              		.loc 2 52 23 view .LVU251
 735              	.LBB77:
 736              		.loc 2 53 3 view .LVU252
 737              		.loc 2 55 3 view .LVU253
 738              		.loc 2 55 16 is_stmt 0 view .LVU254
 739 0064 003084E5 		str	r3, [r4]
 740              	.LBE77:
 741              	.LBE79:
ARM GAS  /var/folders/l5/0x54b2c10074c8bt31ycjvl80000gp/T//cc9SIASL.s 			page 14


 742              		.loc 1 290 5 view .LVU255
 743 0068 0C00A0E1 		mov	r0, ip
 744              	.LVL48:
 745              	.LBB80:
 746              	.LBB78:
 747              		.loc 2 55 38 view .LVU256
 748 006c 044083E5 		str	r4, [r3, #4]
 749              		.loc 2 56 3 is_stmt 1 view .LVU257
 750              	.LVL49:
 751              		.loc 2 56 3 is_stmt 0 view .LVU258
 752              	.LBE78:
 753              	.LBE80:
 754              		.loc 1 287 5 is_stmt 1 view .LVU259
 755              		.loc 1 290 5 is_stmt 0 view .LVU260
 756 0070 0010A0E3 		mov	r1, #0
 757              	.LVL50:
 758              		.loc 1 287 18 view .LVU261
 759 0074 08C084E5 		str	ip, [r4, #8]
 760              		.loc 1 288 5 is_stmt 1 view .LVU262
 761              		.loc 1 288 17 is_stmt 0 view .LVU263
 762 0078 0C2084E5 		str	r2, [r4, #12]
 763              		.loc 1 289 5 is_stmt 1 view .LVU264
 764              		.loc 1 289 19 is_stmt 0 view .LVU265
 765 007c 3C408CE5 		str	r4, [ip, #60]
 766              		.loc 1 290 5 is_stmt 1 view .LVU266
 767 0080 FEFFFFEB 		bl	chSchWakeupS
 768              	.LVL51:
 769              	.L49:
 770              		.loc 1 290 5 is_stmt 0 view .LVU267
 771              	.LBE74:
 772              		.loc 1 294 3 is_stmt 1 view .LVU268
 773              		.loc 1 294 3 view .LVU269
 774              		.syntax divided
 775              	@ 294 "../../os/kernel/src/chmtx.c" 1
 776 0084 1FF021E3 		msr     CPSR_c, #0x1F
 777              	@ 0 "" 2
 778              		.loc 1 294 16 view .LVU270
 779              		.loc 1 295 3 view .LVU271
 780              		.loc 1 296 1 is_stmt 0 view .LVU272
 781              		.arm
 782              		.syntax unified
 783 0088 0400A0E1 		mov	r0, r4
 784 008c 1080BDE8 		pop	{r4, pc}
 785              	.LVL52:
 786              	.L45:
 787              		.loc 1 293 5 is_stmt 1 view .LVU273
 788              		.loc 1 293 18 is_stmt 0 view .LVU274
 789 0090 0030A0E3 		mov	r3, #0
 790 0094 083084E5 		str	r3, [r4, #8]
 791 0098 F9FFFFEA 		b	.L49
 792              	.L56:
 793              		.align	2
 794              	.L55:
 795 009c 00000000 		.word	rlist
 796              		.cfi_endproc
 797              	.LFE12:
 798              		.size	chMtxUnlock, .-chMtxUnlock
ARM GAS  /var/folders/l5/0x54b2c10074c8bt31ycjvl80000gp/T//cc9SIASL.s 			page 15


 799              		.section	.text.chMtxUnlockS,"ax",%progbits
 800              		.align	2
 801              		.global	chMtxUnlockS
 802              		.syntax unified
 803              		.arm
 804              		.fpu softvfp
 805              		.type	chMtxUnlockS, %function
 806              	chMtxUnlockS:
 807              	.LFB13:
 808              		.loc 1 310 27 is_stmt 1 view -0
 809              		.cfi_startproc
 810              		@ args = 0, pretend = 0, frame = 0
 811              		@ frame_needed = 0, uses_anonymous_args = 0
 812              		.loc 1 311 3 view .LVU276
 813              		.loc 1 311 11 is_stmt 0 view .LVU277
 814 0000 8C309FE5 		ldr	r3, .L68
 815              		.loc 1 310 27 view .LVU278
 816 0004 10402DE9 		push	{r4, lr}
 817              		.cfi_def_cfa_offset 8
 818              		.cfi_offset 4, -8
 819              		.cfi_offset 14, -4
 820              		.loc 1 311 11 view .LVU279
 821 0008 180093E5 		ldr	r0, [r3, #24]
 822              	.LVL53:
 823              		.loc 1 312 3 is_stmt 1 view .LVU280
 824              		.loc 1 314 3 view .LVU281
 825              		.loc 1 314 21 view .LVU282
 826              		.loc 1 315 3 view .LVU283
 827 000c 3C4090E5 		ldr	r4, [r0, #60]
 828              		.loc 1 317 42 view .LVU284
 829              		.loc 1 318 3 view .LVU285
 830              		.loc 1 320 35 view .LVU286
 831              		.loc 1 324 3 view .LVU287
 832              	.LVL54:
 833              		.loc 1 325 3 view .LVU288
 834              		.loc 1 327 7 is_stmt 0 view .LVU289
 835 0010 00C094E5 		ldr	ip, [r4]
 836              		.loc 1 325 23 view .LVU290
 837 0014 0C3094E5 		ldr	r3, [r4, #12]
 838              		.loc 1 327 6 view .LVU291
 839 0018 04005CE1 		cmp	ip, r4
 840              		.loc 1 325 18 view .LVU292
 841 001c 3C3080E5 		str	r3, [r0, #60]
 842              		.loc 1 327 3 is_stmt 1 view .LVU293
 843              		.loc 1 327 6 is_stmt 0 view .LVU294
 844 0020 1700000A 		beq	.L58
 845              	.LBB81:
 846              		.loc 1 328 5 is_stmt 1 view .LVU295
 847              		.loc 1 332 5 view .LVU296
 848              		.loc 1 334 11 is_stmt 0 view .LVU297
 849 0024 000053E3 		cmp	r3, #0
 850              		.loc 1 332 13 view .LVU298
 851 0028 401090E5 		ldr	r1, [r0, #64]
 852              	.LVL55:
 853              		.loc 1 333 5 is_stmt 1 view .LVU299
 854              		.loc 1 334 5 view .LVU300
 855              		.loc 1 334 11 is_stmt 0 view .LVU301
ARM GAS  /var/folders/l5/0x54b2c10074c8bt31ycjvl80000gp/T//cc9SIASL.s 			page 16


 856 002c 0800000A 		beq	.L59
 857              	.L61:
 858              		.loc 1 338 7 is_stmt 1 view .LVU302
 859              		.loc 1 338 11 is_stmt 0 view .LVU303
 860 0030 002093E5 		ldr	r2, [r3]
 861              		.loc 1 338 10 view .LVU304
 862 0034 030052E1 		cmp	r2, r3
 863 0038 0200000A 		beq	.L60
 864              		.loc 1 338 10 view .LVU305
 865 003c 082092E5 		ldr	r2, [r2, #8]
 866 0040 020051E1 		cmp	r1, r2
 867 0044 0210A031 		movcc	r1, r2
 868              	.LVL56:
 869              	.L60:
 870              		.loc 1 340 7 is_stmt 1 view .LVU306
 871              		.loc 1 340 10 is_stmt 0 view .LVU307
 872 0048 0C3093E5 		ldr	r3, [r3, #12]
 873              	.LVL57:
 874              		.loc 1 334 11 view .LVU308
 875 004c 000053E3 		cmp	r3, #0
 876 0050 F6FFFF1A 		bne	.L61
 877              	.L59:
 878              		.loc 1 342 5 is_stmt 1 view .LVU309
 879              		.loc 1 347 17 is_stmt 0 view .LVU310
 880 0054 3C209CE5 		ldr	r2, [ip, #60]
 881              	.LBB82:
 882              	.LBB83:
 883              		.loc 2 55 20 view .LVU311
 884 0058 00309CE5 		ldr	r3, [ip]
 885              	.LVL58:
 886              		.loc 2 55 20 view .LVU312
 887              	.LBE83:
 888              	.LBE82:
 889              		.loc 1 342 17 view .LVU313
 890 005c 081080E5 		str	r1, [r0, #8]
 891              		.loc 1 345 5 is_stmt 1 view .LVU314
 892              	.LVL59:
 893              	.LBB86:
 894              	.LBI82:
 895              		.loc 2 52 23 view .LVU315
 896              	.LBB84:
 897              		.loc 2 53 3 view .LVU316
 898              		.loc 2 55 3 view .LVU317
 899              		.loc 2 55 16 is_stmt 0 view .LVU318
 900 0060 003084E5 		str	r3, [r4]
 901              	.LBE84:
 902              	.LBE86:
 903              		.loc 1 349 5 view .LVU319
 904 0064 0C00A0E1 		mov	r0, ip
 905              	.LVL60:
 906              	.LBB87:
 907              	.LBB85:
 908              		.loc 2 55 38 view .LVU320
 909 0068 044083E5 		str	r4, [r3, #4]
 910              		.loc 2 56 3 is_stmt 1 view .LVU321
 911              	.LVL61:
 912              		.loc 2 56 3 is_stmt 0 view .LVU322
ARM GAS  /var/folders/l5/0x54b2c10074c8bt31ycjvl80000gp/T//cc9SIASL.s 			page 17


 913              	.LBE85:
 914              	.LBE87:
 915              		.loc 1 346 5 is_stmt 1 view .LVU323
 916              		.loc 1 346 18 is_stmt 0 view .LVU324
 917 006c 08C084E5 		str	ip, [r4, #8]
 918              		.loc 1 347 5 is_stmt 1 view .LVU325
 919              		.loc 1 347 17 is_stmt 0 view .LVU326
 920 0070 0C2084E5 		str	r2, [r4, #12]
 921              		.loc 1 348 5 is_stmt 1 view .LVU327
 922              		.loc 1 348 19 is_stmt 0 view .LVU328
 923 0074 3C408CE5 		str	r4, [ip, #60]
 924              		.loc 1 349 5 is_stmt 1 view .LVU329
 925 0078 FEFFFFEB 		bl	chSchReadyI
 926              	.LVL62:
 927              		.loc 1 349 5 is_stmt 0 view .LVU330
 928              	.LBE81:
 929              		.loc 1 354 1 view .LVU331
 930 007c 0400A0E1 		mov	r0, r4
 931 0080 1080BDE8 		pop	{r4, pc}
 932              	.LVL63:
 933              	.L58:
 934              		.loc 1 352 5 is_stmt 1 view .LVU332
 935              		.loc 1 352 18 is_stmt 0 view .LVU333
 936 0084 0030A0E3 		mov	r3, #0
 937              		.loc 1 354 1 view .LVU334
 938 0088 0400A0E1 		mov	r0, r4
 939              	.LVL64:
 940              		.loc 1 352 18 view .LVU335
 941 008c 083084E5 		str	r3, [r4, #8]
 942              		.loc 1 353 3 is_stmt 1 view .LVU336
 943              		.loc 1 354 1 is_stmt 0 view .LVU337
 944 0090 1080BDE8 		pop	{r4, pc}
 945              	.L69:
 946              		.align	2
 947              	.L68:
 948 0094 00000000 		.word	rlist
 949              		.cfi_endproc
 950              	.LFE13:
 951              		.size	chMtxUnlockS, .-chMtxUnlockS
 952              		.section	.text.chMtxUnlockAll,"ax",%progbits
 953              		.align	2
 954              		.global	chMtxUnlockAll
 955              		.syntax unified
 956              		.arm
 957              		.fpu softvfp
 958              		.type	chMtxUnlockAll, %function
 959              	chMtxUnlockAll:
 960              	.LFB14:
 961              		.loc 1 367 27 is_stmt 1 view -0
 962              		.cfi_startproc
 963              		@ args = 0, pretend = 0, frame = 0
 964              		@ frame_needed = 0, uses_anonymous_args = 0
 965              		.loc 1 368 3 view .LVU339
 966              		.loc 1 368 11 is_stmt 0 view .LVU340
 967 0000 78309FE5 		ldr	r3, .L80
 968              		.loc 1 367 27 view .LVU341
 969 0004 70402DE9 		push	{r4, r5, r6, lr}
ARM GAS  /var/folders/l5/0x54b2c10074c8bt31ycjvl80000gp/T//cc9SIASL.s 			page 18


 970              		.cfi_def_cfa_offset 16
 971              		.cfi_offset 4, -16
 972              		.cfi_offset 5, -12
 973              		.cfi_offset 6, -8
 974              		.cfi_offset 14, -4
 975              		.loc 1 368 11 view .LVU342
 976 0008 184093E5 		ldr	r4, [r3, #24]
 977              	.LVL65:
 978              		.loc 1 370 3 is_stmt 1 view .LVU343
 979              		.syntax divided
 980              	@ 370 "../../os/kernel/src/chmtx.c" 1
 981 000c 9FF021E3 		msr     CPSR_c, #0x9F
 982              	@ 0 "" 2
 983              		.loc 1 370 3 view .LVU344
 984              		.loc 1 370 14 view .LVU345
 985              		.loc 1 371 3 view .LVU346
 986              		.loc 1 371 10 is_stmt 0 view .LVU347
 987              		.arm
 988              		.syntax unified
 989 0010 3C3094E5 		ldr	r3, [r4, #60]
 990              		.loc 1 371 6 view .LVU348
 991 0014 000053E3 		cmp	r3, #0
 992 0018 1600000A 		beq	.L71
 993              	.LBB88:
 994              		.loc 1 383 22 view .LVU349
 995 001c 0050A0E3 		mov	r5, #0
 996              	.L74:
 997              		.loc 1 383 22 view .LVU350
 998              	.LBE88:
 999              		.loc 1 372 5 is_stmt 1 view .LVU351
 1000              	.LBB100:
 1001              		.loc 1 373 7 view .LVU352
 1002              	.LVL66:
 1003              		.loc 1 374 7 view .LVU353
 1004              	.LBB89:
 1005              		.loc 1 376 9 view .LVU354
 1006              	.LBB90:
 1007              	.LBI90:
 1008              		.loc 2 52 23 view .LVU355
 1009              	.LBB91:
 1010              		.loc 2 53 3 view .LVU356
 1011              	.LBE91:
 1012              	.LBE90:
 1013              	.LBE89:
 1014              		.loc 1 383 9 view .LVU357
 1015              		.loc 1 375 11 is_stmt 0 view .LVU358
 1016 0020 002093E5 		ldr	r2, [r3]
 1017              	.LVL67:
 1018              	.LBB98:
 1019              	.LBB95:
 1020              	.LBB92:
 1021              		.loc 2 55 3 is_stmt 1 view .LVU359
 1022              	.LBE92:
 1023              	.LBE95:
 1024              	.LBE98:
 1025              		.loc 1 374 27 is_stmt 0 view .LVU360
 1026 0024 0C1093E5 		ldr	r1, [r3, #12]
ARM GAS  /var/folders/l5/0x54b2c10074c8bt31ycjvl80000gp/T//cc9SIASL.s 			page 19


 1027              		.loc 1 375 10 view .LVU361
 1028 0028 030052E1 		cmp	r2, r3
 1029              		.loc 1 374 22 view .LVU362
 1030 002c 3C1084E5 		str	r1, [r4, #60]
 1031              	.LVL68:
 1032              		.loc 1 375 7 is_stmt 1 view .LVU363
 1033              		.loc 1 383 22 is_stmt 0 view .LVU364
 1034 0030 08508305 		streq	r5, [r3, #8]
 1035 0034 0130A001 		moveq	r3, r1
 1036              	.LVL69:
 1037              		.loc 1 375 10 view .LVU365
 1038 0038 0900000A 		beq	.L73
 1039              	.LBB99:
 1040              		.loc 1 378 21 view .LVU366
 1041 003c 3CC092E5 		ldr	ip, [r2, #60]
 1042              	.LBB96:
 1043              	.LBB93:
 1044              		.loc 2 55 20 view .LVU367
 1045 0040 001092E5 		ldr	r1, [r2]
 1046              	.LBE93:
 1047              	.LBE96:
 1048              		.loc 1 380 9 view .LVU368
 1049 0044 0200A0E1 		mov	r0, r2
 1050              	.LBB97:
 1051              	.LBB94:
 1052              		.loc 2 55 16 view .LVU369
 1053 0048 001083E5 		str	r1, [r3]
 1054              		.loc 2 55 38 view .LVU370
 1055 004c 043081E5 		str	r3, [r1, #4]
 1056              		.loc 2 56 3 is_stmt 1 view .LVU371
 1057              	.LVL70:
 1058              		.loc 2 56 3 is_stmt 0 view .LVU372
 1059              	.LBE94:
 1060              	.LBE97:
 1061              		.loc 1 377 9 is_stmt 1 view .LVU373
 1062              		.loc 1 377 22 is_stmt 0 view .LVU374
 1063 0050 082083E5 		str	r2, [r3, #8]
 1064              		.loc 1 378 9 is_stmt 1 view .LVU375
 1065              		.loc 1 378 21 is_stmt 0 view .LVU376
 1066 0054 0CC083E5 		str	ip, [r3, #12]
 1067              		.loc 1 379 9 is_stmt 1 view .LVU377
 1068              		.loc 1 379 23 is_stmt 0 view .LVU378
 1069 0058 3C3082E5 		str	r3, [r2, #60]
 1070              		.loc 1 380 9 is_stmt 1 view .LVU379
 1071 005c FEFFFFEB 		bl	chSchReadyI
 1072              	.LVL71:
 1073              		.loc 1 380 9 is_stmt 0 view .LVU380
 1074 0060 3C3094E5 		ldr	r3, [r4, #60]
 1075              	.L73:
 1076              		.loc 1 380 9 view .LVU381
 1077              	.LBE99:
 1078              	.LBE100:
 1079              		.loc 1 384 5 view .LVU382
 1080 0064 000053E3 		cmp	r3, #0
 1081 0068 ECFFFF1A 		bne	.L74
 1082              		.loc 1 385 5 is_stmt 1 view .LVU383
 1083              		.loc 1 385 17 is_stmt 0 view .LVU384
ARM GAS  /var/folders/l5/0x54b2c10074c8bt31ycjvl80000gp/T//cc9SIASL.s 			page 20


 1084 006c 403094E5 		ldr	r3, [r4, #64]
 1085 0070 083084E5 		str	r3, [r4, #8]
 1086              		.loc 1 386 5 is_stmt 1 view .LVU385
 1087 0074 FEFFFFEB 		bl	chSchRescheduleS
 1088              	.LVL72:
 1089              	.L71:
 1090              		.loc 1 388 3 view .LVU386
 1091              		.loc 1 388 3 view .LVU387
 1092              		.syntax divided
 1093              	@ 388 "../../os/kernel/src/chmtx.c" 1
 1094 0078 1FF021E3 		msr     CPSR_c, #0x1F
 1095              	@ 0 "" 2
 1096              		.loc 1 388 16 view .LVU388
 1097              		.loc 1 389 1 is_stmt 0 view .LVU389
 1098              		.arm
 1099              		.syntax unified
 1100 007c 7080BDE8 		pop	{r4, r5, r6, pc}
 1101              	.L81:
 1102              		.align	2
 1103              	.L80:
 1104 0080 00000000 		.word	rlist
 1105              		.cfi_endproc
 1106              	.LFE14:
 1107              		.size	chMtxUnlockAll, .-chMtxUnlockAll
 1108              		.text
 1109              	.Letext0:
 1110              		.file 3 "/usr/local/Cellar/arm-gcc-bin/8-2019-q3-update/arm-none-eabi/include/machine/_default_typ
 1111              		.file 4 "/usr/local/Cellar/arm-gcc-bin/8-2019-q3-update/arm-none-eabi/include/sys/_stdint.h"
 1112              		.file 5 "../../os/ports/GCC/ARM/chtypes.h"
 1113              		.file 6 "../../os/kernel/include/chlists.h"
 1114              		.file 7 "../../os/kernel/include/chthreads.h"
 1115              		.file 8 "../../os/ports/GCC/ARM/chcore.h"
 1116              		.file 9 "../../os/kernel/include/chvt.h"
 1117              		.file 10 "../../os/kernel/include/chschd.h"
 1118              		.file 11 "../../os/kernel/include/chmtx.h"
 1119              		.file 12 "../../os/kernel/include/chregistry.h"
 1120              		.file 13 "../../os/kernel/include/ch.h"