ARM GAS  /var/folders/l5/0x54b2c10074c8bt31ycjvl80000gp/T//cc9SIASL.s 			page 1


   1              		.cpu arm1176jz-s
   2              		.eabi_attribute 20, 1
   3              		.eabi_attribute 21, 1
   4              		.eabi_attribute 23, 3
   5              		.eabi_attribute 24, 1
   6              		.eabi_attribute 25, 1
   7              		.eabi_attribute 26, 1
   8              		.eabi_attribute 30, 2
   9              		.eabi_attribute 34, 1
  10              		.eabi_attribute 18, 4
  11              		.file	"chmtx.c"
  12              		.text
  13              	.Ltext0:
  14              		.cfi_sections	.debug_frame
  15              		.section	.text.chMtxInit,"ax",%progbits
  16              		.align	2
  17              		.global	chMtxInit
  18              		.arch armv6kz
  19              		.syntax unified
  20              		.arm
  21              		.fpu softvfp
  22              		.type	chMtxInit, %function
  23              	chMtxInit:
  24              	.LVL0:
  25              	.LFB7:
  26              		.file 1 "../../os/kernel/src/chmtx.c"
  27              		.loc 1 79 27 view -0
  28              		.cfi_startproc
  29              		@ args = 0, pretend = 0, frame = 0
  30              		@ frame_needed = 0, uses_anonymous_args = 0
  31              		@ link register save eliminated.
  32              		.loc 1 81 3 view .LVU1
  33              		.loc 1 81 38 view .LVU2
  34              		.loc 1 83 3 view .LVU3
  35              		.loc 1 84 15 is_stmt 0 view .LVU4
  36 0000 0030A0E3 		mov	r3, #0
  37              		.loc 1 83 3 view .LVU5
  38 0004 040080E5 		str	r0, [r0, #4]
  39 0008 000080E5 		str	r0, [r0]
  40              		.loc 1 83 27 is_stmt 1 view .LVU6
  41              		.loc 1 84 3 view .LVU7
  42              		.loc 1 84 15 is_stmt 0 view .LVU8
  43 000c 083080E5 		str	r3, [r0, #8]
  44              		.loc 1 85 1 view .LVU9
  45 0010 1EFF2FE1 		bx	lr
  46              		.cfi_endproc
  47              	.LFE7:
  48              		.size	chMtxInit, .-chMtxInit
  49              		.section	.text.chMtxLockS,"ax",%progbits
  50              		.align	2
  51              		.global	chMtxLockS
  52              		.syntax unified
  53              		.arm
  54              		.fpu softvfp
  55              		.type	chMtxLockS, %function
  56              	chMtxLockS:
  57              	.LVL1:
ARM GAS  /var/folders/l5/0x54b2c10074c8bt31ycjvl80000gp/T//cc9SIASL.s 			page 2


  58              	.LFB9:
  59              		.loc 1 114 28 is_stmt 1 view -0
  60              		.cfi_startproc
  61              		@ args = 0, pretend = 0, frame = 0
  62              		@ frame_needed = 0, uses_anonymous_args = 0
  63              		.loc 1 115 3 view .LVU11
  64              		.loc 1 121 9 is_stmt 0 view .LVU12
  65 0000 082090E5 		ldr	r2, [r0, #8]
  66              		.loc 1 115 11 view .LVU13
  67 0004 70319FE5 		ldr	r3, .L30
  68              		.loc 1 121 6 view .LVU14
  69 0008 000052E3 		cmp	r2, #0
  70              		.loc 1 114 28 view .LVU15
  71 000c 70402DE9 		push	{r4, r5, r6, lr}
  72              		.cfi_def_cfa_offset 16
  73              		.cfi_offset 4, -16
  74              		.cfi_offset 5, -12
  75              		.cfi_offset 6, -8
  76              		.cfi_offset 14, -4
  77              		.loc 1 115 11 view .LVU16
  78 0010 184093E5 		ldr	r4, [r3, #24]
  79              	.LVL2:
  80              		.loc 1 117 3 is_stmt 1 view .LVU17
  81              		.loc 1 117 21 view .LVU18
  82              		.loc 1 118 3 view .LVU19
  83              		.loc 1 118 39 view .LVU20
  84              		.loc 1 121 3 view .LVU21
  85              		.loc 1 121 6 is_stmt 0 view .LVU22
  86 0014 1F00000A 		beq	.L25
  87              	.LBB27:
  88              		.loc 1 128 28 view .LVU23
  89 0018 081094E5 		ldr	r1, [r4, #8]
  90              		.loc 1 128 11 view .LVU24
  91 001c 083092E5 		ldr	r3, [r2, #8]
  92 0020 0050A0E1 		mov	r5, r0
  93              	.LVL3:
  94              		.loc 1 128 11 view .LVU25
  95 0024 010053E1 		cmp	r3, r1
  96 0028 0700002A 		bcs	.L9
  97              	.LVL4:
  98              	.L12:
  99              		.loc 1 130 7 is_stmt 1 view .LVU26
 100              		.loc 1 132 17 is_stmt 0 view .LVU27
 101 002c 1C30D2E5 		ldrb	r3, [r2, #28]	@ zero_extendqisi2
 102              		.loc 1 130 18 view .LVU28
 103 0030 081082E5 		str	r1, [r2, #8]
 104              		.loc 1 132 7 is_stmt 1 view .LVU29
 105 0034 040053E3 		cmp	r3, #4
 106 0038 3600000A 		beq	.L6
 107              		.loc 1 132 7 is_stmt 0 view .LVU30
 108 003c 050053E3 		cmp	r3, #5
 109 0040 2000000A 		beq	.L7
 110 0044 000053E3 		cmp	r3, #0
 111 0048 1700000A 		beq	.L26
 112              	.LVL5:
 113              	.L9:
 114              		.loc 1 166 5 is_stmt 1 view .LVU31
ARM GAS  /var/folders/l5/0x54b2c10074c8bt31ycjvl80000gp/T//cc9SIASL.s 			page 3


 115              	.LBB28:
 116              	.LBI28:
 117              		.file 2 "../../os/kernel/include/chinline.h"
 118              		.loc 2 34 20 view .LVU32
 119              	.LBB29:
 120              		.loc 2 36 3 view .LVU33
 121              		.loc 2 36 11 is_stmt 0 view .LVU34
 122 004c 0530A0E1 		mov	r3, r5
 123 0050 030000EA 		b	.L17
 124              	.LVL6:
 125              	.L27:
 126              		.loc 2 39 34 view .LVU35
 127 0054 081093E5 		ldr	r1, [r3, #8]
 128 0058 082094E5 		ldr	r2, [r4, #8]
 129 005c 020051E1 		cmp	r1, r2
 130 0060 0200003A 		bcc	.L16
 131              	.L17:
 132              		.loc 2 37 3 is_stmt 1 view .LVU36
 133              		.loc 2 38 5 view .LVU37
 134              		.loc 2 38 8 is_stmt 0 view .LVU38
 135 0064 003093E5 		ldr	r3, [r3]
 136              	.LVL7:
 137              		.loc 2 39 3 view .LVU39
 138 0068 030055E1 		cmp	r5, r3
 139 006c F8FFFF1A 		bne	.L27
 140              	.L16:
 141              		.loc 2 40 3 is_stmt 1 view .LVU40
 142              		.loc 2 41 18 is_stmt 0 view .LVU41
 143 0070 042093E5 		ldr	r2, [r3, #4]
 144              		.loc 2 40 14 view .LVU42
 145 0074 003084E5 		str	r3, [r4]
 146              		.loc 2 41 3 is_stmt 1 view .LVU43
 147              		.loc 2 41 14 is_stmt 0 view .LVU44
 148 0078 042084E5 		str	r2, [r4, #4]
 149              		.loc 2 42 3 is_stmt 1 view .LVU45
 150              		.loc 2 42 35 is_stmt 0 view .LVU46
 151 007c 044083E5 		str	r4, [r3, #4]
 152              		.loc 2 42 22 view .LVU47
 153 0080 043094E5 		ldr	r3, [r4, #4]
 154              	.LVL8:
 155              		.loc 2 42 22 view .LVU48
 156              	.LBE29:
 157              	.LBE28:
 158              		.loc 1 168 5 view .LVU49
 159 0084 0400A0E3 		mov	r0, #4
 160              	.LBB31:
 161              	.LBB30:
 162              		.loc 2 42 22 view .LVU50
 163 0088 004083E5 		str	r4, [r3]
 164              	.LVL9:
 165              		.loc 2 42 22 view .LVU51
 166              	.LBE30:
 167              	.LBE31:
 168              		.loc 1 167 5 is_stmt 1 view .LVU52
 169              		.loc 1 167 21 is_stmt 0 view .LVU53
 170 008c 245084E5 		str	r5, [r4, #36]
 171              		.loc 1 168 5 is_stmt 1 view .LVU54
ARM GAS  /var/folders/l5/0x54b2c10074c8bt31ycjvl80000gp/T//cc9SIASL.s 			page 4


 172              	.LBE27:
 173              		.loc 1 180 1 is_stmt 0 view .LVU55
 174 0090 7040BDE8 		pop	{r4, r5, r6, lr}
 175              		.cfi_remember_state
 176              		.cfi_restore 14
 177              		.cfi_restore 6
 178              		.cfi_restore 5
 179              		.cfi_restore 4
 180              		.cfi_def_cfa_offset 0
 181              	.LVL10:
 182              	.LBB56:
 183              		.loc 1 168 5 view .LVU56
 184 0094 FEFFFFEA 		b	chSchGoSleepS
 185              	.LVL11:
 186              	.L25:
 187              		.cfi_restore_state
 188              		.loc 1 168 5 view .LVU57
 189              	.LBE56:
 190              		.loc 1 176 5 is_stmt 1 view .LVU58
 191              		.loc 1 177 16 is_stmt 0 view .LVU59
 192 0098 3C3094E5 		ldr	r3, [r4, #60]
 193              		.loc 1 176 17 view .LVU60
 194 009c 084080E5 		str	r4, [r0, #8]
 195              		.loc 1 177 5 is_stmt 1 view .LVU61
 196              		.loc 1 177 16 is_stmt 0 view .LVU62
 197 00a0 0C3080E5 		str	r3, [r0, #12]
 198              		.loc 1 178 5 is_stmt 1 view .LVU63
 199              		.loc 1 178 20 is_stmt 0 view .LVU64
 200 00a4 3C0084E5 		str	r0, [r4, #60]
 201              		.loc 1 180 1 view .LVU65
 202 00a8 7080BDE8 		pop	{r4, r5, r6, pc}
 203              	.LVL12:
 204              	.L26:
 205              	.LBB57:
 206              		.loc 1 160 9 is_stmt 1 view .LVU66
 207              	.LBB32:
 208              	.LBI32:
 209              		.loc 2 66 23 view .LVU67
 210              	.LBB33:
 211              		.loc 2 68 3 view .LVU68
 212              		.loc 2 68 5 is_stmt 0 view .LVU69
 213 00ac 041092E5 		ldr	r1, [r2, #4]
 214              		.loc 2 68 26 view .LVU70
 215 00b0 003092E5 		ldr	r3, [r2]
 216              	.LBE33:
 217              	.LBE32:
 218              		.loc 1 160 9 view .LVU71
 219 00b4 0200A0E1 		mov	r0, r2
 220              	.LBB35:
 221              	.LBB34:
 222              		.loc 2 68 22 view .LVU72
 223 00b8 003081E5 		str	r3, [r1]
 224              		.loc 2 69 3 is_stmt 1 view .LVU73
 225              		.loc 2 69 22 is_stmt 0 view .LVU74
 226 00bc 041083E5 		str	r1, [r3, #4]
 227              		.loc 2 70 3 is_stmt 1 view .LVU75
 228              	.LVL13:
ARM GAS  /var/folders/l5/0x54b2c10074c8bt31ycjvl80000gp/T//cc9SIASL.s 			page 5


 229              		.loc 2 70 3 is_stmt 0 view .LVU76
 230              	.LBE34:
 231              	.LBE35:
 232              		.loc 1 160 9 view .LVU77
 233 00c0 FEFFFFEB 		bl	chSchReadyI
 234              	.LVL14:
 235              		.loc 1 161 9 is_stmt 1 view .LVU78
 236 00c4 E0FFFFEA 		b	.L9
 237              	.LVL15:
 238              	.L7:
 239              		.loc 1 151 9 view .LVU79
 240              	.LBB36:
 241              	.LBI36:
 242              		.loc 2 66 23 view .LVU80
 243              	.LBB37:
 244              		.loc 2 68 3 view .LVU81
 245              	.LBE37:
 246              	.LBE36:
 247              		.loc 1 151 57 is_stmt 0 view .LVU82
 248 00c8 24C092E5 		ldr	ip, [r2, #36]
 249              	.LBB40:
 250              	.LBB38:
 251              		.loc 2 68 5 view .LVU83
 252 00cc 04E092E5 		ldr	lr, [r2, #4]
 253              		.loc 2 68 26 view .LVU84
 254 00d0 000092E5 		ldr	r0, [r2]
 255              	.LBE38:
 256              	.LBE40:
 257              	.LBB41:
 258              	.LBB42:
 259              		.loc 2 36 11 view .LVU85
 260 00d4 0C30A0E1 		mov	r3, ip
 261              	.LBE42:
 262              	.LBE41:
 263              	.LBB44:
 264              	.LBB39:
 265              		.loc 2 68 22 view .LVU86
 266 00d8 00008EE5 		str	r0, [lr]
 267              		.loc 2 69 3 is_stmt 1 view .LVU87
 268              		.loc 2 69 22 is_stmt 0 view .LVU88
 269 00dc 04E080E5 		str	lr, [r0, #4]
 270              		.loc 2 70 3 is_stmt 1 view .LVU89
 271              	.LVL16:
 272              		.loc 2 70 3 is_stmt 0 view .LVU90
 273              	.LBE39:
 274              	.LBE44:
 275              	.LBB45:
 276              	.LBI41:
 277              		.loc 2 34 20 is_stmt 1 view .LVU91
 278 00e0 020000EA 		b	.L14
 279              	.LVL17:
 280              	.L28:
 281              	.LBB43:
 282              		.loc 2 39 34 is_stmt 0 view .LVU92
 283 00e4 080093E5 		ldr	r0, [r3, #8]
 284 00e8 000051E1 		cmp	r1, r0
 285 00ec 0200008A 		bhi	.L13
ARM GAS  /var/folders/l5/0x54b2c10074c8bt31ycjvl80000gp/T//cc9SIASL.s 			page 6


 286              	.LVL18:
 287              	.L14:
 288              		.loc 2 37 3 is_stmt 1 view .LVU93
 289              		.loc 2 38 5 view .LVU94
 290              		.loc 2 38 8 is_stmt 0 view .LVU95
 291 00f0 003093E5 		ldr	r3, [r3]
 292              	.LVL19:
 293              		.loc 2 39 3 view .LVU96
 294 00f4 03005CE1 		cmp	ip, r3
 295 00f8 F9FFFF1A 		bne	.L28
 296              	.L13:
 297              		.loc 2 40 3 is_stmt 1 view .LVU97
 298              		.loc 2 41 18 is_stmt 0 view .LVU98
 299 00fc 041093E5 		ldr	r1, [r3, #4]
 300              		.loc 2 40 14 view .LVU99
 301 0100 003082E5 		str	r3, [r2]
 302              		.loc 2 41 3 is_stmt 1 view .LVU100
 303              		.loc 2 41 14 is_stmt 0 view .LVU101
 304 0104 041082E5 		str	r1, [r2, #4]
 305              		.loc 2 42 3 is_stmt 1 view .LVU102
 306              		.loc 2 42 35 is_stmt 0 view .LVU103
 307 0108 042083E5 		str	r2, [r3, #4]
 308              		.loc 2 42 22 view .LVU104
 309 010c 043092E5 		ldr	r3, [r2, #4]
 310              	.LVL20:
 311              		.loc 2 42 22 view .LVU105
 312 0110 002083E5 		str	r2, [r3]
 313              	.LVL21:
 314              		.loc 2 42 22 view .LVU106
 315 0114 CCFFFFEA 		b	.L9
 316              	.LVL22:
 317              	.L6:
 318              		.loc 2 42 22 view .LVU107
 319              	.LBE43:
 320              	.LBE45:
 321              		.loc 1 135 9 is_stmt 1 view .LVU108
 322              	.LBB46:
 323              	.LBI46:
 324              		.loc 2 66 23 view .LVU109
 325              	.LBB47:
 326              		.loc 2 68 3 view .LVU110
 327              	.LBE47:
 328              	.LBE46:
 329              		.loc 1 135 57 is_stmt 0 view .LVU111
 330 0118 24C092E5 		ldr	ip, [r2, #36]
 331              	.LBB50:
 332              	.LBB48:
 333              		.loc 2 68 5 view .LVU112
 334 011c 04E092E5 		ldr	lr, [r2, #4]
 335              		.loc 2 68 26 view .LVU113
 336 0120 000092E5 		ldr	r0, [r2]
 337              	.LBE48:
 338              	.LBE50:
 339              		.loc 1 135 57 view .LVU114
 340 0124 0C30A0E1 		mov	r3, ip
 341              	.LBB51:
 342              	.LBB49:
ARM GAS  /var/folders/l5/0x54b2c10074c8bt31ycjvl80000gp/T//cc9SIASL.s 			page 7


 343              		.loc 2 68 22 view .LVU115
 344 0128 00008EE5 		str	r0, [lr]
 345              		.loc 2 69 3 is_stmt 1 view .LVU116
 346              		.loc 2 69 22 is_stmt 0 view .LVU117
 347 012c 04E080E5 		str	lr, [r0, #4]
 348              		.loc 2 70 3 is_stmt 1 view .LVU118
 349              	.LVL23:
 350              		.loc 2 70 3 is_stmt 0 view .LVU119
 351              	.LBE49:
 352              	.LBE51:
 353              	.LBB52:
 354              	.LBI52:
 355              		.loc 2 34 20 is_stmt 1 view .LVU120
 356 0130 020000EA 		b	.L11
 357              	.LVL24:
 358              	.L29:
 359              	.LBB53:
 360              		.loc 2 39 34 is_stmt 0 view .LVU121
 361 0134 080093E5 		ldr	r0, [r3, #8]
 362 0138 000051E1 		cmp	r1, r0
 363 013c 0200008A 		bhi	.L10
 364              	.LVL25:
 365              	.L11:
 366              		.loc 2 37 3 is_stmt 1 view .LVU122
 367              		.loc 2 38 5 view .LVU123
 368              		.loc 2 38 8 is_stmt 0 view .LVU124
 369 0140 003093E5 		ldr	r3, [r3]
 370              	.LVL26:
 371              		.loc 2 39 3 view .LVU125
 372 0144 03005CE1 		cmp	ip, r3
 373 0148 F9FFFF1A 		bne	.L29
 374              	.L10:
 375              		.loc 2 40 3 is_stmt 1 view .LVU126
 376              		.loc 2 41 18 is_stmt 0 view .LVU127
 377 014c 041093E5 		ldr	r1, [r3, #4]
 378              		.loc 2 40 14 view .LVU128
 379 0150 003082E5 		str	r3, [r2]
 380              		.loc 2 41 3 is_stmt 1 view .LVU129
 381              		.loc 2 41 14 is_stmt 0 view .LVU130
 382 0154 041082E5 		str	r1, [r2, #4]
 383              		.loc 2 42 3 is_stmt 1 view .LVU131
 384              		.loc 2 42 35 is_stmt 0 view .LVU132
 385 0158 042083E5 		str	r2, [r3, #4]
 386              		.loc 2 42 22 view .LVU133
 387 015c 043092E5 		ldr	r3, [r2, #4]
 388              	.LVL27:
 389              		.loc 2 42 22 view .LVU134
 390              	.LBE53:
 391              	.LBE52:
 392              		.loc 1 128 28 view .LVU135
 393 0160 081094E5 		ldr	r1, [r4, #8]
 394              	.LBB55:
 395              	.LBB54:
 396              		.loc 2 42 22 view .LVU136
 397 0164 002083E5 		str	r2, [r3]
 398              	.LVL28:
 399              		.loc 2 42 22 view .LVU137
ARM GAS  /var/folders/l5/0x54b2c10074c8bt31ycjvl80000gp/T//cc9SIASL.s 			page 8


 400              	.LBE54:
 401              	.LBE55:
 402              		.loc 1 136 9 is_stmt 1 view .LVU138
 403              		.loc 1 136 12 is_stmt 0 view .LVU139
 404 0168 08209CE5 		ldr	r2, [ip, #8]
 405              	.LVL29:
 406              		.loc 1 137 9 is_stmt 1 view .LVU140
 407              		.loc 1 128 11 is_stmt 0 view .LVU141
 408 016c 083092E5 		ldr	r3, [r2, #8]
 409 0170 010053E1 		cmp	r3, r1
 410 0174 ACFFFF3A 		bcc	.L12
 411 0178 B3FFFFEA 		b	.L9
 412              	.L31:
 413              		.align	2
 414              	.L30:
 415 017c 00000000 		.word	rlist
 416              	.LBE57:
 417              		.cfi_endproc
 418              	.LFE9:
 419              		.size	chMtxLockS, .-chMtxLockS
 420              		.section	.text.chMtxLock,"ax",%progbits
 421              		.align	2
 422              		.global	chMtxLock
 423              		.syntax unified
 424              		.arm
 425              		.fpu softvfp
 426              		.type	chMtxLock, %function
 427              	chMtxLock:
 428              	.LVL30:
 429              	.LFB8:
 430              		.loc 1 96 27 is_stmt 1 view -0
 431              		.cfi_startproc
 432              		@ args = 0, pretend = 0, frame = 0
 433              		@ frame_needed = 0, uses_anonymous_args = 0
 434              		.loc 1 98 3 view .LVU143
 435              		.loc 1 96 27 is_stmt 0 view .LVU144
 436 0000 10402DE9 		push	{r4, lr}
 437              		.cfi_def_cfa_offset 8
 438              		.cfi_offset 4, -8
 439              		.cfi_offset 14, -4
 440              		.loc 1 98 3 view .LVU145
 441              		.syntax divided
 442              	@ 98 "../../os/kernel/src/chmtx.c" 1
 443 0004 9FF021E3 		msr     CPSR_c, #0x9F
 444              	@ 0 "" 2
 445              		.loc 1 98 3 is_stmt 1 view .LVU146
 446              		.loc 1 98 14 view .LVU147
 447              		.loc 1 100 3 view .LVU148
 448              		.arm
 449              		.syntax unified
 450 0008 FEFFFFEB 		bl	chMtxLockS
 451              	.LVL31:
 452              		.loc 1 102 3 view .LVU149
 453              		.loc 1 102 3 view .LVU150
 454              		.syntax divided
 455              	@ 102 "../../os/kernel/src/chmtx.c" 1
 456 000c 1FF021E3 		msr     CPSR_c, #0x1F
ARM GAS  /var/folders/l5/0x54b2c10074c8bt31ycjvl80000gp/T//cc9SIASL.s 			page 9


 457              	@ 0 "" 2
 458              		.loc 1 102 16 view .LVU151
 459              		.loc 1 103 1 is_stmt 0 view .LVU152
 460              		.arm
 461              		.syntax unified
 462 0010 1080BDE8 		pop	{r4, pc}
 463              		.cfi_endproc
 464              	.LFE8:
 465              		.size	chMtxLock, .-chMtxLock
 466              		.section	.text.chMtxTryLock,"ax",%progbits
 467              		.align	2
 468              		.global	chMtxTryLock
 469              		.syntax unified
 470              		.arm
 471              		.fpu softvfp
 472              		.type	chMtxTryLock, %function
 473              	chMtxTryLock:
 474              	.LVL32:
 475              	.LFB10:
 476              		.loc 1 199 32 is_stmt 1 view -0
 477              		.cfi_startproc
 478              		@ args = 0, pretend = 0, frame = 0
 479              		@ frame_needed = 0, uses_anonymous_args = 0
 480              		@ link register save eliminated.
 481              		.loc 1 200 3 view .LVU154
 482              		.loc 1 202 3 view .LVU155
 483              		.loc 1 199 32 is_stmt 0 view .LVU156
 484 0000 0030A0E1 		mov	r3, r0
 485              		.loc 1 202 3 view .LVU157
 486              		.syntax divided
 487              	@ 202 "../../os/kernel/src/chmtx.c" 1
 488 0004 9FF021E3 		msr     CPSR_c, #0x9F
 489              	@ 0 "" 2
 490              		.loc 1 202 3 is_stmt 1 view .LVU158
 491              		.loc 1 202 14 view .LVU159
 492              		.loc 1 204 3 view .LVU160
 493              	.LVL33:
 494              		.arm
 495              		.syntax unified
 496              	.LBB62:
 497              	.LBI62:
 498              		.loc 1 227 8 view .LVU161
 499              	.LBB63:
 500              		.loc 1 229 3 view .LVU162
 501              		.loc 1 229 21 view .LVU163
 502              		.loc 1 230 3 view .LVU164
 503              		.loc 1 230 42 view .LVU165
 504              		.loc 1 232 3 view .LVU166
 505              		.loc 1 232 6 is_stmt 0 view .LVU167
 506 0008 082090E5 		ldr	r2, [r0, #8]
 507 000c 000052E3 		cmp	r2, #0
 508              	.LVL34:
 509              	.LBB64:
 510              	.LBI64:
 511              		.loc 1 227 8 is_stmt 1 view .LVU168
 512              	.LBB65:
 513              		.loc 1 234 3 view .LVU169
ARM GAS  /var/folders/l5/0x54b2c10074c8bt31ycjvl80000gp/T//cc9SIASL.s 			page 10


 514              		.loc 1 234 17 is_stmt 0 view .LVU170
 515 0010 20209F05 		ldreq	r2, .L37
 516              		.loc 1 236 20 view .LVU171
 517 0014 0100A003 		moveq	r0, #1
 518              	.LVL35:
 519              		.loc 1 234 17 view .LVU172
 520 0018 18209205 		ldreq	r2, [r2, #24]
 521              	.LBE65:
 522              	.LBE64:
 523              		.loc 1 233 12 view .LVU173
 524 001c 0000A013 		movne	r0, #0
 525              	.LBB67:
 526              	.LBB66:
 527              		.loc 1 235 14 view .LVU174
 528 0020 3C109205 		ldreq	r1, [r2, #60]
 529              		.loc 1 234 15 view .LVU175
 530 0024 08208305 		streq	r2, [r3, #8]
 531              		.loc 1 235 3 is_stmt 1 view .LVU176
 532              		.loc 1 235 14 is_stmt 0 view .LVU177
 533 0028 0C108305 		streq	r1, [r3, #12]
 534              		.loc 1 236 3 is_stmt 1 view .LVU178
 535              		.loc 1 236 20 is_stmt 0 view .LVU179
 536 002c 3C308205 		streq	r3, [r2, #60]
 537              		.loc 1 237 3 is_stmt 1 view .LVU180
 538              	.LVL36:
 539              		.loc 1 237 3 is_stmt 0 view .LVU181
 540              	.LBE66:
 541              	.LBE67:
 542              	.LBE63:
 543              	.LBE62:
 544              		.loc 1 206 3 is_stmt 1 view .LVU182
 545              		.loc 1 206 3 view .LVU183
 546              		.syntax divided
 547              	@ 206 "../../os/kernel/src/chmtx.c" 1
 548 0030 1FF021E3 		msr     CPSR_c, #0x1F
 549              	@ 0 "" 2
 550              		.loc 1 206 16 view .LVU184
 551              		.loc 1 207 3 view .LVU185
 552              		.loc 1 208 1 is_stmt 0 view .LVU186
 553              		.arm
 554              		.syntax unified
 555 0034 1EFF2FE1 		bx	lr
 556              	.L38:
 557              		.align	2
 558              	.L37:
 559 0038 00000000 		.word	rlist
 560              		.cfi_endproc
 561              	.LFE10:
 562              		.size	chMtxTryLock, .-chMtxTryLock
 563              		.section	.text.chMtxTryLockS,"ax",%progbits
 564              		.align	2
 565              		.global	chMtxTryLockS
 566              		.syntax unified
 567              		.arm
 568              		.fpu softvfp
 569              		.type	chMtxTryLockS, %function
 570              	chMtxTryLockS:
ARM GAS  /var/folders/l5/0x54b2c10074c8bt31ycjvl80000gp/T//cc9SIASL.s 			page 11


 571              	.LVL37:
 572              	.LFB11:
 573              		.loc 1 227 33 is_stmt 1 view -0
 574              		.cfi_startproc
 575              		@ args = 0, pretend = 0, frame = 0
 576              		@ frame_needed = 0, uses_anonymous_args = 0
 577              		@ link register save eliminated.
 578              		.loc 1 229 3 view .LVU188
 579              		.loc 1 229 21 view .LVU189
 580              		.loc 1 230 3 view .LVU190
 581              		.loc 1 230 42 view .LVU191
 582              		.loc 1 232 3 view .LVU192
 583              		.loc 1 227 33 is_stmt 0 view .LVU193
 584 0000 0030A0E1 		mov	r3, r0
 585              		.loc 1 232 6 view .LVU194
 586 0004 082090E5 		ldr	r2, [r0, #8]
 587 0008 000052E3 		cmp	r2, #0
 588              	.LVL38:
 589              	.LBB70:
 590              	.LBI70:
 591              		.loc 1 227 8 is_stmt 1 view .LVU195
 592              	.LBB71:
 593              		.loc 1 234 3 view .LVU196
 594              		.loc 1 234 17 is_stmt 0 view .LVU197
 595 000c 1C209F05 		ldreq	r2, .L42
 596              		.loc 1 236 20 view .LVU198
 597 0010 0100A003 		moveq	r0, #1
 598              	.LVL39:
 599              		.loc 1 234 17 view .LVU199
 600 0014 18209205 		ldreq	r2, [r2, #24]
 601              	.LBE71:
 602              	.LBE70:
 603              		.loc 1 233 12 view .LVU200
 604 0018 0000A013 		movne	r0, #0
 605              	.LBB73:
 606              	.LBB72:
 607              		.loc 1 235 14 view .LVU201
 608 001c 3C109205 		ldreq	r1, [r2, #60]
 609              		.loc 1 234 15 view .LVU202
 610 0020 08208305 		streq	r2, [r3, #8]
 611              		.loc 1 235 3 is_stmt 1 view .LVU203
 612              		.loc 1 235 14 is_stmt 0 view .LVU204
 613 0024 0C108305 		streq	r1, [r3, #12]
 614              		.loc 1 236 3 is_stmt 1 view .LVU205
 615              		.loc 1 236 20 is_stmt 0 view .LVU206
 616 0028 3C308205 		streq	r3, [r2, #60]
 617              		.loc 1 237 3 is_stmt 1 view .LVU207
 618              	.LVL40:
 619              		.loc 1 237 3 is_stmt 0 view .LVU208
 620              	.LBE72:
 621              	.LBE73:
 622              		.loc 1 238 1 view .LVU209
 623 002c 1EFF2FE1 		bx	lr
 624              	.L43:
 625              		.align	2
 626              	.L42:
 627 0030 00000000 		.word	rlist
ARM GAS  /var/folders/l5/0x54b2c10074c8bt31ycjvl80000gp/T//cc9SIASL.s 			page 12


 628              		.cfi_endproc
 629              	.LFE11:
 630              		.size	chMtxTryLockS, .-chMtxTryLockS
 631              		.section	.text.chMtxUnlock,"ax",%progbits
 632              		.align	2
 633              		.global	chMtxUnlock
 634              		.syntax unified
 635              		.arm
 636              		.fpu softvfp
 637              		.type	chMtxUnlock, %function
 638              	chMtxUnlock:
 639              	.LFB12:
 640              		.loc 1 250 26 is_stmt 1 view -0
 641              		.cfi_startproc
 642              		@ args = 0, pretend = 0, frame = 0
 643              		@ frame_needed = 0, uses_anonymous_args = 0
 644              		.loc 1 251 3 view .LVU211
 645              		.loc 1 251 11 is_stmt 0 view .LVU212
 646 0000 94309FE5 		ldr	r3, .L55
 647              		.loc 1 250 26 view .LVU213
 648 0004 10402DE9 		push	{r4, lr}
 649              		.cfi_def_cfa_offset 8
 650              		.cfi_offset 4, -8
 651              		.cfi_offset 14, -4
 652              		.loc 1 251 11 view .LVU214
 653 0008 180093E5 		ldr	r0, [r3, #24]
 654              	.LVL41:
 655              		.loc 1 252 3 is_stmt 1 view .LVU215
 656              		.loc 1 254 3 view .LVU216
 657              		.syntax divided
 658              	@ 254 "../../os/kernel/src/chmtx.c" 1
 659 000c 9FF021E3 		msr     CPSR_c, #0x9F
 660              	@ 0 "" 2
 661              		.loc 1 254 3 view .LVU217
 662              		.loc 1 254 14 view .LVU218
 663              		.loc 1 255 3 view .LVU219
 664              		.arm
 665              		.syntax unified
 666 0010 3C4090E5 		ldr	r4, [r0, #60]
 667              		.loc 1 257 42 view .LVU220
 668              		.loc 1 258 3 view .LVU221
 669              		.loc 1 260 35 view .LVU222
 670              		.loc 1 263 3 view .LVU223
 671              	.LVL42:
 672              		.loc 1 264 3 view .LVU224
 673              		.loc 1 266 7 is_stmt 0 view .LVU225
 674 0014 00C094E5 		ldr	ip, [r4]
 675              		.loc 1 264 23 view .LVU226
 676 0018 0C3094E5 		ldr	r3, [r4, #12]
 677              		.loc 1 266 6 view .LVU227
 678 001c 04005CE1 		cmp	ip, r4
 679              		.loc 1 264 18 view .LVU228
 680 0020 3C3080E5 		str	r3, [r0, #60]
 681              		.loc 1 266 3 is_stmt 1 view .LVU229
 682              		.loc 1 266 6 is_stmt 0 view .LVU230
 683 0024 1900000A 		beq	.L45
 684              	.LBB74:
ARM GAS  /var/folders/l5/0x54b2c10074c8bt31ycjvl80000gp/T//cc9SIASL.s 			page 13


 685              		.loc 1 267 5 is_stmt 1 view .LVU231
 686              		.loc 1 271 5 view .LVU232
 687              		.loc 1 273 11 is_stmt 0 view .LVU233
 688 0028 000053E3 		cmp	r3, #0
 689              		.loc 1 271 13 view .LVU234
 690 002c 401090E5 		ldr	r1, [r0, #64]
 691              	.LVL43:
 692              		.loc 1 272 5 is_stmt 1 view .LVU235
 693              		.loc 1 273 5 view .LVU236
 694              		.loc 1 273 11 is_stmt 0 view .LVU237
 695 0030 0800000A 		beq	.L46
 696              	.L48:
 697              		.loc 1 277 7 is_stmt 1 view .LVU238
 698              		.loc 1 277 11 is_stmt 0 view .LVU239
 699 0034 002093E5 		ldr	r2, [r3]
 700              		.loc 1 277 10 view .LVU240
 701 0038 030052E1 		cmp	r2, r3
 702 003c 0200000A 		beq	.L47
 703              		.loc 1 277 10 view .LVU241
 704 0040 082092E5 		ldr	r2, [r2, #8]
 705 0044 020051E1 		cmp	r1, r2
 706 0048 0210A031 		movcc	r1, r2
 707              	.LVL44:
 708              	.L47:
 709              		.loc 1 279 7 is_stmt 1 view .LVU242
 710              		.loc 1 279 10 is_stmt 0 view .LVU243
 711 004c 0C3093E5 		ldr	r3, [r3, #12]
 712              	.LVL45:
 713              		.loc 1 273 11 view .LVU244
 714 0050 000053E3 		cmp	r3, #0
 715 0054 F6FFFF1A 		bne	.L48
 716              	.L46:
 717              		.loc 1 283 5 is_stmt 1 view .LVU245
 718              		.loc 1 288 17 is_stmt 0 view .LVU246
 719 0058 3C209CE5 		ldr	r2, [ip, #60]
 720              	.LBB75:
 721              	.LBB76:
 722              		.loc 2 55 20 view .LVU247
 723 005c 00309CE5 		ldr	r3, [ip]
 724              	.LVL46:
 725              		.loc 2 55 20 view .LVU248
 726              	.LBE76:
 727              	.LBE75:
 728              		.loc 1 283 17 view .LVU249
 729 0060 081080E5 		str	r1, [r0, #8]
 730              		.loc 1 286 5 is_stmt 1 view .LVU250
 731              	.LVL47:
 732              	.LBB79:
 733              	.LBI75:
 734              		.loc 2 52 23 view .LVU251
 735              	.LBB77:
 736              		.loc 2 53 3 view .LVU252
 737              		.loc 2 55 3 view .LVU253
 738              		.loc 2 55 16 is_stmt 0 view .LVU254
 739 0064 003084E5 		str	r3, [r4]
 740              	.LBE77:
 741              	.LBE79:
ARM GAS  /var/folders/l5/0x54b2c10074c8bt31ycjvl80000gp/T//cc9SIASL.s 			page 14


 742              		.loc 1 290 5 view .LVU255
 743 0068 0C00A0E1 		mov	r0, ip
 744              	.LVL48:
 745              	.LBB80:
 746              	.LBB78:
 747              		.loc 2 55 38 view .LVU256
 748 006c 044083E5 		str	r4, [r3, #4]
 749              		.loc 2 56 3 is_stmt 1 view .LVU257
 750              	.LVL49:
 751              		.loc 2 56 3 is_stmt 0 view .LVU258
 752              	.LBE78:
 753              	.LBE80:
 754              		.loc 1 287 5 is_stmt 1 view .LVU259
 755              		.loc 1 290 5 is_stmt 0 view .LVU260
 756 0070 0010A0E3 		mov	r1, #0
 757              	.LVL50:
 758              		.loc 1 287 18 view .LVU261
 759 0074 08C084E5 		str	ip, [r4, #8]
 760              		.loc 1 288 5 is_stmt 1 view .LVU262
 761              		.loc 1 288 17 is_stmt 0 view .LVU263
 762 0078 0C2084E5 		str	r2, [r4, #12]
 763              		.loc 1 289 5 is_stmt 1 view .LVU264
 764              		.loc 1 289 19 is_stmt 0 view .LVU265
 765 007c 3C408CE5 		str	r4, [ip, #60]
 766              		.loc 1 290 5 is_stmt 1 view .LVU266
 767 0080 FEFFFFEB 		bl	chSchWakeupS
 768              	.LVL51:
 769              	.L49:
 770              		.loc 1 290 5 is_stmt 0 view .LVU267
 771              	.LBE74:
 772              		.loc 1 294 3 is_stmt 1 view .LVU268
 773              		.loc 1 294 3 view .LVU269
 774              		.syntax divided
 775              	@ 294 "../../os/kernel/src/chmtx.c" 1
 776 0084 1FF021E3 		msr     CPSR_c, #0x1F
 777              	@ 0 "" 2
 778              		.loc 1 294 16 view .LVU270
 779              		.loc 1 295 3 view .LVU271
 780              		.loc 1 296 1 is_stmt 0 view .LVU272
 781              		.arm
 782              		.syntax unified
 783 0088 0400A0E1 		mov	r0, r4
 784 008c 1080BDE8 		pop	{r4, pc}
 785              	.LVL52:
 786              	.L45:
 787              		.loc 1 293 5 is_stmt 1 view .LVU273
 788              		.loc 1 293 18 is_stmt 0 view .LVU274
 789 0090 0030A0E3 		mov	r3, #0
 790 0094 083084E5 		str	r3, [r4, #8]
 791 0098 F9FFFFEA 		b	.L49
 792              	.L56:
 793              		.align	2
 794              	.L55:
 795 009c 00000000 		.word	rlist
 796              		.cfi_endproc
 797              	.LFE12:
 798              		.size	chMtxUnlock, .-chMtxUnlock
ARM GAS  /var/folders/l5/0x54b2c10074c8bt31ycjvl80000gp/T//cc9SIASL.s 			page 15


 799              		.section	.text.chMtxUnlockS,"ax",%progbits
 800              		.align	2
 801              		.global	chMtxUnlockS
 802              		.syntax unified
 803              		.arm
 804              		.fpu softvfp
 805              		.type	chMtxUnlockS, %function
 806              	chMtxUnlockS:
 807              	.LFB13:
 808              		.loc 1 310 27 is_stmt 1 view -0
 809              		.cfi_startproc
 810              		@ args = 0, pretend = 0, frame = 0
 811              		@ frame_needed = 0, uses_anonymous_args = 0
 812              		.loc 1 311 3 view .LVU276
 813              		.loc 1 311 11 is_stmt 0 view .LVU277
 814 0000 8C309FE5 		ldr	r3, .L68
 815              		.loc 1 310 27 view .LVU278
 816 0004 10402DE9 		push	{r4, lr}
 817              		.cfi_def_cfa_offset 8
 818              		.cfi_offset 4, -8
 819              		.cfi_offset 14, -4
 820              		.loc 1 311 11 view .LVU279
 821 0008 180093E5 		ldr	r0, [r3, #24]
 822              	.LVL53:
 823              		.loc 1 312 3 is_stmt 1 view .LVU280
 824              		.loc 1 314 3 view .LVU281
 825              		.loc 1 314 21 view .LVU282
 826              		.loc 1 315 3 view .LVU283
 827 000c 3C4090E5 		ldr	r4, [r0, #60]
 828              		.loc 1 317 42 view .LVU284
 829              		.loc 1 318 3 view .LVU285
 830              		.loc 1 320 35 view .LVU286
 831              		.loc 1 324 3 view .LVU287
 832              	.LVL54:
 833              		.loc 1 325 3 view .LVU288
 834              		.loc 1 327 7 is_stmt 0 view .LVU289
 835 0010 00C094E5 		ldr	ip, [r4]
 836              		.loc 1 325 23 view .LVU290
 837 0014 0C3094E5 		ldr	r3, [r4, #12]
 838              		.loc 1 327 6 view .LVU291
 839 0018 04005CE1 		cmp	ip, r4
 840              		.loc 1 325 18 view .LVU292
 841 001c 3C3080E5 		str	r3, [r0, #60]
 842              		.loc 1 327 3 is_stmt 1 view .LVU293
 843              		.loc 1 327 6 is_stmt 0 view .LVU294
 844 0020 1700000A 		beq	.L58
 845              	.LBB81:
 846              		.loc 1 328 5 is_stmt 1 view .LVU295
 847              		.loc 1 332 5 view .LVU296
 848              		.loc 1 334 11 is_stmt 0 view .LVU297
 849 0024 000053E3 		cmp	r3, #0
 850              		.loc 1 332 13 view .LVU298
 851 0028 401090E5 		ldr	r1, [r0, #64]
 852              	.LVL55:
 853              		.loc 1 333 5 is_stmt 1 view .LVU299
 854              		.loc 1 334 5 view .LVU300
 855              		.loc 1 334 11 is_stmt 0 view .LVU301
ARM GAS  /var/folders/l5/0x54b2c10074c8bt31ycjvl80000gp/T//cc9SIASL.s 			page 16


 856 002c 0800000A 		beq	.L59
 857              	.L61:
 858              		.loc 1 338 7 is_stmt 1 view .LVU302
 859              		.loc 1 338 11 is_stmt 0 view .LVU303
 860 0030 002093E5 		ldr	r2, [r3]
 861              		.loc 1 338 10 view .LVU304
 862 0034 030052E1 		cmp	r2, r3
 863 0038 0200000A 		beq	.L60
 864              		.loc 1 338 10 view .LVU305
 865 003c 082092E5 		ldr	r2, [r2, #8]
 866 0040 020051E1 		cmp	r1, r2
 867 0044 0210A031 		movcc	r1, r2
 868              	.LVL56:
 869              	.L60:
 870              		.loc 1 340 7 is_stmt 1 view .LVU306
 871              		.loc 1 340 10 is_stmt 0 view .LVU307
 872 0048 0C3093E5 		ldr	r3, [r3, #12]
 873              	.LVL57:
 874              		.loc 1 334 11 view .LVU308
 875 004c 000053E3 		cmp	r3, #0
 876 0050 F6FFFF1A 		bne	.L61
 877              	.L59:
 878              		.loc 1 342 5 is_stmt 1 view .LVU309
 879              		.loc 1 347 17 is_stmt 0 view .LVU310
 880 0054 3C209CE5 		ldr	r2, [ip, #60]
 881              	.LBB82:
 882              	.LBB83:
 883              		.loc 2 55 20 view .LVU311
 884 0058 00309CE5 		ldr	r3, [ip]
 885              	.LVL58:
 886              		.loc 2 55 20 view .LVU312
 887              	.LBE83:
 888              	.LBE82:
 889              		.loc 1 342 17 view .LVU313
 890 005c 081080E5 		str	r1, [r0, #8]
 891              		.loc 1 345 5 is_stmt 1 view .LVU314
 892              	.LVL59:
 893              	.LBB86:
 894              	.LBI82:
 895              		.loc 2 52 23 view .LVU315
 896              	.LBB84:
 897              		.loc 2 53 3 view .LVU316
 898              		.loc 2 55 3 view .LVU317
 899              		.loc 2 55 16 is_stmt 0 view .LVU318
 900 0060 003084E5 		str	r3, [r4]
 901              	.LBE84:
 902              	.LBE86:
 903              		.loc 1 349 5 view .LVU319
 904 0064 0C00A0E1 		mov	r0, ip
 905              	.LVL60:
 906              	.LBB87:
 907              	.LBB85:
 908              		.loc 2 55 38 view .LVU320
 909 0068 044083E5 		str	r4, [r3, #4]
 910              		.loc 2 56 3 is_stmt 1 view .LVU321
 911              	.LVL61:
 912              		.loc 2 56 3 is_stmt 0 view .LVU322
ARM GAS  /var/folders/l5/0x54b2c10074c8bt31ycjvl80000gp/T//cc9SIASL.s 			page 17


 913              	.LBE85:
 914              	.LBE87:
 915              		.loc 1 346 5 is_stmt 1 view .LVU323
 916              		.loc 1 346 18 is_stmt 0 view .LVU324
 917 006c 08C084E5 		str	ip, [r4, #8]
 918              		.loc 1 347 5 is_stmt 1 view .LVU325
 919              		.loc 1 347 17 is_stmt 0 view .LVU326
 920 0070 0C2084E5 		str	r2, [r4, #12]
 921              		.loc 1 348 5 is_stmt 1 view .LVU327
 922              		.loc 1 348 19 is_stmt 0 view .LVU328
 923 0074 3C408CE5 		str	r4, [ip, #60]
 924              		.loc 1 349 5 is_stmt 1 view .LVU329
 925 0078 FEFFFFEB 		bl	chSchReadyI
 926              	.LVL62:
 927              		.loc 1 349 5 is_stmt 0 view .LVU330
 928              	.LBE81:
 929              		.loc 1 354 1 view .LVU331
 930 007c 0400A0E1 		mov	r0, r4
 931 0080 1080BDE8 		pop	{r4, pc}
 932              	.LVL63:
 933              	.L58:
 934              		.loc 1 352 5 is_stmt 1 view .LVU332
 935              		.loc 1 352 18 is_stmt 0 view .LVU333
 936 0084 0030A0E3 		mov	r3, #0
 937              		.loc 1 354 1 view .LVU334
 938 0088 0400A0E1 		mov	r0, r4
 939              	.LVL64:
 940              		.loc 1 352 18 view .LVU335
 941 008c 083084E5 		str	r3, [r4, #8]
 942              		.loc 1 353 3 is_stmt 1 view .LVU336
 943              		.loc 1 354 1 is_stmt 0 view .LVU337
 944 0090 1080BDE8 		pop	{r4, pc}
 945              	.L69:
 946              		.align	2
 947              	.L68:
 948 0094 00000000 		.word	rlist
 949              		.cfi_endproc
 950              	.LFE13:
 951              		.size	chMtxUnlockS, .-chMtxUnlockS
 952              		.section	.text.chMtxUnlockAll,"ax",%progbits
 953              		.align	2
 954              		.global	chMtxUnlockAll
 955              		.syntax unified
 956              		.arm
 957              		.fpu softvfp
 958              		.type	chMtxUnlockAll, %function
 959              	chMtxUnlockAll:
 960              	.LFB14:
 961              		.loc 1 367 27 is_stmt 1 view -0
 962              		.cfi_startproc
 963              		@ args = 0, pretend = 0, frame = 0
 964              		@ frame_needed = 0, uses_anonymous_args = 0
 965              		.loc 1 368 3 view .LVU339
 966              		.loc 1 368 11 is_stmt 0 view .LVU340
 967 0000 78309FE5 		ldr	r3, .L80
 968              		.loc 1 367 27 view .LVU341
 969 0004 70402DE9 		push	{r4, r5, r6, lr}
ARM GAS  /var/folders/l5/0x54b2c10074c8bt31ycjvl80000gp/T//cc9SIASL.s 			page 18


 970              		.cfi_def_cfa_offset 16
 971              		.cfi_offset 4, -16
 972              		.cfi_offset 5, -12
 973              		.cfi_offset 6, -8
 974              		.cfi_offset 14, -4
 975              		.loc 1 368 11 view .LVU342
 976 0008 184093E5 		ldr	r4, [r3, #24]
 977              	.LVL65:
 978              		.loc 1 370 3 is_stmt 1 view .LVU343
 979              		.syntax divided
 980              	@ 370 "../../os/kernel/src/chmtx.c" 1
 981 000c 9FF021E3 		msr     CPSR_c, #0x9F
 982              	@ 0 "" 2
 983              		.loc 1 370 3 view .LVU344
 984              		.loc 1 370 14 view .LVU345
 985              		.loc 1 371 3 view .LVU346
 986              		.loc 1 371 10 is_stmt 0 view .LVU347
 987              		.arm
 988              		.syntax unified
 989 0010 3C3094E5 		ldr	r3, [r4, #60]
 990              		.loc 1 371 6 view .LVU348
 991 0014 000053E3 		cmp	r3, #0
 992 0018 1600000A 		beq	.L71
 993              	.LBB88:
 994              		.loc 1 383 22 view .LVU349
 995 001c 0050A0E3 		mov	r5, #0
 996              	.L74:
 997              		.loc 1 383 22 view .LVU350
 998              	.LBE88:
 999              		.loc 1 372 5 is_stmt 1 view .LVU351
 1000              	.LBB100:
 1001              		.loc 1 373 7 view .LVU352
 1002              	.LVL66:
 1003              		.loc 1 374 7 view .LVU353
 1004              	.LBB89:
 1005              		.loc 1 376 9 view .LVU354
 1006              	.LBB90:
 1007              	.LBI90:
 1008              		.loc 2 52 23 view .LVU355
 1009              	.LBB91:
 1010              		.loc 2 53 3 view .LVU356
 1011              	.LBE91:
 1012              	.LBE90:
 1013              	.LBE89:
 1014              		.loc 1 383 9 view .LVU357
 1015              		.loc 1 375 11 is_stmt 0 view .LVU358
 1016 0020 002093E5 		ldr	r2, [r3]
 1017              	.LVL67:
 1018              	.LBB98:
 1019              	.LBB95:
 1020              	.LBB92:
 1021              		.loc 2 55 3 is_stmt 1 view .LVU359
 1022              	.LBE92:
 1023              	.LBE95:
 1024              	.LBE98:
 1025              		.loc 1 374 27 is_stmt 0 view .LVU360
 1026 0024 0C1093E5 		ldr	r1, [r3, #12]
ARM GAS  /var/folders/l5/0x54b2c10074c8bt31ycjvl80000gp/T//cc9SIASL.s 			page 19


 1027              		.loc 1 375 10 view .LVU361
 1028 0028 030052E1 		cmp	r2, r3
 1029              		.loc 1 374 22 view .LVU362
 1030 002c 3C1084E5 		str	r1, [r4, #60]
 1031              	.LVL68:
 1032              		.loc 1 375 7 is_stmt 1 view .LVU363
 1033              		.loc 1 383 22 is_stmt 0 view .LVU364
 1034 0030 08508305 		streq	r5, [r3, #8]
 1035 0034 0130A001 		moveq	r3, r1
 1036              	.LVL69:
 1037              		.loc 1 375 10 view .LVU365
 1038 0038 0900000A 		beq	.L73
 1039              	.LBB99:
 1040              		.loc 1 378 21 view .LVU366
 1041 003c 3CC092E5 		ldr	ip, [r2, #60]
 1042              	.LBB96:
 1043              	.LBB93:
 1044              		.loc 2 55 20 view .LVU367
 1045 0040 001092E5 		ldr	r1, [r2]
 1046              	.LBE93:
 1047              	.LBE96:
 1048              		.loc 1 380 9 view .LVU368
 1049 0044 0200A0E1 		mov	r0, r2
 1050              	.LBB97:
 1051              	.LBB94:
 1052              		.loc 2 55 16 view .LVU369
 1053 0048 001083E5 		str	r1, [r3]
 1054              		.loc 2 55 38 view .LVU370
 1055 004c 043081E5 		str	r3, [r1, #4]
 1056              		.loc 2 56 3 is_stmt 1 view .LVU371
 1057              	.LVL70:
 1058              		.loc 2 56 3 is_stmt 0 view .LVU372
 1059              	.LBE94:
 1060              	.LBE97:
 1061              		.loc 1 377 9 is_stmt 1 view .LVU373
 1062              		.loc 1 377 22 is_stmt 0 view .LVU374
 1063 0050 082083E5 		str	r2, [r3, #8]
 1064              		.loc 1 378 9 is_stmt 1 view .LVU375
 1065              		.loc 1 378 21 is_stmt 0 view .LVU376
 1066 0054 0CC083E5 		str	ip, [r3, #12]
 1067              		.loc 1 379 9 is_stmt 1 view .LVU377
 1068              		.loc 1 379 23 is_stmt 0 view .LVU378
 1069 0058 3C3082E5 		str	r3, [r2, #60]
 1070              		.loc 1 380 9 is_stmt 1 view .LVU379
 1071 005c FEFFFFEB 		bl	chSchReadyI
 1072              	.LVL71:
 1073              		.loc 1 380 9 is_stmt 0 view .LVU380
 1074 0060 3C3094E5 		ldr	r3, [r4, #60]
 1075              	.L73:
 1076              		.loc 1 380 9 view .LVU381
 1077              	.LBE99:
 1078              	.LBE100:
 1079              		.loc 1 384 5 view .LVU382
 1080 0064 000053E3 		cmp	r3, #0
 1081 0068 ECFFFF1A 		bne	.L74
 1082              		.loc 1 385 5 is_stmt 1 view .LVU383
 1083              		.loc 1 385 17 is_stmt 0 view .LVU384
ARM GAS  /var/folders/l5/0x54b2c10074c8bt31ycjvl80000gp/T//cc9SIASL.s 			page 20


 1084 006c 403094E5 		ldr	r3, [r4, #64]
 1085 0070 083084E5 		str	r3, [r4, #8]
 1086              		.loc 1 386 5 is_stmt 1 view .LVU385
 1087 0074 FEFFFFEB 		bl	chSchRescheduleS
 1088              	.LVL72:
 1089              	.L71:
 1090              		.loc 1 388 3 view .LVU386
 1091              		.loc 1 388 3 view .LVU387
 1092              		.syntax divided
 1093              	@ 388 "../../os/kernel/src/chmtx.c" 1
 1094 0078 1FF021E3 		msr     CPSR_c, #0x1F
 1095              	@ 0 "" 2
 1096              		.loc 1 388 16 view .LVU388
 1097              		.loc 1 389 1 is_stmt 0 view .LVU389
 1098              		.arm
 1099              		.syntax unified
 1100 007c 7080BDE8 		pop	{r4, r5, r6, pc}
 1101              	.L81:
 1102              		.align	2
 1103              	.L80:
 1104 0080 00000000 		.word	rlist
 1105              		.cfi_endproc
 1106              	.LFE14:
 1107              		.size	chMtxUnlockAll, .-chMtxUnlockAll
 1108              		.text
 1109              	.Letext0:
 1110              		.file 3 "/usr/local/Cellar/arm-gcc-bin/8-2019-q3-update/arm-none-eabi/include/machine/_default_typ
 1111              		.file 4 "/usr/local/Cellar/arm-gcc-bin/8-2019-q3-update/arm-none-eabi/include/sys/_stdint.h"
 1112              		.file 5 "../../os/ports/GCC/ARM/chtypes.h"
 1113              		.file 6 "../../os/kernel/include/chlists.h"
 1114              		.file 7 "../../os/kernel/include/chthreads.h"
 1115              		.file 8 "../../os/ports/GCC/ARM/chcore.h"
 1116              		.file 9 "../../os/kernel/include/chvt.h"
 1117              		.file 10 "../../os/kernel/include/chschd.h"
 1118              		.file 11 "../../os/kernel/include/chmtx.h"
 1119              		.file 12 "../../os/kernel/include/chregistry.h"
 1120              		.file 13 "../../os/kernel/include/ch.h"
 1121              		.section	.debug_info,"",%progbits
 1122              	.Ldebug_info0:
 1123 0000 350C0000 		.4byte	0xc35
 1124 0004 0400     		.2byte	0x4
 1125 0006 00000000 		.4byte	.Ldebug_abbrev0
 1126 000a 04       		.byte	0x4
 1127 000b 01       		.uleb128 0x1
 1128 000c CC010000 		.4byte	.LASF111
 1129 0010 0C       		.byte	0xc
 1130 0011 68040000 		.4byte	.LASF112
 1131 0015 45050000 		.4byte	.LASF113
 1132 0019 C0010000 		.4byte	.Ldebug_ranges0+0x1c0
 1133 001d 00000000 		.4byte	0
 1134 0021 00000000 		.4byte	.Ldebug_line0
 1135 0025 02       		.uleb128 0x2
 1136 0026 04       		.byte	0x4
 1137 0027 05       		.byte	0x5
 1138 0028 696E7400 		.ascii	"int\000"
 1139 002c 03       		.uleb128 0x3
 1140 002d 04       		.byte	0x4
ARM GAS  /var/folders/l5/0x54b2c10074c8bt31ycjvl80000gp/T//cc9SIASL.s 			page 21


 1141 002e 07       		.byte	0x7
 1142 002f 5D010000 		.4byte	.LASF0
 1143 0033 03       		.uleb128 0x3
 1144 0034 01       		.byte	0x1
 1145 0035 06       		.byte	0x6
 1146 0036 87000000 		.4byte	.LASF1
 1147 003a 04       		.uleb128 0x4
 1148 003b 1A000000 		.4byte	.LASF4
 1149 003f 03       		.byte	0x3
 1150 0040 2B       		.byte	0x2b
 1151 0041 18       		.byte	0x18
 1152 0042 46000000 		.4byte	0x46
 1153 0046 03       		.uleb128 0x3
 1154 0047 01       		.byte	0x1
 1155 0048 08       		.byte	0x8
 1156 0049 9E030000 		.4byte	.LASF2
 1157 004d 03       		.uleb128 0x3
 1158 004e 02       		.byte	0x2
 1159 004f 05       		.byte	0x5
 1160 0050 B6030000 		.4byte	.LASF3
 1161 0054 04       		.uleb128 0x4
 1162 0055 84040000 		.4byte	.LASF5
 1163 0059 03       		.byte	0x3
 1164 005a 39       		.byte	0x39
 1165 005b 19       		.byte	0x19
 1166 005c 60000000 		.4byte	0x60
 1167 0060 03       		.uleb128 0x3
 1168 0061 02       		.byte	0x2
 1169 0062 07       		.byte	0x7
 1170 0063 9E010000 		.4byte	.LASF6
 1171 0067 04       		.uleb128 0x4
 1172 0068 B7040000 		.4byte	.LASF7
 1173 006c 03       		.byte	0x3
 1174 006d 4D       		.byte	0x4d
 1175 006e 18       		.byte	0x18
 1176 006f 73000000 		.4byte	0x73
 1177 0073 03       		.uleb128 0x3
 1178 0074 04       		.byte	0x4
 1179 0075 05       		.byte	0x5
 1180 0076 CD000000 		.4byte	.LASF8
 1181 007a 04       		.uleb128 0x4
 1182 007b 34010000 		.4byte	.LASF9
 1183 007f 03       		.byte	0x3
 1184 0080 4F       		.byte	0x4f
 1185 0081 19       		.byte	0x19
 1186 0082 86000000 		.4byte	0x86
 1187 0086 03       		.uleb128 0x3
 1188 0087 04       		.byte	0x4
 1189 0088 07       		.byte	0x7
 1190 0089 72010000 		.4byte	.LASF10
 1191 008d 03       		.uleb128 0x3
 1192 008e 08       		.byte	0x8
 1193 008f 05       		.byte	0x5
 1194 0090 79000000 		.4byte	.LASF11
 1195 0094 03       		.uleb128 0x3
 1196 0095 08       		.byte	0x8
 1197 0096 07       		.byte	0x7
ARM GAS  /var/folders/l5/0x54b2c10074c8bt31ycjvl80000gp/T//cc9SIASL.s 			page 22


 1198 0097 2B000000 		.4byte	.LASF12
 1199 009b 04       		.uleb128 0x4
 1200 009c 19050000 		.4byte	.LASF13
 1201 00a0 04       		.byte	0x4
 1202 00a1 18       		.byte	0x18
 1203 00a2 13       		.byte	0x13
 1204 00a3 3A000000 		.4byte	0x3a
 1205 00a7 04       		.uleb128 0x4
 1206 00a8 EA000000 		.4byte	.LASF14
 1207 00ac 04       		.byte	0x4
 1208 00ad 24       		.byte	0x24
 1209 00ae 14       		.byte	0x14
 1210 00af 54000000 		.4byte	0x54
 1211 00b3 04       		.uleb128 0x4
 1212 00b4 96030000 		.4byte	.LASF15
 1213 00b8 04       		.byte	0x4
 1214 00b9 2C       		.byte	0x2c
 1215 00ba 13       		.byte	0x13
 1216 00bb 67000000 		.4byte	0x67
 1217 00bf 04       		.uleb128 0x4
 1218 00c0 2D040000 		.4byte	.LASF16
 1219 00c4 04       		.byte	0x4
 1220 00c5 30       		.byte	0x30
 1221 00c6 14       		.byte	0x14
 1222 00c7 7A000000 		.4byte	0x7a
 1223 00cb 04       		.uleb128 0x4
 1224 00cc B0000000 		.4byte	.LASF17
 1225 00d0 05       		.byte	0x5
 1226 00d1 29       		.byte	0x29
 1227 00d2 19       		.byte	0x19
 1228 00d3 B3000000 		.4byte	0xb3
 1229 00d7 04       		.uleb128 0x4
 1230 00d8 B3020000 		.4byte	.LASF18
 1231 00dc 05       		.byte	0x5
 1232 00dd 2A       		.byte	0x2a
 1233 00de 19       		.byte	0x19
 1234 00df 9B000000 		.4byte	0x9b
 1235 00e3 04       		.uleb128 0x4
 1236 00e4 D6000000 		.4byte	.LASF19
 1237 00e8 05       		.byte	0x5
 1238 00e9 2B       		.byte	0x2b
 1239 00ea 19       		.byte	0x19
 1240 00eb 9B000000 		.4byte	0x9b
 1241 00ef 04       		.uleb128 0x4
 1242 00f0 74030000 		.4byte	.LASF20
 1243 00f4 05       		.byte	0x5
 1244 00f5 2C       		.byte	0x2c
 1245 00f6 19       		.byte	0x19
 1246 00f7 9B000000 		.4byte	0x9b
 1247 00fb 04       		.uleb128 0x4
 1248 00fc 8E030000 		.4byte	.LASF21
 1249 0100 05       		.byte	0x5
 1250 0101 2E       		.byte	0x2e
 1251 0102 19       		.byte	0x19
 1252 0103 BF000000 		.4byte	0xbf
 1253 0107 04       		.uleb128 0x4
 1254 0108 BE010000 		.4byte	.LASF22
ARM GAS  /var/folders/l5/0x54b2c10074c8bt31ycjvl80000gp/T//cc9SIASL.s 			page 23


 1255 010c 05       		.byte	0x5
 1256 010d 2F       		.byte	0x2f
 1257 010e 19       		.byte	0x19
 1258 010f B3000000 		.4byte	0xb3
 1259 0113 04       		.uleb128 0x4
 1260 0114 C7020000 		.4byte	.LASF23
 1261 0118 05       		.byte	0x5
 1262 0119 31       		.byte	0x31
 1263 011a 19       		.byte	0x19
 1264 011b BF000000 		.4byte	0xbf
 1265 011f 04       		.uleb128 0x4
 1266 0120 A2040000 		.4byte	.LASF24
 1267 0124 05       		.byte	0x5
 1268 0125 33       		.byte	0x33
 1269 0126 19       		.byte	0x19
 1270 0127 BF000000 		.4byte	0xbf
 1271 012b 05       		.uleb128 0x5
 1272 012c 1F010000 		.4byte	0x11f
 1273 0130 04       		.uleb128 0x4
 1274 0131 00040000 		.4byte	.LASF25
 1275 0135 06       		.byte	0x6
 1276 0136 23       		.byte	0x23
 1277 0137 17       		.byte	0x17
 1278 0138 3C010000 		.4byte	0x13c
 1279 013c 06       		.uleb128 0x6
 1280 013d 00040000 		.4byte	.LASF25
 1281 0141 44       		.byte	0x44
 1282 0142 07       		.byte	0x7
 1283 0143 57       		.byte	0x57
 1284 0144 08       		.byte	0x8
 1285 0145 34020000 		.4byte	0x234
 1286 0149 07       		.uleb128 0x7
 1287 014a E2030000 		.4byte	.LASF26
 1288 014e 07       		.byte	0x7
 1289 014f 58       		.byte	0x58
 1290 0150 1A       		.byte	0x1a
 1291 0151 58020000 		.4byte	0x258
 1292 0155 00       		.byte	0
 1293 0156 07       		.uleb128 0x7
 1294 0157 87030000 		.4byte	.LASF27
 1295 015b 07       		.byte	0x7
 1296 015c 5A       		.byte	0x5a
 1297 015d 1A       		.byte	0x1a
 1298 015e 58020000 		.4byte	0x258
 1299 0162 04       		.byte	0x4
 1300 0163 07       		.uleb128 0x7
 1301 0164 65000000 		.4byte	.LASF28
 1302 0168 07       		.byte	0x7
 1303 0169 5C       		.byte	0x5c
 1304 016a 19       		.byte	0x19
 1305 016b FB000000 		.4byte	0xfb
 1306 016f 08       		.byte	0x8
 1307 0170 07       		.uleb128 0x7
 1308 0171 9C050000 		.4byte	.LASF29
 1309 0175 07       		.byte	0x7
 1310 0176 5D       		.byte	0x5d
 1311 0177 19       		.byte	0x19
ARM GAS  /var/folders/l5/0x54b2c10074c8bt31ycjvl80000gp/T//cc9SIASL.s 			page 24


 1312 0178 23030000 		.4byte	0x323
 1313 017c 0C       		.byte	0xc
 1314 017d 07       		.uleb128 0x7
 1315 017e 0B010000 		.4byte	.LASF30
 1316 0182 07       		.byte	0x7
 1317 0183 5F       		.byte	0x5f
 1318 0184 1A       		.byte	0x1a
 1319 0185 58020000 		.4byte	0x258
 1320 0189 10       		.byte	0x10
 1321 018a 07       		.uleb128 0x7
 1322 018b 37030000 		.4byte	.LASF31
 1323 018f 07       		.byte	0x7
 1324 0190 60       		.byte	0x60
 1325 0191 1A       		.byte	0x1a
 1326 0192 58020000 		.4byte	0x258
 1327 0196 14       		.byte	0x14
 1328 0197 07       		.uleb128 0x7
 1329 0198 28050000 		.4byte	.LASF32
 1330 019c 07       		.byte	0x7
 1331 019d 67       		.byte	0x67
 1332 019e 1A       		.byte	0x1a
 1333 019f 09050000 		.4byte	0x509
 1334 01a3 18       		.byte	0x18
 1335 01a4 07       		.uleb128 0x7
 1336 01a5 C0030000 		.4byte	.LASF33
 1337 01a9 07       		.byte	0x7
 1338 01aa 72       		.byte	0x72
 1339 01ab 19       		.byte	0x19
 1340 01ac E3000000 		.4byte	0xe3
 1341 01b0 1C       		.byte	0x1c
 1342 01b1 07       		.uleb128 0x7
 1343 01b2 F8030000 		.4byte	.LASF34
 1344 01b6 07       		.byte	0x7
 1345 01b7 76       		.byte	0x76
 1346 01b8 19       		.byte	0x19
 1347 01b9 D7000000 		.4byte	0xd7
 1348 01bd 1D       		.byte	0x1d
 1349 01be 07       		.uleb128 0x7
 1350 01bf 02050000 		.4byte	.LASF35
 1351 01c3 07       		.byte	0x7
 1352 01c4 7B       		.byte	0x7b
 1353 01c5 19       		.byte	0x19
 1354 01c6 EF000000 		.4byte	0xef
 1355 01ca 1E       		.byte	0x1e
 1356 01cb 07       		.uleb128 0x7
 1357 01cc CD040000 		.4byte	.LASF36
 1358 01d0 07       		.byte	0x7
 1359 01d1 88       		.byte	0x88
 1360 01d2 19       		.byte	0x19
 1361 01d3 2B010000 		.4byte	0x12b
 1362 01d7 20       		.byte	0x20
 1363 01d8 08       		.uleb128 0x8
 1364 01d9 705F7500 		.ascii	"p_u\000"
 1365 01dd 07       		.byte	0x7
 1366 01de AD       		.byte	0xad
 1367 01df 19       		.byte	0x19
 1368 01e0 CF040000 		.4byte	0x4cf
ARM GAS  /var/folders/l5/0x54b2c10074c8bt31ycjvl80000gp/T//cc9SIASL.s 			page 25


 1369 01e4 24       		.byte	0x24
 1370 01e5 07       		.uleb128 0x7
 1371 01e6 A2050000 		.4byte	.LASF37
 1372 01ea 07       		.byte	0x7
 1373 01eb B2       		.byte	0xb2
 1374 01ec 19       		.byte	0x19
 1375 01ed 81020000 		.4byte	0x281
 1376 01f1 28       		.byte	0x28
 1377 01f2 07       		.uleb128 0x7
 1378 01f3 DB040000 		.4byte	.LASF38
 1379 01f7 07       		.byte	0x7
 1380 01f8 B8       		.byte	0xb8
 1381 01f9 19       		.byte	0x19
 1382 01fa 5E020000 		.4byte	0x25e
 1383 01fe 2C       		.byte	0x2c
 1384 01ff 07       		.uleb128 0x7
 1385 0200 0D000000 		.4byte	.LASF39
 1386 0204 07       		.byte	0x7
 1387 0205 BC       		.byte	0xbc
 1388 0206 19       		.byte	0x19
 1389 0207 07010000 		.4byte	0x107
 1390 020b 34       		.byte	0x34
 1391 020c 07       		.uleb128 0x7
 1392 020d 22040000 		.4byte	.LASF40
 1393 0211 07       		.byte	0x7
 1394 0212 C2       		.byte	0xc2
 1395 0213 19       		.byte	0x19
 1396 0214 13010000 		.4byte	0x113
 1397 0218 38       		.byte	0x38
 1398 0219 07       		.uleb128 0x7
 1399 021a AC030000 		.4byte	.LASF41
 1400 021e 07       		.byte	0x7
 1401 021f C9       		.byte	0xc9
 1402 0220 1A       		.byte	0x1a
 1403 0221 1B050000 		.4byte	0x51b
 1404 0225 3C       		.byte	0x3c
 1405 0226 07       		.uleb128 0x7
 1406 0227 AC040000 		.4byte	.LASF42
 1407 022b 07       		.byte	0x7
 1408 022c CD       		.byte	0xcd
 1409 022d 19       		.byte	0x19
 1410 022e FB000000 		.4byte	0xfb
 1411 0232 40       		.byte	0x40
 1412 0233 00       		.byte	0
 1413 0234 09       		.uleb128 0x9
 1414 0235 08       		.byte	0x8
 1415 0236 06       		.byte	0x6
 1416 0237 5A       		.byte	0x5a
 1417 0238 09       		.byte	0x9
 1418 0239 58020000 		.4byte	0x258
 1419 023d 07       		.uleb128 0x7
 1420 023e E2030000 		.4byte	.LASF26
 1421 0242 06       		.byte	0x6
 1422 0243 5B       		.byte	0x5b
 1423 0244 1A       		.byte	0x1a
 1424 0245 58020000 		.4byte	0x258
 1425 0249 00       		.byte	0
ARM GAS  /var/folders/l5/0x54b2c10074c8bt31ycjvl80000gp/T//cc9SIASL.s 			page 26


 1426 024a 07       		.uleb128 0x7
 1427 024b 87030000 		.4byte	.LASF27
 1428 024f 06       		.byte	0x6
 1429 0250 5D       		.byte	0x5d
 1430 0251 1A       		.byte	0x1a
 1431 0252 58020000 		.4byte	0x258
 1432 0256 04       		.byte	0x4
 1433 0257 00       		.byte	0
 1434 0258 0A       		.uleb128 0xa
 1435 0259 04       		.byte	0x4
 1436 025a 30010000 		.4byte	0x130
 1437 025e 04       		.uleb128 0x4
 1438 025f 45030000 		.4byte	.LASF43
 1439 0263 06       		.byte	0x6
 1440 0264 5F       		.byte	0x5f
 1441 0265 03       		.byte	0x3
 1442 0266 34020000 		.4byte	0x234
 1443 026a 09       		.uleb128 0x9
 1444 026b 04       		.byte	0x4
 1445 026c 06       		.byte	0x6
 1446 026d 64       		.byte	0x64
 1447 026e 09       		.byte	0x9
 1448 026f 81020000 		.4byte	0x281
 1449 0273 07       		.uleb128 0x7
 1450 0274 E2030000 		.4byte	.LASF26
 1451 0278 06       		.byte	0x6
 1452 0279 66       		.byte	0x66
 1453 027a 16       		.byte	0x16
 1454 027b 58020000 		.4byte	0x258
 1455 027f 00       		.byte	0
 1456 0280 00       		.byte	0
 1457 0281 04       		.uleb128 0x4
 1458 0282 BB020000 		.4byte	.LASF44
 1459 0286 06       		.byte	0x6
 1460 0287 69       		.byte	0x69
 1461 0288 03       		.byte	0x3
 1462 0289 6A020000 		.4byte	0x26a
 1463 028d 04       		.uleb128 0x4
 1464 028e E6020000 		.4byte	.LASF45
 1465 0292 08       		.byte	0x8
 1466 0293 9D       		.byte	0x9d
 1467 0294 12       		.byte	0x12
 1468 0295 BF000000 		.4byte	0xbf
 1469 0299 04       		.uleb128 0x4
 1470 029a 3F010000 		.4byte	.LASF46
 1471 029e 08       		.byte	0x8
 1472 029f A2       		.byte	0xa2
 1473 02a0 0F       		.byte	0xf
 1474 02a1 A5020000 		.4byte	0x2a5
 1475 02a5 0B       		.uleb128 0xb
 1476 02a6 04       		.byte	0x4
 1477 02a7 06       		.uleb128 0x6
 1478 02a8 D4040000 		.4byte	.LASF47
 1479 02ac 24       		.byte	0x24
 1480 02ad 08       		.byte	0x8
 1481 02ae B9       		.byte	0xb9
 1482 02af 08       		.byte	0x8
ARM GAS  /var/folders/l5/0x54b2c10074c8bt31ycjvl80000gp/T//cc9SIASL.s 			page 27


 1483 02b0 23030000 		.4byte	0x323
 1484 02b4 08       		.uleb128 0x8
 1485 02b5 723400   		.ascii	"r4\000"
 1486 02b8 08       		.byte	0x8
 1487 02b9 BA       		.byte	0xba
 1488 02ba 11       		.byte	0x11
 1489 02bb 99020000 		.4byte	0x299
 1490 02bf 00       		.byte	0
 1491 02c0 08       		.uleb128 0x8
 1492 02c1 723500   		.ascii	"r5\000"
 1493 02c4 08       		.byte	0x8
 1494 02c5 BB       		.byte	0xbb
 1495 02c6 11       		.byte	0x11
 1496 02c7 99020000 		.4byte	0x299
 1497 02cb 04       		.byte	0x4
 1498 02cc 08       		.uleb128 0x8
 1499 02cd 723600   		.ascii	"r6\000"
 1500 02d0 08       		.byte	0x8
 1501 02d1 BC       		.byte	0xbc
 1502 02d2 11       		.byte	0x11
 1503 02d3 99020000 		.4byte	0x299
 1504 02d7 08       		.byte	0x8
 1505 02d8 08       		.uleb128 0x8
 1506 02d9 723700   		.ascii	"r7\000"
 1507 02dc 08       		.byte	0x8
 1508 02dd BD       		.byte	0xbd
 1509 02de 11       		.byte	0x11
 1510 02df 99020000 		.4byte	0x299
 1511 02e3 0C       		.byte	0xc
 1512 02e4 08       		.uleb128 0x8
 1513 02e5 723800   		.ascii	"r8\000"
 1514 02e8 08       		.byte	0x8
 1515 02e9 BE       		.byte	0xbe
 1516 02ea 11       		.byte	0x11
 1517 02eb 99020000 		.4byte	0x299
 1518 02ef 10       		.byte	0x10
 1519 02f0 08       		.uleb128 0x8
 1520 02f1 723900   		.ascii	"r9\000"
 1521 02f4 08       		.byte	0x8
 1522 02f5 BF       		.byte	0xbf
 1523 02f6 11       		.byte	0x11
 1524 02f7 99020000 		.4byte	0x299
 1525 02fb 14       		.byte	0x14
 1526 02fc 08       		.uleb128 0x8
 1527 02fd 72313000 		.ascii	"r10\000"
 1528 0301 08       		.byte	0x8
 1529 0302 C0       		.byte	0xc0
 1530 0303 11       		.byte	0x11
 1531 0304 99020000 		.4byte	0x299
 1532 0308 18       		.byte	0x18
 1533 0309 08       		.uleb128 0x8
 1534 030a 72313100 		.ascii	"r11\000"
 1535 030e 08       		.byte	0x8
 1536 030f C1       		.byte	0xc1
 1537 0310 11       		.byte	0x11
 1538 0311 99020000 		.4byte	0x299
 1539 0315 1C       		.byte	0x1c
ARM GAS  /var/folders/l5/0x54b2c10074c8bt31ycjvl80000gp/T//cc9SIASL.s 			page 28


 1540 0316 08       		.uleb128 0x8
 1541 0317 6C7200   		.ascii	"lr\000"
 1542 031a 08       		.byte	0x8
 1543 031b C2       		.byte	0xc2
 1544 031c 11       		.byte	0x11
 1545 031d 99020000 		.4byte	0x299
 1546 0321 20       		.byte	0x20
 1547 0322 00       		.byte	0
 1548 0323 06       		.uleb128 0x6
 1549 0324 96010000 		.4byte	.LASF48
 1550 0328 04       		.byte	0x4
 1551 0329 08       		.byte	0x8
 1552 032a CA       		.byte	0xca
 1553 032b 08       		.byte	0x8
 1554 032c 3E030000 		.4byte	0x33e
 1555 0330 08       		.uleb128 0x8
 1556 0331 72313300 		.ascii	"r13\000"
 1557 0335 08       		.byte	0x8
 1558 0336 CB       		.byte	0xcb
 1559 0337 12       		.byte	0x12
 1560 0338 3E030000 		.4byte	0x33e
 1561 033c 00       		.byte	0
 1562 033d 00       		.byte	0
 1563 033e 0A       		.uleb128 0xa
 1564 033f 04       		.byte	0x4
 1565 0340 A7020000 		.4byte	0x2a7
 1566 0344 04       		.uleb128 0x4
 1567 0345 8D010000 		.4byte	.LASF49
 1568 0349 09       		.byte	0x9
 1569 034a 4E       		.byte	0x4e
 1570 034b 10       		.byte	0x10
 1571 034c 50030000 		.4byte	0x350
 1572 0350 0A       		.uleb128 0xa
 1573 0351 04       		.byte	0x4
 1574 0352 56030000 		.4byte	0x356
 1575 0356 0C       		.uleb128 0xc
 1576 0357 61030000 		.4byte	0x361
 1577 035b 0D       		.uleb128 0xd
 1578 035c A5020000 		.4byte	0x2a5
 1579 0360 00       		.byte	0
 1580 0361 04       		.uleb128 0x4
 1581 0362 4A040000 		.4byte	.LASF50
 1582 0366 09       		.byte	0x9
 1583 0367 53       		.byte	0x53
 1584 0368 1D       		.byte	0x1d
 1585 0369 6D030000 		.4byte	0x36d
 1586 036d 06       		.uleb128 0x6
 1587 036e 4A040000 		.4byte	.LASF50
 1588 0372 14       		.byte	0x14
 1589 0373 09       		.byte	0x9
 1590 0374 5A       		.byte	0x5a
 1591 0375 08       		.byte	0x8
 1592 0376 BC030000 		.4byte	0x3bc
 1593 037a 07       		.uleb128 0x7
 1594 037b 6A010000 		.4byte	.LASF51
 1595 037f 09       		.byte	0x9
 1596 0380 5B       		.byte	0x5b
ARM GAS  /var/folders/l5/0x54b2c10074c8bt31ycjvl80000gp/T//cc9SIASL.s 			page 29


 1597 0381 1A       		.byte	0x1a
 1598 0382 BC030000 		.4byte	0x3bc
 1599 0386 00       		.byte	0
 1600 0387 07       		.uleb128 0x7
 1601 0388 48010000 		.4byte	.LASF52
 1602 038c 09       		.byte	0x9
 1603 038d 5D       		.byte	0x5d
 1604 038e 1A       		.byte	0x1a
 1605 038f BC030000 		.4byte	0x3bc
 1606 0393 04       		.byte	0x4
 1607 0394 07       		.uleb128 0x7
 1608 0395 05030000 		.4byte	.LASF53
 1609 0399 09       		.byte	0x9
 1610 039a 5F       		.byte	0x5f
 1611 039b 19       		.byte	0x19
 1612 039c 1F010000 		.4byte	0x11f
 1613 03a0 08       		.byte	0x8
 1614 03a1 07       		.uleb128 0x7
 1615 03a2 0D030000 		.4byte	.LASF54
 1616 03a6 09       		.byte	0x9
 1617 03a7 60       		.byte	0x60
 1618 03a8 19       		.byte	0x19
 1619 03a9 44030000 		.4byte	0x344
 1620 03ad 0C       		.byte	0xc
 1621 03ae 07       		.uleb128 0x7
 1622 03af E6040000 		.4byte	.LASF55
 1623 03b3 09       		.byte	0x9
 1624 03b4 62       		.byte	0x62
 1625 03b5 1A       		.byte	0x1a
 1626 03b6 A5020000 		.4byte	0x2a5
 1627 03ba 10       		.byte	0x10
 1628 03bb 00       		.byte	0
 1629 03bc 0A       		.uleb128 0xa
 1630 03bd 04       		.byte	0x4
 1631 03be 61030000 		.4byte	0x361
 1632 03c2 09       		.uleb128 0x9
 1633 03c3 10       		.byte	0x10
 1634 03c4 09       		.byte	0x9
 1635 03c5 6C       		.byte	0x6c
 1636 03c6 09       		.byte	0x9
 1637 03c7 00040000 		.4byte	0x400
 1638 03cb 07       		.uleb128 0x7
 1639 03cc 6A010000 		.4byte	.LASF51
 1640 03d0 09       		.byte	0x9
 1641 03d1 6D       		.byte	0x6d
 1642 03d2 1A       		.byte	0x1a
 1643 03d3 BC030000 		.4byte	0x3bc
 1644 03d7 00       		.byte	0
 1645 03d8 07       		.uleb128 0x7
 1646 03d9 48010000 		.4byte	.LASF52
 1647 03dd 09       		.byte	0x9
 1648 03de 6F       		.byte	0x6f
 1649 03df 1A       		.byte	0x1a
 1650 03e0 BC030000 		.4byte	0x3bc
 1651 03e4 04       		.byte	0x4
 1652 03e5 07       		.uleb128 0x7
 1653 03e6 05030000 		.4byte	.LASF53
ARM GAS  /var/folders/l5/0x54b2c10074c8bt31ycjvl80000gp/T//cc9SIASL.s 			page 30


 1654 03ea 09       		.byte	0x9
 1655 03eb 71       		.byte	0x71
 1656 03ec 19       		.byte	0x19
 1657 03ed 1F010000 		.4byte	0x11f
 1658 03f1 08       		.byte	0x8
 1659 03f2 07       		.uleb128 0x7
 1660 03f3 2F050000 		.4byte	.LASF56
 1661 03f7 09       		.byte	0x9
 1662 03f8 72       		.byte	0x72
 1663 03f9 19       		.byte	0x19
 1664 03fa 2B010000 		.4byte	0x12b
 1665 03fe 0C       		.byte	0xc
 1666 03ff 00       		.byte	0
 1667 0400 04       		.uleb128 0x4
 1668 0401 8D050000 		.4byte	.LASF57
 1669 0405 09       		.byte	0x9
 1670 0406 73       		.byte	0x73
 1671 0407 03       		.byte	0x3
 1672 0408 C2030000 		.4byte	0x3c2
 1673 040c 0E       		.uleb128 0xe
 1674 040d 24000000 		.4byte	.LASF65
 1675 0411 09       		.byte	0x9
 1676 0412 D1       		.byte	0xd1
 1677 0413 0F       		.byte	0xf
 1678 0414 00040000 		.4byte	0x400
 1679 0418 09       		.uleb128 0x9
 1680 0419 1C       		.byte	0x1c
 1681 041a 0A       		.byte	0xa
 1682 041b 57       		.byte	0x57
 1683 041c 09       		.byte	0x9
 1684 041d 70040000 		.4byte	0x470
 1685 0421 07       		.uleb128 0x7
 1686 0422 42040000 		.4byte	.LASF58
 1687 0426 0A       		.byte	0xa
 1688 0427 58       		.byte	0x58
 1689 0428 19       		.byte	0x19
 1690 0429 5E020000 		.4byte	0x25e
 1691 042d 00       		.byte	0
 1692 042e 07       		.uleb128 0x7
 1693 042f D4030000 		.4byte	.LASF59
 1694 0433 0A       		.byte	0xa
 1695 0434 59       		.byte	0x59
 1696 0435 19       		.byte	0x19
 1697 0436 FB000000 		.4byte	0xfb
 1698 043a 08       		.byte	0x8
 1699 043b 07       		.uleb128 0x7
 1700 043c 3F030000 		.4byte	.LASF60
 1701 0440 0A       		.byte	0xa
 1702 0441 5B       		.byte	0x5b
 1703 0442 19       		.byte	0x19
 1704 0443 23030000 		.4byte	0x323
 1705 0447 0C       		.byte	0xc
 1706 0448 07       		.uleb128 0x7
 1707 0449 C4010000 		.4byte	.LASF61
 1708 044d 0A       		.byte	0xa
 1709 044e 5E       		.byte	0x5e
 1710 044f 1A       		.byte	0x1a
ARM GAS  /var/folders/l5/0x54b2c10074c8bt31ycjvl80000gp/T//cc9SIASL.s 			page 31


 1711 0450 58020000 		.4byte	0x258
 1712 0454 10       		.byte	0x10
 1713 0455 07       		.uleb128 0x7
 1714 0456 6C030000 		.4byte	.LASF62
 1715 045a 0A       		.byte	0xa
 1716 045b 5F       		.byte	0x5f
 1717 045c 1A       		.byte	0x1a
 1718 045d 58020000 		.4byte	0x258
 1719 0461 14       		.byte	0x14
 1720 0462 07       		.uleb128 0x7
 1721 0463 62030000 		.4byte	.LASF63
 1722 0467 0A       		.byte	0xa
 1723 0468 62       		.byte	0x62
 1724 0469 1A       		.byte	0x1a
 1725 046a 58020000 		.4byte	0x258
 1726 046e 18       		.byte	0x18
 1727 046f 00       		.byte	0
 1728 0470 04       		.uleb128 0x4
 1729 0471 09050000 		.4byte	.LASF64
 1730 0475 0A       		.byte	0xa
 1731 0476 64       		.byte	0x64
 1732 0477 03       		.byte	0x3
 1733 0478 18040000 		.4byte	0x418
 1734 047c 0E       		.uleb128 0xe
 1735 047d 13050000 		.4byte	.LASF66
 1736 0481 0A       		.byte	0xa
 1737 0482 68       		.byte	0x68
 1738 0483 12       		.byte	0x12
 1739 0484 70040000 		.4byte	0x470
 1740 0488 06       		.uleb128 0x6
 1741 0489 E0020000 		.4byte	.LASF67
 1742 048d 10       		.byte	0x10
 1743 048e 0B       		.byte	0xb
 1744 048f 25       		.byte	0x25
 1745 0490 10       		.byte	0x10
 1746 0491 BD040000 		.4byte	0x4bd
 1747 0495 07       		.uleb128 0x7
 1748 0496 B7000000 		.4byte	.LASF68
 1749 049a 0B       		.byte	0xb
 1750 049b 26       		.byte	0x26
 1751 049c 19       		.byte	0x19
 1752 049d 5E020000 		.4byte	0x25e
 1753 04a1 00       		.byte	0
 1754 04a2 07       		.uleb128 0x7
 1755 04a3 94050000 		.4byte	.LASF69
 1756 04a7 0B       		.byte	0xb
 1757 04a8 28       		.byte	0x28
 1758 04a9 1A       		.byte	0x1a
 1759 04aa 58020000 		.4byte	0x258
 1760 04ae 08       		.byte	0x8
 1761 04af 07       		.uleb128 0x7
 1762 04b0 9B040000 		.4byte	.LASF70
 1763 04b4 0B       		.byte	0xb
 1764 04b5 2A       		.byte	0x2a
 1765 04b6 1A       		.byte	0x1a
 1766 04b7 BD040000 		.4byte	0x4bd
 1767 04bb 0C       		.byte	0xc
ARM GAS  /var/folders/l5/0x54b2c10074c8bt31ycjvl80000gp/T//cc9SIASL.s 			page 32


 1768 04bc 00       		.byte	0
 1769 04bd 0A       		.uleb128 0xa
 1770 04be 04       		.byte	0x4
 1771 04bf 88040000 		.4byte	0x488
 1772 04c3 04       		.uleb128 0x4
 1773 04c4 E0020000 		.4byte	.LASF67
 1774 04c8 0B       		.byte	0xb
 1775 04c9 2C       		.byte	0x2c
 1776 04ca 03       		.byte	0x3
 1777 04cb 88040000 		.4byte	0x488
 1778 04cf 0F       		.uleb128 0xf
 1779 04d0 04       		.byte	0x4
 1780 04d1 07       		.byte	0x7
 1781 04d2 8F       		.byte	0x8f
 1782 04d3 03       		.byte	0x3
 1783 04d4 09050000 		.4byte	0x509
 1784 04d8 10       		.uleb128 0x10
 1785 04d9 13000000 		.4byte	.LASF71
 1786 04dd 07       		.byte	0x7
 1787 04de 96       		.byte	0x96
 1788 04df 19       		.byte	0x19
 1789 04e0 07010000 		.4byte	0x107
 1790 04e4 10       		.uleb128 0x10
 1791 04e5 50000000 		.4byte	.LASF72
 1792 04e9 07       		.byte	0x7
 1793 04ea 9D       		.byte	0x9d
 1794 04eb 19       		.byte	0x19
 1795 04ec 07010000 		.4byte	0x107
 1796 04f0 10       		.uleb128 0x10
 1797 04f1 21050000 		.4byte	.LASF73
 1798 04f5 07       		.byte	0x7
 1799 04f6 A4       		.byte	0xa4
 1800 04f7 1A       		.byte	0x1a
 1801 04f8 A5020000 		.4byte	0x2a5
 1802 04fc 10       		.uleb128 0x10
 1803 04fd DB030000 		.4byte	.LASF74
 1804 0501 07       		.byte	0x7
 1805 0502 AB       		.byte	0xab
 1806 0503 19       		.byte	0x19
 1807 0504 13010000 		.4byte	0x113
 1808 0508 00       		.byte	0
 1809 0509 0A       		.uleb128 0xa
 1810 050a 04       		.byte	0x4
 1811 050b 16050000 		.4byte	0x516
 1812 050f 03       		.uleb128 0x3
 1813 0510 01       		.byte	0x1
 1814 0511 08       		.byte	0x8
 1815 0512 57040000 		.4byte	.LASF75
 1816 0516 11       		.uleb128 0x11
 1817 0517 0F050000 		.4byte	0x50f
 1818 051b 0A       		.uleb128 0xa
 1819 051c 04       		.byte	0x4
 1820 051d C3040000 		.4byte	0x4c3
 1821 0521 09       		.uleb128 0x9
 1822 0522 16       		.byte	0x16
 1823 0523 0C       		.byte	0xc
 1824 0524 25       		.byte	0x25
ARM GAS  /var/folders/l5/0x54b2c10074c8bt31ycjvl80000gp/T//cc9SIASL.s 			page 33


 1825 0525 09       		.byte	0x9
 1826 0526 15060000 		.4byte	0x615
 1827 052a 07       		.uleb128 0x7
 1828 052b BF000000 		.4byte	.LASF76
 1829 052f 0C       		.byte	0xc
 1830 0530 26       		.byte	0x26
 1831 0531 0D       		.byte	0xd
 1832 0532 15060000 		.4byte	0x615
 1833 0536 00       		.byte	0
 1834 0537 07       		.uleb128 0x7
 1835 0538 F1020000 		.4byte	.LASF77
 1836 053c 0C       		.byte	0xc
 1837 053d 27       		.byte	0x27
 1838 053e 0D       		.byte	0xd
 1839 053f 9B000000 		.4byte	0x9b
 1840 0543 04       		.byte	0x4
 1841 0544 07       		.uleb128 0x7
 1842 0545 52030000 		.4byte	.LASF78
 1843 0549 0C       		.byte	0xc
 1844 054a 28       		.byte	0x28
 1845 054b 0D       		.byte	0xd
 1846 054c 9B000000 		.4byte	0x9b
 1847 0550 05       		.byte	0x5
 1848 0551 07       		.uleb128 0x7
 1849 0552 3A050000 		.4byte	.LASF79
 1850 0556 0C       		.byte	0xc
 1851 0557 29       		.byte	0x29
 1852 0558 0D       		.byte	0xd
 1853 0559 A7000000 		.4byte	0xa7
 1854 055d 06       		.byte	0x6
 1855 055e 07       		.uleb128 0x7
 1856 055f 7C030000 		.4byte	.LASF80
 1857 0563 0C       		.byte	0xc
 1858 0564 2A       		.byte	0x2a
 1859 0565 0D       		.byte	0xd
 1860 0566 9B000000 		.4byte	0x9b
 1861 056a 08       		.byte	0x8
 1862 056b 07       		.uleb128 0x7
 1863 056c 15030000 		.4byte	.LASF81
 1864 0570 0C       		.byte	0xc
 1865 0571 2B       		.byte	0x2b
 1866 0572 0D       		.byte	0xd
 1867 0573 9B000000 		.4byte	0x9b
 1868 0577 09       		.byte	0x9
 1869 0578 07       		.uleb128 0x7
 1870 0579 42000000 		.4byte	.LASF82
 1871 057d 0C       		.byte	0xc
 1872 057e 2C       		.byte	0x2c
 1873 057f 0D       		.byte	0xd
 1874 0580 9B000000 		.4byte	0x9b
 1875 0584 0A       		.byte	0xa
 1876 0585 07       		.uleb128 0x7
 1877 0586 36040000 		.4byte	.LASF83
 1878 058a 0C       		.byte	0xc
 1879 058b 2D       		.byte	0x2d
 1880 058c 0D       		.byte	0xd
 1881 058d 9B000000 		.4byte	0x9b
ARM GAS  /var/folders/l5/0x54b2c10074c8bt31ycjvl80000gp/T//cc9SIASL.s 			page 34


 1882 0591 0B       		.byte	0xb
 1883 0592 07       		.uleb128 0x7
 1884 0593 F7040000 		.4byte	.LASF84
 1885 0597 0C       		.byte	0xc
 1886 0598 2E       		.byte	0x2e
 1887 0599 0D       		.byte	0xd
 1888 059a 9B000000 		.4byte	0x9b
 1889 059e 0C       		.byte	0xc
 1890 059f 07       		.uleb128 0x7
 1891 05a0 07040000 		.4byte	.LASF85
 1892 05a4 0C       		.byte	0xc
 1893 05a5 2F       		.byte	0x2f
 1894 05a6 0D       		.byte	0xd
 1895 05a7 9B000000 		.4byte	0x9b
 1896 05ab 0D       		.byte	0xd
 1897 05ac 07       		.uleb128 0x7
 1898 05ad 00000000 		.4byte	.LASF86
 1899 05b1 0C       		.byte	0xc
 1900 05b2 30       		.byte	0x30
 1901 05b3 0D       		.byte	0xd
 1902 05b4 9B000000 		.4byte	0x9b
 1903 05b8 0E       		.byte	0xe
 1904 05b9 07       		.uleb128 0x7
 1905 05ba 21030000 		.4byte	.LASF87
 1906 05be 0C       		.byte	0xc
 1907 05bf 31       		.byte	0x31
 1908 05c0 0D       		.byte	0xd
 1909 05c1 9B000000 		.4byte	0x9b
 1910 05c5 0F       		.byte	0xf
 1911 05c6 07       		.uleb128 0x7
 1912 05c7 93000000 		.4byte	.LASF88
 1913 05cb 0C       		.byte	0xc
 1914 05cc 32       		.byte	0x32
 1915 05cd 0D       		.byte	0xd
 1916 05ce 9B000000 		.4byte	0x9b
 1917 05d2 10       		.byte	0x10
 1918 05d3 07       		.uleb128 0x7
 1919 05d4 6C000000 		.4byte	.LASF89
 1920 05d8 0C       		.byte	0xc
 1921 05d9 34       		.byte	0x34
 1922 05da 0D       		.byte	0xd
 1923 05db 9B000000 		.4byte	0x9b
 1924 05df 11       		.byte	0x11
 1925 05e0 07       		.uleb128 0x7
 1926 05e1 A3000000 		.4byte	.LASF90
 1927 05e5 0C       		.byte	0xc
 1928 05e6 35       		.byte	0x35
 1929 05e7 0D       		.byte	0xd
 1930 05e8 9B000000 		.4byte	0x9b
 1931 05ec 12       		.byte	0x12
 1932 05ed 07       		.uleb128 0x7
 1933 05ee F9020000 		.4byte	.LASF91
 1934 05f2 0C       		.byte	0xc
 1935 05f3 36       		.byte	0x36
 1936 05f4 0D       		.byte	0xd
 1937 05f5 9B000000 		.4byte	0x9b
 1938 05f9 13       		.byte	0x13
ARM GAS  /var/folders/l5/0x54b2c10074c8bt31ycjvl80000gp/T//cc9SIASL.s 			page 35


 1939 05fa 07       		.uleb128 0x7
 1940 05fb E9030000 		.4byte	.LASF92
 1941 05ff 0C       		.byte	0xc
 1942 0600 37       		.byte	0x37
 1943 0601 0D       		.byte	0xd
 1944 0602 9B000000 		.4byte	0x9b
 1945 0606 14       		.byte	0x14
 1946 0607 07       		.uleb128 0x7
 1947 0608 C8030000 		.4byte	.LASF93
 1948 060c 0C       		.byte	0xc
 1949 060d 39       		.byte	0x39
 1950 060e 0D       		.byte	0xd
 1951 060f 9B000000 		.4byte	0x9b
 1952 0613 15       		.byte	0x15
 1953 0614 00       		.byte	0
 1954 0615 12       		.uleb128 0x12
 1955 0616 0F050000 		.4byte	0x50f
 1956 061a 25060000 		.4byte	0x625
 1957 061e 13       		.uleb128 0x13
 1958 061f 2C000000 		.4byte	0x2c
 1959 0623 03       		.byte	0x3
 1960 0624 00       		.byte	0
 1961 0625 04       		.uleb128 0x4
 1962 0626 F3000000 		.4byte	.LASF94
 1963 062a 0C       		.byte	0xc
 1964 062b 3A       		.byte	0x3a
 1965 062c 03       		.byte	0x3
 1966 062d 21050000 		.4byte	0x521
 1967 0631 11       		.uleb128 0x11
 1968 0632 25060000 		.4byte	0x625
 1969 0636 0E       		.uleb128 0xe
 1970 0637 84010000 		.4byte	.LASF95
 1971 063b 0C       		.byte	0xc
 1972 063c 77       		.byte	0x77
 1973 063d 1D       		.byte	0x1d
 1974 063e 31060000 		.4byte	0x631
 1975 0642 12       		.uleb128 0x12
 1976 0643 8D020000 		.4byte	0x28d
 1977 0647 52060000 		.4byte	0x652
 1978 064b 13       		.uleb128 0x13
 1979 064c 2C000000 		.4byte	0x2c
 1980 0650 26       		.byte	0x26
 1981 0651 00       		.byte	0
 1982 0652 0E       		.uleb128 0xe
 1983 0653 13010000 		.4byte	.LASF96
 1984 0657 0D       		.byte	0xd
 1985 0658 82       		.byte	0x82
 1986 0659 08       		.byte	0x8
 1987 065a 42060000 		.4byte	0x642
 1988 065e 14       		.uleb128 0x14
 1989 065f 9C020000 		.4byte	.LASF101
 1990 0663 01       		.byte	0x1
 1991 0664 6F01     		.2byte	0x16f
 1992 0666 06       		.byte	0x6
 1993 0667 00000000 		.4byte	.LFB14
 1994 066b 84000000 		.4byte	.LFE14-.LFB14
 1995 066f 01       		.uleb128 0x1
ARM GAS  /var/folders/l5/0x54b2c10074c8bt31ycjvl80000gp/T//cc9SIASL.s 			page 36


 1996 0670 9C       		.byte	0x9c
 1997 0671 0D070000 		.4byte	0x70d
 1998 0675 15       		.uleb128 0x15
 1999 0676 63747000 		.ascii	"ctp\000"
 2000 067a 01       		.byte	0x1
 2001 067b 7001     		.2byte	0x170
 2002 067d 0B       		.byte	0xb
 2003 067e 58020000 		.4byte	0x258
 2004 0682 02000000 		.4byte	.LLST36
 2005 0686 00000000 		.4byte	.LVUS36
 2006 068a 16       		.uleb128 0x16
 2007 068b 60010000 		.4byte	.Ldebug_ranges0+0x160
 2008 068f 03070000 		.4byte	0x703
 2009 0693 15       		.uleb128 0x15
 2010 0694 756D7000 		.ascii	"ump\000"
 2011 0698 01       		.byte	0x1
 2012 0699 7501     		.2byte	0x175
 2013 069b 0E       		.byte	0xe
 2014 069c 1B050000 		.4byte	0x51b
 2015 06a0 17000000 		.4byte	.LLST37
 2016 06a4 15000000 		.4byte	.LVUS37
 2017 06a8 17       		.uleb128 0x17
 2018 06a9 78010000 		.4byte	.Ldebug_ranges0+0x178
 2019 06ad 15       		.uleb128 0x15
 2020 06ae 747000   		.ascii	"tp\000"
 2021 06b1 01       		.byte	0x1
 2022 06b2 7801     		.2byte	0x178
 2023 06b4 11       		.byte	0x11
 2024 06b5 58020000 		.4byte	0x258
 2025 06b9 2D000000 		.4byte	.LLST38
 2026 06bd 2B000000 		.4byte	.LVUS38
 2027 06c1 18       		.uleb128 0x18
 2028 06c2 690B0000 		.4byte	0xb69
 2029 06c6 20000000 		.4byte	.LBI90
 2030 06ca 05       		.byte	.LVU355
 2031 06cb 98010000 		.4byte	.Ldebug_ranges0+0x198
 2032 06cf 01       		.byte	0x1
 2033 06d0 7801     		.2byte	0x178
 2034 06d2 16       		.byte	0x16
 2035 06d3 F8060000 		.4byte	0x6f8
 2036 06d7 19       		.uleb128 0x19
 2037 06d8 7A0B0000 		.4byte	0xb7a
 2038 06dc 42000000 		.4byte	.LLST39
 2039 06e0 40000000 		.4byte	.LVUS39
 2040 06e4 17       		.uleb128 0x17
 2041 06e5 98010000 		.4byte	.Ldebug_ranges0+0x198
 2042 06e9 1A       		.uleb128 0x1a
 2043 06ea 860B0000 		.4byte	0xb86
 2044 06ee 57000000 		.4byte	.LLST40
 2045 06f2 55000000 		.4byte	.LVUS40
 2046 06f6 00       		.byte	0
 2047 06f7 00       		.byte	0
 2048 06f8 1B       		.uleb128 0x1b
 2049 06f9 60000000 		.4byte	.LVL71
 2050 06fd 080C0000 		.4byte	0xc08
 2051 0701 00       		.byte	0
 2052 0702 00       		.byte	0
ARM GAS  /var/folders/l5/0x54b2c10074c8bt31ycjvl80000gp/T//cc9SIASL.s 			page 37


 2053 0703 1B       		.uleb128 0x1b
 2054 0704 78000000 		.4byte	.LVL72
 2055 0708 140C0000 		.4byte	0xc14
 2056 070c 00       		.byte	0
 2057 070d 1C       		.uleb128 0x1c
 2058 070e 50010000 		.4byte	.LASF98
 2059 0712 01       		.byte	0x1
 2060 0713 3601     		.2byte	0x136
 2061 0715 08       		.byte	0x8
 2062 0716 1B050000 		.4byte	0x51b
 2063 071a 00000000 		.4byte	.LFB13
 2064 071e 98000000 		.4byte	.LFE13-.LFB13
 2065 0722 01       		.uleb128 0x1
 2066 0723 9C       		.byte	0x9c
 2067 0724 DA070000 		.4byte	0x7da
 2068 0728 15       		.uleb128 0x15
 2069 0729 63747000 		.ascii	"ctp\000"
 2070 072d 01       		.byte	0x1
 2071 072e 3701     		.2byte	0x137
 2072 0730 0B       		.byte	0xb
 2073 0731 58020000 		.4byte	0x258
 2074 0735 6E000000 		.4byte	.LLST29
 2075 0739 6A000000 		.4byte	.LVUS29
 2076 073d 15       		.uleb128 0x15
 2077 073e 756D7000 		.ascii	"ump\000"
 2078 0742 01       		.byte	0x1
 2079 0743 3801     		.2byte	0x138
 2080 0745 0A       		.byte	0xa
 2081 0746 1B050000 		.4byte	0x51b
 2082 074a 8E000000 		.4byte	.LLST30
 2083 074e 8C000000 		.4byte	.LVUS30
 2084 0752 15       		.uleb128 0x15
 2085 0753 6D7000   		.ascii	"mp\000"
 2086 0756 01       		.byte	0x1
 2087 0757 3801     		.2byte	0x138
 2088 0759 10       		.byte	0x10
 2089 075a 1B050000 		.4byte	0x51b
 2090 075e A3000000 		.4byte	.LLST31
 2091 0762 A1000000 		.4byte	.LVUS31
 2092 0766 1D       		.uleb128 0x1d
 2093 0767 24000000 		.4byte	.LBB81
 2094 076b 58000000 		.4byte	.LBE81-.LBB81
 2095 076f 15       		.uleb128 0x15
 2096 0770 747000   		.ascii	"tp\000"
 2097 0773 01       		.byte	0x1
 2098 0774 4801     		.2byte	0x148
 2099 0776 0D       		.byte	0xd
 2100 0777 58020000 		.4byte	0x258
 2101 077b B8000000 		.4byte	.LLST32
 2102 077f B6000000 		.4byte	.LVUS32
 2103 0783 1E       		.uleb128 0x1e
 2104 0784 AB020000 		.4byte	.LASF97
 2105 0788 01       		.byte	0x1
 2106 0789 4C01     		.2byte	0x14c
 2107 078b 0D       		.byte	0xd
 2108 078c FB000000 		.4byte	0xfb
 2109 0790 CD000000 		.4byte	.LLST33
ARM GAS  /var/folders/l5/0x54b2c10074c8bt31ycjvl80000gp/T//cc9SIASL.s 			page 38


 2110 0794 CB000000 		.4byte	.LVUS33
 2111 0798 18       		.uleb128 0x18
 2112 0799 690B0000 		.4byte	0xb69
 2113 079d 60000000 		.4byte	.LBI82
 2114 07a1 01       		.byte	.LVU315
 2115 07a2 40010000 		.4byte	.Ldebug_ranges0+0x140
 2116 07a6 01       		.byte	0x1
 2117 07a7 5901     		.2byte	0x159
 2118 07a9 0A       		.byte	0xa
 2119 07aa CF070000 		.4byte	0x7cf
 2120 07ae 19       		.uleb128 0x19
 2121 07af 7A0B0000 		.4byte	0xb7a
 2122 07b3 E2000000 		.4byte	.LLST34
 2123 07b7 E0000000 		.4byte	.LVUS34
 2124 07bb 17       		.uleb128 0x17
 2125 07bc 40010000 		.4byte	.Ldebug_ranges0+0x140
 2126 07c0 1A       		.uleb128 0x1a
 2127 07c1 860B0000 		.4byte	0xb86
 2128 07c5 F7000000 		.4byte	.LLST35
 2129 07c9 F5000000 		.4byte	.LVUS35
 2130 07cd 00       		.byte	0
 2131 07ce 00       		.byte	0
 2132 07cf 1B       		.uleb128 0x1b
 2133 07d0 7C000000 		.4byte	.LVL62
 2134 07d4 080C0000 		.4byte	0xc08
 2135 07d8 00       		.byte	0
 2136 07d9 00       		.byte	0
 2137 07da 1F       		.uleb128 0x1f
 2138 07db 59000000 		.4byte	.LASF99
 2139 07df 01       		.byte	0x1
 2140 07e0 FA       		.byte	0xfa
 2141 07e1 08       		.byte	0x8
 2142 07e2 1B050000 		.4byte	0x51b
 2143 07e6 00000000 		.4byte	.LFB12
 2144 07ea A0000000 		.4byte	.LFE12-.LFB12
 2145 07ee 01       		.uleb128 0x1
 2146 07ef 9C       		.byte	0x9c
 2147 07f0 A9080000 		.4byte	0x8a9
 2148 07f4 20       		.uleb128 0x20
 2149 07f5 63747000 		.ascii	"ctp\000"
 2150 07f9 01       		.byte	0x1
 2151 07fa FB       		.byte	0xfb
 2152 07fb 0B       		.byte	0xb
 2153 07fc 58020000 		.4byte	0x258
 2154 0800 0E010000 		.4byte	.LLST22
 2155 0804 0A010000 		.4byte	.LVUS22
 2156 0808 20       		.uleb128 0x20
 2157 0809 756D7000 		.ascii	"ump\000"
 2158 080d 01       		.byte	0x1
 2159 080e FC       		.byte	0xfc
 2160 080f 0A       		.byte	0xa
 2161 0810 1B050000 		.4byte	0x51b
 2162 0814 2E010000 		.4byte	.LLST23
 2163 0818 2C010000 		.4byte	.LVUS23
 2164 081c 20       		.uleb128 0x20
 2165 081d 6D7000   		.ascii	"mp\000"
 2166 0820 01       		.byte	0x1
ARM GAS  /var/folders/l5/0x54b2c10074c8bt31ycjvl80000gp/T//cc9SIASL.s 			page 39


 2167 0821 FC       		.byte	0xfc
 2168 0822 10       		.byte	0x10
 2169 0823 1B050000 		.4byte	0x51b
 2170 0827 43010000 		.4byte	.LLST24
 2171 082b 41010000 		.4byte	.LVUS24
 2172 082f 1D       		.uleb128 0x1d
 2173 0830 28000000 		.4byte	.LBB74
 2174 0834 5C000000 		.4byte	.LBE74-.LBB74
 2175 0838 15       		.uleb128 0x15
 2176 0839 747000   		.ascii	"tp\000"
 2177 083c 01       		.byte	0x1
 2178 083d 0B01     		.2byte	0x10b
 2179 083f 0D       		.byte	0xd
 2180 0840 58020000 		.4byte	0x258
 2181 0844 58010000 		.4byte	.LLST25
 2182 0848 56010000 		.4byte	.LVUS25
 2183 084c 1E       		.uleb128 0x1e
 2184 084d AB020000 		.4byte	.LASF97
 2185 0851 01       		.byte	0x1
 2186 0852 0F01     		.2byte	0x10f
 2187 0854 0D       		.byte	0xd
 2188 0855 FB000000 		.4byte	0xfb
 2189 0859 6D010000 		.4byte	.LLST26
 2190 085d 6B010000 		.4byte	.LVUS26
 2191 0861 18       		.uleb128 0x18
 2192 0862 690B0000 		.4byte	0xb69
 2193 0866 64000000 		.4byte	.LBI75
 2194 086a 01       		.byte	.LVU251
 2195 086b 20010000 		.4byte	.Ldebug_ranges0+0x120
 2196 086f 01       		.byte	0x1
 2197 0870 1E01     		.2byte	0x11e
 2198 0872 0A       		.byte	0xa
 2199 0873 98080000 		.4byte	0x898
 2200 0877 19       		.uleb128 0x19
 2201 0878 7A0B0000 		.4byte	0xb7a
 2202 087c 82010000 		.4byte	.LLST27
 2203 0880 80010000 		.4byte	.LVUS27
 2204 0884 17       		.uleb128 0x17
 2205 0885 20010000 		.4byte	.Ldebug_ranges0+0x120
 2206 0889 1A       		.uleb128 0x1a
 2207 088a 860B0000 		.4byte	0xb86
 2208 088e 97010000 		.4byte	.LLST28
 2209 0892 95010000 		.4byte	.LVUS28
 2210 0896 00       		.byte	0
 2211 0897 00       		.byte	0
 2212 0898 21       		.uleb128 0x21
 2213 0899 84000000 		.4byte	.LVL51
 2214 089d 200C0000 		.4byte	0xc20
 2215 08a1 22       		.uleb128 0x22
 2216 08a2 01       		.uleb128 0x1
 2217 08a3 51       		.byte	0x51
 2218 08a4 01       		.uleb128 0x1
 2219 08a5 30       		.byte	0x30
 2220 08a6 00       		.byte	0
 2221 08a7 00       		.byte	0
 2222 08a8 00       		.byte	0
 2223 08a9 23       		.uleb128 0x23
ARM GAS  /var/folders/l5/0x54b2c10074c8bt31ycjvl80000gp/T//cc9SIASL.s 			page 40


 2224 08aa FD000000 		.4byte	.LASF114
 2225 08ae 01       		.byte	0x1
 2226 08af E3       		.byte	0xe3
 2227 08b0 08       		.byte	0x8
 2228 08b1 CB000000 		.4byte	0xcb
 2229 08b5 01       		.byte	0x1
 2230 08b6 C6080000 		.4byte	0x8c6
 2231 08ba 24       		.uleb128 0x24
 2232 08bb 6D7000   		.ascii	"mp\000"
 2233 08be 01       		.byte	0x1
 2234 08bf E3       		.byte	0xe3
 2235 08c0 1D       		.byte	0x1d
 2236 08c1 1B050000 		.4byte	0x51b
 2237 08c5 00       		.byte	0
 2238 08c6 1F       		.uleb128 0x1f
 2239 08c7 D3020000 		.4byte	.LASF100
 2240 08cb 01       		.byte	0x1
 2241 08cc C7       		.byte	0xc7
 2242 08cd 08       		.byte	0x8
 2243 08ce CB000000 		.4byte	0xcb
 2244 08d2 00000000 		.4byte	.LFB10
 2245 08d6 3C000000 		.4byte	.LFE10-.LFB10
 2246 08da 01       		.uleb128 0x1
 2247 08db 9C       		.byte	0x9c
 2248 08dc 48090000 		.4byte	0x948
 2249 08e0 25       		.uleb128 0x25
 2250 08e1 6D7000   		.ascii	"mp\000"
 2251 08e4 01       		.byte	0x1
 2252 08e5 C7       		.byte	0xc7
 2253 08e6 1C       		.byte	0x1c
 2254 08e7 1B050000 		.4byte	0x51b
 2255 08eb AE010000 		.4byte	.LLST16
 2256 08ef AA010000 		.4byte	.LVUS16
 2257 08f3 20       		.uleb128 0x20
 2258 08f4 6200     		.ascii	"b\000"
 2259 08f6 01       		.byte	0x1
 2260 08f7 C8       		.byte	0xc8
 2261 08f8 0A       		.byte	0xa
 2262 08f9 CB000000 		.4byte	0xcb
 2263 08fd CE010000 		.4byte	.LLST17
 2264 0901 CC010000 		.4byte	.LVUS17
 2265 0905 26       		.uleb128 0x26
 2266 0906 A9080000 		.4byte	0x8a9
 2267 090a 08000000 		.4byte	.LBI62
 2268 090e 03       		.byte	.LVU161
 2269 090f 08000000 		.4byte	.LBB62
 2270 0913 28000000 		.4byte	.LBE62-.LBB62
 2271 0917 01       		.byte	0x1
 2272 0918 CC       		.byte	0xcc
 2273 0919 07       		.byte	0x7
 2274 091a 19       		.uleb128 0x19
 2275 091b BA080000 		.4byte	0x8ba
 2276 091f E5010000 		.4byte	.LLST18
 2277 0923 E1010000 		.4byte	.LVUS18
 2278 0927 27       		.uleb128 0x27
 2279 0928 A9080000 		.4byte	0x8a9
 2280 092c 10000000 		.4byte	.LBI64
ARM GAS  /var/folders/l5/0x54b2c10074c8bt31ycjvl80000gp/T//cc9SIASL.s 			page 41


 2281 0930 00       		.byte	.LVU168
 2282 0931 F0000000 		.4byte	.Ldebug_ranges0+0xf0
 2283 0935 01       		.byte	0x1
 2284 0936 E3       		.byte	0xe3
 2285 0937 08       		.byte	0x8
 2286 0938 19       		.uleb128 0x19
 2287 0939 BA080000 		.4byte	0x8ba
 2288 093d 07020000 		.4byte	.LLST19
 2289 0941 03020000 		.4byte	.LVUS19
 2290 0945 00       		.byte	0
 2291 0946 00       		.byte	0
 2292 0947 00       		.byte	0
 2293 0948 28       		.uleb128 0x28
 2294 0949 DF000000 		.4byte	.LASF102
 2295 094d 01       		.byte	0x1
 2296 094e 72       		.byte	0x72
 2297 094f 06       		.byte	0x6
 2298 0950 00000000 		.4byte	.LFB9
 2299 0954 80010000 		.4byte	.LFE9-.LFB9
 2300 0958 01       		.uleb128 0x1
 2301 0959 9C       		.byte	0x9c
 2302 095a ED0A0000 		.4byte	0xaed
 2303 095e 25       		.uleb128 0x25
 2304 095f 6D7000   		.ascii	"mp\000"
 2305 0962 01       		.byte	0x1
 2306 0963 72       		.byte	0x72
 2307 0964 18       		.byte	0x18
 2308 0965 1B050000 		.4byte	0x51b
 2309 0969 31020000 		.4byte	.LLST0
 2310 096d 25020000 		.4byte	.LVUS0
 2311 0971 20       		.uleb128 0x20
 2312 0972 63747000 		.ascii	"ctp\000"
 2313 0976 01       		.byte	0x1
 2314 0977 73       		.byte	0x73
 2315 0978 0B       		.byte	0xb
 2316 0979 58020000 		.4byte	0x258
 2317 097d 88020000 		.4byte	.LLST1
 2318 0981 82020000 		.4byte	.LVUS1
 2319 0985 17       		.uleb128 0x17
 2320 0986 00000000 		.4byte	.Ldebug_ranges0+0
 2321 098a 20       		.uleb128 0x20
 2322 098b 747000   		.ascii	"tp\000"
 2323 098e 01       		.byte	0x1
 2324 098f 7D       		.byte	0x7d
 2325 0990 0D       		.byte	0xd
 2326 0991 58020000 		.4byte	0x258
 2327 0995 B8020000 		.4byte	.LLST2
 2328 0999 B2020000 		.4byte	.LVUS2
 2329 099d 29       		.uleb128 0x29
 2330 099e 980B0000 		.4byte	0xb98
 2331 09a2 4C000000 		.4byte	.LBI28
 2332 09a6 01       		.byte	.LVU32
 2333 09a7 20000000 		.4byte	.Ldebug_ranges0+0x20
 2334 09ab 01       		.byte	0x1
 2335 09ac A6       		.byte	0xa6
 2336 09ad 05       		.byte	0x5
 2337 09ae E0090000 		.4byte	0x9e0
ARM GAS  /var/folders/l5/0x54b2c10074c8bt31ycjvl80000gp/T//cc9SIASL.s 			page 42


 2338 09b2 19       		.uleb128 0x19
 2339 09b3 B00B0000 		.4byte	0xbb0
 2340 09b7 E3020000 		.4byte	.LLST3
 2341 09bb E1020000 		.4byte	.LVUS3
 2342 09bf 19       		.uleb128 0x19
 2343 09c0 A50B0000 		.4byte	0xba5
 2344 09c4 F8020000 		.4byte	.LLST4
 2345 09c8 F6020000 		.4byte	.LVUS4
 2346 09cc 17       		.uleb128 0x17
 2347 09cd 20000000 		.4byte	.Ldebug_ranges0+0x20
 2348 09d1 1A       		.uleb128 0x1a
 2349 09d2 BC0B0000 		.4byte	0xbbc
 2350 09d6 11030000 		.4byte	.LLST5
 2351 09da 0B030000 		.4byte	.LVUS5
 2352 09de 00       		.byte	0
 2353 09df 00       		.byte	0
 2354 09e0 29       		.uleb128 0x29
 2355 09e1 4C0B0000 		.4byte	0xb4c
 2356 09e5 AC000000 		.4byte	.LBI32
 2357 09e9 01       		.byte	.LVU67
 2358 09ea 38000000 		.4byte	.Ldebug_ranges0+0x38
 2359 09ee 01       		.byte	0x1
 2360 09ef A0       		.byte	0xa0
 2361 09f0 09       		.byte	0x9
 2362 09f1 030A0000 		.4byte	0xa03
 2363 09f5 19       		.uleb128 0x19
 2364 09f6 5D0B0000 		.4byte	0xb5d
 2365 09fa 3D030000 		.4byte	.LLST6
 2366 09fe 3B030000 		.4byte	.LVUS6
 2367 0a02 00       		.byte	0
 2368 0a03 29       		.uleb128 0x29
 2369 0a04 4C0B0000 		.4byte	0xb4c
 2370 0a08 C8000000 		.4byte	.LBI36
 2371 0a0c 01       		.byte	.LVU80
 2372 0a0d 50000000 		.4byte	.Ldebug_ranges0+0x50
 2373 0a11 01       		.byte	0x1
 2374 0a12 97       		.byte	0x97
 2375 0a13 09       		.byte	0x9
 2376 0a14 260A0000 		.4byte	0xa26
 2377 0a18 19       		.uleb128 0x19
 2378 0a19 5D0B0000 		.4byte	0xb5d
 2379 0a1d 52030000 		.4byte	.LLST7
 2380 0a21 50030000 		.4byte	.LVUS7
 2381 0a25 00       		.byte	0
 2382 0a26 29       		.uleb128 0x29
 2383 0a27 980B0000 		.4byte	0xb98
 2384 0a2b E0000000 		.4byte	.LBI41
 2385 0a2f 02       		.byte	.LVU91
 2386 0a30 70000000 		.4byte	.Ldebug_ranges0+0x70
 2387 0a34 01       		.byte	0x1
 2388 0a35 97       		.byte	0x97
 2389 0a36 09       		.byte	0x9
 2390 0a37 690A0000 		.4byte	0xa69
 2391 0a3b 19       		.uleb128 0x19
 2392 0a3c B00B0000 		.4byte	0xbb0
 2393 0a40 69030000 		.4byte	.LLST8
 2394 0a44 65030000 		.4byte	.LVUS8
ARM GAS  /var/folders/l5/0x54b2c10074c8bt31ycjvl80000gp/T//cc9SIASL.s 			page 43


 2395 0a48 19       		.uleb128 0x19
 2396 0a49 A50B0000 		.4byte	0xba5
 2397 0a4d 89030000 		.4byte	.LLST9
 2398 0a51 87030000 		.4byte	.LVUS9
 2399 0a55 17       		.uleb128 0x17
 2400 0a56 88000000 		.4byte	.Ldebug_ranges0+0x88
 2401 0a5a 1A       		.uleb128 0x1a
 2402 0a5b BC0B0000 		.4byte	0xbbc
 2403 0a5f A0030000 		.4byte	.LLST10
 2404 0a63 9C030000 		.4byte	.LVUS10
 2405 0a67 00       		.byte	0
 2406 0a68 00       		.byte	0
 2407 0a69 29       		.uleb128 0x29
 2408 0a6a 4C0B0000 		.4byte	0xb4c
 2409 0a6e 18010000 		.4byte	.LBI46
 2410 0a72 02       		.byte	.LVU109
 2411 0a73 A0000000 		.4byte	.Ldebug_ranges0+0xa0
 2412 0a77 01       		.byte	0x1
 2413 0a78 87       		.byte	0x87
 2414 0a79 09       		.byte	0x9
 2415 0a7a 8C0A0000 		.4byte	0xa8c
 2416 0a7e 19       		.uleb128 0x19
 2417 0a7f 5D0B0000 		.4byte	0xb5d
 2418 0a83 C1030000 		.4byte	.LLST11
 2419 0a87 BF030000 		.4byte	.LVUS11
 2420 0a8b 00       		.byte	0
 2421 0a8c 29       		.uleb128 0x29
 2422 0a8d 980B0000 		.4byte	0xb98
 2423 0a91 30010000 		.4byte	.LBI52
 2424 0a95 02       		.byte	.LVU120
 2425 0a96 C0000000 		.4byte	.Ldebug_ranges0+0xc0
 2426 0a9a 01       		.byte	0x1
 2427 0a9b 87       		.byte	0x87
 2428 0a9c 09       		.byte	0x9
 2429 0a9d CF0A0000 		.4byte	0xacf
 2430 0aa1 19       		.uleb128 0x19
 2431 0aa2 B00B0000 		.4byte	0xbb0
 2432 0aa6 D8030000 		.4byte	.LLST12
 2433 0aaa D4030000 		.4byte	.LVUS12
 2434 0aae 19       		.uleb128 0x19
 2435 0aaf A50B0000 		.4byte	0xba5
 2436 0ab3 F8030000 		.4byte	.LLST13
 2437 0ab7 F6030000 		.4byte	.LVUS13
 2438 0abb 17       		.uleb128 0x17
 2439 0abc D8000000 		.4byte	.Ldebug_ranges0+0xd8
 2440 0ac0 1A       		.uleb128 0x1a
 2441 0ac1 BC0B0000 		.4byte	0xbbc
 2442 0ac5 0F040000 		.4byte	.LLST14
 2443 0ac9 0B040000 		.4byte	.LVUS14
 2444 0acd 00       		.byte	0
 2445 0ace 00       		.byte	0
 2446 0acf 2A       		.uleb128 0x2a
 2447 0ad0 98000000 		.4byte	.LVL11
 2448 0ad4 2C0C0000 		.4byte	0xc2c
 2449 0ad8 E20A0000 		.4byte	0xae2
 2450 0adc 22       		.uleb128 0x22
 2451 0add 01       		.uleb128 0x1
ARM GAS  /var/folders/l5/0x54b2c10074c8bt31ycjvl80000gp/T//cc9SIASL.s 			page 44


 2452 0ade 50       		.byte	0x50
 2453 0adf 01       		.uleb128 0x1
 2454 0ae0 34       		.byte	0x34
 2455 0ae1 00       		.byte	0
 2456 0ae2 1B       		.uleb128 0x1b
 2457 0ae3 C4000000 		.4byte	.LVL14
 2458 0ae7 080C0000 		.4byte	0xc08
 2459 0aeb 00       		.byte	0
 2460 0aec 00       		.byte	0
 2461 0aed 28       		.uleb128 0x28
 2462 0aee 2D030000 		.4byte	.LASF103
 2463 0af2 01       		.byte	0x1
 2464 0af3 60       		.byte	0x60
 2465 0af4 06       		.byte	0x6
 2466 0af5 00000000 		.4byte	.LFB8
 2467 0af9 14000000 		.4byte	.LFE8-.LFB8
 2468 0afd 01       		.uleb128 0x1
 2469 0afe 9C       		.byte	0x9c
 2470 0aff 280B0000 		.4byte	0xb28
 2471 0b03 25       		.uleb128 0x25
 2472 0b04 6D7000   		.ascii	"mp\000"
 2473 0b07 01       		.byte	0x1
 2474 0b08 60       		.byte	0x60
 2475 0b09 17       		.byte	0x17
 2476 0b0a 1B050000 		.4byte	0x51b
 2477 0b0e 32040000 		.4byte	.LLST15
 2478 0b12 2E040000 		.4byte	.LVUS15
 2479 0b16 21       		.uleb128 0x21
 2480 0b17 0C000000 		.4byte	.LVL31
 2481 0b1b 48090000 		.4byte	0x948
 2482 0b1f 22       		.uleb128 0x22
 2483 0b20 01       		.uleb128 0x1
 2484 0b21 50       		.byte	0x50
 2485 0b22 03       		.uleb128 0x3
 2486 0b23 F3       		.byte	0xf3
 2487 0b24 01       		.uleb128 0x1
 2488 0b25 50       		.byte	0x50
 2489 0b26 00       		.byte	0
 2490 0b27 00       		.byte	0
 2491 0b28 28       		.uleb128 0x28
 2492 0b29 ED040000 		.4byte	.LASF104
 2493 0b2d 01       		.byte	0x1
 2494 0b2e 4F       		.byte	0x4f
 2495 0b2f 06       		.byte	0x6
 2496 0b30 00000000 		.4byte	.LFB7
 2497 0b34 14000000 		.4byte	.LFE7-.LFB7
 2498 0b38 01       		.uleb128 0x1
 2499 0b39 9C       		.byte	0x9c
 2500 0b3a 4C0B0000 		.4byte	0xb4c
 2501 0b3e 2B       		.uleb128 0x2b
 2502 0b3f 6D7000   		.ascii	"mp\000"
 2503 0b42 01       		.byte	0x1
 2504 0b43 4F       		.byte	0x4f
 2505 0b44 17       		.byte	0x17
 2506 0b45 1B050000 		.4byte	0x51b
 2507 0b49 01       		.uleb128 0x1
 2508 0b4a 50       		.byte	0x50
ARM GAS  /var/folders/l5/0x54b2c10074c8bt31ycjvl80000gp/T//cc9SIASL.s 			page 45


 2509 0b4b 00       		.byte	0
 2510 0b4c 2C       		.uleb128 0x2c
 2511 0b4d 5A030000 		.4byte	.LASF105
 2512 0b51 02       		.byte	0x2
 2513 0b52 42       		.byte	0x42
 2514 0b53 17       		.byte	0x17
 2515 0b54 58020000 		.4byte	0x258
 2516 0b58 03       		.byte	0x3
 2517 0b59 690B0000 		.4byte	0xb69
 2518 0b5d 24       		.uleb128 0x24
 2519 0b5e 747000   		.ascii	"tp\000"
 2520 0b61 02       		.byte	0x2
 2521 0b62 42       		.byte	0x42
 2522 0b63 27       		.byte	0x27
 2523 0b64 58020000 		.4byte	0x258
 2524 0b68 00       		.byte	0
 2525 0b69 2C       		.uleb128 0x2c
 2526 0b6a 5C040000 		.4byte	.LASF106
 2527 0b6e 02       		.byte	0x2
 2528 0b6f 34       		.byte	0x34
 2529 0b70 17       		.byte	0x17
 2530 0b71 58020000 		.4byte	0x258
 2531 0b75 03       		.byte	0x3
 2532 0b76 920B0000 		.4byte	0xb92
 2533 0b7a 24       		.uleb128 0x24
 2534 0b7b 74717000 		.ascii	"tqp\000"
 2535 0b7f 02       		.byte	0x2
 2536 0b80 34       		.byte	0x34
 2537 0b81 31       		.byte	0x31
 2538 0b82 920B0000 		.4byte	0xb92
 2539 0b86 2D       		.uleb128 0x2d
 2540 0b87 747000   		.ascii	"tp\000"
 2541 0b8a 02       		.byte	0x2
 2542 0b8b 35       		.byte	0x35
 2543 0b8c 0B       		.byte	0xb
 2544 0b8d 58020000 		.4byte	0x258
 2545 0b91 00       		.byte	0
 2546 0b92 0A       		.uleb128 0xa
 2547 0b93 04       		.byte	0x4
 2548 0b94 5E020000 		.4byte	0x25e
 2549 0b98 2E       		.uleb128 0x2e
 2550 0b99 C1040000 		.4byte	.LASF115
 2551 0b9d 02       		.byte	0x2
 2552 0b9e 22       		.byte	0x22
 2553 0b9f 14       		.byte	0x14
 2554 0ba0 03       		.byte	0x3
 2555 0ba1 C80B0000 		.4byte	0xbc8
 2556 0ba5 24       		.uleb128 0x24
 2557 0ba6 747000   		.ascii	"tp\000"
 2558 0ba9 02       		.byte	0x2
 2559 0baa 22       		.byte	0x22
 2560 0bab 28       		.byte	0x28
 2561 0bac 58020000 		.4byte	0x258
 2562 0bb0 24       		.uleb128 0x24
 2563 0bb1 74717000 		.ascii	"tqp\000"
 2564 0bb5 02       		.byte	0x2
 2565 0bb6 22       		.byte	0x22
ARM GAS  /var/folders/l5/0x54b2c10074c8bt31ycjvl80000gp/T//cc9SIASL.s 			page 46


 2566 0bb7 3A       		.byte	0x3a
 2567 0bb8 920B0000 		.4byte	0xb92
 2568 0bbc 2D       		.uleb128 0x2d
 2569 0bbd 637000   		.ascii	"cp\000"
 2570 0bc0 02       		.byte	0x2
 2571 0bc1 24       		.byte	0x24
 2572 0bc2 0B       		.byte	0xb
 2573 0bc3 58020000 		.4byte	0x258
 2574 0bc7 00       		.byte	0
 2575 0bc8 2F       		.uleb128 0x2f
 2576 0bc9 A9080000 		.4byte	0x8a9
 2577 0bcd 00000000 		.4byte	.LFB11
 2578 0bd1 34000000 		.4byte	.LFE11-.LFB11
 2579 0bd5 01       		.uleb128 0x1
 2580 0bd6 9C       		.byte	0x9c
 2581 0bd7 080C0000 		.4byte	0xc08
 2582 0bdb 19       		.uleb128 0x19
 2583 0bdc BA080000 		.4byte	0x8ba
 2584 0be0 57040000 		.4byte	.LLST20
 2585 0be4 53040000 		.4byte	.LVUS20
 2586 0be8 27       		.uleb128 0x27
 2587 0be9 A9080000 		.4byte	0x8a9
 2588 0bed 0C000000 		.4byte	.LBI70
 2589 0bf1 00       		.byte	.LVU195
 2590 0bf2 08010000 		.4byte	.Ldebug_ranges0+0x108
 2591 0bf6 01       		.byte	0x1
 2592 0bf7 E3       		.byte	0xe3
 2593 0bf8 08       		.byte	0x8
 2594 0bf9 19       		.uleb128 0x19
 2595 0bfa BA080000 		.4byte	0x8ba
 2596 0bfe 79040000 		.4byte	.LLST21
 2597 0c02 75040000 		.4byte	.LVUS21
 2598 0c06 00       		.byte	0
 2599 0c07 00       		.byte	0
 2600 0c08 30       		.uleb128 0x30
 2601 0c09 8F040000 		.4byte	.LASF107
 2602 0c0d 8F040000 		.4byte	.LASF107
 2603 0c11 0A       		.byte	0xa
 2604 0c12 89       		.byte	0x89
 2605 0c13 0B       		.byte	0xb
 2606 0c14 30       		.uleb128 0x30
 2607 0c15 23010000 		.4byte	.LASF108
 2608 0c19 23010000 		.4byte	.LASF108
 2609 0c1d 0A       		.byte	0xa
 2610 0c1e 95       		.byte	0x95
 2611 0c1f 08       		.byte	0x8
 2612 0c20 30       		.uleb128 0x30
 2613 0c21 B1010000 		.4byte	.LASF109
 2614 0c25 B1010000 		.4byte	.LASF109
 2615 0c29 0A       		.byte	0xa
 2616 0c2a 92       		.byte	0x92
 2617 0c2b 08       		.byte	0x8
 2618 0c2c 30       		.uleb128 0x30
 2619 0c2d 14040000 		.4byte	.LASF110
 2620 0c31 14040000 		.4byte	.LASF110
 2621 0c35 0A       		.byte	0xa
 2622 0c36 8C       		.byte	0x8c
ARM GAS  /var/folders/l5/0x54b2c10074c8bt31ycjvl80000gp/T//cc9SIASL.s 			page 47


 2623 0c37 08       		.byte	0x8
 2624 0c38 00       		.byte	0
 2625              		.section	.debug_abbrev,"",%progbits
 2626              	.Ldebug_abbrev0:
 2627 0000 01       		.uleb128 0x1
 2628 0001 11       		.uleb128 0x11
 2629 0002 01       		.byte	0x1
 2630 0003 25       		.uleb128 0x25
 2631 0004 0E       		.uleb128 0xe
 2632 0005 13       		.uleb128 0x13
 2633 0006 0B       		.uleb128 0xb
 2634 0007 03       		.uleb128 0x3
 2635 0008 0E       		.uleb128 0xe
 2636 0009 1B       		.uleb128 0x1b
 2637 000a 0E       		.uleb128 0xe
 2638 000b 55       		.uleb128 0x55
 2639 000c 17       		.uleb128 0x17
 2640 000d 11       		.uleb128 0x11
 2641 000e 01       		.uleb128 0x1
 2642 000f 10       		.uleb128 0x10
 2643 0010 17       		.uleb128 0x17
 2644 0011 00       		.byte	0
 2645 0012 00       		.byte	0
 2646 0013 02       		.uleb128 0x2
 2647 0014 24       		.uleb128 0x24
 2648 0015 00       		.byte	0
 2649 0016 0B       		.uleb128 0xb
 2650 0017 0B       		.uleb128 0xb
 2651 0018 3E       		.uleb128 0x3e
 2652 0019 0B       		.uleb128 0xb
 2653 001a 03       		.uleb128 0x3
 2654 001b 08       		.uleb128 0x8
 2655 001c 00       		.byte	0
 2656 001d 00       		.byte	0
 2657 001e 03       		.uleb128 0x3
 2658 001f 24       		.uleb128 0x24
 2659 0020 00       		.byte	0
 2660 0021 0B       		.uleb128 0xb
 2661 0022 0B       		.uleb128 0xb
 2662 0023 3E       		.uleb128 0x3e
 2663 0024 0B       		.uleb128 0xb
 2664 0025 03       		.uleb128 0x3
 2665 0026 0E       		.uleb128 0xe
 2666 0027 00       		.byte	0
 2667 0028 00       		.byte	0
 2668 0029 04       		.uleb128 0x4
 2669 002a 16       		.uleb128 0x16
 2670 002b 00       		.byte	0
 2671 002c 03       		.uleb128 0x3
 2672 002d 0E       		.uleb128 0xe
 2673 002e 3A       		.uleb128 0x3a
 2674 002f 0B       		.uleb128 0xb
 2675 0030 3B       		.uleb128 0x3b
 2676 0031 0B       		.uleb128 0xb
 2677 0032 39       		.uleb128 0x39
 2678 0033 0B       		.uleb128 0xb
 2679 0034 49       		.uleb128 0x49
ARM GAS  /var/folders/l5/0x54b2c10074c8bt31ycjvl80000gp/T//cc9SIASL.s 			page 48


 2680 0035 13       		.uleb128 0x13
 2681 0036 00       		.byte	0
 2682 0037 00       		.byte	0
 2683 0038 05       		.uleb128 0x5
 2684 0039 35       		.uleb128 0x35
 2685 003a 00       		.byte	0
 2686 003b 49       		.uleb128 0x49
 2687 003c 13       		.uleb128 0x13
 2688 003d 00       		.byte	0
 2689 003e 00       		.byte	0
 2690 003f 06       		.uleb128 0x6
 2691 0040 13       		.uleb128 0x13
 2692 0041 01       		.byte	0x1
 2693 0042 03       		.uleb128 0x3
 2694 0043 0E       		.uleb128 0xe
 2695 0044 0B       		.uleb128 0xb
 2696 0045 0B       		.uleb128 0xb
 2697 0046 3A       		.uleb128 0x3a
 2698 0047 0B       		.uleb128 0xb
 2699 0048 3B       		.uleb128 0x3b
 2700 0049 0B       		.uleb128 0xb
 2701 004a 39       		.uleb128 0x39
 2702 004b 0B       		.uleb128 0xb
 2703 004c 01       		.uleb128 0x1
 2704 004d 13       		.uleb128 0x13
 2705 004e 00       		.byte	0
 2706 004f 00       		.byte	0
 2707 0050 07       		.uleb128 0x7
 2708 0051 0D       		.uleb128 0xd
 2709 0052 00       		.byte	0
 2710 0053 03       		.uleb128 0x3
 2711 0054 0E       		.uleb128 0xe
 2712 0055 3A       		.uleb128 0x3a
 2713 0056 0B       		.uleb128 0xb
 2714 0057 3B       		.uleb128 0x3b
 2715 0058 0B       		.uleb128 0xb
 2716 0059 39       		.uleb128 0x39
 2717 005a 0B       		.uleb128 0xb
 2718 005b 49       		.uleb128 0x49
 2719 005c 13       		.uleb128 0x13
 2720 005d 38       		.uleb128 0x38
 2721 005e 0B       		.uleb128 0xb
 2722 005f 00       		.byte	0
 2723 0060 00       		.byte	0
 2724 0061 08       		.uleb128 0x8
 2725 0062 0D       		.uleb128 0xd
 2726 0063 00       		.byte	0
 2727 0064 03       		.uleb128 0x3
 2728 0065 08       		.uleb128 0x8
 2729 0066 3A       		.uleb128 0x3a
 2730 0067 0B       		.uleb128 0xb
 2731 0068 3B       		.uleb128 0x3b
 2732 0069 0B       		.uleb128 0xb
 2733 006a 39       		.uleb128 0x39
 2734 006b 0B       		.uleb128 0xb
 2735 006c 49       		.uleb128 0x49
 2736 006d 13       		.uleb128 0x13
ARM GAS  /var/folders/l5/0x54b2c10074c8bt31ycjvl80000gp/T//cc9SIASL.s 			page 49


 2737 006e 38       		.uleb128 0x38
 2738 006f 0B       		.uleb128 0xb
 2739 0070 00       		.byte	0
 2740 0071 00       		.byte	0
 2741 0072 09       		.uleb128 0x9
 2742 0073 13       		.uleb128 0x13
 2743 0074 01       		.byte	0x1
 2744 0075 0B       		.uleb128 0xb
 2745 0076 0B       		.uleb128 0xb
 2746 0077 3A       		.uleb128 0x3a
 2747 0078 0B       		.uleb128 0xb
 2748 0079 3B       		.uleb128 0x3b
 2749 007a 0B       		.uleb128 0xb
 2750 007b 39       		.uleb128 0x39
 2751 007c 0B       		.uleb128 0xb
 2752 007d 01       		.uleb128 0x1
 2753 007e 13       		.uleb128 0x13
 2754 007f 00       		.byte	0
 2755 0080 00       		.byte	0
 2756 0081 0A       		.uleb128 0xa
 2757 0082 0F       		.uleb128 0xf
 2758 0083 00       		.byte	0
 2759 0084 0B       		.uleb128 0xb
 2760 0085 0B       		.uleb128 0xb
 2761 0086 49       		.uleb128 0x49
 2762 0087 13       		.uleb128 0x13
 2763 0088 00       		.byte	0
 2764 0089 00       		.byte	0
 2765 008a 0B       		.uleb128 0xb
 2766 008b 0F       		.uleb128 0xf
 2767 008c 00       		.byte	0
 2768 008d 0B       		.uleb128 0xb
 2769 008e 0B       		.uleb128 0xb
 2770 008f 00       		.byte	0
 2771 0090 00       		.byte	0
 2772 0091 0C       		.uleb128 0xc
 2773 0092 15       		.uleb128 0x15
 2774 0093 01       		.byte	0x1
 2775 0094 27       		.uleb128 0x27
 2776 0095 19       		.uleb128 0x19
 2777 0096 01       		.uleb128 0x1
 2778 0097 13       		.uleb128 0x13
 2779 0098 00       		.byte	0
 2780 0099 00       		.byte	0
 2781 009a 0D       		.uleb128 0xd
 2782 009b 05       		.uleb128 0x5
 2783 009c 00       		.byte	0
 2784 009d 49       		.uleb128 0x49
 2785 009e 13       		.uleb128 0x13
 2786 009f 00       		.byte	0
 2787 00a0 00       		.byte	0
 2788 00a1 0E       		.uleb128 0xe
 2789 00a2 34       		.uleb128 0x34
 2790 00a3 00       		.byte	0
 2791 00a4 03       		.uleb128 0x3
 2792 00a5 0E       		.uleb128 0xe
 2793 00a6 3A       		.uleb128 0x3a
ARM GAS  /var/folders/l5/0x54b2c10074c8bt31ycjvl80000gp/T//cc9SIASL.s 			page 50


 2794 00a7 0B       		.uleb128 0xb
 2795 00a8 3B       		.uleb128 0x3b
 2796 00a9 0B       		.uleb128 0xb
 2797 00aa 39       		.uleb128 0x39
 2798 00ab 0B       		.uleb128 0xb
 2799 00ac 49       		.uleb128 0x49
 2800 00ad 13       		.uleb128 0x13
 2801 00ae 3F       		.uleb128 0x3f
 2802 00af 19       		.uleb128 0x19
 2803 00b0 3C       		.uleb128 0x3c
 2804 00b1 19       		.uleb128 0x19
 2805 00b2 00       		.byte	0
 2806 00b3 00       		.byte	0
 2807 00b4 0F       		.uleb128 0xf
 2808 00b5 17       		.uleb128 0x17
 2809 00b6 01       		.byte	0x1
 2810 00b7 0B       		.uleb128 0xb
 2811 00b8 0B       		.uleb128 0xb
 2812 00b9 3A       		.uleb128 0x3a
 2813 00ba 0B       		.uleb128 0xb
 2814 00bb 3B       		.uleb128 0x3b
 2815 00bc 0B       		.uleb128 0xb
 2816 00bd 39       		.uleb128 0x39
 2817 00be 0B       		.uleb128 0xb
 2818 00bf 01       		.uleb128 0x1
 2819 00c0 13       		.uleb128 0x13
 2820 00c1 00       		.byte	0
 2821 00c2 00       		.byte	0
 2822 00c3 10       		.uleb128 0x10
 2823 00c4 0D       		.uleb128 0xd
 2824 00c5 00       		.byte	0
 2825 00c6 03       		.uleb128 0x3
 2826 00c7 0E       		.uleb128 0xe
 2827 00c8 3A       		.uleb128 0x3a
 2828 00c9 0B       		.uleb128 0xb
 2829 00ca 3B       		.uleb128 0x3b
 2830 00cb 0B       		.uleb128 0xb
 2831 00cc 39       		.uleb128 0x39
 2832 00cd 0B       		.uleb128 0xb
 2833 00ce 49       		.uleb128 0x49
 2834 00cf 13       		.uleb128 0x13
 2835 00d0 00       		.byte	0
 2836 00d1 00       		.byte	0
 2837 00d2 11       		.uleb128 0x11
 2838 00d3 26       		.uleb128 0x26
 2839 00d4 00       		.byte	0
 2840 00d5 49       		.uleb128 0x49
 2841 00d6 13       		.uleb128 0x13
 2842 00d7 00       		.byte	0
 2843 00d8 00       		.byte	0
 2844 00d9 12       		.uleb128 0x12
 2845 00da 01       		.uleb128 0x1
 2846 00db 01       		.byte	0x1
 2847 00dc 49       		.uleb128 0x49
 2848 00dd 13       		.uleb128 0x13
 2849 00de 01       		.uleb128 0x1
 2850 00df 13       		.uleb128 0x13
ARM GAS  /var/folders/l5/0x54b2c10074c8bt31ycjvl80000gp/T//cc9SIASL.s 			page 51


 2851 00e0 00       		.byte	0
 2852 00e1 00       		.byte	0
 2853 00e2 13       		.uleb128 0x13
 2854 00e3 21       		.uleb128 0x21
 2855 00e4 00       		.byte	0
 2856 00e5 49       		.uleb128 0x49
 2857 00e6 13       		.uleb128 0x13
 2858 00e7 2F       		.uleb128 0x2f
 2859 00e8 0B       		.uleb128 0xb
 2860 00e9 00       		.byte	0
 2861 00ea 00       		.byte	0
 2862 00eb 14       		.uleb128 0x14
 2863 00ec 2E       		.uleb128 0x2e
 2864 00ed 01       		.byte	0x1
 2865 00ee 3F       		.uleb128 0x3f
 2866 00ef 19       		.uleb128 0x19
 2867 00f0 03       		.uleb128 0x3
 2868 00f1 0E       		.uleb128 0xe
 2869 00f2 3A       		.uleb128 0x3a
 2870 00f3 0B       		.uleb128 0xb
 2871 00f4 3B       		.uleb128 0x3b
 2872 00f5 05       		.uleb128 0x5
 2873 00f6 39       		.uleb128 0x39
 2874 00f7 0B       		.uleb128 0xb
 2875 00f8 27       		.uleb128 0x27
 2876 00f9 19       		.uleb128 0x19
 2877 00fa 11       		.uleb128 0x11
 2878 00fb 01       		.uleb128 0x1
 2879 00fc 12       		.uleb128 0x12
 2880 00fd 06       		.uleb128 0x6
 2881 00fe 40       		.uleb128 0x40
 2882 00ff 18       		.uleb128 0x18
 2883 0100 9742     		.uleb128 0x2117
 2884 0102 19       		.uleb128 0x19
 2885 0103 01       		.uleb128 0x1
 2886 0104 13       		.uleb128 0x13
 2887 0105 00       		.byte	0
 2888 0106 00       		.byte	0
 2889 0107 15       		.uleb128 0x15
 2890 0108 34       		.uleb128 0x34
 2891 0109 00       		.byte	0
 2892 010a 03       		.uleb128 0x3
 2893 010b 08       		.uleb128 0x8
 2894 010c 3A       		.uleb128 0x3a
 2895 010d 0B       		.uleb128 0xb
 2896 010e 3B       		.uleb128 0x3b
 2897 010f 05       		.uleb128 0x5
 2898 0110 39       		.uleb128 0x39
 2899 0111 0B       		.uleb128 0xb
 2900 0112 49       		.uleb128 0x49
 2901 0113 13       		.uleb128 0x13
 2902 0114 02       		.uleb128 0x2
 2903 0115 17       		.uleb128 0x17
 2904 0116 B742     		.uleb128 0x2137
 2905 0118 17       		.uleb128 0x17
 2906 0119 00       		.byte	0
 2907 011a 00       		.byte	0
ARM GAS  /var/folders/l5/0x54b2c10074c8bt31ycjvl80000gp/T//cc9SIASL.s 			page 52


 2908 011b 16       		.uleb128 0x16
 2909 011c 0B       		.uleb128 0xb
 2910 011d 01       		.byte	0x1
 2911 011e 55       		.uleb128 0x55
 2912 011f 17       		.uleb128 0x17
 2913 0120 01       		.uleb128 0x1
 2914 0121 13       		.uleb128 0x13
 2915 0122 00       		.byte	0
 2916 0123 00       		.byte	0
 2917 0124 17       		.uleb128 0x17
 2918 0125 0B       		.uleb128 0xb
 2919 0126 01       		.byte	0x1
 2920 0127 55       		.uleb128 0x55
 2921 0128 17       		.uleb128 0x17
 2922 0129 00       		.byte	0
 2923 012a 00       		.byte	0
 2924 012b 18       		.uleb128 0x18
 2925 012c 1D       		.uleb128 0x1d
 2926 012d 01       		.byte	0x1
 2927 012e 31       		.uleb128 0x31
 2928 012f 13       		.uleb128 0x13
 2929 0130 52       		.uleb128 0x52
 2930 0131 01       		.uleb128 0x1
 2931 0132 B842     		.uleb128 0x2138
 2932 0134 0B       		.uleb128 0xb
 2933 0135 55       		.uleb128 0x55
 2934 0136 17       		.uleb128 0x17
 2935 0137 58       		.uleb128 0x58
 2936 0138 0B       		.uleb128 0xb
 2937 0139 59       		.uleb128 0x59
 2938 013a 05       		.uleb128 0x5
 2939 013b 57       		.uleb128 0x57
 2940 013c 0B       		.uleb128 0xb
 2941 013d 01       		.uleb128 0x1
 2942 013e 13       		.uleb128 0x13
 2943 013f 00       		.byte	0
 2944 0140 00       		.byte	0
 2945 0141 19       		.uleb128 0x19
 2946 0142 05       		.uleb128 0x5
 2947 0143 00       		.byte	0
 2948 0144 31       		.uleb128 0x31
 2949 0145 13       		.uleb128 0x13
 2950 0146 02       		.uleb128 0x2
 2951 0147 17       		.uleb128 0x17
 2952 0148 B742     		.uleb128 0x2137
 2953 014a 17       		.uleb128 0x17
 2954 014b 00       		.byte	0
 2955 014c 00       		.byte	0
 2956 014d 1A       		.uleb128 0x1a
 2957 014e 34       		.uleb128 0x34
 2958 014f 00       		.byte	0
 2959 0150 31       		.uleb128 0x31
 2960 0151 13       		.uleb128 0x13
 2961 0152 02       		.uleb128 0x2
 2962 0153 17       		.uleb128 0x17
 2963 0154 B742     		.uleb128 0x2137
 2964 0156 17       		.uleb128 0x17
ARM GAS  /var/folders/l5/0x54b2c10074c8bt31ycjvl80000gp/T//cc9SIASL.s 			page 53


 2965 0157 00       		.byte	0
 2966 0158 00       		.byte	0
 2967 0159 1B       		.uleb128 0x1b
 2968 015a 898201   		.uleb128 0x4109
 2969 015d 00       		.byte	0
 2970 015e 11       		.uleb128 0x11
 2971 015f 01       		.uleb128 0x1
 2972 0160 31       		.uleb128 0x31
 2973 0161 13       		.uleb128 0x13
 2974 0162 00       		.byte	0
 2975 0163 00       		.byte	0
 2976 0164 1C       		.uleb128 0x1c
 2977 0165 2E       		.uleb128 0x2e
 2978 0166 01       		.byte	0x1
 2979 0167 3F       		.uleb128 0x3f
 2980 0168 19       		.uleb128 0x19
 2981 0169 03       		.uleb128 0x3
 2982 016a 0E       		.uleb128 0xe
 2983 016b 3A       		.uleb128 0x3a
 2984 016c 0B       		.uleb128 0xb
 2985 016d 3B       		.uleb128 0x3b
 2986 016e 05       		.uleb128 0x5
 2987 016f 39       		.uleb128 0x39
 2988 0170 0B       		.uleb128 0xb
 2989 0171 27       		.uleb128 0x27
 2990 0172 19       		.uleb128 0x19
 2991 0173 49       		.uleb128 0x49
 2992 0174 13       		.uleb128 0x13
 2993 0175 11       		.uleb128 0x11
 2994 0176 01       		.uleb128 0x1
 2995 0177 12       		.uleb128 0x12
 2996 0178 06       		.uleb128 0x6
 2997 0179 40       		.uleb128 0x40
 2998 017a 18       		.uleb128 0x18
 2999 017b 9742     		.uleb128 0x2117
 3000 017d 19       		.uleb128 0x19
 3001 017e 01       		.uleb128 0x1
 3002 017f 13       		.uleb128 0x13
 3003 0180 00       		.byte	0
 3004 0181 00       		.byte	0
 3005 0182 1D       		.uleb128 0x1d
 3006 0183 0B       		.uleb128 0xb
 3007 0184 01       		.byte	0x1
 3008 0185 11       		.uleb128 0x11
 3009 0186 01       		.uleb128 0x1
 3010 0187 12       		.uleb128 0x12
 3011 0188 06       		.uleb128 0x6
 3012 0189 00       		.byte	0
 3013 018a 00       		.byte	0
 3014 018b 1E       		.uleb128 0x1e
 3015 018c 34       		.uleb128 0x34
 3016 018d 00       		.byte	0
 3017 018e 03       		.uleb128 0x3
 3018 018f 0E       		.uleb128 0xe
 3019 0190 3A       		.uleb128 0x3a
 3020 0191 0B       		.uleb128 0xb
 3021 0192 3B       		.uleb128 0x3b
ARM GAS  /var/folders/l5/0x54b2c10074c8bt31ycjvl80000gp/T//cc9SIASL.s 			page 54


 3022 0193 05       		.uleb128 0x5
 3023 0194 39       		.uleb128 0x39
 3024 0195 0B       		.uleb128 0xb
 3025 0196 49       		.uleb128 0x49
 3026 0197 13       		.uleb128 0x13
 3027 0198 02       		.uleb128 0x2
 3028 0199 17       		.uleb128 0x17
 3029 019a B742     		.uleb128 0x2137
 3030 019c 17       		.uleb128 0x17
 3031 019d 00       		.byte	0
 3032 019e 00       		.byte	0
 3033 019f 1F       		.uleb128 0x1f
 3034 01a0 2E       		.uleb128 0x2e
 3035 01a1 01       		.byte	0x1
 3036 01a2 3F       		.uleb128 0x3f
 3037 01a3 19       		.uleb128 0x19
 3038 01a4 03       		.uleb128 0x3
 3039 01a5 0E       		.uleb128 0xe
 3040 01a6 3A       		.uleb128 0x3a
 3041 01a7 0B       		.uleb128 0xb
 3042 01a8 3B       		.uleb128 0x3b
 3043 01a9 0B       		.uleb128 0xb
 3044 01aa 39       		.uleb128 0x39
 3045 01ab 0B       		.uleb128 0xb
 3046 01ac 27       		.uleb128 0x27
 3047 01ad 19       		.uleb128 0x19
 3048 01ae 49       		.uleb128 0x49
 3049 01af 13       		.uleb128 0x13
 3050 01b0 11       		.uleb128 0x11
 3051 01b1 01       		.uleb128 0x1
 3052 01b2 12       		.uleb128 0x12
 3053 01b3 06       		.uleb128 0x6
 3054 01b4 40       		.uleb128 0x40
 3055 01b5 18       		.uleb128 0x18
 3056 01b6 9742     		.uleb128 0x2117
 3057 01b8 19       		.uleb128 0x19
 3058 01b9 01       		.uleb128 0x1
 3059 01ba 13       		.uleb128 0x13
 3060 01bb 00       		.byte	0
 3061 01bc 00       		.byte	0
 3062 01bd 20       		.uleb128 0x20
 3063 01be 34       		.uleb128 0x34
 3064 01bf 00       		.byte	0
 3065 01c0 03       		.uleb128 0x3
 3066 01c1 08       		.uleb128 0x8
 3067 01c2 3A       		.uleb128 0x3a
 3068 01c3 0B       		.uleb128 0xb
 3069 01c4 3B       		.uleb128 0x3b
 3070 01c5 0B       		.uleb128 0xb
 3071 01c6 39       		.uleb128 0x39
 3072 01c7 0B       		.uleb128 0xb
 3073 01c8 49       		.uleb128 0x49
 3074 01c9 13       		.uleb128 0x13
 3075 01ca 02       		.uleb128 0x2
 3076 01cb 17       		.uleb128 0x17
 3077 01cc B742     		.uleb128 0x2137
 3078 01ce 17       		.uleb128 0x17
ARM GAS  /var/folders/l5/0x54b2c10074c8bt31ycjvl80000gp/T//cc9SIASL.s 			page 55


 3079 01cf 00       		.byte	0
 3080 01d0 00       		.byte	0
 3081 01d1 21       		.uleb128 0x21
 3082 01d2 898201   		.uleb128 0x4109
 3083 01d5 01       		.byte	0x1
 3084 01d6 11       		.uleb128 0x11
 3085 01d7 01       		.uleb128 0x1
 3086 01d8 31       		.uleb128 0x31
 3087 01d9 13       		.uleb128 0x13
 3088 01da 00       		.byte	0
 3089 01db 00       		.byte	0
 3090 01dc 22       		.uleb128 0x22
 3091 01dd 8A8201   		.uleb128 0x410a
 3092 01e0 00       		.byte	0
 3093 01e1 02       		.uleb128 0x2
 3094 01e2 18       		.uleb128 0x18
 3095 01e3 9142     		.uleb128 0x2111
 3096 01e5 18       		.uleb128 0x18
 3097 01e6 00       		.byte	0
 3098 01e7 00       		.byte	0
 3099 01e8 23       		.uleb128 0x23
 3100 01e9 2E       		.uleb128 0x2e
 3101 01ea 01       		.byte	0x1
 3102 01eb 3F       		.uleb128 0x3f
 3103 01ec 19       		.uleb128 0x19
 3104 01ed 03       		.uleb128 0x3
 3105 01ee 0E       		.uleb128 0xe
 3106 01ef 3A       		.uleb128 0x3a
 3107 01f0 0B       		.uleb128 0xb
 3108 01f1 3B       		.uleb128 0x3b
 3109 01f2 0B       		.uleb128 0xb
 3110 01f3 39       		.uleb128 0x39
 3111 01f4 0B       		.uleb128 0xb
 3112 01f5 27       		.uleb128 0x27
 3113 01f6 19       		.uleb128 0x19
 3114 01f7 49       		.uleb128 0x49
 3115 01f8 13       		.uleb128 0x13
 3116 01f9 20       		.uleb128 0x20
 3117 01fa 0B       		.uleb128 0xb
 3118 01fb 01       		.uleb128 0x1
 3119 01fc 13       		.uleb128 0x13
 3120 01fd 00       		.byte	0
 3121 01fe 00       		.byte	0
 3122 01ff 24       		.uleb128 0x24
 3123 0200 05       		.uleb128 0x5
 3124 0201 00       		.byte	0
 3125 0202 03       		.uleb128 0x3
 3126 0203 08       		.uleb128 0x8
 3127 0204 3A       		.uleb128 0x3a
 3128 0205 0B       		.uleb128 0xb
 3129 0206 3B       		.uleb128 0x3b
 3130 0207 0B       		.uleb128 0xb
 3131 0208 39       		.uleb128 0x39
 3132 0209 0B       		.uleb128 0xb
 3133 020a 49       		.uleb128 0x49
 3134 020b 13       		.uleb128 0x13
 3135 020c 00       		.byte	0
ARM GAS  /var/folders/l5/0x54b2c10074c8bt31ycjvl80000gp/T//cc9SIASL.s 			page 56


 3136 020d 00       		.byte	0
 3137 020e 25       		.uleb128 0x25
 3138 020f 05       		.uleb128 0x5
 3139 0210 00       		.byte	0
 3140 0211 03       		.uleb128 0x3
 3141 0212 08       		.uleb128 0x8
 3142 0213 3A       		.uleb128 0x3a
 3143 0214 0B       		.uleb128 0xb
 3144 0215 3B       		.uleb128 0x3b
 3145 0216 0B       		.uleb128 0xb
 3146 0217 39       		.uleb128 0x39
 3147 0218 0B       		.uleb128 0xb
 3148 0219 49       		.uleb128 0x49
 3149 021a 13       		.uleb128 0x13
 3150 021b 02       		.uleb128 0x2
 3151 021c 17       		.uleb128 0x17
 3152 021d B742     		.uleb128 0x2137
 3153 021f 17       		.uleb128 0x17
 3154 0220 00       		.byte	0
 3155 0221 00       		.byte	0
 3156 0222 26       		.uleb128 0x26
 3157 0223 1D       		.uleb128 0x1d
 3158 0224 01       		.byte	0x1
 3159 0225 31       		.uleb128 0x31
 3160 0226 13       		.uleb128 0x13
 3161 0227 52       		.uleb128 0x52
 3162 0228 01       		.uleb128 0x1
 3163 0229 B842     		.uleb128 0x2138
 3164 022b 0B       		.uleb128 0xb
 3165 022c 11       		.uleb128 0x11
 3166 022d 01       		.uleb128 0x1
 3167 022e 12       		.uleb128 0x12
 3168 022f 06       		.uleb128 0x6
 3169 0230 58       		.uleb128 0x58
 3170 0231 0B       		.uleb128 0xb
 3171 0232 59       		.uleb128 0x59
 3172 0233 0B       		.uleb128 0xb
 3173 0234 57       		.uleb128 0x57
 3174 0235 0B       		.uleb128 0xb
 3175 0236 00       		.byte	0
 3176 0237 00       		.byte	0
 3177 0238 27       		.uleb128 0x27
 3178 0239 1D       		.uleb128 0x1d
 3179 023a 01       		.byte	0x1
 3180 023b 31       		.uleb128 0x31
 3181 023c 13       		.uleb128 0x13
 3182 023d 52       		.uleb128 0x52
 3183 023e 01       		.uleb128 0x1
 3184 023f B842     		.uleb128 0x2138
 3185 0241 0B       		.uleb128 0xb
 3186 0242 55       		.uleb128 0x55
 3187 0243 17       		.uleb128 0x17
 3188 0244 58       		.uleb128 0x58
 3189 0245 0B       		.uleb128 0xb
 3190 0246 59       		.uleb128 0x59
 3191 0247 0B       		.uleb128 0xb
 3192 0248 57       		.uleb128 0x57
ARM GAS  /var/folders/l5/0x54b2c10074c8bt31ycjvl80000gp/T//cc9SIASL.s 			page 57


 3193 0249 0B       		.uleb128 0xb
 3194 024a 00       		.byte	0
 3195 024b 00       		.byte	0
 3196 024c 28       		.uleb128 0x28
 3197 024d 2E       		.uleb128 0x2e
 3198 024e 01       		.byte	0x1
 3199 024f 3F       		.uleb128 0x3f
 3200 0250 19       		.uleb128 0x19
 3201 0251 03       		.uleb128 0x3
 3202 0252 0E       		.uleb128 0xe
 3203 0253 3A       		.uleb128 0x3a
 3204 0254 0B       		.uleb128 0xb
 3205 0255 3B       		.uleb128 0x3b
 3206 0256 0B       		.uleb128 0xb
 3207 0257 39       		.uleb128 0x39
 3208 0258 0B       		.uleb128 0xb
 3209 0259 27       		.uleb128 0x27
 3210 025a 19       		.uleb128 0x19
 3211 025b 11       		.uleb128 0x11
 3212 025c 01       		.uleb128 0x1
 3213 025d 12       		.uleb128 0x12
 3214 025e 06       		.uleb128 0x6
 3215 025f 40       		.uleb128 0x40
 3216 0260 18       		.uleb128 0x18
 3217 0261 9742     		.uleb128 0x2117
 3218 0263 19       		.uleb128 0x19
 3219 0264 01       		.uleb128 0x1
 3220 0265 13       		.uleb128 0x13
 3221 0266 00       		.byte	0
 3222 0267 00       		.byte	0
 3223 0268 29       		.uleb128 0x29
 3224 0269 1D       		.uleb128 0x1d
 3225 026a 01       		.byte	0x1
 3226 026b 31       		.uleb128 0x31
 3227 026c 13       		.uleb128 0x13
 3228 026d 52       		.uleb128 0x52
 3229 026e 01       		.uleb128 0x1
 3230 026f B842     		.uleb128 0x2138
 3231 0271 0B       		.uleb128 0xb
 3232 0272 55       		.uleb128 0x55
 3233 0273 17       		.uleb128 0x17
 3234 0274 58       		.uleb128 0x58
 3235 0275 0B       		.uleb128 0xb
 3236 0276 59       		.uleb128 0x59
 3237 0277 0B       		.uleb128 0xb
 3238 0278 57       		.uleb128 0x57
 3239 0279 0B       		.uleb128 0xb
 3240 027a 01       		.uleb128 0x1
 3241 027b 13       		.uleb128 0x13
 3242 027c 00       		.byte	0
 3243 027d 00       		.byte	0
 3244 027e 2A       		.uleb128 0x2a
 3245 027f 898201   		.uleb128 0x4109
 3246 0282 01       		.byte	0x1
 3247 0283 11       		.uleb128 0x11
 3248 0284 01       		.uleb128 0x1
 3249 0285 9542     		.uleb128 0x2115
ARM GAS  /var/folders/l5/0x54b2c10074c8bt31ycjvl80000gp/T//cc9SIASL.s 			page 58


 3250 0287 19       		.uleb128 0x19
 3251 0288 31       		.uleb128 0x31
 3252 0289 13       		.uleb128 0x13
 3253 028a 01       		.uleb128 0x1
 3254 028b 13       		.uleb128 0x13
 3255 028c 00       		.byte	0
 3256 028d 00       		.byte	0
 3257 028e 2B       		.uleb128 0x2b
 3258 028f 05       		.uleb128 0x5
 3259 0290 00       		.byte	0
 3260 0291 03       		.uleb128 0x3
 3261 0292 08       		.uleb128 0x8
 3262 0293 3A       		.uleb128 0x3a
 3263 0294 0B       		.uleb128 0xb
 3264 0295 3B       		.uleb128 0x3b
 3265 0296 0B       		.uleb128 0xb
 3266 0297 39       		.uleb128 0x39
 3267 0298 0B       		.uleb128 0xb
 3268 0299 49       		.uleb128 0x49
 3269 029a 13       		.uleb128 0x13
 3270 029b 02       		.uleb128 0x2
 3271 029c 18       		.uleb128 0x18
 3272 029d 00       		.byte	0
 3273 029e 00       		.byte	0
 3274 029f 2C       		.uleb128 0x2c
 3275 02a0 2E       		.uleb128 0x2e
 3276 02a1 01       		.byte	0x1
 3277 02a2 03       		.uleb128 0x3
 3278 02a3 0E       		.uleb128 0xe
 3279 02a4 3A       		.uleb128 0x3a
 3280 02a5 0B       		.uleb128 0xb
 3281 02a6 3B       		.uleb128 0x3b
 3282 02a7 0B       		.uleb128 0xb
 3283 02a8 39       		.uleb128 0x39
 3284 02a9 0B       		.uleb128 0xb
 3285 02aa 27       		.uleb128 0x27
 3286 02ab 19       		.uleb128 0x19
 3287 02ac 49       		.uleb128 0x49
 3288 02ad 13       		.uleb128 0x13
 3289 02ae 20       		.uleb128 0x20
 3290 02af 0B       		.uleb128 0xb
 3291 02b0 01       		.uleb128 0x1
 3292 02b1 13       		.uleb128 0x13
 3293 02b2 00       		.byte	0
 3294 02b3 00       		.byte	0
 3295 02b4 2D       		.uleb128 0x2d
 3296 02b5 34       		.uleb128 0x34
 3297 02b6 00       		.byte	0
 3298 02b7 03       		.uleb128 0x3
 3299 02b8 08       		.uleb128 0x8
 3300 02b9 3A       		.uleb128 0x3a
 3301 02ba 0B       		.uleb128 0xb
 3302 02bb 3B       		.uleb128 0x3b
 3303 02bc 0B       		.uleb128 0xb
 3304 02bd 39       		.uleb128 0x39
 3305 02be 0B       		.uleb128 0xb
 3306 02bf 49       		.uleb128 0x49
ARM GAS  /var/folders/l5/0x54b2c10074c8bt31ycjvl80000gp/T//cc9SIASL.s 			page 59


 3307 02c0 13       		.uleb128 0x13
 3308 02c1 00       		.byte	0
 3309 02c2 00       		.byte	0
 3310 02c3 2E       		.uleb128 0x2e
 3311 02c4 2E       		.uleb128 0x2e
 3312 02c5 01       		.byte	0x1
 3313 02c6 03       		.uleb128 0x3
 3314 02c7 0E       		.uleb128 0xe
 3315 02c8 3A       		.uleb128 0x3a
 3316 02c9 0B       		.uleb128 0xb
 3317 02ca 3B       		.uleb128 0x3b
 3318 02cb 0B       		.uleb128 0xb
 3319 02cc 39       		.uleb128 0x39
 3320 02cd 0B       		.uleb128 0xb
 3321 02ce 27       		.uleb128 0x27
 3322 02cf 19       		.uleb128 0x19
 3323 02d0 20       		.uleb128 0x20
 3324 02d1 0B       		.uleb128 0xb
 3325 02d2 01       		.uleb128 0x1
 3326 02d3 13       		.uleb128 0x13
 3327 02d4 00       		.byte	0
 3328 02d5 00       		.byte	0
 3329 02d6 2F       		.uleb128 0x2f
 3330 02d7 2E       		.uleb128 0x2e
 3331 02d8 01       		.byte	0x1
 3332 02d9 31       		.uleb128 0x31
 3333 02da 13       		.uleb128 0x13
 3334 02db 11       		.uleb128 0x11
 3335 02dc 01       		.uleb128 0x1
 3336 02dd 12       		.uleb128 0x12
 3337 02de 06       		.uleb128 0x6
 3338 02df 40       		.uleb128 0x40
 3339 02e0 18       		.uleb128 0x18
 3340 02e1 9742     		.uleb128 0x2117
 3341 02e3 19       		.uleb128 0x19
 3342 02e4 01       		.uleb128 0x1
 3343 02e5 13       		.uleb128 0x13
 3344 02e6 00       		.byte	0
 3345 02e7 00       		.byte	0
 3346 02e8 30       		.uleb128 0x30
 3347 02e9 2E       		.uleb128 0x2e
 3348 02ea 00       		.byte	0
 3349 02eb 3F       		.uleb128 0x3f
 3350 02ec 19       		.uleb128 0x19
 3351 02ed 3C       		.uleb128 0x3c
 3352 02ee 19       		.uleb128 0x19
 3353 02ef 6E       		.uleb128 0x6e
 3354 02f0 0E       		.uleb128 0xe
 3355 02f1 03       		.uleb128 0x3
 3356 02f2 0E       		.uleb128 0xe
 3357 02f3 3A       		.uleb128 0x3a
 3358 02f4 0B       		.uleb128 0xb
 3359 02f5 3B       		.uleb128 0x3b
 3360 02f6 0B       		.uleb128 0xb
 3361 02f7 39       		.uleb128 0x39
 3362 02f8 0B       		.uleb128 0xb
 3363 02f9 00       		.byte	0
ARM GAS  /var/folders/l5/0x54b2c10074c8bt31ycjvl80000gp/T//cc9SIASL.s 			page 60


 3364 02fa 00       		.byte	0
 3365 02fb 00       		.byte	0
 3366              		.section	.debug_loc,"",%progbits
 3367              	.Ldebug_loc0:
 3368              	.LVUS36:
 3369 0000 00       		.uleb128 .LVU343
 3370 0001 00       		.uleb128 0
 3371              	.LLST36:
 3372 0002 0C000000 		.4byte	.LVL65
 3373 0006 84000000 		.4byte	.LFE14
 3374 000a 0100     		.2byte	0x1
 3375 000c 54       		.byte	0x54
 3376 000d 00000000 		.4byte	0
 3377 0011 00000000 		.4byte	0
 3378              	.LVUS37:
 3379 0015 03       		.uleb128 .LVU353
 3380 0016 00       		.uleb128 .LVU363
 3381              	.LLST37:
 3382 0017 20000000 		.4byte	.LVL66
 3383 001b 30000000 		.4byte	.LVL68
 3384 001f 0200     		.2byte	0x2
 3385 0021 74       		.byte	0x74
 3386 0022 3C       		.sleb128 60
 3387 0023 00000000 		.4byte	0
 3388 0027 00000000 		.4byte	0
 3389              	.LVUS38:
 3390 002b 01       		.uleb128 .LVU372
 3391 002c 00       		.uleb128 .LVU380
 3392              	.LLST38:
 3393 002d 50000000 		.4byte	.LVL70
 3394 0031 5F000000 		.4byte	.LVL71-1
 3395 0035 0100     		.2byte	0x1
 3396 0037 52       		.byte	0x52
 3397 0038 00000000 		.4byte	0
 3398 003c 00000000 		.4byte	0
 3399              	.LVUS39:
 3400 0040 05       		.uleb128 .LVU355
 3401 0041 00       		.uleb128 .LVU365
 3402              	.LLST39:
 3403 0042 20000000 		.4byte	.LVL66
 3404 0046 38000000 		.4byte	.LVL69
 3405 004a 0100     		.2byte	0x1
 3406 004c 53       		.byte	0x53
 3407 004d 00000000 		.4byte	0
 3408 0051 00000000 		.4byte	0
 3409              	.LVUS40:
 3410 0055 00       		.uleb128 .LVU359
 3411 0056 01       		.uleb128 .LVU372
 3412              	.LLST40:
 3413 0057 24000000 		.4byte	.LVL67
 3414 005b 50000000 		.4byte	.LVL70
 3415 005f 0100     		.2byte	0x1
 3416 0061 52       		.byte	0x52
 3417 0062 00000000 		.4byte	0
 3418 0066 00000000 		.4byte	0
 3419              	.LVUS29:
 3420 006a 00       		.uleb128 .LVU280
ARM GAS  /var/folders/l5/0x54b2c10074c8bt31ycjvl80000gp/T//cc9SIASL.s 			page 61


 3421 006b 00       		.uleb128 .LVU320
 3422 006c 00       		.uleb128 .LVU332
 3423 006d 00       		.uleb128 .LVU335
 3424              	.LLST29:
 3425 006e 0C000000 		.4byte	.LVL53
 3426 0072 68000000 		.4byte	.LVL60
 3427 0076 0100     		.2byte	0x1
 3428 0078 50       		.byte	0x50
 3429 0079 84000000 		.4byte	.LVL63
 3430 007d 8C000000 		.4byte	.LVL64
 3431 0081 0100     		.2byte	0x1
 3432 0083 50       		.byte	0x50
 3433 0084 00000000 		.4byte	0
 3434 0088 00000000 		.4byte	0
 3435              	.LVUS30:
 3436 008c 04       		.uleb128 .LVU288
 3437 008d 00       		.uleb128 0
 3438              	.LLST30:
 3439 008e 10000000 		.4byte	.LVL54
 3440 0092 98000000 		.4byte	.LFE13
 3441 0096 0100     		.2byte	0x1
 3442 0098 54       		.byte	0x54
 3443 0099 00000000 		.4byte	0
 3444 009d 00000000 		.4byte	0
 3445              	.LVUS31:
 3446 00a1 01       		.uleb128 .LVU300
 3447 00a2 00       		.uleb128 .LVU312
 3448              	.LLST31:
 3449 00a3 2C000000 		.4byte	.LVL55
 3450 00a7 5C000000 		.4byte	.LVL58
 3451 00ab 0100     		.2byte	0x1
 3452 00ad 53       		.byte	0x53
 3453 00ae 00000000 		.4byte	0
 3454 00b2 00000000 		.4byte	0
 3455              	.LVUS32:
 3456 00b6 01       		.uleb128 .LVU322
 3457 00b7 00       		.uleb128 .LVU330
 3458              	.LLST32:
 3459 00b8 6C000000 		.4byte	.LVL61
 3460 00bc 7B000000 		.4byte	.LVL62-1
 3461 00c0 0100     		.2byte	0x1
 3462 00c2 5C       		.byte	0x5c
 3463 00c3 00000000 		.4byte	0
 3464 00c7 00000000 		.4byte	0
 3465              	.LVUS33:
 3466 00cb 00       		.uleb128 .LVU299
 3467 00cc 00       		.uleb128 .LVU330
 3468              	.LLST33:
 3469 00cd 2C000000 		.4byte	.LVL55
 3470 00d1 7B000000 		.4byte	.LVL62-1
 3471 00d5 0100     		.2byte	0x1
 3472 00d7 51       		.byte	0x51
 3473 00d8 00000000 		.4byte	0
 3474 00dc 00000000 		.4byte	0
 3475              	.LVUS34:
 3476 00e0 01       		.uleb128 .LVU315
 3477 00e1 01       		.uleb128 .LVU322
ARM GAS  /var/folders/l5/0x54b2c10074c8bt31ycjvl80000gp/T//cc9SIASL.s 			page 62


 3478              	.LLST34:
 3479 00e2 60000000 		.4byte	.LVL59
 3480 00e6 6C000000 		.4byte	.LVL61
 3481 00ea 0100     		.2byte	0x1
 3482 00ec 54       		.byte	0x54
 3483 00ed 00000000 		.4byte	0
 3484 00f1 00000000 		.4byte	0
 3485              	.LVUS35:
 3486 00f5 03       		.uleb128 .LVU317
 3487 00f6 01       		.uleb128 .LVU322
 3488              	.LLST35:
 3489 00f7 60000000 		.4byte	.LVL59
 3490 00fb 6C000000 		.4byte	.LVL61
 3491 00ff 0100     		.2byte	0x1
 3492 0101 5C       		.byte	0x5c
 3493 0102 00000000 		.4byte	0
 3494 0106 00000000 		.4byte	0
 3495              	.LVUS22:
 3496 010a 00       		.uleb128 .LVU215
 3497 010b 00       		.uleb128 .LVU256
 3498 010c 00       		.uleb128 .LVU273
 3499 010d 00       		.uleb128 0
 3500              	.LLST22:
 3501 010e 0C000000 		.4byte	.LVL41
 3502 0112 6C000000 		.4byte	.LVL48
 3503 0116 0100     		.2byte	0x1
 3504 0118 50       		.byte	0x50
 3505 0119 90000000 		.4byte	.LVL52
 3506 011d A0000000 		.4byte	.LFE12
 3507 0121 0100     		.2byte	0x1
 3508 0123 50       		.byte	0x50
 3509 0124 00000000 		.4byte	0
 3510 0128 00000000 		.4byte	0
 3511              	.LVUS23:
 3512 012c 04       		.uleb128 .LVU224
 3513 012d 00       		.uleb128 0
 3514              	.LLST23:
 3515 012e 14000000 		.4byte	.LVL42
 3516 0132 A0000000 		.4byte	.LFE12
 3517 0136 0100     		.2byte	0x1
 3518 0138 54       		.byte	0x54
 3519 0139 00000000 		.4byte	0
 3520 013d 00000000 		.4byte	0
 3521              	.LVUS24:
 3522 0141 01       		.uleb128 .LVU236
 3523 0142 00       		.uleb128 .LVU248
 3524              	.LLST24:
 3525 0143 30000000 		.4byte	.LVL43
 3526 0147 60000000 		.4byte	.LVL46
 3527 014b 0100     		.2byte	0x1
 3528 014d 53       		.byte	0x53
 3529 014e 00000000 		.4byte	0
 3530 0152 00000000 		.4byte	0
 3531              	.LVUS25:
 3532 0156 01       		.uleb128 .LVU258
 3533 0157 00       		.uleb128 .LVU267
 3534              	.LLST25:
ARM GAS  /var/folders/l5/0x54b2c10074c8bt31ycjvl80000gp/T//cc9SIASL.s 			page 63


 3535 0158 70000000 		.4byte	.LVL49
 3536 015c 83000000 		.4byte	.LVL51-1
 3537 0160 0100     		.2byte	0x1
 3538 0162 5C       		.byte	0x5c
 3539 0163 00000000 		.4byte	0
 3540 0167 00000000 		.4byte	0
 3541              	.LVUS26:
 3542 016b 00       		.uleb128 .LVU235
 3543 016c 00       		.uleb128 .LVU261
 3544              	.LLST26:
 3545 016d 30000000 		.4byte	.LVL43
 3546 0171 74000000 		.4byte	.LVL50
 3547 0175 0100     		.2byte	0x1
 3548 0177 51       		.byte	0x51
 3549 0178 00000000 		.4byte	0
 3550 017c 00000000 		.4byte	0
 3551              	.LVUS27:
 3552 0180 01       		.uleb128 .LVU251
 3553 0181 01       		.uleb128 .LVU258
 3554              	.LLST27:
 3555 0182 64000000 		.4byte	.LVL47
 3556 0186 70000000 		.4byte	.LVL49
 3557 018a 0100     		.2byte	0x1
 3558 018c 54       		.byte	0x54
 3559 018d 00000000 		.4byte	0
 3560 0191 00000000 		.4byte	0
 3561              	.LVUS28:
 3562 0195 03       		.uleb128 .LVU253
 3563 0196 01       		.uleb128 .LVU258
 3564              	.LLST28:
 3565 0197 64000000 		.4byte	.LVL47
 3566 019b 70000000 		.4byte	.LVL49
 3567 019f 0100     		.2byte	0x1
 3568 01a1 5C       		.byte	0x5c
 3569 01a2 00000000 		.4byte	0
 3570 01a6 00000000 		.4byte	0
 3571              	.LVUS16:
 3572 01aa 00       		.uleb128 0
 3573 01ab 00       		.uleb128 .LVU172
 3574 01ac 00       		.uleb128 .LVU172
 3575 01ad 00       		.uleb128 0
 3576              	.LLST16:
 3577 01ae 00000000 		.4byte	.LVL32
 3578 01b2 18000000 		.4byte	.LVL35
 3579 01b6 0100     		.2byte	0x1
 3580 01b8 50       		.byte	0x50
 3581 01b9 18000000 		.4byte	.LVL35
 3582 01bd 3C000000 		.4byte	.LFE10
 3583 01c1 0100     		.2byte	0x1
 3584 01c3 53       		.byte	0x53
 3585 01c4 00000000 		.4byte	0
 3586 01c8 00000000 		.4byte	0
 3587              	.LVUS17:
 3588 01cc 01       		.uleb128 .LVU181
 3589 01cd 00       		.uleb128 0
 3590              	.LLST17:
 3591 01ce 30000000 		.4byte	.LVL36
ARM GAS  /var/folders/l5/0x54b2c10074c8bt31ycjvl80000gp/T//cc9SIASL.s 			page 64


 3592 01d2 3C000000 		.4byte	.LFE10
 3593 01d6 0100     		.2byte	0x1
 3594 01d8 50       		.byte	0x50
 3595 01d9 00000000 		.4byte	0
 3596 01dd 00000000 		.4byte	0
 3597              	.LVUS18:
 3598 01e1 03       		.uleb128 .LVU161
 3599 01e2 00       		.uleb128 .LVU172
 3600 01e3 00       		.uleb128 .LVU172
 3601 01e4 01       		.uleb128 .LVU181
 3602              	.LLST18:
 3603 01e5 08000000 		.4byte	.LVL33
 3604 01e9 18000000 		.4byte	.LVL35
 3605 01ed 0100     		.2byte	0x1
 3606 01ef 50       		.byte	0x50
 3607 01f0 18000000 		.4byte	.LVL35
 3608 01f4 30000000 		.4byte	.LVL36
 3609 01f8 0100     		.2byte	0x1
 3610 01fa 53       		.byte	0x53
 3611 01fb 00000000 		.4byte	0
 3612 01ff 00000000 		.4byte	0
 3613              	.LVUS19:
 3614 0203 00       		.uleb128 .LVU168
 3615 0204 00       		.uleb128 .LVU172
 3616 0205 00       		.uleb128 .LVU172
 3617 0206 01       		.uleb128 .LVU181
 3618              	.LLST19:
 3619 0207 10000000 		.4byte	.LVL34
 3620 020b 18000000 		.4byte	.LVL35
 3621 020f 0100     		.2byte	0x1
 3622 0211 50       		.byte	0x50
 3623 0212 18000000 		.4byte	.LVL35
 3624 0216 30000000 		.4byte	.LVL36
 3625 021a 0100     		.2byte	0x1
 3626 021c 53       		.byte	0x53
 3627 021d 00000000 		.4byte	0
 3628 0221 00000000 		.4byte	0
 3629              	.LVUS0:
 3630 0225 00       		.uleb128 0
 3631 0226 00       		.uleb128 .LVU26
 3632 0227 00       		.uleb128 .LVU26
 3633 0228 00       		.uleb128 .LVU56
 3634 0229 00       		.uleb128 .LVU56
 3635 022a 00       		.uleb128 .LVU57
 3636 022b 00       		.uleb128 .LVU57
 3637 022c 00       		.uleb128 .LVU57
 3638 022d 00       		.uleb128 .LVU57
 3639 022e 00       		.uleb128 .LVU66
 3640 022f 00       		.uleb128 .LVU66
 3641 0230 00       		.uleb128 0
 3642              	.LLST0:
 3643 0231 00000000 		.4byte	.LVL1
 3644 0235 2C000000 		.4byte	.LVL4
 3645 0239 0100     		.2byte	0x1
 3646 023b 50       		.byte	0x50
 3647 023c 2C000000 		.4byte	.LVL4
 3648 0240 94000000 		.4byte	.LVL10
ARM GAS  /var/folders/l5/0x54b2c10074c8bt31ycjvl80000gp/T//cc9SIASL.s 			page 65


 3649 0244 0100     		.2byte	0x1
 3650 0246 55       		.byte	0x55
 3651 0247 94000000 		.4byte	.LVL10
 3652 024b 97000000 		.4byte	.LVL11-1
 3653 024f 0500     		.2byte	0x5
 3654 0251 73       		.byte	0x73
 3655 0252 00       		.sleb128 0
 3656 0253 06       		.byte	0x6
 3657 0254 23       		.byte	0x23
 3658 0255 24       		.uleb128 0x24
 3659 0256 97000000 		.4byte	.LVL11-1
 3660 025a 98000000 		.4byte	.LVL11
 3661 025e 0400     		.2byte	0x4
 3662 0260 F3       		.byte	0xf3
 3663 0261 01       		.uleb128 0x1
 3664 0262 50       		.byte	0x50
 3665 0263 9F       		.byte	0x9f
 3666 0264 98000000 		.4byte	.LVL11
 3667 0268 AC000000 		.4byte	.LVL12
 3668 026c 0100     		.2byte	0x1
 3669 026e 50       		.byte	0x50
 3670 026f AC000000 		.4byte	.LVL12
 3671 0273 80010000 		.4byte	.LFE9
 3672 0277 0100     		.2byte	0x1
 3673 0279 55       		.byte	0x55
 3674 027a 00000000 		.4byte	0
 3675 027e 00000000 		.4byte	0
 3676              	.LVUS1:
 3677 0282 00       		.uleb128 .LVU17
 3678 0283 00       		.uleb128 .LVU56
 3679 0284 00       		.uleb128 .LVU56
 3680 0285 00       		.uleb128 .LVU57
 3681 0286 00       		.uleb128 .LVU57
 3682 0287 00       		.uleb128 0
 3683              	.LLST1:
 3684 0288 14000000 		.4byte	.LVL2
 3685 028c 94000000 		.4byte	.LVL10
 3686 0290 0100     		.2byte	0x1
 3687 0292 54       		.byte	0x54
 3688 0293 94000000 		.4byte	.LVL10
 3689 0297 97000000 		.4byte	.LVL11-1
 3690 029b 0200     		.2byte	0x2
 3691 029d 73       		.byte	0x73
 3692 029e 00       		.sleb128 0
 3693 029f 98000000 		.4byte	.LVL11
 3694 02a3 80010000 		.4byte	.LFE9
 3695 02a7 0100     		.2byte	0x1
 3696 02a9 54       		.byte	0x54
 3697 02aa 00000000 		.4byte	0
 3698 02ae 00000000 		.4byte	0
 3699              	.LVUS2:
 3700 02b2 00       		.uleb128 .LVU25
 3701 02b3 00       		.uleb128 .LVU31
 3702 02b4 00       		.uleb128 .LVU66
 3703 02b5 00       		.uleb128 .LVU78
 3704 02b6 00       		.uleb128 .LVU79
 3705 02b7 00       		.uleb128 0
ARM GAS  /var/folders/l5/0x54b2c10074c8bt31ycjvl80000gp/T//cc9SIASL.s 			page 66


 3706              	.LLST2:
 3707 02b8 24000000 		.4byte	.LVL3
 3708 02bc 4C000000 		.4byte	.LVL5
 3709 02c0 0100     		.2byte	0x1
 3710 02c2 52       		.byte	0x52
 3711 02c3 AC000000 		.4byte	.LVL12
 3712 02c7 C3000000 		.4byte	.LVL14-1
 3713 02cb 0100     		.2byte	0x1
 3714 02cd 52       		.byte	0x52
 3715 02ce C8000000 		.4byte	.LVL15
 3716 02d2 80010000 		.4byte	.LFE9
 3717 02d6 0100     		.2byte	0x1
 3718 02d8 52       		.byte	0x52
 3719 02d9 00000000 		.4byte	0
 3720 02dd 00000000 		.4byte	0
 3721              	.LVUS3:
 3722 02e1 01       		.uleb128 .LVU32
 3723 02e2 00       		.uleb128 .LVU51
 3724              	.LLST3:
 3725 02e3 4C000000 		.4byte	.LVL5
 3726 02e7 8C000000 		.4byte	.LVL9
 3727 02eb 0100     		.2byte	0x1
 3728 02ed 55       		.byte	0x55
 3729 02ee 00000000 		.4byte	0
 3730 02f2 00000000 		.4byte	0
 3731              	.LVUS4:
 3732 02f6 01       		.uleb128 .LVU32
 3733 02f7 00       		.uleb128 .LVU51
 3734              	.LLST4:
 3735 02f8 4C000000 		.4byte	.LVL5
 3736 02fc 8C000000 		.4byte	.LVL9
 3737 0300 0100     		.2byte	0x1
 3738 0302 54       		.byte	0x54
 3739 0303 00000000 		.4byte	0
 3740 0307 00000000 		.4byte	0
 3741              	.LVUS5:
 3742 030b 03       		.uleb128 .LVU34
 3743 030c 00       		.uleb128 .LVU35
 3744 030d 00       		.uleb128 .LVU35
 3745 030e 00       		.uleb128 .LVU48
 3746 030f 00       		.uleb128 .LVU48
 3747 0310 00       		.uleb128 .LVU51
 3748              	.LLST5:
 3749 0311 4C000000 		.4byte	.LVL5
 3750 0315 54000000 		.4byte	.LVL6
 3751 0319 0100     		.2byte	0x1
 3752 031b 55       		.byte	0x55
 3753 031c 54000000 		.4byte	.LVL6
 3754 0320 84000000 		.4byte	.LVL8
 3755 0324 0100     		.2byte	0x1
 3756 0326 53       		.byte	0x53
 3757 0327 84000000 		.4byte	.LVL8
 3758 032b 8C000000 		.4byte	.LVL9
 3759 032f 0200     		.2byte	0x2
 3760 0331 74       		.byte	0x74
 3761 0332 00       		.sleb128 0
 3762 0333 00000000 		.4byte	0
ARM GAS  /var/folders/l5/0x54b2c10074c8bt31ycjvl80000gp/T//cc9SIASL.s 			page 67


 3763 0337 00000000 		.4byte	0
 3764              	.LVUS6:
 3765 033b 01       		.uleb128 .LVU67
 3766 033c 01       		.uleb128 .LVU76
 3767              	.LLST6:
 3768 033d AC000000 		.4byte	.LVL12
 3769 0341 C0000000 		.4byte	.LVL13
 3770 0345 0100     		.2byte	0x1
 3771 0347 52       		.byte	0x52
 3772 0348 00000000 		.4byte	0
 3773 034c 00000000 		.4byte	0
 3774              	.LVUS7:
 3775 0350 01       		.uleb128 .LVU80
 3776 0351 01       		.uleb128 .LVU90
 3777              	.LLST7:
 3778 0352 C8000000 		.4byte	.LVL15
 3779 0356 E0000000 		.4byte	.LVL16
 3780 035a 0100     		.2byte	0x1
 3781 035c 52       		.byte	0x52
 3782 035d 00000000 		.4byte	0
 3783 0361 00000000 		.4byte	0
 3784              	.LVUS8:
 3785 0365 01       		.uleb128 .LVU90
 3786 0366 00       		.uleb128 .LVU92
 3787 0367 00       		.uleb128 .LVU92
 3788 0368 00       		.uleb128 .LVU107
 3789              	.LLST8:
 3790 0369 E0000000 		.4byte	.LVL16
 3791 036d E4000000 		.4byte	.LVL17
 3792 0371 0100     		.2byte	0x1
 3793 0373 53       		.byte	0x53
 3794 0374 E4000000 		.4byte	.LVL17
 3795 0378 18010000 		.4byte	.LVL22
 3796 037c 0100     		.2byte	0x1
 3797 037e 5C       		.byte	0x5c
 3798 037f 00000000 		.4byte	0
 3799 0383 00000000 		.4byte	0
 3800              	.LVUS9:
 3801 0387 01       		.uleb128 .LVU90
 3802 0388 00       		.uleb128 .LVU107
 3803              	.LLST9:
 3804 0389 E0000000 		.4byte	.LVL16
 3805 038d 18010000 		.4byte	.LVL22
 3806 0391 0100     		.2byte	0x1
 3807 0393 52       		.byte	0x52
 3808 0394 00000000 		.4byte	0
 3809 0398 00000000 		.4byte	0
 3810              	.LVUS10:
 3811 039c 00       		.uleb128 .LVU92
 3812 039d 00       		.uleb128 .LVU105
 3813 039e 00       		.uleb128 .LVU105
 3814 039f 00       		.uleb128 .LVU106
 3815              	.LLST10:
 3816 03a0 E4000000 		.4byte	.LVL17
 3817 03a4 10010000 		.4byte	.LVL20
 3818 03a8 0100     		.2byte	0x1
 3819 03aa 53       		.byte	0x53
ARM GAS  /var/folders/l5/0x54b2c10074c8bt31ycjvl80000gp/T//cc9SIASL.s 			page 68


 3820 03ab 10010000 		.4byte	.LVL20
 3821 03af 14010000 		.4byte	.LVL21
 3822 03b3 0200     		.2byte	0x2
 3823 03b5 72       		.byte	0x72
 3824 03b6 00       		.sleb128 0
 3825 03b7 00000000 		.4byte	0
 3826 03bb 00000000 		.4byte	0
 3827              	.LVUS11:
 3828 03bf 02       		.uleb128 .LVU109
 3829 03c0 01       		.uleb128 .LVU119
 3830              	.LLST11:
 3831 03c1 18010000 		.4byte	.LVL22
 3832 03c5 30010000 		.4byte	.LVL23
 3833 03c9 0100     		.2byte	0x1
 3834 03cb 52       		.byte	0x52
 3835 03cc 00000000 		.4byte	0
 3836 03d0 00000000 		.4byte	0
 3837              	.LVUS12:
 3838 03d4 01       		.uleb128 .LVU119
 3839 03d5 00       		.uleb128 .LVU121
 3840 03d6 00       		.uleb128 .LVU121
 3841 03d7 00       		.uleb128 .LVU137
 3842              	.LLST12:
 3843 03d8 30010000 		.4byte	.LVL23
 3844 03dc 34010000 		.4byte	.LVL24
 3845 03e0 0100     		.2byte	0x1
 3846 03e2 53       		.byte	0x53
 3847 03e3 34010000 		.4byte	.LVL24
 3848 03e7 68010000 		.4byte	.LVL28
 3849 03eb 0100     		.2byte	0x1
 3850 03ed 5C       		.byte	0x5c
 3851 03ee 00000000 		.4byte	0
 3852 03f2 00000000 		.4byte	0
 3853              	.LVUS13:
 3854 03f6 01       		.uleb128 .LVU119
 3855 03f7 00       		.uleb128 .LVU137
 3856              	.LLST13:
 3857 03f8 30010000 		.4byte	.LVL23
 3858 03fc 68010000 		.4byte	.LVL28
 3859 0400 0100     		.2byte	0x1
 3860 0402 52       		.byte	0x52
 3861 0403 00000000 		.4byte	0
 3862 0407 00000000 		.4byte	0
 3863              	.LVUS14:
 3864 040b 00       		.uleb128 .LVU121
 3865 040c 00       		.uleb128 .LVU134
 3866 040d 00       		.uleb128 .LVU134
 3867 040e 00       		.uleb128 .LVU137
 3868              	.LLST14:
 3869 040f 34010000 		.4byte	.LVL24
 3870 0413 60010000 		.4byte	.LVL27
 3871 0417 0100     		.2byte	0x1
 3872 0419 53       		.byte	0x53
 3873 041a 60010000 		.4byte	.LVL27
 3874 041e 68010000 		.4byte	.LVL28
 3875 0422 0200     		.2byte	0x2
 3876 0424 72       		.byte	0x72
ARM GAS  /var/folders/l5/0x54b2c10074c8bt31ycjvl80000gp/T//cc9SIASL.s 			page 69


 3877 0425 00       		.sleb128 0
 3878 0426 00000000 		.4byte	0
 3879 042a 00000000 		.4byte	0
 3880              	.LVUS15:
 3881 042e 00       		.uleb128 0
 3882 042f 00       		.uleb128 .LVU149
 3883 0430 00       		.uleb128 .LVU149
 3884 0431 00       		.uleb128 0
 3885              	.LLST15:
 3886 0432 00000000 		.4byte	.LVL30
 3887 0436 0B000000 		.4byte	.LVL31-1
 3888 043a 0100     		.2byte	0x1
 3889 043c 50       		.byte	0x50
 3890 043d 0B000000 		.4byte	.LVL31-1
 3891 0441 14000000 		.4byte	.LFE8
 3892 0445 0400     		.2byte	0x4
 3893 0447 F3       		.byte	0xf3
 3894 0448 01       		.uleb128 0x1
 3895 0449 50       		.byte	0x50
 3896 044a 9F       		.byte	0x9f
 3897 044b 00000000 		.4byte	0
 3898 044f 00000000 		.4byte	0
 3899              	.LVUS20:
 3900 0453 00       		.uleb128 0
 3901 0454 00       		.uleb128 .LVU199
 3902 0455 00       		.uleb128 .LVU199
 3903 0456 00       		.uleb128 0
 3904              	.LLST20:
 3905 0457 00000000 		.4byte	.LVL37
 3906 045b 14000000 		.4byte	.LVL39
 3907 045f 0100     		.2byte	0x1
 3908 0461 50       		.byte	0x50
 3909 0462 14000000 		.4byte	.LVL39
 3910 0466 34000000 		.4byte	.LFE11
 3911 046a 0100     		.2byte	0x1
 3912 046c 53       		.byte	0x53
 3913 046d 00000000 		.4byte	0
 3914 0471 00000000 		.4byte	0
 3915              	.LVUS21:
 3916 0475 00       		.uleb128 .LVU195
 3917 0476 00       		.uleb128 .LVU199
 3918 0477 00       		.uleb128 .LVU199
 3919 0478 01       		.uleb128 .LVU208
 3920              	.LLST21:
 3921 0479 0C000000 		.4byte	.LVL38
 3922 047d 14000000 		.4byte	.LVL39
 3923 0481 0100     		.2byte	0x1
 3924 0483 50       		.byte	0x50
 3925 0484 14000000 		.4byte	.LVL39
 3926 0488 2C000000 		.4byte	.LVL40
 3927 048c 0100     		.2byte	0x1
 3928 048e 53       		.byte	0x53
 3929 048f 00000000 		.4byte	0
 3930 0493 00000000 		.4byte	0
 3931              		.section	.debug_aranges,"",%progbits
 3932 0000 54000000 		.4byte	0x54
 3933 0004 0200     		.2byte	0x2
ARM GAS  /var/folders/l5/0x54b2c10074c8bt31ycjvl80000gp/T//cc9SIASL.s 			page 70


 3934 0006 00000000 		.4byte	.Ldebug_info0
 3935 000a 04       		.byte	0x4
 3936 000b 00       		.byte	0
 3937 000c 0000     		.2byte	0
 3938 000e 0000     		.2byte	0
 3939 0010 00000000 		.4byte	.LFB7
 3940 0014 14000000 		.4byte	.LFE7-.LFB7
 3941 0018 00000000 		.4byte	.LFB9
 3942 001c 80010000 		.4byte	.LFE9-.LFB9
 3943 0020 00000000 		.4byte	.LFB8
 3944 0024 14000000 		.4byte	.LFE8-.LFB8
 3945 0028 00000000 		.4byte	.LFB10
 3946 002c 3C000000 		.4byte	.LFE10-.LFB10
 3947 0030 00000000 		.4byte	.LFB11
 3948 0034 34000000 		.4byte	.LFE11-.LFB11
 3949 0038 00000000 		.4byte	.LFB12
 3950 003c A0000000 		.4byte	.LFE12-.LFB12
 3951 0040 00000000 		.4byte	.LFB13
 3952 0044 98000000 		.4byte	.LFE13-.LFB13
 3953 0048 00000000 		.4byte	.LFB14
 3954 004c 84000000 		.4byte	.LFE14-.LFB14
 3955 0050 00000000 		.4byte	0
 3956 0054 00000000 		.4byte	0
 3957              		.section	.debug_ranges,"",%progbits
 3958              	.Ldebug_ranges0:
 3959 0000 18000000 		.4byte	.LBB27
 3960 0004 90000000 		.4byte	.LBE27
 3961 0008 94000000 		.4byte	.LBB56
 3962 000c 98000000 		.4byte	.LBE56
 3963 0010 AC000000 		.4byte	.LBB57
 3964 0014 80010000 		.4byte	.LBE57
 3965 0018 00000000 		.4byte	0
 3966 001c 00000000 		.4byte	0
 3967 0020 4C000000 		.4byte	.LBB28
 3968 0024 84000000 		.4byte	.LBE28
 3969 0028 88000000 		.4byte	.LBB31
 3970 002c 8C000000 		.4byte	.LBE31
 3971 0030 00000000 		.4byte	0
 3972 0034 00000000 		.4byte	0
 3973 0038 AC000000 		.4byte	.LBB32
 3974 003c B4000000 		.4byte	.LBE32
 3975 0040 B8000000 		.4byte	.LBB35
 3976 0044 C0000000 		.4byte	.LBE35
 3977 0048 00000000 		.4byte	0
 3978 004c 00000000 		.4byte	0
 3979 0050 C8000000 		.4byte	.LBB36
 3980 0054 C8000000 		.4byte	.LBE36
 3981 0058 CC000000 		.4byte	.LBB40
 3982 005c D4000000 		.4byte	.LBE40
 3983 0060 D8000000 		.4byte	.LBB44
 3984 0064 E0000000 		.4byte	.LBE44
 3985 0068 00000000 		.4byte	0
 3986 006c 00000000 		.4byte	0
 3987 0070 D4000000 		.4byte	.LBB41
 3988 0074 D8000000 		.4byte	.LBE41
 3989 0078 E0000000 		.4byte	.LBB45
 3990 007c 18010000 		.4byte	.LBE45
ARM GAS  /var/folders/l5/0x54b2c10074c8bt31ycjvl80000gp/T//cc9SIASL.s 			page 71


 3991 0080 00000000 		.4byte	0
 3992 0084 00000000 		.4byte	0
 3993 0088 D4000000 		.4byte	.LBB42
 3994 008c D8000000 		.4byte	.LBE42
 3995 0090 E4000000 		.4byte	.LBB43
 3996 0094 18010000 		.4byte	.LBE43
 3997 0098 00000000 		.4byte	0
 3998 009c 00000000 		.4byte	0
 3999 00a0 18010000 		.4byte	.LBB46
 4000 00a4 18010000 		.4byte	.LBE46
 4001 00a8 1C010000 		.4byte	.LBB50
 4002 00ac 24010000 		.4byte	.LBE50
 4003 00b0 28010000 		.4byte	.LBB51
 4004 00b4 30010000 		.4byte	.LBE51
 4005 00b8 00000000 		.4byte	0
 4006 00bc 00000000 		.4byte	0
 4007 00c0 30010000 		.4byte	.LBB52
 4008 00c4 60010000 		.4byte	.LBE52
 4009 00c8 64010000 		.4byte	.LBB55
 4010 00cc 68010000 		.4byte	.LBE55
 4011 00d0 00000000 		.4byte	0
 4012 00d4 00000000 		.4byte	0
 4013 00d8 34010000 		.4byte	.LBB53
 4014 00dc 60010000 		.4byte	.LBE53
 4015 00e0 64010000 		.4byte	.LBB54
 4016 00e4 68010000 		.4byte	.LBE54
 4017 00e8 00000000 		.4byte	0
 4018 00ec 00000000 		.4byte	0
 4019 00f0 10000000 		.4byte	.LBB64
 4020 00f4 1C000000 		.4byte	.LBE64
 4021 00f8 20000000 		.4byte	.LBB67
 4022 00fc 30000000 		.4byte	.LBE67
 4023 0100 00000000 		.4byte	0
 4024 0104 00000000 		.4byte	0
 4025 0108 0C000000 		.4byte	.LBB70
 4026 010c 18000000 		.4byte	.LBE70
 4027 0110 1C000000 		.4byte	.LBB73
 4028 0114 2C000000 		.4byte	.LBE73
 4029 0118 00000000 		.4byte	0
 4030 011c 00000000 		.4byte	0
 4031 0120 5C000000 		.4byte	.LBB75
 4032 0124 60000000 		.4byte	.LBE75
 4033 0128 64000000 		.4byte	.LBB79
 4034 012c 68000000 		.4byte	.LBE79
 4035 0130 6C000000 		.4byte	.LBB80
 4036 0134 70000000 		.4byte	.LBE80
 4037 0138 00000000 		.4byte	0
 4038 013c 00000000 		.4byte	0
 4039 0140 58000000 		.4byte	.LBB82
 4040 0144 5C000000 		.4byte	.LBE82
 4041 0148 60000000 		.4byte	.LBB86
 4042 014c 64000000 		.4byte	.LBE86
 4043 0150 68000000 		.4byte	.LBB87
 4044 0154 6C000000 		.4byte	.LBE87
 4045 0158 00000000 		.4byte	0
 4046 015c 00000000 		.4byte	0
 4047 0160 1C000000 		.4byte	.LBB88
ARM GAS  /var/folders/l5/0x54b2c10074c8bt31ycjvl80000gp/T//cc9SIASL.s 			page 72


 4048 0164 20000000 		.4byte	.LBE88
 4049 0168 20000000 		.4byte	.LBB100
 4050 016c 64000000 		.4byte	.LBE100
 4051 0170 00000000 		.4byte	0
 4052 0174 00000000 		.4byte	0
 4053 0178 20000000 		.4byte	.LBB89
 4054 017c 20000000 		.4byte	.LBE89
 4055 0180 24000000 		.4byte	.LBB98
 4056 0184 24000000 		.4byte	.LBE98
 4057 0188 3C000000 		.4byte	.LBB99
 4058 018c 64000000 		.4byte	.LBE99
 4059 0190 00000000 		.4byte	0
 4060 0194 00000000 		.4byte	0
 4061 0198 20000000 		.4byte	.LBB90
 4062 019c 20000000 		.4byte	.LBE90
 4063 01a0 24000000 		.4byte	.LBB95
 4064 01a4 24000000 		.4byte	.LBE95
 4065 01a8 40000000 		.4byte	.LBB96
 4066 01ac 44000000 		.4byte	.LBE96
 4067 01b0 48000000 		.4byte	.LBB97
 4068 01b4 50000000 		.4byte	.LBE97
 4069 01b8 00000000 		.4byte	0
 4070 01bc 00000000 		.4byte	0
 4071 01c0 00000000 		.4byte	.LFB7
 4072 01c4 14000000 		.4byte	.LFE7
 4073 01c8 00000000 		.4byte	.LFB9
 4074 01cc 80010000 		.4byte	.LFE9
 4075 01d0 00000000 		.4byte	.LFB8
 4076 01d4 14000000 		.4byte	.LFE8
 4077 01d8 00000000 		.4byte	.LFB10
 4078 01dc 3C000000 		.4byte	.LFE10
 4079 01e0 00000000 		.4byte	.LFB11
 4080 01e4 34000000 		.4byte	.LFE11
 4081 01e8 00000000 		.4byte	.LFB12
 4082 01ec A0000000 		.4byte	.LFE12
 4083 01f0 00000000 		.4byte	.LFB13
 4084 01f4 98000000 		.4byte	.LFE13
 4085 01f8 00000000 		.4byte	.LFB14
 4086 01fc 84000000 		.4byte	.LFE14
 4087 0200 00000000 		.4byte	0
 4088 0204 00000000 		.4byte	0
 4089              		.section	.debug_line,"",%progbits
 4090              	.Ldebug_line0:
 4091 0000 DA070000 		.section	.debug_str,"MS",%progbits,1
 4091      03009401 
 4091      00000201 
 4091      FB0E0D00 
 4091      01010101 
 4092              	.LASF86:
 4093 0000 63665F6F 		.ascii	"cf_off_older\000"
 4093      66665F6F 
 4093      6C646572 
 4093      00
 4094              	.LASF39:
 4095 000d 705F6D73 		.ascii	"p_msg\000"
 4095      6700
 4096              	.LASF71:
ARM GAS  /var/folders/l5/0x54b2c10074c8bt31ycjvl80000gp/T//cc9SIASL.s 			page 73


 4097 0013 7264796D 		.ascii	"rdymsg\000"
 4097      736700
 4098              	.LASF4:
 4099 001a 5F5F7569 		.ascii	"__uint8_t\000"
 4099      6E74385F 
 4099      7400
 4100              	.LASF65:
 4101 0024 76746C69 		.ascii	"vtlist\000"
 4101      737400
 4102              	.LASF12:
 4103 002b 6C6F6E67 		.ascii	"long long unsigned int\000"
 4103      206C6F6E 
 4103      6720756E 
 4103      7369676E 
 4103      65642069 
 4104              	.LASF82:
 4105 0042 63685F74 		.ascii	"ch_threadsize\000"
 4105      68726561 
 4105      6473697A 
 4105      6500
 4106              	.LASF72:
 4107 0050 65786974 		.ascii	"exitcode\000"
 4107      636F6465 
 4107      00
 4108              	.LASF99:
 4109 0059 63684D74 		.ascii	"chMtxUnlock\000"
 4109      78556E6C 
 4109      6F636B00 
 4110              	.LASF28:
 4111 0065 705F7072 		.ascii	"p_prio\000"
 4111      696F00
 4112              	.LASF89:
 4113 006c 63665F6F 		.ascii	"cf_off_state\000"
 4113      66665F73 
 4113      74617465 
 4113      00
 4114              	.LASF11:
 4115 0079 6C6F6E67 		.ascii	"long long int\000"
 4115      206C6F6E 
 4115      6720696E 
 4115      7400
 4116              	.LASF1:
 4117 0087 7369676E 		.ascii	"signed char\000"
 4117      65642063 
 4117      68617200 
 4118              	.LASF88:
 4119 0093 63665F6F 		.ascii	"cf_off_stklimit\000"
 4119      66665F73 
 4119      746B6C69 
 4119      6D697400 
 4120              	.LASF90:
 4121 00a3 63665F6F 		.ascii	"cf_off_flags\000"
 4121      66665F66 
 4121      6C616773 
 4121      00
 4122              	.LASF17:
 4123 00b0 626F6F6C 		.ascii	"bool_t\000"
ARM GAS  /var/folders/l5/0x54b2c10074c8bt31ycjvl80000gp/T//cc9SIASL.s 			page 74


 4123      5F7400
 4124              	.LASF68:
 4125 00b7 6D5F7175 		.ascii	"m_queue\000"
 4125      65756500 
 4126              	.LASF76:
 4127 00bf 63685F69 		.ascii	"ch_identifier\000"
 4127      64656E74 
 4127      69666965 
 4127      7200
 4128              	.LASF8:
 4129 00cd 6C6F6E67 		.ascii	"long int\000"
 4129      20696E74 
 4129      00
 4130              	.LASF19:
 4131 00d6 74737461 		.ascii	"tstate_t\000"
 4131      74655F74 
 4131      00
 4132              	.LASF102:
 4133 00df 63684D74 		.ascii	"chMtxLockS\000"
 4133      784C6F63 
 4133      6B5300
 4134              	.LASF14:
 4135 00ea 75696E74 		.ascii	"uint16_t\000"
 4135      31365F74 
 4135      00
 4136              	.LASF94:
 4137 00f3 63686465 		.ascii	"chdebug_t\000"
 4137      6275675F 
 4137      7400
 4138              	.LASF114:
 4139 00fd 63684D74 		.ascii	"chMtxTryLockS\000"
 4139      78547279 
 4139      4C6F636B 
 4139      5300
 4140              	.LASF30:
 4141 010b 705F6E65 		.ascii	"p_newer\000"
 4141      77657200 
 4142              	.LASF96:
 4143 0113 5F69646C 		.ascii	"_idle_thread_wa\000"
 4143      655F7468 
 4143      72656164 
 4143      5F776100 
 4144              	.LASF108:
 4145 0123 63685363 		.ascii	"chSchRescheduleS\000"
 4145      68526573 
 4145      63686564 
 4145      756C6553 
 4145      00
 4146              	.LASF9:
 4147 0134 5F5F7569 		.ascii	"__uint32_t\000"
 4147      6E743332 
 4147      5F7400
 4148              	.LASF46:
 4149 013f 72656761 		.ascii	"regarm_t\000"
 4149      726D5F74 
 4149      00
 4150              	.LASF52:
ARM GAS  /var/folders/l5/0x54b2c10074c8bt31ycjvl80000gp/T//cc9SIASL.s 			page 75


 4151 0148 76745F70 		.ascii	"vt_prev\000"
 4151      72657600 
 4152              	.LASF98:
 4153 0150 63684D74 		.ascii	"chMtxUnlockS\000"
 4153      78556E6C 
 4153      6F636B53 
 4153      00
 4154              	.LASF0:
 4155 015d 756E7369 		.ascii	"unsigned int\000"
 4155      676E6564 
 4155      20696E74 
 4155      00
 4156              	.LASF51:
 4157 016a 76745F6E 		.ascii	"vt_next\000"
 4157      65787400 
 4158              	.LASF10:
 4159 0172 6C6F6E67 		.ascii	"long unsigned int\000"
 4159      20756E73 
 4159      69676E65 
 4159      6420696E 
 4159      7400
 4160              	.LASF95:
 4161 0184 63685F64 		.ascii	"ch_debug\000"
 4161      65627567 
 4161      00
 4162              	.LASF49:
 4163 018d 76746675 		.ascii	"vtfunc_t\000"
 4163      6E635F74 
 4163      00
 4164              	.LASF48:
 4165 0196 636F6E74 		.ascii	"context\000"
 4165      65787400 
 4166              	.LASF6:
 4167 019e 73686F72 		.ascii	"short unsigned int\000"
 4167      7420756E 
 4167      7369676E 
 4167      65642069 
 4167      6E7400
 4168              	.LASF109:
 4169 01b1 63685363 		.ascii	"chSchWakeupS\000"
 4169      6857616B 
 4169      65757053 
 4169      00
 4170              	.LASF22:
 4171 01be 6D73675F 		.ascii	"msg_t\000"
 4171      7400
 4172              	.LASF61:
 4173 01c4 725F6E65 		.ascii	"r_newer\000"
 4173      77657200 
 4174              	.LASF111:
 4175 01cc 474E5520 		.ascii	"GNU C17 8.3.1 20190703 (release) [gcc-8-branch revi"
 4175      43313720 
 4175      382E332E 
 4175      31203230 
 4175      31393037 
 4176 01ff 73696F6E 		.ascii	"sion 273027] -mcpu=arm1176jz-s -mno-thumb-interwork"
 4176      20323733 
ARM GAS  /var/folders/l5/0x54b2c10074c8bt31ycjvl80000gp/T//cc9SIASL.s 			page 76


 4176      3032375D 
 4176      202D6D63 
 4176      70753D61 
 4177 0232 202D6D66 		.ascii	" -mfloat-abi=soft -marm -march=armv6kz -ggdb -O2 -f"
 4177      6C6F6174 
 4177      2D616269 
 4177      3D736F66 
 4177      74202D6D 
 4178 0265 6F6D6974 		.ascii	"omit-frame-pointer -ffunction-sections -fdata-secti"
 4178      2D667261 
 4178      6D652D70 
 4178      6F696E74 
 4178      6572202D 
 4179 0298 6F6E7300 		.ascii	"ons\000"
 4180              	.LASF101:
 4181 029c 63684D74 		.ascii	"chMtxUnlockAll\000"
 4181      78556E6C 
 4181      6F636B41 
 4181      6C6C00
 4182              	.LASF97:
 4183 02ab 6E657770 		.ascii	"newprio\000"
 4183      72696F00 
 4184              	.LASF18:
 4185 02b3 746D6F64 		.ascii	"tmode_t\000"
 4185      655F7400 
 4186              	.LASF44:
 4187 02bb 54687265 		.ascii	"ThreadsList\000"
 4187      6164734C 
 4187      69737400 
 4188              	.LASF23:
 4189 02c7 6576656E 		.ascii	"eventmask_t\000"
 4189      746D6173 
 4189      6B5F7400 
 4190              	.LASF100:
 4191 02d3 63684D74 		.ascii	"chMtxTryLock\000"
 4191      78547279 
 4191      4C6F636B 
 4191      00
 4192              	.LASF67:
 4193 02e0 4D757465 		.ascii	"Mutex\000"
 4193      7800
 4194              	.LASF45:
 4195 02e6 73746B61 		.ascii	"stkalign_t\000"
 4195      6C69676E 
 4195      5F7400
 4196              	.LASF77:
 4197 02f1 63685F7A 		.ascii	"ch_zero\000"
 4197      65726F00 
 4198              	.LASF91:
 4199 02f9 63665F6F 		.ascii	"cf_off_refs\000"
 4199      66665F72 
 4199      65667300 
 4200              	.LASF53:
 4201 0305 76745F74 		.ascii	"vt_time\000"
 4201      696D6500 
 4202              	.LASF54:
 4203 030d 76745F66 		.ascii	"vt_func\000"
ARM GAS  /var/folders/l5/0x54b2c10074c8bt31ycjvl80000gp/T//cc9SIASL.s 			page 77


 4203      756E6300 
 4204              	.LASF81:
 4205 0315 63685F74 		.ascii	"ch_timesize\000"
 4205      696D6573 
 4205      697A6500 
 4206              	.LASF87:
 4207 0321 63665F6F 		.ascii	"cf_off_name\000"
 4207      66665F6E 
 4207      616D6500 
 4208              	.LASF103:
 4209 032d 63684D74 		.ascii	"chMtxLock\000"
 4209      784C6F63 
 4209      6B00
 4210              	.LASF31:
 4211 0337 705F6F6C 		.ascii	"p_older\000"
 4211      64657200 
 4212              	.LASF60:
 4213 033f 725F6374 		.ascii	"r_ctx\000"
 4213      7800
 4214              	.LASF43:
 4215 0345 54687265 		.ascii	"ThreadsQueue\000"
 4215      61647351 
 4215      75657565 
 4215      00
 4216              	.LASF78:
 4217 0352 63685F73 		.ascii	"ch_size\000"
 4217      697A6500 
 4218              	.LASF105:
 4219 035a 64657175 		.ascii	"dequeue\000"
 4219      65756500 
 4220              	.LASF63:
 4221 0362 725F6375 		.ascii	"r_current\000"
 4221      7272656E 
 4221      7400
 4222              	.LASF62:
 4223 036c 725F6F6C 		.ascii	"r_older\000"
 4223      64657200 
 4224              	.LASF20:
 4225 0374 74726566 		.ascii	"trefs_t\000"
 4225      735F7400 
 4226              	.LASF80:
 4227 037c 63685F70 		.ascii	"ch_ptrsize\000"
 4227      74727369 
 4227      7A6500
 4228              	.LASF27:
 4229 0387 705F7072 		.ascii	"p_prev\000"
 4229      657600
 4230              	.LASF21:
 4231 038e 74707269 		.ascii	"tprio_t\000"
 4231      6F5F7400 
 4232              	.LASF15:
 4233 0396 696E7433 		.ascii	"int32_t\000"
 4233      325F7400 
 4234              	.LASF2:
 4235 039e 756E7369 		.ascii	"unsigned char\000"
 4235      676E6564 
 4235      20636861 
ARM GAS  /var/folders/l5/0x54b2c10074c8bt31ycjvl80000gp/T//cc9SIASL.s 			page 78


 4235      7200
 4236              	.LASF41:
 4237 03ac 705F6D74 		.ascii	"p_mtxlist\000"
 4237      786C6973 
 4237      7400
 4238              	.LASF3:
 4239 03b6 73686F72 		.ascii	"short int\000"
 4239      7420696E 
 4239      7400
 4240              	.LASF33:
 4241 03c0 705F7374 		.ascii	"p_state\000"
 4241      61746500 
 4242              	.LASF93:
 4243 03c8 63665F6F 		.ascii	"cf_off_time\000"
 4243      66665F74 
 4243      696D6500 
 4244              	.LASF59:
 4245 03d4 725F7072 		.ascii	"r_prio\000"
 4245      696F00
 4246              	.LASF74:
 4247 03db 65776D61 		.ascii	"ewmask\000"
 4247      736B00
 4248              	.LASF26:
 4249 03e2 705F6E65 		.ascii	"p_next\000"
 4249      787400
 4250              	.LASF92:
 4251 03e9 63665F6F 		.ascii	"cf_off_preempt\000"
 4251      66665F70 
 4251      7265656D 
 4251      707400
 4252              	.LASF34:
 4253 03f8 705F666C 		.ascii	"p_flags\000"
 4253      61677300 
 4254              	.LASF25:
 4255 0400 54687265 		.ascii	"Thread\000"
 4255      616400
 4256              	.LASF85:
 4257 0407 63665F6F 		.ascii	"cf_off_newer\000"
 4257      66665F6E 
 4257      65776572 
 4257      00
 4258              	.LASF110:
 4259 0414 63685363 		.ascii	"chSchGoSleepS\000"
 4259      68476F53 
 4259      6C656570 
 4259      5300
 4260              	.LASF40:
 4261 0422 705F6570 		.ascii	"p_epending\000"
 4261      656E6469 
 4261      6E6700
 4262              	.LASF16:
 4263 042d 75696E74 		.ascii	"uint32_t\000"
 4263      33325F74 
 4263      00
 4264              	.LASF83:
 4265 0436 63665F6F 		.ascii	"cf_off_prio\000"
 4265      66665F70 
ARM GAS  /var/folders/l5/0x54b2c10074c8bt31ycjvl80000gp/T//cc9SIASL.s 			page 79


 4265      72696F00 
 4266              	.LASF58:
 4267 0442 725F7175 		.ascii	"r_queue\000"
 4267      65756500 
 4268              	.LASF50:
 4269 044a 56697274 		.ascii	"VirtualTimer\000"
 4269      75616C54 
 4269      696D6572 
 4269      00
 4270              	.LASF75:
 4271 0457 63686172 		.ascii	"char\000"
 4271      00
 4272              	.LASF106:
 4273 045c 6669666F 		.ascii	"fifo_remove\000"
 4273      5F72656D 
 4273      6F766500 
 4274              	.LASF112:
 4275 0468 2E2E2F2E 		.ascii	"../../os/kernel/src/chmtx.c\000"
 4275      2E2F6F73 
 4275      2F6B6572 
 4275      6E656C2F 
 4275      7372632F 
 4276              	.LASF5:
 4277 0484 5F5F7569 		.ascii	"__uint16_t\000"
 4277      6E743136 
 4277      5F7400
 4278              	.LASF107:
 4279 048f 63685363 		.ascii	"chSchReadyI\000"
 4279      68526561 
 4279      64794900 
 4280              	.LASF70:
 4281 049b 6D5F6E65 		.ascii	"m_next\000"
 4281      787400
 4282              	.LASF24:
 4283 04a2 73797374 		.ascii	"systime_t\000"
 4283      696D655F 
 4283      7400
 4284              	.LASF42:
 4285 04ac 705F7265 		.ascii	"p_realprio\000"
 4285      616C7072 
 4285      696F00
 4286              	.LASF7:
 4287 04b7 5F5F696E 		.ascii	"__int32_t\000"
 4287      7433325F 
 4287      7400
 4288              	.LASF115:
 4289 04c1 7072696F 		.ascii	"prio_insert\000"
 4289      5F696E73 
 4289      65727400 
 4290              	.LASF36:
 4291 04cd 705F7469 		.ascii	"p_time\000"
 4291      6D6500
 4292              	.LASF47:
 4293 04d4 696E7463 		.ascii	"intctx\000"
 4293      747800
 4294              	.LASF38:
 4295 04db 705F6D73 		.ascii	"p_msgqueue\000"
ARM GAS  /var/folders/l5/0x54b2c10074c8bt31ycjvl80000gp/T//cc9SIASL.s 			page 80


 4295      67717565 
 4295      756500
 4296              	.LASF55:
 4297 04e6 76745F70 		.ascii	"vt_par\000"
 4297      617200
 4298              	.LASF104:
 4299 04ed 63684D74 		.ascii	"chMtxInit\000"
 4299      78496E69 
 4299      7400
 4300              	.LASF84:
 4301 04f7 63665F6F 		.ascii	"cf_off_ctx\000"
 4301      66665F63 
 4301      747800
 4302              	.LASF35:
 4303 0502 705F7265 		.ascii	"p_refs\000"
 4303      667300
 4304              	.LASF64:
 4305 0509 52656164 		.ascii	"ReadyList\000"
 4305      794C6973 
 4305      7400
 4306              	.LASF66:
 4307 0513 726C6973 		.ascii	"rlist\000"
 4307      7400
 4308              	.LASF13:
 4309 0519 75696E74 		.ascii	"uint8_t\000"
 4309      385F7400 
 4310              	.LASF73:
 4311 0521 77746F62 		.ascii	"wtobjp\000"
 4311      6A7000
 4312              	.LASF32:
 4313 0528 705F6E61 		.ascii	"p_name\000"
 4313      6D6500
 4314              	.LASF56:
 4315 052f 76745F73 		.ascii	"vt_systime\000"
 4315      79737469 
 4315      6D6500
 4316              	.LASF79:
 4317 053a 63685F76 		.ascii	"ch_version\000"
 4317      65727369 
 4317      6F6E00
 4318              	.LASF113:
 4319 0545 2F557365 		.ascii	"/Users/fernandoguirado/eclipse-workspace/ChibiOS-RP"
 4319      72732F66 
 4319      65726E61 
 4319      6E646F67 
 4319      75697261 
 4320 0578 692D636F 		.ascii	"i-copia/demos/timers\000"
 4320      7069612F 
 4320      64656D6F 
 4320      732F7469 
 4320      6D657273 
 4321              	.LASF57:
 4322 058d 56544C69 		.ascii	"VTList\000"
 4322      737400
 4323              	.LASF69:
 4324 0594 6D5F6F77 		.ascii	"m_owner\000"
 4324      6E657200 
ARM GAS  /var/folders/l5/0x54b2c10074c8bt31ycjvl80000gp/T//cc9SIASL.s 			page 81


 4325              	.LASF29:
 4326 059c 705F6374 		.ascii	"p_ctx\000"
 4326      7800
 4327              	.LASF37:
 4328 05a2 705F7761 		.ascii	"p_waiting\000"
 4328      6974696E 
 4328      6700
 4329              		.ident	"GCC: (GNU Tools for Arm Embedded Processors 8-2019-q3-update) 8.3.1 20190703 (release) [gc
ARM GAS  /var/folders/l5/0x54b2c10074c8bt31ycjvl80000gp/T//cc9SIASL.s 			page 82


DEFINED SYMBOLS
                            *ABS*:0000000000000000 chmtx.c
/var/folders/l5/0x54b2c10074c8bt31ycjvl80000gp/T//cc9SIASL.s:16     .text.chMtxInit:0000000000000000 $a
/var/folders/l5/0x54b2c10074c8bt31ycjvl80000gp/T//cc9SIASL.s:23     .text.chMtxInit:0000000000000000 chMtxInit
/var/folders/l5/0x54b2c10074c8bt31ycjvl80000gp/T//cc9SIASL.s:50     .text.chMtxLockS:0000000000000000 $a
/var/folders/l5/0x54b2c10074c8bt31ycjvl80000gp/T//cc9SIASL.s:56     .text.chMtxLockS:0000000000000000 chMtxLockS
/var/folders/l5/0x54b2c10074c8bt31ycjvl80000gp/T//cc9SIASL.s:415    .text.chMtxLockS:000000000000017c $d
/var/folders/l5/0x54b2c10074c8bt31ycjvl80000gp/T//cc9SIASL.s:421    .text.chMtxLock:0000000000000000 $a
/var/folders/l5/0x54b2c10074c8bt31ycjvl80000gp/T//cc9SIASL.s:427    .text.chMtxLock:0000000000000000 chMtxLock
/var/folders/l5/0x54b2c10074c8bt31ycjvl80000gp/T//cc9SIASL.s:467    .text.chMtxTryLock:0000000000000000 $a
/var/folders/l5/0x54b2c10074c8bt31ycjvl80000gp/T//cc9SIASL.s:473    .text.chMtxTryLock:0000000000000000 chMtxTryLock
/var/folders/l5/0x54b2c10074c8bt31ycjvl80000gp/T//cc9SIASL.s:559    .text.chMtxTryLock:0000000000000038 $d
/var/folders/l5/0x54b2c10074c8bt31ycjvl80000gp/T//cc9SIASL.s:564    .text.chMtxTryLockS:0000000000000000 $a
/var/folders/l5/0x54b2c10074c8bt31ycjvl80000gp/T//cc9SIASL.s:570    .text.chMtxTryLockS:0000000000000000 chMtxTryLockS
/var/folders/l5/0x54b2c10074c8bt31ycjvl80000gp/T//cc9SIASL.s:627    .text.chMtxTryLockS:0000000000000030 $d
/var/folders/l5/0x54b2c10074c8bt31ycjvl80000gp/T//cc9SIASL.s:632    .text.chMtxUnlock:0000000000000000 $a
/var/folders/l5/0x54b2c10074c8bt31ycjvl80000gp/T//cc9SIASL.s:638    .text.chMtxUnlock:0000000000000000 chMtxUnlock
/var/folders/l5/0x54b2c10074c8bt31ycjvl80000gp/T//cc9SIASL.s:795    .text.chMtxUnlock:000000000000009c $d
/var/folders/l5/0x54b2c10074c8bt31ycjvl80000gp/T//cc9SIASL.s:800    .text.chMtxUnlockS:0000000000000000 $a
/var/folders/l5/0x54b2c10074c8bt31ycjvl80000gp/T//cc9SIASL.s:806    .text.chMtxUnlockS:0000000000000000 chMtxUnlockS
/var/folders/l5/0x54b2c10074c8bt31ycjvl80000gp/T//cc9SIASL.s:948    .text.chMtxUnlockS:0000000000000094 $d
/var/folders/l5/0x54b2c10074c8bt31ycjvl80000gp/T//cc9SIASL.s:953    .text.chMtxUnlockAll:0000000000000000 $a
/var/folders/l5/0x54b2c10074c8bt31ycjvl80000gp/T//cc9SIASL.s:959    .text.chMtxUnlockAll:0000000000000000 chMtxUnlockAll
/var/folders/l5/0x54b2c10074c8bt31ycjvl80000gp/T//cc9SIASL.s:1104   .text.chMtxUnlockAll:0000000000000080 $d

UNDEFINED SYMBOLS
chSchGoSleepS
chSchReadyI
rlist
chSchWakeupS
chSchRescheduleS
