ARM GAS  /var/folders/l5/0x54b2c10074c8bt31ycjvl80000gp/T//ccD6aAL0.s 			page 1


   1              		.cpu arm1176jz-s
   2              		.eabi_attribute 20, 1
   3              		.eabi_attribute 21, 1
   4              		.eabi_attribute 23, 3
   5              		.eabi_attribute 24, 1
   6              		.eabi_attribute 25, 1
   7              		.eabi_attribute 26, 1
   8              		.eabi_attribute 30, 2
   9              		.eabi_attribute 34, 1
  10              		.eabi_attribute 18, 4
  11              		.file	"chprintf.c"
  12              		.text
  13              	.Ltext0:
  14              		.cfi_sections	.debug_frame
  15              		.global	__aeabi_d2f
  16              		.global	__aeabi_fcmplt
  17              		.global	__aeabi_f2d
  18              		.global	__aeabi_f2iz
  19              		.global	__aeabi_i2d
  20              		.global	__aeabi_dsub
  21              		.global	__aeabi_dmul
  22              		.global	__aeabi_d2iz
  23              		.global	__aeabi_uidivmod
  24              		.section	.text.chprintf,"ax",%progbits
  25              		.align	2
  26              		.global	chprintf
  27              		.arch armv6kz
  28              		.syntax unified
  29              		.arm
  30              		.fpu softvfp
  31              		.type	chprintf, %function
  32              	chprintf:
  33              	.LVL0:
  34              	.LFB10:
  35              		.file 1 "../../os/various/chprintf.c"
  36              		.loc 1 112 64 view -0
  37              		.cfi_startproc
  38              		@ args = 4, pretend = 12, frame = 40
  39              		@ frame_needed = 0, uses_anonymous_args = 1
  40              		.loc 1 113 3 view .LVU1
  41              		.loc 1 114 3 view .LVU2
  42              		.loc 1 115 3 view .LVU3
  43              		.loc 1 116 3 view .LVU4
  44              		.loc 1 117 3 view .LVU5
  45              		.loc 1 119 3 view .LVU6
  46              		.loc 1 120 3 view .LVU7
  47              		.loc 1 125 3 view .LVU8
  48              		.loc 1 112 64 is_stmt 0 view .LVU9
  49 0000 0E002DE9 		push	{r1, r2, r3}
  50              		.cfi_def_cfa_offset 12
  51              		.cfi_offset 1, -12
  52              		.cfi_offset 2, -8
  53              		.cfi_offset 3, -4
  54 0004 F04F2DE9 		push	{r4, r5, r6, r7, r8, r9, r10, fp, lr}
  55              		.cfi_def_cfa_offset 48
  56              		.cfi_offset 4, -48
  57              		.cfi_offset 5, -44
ARM GAS  /var/folders/l5/0x54b2c10074c8bt31ycjvl80000gp/T//ccD6aAL0.s 			page 2


  58              		.cfi_offset 6, -40
  59              		.cfi_offset 7, -36
  60              		.cfi_offset 8, -32
  61              		.cfi_offset 9, -28
  62              		.cfi_offset 10, -24
  63              		.cfi_offset 11, -20
  64              		.cfi_offset 14, -16
  65 0008 0050A0E1 		mov	r5, r0
  66 000c 28D04DE2 		sub	sp, sp, #40
  67              		.cfi_def_cfa_offset 88
  68              		.loc 1 125 3 view .LVU10
  69 0010 50308DE2 		add	r3, sp, #80
  70              		.loc 1 112 64 view .LVU11
  71 0014 4CA09DE5 		ldr	r10, [sp, #76]
  72              		.loc 1 125 3 view .LVU12
  73 0018 0C308DE5 		str	r3, [sp, #12]
  74              	.LVL1:
  75              	.L2:
  76              		.loc 1 126 3 is_stmt 1 view .LVU13
  77              		.loc 1 127 5 view .LVU14
  78              		.loc 1 127 13 is_stmt 0 view .LVU15
  79 001c 0A20A0E1 		mov	r2, r10
  80              		.loc 1 127 7 view .LVU16
  81 0020 0110D2E4 		ldrb	r1, [r2], #1	@ zero_extendqisi2
  82              	.LVL2:
  83              		.loc 1 128 5 is_stmt 1 view .LVU17
  84              		.loc 1 128 8 is_stmt 0 view .LVU18
  85 0024 000051E3 		cmp	r1, #0
  86 0028 0A00000A 		beq	.L110
  87              	.L119:
  88              		.loc 1 132 5 is_stmt 1 view .LVU19
  89              		.loc 1 132 8 is_stmt 0 view .LVU20
  90 002c 250051E3 		cmp	r1, #37
  91 0030 0C00000A 		beq	.L4
  92              		.loc 1 133 7 is_stmt 1 view .LVU21
  93              		.loc 1 127 13 is_stmt 0 view .LVU22
  94 0034 02A0A0E1 		mov	r10, r2
  95              	.LVL3:
  96              		.loc 1 133 7 view .LVU23
  97 0038 003095E5 		ldr	r3, [r5]
  98 003c 0500A0E1 		mov	r0, r5
  99 0040 083093E5 		ldr	r3, [r3, #8]
 100 0044 33FF2FE1 		blx	r3
 101              	.LVL4:
 102              		.loc 1 134 7 is_stmt 1 view .LVU24
 103              		.loc 1 126 3 view .LVU25
 104              		.loc 1 127 5 view .LVU26
 105              		.loc 1 127 13 is_stmt 0 view .LVU27
 106 0048 0A20A0E1 		mov	r2, r10
 107              		.loc 1 127 7 view .LVU28
 108 004c 0110D2E4 		ldrb	r1, [r2], #1	@ zero_extendqisi2
 109              	.LVL5:
 110              		.loc 1 128 5 is_stmt 1 view .LVU29
 111              		.loc 1 128 8 is_stmt 0 view .LVU30
 112 0050 000051E3 		cmp	r1, #0
 113 0054 F4FFFF1A 		bne	.L119
 114              	.L110:
ARM GAS  /var/folders/l5/0x54b2c10074c8bt31ycjvl80000gp/T//ccD6aAL0.s 			page 3


 115              		.loc 1 263 1 view .LVU31
 116 0058 28D08DE2 		add	sp, sp, #40
 117              		.cfi_remember_state
 118              		.cfi_def_cfa_offset 48
 119              		@ sp needed
 120 005c F04FBDE8 		pop	{r4, r5, r6, r7, r8, r9, r10, fp, lr}
 121              		.cfi_restore 14
 122              		.cfi_restore 11
 123              		.cfi_restore 10
 124              		.cfi_restore 9
 125              		.cfi_restore 8
 126              		.cfi_restore 7
 127              		.cfi_restore 6
 128              		.cfi_restore 5
 129              		.cfi_restore 4
 130              		.cfi_def_cfa_offset 12
 131              	.LVL6:
 132              		.loc 1 263 1 view .LVU32
 133 0060 0CD08DE2 		add	sp, sp, #12
 134              		.cfi_restore 3
 135              		.cfi_restore 2
 136              		.cfi_restore 1
 137              		.cfi_def_cfa_offset 0
 138 0064 1EFF2FE1 		bx	lr
 139              	.LVL7:
 140              	.L4:
 141              		.cfi_restore_state
 142              		.loc 1 136 5 is_stmt 1 view .LVU33
 143              		.loc 1 137 5 view .LVU34
 144              		.loc 1 138 5 view .LVU35
 145              		.loc 1 139 5 view .LVU36
 146              		.loc 1 143 12 is_stmt 0 view .LVU37
 147 0068 00C0A0E3 		mov	ip, #0
 148              		.loc 1 139 9 view .LVU38
 149 006c 0110DAE5 		ldrb	r1, [r10, #1]	@ zero_extendqisi2
 150              	.LVL8:
 151              		.loc 1 148 11 view .LVU39
 152 0070 0C40A0E1 		mov	r4, ip
 153              		.loc 1 139 8 view .LVU40
 154 0074 2D0051E3 		cmp	r1, #45
 155              		.loc 1 140 7 is_stmt 1 view .LVU41
 156 0078 0210DA05 		ldrbeq	r1, [r10, #2]	@ zero_extendqisi2
 157              		.loc 1 140 10 is_stmt 0 view .LVU42
 158 007c 02208A02 		addeq	r2, r10, #2
 159              	.LVL9:
 160              		.loc 1 141 7 is_stmt 1 view .LVU43
 161              		.loc 1 141 18 is_stmt 0 view .LVU44
 162 0080 0180A003 		moveq	r8, #1
 163              		.loc 1 138 16 view .LVU45
 164 0084 0080A013 		movne	r8, #0
 165              	.LVL10:
 166              		.loc 1 143 5 is_stmt 1 view .LVU46
 167              		.loc 1 144 5 view .LVU47
 168              		.loc 1 145 7 view .LVU48
 169              		.loc 1 146 7 view .LVU49
 170              		.loc 1 144 8 is_stmt 0 view .LVU50
 171 0088 2E0051E3 		cmp	r1, #46
ARM GAS  /var/folders/l5/0x54b2c10074c8bt31ycjvl80000gp/T//ccD6aAL0.s 			page 4


 172 008c 0110D205 		ldrbeq	r1, [r2, #1]	@ zero_extendqisi2
 173              		.loc 1 145 10 view .LVU51
 174 0090 01208202 		addeq	r2, r2, #1
 175              	.LVL11:
 176              		.loc 1 146 14 view .LVU52
 177 0094 3070A003 		moveq	r7, #48
 178              		.loc 1 143 12 view .LVU53
 179 0098 2070A013 		movne	r7, #32
 180              	.LVL12:
 181              		.loc 1 148 5 is_stmt 1 view .LVU54
 182              		.loc 1 148 5 is_stmt 0 view .LVU55
 183 009c 0C009DE5 		ldr	r0, [sp, #12]
 184 00a0 012082E2 		add	r2, r2, #1
 185              	.LVL13:
 186              		.loc 1 148 5 view .LVU56
 187 00a4 040000EA 		b	.L10
 188              	.LVL14:
 189              	.L120:
 190              		.loc 1 154 11 view .LVU57
 191 00a8 01C0A0E3 		mov	ip, #1
 192 00ac 043090E4 		ldr	r3, [r0], #4
 193 00b0 7330EFE6 		uxtb	r3, r3
 194              	.LVL15:
 195              	.L8:
 196              		.loc 1 157 7 is_stmt 1 view .LVU58
 197 00b4 0110D2E4 		ldrb	r1, [r2], #1	@ zero_extendqisi2
 198              	.LVL16:
 199              		.loc 1 157 13 is_stmt 0 view .LVU59
 200 00b8 8E4083E0 		add	r4, r3, lr, lsl #1
 201              	.LVL17:
 202              	.L10:
 203              		.loc 1 149 5 is_stmt 1 view .LVU60
 204              		.loc 1 150 7 view .LVU61
 205              		.loc 1 153 12 view .LVU62
 206              		.loc 1 154 9 view .LVU63
 207              		.loc 1 151 20 is_stmt 0 view .LVU64
 208 00bc 303041E2 		sub	r3, r1, #48
 209 00c0 7330EFE6 		uxtb	r3, r3
 210              		.loc 1 151 10 view .LVU65
 211 00c4 090053E3 		cmp	r3, #9
 212              		.loc 1 157 21 view .LVU66
 213 00c8 04E184E0 		add	lr, r4, r4, lsl #2
 214              		.loc 1 150 15 view .LVU67
 215 00cc 02A0A0E1 		mov	r10, r2
 216              	.LVL18:
 217              		.loc 1 151 7 is_stmt 1 view .LVU68
 218              		.loc 1 151 10 is_stmt 0 view .LVU69
 219 00d0 F7FFFF9A 		bls	.L8
 220              		.loc 1 153 15 view .LVU70
 221 00d4 2A0051E3 		cmp	r1, #42
 222 00d8 F2FFFF0A 		beq	.L120
 223 00dc 00005CE3 		cmp	ip, #0
 224 00e0 0C008D15 		strne	r0, [sp, #12]
 225              	.LVL19:
 226              		.loc 1 159 5 is_stmt 1 view .LVU71
 227              		.loc 1 160 5 view .LVU72
 228              		.loc 1 160 8 is_stmt 0 view .LVU73
ARM GAS  /var/folders/l5/0x54b2c10074c8bt31ycjvl80000gp/T//ccD6aAL0.s 			page 5


 229 00e4 2E0051E3 		cmp	r1, #46
 230              		.loc 1 159 15 view .LVU74
 231 00e8 0000A013 		movne	r0, #0
 232              		.loc 1 160 8 view .LVU75
 233 00ec 3201000A 		beq	.L121
 234              	.LVL20:
 235              	.L12:
 236              		.loc 1 174 5 is_stmt 1 view .LVU76
 237              		.loc 1 174 8 is_stmt 0 view .LVU77
 238 00f0 DF3001E2 		and	r3, r1, #223
 239 00f4 4C0053E3 		cmp	r3, #76
 240 00f8 3C00001A 		bne	.L17
 241              		.loc 1 175 7 is_stmt 1 view .LVU78
 242              	.LVL21:
 243              		.loc 1 176 7 view .LVU79
 244              		.loc 1 176 11 is_stmt 0 view .LVU80
 245 00fc 0030DAE5 		ldrb	r3, [r10]	@ zero_extendqisi2
 246              		.loc 1 176 10 view .LVU81
 247 0100 000053E3 		cmp	r3, #0
 248 0104 0310A011 		movne	r1, r3
 249              	.LVL22:
 250              		.loc 1 183 5 view .LVU82
 251 0108 443041E2 		sub	r3, r1, #68
 252 010c 01A08A12 		addne	r10, r10, #1
 253              	.LVL23:
 254              		.loc 1 183 5 is_stmt 1 view .LVU83
 255 0110 340053E3 		cmp	r3, #52
 256 0114 03F19F97 		ldrls	pc, [pc, r3, asl #2]
 257 0118 1B0100EA 		b	.L19
 258              	.L69:
 259 011c 7C060000 		.word	.L93
 260 0120 8C050000 		.word	.L19
 261 0124 8C050000 		.word	.L19
 262 0128 8C050000 		.word	.L19
 263 012c 8C050000 		.word	.L19
 264 0130 8C050000 		.word	.L19
 265 0134 8C050000 		.word	.L19
 266 0138 8C050000 		.word	.L19
 267 013c 8C050000 		.word	.L19
 268 0140 8C050000 		.word	.L19
 269 0144 8C050000 		.word	.L19
 270 0148 14070000 		.word	.L70
 271 014c 8C050000 		.word	.L19
 272 0150 8C050000 		.word	.L19
 273 0154 8C050000 		.word	.L19
 274 0158 8C050000 		.word	.L19
 275 015c 8C050000 		.word	.L19
 276 0160 04070000 		.word	.L49
 277 0164 8C050000 		.word	.L19
 278 0168 8C050000 		.word	.L19
 279 016c 24070000 		.word	.L68
 280 0170 8C050000 		.word	.L19
 281 0174 8C050000 		.word	.L19
 282 0178 8C050000 		.word	.L19
 283 017c 8C050000 		.word	.L19
 284 0180 8C050000 		.word	.L19
 285 0184 8C050000 		.word	.L19
ARM GAS  /var/folders/l5/0x54b2c10074c8bt31ycjvl80000gp/T//ccD6aAL0.s 			page 6


 286 0188 8C050000 		.word	.L19
 287 018c 8C050000 		.word	.L19
 288 0190 8C050000 		.word	.L19
 289 0194 8C050000 		.word	.L19
 290 0198 64050000 		.word	.L27
 291 019c 7C060000 		.word	.L93
 292 01a0 8C050000 		.word	.L19
 293 01a4 5C030000 		.word	.L25
 294 01a8 8C050000 		.word	.L19
 295 01ac 8C050000 		.word	.L19
 296 01b0 8C050000 		.word	.L19
 297 01b4 8C050000 		.word	.L19
 298 01b8 8C050000 		.word	.L19
 299 01bc 8C050000 		.word	.L19
 300 01c0 8C050000 		.word	.L19
 301 01c4 8C050000 		.word	.L19
 302 01c8 14070000 		.word	.L70
 303 01cc 8C050000 		.word	.L19
 304 01d0 8C050000 		.word	.L19
 305 01d4 8C050000 		.word	.L19
 306 01d8 DC020000 		.word	.L23
 307 01dc 8C050000 		.word	.L19
 308 01e0 04070000 		.word	.L49
 309 01e4 8C050000 		.word	.L19
 310 01e8 8C050000 		.word	.L19
 311 01ec 24070000 		.word	.L68
 312              	.LVL24:
 313              	.L17:
 314              		.loc 1 180 7 view .LVU84
 315              		.loc 1 180 28 is_stmt 0 view .LVU85
 316 01f0 413041E2 		sub	r3, r1, #65
 317              		.loc 1 183 5 view .LVU86
 318 01f4 442041E2 		sub	r2, r1, #68
 319              		.loc 1 180 28 view .LVU87
 320 01f8 7330EFE6 		uxtb	r3, r3
 321              	.LVL25:
 322              		.loc 1 183 5 is_stmt 1 view .LVU88
 323 01fc 340052E3 		cmp	r2, #52
 324 0200 02F19F97 		ldrls	pc, [pc, r2, asl #2]
 325 0204 E00000EA 		b	.L19
 326              	.L21:
 327 0208 34070000 		.word	.L26
 328 020c 8C050000 		.word	.L19
 329 0210 8C050000 		.word	.L19
 330 0214 8C050000 		.word	.L19
 331 0218 8C050000 		.word	.L19
 332 021c 8C050000 		.word	.L19
 333 0220 8C050000 		.word	.L19
 334 0224 8C050000 		.word	.L19
 335 0228 8C050000 		.word	.L19
 336 022c 8C050000 		.word	.L19
 337 0230 8C050000 		.word	.L19
 338 0234 50070000 		.word	.L24
 339 0238 8C050000 		.word	.L19
 340 023c 8C050000 		.word	.L19
 341 0240 8C050000 		.word	.L19
 342 0244 8C050000 		.word	.L19
ARM GAS  /var/folders/l5/0x54b2c10074c8bt31ycjvl80000gp/T//ccD6aAL0.s 			page 7


 343 0248 8C050000 		.word	.L19
 344 024c 08060000 		.word	.L78
 345 0250 8C050000 		.word	.L19
 346 0254 8C050000 		.word	.L19
 347 0258 58070000 		.word	.L20
 348 025c 8C050000 		.word	.L19
 349 0260 8C050000 		.word	.L19
 350 0264 8C050000 		.word	.L19
 351 0268 8C050000 		.word	.L19
 352 026c 8C050000 		.word	.L19
 353 0270 8C050000 		.word	.L19
 354 0274 8C050000 		.word	.L19
 355 0278 8C050000 		.word	.L19
 356 027c 8C050000 		.word	.L19
 357 0280 8C050000 		.word	.L19
 358 0284 64050000 		.word	.L27
 359 0288 34070000 		.word	.L26
 360 028c 8C050000 		.word	.L19
 361 0290 5C030000 		.word	.L25
 362 0294 8C050000 		.word	.L19
 363 0298 8C050000 		.word	.L19
 364 029c 8C050000 		.word	.L19
 365 02a0 8C050000 		.word	.L19
 366 02a4 8C050000 		.word	.L19
 367 02a8 8C050000 		.word	.L19
 368 02ac 8C050000 		.word	.L19
 369 02b0 8C050000 		.word	.L19
 370 02b4 50070000 		.word	.L24
 371 02b8 8C050000 		.word	.L19
 372 02bc 8C050000 		.word	.L19
 373 02c0 8C050000 		.word	.L19
 374 02c4 DC020000 		.word	.L23
 375 02c8 8C050000 		.word	.L19
 376 02cc 08060000 		.word	.L78
 377 02d0 8C050000 		.word	.L19
 378 02d4 8C050000 		.word	.L19
 379 02d8 58070000 		.word	.L20
 380              	.LVL26:
 381              	.L23:
 382              		.loc 1 189 7 view .LVU89
 383              		.loc 1 190 7 view .LVU90
 384              		.loc 1 190 14 is_stmt 0 view .LVU91
 385 02dc 0C309DE5 		ldr	r3, [sp, #12]
 386 02e0 006093E5 		ldr	r6, [r3]
 387 02e4 043083E2 		add	r3, r3, #4
 388              		.loc 1 190 10 view .LVU92
 389 02e8 000056E3 		cmp	r6, #0
 390              		.loc 1 190 14 view .LVU93
 391 02ec 0C308DE5 		str	r3, [sp, #12]
 392              	.LVL27:
 393              		.loc 1 190 10 view .LVU94
 394 02f0 1A01000A 		beq	.L29
 395              		.loc 1 193 19 view .LVU95
 396 02f4 D4249FE5 		ldr	r2, .L129
 397 02f8 0030D6E5 		ldrb	r3, [r6]	@ zero_extendqisi2
 398              	.LVL28:
 399              		.loc 1 192 7 is_stmt 1 view .LVU96
ARM GAS  /var/folders/l5/0x54b2c10074c8bt31ycjvl80000gp/T//ccD6aAL0.s 			page 8


 400              		.loc 1 193 19 is_stmt 0 view .LVU97
 401 02fc 000050E3 		cmp	r0, #0
 402 0300 0200A001 		moveq	r0, r2
 403              	.LVL29:
 404              		.loc 1 194 7 view .LVU98
 405 0304 000053E3 		cmp	r3, #0
 406 0308 2301000A 		beq	.L122
 407              	.LVL30:
 408              	.L71:
 409              		.loc 1 159 15 view .LVU99
 410 030c 0690A0E1 		mov	r9, r6
 411 0310 030000EA 		b	.L33
 412              	.LVL31:
 413              	.L32:
 414              		.loc 1 159 15 view .LVU100
 415 0314 0930E0E1 		mvn	r3, r9
 416 0318 033086E0 		add	r3, r6, r3
 417              		.loc 1 194 22 discriminator 3 view .LVU101
 418 031c 000073E1 		cmn	r3, r0
 419 0320 0200004A 		bmi	.L115
 420              	.LVL32:
 421              	.L33:
 422              		.loc 1 195 9 is_stmt 1 discriminator 4 view .LVU102
 423              		.loc 1 194 7 is_stmt 0 discriminator 4 view .LVU103
 424 0324 0130F9E5 		ldrb	r3, [r9, #1]!	@ zero_extendqisi2
 425              	.LVL33:
 426              		.loc 1 194 7 discriminator 4 view .LVU104
 427 0328 000053E3 		cmp	r3, #0
 428 032c F8FFFF1A 		bne	.L32
 429              	.L115:
 430 0330 062049E0 		sub	r2, r9, r6
 431              		.loc 1 242 8 view .LVU105
 432 0334 029054E0 		subs	r9, r4, r2
 433              	.LVL34:
 434              		.loc 1 242 8 view .LVU106
 435 0338 01B042E2 		sub	fp, r2, #1
 436              		.loc 1 189 14 view .LVU107
 437 033c 2070A0E3 		mov	r7, #32
 438              	.LVL35:
 439              		.loc 1 241 5 is_stmt 1 view .LVU108
 440              		.loc 1 242 5 view .LVU109
 441              		.loc 1 242 8 is_stmt 0 view .LVU110
 442 0340 5F00005A 		bpl	.L57
 443              	.LVL36:
 444              	.L125:
 445              		.loc 1 243 7 is_stmt 1 view .LVU111
 446              		.loc 1 244 5 view .LVU112
 447              		.loc 1 244 8 is_stmt 0 view .LVU113
 448 0344 000058E3 		cmp	r8, #0
 449 0348 9700001A 		bne	.L123
 450              		.loc 1 255 11 view .LVU114
 451 034c 00005BE3 		cmp	fp, #0
 452              		.loc 1 245 13 view .LVU115
 453 0350 0890A0A1 		movge	r9, r8
 454              		.loc 1 255 11 view .LVU116
 455 0354 6F0000AA 		bge	.L66
 456 0358 2FFFFFEA 		b	.L2
ARM GAS  /var/folders/l5/0x54b2c10074c8bt31ycjvl80000gp/T//ccD6aAL0.s 			page 9


 457              	.LVL37:
 458              	.L25:
 459              		.loc 1 211 7 is_stmt 1 view .LVU117
 460              		.loc 1 211 19 is_stmt 0 view .LVU118
 461 035c 0C309DE5 		ldr	r3, [sp, #12]
 462 0360 073083E2 		add	r3, r3, #7
 463 0364 0730C3E3 		bic	r3, r3, #7
 464 0368 082083E2 		add	r2, r3, #8
 465              		.loc 1 211 9 view .LVU119
 466 036c D000C3E1 		ldrd	r0, [r3]
 467              	.LVL38:
 468              		.loc 1 211 19 view .LVU120
 469 0370 0C208DE5 		str	r2, [sp, #12]
 470              		.loc 1 211 9 view .LVU121
 471 0374 FEFFFFEB 		bl	__aeabi_d2f
 472              	.LVL39:
 473              		.loc 1 212 10 view .LVU122
 474 0378 0010A0E3 		mov	r1, #0
 475              		.loc 1 211 9 view .LVU123
 476 037c 00B0A0E1 		mov	fp, r0
 477              	.LVL40:
 478              		.loc 1 212 7 is_stmt 1 view .LVU124
 479              		.loc 1 212 10 is_stmt 0 view .LVU125
 480 0380 FEFFFFEB 		bl	__aeabi_fcmplt
 481              	.LVL41:
 482              		.loc 1 212 10 view .LVU126
 483 0384 000050E3 		cmp	r0, #0
 484              		.loc 1 213 9 is_stmt 1 view .LVU127
 485              	.LVL42:
 486              		.loc 1 213 14 is_stmt 0 view .LVU128
 487 0388 2D30A013 		movne	r3, #45
 488              		.loc 1 214 11 view .LVU129
 489 038c 02B18B12 		addne	fp, fp, #-2147483648
 490              	.LVL43:
 491              		.loc 1 136 7 view .LVU130
 492 0390 10608D02 		addeq	r6, sp, #16
 493              		.loc 1 216 11 view .LVU131
 494 0394 0B00A0E1 		mov	r0, fp
 495              		.loc 1 213 11 view .LVU132
 496 0398 11908D12 		addne	r9, sp, #17
 497              		.loc 1 136 7 view .LVU133
 498 039c 0690A001 		moveq	r9, r6
 499              		.loc 1 213 14 view .LVU134
 500 03a0 1030CD15 		strbne	r3, [sp, #16]
 501              		.loc 1 214 9 is_stmt 1 view .LVU135
 502              	.LVL44:
 503              		.loc 1 214 9 is_stmt 0 view .LVU136
 504 03a4 10608D12 		addne	r6, sp, #16
 505              	.LVL45:
 506              		.loc 1 216 7 is_stmt 1 view .LVU137
 507              		.loc 1 216 11 is_stmt 0 view .LVU138
 508 03a8 FEFFFFEB 		bl	__aeabi_f2d
 509              	.LVL46:
 510              		.loc 1 216 11 view .LVU139
 511 03ac F000CDE1 		strd	r0, [sp]
 512              	.LVL47:
 513              	.LBB26:
ARM GAS  /var/folders/l5/0x54b2c10074c8bt31ycjvl80000gp/T//ccD6aAL0.s 			page 10


 514              	.LBI26:
 515              		.loc 1 79 14 is_stmt 1 view .LVU140
 516              	.LBB27:
 517              		.loc 1 80 3 view .LVU141
 518              		.loc 1 81 3 view .LVU142
 519              		.loc 1 83 3 view .LVU143
 520              		.loc 1 83 5 is_stmt 0 view .LVU144
 521 03b0 0B00A0E1 		mov	r0, fp
 522              	.LVL48:
 523              		.loc 1 83 5 view .LVU145
 524 03b4 FEFFFFEB 		bl	__aeabi_f2iz
 525              	.LVL49:
 526              		.loc 1 84 3 is_stmt 1 view .LVU146
 527              	.LBB28:
 528              	.LBI28:
 529              		.loc 1 40 14 view .LVU147
 530              	.LBB29:
 531              		.loc 1 44 3 view .LVU148
 532              		.loc 1 45 3 view .LVU149
 533              		.loc 1 46 3 view .LVU150
 534              		.loc 1 48 3 view .LVU151
 535              		.loc 1 49 3 view .LVU152
 536              		.loc 1 55 3 view .LVU153
 537              		.loc 1 55 5 is_stmt 0 view .LVU154
 538 03b8 0BC089E2 		add	ip, r9, #11
 539              	.LVL50:
 540              		.loc 1 48 5 view .LVU155
 541 03bc 0020A0E1 		mov	r2, r0
 542              		.loc 1 55 5 view .LVU156
 543 03c0 0CE0A0E1 		mov	lr, ip
 544              	.LVL51:
 545              	.L43:
 546              		.loc 1 56 3 is_stmt 1 view .LVU157
 547              		.loc 1 57 5 view .LVU158
 548              		.loc 1 57 17 is_stmt 0 view .LVU159
 549 03c4 08349FE5 		ldr	r3, .L129+4
 550              		.loc 1 63 3 view .LVU160
 551 03c8 090052E3 		cmp	r2, #9
 552              		.loc 1 57 17 view .LVU161
 553 03cc 931283E0 		umull	r1, r3, r3, r2
 554 03d0 A331A0E1 		lsr	r3, r3, #3
 555 03d4 0310A0E1 		mov	r1, r3
 556 03d8 033183E0 		add	r3, r3, r3, lsl #2
 557 03dc 833042E0 		sub	r3, r2, r3, lsl #1
 558              	.LVL52:
 559              		.loc 1 58 5 is_stmt 1 view .LVU162
 560              		.loc 1 59 5 view .LVU163
 561              		.loc 1 61 5 view .LVU164
 562              		.loc 1 58 7 is_stmt 0 view .LVU165
 563 03e0 303083E2 		add	r3, r3, #48
 564              	.LVL53:
 565              		.loc 1 61 10 view .LVU166
 566 03e4 7330EFE6 		uxtb	r3, r3
 567              	.LVL54:
 568              		.loc 1 61 10 view .LVU167
 569 03e8 01306EE5 		strb	r3, [lr, #-1]!
 570              	.LVL55:
ARM GAS  /var/folders/l5/0x54b2c10074c8bt31ycjvl80000gp/T//ccD6aAL0.s 			page 11


 571              		.loc 1 62 5 is_stmt 1 view .LVU168
 572              		.loc 1 62 7 is_stmt 0 view .LVU169
 573 03ec 0120A0E1 		mov	r2, r1
 574              	.LVL56:
 575              		.loc 1 63 3 view .LVU170
 576 03f0 F3FFFF8A 		bhi	.L43
 577              		.loc 1 65 3 is_stmt 1 view .LVU171
 578              		.loc 1 65 5 is_stmt 0 view .LVU172
 579 03f4 0EC04CE0 		sub	ip, ip, lr
 580              	.LVL57:
 581              		.loc 1 65 5 view .LVU173
 582 03f8 0E10A0E1 		mov	r1, lr
 583              	.LVL58:
 584              		.loc 1 65 5 view .LVU174
 585 03fc 0920A0E1 		mov	r2, r9
 586              	.LVL59:
 587              		.loc 1 65 5 view .LVU175
 588 0400 0CE089E0 		add	lr, r9, ip
 589              	.LVL60:
 590              		.loc 1 65 5 view .LVU176
 591 0404 000000EA 		b	.L45
 592              	.LVL61:
 593              	.L124:
 594              		.loc 1 65 5 view .LVU177
 595 0408 0130F1E5 		ldrb	r3, [r1, #1]!	@ zero_extendqisi2
 596              	.LVL62:
 597              	.L45:
 598              		.loc 1 66 3 is_stmt 1 view .LVU178
 599              		.loc 1 67 5 view .LVU179
 600              		.loc 1 67 10 is_stmt 0 view .LVU180
 601 040c 0130C2E4 		strb	r3, [r2], #1
 602              	.LVL63:
 603              		.loc 1 68 3 view .LVU181
 604 0410 0E0052E1 		cmp	r2, lr
 605 0414 FBFFFF1A 		bne	.L124
 606              	.LBE29:
 607              	.LBE28:
 608              		.loc 1 85 8 view .LVU182
 609 0418 2E30A0E3 		mov	r3, #46
 610 041c 01C04CE2 		sub	ip, ip, #1
 611 0420 0030C2E5 		strb	r3, [r2]
 612 0424 0C9089E0 		add	r9, r9, ip
 613              	.LVL64:
 614              	.LBB31:
 615              	.LBB30:
 616              		.loc 1 70 3 is_stmt 1 view .LVU183
 617              		.loc 1 70 3 is_stmt 0 view .LVU184
 618              	.LBE30:
 619              	.LBE31:
 620              		.loc 1 85 3 is_stmt 1 view .LVU185
 621              		.loc 1 86 12 is_stmt 0 view .LVU186
 622 0428 FEFFFFEB 		bl	__aeabi_i2d
 623              	.LVL65:
 624              		.loc 1 86 12 view .LVU187
 625 042c 0020A0E1 		mov	r2, r0
 626 0430 0130A0E1 		mov	r3, r1
 627 0434 D000CDE1 		ldrd	r0, [sp]
ARM GAS  /var/folders/l5/0x54b2c10074c8bt31ycjvl80000gp/T//ccD6aAL0.s 			page 12


 628 0438 FEFFFFEB 		bl	__aeabi_dsub
 629              	.LVL66:
 630              		.loc 1 86 17 view .LVU188
 631 043c 0020A0E3 		mov	r2, #0
 632 0440 90339FE5 		ldr	r3, .L129+8
 633 0444 FEFFFFEB 		bl	__aeabi_dmul
 634              	.LVL67:
 635              	.LBB32:
 636              	.LBB33:
 637              		.loc 1 55 5 view .LVU189
 638 0448 0DB089E2 		add	fp, r9, #13
 639              	.LVL68:
 640              		.loc 1 55 5 view .LVU190
 641              	.LBE33:
 642              	.LBE32:
 643              		.loc 1 86 5 view .LVU191
 644 044c FEFFFFEB 		bl	__aeabi_d2iz
 645              	.LVL69:
 646              	.LBB36:
 647              	.LBB34:
 648              		.loc 1 55 5 view .LVU192
 649 0450 0B10A0E1 		mov	r1, fp
 650              	.LBE34:
 651              	.LBE36:
 652              		.loc 1 85 5 view .LVU193
 653 0454 022089E2 		add	r2, r9, #2
 654              	.LVL70:
 655              		.loc 1 86 3 is_stmt 1 view .LVU194
 656              		.loc 1 87 3 view .LVU195
 657              	.LBB37:
 658              	.LBI32:
 659              		.loc 1 40 14 view .LVU196
 660              	.LBB35:
 661              		.loc 1 44 3 view .LVU197
 662              		.loc 1 45 3 view .LVU198
 663              		.loc 1 46 3 view .LVU199
 664              		.loc 1 48 3 view .LVU200
 665              		.loc 1 49 3 view .LVU201
 666              		.loc 1 52 5 view .LVU202
 667              		.loc 1 55 3 view .LVU203
 668              		.loc 1 55 3 is_stmt 0 view .LVU204
 669 0458 08E089E2 		add	lr, r9, #8
 670              	.LVL71:
 671              	.L46:
 672              		.loc 1 56 3 is_stmt 1 view .LVU205
 673              		.loc 1 57 5 view .LVU206
 674              		.loc 1 57 17 is_stmt 0 view .LVU207
 675 045c 70339FE5 		ldr	r3, .L129+4
 676 0460 93C083E0 		umull	ip, r3, r3, r0
 677 0464 A331A0E1 		lsr	r3, r3, #3
 678 0468 03C0A0E1 		mov	ip, r3
 679 046c 033183E0 		add	r3, r3, r3, lsl #2
 680 0470 833040E0 		sub	r3, r0, r3, lsl #1
 681              	.LVL72:
 682              		.loc 1 58 5 is_stmt 1 view .LVU208
 683              		.loc 1 59 5 view .LVU209
 684              		.loc 1 61 5 view .LVU210
ARM GAS  /var/folders/l5/0x54b2c10074c8bt31ycjvl80000gp/T//ccD6aAL0.s 			page 13


 685              		.loc 1 58 7 is_stmt 0 view .LVU211
 686 0474 303083E2 		add	r3, r3, #48
 687              	.LVL73:
 688              		.loc 1 61 10 view .LVU212
 689 0478 7330EFE6 		uxtb	r3, r3
 690              	.LVL74:
 691              		.loc 1 61 10 view .LVU213
 692 047c 013061E5 		strb	r3, [r1, #-1]!
 693              	.LVL75:
 694              		.loc 1 62 5 is_stmt 1 view .LVU214
 695              		.loc 1 63 3 is_stmt 0 view .LVU215
 696 0480 0E0051E1 		cmp	r1, lr
 697              		.loc 1 62 7 view .LVU216
 698 0484 0C00A0E1 		mov	r0, ip
 699              	.LVL76:
 700              		.loc 1 63 3 view .LVU217
 701 0488 F3FFFF1A 		bne	.L46
 702              		.loc 1 65 3 is_stmt 1 view .LVU218
 703              	.LVL77:
 704              		.loc 1 65 5 is_stmt 0 view .LVU219
 705 048c 01B04BE0 		sub	fp, fp, r1
 706              	.LVL78:
 707              		.loc 1 65 5 view .LVU220
 708 0490 02C08BE2 		add	ip, fp, #2
 709 0494 0200A0E1 		mov	r0, r2
 710 0498 0C9089E0 		add	r9, r9, ip
 711              	.LVL79:
 712              		.loc 1 65 5 view .LVU221
 713 049c 000000EA 		b	.L48
 714              	.LVL80:
 715              	.L47:
 716              		.loc 1 65 5 view .LVU222
 717 04a0 0130F1E5 		ldrb	r3, [r1, #1]!	@ zero_extendqisi2
 718              	.LVL81:
 719              	.L48:
 720              		.loc 1 66 3 is_stmt 1 view .LVU223
 721              		.loc 1 67 5 view .LVU224
 722              		.loc 1 67 10 is_stmt 0 view .LVU225
 723 04a4 0130C0E4 		strb	r3, [r0], #1
 724              	.LVL82:
 725              		.loc 1 68 3 view .LVU226
 726 04a8 090050E1 		cmp	r0, r9
 727 04ac FBFFFF1A 		bne	.L47
 728 04b0 0B2082E0 		add	r2, r2, fp
 729              	.LVL83:
 730              	.L116:
 731              		.loc 1 68 3 view .LVU227
 732 04b4 062042E0 		sub	r2, r2, r6
 733              	.L117:
 734              		.loc 1 68 3 view .LVU228
 735 04b8 01B042E2 		sub	fp, r2, #1
 736              	.LVL84:
 737              	.L28:
 738              		.loc 1 68 3 view .LVU229
 739              	.LBE35:
 740              	.LBE37:
 741              	.LBE27:
ARM GAS  /var/folders/l5/0x54b2c10074c8bt31ycjvl80000gp/T//ccD6aAL0.s 			page 14


 742              	.LBE26:
 743              		.loc 1 241 5 is_stmt 1 view .LVU230
 744              		.loc 1 242 5 view .LVU231
 745              		.loc 1 242 8 is_stmt 0 view .LVU232
 746 04bc 029054E0 		subs	r9, r4, r2
 747              	.LVL85:
 748              		.loc 1 242 8 view .LVU233
 749 04c0 9FFFFF4A 		bmi	.L125
 750              	.LVL86:
 751              	.L57:
 752              		.loc 1 244 5 is_stmt 1 view .LVU234
 753              		.loc 1 244 8 is_stmt 0 view .LVU235
 754 04c4 000058E3 		cmp	r8, #0
 755 04c8 3400001A 		bne	.L60
 756              		.loc 1 245 7 is_stmt 1 view .LVU236
 757              		.loc 1 246 8 is_stmt 0 view .LVU237
 758 04cc 000059E3 		cmp	r9, #0
 759              		.loc 1 245 13 view .LVU238
 760 04d0 049042E0 		sub	r9, r2, r4
 761              	.LVL87:
 762              		.loc 1 246 5 is_stmt 1 view .LVU239
 763              		.loc 1 246 8 is_stmt 0 view .LVU240
 764 04d4 3100000A 		beq	.L60
 765              		.loc 1 247 7 is_stmt 1 view .LVU241
 766              		.loc 1 247 10 is_stmt 0 view .LVU242
 767 04d8 0020D6E5 		ldrb	r2, [r6]	@ zero_extendqisi2
 768 04dc 003095E5 		ldr	r3, [r5]
 769              		.loc 1 247 21 view .LVU243
 770 04e0 2D0052E3 		cmp	r2, #45
 771 04e4 30005703 		cmpeq	r7, #48
 772 04e8 083093E5 		ldr	r3, [r3, #8]
 773 04ec 0200001A 		bne	.L63
 774 04f0 9F0000EA 		b	.L126
 775              	.LVL88:
 776              	.L127:
 777              		.loc 1 247 21 view .LVU244
 778 04f4 003095E5 		ldr	r3, [r5]
 779 04f8 083093E5 		ldr	r3, [r3, #8]
 780              	.L63:
 781              		.loc 1 251 7 is_stmt 1 discriminator 1 view .LVU245
 782              		.loc 1 252 9 discriminator 1 view .LVU246
 783 04fc 0710A0E1 		mov	r1, r7
 784 0500 0500A0E1 		mov	r0, r5
 785 0504 33FF2FE1 		blx	r3
 786              	.LVL89:
 787              		.loc 1 253 7 is_stmt 0 discriminator 1 view .LVU247
 788 0508 019099E2 		adds	r9, r9, #1
 789              	.LVL90:
 790              		.loc 1 253 7 discriminator 1 view .LVU248
 791 050c F8FFFF1A 		bne	.L127
 792              	.LVL91:
 793              		.loc 1 255 11 view .LVU249
 794 0510 00005BE3 		cmp	fp, #0
 795 0514 C0FEFFBA 		blt	.L2
 796              	.LVL92:
 797              	.L66:
 798              		.loc 1 255 11 view .LVU250
ARM GAS  /var/folders/l5/0x54b2c10074c8bt31ycjvl80000gp/T//ccD6aAL0.s 			page 15


 799 0518 0BB086E0 		add	fp, r6, fp
 800              	.L64:
 801              	.LVL93:
 802              		.loc 1 256 7 is_stmt 1 view .LVU251
 803              		.loc 1 256 7 is_stmt 0 view .LVU252
 804 051c 003095E5 		ldr	r3, [r5]
 805 0520 0110D6E4 		ldrb	r1, [r6], #1	@ zero_extendqisi2
 806              	.LVL94:
 807              		.loc 1 256 7 view .LVU253
 808 0524 083093E5 		ldr	r3, [r3, #8]
 809 0528 0500A0E1 		mov	r0, r5
 810 052c 33FF2FE1 		blx	r3
 811              	.LVL95:
 812              		.loc 1 256 7 view .LVU254
 813 0530 06304BE0 		sub	r3, fp, r6
 814              		.loc 1 255 11 view .LVU255
 815 0534 000053E3 		cmp	r3, #0
 816 0538 F7FFFFAA 		bge	.L64
 817              	.LVL96:
 818              	.L65:
 819              		.loc 1 258 11 view .LVU256
 820 053c 000059E3 		cmp	r9, #0
 821 0540 B5FEFF0A 		beq	.L2
 822              	.L67:
 823              		.loc 1 259 7 is_stmt 1 view .LVU257
 824 0544 003095E5 		ldr	r3, [r5]
 825 0548 0710A0E1 		mov	r1, r7
 826 054c 083093E5 		ldr	r3, [r3, #8]
 827 0550 0500A0E1 		mov	r0, r5
 828 0554 33FF2FE1 		blx	r3
 829              	.LVL97:
 830              		.loc 1 260 7 view .LVU258
 831              		.loc 1 258 11 is_stmt 0 view .LVU259
 832 0558 019059E2 		subs	r9, r9, #1
 833              	.LVL98:
 834              		.loc 1 258 11 view .LVU260
 835 055c F8FFFF1A 		bne	.L67
 836 0560 ADFEFFEA 		b	.L2
 837              	.LVL99:
 838              	.L27:
 839              		.loc 1 185 7 is_stmt 1 view .LVU261
 840              		.loc 1 186 7 view .LVU262
 841              		.loc 1 186 14 is_stmt 0 view .LVU263
 842 0564 0C309DE5 		ldr	r3, [sp, #12]
 843              		.loc 1 187 7 view .LVU264
 844 0568 0120A0E3 		mov	r2, #1
 845              		.loc 1 186 12 view .LVU265
 846 056c 001093E5 		ldr	r1, [r3]
 847              	.LVL100:
 848              		.loc 1 186 14 view .LVU266
 849 0570 043083E2 		add	r3, r3, #4
 850              		.loc 1 186 12 view .LVU267
 851 0574 1010CDE5 		strb	r1, [sp, #16]
 852              		.loc 1 186 14 view .LVU268
 853 0578 0C308DE5 		str	r3, [sp, #12]
 854              	.LVL101:
 855              		.loc 1 187 7 is_stmt 1 view .LVU269
ARM GAS  /var/folders/l5/0x54b2c10074c8bt31ycjvl80000gp/T//ccD6aAL0.s 			page 16


 856 057c 00B0A0E3 		mov	fp, #0
 857              		.loc 1 185 14 is_stmt 0 view .LVU270
 858 0580 2070A0E3 		mov	r7, #32
 859              		.loc 1 137 7 view .LVU271
 860 0584 10608DE2 		add	r6, sp, #16
 861              	.LVL102:
 862              		.loc 1 187 7 view .LVU272
 863 0588 CBFFFFEA 		b	.L28
 864              	.LVL103:
 865              	.L19:
 866              		.loc 1 238 7 is_stmt 1 view .LVU273
 867              		.loc 1 239 7 is_stmt 0 view .LVU274
 868 058c 0120A0E3 		mov	r2, #1
 869 0590 00B0A0E3 		mov	fp, #0
 870              		.loc 1 238 12 view .LVU275
 871 0594 1010CDE5 		strb	r1, [sp, #16]
 872              		.loc 1 239 7 is_stmt 1 view .LVU276
 873              		.loc 1 137 7 is_stmt 0 view .LVU277
 874 0598 10608DE2 		add	r6, sp, #16
 875              	.LVL104:
 876              		.loc 1 239 7 view .LVU278
 877 059c C6FFFFEA 		b	.L28
 878              	.LVL105:
 879              	.L60:
 880              		.loc 1 255 11 view .LVU279
 881 05a0 00005BE3 		cmp	fp, #0
 882 05a4 DBFFFFAA 		bge	.L66
 883              		.loc 1 255 11 view .LVU280
 884 05a8 E3FFFFEA 		b	.L65
 885              	.LVL106:
 886              	.L123:
 887              		.loc 1 255 11 view .LVU281
 888 05ac 00005BE3 		cmp	fp, #0
 889              		.loc 1 243 13 view .LVU282
 890 05b0 0090A0A3 		movge	r9, #0
 891              		.loc 1 255 11 view .LVU283
 892 05b4 D7FFFFAA 		bge	.L66
 893 05b8 97FEFFEA 		b	.L2
 894              	.LVL107:
 895              	.L121:
 896              		.loc 1 160 8 view .LVU284
 897 05bc 00E0A0E3 		mov	lr, #0
 898 05c0 0C209DE5 		ldr	r2, [sp, #12]
 899              	.LVL108:
 900              		.loc 1 159 15 view .LVU285
 901 05c4 0E00A0E1 		mov	r0, lr
 902 05c8 030000EA 		b	.L15
 903              	.LVL109:
 904              	.L128:
 905              		.loc 1 166 13 view .LVU286
 906 05cc 01E0A0E3 		mov	lr, #1
 907 05d0 043092E4 		ldr	r3, [r2], #4
 908 05d4 7330EFE6 		uxtb	r3, r3
 909              	.LVL110:
 910              	.L13:
 911              		.loc 1 169 9 is_stmt 1 view .LVU287
 912              		.loc 1 170 9 view .LVU288
ARM GAS  /var/folders/l5/0x54b2c10074c8bt31ycjvl80000gp/T//ccD6aAL0.s 			page 17


 913              		.loc 1 170 19 is_stmt 0 view .LVU289
 914 05d8 8C0083E0 		add	r0, r3, ip, lsl #1
 915              	.LVL111:
 916              	.L15:
 917              		.loc 1 161 7 is_stmt 1 view .LVU290
 918              		.loc 1 162 9 view .LVU291
 919              		.loc 1 165 14 view .LVU292
 920              		.loc 1 166 11 view .LVU293
 921              		.loc 1 162 11 is_stmt 0 view .LVU294
 922 05dc 0110DAE4 		ldrb	r1, [r10], #1	@ zero_extendqisi2
 923              	.LVL112:
 924              		.loc 1 163 9 is_stmt 1 view .LVU295
 925              		.loc 1 169 19 is_stmt 0 view .LVU296
 926 05e0 00C180E0 		add	ip, r0, r0, lsl #2
 927              		.loc 1 163 22 view .LVU297
 928 05e4 303041E2 		sub	r3, r1, #48
 929 05e8 7330EFE6 		uxtb	r3, r3
 930              		.loc 1 163 12 view .LVU298
 931 05ec 090053E3 		cmp	r3, #9
 932 05f0 F8FFFF9A 		bls	.L13
 933              		.loc 1 165 17 view .LVU299
 934 05f4 2A0051E3 		cmp	r1, #42
 935 05f8 F3FFFF0A 		beq	.L128
 936 05fc 00005EE3 		cmp	lr, #0
 937 0600 0C208D15 		strne	r2, [sp, #12]
 938 0604 B9FEFFEA 		b	.L12
 939              	.LVL113:
 940              	.L78:
 941              		.loc 1 183 5 view .LVU300
 942 0608 0A60A0E3 		mov	r6, #10
 943              	.L22:
 944              	.LVL114:
 945              		.loc 1 231 7 is_stmt 1 view .LVU301
 946 060c 0C209DE5 		ldr	r2, [sp, #12]
 947 0610 040092E4 		ldr	r0, [r2], #4
 948              	.LVL115:
 949              	.L51:
 950              		.loc 1 234 9 view .LVU302
 951              		.loc 1 234 11 is_stmt 0 view .LVU303
 952 0614 0C208DE5 		str	r2, [sp, #12]
 953              	.LVL116:
 954              		.loc 1 235 7 is_stmt 1 view .LVU304
 955              	.LBB38:
 956              	.LBI38:
 957              		.loc 1 73 14 view .LVU305
 958              	.LBE38:
 959              		.loc 1 75 3 view .LVU306
 960              	.LBB41:
 961              	.LBB39:
 962              	.LBI39:
 963              		.loc 1 40 14 view .LVU307
 964              	.LBB40:
 965              		.loc 1 44 3 view .LVU308
 966              		.loc 1 45 3 view .LVU309
 967              		.loc 1 46 3 view .LVU310
 968              		.loc 1 48 3 view .LVU311
 969              		.loc 1 49 3 view .LVU312
ARM GAS  /var/folders/l5/0x54b2c10074c8bt31ycjvl80000gp/T//ccD6aAL0.s 			page 18


 970              		.loc 1 55 3 view .LVU313
 971              		.loc 1 55 5 is_stmt 0 view .LVU314
 972 0618 1BB08DE2 		add	fp, sp, #27
 973              	.LVL117:
 974              		.loc 1 55 5 view .LVU315
 975 061c 000000EA 		b	.L54
 976              	.LVL118:
 977              	.L82:
 978              		.loc 1 63 3 view .LVU316
 979 0620 01B0A0E1 		mov	fp, r1
 980              	.LVL119:
 981              	.L54:
 982              		.loc 1 56 3 is_stmt 1 view .LVU317
 983              		.loc 1 57 5 view .LVU318
 984 0624 0610A0E1 		mov	r1, r6
 985              		.loc 1 57 17 is_stmt 0 view .LVU319
 986 0628 0090A0E1 		mov	r9, r0
 987 062c FEFFFFEB 		bl	__aeabi_uidivmod
 988              	.LVL120:
 989              		.loc 1 60 7 is_stmt 1 view .LVU320
 990              		.loc 1 58 5 view .LVU321
 991              		.loc 1 58 7 is_stmt 0 view .LVU322
 992 0630 303081E2 		add	r3, r1, #48
 993              	.LVL121:
 994              		.loc 1 59 5 is_stmt 1 view .LVU323
 995              		.loc 1 59 8 is_stmt 0 view .LVU324
 996 0634 390053E3 		cmp	r3, #57
 997              		.loc 1 60 9 view .LVU325
 998 0638 373081C2 		addgt	r3, r1, #55
 999              	.LVL122:
 1000              		.loc 1 61 5 is_stmt 1 view .LVU326
 1001              		.loc 1 61 10 is_stmt 0 view .LVU327
 1002 063c 7330EFE6 		uxtb	r3, r3
 1003              	.LVL123:
 1004              		.loc 1 63 3 view .LVU328
 1005 0640 060059E1 		cmp	r9, r6
 1006              	.LVL124:
 1007              		.loc 1 61 10 view .LVU329
 1008 0644 01304BE5 		strb	r3, [fp, #-1]
 1009 0648 01104BE2 		sub	r1, fp, #1
 1010              	.LVL125:
 1011              		.loc 1 62 5 is_stmt 1 view .LVU330
 1012              		.loc 1 63 3 is_stmt 0 view .LVU331
 1013 064c F3FFFF2A 		bcs	.L82
 1014              		.loc 1 65 3 is_stmt 1 view .LVU332
 1015              		.loc 1 65 5 is_stmt 0 view .LVU333
 1016 0650 1B208DE2 		add	r2, sp, #27
 1017 0654 10608DE2 		add	r6, sp, #16
 1018              	.LVL126:
 1019              		.loc 1 65 5 view .LVU334
 1020 0658 012042E0 		sub	r2, r2, r1
 1021              	.LVL127:
 1022              		.loc 1 65 5 view .LVU335
 1023 065c 0600A0E1 		mov	r0, r6
 1024              	.LVL128:
 1025              		.loc 1 65 5 view .LVU336
 1026 0660 021081E0 		add	r1, r1, r2
ARM GAS  /var/folders/l5/0x54b2c10074c8bt31ycjvl80000gp/T//ccD6aAL0.s 			page 19


 1027              	.LVL129:
 1028              		.loc 1 65 5 view .LVU337
 1029 0664 000000EA 		b	.L56
 1030              	.LVL130:
 1031              	.L55:
 1032              		.loc 1 65 5 view .LVU338
 1033 0668 0130DBE4 		ldrb	r3, [fp], #1	@ zero_extendqisi2
 1034              	.LVL131:
 1035              	.L56:
 1036              		.loc 1 66 3 is_stmt 1 view .LVU339
 1037              		.loc 1 67 5 view .LVU340
 1038              		.loc 1 68 3 is_stmt 0 view .LVU341
 1039 066c 0B0051E1 		cmp	r1, fp
 1040              		.loc 1 67 10 view .LVU342
 1041 0670 0130C0E4 		strb	r3, [r0], #1
 1042              	.LVL132:
 1043              		.loc 1 68 3 view .LVU343
 1044 0674 FBFFFF1A 		bne	.L55
 1045 0678 8EFFFFEA 		b	.L117
 1046              	.LVL133:
 1047              	.L93:
 1048              		.loc 1 68 3 view .LVU344
 1049 067c 0C209DE5 		ldr	r2, [sp, #12]
 1050              	.LVL134:
 1051              	.L35:
 1052              		.loc 1 68 3 view .LVU345
 1053              	.LBE40:
 1054              	.LBE39:
 1055              	.LBE41:
 1056              		.loc 1 200 9 is_stmt 1 view .LVU346
 1057              		.loc 1 200 11 is_stmt 0 view .LVU347
 1058 0680 043082E2 		add	r3, r2, #4
 1059 0684 00E092E5 		ldr	lr, [r2]
 1060 0688 0C308DE5 		str	r3, [sp, #12]
 1061              	.L36:
 1062              	.LVL135:
 1063              		.loc 1 203 7 is_stmt 1 view .LVU348
 1064              		.loc 1 203 10 is_stmt 0 view .LVU349
 1065 068c 00005EE3 		cmp	lr, #0
 1066              		.loc 1 204 9 is_stmt 1 view .LVU350
 1067              	.LVL136:
 1068              		.loc 1 136 7 is_stmt 0 view .LVU351
 1069 0690 10608DA2 		addge	r6, sp, #16
 1070 0694 0620A0A1 		movge	r2, r6
 1071              		.loc 1 204 14 view .LVU352
 1072 0698 2D30A0B3 		movlt	r3, #45
 1073              		.loc 1 204 11 view .LVU353
 1074 069c 11208DB2 		addlt	r2, sp, #17
 1075              	.LBB42:
 1076              	.LBB43:
 1077              	.LBB44:
 1078              		.loc 1 55 5 view .LVU354
 1079 06a0 0BC082E2 		add	ip, r2, #11
 1080              	.LBE44:
 1081              	.LBE43:
 1082              	.LBE42:
 1083              		.loc 1 205 11 view .LVU355
ARM GAS  /var/folders/l5/0x54b2c10074c8bt31ycjvl80000gp/T//ccD6aAL0.s 			page 20


 1084 06a4 00E06EB2 		rsblt	lr, lr, #0
 1085              	.LVL137:
 1086              		.loc 1 204 14 view .LVU356
 1087 06a8 1030CDB5 		strblt	r3, [sp, #16]
 1088              		.loc 1 205 9 is_stmt 1 view .LVU357
 1089              	.LVL138:
 1090              		.loc 1 205 9 is_stmt 0 view .LVU358
 1091 06ac 10608DB2 		addlt	r6, sp, #16
 1092              	.LVL139:
 1093              		.loc 1 207 7 is_stmt 1 view .LVU359
 1094              	.LBB47:
 1095              	.LBI42:
 1096              		.loc 1 73 14 view .LVU360
 1097              	.LBE47:
 1098              		.loc 1 75 3 view .LVU361
 1099              	.LBB48:
 1100              	.LBB46:
 1101              	.LBI43:
 1102              		.loc 1 40 14 view .LVU362
 1103              	.LBB45:
 1104              		.loc 1 44 3 view .LVU363
 1105              		.loc 1 45 3 view .LVU364
 1106              		.loc 1 46 3 view .LVU365
 1107              		.loc 1 48 3 view .LVU366
 1108              		.loc 1 49 3 view .LVU367
 1109              		.loc 1 55 3 view .LVU368
 1110              		.loc 1 55 5 is_stmt 0 view .LVU369
 1111 06b0 0C00A0E1 		mov	r0, ip
 1112              	.LVL140:
 1113              		.loc 1 55 5 view .LVU370
 1114 06b4 000000EA 		b	.L38
 1115              	.LVL141:
 1116              	.L80:
 1117              		.loc 1 63 3 view .LVU371
 1118 06b8 01E0A0E1 		mov	lr, r1
 1119              	.LVL142:
 1120              	.L38:
 1121              		.loc 1 56 3 is_stmt 1 view .LVU372
 1122              		.loc 1 57 5 view .LVU373
 1123              		.loc 1 57 17 is_stmt 0 view .LVU374
 1124 06bc 10319FE5 		ldr	r3, .L129+4
 1125              		.loc 1 63 3 view .LVU375
 1126 06c0 09005EE3 		cmp	lr, #9
 1127              		.loc 1 57 17 view .LVU376
 1128 06c4 933E81E0 		umull	r3, r1, r3, lr
 1129 06c8 A111A0E1 		lsr	r1, r1, #3
 1130 06cc 013181E0 		add	r3, r1, r1, lsl #2
 1131 06d0 83304EE0 		sub	r3, lr, r3, lsl #1
 1132              	.LVL143:
 1133              		.loc 1 58 5 is_stmt 1 view .LVU377
 1134              		.loc 1 59 5 view .LVU378
 1135              		.loc 1 61 5 view .LVU379
 1136              		.loc 1 58 7 is_stmt 0 view .LVU380
 1137 06d4 303083E2 		add	r3, r3, #48
 1138              	.LVL144:
 1139              		.loc 1 61 10 view .LVU381
 1140 06d8 7330EFE6 		uxtb	r3, r3
ARM GAS  /var/folders/l5/0x54b2c10074c8bt31ycjvl80000gp/T//ccD6aAL0.s 			page 21


 1141              	.LVL145:
 1142              		.loc 1 61 10 view .LVU382
 1143 06dc 013060E5 		strb	r3, [r0, #-1]!
 1144              	.LVL146:
 1145              		.loc 1 62 5 is_stmt 1 view .LVU383
 1146              		.loc 1 63 3 is_stmt 0 view .LVU384
 1147 06e0 F4FFFFCA 		bgt	.L80
 1148              		.loc 1 65 3 is_stmt 1 view .LVU385
 1149              	.LVL147:
 1150              		.loc 1 65 5 is_stmt 0 view .LVU386
 1151 06e4 00104CE0 		sub	r1, ip, r0
 1152              	.LVL148:
 1153              		.loc 1 65 5 view .LVU387
 1154 06e8 011082E0 		add	r1, r2, r1
 1155 06ec 000000EA 		b	.L40
 1156              	.LVL149:
 1157              	.L39:
 1158              		.loc 1 65 5 view .LVU388
 1159 06f0 0130F0E5 		ldrb	r3, [r0, #1]!	@ zero_extendqisi2
 1160              	.LVL150:
 1161              	.L40:
 1162              		.loc 1 66 3 is_stmt 1 view .LVU389
 1163              		.loc 1 67 5 view .LVU390
 1164              		.loc 1 67 10 is_stmt 0 view .LVU391
 1165 06f4 0130C2E4 		strb	r3, [r2], #1
 1166              	.LVL151:
 1167              		.loc 1 68 3 view .LVU392
 1168 06f8 010052E1 		cmp	r2, r1
 1169 06fc FBFFFF1A 		bne	.L39
 1170 0700 6BFFFFEA 		b	.L116
 1171              	.LVL152:
 1172              	.L49:
 1173              		.loc 1 68 3 view .LVU393
 1174              	.LBE45:
 1175              	.LBE46:
 1176              	.LBE48:
 1177              		.loc 1 231 7 is_stmt 1 view .LVU394
 1178 0704 0C209DE5 		ldr	r2, [sp, #12]
 1179              		.loc 1 183 5 is_stmt 0 view .LVU395
 1180 0708 0A60A0E3 		mov	r6, #10
 1181 070c 040092E4 		ldr	r0, [r2], #4
 1182              	.LVL153:
 1183              		.loc 1 183 5 view .LVU396
 1184 0710 BFFFFFEA 		b	.L51
 1185              	.LVL154:
 1186              	.L70:
 1187              		.loc 1 231 7 is_stmt 1 view .LVU397
 1188 0714 0C209DE5 		ldr	r2, [sp, #12]
 1189              		.loc 1 183 5 is_stmt 0 view .LVU398
 1190 0718 0860A0E3 		mov	r6, #8
 1191 071c 040092E4 		ldr	r0, [r2], #4
 1192              	.LVL155:
 1193              		.loc 1 183 5 view .LVU399
 1194 0720 BBFFFFEA 		b	.L51
 1195              	.LVL156:
 1196              	.L68:
 1197              		.loc 1 183 5 view .LVU400
ARM GAS  /var/folders/l5/0x54b2c10074c8bt31ycjvl80000gp/T//ccD6aAL0.s 			page 22


 1198 0724 0C209DE5 		ldr	r2, [sp, #12]
 1199 0728 1060A0E3 		mov	r6, #16
 1200 072c 040092E4 		ldr	r0, [r2], #4
 1201              	.LVL157:
 1202              		.loc 1 183 5 view .LVU401
 1203 0730 B7FFFFEA 		b	.L51
 1204              	.LVL158:
 1205              	.L26:
 1206              		.loc 1 199 7 is_stmt 1 view .LVU402
 1207 0734 0C209DE5 		ldr	r2, [sp, #12]
 1208              		.loc 1 199 10 is_stmt 0 view .LVU403
 1209 0738 190053E3 		cmp	r3, #25
 1210 073c 0230A0E1 		mov	r3, r2
 1211              	.LVL159:
 1212              		.loc 1 199 10 view .LVU404
 1213 0740 04E093E4 		ldr	lr, [r3], #4
 1214              		.loc 1 202 11 view .LVU405
 1215 0744 0C308D85 		strhi	r3, [sp, #12]
 1216              		.loc 1 199 10 view .LVU406
 1217 0748 CFFFFF8A 		bhi	.L36
 1218 074c CBFFFFEA 		b	.L35
 1219              	.LVL160:
 1220              	.L24:
 1221              		.loc 1 183 5 view .LVU407
 1222 0750 0860A0E3 		mov	r6, #8
 1223 0754 ACFFFFEA 		b	.L22
 1224              	.L20:
 1225 0758 1060A0E3 		mov	r6, #16
 1226 075c AAFFFFEA 		b	.L22
 1227              	.LVL161:
 1228              	.L29:
 1229              		.loc 1 192 7 is_stmt 1 view .LVU408
 1230              		.loc 1 192 10 is_stmt 0 view .LVU409
 1231 0760 000050E3 		cmp	r0, #0
 1232 0764 0A00001A 		bne	.L86
 1233              		.loc 1 193 19 view .LVU410
 1234 0768 60009FE5 		ldr	r0, .L129
 1235              	.LVL162:
 1236              		.loc 1 191 11 view .LVU411
 1237 076c 68609FE5 		ldr	r6, .L129+12
 1238 0770 E5FEFFEA 		b	.L71
 1239              	.LVL163:
 1240              	.L126:
 1241              		.loc 1 248 9 is_stmt 1 view .LVU412
 1242              		.loc 1 248 9 is_stmt 0 view .LVU413
 1243 0774 2D10A0E3 		mov	r1, #45
 1244 0778 0500A0E1 		mov	r0, r5
 1245 077c 33FF2FE1 		blx	r3
 1246              	.LVL164:
 1247 0780 003095E5 		ldr	r3, [r5]
 1248 0784 016086E2 		add	r6, r6, #1
 1249              	.LVL165:
 1250              		.loc 1 249 9 is_stmt 1 view .LVU414
 1251 0788 083093E5 		ldr	r3, [r3, #8]
 1252 078c 01B04BE2 		sub	fp, fp, #1
 1253 0790 59FFFFEA 		b	.L63
 1254              	.LVL166:
ARM GAS  /var/folders/l5/0x54b2c10074c8bt31ycjvl80000gp/T//ccD6aAL0.s 			page 23


 1255              	.L86:
 1256              		.loc 1 191 11 is_stmt 0 view .LVU415
 1257 0794 40609FE5 		ldr	r6, .L129+12
 1258 0798 DBFEFFEA 		b	.L71
 1259              	.LVL167:
 1260              	.L122:
 1261              		.loc 1 244 5 is_stmt 1 view .LVU416
 1262              		.loc 1 244 8 is_stmt 0 view .LVU417
 1263 079c 000058E3 		cmp	r8, #0
 1264 07a0 0490A011 		movne	r9, r4
 1265              		.loc 1 189 14 view .LVU418
 1266 07a4 2070A013 		movne	r7, #32
 1267              		.loc 1 244 8 view .LVU419
 1268 07a8 63FFFF1A 		bne	.L65
 1269              		.loc 1 245 7 is_stmt 1 view .LVU420
 1270              		.loc 1 246 8 is_stmt 0 view .LVU421
 1271 07ac 000054E3 		cmp	r4, #0
 1272              		.loc 1 245 13 view .LVU422
 1273 07b0 009064E2 		rsb	r9, r4, #0
 1274              	.LVL168:
 1275              		.loc 1 246 5 is_stmt 1 view .LVU423
 1276              		.loc 1 189 14 is_stmt 0 view .LVU424
 1277 07b4 2070A003 		moveq	r7, #32
 1278              		.loc 1 246 8 view .LVU425
 1279 07b8 5FFFFF0A 		beq	.L65
 1280              		.loc 1 247 7 is_stmt 1 view .LVU426
 1281 07bc 003095E5 		ldr	r3, [r5]
 1282              		.loc 1 189 14 is_stmt 0 view .LVU427
 1283 07c0 2070A0E3 		mov	r7, #32
 1284 07c4 083093E5 		ldr	r3, [r3, #8]
 1285              		.loc 1 246 8 view .LVU428
 1286 07c8 00B0E0E3 		mvn	fp, #0
 1287 07cc 4AFFFFEA 		b	.L63
 1288              	.L130:
 1289              		.align	2
 1290              	.L129:
 1291 07d0 FF7F0000 		.word	32767
 1292 07d4 CDCCCCCC 		.word	-858993459
 1293 07d8 006AF840 		.word	1090021888
 1294 07dc 00000000 		.word	.LC0
 1295              		.cfi_endproc
 1296              	.LFE10:
 1297              		.size	chprintf, .-chprintf
 1298              		.section	.rodata.chprintf.str1.4,"aMS",%progbits,1
 1299              		.align	2
 1300              	.LC0:
 1301 0000 286E756C 		.ascii	"(null)\000"
 1301      6C2900
 1302              		.text
 1303              	.Letext0:
 1304              		.file 2 "/usr/local/Cellar/arm-gcc-bin/8-2019-q3-update/lib/gcc/arm-none-eabi/8.3.1/include/stdarg
 1305              		.file 3 "/usr/local/Cellar/arm-gcc-bin/8-2019-q3-update/lib/gcc/arm-none-eabi/8.3.1/include/stddef
 1306              		.file 4 "/usr/local/Cellar/arm-gcc-bin/8-2019-q3-update/arm-none-eabi/include/machine/_default_typ
 1307              		.file 5 "/usr/local/Cellar/arm-gcc-bin/8-2019-q3-update/arm-none-eabi/include/sys/_stdint.h"
 1308              		.file 6 "../../os/ports/GCC/ARM/chtypes.h"
 1309              		.file 7 "../../os/kernel/include/chlists.h"
 1310              		.file 8 "../../os/kernel/include/chthreads.h"
ARM GAS  /var/folders/l5/0x54b2c10074c8bt31ycjvl80000gp/T//ccD6aAL0.s 			page 24


 1311              		.file 9 "../../os/ports/GCC/ARM/chcore.h"
 1312              		.file 10 "../../os/kernel/include/chvt.h"
 1313              		.file 11 "../../os/kernel/include/chschd.h"
 1314              		.file 12 "../../os/kernel/include/chmtx.h"
 1315              		.file 13 "../../os/kernel/include/chregistry.h"
 1316              		.file 14 "../../os/kernel/include/chstreams.h"
 1317              		.file 15 "../../os/kernel/include/ch.h"
 1318              		.file 16 "<built-in>"