ARM GAS  /var/folders/l5/0x54b2c10074c8bt31ycjvl80000gp/T//ccLft2iL.s 			page 1


   1              		.cpu arm1176jz-s
   2              		.eabi_attribute 20, 1
   3              		.eabi_attribute 21, 1
   4              		.eabi_attribute 23, 3
   5              		.eabi_attribute 24, 1
   6              		.eabi_attribute 25, 1
   7              		.eabi_attribute 26, 1
   8              		.eabi_attribute 30, 2
   9              		.eabi_attribute 34, 1
  10              		.eabi_attribute 18, 4
  11              		.file	"chqueues.c"
  12              		.text
  13              	.Ltext0:
  14              		.cfi_sections	.debug_frame
  15              		.section	.text.qwait,"ax",%progbits
  16              		.align	2
  17              		.arch armv6kz
  18              		.syntax unified
  19              		.arm
  20              		.fpu softvfp
  21              		.type	qwait, %function
  22              	qwait:
  23              	.LVL0:
  24              	.LFB7:
  25              		.file 1 "../../os/kernel/src/chqueues.c"
  26              		.loc 1 63 54 view -0
  27              		.cfi_startproc
  28              		@ args = 0, pretend = 0, frame = 0
  29              		@ frame_needed = 0, uses_anonymous_args = 0
  30              		@ link register save eliminated.
  31              		.loc 1 65 3 view .LVU1
  32              		.loc 1 65 6 is_stmt 0 view .LVU2
  33 0000 000051E3 		cmp	r1, #0
  34              		.loc 1 63 54 view .LVU3
  35 0004 0020A0E1 		mov	r2, r0
  36              		.loc 1 65 6 view .LVU4
  37 0008 0800000A 		beq	.L2
  38              		.loc 1 67 3 is_stmt 1 view .LVU5
  39 000c 24309FE5 		ldr	r3, .L4
  40              	.LBB12:
  41              	.LBB13:
  42              		.file 2 "../../os/kernel/include/chinline.h"
  43              		.loc 2 48 19 is_stmt 0 view .LVU6
  44 0010 04C090E5 		ldr	ip, [r0, #4]
  45              	.LBE13:
  46              	.LBE12:
  47              		.loc 1 67 3 view .LVU7
  48 0014 183093E5 		ldr	r3, [r3, #24]
  49              		.loc 1 69 10 view .LVU8
  50 0018 0D00A0E3 		mov	r0, #13
  51              	.LVL1:
  52              		.loc 1 67 21 view .LVU9
  53 001c 242083E5 		str	r2, [r3, #36]
  54              		.loc 1 68 3 is_stmt 1 view .LVU10
  55              	.LVL2:
  56              	.LBB15:
  57              	.LBI12:
ARM GAS  /var/folders/l5/0x54b2c10074c8bt31ycjvl80000gp/T//ccLft2iL.s 			page 2


  58              		.loc 2 45 20 view .LVU11
  59              	.LBB14:
  60              		.loc 2 47 3 view .LVU12
  61              		.loc 2 48 14 is_stmt 0 view .LVU13
  62 0020 041083E8 		stm	r3, {r2, ip}
  63              		.loc 2 49 3 is_stmt 1 view .LVU14
  64              		.loc 2 49 36 is_stmt 0 view .LVU15
  65 0024 043082E5 		str	r3, [r2, #4]
  66              		.loc 2 49 22 view .LVU16
  67 0028 00308CE5 		str	r3, [ip]
  68              	.LVL3:
  69              		.loc 2 49 22 view .LVU17
  70              	.LBE14:
  71              	.LBE15:
  72              		.loc 1 69 3 is_stmt 1 view .LVU18
  73              		.loc 1 69 10 is_stmt 0 view .LVU19
  74 002c FEFFFFEA 		b	chSchGoSleepTimeoutS
  75              	.LVL4:
  76              	.L2:
  77              		.loc 1 70 1 view .LVU20
  78 0030 0000E0E3 		mvn	r0, #0
  79              	.LVL5:
  80              		.loc 1 70 1 view .LVU21
  81 0034 1EFF2FE1 		bx	lr
  82              	.L5:
  83              		.align	2
  84              	.L4:
  85 0038 00000000 		.word	rlist
  86              		.cfi_endproc
  87              	.LFE7:
  88              		.size	qwait, .-qwait
  89              		.section	.text.chIQInit,"ax",%progbits
  90              		.align	2
  91              		.global	chIQInit
  92              		.syntax unified
  93              		.arm
  94              		.fpu softvfp
  95              		.type	chIQInit, %function
  96              	chIQInit:
  97              	.LVL6:
  98              	.LFB8:
  99              		.loc 1 89 27 is_stmt 1 view -0
 100              		.cfi_startproc
 101              		@ args = 4, pretend = 0, frame = 0
 102              		@ frame_needed = 0, uses_anonymous_args = 0
 103              		.loc 1 91 3 view .LVU23
 104              		.loc 1 89 27 is_stmt 0 view .LVU24
 105 0000 04E02DE5 		str	lr, [sp, #-4]!
 106              		.cfi_def_cfa_offset 4
 107              		.cfi_offset 14, -4
 108              		.loc 1 92 18 view .LVU25
 109 0004 00E0A0E3 		mov	lr, #0
 110              		.loc 1 89 27 view .LVU26
 111 0008 04C09DE5 		ldr	ip, [sp, #4]
 112              		.loc 1 94 19 view .LVU27
 113 000c 022081E0 		add	r2, r1, r2
 114              	.LVL7:
ARM GAS  /var/folders/l5/0x54b2c10074c8bt31ycjvl80000gp/T//ccLft2iL.s 			page 3


 115              		.loc 1 94 14 view .LVU28
 116 0010 102080E5 		str	r2, [r0, #16]
 117              		.loc 1 91 3 view .LVU29
 118 0014 040080E5 		str	r0, [r0, #4]
 119 0018 000080E5 		str	r0, [r0]
 120              		.loc 1 91 30 is_stmt 1 view .LVU30
 121              		.loc 1 92 3 view .LVU31
 122              		.loc 1 93 47 is_stmt 0 view .LVU32
 123 001c 141080E5 		str	r1, [r0, #20]
 124              		.loc 1 93 32 view .LVU33
 125 0020 181080E5 		str	r1, [r0, #24]
 126              		.loc 1 93 17 view .LVU34
 127 0024 0C1080E5 		str	r1, [r0, #12]
 128              		.loc 1 95 17 view .LVU35
 129 0028 1C3080E5 		str	r3, [r0, #28]
 130              		.loc 1 92 18 view .LVU36
 131 002c 08E080E5 		str	lr, [r0, #8]
 132              		.loc 1 93 3 is_stmt 1 view .LVU37
 133              		.loc 1 94 3 view .LVU38
 134              		.loc 1 95 3 view .LVU39
 135              		.loc 1 96 3 view .LVU40
 136              		.loc 1 96 15 is_stmt 0 view .LVU41
 137 0030 20C080E5 		str	ip, [r0, #32]
 138              		.loc 1 97 1 view .LVU42
 139 0034 04F09DE4 		ldr	pc, [sp], #4
 140              		.cfi_endproc
 141              	.LFE8:
 142              		.size	chIQInit, .-chIQInit
 143              		.section	.text.chIQResetI,"ax",%progbits
 144              		.align	2
 145              		.global	chIQResetI
 146              		.syntax unified
 147              		.arm
 148              		.fpu softvfp
 149              		.type	chIQResetI, %function
 150              	chIQResetI:
 151              	.LVL8:
 152              	.LFB9:
 153              		.loc 1 110 34 is_stmt 1 view -0
 154              		.cfi_startproc
 155              		@ args = 0, pretend = 0, frame = 0
 156              		@ frame_needed = 0, uses_anonymous_args = 0
 157              		.loc 1 112 3 view .LVU44
 158              		.loc 1 112 21 view .LVU45
 159              		.loc 1 114 3 view .LVU46
 160              		.loc 1 115 18 is_stmt 0 view .LVU47
 161 0000 0010A0E3 		mov	r1, #0
 162              		.loc 1 116 10 view .LVU48
 163 0004 003090E5 		ldr	r3, [r0]
 164              		.loc 1 114 36 view .LVU49
 165 0008 0C2090E5 		ldr	r2, [r0, #12]
 166              		.loc 1 116 9 view .LVU50
 167 000c 030050E1 		cmp	r0, r3
 168              		.loc 1 115 18 view .LVU51
 169 0010 081080E5 		str	r1, [r0, #8]
 170              		.loc 1 114 31 view .LVU52
 171 0014 142080E5 		str	r2, [r0, #20]
ARM GAS  /var/folders/l5/0x54b2c10074c8bt31ycjvl80000gp/T//ccLft2iL.s 			page 4


 172              		.loc 1 114 16 view .LVU53
 173 0018 182080E5 		str	r2, [r0, #24]
 174              		.loc 1 115 3 is_stmt 1 view .LVU54
 175              		.loc 1 116 3 view .LVU55
 176              		.loc 1 116 9 is_stmt 0 view .LVU56
 177 001c 1EFF2F01 		bxeq	lr
 178              		.loc 1 110 34 view .LVU57
 179 0020 70402DE9 		push	{r4, r5, r6, lr}
 180              		.cfi_def_cfa_offset 16
 181              		.cfi_offset 4, -16
 182              		.cfi_offset 5, -12
 183              		.cfi_offset 6, -8
 184              		.cfi_offset 14, -4
 185 0024 0040A0E1 		mov	r4, r0
 186              		.loc 1 117 59 view .LVU58
 187 0028 0150E0E3 		mvn	r5, #1
 188              	.LVL9:
 189              	.L10:
 190              		.loc 1 117 5 is_stmt 1 view .LVU59
 191              	.LBB16:
 192              	.LBI16:
 193              		.loc 2 52 23 view .LVU60
 194              	.LBB17:
 195              		.loc 2 53 3 view .LVU61
 196              		.loc 2 55 3 view .LVU62
 197              		.loc 2 55 20 is_stmt 0 view .LVU63
 198 002c 002093E5 		ldr	r2, [r3]
 199              	.LBE17:
 200              	.LBE16:
 201              		.loc 1 117 5 view .LVU64
 202 0030 0300A0E1 		mov	r0, r3
 203              	.LBB19:
 204              	.LBB18:
 205              		.loc 2 55 16 view .LVU65
 206 0034 002084E5 		str	r2, [r4]
 207              		.loc 2 55 38 view .LVU66
 208 0038 044082E5 		str	r4, [r2, #4]
 209              		.loc 2 56 3 is_stmt 1 view .LVU67
 210              	.LVL10:
 211              		.loc 2 56 3 is_stmt 0 view .LVU68
 212              	.LBE18:
 213              	.LBE19:
 214              		.loc 1 117 5 view .LVU69
 215 003c FEFFFFEB 		bl	chSchReadyI
 216              	.LVL11:
 217              		.loc 1 116 10 view .LVU70
 218 0040 003094E5 		ldr	r3, [r4]
 219              		.loc 1 117 59 view .LVU71
 220 0044 245080E5 		str	r5, [r0, #36]
 221              		.loc 1 116 9 view .LVU72
 222 0048 040053E1 		cmp	r3, r4
 223 004c F6FFFF1A 		bne	.L10
 224 0050 7080BDE8 		pop	{r4, r5, r6, pc}
 225              		.cfi_endproc
 226              	.LFE9:
 227              		.size	chIQResetI, .-chIQResetI
 228              		.section	.text.chIQPutI,"ax",%progbits
ARM GAS  /var/folders/l5/0x54b2c10074c8bt31ycjvl80000gp/T//ccLft2iL.s 			page 5


 229              		.align	2
 230              		.global	chIQPutI
 231              		.syntax unified
 232              		.arm
 233              		.fpu softvfp
 234              		.type	chIQPutI, %function
 235              	chIQPutI:
 236              	.LVL12:
 237              	.LFB10:
 238              		.loc 1 133 44 is_stmt 1 view -0
 239              		.cfi_startproc
 240              		@ args = 0, pretend = 0, frame = 0
 241              		@ frame_needed = 0, uses_anonymous_args = 0
 242              		.loc 1 135 3 view .LVU74
 243              		.loc 1 135 21 view .LVU75
 244              		.loc 1 137 3 view .LVU76
 245              		.loc 1 137 6 is_stmt 0 view .LVU77
 246 0000 D421C0E1 		ldrd	r2, [r0, #20]
 247 0004 030052E1 		cmp	r2, r3
 248 0008 083090E5 		ldr	r3, [r0, #8]
 249 000c 1900000A 		beq	.L26
 250              	.L17:
 251              		.loc 1 140 3 is_stmt 1 view .LVU78
 252              		.loc 1 140 17 is_stmt 0 view .LVU79
 253 0010 013083E2 		add	r3, r3, #1
 254              		.loc 1 141 16 view .LVU80
 255 0014 01C082E2 		add	ip, r2, #1
 256 0018 14C080E5 		str	ip, [r0, #20]
 257              		.loc 1 140 17 view .LVU81
 258 001c 083080E5 		str	r3, [r0, #8]
 259              		.loc 1 141 3 is_stmt 1 view .LVU82
 260              		.loc 1 141 19 is_stmt 0 view .LVU83
 261 0020 0010C2E5 		strb	r1, [r2]
 262              		.loc 1 142 3 is_stmt 1 view .LVU84
 263              		.loc 1 142 6 is_stmt 0 view .LVU85
 264 0024 142090E5 		ldr	r2, [r0, #20]
 265 0028 103090E5 		ldr	r3, [r0, #16]
 266 002c 030052E1 		cmp	r2, r3
 267              		.loc 1 143 5 is_stmt 1 view .LVU86
 268              		.loc 1 143 18 is_stmt 0 view .LVU87
 269 0030 0C309025 		ldrcs	r3, [r0, #12]
 270              		.loc 1 145 7 view .LVU88
 271 0034 002090E5 		ldr	r2, [r0]
 272              		.loc 1 143 18 view .LVU89
 273 0038 14308025 		strcs	r3, [r0, #20]
 274              		.loc 1 145 3 is_stmt 1 view .LVU90
 275              		.loc 1 145 6 is_stmt 0 view .LVU91
 276 003c 000052E1 		cmp	r2, r0
 277 0040 0A00000A 		beq	.L21
 278 0044 0030A0E1 		mov	r3, r0
 279              		.loc 1 146 5 is_stmt 1 view .LVU92
 280              	.LVL13:
 281              	.LBB20:
 282              	.LBI20:
 283              		.loc 2 52 23 view .LVU93
 284              	.LBB21:
 285              		.loc 2 53 3 view .LVU94
ARM GAS  /var/folders/l5/0x54b2c10074c8bt31ycjvl80000gp/T//ccLft2iL.s 			page 6


 286              		.loc 2 55 3 view .LVU95
 287              		.loc 2 55 20 is_stmt 0 view .LVU96
 288 0048 001092E5 		ldr	r1, [r2]
 289              	.LVL14:
 290              		.loc 2 55 20 view .LVU97
 291              	.LBE21:
 292              	.LBE20:
 293              		.loc 1 133 44 view .LVU98
 294 004c 10402DE9 		push	{r4, lr}
 295              		.cfi_def_cfa_offset 8
 296              		.cfi_offset 4, -8
 297              		.cfi_offset 14, -4
 298              		.loc 1 146 5 view .LVU99
 299 0050 0200A0E1 		mov	r0, r2
 300              	.LVL15:
 301              	.LBB23:
 302              	.LBB22:
 303              		.loc 2 55 16 view .LVU100
 304 0054 001083E5 		str	r1, [r3]
 305              		.loc 2 55 38 view .LVU101
 306 0058 043081E5 		str	r3, [r1, #4]
 307              		.loc 2 56 3 is_stmt 1 view .LVU102
 308              	.LVL16:
 309              		.loc 2 56 3 is_stmt 0 view .LVU103
 310              	.LBE22:
 311              	.LBE23:
 312              		.loc 1 146 5 view .LVU104
 313 005c FEFFFFEB 		bl	chSchReadyI
 314              	.LVL17:
 315              		.loc 1 146 59 view .LVU105
 316 0060 0030A0E3 		mov	r3, #0
 317 0064 243080E5 		str	r3, [r0, #36]
 318              		.loc 1 148 10 view .LVU106
 319 0068 0300A0E1 		mov	r0, r3
 320              		.loc 1 149 1 view .LVU107
 321 006c 1080BDE8 		pop	{r4, pc}
 322              	.LVL18:
 323              	.L21:
 324              		.cfi_def_cfa_offset 0
 325              		.cfi_restore 4
 326              		.cfi_restore 14
 327              		.loc 1 148 10 view .LVU108
 328 0070 0000A0E3 		mov	r0, #0
 329              	.LVL19:
 330              		.loc 1 149 1 view .LVU109
 331 0074 1EFF2FE1 		bx	lr
 332              	.LVL20:
 333              	.L26:
 334              		.loc 1 137 7 discriminator 1 view .LVU110
 335 0078 000053E3 		cmp	r3, #0
 336 007c E3FFFF0A 		beq	.L17
 337              		.loc 1 138 12 view .LVU111
 338 0080 0300E0E3 		mvn	r0, #3
 339              	.LVL21:
 340              		.loc 1 138 12 view .LVU112
 341 0084 1EFF2FE1 		bx	lr
 342              		.cfi_endproc
ARM GAS  /var/folders/l5/0x54b2c10074c8bt31ycjvl80000gp/T//ccLft2iL.s 			page 7


 343              	.LFE10:
 344              		.size	chIQPutI, .-chIQPutI
 345              		.section	.text.chIQGetTimeout,"ax",%progbits
 346              		.align	2
 347              		.global	chIQGetTimeout
 348              		.syntax unified
 349              		.arm
 350              		.fpu softvfp
 351              		.type	chIQGetTimeout, %function
 352              	chIQGetTimeout:
 353              	.LVL22:
 354              	.LFB11:
 355              		.loc 1 171 55 is_stmt 1 view -0
 356              		.cfi_startproc
 357              		@ args = 0, pretend = 0, frame = 0
 358              		@ frame_needed = 0, uses_anonymous_args = 0
 359              		.loc 1 172 3 view .LVU114
 360              		.loc 1 174 3 view .LVU115
 361              		.loc 1 171 55 is_stmt 0 view .LVU116
 362 0000 70402DE9 		push	{r4, r5, r6, lr}
 363              		.cfi_def_cfa_offset 16
 364              		.cfi_offset 4, -16
 365              		.cfi_offset 5, -12
 366              		.cfi_offset 6, -8
 367              		.cfi_offset 14, -4
 368              		.loc 1 171 55 view .LVU117
 369 0004 0150A0E1 		mov	r5, r1
 370 0008 0040A0E1 		mov	r4, r0
 371              		.loc 1 174 3 view .LVU118
 372              		.syntax divided
 373              	@ 174 "../../os/kernel/src/chqueues.c" 1
 374 000c 9FF021E3 		msr     CPSR_c, #0x9F
 375              	@ 0 "" 2
 376              		.loc 1 174 3 is_stmt 1 view .LVU119
 377              		.loc 1 174 14 view .LVU120
 378              		.loc 1 175 3 view .LVU121
 379              		.loc 1 175 10 is_stmt 0 view .LVU122
 380              		.arm
 381              		.syntax unified
 382 0010 1C3090E5 		ldr	r3, [r0, #28]
 383              		.loc 1 175 6 view .LVU123
 384 0014 000053E3 		cmp	r3, #0
 385 0018 0600000A 		beq	.L29
 386              		.loc 1 176 5 is_stmt 1 view .LVU124
 387 001c 33FF2FE1 		blx	r3
 388              	.LVL23:
 389              		.loc 1 176 5 is_stmt 0 view .LVU125
 390 0020 040000EA 		b	.L29
 391              	.L31:
 392              	.LBB24:
 393              		.loc 1 180 16 view .LVU126
 394 0024 0510A0E1 		mov	r1, r5
 395 0028 0400A0E1 		mov	r0, r4
 396 002c FEFFFFEB 		bl	qwait
 397              	.LVL24:
 398              		.loc 1 180 8 view .LVU127
 399 0030 000050E3 		cmp	r0, #0
ARM GAS  /var/folders/l5/0x54b2c10074c8bt31ycjvl80000gp/T//ccLft2iL.s 			page 8


 400              		.loc 1 180 8 view .LVU128
 401 0034 0C0000BA 		blt	.L32
 402              	.LVL25:
 403              	.L29:
 404              		.loc 1 179 5 is_stmt 1 view .LVU129
 405              		.loc 1 180 5 view .LVU130
 406              	.LBE24:
 407              		.loc 1 178 10 is_stmt 0 view .LVU131
 408 0038 083094E5 		ldr	r3, [r4, #8]
 409              		.loc 1 178 9 view .LVU132
 410 003c 000053E3 		cmp	r3, #0
 411 0040 F7FFFF0A 		beq	.L31
 412              		.loc 1 186 3 is_stmt 1 view .LVU133
 413              		.loc 1 187 11 is_stmt 0 view .LVU134
 414 0044 182094E5 		ldr	r2, [r4, #24]
 415              		.loc 1 188 6 view .LVU135
 416 0048 100094E5 		ldr	r0, [r4, #16]
 417              		.loc 1 187 20 view .LVU136
 418 004c 011082E2 		add	r1, r2, #1
 419              		.loc 1 186 17 view .LVU137
 420 0050 013043E2 		sub	r3, r3, #1
 421              		.loc 1 188 6 view .LVU138
 422 0054 000051E1 		cmp	r1, r0
 423              		.loc 1 186 17 view .LVU139
 424 0058 083084E5 		str	r3, [r4, #8]
 425              		.loc 1 187 3 is_stmt 1 view .LVU140
 426              		.loc 1 189 18 is_stmt 0 view .LVU141
 427 005c 0C309425 		ldrcs	r3, [r4, #12]
 428              		.loc 1 187 20 view .LVU142
 429 0060 181084E5 		str	r1, [r4, #24]
 430              		.loc 1 187 5 view .LVU143
 431 0064 0000D2E5 		ldrb	r0, [r2]	@ zero_extendqisi2
 432              	.LVL26:
 433              		.loc 1 188 3 is_stmt 1 view .LVU144
 434              		.loc 1 189 5 view .LVU145
 435              		.loc 1 189 18 is_stmt 0 view .LVU146
 436 0068 18308425 		strcs	r3, [r4, #24]
 437              	.LVL27:
 438              	.L32:
 439              		.loc 1 191 3 is_stmt 1 view .LVU147
 440              		.loc 1 191 3 view .LVU148
 441              		.syntax divided
 442              	@ 191 "../../os/kernel/src/chqueues.c" 1
 443 006c 1FF021E3 		msr     CPSR_c, #0x1F
 444              	@ 0 "" 2
 445              		.loc 1 191 16 view .LVU149
 446              		.loc 1 192 3 view .LVU150
 447              		.loc 1 193 1 is_stmt 0 view .LVU151
 448              		.arm
 449              		.syntax unified
 450 0070 7080BDE8 		pop	{r4, r5, r6, pc}
 451              		.cfi_endproc
 452              	.LFE11:
 453              		.size	chIQGetTimeout, .-chIQGetTimeout
 454              		.section	.text.chIQReadTimeout,"ax",%progbits
 455              		.align	2
 456              		.global	chIQReadTimeout
ARM GAS  /var/folders/l5/0x54b2c10074c8bt31ycjvl80000gp/T//ccLft2iL.s 			page 9


 457              		.syntax unified
 458              		.arm
 459              		.fpu softvfp
 460              		.type	chIQReadTimeout, %function
 461              	chIQReadTimeout:
 462              	.LVL28:
 463              	.LFB12:
 464              		.loc 1 220 50 is_stmt 1 view -0
 465              		.cfi_startproc
 466              		@ args = 0, pretend = 0, frame = 0
 467              		@ frame_needed = 0, uses_anonymous_args = 0
 468              		.loc 1 221 3 view .LVU153
 469              		.loc 1 220 50 is_stmt 0 view .LVU154
 470 0000 F0472DE9 		push	{r4, r5, r6, r7, r8, r9, r10, lr}
 471              		.cfi_def_cfa_offset 32
 472              		.cfi_offset 4, -32
 473              		.cfi_offset 5, -28
 474              		.cfi_offset 6, -24
 475              		.cfi_offset 7, -20
 476              		.cfi_offset 8, -16
 477              		.cfi_offset 9, -12
 478              		.cfi_offset 10, -8
 479              		.cfi_offset 14, -4
 480              		.loc 1 220 50 view .LVU155
 481 0004 0040A0E1 		mov	r4, r0
 482 0008 0180A0E1 		mov	r8, r1
 483 000c 0290A0E1 		mov	r9, r2
 484 0010 0350A0E1 		mov	r5, r3
 485              		.loc 1 221 13 view .LVU156
 486 0014 1C7090E5 		ldr	r7, [r0, #28]
 487              	.LVL29:
 488              		.loc 1 222 3 is_stmt 1 view .LVU157
 489              		.loc 1 224 3 view .LVU158
 490              		.loc 1 224 39 view .LVU159
 491              		.loc 1 226 3 view .LVU160
 492              		.syntax divided
 493              	@ 226 "../../os/kernel/src/chqueues.c" 1
 494 0018 9FF021E3 		msr     CPSR_c, #0x9F
 495              	@ 0 "" 2
 496              		.loc 1 222 10 is_stmt 0 view .LVU161
 497              		.arm
 498              		.syntax unified
 499 001c 0060A0E3 		mov	r6, #0
 500              	.LVL30:
 501              	.L44:
 502              		.loc 1 226 3 is_stmt 1 discriminator 1 view .LVU162
 503              		.loc 1 226 14 discriminator 1 view .LVU163
 504              		.loc 1 227 3 discriminator 1 view .LVU164
 505              		.loc 1 228 5 discriminator 1 view .LVU165
 506              		.loc 1 228 8 is_stmt 0 discriminator 1 view .LVU166
 507 0020 000057E3 		cmp	r7, #0
 508 0024 0700000A 		beq	.L40
 509              		.loc 1 229 7 is_stmt 1 view .LVU167
 510 0028 0400A0E1 		mov	r0, r4
 511 002c 37FF2FE1 		blx	r7
 512              	.LVL31:
 513 0030 040000EA 		b	.L40
ARM GAS  /var/folders/l5/0x54b2c10074c8bt31ycjvl80000gp/T//ccLft2iL.s 			page 10


 514              	.L42:
 515              		.loc 1 232 11 is_stmt 0 view .LVU168
 516 0034 0510A0E1 		mov	r1, r5
 517 0038 0400A0E1 		mov	r0, r4
 518 003c FEFFFFEB 		bl	qwait
 519              	.LVL32:
 520              		.loc 1 232 10 view .LVU169
 521 0040 000050E3 		cmp	r0, #0
 522 0044 1400001A 		bne	.L51
 523              	.L40:
 524              		.loc 1 232 7 is_stmt 1 view .LVU170
 525              		.loc 1 231 12 is_stmt 0 view .LVU171
 526 0048 083094E5 		ldr	r3, [r4, #8]
 527              		.loc 1 231 11 view .LVU172
 528 004c 000053E3 		cmp	r3, #0
 529 0050 F7FFFF0A 		beq	.L42
 530              		.loc 1 238 5 is_stmt 1 view .LVU173
 531              		.loc 1 239 17 is_stmt 0 view .LVU174
 532 0054 182094E5 		ldr	r2, [r4, #24]
 533              		.loc 1 238 19 view .LVU175
 534 0058 013043E2 		sub	r3, r3, #1
 535              		.loc 1 239 26 view .LVU176
 536 005c 011082E2 		add	r1, r2, #1
 537 0060 181084E5 		str	r1, [r4, #24]
 538              		.loc 1 238 19 view .LVU177
 539 0064 083084E5 		str	r3, [r4, #8]
 540              		.loc 1 239 5 is_stmt 1 view .LVU178
 541              		.loc 1 239 13 is_stmt 0 view .LVU179
 542 0068 0030D2E5 		ldrb	r3, [r2]	@ zero_extendqisi2
 543              		.loc 1 239 11 view .LVU180
 544 006c 0130C8E4 		strb	r3, [r8], #1
 545              	.LVL33:
 546              		.loc 1 240 5 is_stmt 1 view .LVU181
 547              		.loc 1 240 8 is_stmt 0 view .LVU182
 548 0070 103094E5 		ldr	r3, [r4, #16]
 549 0074 182094E5 		ldr	r2, [r4, #24]
 550 0078 030052E1 		cmp	r2, r3
 551              		.loc 1 241 7 is_stmt 1 view .LVU183
 552              		.loc 1 241 20 is_stmt 0 view .LVU184
 553 007c 0C309425 		ldrcs	r3, [r4, #12]
 554 0080 18308425 		strcs	r3, [r4, #24]
 555              		.loc 1 243 5 is_stmt 1 view .LVU185
 556              		.loc 1 243 5 view .LVU186
 557              		.syntax divided
 558              	@ 243 "../../os/kernel/src/chqueues.c" 1
 559 0084 1FF021E3 		msr     CPSR_c, #0x1F
 560              	@ 0 "" 2
 561              		.loc 1 243 18 view .LVU187
 562              		.loc 1 244 5 view .LVU188
 563              		.loc 1 244 6 is_stmt 0 view .LVU189
 564              		.arm
 565              		.syntax unified
 566 0088 016086E2 		add	r6, r6, #1
 567              	.LVL34:
 568              		.loc 1 245 5 is_stmt 1 view .LVU190
 569              		.loc 1 245 8 is_stmt 0 view .LVU191
 570 008c 060059E1 		cmp	r9, r6
ARM GAS  /var/folders/l5/0x54b2c10074c8bt31ycjvl80000gp/T//ccLft2iL.s 			page 11


 571 0090 0200000A 		beq	.L38
 572              		.loc 1 248 5 is_stmt 1 view .LVU192
 573              		.syntax divided
 574              	@ 248 "../../os/kernel/src/chqueues.c" 1
 575 0094 9FF021E3 		msr     CPSR_c, #0x9F
 576              	@ 0 "" 2
 577              		.loc 1 248 5 view .LVU193
 578              		.loc 1 248 16 view .LVU194
 579              		.loc 1 228 8 is_stmt 0 view .LVU195
 580              		.arm
 581              		.syntax unified
 582 0098 E0FFFFEA 		b	.L44
 583              	.LVL35:
 584              	.L51:
 585              		.loc 1 233 9 is_stmt 1 view .LVU196
 586              		.loc 1 233 9 view .LVU197
 587              		.syntax divided
 588              	@ 233 "../../os/kernel/src/chqueues.c" 1
 589 009c 1FF021E3 		msr     CPSR_c, #0x1F
 590              	@ 0 "" 2
 591              		.loc 1 233 22 view .LVU198
 592              		.loc 1 234 9 view .LVU199
 593              	.LVL36:
 594              		.arm
 595              		.syntax unified
 596              	.L38:
 597              		.loc 1 250 1 is_stmt 0 view .LVU200
 598 00a0 0600A0E1 		mov	r0, r6
 599 00a4 F087BDE8 		pop	{r4, r5, r6, r7, r8, r9, r10, pc}
 600              		.cfi_endproc
 601              	.LFE12:
 602              		.size	chIQReadTimeout, .-chIQReadTimeout
 603              		.section	.text.chOQInit,"ax",%progbits
 604              		.align	2
 605              		.global	chOQInit
 606              		.syntax unified
 607              		.arm
 608              		.fpu softvfp
 609              		.type	chOQInit, %function
 610              	chOQInit:
 611              	.LVL37:
 612              	.LFB13:
 613              		.loc 1 269 27 is_stmt 1 view -0
 614              		.cfi_startproc
 615              		@ args = 4, pretend = 0, frame = 0
 616              		@ frame_needed = 0, uses_anonymous_args = 0
 617              		.loc 1 271 3 view .LVU202
 618              		.loc 1 269 27 is_stmt 0 view .LVU203
 619 0000 04E02DE5 		str	lr, [sp, #-4]!
 620              		.cfi_def_cfa_offset 4
 621              		.cfi_offset 14, -4
 622              		.loc 1 269 27 view .LVU204
 623 0004 04C09DE5 		ldr	ip, [sp, #4]
 624              		.loc 1 274 19 view .LVU205
 625 0008 02E081E0 		add	lr, r1, r2
 626              		.loc 1 271 3 view .LVU206
 627 000c 040080E5 		str	r0, [r0, #4]
ARM GAS  /var/folders/l5/0x54b2c10074c8bt31ycjvl80000gp/T//ccLft2iL.s 			page 12


 628 0010 000080E5 		str	r0, [r0]
 629              		.loc 1 271 30 is_stmt 1 view .LVU207
 630              		.loc 1 272 3 view .LVU208
 631              		.loc 1 272 18 is_stmt 0 view .LVU209
 632 0014 082080E5 		str	r2, [r0, #8]
 633              		.loc 1 273 3 is_stmt 1 view .LVU210
 634              		.loc 1 274 14 is_stmt 0 view .LVU211
 635 0018 10E080E5 		str	lr, [r0, #16]
 636              		.loc 1 273 47 view .LVU212
 637 001c 141080E5 		str	r1, [r0, #20]
 638              		.loc 1 273 32 view .LVU213
 639 0020 181080E5 		str	r1, [r0, #24]
 640              		.loc 1 273 17 view .LVU214
 641 0024 0C1080E5 		str	r1, [r0, #12]
 642              		.loc 1 274 3 is_stmt 1 view .LVU215
 643              		.loc 1 275 3 view .LVU216
 644              		.loc 1 275 17 is_stmt 0 view .LVU217
 645 0028 1C3080E5 		str	r3, [r0, #28]
 646              		.loc 1 276 3 is_stmt 1 view .LVU218
 647              		.loc 1 276 15 is_stmt 0 view .LVU219
 648 002c 20C080E5 		str	ip, [r0, #32]
 649              		.loc 1 277 1 view .LVU220
 650 0030 04F09DE4 		ldr	pc, [sp], #4
 651              		.cfi_endproc
 652              	.LFE13:
 653              		.size	chOQInit, .-chOQInit
 654              		.section	.text.chOQResetI,"ax",%progbits
 655              		.align	2
 656              		.global	chOQResetI
 657              		.syntax unified
 658              		.arm
 659              		.fpu softvfp
 660              		.type	chOQResetI, %function
 661              	chOQResetI:
 662              	.LVL38:
 663              	.LFB14:
 664              		.loc 1 290 35 is_stmt 1 view -0
 665              		.cfi_startproc
 666              		@ args = 0, pretend = 0, frame = 0
 667              		@ frame_needed = 0, uses_anonymous_args = 0
 668              		.loc 1 292 3 view .LVU222
 669              		.loc 1 292 21 view .LVU223
 670              		.loc 1 294 3 view .LVU224
 671              		.loc 1 294 36 is_stmt 0 view .LVU225
 672 0000 0C1090E5 		ldr	r1, [r0, #12]
 673              		.loc 1 295 20 view .LVU226
 674 0004 102090E5 		ldr	r2, [r0, #16]
 675              		.loc 1 296 10 view .LVU227
 676 0008 003090E5 		ldr	r3, [r0]
 677              		.loc 1 295 20 view .LVU228
 678 000c 012042E0 		sub	r2, r2, r1
 679              		.loc 1 296 9 view .LVU229
 680 0010 030050E1 		cmp	r0, r3
 681              		.loc 1 294 31 view .LVU230
 682 0014 141080E5 		str	r1, [r0, #20]
 683              		.loc 1 294 16 view .LVU231
 684 0018 181080E5 		str	r1, [r0, #24]
ARM GAS  /var/folders/l5/0x54b2c10074c8bt31ycjvl80000gp/T//ccLft2iL.s 			page 13


 685              		.loc 1 295 3 is_stmt 1 view .LVU232
 686              		.loc 1 295 18 is_stmt 0 view .LVU233
 687 001c 082080E5 		str	r2, [r0, #8]
 688              		.loc 1 296 3 is_stmt 1 view .LVU234
 689              		.loc 1 296 9 is_stmt 0 view .LVU235
 690 0020 1EFF2F01 		bxeq	lr
 691              		.loc 1 290 35 view .LVU236
 692 0024 70402DE9 		push	{r4, r5, r6, lr}
 693              		.cfi_def_cfa_offset 16
 694              		.cfi_offset 4, -16
 695              		.cfi_offset 5, -12
 696              		.cfi_offset 6, -8
 697              		.cfi_offset 14, -4
 698 0028 0040A0E1 		mov	r4, r0
 699              		.loc 1 297 59 view .LVU237
 700 002c 0150E0E3 		mvn	r5, #1
 701              	.LVL39:
 702              	.L56:
 703              		.loc 1 297 5 is_stmt 1 view .LVU238
 704              	.LBB25:
 705              	.LBI25:
 706              		.loc 2 52 23 view .LVU239
 707              	.LBB26:
 708              		.loc 2 53 3 view .LVU240
 709              		.loc 2 55 3 view .LVU241
 710              		.loc 2 55 20 is_stmt 0 view .LVU242
 711 0030 002093E5 		ldr	r2, [r3]
 712              	.LBE26:
 713              	.LBE25:
 714              		.loc 1 297 5 view .LVU243
 715 0034 0300A0E1 		mov	r0, r3
 716              	.LBB28:
 717              	.LBB27:
 718              		.loc 2 55 16 view .LVU244
 719 0038 002084E5 		str	r2, [r4]
 720              		.loc 2 55 38 view .LVU245
 721 003c 044082E5 		str	r4, [r2, #4]
 722              		.loc 2 56 3 is_stmt 1 view .LVU246
 723              	.LVL40:
 724              		.loc 2 56 3 is_stmt 0 view .LVU247
 725              	.LBE27:
 726              	.LBE28:
 727              		.loc 1 297 5 view .LVU248
 728 0040 FEFFFFEB 		bl	chSchReadyI
 729              	.LVL41:
 730              		.loc 1 296 10 view .LVU249
 731 0044 003094E5 		ldr	r3, [r4]
 732              		.loc 1 297 59 view .LVU250
 733 0048 245080E5 		str	r5, [r0, #36]
 734              		.loc 1 296 9 view .LVU251
 735 004c 040053E1 		cmp	r3, r4
 736 0050 F6FFFF1A 		bne	.L56
 737 0054 7080BDE8 		pop	{r4, r5, r6, pc}
 738              		.cfi_endproc
 739              	.LFE14:
 740              		.size	chOQResetI, .-chOQResetI
 741              		.section	.text.chOQPutTimeout,"ax",%progbits
ARM GAS  /var/folders/l5/0x54b2c10074c8bt31ycjvl80000gp/T//ccLft2iL.s 			page 14


 742              		.align	2
 743              		.global	chOQPutTimeout
 744              		.syntax unified
 745              		.arm
 746              		.fpu softvfp
 747              		.type	chOQPutTimeout, %function
 748              	chOQPutTimeout:
 749              	.LVL42:
 750              	.LFB15:
 751              		.loc 1 322 67 is_stmt 1 view -0
 752              		.cfi_startproc
 753              		@ args = 0, pretend = 0, frame = 0
 754              		@ frame_needed = 0, uses_anonymous_args = 0
 755              		.loc 1 324 3 view .LVU253
 756              		.loc 1 322 67 is_stmt 0 view .LVU254
 757 0000 70402DE9 		push	{r4, r5, r6, lr}
 758              		.cfi_def_cfa_offset 16
 759              		.cfi_offset 4, -16
 760              		.cfi_offset 5, -12
 761              		.cfi_offset 6, -8
 762              		.cfi_offset 14, -4
 763              		.loc 1 322 67 view .LVU255
 764 0004 0040A0E1 		mov	r4, r0
 765 0008 0160A0E1 		mov	r6, r1
 766 000c 0250A0E1 		mov	r5, r2
 767              		.loc 1 324 3 view .LVU256
 768              		.syntax divided
 769              	@ 324 "../../os/kernel/src/chqueues.c" 1
 770 0010 9FF021E3 		msr     CPSR_c, #0x9F
 771              	@ 0 "" 2
 772              		.loc 1 324 3 is_stmt 1 view .LVU257
 773              		.loc 1 324 14 view .LVU258
 774              		.loc 1 325 3 view .LVU259
 775              		.loc 1 325 9 is_stmt 0 view .LVU260
 776              		.arm
 777              		.syntax unified
 778 0014 040000EA 		b	.L63
 779              	.LVL43:
 780              	.L65:
 781              	.LBB29:
 782              		.loc 1 328 16 view .LVU261
 783 0018 0510A0E1 		mov	r1, r5
 784 001c 0400A0E1 		mov	r0, r4
 785 0020 FEFFFFEB 		bl	qwait
 786              	.LVL44:
 787              		.loc 1 328 8 view .LVU262
 788 0024 000050E3 		cmp	r0, #0
 789              		.loc 1 328 8 view .LVU263
 790 0028 150000BA 		blt	.L73
 791              	.LVL45:
 792              	.L63:
 793              		.loc 1 326 5 is_stmt 1 view .LVU264
 794              		.loc 1 328 5 view .LVU265
 795              	.LBE29:
 796              		.loc 1 325 10 is_stmt 0 view .LVU266
 797 002c 083094E5 		ldr	r3, [r4, #8]
 798              		.loc 1 325 9 view .LVU267
ARM GAS  /var/folders/l5/0x54b2c10074c8bt31ycjvl80000gp/T//ccLft2iL.s 			page 15


 799 0030 000053E3 		cmp	r3, #0
 800 0034 F7FFFF0A 		beq	.L65
 801              		.loc 1 334 3 is_stmt 1 view .LVU268
 802              		.loc 1 335 7 is_stmt 0 view .LVU269
 803 0038 142094E5 		ldr	r2, [r4, #20]
 804              		.loc 1 334 17 view .LVU270
 805 003c 013043E2 		sub	r3, r3, #1
 806              		.loc 1 335 16 view .LVU271
 807 0040 011082E2 		add	r1, r2, #1
 808 0044 141084E5 		str	r1, [r4, #20]
 809              		.loc 1 334 17 view .LVU272
 810 0048 083084E5 		str	r3, [r4, #8]
 811              		.loc 1 335 3 is_stmt 1 view .LVU273
 812              		.loc 1 335 19 is_stmt 0 view .LVU274
 813 004c 0060C2E5 		strb	r6, [r2]
 814              		.loc 1 336 3 is_stmt 1 view .LVU275
 815              		.loc 1 336 6 is_stmt 0 view .LVU276
 816 0050 103094E5 		ldr	r3, [r4, #16]
 817 0054 142094E5 		ldr	r2, [r4, #20]
 818 0058 030052E1 		cmp	r2, r3
 819              		.loc 1 337 5 is_stmt 1 view .LVU277
 820              		.loc 1 337 18 is_stmt 0 view .LVU278
 821 005c 0C309425 		ldrcs	r3, [r4, #12]
 822 0060 14308425 		strcs	r3, [r4, #20]
 823              		.loc 1 339 3 is_stmt 1 view .LVU279
 824              		.loc 1 339 10 is_stmt 0 view .LVU280
 825 0064 1C3094E5 		ldr	r3, [r4, #28]
 826              		.loc 1 339 6 view .LVU281
 827 0068 000053E3 		cmp	r3, #0
 828 006c 0100000A 		beq	.L67
 829              		.loc 1 340 5 is_stmt 1 view .LVU282
 830 0070 0400A0E1 		mov	r0, r4
 831 0074 33FF2FE1 		blx	r3
 832              	.LVL46:
 833              	.L67:
 834              		.loc 1 342 3 view .LVU283
 835              		.loc 1 342 3 view .LVU284
 836              		.syntax divided
 837              	@ 342 "../../os/kernel/src/chqueues.c" 1
 838 0078 1FF021E3 		msr     CPSR_c, #0x1F
 839              	@ 0 "" 2
 840              		.loc 1 342 16 view .LVU285
 841              		.loc 1 343 3 view .LVU286
 842              		.loc 1 343 10 is_stmt 0 view .LVU287
 843              		.arm
 844              		.syntax unified
 845 007c 0000A0E3 		mov	r0, #0
 846              		.loc 1 344 1 view .LVU288
 847 0080 7080BDE8 		pop	{r4, r5, r6, pc}
 848              	.LVL47:
 849              	.L73:
 850              	.LBB30:
 851              		.loc 1 329 7 is_stmt 1 view .LVU289
 852              		.loc 1 329 7 view .LVU290
 853              		.syntax divided
 854              	@ 329 "../../os/kernel/src/chqueues.c" 1
 855 0084 1FF021E3 		msr     CPSR_c, #0x1F
ARM GAS  /var/folders/l5/0x54b2c10074c8bt31ycjvl80000gp/T//ccLft2iL.s 			page 16


 856              	@ 0 "" 2
 857              		.loc 1 329 20 view .LVU291
 858              		.loc 1 330 7 view .LVU292
 859              		.loc 1 330 14 is_stmt 0 view .LVU293
 860              		.arm
 861              		.syntax unified
 862 0088 7080BDE8 		pop	{r4, r5, r6, pc}
 863              	.LBE30:
 864              		.cfi_endproc
 865              	.LFE15:
 866              		.size	chOQPutTimeout, .-chOQPutTimeout
 867              		.section	.text.chOQGetI,"ax",%progbits
 868              		.align	2
 869              		.global	chOQGetI
 870              		.syntax unified
 871              		.arm
 872              		.fpu softvfp
 873              		.type	chOQGetI, %function
 874              	chOQGetI:
 875              	.LVL48:
 876              	.LFB16:
 877              		.loc 1 356 34 is_stmt 1 view -0
 878              		.cfi_startproc
 879              		@ args = 0, pretend = 0, frame = 0
 880              		@ frame_needed = 0, uses_anonymous_args = 0
 881              		.loc 1 357 3 view .LVU295
 882              		.loc 1 359 3 view .LVU296
 883              		.loc 1 359 21 view .LVU297
 884              		.loc 1 361 3 view .LVU298
 885              		.loc 1 361 7 is_stmt 0 view .LVU299
 886 0000 182090E5 		ldr	r2, [r0, #24]
 887              		.loc 1 361 6 view .LVU300
 888 0004 141090E5 		ldr	r1, [r0, #20]
 889 0008 083090E5 		ldr	r3, [r0, #8]
 890 000c 020051E1 		cmp	r1, r2
 891 0010 1600000A 		beq	.L83
 892              	.L75:
 893              		.loc 1 364 3 is_stmt 1 view .LVU301
 894              		.loc 1 356 34 is_stmt 0 view .LVU302
 895 0014 10402DE9 		push	{r4, lr}
 896              		.cfi_def_cfa_offset 8
 897              		.cfi_offset 4, -8
 898              		.cfi_offset 14, -4
 899              		.loc 1 366 6 view .LVU303
 900 0018 10C090E5 		ldr	ip, [r0, #16]
 901              		.loc 1 364 17 view .LVU304
 902 001c 013083E2 		add	r3, r3, #1
 903              		.loc 1 365 20 view .LVU305
 904 0020 011082E2 		add	r1, r2, #1
 905              		.loc 1 366 6 view .LVU306
 906 0024 0C0051E1 		cmp	r1, ip
 907              		.loc 1 364 17 view .LVU307
 908 0028 083080E5 		str	r3, [r0, #8]
 909              		.loc 1 365 3 is_stmt 1 view .LVU308
 910              		.loc 1 365 20 is_stmt 0 view .LVU309
 911 002c 181080E5 		str	r1, [r0, #24]
 912              		.loc 1 365 5 view .LVU310
ARM GAS  /var/folders/l5/0x54b2c10074c8bt31ycjvl80000gp/T//ccLft2iL.s 			page 17


 913 0030 0040D2E5 		ldrb	r4, [r2]	@ zero_extendqisi2
 914              	.LVL49:
 915              		.loc 1 366 3 is_stmt 1 view .LVU311
 916              		.loc 1 367 5 view .LVU312
 917              		.loc 1 367 18 is_stmt 0 view .LVU313
 918 0034 0C309025 		ldrcs	r3, [r0, #12]
 919              		.loc 1 369 7 view .LVU314
 920 0038 002090E5 		ldr	r2, [r0]
 921              		.loc 1 367 18 view .LVU315
 922 003c 18308025 		strcs	r3, [r0, #24]
 923              		.loc 1 369 3 is_stmt 1 view .LVU316
 924              		.loc 1 369 6 is_stmt 0 view .LVU317
 925 0040 000052E1 		cmp	r2, r0
 926 0044 0700000A 		beq	.L78
 927 0048 0030A0E1 		mov	r3, r0
 928              		.loc 1 370 5 is_stmt 1 view .LVU318
 929              	.LVL50:
 930              	.LBB31:
 931              	.LBI31:
 932              		.loc 2 52 23 view .LVU319
 933              	.LBB32:
 934              		.loc 2 53 3 view .LVU320
 935              		.loc 2 55 3 view .LVU321
 936              		.loc 2 55 20 is_stmt 0 view .LVU322
 937 004c 001092E5 		ldr	r1, [r2]
 938              	.LBE32:
 939              	.LBE31:
 940              		.loc 1 370 5 view .LVU323
 941 0050 0200A0E1 		mov	r0, r2
 942              	.LVL51:
 943              	.LBB34:
 944              	.LBB33:
 945              		.loc 2 55 16 view .LVU324
 946 0054 001083E5 		str	r1, [r3]
 947              		.loc 2 55 38 view .LVU325
 948 0058 043081E5 		str	r3, [r1, #4]
 949              		.loc 2 56 3 is_stmt 1 view .LVU326
 950              	.LVL52:
 951              		.loc 2 56 3 is_stmt 0 view .LVU327
 952              	.LBE33:
 953              	.LBE34:
 954              		.loc 1 370 5 view .LVU328
 955 005c FEFFFFEB 		bl	chSchReadyI
 956              	.LVL53:
 957              		.loc 1 370 59 view .LVU329
 958 0060 0030A0E3 		mov	r3, #0
 959 0064 243080E5 		str	r3, [r0, #36]
 960              	.L78:
 961              		.loc 1 372 3 is_stmt 1 view .LVU330
 962              		.loc 1 372 10 is_stmt 0 view .LVU331
 963 0068 0400A0E1 		mov	r0, r4
 964              		.loc 1 373 1 view .LVU332
 965 006c 1080BDE8 		pop	{r4, pc}
 966              	.LVL54:
 967              	.L83:
 968              		.cfi_def_cfa_offset 0
 969              		.cfi_restore 4
ARM GAS  /var/folders/l5/0x54b2c10074c8bt31ycjvl80000gp/T//ccLft2iL.s 			page 18


 970              		.cfi_restore 14
 971              		.loc 1 361 7 discriminator 1 view .LVU333
 972 0070 000053E3 		cmp	r3, #0
 973 0074 E6FFFF0A 		beq	.L75
 974              		.loc 1 362 12 view .LVU334
 975 0078 0200E0E3 		mvn	r0, #2
 976              	.LVL55:
 977              		.loc 1 373 1 view .LVU335
 978 007c 1EFF2FE1 		bx	lr
 979              		.cfi_endproc
 980              	.LFE16:
 981              		.size	chOQGetI, .-chOQGetI
 982              		.section	.text.chOQWriteTimeout,"ax",%progbits
 983              		.align	2
 984              		.global	chOQWriteTimeout
 985              		.syntax unified
 986              		.arm
 987              		.fpu softvfp
 988              		.type	chOQWriteTimeout, %function
 989              	chOQWriteTimeout:
 990              	.LVL56:
 991              	.LFB17:
 992              		.loc 1 400 51 is_stmt 1 view -0
 993              		.cfi_startproc
 994              		@ args = 0, pretend = 0, frame = 0
 995              		@ frame_needed = 0, uses_anonymous_args = 0
 996              		.loc 1 401 3 view .LVU337
 997              		.loc 1 400 51 is_stmt 0 view .LVU338
 998 0000 F0472DE9 		push	{r4, r5, r6, r7, r8, r9, r10, lr}
 999              		.cfi_def_cfa_offset 32
 1000              		.cfi_offset 4, -32
 1001              		.cfi_offset 5, -28
 1002              		.cfi_offset 6, -24
 1003              		.cfi_offset 7, -20
 1004              		.cfi_offset 8, -16
 1005              		.cfi_offset 9, -12
 1006              		.cfi_offset 10, -8
 1007              		.cfi_offset 14, -4
 1008              		.loc 1 400 51 view .LVU339
 1009 0004 0040A0E1 		mov	r4, r0
 1010 0008 0150A0E1 		mov	r5, r1
 1011 000c 0260A0E1 		mov	r6, r2
 1012 0010 0390A0E1 		mov	r9, r3
 1013              		.loc 1 401 13 view .LVU340
 1014 0014 1C8090E5 		ldr	r8, [r0, #28]
 1015              	.LVL57:
 1016              		.loc 1 402 3 is_stmt 1 view .LVU341
 1017              		.loc 1 404 3 view .LVU342
 1018              		.loc 1 404 40 view .LVU343
 1019              		.loc 1 406 3 view .LVU344
 1020              		.syntax divided
 1021              	@ 406 "../../os/kernel/src/chqueues.c" 1
 1022 0018 9FF021E3 		msr     CPSR_c, #0x9F
 1023              	@ 0 "" 2
 1024              		.loc 1 402 10 is_stmt 0 view .LVU345
 1025              		.arm
 1026              		.syntax unified
ARM GAS  /var/folders/l5/0x54b2c10074c8bt31ycjvl80000gp/T//ccLft2iL.s 			page 19


 1027 001c 0070A0E3 		mov	r7, #0
 1028              	.LVL58:
 1029              	.L85:
 1030              		.loc 1 414 5 is_stmt 1 view .LVU346
 1031              		.loc 1 419 5 view .LVU347
 1032              		.loc 1 420 7 view .LVU348
 1033              		.loc 1 408 12 is_stmt 0 view .LVU349
 1034 0020 083094E5 		ldr	r3, [r4, #8]
 1035              		.loc 1 408 11 view .LVU350
 1036 0024 000053E3 		cmp	r3, #0
 1037              		.loc 1 414 19 view .LVU351
 1038 0028 012043E2 		sub	r2, r3, #1
 1039              		.loc 1 408 11 view .LVU352
 1040 002c 1700000A 		beq	.L88
 1041              	.L101:
 1042              		.loc 1 417 7 is_stmt 1 view .LVU353
 1043              		.loc 1 415 9 is_stmt 0 view .LVU354
 1044 0030 143094E5 		ldr	r3, [r4, #20]
 1045              		.loc 1 414 19 view .LVU355
 1046 0034 082084E5 		str	r2, [r4, #8]
 1047              		.loc 1 415 5 is_stmt 1 view .LVU356
 1048              		.loc 1 415 18 is_stmt 0 view .LVU357
 1049 0038 012083E2 		add	r2, r3, #1
 1050 003c 142084E5 		str	r2, [r4, #20]
 1051              		.loc 1 415 23 view .LVU358
 1052 0040 0120D5E4 		ldrb	r2, [r5], #1	@ zero_extendqisi2
 1053              	.LVL59:
 1054              		.loc 1 415 21 view .LVU359
 1055 0044 0020C3E5 		strb	r2, [r3]
 1056              		.loc 1 416 5 is_stmt 1 view .LVU360
 1057              		.loc 1 416 8 is_stmt 0 view .LVU361
 1058 0048 103094E5 		ldr	r3, [r4, #16]
 1059 004c 142094E5 		ldr	r2, [r4, #20]
 1060 0050 030052E1 		cmp	r2, r3
 1061              		.loc 1 417 20 view .LVU362
 1062 0054 0C309425 		ldrcs	r3, [r4, #12]
 1063 0058 14308425 		strcs	r3, [r4, #20]
 1064              		.loc 1 419 8 view .LVU363
 1065 005c 000058E3 		cmp	r8, #0
 1066 0060 0100000A 		beq	.L90
 1067              		.loc 1 420 7 view .LVU364
 1068 0064 0400A0E1 		mov	r0, r4
 1069 0068 38FF2FE1 		blx	r8
 1070              	.LVL60:
 1071              	.L90:
 1072              		.loc 1 422 5 is_stmt 1 view .LVU365
 1073              		.loc 1 422 5 view .LVU366
 1074              		.syntax divided
 1075              	@ 422 "../../os/kernel/src/chqueues.c" 1
 1076 006c 1FF021E3 		msr     CPSR_c, #0x1F
 1077              	@ 0 "" 2
 1078              		.loc 1 422 18 view .LVU367
 1079              		.loc 1 423 5 view .LVU368
 1080              		.loc 1 426 5 view .LVU369
 1081              		.loc 1 424 8 is_stmt 0 view .LVU370
 1082              		.arm
 1083              		.syntax unified
ARM GAS  /var/folders/l5/0x54b2c10074c8bt31ycjvl80000gp/T//ccLft2iL.s 			page 20


 1084 0070 016056E2 		subs	r6, r6, #1
 1085              	.LVL61:
 1086              		.loc 1 423 6 view .LVU371
 1087 0074 017087E2 		add	r7, r7, #1
 1088              	.LVL62:
 1089              		.loc 1 424 5 is_stmt 1 view .LVU372
 1090              		.loc 1 424 8 is_stmt 0 view .LVU373
 1091 0078 0A00000A 		beq	.L84
 1092              		.loc 1 426 5 view .LVU374
 1093              		.syntax divided
 1094              	@ 426 "../../os/kernel/src/chqueues.c" 1
 1095 007c 9FF021E3 		msr     CPSR_c, #0x9F
 1096              	@ 0 "" 2
 1097              		.loc 1 426 5 is_stmt 1 view .LVU375
 1098              		.loc 1 426 16 view .LVU376
 1099              	.LVL63:
 1100              		.loc 1 414 5 view .LVU377
 1101              		.loc 1 419 5 view .LVU378
 1102              		.loc 1 420 7 view .LVU379
 1103              		.loc 1 408 12 is_stmt 0 view .LVU380
 1104              		.arm
 1105              		.syntax unified
 1106 0080 083094E5 		ldr	r3, [r4, #8]
 1107              		.loc 1 408 11 view .LVU381
 1108 0084 000053E3 		cmp	r3, #0
 1109              		.loc 1 414 19 view .LVU382
 1110 0088 012043E2 		sub	r2, r3, #1
 1111              		.loc 1 408 11 view .LVU383
 1112 008c E7FFFF1A 		bne	.L101
 1113              	.L88:
 1114              		.loc 1 409 7 is_stmt 1 view .LVU384
 1115              		.loc 1 409 11 is_stmt 0 view .LVU385
 1116 0090 0910A0E1 		mov	r1, r9
 1117 0094 0400A0E1 		mov	r0, r4
 1118 0098 FEFFFFEB 		bl	qwait
 1119              	.LVL64:
 1120              		.loc 1 409 10 view .LVU386
 1121 009c 000050E3 		cmp	r0, #0
 1122 00a0 DEFFFF0A 		beq	.L85
 1123              		.loc 1 410 9 is_stmt 1 view .LVU387
 1124              		.loc 1 410 9 view .LVU388
 1125              		.syntax divided
 1126              	@ 410 "../../os/kernel/src/chqueues.c" 1
 1127 00a4 1FF021E3 		msr     CPSR_c, #0x1F
 1128              	@ 0 "" 2
 1129              		.loc 1 410 22 view .LVU389
 1130              		.loc 1 411 9 view .LVU390
 1131              	.LVL65:
 1132              		.arm
 1133              		.syntax unified
 1134              	.L84:
 1135              		.loc 1 428 1 is_stmt 0 view .LVU391
 1136 00a8 0700A0E1 		mov	r0, r7
 1137 00ac F087BDE8 		pop	{r4, r5, r6, r7, r8, r9, r10, pc}
 1138              		.cfi_endproc
 1139              	.LFE17:
 1140              		.size	chOQWriteTimeout, .-chOQWriteTimeout
ARM GAS  /var/folders/l5/0x54b2c10074c8bt31ycjvl80000gp/T//ccLft2iL.s 			page 21


 1141              		.text
 1142              	.Letext0:
 1143              		.file 3 "/usr/local/Cellar/arm-gcc-bin/8-2019-q3-update/lib/gcc/arm-none-eabi/8.3.1/include/stddef
 1144              		.file 4 "/usr/local/Cellar/arm-gcc-bin/8-2019-q3-update/arm-none-eabi/include/machine/_default_typ
 1145              		.file 5 "/usr/local/Cellar/arm-gcc-bin/8-2019-q3-update/arm-none-eabi/include/sys/_stdint.h"
 1146              		.file 6 "../../os/ports/GCC/ARM/chtypes.h"
 1147              		.file 7 "../../os/kernel/include/chlists.h"
 1148              		.file 8 "../../os/kernel/include/chthreads.h"
 1149              		.file 9 "../../os/ports/GCC/ARM/chcore.h"
 1150              		.file 10 "../../os/kernel/include/chvt.h"
 1151              		.file 11 "../../os/kernel/include/chschd.h"
 1152              		.file 12 "../../os/kernel/include/chmtx.h"
 1153              		.file 13 "../../os/kernel/include/chregistry.h"
 1154              		.file 14 "../../os/kernel/include/chqueues.h"
 1155              		.file 15 "../../os/kernel/include/ch.h"
 1156              		.section	.debug_info,"",%progbits
 1157              	.Ldebug_info0:
 1158 0000 7E0D0000 		.4byte	0xd7e
 1159 0004 0400     		.2byte	0x4
 1160 0006 00000000 		.4byte	.Ldebug_abbrev0
 1161 000a 04       		.byte	0x4
 1162 000b 01       		.uleb128 0x1
 1163 000c 0B020000 		.4byte	.LASF127
 1164 0010 0C       		.byte	0xc
 1165 0011 E8020000 		.4byte	.LASF128
 1166 0015 BA050000 		.4byte	.LASF129
 1167 0019 90000000 		.4byte	.Ldebug_ranges0+0x90
 1168 001d 00000000 		.4byte	0
 1169 0021 00000000 		.4byte	.Ldebug_line0
 1170 0025 02       		.uleb128 0x2
 1171 0026 04       		.byte	0x4
 1172 0027 05       		.byte	0x5
 1173 0028 696E7400 		.ascii	"int\000"
 1174 002c 03       		.uleb128 0x3
 1175 002d 27000000 		.4byte	.LASF2
 1176 0031 03       		.byte	0x3
 1177 0032 D8       		.byte	0xd8
 1178 0033 17       		.byte	0x17
 1179 0034 38000000 		.4byte	0x38
 1180 0038 04       		.uleb128 0x4
 1181 0039 04       		.byte	0x4
 1182 003a 07       		.byte	0x7
 1183 003b 99010000 		.4byte	.LASF0
 1184 003f 04       		.uleb128 0x4
 1185 0040 01       		.byte	0x1
 1186 0041 06       		.byte	0x6
 1187 0042 CB000000 		.4byte	.LASF1
 1188 0046 03       		.uleb128 0x3
 1189 0047 4A000000 		.4byte	.LASF3
 1190 004b 04       		.byte	0x4
 1191 004c 2B       		.byte	0x2b
 1192 004d 18       		.byte	0x18
 1193 004e 52000000 		.4byte	0x52
 1194 0052 04       		.uleb128 0x4
 1195 0053 01       		.byte	0x1
 1196 0054 08       		.byte	0x8
 1197 0055 1D040000 		.4byte	.LASF4
ARM GAS  /var/folders/l5/0x54b2c10074c8bt31ycjvl80000gp/T//ccLft2iL.s 			page 22


 1198 0059 04       		.uleb128 0x4
 1199 005a 02       		.byte	0x2
 1200 005b 05       		.byte	0x5
 1201 005c 35040000 		.4byte	.LASF5
 1202 0060 03       		.uleb128 0x3
 1203 0061 E1040000 		.4byte	.LASF6
 1204 0065 04       		.byte	0x4
 1205 0066 39       		.byte	0x39
 1206 0067 19       		.byte	0x19
 1207 0068 6C000000 		.4byte	0x6c
 1208 006c 04       		.uleb128 0x4
 1209 006d 02       		.byte	0x2
 1210 006e 07       		.byte	0x7
 1211 006f EA010000 		.4byte	.LASF7
 1212 0073 03       		.uleb128 0x3
 1213 0074 14050000 		.4byte	.LASF8
 1214 0078 04       		.byte	0x4
 1215 0079 4D       		.byte	0x4d
 1216 007a 18       		.byte	0x18
 1217 007b 7F000000 		.4byte	0x7f
 1218 007f 04       		.uleb128 0x4
 1219 0080 04       		.byte	0x4
 1220 0081 05       		.byte	0x5
 1221 0082 20010000 		.4byte	.LASF9
 1222 0086 03       		.uleb128 0x3
 1223 0087 6F010000 		.4byte	.LASF10
 1224 008b 04       		.byte	0x4
 1225 008c 4F       		.byte	0x4f
 1226 008d 19       		.byte	0x19
 1227 008e 92000000 		.4byte	0x92
 1228 0092 04       		.uleb128 0x4
 1229 0093 04       		.byte	0x4
 1230 0094 07       		.byte	0x7
 1231 0095 B9010000 		.4byte	.LASF11
 1232 0099 04       		.uleb128 0x4
 1233 009a 08       		.byte	0x8
 1234 009b 05       		.byte	0x5
 1235 009c BD000000 		.4byte	.LASF12
 1236 00a0 04       		.uleb128 0x4
 1237 00a1 08       		.byte	0x8
 1238 00a2 07       		.byte	0x7
 1239 00a3 71000000 		.4byte	.LASF13
 1240 00a7 03       		.uleb128 0x3
 1241 00a8 79050000 		.4byte	.LASF14
 1242 00ac 05       		.byte	0x5
 1243 00ad 18       		.byte	0x18
 1244 00ae 13       		.byte	0x13
 1245 00af 46000000 		.4byte	0x46
 1246 00b3 05       		.uleb128 0x5
 1247 00b4 A7000000 		.4byte	0xa7
 1248 00b8 03       		.uleb128 0x3
 1249 00b9 44010000 		.4byte	.LASF15
 1250 00bd 05       		.byte	0x5
 1251 00be 24       		.byte	0x24
 1252 00bf 14       		.byte	0x14
 1253 00c0 60000000 		.4byte	0x60
 1254 00c4 03       		.uleb128 0x3
ARM GAS  /var/folders/l5/0x54b2c10074c8bt31ycjvl80000gp/T//ccLft2iL.s 			page 23


 1255 00c5 15040000 		.4byte	.LASF16
 1256 00c9 05       		.byte	0x5
 1257 00ca 2C       		.byte	0x2c
 1258 00cb 13       		.byte	0x13
 1259 00cc 73000000 		.4byte	0x73
 1260 00d0 03       		.uleb128 0x3
 1261 00d1 A6040000 		.4byte	.LASF17
 1262 00d5 05       		.byte	0x5
 1263 00d6 30       		.byte	0x30
 1264 00d7 14       		.byte	0x14
 1265 00d8 86000000 		.4byte	0x86
 1266 00dc 03       		.uleb128 0x3
 1267 00dd F4000000 		.4byte	.LASF18
 1268 00e1 06       		.byte	0x6
 1269 00e2 29       		.byte	0x29
 1270 00e3 19       		.byte	0x19
 1271 00e4 C4000000 		.4byte	0xc4
 1272 00e8 03       		.uleb128 0x3
 1273 00e9 68040000 		.4byte	.LASF19
 1274 00ed 06       		.byte	0x6
 1275 00ee 2A       		.byte	0x2a
 1276 00ef 19       		.byte	0x19
 1277 00f0 A7000000 		.4byte	0xa7
 1278 00f4 03       		.uleb128 0x3
 1279 00f5 29010000 		.4byte	.LASF20
 1280 00f9 06       		.byte	0x6
 1281 00fa 2B       		.byte	0x2b
 1282 00fb 19       		.byte	0x19
 1283 00fc A7000000 		.4byte	0xa7
 1284 0100 03       		.uleb128 0x3
 1285 0101 E1030000 		.4byte	.LASF21
 1286 0105 06       		.byte	0x6
 1287 0106 2C       		.byte	0x2c
 1288 0107 19       		.byte	0x19
 1289 0108 A7000000 		.4byte	0xa7
 1290 010c 03       		.uleb128 0x3
 1291 010d 05040000 		.4byte	.LASF22
 1292 0111 06       		.byte	0x6
 1293 0112 2E       		.byte	0x2e
 1294 0113 19       		.byte	0x19
 1295 0114 D0000000 		.4byte	0xd0
 1296 0118 03       		.uleb128 0x3
 1297 0119 FD010000 		.4byte	.LASF23
 1298 011d 06       		.byte	0x6
 1299 011e 2F       		.byte	0x2f
 1300 011f 19       		.byte	0x19
 1301 0120 C4000000 		.4byte	0xc4
 1302 0124 03       		.uleb128 0x3
 1303 0125 13030000 		.4byte	.LASF24
 1304 0129 06       		.byte	0x6
 1305 012a 31       		.byte	0x31
 1306 012b 19       		.byte	0x19
 1307 012c D0000000 		.4byte	0xd0
 1308 0130 03       		.uleb128 0x3
 1309 0131 FF040000 		.4byte	.LASF25
 1310 0135 06       		.byte	0x6
 1311 0136 33       		.byte	0x33
ARM GAS  /var/folders/l5/0x54b2c10074c8bt31ycjvl80000gp/T//ccLft2iL.s 			page 24


 1312 0137 19       		.byte	0x19
 1313 0138 D0000000 		.4byte	0xd0
 1314 013c 06       		.uleb128 0x6
 1315 013d 30010000 		.4byte	0x130
 1316 0141 03       		.uleb128 0x3
 1317 0142 87040000 		.4byte	.LASF26
 1318 0146 07       		.byte	0x7
 1319 0147 23       		.byte	0x23
 1320 0148 17       		.byte	0x17
 1321 0149 4D010000 		.4byte	0x14d
 1322 014d 07       		.uleb128 0x7
 1323 014e 87040000 		.4byte	.LASF26
 1324 0152 44       		.byte	0x44
 1325 0153 08       		.byte	0x8
 1326 0154 57       		.byte	0x57
 1327 0155 08       		.byte	0x8
 1328 0156 45020000 		.4byte	0x245
 1329 015a 08       		.uleb128 0x8
 1330 015b 61040000 		.4byte	.LASF27
 1331 015f 08       		.byte	0x8
 1332 0160 58       		.byte	0x58
 1333 0161 1A       		.byte	0x1a
 1334 0162 69020000 		.4byte	0x269
 1335 0166 00       		.byte	0
 1336 0167 08       		.uleb128 0x8
 1337 0168 FE030000 		.4byte	.LASF28
 1338 016c 08       		.byte	0x8
 1339 016d 5A       		.byte	0x5a
 1340 016e 1A       		.byte	0x1a
 1341 016f 69020000 		.4byte	0x269
 1342 0173 04       		.byte	0x4
 1343 0174 08       		.uleb128 0x8
 1344 0175 9F000000 		.4byte	.LASF29
 1345 0179 08       		.byte	0x8
 1346 017a 5C       		.byte	0x5c
 1347 017b 19       		.byte	0x19
 1348 017c 0C010000 		.4byte	0x10c
 1349 0180 08       		.byte	0x8
 1350 0181 08       		.uleb128 0x8
 1351 0182 18060000 		.4byte	.LASF30
 1352 0186 08       		.byte	0x8
 1353 0187 5D       		.byte	0x5d
 1354 0188 19       		.byte	0x19
 1355 0189 34030000 		.4byte	0x334
 1356 018d 0C       		.byte	0xc
 1357 018e 08       		.uleb128 0x8
 1358 018f 57010000 		.4byte	.LASF31
 1359 0193 08       		.byte	0x8
 1360 0194 5F       		.byte	0x5f
 1361 0195 1A       		.byte	0x1a
 1362 0196 69020000 		.4byte	0x269
 1363 019a 10       		.byte	0x10
 1364 019b 08       		.uleb128 0x8
 1365 019c 9F030000 		.4byte	.LASF32
 1366 01a0 08       		.byte	0x8
 1367 01a1 60       		.byte	0x60
 1368 01a2 1A       		.byte	0x1a
ARM GAS  /var/folders/l5/0x54b2c10074c8bt31ycjvl80000gp/T//ccLft2iL.s 			page 25


 1369 01a3 69020000 		.4byte	0x269
 1370 01a7 14       		.byte	0x14
 1371 01a8 08       		.uleb128 0x8
 1372 01a9 88050000 		.4byte	.LASF33
 1373 01ad 08       		.byte	0x8
 1374 01ae 67       		.byte	0x67
 1375 01af 1A       		.byte	0x1a
 1376 01b0 1A050000 		.4byte	0x51a
 1377 01b4 18       		.byte	0x18
 1378 01b5 08       		.uleb128 0x8
 1379 01b6 3F040000 		.4byte	.LASF34
 1380 01ba 08       		.byte	0x8
 1381 01bb 72       		.byte	0x72
 1382 01bc 19       		.byte	0x19
 1383 01bd F4000000 		.4byte	0xf4
 1384 01c1 1C       		.byte	0x1c
 1385 01c2 08       		.uleb128 0x8
 1386 01c3 7F040000 		.4byte	.LASF35
 1387 01c7 08       		.byte	0x8
 1388 01c8 76       		.byte	0x76
 1389 01c9 19       		.byte	0x19
 1390 01ca E8000000 		.4byte	0xe8
 1391 01ce 1D       		.byte	0x1d
 1392 01cf 08       		.uleb128 0x8
 1393 01d0 59050000 		.4byte	.LASF36
 1394 01d4 08       		.byte	0x8
 1395 01d5 7B       		.byte	0x7b
 1396 01d6 19       		.byte	0x19
 1397 01d7 00010000 		.4byte	0x100
 1398 01db 1E       		.byte	0x1e
 1399 01dc 08       		.uleb128 0x8
 1400 01dd 2E050000 		.4byte	.LASF37
 1401 01e1 08       		.byte	0x8
 1402 01e2 88       		.byte	0x88
 1403 01e3 19       		.byte	0x19
 1404 01e4 3C010000 		.4byte	0x13c
 1405 01e8 20       		.byte	0x20
 1406 01e9 09       		.uleb128 0x9
 1407 01ea 705F7500 		.ascii	"p_u\000"
 1408 01ee 08       		.byte	0x8
 1409 01ef AD       		.byte	0xad
 1410 01f0 19       		.byte	0x19
 1411 01f1 E0040000 		.4byte	0x4e0
 1412 01f5 24       		.byte	0x24
 1413 01f6 08       		.uleb128 0x8
 1414 01f7 1E060000 		.4byte	.LASF38
 1415 01fb 08       		.byte	0x8
 1416 01fc B2       		.byte	0xb2
 1417 01fd 19       		.byte	0x19
 1418 01fe 92020000 		.4byte	0x292
 1419 0202 28       		.byte	0x28
 1420 0203 08       		.uleb128 0x8
 1421 0204 3C050000 		.4byte	.LASF39
 1422 0208 08       		.byte	0x8
 1423 0209 B8       		.byte	0xb8
 1424 020a 19       		.byte	0x19
 1425 020b 6F020000 		.4byte	0x26f
ARM GAS  /var/folders/l5/0x54b2c10074c8bt31ycjvl80000gp/T//ccLft2iL.s 			page 26


 1426 020f 2C       		.byte	0x2c
 1427 0210 08       		.uleb128 0x8
 1428 0211 1C000000 		.4byte	.LASF40
 1429 0215 08       		.byte	0x8
 1430 0216 BC       		.byte	0xbc
 1431 0217 19       		.byte	0x19
 1432 0218 18010000 		.4byte	0x118
 1433 021c 34       		.byte	0x34
 1434 021d 08       		.uleb128 0x8
 1435 021e 9B040000 		.4byte	.LASF41
 1436 0222 08       		.byte	0x8
 1437 0223 C2       		.byte	0xc2
 1438 0224 19       		.byte	0x19
 1439 0225 24010000 		.4byte	0x124
 1440 0229 38       		.byte	0x38
 1441 022a 08       		.uleb128 0x8
 1442 022b 2B040000 		.4byte	.LASF42
 1443 022f 08       		.byte	0x8
 1444 0230 C9       		.byte	0xc9
 1445 0231 1A       		.byte	0x1a
 1446 0232 2C050000 		.4byte	0x52c
 1447 0236 3C       		.byte	0x3c
 1448 0237 08       		.uleb128 0x8
 1449 0238 09050000 		.4byte	.LASF43
 1450 023c 08       		.byte	0x8
 1451 023d CD       		.byte	0xcd
 1452 023e 19       		.byte	0x19
 1453 023f 0C010000 		.4byte	0x10c
 1454 0243 40       		.byte	0x40
 1455 0244 00       		.byte	0
 1456 0245 0A       		.uleb128 0xa
 1457 0246 08       		.byte	0x8
 1458 0247 07       		.byte	0x7
 1459 0248 5A       		.byte	0x5a
 1460 0249 09       		.byte	0x9
 1461 024a 69020000 		.4byte	0x269
 1462 024e 08       		.uleb128 0x8
 1463 024f 61040000 		.4byte	.LASF27
 1464 0253 07       		.byte	0x7
 1465 0254 5B       		.byte	0x5b
 1466 0255 1A       		.byte	0x1a
 1467 0256 69020000 		.4byte	0x269
 1468 025a 00       		.byte	0
 1469 025b 08       		.uleb128 0x8
 1470 025c FE030000 		.4byte	.LASF28
 1471 0260 07       		.byte	0x7
 1472 0261 5D       		.byte	0x5d
 1473 0262 1A       		.byte	0x1a
 1474 0263 69020000 		.4byte	0x269
 1475 0267 04       		.byte	0x4
 1476 0268 00       		.byte	0
 1477 0269 0B       		.uleb128 0xb
 1478 026a 04       		.byte	0x4
 1479 026b 41010000 		.4byte	0x141
 1480 026f 03       		.uleb128 0x3
 1481 0270 B5030000 		.4byte	.LASF44
 1482 0274 07       		.byte	0x7
ARM GAS  /var/folders/l5/0x54b2c10074c8bt31ycjvl80000gp/T//ccLft2iL.s 			page 27


 1483 0275 5F       		.byte	0x5f
 1484 0276 03       		.byte	0x3
 1485 0277 45020000 		.4byte	0x245
 1486 027b 0A       		.uleb128 0xa
 1487 027c 04       		.byte	0x4
 1488 027d 07       		.byte	0x7
 1489 027e 64       		.byte	0x64
 1490 027f 09       		.byte	0x9
 1491 0280 92020000 		.4byte	0x292
 1492 0284 08       		.uleb128 0x8
 1493 0285 61040000 		.4byte	.LASF27
 1494 0289 07       		.byte	0x7
 1495 028a 66       		.byte	0x66
 1496 028b 16       		.byte	0x16
 1497 028c 69020000 		.4byte	0x269
 1498 0290 00       		.byte	0
 1499 0291 00       		.byte	0
 1500 0292 03       		.uleb128 0x3
 1501 0293 07030000 		.4byte	.LASF45
 1502 0297 07       		.byte	0x7
 1503 0298 69       		.byte	0x69
 1504 0299 03       		.byte	0x3
 1505 029a 7B020000 		.4byte	0x27b
 1506 029e 03       		.uleb128 0x3
 1507 029f 3D030000 		.4byte	.LASF46
 1508 02a3 09       		.byte	0x9
 1509 02a4 9D       		.byte	0x9d
 1510 02a5 12       		.byte	0x12
 1511 02a6 D0000000 		.4byte	0xd0
 1512 02aa 03       		.uleb128 0x3
 1513 02ab 7A010000 		.4byte	.LASF47
 1514 02af 09       		.byte	0x9
 1515 02b0 A2       		.byte	0xa2
 1516 02b1 0F       		.byte	0xf
 1517 02b2 B6020000 		.4byte	0x2b6
 1518 02b6 0C       		.uleb128 0xc
 1519 02b7 04       		.byte	0x4
 1520 02b8 07       		.uleb128 0x7
 1521 02b9 35050000 		.4byte	.LASF48
 1522 02bd 24       		.byte	0x24
 1523 02be 09       		.byte	0x9
 1524 02bf B9       		.byte	0xb9
 1525 02c0 08       		.byte	0x8
 1526 02c1 34030000 		.4byte	0x334
 1527 02c5 09       		.uleb128 0x9
 1528 02c6 723400   		.ascii	"r4\000"
 1529 02c9 09       		.byte	0x9
 1530 02ca BA       		.byte	0xba
 1531 02cb 11       		.byte	0x11
 1532 02cc AA020000 		.4byte	0x2aa
 1533 02d0 00       		.byte	0
 1534 02d1 09       		.uleb128 0x9
 1535 02d2 723500   		.ascii	"r5\000"
 1536 02d5 09       		.byte	0x9
 1537 02d6 BB       		.byte	0xbb
 1538 02d7 11       		.byte	0x11
 1539 02d8 AA020000 		.4byte	0x2aa
ARM GAS  /var/folders/l5/0x54b2c10074c8bt31ycjvl80000gp/T//ccLft2iL.s 			page 28


 1540 02dc 04       		.byte	0x4
 1541 02dd 09       		.uleb128 0x9
 1542 02de 723600   		.ascii	"r6\000"
 1543 02e1 09       		.byte	0x9
 1544 02e2 BC       		.byte	0xbc
 1545 02e3 11       		.byte	0x11
 1546 02e4 AA020000 		.4byte	0x2aa
 1547 02e8 08       		.byte	0x8
 1548 02e9 09       		.uleb128 0x9
 1549 02ea 723700   		.ascii	"r7\000"
 1550 02ed 09       		.byte	0x9
 1551 02ee BD       		.byte	0xbd
 1552 02ef 11       		.byte	0x11
 1553 02f0 AA020000 		.4byte	0x2aa
 1554 02f4 0C       		.byte	0xc
 1555 02f5 09       		.uleb128 0x9
 1556 02f6 723800   		.ascii	"r8\000"
 1557 02f9 09       		.byte	0x9
 1558 02fa BE       		.byte	0xbe
 1559 02fb 11       		.byte	0x11
 1560 02fc AA020000 		.4byte	0x2aa
 1561 0300 10       		.byte	0x10
 1562 0301 09       		.uleb128 0x9
 1563 0302 723900   		.ascii	"r9\000"
 1564 0305 09       		.byte	0x9
 1565 0306 BF       		.byte	0xbf
 1566 0307 11       		.byte	0x11
 1567 0308 AA020000 		.4byte	0x2aa
 1568 030c 14       		.byte	0x14
 1569 030d 09       		.uleb128 0x9
 1570 030e 72313000 		.ascii	"r10\000"
 1571 0312 09       		.byte	0x9
 1572 0313 C0       		.byte	0xc0
 1573 0314 11       		.byte	0x11
 1574 0315 AA020000 		.4byte	0x2aa
 1575 0319 18       		.byte	0x18
 1576 031a 09       		.uleb128 0x9
 1577 031b 72313100 		.ascii	"r11\000"
 1578 031f 09       		.byte	0x9
 1579 0320 C1       		.byte	0xc1
 1580 0321 11       		.byte	0x11
 1581 0322 AA020000 		.4byte	0x2aa
 1582 0326 1C       		.byte	0x1c
 1583 0327 09       		.uleb128 0x9
 1584 0328 6C7200   		.ascii	"lr\000"
 1585 032b 09       		.byte	0x9
 1586 032c C2       		.byte	0xc2
 1587 032d 11       		.byte	0x11
 1588 032e AA020000 		.4byte	0x2aa
 1589 0332 20       		.byte	0x20
 1590 0333 00       		.byte	0
 1591 0334 07       		.uleb128 0x7
 1592 0335 DD010000 		.4byte	.LASF49
 1593 0339 04       		.byte	0x4
 1594 033a 09       		.byte	0x9
 1595 033b CA       		.byte	0xca
 1596 033c 08       		.byte	0x8
ARM GAS  /var/folders/l5/0x54b2c10074c8bt31ycjvl80000gp/T//ccLft2iL.s 			page 29


 1597 033d 4F030000 		.4byte	0x34f
 1598 0341 09       		.uleb128 0x9
 1599 0342 72313300 		.ascii	"r13\000"
 1600 0346 09       		.byte	0x9
 1601 0347 CB       		.byte	0xcb
 1602 0348 12       		.byte	0x12
 1603 0349 4F030000 		.4byte	0x34f
 1604 034d 00       		.byte	0
 1605 034e 00       		.byte	0
 1606 034f 0B       		.uleb128 0xb
 1607 0350 04       		.byte	0x4
 1608 0351 B8020000 		.4byte	0x2b8
 1609 0355 03       		.uleb128 0x3
 1610 0356 D4010000 		.4byte	.LASF50
 1611 035a 0A       		.byte	0xa
 1612 035b 4E       		.byte	0x4e
 1613 035c 10       		.byte	0x10
 1614 035d 61030000 		.4byte	0x361
 1615 0361 0B       		.uleb128 0xb
 1616 0362 04       		.byte	0x4
 1617 0363 67030000 		.4byte	0x367
 1618 0367 0D       		.uleb128 0xd
 1619 0368 72030000 		.4byte	0x372
 1620 036c 0E       		.uleb128 0xe
 1621 036d B6020000 		.4byte	0x2b6
 1622 0371 00       		.byte	0
 1623 0372 03       		.uleb128 0x3
 1624 0373 C3040000 		.4byte	.LASF51
 1625 0377 0A       		.byte	0xa
 1626 0378 53       		.byte	0x53
 1627 0379 1D       		.byte	0x1d
 1628 037a 7E030000 		.4byte	0x37e
 1629 037e 07       		.uleb128 0x7
 1630 037f C3040000 		.4byte	.LASF51
 1631 0383 14       		.byte	0x14
 1632 0384 0A       		.byte	0xa
 1633 0385 5A       		.byte	0x5a
 1634 0386 08       		.byte	0x8
 1635 0387 CD030000 		.4byte	0x3cd
 1636 038b 08       		.uleb128 0x8
 1637 038c A6010000 		.4byte	.LASF52
 1638 0390 0A       		.byte	0xa
 1639 0391 5B       		.byte	0x5b
 1640 0392 1A       		.byte	0x1a
 1641 0393 CD030000 		.4byte	0x3cd
 1642 0397 00       		.byte	0
 1643 0398 08       		.uleb128 0x8
 1644 0399 83010000 		.4byte	.LASF53
 1645 039d 0A       		.byte	0xa
 1646 039e 5D       		.byte	0x5d
 1647 039f 1A       		.byte	0x1a
 1648 03a0 CD030000 		.4byte	0x3cd
 1649 03a4 04       		.byte	0x4
 1650 03a5 08       		.uleb128 0x8
 1651 03a6 6D030000 		.4byte	.LASF54
 1652 03aa 0A       		.byte	0xa
 1653 03ab 5F       		.byte	0x5f
ARM GAS  /var/folders/l5/0x54b2c10074c8bt31ycjvl80000gp/T//ccLft2iL.s 			page 30


 1654 03ac 19       		.byte	0x19
 1655 03ad 30010000 		.4byte	0x130
 1656 03b1 08       		.byte	0x8
 1657 03b2 08       		.uleb128 0x8
 1658 03b3 7F030000 		.4byte	.LASF55
 1659 03b7 0A       		.byte	0xa
 1660 03b8 60       		.byte	0x60
 1661 03b9 19       		.byte	0x19
 1662 03ba 55030000 		.4byte	0x355
 1663 03be 0C       		.byte	0xc
 1664 03bf 08       		.uleb128 0x8
 1665 03c0 47050000 		.4byte	.LASF56
 1666 03c4 0A       		.byte	0xa
 1667 03c5 62       		.byte	0x62
 1668 03c6 1A       		.byte	0x1a
 1669 03c7 B6020000 		.4byte	0x2b6
 1670 03cb 10       		.byte	0x10
 1671 03cc 00       		.byte	0
 1672 03cd 0B       		.uleb128 0xb
 1673 03ce 04       		.byte	0x4
 1674 03cf 72030000 		.4byte	0x372
 1675 03d3 0A       		.uleb128 0xa
 1676 03d4 10       		.byte	0x10
 1677 03d5 0A       		.byte	0xa
 1678 03d6 6C       		.byte	0x6c
 1679 03d7 09       		.byte	0x9
 1680 03d8 11040000 		.4byte	0x411
 1681 03dc 08       		.uleb128 0x8
 1682 03dd A6010000 		.4byte	.LASF52
 1683 03e1 0A       		.byte	0xa
 1684 03e2 6D       		.byte	0x6d
 1685 03e3 1A       		.byte	0x1a
 1686 03e4 CD030000 		.4byte	0x3cd
 1687 03e8 00       		.byte	0
 1688 03e9 08       		.uleb128 0x8
 1689 03ea 83010000 		.4byte	.LASF53
 1690 03ee 0A       		.byte	0xa
 1691 03ef 6F       		.byte	0x6f
 1692 03f0 1A       		.byte	0x1a
 1693 03f1 CD030000 		.4byte	0x3cd
 1694 03f5 04       		.byte	0x4
 1695 03f6 08       		.uleb128 0x8
 1696 03f7 6D030000 		.4byte	.LASF54
 1697 03fb 0A       		.byte	0xa
 1698 03fc 71       		.byte	0x71
 1699 03fd 19       		.byte	0x19
 1700 03fe 30010000 		.4byte	0x130
 1701 0402 08       		.byte	0x8
 1702 0403 08       		.uleb128 0x8
 1703 0404 8F050000 		.4byte	.LASF57
 1704 0408 0A       		.byte	0xa
 1705 0409 72       		.byte	0x72
 1706 040a 19       		.byte	0x19
 1707 040b 3C010000 		.4byte	0x13c
 1708 040f 0C       		.byte	0xc
 1709 0410 00       		.byte	0
 1710 0411 03       		.uleb128 0x3
ARM GAS  /var/folders/l5/0x54b2c10074c8bt31ycjvl80000gp/T//ccLft2iL.s 			page 31


 1711 0412 02060000 		.4byte	.LASF58
 1712 0416 0A       		.byte	0xa
 1713 0417 73       		.byte	0x73
 1714 0418 03       		.byte	0x3
 1715 0419 D3030000 		.4byte	0x3d3
 1716 041d 0F       		.uleb128 0xf
 1717 041e 54000000 		.4byte	.LASF66
 1718 0422 0A       		.byte	0xa
 1719 0423 D1       		.byte	0xd1
 1720 0424 0F       		.byte	0xf
 1721 0425 11040000 		.4byte	0x411
 1722 0429 0A       		.uleb128 0xa
 1723 042a 1C       		.byte	0x1c
 1724 042b 0B       		.byte	0xb
 1725 042c 57       		.byte	0x57
 1726 042d 09       		.byte	0x9
 1727 042e 81040000 		.4byte	0x481
 1728 0432 08       		.uleb128 0x8
 1729 0433 BB040000 		.4byte	.LASF59
 1730 0437 0B       		.byte	0xb
 1731 0438 58       		.byte	0x58
 1732 0439 19       		.byte	0x19
 1733 043a 6F020000 		.4byte	0x26f
 1734 043e 00       		.byte	0
 1735 043f 08       		.uleb128 0x8
 1736 0440 53040000 		.4byte	.LASF60
 1737 0444 0B       		.byte	0xb
 1738 0445 59       		.byte	0x59
 1739 0446 19       		.byte	0x19
 1740 0447 0C010000 		.4byte	0x10c
 1741 044b 08       		.byte	0x8
 1742 044c 08       		.uleb128 0x8
 1743 044d AF030000 		.4byte	.LASF61
 1744 0451 0B       		.byte	0xb
 1745 0452 5B       		.byte	0x5b
 1746 0453 19       		.byte	0x19
 1747 0454 34030000 		.4byte	0x334
 1748 0458 0C       		.byte	0xc
 1749 0459 08       		.uleb128 0x8
 1750 045a 03020000 		.4byte	.LASF62
 1751 045e 0B       		.byte	0xb
 1752 045f 5E       		.byte	0x5e
 1753 0460 1A       		.byte	0x1a
 1754 0461 69020000 		.4byte	0x269
 1755 0465 10       		.byte	0x10
 1756 0466 08       		.uleb128 0x8
 1757 0467 D9030000 		.4byte	.LASF63
 1758 046b 0B       		.byte	0xb
 1759 046c 5F       		.byte	0x5f
 1760 046d 1A       		.byte	0x1a
 1761 046e 69020000 		.4byte	0x269
 1762 0472 14       		.byte	0x14
 1763 0473 08       		.uleb128 0x8
 1764 0474 CF030000 		.4byte	.LASF64
 1765 0478 0B       		.byte	0xb
 1766 0479 62       		.byte	0x62
 1767 047a 1A       		.byte	0x1a
ARM GAS  /var/folders/l5/0x54b2c10074c8bt31ycjvl80000gp/T//ccLft2iL.s 			page 32


 1768 047b 69020000 		.4byte	0x269
 1769 047f 18       		.byte	0x18
 1770 0480 00       		.byte	0
 1771 0481 03       		.uleb128 0x3
 1772 0482 60050000 		.4byte	.LASF65
 1773 0486 0B       		.byte	0xb
 1774 0487 64       		.byte	0x64
 1775 0488 03       		.byte	0x3
 1776 0489 29040000 		.4byte	0x429
 1777 048d 0F       		.uleb128 0xf
 1778 048e 73050000 		.4byte	.LASF67
 1779 0492 0B       		.byte	0xb
 1780 0493 68       		.byte	0x68
 1781 0494 12       		.byte	0x12
 1782 0495 81040000 		.4byte	0x481
 1783 0499 07       		.uleb128 0x7
 1784 049a 2A030000 		.4byte	.LASF68
 1785 049e 10       		.byte	0x10
 1786 049f 0C       		.byte	0xc
 1787 04a0 25       		.byte	0x25
 1788 04a1 10       		.byte	0x10
 1789 04a2 CE040000 		.4byte	0x4ce
 1790 04a6 08       		.uleb128 0x8
 1791 04a7 FB000000 		.4byte	.LASF69
 1792 04ab 0C       		.byte	0xc
 1793 04ac 26       		.byte	0x26
 1794 04ad 19       		.byte	0x19
 1795 04ae 6F020000 		.4byte	0x26f
 1796 04b2 00       		.byte	0
 1797 04b3 08       		.uleb128 0x8
 1798 04b4 10060000 		.4byte	.LASF70
 1799 04b8 0C       		.byte	0xc
 1800 04b9 28       		.byte	0x28
 1801 04ba 1A       		.byte	0x1a
 1802 04bb 69020000 		.4byte	0x269
 1803 04bf 08       		.byte	0x8
 1804 04c0 08       		.uleb128 0x8
 1805 04c1 F8040000 		.4byte	.LASF71
 1806 04c5 0C       		.byte	0xc
 1807 04c6 2A       		.byte	0x2a
 1808 04c7 1A       		.byte	0x1a
 1809 04c8 CE040000 		.4byte	0x4ce
 1810 04cc 0C       		.byte	0xc
 1811 04cd 00       		.byte	0
 1812 04ce 0B       		.uleb128 0xb
 1813 04cf 04       		.byte	0x4
 1814 04d0 99040000 		.4byte	0x499
 1815 04d4 03       		.uleb128 0x3
 1816 04d5 2A030000 		.4byte	.LASF68
 1817 04d9 0C       		.byte	0xc
 1818 04da 2C       		.byte	0x2c
 1819 04db 03       		.byte	0x3
 1820 04dc 99040000 		.4byte	0x499
 1821 04e0 10       		.uleb128 0x10
 1822 04e1 04       		.byte	0x4
 1823 04e2 08       		.byte	0x8
 1824 04e3 8F       		.byte	0x8f
ARM GAS  /var/folders/l5/0x54b2c10074c8bt31ycjvl80000gp/T//ccLft2iL.s 			page 33


 1825 04e4 03       		.byte	0x3
 1826 04e5 1A050000 		.4byte	0x51a
 1827 04e9 11       		.uleb128 0x11
 1828 04ea 2E000000 		.4byte	.LASF72
 1829 04ee 08       		.byte	0x8
 1830 04ef 96       		.byte	0x96
 1831 04f0 19       		.byte	0x19
 1832 04f1 18010000 		.4byte	0x118
 1833 04f5 11       		.uleb128 0x11
 1834 04f6 96000000 		.4byte	.LASF73
 1835 04fa 08       		.byte	0x8
 1836 04fb 9D       		.byte	0x9d
 1837 04fc 19       		.byte	0x19
 1838 04fd 18010000 		.4byte	0x118
 1839 0501 11       		.uleb128 0x11
 1840 0502 81050000 		.4byte	.LASF74
 1841 0506 08       		.byte	0x8
 1842 0507 A4       		.byte	0xa4
 1843 0508 1A       		.byte	0x1a
 1844 0509 B6020000 		.4byte	0x2b6
 1845 050d 11       		.uleb128 0x11
 1846 050e 5A040000 		.4byte	.LASF75
 1847 0512 08       		.byte	0x8
 1848 0513 AB       		.byte	0xab
 1849 0514 19       		.byte	0x19
 1850 0515 24010000 		.4byte	0x124
 1851 0519 00       		.byte	0
 1852 051a 0B       		.uleb128 0xb
 1853 051b 04       		.byte	0x4
 1854 051c 27050000 		.4byte	0x527
 1855 0520 04       		.uleb128 0x4
 1856 0521 01       		.byte	0x1
 1857 0522 08       		.byte	0x8
 1858 0523 D0040000 		.4byte	.LASF76
 1859 0527 05       		.uleb128 0x5
 1860 0528 20050000 		.4byte	0x520
 1861 052c 0B       		.uleb128 0xb
 1862 052d 04       		.byte	0x4
 1863 052e D4040000 		.4byte	0x4d4
 1864 0532 0A       		.uleb128 0xa
 1865 0533 16       		.byte	0x16
 1866 0534 0D       		.byte	0xd
 1867 0535 25       		.byte	0x25
 1868 0536 09       		.byte	0x9
 1869 0537 26060000 		.4byte	0x626
 1870 053b 08       		.uleb128 0x8
 1871 053c 03010000 		.4byte	.LASF77
 1872 0540 0D       		.byte	0xd
 1873 0541 26       		.byte	0x26
 1874 0542 0D       		.byte	0xd
 1875 0543 26060000 		.4byte	0x626
 1876 0547 00       		.byte	0
 1877 0548 08       		.uleb128 0x8
 1878 0549 59030000 		.4byte	.LASF78
 1879 054d 0D       		.byte	0xd
 1880 054e 27       		.byte	0x27
 1881 054f 0D       		.byte	0xd
ARM GAS  /var/folders/l5/0x54b2c10074c8bt31ycjvl80000gp/T//ccLft2iL.s 			page 34


 1882 0550 A7000000 		.4byte	0xa7
 1883 0554 04       		.byte	0x4
 1884 0555 08       		.uleb128 0x8
 1885 0556 C2030000 		.4byte	.LASF79
 1886 055a 0D       		.byte	0xd
 1887 055b 28       		.byte	0x28
 1888 055c 0D       		.byte	0xd
 1889 055d A7000000 		.4byte	0xa7
 1890 0561 05       		.byte	0x5
 1891 0562 08       		.uleb128 0x8
 1892 0563 AF050000 		.4byte	.LASF80
 1893 0567 0D       		.byte	0xd
 1894 0568 29       		.byte	0x29
 1895 0569 0D       		.byte	0xd
 1896 056a B8000000 		.4byte	0xb8
 1897 056e 06       		.byte	0x6
 1898 056f 08       		.uleb128 0x8
 1899 0570 E9030000 		.4byte	.LASF81
 1900 0574 0D       		.byte	0xd
 1901 0575 2A       		.byte	0x2a
 1902 0576 0D       		.byte	0xd
 1903 0577 A7000000 		.4byte	0xa7
 1904 057b 08       		.byte	0x8
 1905 057c 08       		.uleb128 0x8
 1906 057d 87030000 		.4byte	.LASF82
 1907 0581 0D       		.byte	0xd
 1908 0582 2B       		.byte	0x2b
 1909 0583 0D       		.byte	0xd
 1910 0584 A7000000 		.4byte	0xa7
 1911 0588 09       		.byte	0x9
 1912 0589 08       		.uleb128 0x8
 1913 058a 88000000 		.4byte	.LASF83
 1914 058e 0D       		.byte	0xd
 1915 058f 2C       		.byte	0x2c
 1916 0590 0D       		.byte	0xd
 1917 0591 A7000000 		.4byte	0xa7
 1918 0595 0A       		.byte	0xa
 1919 0596 08       		.uleb128 0x8
 1920 0597 AF040000 		.4byte	.LASF84
 1921 059b 0D       		.byte	0xd
 1922 059c 2D       		.byte	0x2d
 1923 059d 0D       		.byte	0xd
 1924 059e A7000000 		.4byte	0xa7
 1925 05a2 0B       		.byte	0xb
 1926 05a3 08       		.uleb128 0x8
 1927 05a4 4E050000 		.4byte	.LASF85
 1928 05a8 0D       		.byte	0xd
 1929 05a9 2E       		.byte	0x2e
 1930 05aa 0D       		.byte	0xd
 1931 05ab A7000000 		.4byte	0xa7
 1932 05af 0C       		.byte	0xc
 1933 05b0 08       		.uleb128 0x8
 1934 05b1 8E040000 		.4byte	.LASF86
 1935 05b5 0D       		.byte	0xd
 1936 05b6 2F       		.byte	0x2f
 1937 05b7 0D       		.byte	0xd
 1938 05b8 A7000000 		.4byte	0xa7
ARM GAS  /var/folders/l5/0x54b2c10074c8bt31ycjvl80000gp/T//ccLft2iL.s 			page 35


 1939 05bc 0D       		.byte	0xd
 1940 05bd 08       		.uleb128 0x8
 1941 05be 0F000000 		.4byte	.LASF87
 1942 05c2 0D       		.byte	0xd
 1943 05c3 30       		.byte	0x30
 1944 05c4 0D       		.byte	0xd
 1945 05c5 A7000000 		.4byte	0xa7
 1946 05c9 0E       		.byte	0xe
 1947 05ca 08       		.uleb128 0x8
 1948 05cb 93030000 		.4byte	.LASF88
 1949 05cf 0D       		.byte	0xd
 1950 05d0 31       		.byte	0x31
 1951 05d1 0D       		.byte	0xd
 1952 05d2 A7000000 		.4byte	0xa7
 1953 05d6 0F       		.byte	0xf
 1954 05d7 08       		.uleb128 0x8
 1955 05d8 D7000000 		.4byte	.LASF89
 1956 05dc 0D       		.byte	0xd
 1957 05dd 32       		.byte	0x32
 1958 05de 0D       		.byte	0xd
 1959 05df A7000000 		.4byte	0xa7
 1960 05e3 10       		.byte	0x10
 1961 05e4 08       		.uleb128 0x8
 1962 05e5 A6000000 		.4byte	.LASF90
 1963 05e9 0D       		.byte	0xd
 1964 05ea 34       		.byte	0x34
 1965 05eb 0D       		.byte	0xd
 1966 05ec A7000000 		.4byte	0xa7
 1967 05f0 11       		.byte	0x11
 1968 05f1 08       		.uleb128 0x8
 1969 05f2 E7000000 		.4byte	.LASF91
 1970 05f6 0D       		.byte	0xd
 1971 05f7 35       		.byte	0x35
 1972 05f8 0D       		.byte	0xd
 1973 05f9 A7000000 		.4byte	0xa7
 1974 05fd 12       		.byte	0x12
 1975 05fe 08       		.uleb128 0x8
 1976 05ff 61030000 		.4byte	.LASF92
 1977 0603 0D       		.byte	0xd
 1978 0604 36       		.byte	0x36
 1979 0605 0D       		.byte	0xd
 1980 0606 A7000000 		.4byte	0xa7
 1981 060a 13       		.byte	0x13
 1982 060b 08       		.uleb128 0x8
 1983 060c 70040000 		.4byte	.LASF93
 1984 0610 0D       		.byte	0xd
 1985 0611 37       		.byte	0x37
 1986 0612 0D       		.byte	0xd
 1987 0613 A7000000 		.4byte	0xa7
 1988 0617 14       		.byte	0x14
 1989 0618 08       		.uleb128 0x8
 1990 0619 47040000 		.4byte	.LASF94
 1991 061d 0D       		.byte	0xd
 1992 061e 39       		.byte	0x39
 1993 061f 0D       		.byte	0xd
 1994 0620 A7000000 		.4byte	0xa7
 1995 0624 15       		.byte	0x15
ARM GAS  /var/folders/l5/0x54b2c10074c8bt31ycjvl80000gp/T//ccLft2iL.s 			page 36


 1996 0625 00       		.byte	0
 1997 0626 12       		.uleb128 0x12
 1998 0627 20050000 		.4byte	0x520
 1999 062b 36060000 		.4byte	0x636
 2000 062f 13       		.uleb128 0x13
 2001 0630 38000000 		.4byte	0x38
 2002 0634 03       		.byte	0x3
 2003 0635 00       		.byte	0
 2004 0636 03       		.uleb128 0x3
 2005 0637 4D010000 		.4byte	.LASF95
 2006 063b 0D       		.byte	0xd
 2007 063c 3A       		.byte	0x3a
 2008 063d 03       		.byte	0x3
 2009 063e 32050000 		.4byte	0x532
 2010 0642 05       		.uleb128 0x5
 2011 0643 36060000 		.4byte	0x636
 2012 0647 0F       		.uleb128 0xf
 2013 0648 CB010000 		.4byte	.LASF96
 2014 064c 0D       		.byte	0xd
 2015 064d 77       		.byte	0x77
 2016 064e 1D       		.byte	0x1d
 2017 064f 42060000 		.4byte	0x642
 2018 0653 03       		.uleb128 0x3
 2019 0654 30030000 		.4byte	.LASF97
 2020 0658 0E       		.byte	0xe
 2021 0659 30       		.byte	0x30
 2022 065a 1D       		.byte	0x1d
 2023 065b 5F060000 		.4byte	0x65f
 2024 065f 07       		.uleb128 0x7
 2025 0660 30030000 		.4byte	.LASF97
 2026 0664 24       		.byte	0x24
 2027 0665 0E       		.byte	0xe
 2028 0666 3E       		.byte	0x3e
 2029 0667 08       		.byte	0x8
 2030 0668 D5060000 		.4byte	0x6d5
 2031 066c 08       		.uleb128 0x8
 2032 066d B3000000 		.4byte	.LASF98
 2033 0671 0E       		.byte	0xe
 2034 0672 3F       		.byte	0x3f
 2035 0673 19       		.byte	0x19
 2036 0674 6F020000 		.4byte	0x26f
 2037 0678 00       		.byte	0
 2038 0679 08       		.uleb128 0x8
 2039 067a 75030000 		.4byte	.LASF99
 2040 067e 0E       		.byte	0xe
 2041 067f 40       		.byte	0x40
 2042 0680 19       		.byte	0x19
 2043 0681 2C000000 		.4byte	0x2c
 2044 0685 08       		.byte	0x8
 2045 0686 08       		.uleb128 0x8
 2046 0687 3B010000 		.4byte	.LASF100
 2047 068b 0E       		.byte	0xe
 2048 068c 41       		.byte	0x41
 2049 068d 1A       		.byte	0x1a
 2050 068e F8060000 		.4byte	0x6f8
 2051 0692 0C       		.byte	0xc
 2052 0693 08       		.uleb128 0x8
ARM GAS  /var/folders/l5/0x54b2c10074c8bt31ycjvl80000gp/T//ccLft2iL.s 			page 37


 2053 0694 6B000000 		.4byte	.LASF101
 2054 0698 0E       		.byte	0xe
 2055 0699 42       		.byte	0x42
 2056 069a 1A       		.byte	0x1a
 2057 069b F8060000 		.4byte	0x6f8
 2058 069f 10       		.byte	0x10
 2059 06a0 08       		.uleb128 0x8
 2060 06a1 A7030000 		.4byte	.LASF102
 2061 06a5 0E       		.byte	0xe
 2062 06a6 44       		.byte	0x44
 2063 06a7 1A       		.byte	0x1a
 2064 06a8 F8060000 		.4byte	0x6f8
 2065 06ac 14       		.byte	0x14
 2066 06ad 08       		.uleb128 0x8
 2067 06ae 0D040000 		.4byte	.LASF103
 2068 06b2 0E       		.byte	0xe
 2069 06b3 45       		.byte	0x45
 2070 06b4 1A       		.byte	0x1a
 2071 06b5 F8060000 		.4byte	0x6f8
 2072 06b9 18       		.byte	0x18
 2073 06ba 08       		.uleb128 0x8
 2074 06bb 6A050000 		.4byte	.LASF104
 2075 06bf 0E       		.byte	0xe
 2076 06c0 46       		.byte	0x46
 2077 06c1 19       		.byte	0x19
 2078 06c2 D5060000 		.4byte	0x6d5
 2079 06c6 1C       		.byte	0x1c
 2080 06c7 08       		.uleb128 0x8
 2081 06c8 09060000 		.4byte	.LASF105
 2082 06cc 0E       		.byte	0xe
 2083 06cd 47       		.byte	0x47
 2084 06ce 1A       		.byte	0x1a
 2085 06cf B6020000 		.4byte	0x2b6
 2086 06d3 20       		.byte	0x20
 2087 06d4 00       		.byte	0
 2088 06d5 03       		.uleb128 0x3
 2089 06d6 F4030000 		.4byte	.LASF106
 2090 06da 0E       		.byte	0xe
 2091 06db 33       		.byte	0x33
 2092 06dc 10       		.byte	0x10
 2093 06dd E1060000 		.4byte	0x6e1
 2094 06e1 0B       		.uleb128 0xb
 2095 06e2 04       		.byte	0x4
 2096 06e3 E7060000 		.4byte	0x6e7
 2097 06e7 0D       		.uleb128 0xd
 2098 06e8 F2060000 		.4byte	0x6f2
 2099 06ec 0E       		.uleb128 0xe
 2100 06ed F2060000 		.4byte	0x6f2
 2101 06f1 00       		.byte	0
 2102 06f2 0B       		.uleb128 0xb
 2103 06f3 04       		.byte	0x4
 2104 06f4 53060000 		.4byte	0x653
 2105 06f8 0B       		.uleb128 0xb
 2106 06f9 04       		.byte	0x4
 2107 06fa A7000000 		.4byte	0xa7
 2108 06fe 03       		.uleb128 0x3
 2109 06ff 1F030000 		.4byte	.LASF107
ARM GAS  /var/folders/l5/0x54b2c10074c8bt31ycjvl80000gp/T//ccLft2iL.s 			page 38


 2110 0703 0E       		.byte	0xe
 2111 0704 7B       		.byte	0x7b
 2112 0705 16       		.byte	0x16
 2113 0706 53060000 		.4byte	0x653
 2114 070a 03       		.uleb128 0x3
 2115 070b 3E000000 		.4byte	.LASF108
 2116 070f 0E       		.byte	0xe
 2117 0710 EE       		.byte	0xee
 2118 0711 16       		.byte	0x16
 2119 0712 53060000 		.4byte	0x653
 2120 0716 0B       		.uleb128 0xb
 2121 0717 04       		.byte	0x4
 2122 0718 B3000000 		.4byte	0xb3
 2123 071c 12       		.uleb128 0x12
 2124 071d 9E020000 		.4byte	0x29e
 2125 0721 2C070000 		.4byte	0x72c
 2126 0725 13       		.uleb128 0x13
 2127 0726 38000000 		.4byte	0x38
 2128 072a 26       		.byte	0x26
 2129 072b 00       		.byte	0
 2130 072c 0F       		.uleb128 0xf
 2131 072d 5F010000 		.4byte	.LASF109
 2132 0731 0F       		.byte	0xf
 2133 0732 82       		.byte	0x82
 2134 0733 08       		.byte	0x8
 2135 0734 1C070000 		.4byte	0x71c
 2136 0738 14       		.uleb128 0x14
 2137 0739 48030000 		.4byte	.LASF111
 2138 073d 01       		.byte	0x1
 2139 073e 8F01     		.2byte	0x18f
 2140 0740 08       		.byte	0x8
 2141 0741 2C000000 		.4byte	0x2c
 2142 0745 00000000 		.4byte	.LFB17
 2143 0749 B0000000 		.4byte	.LFE17-.LFB17
 2144 074d 01       		.uleb128 0x1
 2145 074e 9C       		.byte	0x9c
 2146 074f F6070000 		.4byte	0x7f6
 2147 0753 15       		.uleb128 0x15
 2148 0754 6F717000 		.ascii	"oqp\000"
 2149 0758 01       		.byte	0x1
 2150 0759 8F01     		.2byte	0x18f
 2151 075b 26       		.byte	0x26
 2152 075c F6070000 		.4byte	0x7f6
 2153 0760 04000000 		.4byte	.LLST33
 2154 0764 00000000 		.4byte	.LVUS33
 2155 0768 15       		.uleb128 0x15
 2156 0769 627000   		.ascii	"bp\000"
 2157 076c 01       		.byte	0x1
 2158 076d 8F01     		.2byte	0x18f
 2159 076f 3A       		.byte	0x3a
 2160 0770 16070000 		.4byte	0x716
 2161 0774 2A000000 		.4byte	.LLST34
 2162 0778 22000000 		.4byte	.LVUS34
 2163 077c 15       		.uleb128 0x15
 2164 077d 6E00     		.ascii	"n\000"
 2165 077f 01       		.byte	0x1
 2166 0780 9001     		.2byte	0x190
ARM GAS  /var/folders/l5/0x54b2c10074c8bt31ycjvl80000gp/T//ccLft2iL.s 			page 39


 2167 0782 20       		.byte	0x20
 2168 0783 2C000000 		.4byte	0x2c
 2169 0787 68000000 		.4byte	.LLST35
 2170 078b 60000000 		.4byte	.LVUS35
 2171 078f 16       		.uleb128 0x16
 2172 0790 CA030000 		.4byte	.LASF110
 2173 0794 01       		.byte	0x1
 2174 0795 9001     		.2byte	0x190
 2175 0797 2D       		.byte	0x2d
 2176 0798 30010000 		.4byte	0x130
 2177 079c A2000000 		.4byte	.LLST36
 2178 07a0 9E000000 		.4byte	.LVUS36
 2179 07a4 17       		.uleb128 0x17
 2180 07a5 6E667900 		.ascii	"nfy\000"
 2181 07a9 01       		.byte	0x1
 2182 07aa 9101     		.2byte	0x191
 2183 07ac 0D       		.byte	0xd
 2184 07ad D5060000 		.4byte	0x6d5
 2185 07b1 C2000000 		.4byte	.LLST37
 2186 07b5 C0000000 		.4byte	.LVUS37
 2187 07b9 17       		.uleb128 0x17
 2188 07ba 7700     		.ascii	"w\000"
 2189 07bc 01       		.byte	0x1
 2190 07bd 9201     		.2byte	0x192
 2191 07bf 0A       		.byte	0xa
 2192 07c0 2C000000 		.4byte	0x2c
 2193 07c4 D9000000 		.4byte	.LLST38
 2194 07c8 D5000000 		.4byte	.LVUS38
 2195 07cc 18       		.uleb128 0x18
 2196 07cd 6C000000 		.4byte	.LVL60
 2197 07d1 02       		.uleb128 0x2
 2198 07d2 78       		.byte	0x78
 2199 07d3 00       		.sleb128 0
 2200 07d4 DF070000 		.4byte	0x7df
 2201 07d8 19       		.uleb128 0x19
 2202 07d9 01       		.uleb128 0x1
 2203 07da 50       		.byte	0x50
 2204 07db 02       		.uleb128 0x2
 2205 07dc 74       		.byte	0x74
 2206 07dd 00       		.sleb128 0
 2207 07de 00       		.byte	0
 2208 07df 1A       		.uleb128 0x1a
 2209 07e0 9C000000 		.4byte	.LVL64
 2210 07e4 8D0C0000 		.4byte	0xc8d
 2211 07e8 19       		.uleb128 0x19
 2212 07e9 01       		.uleb128 0x1
 2213 07ea 50       		.byte	0x50
 2214 07eb 02       		.uleb128 0x2
 2215 07ec 74       		.byte	0x74
 2216 07ed 00       		.sleb128 0
 2217 07ee 19       		.uleb128 0x19
 2218 07ef 01       		.uleb128 0x1
 2219 07f0 51       		.byte	0x51
 2220 07f1 02       		.uleb128 0x2
 2221 07f2 79       		.byte	0x79
 2222 07f3 00       		.sleb128 0
 2223 07f4 00       		.byte	0
ARM GAS  /var/folders/l5/0x54b2c10074c8bt31ycjvl80000gp/T//ccLft2iL.s 			page 40


 2224 07f5 00       		.byte	0
 2225 07f6 0B       		.uleb128 0xb
 2226 07f7 04       		.byte	0x4
 2227 07f8 0A070000 		.4byte	0x70a
 2228 07fc 14       		.uleb128 0x14
 2229 07fd 32010000 		.4byte	.LASF112
 2230 0801 01       		.byte	0x1
 2231 0802 6401     		.2byte	0x164
 2232 0804 07       		.byte	0x7
 2233 0805 18010000 		.4byte	0x118
 2234 0809 00000000 		.4byte	.LFB16
 2235 080d 80000000 		.4byte	.LFE16-.LFB16
 2236 0811 01       		.uleb128 0x1
 2237 0812 9C       		.byte	0x9c
 2238 0813 80080000 		.4byte	0x880
 2239 0817 15       		.uleb128 0x15
 2240 0818 6F717000 		.ascii	"oqp\000"
 2241 081c 01       		.byte	0x1
 2242 081d 6401     		.2byte	0x164
 2243 081f 1D       		.byte	0x1d
 2244 0820 F6070000 		.4byte	0x7f6
 2245 0824 02010000 		.4byte	.LLST29
 2246 0828 F8000000 		.4byte	.LVUS29
 2247 082c 17       		.uleb128 0x17
 2248 082d 6200     		.ascii	"b\000"
 2249 082f 01       		.byte	0x1
 2250 0830 6501     		.2byte	0x165
 2251 0832 0B       		.byte	0xb
 2252 0833 A7000000 		.4byte	0xa7
 2253 0837 49010000 		.4byte	.LLST30
 2254 083b 47010000 		.4byte	.LVUS30
 2255 083f 1B       		.uleb128 0x1b
 2256 0840 150D0000 		.4byte	0xd15
 2257 0844 4C000000 		.4byte	.LBI31
 2258 0848 01       		.byte	.LVU319
 2259 0849 78000000 		.4byte	.Ldebug_ranges0+0x78
 2260 084d 01       		.byte	0x1
 2261 084e 7201     		.2byte	0x172
 2262 0850 05       		.byte	0x5
 2263 0851 76080000 		.4byte	0x876
 2264 0855 1C       		.uleb128 0x1c
 2265 0856 260D0000 		.4byte	0xd26
 2266 085a 5E010000 		.4byte	.LLST31
 2267 085e 5C010000 		.4byte	.LVUS31
 2268 0862 1D       		.uleb128 0x1d
 2269 0863 78000000 		.4byte	.Ldebug_ranges0+0x78
 2270 0867 1E       		.uleb128 0x1e
 2271 0868 320D0000 		.4byte	0xd32
 2272 086c 73010000 		.4byte	.LLST32
 2273 0870 71010000 		.4byte	.LVUS32
 2274 0874 00       		.byte	0
 2275 0875 00       		.byte	0
 2276 0876 1F       		.uleb128 0x1f
 2277 0877 60000000 		.4byte	.LVL53
 2278 087b 690D0000 		.4byte	0xd69
 2279 087f 00       		.byte	0
 2280 0880 14       		.uleb128 0x14
ARM GAS  /var/folders/l5/0x54b2c10074c8bt31ycjvl80000gp/T//ccLft2iL.s 			page 41


 2281 0881 00000000 		.4byte	.LASF113
 2282 0885 01       		.byte	0x1
 2283 0886 4201     		.2byte	0x142
 2284 0888 07       		.byte	0x7
 2285 0889 18010000 		.4byte	0x118
 2286 088d 00000000 		.4byte	.LFB15
 2287 0891 8C000000 		.4byte	.LFE15-.LFB15
 2288 0895 01       		.uleb128 0x1
 2289 0896 9C       		.byte	0x9c
 2290 0897 1A090000 		.4byte	0x91a
 2291 089b 15       		.uleb128 0x15
 2292 089c 6F717000 		.ascii	"oqp\000"
 2293 08a0 01       		.byte	0x1
 2294 08a1 4201     		.2byte	0x142
 2295 08a3 23       		.byte	0x23
 2296 08a4 F6070000 		.4byte	0x7f6
 2297 08a8 8A010000 		.4byte	.LLST25
 2298 08ac 86010000 		.4byte	.LVUS25
 2299 08b0 15       		.uleb128 0x15
 2300 08b1 6200     		.ascii	"b\000"
 2301 08b3 01       		.byte	0x1
 2302 08b4 4201     		.2byte	0x142
 2303 08b6 30       		.byte	0x30
 2304 08b7 A7000000 		.4byte	0xa7
 2305 08bb AC010000 		.4byte	.LLST26
 2306 08bf A8010000 		.4byte	.LVUS26
 2307 08c3 16       		.uleb128 0x16
 2308 08c4 CA030000 		.4byte	.LASF110
 2309 08c8 01       		.byte	0x1
 2310 08c9 4201     		.2byte	0x142
 2311 08cb 3D       		.byte	0x3d
 2312 08cc 30010000 		.4byte	0x130
 2313 08d0 D1010000 		.4byte	.LLST27
 2314 08d4 CD010000 		.4byte	.LVUS27
 2315 08d8 20       		.uleb128 0x20
 2316 08d9 60000000 		.4byte	.Ldebug_ranges0+0x60
 2317 08dd 0D090000 		.4byte	0x90d
 2318 08e1 17       		.uleb128 0x17
 2319 08e2 6D736700 		.ascii	"msg\000"
 2320 08e6 01       		.byte	0x1
 2321 08e7 4601     		.2byte	0x146
 2322 08e9 0B       		.byte	0xb
 2323 08ea 18010000 		.4byte	0x118
 2324 08ee F3010000 		.4byte	.LLST28
 2325 08f2 EF010000 		.4byte	.LVUS28
 2326 08f6 1A       		.uleb128 0x1a
 2327 08f7 24000000 		.4byte	.LVL44
 2328 08fb 8D0C0000 		.4byte	0xc8d
 2329 08ff 19       		.uleb128 0x19
 2330 0900 01       		.uleb128 0x1
 2331 0901 50       		.byte	0x50
 2332 0902 02       		.uleb128 0x2
 2333 0903 74       		.byte	0x74
 2334 0904 00       		.sleb128 0
 2335 0905 19       		.uleb128 0x19
 2336 0906 01       		.uleb128 0x1
 2337 0907 51       		.byte	0x51
ARM GAS  /var/folders/l5/0x54b2c10074c8bt31ycjvl80000gp/T//ccLft2iL.s 			page 42


 2338 0908 02       		.uleb128 0x2
 2339 0909 75       		.byte	0x75
 2340 090a 00       		.sleb128 0
 2341 090b 00       		.byte	0
 2342 090c 00       		.byte	0
 2343 090d 21       		.uleb128 0x21
 2344 090e 78000000 		.4byte	.LVL46
 2345 0912 19       		.uleb128 0x19
 2346 0913 01       		.uleb128 0x1
 2347 0914 50       		.byte	0x50
 2348 0915 02       		.uleb128 0x2
 2349 0916 74       		.byte	0x74
 2350 0917 00       		.sleb128 0
 2351 0918 00       		.byte	0
 2352 0919 00       		.byte	0
 2353 091a 22       		.uleb128 0x22
 2354 091b 23050000 		.4byte	.LASF114
 2355 091f 01       		.byte	0x1
 2356 0920 2201     		.2byte	0x122
 2357 0922 06       		.byte	0x6
 2358 0923 00000000 		.4byte	.LFB14
 2359 0927 58000000 		.4byte	.LFE14-.LFB14
 2360 092b 01       		.uleb128 0x1
 2361 092c 9C       		.byte	0x9c
 2362 092d 87090000 		.4byte	0x987
 2363 0931 15       		.uleb128 0x15
 2364 0932 6F717000 		.ascii	"oqp\000"
 2365 0936 01       		.byte	0x1
 2366 0937 2201     		.2byte	0x122
 2367 0939 1E       		.byte	0x1e
 2368 093a F6070000 		.4byte	0x7f6
 2369 093e 15020000 		.4byte	.LLST22
 2370 0942 11020000 		.4byte	.LVUS22
 2371 0946 1B       		.uleb128 0x1b
 2372 0947 150D0000 		.4byte	0xd15
 2373 094b 30000000 		.4byte	.LBI25
 2374 094f 01       		.byte	.LVU239
 2375 0950 48000000 		.4byte	.Ldebug_ranges0+0x48
 2376 0954 01       		.byte	0x1
 2377 0955 2901     		.2byte	0x129
 2378 0957 05       		.byte	0x5
 2379 0958 7D090000 		.4byte	0x97d
 2380 095c 1C       		.uleb128 0x1c
 2381 095d 260D0000 		.4byte	0xd26
 2382 0961 35020000 		.4byte	.LLST23
 2383 0965 33020000 		.4byte	.LVUS23
 2384 0969 1D       		.uleb128 0x1d
 2385 096a 48000000 		.4byte	.Ldebug_ranges0+0x48
 2386 096e 1E       		.uleb128 0x1e
 2387 096f 320D0000 		.4byte	0xd32
 2388 0973 4A020000 		.4byte	.LLST24
 2389 0977 48020000 		.4byte	.LVUS24
 2390 097b 00       		.byte	0
 2391 097c 00       		.byte	0
 2392 097d 1F       		.uleb128 0x1f
 2393 097e 44000000 		.4byte	.LVL41
 2394 0982 690D0000 		.4byte	0xd69
ARM GAS  /var/folders/l5/0x54b2c10074c8bt31ycjvl80000gp/T//ccLft2iL.s 			page 43


 2395 0986 00       		.byte	0
 2396 0987 22       		.uleb128 0x22
 2397 0988 17010000 		.4byte	.LASF115
 2398 098c 01       		.byte	0x1
 2399 098d 0C01     		.2byte	0x10c
 2400 098f 06       		.byte	0x6
 2401 0990 00000000 		.4byte	.LFB13
 2402 0994 34000000 		.4byte	.LFE13-.LFB13
 2403 0998 01       		.uleb128 0x1
 2404 0999 9C       		.byte	0x9c
 2405 099a EA090000 		.4byte	0x9ea
 2406 099e 23       		.uleb128 0x23
 2407 099f 6F717000 		.ascii	"oqp\000"
 2408 09a3 01       		.byte	0x1
 2409 09a4 0C01     		.2byte	0x10c
 2410 09a6 1C       		.byte	0x1c
 2411 09a7 F6070000 		.4byte	0x7f6
 2412 09ab 01       		.uleb128 0x1
 2413 09ac 50       		.byte	0x50
 2414 09ad 23       		.uleb128 0x23
 2415 09ae 627000   		.ascii	"bp\000"
 2416 09b1 01       		.byte	0x1
 2417 09b2 0C01     		.2byte	0x10c
 2418 09b4 2A       		.byte	0x2a
 2419 09b5 F8060000 		.4byte	0x6f8
 2420 09b9 01       		.uleb128 0x1
 2421 09ba 51       		.byte	0x51
 2422 09bb 24       		.uleb128 0x24
 2423 09bc E5010000 		.4byte	.LASF116
 2424 09c0 01       		.byte	0x1
 2425 09c1 0C01     		.2byte	0x10c
 2426 09c3 35       		.byte	0x35
 2427 09c4 2C000000 		.4byte	0x2c
 2428 09c8 01       		.uleb128 0x1
 2429 09c9 52       		.byte	0x52
 2430 09ca 24       		.uleb128 0x24
 2431 09cb 22000000 		.4byte	.LASF117
 2432 09cf 01       		.byte	0x1
 2433 09d0 0C01     		.2byte	0x10c
 2434 09d2 45       		.byte	0x45
 2435 09d3 D5060000 		.4byte	0x6d5
 2436 09d7 01       		.uleb128 0x1
 2437 09d8 53       		.byte	0x53
 2438 09d9 24       		.uleb128 0x24
 2439 09da 8B010000 		.4byte	.LASF118
 2440 09de 01       		.byte	0x1
 2441 09df 0D01     		.2byte	0x10d
 2442 09e1 15       		.byte	0x15
 2443 09e2 B6020000 		.4byte	0x2b6
 2444 09e6 02       		.uleb128 0x2
 2445 09e7 91       		.byte	0x91
 2446 09e8 00       		.sleb128 0
 2447 09e9 00       		.byte	0
 2448 09ea 25       		.uleb128 0x25
 2449 09eb 5B000000 		.4byte	.LASF119
 2450 09ef 01       		.byte	0x1
 2451 09f0 DB       		.byte	0xdb
ARM GAS  /var/folders/l5/0x54b2c10074c8bt31ycjvl80000gp/T//ccLft2iL.s 			page 44


 2452 09f1 08       		.byte	0x8
 2453 09f2 2C000000 		.4byte	0x2c
 2454 09f6 00000000 		.4byte	.LFB12
 2455 09fa A8000000 		.4byte	.LFE12-.LFB12
 2456 09fe 01       		.uleb128 0x1
 2457 09ff 9C       		.byte	0x9c
 2458 0a00 A10A0000 		.4byte	0xaa1
 2459 0a04 26       		.uleb128 0x26
 2460 0a05 69717000 		.ascii	"iqp\000"
 2461 0a09 01       		.byte	0x1
 2462 0a0a DB       		.byte	0xdb
 2463 0a0b 24       		.byte	0x24
 2464 0a0c A10A0000 		.4byte	0xaa1
 2465 0a10 61020000 		.4byte	.LLST16
 2466 0a14 5D020000 		.4byte	.LVUS16
 2467 0a18 26       		.uleb128 0x26
 2468 0a19 627000   		.ascii	"bp\000"
 2469 0a1c 01       		.byte	0x1
 2470 0a1d DB       		.byte	0xdb
 2471 0a1e 32       		.byte	0x32
 2472 0a1f F8060000 		.4byte	0x6f8
 2473 0a23 87020000 		.4byte	.LLST17
 2474 0a27 7F020000 		.4byte	.LVUS17
 2475 0a2b 26       		.uleb128 0x26
 2476 0a2c 6E00     		.ascii	"n\000"
 2477 0a2e 01       		.byte	0x1
 2478 0a2f DC       		.byte	0xdc
 2479 0a30 1F       		.byte	0x1f
 2480 0a31 2C000000 		.4byte	0x2c
 2481 0a35 C1020000 		.4byte	.LLST18
 2482 0a39 BD020000 		.4byte	.LVUS18
 2483 0a3d 27       		.uleb128 0x27
 2484 0a3e CA030000 		.4byte	.LASF110
 2485 0a42 01       		.byte	0x1
 2486 0a43 DC       		.byte	0xdc
 2487 0a44 2C       		.byte	0x2c
 2488 0a45 30010000 		.4byte	0x130
 2489 0a49 E8020000 		.4byte	.LLST19
 2490 0a4d E4020000 		.4byte	.LVUS19
 2491 0a51 28       		.uleb128 0x28
 2492 0a52 6E667900 		.ascii	"nfy\000"
 2493 0a56 01       		.byte	0x1
 2494 0a57 DD       		.byte	0xdd
 2495 0a58 0D       		.byte	0xd
 2496 0a59 D5060000 		.4byte	0x6d5
 2497 0a5d 08030000 		.4byte	.LLST20
 2498 0a61 06030000 		.4byte	.LVUS20
 2499 0a65 28       		.uleb128 0x28
 2500 0a66 7200     		.ascii	"r\000"
 2501 0a68 01       		.byte	0x1
 2502 0a69 DE       		.byte	0xde
 2503 0a6a 0A       		.byte	0xa
 2504 0a6b 2C000000 		.4byte	0x2c
 2505 0a6f 1F030000 		.4byte	.LLST21
 2506 0a73 1B030000 		.4byte	.LVUS21
 2507 0a77 18       		.uleb128 0x18
 2508 0a78 30000000 		.4byte	.LVL31
ARM GAS  /var/folders/l5/0x54b2c10074c8bt31ycjvl80000gp/T//ccLft2iL.s 			page 45


 2509 0a7c 02       		.uleb128 0x2
 2510 0a7d 77       		.byte	0x77
 2511 0a7e 00       		.sleb128 0
 2512 0a7f 8A0A0000 		.4byte	0xa8a
 2513 0a83 19       		.uleb128 0x19
 2514 0a84 01       		.uleb128 0x1
 2515 0a85 50       		.byte	0x50
 2516 0a86 02       		.uleb128 0x2
 2517 0a87 74       		.byte	0x74
 2518 0a88 00       		.sleb128 0
 2519 0a89 00       		.byte	0
 2520 0a8a 1A       		.uleb128 0x1a
 2521 0a8b 40000000 		.4byte	.LVL32
 2522 0a8f 8D0C0000 		.4byte	0xc8d
 2523 0a93 19       		.uleb128 0x19
 2524 0a94 01       		.uleb128 0x1
 2525 0a95 50       		.byte	0x50
 2526 0a96 02       		.uleb128 0x2
 2527 0a97 74       		.byte	0x74
 2528 0a98 00       		.sleb128 0
 2529 0a99 19       		.uleb128 0x19
 2530 0a9a 01       		.uleb128 0x1
 2531 0a9b 51       		.byte	0x51
 2532 0a9c 02       		.uleb128 0x2
 2533 0a9d 75       		.byte	0x75
 2534 0a9e 00       		.sleb128 0
 2535 0a9f 00       		.byte	0
 2536 0aa0 00       		.byte	0
 2537 0aa1 0B       		.uleb128 0xb
 2538 0aa2 04       		.byte	0x4
 2539 0aa3 FE060000 		.4byte	0x6fe
 2540 0aa7 25       		.uleb128 0x25
 2541 0aa8 28060000 		.4byte	.LASF120
 2542 0aac 01       		.byte	0x1
 2543 0aad AB       		.byte	0xab
 2544 0aae 07       		.byte	0x7
 2545 0aaf 18010000 		.4byte	0x118
 2546 0ab3 00000000 		.4byte	.LFB11
 2547 0ab7 74000000 		.4byte	.LFE11-.LFB11
 2548 0abb 01       		.uleb128 0x1
 2549 0abc 9C       		.byte	0x9c
 2550 0abd 400B0000 		.4byte	0xb40
 2551 0ac1 26       		.uleb128 0x26
 2552 0ac2 69717000 		.ascii	"iqp\000"
 2553 0ac6 01       		.byte	0x1
 2554 0ac7 AB       		.byte	0xab
 2555 0ac8 22       		.byte	0x22
 2556 0ac9 A10A0000 		.4byte	0xaa1
 2557 0acd 42030000 		.4byte	.LLST12
 2558 0ad1 3E030000 		.4byte	.LVUS12
 2559 0ad5 27       		.uleb128 0x27
 2560 0ad6 CA030000 		.4byte	.LASF110
 2561 0ada 01       		.byte	0x1
 2562 0adb AB       		.byte	0xab
 2563 0adc 31       		.byte	0x31
 2564 0add 30010000 		.4byte	0x130
 2565 0ae1 64030000 		.4byte	.LLST13
ARM GAS  /var/folders/l5/0x54b2c10074c8bt31ycjvl80000gp/T//ccLft2iL.s 			page 46


 2566 0ae5 60030000 		.4byte	.LVUS13
 2567 0ae9 28       		.uleb128 0x28
 2568 0aea 6200     		.ascii	"b\000"
 2569 0aec 01       		.byte	0x1
 2570 0aed AC       		.byte	0xac
 2571 0aee 0B       		.byte	0xb
 2572 0aef A7000000 		.4byte	0xa7
 2573 0af3 84030000 		.4byte	.LLST14
 2574 0af7 82030000 		.4byte	.LVUS14
 2575 0afb 29       		.uleb128 0x29
 2576 0afc 24000000 		.4byte	.LBB24
 2577 0b00 14000000 		.4byte	.LBE24-.LBB24
 2578 0b04 330B0000 		.4byte	0xb33
 2579 0b08 28       		.uleb128 0x28
 2580 0b09 6D736700 		.ascii	"msg\000"
 2581 0b0d 01       		.byte	0x1
 2582 0b0e B3       		.byte	0xb3
 2583 0b0f 0B       		.byte	0xb
 2584 0b10 18010000 		.4byte	0x118
 2585 0b14 99030000 		.4byte	.LLST15
 2586 0b18 97030000 		.4byte	.LVUS15
 2587 0b1c 1A       		.uleb128 0x1a
 2588 0b1d 30000000 		.4byte	.LVL24
 2589 0b21 8D0C0000 		.4byte	0xc8d
 2590 0b25 19       		.uleb128 0x19
 2591 0b26 01       		.uleb128 0x1
 2592 0b27 50       		.byte	0x50
 2593 0b28 02       		.uleb128 0x2
 2594 0b29 74       		.byte	0x74
 2595 0b2a 00       		.sleb128 0
 2596 0b2b 19       		.uleb128 0x19
 2597 0b2c 01       		.uleb128 0x1
 2598 0b2d 51       		.byte	0x51
 2599 0b2e 02       		.uleb128 0x2
 2600 0b2f 75       		.byte	0x75
 2601 0b30 00       		.sleb128 0
 2602 0b31 00       		.byte	0
 2603 0b32 00       		.byte	0
 2604 0b33 21       		.uleb128 0x21
 2605 0b34 20000000 		.4byte	.LVL23
 2606 0b38 19       		.uleb128 0x19
 2607 0b39 01       		.uleb128 0x1
 2608 0b3a 50       		.byte	0x50
 2609 0b3b 02       		.uleb128 0x2
 2610 0b3c 74       		.byte	0x74
 2611 0b3d 00       		.sleb128 0
 2612 0b3e 00       		.byte	0
 2613 0b3f 00       		.byte	0
 2614 0b40 25       		.uleb128 0x25
 2615 0b41 90010000 		.4byte	.LASF121
 2616 0b45 01       		.byte	0x1
 2617 0b46 85       		.byte	0x85
 2618 0b47 07       		.byte	0x7
 2619 0b48 18010000 		.4byte	0x118
 2620 0b4c 00000000 		.4byte	.LFB10
 2621 0b50 88000000 		.4byte	.LFE10-.LFB10
 2622 0b54 01       		.uleb128 0x1
ARM GAS  /var/folders/l5/0x54b2c10074c8bt31ycjvl80000gp/T//ccLft2iL.s 			page 47


 2623 0b55 9C       		.byte	0x9c
 2624 0b56 C00B0000 		.4byte	0xbc0
 2625 0b5a 26       		.uleb128 0x26
 2626 0b5b 69717000 		.ascii	"iqp\000"
 2627 0b5f 01       		.byte	0x1
 2628 0b60 85       		.byte	0x85
 2629 0b61 1C       		.byte	0x1c
 2630 0b62 A10A0000 		.4byte	0xaa1
 2631 0b66 BA030000 		.4byte	.LLST8
 2632 0b6a AC030000 		.4byte	.LVUS8
 2633 0b6e 26       		.uleb128 0x26
 2634 0b6f 6200     		.ascii	"b\000"
 2635 0b71 01       		.byte	0x1
 2636 0b72 85       		.byte	0x85
 2637 0b73 29       		.byte	0x29
 2638 0b74 A7000000 		.4byte	0xa7
 2639 0b78 1E040000 		.4byte	.LLST9
 2640 0b7c 18040000 		.4byte	.LVUS9
 2641 0b80 2A       		.uleb128 0x2a
 2642 0b81 150D0000 		.4byte	0xd15
 2643 0b85 48000000 		.4byte	.LBI20
 2644 0b89 01       		.byte	.LVU93
 2645 0b8a 30000000 		.4byte	.Ldebug_ranges0+0x30
 2646 0b8e 01       		.byte	0x1
 2647 0b8f 92       		.byte	0x92
 2648 0b90 05       		.byte	0x5
 2649 0b91 B60B0000 		.4byte	0xbb6
 2650 0b95 1C       		.uleb128 0x1c
 2651 0b96 260D0000 		.4byte	0xd26
 2652 0b9a 4C040000 		.4byte	.LLST10
 2653 0b9e 4A040000 		.4byte	.LVUS10
 2654 0ba2 1D       		.uleb128 0x1d
 2655 0ba3 30000000 		.4byte	.Ldebug_ranges0+0x30
 2656 0ba7 1E       		.uleb128 0x1e
 2657 0ba8 320D0000 		.4byte	0xd32
 2658 0bac 61040000 		.4byte	.LLST11
 2659 0bb0 5F040000 		.4byte	.LVUS11
 2660 0bb4 00       		.byte	0
 2661 0bb5 00       		.byte	0
 2662 0bb6 1F       		.uleb128 0x1f
 2663 0bb7 60000000 		.4byte	.LVL17
 2664 0bbb 690D0000 		.4byte	0xd69
 2665 0bbf 00       		.byte	0
 2666 0bc0 2B       		.uleb128 0x2b
 2667 0bc1 AE010000 		.4byte	.LASF122
 2668 0bc5 01       		.byte	0x1
 2669 0bc6 6E       		.byte	0x6e
 2670 0bc7 06       		.byte	0x6
 2671 0bc8 00000000 		.4byte	.LFB9
 2672 0bcc 54000000 		.4byte	.LFE9-.LFB9
 2673 0bd0 01       		.uleb128 0x1
 2674 0bd1 9C       		.byte	0x9c
 2675 0bd2 2A0C0000 		.4byte	0xc2a
 2676 0bd6 26       		.uleb128 0x26
 2677 0bd7 69717000 		.ascii	"iqp\000"
 2678 0bdb 01       		.byte	0x1
 2679 0bdc 6E       		.byte	0x6e
ARM GAS  /var/folders/l5/0x54b2c10074c8bt31ycjvl80000gp/T//ccLft2iL.s 			page 48


 2680 0bdd 1D       		.byte	0x1d
 2681 0bde A10A0000 		.4byte	0xaa1
 2682 0be2 78040000 		.4byte	.LLST5
 2683 0be6 74040000 		.4byte	.LVUS5
 2684 0bea 2A       		.uleb128 0x2a
 2685 0beb 150D0000 		.4byte	0xd15
 2686 0bef 2C000000 		.4byte	.LBI16
 2687 0bf3 01       		.byte	.LVU60
 2688 0bf4 18000000 		.4byte	.Ldebug_ranges0+0x18
 2689 0bf8 01       		.byte	0x1
 2690 0bf9 75       		.byte	0x75
 2691 0bfa 05       		.byte	0x5
 2692 0bfb 200C0000 		.4byte	0xc20
 2693 0bff 1C       		.uleb128 0x1c
 2694 0c00 260D0000 		.4byte	0xd26
 2695 0c04 98040000 		.4byte	.LLST6
 2696 0c08 96040000 		.4byte	.LVUS6
 2697 0c0c 1D       		.uleb128 0x1d
 2698 0c0d 18000000 		.4byte	.Ldebug_ranges0+0x18
 2699 0c11 1E       		.uleb128 0x1e
 2700 0c12 320D0000 		.4byte	0xd32
 2701 0c16 AD040000 		.4byte	.LLST7
 2702 0c1a AB040000 		.4byte	.LVUS7
 2703 0c1e 00       		.byte	0
 2704 0c1f 00       		.byte	0
 2705 0c20 1F       		.uleb128 0x1f
 2706 0c21 40000000 		.4byte	.LVL11
 2707 0c25 690D0000 		.4byte	0xd69
 2708 0c29 00       		.byte	0
 2709 0c2a 2B       		.uleb128 0x2b
 2710 0c2b 35000000 		.4byte	.LASF123
 2711 0c2f 01       		.byte	0x1
 2712 0c30 58       		.byte	0x58
 2713 0c31 06       		.byte	0x6
 2714 0c32 00000000 		.4byte	.LFB8
 2715 0c36 38000000 		.4byte	.LFE8-.LFB8
 2716 0c3a 01       		.uleb128 0x1
 2717 0c3b 9C       		.byte	0x9c
 2718 0c3c 8D0C0000 		.4byte	0xc8d
 2719 0c40 2C       		.uleb128 0x2c
 2720 0c41 69717000 		.ascii	"iqp\000"
 2721 0c45 01       		.byte	0x1
 2722 0c46 58       		.byte	0x58
 2723 0c47 1B       		.byte	0x1b
 2724 0c48 A10A0000 		.4byte	0xaa1
 2725 0c4c 01       		.uleb128 0x1
 2726 0c4d 50       		.byte	0x50
 2727 0c4e 2C       		.uleb128 0x2c
 2728 0c4f 627000   		.ascii	"bp\000"
 2729 0c52 01       		.byte	0x1
 2730 0c53 58       		.byte	0x58
 2731 0c54 29       		.byte	0x29
 2732 0c55 F8060000 		.4byte	0x6f8
 2733 0c59 01       		.uleb128 0x1
 2734 0c5a 51       		.byte	0x51
 2735 0c5b 27       		.uleb128 0x27
 2736 0c5c E5010000 		.4byte	.LASF116
ARM GAS  /var/folders/l5/0x54b2c10074c8bt31ycjvl80000gp/T//ccLft2iL.s 			page 49


 2737 0c60 01       		.byte	0x1
 2738 0c61 58       		.byte	0x58
 2739 0c62 34       		.byte	0x34
 2740 0c63 2C000000 		.4byte	0x2c
 2741 0c67 C4040000 		.4byte	.LLST4
 2742 0c6b C0040000 		.4byte	.LVUS4
 2743 0c6f 2D       		.uleb128 0x2d
 2744 0c70 1E050000 		.4byte	.LASF124
 2745 0c74 01       		.byte	0x1
 2746 0c75 58       		.byte	0x58
 2747 0c76 44       		.byte	0x44
 2748 0c77 D5060000 		.4byte	0x6d5
 2749 0c7b 01       		.uleb128 0x1
 2750 0c7c 53       		.byte	0x53
 2751 0c7d 2D       		.uleb128 0x2d
 2752 0c7e 8B010000 		.4byte	.LASF118
 2753 0c82 01       		.byte	0x1
 2754 0c83 59       		.byte	0x59
 2755 0c84 15       		.byte	0x15
 2756 0c85 B6020000 		.4byte	0x2b6
 2757 0c89 02       		.uleb128 0x2
 2758 0c8a 91       		.byte	0x91
 2759 0c8b 00       		.sleb128 0
 2760 0c8c 00       		.byte	0
 2761 0c8d 2E       		.uleb128 0x2e
 2762 0c8e 11010000 		.4byte	.LASF130
 2763 0c92 01       		.byte	0x1
 2764 0c93 3F       		.byte	0x3f
 2765 0c94 0E       		.byte	0xe
 2766 0c95 18010000 		.4byte	0x118
 2767 0c99 00000000 		.4byte	.LFB7
 2768 0c9d 3C000000 		.4byte	.LFE7-.LFB7
 2769 0ca1 01       		.uleb128 0x1
 2770 0ca2 9C       		.byte	0x9c
 2771 0ca3 150D0000 		.4byte	0xd15
 2772 0ca7 26       		.uleb128 0x26
 2773 0ca8 717000   		.ascii	"qp\000"
 2774 0cab 01       		.byte	0x1
 2775 0cac 3F       		.byte	0x3f
 2776 0cad 22       		.byte	0x22
 2777 0cae F2060000 		.4byte	0x6f2
 2778 0cb2 EF040000 		.4byte	.LLST0
 2779 0cb6 E5040000 		.4byte	.LVUS0
 2780 0cba 27       		.uleb128 0x27
 2781 0cbb CA030000 		.4byte	.LASF110
 2782 0cbf 01       		.byte	0x1
 2783 0cc0 3F       		.byte	0x3f
 2784 0cc1 30       		.byte	0x30
 2785 0cc2 30010000 		.4byte	0x130
 2786 0cc6 37050000 		.4byte	.LLST1
 2787 0cca 31050000 		.4byte	.LVUS1
 2788 0cce 2A       		.uleb128 0x2a
 2789 0ccf 440D0000 		.4byte	0xd44
 2790 0cd3 20000000 		.4byte	.LBI12
 2791 0cd7 01       		.byte	.LVU11
 2792 0cd8 00000000 		.4byte	.Ldebug_ranges0+0
 2793 0cdc 01       		.byte	0x1
ARM GAS  /var/folders/l5/0x54b2c10074c8bt31ycjvl80000gp/T//ccLft2iL.s 			page 50


 2794 0cdd 44       		.byte	0x44
 2795 0cde 03       		.byte	0x3
 2796 0cdf FE0C0000 		.4byte	0xcfe
 2797 0ce3 1C       		.uleb128 0x1c
 2798 0ce4 5C0D0000 		.4byte	0xd5c
 2799 0ce8 65050000 		.4byte	.LLST2
 2800 0cec 63050000 		.4byte	.LVUS2
 2801 0cf0 1C       		.uleb128 0x1c
 2802 0cf1 510D0000 		.4byte	0xd51
 2803 0cf5 7A050000 		.4byte	.LLST3
 2804 0cf9 78050000 		.4byte	.LVUS3
 2805 0cfd 00       		.byte	0
 2806 0cfe 2F       		.uleb128 0x2f
 2807 0cff 30000000 		.4byte	.LVL4
 2808 0d03 750D0000 		.4byte	0xd75
 2809 0d07 19       		.uleb128 0x19
 2810 0d08 01       		.uleb128 0x1
 2811 0d09 50       		.byte	0x50
 2812 0d0a 01       		.uleb128 0x1
 2813 0d0b 3D       		.byte	0x3d
 2814 0d0c 19       		.uleb128 0x19
 2815 0d0d 01       		.uleb128 0x1
 2816 0d0e 51       		.byte	0x51
 2817 0d0f 03       		.uleb128 0x3
 2818 0d10 F3       		.byte	0xf3
 2819 0d11 01       		.uleb128 0x1
 2820 0d12 51       		.byte	0x51
 2821 0d13 00       		.byte	0
 2822 0d14 00       		.byte	0
 2823 0d15 30       		.uleb128 0x30
 2824 0d16 D5040000 		.4byte	.LASF131
 2825 0d1a 02       		.byte	0x2
 2826 0d1b 34       		.byte	0x34
 2827 0d1c 17       		.byte	0x17
 2828 0d1d 69020000 		.4byte	0x269
 2829 0d21 03       		.byte	0x3
 2830 0d22 3E0D0000 		.4byte	0xd3e
 2831 0d26 31       		.uleb128 0x31
 2832 0d27 74717000 		.ascii	"tqp\000"
 2833 0d2b 02       		.byte	0x2
 2834 0d2c 34       		.byte	0x34
 2835 0d2d 31       		.byte	0x31
 2836 0d2e 3E0D0000 		.4byte	0xd3e
 2837 0d32 32       		.uleb128 0x32
 2838 0d33 747000   		.ascii	"tp\000"
 2839 0d36 02       		.byte	0x2
 2840 0d37 35       		.byte	0x35
 2841 0d38 0B       		.byte	0xb
 2842 0d39 69020000 		.4byte	0x269
 2843 0d3d 00       		.byte	0
 2844 0d3e 0B       		.uleb128 0xb
 2845 0d3f 04       		.byte	0x4
 2846 0d40 6F020000 		.4byte	0x26f
 2847 0d44 33       		.uleb128 0x33
 2848 0d45 DB020000 		.4byte	.LASF132
 2849 0d49 02       		.byte	0x2
 2850 0d4a 2D       		.byte	0x2d
ARM GAS  /var/folders/l5/0x54b2c10074c8bt31ycjvl80000gp/T//ccLft2iL.s 			page 51


 2851 0d4b 14       		.byte	0x14
 2852 0d4c 03       		.byte	0x3
 2853 0d4d 690D0000 		.4byte	0xd69
 2854 0d51 31       		.uleb128 0x31
 2855 0d52 747000   		.ascii	"tp\000"
 2856 0d55 02       		.byte	0x2
 2857 0d56 2D       		.byte	0x2d
 2858 0d57 29       		.byte	0x29
 2859 0d58 69020000 		.4byte	0x269
 2860 0d5c 31       		.uleb128 0x31
 2861 0d5d 74717000 		.ascii	"tqp\000"
 2862 0d61 02       		.byte	0x2
 2863 0d62 2D       		.byte	0x2d
 2864 0d63 3B       		.byte	0x3b
 2865 0d64 3E0D0000 		.4byte	0xd3e
 2866 0d68 00       		.byte	0
 2867 0d69 34       		.uleb128 0x34
 2868 0d6a EC040000 		.4byte	.LASF125
 2869 0d6e EC040000 		.4byte	.LASF125
 2870 0d72 0B       		.byte	0xb
 2871 0d73 89       		.byte	0x89
 2872 0d74 0B       		.byte	0xb
 2873 0d75 34       		.uleb128 0x34
 2874 0d76 9A050000 		.4byte	.LASF126
 2875 0d7a 9A050000 		.4byte	.LASF126
 2876 0d7e 0B       		.byte	0xb
 2877 0d7f 8F       		.byte	0x8f
 2878 0d80 09       		.byte	0x9
 2879 0d81 00       		.byte	0
 2880              		.section	.debug_abbrev,"",%progbits
 2881              	.Ldebug_abbrev0:
 2882 0000 01       		.uleb128 0x1
 2883 0001 11       		.uleb128 0x11
 2884 0002 01       		.byte	0x1
 2885 0003 25       		.uleb128 0x25
 2886 0004 0E       		.uleb128 0xe
 2887 0005 13       		.uleb128 0x13
 2888 0006 0B       		.uleb128 0xb
 2889 0007 03       		.uleb128 0x3
 2890 0008 0E       		.uleb128 0xe
 2891 0009 1B       		.uleb128 0x1b
 2892 000a 0E       		.uleb128 0xe
 2893 000b 55       		.uleb128 0x55
 2894 000c 17       		.uleb128 0x17
 2895 000d 11       		.uleb128 0x11
 2896 000e 01       		.uleb128 0x1
 2897 000f 10       		.uleb128 0x10
 2898 0010 17       		.uleb128 0x17
 2899 0011 00       		.byte	0
 2900 0012 00       		.byte	0
 2901 0013 02       		.uleb128 0x2
 2902 0014 24       		.uleb128 0x24
 2903 0015 00       		.byte	0
 2904 0016 0B       		.uleb128 0xb
 2905 0017 0B       		.uleb128 0xb
 2906 0018 3E       		.uleb128 0x3e
 2907 0019 0B       		.uleb128 0xb
ARM GAS  /var/folders/l5/0x54b2c10074c8bt31ycjvl80000gp/T//ccLft2iL.s 			page 52


 2908 001a 03       		.uleb128 0x3
 2909 001b 08       		.uleb128 0x8
 2910 001c 00       		.byte	0
 2911 001d 00       		.byte	0
 2912 001e 03       		.uleb128 0x3
 2913 001f 16       		.uleb128 0x16
 2914 0020 00       		.byte	0
 2915 0021 03       		.uleb128 0x3
 2916 0022 0E       		.uleb128 0xe
 2917 0023 3A       		.uleb128 0x3a
 2918 0024 0B       		.uleb128 0xb
 2919 0025 3B       		.uleb128 0x3b
 2920 0026 0B       		.uleb128 0xb
 2921 0027 39       		.uleb128 0x39
 2922 0028 0B       		.uleb128 0xb
 2923 0029 49       		.uleb128 0x49
 2924 002a 13       		.uleb128 0x13
 2925 002b 00       		.byte	0
 2926 002c 00       		.byte	0
 2927 002d 04       		.uleb128 0x4
 2928 002e 24       		.uleb128 0x24
 2929 002f 00       		.byte	0
 2930 0030 0B       		.uleb128 0xb
 2931 0031 0B       		.uleb128 0xb
 2932 0032 3E       		.uleb128 0x3e
 2933 0033 0B       		.uleb128 0xb
 2934 0034 03       		.uleb128 0x3
 2935 0035 0E       		.uleb128 0xe
 2936 0036 00       		.byte	0
 2937 0037 00       		.byte	0
 2938 0038 05       		.uleb128 0x5
 2939 0039 26       		.uleb128 0x26
 2940 003a 00       		.byte	0
 2941 003b 49       		.uleb128 0x49
 2942 003c 13       		.uleb128 0x13
 2943 003d 00       		.byte	0
 2944 003e 00       		.byte	0
 2945 003f 06       		.uleb128 0x6
 2946 0040 35       		.uleb128 0x35
 2947 0041 00       		.byte	0
 2948 0042 49       		.uleb128 0x49
 2949 0043 13       		.uleb128 0x13
 2950 0044 00       		.byte	0
 2951 0045 00       		.byte	0
 2952 0046 07       		.uleb128 0x7
 2953 0047 13       		.uleb128 0x13
 2954 0048 01       		.byte	0x1
 2955 0049 03       		.uleb128 0x3
 2956 004a 0E       		.uleb128 0xe
 2957 004b 0B       		.uleb128 0xb
 2958 004c 0B       		.uleb128 0xb
 2959 004d 3A       		.uleb128 0x3a
 2960 004e 0B       		.uleb128 0xb
 2961 004f 3B       		.uleb128 0x3b
 2962 0050 0B       		.uleb128 0xb
 2963 0051 39       		.uleb128 0x39
 2964 0052 0B       		.uleb128 0xb
ARM GAS  /var/folders/l5/0x54b2c10074c8bt31ycjvl80000gp/T//ccLft2iL.s 			page 53


 2965 0053 01       		.uleb128 0x1
 2966 0054 13       		.uleb128 0x13
 2967 0055 00       		.byte	0
 2968 0056 00       		.byte	0
 2969 0057 08       		.uleb128 0x8
 2970 0058 0D       		.uleb128 0xd
 2971 0059 00       		.byte	0
 2972 005a 03       		.uleb128 0x3
 2973 005b 0E       		.uleb128 0xe
 2974 005c 3A       		.uleb128 0x3a
 2975 005d 0B       		.uleb128 0xb
 2976 005e 3B       		.uleb128 0x3b
 2977 005f 0B       		.uleb128 0xb
 2978 0060 39       		.uleb128 0x39
 2979 0061 0B       		.uleb128 0xb
 2980 0062 49       		.uleb128 0x49
 2981 0063 13       		.uleb128 0x13
 2982 0064 38       		.uleb128 0x38
 2983 0065 0B       		.uleb128 0xb
 2984 0066 00       		.byte	0
 2985 0067 00       		.byte	0
 2986 0068 09       		.uleb128 0x9
 2987 0069 0D       		.uleb128 0xd
 2988 006a 00       		.byte	0
 2989 006b 03       		.uleb128 0x3
 2990 006c 08       		.uleb128 0x8
 2991 006d 3A       		.uleb128 0x3a
 2992 006e 0B       		.uleb128 0xb
 2993 006f 3B       		.uleb128 0x3b
 2994 0070 0B       		.uleb128 0xb
 2995 0071 39       		.uleb128 0x39
 2996 0072 0B       		.uleb128 0xb
 2997 0073 49       		.uleb128 0x49
 2998 0074 13       		.uleb128 0x13
 2999 0075 38       		.uleb128 0x38
 3000 0076 0B       		.uleb128 0xb
 3001 0077 00       		.byte	0
 3002 0078 00       		.byte	0
 3003 0079 0A       		.uleb128 0xa
 3004 007a 13       		.uleb128 0x13
 3005 007b 01       		.byte	0x1
 3006 007c 0B       		.uleb128 0xb
 3007 007d 0B       		.uleb128 0xb
 3008 007e 3A       		.uleb128 0x3a
 3009 007f 0B       		.uleb128 0xb
 3010 0080 3B       		.uleb128 0x3b
 3011 0081 0B       		.uleb128 0xb
 3012 0082 39       		.uleb128 0x39
 3013 0083 0B       		.uleb128 0xb
 3014 0084 01       		.uleb128 0x1
 3015 0085 13       		.uleb128 0x13
 3016 0086 00       		.byte	0
 3017 0087 00       		.byte	0
 3018 0088 0B       		.uleb128 0xb
 3019 0089 0F       		.uleb128 0xf
 3020 008a 00       		.byte	0
 3021 008b 0B       		.uleb128 0xb
ARM GAS  /var/folders/l5/0x54b2c10074c8bt31ycjvl80000gp/T//ccLft2iL.s 			page 54


 3022 008c 0B       		.uleb128 0xb
 3023 008d 49       		.uleb128 0x49
 3024 008e 13       		.uleb128 0x13
 3025 008f 00       		.byte	0
 3026 0090 00       		.byte	0
 3027 0091 0C       		.uleb128 0xc
 3028 0092 0F       		.uleb128 0xf
 3029 0093 00       		.byte	0
 3030 0094 0B       		.uleb128 0xb
 3031 0095 0B       		.uleb128 0xb
 3032 0096 00       		.byte	0
 3033 0097 00       		.byte	0
 3034 0098 0D       		.uleb128 0xd
 3035 0099 15       		.uleb128 0x15
 3036 009a 01       		.byte	0x1
 3037 009b 27       		.uleb128 0x27
 3038 009c 19       		.uleb128 0x19
 3039 009d 01       		.uleb128 0x1
 3040 009e 13       		.uleb128 0x13
 3041 009f 00       		.byte	0
 3042 00a0 00       		.byte	0
 3043 00a1 0E       		.uleb128 0xe
 3044 00a2 05       		.uleb128 0x5
 3045 00a3 00       		.byte	0
 3046 00a4 49       		.uleb128 0x49
 3047 00a5 13       		.uleb128 0x13
 3048 00a6 00       		.byte	0
 3049 00a7 00       		.byte	0
 3050 00a8 0F       		.uleb128 0xf
 3051 00a9 34       		.uleb128 0x34
 3052 00aa 00       		.byte	0
 3053 00ab 03       		.uleb128 0x3
 3054 00ac 0E       		.uleb128 0xe
 3055 00ad 3A       		.uleb128 0x3a
 3056 00ae 0B       		.uleb128 0xb
 3057 00af 3B       		.uleb128 0x3b
 3058 00b0 0B       		.uleb128 0xb
 3059 00b1 39       		.uleb128 0x39
 3060 00b2 0B       		.uleb128 0xb
 3061 00b3 49       		.uleb128 0x49
 3062 00b4 13       		.uleb128 0x13
 3063 00b5 3F       		.uleb128 0x3f
 3064 00b6 19       		.uleb128 0x19
 3065 00b7 3C       		.uleb128 0x3c
 3066 00b8 19       		.uleb128 0x19
 3067 00b9 00       		.byte	0
 3068 00ba 00       		.byte	0
 3069 00bb 10       		.uleb128 0x10
 3070 00bc 17       		.uleb128 0x17
 3071 00bd 01       		.byte	0x1
 3072 00be 0B       		.uleb128 0xb
 3073 00bf 0B       		.uleb128 0xb
 3074 00c0 3A       		.uleb128 0x3a
 3075 00c1 0B       		.uleb128 0xb
 3076 00c2 3B       		.uleb128 0x3b
 3077 00c3 0B       		.uleb128 0xb
 3078 00c4 39       		.uleb128 0x39
ARM GAS  /var/folders/l5/0x54b2c10074c8bt31ycjvl80000gp/T//ccLft2iL.s 			page 55


 3079 00c5 0B       		.uleb128 0xb
 3080 00c6 01       		.uleb128 0x1
 3081 00c7 13       		.uleb128 0x13
 3082 00c8 00       		.byte	0
 3083 00c9 00       		.byte	0
 3084 00ca 11       		.uleb128 0x11
 3085 00cb 0D       		.uleb128 0xd
 3086 00cc 00       		.byte	0
 3087 00cd 03       		.uleb128 0x3
 3088 00ce 0E       		.uleb128 0xe
 3089 00cf 3A       		.uleb128 0x3a
 3090 00d0 0B       		.uleb128 0xb
 3091 00d1 3B       		.uleb128 0x3b
 3092 00d2 0B       		.uleb128 0xb
 3093 00d3 39       		.uleb128 0x39
 3094 00d4 0B       		.uleb128 0xb
 3095 00d5 49       		.uleb128 0x49
 3096 00d6 13       		.uleb128 0x13
 3097 00d7 00       		.byte	0
 3098 00d8 00       		.byte	0
 3099 00d9 12       		.uleb128 0x12
 3100 00da 01       		.uleb128 0x1
 3101 00db 01       		.byte	0x1
 3102 00dc 49       		.uleb128 0x49
 3103 00dd 13       		.uleb128 0x13
 3104 00de 01       		.uleb128 0x1
 3105 00df 13       		.uleb128 0x13
 3106 00e0 00       		.byte	0
 3107 00e1 00       		.byte	0
 3108 00e2 13       		.uleb128 0x13
 3109 00e3 21       		.uleb128 0x21
 3110 00e4 00       		.byte	0
 3111 00e5 49       		.uleb128 0x49
 3112 00e6 13       		.uleb128 0x13
 3113 00e7 2F       		.uleb128 0x2f
 3114 00e8 0B       		.uleb128 0xb
 3115 00e9 00       		.byte	0
 3116 00ea 00       		.byte	0
 3117 00eb 14       		.uleb128 0x14
 3118 00ec 2E       		.uleb128 0x2e
 3119 00ed 01       		.byte	0x1
 3120 00ee 3F       		.uleb128 0x3f
 3121 00ef 19       		.uleb128 0x19
 3122 00f0 03       		.uleb128 0x3
 3123 00f1 0E       		.uleb128 0xe
 3124 00f2 3A       		.uleb128 0x3a
 3125 00f3 0B       		.uleb128 0xb
 3126 00f4 3B       		.uleb128 0x3b
 3127 00f5 05       		.uleb128 0x5
 3128 00f6 39       		.uleb128 0x39
 3129 00f7 0B       		.uleb128 0xb
 3130 00f8 27       		.uleb128 0x27
 3131 00f9 19       		.uleb128 0x19
 3132 00fa 49       		.uleb128 0x49
 3133 00fb 13       		.uleb128 0x13
 3134 00fc 11       		.uleb128 0x11
 3135 00fd 01       		.uleb128 0x1
ARM GAS  /var/folders/l5/0x54b2c10074c8bt31ycjvl80000gp/T//ccLft2iL.s 			page 56


 3136 00fe 12       		.uleb128 0x12
 3137 00ff 06       		.uleb128 0x6
 3138 0100 40       		.uleb128 0x40
 3139 0101 18       		.uleb128 0x18
 3140 0102 9742     		.uleb128 0x2117
 3141 0104 19       		.uleb128 0x19
 3142 0105 01       		.uleb128 0x1
 3143 0106 13       		.uleb128 0x13
 3144 0107 00       		.byte	0
 3145 0108 00       		.byte	0
 3146 0109 15       		.uleb128 0x15
 3147 010a 05       		.uleb128 0x5
 3148 010b 00       		.byte	0
 3149 010c 03       		.uleb128 0x3
 3150 010d 08       		.uleb128 0x8
 3151 010e 3A       		.uleb128 0x3a
 3152 010f 0B       		.uleb128 0xb
 3153 0110 3B       		.uleb128 0x3b
 3154 0111 05       		.uleb128 0x5
 3155 0112 39       		.uleb128 0x39
 3156 0113 0B       		.uleb128 0xb
 3157 0114 49       		.uleb128 0x49
 3158 0115 13       		.uleb128 0x13
 3159 0116 02       		.uleb128 0x2
 3160 0117 17       		.uleb128 0x17
 3161 0118 B742     		.uleb128 0x2137
 3162 011a 17       		.uleb128 0x17
 3163 011b 00       		.byte	0
 3164 011c 00       		.byte	0
 3165 011d 16       		.uleb128 0x16
 3166 011e 05       		.uleb128 0x5
 3167 011f 00       		.byte	0
 3168 0120 03       		.uleb128 0x3
 3169 0121 0E       		.uleb128 0xe
 3170 0122 3A       		.uleb128 0x3a
 3171 0123 0B       		.uleb128 0xb
 3172 0124 3B       		.uleb128 0x3b
 3173 0125 05       		.uleb128 0x5
 3174 0126 39       		.uleb128 0x39
 3175 0127 0B       		.uleb128 0xb
 3176 0128 49       		.uleb128 0x49
 3177 0129 13       		.uleb128 0x13
 3178 012a 02       		.uleb128 0x2
 3179 012b 17       		.uleb128 0x17
 3180 012c B742     		.uleb128 0x2137
 3181 012e 17       		.uleb128 0x17
 3182 012f 00       		.byte	0
 3183 0130 00       		.byte	0
 3184 0131 17       		.uleb128 0x17
 3185 0132 34       		.uleb128 0x34
 3186 0133 00       		.byte	0
 3187 0134 03       		.uleb128 0x3
 3188 0135 08       		.uleb128 0x8
 3189 0136 3A       		.uleb128 0x3a
 3190 0137 0B       		.uleb128 0xb
 3191 0138 3B       		.uleb128 0x3b
 3192 0139 05       		.uleb128 0x5
ARM GAS  /var/folders/l5/0x54b2c10074c8bt31ycjvl80000gp/T//ccLft2iL.s 			page 57


 3193 013a 39       		.uleb128 0x39
 3194 013b 0B       		.uleb128 0xb
 3195 013c 49       		.uleb128 0x49
 3196 013d 13       		.uleb128 0x13
 3197 013e 02       		.uleb128 0x2
 3198 013f 17       		.uleb128 0x17
 3199 0140 B742     		.uleb128 0x2137
 3200 0142 17       		.uleb128 0x17
 3201 0143 00       		.byte	0
 3202 0144 00       		.byte	0
 3203 0145 18       		.uleb128 0x18
 3204 0146 898201   		.uleb128 0x4109
 3205 0149 01       		.byte	0x1
 3206 014a 11       		.uleb128 0x11
 3207 014b 01       		.uleb128 0x1
 3208 014c 9342     		.uleb128 0x2113
 3209 014e 18       		.uleb128 0x18
 3210 014f 01       		.uleb128 0x1
 3211 0150 13       		.uleb128 0x13
 3212 0151 00       		.byte	0
 3213 0152 00       		.byte	0
 3214 0153 19       		.uleb128 0x19
 3215 0154 8A8201   		.uleb128 0x410a
 3216 0157 00       		.byte	0
 3217 0158 02       		.uleb128 0x2
 3218 0159 18       		.uleb128 0x18
 3219 015a 9142     		.uleb128 0x2111
 3220 015c 18       		.uleb128 0x18
 3221 015d 00       		.byte	0
 3222 015e 00       		.byte	0
 3223 015f 1A       		.uleb128 0x1a
 3224 0160 898201   		.uleb128 0x4109
 3225 0163 01       		.byte	0x1
 3226 0164 11       		.uleb128 0x11
 3227 0165 01       		.uleb128 0x1
 3228 0166 31       		.uleb128 0x31
 3229 0167 13       		.uleb128 0x13
 3230 0168 00       		.byte	0
 3231 0169 00       		.byte	0
 3232 016a 1B       		.uleb128 0x1b
 3233 016b 1D       		.uleb128 0x1d
 3234 016c 01       		.byte	0x1
 3235 016d 31       		.uleb128 0x31
 3236 016e 13       		.uleb128 0x13
 3237 016f 52       		.uleb128 0x52
 3238 0170 01       		.uleb128 0x1
 3239 0171 B842     		.uleb128 0x2138
 3240 0173 0B       		.uleb128 0xb
 3241 0174 55       		.uleb128 0x55
 3242 0175 17       		.uleb128 0x17
 3243 0176 58       		.uleb128 0x58
 3244 0177 0B       		.uleb128 0xb
 3245 0178 59       		.uleb128 0x59
 3246 0179 05       		.uleb128 0x5
 3247 017a 57       		.uleb128 0x57
 3248 017b 0B       		.uleb128 0xb
 3249 017c 01       		.uleb128 0x1
ARM GAS  /var/folders/l5/0x54b2c10074c8bt31ycjvl80000gp/T//ccLft2iL.s 			page 58


 3250 017d 13       		.uleb128 0x13
 3251 017e 00       		.byte	0
 3252 017f 00       		.byte	0
 3253 0180 1C       		.uleb128 0x1c
 3254 0181 05       		.uleb128 0x5
 3255 0182 00       		.byte	0
 3256 0183 31       		.uleb128 0x31
 3257 0184 13       		.uleb128 0x13
 3258 0185 02       		.uleb128 0x2
 3259 0186 17       		.uleb128 0x17
 3260 0187 B742     		.uleb128 0x2137
 3261 0189 17       		.uleb128 0x17
 3262 018a 00       		.byte	0
 3263 018b 00       		.byte	0
 3264 018c 1D       		.uleb128 0x1d
 3265 018d 0B       		.uleb128 0xb
 3266 018e 01       		.byte	0x1
 3267 018f 55       		.uleb128 0x55
 3268 0190 17       		.uleb128 0x17
 3269 0191 00       		.byte	0
 3270 0192 00       		.byte	0
 3271 0193 1E       		.uleb128 0x1e
 3272 0194 34       		.uleb128 0x34
 3273 0195 00       		.byte	0
 3274 0196 31       		.uleb128 0x31
 3275 0197 13       		.uleb128 0x13
 3276 0198 02       		.uleb128 0x2
 3277 0199 17       		.uleb128 0x17
 3278 019a B742     		.uleb128 0x2137
 3279 019c 17       		.uleb128 0x17
 3280 019d 00       		.byte	0
 3281 019e 00       		.byte	0
 3282 019f 1F       		.uleb128 0x1f
 3283 01a0 898201   		.uleb128 0x4109
 3284 01a3 00       		.byte	0
 3285 01a4 11       		.uleb128 0x11
 3286 01a5 01       		.uleb128 0x1
 3287 01a6 31       		.uleb128 0x31
 3288 01a7 13       		.uleb128 0x13
 3289 01a8 00       		.byte	0
 3290 01a9 00       		.byte	0
 3291 01aa 20       		.uleb128 0x20
 3292 01ab 0B       		.uleb128 0xb
 3293 01ac 01       		.byte	0x1
 3294 01ad 55       		.uleb128 0x55
 3295 01ae 17       		.uleb128 0x17
 3296 01af 01       		.uleb128 0x1
 3297 01b0 13       		.uleb128 0x13
 3298 01b1 00       		.byte	0
 3299 01b2 00       		.byte	0
 3300 01b3 21       		.uleb128 0x21
 3301 01b4 898201   		.uleb128 0x4109
 3302 01b7 01       		.byte	0x1
 3303 01b8 11       		.uleb128 0x11
 3304 01b9 01       		.uleb128 0x1
 3305 01ba 00       		.byte	0
 3306 01bb 00       		.byte	0
ARM GAS  /var/folders/l5/0x54b2c10074c8bt31ycjvl80000gp/T//ccLft2iL.s 			page 59


 3307 01bc 22       		.uleb128 0x22
 3308 01bd 2E       		.uleb128 0x2e
 3309 01be 01       		.byte	0x1
 3310 01bf 3F       		.uleb128 0x3f
 3311 01c0 19       		.uleb128 0x19
 3312 01c1 03       		.uleb128 0x3
 3313 01c2 0E       		.uleb128 0xe
 3314 01c3 3A       		.uleb128 0x3a
 3315 01c4 0B       		.uleb128 0xb
 3316 01c5 3B       		.uleb128 0x3b
 3317 01c6 05       		.uleb128 0x5
 3318 01c7 39       		.uleb128 0x39
 3319 01c8 0B       		.uleb128 0xb
 3320 01c9 27       		.uleb128 0x27
 3321 01ca 19       		.uleb128 0x19
 3322 01cb 11       		.uleb128 0x11
 3323 01cc 01       		.uleb128 0x1
 3324 01cd 12       		.uleb128 0x12
 3325 01ce 06       		.uleb128 0x6
 3326 01cf 40       		.uleb128 0x40
 3327 01d0 18       		.uleb128 0x18
 3328 01d1 9742     		.uleb128 0x2117
 3329 01d3 19       		.uleb128 0x19
 3330 01d4 01       		.uleb128 0x1
 3331 01d5 13       		.uleb128 0x13
 3332 01d6 00       		.byte	0
 3333 01d7 00       		.byte	0
 3334 01d8 23       		.uleb128 0x23
 3335 01d9 05       		.uleb128 0x5
 3336 01da 00       		.byte	0
 3337 01db 03       		.uleb128 0x3
 3338 01dc 08       		.uleb128 0x8
 3339 01dd 3A       		.uleb128 0x3a
 3340 01de 0B       		.uleb128 0xb
 3341 01df 3B       		.uleb128 0x3b
 3342 01e0 05       		.uleb128 0x5
 3343 01e1 39       		.uleb128 0x39
 3344 01e2 0B       		.uleb128 0xb
 3345 01e3 49       		.uleb128 0x49
 3346 01e4 13       		.uleb128 0x13
 3347 01e5 02       		.uleb128 0x2
 3348 01e6 18       		.uleb128 0x18
 3349 01e7 00       		.byte	0
 3350 01e8 00       		.byte	0
 3351 01e9 24       		.uleb128 0x24
 3352 01ea 05       		.uleb128 0x5
 3353 01eb 00       		.byte	0
 3354 01ec 03       		.uleb128 0x3
 3355 01ed 0E       		.uleb128 0xe
 3356 01ee 3A       		.uleb128 0x3a
 3357 01ef 0B       		.uleb128 0xb
 3358 01f0 3B       		.uleb128 0x3b
 3359 01f1 05       		.uleb128 0x5
 3360 01f2 39       		.uleb128 0x39
 3361 01f3 0B       		.uleb128 0xb
 3362 01f4 49       		.uleb128 0x49
 3363 01f5 13       		.uleb128 0x13
ARM GAS  /var/folders/l5/0x54b2c10074c8bt31ycjvl80000gp/T//ccLft2iL.s 			page 60


 3364 01f6 02       		.uleb128 0x2
 3365 01f7 18       		.uleb128 0x18
 3366 01f8 00       		.byte	0
 3367 01f9 00       		.byte	0
 3368 01fa 25       		.uleb128 0x25
 3369 01fb 2E       		.uleb128 0x2e
 3370 01fc 01       		.byte	0x1
 3371 01fd 3F       		.uleb128 0x3f
 3372 01fe 19       		.uleb128 0x19
 3373 01ff 03       		.uleb128 0x3
 3374 0200 0E       		.uleb128 0xe
 3375 0201 3A       		.uleb128 0x3a
 3376 0202 0B       		.uleb128 0xb
 3377 0203 3B       		.uleb128 0x3b
 3378 0204 0B       		.uleb128 0xb
 3379 0205 39       		.uleb128 0x39
 3380 0206 0B       		.uleb128 0xb
 3381 0207 27       		.uleb128 0x27
 3382 0208 19       		.uleb128 0x19
 3383 0209 49       		.uleb128 0x49
 3384 020a 13       		.uleb128 0x13
 3385 020b 11       		.uleb128 0x11
 3386 020c 01       		.uleb128 0x1
 3387 020d 12       		.uleb128 0x12
 3388 020e 06       		.uleb128 0x6
 3389 020f 40       		.uleb128 0x40
 3390 0210 18       		.uleb128 0x18
 3391 0211 9742     		.uleb128 0x2117
 3392 0213 19       		.uleb128 0x19
 3393 0214 01       		.uleb128 0x1
 3394 0215 13       		.uleb128 0x13
 3395 0216 00       		.byte	0
 3396 0217 00       		.byte	0
 3397 0218 26       		.uleb128 0x26
 3398 0219 05       		.uleb128 0x5
 3399 021a 00       		.byte	0
 3400 021b 03       		.uleb128 0x3
 3401 021c 08       		.uleb128 0x8
 3402 021d 3A       		.uleb128 0x3a
 3403 021e 0B       		.uleb128 0xb
 3404 021f 3B       		.uleb128 0x3b
 3405 0220 0B       		.uleb128 0xb
 3406 0221 39       		.uleb128 0x39
 3407 0222 0B       		.uleb128 0xb
 3408 0223 49       		.uleb128 0x49
 3409 0224 13       		.uleb128 0x13
 3410 0225 02       		.uleb128 0x2
 3411 0226 17       		.uleb128 0x17
 3412 0227 B742     		.uleb128 0x2137
 3413 0229 17       		.uleb128 0x17
 3414 022a 00       		.byte	0
 3415 022b 00       		.byte	0
 3416 022c 27       		.uleb128 0x27
 3417 022d 05       		.uleb128 0x5
 3418 022e 00       		.byte	0
 3419 022f 03       		.uleb128 0x3
 3420 0230 0E       		.uleb128 0xe
ARM GAS  /var/folders/l5/0x54b2c10074c8bt31ycjvl80000gp/T//ccLft2iL.s 			page 61


 3421 0231 3A       		.uleb128 0x3a
 3422 0232 0B       		.uleb128 0xb
 3423 0233 3B       		.uleb128 0x3b
 3424 0234 0B       		.uleb128 0xb
 3425 0235 39       		.uleb128 0x39
 3426 0236 0B       		.uleb128 0xb
 3427 0237 49       		.uleb128 0x49
 3428 0238 13       		.uleb128 0x13
 3429 0239 02       		.uleb128 0x2
 3430 023a 17       		.uleb128 0x17
 3431 023b B742     		.uleb128 0x2137
 3432 023d 17       		.uleb128 0x17
 3433 023e 00       		.byte	0
 3434 023f 00       		.byte	0
 3435 0240 28       		.uleb128 0x28
 3436 0241 34       		.uleb128 0x34
 3437 0242 00       		.byte	0
 3438 0243 03       		.uleb128 0x3
 3439 0244 08       		.uleb128 0x8
 3440 0245 3A       		.uleb128 0x3a
 3441 0246 0B       		.uleb128 0xb
 3442 0247 3B       		.uleb128 0x3b
 3443 0248 0B       		.uleb128 0xb
 3444 0249 39       		.uleb128 0x39
 3445 024a 0B       		.uleb128 0xb
 3446 024b 49       		.uleb128 0x49
 3447 024c 13       		.uleb128 0x13
 3448 024d 02       		.uleb128 0x2
 3449 024e 17       		.uleb128 0x17
 3450 024f B742     		.uleb128 0x2137
 3451 0251 17       		.uleb128 0x17
 3452 0252 00       		.byte	0
 3453 0253 00       		.byte	0
 3454 0254 29       		.uleb128 0x29
 3455 0255 0B       		.uleb128 0xb
 3456 0256 01       		.byte	0x1
 3457 0257 11       		.uleb128 0x11
 3458 0258 01       		.uleb128 0x1
 3459 0259 12       		.uleb128 0x12
 3460 025a 06       		.uleb128 0x6
 3461 025b 01       		.uleb128 0x1
 3462 025c 13       		.uleb128 0x13
 3463 025d 00       		.byte	0
 3464 025e 00       		.byte	0
 3465 025f 2A       		.uleb128 0x2a
 3466 0260 1D       		.uleb128 0x1d
 3467 0261 01       		.byte	0x1
 3468 0262 31       		.uleb128 0x31
 3469 0263 13       		.uleb128 0x13
 3470 0264 52       		.uleb128 0x52
 3471 0265 01       		.uleb128 0x1
 3472 0266 B842     		.uleb128 0x2138
 3473 0268 0B       		.uleb128 0xb
 3474 0269 55       		.uleb128 0x55
 3475 026a 17       		.uleb128 0x17
 3476 026b 58       		.uleb128 0x58
 3477 026c 0B       		.uleb128 0xb
ARM GAS  /var/folders/l5/0x54b2c10074c8bt31ycjvl80000gp/T//ccLft2iL.s 			page 62


 3478 026d 59       		.uleb128 0x59
 3479 026e 0B       		.uleb128 0xb
 3480 026f 57       		.uleb128 0x57
 3481 0270 0B       		.uleb128 0xb
 3482 0271 01       		.uleb128 0x1
 3483 0272 13       		.uleb128 0x13
 3484 0273 00       		.byte	0
 3485 0274 00       		.byte	0
 3486 0275 2B       		.uleb128 0x2b
 3487 0276 2E       		.uleb128 0x2e
 3488 0277 01       		.byte	0x1
 3489 0278 3F       		.uleb128 0x3f
 3490 0279 19       		.uleb128 0x19
 3491 027a 03       		.uleb128 0x3
 3492 027b 0E       		.uleb128 0xe
 3493 027c 3A       		.uleb128 0x3a
 3494 027d 0B       		.uleb128 0xb
 3495 027e 3B       		.uleb128 0x3b
 3496 027f 0B       		.uleb128 0xb
 3497 0280 39       		.uleb128 0x39
 3498 0281 0B       		.uleb128 0xb
 3499 0282 27       		.uleb128 0x27
 3500 0283 19       		.uleb128 0x19
 3501 0284 11       		.uleb128 0x11
 3502 0285 01       		.uleb128 0x1
 3503 0286 12       		.uleb128 0x12
 3504 0287 06       		.uleb128 0x6
 3505 0288 40       		.uleb128 0x40
 3506 0289 18       		.uleb128 0x18
 3507 028a 9742     		.uleb128 0x2117
 3508 028c 19       		.uleb128 0x19
 3509 028d 01       		.uleb128 0x1
 3510 028e 13       		.uleb128 0x13
 3511 028f 00       		.byte	0
 3512 0290 00       		.byte	0
 3513 0291 2C       		.uleb128 0x2c
 3514 0292 05       		.uleb128 0x5
 3515 0293 00       		.byte	0
 3516 0294 03       		.uleb128 0x3
 3517 0295 08       		.uleb128 0x8
 3518 0296 3A       		.uleb128 0x3a
 3519 0297 0B       		.uleb128 0xb
 3520 0298 3B       		.uleb128 0x3b
 3521 0299 0B       		.uleb128 0xb
 3522 029a 39       		.uleb128 0x39
 3523 029b 0B       		.uleb128 0xb
 3524 029c 49       		.uleb128 0x49
 3525 029d 13       		.uleb128 0x13
 3526 029e 02       		.uleb128 0x2
 3527 029f 18       		.uleb128 0x18
 3528 02a0 00       		.byte	0
 3529 02a1 00       		.byte	0
 3530 02a2 2D       		.uleb128 0x2d
 3531 02a3 05       		.uleb128 0x5
 3532 02a4 00       		.byte	0
 3533 02a5 03       		.uleb128 0x3
 3534 02a6 0E       		.uleb128 0xe
ARM GAS  /var/folders/l5/0x54b2c10074c8bt31ycjvl80000gp/T//ccLft2iL.s 			page 63


 3535 02a7 3A       		.uleb128 0x3a
 3536 02a8 0B       		.uleb128 0xb
 3537 02a9 3B       		.uleb128 0x3b
 3538 02aa 0B       		.uleb128 0xb
 3539 02ab 39       		.uleb128 0x39
 3540 02ac 0B       		.uleb128 0xb
 3541 02ad 49       		.uleb128 0x49
 3542 02ae 13       		.uleb128 0x13
 3543 02af 02       		.uleb128 0x2
 3544 02b0 18       		.uleb128 0x18
 3545 02b1 00       		.byte	0
 3546 02b2 00       		.byte	0
 3547 02b3 2E       		.uleb128 0x2e
 3548 02b4 2E       		.uleb128 0x2e
 3549 02b5 01       		.byte	0x1
 3550 02b6 03       		.uleb128 0x3
 3551 02b7 0E       		.uleb128 0xe
 3552 02b8 3A       		.uleb128 0x3a
 3553 02b9 0B       		.uleb128 0xb
 3554 02ba 3B       		.uleb128 0x3b
 3555 02bb 0B       		.uleb128 0xb
 3556 02bc 39       		.uleb128 0x39
 3557 02bd 0B       		.uleb128 0xb
 3558 02be 27       		.uleb128 0x27
 3559 02bf 19       		.uleb128 0x19
 3560 02c0 49       		.uleb128 0x49
 3561 02c1 13       		.uleb128 0x13
 3562 02c2 11       		.uleb128 0x11
 3563 02c3 01       		.uleb128 0x1
 3564 02c4 12       		.uleb128 0x12
 3565 02c5 06       		.uleb128 0x6
 3566 02c6 40       		.uleb128 0x40
 3567 02c7 18       		.uleb128 0x18
 3568 02c8 9742     		.uleb128 0x2117
 3569 02ca 19       		.uleb128 0x19
 3570 02cb 01       		.uleb128 0x1
 3571 02cc 13       		.uleb128 0x13
 3572 02cd 00       		.byte	0
 3573 02ce 00       		.byte	0
 3574 02cf 2F       		.uleb128 0x2f
 3575 02d0 898201   		.uleb128 0x4109
 3576 02d3 01       		.byte	0x1
 3577 02d4 11       		.uleb128 0x11
 3578 02d5 01       		.uleb128 0x1
 3579 02d6 9542     		.uleb128 0x2115
 3580 02d8 19       		.uleb128 0x19
 3581 02d9 31       		.uleb128 0x31
 3582 02da 13       		.uleb128 0x13
 3583 02db 00       		.byte	0
 3584 02dc 00       		.byte	0
 3585 02dd 30       		.uleb128 0x30
 3586 02de 2E       		.uleb128 0x2e
 3587 02df 01       		.byte	0x1
 3588 02e0 03       		.uleb128 0x3
 3589 02e1 0E       		.uleb128 0xe
 3590 02e2 3A       		.uleb128 0x3a
 3591 02e3 0B       		.uleb128 0xb
ARM GAS  /var/folders/l5/0x54b2c10074c8bt31ycjvl80000gp/T//ccLft2iL.s 			page 64


 3592 02e4 3B       		.uleb128 0x3b
 3593 02e5 0B       		.uleb128 0xb
 3594 02e6 39       		.uleb128 0x39
 3595 02e7 0B       		.uleb128 0xb
 3596 02e8 27       		.uleb128 0x27
 3597 02e9 19       		.uleb128 0x19
 3598 02ea 49       		.uleb128 0x49
 3599 02eb 13       		.uleb128 0x13
 3600 02ec 20       		.uleb128 0x20
 3601 02ed 0B       		.uleb128 0xb
 3602 02ee 01       		.uleb128 0x1
 3603 02ef 13       		.uleb128 0x13
 3604 02f0 00       		.byte	0
 3605 02f1 00       		.byte	0
 3606 02f2 31       		.uleb128 0x31
 3607 02f3 05       		.uleb128 0x5
 3608 02f4 00       		.byte	0
 3609 02f5 03       		.uleb128 0x3
 3610 02f6 08       		.uleb128 0x8
 3611 02f7 3A       		.uleb128 0x3a
 3612 02f8 0B       		.uleb128 0xb
 3613 02f9 3B       		.uleb128 0x3b
 3614 02fa 0B       		.uleb128 0xb
 3615 02fb 39       		.uleb128 0x39
 3616 02fc 0B       		.uleb128 0xb
 3617 02fd 49       		.uleb128 0x49
 3618 02fe 13       		.uleb128 0x13
 3619 02ff 00       		.byte	0
 3620 0300 00       		.byte	0
 3621 0301 32       		.uleb128 0x32
 3622 0302 34       		.uleb128 0x34
 3623 0303 00       		.byte	0
 3624 0304 03       		.uleb128 0x3
 3625 0305 08       		.uleb128 0x8
 3626 0306 3A       		.uleb128 0x3a
 3627 0307 0B       		.uleb128 0xb
 3628 0308 3B       		.uleb128 0x3b
 3629 0309 0B       		.uleb128 0xb
 3630 030a 39       		.uleb128 0x39
 3631 030b 0B       		.uleb128 0xb
 3632 030c 49       		.uleb128 0x49
 3633 030d 13       		.uleb128 0x13
 3634 030e 00       		.byte	0
 3635 030f 00       		.byte	0
 3636 0310 33       		.uleb128 0x33
 3637 0311 2E       		.uleb128 0x2e
 3638 0312 01       		.byte	0x1
 3639 0313 03       		.uleb128 0x3
 3640 0314 0E       		.uleb128 0xe
 3641 0315 3A       		.uleb128 0x3a
 3642 0316 0B       		.uleb128 0xb
 3643 0317 3B       		.uleb128 0x3b
 3644 0318 0B       		.uleb128 0xb
 3645 0319 39       		.uleb128 0x39
 3646 031a 0B       		.uleb128 0xb
 3647 031b 27       		.uleb128 0x27
 3648 031c 19       		.uleb128 0x19
ARM GAS  /var/folders/l5/0x54b2c10074c8bt31ycjvl80000gp/T//ccLft2iL.s 			page 65


 3649 031d 20       		.uleb128 0x20
 3650 031e 0B       		.uleb128 0xb
 3651 031f 01       		.uleb128 0x1
 3652 0320 13       		.uleb128 0x13
 3653 0321 00       		.byte	0
 3654 0322 00       		.byte	0
 3655 0323 34       		.uleb128 0x34
 3656 0324 2E       		.uleb128 0x2e
 3657 0325 00       		.byte	0
 3658 0326 3F       		.uleb128 0x3f
 3659 0327 19       		.uleb128 0x19
 3660 0328 3C       		.uleb128 0x3c
 3661 0329 19       		.uleb128 0x19
 3662 032a 6E       		.uleb128 0x6e
 3663 032b 0E       		.uleb128 0xe
 3664 032c 03       		.uleb128 0x3
 3665 032d 0E       		.uleb128 0xe
 3666 032e 3A       		.uleb128 0x3a
 3667 032f 0B       		.uleb128 0xb
 3668 0330 3B       		.uleb128 0x3b
 3669 0331 0B       		.uleb128 0xb
 3670 0332 39       		.uleb128 0x39
 3671 0333 0B       		.uleb128 0xb
 3672 0334 00       		.byte	0
 3673 0335 00       		.byte	0
 3674 0336 00       		.byte	0
 3675              		.section	.debug_loc,"",%progbits
 3676              	.Ldebug_loc0:
 3677              	.LVUS33:
 3678 0000 00       		.uleb128 0
 3679 0001 00       		.uleb128 .LVU346
 3680 0002 00       		.uleb128 .LVU346
 3681 0003 00       		.uleb128 0
 3682              	.LLST33:
 3683 0004 00000000 		.4byte	.LVL56
 3684 0008 20000000 		.4byte	.LVL58
 3685 000c 0100     		.2byte	0x1
 3686 000e 50       		.byte	0x50
 3687 000f 20000000 		.4byte	.LVL58
 3688 0013 B0000000 		.4byte	.LFE17
 3689 0017 0100     		.2byte	0x1
 3690 0019 54       		.byte	0x54
 3691 001a 00000000 		.4byte	0
 3692 001e 00000000 		.4byte	0
 3693              	.LVUS34:
 3694 0022 00       		.uleb128 0
 3695 0023 00       		.uleb128 .LVU346
 3696 0024 00       		.uleb128 .LVU346
 3697 0025 00       		.uleb128 .LVU359
 3698 0026 00       		.uleb128 .LVU359
 3699 0027 02       		.uleb128 .LVU377
 3700 0028 02       		.uleb128 .LVU377
 3701 0029 02       		.uleb128 .LVU391
 3702              	.LLST34:
 3703 002a 00000000 		.4byte	.LVL56
 3704 002e 20000000 		.4byte	.LVL58
 3705 0032 0100     		.2byte	0x1
ARM GAS  /var/folders/l5/0x54b2c10074c8bt31ycjvl80000gp/T//ccLft2iL.s 			page 66


 3706 0034 51       		.byte	0x51
 3707 0035 20000000 		.4byte	.LVL58
 3708 0039 44000000 		.4byte	.LVL59
 3709 003d 0100     		.2byte	0x1
 3710 003f 55       		.byte	0x55
 3711 0040 44000000 		.4byte	.LVL59
 3712 0044 80000000 		.4byte	.LVL63
 3713 0048 0300     		.2byte	0x3
 3714 004a 75       		.byte	0x75
 3715 004b 7F       		.sleb128 -1
 3716 004c 9F       		.byte	0x9f
 3717 004d 80000000 		.4byte	.LVL63
 3718 0051 A8000000 		.4byte	.LVL65
 3719 0055 0100     		.2byte	0x1
 3720 0057 55       		.byte	0x55
 3721 0058 00000000 		.4byte	0
 3722 005c 00000000 		.4byte	0
 3723              	.LVUS35:
 3724 0060 00       		.uleb128 0
 3725 0061 00       		.uleb128 .LVU346
 3726 0062 00       		.uleb128 .LVU346
 3727 0063 00       		.uleb128 .LVU371
 3728 0064 00       		.uleb128 .LVU371
 3729 0065 01       		.uleb128 .LVU373
 3730 0066 02       		.uleb128 .LVU377
 3731 0067 02       		.uleb128 .LVU391
 3732              	.LLST35:
 3733 0068 00000000 		.4byte	.LVL56
 3734 006c 20000000 		.4byte	.LVL58
 3735 0070 0100     		.2byte	0x1
 3736 0072 52       		.byte	0x52
 3737 0073 20000000 		.4byte	.LVL58
 3738 0077 74000000 		.4byte	.LVL61
 3739 007b 0100     		.2byte	0x1
 3740 007d 56       		.byte	0x56
 3741 007e 74000000 		.4byte	.LVL61
 3742 0082 78000000 		.4byte	.LVL62
 3743 0086 0300     		.2byte	0x3
 3744 0088 76       		.byte	0x76
 3745 0089 01       		.sleb128 1
 3746 008a 9F       		.byte	0x9f
 3747 008b 80000000 		.4byte	.LVL63
 3748 008f A8000000 		.4byte	.LVL65
 3749 0093 0100     		.2byte	0x1
 3750 0095 56       		.byte	0x56
 3751 0096 00000000 		.4byte	0
 3752 009a 00000000 		.4byte	0
 3753              	.LVUS36:
 3754 009e 00       		.uleb128 0
 3755 009f 00       		.uleb128 .LVU346
 3756 00a0 00       		.uleb128 .LVU346
 3757 00a1 00       		.uleb128 0
 3758              	.LLST36:
 3759 00a2 00000000 		.4byte	.LVL56
 3760 00a6 20000000 		.4byte	.LVL58
 3761 00aa 0100     		.2byte	0x1
 3762 00ac 53       		.byte	0x53
ARM GAS  /var/folders/l5/0x54b2c10074c8bt31ycjvl80000gp/T//ccLft2iL.s 			page 67


 3763 00ad 20000000 		.4byte	.LVL58
 3764 00b1 B0000000 		.4byte	.LFE17
 3765 00b5 0100     		.2byte	0x1
 3766 00b7 59       		.byte	0x59
 3767 00b8 00000000 		.4byte	0
 3768 00bc 00000000 		.4byte	0
 3769              	.LVUS37:
 3770 00c0 00       		.uleb128 .LVU341
 3771 00c1 00       		.uleb128 0
 3772              	.LLST37:
 3773 00c2 18000000 		.4byte	.LVL57
 3774 00c6 B0000000 		.4byte	.LFE17
 3775 00ca 0100     		.2byte	0x1
 3776 00cc 58       		.byte	0x58
 3777 00cd 00000000 		.4byte	0
 3778 00d1 00000000 		.4byte	0
 3779              	.LVUS38:
 3780 00d5 01       		.uleb128 .LVU342
 3781 00d6 00       		.uleb128 .LVU346
 3782 00d7 00       		.uleb128 .LVU346
 3783 00d8 00       		.uleb128 0
 3784              	.LLST38:
 3785 00d9 18000000 		.4byte	.LVL57
 3786 00dd 20000000 		.4byte	.LVL58
 3787 00e1 0200     		.2byte	0x2
 3788 00e3 30       		.byte	0x30
 3789 00e4 9F       		.byte	0x9f
 3790 00e5 20000000 		.4byte	.LVL58
 3791 00e9 B0000000 		.4byte	.LFE17
 3792 00ed 0100     		.2byte	0x1
 3793 00ef 57       		.byte	0x57
 3794 00f0 00000000 		.4byte	0
 3795 00f4 00000000 		.4byte	0
 3796              	.LVUS29:
 3797 00f8 00       		.uleb128 0
 3798 00f9 00       		.uleb128 .LVU324
 3799 00fa 00       		.uleb128 .LVU324
 3800 00fb 00       		.uleb128 .LVU329
 3801 00fc 00       		.uleb128 .LVU329
 3802 00fd 00       		.uleb128 .LVU333
 3803 00fe 00       		.uleb128 .LVU333
 3804 00ff 00       		.uleb128 .LVU335
 3805 0100 00       		.uleb128 .LVU335
 3806 0101 00       		.uleb128 0
 3807              	.LLST29:
 3808 0102 00000000 		.4byte	.LVL48
 3809 0106 54000000 		.4byte	.LVL51
 3810 010a 0100     		.2byte	0x1
 3811 010c 50       		.byte	0x50
 3812 010d 54000000 		.4byte	.LVL51
 3813 0111 5F000000 		.4byte	.LVL53-1
 3814 0115 0100     		.2byte	0x1
 3815 0117 53       		.byte	0x53
 3816 0118 5F000000 		.4byte	.LVL53-1
 3817 011c 70000000 		.4byte	.LVL54
 3818 0120 0400     		.2byte	0x4
 3819 0122 F3       		.byte	0xf3
ARM GAS  /var/folders/l5/0x54b2c10074c8bt31ycjvl80000gp/T//ccLft2iL.s 			page 68


 3820 0123 01       		.uleb128 0x1
 3821 0124 50       		.byte	0x50
 3822 0125 9F       		.byte	0x9f
 3823 0126 70000000 		.4byte	.LVL54
 3824 012a 7C000000 		.4byte	.LVL55
 3825 012e 0100     		.2byte	0x1
 3826 0130 50       		.byte	0x50
 3827 0131 7C000000 		.4byte	.LVL55
 3828 0135 80000000 		.4byte	.LFE16
 3829 0139 0400     		.2byte	0x4
 3830 013b F3       		.byte	0xf3
 3831 013c 01       		.uleb128 0x1
 3832 013d 50       		.byte	0x50
 3833 013e 9F       		.byte	0x9f
 3834 013f 00000000 		.4byte	0
 3835 0143 00000000 		.4byte	0
 3836              	.LVUS30:
 3837 0147 00       		.uleb128 .LVU311
 3838 0148 00       		.uleb128 .LVU333
 3839              	.LLST30:
 3840 0149 34000000 		.4byte	.LVL49
 3841 014d 70000000 		.4byte	.LVL54
 3842 0151 0100     		.2byte	0x1
 3843 0153 54       		.byte	0x54
 3844 0154 00000000 		.4byte	0
 3845 0158 00000000 		.4byte	0
 3846              	.LVUS31:
 3847 015c 01       		.uleb128 .LVU319
 3848 015d 01       		.uleb128 .LVU327
 3849              	.LLST31:
 3850 015e 4C000000 		.4byte	.LVL50
 3851 0162 5C000000 		.4byte	.LVL52
 3852 0166 0100     		.2byte	0x1
 3853 0168 53       		.byte	0x53
 3854 0169 00000000 		.4byte	0
 3855 016d 00000000 		.4byte	0
 3856              	.LVUS32:
 3857 0171 03       		.uleb128 .LVU321
 3858 0172 01       		.uleb128 .LVU327
 3859              	.LLST32:
 3860 0173 4C000000 		.4byte	.LVL50
 3861 0177 5C000000 		.4byte	.LVL52
 3862 017b 0100     		.2byte	0x1
 3863 017d 52       		.byte	0x52
 3864 017e 00000000 		.4byte	0
 3865 0182 00000000 		.4byte	0
 3866              	.LVUS25:
 3867 0186 00       		.uleb128 0
 3868 0187 00       		.uleb128 .LVU261
 3869 0188 00       		.uleb128 .LVU261
 3870 0189 00       		.uleb128 0
 3871              	.LLST25:
 3872 018a 00000000 		.4byte	.LVL42
 3873 018e 18000000 		.4byte	.LVL43
 3874 0192 0100     		.2byte	0x1
 3875 0194 50       		.byte	0x50
 3876 0195 18000000 		.4byte	.LVL43
ARM GAS  /var/folders/l5/0x54b2c10074c8bt31ycjvl80000gp/T//ccLft2iL.s 			page 69


 3877 0199 8C000000 		.4byte	.LFE15
 3878 019d 0100     		.2byte	0x1
 3879 019f 54       		.byte	0x54
 3880 01a0 00000000 		.4byte	0
 3881 01a4 00000000 		.4byte	0
 3882              	.LVUS26:
 3883 01a8 00       		.uleb128 0
 3884 01a9 00       		.uleb128 .LVU261
 3885 01aa 00       		.uleb128 .LVU261
 3886 01ab 00       		.uleb128 0
 3887              	.LLST26:
 3888 01ac 00000000 		.4byte	.LVL42
 3889 01b0 18000000 		.4byte	.LVL43
 3890 01b4 0100     		.2byte	0x1
 3891 01b6 51       		.byte	0x51
 3892 01b7 18000000 		.4byte	.LVL43
 3893 01bb 8C000000 		.4byte	.LFE15
 3894 01bf 0400     		.2byte	0x4
 3895 01c1 F3       		.byte	0xf3
 3896 01c2 01       		.uleb128 0x1
 3897 01c3 51       		.byte	0x51
 3898 01c4 9F       		.byte	0x9f
 3899 01c5 00000000 		.4byte	0
 3900 01c9 00000000 		.4byte	0
 3901              	.LVUS27:
 3902 01cd 00       		.uleb128 0
 3903 01ce 00       		.uleb128 .LVU261
 3904 01cf 00       		.uleb128 .LVU261
 3905 01d0 00       		.uleb128 0
 3906              	.LLST27:
 3907 01d1 00000000 		.4byte	.LVL42
 3908 01d5 18000000 		.4byte	.LVL43
 3909 01d9 0100     		.2byte	0x1
 3910 01db 52       		.byte	0x52
 3911 01dc 18000000 		.4byte	.LVL43
 3912 01e0 8C000000 		.4byte	.LFE15
 3913 01e4 0100     		.2byte	0x1
 3914 01e6 55       		.byte	0x55
 3915 01e7 00000000 		.4byte	0
 3916 01eb 00000000 		.4byte	0
 3917              	.LVUS28:
 3918 01ef 00       		.uleb128 .LVU262
 3919 01f0 00       		.uleb128 .LVU264
 3920 01f1 00       		.uleb128 .LVU289
 3921 01f2 00       		.uleb128 0
 3922              	.LLST28:
 3923 01f3 24000000 		.4byte	.LVL44
 3924 01f7 2C000000 		.4byte	.LVL45
 3925 01fb 0100     		.2byte	0x1
 3926 01fd 50       		.byte	0x50
 3927 01fe 84000000 		.4byte	.LVL47
 3928 0202 8C000000 		.4byte	.LFE15
 3929 0206 0100     		.2byte	0x1
 3930 0208 50       		.byte	0x50
 3931 0209 00000000 		.4byte	0
 3932 020d 00000000 		.4byte	0
 3933              	.LVUS22:
ARM GAS  /var/folders/l5/0x54b2c10074c8bt31ycjvl80000gp/T//ccLft2iL.s 			page 70


 3934 0211 00       		.uleb128 0
 3935 0212 00       		.uleb128 .LVU238
 3936 0213 00       		.uleb128 .LVU238
 3937 0214 00       		.uleb128 0
 3938              	.LLST22:
 3939 0215 00000000 		.4byte	.LVL38
 3940 0219 30000000 		.4byte	.LVL39
 3941 021d 0100     		.2byte	0x1
 3942 021f 50       		.byte	0x50
 3943 0220 30000000 		.4byte	.LVL39
 3944 0224 58000000 		.4byte	.LFE14
 3945 0228 0100     		.2byte	0x1
 3946 022a 54       		.byte	0x54
 3947 022b 00000000 		.4byte	0
 3948 022f 00000000 		.4byte	0
 3949              	.LVUS23:
 3950 0233 01       		.uleb128 .LVU239
 3951 0234 01       		.uleb128 .LVU247
 3952              	.LLST23:
 3953 0235 30000000 		.4byte	.LVL39
 3954 0239 40000000 		.4byte	.LVL40
 3955 023d 0100     		.2byte	0x1
 3956 023f 54       		.byte	0x54
 3957 0240 00000000 		.4byte	0
 3958 0244 00000000 		.4byte	0
 3959              	.LVUS24:
 3960 0248 03       		.uleb128 .LVU241
 3961 0249 01       		.uleb128 .LVU247
 3962              	.LLST24:
 3963 024a 30000000 		.4byte	.LVL39
 3964 024e 40000000 		.4byte	.LVL40
 3965 0252 0100     		.2byte	0x1
 3966 0254 53       		.byte	0x53
 3967 0255 00000000 		.4byte	0
 3968 0259 00000000 		.4byte	0
 3969              	.LVUS16:
 3970 025d 00       		.uleb128 0
 3971 025e 00       		.uleb128 .LVU162
 3972 025f 00       		.uleb128 .LVU162
 3973 0260 00       		.uleb128 0
 3974              	.LLST16:
 3975 0261 00000000 		.4byte	.LVL28
 3976 0265 20000000 		.4byte	.LVL30
 3977 0269 0100     		.2byte	0x1
 3978 026b 50       		.byte	0x50
 3979 026c 20000000 		.4byte	.LVL30
 3980 0270 A8000000 		.4byte	.LFE12
 3981 0274 0100     		.2byte	0x1
 3982 0276 54       		.byte	0x54
 3983 0277 00000000 		.4byte	0
 3984 027b 00000000 		.4byte	0
 3985              	.LVUS17:
 3986 027f 00       		.uleb128 0
 3987 0280 00       		.uleb128 .LVU162
 3988 0281 00       		.uleb128 .LVU162
 3989 0282 00       		.uleb128 .LVU181
 3990 0283 00       		.uleb128 .LVU181
ARM GAS  /var/folders/l5/0x54b2c10074c8bt31ycjvl80000gp/T//ccLft2iL.s 			page 71


 3991 0284 00       		.uleb128 .LVU196
 3992 0285 00       		.uleb128 .LVU196
 3993 0286 02       		.uleb128 .LVU200
 3994              	.LLST17:
 3995 0287 00000000 		.4byte	.LVL28
 3996 028b 20000000 		.4byte	.LVL30
 3997 028f 0100     		.2byte	0x1
 3998 0291 51       		.byte	0x51
 3999 0292 20000000 		.4byte	.LVL30
 4000 0296 70000000 		.4byte	.LVL33
 4001 029a 0100     		.2byte	0x1
 4002 029c 58       		.byte	0x58
 4003 029d 70000000 		.4byte	.LVL33
 4004 02a1 9C000000 		.4byte	.LVL35
 4005 02a5 0300     		.2byte	0x3
 4006 02a7 78       		.byte	0x78
 4007 02a8 7F       		.sleb128 -1
 4008 02a9 9F       		.byte	0x9f
 4009 02aa 9C000000 		.4byte	.LVL35
 4010 02ae A0000000 		.4byte	.LVL36
 4011 02b2 0100     		.2byte	0x1
 4012 02b4 58       		.byte	0x58
 4013 02b5 00000000 		.4byte	0
 4014 02b9 00000000 		.4byte	0
 4015              	.LVUS18:
 4016 02bd 00       		.uleb128 0
 4017 02be 00       		.uleb128 .LVU162
 4018 02bf 01       		.uleb128 .LVU191
 4019 02c0 00       		.uleb128 .LVU196
 4020              	.LLST18:
 4021 02c1 00000000 		.4byte	.LVL28
 4022 02c5 20000000 		.4byte	.LVL30
 4023 02c9 0100     		.2byte	0x1
 4024 02cb 52       		.byte	0x52
 4025 02cc 8C000000 		.4byte	.LVL34
 4026 02d0 9C000000 		.4byte	.LVL35
 4027 02d4 0600     		.2byte	0x6
 4028 02d6 79       		.byte	0x79
 4029 02d7 00       		.sleb128 0
 4030 02d8 76       		.byte	0x76
 4031 02d9 00       		.sleb128 0
 4032 02da 1C       		.byte	0x1c
 4033 02db 9F       		.byte	0x9f
 4034 02dc 00000000 		.4byte	0
 4035 02e0 00000000 		.4byte	0
 4036              	.LVUS19:
 4037 02e4 00       		.uleb128 0
 4038 02e5 00       		.uleb128 .LVU162
 4039 02e6 00       		.uleb128 .LVU162
 4040 02e7 00       		.uleb128 0
 4041              	.LLST19:
 4042 02e8 00000000 		.4byte	.LVL28
 4043 02ec 20000000 		.4byte	.LVL30
 4044 02f0 0100     		.2byte	0x1
 4045 02f2 53       		.byte	0x53
 4046 02f3 20000000 		.4byte	.LVL30
 4047 02f7 A8000000 		.4byte	.LFE12
ARM GAS  /var/folders/l5/0x54b2c10074c8bt31ycjvl80000gp/T//ccLft2iL.s 			page 72


 4048 02fb 0100     		.2byte	0x1
 4049 02fd 55       		.byte	0x55
 4050 02fe 00000000 		.4byte	0
 4051 0302 00000000 		.4byte	0
 4052              	.LVUS20:
 4053 0306 00       		.uleb128 .LVU157
 4054 0307 00       		.uleb128 0
 4055              	.LLST20:
 4056 0308 18000000 		.4byte	.LVL29
 4057 030c A8000000 		.4byte	.LFE12
 4058 0310 0100     		.2byte	0x1
 4059 0312 57       		.byte	0x57
 4060 0313 00000000 		.4byte	0
 4061 0317 00000000 		.4byte	0
 4062              	.LVUS21:
 4063 031b 01       		.uleb128 .LVU158
 4064 031c 00       		.uleb128 .LVU162
 4065 031d 00       		.uleb128 .LVU162
 4066 031e 00       		.uleb128 0
 4067              	.LLST21:
 4068 031f 18000000 		.4byte	.LVL29
 4069 0323 20000000 		.4byte	.LVL30
 4070 0327 0200     		.2byte	0x2
 4071 0329 30       		.byte	0x30
 4072 032a 9F       		.byte	0x9f
 4073 032b 20000000 		.4byte	.LVL30
 4074 032f A8000000 		.4byte	.LFE12
 4075 0333 0100     		.2byte	0x1
 4076 0335 56       		.byte	0x56
 4077 0336 00000000 		.4byte	0
 4078 033a 00000000 		.4byte	0
 4079              	.LVUS12:
 4080 033e 00       		.uleb128 0
 4081 033f 00       		.uleb128 .LVU125
 4082 0340 00       		.uleb128 .LVU125
 4083 0341 00       		.uleb128 0
 4084              	.LLST12:
 4085 0342 00000000 		.4byte	.LVL22
 4086 0346 1F000000 		.4byte	.LVL23-1
 4087 034a 0100     		.2byte	0x1
 4088 034c 50       		.byte	0x50
 4089 034d 1F000000 		.4byte	.LVL23-1
 4090 0351 74000000 		.4byte	.LFE11
 4091 0355 0100     		.2byte	0x1
 4092 0357 54       		.byte	0x54
 4093 0358 00000000 		.4byte	0
 4094 035c 00000000 		.4byte	0
 4095              	.LVUS13:
 4096 0360 00       		.uleb128 0
 4097 0361 00       		.uleb128 .LVU125
 4098 0362 00       		.uleb128 .LVU125
 4099 0363 00       		.uleb128 0
 4100              	.LLST13:
 4101 0364 00000000 		.4byte	.LVL22
 4102 0368 1F000000 		.4byte	.LVL23-1
 4103 036c 0100     		.2byte	0x1
 4104 036e 51       		.byte	0x51
ARM GAS  /var/folders/l5/0x54b2c10074c8bt31ycjvl80000gp/T//ccLft2iL.s 			page 73


 4105 036f 1F000000 		.4byte	.LVL23-1
 4106 0373 74000000 		.4byte	.LFE11
 4107 0377 0100     		.2byte	0x1
 4108 0379 55       		.byte	0x55
 4109 037a 00000000 		.4byte	0
 4110 037e 00000000 		.4byte	0
 4111              	.LVUS14:
 4112 0382 00       		.uleb128 .LVU144
 4113 0383 00       		.uleb128 .LVU147
 4114              	.LLST14:
 4115 0384 68000000 		.4byte	.LVL26
 4116 0388 6C000000 		.4byte	.LVL27
 4117 038c 0100     		.2byte	0x1
 4118 038e 50       		.byte	0x50
 4119 038f 00000000 		.4byte	0
 4120 0393 00000000 		.4byte	0
 4121              	.LVUS15:
 4122 0397 00       		.uleb128 .LVU127
 4123 0398 00       		.uleb128 .LVU129
 4124              	.LLST15:
 4125 0399 30000000 		.4byte	.LVL24
 4126 039d 38000000 		.4byte	.LVL25
 4127 03a1 0100     		.2byte	0x1
 4128 03a3 50       		.byte	0x50
 4129 03a4 00000000 		.4byte	0
 4130 03a8 00000000 		.4byte	0
 4131              	.LVUS8:
 4132 03ac 00       		.uleb128 0
 4133 03ad 00       		.uleb128 .LVU100
 4134 03ae 00       		.uleb128 .LVU100
 4135 03af 00       		.uleb128 .LVU105
 4136 03b0 00       		.uleb128 .LVU105
 4137 03b1 00       		.uleb128 .LVU108
 4138 03b2 00       		.uleb128 .LVU108
 4139 03b3 00       		.uleb128 .LVU109
 4140 03b4 00       		.uleb128 .LVU109
 4141 03b5 00       		.uleb128 .LVU110
 4142 03b6 00       		.uleb128 .LVU110
 4143 03b7 00       		.uleb128 .LVU112
 4144 03b8 00       		.uleb128 .LVU112
 4145 03b9 00       		.uleb128 0
 4146              	.LLST8:
 4147 03ba 00000000 		.4byte	.LVL12
 4148 03be 54000000 		.4byte	.LVL15
 4149 03c2 0100     		.2byte	0x1
 4150 03c4 50       		.byte	0x50
 4151 03c5 54000000 		.4byte	.LVL15
 4152 03c9 5F000000 		.4byte	.LVL17-1
 4153 03cd 0100     		.2byte	0x1
 4154 03cf 53       		.byte	0x53
 4155 03d0 5F000000 		.4byte	.LVL17-1
 4156 03d4 70000000 		.4byte	.LVL18
 4157 03d8 0400     		.2byte	0x4
 4158 03da F3       		.byte	0xf3
 4159 03db 01       		.uleb128 0x1
 4160 03dc 50       		.byte	0x50
 4161 03dd 9F       		.byte	0x9f
ARM GAS  /var/folders/l5/0x54b2c10074c8bt31ycjvl80000gp/T//ccLft2iL.s 			page 74


 4162 03de 70000000 		.4byte	.LVL18
 4163 03e2 74000000 		.4byte	.LVL19
 4164 03e6 0100     		.2byte	0x1
 4165 03e8 50       		.byte	0x50
 4166 03e9 74000000 		.4byte	.LVL19
 4167 03ed 78000000 		.4byte	.LVL20
 4168 03f1 0400     		.2byte	0x4
 4169 03f3 F3       		.byte	0xf3
 4170 03f4 01       		.uleb128 0x1
 4171 03f5 50       		.byte	0x50
 4172 03f6 9F       		.byte	0x9f
 4173 03f7 78000000 		.4byte	.LVL20
 4174 03fb 84000000 		.4byte	.LVL21
 4175 03ff 0100     		.2byte	0x1
 4176 0401 50       		.byte	0x50
 4177 0402 84000000 		.4byte	.LVL21
 4178 0406 88000000 		.4byte	.LFE10
 4179 040a 0400     		.2byte	0x4
 4180 040c F3       		.byte	0xf3
 4181 040d 01       		.uleb128 0x1
 4182 040e 50       		.byte	0x50
 4183 040f 9F       		.byte	0x9f
 4184 0410 00000000 		.4byte	0
 4185 0414 00000000 		.4byte	0
 4186              	.LVUS9:
 4187 0418 00       		.uleb128 0
 4188 0419 00       		.uleb128 .LVU97
 4189 041a 00       		.uleb128 .LVU97
 4190 041b 00       		.uleb128 .LVU108
 4191 041c 00       		.uleb128 .LVU108
 4192 041d 00       		.uleb128 0
 4193              	.LLST9:
 4194 041e 00000000 		.4byte	.LVL12
 4195 0422 4C000000 		.4byte	.LVL14
 4196 0426 0100     		.2byte	0x1
 4197 0428 51       		.byte	0x51
 4198 0429 4C000000 		.4byte	.LVL14
 4199 042d 70000000 		.4byte	.LVL18
 4200 0431 0400     		.2byte	0x4
 4201 0433 F3       		.byte	0xf3
 4202 0434 01       		.uleb128 0x1
 4203 0435 51       		.byte	0x51
 4204 0436 9F       		.byte	0x9f
 4205 0437 70000000 		.4byte	.LVL18
 4206 043b 88000000 		.4byte	.LFE10
 4207 043f 0100     		.2byte	0x1
 4208 0441 51       		.byte	0x51
 4209 0442 00000000 		.4byte	0
 4210 0446 00000000 		.4byte	0
 4211              	.LVUS10:
 4212 044a 01       		.uleb128 .LVU93
 4213 044b 01       		.uleb128 .LVU103
 4214              	.LLST10:
 4215 044c 48000000 		.4byte	.LVL13
 4216 0450 5C000000 		.4byte	.LVL16
 4217 0454 0100     		.2byte	0x1
 4218 0456 53       		.byte	0x53
ARM GAS  /var/folders/l5/0x54b2c10074c8bt31ycjvl80000gp/T//ccLft2iL.s 			page 75


 4219 0457 00000000 		.4byte	0
 4220 045b 00000000 		.4byte	0
 4221              	.LVUS11:
 4222 045f 03       		.uleb128 .LVU95
 4223 0460 01       		.uleb128 .LVU103
 4224              	.LLST11:
 4225 0461 48000000 		.4byte	.LVL13
 4226 0465 5C000000 		.4byte	.LVL16
 4227 0469 0100     		.2byte	0x1
 4228 046b 52       		.byte	0x52
 4229 046c 00000000 		.4byte	0
 4230 0470 00000000 		.4byte	0
 4231              	.LVUS5:
 4232 0474 00       		.uleb128 0
 4233 0475 00       		.uleb128 .LVU59
 4234 0476 00       		.uleb128 .LVU59
 4235 0477 00       		.uleb128 0
 4236              	.LLST5:
 4237 0478 00000000 		.4byte	.LVL8
 4238 047c 2C000000 		.4byte	.LVL9
 4239 0480 0100     		.2byte	0x1
 4240 0482 50       		.byte	0x50
 4241 0483 2C000000 		.4byte	.LVL9
 4242 0487 54000000 		.4byte	.LFE9
 4243 048b 0100     		.2byte	0x1
 4244 048d 54       		.byte	0x54
 4245 048e 00000000 		.4byte	0
 4246 0492 00000000 		.4byte	0
 4247              	.LVUS6:
 4248 0496 01       		.uleb128 .LVU60
 4249 0497 01       		.uleb128 .LVU68
 4250              	.LLST6:
 4251 0498 2C000000 		.4byte	.LVL9
 4252 049c 3C000000 		.4byte	.LVL10
 4253 04a0 0100     		.2byte	0x1
 4254 04a2 54       		.byte	0x54
 4255 04a3 00000000 		.4byte	0
 4256 04a7 00000000 		.4byte	0
 4257              	.LVUS7:
 4258 04ab 03       		.uleb128 .LVU62
 4259 04ac 01       		.uleb128 .LVU68
 4260              	.LLST7:
 4261 04ad 2C000000 		.4byte	.LVL9
 4262 04b1 3C000000 		.4byte	.LVL10
 4263 04b5 0100     		.2byte	0x1
 4264 04b7 53       		.byte	0x53
 4265 04b8 00000000 		.4byte	0
 4266 04bc 00000000 		.4byte	0
 4267              	.LVUS4:
 4268 04c0 00       		.uleb128 0
 4269 04c1 00       		.uleb128 .LVU28
 4270 04c2 00       		.uleb128 .LVU28
 4271 04c3 00       		.uleb128 0
 4272              	.LLST4:
 4273 04c4 00000000 		.4byte	.LVL6
 4274 04c8 10000000 		.4byte	.LVL7
 4275 04cc 0100     		.2byte	0x1
ARM GAS  /var/folders/l5/0x54b2c10074c8bt31ycjvl80000gp/T//ccLft2iL.s 			page 76


 4276 04ce 52       		.byte	0x52
 4277 04cf 10000000 		.4byte	.LVL7
 4278 04d3 38000000 		.4byte	.LFE8
 4279 04d7 0400     		.2byte	0x4
 4280 04d9 F3       		.byte	0xf3
 4281 04da 01       		.uleb128 0x1
 4282 04db 52       		.byte	0x52
 4283 04dc 9F       		.byte	0x9f
 4284 04dd 00000000 		.4byte	0
 4285 04e1 00000000 		.4byte	0
 4286              	.LVUS0:
 4287 04e5 00       		.uleb128 0
 4288 04e6 00       		.uleb128 .LVU9
 4289 04e7 00       		.uleb128 .LVU9
 4290 04e8 00       		.uleb128 .LVU20
 4291 04e9 00       		.uleb128 .LVU20
 4292 04ea 00       		.uleb128 .LVU20
 4293 04eb 00       		.uleb128 .LVU20
 4294 04ec 00       		.uleb128 .LVU21
 4295 04ed 00       		.uleb128 .LVU21
 4296 04ee 00       		.uleb128 0
 4297              	.LLST0:
 4298 04ef 00000000 		.4byte	.LVL0
 4299 04f3 1C000000 		.4byte	.LVL1
 4300 04f7 0100     		.2byte	0x1
 4301 04f9 50       		.byte	0x50
 4302 04fa 1C000000 		.4byte	.LVL1
 4303 04fe 2F000000 		.4byte	.LVL4-1
 4304 0502 0100     		.2byte	0x1
 4305 0504 52       		.byte	0x52
 4306 0505 2F000000 		.4byte	.LVL4-1
 4307 0509 30000000 		.4byte	.LVL4
 4308 050d 0400     		.2byte	0x4
 4309 050f F3       		.byte	0xf3
 4310 0510 01       		.uleb128 0x1
 4311 0511 50       		.byte	0x50
 4312 0512 9F       		.byte	0x9f
 4313 0513 30000000 		.4byte	.LVL4
 4314 0517 34000000 		.4byte	.LVL5
 4315 051b 0100     		.2byte	0x1
 4316 051d 50       		.byte	0x50
 4317 051e 34000000 		.4byte	.LVL5
 4318 0522 3C000000 		.4byte	.LFE7
 4319 0526 0100     		.2byte	0x1
 4320 0528 52       		.byte	0x52
 4321 0529 00000000 		.4byte	0
 4322 052d 00000000 		.4byte	0
 4323              	.LVUS1:
 4324 0531 00       		.uleb128 0
 4325 0532 00       		.uleb128 .LVU20
 4326 0533 00       		.uleb128 .LVU20
 4327 0534 00       		.uleb128 .LVU20
 4328 0535 00       		.uleb128 .LVU20
 4329 0536 00       		.uleb128 0
 4330              	.LLST1:
 4331 0537 00000000 		.4byte	.LVL0
 4332 053b 2F000000 		.4byte	.LVL4-1
ARM GAS  /var/folders/l5/0x54b2c10074c8bt31ycjvl80000gp/T//ccLft2iL.s 			page 77


 4333 053f 0100     		.2byte	0x1
 4334 0541 51       		.byte	0x51
 4335 0542 2F000000 		.4byte	.LVL4-1
 4336 0546 30000000 		.4byte	.LVL4
 4337 054a 0400     		.2byte	0x4
 4338 054c F3       		.byte	0xf3
 4339 054d 01       		.uleb128 0x1
 4340 054e 51       		.byte	0x51
 4341 054f 9F       		.byte	0x9f
 4342 0550 30000000 		.4byte	.LVL4
 4343 0554 3C000000 		.4byte	.LFE7
 4344 0558 0100     		.2byte	0x1
 4345 055a 51       		.byte	0x51
 4346 055b 00000000 		.4byte	0
 4347 055f 00000000 		.4byte	0
 4348              	.LVUS2:
 4349 0563 01       		.uleb128 .LVU11
 4350 0564 00       		.uleb128 .LVU17
 4351              	.LLST2:
 4352 0565 20000000 		.4byte	.LVL2
 4353 0569 2C000000 		.4byte	.LVL3
 4354 056d 0100     		.2byte	0x1
 4355 056f 52       		.byte	0x52
 4356 0570 00000000 		.4byte	0
 4357 0574 00000000 		.4byte	0
 4358              	.LVUS3:
 4359 0578 01       		.uleb128 .LVU11
 4360 0579 00       		.uleb128 .LVU17
 4361              	.LLST3:
 4362 057a 20000000 		.4byte	.LVL2
 4363 057e 2C000000 		.4byte	.LVL3
 4364 0582 0100     		.2byte	0x1
 4365 0584 53       		.byte	0x53
 4366 0585 00000000 		.4byte	0
 4367 0589 00000000 		.4byte	0
 4368              		.section	.debug_aranges,"",%progbits
 4369 0000 6C000000 		.4byte	0x6c
 4370 0004 0200     		.2byte	0x2
 4371 0006 00000000 		.4byte	.Ldebug_info0
 4372 000a 04       		.byte	0x4
 4373 000b 00       		.byte	0
 4374 000c 0000     		.2byte	0
 4375 000e 0000     		.2byte	0
 4376 0010 00000000 		.4byte	.LFB7
 4377 0014 3C000000 		.4byte	.LFE7-.LFB7
 4378 0018 00000000 		.4byte	.LFB8
 4379 001c 38000000 		.4byte	.LFE8-.LFB8
 4380 0020 00000000 		.4byte	.LFB9
 4381 0024 54000000 		.4byte	.LFE9-.LFB9
 4382 0028 00000000 		.4byte	.LFB10
 4383 002c 88000000 		.4byte	.LFE10-.LFB10
 4384 0030 00000000 		.4byte	.LFB11
 4385 0034 74000000 		.4byte	.LFE11-.LFB11
 4386 0038 00000000 		.4byte	.LFB12
 4387 003c A8000000 		.4byte	.LFE12-.LFB12
 4388 0040 00000000 		.4byte	.LFB13
 4389 0044 34000000 		.4byte	.LFE13-.LFB13
ARM GAS  /var/folders/l5/0x54b2c10074c8bt31ycjvl80000gp/T//ccLft2iL.s 			page 78


 4390 0048 00000000 		.4byte	.LFB14
 4391 004c 58000000 		.4byte	.LFE14-.LFB14
 4392 0050 00000000 		.4byte	.LFB15
 4393 0054 8C000000 		.4byte	.LFE15-.LFB15
 4394 0058 00000000 		.4byte	.LFB16
 4395 005c 80000000 		.4byte	.LFE16-.LFB16
 4396 0060 00000000 		.4byte	.LFB17
 4397 0064 B0000000 		.4byte	.LFE17-.LFB17
 4398 0068 00000000 		.4byte	0
 4399 006c 00000000 		.4byte	0
 4400              		.section	.debug_ranges,"",%progbits
 4401              	.Ldebug_ranges0:
 4402 0000 10000000 		.4byte	.LBB12
 4403 0004 14000000 		.4byte	.LBE12
 4404 0008 20000000 		.4byte	.LBB15
 4405 000c 2C000000 		.4byte	.LBE15
 4406 0010 00000000 		.4byte	0
 4407 0014 00000000 		.4byte	0
 4408 0018 2C000000 		.4byte	.LBB16
 4409 001c 30000000 		.4byte	.LBE16
 4410 0020 34000000 		.4byte	.LBB19
 4411 0024 3C000000 		.4byte	.LBE19
 4412 0028 00000000 		.4byte	0
 4413 002c 00000000 		.4byte	0
 4414 0030 48000000 		.4byte	.LBB20
 4415 0034 4C000000 		.4byte	.LBE20
 4416 0038 54000000 		.4byte	.LBB23
 4417 003c 5C000000 		.4byte	.LBE23
 4418 0040 00000000 		.4byte	0
 4419 0044 00000000 		.4byte	0
 4420 0048 30000000 		.4byte	.LBB25
 4421 004c 34000000 		.4byte	.LBE25
 4422 0050 38000000 		.4byte	.LBB28
 4423 0054 40000000 		.4byte	.LBE28
 4424 0058 00000000 		.4byte	0
 4425 005c 00000000 		.4byte	0
 4426 0060 18000000 		.4byte	.LBB29
 4427 0064 2C000000 		.4byte	.LBE29
 4428 0068 84000000 		.4byte	.LBB30
 4429 006c 8C000000 		.4byte	.LBE30
 4430 0070 00000000 		.4byte	0
 4431 0074 00000000 		.4byte	0
 4432 0078 4C000000 		.4byte	.LBB31
 4433 007c 50000000 		.4byte	.LBE31
 4434 0080 54000000 		.4byte	.LBB34
 4435 0084 5C000000 		.4byte	.LBE34
 4436 0088 00000000 		.4byte	0
 4437 008c 00000000 		.4byte	0
 4438 0090 00000000 		.4byte	.LFB7
 4439 0094 3C000000 		.4byte	.LFE7
 4440 0098 00000000 		.4byte	.LFB8
 4441 009c 38000000 		.4byte	.LFE8
 4442 00a0 00000000 		.4byte	.LFB9
 4443 00a4 54000000 		.4byte	.LFE9
 4444 00a8 00000000 		.4byte	.LFB10
 4445 00ac 88000000 		.4byte	.LFE10
 4446 00b0 00000000 		.4byte	.LFB11
ARM GAS  /var/folders/l5/0x54b2c10074c8bt31ycjvl80000gp/T//ccLft2iL.s 			page 79


 4447 00b4 74000000 		.4byte	.LFE11
 4448 00b8 00000000 		.4byte	.LFB12
 4449 00bc A8000000 		.4byte	.LFE12
 4450 00c0 00000000 		.4byte	.LFB13
 4451 00c4 34000000 		.4byte	.LFE13
 4452 00c8 00000000 		.4byte	.LFB14
 4453 00cc 58000000 		.4byte	.LFE14
 4454 00d0 00000000 		.4byte	.LFB15
 4455 00d4 8C000000 		.4byte	.LFE15
 4456 00d8 00000000 		.4byte	.LFB16
 4457 00dc 80000000 		.4byte	.LFE16
 4458 00e0 00000000 		.4byte	.LFB17
 4459 00e4 B0000000 		.4byte	.LFE17
 4460 00e8 00000000 		.4byte	0
 4461 00ec 00000000 		.4byte	0
 4462              		.section	.debug_line,"",%progbits
 4463              	.Ldebug_line0:
 4464 0000 20080000 		.section	.debug_str,"MS",%progbits,1
 4464      03000402 
 4464      00000201 
 4464      FB0E0D00 
 4464      01010101 
 4465              	.LASF113:
 4466 0000 63684F51 		.ascii	"chOQPutTimeout\000"
 4466      50757454 
 4466      696D656F 
 4466      757400
 4467              	.LASF87:
 4468 000f 63665F6F 		.ascii	"cf_off_older\000"
 4468      66665F6F 
 4468      6C646572 
 4468      00
 4469              	.LASF40:
 4470 001c 705F6D73 		.ascii	"p_msg\000"
 4470      6700
 4471              	.LASF117:
 4472 0022 6F6E6679 		.ascii	"onfy\000"
 4472      00
 4473              	.LASF2:
 4474 0027 73697A65 		.ascii	"size_t\000"
 4474      5F7400
 4475              	.LASF72:
 4476 002e 7264796D 		.ascii	"rdymsg\000"
 4476      736700
 4477              	.LASF123:
 4478 0035 63684951 		.ascii	"chIQInit\000"
 4478      496E6974 
 4478      00
 4479              	.LASF108:
 4480 003e 4F757470 		.ascii	"OutputQueue\000"
 4480      75745175 
 4480      65756500 
 4481              	.LASF3:
 4482 004a 5F5F7569 		.ascii	"__uint8_t\000"
 4482      6E74385F 
 4482      7400
 4483              	.LASF66:
ARM GAS  /var/folders/l5/0x54b2c10074c8bt31ycjvl80000gp/T//ccLft2iL.s 			page 80


 4484 0054 76746C69 		.ascii	"vtlist\000"
 4484      737400
 4485              	.LASF119:
 4486 005b 63684951 		.ascii	"chIQReadTimeout\000"
 4486      52656164 
 4486      54696D65 
 4486      6F757400 
 4487              	.LASF101:
 4488 006b 715F746F 		.ascii	"q_top\000"
 4488      7000
 4489              	.LASF13:
 4490 0071 6C6F6E67 		.ascii	"long long unsigned int\000"
 4490      206C6F6E 
 4490      6720756E 
 4490      7369676E 
 4490      65642069 
 4491              	.LASF83:
 4492 0088 63685F74 		.ascii	"ch_threadsize\000"
 4492      68726561 
 4492      6473697A 
 4492      6500
 4493              	.LASF73:
 4494 0096 65786974 		.ascii	"exitcode\000"
 4494      636F6465 
 4494      00
 4495              	.LASF29:
 4496 009f 705F7072 		.ascii	"p_prio\000"
 4496      696F00
 4497              	.LASF90:
 4498 00a6 63665F6F 		.ascii	"cf_off_state\000"
 4498      66665F73 
 4498      74617465 
 4498      00
 4499              	.LASF98:
 4500 00b3 715F7761 		.ascii	"q_waiting\000"
 4500      6974696E 
 4500      6700
 4501              	.LASF12:
 4502 00bd 6C6F6E67 		.ascii	"long long int\000"
 4502      206C6F6E 
 4502      6720696E 
 4502      7400
 4503              	.LASF1:
 4504 00cb 7369676E 		.ascii	"signed char\000"
 4504      65642063 
 4504      68617200 
 4505              	.LASF89:
 4506 00d7 63665F6F 		.ascii	"cf_off_stklimit\000"
 4506      66665F73 
 4506      746B6C69 
 4506      6D697400 
 4507              	.LASF91:
 4508 00e7 63665F6F 		.ascii	"cf_off_flags\000"
 4508      66665F66 
 4508      6C616773 
 4508      00
 4509              	.LASF18:
ARM GAS  /var/folders/l5/0x54b2c10074c8bt31ycjvl80000gp/T//ccLft2iL.s 			page 81


 4510 00f4 626F6F6C 		.ascii	"bool_t\000"
 4510      5F7400
 4511              	.LASF69:
 4512 00fb 6D5F7175 		.ascii	"m_queue\000"
 4512      65756500 
 4513              	.LASF77:
 4514 0103 63685F69 		.ascii	"ch_identifier\000"
 4514      64656E74 
 4514      69666965 
 4514      7200
 4515              	.LASF130:
 4516 0111 71776169 		.ascii	"qwait\000"
 4516      7400
 4517              	.LASF115:
 4518 0117 63684F51 		.ascii	"chOQInit\000"
 4518      496E6974 
 4518      00
 4519              	.LASF9:
 4520 0120 6C6F6E67 		.ascii	"long int\000"
 4520      20696E74 
 4520      00
 4521              	.LASF20:
 4522 0129 74737461 		.ascii	"tstate_t\000"
 4522      74655F74 
 4522      00
 4523              	.LASF112:
 4524 0132 63684F51 		.ascii	"chOQGetI\000"
 4524      47657449 
 4524      00
 4525              	.LASF100:
 4526 013b 715F6275 		.ascii	"q_buffer\000"
 4526      66666572 
 4526      00
 4527              	.LASF15:
 4528 0144 75696E74 		.ascii	"uint16_t\000"
 4528      31365F74 
 4528      00
 4529              	.LASF95:
 4530 014d 63686465 		.ascii	"chdebug_t\000"
 4530      6275675F 
 4530      7400
 4531              	.LASF31:
 4532 0157 705F6E65 		.ascii	"p_newer\000"
 4532      77657200 
 4533              	.LASF109:
 4534 015f 5F69646C 		.ascii	"_idle_thread_wa\000"
 4534      655F7468 
 4534      72656164 
 4534      5F776100 
 4535              	.LASF10:
 4536 016f 5F5F7569 		.ascii	"__uint32_t\000"
 4536      6E743332 
 4536      5F7400
 4537              	.LASF47:
 4538 017a 72656761 		.ascii	"regarm_t\000"
 4538      726D5F74 
 4538      00
ARM GAS  /var/folders/l5/0x54b2c10074c8bt31ycjvl80000gp/T//ccLft2iL.s 			page 82


 4539              	.LASF53:
 4540 0183 76745F70 		.ascii	"vt_prev\000"
 4540      72657600 
 4541              	.LASF118:
 4542 018b 6C696E6B 		.ascii	"link\000"
 4542      00
 4543              	.LASF121:
 4544 0190 63684951 		.ascii	"chIQPutI\000"
 4544      50757449 
 4544      00
 4545              	.LASF0:
 4546 0199 756E7369 		.ascii	"unsigned int\000"
 4546      676E6564 
 4546      20696E74 
 4546      00
 4547              	.LASF52:
 4548 01a6 76745F6E 		.ascii	"vt_next\000"
 4548      65787400 
 4549              	.LASF122:
 4550 01ae 63684951 		.ascii	"chIQResetI\000"
 4550      52657365 
 4550      744900
 4551              	.LASF11:
 4552 01b9 6C6F6E67 		.ascii	"long unsigned int\000"
 4552      20756E73 
 4552      69676E65 
 4552      6420696E 
 4552      7400
 4553              	.LASF96:
 4554 01cb 63685F64 		.ascii	"ch_debug\000"
 4554      65627567 
 4554      00
 4555              	.LASF50:
 4556 01d4 76746675 		.ascii	"vtfunc_t\000"
 4556      6E635F74 
 4556      00
 4557              	.LASF49:
 4558 01dd 636F6E74 		.ascii	"context\000"
 4558      65787400 
 4559              	.LASF116:
 4560 01e5 73697A65 		.ascii	"size\000"
 4560      00
 4561              	.LASF7:
 4562 01ea 73686F72 		.ascii	"short unsigned int\000"
 4562      7420756E 
 4562      7369676E 
 4562      65642069 
 4562      6E7400
 4563              	.LASF23:
 4564 01fd 6D73675F 		.ascii	"msg_t\000"
 4564      7400
 4565              	.LASF62:
 4566 0203 725F6E65 		.ascii	"r_newer\000"
 4566      77657200 
 4567              	.LASF127:
 4568 020b 474E5520 		.ascii	"GNU C17 8.3.1 20190703 (release) [gcc-8-branch revi"
 4568      43313720 
ARM GAS  /var/folders/l5/0x54b2c10074c8bt31ycjvl80000gp/T//ccLft2iL.s 			page 83


 4568      382E332E 
 4568      31203230 
 4568      31393037 
 4569 023e 73696F6E 		.ascii	"sion 273027] -mcpu=arm1176jz-s -mno-thumb-interwork"
 4569      20323733 
 4569      3032375D 
 4569      202D6D63 
 4569      70753D61 
 4570 0271 202D6D66 		.ascii	" -mfloat-abi=soft -marm -march=armv6kz -ggdb -O2 -f"
 4570      6C6F6174 
 4570      2D616269 
 4570      3D736F66 
 4570      74202D6D 
 4571 02a4 6F6D6974 		.ascii	"omit-frame-pointer -ffunction-sections -fdata-secti"
 4571      2D667261 
 4571      6D652D70 
 4571      6F696E74 
 4571      6572202D 
 4572 02d7 6F6E7300 		.ascii	"ons\000"
 4573              	.LASF132:
 4574 02db 71756575 		.ascii	"queue_insert\000"
 4574      655F696E 
 4574      73657274 
 4574      00
 4575              	.LASF128:
 4576 02e8 2E2E2F2E 		.ascii	"../../os/kernel/src/chqueues.c\000"
 4576      2E2F6F73 
 4576      2F6B6572 
 4576      6E656C2F 
 4576      7372632F 
 4577              	.LASF45:
 4578 0307 54687265 		.ascii	"ThreadsList\000"
 4578      6164734C 
 4578      69737400 
 4579              	.LASF24:
 4580 0313 6576656E 		.ascii	"eventmask_t\000"
 4580      746D6173 
 4580      6B5F7400 
 4581              	.LASF107:
 4582 031f 496E7075 		.ascii	"InputQueue\000"
 4582      74517565 
 4582      756500
 4583              	.LASF68:
 4584 032a 4D757465 		.ascii	"Mutex\000"
 4584      7800
 4585              	.LASF97:
 4586 0330 47656E65 		.ascii	"GenericQueue\000"
 4586      72696351 
 4586      75657565 
 4586      00
 4587              	.LASF46:
 4588 033d 73746B61 		.ascii	"stkalign_t\000"
 4588      6C69676E 
 4588      5F7400
 4589              	.LASF111:
 4590 0348 63684F51 		.ascii	"chOQWriteTimeout\000"
 4590      57726974 
ARM GAS  /var/folders/l5/0x54b2c10074c8bt31ycjvl80000gp/T//ccLft2iL.s 			page 84


 4590      6554696D 
 4590      656F7574 
 4590      00
 4591              	.LASF78:
 4592 0359 63685F7A 		.ascii	"ch_zero\000"
 4592      65726F00 
 4593              	.LASF92:
 4594 0361 63665F6F 		.ascii	"cf_off_refs\000"
 4594      66665F72 
 4594      65667300 
 4595              	.LASF54:
 4596 036d 76745F74 		.ascii	"vt_time\000"
 4596      696D6500 
 4597              	.LASF99:
 4598 0375 715F636F 		.ascii	"q_counter\000"
 4598      756E7465 
 4598      7200
 4599              	.LASF55:
 4600 037f 76745F66 		.ascii	"vt_func\000"
 4600      756E6300 
 4601              	.LASF82:
 4602 0387 63685F74 		.ascii	"ch_timesize\000"
 4602      696D6573 
 4602      697A6500 
 4603              	.LASF88:
 4604 0393 63665F6F 		.ascii	"cf_off_name\000"
 4604      66665F6E 
 4604      616D6500 
 4605              	.LASF32:
 4606 039f 705F6F6C 		.ascii	"p_older\000"
 4606      64657200 
 4607              	.LASF102:
 4608 03a7 715F7772 		.ascii	"q_wrptr\000"
 4608      70747200 
 4609              	.LASF61:
 4610 03af 725F6374 		.ascii	"r_ctx\000"
 4610      7800
 4611              	.LASF44:
 4612 03b5 54687265 		.ascii	"ThreadsQueue\000"
 4612      61647351 
 4612      75657565 
 4612      00
 4613              	.LASF79:
 4614 03c2 63685F73 		.ascii	"ch_size\000"
 4614      697A6500 
 4615              	.LASF110:
 4616 03ca 74696D65 		.ascii	"time\000"
 4616      00
 4617              	.LASF64:
 4618 03cf 725F6375 		.ascii	"r_current\000"
 4618      7272656E 
 4618      7400
 4619              	.LASF63:
 4620 03d9 725F6F6C 		.ascii	"r_older\000"
 4620      64657200 
 4621              	.LASF21:
 4622 03e1 74726566 		.ascii	"trefs_t\000"
ARM GAS  /var/folders/l5/0x54b2c10074c8bt31ycjvl80000gp/T//ccLft2iL.s 			page 85


 4622      735F7400 
 4623              	.LASF81:
 4624 03e9 63685F70 		.ascii	"ch_ptrsize\000"
 4624      74727369 
 4624      7A6500
 4625              	.LASF106:
 4626 03f4 716E6F74 		.ascii	"qnotify_t\000"
 4626      6966795F 
 4626      7400
 4627              	.LASF28:
 4628 03fe 705F7072 		.ascii	"p_prev\000"
 4628      657600
 4629              	.LASF22:
 4630 0405 74707269 		.ascii	"tprio_t\000"
 4630      6F5F7400 
 4631              	.LASF103:
 4632 040d 715F7264 		.ascii	"q_rdptr\000"
 4632      70747200 
 4633              	.LASF16:
 4634 0415 696E7433 		.ascii	"int32_t\000"
 4634      325F7400 
 4635              	.LASF4:
 4636 041d 756E7369 		.ascii	"unsigned char\000"
 4636      676E6564 
 4636      20636861 
 4636      7200
 4637              	.LASF42:
 4638 042b 705F6D74 		.ascii	"p_mtxlist\000"
 4638      786C6973 
 4638      7400
 4639              	.LASF5:
 4640 0435 73686F72 		.ascii	"short int\000"
 4640      7420696E 
 4640      7400
 4641              	.LASF34:
 4642 043f 705F7374 		.ascii	"p_state\000"
 4642      61746500 
 4643              	.LASF94:
 4644 0447 63665F6F 		.ascii	"cf_off_time\000"
 4644      66665F74 
 4644      696D6500 
 4645              	.LASF60:
 4646 0453 725F7072 		.ascii	"r_prio\000"
 4646      696F00
 4647              	.LASF75:
 4648 045a 65776D61 		.ascii	"ewmask\000"
 4648      736B00
 4649              	.LASF27:
 4650 0461 705F6E65 		.ascii	"p_next\000"
 4650      787400
 4651              	.LASF19:
 4652 0468 746D6F64 		.ascii	"tmode_t\000"
 4652      655F7400 
 4653              	.LASF93:
 4654 0470 63665F6F 		.ascii	"cf_off_preempt\000"
 4654      66665F70 
 4654      7265656D 
ARM GAS  /var/folders/l5/0x54b2c10074c8bt31ycjvl80000gp/T//ccLft2iL.s 			page 86


 4654      707400
 4655              	.LASF35:
 4656 047f 705F666C 		.ascii	"p_flags\000"
 4656      61677300 
 4657              	.LASF26:
 4658 0487 54687265 		.ascii	"Thread\000"
 4658      616400
 4659              	.LASF86:
 4660 048e 63665F6F 		.ascii	"cf_off_newer\000"
 4660      66665F6E 
 4660      65776572 
 4660      00
 4661              	.LASF41:
 4662 049b 705F6570 		.ascii	"p_epending\000"
 4662      656E6469 
 4662      6E6700
 4663              	.LASF17:
 4664 04a6 75696E74 		.ascii	"uint32_t\000"
 4664      33325F74 
 4664      00
 4665              	.LASF84:
 4666 04af 63665F6F 		.ascii	"cf_off_prio\000"
 4666      66665F70 
 4666      72696F00 
 4667              	.LASF59:
 4668 04bb 725F7175 		.ascii	"r_queue\000"
 4668      65756500 
 4669              	.LASF51:
 4670 04c3 56697274 		.ascii	"VirtualTimer\000"
 4670      75616C54 
 4670      696D6572 
 4670      00
 4671              	.LASF76:
 4672 04d0 63686172 		.ascii	"char\000"
 4672      00
 4673              	.LASF131:
 4674 04d5 6669666F 		.ascii	"fifo_remove\000"
 4674      5F72656D 
 4674      6F766500 
 4675              	.LASF6:
 4676 04e1 5F5F7569 		.ascii	"__uint16_t\000"
 4676      6E743136 
 4676      5F7400
 4677              	.LASF125:
 4678 04ec 63685363 		.ascii	"chSchReadyI\000"
 4678      68526561 
 4678      64794900 
 4679              	.LASF71:
 4680 04f8 6D5F6E65 		.ascii	"m_next\000"
 4680      787400
 4681              	.LASF25:
 4682 04ff 73797374 		.ascii	"systime_t\000"
 4682      696D655F 
 4682      7400
 4683              	.LASF43:
 4684 0509 705F7265 		.ascii	"p_realprio\000"
 4684      616C7072 
ARM GAS  /var/folders/l5/0x54b2c10074c8bt31ycjvl80000gp/T//ccLft2iL.s 			page 87


 4684      696F00
 4685              	.LASF8:
 4686 0514 5F5F696E 		.ascii	"__int32_t\000"
 4686      7433325F 
 4686      7400
 4687              	.LASF124:
 4688 051e 696E6679 		.ascii	"infy\000"
 4688      00
 4689              	.LASF114:
 4690 0523 63684F51 		.ascii	"chOQResetI\000"
 4690      52657365 
 4690      744900
 4691              	.LASF37:
 4692 052e 705F7469 		.ascii	"p_time\000"
 4692      6D6500
 4693              	.LASF48:
 4694 0535 696E7463 		.ascii	"intctx\000"
 4694      747800
 4695              	.LASF39:
 4696 053c 705F6D73 		.ascii	"p_msgqueue\000"
 4696      67717565 
 4696      756500
 4697              	.LASF56:
 4698 0547 76745F70 		.ascii	"vt_par\000"
 4698      617200
 4699              	.LASF85:
 4700 054e 63665F6F 		.ascii	"cf_off_ctx\000"
 4700      66665F63 
 4700      747800
 4701              	.LASF36:
 4702 0559 705F7265 		.ascii	"p_refs\000"
 4702      667300
 4703              	.LASF65:
 4704 0560 52656164 		.ascii	"ReadyList\000"
 4704      794C6973 
 4704      7400
 4705              	.LASF104:
 4706 056a 715F6E6F 		.ascii	"q_notify\000"
 4706      74696679 
 4706      00
 4707              	.LASF67:
 4708 0573 726C6973 		.ascii	"rlist\000"
 4708      7400
 4709              	.LASF14:
 4710 0579 75696E74 		.ascii	"uint8_t\000"
 4710      385F7400 
 4711              	.LASF74:
 4712 0581 77746F62 		.ascii	"wtobjp\000"
 4712      6A7000
 4713              	.LASF33:
 4714 0588 705F6E61 		.ascii	"p_name\000"
 4714      6D6500
 4715              	.LASF57:
 4716 058f 76745F73 		.ascii	"vt_systime\000"
 4716      79737469 
 4716      6D6500
 4717              	.LASF126:
ARM GAS  /var/folders/l5/0x54b2c10074c8bt31ycjvl80000gp/T//ccLft2iL.s 			page 88


 4718 059a 63685363 		.ascii	"chSchGoSleepTimeoutS\000"
 4718      68476F53 
 4718      6C656570 
 4718      54696D65 
 4718      6F757453 
 4719              	.LASF80:
 4720 05af 63685F76 		.ascii	"ch_version\000"
 4720      65727369 
 4720      6F6E00
 4721              	.LASF129:
 4722 05ba 2F557365 		.ascii	"/Users/fernandoguirado/eclipse-workspace/ChibiOS-RP"
 4722      72732F66 
 4722      65726E61 
 4722      6E646F67 
 4722      75697261 
 4723 05ed 692D636F 		.ascii	"i-copia/demos/timers\000"
 4723      7069612F 
 4723      64656D6F 
 4723      732F7469 
 4723      6D657273 
 4724              	.LASF58:
 4725 0602 56544C69 		.ascii	"VTList\000"
 4725      737400
 4726              	.LASF105:
 4727 0609 715F6C69 		.ascii	"q_link\000"
 4727      6E6B00
 4728              	.LASF70:
 4729 0610 6D5F6F77 		.ascii	"m_owner\000"
 4729      6E657200 
 4730              	.LASF30:
 4731 0618 705F6374 		.ascii	"p_ctx\000"
 4731      7800
 4732              	.LASF38:
 4733 061e 705F7761 		.ascii	"p_waiting\000"
 4733      6974696E 
 4733      6700
 4734              	.LASF120:
 4735 0628 63684951 		.ascii	"chIQGetTimeout\000"
 4735      47657454 
 4735      696D656F 
 4735      757400
 4736              		.ident	"GCC: (GNU Tools for Arm Embedded Processors 8-2019-q3-update) 8.3.1 20190703 (release) [gc
ARM GAS  /var/folders/l5/0x54b2c10074c8bt31ycjvl80000gp/T//ccLft2iL.s 			page 89


DEFINED SYMBOLS
                            *ABS*:0000000000000000 chqueues.c
/var/folders/l5/0x54b2c10074c8bt31ycjvl80000gp/T//ccLft2iL.s:16     .text.qwait:0000000000000000 $a
/var/folders/l5/0x54b2c10074c8bt31ycjvl80000gp/T//ccLft2iL.s:22     .text.qwait:0000000000000000 qwait
/var/folders/l5/0x54b2c10074c8bt31ycjvl80000gp/T//ccLft2iL.s:85     .text.qwait:0000000000000038 $d
/var/folders/l5/0x54b2c10074c8bt31ycjvl80000gp/T//ccLft2iL.s:90     .text.chIQInit:0000000000000000 $a
/var/folders/l5/0x54b2c10074c8bt31ycjvl80000gp/T//ccLft2iL.s:96     .text.chIQInit:0000000000000000 chIQInit
/var/folders/l5/0x54b2c10074c8bt31ycjvl80000gp/T//ccLft2iL.s:144    .text.chIQResetI:0000000000000000 $a
/var/folders/l5/0x54b2c10074c8bt31ycjvl80000gp/T//ccLft2iL.s:150    .text.chIQResetI:0000000000000000 chIQResetI
/var/folders/l5/0x54b2c10074c8bt31ycjvl80000gp/T//ccLft2iL.s:229    .text.chIQPutI:0000000000000000 $a
/var/folders/l5/0x54b2c10074c8bt31ycjvl80000gp/T//ccLft2iL.s:235    .text.chIQPutI:0000000000000000 chIQPutI
/var/folders/l5/0x54b2c10074c8bt31ycjvl80000gp/T//ccLft2iL.s:346    .text.chIQGetTimeout:0000000000000000 $a
/var/folders/l5/0x54b2c10074c8bt31ycjvl80000gp/T//ccLft2iL.s:352    .text.chIQGetTimeout:0000000000000000 chIQGetTimeout
/var/folders/l5/0x54b2c10074c8bt31ycjvl80000gp/T//ccLft2iL.s:455    .text.chIQReadTimeout:0000000000000000 $a
/var/folders/l5/0x54b2c10074c8bt31ycjvl80000gp/T//ccLft2iL.s:461    .text.chIQReadTimeout:0000000000000000 chIQReadTimeout
/var/folders/l5/0x54b2c10074c8bt31ycjvl80000gp/T//ccLft2iL.s:604    .text.chOQInit:0000000000000000 $a
/var/folders/l5/0x54b2c10074c8bt31ycjvl80000gp/T//ccLft2iL.s:610    .text.chOQInit:0000000000000000 chOQInit
/var/folders/l5/0x54b2c10074c8bt31ycjvl80000gp/T//ccLft2iL.s:655    .text.chOQResetI:0000000000000000 $a
/var/folders/l5/0x54b2c10074c8bt31ycjvl80000gp/T//ccLft2iL.s:661    .text.chOQResetI:0000000000000000 chOQResetI
/var/folders/l5/0x54b2c10074c8bt31ycjvl80000gp/T//ccLft2iL.s:742    .text.chOQPutTimeout:0000000000000000 $a
/var/folders/l5/0x54b2c10074c8bt31ycjvl80000gp/T//ccLft2iL.s:748    .text.chOQPutTimeout:0000000000000000 chOQPutTimeout
/var/folders/l5/0x54b2c10074c8bt31ycjvl80000gp/T//ccLft2iL.s:868    .text.chOQGetI:0000000000000000 $a
/var/folders/l5/0x54b2c10074c8bt31ycjvl80000gp/T//ccLft2iL.s:874    .text.chOQGetI:0000000000000000 chOQGetI
/var/folders/l5/0x54b2c10074c8bt31ycjvl80000gp/T//ccLft2iL.s:983    .text.chOQWriteTimeout:0000000000000000 $a
/var/folders/l5/0x54b2c10074c8bt31ycjvl80000gp/T//ccLft2iL.s:989    .text.chOQWriteTimeout:0000000000000000 chOQWriteTimeout

UNDEFINED SYMBOLS
chSchGoSleepTimeoutS
rlist
chSchReadyI
