ARM GAS  /var/folders/l5/0x54b2c10074c8bt31ycjvl80000gp/T//ccLft2iL.s 			page 1


   1              		.cpu arm1176jz-s
   2              		.eabi_attribute 20, 1
   3              		.eabi_attribute 21, 1
   4              		.eabi_attribute 23, 3
   5              		.eabi_attribute 24, 1
   6              		.eabi_attribute 25, 1
   7              		.eabi_attribute 26, 1
   8              		.eabi_attribute 30, 2
   9              		.eabi_attribute 34, 1
  10              		.eabi_attribute 18, 4
  11              		.file	"chqueues.c"
  12              		.text
  13              	.Ltext0:
  14              		.cfi_sections	.debug_frame
  15              		.section	.text.qwait,"ax",%progbits
  16              		.align	2
  17              		.arch armv6kz
  18              		.syntax unified
  19              		.arm
  20              		.fpu softvfp
  21              		.type	qwait, %function
  22              	qwait:
  23              	.LVL0:
  24              	.LFB7:
  25              		.file 1 "../../os/kernel/src/chqueues.c"
  26              		.loc 1 63 54 view -0
  27              		.cfi_startproc
  28              		@ args = 0, pretend = 0, frame = 0
  29              		@ frame_needed = 0, uses_anonymous_args = 0
  30              		@ link register save eliminated.
  31              		.loc 1 65 3 view .LVU1
  32              		.loc 1 65 6 is_stmt 0 view .LVU2
  33 0000 000051E3 		cmp	r1, #0
  34              		.loc 1 63 54 view .LVU3
  35 0004 0020A0E1 		mov	r2, r0
  36              		.loc 1 65 6 view .LVU4
  37 0008 0800000A 		beq	.L2
  38              		.loc 1 67 3 is_stmt 1 view .LVU5
  39 000c 24309FE5 		ldr	r3, .L4
  40              	.LBB12:
  41              	.LBB13:
  42              		.file 2 "../../os/kernel/include/chinline.h"
  43              		.loc 2 48 19 is_stmt 0 view .LVU6
  44 0010 04C090E5 		ldr	ip, [r0, #4]
  45              	.LBE13:
  46              	.LBE12:
  47              		.loc 1 67 3 view .LVU7
  48 0014 183093E5 		ldr	r3, [r3, #24]
  49              		.loc 1 69 10 view .LVU8
  50 0018 0D00A0E3 		mov	r0, #13
  51              	.LVL1:
  52              		.loc 1 67 21 view .LVU9
  53 001c 242083E5 		str	r2, [r3, #36]
  54              		.loc 1 68 3 is_stmt 1 view .LVU10
  55              	.LVL2:
  56              	.LBB15:
  57              	.LBI12:
ARM GAS  /var/folders/l5/0x54b2c10074c8bt31ycjvl80000gp/T//ccLft2iL.s 			page 2


  58              		.loc 2 45 20 view .LVU11
  59              	.LBB14:
  60              		.loc 2 47 3 view .LVU12
  61              		.loc 2 48 14 is_stmt 0 view .LVU13
  62 0020 041083E8 		stm	r3, {r2, ip}
  63              		.loc 2 49 3 is_stmt 1 view .LVU14
  64              		.loc 2 49 36 is_stmt 0 view .LVU15
  65 0024 043082E5 		str	r3, [r2, #4]
  66              		.loc 2 49 22 view .LVU16
  67 0028 00308CE5 		str	r3, [ip]
  68              	.LVL3:
  69              		.loc 2 49 22 view .LVU17
  70              	.LBE14:
  71              	.LBE15:
  72              		.loc 1 69 3 is_stmt 1 view .LVU18
  73              		.loc 1 69 10 is_stmt 0 view .LVU19
  74 002c FEFFFFEA 		b	chSchGoSleepTimeoutS
  75              	.LVL4:
  76              	.L2:
  77              		.loc 1 70 1 view .LVU20
  78 0030 0000E0E3 		mvn	r0, #0
  79              	.LVL5:
  80              		.loc 1 70 1 view .LVU21
  81 0034 1EFF2FE1 		bx	lr
  82              	.L5:
  83              		.align	2
  84              	.L4:
  85 0038 00000000 		.word	rlist
  86              		.cfi_endproc
  87              	.LFE7:
  88              		.size	qwait, .-qwait
  89              		.section	.text.chIQInit,"ax",%progbits
  90              		.align	2
  91              		.global	chIQInit
  92              		.syntax unified
  93              		.arm
  94              		.fpu softvfp
  95              		.type	chIQInit, %function
  96              	chIQInit:
  97              	.LVL6:
  98              	.LFB8:
  99              		.loc 1 89 27 is_stmt 1 view -0
 100              		.cfi_startproc
 101              		@ args = 4, pretend = 0, frame = 0
 102              		@ frame_needed = 0, uses_anonymous_args = 0
 103              		.loc 1 91 3 view .LVU23
 104              		.loc 1 89 27 is_stmt 0 view .LVU24
 105 0000 04E02DE5 		str	lr, [sp, #-4]!
 106              		.cfi_def_cfa_offset 4
 107              		.cfi_offset 14, -4
 108              		.loc 1 92 18 view .LVU25
 109 0004 00E0A0E3 		mov	lr, #0
 110              		.loc 1 89 27 view .LVU26
 111 0008 04C09DE5 		ldr	ip, [sp, #4]
 112              		.loc 1 94 19 view .LVU27
 113 000c 022081E0 		add	r2, r1, r2
 114              	.LVL7:
ARM GAS  /var/folders/l5/0x54b2c10074c8bt31ycjvl80000gp/T//ccLft2iL.s 			page 3


 115              		.loc 1 94 14 view .LVU28
 116 0010 102080E5 		str	r2, [r0, #16]
 117              		.loc 1 91 3 view .LVU29
 118 0014 040080E5 		str	r0, [r0, #4]
 119 0018 000080E5 		str	r0, [r0]
 120              		.loc 1 91 30 is_stmt 1 view .LVU30
 121              		.loc 1 92 3 view .LVU31
 122              		.loc 1 93 47 is_stmt 0 view .LVU32
 123 001c 141080E5 		str	r1, [r0, #20]
 124              		.loc 1 93 32 view .LVU33
 125 0020 181080E5 		str	r1, [r0, #24]
 126              		.loc 1 93 17 view .LVU34
 127 0024 0C1080E5 		str	r1, [r0, #12]
 128              		.loc 1 95 17 view .LVU35
 129 0028 1C3080E5 		str	r3, [r0, #28]
 130              		.loc 1 92 18 view .LVU36
 131 002c 08E080E5 		str	lr, [r0, #8]
 132              		.loc 1 93 3 is_stmt 1 view .LVU37
 133              		.loc 1 94 3 view .LVU38
 134              		.loc 1 95 3 view .LVU39
 135              		.loc 1 96 3 view .LVU40
 136              		.loc 1 96 15 is_stmt 0 view .LVU41
 137 0030 20C080E5 		str	ip, [r0, #32]
 138              		.loc 1 97 1 view .LVU42
 139 0034 04F09DE4 		ldr	pc, [sp], #4
 140              		.cfi_endproc
 141              	.LFE8:
 142              		.size	chIQInit, .-chIQInit
 143              		.section	.text.chIQResetI,"ax",%progbits
 144              		.align	2
 145              		.global	chIQResetI
 146              		.syntax unified
 147              		.arm
 148              		.fpu softvfp
 149              		.type	chIQResetI, %function
 150              	chIQResetI:
 151              	.LVL8:
 152              	.LFB9:
 153              		.loc 1 110 34 is_stmt 1 view -0
 154              		.cfi_startproc
 155              		@ args = 0, pretend = 0, frame = 0
 156              		@ frame_needed = 0, uses_anonymous_args = 0
 157              		.loc 1 112 3 view .LVU44
 158              		.loc 1 112 21 view .LVU45
 159              		.loc 1 114 3 view .LVU46
 160              		.loc 1 115 18 is_stmt 0 view .LVU47
 161 0000 0010A0E3 		mov	r1, #0
 162              		.loc 1 116 10 view .LVU48
 163 0004 003090E5 		ldr	r3, [r0]
 164              		.loc 1 114 36 view .LVU49
 165 0008 0C2090E5 		ldr	r2, [r0, #12]
 166              		.loc 1 116 9 view .LVU50
 167 000c 030050E1 		cmp	r0, r3
 168              		.loc 1 115 18 view .LVU51
 169 0010 081080E5 		str	r1, [r0, #8]
 170              		.loc 1 114 31 view .LVU52
 171 0014 142080E5 		str	r2, [r0, #20]
ARM GAS  /var/folders/l5/0x54b2c10074c8bt31ycjvl80000gp/T//ccLft2iL.s 			page 4


 172              		.loc 1 114 16 view .LVU53
 173 0018 182080E5 		str	r2, [r0, #24]
 174              		.loc 1 115 3 is_stmt 1 view .LVU54
 175              		.loc 1 116 3 view .LVU55
 176              		.loc 1 116 9 is_stmt 0 view .LVU56
 177 001c 1EFF2F01 		bxeq	lr
 178              		.loc 1 110 34 view .LVU57
 179 0020 70402DE9 		push	{r4, r5, r6, lr}
 180              		.cfi_def_cfa_offset 16
 181              		.cfi_offset 4, -16
 182              		.cfi_offset 5, -12
 183              		.cfi_offset 6, -8
 184              		.cfi_offset 14, -4
 185 0024 0040A0E1 		mov	r4, r0
 186              		.loc 1 117 59 view .LVU58
 187 0028 0150E0E3 		mvn	r5, #1
 188              	.LVL9:
 189              	.L10:
 190              		.loc 1 117 5 is_stmt 1 view .LVU59
 191              	.LBB16:
 192              	.LBI16:
 193              		.loc 2 52 23 view .LVU60
 194              	.LBB17:
 195              		.loc 2 53 3 view .LVU61
 196              		.loc 2 55 3 view .LVU62
 197              		.loc 2 55 20 is_stmt 0 view .LVU63
 198 002c 002093E5 		ldr	r2, [r3]
 199              	.LBE17:
 200              	.LBE16:
 201              		.loc 1 117 5 view .LVU64
 202 0030 0300A0E1 		mov	r0, r3
 203              	.LBB19:
 204              	.LBB18:
 205              		.loc 2 55 16 view .LVU65
 206 0034 002084E5 		str	r2, [r4]
 207              		.loc 2 55 38 view .LVU66
 208 0038 044082E5 		str	r4, [r2, #4]
 209              		.loc 2 56 3 is_stmt 1 view .LVU67
 210              	.LVL10:
 211              		.loc 2 56 3 is_stmt 0 view .LVU68
 212              	.LBE18:
 213              	.LBE19:
 214              		.loc 1 117 5 view .LVU69
 215 003c FEFFFFEB 		bl	chSchReadyI
 216              	.LVL11:
 217              		.loc 1 116 10 view .LVU70
 218 0040 003094E5 		ldr	r3, [r4]
 219              		.loc 1 117 59 view .LVU71
 220 0044 245080E5 		str	r5, [r0, #36]
 221              		.loc 1 116 9 view .LVU72
 222 0048 040053E1 		cmp	r3, r4
 223 004c F6FFFF1A 		bne	.L10
 224 0050 7080BDE8 		pop	{r4, r5, r6, pc}
 225              		.cfi_endproc
 226              	.LFE9:
 227              		.size	chIQResetI, .-chIQResetI
 228              		.section	.text.chIQPutI,"ax",%progbits
ARM GAS  /var/folders/l5/0x54b2c10074c8bt31ycjvl80000gp/T//ccLft2iL.s 			page 5


 229              		.align	2
 230              		.global	chIQPutI
 231              		.syntax unified
 232              		.arm
 233              		.fpu softvfp
 234              		.type	chIQPutI, %function
 235              	chIQPutI:
 236              	.LVL12:
 237              	.LFB10:
 238              		.loc 1 133 44 is_stmt 1 view -0
 239              		.cfi_startproc
 240              		@ args = 0, pretend = 0, frame = 0
 241              		@ frame_needed = 0, uses_anonymous_args = 0
 242              		.loc 1 135 3 view .LVU74
 243              		.loc 1 135 21 view .LVU75
 244              		.loc 1 137 3 view .LVU76
 245              		.loc 1 137 6 is_stmt 0 view .LVU77
 246 0000 D421C0E1 		ldrd	r2, [r0, #20]
 247 0004 030052E1 		cmp	r2, r3
 248 0008 083090E5 		ldr	r3, [r0, #8]
 249 000c 1900000A 		beq	.L26
 250              	.L17:
 251              		.loc 1 140 3 is_stmt 1 view .LVU78
 252              		.loc 1 140 17 is_stmt 0 view .LVU79
 253 0010 013083E2 		add	r3, r3, #1
 254              		.loc 1 141 16 view .LVU80
 255 0014 01C082E2 		add	ip, r2, #1
 256 0018 14C080E5 		str	ip, [r0, #20]
 257              		.loc 1 140 17 view .LVU81
 258 001c 083080E5 		str	r3, [r0, #8]
 259              		.loc 1 141 3 is_stmt 1 view .LVU82
 260              		.loc 1 141 19 is_stmt 0 view .LVU83
 261 0020 0010C2E5 		strb	r1, [r2]
 262              		.loc 1 142 3 is_stmt 1 view .LVU84
 263              		.loc 1 142 6 is_stmt 0 view .LVU85
 264 0024 142090E5 		ldr	r2, [r0, #20]
 265 0028 103090E5 		ldr	r3, [r0, #16]
 266 002c 030052E1 		cmp	r2, r3
 267              		.loc 1 143 5 is_stmt 1 view .LVU86
 268              		.loc 1 143 18 is_stmt 0 view .LVU87
 269 0030 0C309025 		ldrcs	r3, [r0, #12]
 270              		.loc 1 145 7 view .LVU88
 271 0034 002090E5 		ldr	r2, [r0]
 272              		.loc 1 143 18 view .LVU89
 273 0038 14308025 		strcs	r3, [r0, #20]
 274              		.loc 1 145 3 is_stmt 1 view .LVU90
 275              		.loc 1 145 6 is_stmt 0 view .LVU91
 276 003c 000052E1 		cmp	r2, r0
 277 0040 0A00000A 		beq	.L21
 278 0044 0030A0E1 		mov	r3, r0
 279              		.loc 1 146 5 is_stmt 1 view .LVU92
 280              	.LVL13:
 281              	.LBB20:
 282              	.LBI20:
 283              		.loc 2 52 23 view .LVU93
 284              	.LBB21:
 285              		.loc 2 53 3 view .LVU94
ARM GAS  /var/folders/l5/0x54b2c10074c8bt31ycjvl80000gp/T//ccLft2iL.s 			page 6


 286              		.loc 2 55 3 view .LVU95
 287              		.loc 2 55 20 is_stmt 0 view .LVU96
 288 0048 001092E5 		ldr	r1, [r2]
 289              	.LVL14:
 290              		.loc 2 55 20 view .LVU97
 291              	.LBE21:
 292              	.LBE20:
 293              		.loc 1 133 44 view .LVU98
 294 004c 10402DE9 		push	{r4, lr}
 295              		.cfi_def_cfa_offset 8
 296              		.cfi_offset 4, -8
 297              		.cfi_offset 14, -4
 298              		.loc 1 146 5 view .LVU99
 299 0050 0200A0E1 		mov	r0, r2
 300              	.LVL15:
 301              	.LBB23:
 302              	.LBB22:
 303              		.loc 2 55 16 view .LVU100
 304 0054 001083E5 		str	r1, [r3]
 305              		.loc 2 55 38 view .LVU101
 306 0058 043081E5 		str	r3, [r1, #4]
 307              		.loc 2 56 3 is_stmt 1 view .LVU102
 308              	.LVL16:
 309              		.loc 2 56 3 is_stmt 0 view .LVU103
 310              	.LBE22:
 311              	.LBE23:
 312              		.loc 1 146 5 view .LVU104
 313 005c FEFFFFEB 		bl	chSchReadyI
 314              	.LVL17:
 315              		.loc 1 146 59 view .LVU105
 316 0060 0030A0E3 		mov	r3, #0
 317 0064 243080E5 		str	r3, [r0, #36]
 318              		.loc 1 148 10 view .LVU106
 319 0068 0300A0E1 		mov	r0, r3
 320              		.loc 1 149 1 view .LVU107
 321 006c 1080BDE8 		pop	{r4, pc}
 322              	.LVL18:
 323              	.L21:
 324              		.cfi_def_cfa_offset 0
 325              		.cfi_restore 4
 326              		.cfi_restore 14
 327              		.loc 1 148 10 view .LVU108
 328 0070 0000A0E3 		mov	r0, #0
 329              	.LVL19:
 330              		.loc 1 149 1 view .LVU109
 331 0074 1EFF2FE1 		bx	lr
 332              	.LVL20:
 333              	.L26:
 334              		.loc 1 137 7 discriminator 1 view .LVU110
 335 0078 000053E3 		cmp	r3, #0
 336 007c E3FFFF0A 		beq	.L17
 337              		.loc 1 138 12 view .LVU111
 338 0080 0300E0E3 		mvn	r0, #3
 339              	.LVL21:
 340              		.loc 1 138 12 view .LVU112
 341 0084 1EFF2FE1 		bx	lr
 342              		.cfi_endproc
ARM GAS  /var/folders/l5/0x54b2c10074c8bt31ycjvl80000gp/T//ccLft2iL.s 			page 7


 343              	.LFE10:
 344              		.size	chIQPutI, .-chIQPutI
 345              		.section	.text.chIQGetTimeout,"ax",%progbits
 346              		.align	2
 347              		.global	chIQGetTimeout
 348              		.syntax unified
 349              		.arm
 350              		.fpu softvfp
 351              		.type	chIQGetTimeout, %function
 352              	chIQGetTimeout:
 353              	.LVL22:
 354              	.LFB11:
 355              		.loc 1 171 55 is_stmt 1 view -0
 356              		.cfi_startproc
 357              		@ args = 0, pretend = 0, frame = 0
 358              		@ frame_needed = 0, uses_anonymous_args = 0
 359              		.loc 1 172 3 view .LVU114
 360              		.loc 1 174 3 view .LVU115
 361              		.loc 1 171 55 is_stmt 0 view .LVU116
 362 0000 70402DE9 		push	{r4, r5, r6, lr}
 363              		.cfi_def_cfa_offset 16
 364              		.cfi_offset 4, -16
 365              		.cfi_offset 5, -12
 366              		.cfi_offset 6, -8
 367              		.cfi_offset 14, -4
 368              		.loc 1 171 55 view .LVU117
 369 0004 0150A0E1 		mov	r5, r1
 370 0008 0040A0E1 		mov	r4, r0
 371              		.loc 1 174 3 view .LVU118
 372              		.syntax divided
 373              	@ 174 "../../os/kernel/src/chqueues.c" 1
 374 000c 9FF021E3 		msr     CPSR_c, #0x9F
 375              	@ 0 "" 2
 376              		.loc 1 174 3 is_stmt 1 view .LVU119
 377              		.loc 1 174 14 view .LVU120
 378              		.loc 1 175 3 view .LVU121
 379              		.loc 1 175 10 is_stmt 0 view .LVU122
 380              		.arm
 381              		.syntax unified
 382 0010 1C3090E5 		ldr	r3, [r0, #28]
 383              		.loc 1 175 6 view .LVU123
 384 0014 000053E3 		cmp	r3, #0
 385 0018 0600000A 		beq	.L29
 386              		.loc 1 176 5 is_stmt 1 view .LVU124
 387 001c 33FF2FE1 		blx	r3
 388              	.LVL23:
 389              		.loc 1 176 5 is_stmt 0 view .LVU125
 390 0020 040000EA 		b	.L29
 391              	.L31:
 392              	.LBB24:
 393              		.loc 1 180 16 view .LVU126
 394 0024 0510A0E1 		mov	r1, r5
 395 0028 0400A0E1 		mov	r0, r4
 396 002c FEFFFFEB 		bl	qwait
 397              	.LVL24:
 398              		.loc 1 180 8 view .LVU127
 399 0030 000050E3 		cmp	r0, #0
ARM GAS  /var/folders/l5/0x54b2c10074c8bt31ycjvl80000gp/T//ccLft2iL.s 			page 8


 400              		.loc 1 180 8 view .LVU128
 401 0034 0C0000BA 		blt	.L32
 402              	.LVL25:
 403              	.L29:
 404              		.loc 1 179 5 is_stmt 1 view .LVU129
 405              		.loc 1 180 5 view .LVU130
 406              	.LBE24:
 407              		.loc 1 178 10 is_stmt 0 view .LVU131
 408 0038 083094E5 		ldr	r3, [r4, #8]
 409              		.loc 1 178 9 view .LVU132
 410 003c 000053E3 		cmp	r3, #0
 411 0040 F7FFFF0A 		beq	.L31
 412              		.loc 1 186 3 is_stmt 1 view .LVU133
 413              		.loc 1 187 11 is_stmt 0 view .LVU134
 414 0044 182094E5 		ldr	r2, [r4, #24]
 415              		.loc 1 188 6 view .LVU135
 416 0048 100094E5 		ldr	r0, [r4, #16]
 417              		.loc 1 187 20 view .LVU136
 418 004c 011082E2 		add	r1, r2, #1
 419              		.loc 1 186 17 view .LVU137
 420 0050 013043E2 		sub	r3, r3, #1
 421              		.loc 1 188 6 view .LVU138
 422 0054 000051E1 		cmp	r1, r0
 423              		.loc 1 186 17 view .LVU139
 424 0058 083084E5 		str	r3, [r4, #8]
 425              		.loc 1 187 3 is_stmt 1 view .LVU140
 426              		.loc 1 189 18 is_stmt 0 view .LVU141
 427 005c 0C309425 		ldrcs	r3, [r4, #12]
 428              		.loc 1 187 20 view .LVU142
 429 0060 181084E5 		str	r1, [r4, #24]
 430              		.loc 1 187 5 view .LVU143
 431 0064 0000D2E5 		ldrb	r0, [r2]	@ zero_extendqisi2
 432              	.LVL26:
 433              		.loc 1 188 3 is_stmt 1 view .LVU144
 434              		.loc 1 189 5 view .LVU145
 435              		.loc 1 189 18 is_stmt 0 view .LVU146
 436 0068 18308425 		strcs	r3, [r4, #24]
 437              	.LVL27:
 438              	.L32:
 439              		.loc 1 191 3 is_stmt 1 view .LVU147
 440              		.loc 1 191 3 view .LVU148
 441              		.syntax divided
 442              	@ 191 "../../os/kernel/src/chqueues.c" 1
 443 006c 1FF021E3 		msr     CPSR_c, #0x1F
 444              	@ 0 "" 2
 445              		.loc 1 191 16 view .LVU149
 446              		.loc 1 192 3 view .LVU150
 447              		.loc 1 193 1 is_stmt 0 view .LVU151
 448              		.arm
 449              		.syntax unified
 450 0070 7080BDE8 		pop	{r4, r5, r6, pc}
 451              		.cfi_endproc
 452              	.LFE11:
 453              		.size	chIQGetTimeout, .-chIQGetTimeout
 454              		.section	.text.chIQReadTimeout,"ax",%progbits
 455              		.align	2
 456              		.global	chIQReadTimeout
ARM GAS  /var/folders/l5/0x54b2c10074c8bt31ycjvl80000gp/T//ccLft2iL.s 			page 9


 457              		.syntax unified
 458              		.arm
 459              		.fpu softvfp
 460              		.type	chIQReadTimeout, %function
 461              	chIQReadTimeout:
 462              	.LVL28:
 463              	.LFB12:
 464              		.loc 1 220 50 is_stmt 1 view -0
 465              		.cfi_startproc
 466              		@ args = 0, pretend = 0, frame = 0
 467              		@ frame_needed = 0, uses_anonymous_args = 0
 468              		.loc 1 221 3 view .LVU153
 469              		.loc 1 220 50 is_stmt 0 view .LVU154
 470 0000 F0472DE9 		push	{r4, r5, r6, r7, r8, r9, r10, lr}
 471              		.cfi_def_cfa_offset 32
 472              		.cfi_offset 4, -32
 473              		.cfi_offset 5, -28
 474              		.cfi_offset 6, -24
 475              		.cfi_offset 7, -20
 476              		.cfi_offset 8, -16
 477              		.cfi_offset 9, -12
 478              		.cfi_offset 10, -8
 479              		.cfi_offset 14, -4
 480              		.loc 1 220 50 view .LVU155
 481 0004 0040A0E1 		mov	r4, r0
 482 0008 0180A0E1 		mov	r8, r1
 483 000c 0290A0E1 		mov	r9, r2
 484 0010 0350A0E1 		mov	r5, r3
 485              		.loc 1 221 13 view .LVU156
 486 0014 1C7090E5 		ldr	r7, [r0, #28]
 487              	.LVL29:
 488              		.loc 1 222 3 is_stmt 1 view .LVU157
 489              		.loc 1 224 3 view .LVU158
 490              		.loc 1 224 39 view .LVU159
 491              		.loc 1 226 3 view .LVU160
 492              		.syntax divided
 493              	@ 226 "../../os/kernel/src/chqueues.c" 1
 494 0018 9FF021E3 		msr     CPSR_c, #0x9F
 495              	@ 0 "" 2
 496              		.loc 1 222 10 is_stmt 0 view .LVU161
 497              		.arm
 498              		.syntax unified
 499 001c 0060A0E3 		mov	r6, #0
 500              	.LVL30:
 501              	.L44:
 502              		.loc 1 226 3 is_stmt 1 discriminator 1 view .LVU162
 503              		.loc 1 226 14 discriminator 1 view .LVU163
 504              		.loc 1 227 3 discriminator 1 view .LVU164
 505              		.loc 1 228 5 discriminator 1 view .LVU165
 506              		.loc 1 228 8 is_stmt 0 discriminator 1 view .LVU166
 507 0020 000057E3 		cmp	r7, #0
 508 0024 0700000A 		beq	.L40
 509              		.loc 1 229 7 is_stmt 1 view .LVU167
 510 0028 0400A0E1 		mov	r0, r4
 511 002c 37FF2FE1 		blx	r7
 512              	.LVL31:
 513 0030 040000EA 		b	.L40
ARM GAS  /var/folders/l5/0x54b2c10074c8bt31ycjvl80000gp/T//ccLft2iL.s 			page 10


 514              	.L42:
 515              		.loc 1 232 11 is_stmt 0 view .LVU168
 516 0034 0510A0E1 		mov	r1, r5
 517 0038 0400A0E1 		mov	r0, r4
 518 003c FEFFFFEB 		bl	qwait
 519              	.LVL32:
 520              		.loc 1 232 10 view .LVU169
 521 0040 000050E3 		cmp	r0, #0
 522 0044 1400001A 		bne	.L51
 523              	.L40:
 524              		.loc 1 232 7 is_stmt 1 view .LVU170
 525              		.loc 1 231 12 is_stmt 0 view .LVU171
 526 0048 083094E5 		ldr	r3, [r4, #8]
 527              		.loc 1 231 11 view .LVU172
 528 004c 000053E3 		cmp	r3, #0
 529 0050 F7FFFF0A 		beq	.L42
 530              		.loc 1 238 5 is_stmt 1 view .LVU173
 531              		.loc 1 239 17 is_stmt 0 view .LVU174
 532 0054 182094E5 		ldr	r2, [r4, #24]
 533              		.loc 1 238 19 view .LVU175
 534 0058 013043E2 		sub	r3, r3, #1
 535              		.loc 1 239 26 view .LVU176
 536 005c 011082E2 		add	r1, r2, #1
 537 0060 181084E5 		str	r1, [r4, #24]
 538              		.loc 1 238 19 view .LVU177
 539 0064 083084E5 		str	r3, [r4, #8]
 540              		.loc 1 239 5 is_stmt 1 view .LVU178
 541              		.loc 1 239 13 is_stmt 0 view .LVU179
 542 0068 0030D2E5 		ldrb	r3, [r2]	@ zero_extendqisi2
 543              		.loc 1 239 11 view .LVU180
 544 006c 0130C8E4 		strb	r3, [r8], #1
 545              	.LVL33:
 546              		.loc 1 240 5 is_stmt 1 view .LVU181
 547              		.loc 1 240 8 is_stmt 0 view .LVU182
 548 0070 103094E5 		ldr	r3, [r4, #16]
 549 0074 182094E5 		ldr	r2, [r4, #24]
 550 0078 030052E1 		cmp	r2, r3
 551              		.loc 1 241 7 is_stmt 1 view .LVU183
 552              		.loc 1 241 20 is_stmt 0 view .LVU184
 553 007c 0C309425 		ldrcs	r3, [r4, #12]
 554 0080 18308425 		strcs	r3, [r4, #24]
 555              		.loc 1 243 5 is_stmt 1 view .LVU185
 556              		.loc 1 243 5 view .LVU186
 557              		.syntax divided
 558              	@ 243 "../../os/kernel/src/chqueues.c" 1
 559 0084 1FF021E3 		msr     CPSR_c, #0x1F
 560              	@ 0 "" 2
 561              		.loc 1 243 18 view .LVU187
 562              		.loc 1 244 5 view .LVU188
 563              		.loc 1 244 6 is_stmt 0 view .LVU189
 564              		.arm
 565              		.syntax unified
 566 0088 016086E2 		add	r6, r6, #1
 567              	.LVL34:
 568              		.loc 1 245 5 is_stmt 1 view .LVU190
 569              		.loc 1 245 8 is_stmt 0 view .LVU191
 570 008c 060059E1 		cmp	r9, r6
ARM GAS  /var/folders/l5/0x54b2c10074c8bt31ycjvl80000gp/T//ccLft2iL.s 			page 11


 571 0090 0200000A 		beq	.L38
 572              		.loc 1 248 5 is_stmt 1 view .LVU192
 573              		.syntax divided
 574              	@ 248 "../../os/kernel/src/chqueues.c" 1
 575 0094 9FF021E3 		msr     CPSR_c, #0x9F
 576              	@ 0 "" 2
 577              		.loc 1 248 5 view .LVU193
 578              		.loc 1 248 16 view .LVU194
 579              		.loc 1 228 8 is_stmt 0 view .LVU195
 580              		.arm
 581              		.syntax unified
 582 0098 E0FFFFEA 		b	.L44
 583              	.LVL35:
 584              	.L51:
 585              		.loc 1 233 9 is_stmt 1 view .LVU196
 586              		.loc 1 233 9 view .LVU197
 587              		.syntax divided
 588              	@ 233 "../../os/kernel/src/chqueues.c" 1
 589 009c 1FF021E3 		msr     CPSR_c, #0x1F
 590              	@ 0 "" 2
 591              		.loc 1 233 22 view .LVU198
 592              		.loc 1 234 9 view .LVU199
 593              	.LVL36:
 594              		.arm
 595              		.syntax unified
 596              	.L38:
 597              		.loc 1 250 1 is_stmt 0 view .LVU200
 598 00a0 0600A0E1 		mov	r0, r6
 599 00a4 F087BDE8 		pop	{r4, r5, r6, r7, r8, r9, r10, pc}
 600              		.cfi_endproc
 601              	.LFE12:
 602              		.size	chIQReadTimeout, .-chIQReadTimeout
 603              		.section	.text.chOQInit,"ax",%progbits
 604              		.align	2
 605              		.global	chOQInit
 606              		.syntax unified
 607              		.arm
 608              		.fpu softvfp
 609              		.type	chOQInit, %function
 610              	chOQInit:
 611              	.LVL37:
 612              	.LFB13:
 613              		.loc 1 269 27 is_stmt 1 view -0
 614              		.cfi_startproc
 615              		@ args = 4, pretend = 0, frame = 0
 616              		@ frame_needed = 0, uses_anonymous_args = 0
 617              		.loc 1 271 3 view .LVU202
 618              		.loc 1 269 27 is_stmt 0 view .LVU203
 619 0000 04E02DE5 		str	lr, [sp, #-4]!
 620              		.cfi_def_cfa_offset 4
 621              		.cfi_offset 14, -4
 622              		.loc 1 269 27 view .LVU204
 623 0004 04C09DE5 		ldr	ip, [sp, #4]
 624              		.loc 1 274 19 view .LVU205
 625 0008 02E081E0 		add	lr, r1, r2
 626              		.loc 1 271 3 view .LVU206
 627 000c 040080E5 		str	r0, [r0, #4]
ARM GAS  /var/folders/l5/0x54b2c10074c8bt31ycjvl80000gp/T//ccLft2iL.s 			page 12


 628 0010 000080E5 		str	r0, [r0]
 629              		.loc 1 271 30 is_stmt 1 view .LVU207
 630              		.loc 1 272 3 view .LVU208
 631              		.loc 1 272 18 is_stmt 0 view .LVU209
 632 0014 082080E5 		str	r2, [r0, #8]
 633              		.loc 1 273 3 is_stmt 1 view .LVU210
 634              		.loc 1 274 14 is_stmt 0 view .LVU211
 635 0018 10E080E5 		str	lr, [r0, #16]
 636              		.loc 1 273 47 view .LVU212
 637 001c 141080E5 		str	r1, [r0, #20]
 638              		.loc 1 273 32 view .LVU213
 639 0020 181080E5 		str	r1, [r0, #24]
 640              		.loc 1 273 17 view .LVU214
 641 0024 0C1080E5 		str	r1, [r0, #12]
 642              		.loc 1 274 3 is_stmt 1 view .LVU215
 643              		.loc 1 275 3 view .LVU216
 644              		.loc 1 275 17 is_stmt 0 view .LVU217
 645 0028 1C3080E5 		str	r3, [r0, #28]
 646              		.loc 1 276 3 is_stmt 1 view .LVU218
 647              		.loc 1 276 15 is_stmt 0 view .LVU219
 648 002c 20C080E5 		str	ip, [r0, #32]
 649              		.loc 1 277 1 view .LVU220
 650 0030 04F09DE4 		ldr	pc, [sp], #4
 651              		.cfi_endproc
 652              	.LFE13:
 653              		.size	chOQInit, .-chOQInit
 654              		.section	.text.chOQResetI,"ax",%progbits
 655              		.align	2
 656              		.global	chOQResetI
 657              		.syntax unified
 658              		.arm
 659              		.fpu softvfp
 660              		.type	chOQResetI, %function
 661              	chOQResetI:
 662              	.LVL38:
 663              	.LFB14:
 664              		.loc 1 290 35 is_stmt 1 view -0
 665              		.cfi_startproc
 666              		@ args = 0, pretend = 0, frame = 0
 667              		@ frame_needed = 0, uses_anonymous_args = 0
 668              		.loc 1 292 3 view .LVU222
 669              		.loc 1 292 21 view .LVU223
 670              		.loc 1 294 3 view .LVU224
 671              		.loc 1 294 36 is_stmt 0 view .LVU225
 672 0000 0C1090E5 		ldr	r1, [r0, #12]
 673              		.loc 1 295 20 view .LVU226
 674 0004 102090E5 		ldr	r2, [r0, #16]
 675              		.loc 1 296 10 view .LVU227
 676 0008 003090E5 		ldr	r3, [r0]
 677              		.loc 1 295 20 view .LVU228
 678 000c 012042E0 		sub	r2, r2, r1
 679              		.loc 1 296 9 view .LVU229
 680 0010 030050E1 		cmp	r0, r3
 681              		.loc 1 294 31 view .LVU230
 682 0014 141080E5 		str	r1, [r0, #20]
 683              		.loc 1 294 16 view .LVU231
 684 0018 181080E5 		str	r1, [r0, #24]
ARM GAS  /var/folders/l5/0x54b2c10074c8bt31ycjvl80000gp/T//ccLft2iL.s 			page 13


 685              		.loc 1 295 3 is_stmt 1 view .LVU232
 686              		.loc 1 295 18 is_stmt 0 view .LVU233
 687 001c 082080E5 		str	r2, [r0, #8]
 688              		.loc 1 296 3 is_stmt 1 view .LVU234
 689              		.loc 1 296 9 is_stmt 0 view .LVU235
 690 0020 1EFF2F01 		bxeq	lr
 691              		.loc 1 290 35 view .LVU236
 692 0024 70402DE9 		push	{r4, r5, r6, lr}
 693              		.cfi_def_cfa_offset 16
 694              		.cfi_offset 4, -16
 695              		.cfi_offset 5, -12
 696              		.cfi_offset 6, -8
 697              		.cfi_offset 14, -4
 698 0028 0040A0E1 		mov	r4, r0
 699              		.loc 1 297 59 view .LVU237
 700 002c 0150E0E3 		mvn	r5, #1
 701              	.LVL39:
 702              	.L56:
 703              		.loc 1 297 5 is_stmt 1 view .LVU238
 704              	.LBB25:
 705              	.LBI25:
 706              		.loc 2 52 23 view .LVU239
 707              	.LBB26:
 708              		.loc 2 53 3 view .LVU240
 709              		.loc 2 55 3 view .LVU241
 710              		.loc 2 55 20 is_stmt 0 view .LVU242
 711 0030 002093E5 		ldr	r2, [r3]
 712              	.LBE26:
 713              	.LBE25:
 714              		.loc 1 297 5 view .LVU243
 715 0034 0300A0E1 		mov	r0, r3
 716              	.LBB28:
 717              	.LBB27:
 718              		.loc 2 55 16 view .LVU244
 719 0038 002084E5 		str	r2, [r4]
 720              		.loc 2 55 38 view .LVU245
 721 003c 044082E5 		str	r4, [r2, #4]
 722              		.loc 2 56 3 is_stmt 1 view .LVU246
 723              	.LVL40:
 724              		.loc 2 56 3 is_stmt 0 view .LVU247
 725              	.LBE27:
 726              	.LBE28:
 727              		.loc 1 297 5 view .LVU248
 728 0040 FEFFFFEB 		bl	chSchReadyI
 729              	.LVL41:
 730              		.loc 1 296 10 view .LVU249
 731 0044 003094E5 		ldr	r3, [r4]
 732              		.loc 1 297 59 view .LVU250
 733 0048 245080E5 		str	r5, [r0, #36]
 734              		.loc 1 296 9 view .LVU251
 735 004c 040053E1 		cmp	r3, r4
 736 0050 F6FFFF1A 		bne	.L56
 737 0054 7080BDE8 		pop	{r4, r5, r6, pc}
 738              		.cfi_endproc
 739              	.LFE14:
 740              		.size	chOQResetI, .-chOQResetI
 741              		.section	.text.chOQPutTimeout,"ax",%progbits
ARM GAS  /var/folders/l5/0x54b2c10074c8bt31ycjvl80000gp/T//ccLft2iL.s 			page 14


 742              		.align	2
 743              		.global	chOQPutTimeout
 744              		.syntax unified
 745              		.arm
 746              		.fpu softvfp
 747              		.type	chOQPutTimeout, %function
 748              	chOQPutTimeout:
 749              	.LVL42:
 750              	.LFB15:
 751              		.loc 1 322 67 is_stmt 1 view -0
 752              		.cfi_startproc
 753              		@ args = 0, pretend = 0, frame = 0
 754              		@ frame_needed = 0, uses_anonymous_args = 0
 755              		.loc 1 324 3 view .LVU253
 756              		.loc 1 322 67 is_stmt 0 view .LVU254
 757 0000 70402DE9 		push	{r4, r5, r6, lr}
 758              		.cfi_def_cfa_offset 16
 759              		.cfi_offset 4, -16
 760              		.cfi_offset 5, -12
 761              		.cfi_offset 6, -8
 762              		.cfi_offset 14, -4
 763              		.loc 1 322 67 view .LVU255
 764 0004 0040A0E1 		mov	r4, r0
 765 0008 0160A0E1 		mov	r6, r1
 766 000c 0250A0E1 		mov	r5, r2
 767              		.loc 1 324 3 view .LVU256
 768              		.syntax divided
 769              	@ 324 "../../os/kernel/src/chqueues.c" 1
 770 0010 9FF021E3 		msr     CPSR_c, #0x9F
 771              	@ 0 "" 2
 772              		.loc 1 324 3 is_stmt 1 view .LVU257
 773              		.loc 1 324 14 view .LVU258
 774              		.loc 1 325 3 view .LVU259
 775              		.loc 1 325 9 is_stmt 0 view .LVU260
 776              		.arm
 777              		.syntax unified
 778 0014 040000EA 		b	.L63
 779              	.LVL43:
 780              	.L65:
 781              	.LBB29:
 782              		.loc 1 328 16 view .LVU261
 783 0018 0510A0E1 		mov	r1, r5
 784 001c 0400A0E1 		mov	r0, r4
 785 0020 FEFFFFEB 		bl	qwait
 786              	.LVL44:
 787              		.loc 1 328 8 view .LVU262
 788 0024 000050E3 		cmp	r0, #0
 789              		.loc 1 328 8 view .LVU263
 790 0028 150000BA 		blt	.L73
 791              	.LVL45:
 792              	.L63:
 793              		.loc 1 326 5 is_stmt 1 view .LVU264
 794              		.loc 1 328 5 view .LVU265
 795              	.LBE29:
 796              		.loc 1 325 10 is_stmt 0 view .LVU266
 797 002c 083094E5 		ldr	r3, [r4, #8]
 798              		.loc 1 325 9 view .LVU267
ARM GAS  /var/folders/l5/0x54b2c10074c8bt31ycjvl80000gp/T//ccLft2iL.s 			page 15


 799 0030 000053E3 		cmp	r3, #0
 800 0034 F7FFFF0A 		beq	.L65
 801              		.loc 1 334 3 is_stmt 1 view .LVU268
 802              		.loc 1 335 7 is_stmt 0 view .LVU269
 803 0038 142094E5 		ldr	r2, [r4, #20]
 804              		.loc 1 334 17 view .LVU270
 805 003c 013043E2 		sub	r3, r3, #1
 806              		.loc 1 335 16 view .LVU271
 807 0040 011082E2 		add	r1, r2, #1
 808 0044 141084E5 		str	r1, [r4, #20]
 809              		.loc 1 334 17 view .LVU272
 810 0048 083084E5 		str	r3, [r4, #8]
 811              		.loc 1 335 3 is_stmt 1 view .LVU273
 812              		.loc 1 335 19 is_stmt 0 view .LVU274
 813 004c 0060C2E5 		strb	r6, [r2]
 814              		.loc 1 336 3 is_stmt 1 view .LVU275
 815              		.loc 1 336 6 is_stmt 0 view .LVU276
 816 0050 103094E5 		ldr	r3, [r4, #16]
 817 0054 142094E5 		ldr	r2, [r4, #20]
 818 0058 030052E1 		cmp	r2, r3
 819              		.loc 1 337 5 is_stmt 1 view .LVU277
 820              		.loc 1 337 18 is_stmt 0 view .LVU278
 821 005c 0C309425 		ldrcs	r3, [r4, #12]
 822 0060 14308425 		strcs	r3, [r4, #20]
 823              		.loc 1 339 3 is_stmt 1 view .LVU279
 824              		.loc 1 339 10 is_stmt 0 view .LVU280
 825 0064 1C3094E5 		ldr	r3, [r4, #28]
 826              		.loc 1 339 6 view .LVU281
 827 0068 000053E3 		cmp	r3, #0
 828 006c 0100000A 		beq	.L67
 829              		.loc 1 340 5 is_stmt 1 view .LVU282
 830 0070 0400A0E1 		mov	r0, r4
 831 0074 33FF2FE1 		blx	r3
 832              	.LVL46:
 833              	.L67:
 834              		.loc 1 342 3 view .LVU283
 835              		.loc 1 342 3 view .LVU284
 836              		.syntax divided
 837              	@ 342 "../../os/kernel/src/chqueues.c" 1
 838 0078 1FF021E3 		msr     CPSR_c, #0x1F
 839              	@ 0 "" 2
 840              		.loc 1 342 16 view .LVU285
 841              		.loc 1 343 3 view .LVU286
 842              		.loc 1 343 10 is_stmt 0 view .LVU287
 843              		.arm
 844              		.syntax unified
 845 007c 0000A0E3 		mov	r0, #0
 846              		.loc 1 344 1 view .LVU288
 847 0080 7080BDE8 		pop	{r4, r5, r6, pc}
 848              	.LVL47:
 849              	.L73:
 850              	.LBB30:
 851              		.loc 1 329 7 is_stmt 1 view .LVU289
 852              		.loc 1 329 7 view .LVU290
 853              		.syntax divided
 854              	@ 329 "../../os/kernel/src/chqueues.c" 1
 855 0084 1FF021E3 		msr     CPSR_c, #0x1F
ARM GAS  /var/folders/l5/0x54b2c10074c8bt31ycjvl80000gp/T//ccLft2iL.s 			page 16


 856              	@ 0 "" 2
 857              		.loc 1 329 20 view .LVU291
 858              		.loc 1 330 7 view .LVU292
 859              		.loc 1 330 14 is_stmt 0 view .LVU293
 860              		.arm
 861              		.syntax unified
 862 0088 7080BDE8 		pop	{r4, r5, r6, pc}
 863              	.LBE30:
 864              		.cfi_endproc
 865              	.LFE15:
 866              		.size	chOQPutTimeout, .-chOQPutTimeout
 867              		.section	.text.chOQGetI,"ax",%progbits
 868              		.align	2
 869              		.global	chOQGetI
 870              		.syntax unified
 871              		.arm
 872              		.fpu softvfp
 873              		.type	chOQGetI, %function
 874              	chOQGetI:
 875              	.LVL48:
 876              	.LFB16:
 877              		.loc 1 356 34 is_stmt 1 view -0
 878              		.cfi_startproc
 879              		@ args = 0, pretend = 0, frame = 0
 880              		@ frame_needed = 0, uses_anonymous_args = 0
 881              		.loc 1 357 3 view .LVU295
 882              		.loc 1 359 3 view .LVU296
 883              		.loc 1 359 21 view .LVU297
 884              		.loc 1 361 3 view .LVU298
 885              		.loc 1 361 7 is_stmt 0 view .LVU299
 886 0000 182090E5 		ldr	r2, [r0, #24]
 887              		.loc 1 361 6 view .LVU300
 888 0004 141090E5 		ldr	r1, [r0, #20]
 889 0008 083090E5 		ldr	r3, [r0, #8]
 890 000c 020051E1 		cmp	r1, r2
 891 0010 1600000A 		beq	.L83
 892              	.L75:
 893              		.loc 1 364 3 is_stmt 1 view .LVU301
 894              		.loc 1 356 34 is_stmt 0 view .LVU302
 895 0014 10402DE9 		push	{r4, lr}
 896              		.cfi_def_cfa_offset 8
 897              		.cfi_offset 4, -8
 898              		.cfi_offset 14, -4
 899              		.loc 1 366 6 view .LVU303
 900 0018 10C090E5 		ldr	ip, [r0, #16]
 901              		.loc 1 364 17 view .LVU304
 902 001c 013083E2 		add	r3, r3, #1
 903              		.loc 1 365 20 view .LVU305
 904 0020 011082E2 		add	r1, r2, #1
 905              		.loc 1 366 6 view .LVU306
 906 0024 0C0051E1 		cmp	r1, ip
 907              		.loc 1 364 17 view .LVU307
 908 0028 083080E5 		str	r3, [r0, #8]
 909              		.loc 1 365 3 is_stmt 1 view .LVU308
 910              		.loc 1 365 20 is_stmt 0 view .LVU309
 911 002c 181080E5 		str	r1, [r0, #24]
 912              		.loc 1 365 5 view .LVU310
ARM GAS  /var/folders/l5/0x54b2c10074c8bt31ycjvl80000gp/T//ccLft2iL.s 			page 17


 913 0030 0040D2E5 		ldrb	r4, [r2]	@ zero_extendqisi2
 914              	.LVL49:
 915              		.loc 1 366 3 is_stmt 1 view .LVU311
 916              		.loc 1 367 5 view .LVU312
 917              		.loc 1 367 18 is_stmt 0 view .LVU313
 918 0034 0C309025 		ldrcs	r3, [r0, #12]
 919              		.loc 1 369 7 view .LVU314
 920 0038 002090E5 		ldr	r2, [r0]
 921              		.loc 1 367 18 view .LVU315
 922 003c 18308025 		strcs	r3, [r0, #24]
 923              		.loc 1 369 3 is_stmt 1 view .LVU316
 924              		.loc 1 369 6 is_stmt 0 view .LVU317
 925 0040 000052E1 		cmp	r2, r0
 926 0044 0700000A 		beq	.L78
 927 0048 0030A0E1 		mov	r3, r0
 928              		.loc 1 370 5 is_stmt 1 view .LVU318
 929              	.LVL50:
 930              	.LBB31:
 931              	.LBI31:
 932              		.loc 2 52 23 view .LVU319
 933              	.LBB32:
 934              		.loc 2 53 3 view .LVU320
 935              		.loc 2 55 3 view .LVU321
 936              		.loc 2 55 20 is_stmt 0 view .LVU322
 937 004c 001092E5 		ldr	r1, [r2]
 938              	.LBE32:
 939              	.LBE31:
 940              		.loc 1 370 5 view .LVU323
 941 0050 0200A0E1 		mov	r0, r2
 942              	.LVL51:
 943              	.LBB34:
 944              	.LBB33:
 945              		.loc 2 55 16 view .LVU324
 946 0054 001083E5 		str	r1, [r3]
 947              		.loc 2 55 38 view .LVU325
 948 0058 043081E5 		str	r3, [r1, #4]
 949              		.loc 2 56 3 is_stmt 1 view .LVU326
 950              	.LVL52:
 951              		.loc 2 56 3 is_stmt 0 view .LVU327
 952              	.LBE33:
 953              	.LBE34:
 954              		.loc 1 370 5 view .LVU328
 955 005c FEFFFFEB 		bl	chSchReadyI
 956              	.LVL53:
 957              		.loc 1 370 59 view .LVU329
 958 0060 0030A0E3 		mov	r3, #0
 959 0064 243080E5 		str	r3, [r0, #36]
 960              	.L78:
 961              		.loc 1 372 3 is_stmt 1 view .LVU330
 962              		.loc 1 372 10 is_stmt 0 view .LVU331
 963 0068 0400A0E1 		mov	r0, r4
 964              		.loc 1 373 1 view .LVU332
 965 006c 1080BDE8 		pop	{r4, pc}
 966              	.LVL54:
 967              	.L83:
 968              		.cfi_def_cfa_offset 0
 969              		.cfi_restore 4
ARM GAS  /var/folders/l5/0x54b2c10074c8bt31ycjvl80000gp/T//ccLft2iL.s 			page 18


 970              		.cfi_restore 14
 971              		.loc 1 361 7 discriminator 1 view .LVU333
 972 0070 000053E3 		cmp	r3, #0
 973 0074 E6FFFF0A 		beq	.L75
 974              		.loc 1 362 12 view .LVU334
 975 0078 0200E0E3 		mvn	r0, #2
 976              	.LVL55:
 977              		.loc 1 373 1 view .LVU335
 978 007c 1EFF2FE1 		bx	lr
 979              		.cfi_endproc
 980              	.LFE16:
 981              		.size	chOQGetI, .-chOQGetI
 982              		.section	.text.chOQWriteTimeout,"ax",%progbits
 983              		.align	2
 984              		.global	chOQWriteTimeout
 985              		.syntax unified
 986              		.arm
 987              		.fpu softvfp
 988              		.type	chOQWriteTimeout, %function
 989              	chOQWriteTimeout:
 990              	.LVL56:
 991              	.LFB17:
 992              		.loc 1 400 51 is_stmt 1 view -0
 993              		.cfi_startproc
 994              		@ args = 0, pretend = 0, frame = 0
 995              		@ frame_needed = 0, uses_anonymous_args = 0
 996              		.loc 1 401 3 view .LVU337
 997              		.loc 1 400 51 is_stmt 0 view .LVU338
 998 0000 F0472DE9 		push	{r4, r5, r6, r7, r8, r9, r10, lr}
 999              		.cfi_def_cfa_offset 32
 1000              		.cfi_offset 4, -32
 1001              		.cfi_offset 5, -28
 1002              		.cfi_offset 6, -24
 1003              		.cfi_offset 7, -20
 1004              		.cfi_offset 8, -16
 1005              		.cfi_offset 9, -12
 1006              		.cfi_offset 10, -8
 1007              		.cfi_offset 14, -4
 1008              		.loc 1 400 51 view .LVU339
 1009 0004 0040A0E1 		mov	r4, r0
 1010 0008 0150A0E1 		mov	r5, r1
 1011 000c 0260A0E1 		mov	r6, r2
 1012 0010 0390A0E1 		mov	r9, r3
 1013              		.loc 1 401 13 view .LVU340
 1014 0014 1C8090E5 		ldr	r8, [r0, #28]
 1015              	.LVL57:
 1016              		.loc 1 402 3 is_stmt 1 view .LVU341
 1017              		.loc 1 404 3 view .LVU342
 1018              		.loc 1 404 40 view .LVU343
 1019              		.loc 1 406 3 view .LVU344
 1020              		.syntax divided
 1021              	@ 406 "../../os/kernel/src/chqueues.c" 1
 1022 0018 9FF021E3 		msr     CPSR_c, #0x9F
 1023              	@ 0 "" 2
 1024              		.loc 1 402 10 is_stmt 0 view .LVU345
 1025              		.arm
 1026              		.syntax unified
ARM GAS  /var/folders/l5/0x54b2c10074c8bt31ycjvl80000gp/T//ccLft2iL.s 			page 19


 1027 001c 0070A0E3 		mov	r7, #0
 1028              	.LVL58:
 1029              	.L85:
 1030              		.loc 1 414 5 is_stmt 1 view .LVU346
 1031              		.loc 1 419 5 view .LVU347
 1032              		.loc 1 420 7 view .LVU348
 1033              		.loc 1 408 12 is_stmt 0 view .LVU349
 1034 0020 083094E5 		ldr	r3, [r4, #8]
 1035              		.loc 1 408 11 view .LVU350
 1036 0024 000053E3 		cmp	r3, #0
 1037              		.loc 1 414 19 view .LVU351
 1038 0028 012043E2 		sub	r2, r3, #1
 1039              		.loc 1 408 11 view .LVU352
 1040 002c 1700000A 		beq	.L88
 1041              	.L101:
 1042              		.loc 1 417 7 is_stmt 1 view .LVU353
 1043              		.loc 1 415 9 is_stmt 0 view .LVU354
 1044 0030 143094E5 		ldr	r3, [r4, #20]
 1045              		.loc 1 414 19 view .LVU355
 1046 0034 082084E5 		str	r2, [r4, #8]
 1047              		.loc 1 415 5 is_stmt 1 view .LVU356
 1048              		.loc 1 415 18 is_stmt 0 view .LVU357
 1049 0038 012083E2 		add	r2, r3, #1
 1050 003c 142084E5 		str	r2, [r4, #20]
 1051              		.loc 1 415 23 view .LVU358
 1052 0040 0120D5E4 		ldrb	r2, [r5], #1	@ zero_extendqisi2
 1053              	.LVL59:
 1054              		.loc 1 415 21 view .LVU359
 1055 0044 0020C3E5 		strb	r2, [r3]
 1056              		.loc 1 416 5 is_stmt 1 view .LVU360
 1057              		.loc 1 416 8 is_stmt 0 view .LVU361
 1058 0048 103094E5 		ldr	r3, [r4, #16]
 1059 004c 142094E5 		ldr	r2, [r4, #20]
 1060 0050 030052E1 		cmp	r2, r3
 1061              		.loc 1 417 20 view .LVU362
 1062 0054 0C309425 		ldrcs	r3, [r4, #12]
 1063 0058 14308425 		strcs	r3, [r4, #20]
 1064              		.loc 1 419 8 view .LVU363
 1065 005c 000058E3 		cmp	r8, #0
 1066 0060 0100000A 		beq	.L90
 1067              		.loc 1 420 7 view .LVU364
 1068 0064 0400A0E1 		mov	r0, r4
 1069 0068 38FF2FE1 		blx	r8
 1070              	.LVL60:
 1071              	.L90:
 1072              		.loc 1 422 5 is_stmt 1 view .LVU365
 1073              		.loc 1 422 5 view .LVU366
 1074              		.syntax divided
 1075              	@ 422 "../../os/kernel/src/chqueues.c" 1
 1076 006c 1FF021E3 		msr     CPSR_c, #0x1F
 1077              	@ 0 "" 2
 1078              		.loc 1 422 18 view .LVU367
 1079              		.loc 1 423 5 view .LVU368
 1080              		.loc 1 426 5 view .LVU369
 1081              		.loc 1 424 8 is_stmt 0 view .LVU370
 1082              		.arm
 1083              		.syntax unified
ARM GAS  /var/folders/l5/0x54b2c10074c8bt31ycjvl80000gp/T//ccLft2iL.s 			page 20


 1084 0070 016056E2 		subs	r6, r6, #1
 1085              	.LVL61:
 1086              		.loc 1 423 6 view .LVU371
 1087 0074 017087E2 		add	r7, r7, #1
 1088              	.LVL62:
 1089              		.loc 1 424 5 is_stmt 1 view .LVU372
 1090              		.loc 1 424 8 is_stmt 0 view .LVU373
 1091 0078 0A00000A 		beq	.L84
 1092              		.loc 1 426 5 view .LVU374
 1093              		.syntax divided
 1094              	@ 426 "../../os/kernel/src/chqueues.c" 1
 1095 007c 9FF021E3 		msr     CPSR_c, #0x9F
 1096              	@ 0 "" 2
 1097              		.loc 1 426 5 is_stmt 1 view .LVU375
 1098              		.loc 1 426 16 view .LVU376
 1099              	.LVL63:
 1100              		.loc 1 414 5 view .LVU377
 1101              		.loc 1 419 5 view .LVU378
 1102              		.loc 1 420 7 view .LVU379
 1103              		.loc 1 408 12 is_stmt 0 view .LVU380
 1104              		.arm
 1105              		.syntax unified
 1106 0080 083094E5 		ldr	r3, [r4, #8]
 1107              		.loc 1 408 11 view .LVU381
 1108 0084 000053E3 		cmp	r3, #0
 1109              		.loc 1 414 19 view .LVU382
 1110 0088 012043E2 		sub	r2, r3, #1
 1111              		.loc 1 408 11 view .LVU383
 1112 008c E7FFFF1A 		bne	.L101
 1113              	.L88:
 1114              		.loc 1 409 7 is_stmt 1 view .LVU384
 1115              		.loc 1 409 11 is_stmt 0 view .LVU385
 1116 0090 0910A0E1 		mov	r1, r9
 1117 0094 0400A0E1 		mov	r0, r4
 1118 0098 FEFFFFEB 		bl	qwait
 1119              	.LVL64:
 1120              		.loc 1 409 10 view .LVU386
 1121 009c 000050E3 		cmp	r0, #0
 1122 00a0 DEFFFF0A 		beq	.L85
 1123              		.loc 1 410 9 is_stmt 1 view .LVU387
 1124              		.loc 1 410 9 view .LVU388
 1125              		.syntax divided
 1126              	@ 410 "../../os/kernel/src/chqueues.c" 1
 1127 00a4 1FF021E3 		msr     CPSR_c, #0x1F
 1128              	@ 0 "" 2
 1129              		.loc 1 410 22 view .LVU389
 1130              		.loc 1 411 9 view .LVU390
 1131              	.LVL65:
 1132              		.arm
 1133              		.syntax unified
 1134              	.L84:
 1135              		.loc 1 428 1 is_stmt 0 view .LVU391
 1136 00a8 0700A0E1 		mov	r0, r7
 1137 00ac F087BDE8 		pop	{r4, r5, r6, r7, r8, r9, r10, pc}
 1138              		.cfi_endproc
 1139              	.LFE17:
 1140              		.size	chOQWriteTimeout, .-chOQWriteTimeout
ARM GAS  /var/folders/l5/0x54b2c10074c8bt31ycjvl80000gp/T//ccLft2iL.s 			page 21


 1141              		.text
 1142              	.Letext0:
 1143              		.file 3 "/usr/local/Cellar/arm-gcc-bin/8-2019-q3-update/lib/gcc/arm-none-eabi/8.3.1/include/stddef
 1144              		.file 4 "/usr/local/Cellar/arm-gcc-bin/8-2019-q3-update/arm-none-eabi/include/machine/_default_typ
 1145              		.file 5 "/usr/local/Cellar/arm-gcc-bin/8-2019-q3-update/arm-none-eabi/include/sys/_stdint.h"
 1146              		.file 6 "../../os/ports/GCC/ARM/chtypes.h"
 1147              		.file 7 "../../os/kernel/include/chlists.h"
 1148              		.file 8 "../../os/kernel/include/chthreads.h"
 1149              		.file 9 "../../os/ports/GCC/ARM/chcore.h"
 1150              		.file 10 "../../os/kernel/include/chvt.h"
 1151              		.file 11 "../../os/kernel/include/chschd.h"
 1152              		.file 12 "../../os/kernel/include/chmtx.h"
 1153              		.file 13 "../../os/kernel/include/chregistry.h"
 1154              		.file 14 "../../os/kernel/include/chqueues.h"
 1155              		.file 15 "../../os/kernel/include/ch.h"