ARM GAS  /var/folders/l5/0x54b2c10074c8bt31ycjvl80000gp/T//ccIsYVMU.s 			page 1


   1              		.cpu arm1176jz-s
   2              		.eabi_attribute 20, 1
   3              		.eabi_attribute 21, 1
   4              		.eabi_attribute 23, 3
   5              		.eabi_attribute 24, 1
   6              		.eabi_attribute 25, 1
   7              		.eabi_attribute 26, 1
   8              		.eabi_attribute 30, 2
   9              		.eabi_attribute 34, 1
  10              		.eabi_attribute 18, 4
  11              		.file	"chschd.c"
  12              		.text
  13              	.Ltext0:
  14              		.cfi_sections	.debug_frame
  15              		.section	.text.wakeup,"ax",%progbits
  16              		.align	2
  17              		.arch armv6kz
  18              		.syntax unified
  19              		.arm
  20              		.fpu softvfp
  21              		.type	wakeup, %function
  22              	wakeup:
  23              	.LVL0:
  24              	.LFB10:
  25              		.file 1 "../../os/kernel/src/chschd.c"
  26              		.loc 1 129 29 view -0
  27              		.cfi_startproc
  28              		@ args = 0, pretend = 0, frame = 0
  29              		@ frame_needed = 0, uses_anonymous_args = 0
  30              		@ link register save eliminated.
  31              		.loc 1 130 3 view .LVU1
  32              		.loc 1 132 3 view .LVU2
  33              		.loc 1 132 3 view .LVU3
  34              		.loc 1 132 21 view .LVU4
  35              		.loc 1 133 3 view .LVU5
  36 0000 1C30D0E5 		ldrb	r3, [r0, #28]	@ zero_extendqisi2
  37 0004 0D0053E3 		cmp	r3, #13
  38 0008 03F19F97 		ldrls	pc, [pc, r3, asl #2]
  39 000c 150000EA 		b	.L2
  40              	.L4:
  41 0010 A8000000 		.word	.L1
  42 0014 68000000 		.word	.L2
  43 0018 68000000 		.word	.L2
  44 001c 48000000 		.word	.L5
  45 0020 68000000 		.word	.L2
  46 0024 58000000 		.word	.L3
  47 0028 68000000 		.word	.L2
  48 002c 68000000 		.word	.L2
  49 0030 68000000 		.word	.L2
  50 0034 68000000 		.word	.L2
  51 0038 68000000 		.word	.L2
  52 003c 68000000 		.word	.L2
  53 0040 68000000 		.word	.L2
  54 0044 58000000 		.word	.L3
  55              	.L5:
  56              		.loc 1 143 5 view .LVU6
  57 0048 242090E5 		ldr	r2, [r0, #36]
ARM GAS  /var/folders/l5/0x54b2c10074c8bt31ycjvl80000gp/T//ccIsYVMU.s 			page 2


  58 004c 083092E5 		ldr	r3, [r2, #8]
  59 0050 013083E2 		add	r3, r3, #1
  60 0054 083082E5 		str	r3, [r2, #8]
  61              	.L3:
  62              		.loc 1 153 5 view .LVU7
  63              	.LVL1:
  64              	.LBB33:
  65              	.LBI33:
  66              		.file 2 "../../os/kernel/include/chinline.h"
  67              		.loc 2 66 23 view .LVU8
  68              	.LBB34:
  69              		.loc 2 68 3 view .LVU9
  70              		.loc 2 68 5 is_stmt 0 view .LVU10
  71 0058 042090E5 		ldr	r2, [r0, #4]
  72              		.loc 2 68 26 view .LVU11
  73 005c 003090E5 		ldr	r3, [r0]
  74              		.loc 2 68 22 view .LVU12
  75 0060 003082E5 		str	r3, [r2]
  76              		.loc 2 69 3 is_stmt 1 view .LVU13
  77              		.loc 2 69 22 is_stmt 0 view .LVU14
  78 0064 042083E5 		str	r2, [r3, #4]
  79              		.loc 2 70 3 is_stmt 1 view .LVU15
  80              	.LVL2:
  81              	.L2:
  82              		.loc 2 70 3 is_stmt 0 view .LVU16
  83              	.LBE34:
  84              	.LBE33:
  85              		.loc 1 156 3 is_stmt 1 view .LVU17
  86              		.loc 1 156 18 is_stmt 0 view .LVU18
  87 0068 00C0E0E3 		mvn	ip, #0
  88              	.LBB35:
  89              	.LBB36:
  90              		.loc 1 85 15 view .LVU19
  91 006c 0020A0E3 		mov	r2, #0
  92              	.LBE36:
  93              	.LBE35:
  94              	.LBB38:
  95              	.LBB39:
  96              	.LBB40:
  97              	.LBB41:
  98              		.loc 1 89 28 view .LVU20
  99 0070 081090E5 		ldr	r1, [r0, #8]
 100              		.loc 1 86 6 view .LVU21
 101 0074 30309FE5 		ldr	r3, .L10
 102              	.LBE41:
 103              	.LBE40:
 104              	.LBE39:
 105              	.LBE38:
 106              		.loc 1 156 18 view .LVU22
 107 0078 24C080E5 		str	ip, [r0, #36]
 108              		.loc 1 157 3 is_stmt 1 view .LVU23
 109              	.LVL3:
 110              	.LBB45:
 111              	.LBI35:
 112              		.loc 1 74 9 view .LVU24
 113              	.LBB37:
 114              		.loc 1 75 3 view .LVU25
ARM GAS  /var/folders/l5/0x54b2c10074c8bt31ycjvl80000gp/T//ccIsYVMU.s 			page 3


 115              		.loc 1 77 3 view .LVU26
 116              		.loc 1 77 21 view .LVU27
 117              		.loc 1 80 3 view .LVU28
 118              		.loc 1 83 31 view .LVU29
 119              		.loc 1 85 3 view .LVU30
 120              		.loc 1 85 15 is_stmt 0 view .LVU31
 121 007c 1C20C0E5 		strb	r2, [r0, #28]
 122              		.loc 1 86 3 is_stmt 1 view .LVU32
 123              	.LVL4:
 124              		.loc 1 86 3 is_stmt 0 view .LVU33
 125              	.LBE37:
 126              	.LBE45:
 127              	.LBB46:
 128              	.LBI38:
 129              		.loc 1 129 13 is_stmt 1 view .LVU34
 130              	.L7:
 131              	.LBB44:
 132              	.LBB43:
 133              	.LBB42:
 134              		.loc 1 87 3 view .LVU35
 135              		.loc 1 88 5 view .LVU36
 136              		.loc 1 88 8 is_stmt 0 view .LVU37
 137 0080 003093E5 		ldr	r3, [r3]
 138              	.LVL5:
 139              		.loc 1 89 3 view .LVU38
 140 0084 082093E5 		ldr	r2, [r3, #8]
 141 0088 010052E1 		cmp	r2, r1
 142 008c FBFFFF2A 		bcs	.L7
 143              		.loc 1 91 3 is_stmt 1 view .LVU39
 144              		.loc 1 92 18 is_stmt 0 view .LVU40
 145 0090 042093E5 		ldr	r2, [r3, #4]
 146              		.loc 1 91 14 view .LVU41
 147 0094 003080E5 		str	r3, [r0]
 148              		.loc 1 92 3 is_stmt 1 view .LVU42
 149              		.loc 1 92 14 is_stmt 0 view .LVU43
 150 0098 042080E5 		str	r2, [r0, #4]
 151              		.loc 1 93 3 is_stmt 1 view .LVU44
 152              		.loc 1 93 35 is_stmt 0 view .LVU45
 153 009c 040083E5 		str	r0, [r3, #4]
 154              		.loc 1 93 22 view .LVU46
 155 00a0 043090E5 		ldr	r3, [r0, #4]
 156              	.LVL6:
 157              		.loc 1 93 22 view .LVU47
 158 00a4 000083E5 		str	r0, [r3]
 159              	.LVL7:
 160              		.loc 1 94 3 is_stmt 1 view .LVU48
 161              	.LBE42:
 162              	.LBE43:
 163              		.loc 1 158 3 view .LVU49
 164              		.loc 1 158 3 view .LVU50
 165              		.loc 1 158 23 view .LVU51
 166              	.LBE44:
 167              	.LBE46:
 168              		.loc 1 158 3 view .LVU52
 169              		.loc 1 158 3 view .LVU53
 170              		.loc 1 158 23 view .LVU54
 171              	.L1:
ARM GAS  /var/folders/l5/0x54b2c10074c8bt31ycjvl80000gp/T//ccIsYVMU.s 			page 4


 172              		.loc 1 159 1 is_stmt 0 view .LVU55
 173 00a8 1EFF2FE1 		bx	lr
 174              	.L11:
 175              		.align	2
 176              	.L10:
 177 00ac 00000000 		.word	rlist
 178              		.cfi_endproc
 179              	.LFE10:
 180              		.size	wakeup, .-wakeup
 181              		.section	.text._scheduler_init,"ax",%progbits
 182              		.align	2
 183              		.global	_scheduler_init
 184              		.syntax unified
 185              		.arm
 186              		.fpu softvfp
 187              		.type	_scheduler_init, %function
 188              	_scheduler_init:
 189              	.LFB7:
 190              		.loc 1 48 28 is_stmt 1 view -0
 191              		.cfi_startproc
 192              		@ args = 0, pretend = 0, frame = 0
 193              		@ frame_needed = 0, uses_anonymous_args = 0
 194              		@ link register save eliminated.
 195              		.loc 1 50 3 view .LVU57
 196              		.loc 1 51 16 is_stmt 0 view .LVU58
 197 0000 0020A0E3 		mov	r2, #0
 198              		.loc 1 50 3 view .LVU59
 199 0004 14309FE5 		ldr	r3, .L13
 200              		.loc 1 51 16 view .LVU60
 201 0008 082083E5 		str	r2, [r3, #8]
 202              		.loc 1 50 3 view .LVU61
 203 000c 043083E5 		str	r3, [r3, #4]
 204 0010 003083E5 		str	r3, [r3]
 205              		.loc 1 50 29 is_stmt 1 view .LVU62
 206              		.loc 1 51 3 view .LVU63
 207              		.loc 1 53 3 view .LVU64
 208              		.loc 1 53 33 is_stmt 0 view .LVU65
 209 0014 143083E5 		str	r3, [r3, #20]
 210              		.loc 1 53 17 view .LVU66
 211 0018 103083E5 		str	r3, [r3, #16]
 212              		.loc 1 55 1 view .LVU67
 213 001c 1EFF2FE1 		bx	lr
 214              	.L14:
 215              		.align	2
 216              	.L13:
 217 0020 00000000 		.word	rlist
 218              		.cfi_endproc
 219              	.LFE7:
 220              		.size	_scheduler_init, .-_scheduler_init
 221              		.section	.text.chSchReadyI,"ax",%progbits
 222              		.align	2
 223              		.global	chSchReadyI
 224              		.syntax unified
 225              		.arm
 226              		.fpu softvfp
 227              		.type	chSchReadyI, %function
 228              	chSchReadyI:
ARM GAS  /var/folders/l5/0x54b2c10074c8bt31ycjvl80000gp/T//ccIsYVMU.s 			page 5


 229              	.LVL8:
 230              	.LFB8:
 231              		.loc 1 74 33 is_stmt 1 view -0
 232              		.cfi_startproc
 233              		@ args = 0, pretend = 0, frame = 0
 234              		@ frame_needed = 0, uses_anonymous_args = 0
 235              		@ link register save eliminated.
 236              		.loc 1 75 3 view .LVU69
 237              		.loc 1 77 3 view .LVU70
 238              		.loc 1 77 21 view .LVU71
 239              		.loc 1 80 3 view .LVU72
 240              		.loc 1 83 31 view .LVU73
 241              		.loc 1 85 3 view .LVU74
 242              		.loc 1 85 15 is_stmt 0 view .LVU75
 243 0000 0020A0E3 		mov	r2, #0
 244              		.loc 1 74 33 view .LVU76
 245 0004 00C0A0E1 		mov	ip, r0
 246              		.loc 1 89 28 view .LVU77
 247 0008 081090E5 		ldr	r1, [r0, #8]
 248              		.loc 1 86 6 view .LVU78
 249 000c 30309FE5 		ldr	r3, .L18
 250              		.loc 1 85 15 view .LVU79
 251 0010 1C20C0E5 		strb	r2, [r0, #28]
 252              		.loc 1 86 3 is_stmt 1 view .LVU80
 253              	.LVL9:
 254              	.L16:
 255              		.loc 1 87 3 discriminator 1 view .LVU81
 256              		.loc 1 88 5 discriminator 1 view .LVU82
 257              		.loc 1 88 8 is_stmt 0 discriminator 1 view .LVU83
 258 0014 003093E5 		ldr	r3, [r3]
 259              	.LVL10:
 260              		.loc 1 89 3 discriminator 1 view .LVU84
 261 0018 082093E5 		ldr	r2, [r3, #8]
 262 001c 010052E1 		cmp	r2, r1
 263 0020 FBFFFF2A 		bcs	.L16
 264              		.loc 1 91 3 is_stmt 1 view .LVU85
 265              		.loc 1 92 18 is_stmt 0 view .LVU86
 266 0024 042093E5 		ldr	r2, [r3, #4]
 267              		.loc 1 91 14 view .LVU87
 268 0028 00308CE5 		str	r3, [ip]
 269              		.loc 1 92 3 is_stmt 1 view .LVU88
 270              		.loc 1 92 14 is_stmt 0 view .LVU89
 271 002c 04208CE5 		str	r2, [ip, #4]
 272              		.loc 1 93 3 is_stmt 1 view .LVU90
 273              		.loc 1 93 35 is_stmt 0 view .LVU91
 274 0030 04C083E5 		str	ip, [r3, #4]
 275              		.loc 1 93 22 view .LVU92
 276 0034 04309CE5 		ldr	r3, [ip, #4]
 277              	.LVL11:
 278              		.loc 1 95 1 view .LVU93
 279 0038 0C00A0E1 		mov	r0, ip
 280              	.LVL12:
 281              		.loc 1 93 22 view .LVU94
 282 003c 00C083E5 		str	ip, [r3]
 283              	.LVL13:
 284              		.loc 1 94 3 is_stmt 1 view .LVU95
 285              		.loc 1 95 1 is_stmt 0 view .LVU96
ARM GAS  /var/folders/l5/0x54b2c10074c8bt31ycjvl80000gp/T//ccIsYVMU.s 			page 6


 286 0040 1EFF2FE1 		bx	lr
 287              	.L19:
 288              		.align	2
 289              	.L18:
 290 0044 00000000 		.word	rlist
 291              		.cfi_endproc
 292              	.LFE8:
 293              		.size	chSchReadyI, .-chSchReadyI
 294              		.section	.text.chSchGoSleepS,"ax",%progbits
 295              		.align	2
 296              		.global	chSchGoSleepS
 297              		.syntax unified
 298              		.arm
 299              		.fpu softvfp
 300              		.type	chSchGoSleepS, %function
 301              	chSchGoSleepS:
 302              	.LVL14:
 303              	.LFB9:
 304              		.loc 1 108 39 is_stmt 1 view -0
 305              		.cfi_startproc
 306              		@ args = 0, pretend = 0, frame = 0
 307              		@ frame_needed = 0, uses_anonymous_args = 0
 308              		.loc 1 109 3 view .LVU98
 309              		.loc 1 111 3 view .LVU99
 310              		.loc 1 111 21 view .LVU100
 311              		.loc 1 113 3 view .LVU101
 312              		.loc 1 108 39 is_stmt 0 view .LVU102
 313 0000 04E02DE5 		str	lr, [sp, #-4]!
 314              		.cfi_def_cfa_offset 4
 315              		.cfi_offset 14, -4
 316              		.loc 1 120 18 view .LVU103
 317 0004 01E0A0E3 		mov	lr, #1
 318              		.loc 1 113 8 view .LVU104
 319 0008 28309FE5 		ldr	r3, .L22
 320 000c 181093E5 		ldr	r1, [r3, #24]
 321              	.LVL15:
 322              	.LBB47:
 323              	.LBB48:
 324              		.loc 2 53 11 view .LVU105
 325 0010 002093E5 		ldr	r2, [r3]
 326              	.LBE48:
 327              	.LBE47:
 328              		.loc 1 113 26 view .LVU106
 329 0014 1C00C1E5 		strb	r0, [r1, #28]
 330              		.loc 1 119 3 is_stmt 1 view .LVU107
 331              	.LVL16:
 332              	.LBB52:
 333              	.LBI47:
 334              		.loc 2 52 23 view .LVU108
 335              	.LBB49:
 336              		.loc 2 53 3 view .LVU109
 337              		.loc 2 55 3 view .LVU110
 338              		.loc 2 55 20 is_stmt 0 view .LVU111
 339 0018 00C092E5 		ldr	ip, [r2]
 340              	.LBE49:
 341              	.LBE52:
 342              		.loc 1 121 3 view .LVU112
ARM GAS  /var/folders/l5/0x54b2c10074c8bt31ycjvl80000gp/T//ccIsYVMU.s 			page 7


 343 001c 0200A0E1 		mov	r0, r2
 344              	.LVL17:
 345              	.LBB53:
 346              	.LBB50:
 347              		.loc 2 55 38 view .LVU113
 348 0020 04308CE5 		str	r3, [ip, #4]
 349              	.LVL18:
 350              		.loc 2 56 3 is_stmt 1 view .LVU114
 351              		.loc 2 56 3 is_stmt 0 view .LVU115
 352              	.LBE50:
 353              	.LBE53:
 354              		.loc 1 120 18 view .LVU116
 355 0024 1CE0C2E5 		strb	lr, [r2, #28]
 356              	.LBB54:
 357              	.LBB51:
 358              		.loc 2 55 16 view .LVU117
 359 0028 00C083E5 		str	ip, [r3]
 360              	.LBE51:
 361              	.LBE54:
 362              		.loc 1 122 1 view .LVU118
 363 002c 04E09DE4 		ldr	lr, [sp], #4
 364              		.cfi_restore 14
 365              		.cfi_def_cfa_offset 0
 366              		.loc 1 119 3 view .LVU119
 367 0030 182083E5 		str	r2, [r3, #24]
 368              		.loc 1 120 3 is_stmt 1 view .LVU120
 369              		.loc 1 121 3 view .LVU121
 370              		.loc 1 121 3 view .LVU122
 371              		.loc 1 121 3 view .LVU123
 372              		.loc 1 121 3 view .LVU124
 373 0034 FEFFFFEA 		b	_port_switch_arm
 374              	.LVL19:
 375              	.L23:
 376              		.loc 1 121 3 is_stmt 0 view .LVU125
 377              		.align	2
 378              	.L22:
 379 0038 00000000 		.word	rlist
 380              		.cfi_endproc
 381              	.LFE9:
 382              		.size	chSchGoSleepS, .-chSchGoSleepS
 383              		.section	.text.chSchGoSleepTimeoutS,"ax",%progbits
 384              		.align	2
 385              		.global	chSchGoSleepTimeoutS
 386              		.syntax unified
 387              		.arm
 388              		.fpu softvfp
 389              		.type	chSchGoSleepTimeoutS, %function
 390              	chSchGoSleepTimeoutS:
 391              	.LVL20:
 392              	.LFB11:
 393              		.loc 1 182 63 is_stmt 1 view -0
 394              		.cfi_startproc
 395              		@ args = 0, pretend = 0, frame = 24
 396              		@ frame_needed = 0, uses_anonymous_args = 0
 397              		.loc 1 184 3 view .LVU127
 398              		.loc 1 184 21 view .LVU128
 399              		.loc 1 186 3 view .LVU129
ARM GAS  /var/folders/l5/0x54b2c10074c8bt31ycjvl80000gp/T//ccIsYVMU.s 			page 8


 400              		.loc 1 182 63 is_stmt 0 view .LVU130
 401 0000 30402DE9 		push	{r4, r5, lr}
 402              		.cfi_def_cfa_offset 12
 403              		.cfi_offset 4, -12
 404              		.cfi_offset 5, -8
 405              		.cfi_offset 14, -4
 406              		.loc 1 186 6 view .LVU131
 407 0004 010071E3 		cmn	r1, #1
 408              		.loc 1 182 63 view .LVU132
 409 0008 1CD04DE2 		sub	sp, sp, #28
 410              		.cfi_def_cfa_offset 40
 411              		.loc 1 186 6 view .LVU133
 412 000c 1000000A 		beq	.L25
 413              	.LBB55:
 414              		.loc 1 187 5 is_stmt 1 view .LVU134
 415              		.loc 1 189 5 view .LVU135
 416 0010 0050A0E1 		mov	r5, r0
 417              		.loc 1 189 33 is_stmt 0 view .LVU136
 418 0014 50409FE5 		ldr	r4, .L32
 419              		.loc 1 189 5 view .LVU137
 420 0018 04008DE2 		add	r0, sp, #4
 421              	.LVL21:
 422              		.loc 1 189 5 view .LVU138
 423 001c 183094E5 		ldr	r3, [r4, #24]
 424 0020 48209FE5 		ldr	r2, .L32+4
 425 0024 FEFFFFEB 		bl	chVTSetI
 426              	.LVL22:
 427              		.loc 1 190 5 is_stmt 1 view .LVU139
 428 0028 0500A0E1 		mov	r0, r5
 429 002c FEFFFFEB 		bl	chSchGoSleepS
 430              	.LVL23:
 431              		.loc 1 191 5 view .LVU140
 432              		.loc 1 191 8 is_stmt 0 view .LVU141
 433 0030 10309DE5 		ldr	r3, [sp, #16]
 434 0034 000053E3 		cmp	r3, #0
 435 0038 0100000A 		beq	.L27
 436              		.loc 1 192 7 is_stmt 1 view .LVU142
 437 003c 04008DE2 		add	r0, sp, #4
 438 0040 FEFFFFEB 		bl	chVTResetI
 439              	.LVL24:
 440              	.L27:
 441              	.LBE55:
 442              		.loc 1 196 3 view .LVU143
 443              		.loc 1 196 20 is_stmt 0 view .LVU144
 444 0044 183094E5 		ldr	r3, [r4, #24]
 445              		.loc 1 197 1 view .LVU145
 446 0048 240093E5 		ldr	r0, [r3, #36]
 447 004c 1CD08DE2 		add	sp, sp, #28
 448              		.cfi_remember_state
 449              		.cfi_def_cfa_offset 12
 450              		@ sp needed
 451 0050 3080BDE8 		pop	{r4, r5, pc}
 452              	.LVL25:
 453              	.L25:
 454              		.cfi_restore_state
 455              		.loc 1 195 5 is_stmt 1 view .LVU146
 456 0054 FEFFFFEB 		bl	chSchGoSleepS
ARM GAS  /var/folders/l5/0x54b2c10074c8bt31ycjvl80000gp/T//ccIsYVMU.s 			page 9


 457              	.LVL26:
 458              		.loc 1 195 5 is_stmt 0 view .LVU147
 459 0058 0C409FE5 		ldr	r4, .L32
 460              		.loc 1 196 3 is_stmt 1 view .LVU148
 461              		.loc 1 196 20 is_stmt 0 view .LVU149
 462 005c 183094E5 		ldr	r3, [r4, #24]
 463              		.loc 1 197 1 view .LVU150
 464 0060 240093E5 		ldr	r0, [r3, #36]
 465 0064 1CD08DE2 		add	sp, sp, #28
 466              		.cfi_def_cfa_offset 12
 467              		@ sp needed
 468 0068 3080BDE8 		pop	{r4, r5, pc}
 469              	.L33:
 470              		.align	2
 471              	.L32:
 472 006c 00000000 		.word	rlist
 473 0070 00000000 		.word	wakeup
 474              		.cfi_endproc
 475              	.LFE11:
 476              		.size	chSchGoSleepTimeoutS, .-chSchGoSleepTimeoutS
 477              		.section	.text.chSchWakeupS,"ax",%progbits
 478              		.align	2
 479              		.global	chSchWakeupS
 480              		.syntax unified
 481              		.arm
 482              		.fpu softvfp
 483              		.type	chSchWakeupS, %function
 484              	chSchWakeupS:
 485              	.LVL27:
 486              	.LFB12:
 487              		.loc 1 218 43 is_stmt 1 view -0
 488              		.cfi_startproc
 489              		@ args = 0, pretend = 0, frame = 0
 490              		@ frame_needed = 0, uses_anonymous_args = 0
 491              		.loc 1 220 3 view .LVU152
 492              		.loc 1 220 21 view .LVU153
 493              		.loc 1 222 3 view .LVU154
 494              		.loc 1 227 22 is_stmt 0 view .LVU155
 495 0000 A0309FE5 		ldr	r3, .L43
 496              		.loc 1 218 43 view .LVU156
 497 0004 10402DE9 		push	{r4, lr}
 498              		.cfi_def_cfa_offset 8
 499              		.cfi_offset 4, -8
 500              		.cfi_offset 14, -4
 501              		.loc 1 227 22 view .LVU157
 502 0008 184093E5 		ldr	r4, [r3, #24]
 503              		.loc 1 227 10 view .LVU158
 504 000c 08E090E5 		ldr	lr, [r0, #8]
 505              		.loc 1 218 43 view .LVU159
 506 0010 00C0A0E1 		mov	ip, r0
 507              		.loc 1 222 19 view .LVU160
 508 0014 241080E5 		str	r1, [r0, #36]
 509              		.loc 1 227 3 is_stmt 1 view .LVU161
 510              		.loc 1 227 27 is_stmt 0 view .LVU162
 511 0018 080094E5 		ldr	r0, [r4, #8]
 512              	.LVL28:
 513              		.loc 1 227 6 view .LVU163
ARM GAS  /var/folders/l5/0x54b2c10074c8bt31ycjvl80000gp/T//ccIsYVMU.s 			page 10


 514 001c 00005EE1 		cmp	lr, r0
 515 0020 0C00008A 		bhi	.L35
 516              		.loc 1 228 5 is_stmt 1 view .LVU164
 517              	.LVL29:
 518              	.LBB56:
 519              	.LBI56:
 520              		.loc 1 74 9 view .LVU165
 521              	.LBB57:
 522              		.loc 1 75 3 view .LVU166
 523              		.loc 1 77 3 view .LVU167
 524              		.loc 1 77 21 view .LVU168
 525              		.loc 1 80 3 view .LVU169
 526              		.loc 1 83 31 view .LVU170
 527              		.loc 1 85 3 view .LVU171
 528              		.loc 1 85 15 is_stmt 0 view .LVU172
 529 0024 0020A0E3 		mov	r2, #0
 530 0028 1C20CCE5 		strb	r2, [ip, #28]
 531              		.loc 1 86 3 is_stmt 1 view .LVU173
 532              	.LVL30:
 533              	.L36:
 534              		.loc 1 87 3 view .LVU174
 535              		.loc 1 88 5 view .LVU175
 536              		.loc 1 88 8 is_stmt 0 view .LVU176
 537 002c 003093E5 		ldr	r3, [r3]
 538              	.LVL31:
 539              		.loc 1 89 3 view .LVU177
 540 0030 082093E5 		ldr	r2, [r3, #8]
 541 0034 02005EE1 		cmp	lr, r2
 542 0038 FBFFFF9A 		bls	.L36
 543              		.loc 1 91 3 is_stmt 1 view .LVU178
 544              		.loc 1 92 18 is_stmt 0 view .LVU179
 545 003c 042093E5 		ldr	r2, [r3, #4]
 546              		.loc 1 91 14 view .LVU180
 547 0040 00308CE5 		str	r3, [ip]
 548              		.loc 1 92 3 is_stmt 1 view .LVU181
 549              		.loc 1 92 14 is_stmt 0 view .LVU182
 550 0044 04208CE5 		str	r2, [ip, #4]
 551              		.loc 1 93 3 is_stmt 1 view .LVU183
 552              		.loc 1 93 35 is_stmt 0 view .LVU184
 553 0048 04C083E5 		str	ip, [r3, #4]
 554              		.loc 1 93 22 view .LVU185
 555 004c 04309CE5 		ldr	r3, [ip, #4]
 556              	.LVL32:
 557              		.loc 1 93 22 view .LVU186
 558 0050 00C083E5 		str	ip, [r3]
 559              	.LVL33:
 560              		.loc 1 94 3 is_stmt 1 view .LVU187
 561              	.LBE57:
 562              	.LBE56:
 563              		.loc 1 235 1 is_stmt 0 view .LVU188
 564 0054 1080BDE8 		pop	{r4, pc}
 565              	.LVL34:
 566              	.L35:
 567              	.LBB58:
 568              		.loc 1 230 5 is_stmt 1 view .LVU189
 569              	.LBB59:
 570              	.LBI59:
ARM GAS  /var/folders/l5/0x54b2c10074c8bt31ycjvl80000gp/T//ccIsYVMU.s 			page 11


 571              		.loc 1 74 9 view .LVU190
 572              	.LBB60:
 573              		.loc 1 75 3 view .LVU191
 574              		.loc 1 77 3 view .LVU192
 575              		.loc 1 77 21 view .LVU193
 576              		.loc 1 80 3 view .LVU194
 577              		.loc 1 83 31 view .LVU195
 578              		.loc 1 85 3 view .LVU196
 579              		.loc 1 85 15 is_stmt 0 view .LVU197
 580 0058 0010A0E3 		mov	r1, #0
 581              	.LVL35:
 582              		.loc 1 86 6 view .LVU198
 583 005c 0320A0E1 		mov	r2, r3
 584              		.loc 1 85 15 view .LVU199
 585 0060 1C10C4E5 		strb	r1, [r4, #28]
 586              	.LVL36:
 587              		.loc 1 86 3 is_stmt 1 view .LVU200
 588              	.L38:
 589              		.loc 1 87 3 view .LVU201
 590              		.loc 1 88 5 view .LVU202
 591              		.loc 1 88 8 is_stmt 0 view .LVU203
 592 0064 002092E5 		ldr	r2, [r2]
 593              	.LVL37:
 594              		.loc 1 89 3 view .LVU204
 595 0068 081092E5 		ldr	r1, [r2, #8]
 596 006c 010050E1 		cmp	r0, r1
 597 0070 FBFFFF9A 		bls	.L38
 598              		.loc 1 91 3 is_stmt 1 view .LVU205
 599              	.LBE60:
 600              	.LBE59:
 601              		.loc 1 232 18 is_stmt 0 view .LVU206
 602 0074 01E0A0E3 		mov	lr, #1
 603              	.LBB63:
 604              	.LBB61:
 605              		.loc 1 92 18 view .LVU207
 606 0078 041092E5 		ldr	r1, [r2, #4]
 607              		.loc 1 91 14 view .LVU208
 608 007c 002084E5 		str	r2, [r4]
 609              		.loc 1 92 3 is_stmt 1 view .LVU209
 610              		.loc 1 92 14 is_stmt 0 view .LVU210
 611 0080 041084E5 		str	r1, [r4, #4]
 612              		.loc 1 93 3 is_stmt 1 view .LVU211
 613              		.loc 1 93 35 is_stmt 0 view .LVU212
 614 0084 044082E5 		str	r4, [r2, #4]
 615              		.loc 1 93 22 view .LVU213
 616 0088 042094E5 		ldr	r2, [r4, #4]
 617              	.LVL38:
 618              		.loc 1 93 22 view .LVU214
 619              	.LBE61:
 620              	.LBE63:
 621              		.loc 1 233 5 view .LVU215
 622 008c 0410A0E1 		mov	r1, r4
 623              	.LBB64:
 624              	.LBB62:
 625              		.loc 1 93 22 view .LVU216
 626 0090 004082E5 		str	r4, [r2]
 627              	.LVL39:
ARM GAS  /var/folders/l5/0x54b2c10074c8bt31ycjvl80000gp/T//ccIsYVMU.s 			page 12


 628              		.loc 1 94 3 is_stmt 1 view .LVU217
 629              		.loc 1 94 3 is_stmt 0 view .LVU218
 630              	.LBE62:
 631              	.LBE64:
 632              		.loc 1 231 5 is_stmt 1 view .LVU219
 633              		.loc 1 232 18 is_stmt 0 view .LVU220
 634 0094 1CE0CCE5 		strb	lr, [ip, #28]
 635              		.loc 1 233 5 view .LVU221
 636 0098 0C00A0E1 		mov	r0, ip
 637              	.LBE58:
 638              		.loc 1 235 1 view .LVU222
 639 009c 1040BDE8 		pop	{r4, lr}
 640              		.cfi_restore 14
 641              		.cfi_restore 4
 642              		.cfi_def_cfa_offset 0
 643              	.LVL40:
 644              	.LBB65:
 645              		.loc 1 231 5 view .LVU223
 646 00a0 18C083E5 		str	ip, [r3, #24]
 647              		.loc 1 232 5 is_stmt 1 view .LVU224
 648              		.loc 1 233 5 view .LVU225
 649              		.loc 1 233 5 view .LVU226
 650              		.loc 1 233 5 view .LVU227
 651              		.loc 1 233 5 view .LVU228
 652 00a4 FEFFFFEA 		b	_port_switch_arm
 653              	.LVL41:
 654              	.L44:
 655              		.loc 1 233 5 is_stmt 0 view .LVU229
 656              		.align	2
 657              	.L43:
 658 00a8 00000000 		.word	rlist
 659              	.LBE65:
 660              		.cfi_endproc
 661              	.LFE12:
 662              		.size	chSchWakeupS, .-chSchWakeupS
 663              		.section	.text.chSchIsPreemptionRequired,"ax",%progbits
 664              		.align	2
 665              		.global	chSchIsPreemptionRequired
 666              		.syntax unified
 667              		.arm
 668              		.fpu softvfp
 669              		.type	chSchIsPreemptionRequired, %function
 670              	chSchIsPreemptionRequired:
 671              	.LFB14:
 672              		.loc 1 269 40 is_stmt 1 view -0
 673              		.cfi_startproc
 674              		@ args = 0, pretend = 0, frame = 0
 675              		@ frame_needed = 0, uses_anonymous_args = 0
 676              		@ link register save eliminated.
 677              		.loc 1 270 3 view .LVU231
 678              	.LVL42:
 679              		.loc 1 271 3 view .LVU232
 680              		.loc 1 281 3 view .LVU233
 681              		.loc 1 270 16 is_stmt 0 view .LVU234
 682 0000 1C309FE5 		ldr	r3, .L46
 683              	.LVL43:
 684              		.loc 1 270 11 view .LVU235
ARM GAS  /var/folders/l5/0x54b2c10074c8bt31ycjvl80000gp/T//ccIsYVMU.s 			page 13


 685 0004 002093E5 		ldr	r2, [r3]
 686              		.loc 1 271 11 view .LVU236
 687 0008 183093E5 		ldr	r3, [r3, #24]
 688              	.LVL44:
 689              		.loc 1 281 13 view .LVU237
 690 000c 080092E5 		ldr	r0, [r2, #8]
 691 0010 083093E5 		ldr	r3, [r3, #8]
 692              		.loc 1 283 1 view .LVU238
 693 0014 030050E1 		cmp	r0, r3
 694 0018 0000A093 		movls	r0, #0
 695 001c 0100A083 		movhi	r0, #1
 696 0020 1EFF2FE1 		bx	lr
 697              	.L47:
 698              		.align	2
 699              	.L46:
 700 0024 00000000 		.word	rlist
 701              		.cfi_endproc
 702              	.LFE14:
 703              		.size	chSchIsPreemptionRequired, .-chSchIsPreemptionRequired
 704              		.section	.text.chSchDoRescheduleBehind,"ax",%progbits
 705              		.align	2
 706              		.global	chSchDoRescheduleBehind
 707              		.syntax unified
 708              		.arm
 709              		.fpu softvfp
 710              		.type	chSchDoRescheduleBehind, %function
 711              	chSchDoRescheduleBehind:
 712              	.LFB15:
 713              		.loc 1 297 36 is_stmt 1 view -0
 714              		.cfi_startproc
 715              		@ args = 0, pretend = 0, frame = 0
 716              		@ frame_needed = 0, uses_anonymous_args = 0
 717              		.loc 1 298 3 view .LVU240
 718              		.loc 1 300 3 view .LVU241
 719              		.loc 1 297 36 is_stmt 0 view .LVU242
 720 0000 10402DE9 		push	{r4, lr}
 721              		.cfi_def_cfa_offset 8
 722              		.cfi_offset 4, -8
 723              		.cfi_offset 14, -4
 724              		.loc 1 303 18 view .LVU243
 725 0004 0140A0E3 		mov	r4, #1
 726              	.LBB66:
 727              	.LBB67:
 728              		.loc 1 85 15 view .LVU244
 729 0008 00E0A0E3 		mov	lr, #0
 730              	.LBE67:
 731              	.LBE66:
 732              		.loc 1 300 7 view .LVU245
 733 000c 58209FE5 		ldr	r2, .L53
 734              	.LBB72:
 735              	.LBB73:
 736              		.loc 2 53 11 view .LVU246
 737 0010 000092E5 		ldr	r0, [r2]
 738              	.LBE73:
 739              	.LBE72:
 740              		.loc 1 300 7 view .LVU247
 741 0014 181092E5 		ldr	r1, [r2, #24]
ARM GAS  /var/folders/l5/0x54b2c10074c8bt31ycjvl80000gp/T//ccIsYVMU.s 			page 14


 742              	.LVL45:
 743              		.loc 1 302 3 is_stmt 1 view .LVU248
 744              	.LBB77:
 745              	.LBI72:
 746              		.loc 2 52 23 view .LVU249
 747              	.LBB74:
 748              		.loc 2 53 3 view .LVU250
 749              		.loc 2 55 3 view .LVU251
 750              		.loc 2 55 20 is_stmt 0 view .LVU252
 751 0018 00C090E5 		ldr	ip, [r0]
 752              	.LBE74:
 753              	.LBE77:
 754              	.LBB78:
 755              	.LBB68:
 756              		.loc 1 89 28 view .LVU253
 757 001c 0030A0E1 		mov	r3, r0
 758              	.LBE68:
 759              	.LBE78:
 760              	.LBB79:
 761              	.LBB75:
 762              		.loc 2 55 38 view .LVU254
 763 0020 04208CE5 		str	r2, [ip, #4]
 764              		.loc 2 56 3 is_stmt 1 view .LVU255
 765              	.LVL46:
 766              		.loc 2 56 3 is_stmt 0 view .LVU256
 767              	.LBE75:
 768              	.LBE79:
 769              		.loc 1 303 18 view .LVU257
 770 0024 1C40C0E5 		strb	r4, [r0, #28]
 771              	.LBB80:
 772              	.LBB76:
 773              		.loc 2 55 16 view .LVU258
 774 0028 00C082E5 		str	ip, [r2]
 775              	.LBE76:
 776              	.LBE80:
 777              	.LBB81:
 778              	.LBB69:
 779              		.loc 1 85 15 view .LVU259
 780 002c 1CE0C1E5 		strb	lr, [r1, #28]
 781              		.loc 1 89 28 view .LVU260
 782 0030 08C091E5 		ldr	ip, [r1, #8]
 783              	.LBE69:
 784              	.LBE81:
 785              		.loc 1 302 3 view .LVU261
 786 0034 180082E5 		str	r0, [r2, #24]
 787              		.loc 1 303 3 is_stmt 1 view .LVU262
 788              		.loc 1 307 3 view .LVU263
 789              	.LVL47:
 790              	.LBB82:
 791              	.LBI66:
 792              		.loc 1 74 9 view .LVU264
 793              	.LBB70:
 794              		.loc 1 75 3 view .LVU265
 795              		.loc 1 77 3 view .LVU266
 796              		.loc 1 77 21 view .LVU267
 797              		.loc 1 80 3 view .LVU268
 798              		.loc 1 83 31 view .LVU269
ARM GAS  /var/folders/l5/0x54b2c10074c8bt31ycjvl80000gp/T//ccIsYVMU.s 			page 15


 799              		.loc 1 85 3 view .LVU270
 800              		.loc 1 86 3 view .LVU271
 801              		.loc 1 86 3 is_stmt 0 view .LVU272
 802 0038 000000EA 		b	.L50
 803              	.LVL48:
 804              	.L52:
 805              		.loc 1 86 3 view .LVU273
 806 003c 003093E5 		ldr	r3, [r3]
 807              	.L50:
 808              		.loc 1 87 3 is_stmt 1 view .LVU274
 809              		.loc 1 88 5 view .LVU275
 810              		.loc 1 89 3 is_stmt 0 view .LVU276
 811 0040 082093E5 		ldr	r2, [r3, #8]
 812 0044 0C0052E1 		cmp	r2, ip
 813 0048 FBFFFF2A 		bcs	.L52
 814              		.loc 1 91 3 is_stmt 1 view .LVU277
 815              	.LBE70:
 816              	.LBE82:
 817              		.loc 1 309 1 is_stmt 0 view .LVU278
 818 004c 1040BDE8 		pop	{r4, lr}
 819              		.cfi_restore 14
 820              		.cfi_restore 4
 821              		.cfi_def_cfa_offset 0
 822              	.LBB83:
 823              	.LBB71:
 824              		.loc 1 92 18 view .LVU279
 825 0050 042093E5 		ldr	r2, [r3, #4]
 826              		.loc 1 91 14 view .LVU280
 827 0054 003081E5 		str	r3, [r1]
 828              		.loc 1 92 3 is_stmt 1 view .LVU281
 829              		.loc 1 92 14 is_stmt 0 view .LVU282
 830 0058 042081E5 		str	r2, [r1, #4]
 831              		.loc 1 93 3 is_stmt 1 view .LVU283
 832              		.loc 1 93 35 is_stmt 0 view .LVU284
 833 005c 041083E5 		str	r1, [r3, #4]
 834              		.loc 1 93 22 view .LVU285
 835 0060 043091E5 		ldr	r3, [r1, #4]
 836 0064 001083E5 		str	r1, [r3]
 837              		.loc 1 94 3 is_stmt 1 view .LVU286
 838              	.LVL49:
 839              		.loc 1 94 3 is_stmt 0 view .LVU287
 840              	.LBE71:
 841              	.LBE83:
 842              		.loc 1 308 3 is_stmt 1 view .LVU288
 843              		.loc 1 308 3 view .LVU289
 844              		.loc 1 308 3 view .LVU290
 845              		.loc 1 308 3 view .LVU291
 846 0068 FEFFFFEA 		b	_port_switch_arm
 847              	.LVL50:
 848              	.L54:
 849              		.loc 1 308 3 is_stmt 0 view .LVU292
 850              		.align	2
 851              	.L53:
 852 006c 00000000 		.word	rlist
 853              		.cfi_endproc
 854              	.LFE15:
 855              		.size	chSchDoRescheduleBehind, .-chSchDoRescheduleBehind
ARM GAS  /var/folders/l5/0x54b2c10074c8bt31ycjvl80000gp/T//ccIsYVMU.s 			page 16


 856              		.section	.text.chSchDoRescheduleAhead,"ax",%progbits
 857              		.align	2
 858              		.global	chSchDoRescheduleAhead
 859              		.syntax unified
 860              		.arm
 861              		.fpu softvfp
 862              		.type	chSchDoRescheduleAhead, %function
 863              	chSchDoRescheduleAhead:
 864              	.LFB16:
 865              		.loc 1 322 35 is_stmt 1 view -0
 866              		.cfi_startproc
 867              		@ args = 0, pretend = 0, frame = 0
 868              		@ frame_needed = 0, uses_anonymous_args = 0
 869              		.loc 1 323 3 view .LVU294
 870              		.loc 1 325 3 view .LVU295
 871              		.loc 1 322 35 is_stmt 0 view .LVU296
 872 0000 10402DE9 		push	{r4, lr}
 873              		.cfi_def_cfa_offset 8
 874              		.cfi_offset 4, -8
 875              		.cfi_offset 14, -4
 876              		.loc 1 328 18 view .LVU297
 877 0004 0140A0E3 		mov	r4, #1
 878              		.loc 1 330 16 view .LVU298
 879 0008 00E0A0E3 		mov	lr, #0
 880              		.loc 1 325 7 view .LVU299
 881 000c 58209FE5 		ldr	r2, .L60
 882              	.LBB84:
 883              	.LBB85:
 884              		.loc 2 53 11 view .LVU300
 885 0010 000092E5 		ldr	r0, [r2]
 886              	.LBE85:
 887              	.LBE84:
 888              		.loc 1 325 7 view .LVU301
 889 0014 181092E5 		ldr	r1, [r2, #24]
 890              	.LVL51:
 891              		.loc 1 327 3 is_stmt 1 view .LVU302
 892              	.LBB89:
 893              	.LBI84:
 894              		.loc 2 52 23 view .LVU303
 895              	.LBB86:
 896              		.loc 2 53 3 view .LVU304
 897              		.loc 2 55 3 view .LVU305
 898              		.loc 2 55 20 is_stmt 0 view .LVU306
 899 0018 00C090E5 		ldr	ip, [r0]
 900              	.LBE86:
 901              	.LBE89:
 902              		.loc 1 334 28 view .LVU307
 903 001c 0030A0E1 		mov	r3, r0
 904              	.LBB90:
 905              	.LBB87:
 906              		.loc 2 55 38 view .LVU308
 907 0020 04208CE5 		str	r2, [ip, #4]
 908              		.loc 2 56 3 is_stmt 1 view .LVU309
 909              	.LVL52:
 910              		.loc 2 56 3 is_stmt 0 view .LVU310
 911              	.LBE87:
 912              	.LBE90:
ARM GAS  /var/folders/l5/0x54b2c10074c8bt31ycjvl80000gp/T//ccIsYVMU.s 			page 17


 913              		.loc 1 328 18 view .LVU311
 914 0024 1C40C0E5 		strb	r4, [r0, #28]
 915              	.LBB91:
 916              	.LBB88:
 917              		.loc 2 55 16 view .LVU312
 918 0028 00C082E5 		str	ip, [r2]
 919              	.LBE88:
 920              	.LBE91:
 921              		.loc 1 330 16 view .LVU313
 922 002c 1CE0C1E5 		strb	lr, [r1, #28]
 923              		.loc 1 334 28 view .LVU314
 924 0030 08C091E5 		ldr	ip, [r1, #8]
 925              		.loc 1 327 3 view .LVU315
 926 0034 180082E5 		str	r0, [r2, #24]
 927              		.loc 1 328 3 is_stmt 1 view .LVU316
 928              		.loc 1 330 3 view .LVU317
 929              		.loc 1 331 3 view .LVU318
 930              	.LVL53:
 931              		.loc 1 331 3 is_stmt 0 view .LVU319
 932 0038 000000EA 		b	.L57
 933              	.LVL54:
 934              	.L59:
 935              		.loc 1 331 3 view .LVU320
 936 003c 003093E5 		ldr	r3, [r3]
 937              	.L57:
 938              		.loc 1 332 3 is_stmt 1 discriminator 1 view .LVU321
 939              		.loc 1 333 5 discriminator 1 view .LVU322
 940              		.loc 1 334 3 is_stmt 0 discriminator 1 view .LVU323
 941 0040 082093E5 		ldr	r2, [r3, #8]
 942 0044 0C0052E1 		cmp	r2, ip
 943 0048 FBFFFF8A 		bhi	.L59
 944              		.loc 1 336 3 is_stmt 1 view .LVU324
 945              		.loc 1 341 1 is_stmt 0 view .LVU325
 946 004c 1040BDE8 		pop	{r4, lr}
 947              		.cfi_restore 14
 948              		.cfi_restore 4
 949              		.cfi_def_cfa_offset 0
 950              		.loc 1 337 19 view .LVU326
 951 0050 042093E5 		ldr	r2, [r3, #4]
 952              		.loc 1 336 15 view .LVU327
 953 0054 003081E5 		str	r3, [r1]
 954              		.loc 1 337 3 is_stmt 1 view .LVU328
 955              		.loc 1 337 15 is_stmt 0 view .LVU329
 956 0058 042081E5 		str	r2, [r1, #4]
 957              		.loc 1 338 3 is_stmt 1 view .LVU330
 958              		.loc 1 338 36 is_stmt 0 view .LVU331
 959 005c 041083E5 		str	r1, [r3, #4]
 960              		.loc 1 338 23 view .LVU332
 961 0060 043091E5 		ldr	r3, [r1, #4]
 962 0064 001083E5 		str	r1, [r3]
 963              		.loc 1 340 3 is_stmt 1 view .LVU333
 964              		.loc 1 340 3 view .LVU334
 965              		.loc 1 340 3 view .LVU335
 966              		.loc 1 340 3 view .LVU336
 967 0068 FEFFFFEA 		b	_port_switch_arm
 968              	.LVL55:
 969              	.L61:
ARM GAS  /var/folders/l5/0x54b2c10074c8bt31ycjvl80000gp/T//ccIsYVMU.s 			page 18


 970              		.loc 1 340 3 is_stmt 0 view .LVU337
 971              		.align	2
 972              	.L60:
 973 006c 00000000 		.word	rlist
 974              		.cfi_endproc
 975              	.LFE16:
 976              		.size	chSchDoRescheduleAhead, .-chSchDoRescheduleAhead
 977              		.section	.text.chSchRescheduleS,"ax",%progbits
 978              		.align	2
 979              		.global	chSchRescheduleS
 980              		.syntax unified
 981              		.arm
 982              		.fpu softvfp
 983              		.type	chSchRescheduleS, %function
 984              	chSchRescheduleS:
 985              	.LFB13:
 986              		.loc 1 246 29 is_stmt 1 view -0
 987              		.cfi_startproc
 988              		@ args = 0, pretend = 0, frame = 0
 989              		@ frame_needed = 0, uses_anonymous_args = 0
 990              		@ link register save eliminated.
 991              		.loc 1 248 3 view .LVU339
 992              		.loc 1 248 21 view .LVU340
 993              		.loc 1 250 3 view .LVU341
 994              		.loc 1 250 7 is_stmt 0 view .LVU342
 995 0000 18309FE5 		ldr	r3, .L64
 996 0004 002093E5 		ldr	r2, [r3]
 997 0008 183093E5 		ldr	r3, [r3, #24]
 998              		.loc 1 250 6 view .LVU343
 999 000c 082092E5 		ldr	r2, [r2, #8]
 1000 0010 083093E5 		ldr	r3, [r3, #8]
 1001 0014 030052E1 		cmp	r2, r3
 1002 0018 1EFF2F91 		bxls	lr
 1003              		.loc 1 251 5 is_stmt 1 view .LVU344
 1004 001c FEFFFFEA 		b	chSchDoRescheduleAhead
 1005              	.LVL56:
 1006              	.L65:
 1007              		.align	2
 1008              	.L64:
 1009 0020 00000000 		.word	rlist
 1010              		.cfi_endproc
 1011              	.LFE13:
 1012              		.size	chSchRescheduleS, .-chSchRescheduleS
 1013              		.section	.text.chSchDoReschedule,"ax",%progbits
 1014              		.align	2
 1015              		.global	chSchDoReschedule
 1016              		.syntax unified
 1017              		.arm
 1018              		.fpu softvfp
 1019              		.type	chSchDoReschedule, %function
 1020              	chSchDoReschedule:
 1021              	.LFB17:
 1022              		.loc 1 355 30 view -0
 1023              		.cfi_startproc
 1024              		@ args = 0, pretend = 0, frame = 0
 1025              		@ frame_needed = 0, uses_anonymous_args = 0
 1026              		@ link register save eliminated.
ARM GAS  /var/folders/l5/0x54b2c10074c8bt31ycjvl80000gp/T//ccIsYVMU.s 			page 19


 1027              		.loc 1 373 3 view .LVU346
 1028 0000 FEFFFFEA 		b	chSchDoRescheduleAhead
 1029              	.LVL57:
 1030              		.cfi_endproc
 1031              	.LFE17:
 1032              		.size	chSchDoReschedule, .-chSchDoReschedule
 1033              		.comm	rlist,28,4
 1034              		.text
 1035              	.Letext0:
 1036              		.file 3 "/usr/local/Cellar/arm-gcc-bin/8-2019-q3-update/arm-none-eabi/include/machine/_default_typ
 1037              		.file 4 "/usr/local/Cellar/arm-gcc-bin/8-2019-q3-update/arm-none-eabi/include/sys/_stdint.h"
 1038              		.file 5 "../../os/ports/GCC/ARM/chtypes.h"
 1039              		.file 6 "../../os/kernel/include/chlists.h"
 1040              		.file 7 "../../os/kernel/include/chthreads.h"
 1041              		.file 8 "../../os/ports/GCC/ARM/chcore.h"
 1042              		.file 9 "../../os/kernel/include/chvt.h"
 1043              		.file 10 "../../os/kernel/include/chschd.h"
 1044              		.file 11 "../../os/kernel/include/chsem.h"
 1045              		.file 12 "../../os/kernel/include/chmtx.h"
 1046              		.file 13 "../../os/kernel/include/chregistry.h"
 1047              		.file 14 "../../os/kernel/include/ch.h"
 1048              		.section	.debug_info,"",%progbits
 1049              	.Ldebug_info0:
 1050 0000 2F0C0000 		.4byte	0xc2f
 1051 0004 0400     		.2byte	0x4
 1052 0006 00000000 		.4byte	.Ldebug_abbrev0
 1053 000a 04       		.byte	0x4
 1054 000b 01       		.uleb128 0x1
 1055 000c 19020000 		.4byte	.LASF116
 1056 0010 0C       		.byte	0xc
 1057 0011 44050000 		.4byte	.LASF117
 1058 0015 A8050000 		.4byte	.LASF118
 1059 0019 28010000 		.4byte	.Ldebug_ranges0+0x128
 1060 001d 00000000 		.4byte	0
 1061 0021 00000000 		.4byte	.Ldebug_line0
 1062 0025 02       		.uleb128 0x2
 1063 0026 04       		.byte	0x4
 1064 0027 05       		.byte	0x5
 1065 0028 696E7400 		.ascii	"int\000"
 1066 002c 03       		.uleb128 0x3
 1067 002d 04       		.byte	0x4
 1068 002e 07       		.byte	0x7
 1069 002f 8C010000 		.4byte	.LASF0
 1070 0033 03       		.uleb128 0x3
 1071 0034 01       		.byte	0x1
 1072 0035 06       		.byte	0x6
 1073 0036 A2000000 		.4byte	.LASF1
 1074 003a 04       		.uleb128 0x4
 1075 003b 31000000 		.4byte	.LASF4
 1076 003f 03       		.byte	0x3
 1077 0040 2B       		.byte	0x2b
 1078 0041 18       		.byte	0x18
 1079 0042 46000000 		.4byte	0x46
 1080 0046 03       		.uleb128 0x3
 1081 0047 01       		.byte	0x1
 1082 0048 08       		.byte	0x8
 1083 0049 E3030000 		.4byte	.LASF2
ARM GAS  /var/folders/l5/0x54b2c10074c8bt31ycjvl80000gp/T//ccIsYVMU.s 			page 20


 1084 004d 03       		.uleb128 0x3
 1085 004e 02       		.byte	0x2
 1086 004f 05       		.byte	0x5
 1087 0050 04040000 		.4byte	.LASF3
 1088 0054 04       		.uleb128 0x4
 1089 0055 B6040000 		.4byte	.LASF5
 1090 0059 03       		.byte	0x3
 1091 005a 39       		.byte	0x39
 1092 005b 19       		.byte	0x19
 1093 005c 60000000 		.4byte	0x60
 1094 0060 03       		.uleb128 0x3
 1095 0061 02       		.byte	0x2
 1096 0062 07       		.byte	0x7
 1097 0063 EB010000 		.4byte	.LASF6
 1098 0067 04       		.uleb128 0x4
 1099 0068 E9040000 		.4byte	.LASF7
 1100 006c 03       		.byte	0x3
 1101 006d 4D       		.byte	0x4d
 1102 006e 18       		.byte	0x18
 1103 006f 73000000 		.4byte	0x73
 1104 0073 03       		.uleb128 0x3
 1105 0074 04       		.byte	0x4
 1106 0075 05       		.byte	0x5
 1107 0076 E8000000 		.4byte	.LASF8
 1108 007a 04       		.uleb128 0x4
 1109 007b 58010000 		.4byte	.LASF9
 1110 007f 03       		.byte	0x3
 1111 0080 4F       		.byte	0x4f
 1112 0081 19       		.byte	0x19
 1113 0082 86000000 		.4byte	0x86
 1114 0086 03       		.uleb128 0x3
 1115 0087 04       		.byte	0x4
 1116 0088 07       		.byte	0x7
 1117 0089 B9010000 		.4byte	.LASF10
 1118 008d 03       		.uleb128 0x3
 1119 008e 08       		.byte	0x8
 1120 008f 05       		.byte	0x5
 1121 0090 94000000 		.4byte	.LASF11
 1122 0094 03       		.uleb128 0x3
 1123 0095 08       		.byte	0x8
 1124 0096 07       		.byte	0x7
 1125 0097 42000000 		.4byte	.LASF12
 1126 009b 04       		.uleb128 0x4
 1127 009c 67050000 		.4byte	.LASF13
 1128 00a0 04       		.byte	0x4
 1129 00a1 18       		.byte	0x18
 1130 00a2 13       		.byte	0x13
 1131 00a3 3A000000 		.4byte	0x3a
 1132 00a7 04       		.uleb128 0x4
 1133 00a8 FA000000 		.4byte	.LASF14
 1134 00ac 04       		.byte	0x4
 1135 00ad 24       		.byte	0x24
 1136 00ae 14       		.byte	0x14
 1137 00af 54000000 		.4byte	0x54
 1138 00b3 04       		.uleb128 0x4
 1139 00b4 DB030000 		.4byte	.LASF15
 1140 00b8 04       		.byte	0x4
ARM GAS  /var/folders/l5/0x54b2c10074c8bt31ycjvl80000gp/T//ccIsYVMU.s 			page 21


 1141 00b9 2C       		.byte	0x2c
 1142 00ba 13       		.byte	0x13
 1143 00bb 67000000 		.4byte	0x67
 1144 00bf 04       		.uleb128 0x4
 1145 00c0 7B040000 		.4byte	.LASF16
 1146 00c4 04       		.byte	0x4
 1147 00c5 30       		.byte	0x30
 1148 00c6 14       		.byte	0x14
 1149 00c7 7A000000 		.4byte	0x7a
 1150 00cb 04       		.uleb128 0x4
 1151 00cc CB000000 		.4byte	.LASF17
 1152 00d0 05       		.byte	0x5
 1153 00d1 29       		.byte	0x29
 1154 00d2 19       		.byte	0x19
 1155 00d3 B3000000 		.4byte	0xb3
 1156 00d7 04       		.uleb128 0x4
 1157 00d8 E9020000 		.4byte	.LASF18
 1158 00dc 05       		.byte	0x5
 1159 00dd 2A       		.byte	0x2a
 1160 00de 19       		.byte	0x19
 1161 00df 9B000000 		.4byte	0x9b
 1162 00e3 04       		.uleb128 0x4
 1163 00e4 F1000000 		.4byte	.LASF19
 1164 00e8 05       		.byte	0x5
 1165 00e9 2B       		.byte	0x2b
 1166 00ea 19       		.byte	0x19
 1167 00eb 9B000000 		.4byte	0x9b
 1168 00ef 04       		.uleb128 0x4
 1169 00f0 B9030000 		.4byte	.LASF20
 1170 00f4 05       		.byte	0x5
 1171 00f5 2C       		.byte	0x2c
 1172 00f6 19       		.byte	0x19
 1173 00f7 9B000000 		.4byte	0x9b
 1174 00fb 04       		.uleb128 0x4
 1175 00fc D3030000 		.4byte	.LASF21
 1176 0100 05       		.byte	0x5
 1177 0101 2E       		.byte	0x2e
 1178 0102 19       		.byte	0x19
 1179 0103 BF000000 		.4byte	0xbf
 1180 0107 04       		.uleb128 0x4
 1181 0108 0B020000 		.4byte	.LASF22
 1182 010c 05       		.byte	0x5
 1183 010d 2F       		.byte	0x2f
 1184 010e 19       		.byte	0x19
 1185 010f B3000000 		.4byte	0xb3
 1186 0113 04       		.uleb128 0x4
 1187 0114 FD020000 		.4byte	.LASF23
 1188 0118 05       		.byte	0x5
 1189 0119 31       		.byte	0x31
 1190 011a 19       		.byte	0x19
 1191 011b BF000000 		.4byte	0xbf
 1192 011f 04       		.uleb128 0x4
 1193 0120 D4040000 		.4byte	.LASF24
 1194 0124 05       		.byte	0x5
 1195 0125 33       		.byte	0x33
 1196 0126 19       		.byte	0x19
 1197 0127 BF000000 		.4byte	0xbf
ARM GAS  /var/folders/l5/0x54b2c10074c8bt31ycjvl80000gp/T//ccIsYVMU.s 			page 22


 1198 012b 05       		.uleb128 0x5
 1199 012c 1F010000 		.4byte	0x11f
 1200 0130 04       		.uleb128 0x4
 1201 0131 86010000 		.4byte	.LASF25
 1202 0135 05       		.byte	0x5
 1203 0136 34       		.byte	0x34
 1204 0137 19       		.byte	0x19
 1205 0138 B3000000 		.4byte	0xb3
 1206 013c 04       		.uleb128 0x4
 1207 013d 4E040000 		.4byte	.LASF26
 1208 0141 06       		.byte	0x6
 1209 0142 23       		.byte	0x23
 1210 0143 17       		.byte	0x17
 1211 0144 48010000 		.4byte	0x148
 1212 0148 06       		.uleb128 0x6
 1213 0149 4E040000 		.4byte	.LASF26
 1214 014d 44       		.byte	0x44
 1215 014e 07       		.byte	0x7
 1216 014f 57       		.byte	0x57
 1217 0150 08       		.byte	0x8
 1218 0151 40020000 		.4byte	0x240
 1219 0155 07       		.uleb128 0x7
 1220 0156 30040000 		.4byte	.LASF27
 1221 015a 07       		.byte	0x7
 1222 015b 58       		.byte	0x58
 1223 015c 1A       		.byte	0x1a
 1224 015d 64020000 		.4byte	0x264
 1225 0161 00       		.byte	0
 1226 0162 07       		.uleb128 0x7
 1227 0163 CC030000 		.4byte	.LASF28
 1228 0167 07       		.byte	0x7
 1229 0168 5A       		.byte	0x5a
 1230 0169 1A       		.byte	0x1a
 1231 016a 64020000 		.4byte	0x264
 1232 016e 04       		.byte	0x4
 1233 016f 07       		.uleb128 0x7
 1234 0170 70000000 		.4byte	.LASF29
 1235 0174 07       		.byte	0x7
 1236 0175 5C       		.byte	0x5c
 1237 0176 19       		.byte	0x19
 1238 0177 FB000000 		.4byte	0xfb
 1239 017b 08       		.byte	0x8
 1240 017c 07       		.uleb128 0x7
 1241 017d FF050000 		.4byte	.LASF30
 1242 0181 07       		.byte	0x7
 1243 0182 5D       		.byte	0x5d
 1244 0183 19       		.byte	0x19
 1245 0184 2F030000 		.4byte	0x32f
 1246 0188 0C       		.byte	0xc
 1247 0189 07       		.uleb128 0x7
 1248 018a 27010000 		.4byte	.LASF31
 1249 018e 07       		.byte	0x7
 1250 018f 5F       		.byte	0x5f
 1251 0190 1A       		.byte	0x1a
 1252 0191 64020000 		.4byte	0x264
 1253 0195 10       		.byte	0x10
 1254 0196 07       		.uleb128 0x7
ARM GAS  /var/folders/l5/0x54b2c10074c8bt31ycjvl80000gp/T//ccIsYVMU.s 			page 23


 1255 0197 7F030000 		.4byte	.LASF32
 1256 019b 07       		.byte	0x7
 1257 019c 60       		.byte	0x60
 1258 019d 1A       		.byte	0x1a
 1259 019e 64020000 		.4byte	0x264
 1260 01a2 14       		.byte	0x14
 1261 01a3 07       		.uleb128 0x7
 1262 01a4 76050000 		.4byte	.LASF33
 1263 01a8 07       		.byte	0x7
 1264 01a9 67       		.byte	0x67
 1265 01aa 1A       		.byte	0x1a
 1266 01ab 49050000 		.4byte	0x549
 1267 01af 18       		.byte	0x18
 1268 01b0 07       		.uleb128 0x7
 1269 01b1 0E040000 		.4byte	.LASF34
 1270 01b5 07       		.byte	0x7
 1271 01b6 72       		.byte	0x72
 1272 01b7 19       		.byte	0x19
 1273 01b8 E3000000 		.4byte	0xe3
 1274 01bc 1C       		.byte	0x1c
 1275 01bd 07       		.uleb128 0x7
 1276 01be 46040000 		.4byte	.LASF35
 1277 01c2 07       		.byte	0x7
 1278 01c3 76       		.byte	0x76
 1279 01c4 19       		.byte	0x19
 1280 01c5 D7000000 		.4byte	0xd7
 1281 01c9 1D       		.byte	0x1d
 1282 01ca 07       		.uleb128 0x7
 1283 01cb 28050000 		.4byte	.LASF36
 1284 01cf 07       		.byte	0x7
 1285 01d0 7B       		.byte	0x7b
 1286 01d1 19       		.byte	0x19
 1287 01d2 EF000000 		.4byte	0xef
 1288 01d6 1E       		.byte	0x1e
 1289 01d7 07       		.uleb128 0x7
 1290 01d8 F3040000 		.4byte	.LASF37
 1291 01dc 07       		.byte	0x7
 1292 01dd 88       		.byte	0x88
 1293 01de 19       		.byte	0x19
 1294 01df 2B010000 		.4byte	0x12b
 1295 01e3 20       		.byte	0x20
 1296 01e4 08       		.uleb128 0x8
 1297 01e5 705F7500 		.ascii	"p_u\000"
 1298 01e9 07       		.byte	0x7
 1299 01ea AD       		.byte	0xad
 1300 01eb 19       		.byte	0x19
 1301 01ec 0F050000 		.4byte	0x50f
 1302 01f0 24       		.byte	0x24
 1303 01f1 07       		.uleb128 0x7
 1304 01f2 05060000 		.4byte	.LASF38
 1305 01f6 07       		.byte	0x7
 1306 01f7 B2       		.byte	0xb2
 1307 01f8 19       		.byte	0x19
 1308 01f9 8D020000 		.4byte	0x28d
 1309 01fd 28       		.byte	0x28
 1310 01fe 07       		.uleb128 0x7
 1311 01ff 01050000 		.4byte	.LASF39
ARM GAS  /var/folders/l5/0x54b2c10074c8bt31ycjvl80000gp/T//ccIsYVMU.s 			page 24


 1312 0203 07       		.byte	0x7
 1313 0204 B8       		.byte	0xb8
 1314 0205 19       		.byte	0x19
 1315 0206 6A020000 		.4byte	0x26a
 1316 020a 2C       		.byte	0x2c
 1317 020b 07       		.uleb128 0x7
 1318 020c 0D000000 		.4byte	.LASF40
 1319 0210 07       		.byte	0x7
 1320 0211 BC       		.byte	0xbc
 1321 0212 19       		.byte	0x19
 1322 0213 07010000 		.4byte	0x107
 1323 0217 34       		.byte	0x34
 1324 0218 07       		.uleb128 0x7
 1325 0219 70040000 		.4byte	.LASF41
 1326 021d 07       		.byte	0x7
 1327 021e C2       		.byte	0xc2
 1328 021f 19       		.byte	0x19
 1329 0220 13010000 		.4byte	0x113
 1330 0224 38       		.byte	0x38
 1331 0225 07       		.uleb128 0x7
 1332 0226 FA030000 		.4byte	.LASF42
 1333 022a 07       		.byte	0x7
 1334 022b C9       		.byte	0xc9
 1335 022c 1A       		.byte	0x1a
 1336 022d 5B050000 		.4byte	0x55b
 1337 0231 3C       		.byte	0x3c
 1338 0232 07       		.uleb128 0x7
 1339 0233 DE040000 		.4byte	.LASF43
 1340 0237 07       		.byte	0x7
 1341 0238 CD       		.byte	0xcd
 1342 0239 19       		.byte	0x19
 1343 023a FB000000 		.4byte	0xfb
 1344 023e 40       		.byte	0x40
 1345 023f 00       		.byte	0
 1346 0240 09       		.uleb128 0x9
 1347 0241 08       		.byte	0x8
 1348 0242 06       		.byte	0x6
 1349 0243 5A       		.byte	0x5a
 1350 0244 09       		.byte	0x9
 1351 0245 64020000 		.4byte	0x264
 1352 0249 07       		.uleb128 0x7
 1353 024a 30040000 		.4byte	.LASF27
 1354 024e 06       		.byte	0x6
 1355 024f 5B       		.byte	0x5b
 1356 0250 1A       		.byte	0x1a
 1357 0251 64020000 		.4byte	0x264
 1358 0255 00       		.byte	0
 1359 0256 07       		.uleb128 0x7
 1360 0257 CC030000 		.4byte	.LASF28
 1361 025b 06       		.byte	0x6
 1362 025c 5D       		.byte	0x5d
 1363 025d 1A       		.byte	0x1a
 1364 025e 64020000 		.4byte	0x264
 1365 0262 04       		.byte	0x4
 1366 0263 00       		.byte	0
 1367 0264 0A       		.uleb128 0xa
 1368 0265 04       		.byte	0x4
ARM GAS  /var/folders/l5/0x54b2c10074c8bt31ycjvl80000gp/T//ccIsYVMU.s 			page 25


 1369 0266 3C010000 		.4byte	0x13c
 1370 026a 04       		.uleb128 0x4
 1371 026b 8D030000 		.4byte	.LASF44
 1372 026f 06       		.byte	0x6
 1373 0270 5F       		.byte	0x5f
 1374 0271 03       		.byte	0x3
 1375 0272 40020000 		.4byte	0x240
 1376 0276 09       		.uleb128 0x9
 1377 0277 04       		.byte	0x4
 1378 0278 06       		.byte	0x6
 1379 0279 64       		.byte	0x64
 1380 027a 09       		.byte	0x9
 1381 027b 8D020000 		.4byte	0x28d
 1382 027f 07       		.uleb128 0x7
 1383 0280 30040000 		.4byte	.LASF27
 1384 0284 06       		.byte	0x6
 1385 0285 66       		.byte	0x66
 1386 0286 16       		.byte	0x16
 1387 0287 64020000 		.4byte	0x264
 1388 028b 00       		.byte	0
 1389 028c 00       		.byte	0
 1390 028d 04       		.uleb128 0x4
 1391 028e F1020000 		.4byte	.LASF45
 1392 0292 06       		.byte	0x6
 1393 0293 69       		.byte	0x69
 1394 0294 03       		.byte	0x3
 1395 0295 76020000 		.4byte	0x276
 1396 0299 04       		.uleb128 0x4
 1397 029a 0F030000 		.4byte	.LASF46
 1398 029e 08       		.byte	0x8
 1399 029f 9D       		.byte	0x9d
 1400 02a0 12       		.byte	0x12
 1401 02a1 BF000000 		.4byte	0xbf
 1402 02a5 04       		.uleb128 0x4
 1403 02a6 63010000 		.4byte	.LASF47
 1404 02aa 08       		.byte	0x8
 1405 02ab A2       		.byte	0xa2
 1406 02ac 0F       		.byte	0xf
 1407 02ad B1020000 		.4byte	0x2b1
 1408 02b1 0B       		.uleb128 0xb
 1409 02b2 04       		.byte	0x4
 1410 02b3 06       		.uleb128 0x6
 1411 02b4 FA040000 		.4byte	.LASF48
 1412 02b8 24       		.byte	0x24
 1413 02b9 08       		.byte	0x8
 1414 02ba B9       		.byte	0xb9
 1415 02bb 08       		.byte	0x8
 1416 02bc 2F030000 		.4byte	0x32f
 1417 02c0 08       		.uleb128 0x8
 1418 02c1 723400   		.ascii	"r4\000"
 1419 02c4 08       		.byte	0x8
 1420 02c5 BA       		.byte	0xba
 1421 02c6 11       		.byte	0x11
 1422 02c7 A5020000 		.4byte	0x2a5
 1423 02cb 00       		.byte	0
 1424 02cc 08       		.uleb128 0x8
 1425 02cd 723500   		.ascii	"r5\000"
ARM GAS  /var/folders/l5/0x54b2c10074c8bt31ycjvl80000gp/T//ccIsYVMU.s 			page 26


 1426 02d0 08       		.byte	0x8
 1427 02d1 BB       		.byte	0xbb
 1428 02d2 11       		.byte	0x11
 1429 02d3 A5020000 		.4byte	0x2a5
 1430 02d7 04       		.byte	0x4
 1431 02d8 08       		.uleb128 0x8
 1432 02d9 723600   		.ascii	"r6\000"
 1433 02dc 08       		.byte	0x8
 1434 02dd BC       		.byte	0xbc
 1435 02de 11       		.byte	0x11
 1436 02df A5020000 		.4byte	0x2a5
 1437 02e3 08       		.byte	0x8
 1438 02e4 08       		.uleb128 0x8
 1439 02e5 723700   		.ascii	"r7\000"
 1440 02e8 08       		.byte	0x8
 1441 02e9 BD       		.byte	0xbd
 1442 02ea 11       		.byte	0x11
 1443 02eb A5020000 		.4byte	0x2a5
 1444 02ef 0C       		.byte	0xc
 1445 02f0 08       		.uleb128 0x8
 1446 02f1 723800   		.ascii	"r8\000"
 1447 02f4 08       		.byte	0x8
 1448 02f5 BE       		.byte	0xbe
 1449 02f6 11       		.byte	0x11
 1450 02f7 A5020000 		.4byte	0x2a5
 1451 02fb 10       		.byte	0x10
 1452 02fc 08       		.uleb128 0x8
 1453 02fd 723900   		.ascii	"r9\000"
 1454 0300 08       		.byte	0x8
 1455 0301 BF       		.byte	0xbf
 1456 0302 11       		.byte	0x11
 1457 0303 A5020000 		.4byte	0x2a5
 1458 0307 14       		.byte	0x14
 1459 0308 08       		.uleb128 0x8
 1460 0309 72313000 		.ascii	"r10\000"
 1461 030d 08       		.byte	0x8
 1462 030e C0       		.byte	0xc0
 1463 030f 11       		.byte	0x11
 1464 0310 A5020000 		.4byte	0x2a5
 1465 0314 18       		.byte	0x18
 1466 0315 08       		.uleb128 0x8
 1467 0316 72313100 		.ascii	"r11\000"
 1468 031a 08       		.byte	0x8
 1469 031b C1       		.byte	0xc1
 1470 031c 11       		.byte	0x11
 1471 031d A5020000 		.4byte	0x2a5
 1472 0321 1C       		.byte	0x1c
 1473 0322 08       		.uleb128 0x8
 1474 0323 6C7200   		.ascii	"lr\000"
 1475 0326 08       		.byte	0x8
 1476 0327 C2       		.byte	0xc2
 1477 0328 11       		.byte	0x11
 1478 0329 A5020000 		.4byte	0x2a5
 1479 032d 20       		.byte	0x20
 1480 032e 00       		.byte	0
 1481 032f 06       		.uleb128 0x6
 1482 0330 E3010000 		.4byte	.LASF49
ARM GAS  /var/folders/l5/0x54b2c10074c8bt31ycjvl80000gp/T//ccIsYVMU.s 			page 27


 1483 0334 04       		.byte	0x4
 1484 0335 08       		.byte	0x8
 1485 0336 CA       		.byte	0xca
 1486 0337 08       		.byte	0x8
 1487 0338 4A030000 		.4byte	0x34a
 1488 033c 08       		.uleb128 0x8
 1489 033d 72313300 		.ascii	"r13\000"
 1490 0341 08       		.byte	0x8
 1491 0342 CB       		.byte	0xcb
 1492 0343 12       		.byte	0x12
 1493 0344 4A030000 		.4byte	0x34a
 1494 0348 00       		.byte	0
 1495 0349 00       		.byte	0
 1496 034a 0A       		.uleb128 0xa
 1497 034b 04       		.byte	0x4
 1498 034c B3020000 		.4byte	0x2b3
 1499 0350 04       		.uleb128 0x4
 1500 0351 D4010000 		.4byte	.LASF50
 1501 0355 09       		.byte	0x9
 1502 0356 4E       		.byte	0x4e
 1503 0357 10       		.byte	0x10
 1504 0358 5C030000 		.4byte	0x35c
 1505 035c 0A       		.uleb128 0xa
 1506 035d 04       		.byte	0x4
 1507 035e 62030000 		.4byte	0x362
 1508 0362 0C       		.uleb128 0xc
 1509 0363 6D030000 		.4byte	0x36d
 1510 0367 0D       		.uleb128 0xd
 1511 0368 B1020000 		.4byte	0x2b1
 1512 036c 00       		.byte	0
 1513 036d 04       		.uleb128 0x4
 1514 036e 98040000 		.4byte	.LASF51
 1515 0372 09       		.byte	0x9
 1516 0373 53       		.byte	0x53
 1517 0374 1D       		.byte	0x1d
 1518 0375 79030000 		.4byte	0x379
 1519 0379 06       		.uleb128 0x6
 1520 037a 98040000 		.4byte	.LASF51
 1521 037e 14       		.byte	0x14
 1522 037f 09       		.byte	0x9
 1523 0380 5A       		.byte	0x5a
 1524 0381 08       		.byte	0x8
 1525 0382 C8030000 		.4byte	0x3c8
 1526 0386 07       		.uleb128 0x7
 1527 0387 A0010000 		.4byte	.LASF52
 1528 038b 09       		.byte	0x9
 1529 038c 5B       		.byte	0x5b
 1530 038d 1A       		.byte	0x1a
 1531 038e C8030000 		.4byte	0x3c8
 1532 0392 00       		.byte	0
 1533 0393 07       		.uleb128 0x7
 1534 0394 6C010000 		.4byte	.LASF53
 1535 0398 09       		.byte	0x9
 1536 0399 5D       		.byte	0x5d
 1537 039a 1A       		.byte	0x1a
 1538 039b C8030000 		.4byte	0x3c8
 1539 039f 04       		.byte	0x4
ARM GAS  /var/folders/l5/0x54b2c10074c8bt31ycjvl80000gp/T//ccIsYVMU.s 			page 28


 1540 03a0 07       		.uleb128 0x7
 1541 03a1 2E030000 		.4byte	.LASF54
 1542 03a5 09       		.byte	0x9
 1543 03a6 5F       		.byte	0x5f
 1544 03a7 19       		.byte	0x19
 1545 03a8 1F010000 		.4byte	0x11f
 1546 03ac 08       		.byte	0x8
 1547 03ad 07       		.uleb128 0x7
 1548 03ae 36030000 		.4byte	.LASF55
 1549 03b2 09       		.byte	0x9
 1550 03b3 60       		.byte	0x60
 1551 03b4 19       		.byte	0x19
 1552 03b5 50030000 		.4byte	0x350
 1553 03b9 0C       		.byte	0xc
 1554 03ba 07       		.uleb128 0x7
 1555 03bb 0C050000 		.4byte	.LASF56
 1556 03bf 09       		.byte	0x9
 1557 03c0 62       		.byte	0x62
 1558 03c1 1A       		.byte	0x1a
 1559 03c2 B1020000 		.4byte	0x2b1
 1560 03c6 10       		.byte	0x10
 1561 03c7 00       		.byte	0
 1562 03c8 0A       		.uleb128 0xa
 1563 03c9 04       		.byte	0x4
 1564 03ca 6D030000 		.4byte	0x36d
 1565 03ce 09       		.uleb128 0x9
 1566 03cf 10       		.byte	0x10
 1567 03d0 09       		.byte	0x9
 1568 03d1 6C       		.byte	0x6c
 1569 03d2 09       		.byte	0x9
 1570 03d3 0C040000 		.4byte	0x40c
 1571 03d7 07       		.uleb128 0x7
 1572 03d8 A0010000 		.4byte	.LASF52
 1573 03dc 09       		.byte	0x9
 1574 03dd 6D       		.byte	0x6d
 1575 03de 1A       		.byte	0x1a
 1576 03df C8030000 		.4byte	0x3c8
 1577 03e3 00       		.byte	0
 1578 03e4 07       		.uleb128 0x7
 1579 03e5 6C010000 		.4byte	.LASF53
 1580 03e9 09       		.byte	0x9
 1581 03ea 6F       		.byte	0x6f
 1582 03eb 1A       		.byte	0x1a
 1583 03ec C8030000 		.4byte	0x3c8
 1584 03f0 04       		.byte	0x4
 1585 03f1 07       		.uleb128 0x7
 1586 03f2 2E030000 		.4byte	.LASF54
 1587 03f6 09       		.byte	0x9
 1588 03f7 71       		.byte	0x71
 1589 03f8 19       		.byte	0x19
 1590 03f9 1F010000 		.4byte	0x11f
 1591 03fd 08       		.byte	0x8
 1592 03fe 07       		.uleb128 0x7
 1593 03ff 7D050000 		.4byte	.LASF57
 1594 0403 09       		.byte	0x9
 1595 0404 72       		.byte	0x72
 1596 0405 19       		.byte	0x19
ARM GAS  /var/folders/l5/0x54b2c10074c8bt31ycjvl80000gp/T//ccIsYVMU.s 			page 29


 1597 0406 2B010000 		.4byte	0x12b
 1598 040a 0C       		.byte	0xc
 1599 040b 00       		.byte	0
 1600 040c 04       		.uleb128 0x4
 1601 040d F0050000 		.4byte	.LASF58
 1602 0411 09       		.byte	0x9
 1603 0412 73       		.byte	0x73
 1604 0413 03       		.byte	0x3
 1605 0414 CE030000 		.4byte	0x3ce
 1606 0418 0E       		.uleb128 0xe
 1607 0419 3B000000 		.4byte	.LASF66
 1608 041d 09       		.byte	0x9
 1609 041e D1       		.byte	0xd1
 1610 041f 0F       		.byte	0xf
 1611 0420 0C040000 		.4byte	0x40c
 1612 0424 09       		.uleb128 0x9
 1613 0425 1C       		.byte	0x1c
 1614 0426 0A       		.byte	0xa
 1615 0427 57       		.byte	0x57
 1616 0428 09       		.byte	0x9
 1617 0429 7C040000 		.4byte	0x47c
 1618 042d 07       		.uleb128 0x7
 1619 042e 90040000 		.4byte	.LASF59
 1620 0432 0A       		.byte	0xa
 1621 0433 58       		.byte	0x58
 1622 0434 19       		.byte	0x19
 1623 0435 6A020000 		.4byte	0x26a
 1624 0439 00       		.byte	0
 1625 043a 07       		.uleb128 0x7
 1626 043b 22040000 		.4byte	.LASF60
 1627 043f 0A       		.byte	0xa
 1628 0440 59       		.byte	0x59
 1629 0441 19       		.byte	0x19
 1630 0442 FB000000 		.4byte	0xfb
 1631 0446 08       		.byte	0x8
 1632 0447 07       		.uleb128 0x7
 1633 0448 87030000 		.4byte	.LASF61
 1634 044c 0A       		.byte	0xa
 1635 044d 5B       		.byte	0x5b
 1636 044e 19       		.byte	0x19
 1637 044f 2F030000 		.4byte	0x32f
 1638 0453 0C       		.byte	0xc
 1639 0454 07       		.uleb128 0x7
 1640 0455 11020000 		.4byte	.LASF62
 1641 0459 0A       		.byte	0xa
 1642 045a 5E       		.byte	0x5e
 1643 045b 1A       		.byte	0x1a
 1644 045c 64020000 		.4byte	0x264
 1645 0460 10       		.byte	0x10
 1646 0461 07       		.uleb128 0x7
 1647 0462 B1030000 		.4byte	.LASF63
 1648 0466 0A       		.byte	0xa
 1649 0467 5F       		.byte	0x5f
 1650 0468 1A       		.byte	0x1a
 1651 0469 64020000 		.4byte	0x264
 1652 046d 14       		.byte	0x14
 1653 046e 07       		.uleb128 0x7
ARM GAS  /var/folders/l5/0x54b2c10074c8bt31ycjvl80000gp/T//ccIsYVMU.s 			page 30


 1654 046f A7030000 		.4byte	.LASF64
 1655 0473 0A       		.byte	0xa
 1656 0474 62       		.byte	0x62
 1657 0475 1A       		.byte	0x1a
 1658 0476 64020000 		.4byte	0x264
 1659 047a 18       		.byte	0x18
 1660 047b 00       		.byte	0
 1661 047c 04       		.uleb128 0x4
 1662 047d 3A050000 		.4byte	.LASF65
 1663 0481 0A       		.byte	0xa
 1664 0482 64       		.byte	0x64
 1665 0483 03       		.byte	0x3
 1666 0484 24040000 		.4byte	0x424
 1667 0488 0E       		.uleb128 0xe
 1668 0489 61050000 		.4byte	.LASF67
 1669 048d 0A       		.byte	0xa
 1670 048e 68       		.byte	0x68
 1671 048f 12       		.byte	0x12
 1672 0490 7C040000 		.4byte	0x47c
 1673 0494 06       		.uleb128 0x6
 1674 0495 13050000 		.4byte	.LASF68
 1675 0499 0C       		.byte	0xc
 1676 049a 0B       		.byte	0xb
 1677 049b 25       		.byte	0x25
 1678 049c 10       		.byte	0x10
 1679 049d BC040000 		.4byte	0x4bc
 1680 04a1 07       		.uleb128 0x7
 1681 04a2 3F010000 		.4byte	.LASF69
 1682 04a6 0B       		.byte	0xb
 1683 04a7 26       		.byte	0x26
 1684 04a8 19       		.byte	0x19
 1685 04a9 6A020000 		.4byte	0x26a
 1686 04ad 00       		.byte	0
 1687 04ae 07       		.uleb128 0x7
 1688 04af DD010000 		.4byte	.LASF70
 1689 04b3 0B       		.byte	0xb
 1690 04b4 28       		.byte	0x28
 1691 04b5 19       		.byte	0x19
 1692 04b6 30010000 		.4byte	0x130
 1693 04ba 08       		.byte	0x8
 1694 04bb 00       		.byte	0
 1695 04bc 04       		.uleb128 0x4
 1696 04bd 13050000 		.4byte	.LASF68
 1697 04c1 0B       		.byte	0xb
 1698 04c2 29       		.byte	0x29
 1699 04c3 03       		.byte	0x3
 1700 04c4 94040000 		.4byte	0x494
 1701 04c8 06       		.uleb128 0x6
 1702 04c9 09030000 		.4byte	.LASF71
 1703 04cd 10       		.byte	0x10
 1704 04ce 0C       		.byte	0xc
 1705 04cf 25       		.byte	0x25
 1706 04d0 10       		.byte	0x10
 1707 04d1 FD040000 		.4byte	0x4fd
 1708 04d5 07       		.uleb128 0x7
 1709 04d6 D2000000 		.4byte	.LASF72
 1710 04da 0C       		.byte	0xc
ARM GAS  /var/folders/l5/0x54b2c10074c8bt31ycjvl80000gp/T//ccIsYVMU.s 			page 31


 1711 04db 26       		.byte	0x26
 1712 04dc 19       		.byte	0x19
 1713 04dd 6A020000 		.4byte	0x26a
 1714 04e1 00       		.byte	0
 1715 04e2 07       		.uleb128 0x7
 1716 04e3 F7050000 		.4byte	.LASF73
 1717 04e7 0C       		.byte	0xc
 1718 04e8 28       		.byte	0x28
 1719 04e9 1A       		.byte	0x1a
 1720 04ea 64020000 		.4byte	0x264
 1721 04ee 08       		.byte	0x8
 1722 04ef 07       		.uleb128 0x7
 1723 04f0 CD040000 		.4byte	.LASF74
 1724 04f4 0C       		.byte	0xc
 1725 04f5 2A       		.byte	0x2a
 1726 04f6 1A       		.byte	0x1a
 1727 04f7 FD040000 		.4byte	0x4fd
 1728 04fb 0C       		.byte	0xc
 1729 04fc 00       		.byte	0
 1730 04fd 0A       		.uleb128 0xa
 1731 04fe 04       		.byte	0x4
 1732 04ff C8040000 		.4byte	0x4c8
 1733 0503 04       		.uleb128 0x4
 1734 0504 09030000 		.4byte	.LASF71
 1735 0508 0C       		.byte	0xc
 1736 0509 2C       		.byte	0x2c
 1737 050a 03       		.byte	0x3
 1738 050b C8040000 		.4byte	0x4c8
 1739 050f 0F       		.uleb128 0xf
 1740 0510 04       		.byte	0x4
 1741 0511 07       		.byte	0x7
 1742 0512 8F       		.byte	0x8f
 1743 0513 03       		.byte	0x3
 1744 0514 49050000 		.4byte	0x549
 1745 0518 10       		.uleb128 0x10
 1746 0519 13000000 		.4byte	.LASF75
 1747 051d 07       		.byte	0x7
 1748 051e 96       		.byte	0x96
 1749 051f 19       		.byte	0x19
 1750 0520 07010000 		.4byte	0x107
 1751 0524 10       		.uleb128 0x10
 1752 0525 67000000 		.4byte	.LASF76
 1753 0529 07       		.byte	0x7
 1754 052a 9D       		.byte	0x9d
 1755 052b 19       		.byte	0x19
 1756 052c 07010000 		.4byte	0x107
 1757 0530 10       		.uleb128 0x10
 1758 0531 6F050000 		.4byte	.LASF77
 1759 0535 07       		.byte	0x7
 1760 0536 A4       		.byte	0xa4
 1761 0537 1A       		.byte	0x1a
 1762 0538 B1020000 		.4byte	0x2b1
 1763 053c 10       		.uleb128 0x10
 1764 053d 29040000 		.4byte	.LASF78
 1765 0541 07       		.byte	0x7
 1766 0542 AB       		.byte	0xab
 1767 0543 19       		.byte	0x19
ARM GAS  /var/folders/l5/0x54b2c10074c8bt31ycjvl80000gp/T//ccIsYVMU.s 			page 32


 1768 0544 13010000 		.4byte	0x113
 1769 0548 00       		.byte	0
 1770 0549 0A       		.uleb128 0xa
 1771 054a 04       		.byte	0x4
 1772 054b 56050000 		.4byte	0x556
 1773 054f 03       		.uleb128 0x3
 1774 0550 01       		.byte	0x1
 1775 0551 08       		.byte	0x8
 1776 0552 A5040000 		.4byte	.LASF79
 1777 0556 11       		.uleb128 0x11
 1778 0557 4F050000 		.4byte	0x54f
 1779 055b 0A       		.uleb128 0xa
 1780 055c 04       		.byte	0x4
 1781 055d 03050000 		.4byte	0x503
 1782 0561 09       		.uleb128 0x9
 1783 0562 16       		.byte	0x16
 1784 0563 0D       		.byte	0xd
 1785 0564 25       		.byte	0x25
 1786 0565 09       		.byte	0x9
 1787 0566 55060000 		.4byte	0x655
 1788 056a 07       		.uleb128 0x7
 1789 056b DA000000 		.4byte	.LASF80
 1790 056f 0D       		.byte	0xd
 1791 0570 26       		.byte	0x26
 1792 0571 0D       		.byte	0xd
 1793 0572 55060000 		.4byte	0x655
 1794 0576 00       		.byte	0
 1795 0577 07       		.uleb128 0x7
 1796 0578 1A030000 		.4byte	.LASF81
 1797 057c 0D       		.byte	0xd
 1798 057d 27       		.byte	0x27
 1799 057e 0D       		.byte	0xd
 1800 057f 9B000000 		.4byte	0x9b
 1801 0583 04       		.byte	0x4
 1802 0584 07       		.uleb128 0x7
 1803 0585 9A030000 		.4byte	.LASF82
 1804 0589 0D       		.byte	0xd
 1805 058a 28       		.byte	0x28
 1806 058b 0D       		.byte	0xd
 1807 058c 9B000000 		.4byte	0x9b
 1808 0590 05       		.byte	0x5
 1809 0591 07       		.uleb128 0x7
 1810 0592 9D050000 		.4byte	.LASF83
 1811 0596 0D       		.byte	0xd
 1812 0597 29       		.byte	0x29
 1813 0598 0D       		.byte	0xd
 1814 0599 A7000000 		.4byte	0xa7
 1815 059d 06       		.byte	0x6
 1816 059e 07       		.uleb128 0x7
 1817 059f C1030000 		.4byte	.LASF84
 1818 05a3 0D       		.byte	0xd
 1819 05a4 2A       		.byte	0x2a
 1820 05a5 0D       		.byte	0xd
 1821 05a6 9B000000 		.4byte	0x9b
 1822 05aa 08       		.byte	0x8
 1823 05ab 07       		.uleb128 0x7
 1824 05ac 3E030000 		.4byte	.LASF85
ARM GAS  /var/folders/l5/0x54b2c10074c8bt31ycjvl80000gp/T//ccIsYVMU.s 			page 33


 1825 05b0 0D       		.byte	0xd
 1826 05b1 2B       		.byte	0x2b
 1827 05b2 0D       		.byte	0xd
 1828 05b3 9B000000 		.4byte	0x9b
 1829 05b7 09       		.byte	0x9
 1830 05b8 07       		.uleb128 0x7
 1831 05b9 59000000 		.4byte	.LASF86
 1832 05bd 0D       		.byte	0xd
 1833 05be 2C       		.byte	0x2c
 1834 05bf 0D       		.byte	0xd
 1835 05c0 9B000000 		.4byte	0x9b
 1836 05c4 0A       		.byte	0xa
 1837 05c5 07       		.uleb128 0x7
 1838 05c6 84040000 		.4byte	.LASF87
 1839 05ca 0D       		.byte	0xd
 1840 05cb 2D       		.byte	0x2d
 1841 05cc 0D       		.byte	0xd
 1842 05cd 9B000000 		.4byte	0x9b
 1843 05d1 0B       		.byte	0xb
 1844 05d2 07       		.uleb128 0x7
 1845 05d3 1D050000 		.4byte	.LASF88
 1846 05d7 0D       		.byte	0xd
 1847 05d8 2E       		.byte	0x2e
 1848 05d9 0D       		.byte	0xd
 1849 05da 9B000000 		.4byte	0x9b
 1850 05de 0C       		.byte	0xc
 1851 05df 07       		.uleb128 0x7
 1852 05e0 55040000 		.4byte	.LASF89
 1853 05e4 0D       		.byte	0xd
 1854 05e5 2F       		.byte	0x2f
 1855 05e6 0D       		.byte	0xd
 1856 05e7 9B000000 		.4byte	0x9b
 1857 05eb 0D       		.byte	0xd
 1858 05ec 07       		.uleb128 0x7
 1859 05ed 00000000 		.4byte	.LASF90
 1860 05f1 0D       		.byte	0xd
 1861 05f2 30       		.byte	0x30
 1862 05f3 0D       		.byte	0xd
 1863 05f4 9B000000 		.4byte	0x9b
 1864 05f8 0E       		.byte	0xe
 1865 05f9 07       		.uleb128 0x7
 1866 05fa 6A030000 		.4byte	.LASF91
 1867 05fe 0D       		.byte	0xd
 1868 05ff 31       		.byte	0x31
 1869 0600 0D       		.byte	0xd
 1870 0601 9B000000 		.4byte	0x9b
 1871 0605 0F       		.byte	0xf
 1872 0606 07       		.uleb128 0x7
 1873 0607 AE000000 		.4byte	.LASF92
 1874 060b 0D       		.byte	0xd
 1875 060c 32       		.byte	0x32
 1876 060d 0D       		.byte	0xd
 1877 060e 9B000000 		.4byte	0x9b
 1878 0612 10       		.byte	0x10
 1879 0613 07       		.uleb128 0x7
 1880 0614 77000000 		.4byte	.LASF93
 1881 0618 0D       		.byte	0xd
ARM GAS  /var/folders/l5/0x54b2c10074c8bt31ycjvl80000gp/T//ccIsYVMU.s 			page 34


 1882 0619 34       		.byte	0x34
 1883 061a 0D       		.byte	0xd
 1884 061b 9B000000 		.4byte	0x9b
 1885 061f 11       		.byte	0x11
 1886 0620 07       		.uleb128 0x7
 1887 0621 BE000000 		.4byte	.LASF94
 1888 0625 0D       		.byte	0xd
 1889 0626 35       		.byte	0x35
 1890 0627 0D       		.byte	0xd
 1891 0628 9B000000 		.4byte	0x9b
 1892 062c 12       		.byte	0x12
 1893 062d 07       		.uleb128 0x7
 1894 062e 22030000 		.4byte	.LASF95
 1895 0632 0D       		.byte	0xd
 1896 0633 36       		.byte	0x36
 1897 0634 0D       		.byte	0xd
 1898 0635 9B000000 		.4byte	0x9b
 1899 0639 13       		.byte	0x13
 1900 063a 07       		.uleb128 0x7
 1901 063b 37040000 		.4byte	.LASF96
 1902 063f 0D       		.byte	0xd
 1903 0640 37       		.byte	0x37
 1904 0641 0D       		.byte	0xd
 1905 0642 9B000000 		.4byte	0x9b
 1906 0646 14       		.byte	0x14
 1907 0647 07       		.uleb128 0x7
 1908 0648 16040000 		.4byte	.LASF97
 1909 064c 0D       		.byte	0xd
 1910 064d 39       		.byte	0x39
 1911 064e 0D       		.byte	0xd
 1912 064f 9B000000 		.4byte	0x9b
 1913 0653 15       		.byte	0x15
 1914 0654 00       		.byte	0
 1915 0655 12       		.uleb128 0x12
 1916 0656 4F050000 		.4byte	0x54f
 1917 065a 65060000 		.4byte	0x665
 1918 065e 13       		.uleb128 0x13
 1919 065f 2C000000 		.4byte	0x2c
 1920 0663 03       		.byte	0x3
 1921 0664 00       		.byte	0
 1922 0665 04       		.uleb128 0x4
 1923 0666 03010000 		.4byte	.LASF98
 1924 066a 0D       		.byte	0xd
 1925 066b 3A       		.byte	0x3a
 1926 066c 03       		.byte	0x3
 1927 066d 61050000 		.4byte	0x561
 1928 0671 11       		.uleb128 0x11
 1929 0672 65060000 		.4byte	0x665
 1930 0676 0E       		.uleb128 0xe
 1931 0677 CB010000 		.4byte	.LASF99
 1932 067b 0D       		.byte	0xd
 1933 067c 77       		.byte	0x77
 1934 067d 1D       		.byte	0x1d
 1935 067e 71060000 		.4byte	0x671
 1936 0682 12       		.uleb128 0x12
 1937 0683 99020000 		.4byte	0x299
 1938 0687 92060000 		.4byte	0x692
ARM GAS  /var/folders/l5/0x54b2c10074c8bt31ycjvl80000gp/T//ccIsYVMU.s 			page 35


 1939 068b 13       		.uleb128 0x13
 1940 068c 2C000000 		.4byte	0x2c
 1941 0690 26       		.byte	0x26
 1942 0691 00       		.byte	0
 1943 0692 0E       		.uleb128 0xe
 1944 0693 2F010000 		.4byte	.LASF100
 1945 0697 0E       		.byte	0xe
 1946 0698 82       		.byte	0x82
 1947 0699 08       		.byte	0x8
 1948 069a 82060000 		.4byte	0x682
 1949 069e 14       		.uleb128 0x14
 1950 069f 88040000 		.4byte	0x488
 1951 06a3 01       		.byte	0x1
 1952 06a4 28       		.byte	0x28
 1953 06a5 0B       		.byte	0xb
 1954 06a6 05       		.uleb128 0x5
 1955 06a7 03       		.byte	0x3
 1956 06a8 00000000 		.4byte	rlist
 1957 06ac 15       		.uleb128 0x15
 1958 06ad 74010000 		.4byte	.LASF101
 1959 06b1 01       		.byte	0x1
 1960 06b2 6301     		.2byte	0x163
 1961 06b4 06       		.byte	0x6
 1962 06b5 00000000 		.4byte	.LFB17
 1963 06b9 04000000 		.4byte	.LFE17-.LFB17
 1964 06bd 01       		.uleb128 0x1
 1965 06be 9C       		.byte	0x9c
 1966 06bf CD060000 		.4byte	0x6cd
 1967 06c3 16       		.uleb128 0x16
 1968 06c4 04000000 		.4byte	.LVL57
 1969 06c8 CD060000 		.4byte	0x6cd
 1970 06cc 00       		.byte	0
 1971 06cd 15       		.uleb128 0x15
 1972 06ce 1A000000 		.4byte	.LASF102
 1973 06d2 01       		.byte	0x1
 1974 06d3 4201     		.2byte	0x142
 1975 06d5 06       		.byte	0x6
 1976 06d6 00000000 		.4byte	.LFB16
 1977 06da 70000000 		.4byte	.LFE16-.LFB16
 1978 06de 01       		.uleb128 0x1
 1979 06df 9C       		.byte	0x9c
 1980 06e0 4E070000 		.4byte	0x74e
 1981 06e4 17       		.uleb128 0x17
 1982 06e5 6F747000 		.ascii	"otp\000"
 1983 06e9 01       		.byte	0x1
 1984 06ea 4301     		.2byte	0x143
 1985 06ec 0B       		.byte	0xb
 1986 06ed 64020000 		.4byte	0x264
 1987 06f1 02000000 		.4byte	.LLST28
 1988 06f5 00000000 		.4byte	.LVUS28
 1989 06f9 17       		.uleb128 0x17
 1990 06fa 637000   		.ascii	"cp\000"
 1991 06fd 01       		.byte	0x1
 1992 06fe 4301     		.2byte	0x143
 1993 0700 11       		.byte	0x11
 1994 0701 64020000 		.4byte	0x264
 1995 0705 17000000 		.4byte	.LLST29
ARM GAS  /var/folders/l5/0x54b2c10074c8bt31ycjvl80000gp/T//ccIsYVMU.s 			page 36


 1996 0709 15000000 		.4byte	.LVUS29
 1997 070d 18       		.uleb128 0x18
 1998 070e DC0A0000 		.4byte	0xadc
 1999 0712 18000000 		.4byte	.LBI84
 2000 0716 01       		.byte	.LVU303
 2001 0717 00010000 		.4byte	.Ldebug_ranges0+0x100
 2002 071b 01       		.byte	0x1
 2003 071c 4701     		.2byte	0x147
 2004 071e 03       		.byte	0x3
 2005 071f 44070000 		.4byte	0x744
 2006 0723 19       		.uleb128 0x19
 2007 0724 ED0A0000 		.4byte	0xaed
 2008 0728 31000000 		.4byte	.LLST30
 2009 072c 2F000000 		.4byte	.LVUS30
 2010 0730 1A       		.uleb128 0x1a
 2011 0731 00010000 		.4byte	.Ldebug_ranges0+0x100
 2012 0735 1B       		.uleb128 0x1b
 2013 0736 F90A0000 		.4byte	0xaf9
 2014 073a 4B000000 		.4byte	.LLST31
 2015 073e 49000000 		.4byte	.LVUS31
 2016 0742 00       		.byte	0
 2017 0743 00       		.byte	0
 2018 0744 16       		.uleb128 0x16
 2019 0745 6C000000 		.4byte	.LVL55
 2020 0749 0D0C0000 		.4byte	0xc0d
 2021 074d 00       		.byte	0
 2022 074e 15       		.uleb128 0x15
 2023 074f 52030000 		.4byte	.LASF103
 2024 0753 01       		.byte	0x1
 2025 0754 2901     		.2byte	0x129
 2026 0756 06       		.byte	0x6
 2027 0757 00000000 		.4byte	.LFB15
 2028 075b 70000000 		.4byte	.LFE15-.LFB15
 2029 075f 01       		.uleb128 0x1
 2030 0760 9C       		.byte	0x9c
 2031 0761 F2070000 		.4byte	0x7f2
 2032 0765 17       		.uleb128 0x17
 2033 0766 6F747000 		.ascii	"otp\000"
 2034 076a 01       		.byte	0x1
 2035 076b 2A01     		.2byte	0x12a
 2036 076d 0B       		.byte	0xb
 2037 076e 64020000 		.4byte	0x264
 2038 0772 60000000 		.4byte	.LLST23
 2039 0776 5E000000 		.4byte	.LVUS23
 2040 077a 18       		.uleb128 0x18
 2041 077b 850A0000 		.4byte	0xa85
 2042 077f 38000000 		.4byte	.LBI66
 2043 0783 02       		.byte	.LVU264
 2044 0784 A8000000 		.4byte	.Ldebug_ranges0+0xa8
 2045 0788 01       		.byte	0x1
 2046 0789 3301     		.2byte	0x133
 2047 078b 03       		.byte	0x3
 2048 078c B1070000 		.4byte	0x7b1
 2049 0790 19       		.uleb128 0x19
 2050 0791 960A0000 		.4byte	0xa96
 2051 0795 75000000 		.4byte	.LLST24
 2052 0799 73000000 		.4byte	.LVUS24
ARM GAS  /var/folders/l5/0x54b2c10074c8bt31ycjvl80000gp/T//ccIsYVMU.s 			page 37


 2053 079d 1A       		.uleb128 0x1a
 2054 079e A8000000 		.4byte	.Ldebug_ranges0+0xa8
 2055 07a2 1B       		.uleb128 0x1b
 2056 07a3 A10A0000 		.4byte	0xaa1
 2057 07a7 8A000000 		.4byte	.LLST25
 2058 07ab 88000000 		.4byte	.LVUS25
 2059 07af 00       		.byte	0
 2060 07b0 00       		.byte	0
 2061 07b1 18       		.uleb128 0x18
 2062 07b2 DC0A0000 		.4byte	0xadc
 2063 07b6 18000000 		.4byte	.LBI72
 2064 07ba 01       		.byte	.LVU249
 2065 07bb D8000000 		.4byte	.Ldebug_ranges0+0xd8
 2066 07bf 01       		.byte	0x1
 2067 07c0 2E01     		.2byte	0x12e
 2068 07c2 03       		.byte	0x3
 2069 07c3 E8070000 		.4byte	0x7e8
 2070 07c7 19       		.uleb128 0x19
 2071 07c8 ED0A0000 		.4byte	0xaed
 2072 07cc A4000000 		.4byte	.LLST26
 2073 07d0 A2000000 		.4byte	.LVUS26
 2074 07d4 1A       		.uleb128 0x1a
 2075 07d5 D8000000 		.4byte	.Ldebug_ranges0+0xd8
 2076 07d9 1B       		.uleb128 0x1b
 2077 07da F90A0000 		.4byte	0xaf9
 2078 07de BE000000 		.4byte	.LLST27
 2079 07e2 BC000000 		.4byte	.LVUS27
 2080 07e6 00       		.byte	0
 2081 07e7 00       		.byte	0
 2082 07e8 16       		.uleb128 0x16
 2083 07e9 6C000000 		.4byte	.LVL50
 2084 07ed 0D0C0000 		.4byte	0xc0d
 2085 07f1 00       		.byte	0
 2086 07f2 1C       		.uleb128 0x1c
 2087 07f3 0D010000 		.4byte	.LASF106
 2088 07f7 01       		.byte	0x1
 2089 07f8 0D01     		.2byte	0x10d
 2090 07fa 08       		.byte	0x8
 2091 07fb CB000000 		.4byte	0xcb
 2092 07ff 00000000 		.4byte	.LFB14
 2093 0803 28000000 		.4byte	.LFE14-.LFB14
 2094 0807 01       		.uleb128 0x1
 2095 0808 9C       		.byte	0x9c
 2096 0809 36080000 		.4byte	0x836
 2097 080d 17       		.uleb128 0x17
 2098 080e 703100   		.ascii	"p1\000"
 2099 0811 01       		.byte	0x1
 2100 0812 0E01     		.2byte	0x10e
 2101 0814 0B       		.byte	0xb
 2102 0815 FB000000 		.4byte	0xfb
 2103 0819 D7000000 		.4byte	.LLST21
 2104 081d D1000000 		.4byte	.LVUS21
 2105 0821 17       		.uleb128 0x17
 2106 0822 703200   		.ascii	"p2\000"
 2107 0825 01       		.byte	0x1
 2108 0826 0F01     		.2byte	0x10f
 2109 0828 0B       		.byte	0xb
ARM GAS  /var/folders/l5/0x54b2c10074c8bt31ycjvl80000gp/T//ccIsYVMU.s 			page 38


 2110 0829 FB000000 		.4byte	0xfb
 2111 082d 11010000 		.4byte	.LLST22
 2112 0831 0F010000 		.4byte	.LVUS22
 2113 0835 00       		.byte	0
 2114 0836 1D       		.uleb128 0x1d
 2115 0837 47010000 		.4byte	.LASF104
 2116 083b 01       		.byte	0x1
 2117 083c F6       		.byte	0xf6
 2118 083d 06       		.byte	0x6
 2119 083e 00000000 		.4byte	.LFB13
 2120 0842 24000000 		.4byte	.LFE13-.LFB13
 2121 0846 01       		.uleb128 0x1
 2122 0847 9C       		.byte	0x9c
 2123 0848 56080000 		.4byte	0x856
 2124 084c 16       		.uleb128 0x16
 2125 084d 20000000 		.4byte	.LVL56
 2126 0851 CD060000 		.4byte	0x6cd
 2127 0855 00       		.byte	0
 2128 0856 1D       		.uleb128 0x1d
 2129 0857 FE010000 		.4byte	.LASF105
 2130 085b 01       		.byte	0x1
 2131 085c DA       		.byte	0xda
 2132 085d 06       		.byte	0x6
 2133 085e 00000000 		.4byte	.LFB12
 2134 0862 AC000000 		.4byte	.LFE12-.LFB12
 2135 0866 01       		.uleb128 0x1
 2136 0867 9C       		.byte	0x9c
 2137 0868 34090000 		.4byte	0x934
 2138 086c 1E       		.uleb128 0x1e
 2139 086d 6E747000 		.ascii	"ntp\000"
 2140 0871 01       		.byte	0x1
 2141 0872 DA       		.byte	0xda
 2142 0873 1B       		.byte	0x1b
 2143 0874 64020000 		.4byte	0x264
 2144 0878 31010000 		.4byte	.LLST14
 2145 087c 2B010000 		.4byte	.LVUS14
 2146 0880 1E       		.uleb128 0x1e
 2147 0881 6D736700 		.ascii	"msg\000"
 2148 0885 01       		.byte	0x1
 2149 0886 DA       		.byte	0xda
 2150 0887 26       		.byte	0x26
 2151 0888 07010000 		.4byte	0x107
 2152 088c 63010000 		.4byte	.LLST15
 2153 0890 5D010000 		.4byte	.LVUS15
 2154 0894 1F       		.uleb128 0x1f
 2155 0895 70000000 		.4byte	.Ldebug_ranges0+0x70
 2156 0899 F9080000 		.4byte	0x8f9
 2157 089d 20       		.uleb128 0x20
 2158 089e 6F747000 		.ascii	"otp\000"
 2159 08a2 01       		.byte	0x1
 2160 08a3 E6       		.byte	0xe6
 2161 08a4 0D       		.byte	0xd
 2162 08a5 64020000 		.4byte	0x264
 2163 08a9 94010000 		.4byte	.LLST18
 2164 08ad 90010000 		.4byte	.LVUS18
 2165 08b1 21       		.uleb128 0x21
 2166 08b2 850A0000 		.4byte	0xa85
ARM GAS  /var/folders/l5/0x54b2c10074c8bt31ycjvl80000gp/T//ccIsYVMU.s 			page 39


 2167 08b6 58000000 		.4byte	.LBI59
 2168 08ba 01       		.byte	.LVU190
 2169 08bb 88000000 		.4byte	.Ldebug_ranges0+0x88
 2170 08bf 01       		.byte	0x1
 2171 08c0 E6       		.byte	0xe6
 2172 08c1 13       		.byte	0x13
 2173 08c2 E7080000 		.4byte	0x8e7
 2174 08c6 19       		.uleb128 0x19
 2175 08c7 960A0000 		.4byte	0xa96
 2176 08cb B4010000 		.4byte	.LLST19
 2177 08cf B2010000 		.4byte	.LVUS19
 2178 08d3 1A       		.uleb128 0x1a
 2179 08d4 88000000 		.4byte	.Ldebug_ranges0+0x88
 2180 08d8 1B       		.uleb128 0x1b
 2181 08d9 A10A0000 		.4byte	0xaa1
 2182 08dd CB010000 		.4byte	.LLST20
 2183 08e1 C7010000 		.4byte	.LVUS20
 2184 08e5 00       		.byte	0
 2185 08e6 00       		.byte	0
 2186 08e7 22       		.uleb128 0x22
 2187 08e8 A8000000 		.4byte	.LVL41
 2188 08ec 0D0C0000 		.4byte	0xc0d
 2189 08f0 23       		.uleb128 0x23
 2190 08f1 01       		.uleb128 0x1
 2191 08f2 50       		.byte	0x50
 2192 08f3 03       		.uleb128 0x3
 2193 08f4 F3       		.byte	0xf3
 2194 08f5 01       		.uleb128 0x1
 2195 08f6 50       		.byte	0x50
 2196 08f7 00       		.byte	0
 2197 08f8 00       		.byte	0
 2198 08f9 24       		.uleb128 0x24
 2199 08fa 850A0000 		.4byte	0xa85
 2200 08fe 24000000 		.4byte	.LBI56
 2201 0902 01       		.byte	.LVU165
 2202 0903 24000000 		.4byte	.LBB56
 2203 0907 30000000 		.4byte	.LBE56-.LBB56
 2204 090b 01       		.byte	0x1
 2205 090c E4       		.byte	0xe4
 2206 090d 05       		.byte	0x5
 2207 090e 19       		.uleb128 0x19
 2208 090f 960A0000 		.4byte	0xa96
 2209 0913 EC010000 		.4byte	.LLST16
 2210 0917 EA010000 		.4byte	.LVUS16
 2211 091b 25       		.uleb128 0x25
 2212 091c 24000000 		.4byte	.LBB57
 2213 0920 30000000 		.4byte	.LBE57-.LBB57
 2214 0924 1B       		.uleb128 0x1b
 2215 0925 A10A0000 		.4byte	0xaa1
 2216 0929 03020000 		.4byte	.LLST17
 2217 092d FF010000 		.4byte	.LVUS17
 2218 0931 00       		.byte	0
 2219 0932 00       		.byte	0
 2220 0933 00       		.byte	0
 2221 0934 26       		.uleb128 0x26
 2222 0935 88050000 		.4byte	.LASF107
 2223 0939 01       		.byte	0x1
ARM GAS  /var/folders/l5/0x54b2c10074c8bt31ycjvl80000gp/T//ccIsYVMU.s 			page 40


 2224 093a B6       		.byte	0xb6
 2225 093b 07       		.byte	0x7
 2226 093c 07010000 		.4byte	0x107
 2227 0940 00000000 		.4byte	.LFB11
 2228 0944 74000000 		.4byte	.LFE11-.LFB11
 2229 0948 01       		.uleb128 0x1
 2230 0949 9C       		.byte	0x9c
 2231 094a E4090000 		.4byte	0x9e4
 2232 094e 27       		.uleb128 0x27
 2233 094f F1030000 		.4byte	.LASF108
 2234 0953 01       		.byte	0x1
 2235 0954 B6       		.byte	0xb6
 2236 0955 25       		.byte	0x25
 2237 0956 E3000000 		.4byte	0xe3
 2238 095a 2A020000 		.4byte	.LLST12
 2239 095e 22020000 		.4byte	.LVUS12
 2240 0962 27       		.uleb128 0x27
 2241 0963 A2030000 		.4byte	.LASF109
 2242 0967 01       		.byte	0x1
 2243 0968 B6       		.byte	0xb6
 2244 0969 39       		.byte	0x39
 2245 096a 1F010000 		.4byte	0x11f
 2246 096e 6C020000 		.4byte	.LLST13
 2247 0972 64020000 		.4byte	.LVUS13
 2248 0976 28       		.uleb128 0x28
 2249 0977 10000000 		.4byte	.LBB55
 2250 097b 34000000 		.4byte	.LBE55-.LBB55
 2251 097f DA090000 		.4byte	0x9da
 2252 0983 29       		.uleb128 0x29
 2253 0984 767400   		.ascii	"vt\000"
 2254 0987 01       		.byte	0x1
 2255 0988 BB       		.byte	0xbb
 2256 0989 12       		.byte	0x12
 2257 098a 6D030000 		.4byte	0x36d
 2258 098e 02       		.uleb128 0x2
 2259 098f 91       		.byte	0x91
 2260 0990 5C       		.sleb128 -36
 2261 0991 2A       		.uleb128 0x2a
 2262 0992 28000000 		.4byte	.LVL22
 2263 0996 1A0C0000 		.4byte	0xc1a
 2264 099a B5090000 		.4byte	0x9b5
 2265 099e 23       		.uleb128 0x23
 2266 099f 01       		.uleb128 0x1
 2267 09a0 50       		.byte	0x50
 2268 09a1 02       		.uleb128 0x2
 2269 09a2 91       		.byte	0x91
 2270 09a3 54       		.sleb128 -44
 2271 09a4 23       		.uleb128 0x23
 2272 09a5 01       		.uleb128 0x1
 2273 09a6 51       		.byte	0x51
 2274 09a7 03       		.uleb128 0x3
 2275 09a8 F3       		.byte	0xf3
 2276 09a9 01       		.uleb128 0x1
 2277 09aa 51       		.byte	0x51
 2278 09ab 23       		.uleb128 0x23
 2279 09ac 01       		.uleb128 0x1
 2280 09ad 52       		.byte	0x52
ARM GAS  /var/folders/l5/0x54b2c10074c8bt31ycjvl80000gp/T//ccIsYVMU.s 			page 41


 2281 09ae 05       		.uleb128 0x5
 2282 09af 03       		.byte	0x3
 2283 09b0 00000000 		.4byte	wakeup
 2284 09b4 00       		.byte	0
 2285 09b5 2A       		.uleb128 0x2a
 2286 09b6 30000000 		.4byte	.LVL23
 2287 09ba 070A0000 		.4byte	0xa07
 2288 09be C9090000 		.4byte	0x9c9
 2289 09c2 23       		.uleb128 0x23
 2290 09c3 01       		.uleb128 0x1
 2291 09c4 50       		.byte	0x50
 2292 09c5 02       		.uleb128 0x2
 2293 09c6 75       		.byte	0x75
 2294 09c7 00       		.sleb128 0
 2295 09c8 00       		.byte	0
 2296 09c9 2B       		.uleb128 0x2b
 2297 09ca 44000000 		.4byte	.LVL24
 2298 09ce 260C0000 		.4byte	0xc26
 2299 09d2 23       		.uleb128 0x23
 2300 09d3 01       		.uleb128 0x1
 2301 09d4 50       		.byte	0x50
 2302 09d5 02       		.uleb128 0x2
 2303 09d6 91       		.byte	0x91
 2304 09d7 54       		.sleb128 -44
 2305 09d8 00       		.byte	0
 2306 09d9 00       		.byte	0
 2307 09da 2C       		.uleb128 0x2c
 2308 09db 58000000 		.4byte	.LVL26
 2309 09df 070A0000 		.4byte	0xa07
 2310 09e3 00       		.byte	0
 2311 09e4 2D       		.uleb128 0x2d
 2312 09e5 99010000 		.4byte	.LASF119
 2313 09e9 01       		.byte	0x1
 2314 09ea 81       		.byte	0x81
 2315 09eb 0D       		.byte	0xd
 2316 09ec 01       		.byte	0x1
 2317 09ed 070A0000 		.4byte	0xa07
 2318 09f1 2E       		.uleb128 0x2e
 2319 09f2 7000     		.ascii	"p\000"
 2320 09f4 01       		.byte	0x1
 2321 09f5 81       		.byte	0x81
 2322 09f6 1A       		.byte	0x1a
 2323 09f7 B1020000 		.4byte	0x2b1
 2324 09fb 2F       		.uleb128 0x2f
 2325 09fc 747000   		.ascii	"tp\000"
 2326 09ff 01       		.byte	0x1
 2327 0a00 82       		.byte	0x82
 2328 0a01 0B       		.byte	0xb
 2329 0a02 64020000 		.4byte	0x264
 2330 0a06 00       		.byte	0
 2331 0a07 1D       		.uleb128 0x1d
 2332 0a08 62040000 		.4byte	.LASF110
 2333 0a0c 01       		.byte	0x1
 2334 0a0d 6C       		.byte	0x6c
 2335 0a0e 06       		.byte	0x6
 2336 0a0f 00000000 		.4byte	.LFB9
 2337 0a13 3C000000 		.4byte	.LFE9-.LFB9
ARM GAS  /var/folders/l5/0x54b2c10074c8bt31ycjvl80000gp/T//ccIsYVMU.s 			page 42


 2338 0a17 01       		.uleb128 0x1
 2339 0a18 9C       		.byte	0x9c
 2340 0a19 850A0000 		.4byte	0xa85
 2341 0a1d 27       		.uleb128 0x27
 2342 0a1e F1030000 		.4byte	.LASF108
 2343 0a22 01       		.byte	0x1
 2344 0a23 6C       		.byte	0x6c
 2345 0a24 1D       		.byte	0x1d
 2346 0a25 E3000000 		.4byte	0xe3
 2347 0a29 AC020000 		.4byte	.LLST8
 2348 0a2d A6020000 		.4byte	.LVUS8
 2349 0a31 20       		.uleb128 0x20
 2350 0a32 6F747000 		.ascii	"otp\000"
 2351 0a36 01       		.byte	0x1
 2352 0a37 6D       		.byte	0x6d
 2353 0a38 0B       		.byte	0xb
 2354 0a39 64020000 		.4byte	0x264
 2355 0a3d DB020000 		.4byte	.LLST9
 2356 0a41 D9020000 		.4byte	.LVUS9
 2357 0a45 21       		.uleb128 0x21
 2358 0a46 DC0A0000 		.4byte	0xadc
 2359 0a4a 18000000 		.4byte	.LBI47
 2360 0a4e 01       		.byte	.LVU108
 2361 0a4f 48000000 		.4byte	.Ldebug_ranges0+0x48
 2362 0a53 01       		.byte	0x1
 2363 0a54 77       		.byte	0x77
 2364 0a55 03       		.byte	0x3
 2365 0a56 7B0A0000 		.4byte	0xa7b
 2366 0a5a 19       		.uleb128 0x19
 2367 0a5b ED0A0000 		.4byte	0xaed
 2368 0a5f F0020000 		.4byte	.LLST10
 2369 0a63 EE020000 		.4byte	.LVUS10
 2370 0a67 1A       		.uleb128 0x1a
 2371 0a68 48000000 		.4byte	.Ldebug_ranges0+0x48
 2372 0a6c 1B       		.uleb128 0x1b
 2373 0a6d F90A0000 		.4byte	0xaf9
 2374 0a71 0A030000 		.4byte	.LLST11
 2375 0a75 08030000 		.4byte	.LVUS11
 2376 0a79 00       		.byte	0
 2377 0a7a 00       		.byte	0
 2378 0a7b 16       		.uleb128 0x16
 2379 0a7c 38000000 		.4byte	.LVL19
 2380 0a80 0D0C0000 		.4byte	0xc0d
 2381 0a84 00       		.byte	0
 2382 0a85 30       		.uleb128 0x30
 2383 0a86 C1040000 		.4byte	.LASF120
 2384 0a8a 01       		.byte	0x1
 2385 0a8b 4A       		.byte	0x4a
 2386 0a8c 09       		.byte	0x9
 2387 0a8d 64020000 		.4byte	0x264
 2388 0a91 01       		.byte	0x1
 2389 0a92 AD0A0000 		.4byte	0xaad
 2390 0a96 2E       		.uleb128 0x2e
 2391 0a97 747000   		.ascii	"tp\000"
 2392 0a9a 01       		.byte	0x1
 2393 0a9b 4A       		.byte	0x4a
 2394 0a9c 1D       		.byte	0x1d
ARM GAS  /var/folders/l5/0x54b2c10074c8bt31ycjvl80000gp/T//ccIsYVMU.s 			page 43


 2395 0a9d 64020000 		.4byte	0x264
 2396 0aa1 2F       		.uleb128 0x2f
 2397 0aa2 637000   		.ascii	"cp\000"
 2398 0aa5 01       		.byte	0x1
 2399 0aa6 4B       		.byte	0x4b
 2400 0aa7 0B       		.byte	0xb
 2401 0aa8 64020000 		.4byte	0x264
 2402 0aac 00       		.byte	0
 2403 0aad 31       		.uleb128 0x31
 2404 0aae 84000000 		.4byte	.LASF121
 2405 0ab2 01       		.byte	0x1
 2406 0ab3 30       		.byte	0x30
 2407 0ab4 06       		.byte	0x6
 2408 0ab5 00000000 		.4byte	.LFB7
 2409 0ab9 24000000 		.4byte	.LFE7-.LFB7
 2410 0abd 01       		.uleb128 0x1
 2411 0abe 9C       		.byte	0x9c
 2412 0abf 32       		.uleb128 0x32
 2413 0ac0 4A030000 		.4byte	.LASF111
 2414 0ac4 02       		.byte	0x2
 2415 0ac5 42       		.byte	0x42
 2416 0ac6 17       		.byte	0x17
 2417 0ac7 64020000 		.4byte	0x264
 2418 0acb 03       		.byte	0x3
 2419 0acc DC0A0000 		.4byte	0xadc
 2420 0ad0 2E       		.uleb128 0x2e
 2421 0ad1 747000   		.ascii	"tp\000"
 2422 0ad4 02       		.byte	0x2
 2423 0ad5 42       		.byte	0x42
 2424 0ad6 27       		.byte	0x27
 2425 0ad7 64020000 		.4byte	0x264
 2426 0adb 00       		.byte	0
 2427 0adc 32       		.uleb128 0x32
 2428 0add AA040000 		.4byte	.LASF112
 2429 0ae1 02       		.byte	0x2
 2430 0ae2 34       		.byte	0x34
 2431 0ae3 17       		.byte	0x17
 2432 0ae4 64020000 		.4byte	0x264
 2433 0ae8 03       		.byte	0x3
 2434 0ae9 050B0000 		.4byte	0xb05
 2435 0aed 2E       		.uleb128 0x2e
 2436 0aee 74717000 		.ascii	"tqp\000"
 2437 0af2 02       		.byte	0x2
 2438 0af3 34       		.byte	0x34
 2439 0af4 31       		.byte	0x31
 2440 0af5 050B0000 		.4byte	0xb05
 2441 0af9 2F       		.uleb128 0x2f
 2442 0afa 747000   		.ascii	"tp\000"
 2443 0afd 02       		.byte	0x2
 2444 0afe 35       		.byte	0x35
 2445 0aff 0B       		.byte	0xb
 2446 0b00 64020000 		.4byte	0x264
 2447 0b04 00       		.byte	0
 2448 0b05 0A       		.uleb128 0xa
 2449 0b06 04       		.byte	0x4
 2450 0b07 6A020000 		.4byte	0x26a
 2451 0b0b 33       		.uleb128 0x33
ARM GAS  /var/folders/l5/0x54b2c10074c8bt31ycjvl80000gp/T//ccIsYVMU.s 			page 44


 2452 0b0c E4090000 		.4byte	0x9e4
 2453 0b10 00000000 		.4byte	.LFB10
 2454 0b14 B0000000 		.4byte	.LFE10-.LFB10
 2455 0b18 01       		.uleb128 0x1
 2456 0b19 9C       		.byte	0x9c
 2457 0b1a DF0B0000 		.4byte	0xbdf
 2458 0b1e 34       		.uleb128 0x34
 2459 0b1f F1090000 		.4byte	0x9f1
 2460 0b23 01       		.uleb128 0x1
 2461 0b24 50       		.byte	0x50
 2462 0b25 1B       		.uleb128 0x1b
 2463 0b26 FB090000 		.4byte	0x9fb
 2464 0b2a 1F030000 		.4byte	.LLST0
 2465 0b2e 1D030000 		.4byte	.LVUS0
 2466 0b32 35       		.uleb128 0x35
 2467 0b33 BF0A0000 		.4byte	0xabf
 2468 0b37 58000000 		.4byte	.LBI33
 2469 0b3b 01       		.byte	.LVU8
 2470 0b3c 58000000 		.4byte	.LBB33
 2471 0b40 10000000 		.4byte	.LBE33-.LBB33
 2472 0b44 01       		.byte	0x1
 2473 0b45 99       		.byte	0x99
 2474 0b46 05       		.byte	0x5
 2475 0b47 590B0000 		.4byte	0xb59
 2476 0b4b 19       		.uleb128 0x19
 2477 0b4c D00A0000 		.4byte	0xad0
 2478 0b50 34030000 		.4byte	.LLST1
 2479 0b54 32030000 		.4byte	.LVUS1
 2480 0b58 00       		.byte	0
 2481 0b59 21       		.uleb128 0x21
 2482 0b5a 850A0000 		.4byte	0xa85
 2483 0b5e 7C000000 		.4byte	.LBI35
 2484 0b62 01       		.byte	.LVU24
 2485 0b63 00000000 		.4byte	.Ldebug_ranges0+0
 2486 0b67 01       		.byte	0x1
 2487 0b68 9D       		.byte	0x9d
 2488 0b69 03       		.byte	0x3
 2489 0b6a 8F0B0000 		.4byte	0xb8f
 2490 0b6e 19       		.uleb128 0x19
 2491 0b6f 960A0000 		.4byte	0xa96
 2492 0b73 49030000 		.4byte	.LLST2
 2493 0b77 47030000 		.4byte	.LVUS2
 2494 0b7b 1A       		.uleb128 0x1a
 2495 0b7c 00000000 		.4byte	.Ldebug_ranges0+0
 2496 0b80 1B       		.uleb128 0x1b
 2497 0b81 A10A0000 		.4byte	0xaa1
 2498 0b85 5E030000 		.4byte	.LLST3
 2499 0b89 5C030000 		.4byte	.LVUS3
 2500 0b8d 00       		.byte	0
 2501 0b8e 00       		.byte	0
 2502 0b8f 36       		.uleb128 0x36
 2503 0b90 E4090000 		.4byte	0x9e4
 2504 0b94 80000000 		.4byte	.LBI38
 2505 0b98 02       		.byte	.LVU34
 2506 0b99 18000000 		.4byte	.Ldebug_ranges0+0x18
 2507 0b9d 01       		.byte	0x1
 2508 0b9e 81       		.byte	0x81
ARM GAS  /var/folders/l5/0x54b2c10074c8bt31ycjvl80000gp/T//ccIsYVMU.s 			page 45


 2509 0b9f 0D       		.byte	0xd
 2510 0ba0 19       		.uleb128 0x19
 2511 0ba1 F1090000 		.4byte	0x9f1
 2512 0ba5 78030000 		.4byte	.LLST4
 2513 0ba9 76030000 		.4byte	.LVUS4
 2514 0bad 1A       		.uleb128 0x1a
 2515 0bae 30000000 		.4byte	.Ldebug_ranges0+0x30
 2516 0bb2 37       		.uleb128 0x37
 2517 0bb3 FB090000 		.4byte	0x9fb
 2518 0bb7 38       		.uleb128 0x38
 2519 0bb8 850A0000 		.4byte	0xa85
 2520 0bbc 30000000 		.4byte	.Ldebug_ranges0+0x30
 2521 0bc0 01       		.byte	0x1
 2522 0bc1 9D       		.byte	0x9d
 2523 0bc2 03       		.byte	0x3
 2524 0bc3 39       		.uleb128 0x39
 2525 0bc4 960A0000 		.4byte	0xa96
 2526 0bc8 1A       		.uleb128 0x1a
 2527 0bc9 30000000 		.4byte	.Ldebug_ranges0+0x30
 2528 0bcd 1B       		.uleb128 0x1b
 2529 0bce A10A0000 		.4byte	0xaa1
 2530 0bd2 8F030000 		.4byte	.LLST5
 2531 0bd6 8B030000 		.4byte	.LVUS5
 2532 0bda 00       		.byte	0
 2533 0bdb 00       		.byte	0
 2534 0bdc 00       		.byte	0
 2535 0bdd 00       		.byte	0
 2536 0bde 00       		.byte	0
 2537 0bdf 33       		.uleb128 0x33
 2538 0be0 850A0000 		.4byte	0xa85
 2539 0be4 00000000 		.4byte	.LFB8
 2540 0be8 48000000 		.4byte	.LFE8-.LFB8
 2541 0bec 01       		.uleb128 0x1
 2542 0bed 9C       		.byte	0x9c
 2543 0bee 0D0C0000 		.4byte	0xc0d
 2544 0bf2 19       		.uleb128 0x19
 2545 0bf3 960A0000 		.4byte	0xa96
 2546 0bf7 B2030000 		.4byte	.LLST6
 2547 0bfb AE030000 		.4byte	.LVUS6
 2548 0bff 1B       		.uleb128 0x1b
 2549 0c00 A10A0000 		.4byte	0xaa1
 2550 0c04 D4030000 		.4byte	.LLST7
 2551 0c08 D0030000 		.4byte	.LVUS7
 2552 0c0c 00       		.byte	0
 2553 0c0d 3A       		.uleb128 0x3a
 2554 0c0e A8010000 		.4byte	.LASF113
 2555 0c12 A8010000 		.4byte	.LASF113
 2556 0c16 08       		.byte	0x8
 2557 0c17 DA01     		.2byte	0x1da
 2558 0c19 08       		.byte	0x8
 2559 0c1a 3B       		.uleb128 0x3b
 2560 0c1b 76030000 		.4byte	.LASF114
 2561 0c1f 76030000 		.4byte	.LASF114
 2562 0c23 09       		.byte	0x9
 2563 0c24 DA       		.byte	0xda
 2564 0c25 08       		.byte	0x8
 2565 0c26 3B       		.uleb128 0x3b
ARM GAS  /var/folders/l5/0x54b2c10074c8bt31ycjvl80000gp/T//ccIsYVMU.s 			page 46


 2566 0c27 2F050000 		.4byte	.LASF115
 2567 0c2b 2F050000 		.4byte	.LASF115
 2568 0c2f 09       		.byte	0x9
 2569 0c30 DB       		.byte	0xdb
 2570 0c31 08       		.byte	0x8
 2571 0c32 00       		.byte	0
 2572              		.section	.debug_abbrev,"",%progbits
 2573              	.Ldebug_abbrev0:
 2574 0000 01       		.uleb128 0x1
 2575 0001 11       		.uleb128 0x11
 2576 0002 01       		.byte	0x1
 2577 0003 25       		.uleb128 0x25
 2578 0004 0E       		.uleb128 0xe
 2579 0005 13       		.uleb128 0x13
 2580 0006 0B       		.uleb128 0xb
 2581 0007 03       		.uleb128 0x3
 2582 0008 0E       		.uleb128 0xe
 2583 0009 1B       		.uleb128 0x1b
 2584 000a 0E       		.uleb128 0xe
 2585 000b 55       		.uleb128 0x55
 2586 000c 17       		.uleb128 0x17
 2587 000d 11       		.uleb128 0x11
 2588 000e 01       		.uleb128 0x1
 2589 000f 10       		.uleb128 0x10
 2590 0010 17       		.uleb128 0x17
 2591 0011 00       		.byte	0
 2592 0012 00       		.byte	0
 2593 0013 02       		.uleb128 0x2
 2594 0014 24       		.uleb128 0x24
 2595 0015 00       		.byte	0
 2596 0016 0B       		.uleb128 0xb
 2597 0017 0B       		.uleb128 0xb
 2598 0018 3E       		.uleb128 0x3e
 2599 0019 0B       		.uleb128 0xb
 2600 001a 03       		.uleb128 0x3
 2601 001b 08       		.uleb128 0x8
 2602 001c 00       		.byte	0
 2603 001d 00       		.byte	0
 2604 001e 03       		.uleb128 0x3
 2605 001f 24       		.uleb128 0x24
 2606 0020 00       		.byte	0
 2607 0021 0B       		.uleb128 0xb
 2608 0022 0B       		.uleb128 0xb
 2609 0023 3E       		.uleb128 0x3e
 2610 0024 0B       		.uleb128 0xb
 2611 0025 03       		.uleb128 0x3
 2612 0026 0E       		.uleb128 0xe
 2613 0027 00       		.byte	0
 2614 0028 00       		.byte	0
 2615 0029 04       		.uleb128 0x4
 2616 002a 16       		.uleb128 0x16
 2617 002b 00       		.byte	0
 2618 002c 03       		.uleb128 0x3
 2619 002d 0E       		.uleb128 0xe
 2620 002e 3A       		.uleb128 0x3a
 2621 002f 0B       		.uleb128 0xb
 2622 0030 3B       		.uleb128 0x3b
ARM GAS  /var/folders/l5/0x54b2c10074c8bt31ycjvl80000gp/T//ccIsYVMU.s 			page 47


 2623 0031 0B       		.uleb128 0xb
 2624 0032 39       		.uleb128 0x39
 2625 0033 0B       		.uleb128 0xb
 2626 0034 49       		.uleb128 0x49
 2627 0035 13       		.uleb128 0x13
 2628 0036 00       		.byte	0
 2629 0037 00       		.byte	0
 2630 0038 05       		.uleb128 0x5
 2631 0039 35       		.uleb128 0x35
 2632 003a 00       		.byte	0
 2633 003b 49       		.uleb128 0x49
 2634 003c 13       		.uleb128 0x13
 2635 003d 00       		.byte	0
 2636 003e 00       		.byte	0
 2637 003f 06       		.uleb128 0x6
 2638 0040 13       		.uleb128 0x13
 2639 0041 01       		.byte	0x1
 2640 0042 03       		.uleb128 0x3
 2641 0043 0E       		.uleb128 0xe
 2642 0044 0B       		.uleb128 0xb
 2643 0045 0B       		.uleb128 0xb
 2644 0046 3A       		.uleb128 0x3a
 2645 0047 0B       		.uleb128 0xb
 2646 0048 3B       		.uleb128 0x3b
 2647 0049 0B       		.uleb128 0xb
 2648 004a 39       		.uleb128 0x39
 2649 004b 0B       		.uleb128 0xb
 2650 004c 01       		.uleb128 0x1
 2651 004d 13       		.uleb128 0x13
 2652 004e 00       		.byte	0
 2653 004f 00       		.byte	0
 2654 0050 07       		.uleb128 0x7
 2655 0051 0D       		.uleb128 0xd
 2656 0052 00       		.byte	0
 2657 0053 03       		.uleb128 0x3
 2658 0054 0E       		.uleb128 0xe
 2659 0055 3A       		.uleb128 0x3a
 2660 0056 0B       		.uleb128 0xb
 2661 0057 3B       		.uleb128 0x3b
 2662 0058 0B       		.uleb128 0xb
 2663 0059 39       		.uleb128 0x39
 2664 005a 0B       		.uleb128 0xb
 2665 005b 49       		.uleb128 0x49
 2666 005c 13       		.uleb128 0x13
 2667 005d 38       		.uleb128 0x38
 2668 005e 0B       		.uleb128 0xb
 2669 005f 00       		.byte	0
 2670 0060 00       		.byte	0
 2671 0061 08       		.uleb128 0x8
 2672 0062 0D       		.uleb128 0xd
 2673 0063 00       		.byte	0
 2674 0064 03       		.uleb128 0x3
 2675 0065 08       		.uleb128 0x8
 2676 0066 3A       		.uleb128 0x3a
 2677 0067 0B       		.uleb128 0xb
 2678 0068 3B       		.uleb128 0x3b
 2679 0069 0B       		.uleb128 0xb
ARM GAS  /var/folders/l5/0x54b2c10074c8bt31ycjvl80000gp/T//ccIsYVMU.s 			page 48


 2680 006a 39       		.uleb128 0x39
 2681 006b 0B       		.uleb128 0xb
 2682 006c 49       		.uleb128 0x49
 2683 006d 13       		.uleb128 0x13
 2684 006e 38       		.uleb128 0x38
 2685 006f 0B       		.uleb128 0xb
 2686 0070 00       		.byte	0
 2687 0071 00       		.byte	0
 2688 0072 09       		.uleb128 0x9
 2689 0073 13       		.uleb128 0x13
 2690 0074 01       		.byte	0x1
 2691 0075 0B       		.uleb128 0xb
 2692 0076 0B       		.uleb128 0xb
 2693 0077 3A       		.uleb128 0x3a
 2694 0078 0B       		.uleb128 0xb
 2695 0079 3B       		.uleb128 0x3b
 2696 007a 0B       		.uleb128 0xb
 2697 007b 39       		.uleb128 0x39
 2698 007c 0B       		.uleb128 0xb
 2699 007d 01       		.uleb128 0x1
 2700 007e 13       		.uleb128 0x13
 2701 007f 00       		.byte	0
 2702 0080 00       		.byte	0
 2703 0081 0A       		.uleb128 0xa
 2704 0082 0F       		.uleb128 0xf
 2705 0083 00       		.byte	0
 2706 0084 0B       		.uleb128 0xb
 2707 0085 0B       		.uleb128 0xb
 2708 0086 49       		.uleb128 0x49
 2709 0087 13       		.uleb128 0x13
 2710 0088 00       		.byte	0
 2711 0089 00       		.byte	0
 2712 008a 0B       		.uleb128 0xb
 2713 008b 0F       		.uleb128 0xf
 2714 008c 00       		.byte	0
 2715 008d 0B       		.uleb128 0xb
 2716 008e 0B       		.uleb128 0xb
 2717 008f 00       		.byte	0
 2718 0090 00       		.byte	0
 2719 0091 0C       		.uleb128 0xc
 2720 0092 15       		.uleb128 0x15
 2721 0093 01       		.byte	0x1
 2722 0094 27       		.uleb128 0x27
 2723 0095 19       		.uleb128 0x19
 2724 0096 01       		.uleb128 0x1
 2725 0097 13       		.uleb128 0x13
 2726 0098 00       		.byte	0
 2727 0099 00       		.byte	0
 2728 009a 0D       		.uleb128 0xd
 2729 009b 05       		.uleb128 0x5
 2730 009c 00       		.byte	0
 2731 009d 49       		.uleb128 0x49
 2732 009e 13       		.uleb128 0x13
 2733 009f 00       		.byte	0
 2734 00a0 00       		.byte	0
 2735 00a1 0E       		.uleb128 0xe
 2736 00a2 34       		.uleb128 0x34
ARM GAS  /var/folders/l5/0x54b2c10074c8bt31ycjvl80000gp/T//ccIsYVMU.s 			page 49


 2737 00a3 00       		.byte	0
 2738 00a4 03       		.uleb128 0x3
 2739 00a5 0E       		.uleb128 0xe
 2740 00a6 3A       		.uleb128 0x3a
 2741 00a7 0B       		.uleb128 0xb
 2742 00a8 3B       		.uleb128 0x3b
 2743 00a9 0B       		.uleb128 0xb
 2744 00aa 39       		.uleb128 0x39
 2745 00ab 0B       		.uleb128 0xb
 2746 00ac 49       		.uleb128 0x49
 2747 00ad 13       		.uleb128 0x13
 2748 00ae 3F       		.uleb128 0x3f
 2749 00af 19       		.uleb128 0x19
 2750 00b0 3C       		.uleb128 0x3c
 2751 00b1 19       		.uleb128 0x19
 2752 00b2 00       		.byte	0
 2753 00b3 00       		.byte	0
 2754 00b4 0F       		.uleb128 0xf
 2755 00b5 17       		.uleb128 0x17
 2756 00b6 01       		.byte	0x1
 2757 00b7 0B       		.uleb128 0xb
 2758 00b8 0B       		.uleb128 0xb
 2759 00b9 3A       		.uleb128 0x3a
 2760 00ba 0B       		.uleb128 0xb
 2761 00bb 3B       		.uleb128 0x3b
 2762 00bc 0B       		.uleb128 0xb
 2763 00bd 39       		.uleb128 0x39
 2764 00be 0B       		.uleb128 0xb
 2765 00bf 01       		.uleb128 0x1
 2766 00c0 13       		.uleb128 0x13
 2767 00c1 00       		.byte	0
 2768 00c2 00       		.byte	0
 2769 00c3 10       		.uleb128 0x10
 2770 00c4 0D       		.uleb128 0xd
 2771 00c5 00       		.byte	0
 2772 00c6 03       		.uleb128 0x3
 2773 00c7 0E       		.uleb128 0xe
 2774 00c8 3A       		.uleb128 0x3a
 2775 00c9 0B       		.uleb128 0xb
 2776 00ca 3B       		.uleb128 0x3b
 2777 00cb 0B       		.uleb128 0xb
 2778 00cc 39       		.uleb128 0x39
 2779 00cd 0B       		.uleb128 0xb
 2780 00ce 49       		.uleb128 0x49
 2781 00cf 13       		.uleb128 0x13
 2782 00d0 00       		.byte	0
 2783 00d1 00       		.byte	0
 2784 00d2 11       		.uleb128 0x11
 2785 00d3 26       		.uleb128 0x26
 2786 00d4 00       		.byte	0
 2787 00d5 49       		.uleb128 0x49
 2788 00d6 13       		.uleb128 0x13
 2789 00d7 00       		.byte	0
 2790 00d8 00       		.byte	0
 2791 00d9 12       		.uleb128 0x12
 2792 00da 01       		.uleb128 0x1
 2793 00db 01       		.byte	0x1
ARM GAS  /var/folders/l5/0x54b2c10074c8bt31ycjvl80000gp/T//ccIsYVMU.s 			page 50


 2794 00dc 49       		.uleb128 0x49
 2795 00dd 13       		.uleb128 0x13
 2796 00de 01       		.uleb128 0x1
 2797 00df 13       		.uleb128 0x13
 2798 00e0 00       		.byte	0
 2799 00e1 00       		.byte	0
 2800 00e2 13       		.uleb128 0x13
 2801 00e3 21       		.uleb128 0x21
 2802 00e4 00       		.byte	0
 2803 00e5 49       		.uleb128 0x49
 2804 00e6 13       		.uleb128 0x13
 2805 00e7 2F       		.uleb128 0x2f
 2806 00e8 0B       		.uleb128 0xb
 2807 00e9 00       		.byte	0
 2808 00ea 00       		.byte	0
 2809 00eb 14       		.uleb128 0x14
 2810 00ec 34       		.uleb128 0x34
 2811 00ed 00       		.byte	0
 2812 00ee 47       		.uleb128 0x47
 2813 00ef 13       		.uleb128 0x13
 2814 00f0 3A       		.uleb128 0x3a
 2815 00f1 0B       		.uleb128 0xb
 2816 00f2 3B       		.uleb128 0x3b
 2817 00f3 0B       		.uleb128 0xb
 2818 00f4 39       		.uleb128 0x39
 2819 00f5 0B       		.uleb128 0xb
 2820 00f6 02       		.uleb128 0x2
 2821 00f7 18       		.uleb128 0x18
 2822 00f8 00       		.byte	0
 2823 00f9 00       		.byte	0
 2824 00fa 15       		.uleb128 0x15
 2825 00fb 2E       		.uleb128 0x2e
 2826 00fc 01       		.byte	0x1
 2827 00fd 3F       		.uleb128 0x3f
 2828 00fe 19       		.uleb128 0x19
 2829 00ff 03       		.uleb128 0x3
 2830 0100 0E       		.uleb128 0xe
 2831 0101 3A       		.uleb128 0x3a
 2832 0102 0B       		.uleb128 0xb
 2833 0103 3B       		.uleb128 0x3b
 2834 0104 05       		.uleb128 0x5
 2835 0105 39       		.uleb128 0x39
 2836 0106 0B       		.uleb128 0xb
 2837 0107 27       		.uleb128 0x27
 2838 0108 19       		.uleb128 0x19
 2839 0109 11       		.uleb128 0x11
 2840 010a 01       		.uleb128 0x1
 2841 010b 12       		.uleb128 0x12
 2842 010c 06       		.uleb128 0x6
 2843 010d 40       		.uleb128 0x40
 2844 010e 18       		.uleb128 0x18
 2845 010f 9742     		.uleb128 0x2117
 2846 0111 19       		.uleb128 0x19
 2847 0112 01       		.uleb128 0x1
 2848 0113 13       		.uleb128 0x13
 2849 0114 00       		.byte	0
 2850 0115 00       		.byte	0
ARM GAS  /var/folders/l5/0x54b2c10074c8bt31ycjvl80000gp/T//ccIsYVMU.s 			page 51


 2851 0116 16       		.uleb128 0x16
 2852 0117 898201   		.uleb128 0x4109
 2853 011a 00       		.byte	0
 2854 011b 11       		.uleb128 0x11
 2855 011c 01       		.uleb128 0x1
 2856 011d 9542     		.uleb128 0x2115
 2857 011f 19       		.uleb128 0x19
 2858 0120 31       		.uleb128 0x31
 2859 0121 13       		.uleb128 0x13
 2860 0122 00       		.byte	0
 2861 0123 00       		.byte	0
 2862 0124 17       		.uleb128 0x17
 2863 0125 34       		.uleb128 0x34
 2864 0126 00       		.byte	0
 2865 0127 03       		.uleb128 0x3
 2866 0128 08       		.uleb128 0x8
 2867 0129 3A       		.uleb128 0x3a
 2868 012a 0B       		.uleb128 0xb
 2869 012b 3B       		.uleb128 0x3b
 2870 012c 05       		.uleb128 0x5
 2871 012d 39       		.uleb128 0x39
 2872 012e 0B       		.uleb128 0xb
 2873 012f 49       		.uleb128 0x49
 2874 0130 13       		.uleb128 0x13
 2875 0131 02       		.uleb128 0x2
 2876 0132 17       		.uleb128 0x17
 2877 0133 B742     		.uleb128 0x2137
 2878 0135 17       		.uleb128 0x17
 2879 0136 00       		.byte	0
 2880 0137 00       		.byte	0
 2881 0138 18       		.uleb128 0x18
 2882 0139 1D       		.uleb128 0x1d
 2883 013a 01       		.byte	0x1
 2884 013b 31       		.uleb128 0x31
 2885 013c 13       		.uleb128 0x13
 2886 013d 52       		.uleb128 0x52
 2887 013e 01       		.uleb128 0x1
 2888 013f B842     		.uleb128 0x2138
 2889 0141 0B       		.uleb128 0xb
 2890 0142 55       		.uleb128 0x55
 2891 0143 17       		.uleb128 0x17
 2892 0144 58       		.uleb128 0x58
 2893 0145 0B       		.uleb128 0xb
 2894 0146 59       		.uleb128 0x59
 2895 0147 05       		.uleb128 0x5
 2896 0148 57       		.uleb128 0x57
 2897 0149 0B       		.uleb128 0xb
 2898 014a 01       		.uleb128 0x1
 2899 014b 13       		.uleb128 0x13
 2900 014c 00       		.byte	0
 2901 014d 00       		.byte	0
 2902 014e 19       		.uleb128 0x19
 2903 014f 05       		.uleb128 0x5
 2904 0150 00       		.byte	0
 2905 0151 31       		.uleb128 0x31
 2906 0152 13       		.uleb128 0x13
 2907 0153 02       		.uleb128 0x2
ARM GAS  /var/folders/l5/0x54b2c10074c8bt31ycjvl80000gp/T//ccIsYVMU.s 			page 52


 2908 0154 17       		.uleb128 0x17
 2909 0155 B742     		.uleb128 0x2137
 2910 0157 17       		.uleb128 0x17
 2911 0158 00       		.byte	0
 2912 0159 00       		.byte	0
 2913 015a 1A       		.uleb128 0x1a
 2914 015b 0B       		.uleb128 0xb
 2915 015c 01       		.byte	0x1
 2916 015d 55       		.uleb128 0x55
 2917 015e 17       		.uleb128 0x17
 2918 015f 00       		.byte	0
 2919 0160 00       		.byte	0
 2920 0161 1B       		.uleb128 0x1b
 2921 0162 34       		.uleb128 0x34
 2922 0163 00       		.byte	0
 2923 0164 31       		.uleb128 0x31
 2924 0165 13       		.uleb128 0x13
 2925 0166 02       		.uleb128 0x2
 2926 0167 17       		.uleb128 0x17
 2927 0168 B742     		.uleb128 0x2137
 2928 016a 17       		.uleb128 0x17
 2929 016b 00       		.byte	0
 2930 016c 00       		.byte	0
 2931 016d 1C       		.uleb128 0x1c
 2932 016e 2E       		.uleb128 0x2e
 2933 016f 01       		.byte	0x1
 2934 0170 3F       		.uleb128 0x3f
 2935 0171 19       		.uleb128 0x19
 2936 0172 03       		.uleb128 0x3
 2937 0173 0E       		.uleb128 0xe
 2938 0174 3A       		.uleb128 0x3a
 2939 0175 0B       		.uleb128 0xb
 2940 0176 3B       		.uleb128 0x3b
 2941 0177 05       		.uleb128 0x5
 2942 0178 39       		.uleb128 0x39
 2943 0179 0B       		.uleb128 0xb
 2944 017a 27       		.uleb128 0x27
 2945 017b 19       		.uleb128 0x19
 2946 017c 49       		.uleb128 0x49
 2947 017d 13       		.uleb128 0x13
 2948 017e 11       		.uleb128 0x11
 2949 017f 01       		.uleb128 0x1
 2950 0180 12       		.uleb128 0x12
 2951 0181 06       		.uleb128 0x6
 2952 0182 40       		.uleb128 0x40
 2953 0183 18       		.uleb128 0x18
 2954 0184 9742     		.uleb128 0x2117
 2955 0186 19       		.uleb128 0x19
 2956 0187 01       		.uleb128 0x1
 2957 0188 13       		.uleb128 0x13
 2958 0189 00       		.byte	0
 2959 018a 00       		.byte	0
 2960 018b 1D       		.uleb128 0x1d
 2961 018c 2E       		.uleb128 0x2e
 2962 018d 01       		.byte	0x1
 2963 018e 3F       		.uleb128 0x3f
 2964 018f 19       		.uleb128 0x19
ARM GAS  /var/folders/l5/0x54b2c10074c8bt31ycjvl80000gp/T//ccIsYVMU.s 			page 53


 2965 0190 03       		.uleb128 0x3
 2966 0191 0E       		.uleb128 0xe
 2967 0192 3A       		.uleb128 0x3a
 2968 0193 0B       		.uleb128 0xb
 2969 0194 3B       		.uleb128 0x3b
 2970 0195 0B       		.uleb128 0xb
 2971 0196 39       		.uleb128 0x39
 2972 0197 0B       		.uleb128 0xb
 2973 0198 27       		.uleb128 0x27
 2974 0199 19       		.uleb128 0x19
 2975 019a 11       		.uleb128 0x11
 2976 019b 01       		.uleb128 0x1
 2977 019c 12       		.uleb128 0x12
 2978 019d 06       		.uleb128 0x6
 2979 019e 40       		.uleb128 0x40
 2980 019f 18       		.uleb128 0x18
 2981 01a0 9742     		.uleb128 0x2117
 2982 01a2 19       		.uleb128 0x19
 2983 01a3 01       		.uleb128 0x1
 2984 01a4 13       		.uleb128 0x13
 2985 01a5 00       		.byte	0
 2986 01a6 00       		.byte	0
 2987 01a7 1E       		.uleb128 0x1e
 2988 01a8 05       		.uleb128 0x5
 2989 01a9 00       		.byte	0
 2990 01aa 03       		.uleb128 0x3
 2991 01ab 08       		.uleb128 0x8
 2992 01ac 3A       		.uleb128 0x3a
 2993 01ad 0B       		.uleb128 0xb
 2994 01ae 3B       		.uleb128 0x3b
 2995 01af 0B       		.uleb128 0xb
 2996 01b0 39       		.uleb128 0x39
 2997 01b1 0B       		.uleb128 0xb
 2998 01b2 49       		.uleb128 0x49
 2999 01b3 13       		.uleb128 0x13
 3000 01b4 02       		.uleb128 0x2
 3001 01b5 17       		.uleb128 0x17
 3002 01b6 B742     		.uleb128 0x2137
 3003 01b8 17       		.uleb128 0x17
 3004 01b9 00       		.byte	0
 3005 01ba 00       		.byte	0
 3006 01bb 1F       		.uleb128 0x1f
 3007 01bc 0B       		.uleb128 0xb
 3008 01bd 01       		.byte	0x1
 3009 01be 55       		.uleb128 0x55
 3010 01bf 17       		.uleb128 0x17
 3011 01c0 01       		.uleb128 0x1
 3012 01c1 13       		.uleb128 0x13
 3013 01c2 00       		.byte	0
 3014 01c3 00       		.byte	0
 3015 01c4 20       		.uleb128 0x20
 3016 01c5 34       		.uleb128 0x34
 3017 01c6 00       		.byte	0
 3018 01c7 03       		.uleb128 0x3
 3019 01c8 08       		.uleb128 0x8
 3020 01c9 3A       		.uleb128 0x3a
 3021 01ca 0B       		.uleb128 0xb
ARM GAS  /var/folders/l5/0x54b2c10074c8bt31ycjvl80000gp/T//ccIsYVMU.s 			page 54


 3022 01cb 3B       		.uleb128 0x3b
 3023 01cc 0B       		.uleb128 0xb
 3024 01cd 39       		.uleb128 0x39
 3025 01ce 0B       		.uleb128 0xb
 3026 01cf 49       		.uleb128 0x49
 3027 01d0 13       		.uleb128 0x13
 3028 01d1 02       		.uleb128 0x2
 3029 01d2 17       		.uleb128 0x17
 3030 01d3 B742     		.uleb128 0x2137
 3031 01d5 17       		.uleb128 0x17
 3032 01d6 00       		.byte	0
 3033 01d7 00       		.byte	0
 3034 01d8 21       		.uleb128 0x21
 3035 01d9 1D       		.uleb128 0x1d
 3036 01da 01       		.byte	0x1
 3037 01db 31       		.uleb128 0x31
 3038 01dc 13       		.uleb128 0x13
 3039 01dd 52       		.uleb128 0x52
 3040 01de 01       		.uleb128 0x1
 3041 01df B842     		.uleb128 0x2138
 3042 01e1 0B       		.uleb128 0xb
 3043 01e2 55       		.uleb128 0x55
 3044 01e3 17       		.uleb128 0x17
 3045 01e4 58       		.uleb128 0x58
 3046 01e5 0B       		.uleb128 0xb
 3047 01e6 59       		.uleb128 0x59
 3048 01e7 0B       		.uleb128 0xb
 3049 01e8 57       		.uleb128 0x57
 3050 01e9 0B       		.uleb128 0xb
 3051 01ea 01       		.uleb128 0x1
 3052 01eb 13       		.uleb128 0x13
 3053 01ec 00       		.byte	0
 3054 01ed 00       		.byte	0
 3055 01ee 22       		.uleb128 0x22
 3056 01ef 898201   		.uleb128 0x4109
 3057 01f2 01       		.byte	0x1
 3058 01f3 11       		.uleb128 0x11
 3059 01f4 01       		.uleb128 0x1
 3060 01f5 9542     		.uleb128 0x2115
 3061 01f7 19       		.uleb128 0x19
 3062 01f8 31       		.uleb128 0x31
 3063 01f9 13       		.uleb128 0x13
 3064 01fa 00       		.byte	0
 3065 01fb 00       		.byte	0
 3066 01fc 23       		.uleb128 0x23
 3067 01fd 8A8201   		.uleb128 0x410a
 3068 0200 00       		.byte	0
 3069 0201 02       		.uleb128 0x2
 3070 0202 18       		.uleb128 0x18
 3071 0203 9142     		.uleb128 0x2111
 3072 0205 18       		.uleb128 0x18
 3073 0206 00       		.byte	0
 3074 0207 00       		.byte	0
 3075 0208 24       		.uleb128 0x24
 3076 0209 1D       		.uleb128 0x1d
 3077 020a 01       		.byte	0x1
 3078 020b 31       		.uleb128 0x31
ARM GAS  /var/folders/l5/0x54b2c10074c8bt31ycjvl80000gp/T//ccIsYVMU.s 			page 55


 3079 020c 13       		.uleb128 0x13
 3080 020d 52       		.uleb128 0x52
 3081 020e 01       		.uleb128 0x1
 3082 020f B842     		.uleb128 0x2138
 3083 0211 0B       		.uleb128 0xb
 3084 0212 11       		.uleb128 0x11
 3085 0213 01       		.uleb128 0x1
 3086 0214 12       		.uleb128 0x12
 3087 0215 06       		.uleb128 0x6
 3088 0216 58       		.uleb128 0x58
 3089 0217 0B       		.uleb128 0xb
 3090 0218 59       		.uleb128 0x59
 3091 0219 0B       		.uleb128 0xb
 3092 021a 57       		.uleb128 0x57
 3093 021b 0B       		.uleb128 0xb
 3094 021c 00       		.byte	0
 3095 021d 00       		.byte	0
 3096 021e 25       		.uleb128 0x25
 3097 021f 0B       		.uleb128 0xb
 3098 0220 01       		.byte	0x1
 3099 0221 11       		.uleb128 0x11
 3100 0222 01       		.uleb128 0x1
 3101 0223 12       		.uleb128 0x12
 3102 0224 06       		.uleb128 0x6
 3103 0225 00       		.byte	0
 3104 0226 00       		.byte	0
 3105 0227 26       		.uleb128 0x26
 3106 0228 2E       		.uleb128 0x2e
 3107 0229 01       		.byte	0x1
 3108 022a 3F       		.uleb128 0x3f
 3109 022b 19       		.uleb128 0x19
 3110 022c 03       		.uleb128 0x3
 3111 022d 0E       		.uleb128 0xe
 3112 022e 3A       		.uleb128 0x3a
 3113 022f 0B       		.uleb128 0xb
 3114 0230 3B       		.uleb128 0x3b
 3115 0231 0B       		.uleb128 0xb
 3116 0232 39       		.uleb128 0x39
 3117 0233 0B       		.uleb128 0xb
 3118 0234 27       		.uleb128 0x27
 3119 0235 19       		.uleb128 0x19
 3120 0236 49       		.uleb128 0x49
 3121 0237 13       		.uleb128 0x13
 3122 0238 11       		.uleb128 0x11
 3123 0239 01       		.uleb128 0x1
 3124 023a 12       		.uleb128 0x12
 3125 023b 06       		.uleb128 0x6
 3126 023c 40       		.uleb128 0x40
 3127 023d 18       		.uleb128 0x18
 3128 023e 9742     		.uleb128 0x2117
 3129 0240 19       		.uleb128 0x19
 3130 0241 01       		.uleb128 0x1
 3131 0242 13       		.uleb128 0x13
 3132 0243 00       		.byte	0
 3133 0244 00       		.byte	0
 3134 0245 27       		.uleb128 0x27
 3135 0246 05       		.uleb128 0x5
ARM GAS  /var/folders/l5/0x54b2c10074c8bt31ycjvl80000gp/T//ccIsYVMU.s 			page 56


 3136 0247 00       		.byte	0
 3137 0248 03       		.uleb128 0x3
 3138 0249 0E       		.uleb128 0xe
 3139 024a 3A       		.uleb128 0x3a
 3140 024b 0B       		.uleb128 0xb
 3141 024c 3B       		.uleb128 0x3b
 3142 024d 0B       		.uleb128 0xb
 3143 024e 39       		.uleb128 0x39
 3144 024f 0B       		.uleb128 0xb
 3145 0250 49       		.uleb128 0x49
 3146 0251 13       		.uleb128 0x13
 3147 0252 02       		.uleb128 0x2
 3148 0253 17       		.uleb128 0x17
 3149 0254 B742     		.uleb128 0x2137
 3150 0256 17       		.uleb128 0x17
 3151 0257 00       		.byte	0
 3152 0258 00       		.byte	0
 3153 0259 28       		.uleb128 0x28
 3154 025a 0B       		.uleb128 0xb
 3155 025b 01       		.byte	0x1
 3156 025c 11       		.uleb128 0x11
 3157 025d 01       		.uleb128 0x1
 3158 025e 12       		.uleb128 0x12
 3159 025f 06       		.uleb128 0x6
 3160 0260 01       		.uleb128 0x1
 3161 0261 13       		.uleb128 0x13
 3162 0262 00       		.byte	0
 3163 0263 00       		.byte	0
 3164 0264 29       		.uleb128 0x29
 3165 0265 34       		.uleb128 0x34
 3166 0266 00       		.byte	0
 3167 0267 03       		.uleb128 0x3
 3168 0268 08       		.uleb128 0x8
 3169 0269 3A       		.uleb128 0x3a
 3170 026a 0B       		.uleb128 0xb
 3171 026b 3B       		.uleb128 0x3b
 3172 026c 0B       		.uleb128 0xb
 3173 026d 39       		.uleb128 0x39
 3174 026e 0B       		.uleb128 0xb
 3175 026f 49       		.uleb128 0x49
 3176 0270 13       		.uleb128 0x13
 3177 0271 02       		.uleb128 0x2
 3178 0272 18       		.uleb128 0x18
 3179 0273 00       		.byte	0
 3180 0274 00       		.byte	0
 3181 0275 2A       		.uleb128 0x2a
 3182 0276 898201   		.uleb128 0x4109
 3183 0279 01       		.byte	0x1
 3184 027a 11       		.uleb128 0x11
 3185 027b 01       		.uleb128 0x1
 3186 027c 31       		.uleb128 0x31
 3187 027d 13       		.uleb128 0x13
 3188 027e 01       		.uleb128 0x1
 3189 027f 13       		.uleb128 0x13
 3190 0280 00       		.byte	0
 3191 0281 00       		.byte	0
 3192 0282 2B       		.uleb128 0x2b
ARM GAS  /var/folders/l5/0x54b2c10074c8bt31ycjvl80000gp/T//ccIsYVMU.s 			page 57


 3193 0283 898201   		.uleb128 0x4109
 3194 0286 01       		.byte	0x1
 3195 0287 11       		.uleb128 0x11
 3196 0288 01       		.uleb128 0x1
 3197 0289 31       		.uleb128 0x31
 3198 028a 13       		.uleb128 0x13
 3199 028b 00       		.byte	0
 3200 028c 00       		.byte	0
 3201 028d 2C       		.uleb128 0x2c
 3202 028e 898201   		.uleb128 0x4109
 3203 0291 00       		.byte	0
 3204 0292 11       		.uleb128 0x11
 3205 0293 01       		.uleb128 0x1
 3206 0294 31       		.uleb128 0x31
 3207 0295 13       		.uleb128 0x13
 3208 0296 00       		.byte	0
 3209 0297 00       		.byte	0
 3210 0298 2D       		.uleb128 0x2d
 3211 0299 2E       		.uleb128 0x2e
 3212 029a 01       		.byte	0x1
 3213 029b 03       		.uleb128 0x3
 3214 029c 0E       		.uleb128 0xe
 3215 029d 3A       		.uleb128 0x3a
 3216 029e 0B       		.uleb128 0xb
 3217 029f 3B       		.uleb128 0x3b
 3218 02a0 0B       		.uleb128 0xb
 3219 02a1 39       		.uleb128 0x39
 3220 02a2 0B       		.uleb128 0xb
 3221 02a3 27       		.uleb128 0x27
 3222 02a4 19       		.uleb128 0x19
 3223 02a5 20       		.uleb128 0x20
 3224 02a6 0B       		.uleb128 0xb
 3225 02a7 01       		.uleb128 0x1
 3226 02a8 13       		.uleb128 0x13
 3227 02a9 00       		.byte	0
 3228 02aa 00       		.byte	0
 3229 02ab 2E       		.uleb128 0x2e
 3230 02ac 05       		.uleb128 0x5
 3231 02ad 00       		.byte	0
 3232 02ae 03       		.uleb128 0x3
 3233 02af 08       		.uleb128 0x8
 3234 02b0 3A       		.uleb128 0x3a
 3235 02b1 0B       		.uleb128 0xb
 3236 02b2 3B       		.uleb128 0x3b
 3237 02b3 0B       		.uleb128 0xb
 3238 02b4 39       		.uleb128 0x39
 3239 02b5 0B       		.uleb128 0xb
 3240 02b6 49       		.uleb128 0x49
 3241 02b7 13       		.uleb128 0x13
 3242 02b8 00       		.byte	0
 3243 02b9 00       		.byte	0
 3244 02ba 2F       		.uleb128 0x2f
 3245 02bb 34       		.uleb128 0x34
 3246 02bc 00       		.byte	0
 3247 02bd 03       		.uleb128 0x3
 3248 02be 08       		.uleb128 0x8
 3249 02bf 3A       		.uleb128 0x3a
ARM GAS  /var/folders/l5/0x54b2c10074c8bt31ycjvl80000gp/T//ccIsYVMU.s 			page 58


 3250 02c0 0B       		.uleb128 0xb
 3251 02c1 3B       		.uleb128 0x3b
 3252 02c2 0B       		.uleb128 0xb
 3253 02c3 39       		.uleb128 0x39
 3254 02c4 0B       		.uleb128 0xb
 3255 02c5 49       		.uleb128 0x49
 3256 02c6 13       		.uleb128 0x13
 3257 02c7 00       		.byte	0
 3258 02c8 00       		.byte	0
 3259 02c9 30       		.uleb128 0x30
 3260 02ca 2E       		.uleb128 0x2e
 3261 02cb 01       		.byte	0x1
 3262 02cc 3F       		.uleb128 0x3f
 3263 02cd 19       		.uleb128 0x19
 3264 02ce 03       		.uleb128 0x3
 3265 02cf 0E       		.uleb128 0xe
 3266 02d0 3A       		.uleb128 0x3a
 3267 02d1 0B       		.uleb128 0xb
 3268 02d2 3B       		.uleb128 0x3b
 3269 02d3 0B       		.uleb128 0xb
 3270 02d4 39       		.uleb128 0x39
 3271 02d5 0B       		.uleb128 0xb
 3272 02d6 27       		.uleb128 0x27
 3273 02d7 19       		.uleb128 0x19
 3274 02d8 49       		.uleb128 0x49
 3275 02d9 13       		.uleb128 0x13
 3276 02da 20       		.uleb128 0x20
 3277 02db 0B       		.uleb128 0xb
 3278 02dc 01       		.uleb128 0x1
 3279 02dd 13       		.uleb128 0x13
 3280 02de 00       		.byte	0
 3281 02df 00       		.byte	0
 3282 02e0 31       		.uleb128 0x31
 3283 02e1 2E       		.uleb128 0x2e
 3284 02e2 00       		.byte	0
 3285 02e3 3F       		.uleb128 0x3f
 3286 02e4 19       		.uleb128 0x19
 3287 02e5 03       		.uleb128 0x3
 3288 02e6 0E       		.uleb128 0xe
 3289 02e7 3A       		.uleb128 0x3a
 3290 02e8 0B       		.uleb128 0xb
 3291 02e9 3B       		.uleb128 0x3b
 3292 02ea 0B       		.uleb128 0xb
 3293 02eb 39       		.uleb128 0x39
 3294 02ec 0B       		.uleb128 0xb
 3295 02ed 27       		.uleb128 0x27
 3296 02ee 19       		.uleb128 0x19
 3297 02ef 11       		.uleb128 0x11
 3298 02f0 01       		.uleb128 0x1
 3299 02f1 12       		.uleb128 0x12
 3300 02f2 06       		.uleb128 0x6
 3301 02f3 40       		.uleb128 0x40
 3302 02f4 18       		.uleb128 0x18
 3303 02f5 9742     		.uleb128 0x2117
 3304 02f7 19       		.uleb128 0x19
 3305 02f8 00       		.byte	0
 3306 02f9 00       		.byte	0
ARM GAS  /var/folders/l5/0x54b2c10074c8bt31ycjvl80000gp/T//ccIsYVMU.s 			page 59


 3307 02fa 32       		.uleb128 0x32
 3308 02fb 2E       		.uleb128 0x2e
 3309 02fc 01       		.byte	0x1
 3310 02fd 03       		.uleb128 0x3
 3311 02fe 0E       		.uleb128 0xe
 3312 02ff 3A       		.uleb128 0x3a
 3313 0300 0B       		.uleb128 0xb
 3314 0301 3B       		.uleb128 0x3b
 3315 0302 0B       		.uleb128 0xb
 3316 0303 39       		.uleb128 0x39
 3317 0304 0B       		.uleb128 0xb
 3318 0305 27       		.uleb128 0x27
 3319 0306 19       		.uleb128 0x19
 3320 0307 49       		.uleb128 0x49
 3321 0308 13       		.uleb128 0x13
 3322 0309 20       		.uleb128 0x20
 3323 030a 0B       		.uleb128 0xb
 3324 030b 01       		.uleb128 0x1
 3325 030c 13       		.uleb128 0x13
 3326 030d 00       		.byte	0
 3327 030e 00       		.byte	0
 3328 030f 33       		.uleb128 0x33
 3329 0310 2E       		.uleb128 0x2e
 3330 0311 01       		.byte	0x1
 3331 0312 31       		.uleb128 0x31
 3332 0313 13       		.uleb128 0x13
 3333 0314 11       		.uleb128 0x11
 3334 0315 01       		.uleb128 0x1
 3335 0316 12       		.uleb128 0x12
 3336 0317 06       		.uleb128 0x6
 3337 0318 40       		.uleb128 0x40
 3338 0319 18       		.uleb128 0x18
 3339 031a 9742     		.uleb128 0x2117
 3340 031c 19       		.uleb128 0x19
 3341 031d 01       		.uleb128 0x1
 3342 031e 13       		.uleb128 0x13
 3343 031f 00       		.byte	0
 3344 0320 00       		.byte	0
 3345 0321 34       		.uleb128 0x34
 3346 0322 05       		.uleb128 0x5
 3347 0323 00       		.byte	0
 3348 0324 31       		.uleb128 0x31
 3349 0325 13       		.uleb128 0x13
 3350 0326 02       		.uleb128 0x2
 3351 0327 18       		.uleb128 0x18
 3352 0328 00       		.byte	0
 3353 0329 00       		.byte	0
 3354 032a 35       		.uleb128 0x35
 3355 032b 1D       		.uleb128 0x1d
 3356 032c 01       		.byte	0x1
 3357 032d 31       		.uleb128 0x31
 3358 032e 13       		.uleb128 0x13
 3359 032f 52       		.uleb128 0x52
 3360 0330 01       		.uleb128 0x1
 3361 0331 B842     		.uleb128 0x2138
 3362 0333 0B       		.uleb128 0xb
 3363 0334 11       		.uleb128 0x11
ARM GAS  /var/folders/l5/0x54b2c10074c8bt31ycjvl80000gp/T//ccIsYVMU.s 			page 60


 3364 0335 01       		.uleb128 0x1
 3365 0336 12       		.uleb128 0x12
 3366 0337 06       		.uleb128 0x6
 3367 0338 58       		.uleb128 0x58
 3368 0339 0B       		.uleb128 0xb
 3369 033a 59       		.uleb128 0x59
 3370 033b 0B       		.uleb128 0xb
 3371 033c 57       		.uleb128 0x57
 3372 033d 0B       		.uleb128 0xb
 3373 033e 01       		.uleb128 0x1
 3374 033f 13       		.uleb128 0x13
 3375 0340 00       		.byte	0
 3376 0341 00       		.byte	0
 3377 0342 36       		.uleb128 0x36
 3378 0343 1D       		.uleb128 0x1d
 3379 0344 01       		.byte	0x1
 3380 0345 31       		.uleb128 0x31
 3381 0346 13       		.uleb128 0x13
 3382 0347 52       		.uleb128 0x52
 3383 0348 01       		.uleb128 0x1
 3384 0349 B842     		.uleb128 0x2138
 3385 034b 0B       		.uleb128 0xb
 3386 034c 55       		.uleb128 0x55
 3387 034d 17       		.uleb128 0x17
 3388 034e 58       		.uleb128 0x58
 3389 034f 0B       		.uleb128 0xb
 3390 0350 59       		.uleb128 0x59
 3391 0351 0B       		.uleb128 0xb
 3392 0352 57       		.uleb128 0x57
 3393 0353 0B       		.uleb128 0xb
 3394 0354 00       		.byte	0
 3395 0355 00       		.byte	0
 3396 0356 37       		.uleb128 0x37
 3397 0357 34       		.uleb128 0x34
 3398 0358 00       		.byte	0
 3399 0359 31       		.uleb128 0x31
 3400 035a 13       		.uleb128 0x13
 3401 035b 00       		.byte	0
 3402 035c 00       		.byte	0
 3403 035d 38       		.uleb128 0x38
 3404 035e 1D       		.uleb128 0x1d
 3405 035f 01       		.byte	0x1
 3406 0360 31       		.uleb128 0x31
 3407 0361 13       		.uleb128 0x13
 3408 0362 55       		.uleb128 0x55
 3409 0363 17       		.uleb128 0x17
 3410 0364 58       		.uleb128 0x58
 3411 0365 0B       		.uleb128 0xb
 3412 0366 59       		.uleb128 0x59
 3413 0367 0B       		.uleb128 0xb
 3414 0368 57       		.uleb128 0x57
 3415 0369 0B       		.uleb128 0xb
 3416 036a 00       		.byte	0
 3417 036b 00       		.byte	0
 3418 036c 39       		.uleb128 0x39
 3419 036d 05       		.uleb128 0x5
 3420 036e 00       		.byte	0
ARM GAS  /var/folders/l5/0x54b2c10074c8bt31ycjvl80000gp/T//ccIsYVMU.s 			page 61


 3421 036f 31       		.uleb128 0x31
 3422 0370 13       		.uleb128 0x13
 3423 0371 00       		.byte	0
 3424 0372 00       		.byte	0
 3425 0373 3A       		.uleb128 0x3a
 3426 0374 2E       		.uleb128 0x2e
 3427 0375 00       		.byte	0
 3428 0376 3F       		.uleb128 0x3f
 3429 0377 19       		.uleb128 0x19
 3430 0378 3C       		.uleb128 0x3c
 3431 0379 19       		.uleb128 0x19
 3432 037a 6E       		.uleb128 0x6e
 3433 037b 0E       		.uleb128 0xe
 3434 037c 03       		.uleb128 0x3
 3435 037d 0E       		.uleb128 0xe
 3436 037e 3A       		.uleb128 0x3a
 3437 037f 0B       		.uleb128 0xb
 3438 0380 3B       		.uleb128 0x3b
 3439 0381 05       		.uleb128 0x5
 3440 0382 39       		.uleb128 0x39
 3441 0383 0B       		.uleb128 0xb
 3442 0384 00       		.byte	0
 3443 0385 00       		.byte	0
 3444 0386 3B       		.uleb128 0x3b
 3445 0387 2E       		.uleb128 0x2e
 3446 0388 00       		.byte	0
 3447 0389 3F       		.uleb128 0x3f
 3448 038a 19       		.uleb128 0x19
 3449 038b 3C       		.uleb128 0x3c
 3450 038c 19       		.uleb128 0x19
 3451 038d 6E       		.uleb128 0x6e
 3452 038e 0E       		.uleb128 0xe
 3453 038f 03       		.uleb128 0x3
 3454 0390 0E       		.uleb128 0xe
 3455 0391 3A       		.uleb128 0x3a
 3456 0392 0B       		.uleb128 0xb
 3457 0393 3B       		.uleb128 0x3b
 3458 0394 0B       		.uleb128 0xb
 3459 0395 39       		.uleb128 0x39
 3460 0396 0B       		.uleb128 0xb
 3461 0397 00       		.byte	0
 3462 0398 00       		.byte	0
 3463 0399 00       		.byte	0
 3464              		.section	.debug_loc,"",%progbits
 3465              	.Ldebug_loc0:
 3466              	.LVUS28:
 3467 0000 00       		.uleb128 .LVU302
 3468 0001 00       		.uleb128 .LVU337
 3469              	.LLST28:
 3470 0002 18000000 		.4byte	.LVL51
 3471 0006 6B000000 		.4byte	.LVL55-1
 3472 000a 0100     		.2byte	0x1
 3473 000c 51       		.byte	0x51
 3474 000d 00000000 		.4byte	0
 3475 0011 00000000 		.4byte	0
 3476              	.LVUS29:
 3477 0015 03       		.uleb128 .LVU319
ARM GAS  /var/folders/l5/0x54b2c10074c8bt31ycjvl80000gp/T//ccIsYVMU.s 			page 62


 3478 0016 00       		.uleb128 .LVU320
 3479              	.LLST29:
 3480 0017 38000000 		.4byte	.LVL53
 3481 001b 3C000000 		.4byte	.LVL54
 3482 001f 0600     		.2byte	0x6
 3483 0021 03       		.byte	0x3
 3484 0022 00000000 		.4byte	rlist
 3485 0026 9F       		.byte	0x9f
 3486 0027 00000000 		.4byte	0
 3487 002b 00000000 		.4byte	0
 3488              	.LVUS30:
 3489 002f 01       		.uleb128 .LVU303
 3490 0030 01       		.uleb128 .LVU310
 3491              	.LLST30:
 3492 0031 18000000 		.4byte	.LVL51
 3493 0035 24000000 		.4byte	.LVL52
 3494 0039 0600     		.2byte	0x6
 3495 003b 03       		.byte	0x3
 3496 003c 00000000 		.4byte	rlist
 3497 0040 9F       		.byte	0x9f
 3498 0041 00000000 		.4byte	0
 3499 0045 00000000 		.4byte	0
 3500              	.LVUS31:
 3501 0049 03       		.uleb128 .LVU305
 3502 004a 01       		.uleb128 .LVU310
 3503              	.LLST31:
 3504 004b 18000000 		.4byte	.LVL51
 3505 004f 24000000 		.4byte	.LVL52
 3506 0053 0100     		.2byte	0x1
 3507 0055 50       		.byte	0x50
 3508 0056 00000000 		.4byte	0
 3509 005a 00000000 		.4byte	0
 3510              	.LVUS23:
 3511 005e 00       		.uleb128 .LVU248
 3512 005f 00       		.uleb128 .LVU292
 3513              	.LLST23:
 3514 0060 18000000 		.4byte	.LVL45
 3515 0064 6B000000 		.4byte	.LVL50-1
 3516 0068 0100     		.2byte	0x1
 3517 006a 51       		.byte	0x51
 3518 006b 00000000 		.4byte	0
 3519 006f 00000000 		.4byte	0
 3520              	.LVUS24:
 3521 0073 02       		.uleb128 .LVU264
 3522 0074 01       		.uleb128 .LVU287
 3523              	.LLST24:
 3524 0075 38000000 		.4byte	.LVL47
 3525 0079 68000000 		.4byte	.LVL49
 3526 007d 0100     		.2byte	0x1
 3527 007f 51       		.byte	0x51
 3528 0080 00000000 		.4byte	0
 3529 0084 00000000 		.4byte	0
 3530              	.LVUS25:
 3531 0088 0A       		.uleb128 .LVU272
 3532 0089 00       		.uleb128 .LVU273
 3533              	.LLST25:
 3534 008a 38000000 		.4byte	.LVL47
ARM GAS  /var/folders/l5/0x54b2c10074c8bt31ycjvl80000gp/T//ccIsYVMU.s 			page 63


 3535 008e 3C000000 		.4byte	.LVL48
 3536 0092 0600     		.2byte	0x6
 3537 0094 03       		.byte	0x3
 3538 0095 00000000 		.4byte	rlist
 3539 0099 9F       		.byte	0x9f
 3540 009a 00000000 		.4byte	0
 3541 009e 00000000 		.4byte	0
 3542              	.LVUS26:
 3543 00a2 01       		.uleb128 .LVU249
 3544 00a3 01       		.uleb128 .LVU256
 3545              	.LLST26:
 3546 00a4 18000000 		.4byte	.LVL45
 3547 00a8 24000000 		.4byte	.LVL46
 3548 00ac 0600     		.2byte	0x6
 3549 00ae 03       		.byte	0x3
 3550 00af 00000000 		.4byte	rlist
 3551 00b3 9F       		.byte	0x9f
 3552 00b4 00000000 		.4byte	0
 3553 00b8 00000000 		.4byte	0
 3554              	.LVUS27:
 3555 00bc 03       		.uleb128 .LVU251
 3556 00bd 01       		.uleb128 .LVU256
 3557              	.LLST27:
 3558 00be 18000000 		.4byte	.LVL45
 3559 00c2 24000000 		.4byte	.LVL46
 3560 00c6 0100     		.2byte	0x1
 3561 00c8 50       		.byte	0x50
 3562 00c9 00000000 		.4byte	0
 3563 00cd 00000000 		.4byte	0
 3564              	.LVUS21:
 3565 00d1 02       		.uleb128 .LVU232
 3566 00d2 00       		.uleb128 .LVU235
 3567 00d3 00       		.uleb128 .LVU235
 3568 00d4 00       		.uleb128 .LVU237
 3569 00d5 00       		.uleb128 .LVU237
 3570 00d6 00       		.uleb128 0
 3571              	.LLST21:
 3572 00d7 00000000 		.4byte	.LVL42
 3573 00db 04000000 		.4byte	.LVL43
 3574 00df 0800     		.2byte	0x8
 3575 00e1 03       		.byte	0x3
 3576 00e2 00000000 		.4byte	rlist
 3577 00e6 06       		.byte	0x6
 3578 00e7 23       		.byte	0x23
 3579 00e8 08       		.uleb128 0x8
 3580 00e9 04000000 		.4byte	.LVL43
 3581 00ed 0C000000 		.4byte	.LVL44
 3582 00f1 0800     		.2byte	0x8
 3583 00f3 03       		.byte	0x3
 3584 00f4 00000000 		.4byte	rlist
 3585 00f8 06       		.byte	0x6
 3586 00f9 23       		.byte	0x23
 3587 00fa 08       		.uleb128 0x8
 3588 00fb 0C000000 		.4byte	.LVL44
 3589 00ff 28000000 		.4byte	.LFE14
 3590 0103 0200     		.2byte	0x2
 3591 0105 72       		.byte	0x72
ARM GAS  /var/folders/l5/0x54b2c10074c8bt31ycjvl80000gp/T//ccIsYVMU.s 			page 64


 3592 0106 08       		.sleb128 8
 3593 0107 00000000 		.4byte	0
 3594 010b 00000000 		.4byte	0
 3595              	.LVUS22:
 3596 010f 03       		.uleb128 .LVU233
 3597 0110 00       		.uleb128 0
 3598              	.LLST22:
 3599 0111 00000000 		.4byte	.LVL42
 3600 0115 28000000 		.4byte	.LFE14
 3601 0119 0800     		.2byte	0x8
 3602 011b 03       		.byte	0x3
 3603 011c 18000000 		.4byte	rlist+24
 3604 0120 06       		.byte	0x6
 3605 0121 23       		.byte	0x23
 3606 0122 08       		.uleb128 0x8
 3607 0123 00000000 		.4byte	0
 3608 0127 00000000 		.4byte	0
 3609              	.LVUS14:
 3610 012b 00       		.uleb128 0
 3611 012c 00       		.uleb128 .LVU163
 3612 012d 00       		.uleb128 .LVU163
 3613 012e 00       		.uleb128 .LVU229
 3614 012f 00       		.uleb128 .LVU229
 3615 0130 00       		.uleb128 0
 3616              	.LLST14:
 3617 0131 00000000 		.4byte	.LVL27
 3618 0135 1C000000 		.4byte	.LVL28
 3619 0139 0100     		.2byte	0x1
 3620 013b 50       		.byte	0x50
 3621 013c 1C000000 		.4byte	.LVL28
 3622 0140 A7000000 		.4byte	.LVL41-1
 3623 0144 0100     		.2byte	0x1
 3624 0146 5C       		.byte	0x5c
 3625 0147 A7000000 		.4byte	.LVL41-1
 3626 014b AC000000 		.4byte	.LFE12
 3627 014f 0400     		.2byte	0x4
 3628 0151 F3       		.byte	0xf3
 3629 0152 01       		.uleb128 0x1
 3630 0153 50       		.byte	0x50
 3631 0154 9F       		.byte	0x9f
 3632 0155 00000000 		.4byte	0
 3633 0159 00000000 		.4byte	0
 3634              	.LVUS15:
 3635 015d 00       		.uleb128 0
 3636 015e 00       		.uleb128 .LVU198
 3637 015f 00       		.uleb128 .LVU198
 3638 0160 00       		.uleb128 .LVU200
 3639 0161 00       		.uleb128 .LVU200
 3640 0162 00       		.uleb128 0
 3641              	.LLST15:
 3642 0163 00000000 		.4byte	.LVL27
 3643 0167 5C000000 		.4byte	.LVL35
 3644 016b 0100     		.2byte	0x1
 3645 016d 51       		.byte	0x51
 3646 016e 5C000000 		.4byte	.LVL35
 3647 0172 64000000 		.4byte	.LVL36
 3648 0176 0200     		.2byte	0x2
ARM GAS  /var/folders/l5/0x54b2c10074c8bt31ycjvl80000gp/T//ccIsYVMU.s 			page 65


 3649 0178 7C       		.byte	0x7c
 3650 0179 24       		.sleb128 36
 3651 017a 64000000 		.4byte	.LVL36
 3652 017e AC000000 		.4byte	.LFE12
 3653 0182 0400     		.2byte	0x4
 3654 0184 F3       		.byte	0xf3
 3655 0185 01       		.uleb128 0x1
 3656 0186 51       		.byte	0x51
 3657 0187 9F       		.byte	0x9f
 3658 0188 00000000 		.4byte	0
 3659 018c 00000000 		.4byte	0
 3660              	.LVUS18:
 3661 0190 01       		.uleb128 .LVU218
 3662 0191 00       		.uleb128 .LVU223
 3663 0192 00       		.uleb128 .LVU223
 3664 0193 00       		.uleb128 .LVU229
 3665              	.LLST18:
 3666 0194 94000000 		.4byte	.LVL39
 3667 0198 A0000000 		.4byte	.LVL40
 3668 019c 0100     		.2byte	0x1
 3669 019e 54       		.byte	0x54
 3670 019f A0000000 		.4byte	.LVL40
 3671 01a3 A7000000 		.4byte	.LVL41-1
 3672 01a7 0100     		.2byte	0x1
 3673 01a9 51       		.byte	0x51
 3674 01aa 00000000 		.4byte	0
 3675 01ae 00000000 		.4byte	0
 3676              	.LVUS19:
 3677 01b2 01       		.uleb128 .LVU190
 3678 01b3 01       		.uleb128 .LVU218
 3679              	.LLST19:
 3680 01b4 58000000 		.4byte	.LVL34
 3681 01b8 94000000 		.4byte	.LVL39
 3682 01bc 0100     		.2byte	0x1
 3683 01be 54       		.byte	0x54
 3684 01bf 00000000 		.4byte	0
 3685 01c3 00000000 		.4byte	0
 3686              	.LVUS20:
 3687 01c7 01       		.uleb128 .LVU201
 3688 01c8 00       		.uleb128 .LVU214
 3689 01c9 00       		.uleb128 .LVU214
 3690 01ca 00       		.uleb128 .LVU217
 3691              	.LLST20:
 3692 01cb 64000000 		.4byte	.LVL36
 3693 01cf 8C000000 		.4byte	.LVL38
 3694 01d3 0100     		.2byte	0x1
 3695 01d5 52       		.byte	0x52
 3696 01d6 8C000000 		.4byte	.LVL38
 3697 01da 94000000 		.4byte	.LVL39
 3698 01de 0200     		.2byte	0x2
 3699 01e0 74       		.byte	0x74
 3700 01e1 00       		.sleb128 0
 3701 01e2 00000000 		.4byte	0
 3702 01e6 00000000 		.4byte	0
 3703              	.LVUS16:
 3704 01ea 01       		.uleb128 .LVU165
 3705 01eb 00       		.uleb128 .LVU189
ARM GAS  /var/folders/l5/0x54b2c10074c8bt31ycjvl80000gp/T//ccIsYVMU.s 			page 66


 3706              	.LLST16:
 3707 01ec 24000000 		.4byte	.LVL29
 3708 01f0 58000000 		.4byte	.LVL34
 3709 01f4 0100     		.2byte	0x1
 3710 01f6 5C       		.byte	0x5c
 3711 01f7 00000000 		.4byte	0
 3712 01fb 00000000 		.4byte	0
 3713              	.LVUS17:
 3714 01ff 01       		.uleb128 .LVU174
 3715 0200 00       		.uleb128 .LVU186
 3716 0201 00       		.uleb128 .LVU186
 3717 0202 00       		.uleb128 .LVU187
 3718              	.LLST17:
 3719 0203 2C000000 		.4byte	.LVL30
 3720 0207 50000000 		.4byte	.LVL32
 3721 020b 0100     		.2byte	0x1
 3722 020d 53       		.byte	0x53
 3723 020e 50000000 		.4byte	.LVL32
 3724 0212 54000000 		.4byte	.LVL33
 3725 0216 0200     		.2byte	0x2
 3726 0218 7C       		.byte	0x7c
 3727 0219 00       		.sleb128 0
 3728 021a 00000000 		.4byte	0
 3729 021e 00000000 		.4byte	0
 3730              	.LVUS12:
 3731 0222 00       		.uleb128 0
 3732 0223 00       		.uleb128 .LVU138
 3733 0224 00       		.uleb128 .LVU138
 3734 0225 00       		.uleb128 .LVU146
 3735 0226 00       		.uleb128 .LVU146
 3736 0227 00       		.uleb128 .LVU147
 3737 0228 00       		.uleb128 .LVU147
 3738 0229 00       		.uleb128 0
 3739              	.LLST12:
 3740 022a 00000000 		.4byte	.LVL20
 3741 022e 1C000000 		.4byte	.LVL21
 3742 0232 0100     		.2byte	0x1
 3743 0234 50       		.byte	0x50
 3744 0235 1C000000 		.4byte	.LVL21
 3745 0239 54000000 		.4byte	.LVL25
 3746 023d 0400     		.2byte	0x4
 3747 023f F3       		.byte	0xf3
 3748 0240 01       		.uleb128 0x1
 3749 0241 50       		.byte	0x50
 3750 0242 9F       		.byte	0x9f
 3751 0243 54000000 		.4byte	.LVL25
 3752 0247 57000000 		.4byte	.LVL26-1
 3753 024b 0100     		.2byte	0x1
 3754 024d 50       		.byte	0x50
 3755 024e 57000000 		.4byte	.LVL26-1
 3756 0252 74000000 		.4byte	.LFE11
 3757 0256 0400     		.2byte	0x4
 3758 0258 F3       		.byte	0xf3
 3759 0259 01       		.uleb128 0x1
 3760 025a 50       		.byte	0x50
 3761 025b 9F       		.byte	0x9f
 3762 025c 00000000 		.4byte	0
ARM GAS  /var/folders/l5/0x54b2c10074c8bt31ycjvl80000gp/T//ccIsYVMU.s 			page 67


 3763 0260 00000000 		.4byte	0
 3764              	.LVUS13:
 3765 0264 00       		.uleb128 0
 3766 0265 00       		.uleb128 .LVU139
 3767 0266 00       		.uleb128 .LVU139
 3768 0267 00       		.uleb128 .LVU146
 3769 0268 00       		.uleb128 .LVU146
 3770 0269 00       		.uleb128 .LVU147
 3771 026a 00       		.uleb128 .LVU147
 3772 026b 00       		.uleb128 0
 3773              	.LLST13:
 3774 026c 00000000 		.4byte	.LVL20
 3775 0270 27000000 		.4byte	.LVL22-1
 3776 0274 0100     		.2byte	0x1
 3777 0276 51       		.byte	0x51
 3778 0277 27000000 		.4byte	.LVL22-1
 3779 027b 54000000 		.4byte	.LVL25
 3780 027f 0400     		.2byte	0x4
 3781 0281 F3       		.byte	0xf3
 3782 0282 01       		.uleb128 0x1
 3783 0283 51       		.byte	0x51
 3784 0284 9F       		.byte	0x9f
 3785 0285 54000000 		.4byte	.LVL25
 3786 0289 57000000 		.4byte	.LVL26-1
 3787 028d 0100     		.2byte	0x1
 3788 028f 51       		.byte	0x51
 3789 0290 57000000 		.4byte	.LVL26-1
 3790 0294 74000000 		.4byte	.LFE11
 3791 0298 0400     		.2byte	0x4
 3792 029a F3       		.byte	0xf3
 3793 029b 01       		.uleb128 0x1
 3794 029c 51       		.byte	0x51
 3795 029d 9F       		.byte	0x9f
 3796 029e 00000000 		.4byte	0
 3797 02a2 00000000 		.4byte	0
 3798              	.LVUS8:
 3799 02a6 00       		.uleb128 0
 3800 02a7 00       		.uleb128 .LVU113
 3801 02a8 00       		.uleb128 .LVU113
 3802 02a9 00       		.uleb128 .LVU114
 3803 02aa 00       		.uleb128 .LVU114
 3804 02ab 00       		.uleb128 0
 3805              	.LLST8:
 3806 02ac 00000000 		.4byte	.LVL14
 3807 02b0 20000000 		.4byte	.LVL17
 3808 02b4 0100     		.2byte	0x1
 3809 02b6 50       		.byte	0x50
 3810 02b7 20000000 		.4byte	.LVL17
 3811 02bb 24000000 		.4byte	.LVL18
 3812 02bf 0200     		.2byte	0x2
 3813 02c1 71       		.byte	0x71
 3814 02c2 1C       		.sleb128 28
 3815 02c3 24000000 		.4byte	.LVL18
 3816 02c7 3C000000 		.4byte	.LFE9
 3817 02cb 0400     		.2byte	0x4
 3818 02cd F3       		.byte	0xf3
 3819 02ce 01       		.uleb128 0x1
ARM GAS  /var/folders/l5/0x54b2c10074c8bt31ycjvl80000gp/T//ccIsYVMU.s 			page 68


 3820 02cf 50       		.byte	0x50
 3821 02d0 9F       		.byte	0x9f
 3822 02d1 00000000 		.4byte	0
 3823 02d5 00000000 		.4byte	0
 3824              	.LVUS9:
 3825 02d9 00       		.uleb128 .LVU105
 3826 02da 00       		.uleb128 .LVU125
 3827              	.LLST9:
 3828 02db 10000000 		.4byte	.LVL15
 3829 02df 37000000 		.4byte	.LVL19-1
 3830 02e3 0100     		.2byte	0x1
 3831 02e5 51       		.byte	0x51
 3832 02e6 00000000 		.4byte	0
 3833 02ea 00000000 		.4byte	0
 3834              	.LVUS10:
 3835 02ee 01       		.uleb128 .LVU108
 3836 02ef 01       		.uleb128 .LVU115
 3837              	.LLST10:
 3838 02f0 18000000 		.4byte	.LVL16
 3839 02f4 24000000 		.4byte	.LVL18
 3840 02f8 0600     		.2byte	0x6
 3841 02fa 03       		.byte	0x3
 3842 02fb 00000000 		.4byte	rlist
 3843 02ff 9F       		.byte	0x9f
 3844 0300 00000000 		.4byte	0
 3845 0304 00000000 		.4byte	0
 3846              	.LVUS11:
 3847 0308 03       		.uleb128 .LVU110
 3848 0309 01       		.uleb128 .LVU115
 3849              	.LLST11:
 3850 030a 18000000 		.4byte	.LVL16
 3851 030e 24000000 		.4byte	.LVL18
 3852 0312 0100     		.2byte	0x1
 3853 0314 52       		.byte	0x52
 3854 0315 00000000 		.4byte	0
 3855 0319 00000000 		.4byte	0
 3856              	.LVUS0:
 3857 031d 02       		.uleb128 .LVU2
 3858 031e 00       		.uleb128 0
 3859              	.LLST0:
 3860 031f 00000000 		.4byte	.LVL0
 3861 0323 B0000000 		.4byte	.LFE10
 3862 0327 0100     		.2byte	0x1
 3863 0329 50       		.byte	0x50
 3864 032a 00000000 		.4byte	0
 3865 032e 00000000 		.4byte	0
 3866              	.LVUS1:
 3867 0332 01       		.uleb128 .LVU8
 3868 0333 01       		.uleb128 .LVU16
 3869              	.LLST1:
 3870 0334 58000000 		.4byte	.LVL1
 3871 0338 68000000 		.4byte	.LVL2
 3872 033c 0100     		.2byte	0x1
 3873 033e 50       		.byte	0x50
 3874 033f 00000000 		.4byte	0
 3875 0343 00000000 		.4byte	0
 3876              	.LVUS2:
ARM GAS  /var/folders/l5/0x54b2c10074c8bt31ycjvl80000gp/T//ccIsYVMU.s 			page 69


 3877 0347 01       		.uleb128 .LVU24
 3878 0348 07       		.uleb128 .LVU55
 3879              	.LLST2:
 3880 0349 7C000000 		.4byte	.LVL3
 3881 034d A8000000 		.4byte	.LVL7
 3882 0351 0100     		.2byte	0x1
 3883 0353 50       		.byte	0x50
 3884 0354 00000000 		.4byte	0
 3885 0358 00000000 		.4byte	0
 3886              	.LVUS3:
 3887 035c 01       		.uleb128 .LVU33
 3888 035d 07       		.uleb128 .LVU55
 3889              	.LLST3:
 3890 035e 80000000 		.4byte	.LVL4
 3891 0362 A8000000 		.4byte	.LVL7
 3892 0366 0600     		.2byte	0x6
 3893 0368 03       		.byte	0x3
 3894 0369 00000000 		.4byte	rlist
 3895 036d 9F       		.byte	0x9f
 3896 036e 00000000 		.4byte	0
 3897 0372 00000000 		.4byte	0
 3898              	.LVUS4:
 3899 0376 01       		.uleb128 .LVU33
 3900 0377 07       		.uleb128 .LVU55
 3901              	.LLST4:
 3902 0378 80000000 		.4byte	.LVL4
 3903 037c A8000000 		.4byte	.LVL7
 3904 0380 0100     		.2byte	0x1
 3905 0382 50       		.byte	0x50
 3906 0383 00000000 		.4byte	0
 3907 0387 00000000 		.4byte	0
 3908              	.LVUS5:
 3909 038b 03       		.uleb128 .LVU35
 3910 038c 00       		.uleb128 .LVU47
 3911 038d 00       		.uleb128 .LVU47
 3912 038e 00       		.uleb128 .LVU48
 3913              	.LLST5:
 3914 038f 80000000 		.4byte	.LVL4
 3915 0393 A4000000 		.4byte	.LVL6
 3916 0397 0100     		.2byte	0x1
 3917 0399 53       		.byte	0x53
 3918 039a A4000000 		.4byte	.LVL6
 3919 039e A8000000 		.4byte	.LVL7
 3920 03a2 0200     		.2byte	0x2
 3921 03a4 70       		.byte	0x70
 3922 03a5 00       		.sleb128 0
 3923 03a6 00000000 		.4byte	0
 3924 03aa 00000000 		.4byte	0
 3925              	.LVUS6:
 3926 03ae 00       		.uleb128 0
 3927 03af 00       		.uleb128 .LVU94
 3928 03b0 00       		.uleb128 .LVU94
 3929 03b1 00       		.uleb128 0
 3930              	.LLST6:
 3931 03b2 00000000 		.4byte	.LVL8
 3932 03b6 3C000000 		.4byte	.LVL12
 3933 03ba 0100     		.2byte	0x1
ARM GAS  /var/folders/l5/0x54b2c10074c8bt31ycjvl80000gp/T//ccIsYVMU.s 			page 70


 3934 03bc 50       		.byte	0x50
 3935 03bd 3C000000 		.4byte	.LVL12
 3936 03c1 48000000 		.4byte	.LFE8
 3937 03c5 0100     		.2byte	0x1
 3938 03c7 5C       		.byte	0x5c
 3939 03c8 00000000 		.4byte	0
 3940 03cc 00000000 		.4byte	0
 3941              	.LVUS7:
 3942 03d0 01       		.uleb128 .LVU81
 3943 03d1 00       		.uleb128 .LVU93
 3944 03d2 00       		.uleb128 .LVU93
 3945 03d3 00       		.uleb128 .LVU95
 3946              	.LLST7:
 3947 03d4 14000000 		.4byte	.LVL9
 3948 03d8 38000000 		.4byte	.LVL11
 3949 03dc 0100     		.2byte	0x1
 3950 03de 53       		.byte	0x53
 3951 03df 38000000 		.4byte	.LVL11
 3952 03e3 40000000 		.4byte	.LVL13
 3953 03e7 0200     		.2byte	0x2
 3954 03e9 70       		.byte	0x70
 3955 03ea 00       		.sleb128 0
 3956 03eb 00000000 		.4byte	0
 3957 03ef 00000000 		.4byte	0
 3958              		.section	.debug_aranges,"",%progbits
 3959 0000 6C000000 		.4byte	0x6c
 3960 0004 0200     		.2byte	0x2
 3961 0006 00000000 		.4byte	.Ldebug_info0
 3962 000a 04       		.byte	0x4
 3963 000b 00       		.byte	0
 3964 000c 0000     		.2byte	0
 3965 000e 0000     		.2byte	0
 3966 0010 00000000 		.4byte	.LFB10
 3967 0014 B0000000 		.4byte	.LFE10-.LFB10
 3968 0018 00000000 		.4byte	.LFB7
 3969 001c 24000000 		.4byte	.LFE7-.LFB7
 3970 0020 00000000 		.4byte	.LFB8
 3971 0024 48000000 		.4byte	.LFE8-.LFB8
 3972 0028 00000000 		.4byte	.LFB9
 3973 002c 3C000000 		.4byte	.LFE9-.LFB9
 3974 0030 00000000 		.4byte	.LFB11
 3975 0034 74000000 		.4byte	.LFE11-.LFB11
 3976 0038 00000000 		.4byte	.LFB12
 3977 003c AC000000 		.4byte	.LFE12-.LFB12
 3978 0040 00000000 		.4byte	.LFB14
 3979 0044 28000000 		.4byte	.LFE14-.LFB14
 3980 0048 00000000 		.4byte	.LFB15
 3981 004c 70000000 		.4byte	.LFE15-.LFB15
 3982 0050 00000000 		.4byte	.LFB16
 3983 0054 70000000 		.4byte	.LFE16-.LFB16
 3984 0058 00000000 		.4byte	.LFB13
 3985 005c 24000000 		.4byte	.LFE13-.LFB13
 3986 0060 00000000 		.4byte	.LFB17
 3987 0064 04000000 		.4byte	.LFE17-.LFB17
 3988 0068 00000000 		.4byte	0
 3989 006c 00000000 		.4byte	0
 3990              		.section	.debug_ranges,"",%progbits
ARM GAS  /var/folders/l5/0x54b2c10074c8bt31ycjvl80000gp/T//ccIsYVMU.s 			page 71


 3991              	.Ldebug_ranges0:
 3992 0000 6C000000 		.4byte	.LBB35
 3993 0004 70000000 		.4byte	.LBE35
 3994 0008 7C000000 		.4byte	.LBB45
 3995 000c 80000000 		.4byte	.LBE45
 3996 0010 00000000 		.4byte	0
 3997 0014 00000000 		.4byte	0
 3998 0018 70000000 		.4byte	.LBB38
 3999 001c 78000000 		.4byte	.LBE38
 4000 0020 80000000 		.4byte	.LBB46
 4001 0024 A8000000 		.4byte	.LBE46
 4002 0028 00000000 		.4byte	0
 4003 002c 00000000 		.4byte	0
 4004 0030 70000000 		.4byte	.LBB39
 4005 0034 78000000 		.4byte	.LBE39
 4006 0038 80000000 		.4byte	.LBB44
 4007 003c A8000000 		.4byte	.LBE44
 4008 0040 00000000 		.4byte	0
 4009 0044 00000000 		.4byte	0
 4010 0048 10000000 		.4byte	.LBB47
 4011 004c 14000000 		.4byte	.LBE47
 4012 0050 18000000 		.4byte	.LBB52
 4013 0054 1C000000 		.4byte	.LBE52
 4014 0058 20000000 		.4byte	.LBB53
 4015 005c 24000000 		.4byte	.LBE53
 4016 0060 28000000 		.4byte	.LBB54
 4017 0064 2C000000 		.4byte	.LBE54
 4018 0068 00000000 		.4byte	0
 4019 006c 00000000 		.4byte	0
 4020 0070 58000000 		.4byte	.LBB58
 4021 0074 9C000000 		.4byte	.LBE58
 4022 0078 A0000000 		.4byte	.LBB65
 4023 007c AC000000 		.4byte	.LBE65
 4024 0080 00000000 		.4byte	0
 4025 0084 00000000 		.4byte	0
 4026 0088 58000000 		.4byte	.LBB59
 4027 008c 74000000 		.4byte	.LBE59
 4028 0090 78000000 		.4byte	.LBB63
 4029 0094 8C000000 		.4byte	.LBE63
 4030 0098 90000000 		.4byte	.LBB64
 4031 009c 94000000 		.4byte	.LBE64
 4032 00a0 00000000 		.4byte	0
 4033 00a4 00000000 		.4byte	0
 4034 00a8 08000000 		.4byte	.LBB66
 4035 00ac 0C000000 		.4byte	.LBE66
 4036 00b0 1C000000 		.4byte	.LBB78
 4037 00b4 20000000 		.4byte	.LBE78
 4038 00b8 2C000000 		.4byte	.LBB81
 4039 00bc 34000000 		.4byte	.LBE81
 4040 00c0 38000000 		.4byte	.LBB82
 4041 00c4 4C000000 		.4byte	.LBE82
 4042 00c8 50000000 		.4byte	.LBB83
 4043 00cc 68000000 		.4byte	.LBE83
 4044 00d0 00000000 		.4byte	0
 4045 00d4 00000000 		.4byte	0
 4046 00d8 10000000 		.4byte	.LBB72
 4047 00dc 14000000 		.4byte	.LBE72
ARM GAS  /var/folders/l5/0x54b2c10074c8bt31ycjvl80000gp/T//ccIsYVMU.s 			page 72


 4048 00e0 18000000 		.4byte	.LBB77
 4049 00e4 1C000000 		.4byte	.LBE77
 4050 00e8 20000000 		.4byte	.LBB79
 4051 00ec 24000000 		.4byte	.LBE79
 4052 00f0 28000000 		.4byte	.LBB80
 4053 00f4 2C000000 		.4byte	.LBE80
 4054 00f8 00000000 		.4byte	0
 4055 00fc 00000000 		.4byte	0
 4056 0100 10000000 		.4byte	.LBB84
 4057 0104 14000000 		.4byte	.LBE84
 4058 0108 18000000 		.4byte	.LBB89
 4059 010c 1C000000 		.4byte	.LBE89
 4060 0110 20000000 		.4byte	.LBB90
 4061 0114 24000000 		.4byte	.LBE90
 4062 0118 28000000 		.4byte	.LBB91
 4063 011c 2C000000 		.4byte	.LBE91
 4064 0120 00000000 		.4byte	0
 4065 0124 00000000 		.4byte	0
 4066 0128 00000000 		.4byte	.LFB10
 4067 012c B0000000 		.4byte	.LFE10
 4068 0130 00000000 		.4byte	.LFB7
 4069 0134 24000000 		.4byte	.LFE7
 4070 0138 00000000 		.4byte	.LFB8
 4071 013c 48000000 		.4byte	.LFE8
 4072 0140 00000000 		.4byte	.LFB9
 4073 0144 3C000000 		.4byte	.LFE9
 4074 0148 00000000 		.4byte	.LFB11
 4075 014c 74000000 		.4byte	.LFE11
 4076 0150 00000000 		.4byte	.LFB12
 4077 0154 AC000000 		.4byte	.LFE12
 4078 0158 00000000 		.4byte	.LFB14
 4079 015c 28000000 		.4byte	.LFE14
 4080 0160 00000000 		.4byte	.LFB15
 4081 0164 70000000 		.4byte	.LFE15
 4082 0168 00000000 		.4byte	.LFB16
 4083 016c 70000000 		.4byte	.LFE16
 4084 0170 00000000 		.4byte	.LFB13
 4085 0174 24000000 		.4byte	.LFE13
 4086 0178 00000000 		.4byte	.LFB17
 4087 017c 04000000 		.4byte	.LFE17
 4088 0180 00000000 		.4byte	0
 4089 0184 00000000 		.4byte	0
 4090              		.section	.debug_line,"",%progbits
 4091              	.Ldebug_line0:
 4092 0000 28070000 		.section	.debug_str,"MS",%progbits,1
 4092      0300A001 
 4092      00000201 
 4092      FB0E0D00 
 4092      01010101 
 4093              	.LASF90:
 4094 0000 63665F6F 		.ascii	"cf_off_older\000"
 4094      66665F6F 
 4094      6C646572 
 4094      00
 4095              	.LASF40:
 4096 000d 705F6D73 		.ascii	"p_msg\000"
 4096      6700
ARM GAS  /var/folders/l5/0x54b2c10074c8bt31ycjvl80000gp/T//ccIsYVMU.s 			page 73


 4097              	.LASF75:
 4098 0013 7264796D 		.ascii	"rdymsg\000"
 4098      736700
 4099              	.LASF102:
 4100 001a 63685363 		.ascii	"chSchDoRescheduleAhead\000"
 4100      68446F52 
 4100      65736368 
 4100      6564756C 
 4100      65416865 
 4101              	.LASF4:
 4102 0031 5F5F7569 		.ascii	"__uint8_t\000"
 4102      6E74385F 
 4102      7400
 4103              	.LASF66:
 4104 003b 76746C69 		.ascii	"vtlist\000"
 4104      737400
 4105              	.LASF12:
 4106 0042 6C6F6E67 		.ascii	"long long unsigned int\000"
 4106      206C6F6E 
 4106      6720756E 
 4106      7369676E 
 4106      65642069 
 4107              	.LASF86:
 4108 0059 63685F74 		.ascii	"ch_threadsize\000"
 4108      68726561 
 4108      6473697A 
 4108      6500
 4109              	.LASF76:
 4110 0067 65786974 		.ascii	"exitcode\000"
 4110      636F6465 
 4110      00
 4111              	.LASF29:
 4112 0070 705F7072 		.ascii	"p_prio\000"
 4112      696F00
 4113              	.LASF93:
 4114 0077 63665F6F 		.ascii	"cf_off_state\000"
 4114      66665F73 
 4114      74617465 
 4114      00
 4115              	.LASF121:
 4116 0084 5F736368 		.ascii	"_scheduler_init\000"
 4116      6564756C 
 4116      65725F69 
 4116      6E697400 
 4117              	.LASF11:
 4118 0094 6C6F6E67 		.ascii	"long long int\000"
 4118      206C6F6E 
 4118      6720696E 
 4118      7400
 4119              	.LASF1:
 4120 00a2 7369676E 		.ascii	"signed char\000"
 4120      65642063 
 4120      68617200 
 4121              	.LASF92:
 4122 00ae 63665F6F 		.ascii	"cf_off_stklimit\000"
 4122      66665F73 
 4122      746B6C69 
ARM GAS  /var/folders/l5/0x54b2c10074c8bt31ycjvl80000gp/T//ccIsYVMU.s 			page 74


 4122      6D697400 
 4123              	.LASF94:
 4124 00be 63665F6F 		.ascii	"cf_off_flags\000"
 4124      66665F66 
 4124      6C616773 
 4124      00
 4125              	.LASF17:
 4126 00cb 626F6F6C 		.ascii	"bool_t\000"
 4126      5F7400
 4127              	.LASF72:
 4128 00d2 6D5F7175 		.ascii	"m_queue\000"
 4128      65756500 
 4129              	.LASF80:
 4130 00da 63685F69 		.ascii	"ch_identifier\000"
 4130      64656E74 
 4130      69666965 
 4130      7200
 4131              	.LASF8:
 4132 00e8 6C6F6E67 		.ascii	"long int\000"
 4132      20696E74 
 4132      00
 4133              	.LASF19:
 4134 00f1 74737461 		.ascii	"tstate_t\000"
 4134      74655F74 
 4134      00
 4135              	.LASF14:
 4136 00fa 75696E74 		.ascii	"uint16_t\000"
 4136      31365F74 
 4136      00
 4137              	.LASF98:
 4138 0103 63686465 		.ascii	"chdebug_t\000"
 4138      6275675F 
 4138      7400
 4139              	.LASF106:
 4140 010d 63685363 		.ascii	"chSchIsPreemptionRequired\000"
 4140      68497350 
 4140      7265656D 
 4140      7074696F 
 4140      6E526571 
 4141              	.LASF31:
 4142 0127 705F6E65 		.ascii	"p_newer\000"
 4142      77657200 
 4143              	.LASF100:
 4144 012f 5F69646C 		.ascii	"_idle_thread_wa\000"
 4144      655F7468 
 4144      72656164 
 4144      5F776100 
 4145              	.LASF69:
 4146 013f 735F7175 		.ascii	"s_queue\000"
 4146      65756500 
 4147              	.LASF104:
 4148 0147 63685363 		.ascii	"chSchRescheduleS\000"
 4148      68526573 
 4148      63686564 
 4148      756C6553 
 4148      00
 4149              	.LASF9:
ARM GAS  /var/folders/l5/0x54b2c10074c8bt31ycjvl80000gp/T//ccIsYVMU.s 			page 75


 4150 0158 5F5F7569 		.ascii	"__uint32_t\000"
 4150      6E743332 
 4150      5F7400
 4151              	.LASF47:
 4152 0163 72656761 		.ascii	"regarm_t\000"
 4152      726D5F74 
 4152      00
 4153              	.LASF53:
 4154 016c 76745F70 		.ascii	"vt_prev\000"
 4154      72657600 
 4155              	.LASF101:
 4156 0174 63685363 		.ascii	"chSchDoReschedule\000"
 4156      68446F52 
 4156      65736368 
 4156      6564756C 
 4156      6500
 4157              	.LASF25:
 4158 0186 636E745F 		.ascii	"cnt_t\000"
 4158      7400
 4159              	.LASF0:
 4160 018c 756E7369 		.ascii	"unsigned int\000"
 4160      676E6564 
 4160      20696E74 
 4160      00
 4161              	.LASF119:
 4162 0199 77616B65 		.ascii	"wakeup\000"
 4162      757000
 4163              	.LASF52:
 4164 01a0 76745F6E 		.ascii	"vt_next\000"
 4164      65787400 
 4165              	.LASF113:
 4166 01a8 5F706F72 		.ascii	"_port_switch_arm\000"
 4166      745F7377 
 4166      69746368 
 4166      5F61726D 
 4166      00
 4167              	.LASF10:
 4168 01b9 6C6F6E67 		.ascii	"long unsigned int\000"
 4168      20756E73 
 4168      69676E65 
 4168      6420696E 
 4168      7400
 4169              	.LASF99:
 4170 01cb 63685F64 		.ascii	"ch_debug\000"
 4170      65627567 
 4170      00
 4171              	.LASF50:
 4172 01d4 76746675 		.ascii	"vtfunc_t\000"
 4172      6E635F74 
 4172      00
 4173              	.LASF70:
 4174 01dd 735F636E 		.ascii	"s_cnt\000"
 4174      7400
 4175              	.LASF49:
 4176 01e3 636F6E74 		.ascii	"context\000"
 4176      65787400 
 4177              	.LASF6:
ARM GAS  /var/folders/l5/0x54b2c10074c8bt31ycjvl80000gp/T//ccIsYVMU.s 			page 76


 4178 01eb 73686F72 		.ascii	"short unsigned int\000"
 4178      7420756E 
 4178      7369676E 
 4178      65642069 
 4178      6E7400
 4179              	.LASF105:
 4180 01fe 63685363 		.ascii	"chSchWakeupS\000"
 4180      6857616B 
 4180      65757053 
 4180      00
 4181              	.LASF22:
 4182 020b 6D73675F 		.ascii	"msg_t\000"
 4182      7400
 4183              	.LASF62:
 4184 0211 725F6E65 		.ascii	"r_newer\000"
 4184      77657200 
 4185              	.LASF116:
 4186 0219 474E5520 		.ascii	"GNU C17 8.3.1 20190703 (release) [gcc-8-branch revi"
 4186      43313720 
 4186      382E332E 
 4186      31203230 
 4186      31393037 
 4187 024c 73696F6E 		.ascii	"sion 273027] -mcpu=arm1176jz-s -mno-thumb-interwork"
 4187      20323733 
 4187      3032375D 
 4187      202D6D63 
 4187      70753D61 
 4188 027f 202D6D66 		.ascii	" -mfloat-abi=soft -marm -march=armv6kz -ggdb -O2 -f"
 4188      6C6F6174 
 4188      2D616269 
 4188      3D736F66 
 4188      74202D6D 
 4189 02b2 6F6D6974 		.ascii	"omit-frame-pointer -ffunction-sections -fdata-secti"
 4189      2D667261 
 4189      6D652D70 
 4189      6F696E74 
 4189      6572202D 
 4190 02e5 6F6E7300 		.ascii	"ons\000"
 4191              	.LASF18:
 4192 02e9 746D6F64 		.ascii	"tmode_t\000"
 4192      655F7400 
 4193              	.LASF45:
 4194 02f1 54687265 		.ascii	"ThreadsList\000"
 4194      6164734C 
 4194      69737400 
 4195              	.LASF23:
 4196 02fd 6576656E 		.ascii	"eventmask_t\000"
 4196      746D6173 
 4196      6B5F7400 
 4197              	.LASF71:
 4198 0309 4D757465 		.ascii	"Mutex\000"
 4198      7800
 4199              	.LASF46:
 4200 030f 73746B61 		.ascii	"stkalign_t\000"
 4200      6C69676E 
 4200      5F7400
 4201              	.LASF81:
ARM GAS  /var/folders/l5/0x54b2c10074c8bt31ycjvl80000gp/T//ccIsYVMU.s 			page 77


 4202 031a 63685F7A 		.ascii	"ch_zero\000"
 4202      65726F00 
 4203              	.LASF95:
 4204 0322 63665F6F 		.ascii	"cf_off_refs\000"
 4204      66665F72 
 4204      65667300 
 4205              	.LASF54:
 4206 032e 76745F74 		.ascii	"vt_time\000"
 4206      696D6500 
 4207              	.LASF55:
 4208 0336 76745F66 		.ascii	"vt_func\000"
 4208      756E6300 
 4209              	.LASF85:
 4210 033e 63685F74 		.ascii	"ch_timesize\000"
 4210      696D6573 
 4210      697A6500 
 4211              	.LASF111:
 4212 034a 64657175 		.ascii	"dequeue\000"
 4212      65756500 
 4213              	.LASF103:
 4214 0352 63685363 		.ascii	"chSchDoRescheduleBehind\000"
 4214      68446F52 
 4214      65736368 
 4214      6564756C 
 4214      65426568 
 4215              	.LASF91:
 4216 036a 63665F6F 		.ascii	"cf_off_name\000"
 4216      66665F6E 
 4216      616D6500 
 4217              	.LASF114:
 4218 0376 63685654 		.ascii	"chVTSetI\000"
 4218      53657449 
 4218      00
 4219              	.LASF32:
 4220 037f 705F6F6C 		.ascii	"p_older\000"
 4220      64657200 
 4221              	.LASF61:
 4222 0387 725F6374 		.ascii	"r_ctx\000"
 4222      7800
 4223              	.LASF44:
 4224 038d 54687265 		.ascii	"ThreadsQueue\000"
 4224      61647351 
 4224      75657565 
 4224      00
 4225              	.LASF82:
 4226 039a 63685F73 		.ascii	"ch_size\000"
 4226      697A6500 
 4227              	.LASF109:
 4228 03a2 74696D65 		.ascii	"time\000"
 4228      00
 4229              	.LASF64:
 4230 03a7 725F6375 		.ascii	"r_current\000"
 4230      7272656E 
 4230      7400
 4231              	.LASF63:
 4232 03b1 725F6F6C 		.ascii	"r_older\000"
 4232      64657200 
ARM GAS  /var/folders/l5/0x54b2c10074c8bt31ycjvl80000gp/T//ccIsYVMU.s 			page 78


 4233              	.LASF20:
 4234 03b9 74726566 		.ascii	"trefs_t\000"
 4234      735F7400 
 4235              	.LASF84:
 4236 03c1 63685F70 		.ascii	"ch_ptrsize\000"
 4236      74727369 
 4236      7A6500
 4237              	.LASF28:
 4238 03cc 705F7072 		.ascii	"p_prev\000"
 4238      657600
 4239              	.LASF21:
 4240 03d3 74707269 		.ascii	"tprio_t\000"
 4240      6F5F7400 
 4241              	.LASF15:
 4242 03db 696E7433 		.ascii	"int32_t\000"
 4242      325F7400 
 4243              	.LASF2:
 4244 03e3 756E7369 		.ascii	"unsigned char\000"
 4244      676E6564 
 4244      20636861 
 4244      7200
 4245              	.LASF108:
 4246 03f1 6E657773 		.ascii	"newstate\000"
 4246      74617465 
 4246      00
 4247              	.LASF42:
 4248 03fa 705F6D74 		.ascii	"p_mtxlist\000"
 4248      786C6973 
 4248      7400
 4249              	.LASF3:
 4250 0404 73686F72 		.ascii	"short int\000"
 4250      7420696E 
 4250      7400
 4251              	.LASF34:
 4252 040e 705F7374 		.ascii	"p_state\000"
 4252      61746500 
 4253              	.LASF97:
 4254 0416 63665F6F 		.ascii	"cf_off_time\000"
 4254      66665F74 
 4254      696D6500 
 4255              	.LASF60:
 4256 0422 725F7072 		.ascii	"r_prio\000"
 4256      696F00
 4257              	.LASF78:
 4258 0429 65776D61 		.ascii	"ewmask\000"
 4258      736B00
 4259              	.LASF27:
 4260 0430 705F6E65 		.ascii	"p_next\000"
 4260      787400
 4261              	.LASF96:
 4262 0437 63665F6F 		.ascii	"cf_off_preempt\000"
 4262      66665F70 
 4262      7265656D 
 4262      707400
 4263              	.LASF35:
 4264 0446 705F666C 		.ascii	"p_flags\000"
 4264      61677300 
ARM GAS  /var/folders/l5/0x54b2c10074c8bt31ycjvl80000gp/T//ccIsYVMU.s 			page 79


 4265              	.LASF26:
 4266 044e 54687265 		.ascii	"Thread\000"
 4266      616400
 4267              	.LASF89:
 4268 0455 63665F6F 		.ascii	"cf_off_newer\000"
 4268      66665F6E 
 4268      65776572 
 4268      00
 4269              	.LASF110:
 4270 0462 63685363 		.ascii	"chSchGoSleepS\000"
 4270      68476F53 
 4270      6C656570 
 4270      5300
 4271              	.LASF41:
 4272 0470 705F6570 		.ascii	"p_epending\000"
 4272      656E6469 
 4272      6E6700
 4273              	.LASF16:
 4274 047b 75696E74 		.ascii	"uint32_t\000"
 4274      33325F74 
 4274      00
 4275              	.LASF87:
 4276 0484 63665F6F 		.ascii	"cf_off_prio\000"
 4276      66665F70 
 4276      72696F00 
 4277              	.LASF59:
 4278 0490 725F7175 		.ascii	"r_queue\000"
 4278      65756500 
 4279              	.LASF51:
 4280 0498 56697274 		.ascii	"VirtualTimer\000"
 4280      75616C54 
 4280      696D6572 
 4280      00
 4281              	.LASF79:
 4282 04a5 63686172 		.ascii	"char\000"
 4282      00
 4283              	.LASF112:
 4284 04aa 6669666F 		.ascii	"fifo_remove\000"
 4284      5F72656D 
 4284      6F766500 
 4285              	.LASF5:
 4286 04b6 5F5F7569 		.ascii	"__uint16_t\000"
 4286      6E743136 
 4286      5F7400
 4287              	.LASF120:
 4288 04c1 63685363 		.ascii	"chSchReadyI\000"
 4288      68526561 
 4288      64794900 
 4289              	.LASF74:
 4290 04cd 6D5F6E65 		.ascii	"m_next\000"
 4290      787400
 4291              	.LASF24:
 4292 04d4 73797374 		.ascii	"systime_t\000"
 4292      696D655F 
 4292      7400
 4293              	.LASF43:
 4294 04de 705F7265 		.ascii	"p_realprio\000"
ARM GAS  /var/folders/l5/0x54b2c10074c8bt31ycjvl80000gp/T//ccIsYVMU.s 			page 80


 4294      616C7072 
 4294      696F00
 4295              	.LASF7:
 4296 04e9 5F5F696E 		.ascii	"__int32_t\000"
 4296      7433325F 
 4296      7400
 4297              	.LASF37:
 4298 04f3 705F7469 		.ascii	"p_time\000"
 4298      6D6500
 4299              	.LASF48:
 4300 04fa 696E7463 		.ascii	"intctx\000"
 4300      747800
 4301              	.LASF39:
 4302 0501 705F6D73 		.ascii	"p_msgqueue\000"
 4302      67717565 
 4302      756500
 4303              	.LASF56:
 4304 050c 76745F70 		.ascii	"vt_par\000"
 4304      617200
 4305              	.LASF68:
 4306 0513 53656D61 		.ascii	"Semaphore\000"
 4306      70686F72 
 4306      6500
 4307              	.LASF88:
 4308 051d 63665F6F 		.ascii	"cf_off_ctx\000"
 4308      66665F63 
 4308      747800
 4309              	.LASF36:
 4310 0528 705F7265 		.ascii	"p_refs\000"
 4310      667300
 4311              	.LASF115:
 4312 052f 63685654 		.ascii	"chVTResetI\000"
 4312      52657365 
 4312      744900
 4313              	.LASF65:
 4314 053a 52656164 		.ascii	"ReadyList\000"
 4314      794C6973 
 4314      7400
 4315              	.LASF117:
 4316 0544 2E2E2F2E 		.ascii	"../../os/kernel/src/chschd.c\000"
 4316      2E2F6F73 
 4316      2F6B6572 
 4316      6E656C2F 
 4316      7372632F 
 4317              	.LASF67:
 4318 0561 726C6973 		.ascii	"rlist\000"
 4318      7400
 4319              	.LASF13:
 4320 0567 75696E74 		.ascii	"uint8_t\000"
 4320      385F7400 
 4321              	.LASF77:
 4322 056f 77746F62 		.ascii	"wtobjp\000"
 4322      6A7000
 4323              	.LASF33:
 4324 0576 705F6E61 		.ascii	"p_name\000"
 4324      6D6500
 4325              	.LASF57:
ARM GAS  /var/folders/l5/0x54b2c10074c8bt31ycjvl80000gp/T//ccIsYVMU.s 			page 81


 4326 057d 76745F73 		.ascii	"vt_systime\000"
 4326      79737469 
 4326      6D6500
 4327              	.LASF107:
 4328 0588 63685363 		.ascii	"chSchGoSleepTimeoutS\000"
 4328      68476F53 
 4328      6C656570 
 4328      54696D65 
 4328      6F757453 
 4329              	.LASF83:
 4330 059d 63685F76 		.ascii	"ch_version\000"
 4330      65727369 
 4330      6F6E00
 4331              	.LASF118:
 4332 05a8 2F557365 		.ascii	"/Users/fernandoguirado/eclipse-workspace/ChibiOS-RP"
 4332      72732F66 
 4332      65726E61 
 4332      6E646F67 
 4332      75697261 
 4333 05db 692D636F 		.ascii	"i-copia/demos/timers\000"
 4333      7069612F 
 4333      64656D6F 
 4333      732F7469 
 4333      6D657273 
 4334              	.LASF58:
 4335 05f0 56544C69 		.ascii	"VTList\000"
 4335      737400
 4336              	.LASF73:
 4337 05f7 6D5F6F77 		.ascii	"m_owner\000"
 4337      6E657200 
 4338              	.LASF30:
 4339 05ff 705F6374 		.ascii	"p_ctx\000"
 4339      7800
 4340              	.LASF38:
 4341 0605 705F7761 		.ascii	"p_waiting\000"
 4341      6974696E 
 4341      6700
 4342              		.ident	"GCC: (GNU Tools for Arm Embedded Processors 8-2019-q3-update) 8.3.1 20190703 (release) [gc
ARM GAS  /var/folders/l5/0x54b2c10074c8bt31ycjvl80000gp/T//ccIsYVMU.s 			page 82


DEFINED SYMBOLS
                            *ABS*:0000000000000000 chschd.c
/var/folders/l5/0x54b2c10074c8bt31ycjvl80000gp/T//ccIsYVMU.s:16     .text.wakeup:0000000000000000 $a
/var/folders/l5/0x54b2c10074c8bt31ycjvl80000gp/T//ccIsYVMU.s:22     .text.wakeup:0000000000000000 wakeup
/var/folders/l5/0x54b2c10074c8bt31ycjvl80000gp/T//ccIsYVMU.s:41     .text.wakeup:0000000000000010 $d
/var/folders/l5/0x54b2c10074c8bt31ycjvl80000gp/T//ccIsYVMU.s:57     .text.wakeup:0000000000000048 $a
/var/folders/l5/0x54b2c10074c8bt31ycjvl80000gp/T//ccIsYVMU.s:177    .text.wakeup:00000000000000ac $d
                            *COM*:000000000000001c rlist
/var/folders/l5/0x54b2c10074c8bt31ycjvl80000gp/T//ccIsYVMU.s:182    .text._scheduler_init:0000000000000000 $a
/var/folders/l5/0x54b2c10074c8bt31ycjvl80000gp/T//ccIsYVMU.s:188    .text._scheduler_init:0000000000000000 _scheduler_init
/var/folders/l5/0x54b2c10074c8bt31ycjvl80000gp/T//ccIsYVMU.s:217    .text._scheduler_init:0000000000000020 $d
/var/folders/l5/0x54b2c10074c8bt31ycjvl80000gp/T//ccIsYVMU.s:222    .text.chSchReadyI:0000000000000000 $a
/var/folders/l5/0x54b2c10074c8bt31ycjvl80000gp/T//ccIsYVMU.s:228    .text.chSchReadyI:0000000000000000 chSchReadyI
/var/folders/l5/0x54b2c10074c8bt31ycjvl80000gp/T//ccIsYVMU.s:290    .text.chSchReadyI:0000000000000044 $d
/var/folders/l5/0x54b2c10074c8bt31ycjvl80000gp/T//ccIsYVMU.s:295    .text.chSchGoSleepS:0000000000000000 $a
/var/folders/l5/0x54b2c10074c8bt31ycjvl80000gp/T//ccIsYVMU.s:301    .text.chSchGoSleepS:0000000000000000 chSchGoSleepS
/var/folders/l5/0x54b2c10074c8bt31ycjvl80000gp/T//ccIsYVMU.s:379    .text.chSchGoSleepS:0000000000000038 $d
/var/folders/l5/0x54b2c10074c8bt31ycjvl80000gp/T//ccIsYVMU.s:384    .text.chSchGoSleepTimeoutS:0000000000000000 $a
/var/folders/l5/0x54b2c10074c8bt31ycjvl80000gp/T//ccIsYVMU.s:390    .text.chSchGoSleepTimeoutS:0000000000000000 chSchGoSleepTimeoutS
/var/folders/l5/0x54b2c10074c8bt31ycjvl80000gp/T//ccIsYVMU.s:472    .text.chSchGoSleepTimeoutS:000000000000006c $d
/var/folders/l5/0x54b2c10074c8bt31ycjvl80000gp/T//ccIsYVMU.s:478    .text.chSchWakeupS:0000000000000000 $a
/var/folders/l5/0x54b2c10074c8bt31ycjvl80000gp/T//ccIsYVMU.s:484    .text.chSchWakeupS:0000000000000000 chSchWakeupS
/var/folders/l5/0x54b2c10074c8bt31ycjvl80000gp/T//ccIsYVMU.s:658    .text.chSchWakeupS:00000000000000a8 $d
/var/folders/l5/0x54b2c10074c8bt31ycjvl80000gp/T//ccIsYVMU.s:664    .text.chSchIsPreemptionRequired:0000000000000000 $a
/var/folders/l5/0x54b2c10074c8bt31ycjvl80000gp/T//ccIsYVMU.s:670    .text.chSchIsPreemptionRequired:0000000000000000 chSchIsPreemptionRequired
/var/folders/l5/0x54b2c10074c8bt31ycjvl80000gp/T//ccIsYVMU.s:700    .text.chSchIsPreemptionRequired:0000000000000024 $d
/var/folders/l5/0x54b2c10074c8bt31ycjvl80000gp/T//ccIsYVMU.s:705    .text.chSchDoRescheduleBehind:0000000000000000 $a
/var/folders/l5/0x54b2c10074c8bt31ycjvl80000gp/T//ccIsYVMU.s:711    .text.chSchDoRescheduleBehind:0000000000000000 chSchDoRescheduleBehind
/var/folders/l5/0x54b2c10074c8bt31ycjvl80000gp/T//ccIsYVMU.s:852    .text.chSchDoRescheduleBehind:000000000000006c $d
/var/folders/l5/0x54b2c10074c8bt31ycjvl80000gp/T//ccIsYVMU.s:857    .text.chSchDoRescheduleAhead:0000000000000000 $a
/var/folders/l5/0x54b2c10074c8bt31ycjvl80000gp/T//ccIsYVMU.s:863    .text.chSchDoRescheduleAhead:0000000000000000 chSchDoRescheduleAhead
/var/folders/l5/0x54b2c10074c8bt31ycjvl80000gp/T//ccIsYVMU.s:973    .text.chSchDoRescheduleAhead:000000000000006c $d
/var/folders/l5/0x54b2c10074c8bt31ycjvl80000gp/T//ccIsYVMU.s:978    .text.chSchRescheduleS:0000000000000000 $a
/var/folders/l5/0x54b2c10074c8bt31ycjvl80000gp/T//ccIsYVMU.s:984    .text.chSchRescheduleS:0000000000000000 chSchRescheduleS
/var/folders/l5/0x54b2c10074c8bt31ycjvl80000gp/T//ccIsYVMU.s:1009   .text.chSchRescheduleS:0000000000000020 $d
/var/folders/l5/0x54b2c10074c8bt31ycjvl80000gp/T//ccIsYVMU.s:1014   .text.chSchDoReschedule:0000000000000000 $a
/var/folders/l5/0x54b2c10074c8bt31ycjvl80000gp/T//ccIsYVMU.s:1020   .text.chSchDoReschedule:0000000000000000 chSchDoReschedule

UNDEFINED SYMBOLS
_port_switch_arm
chVTSetI
chVTResetI
