ARM GAS  /var/folders/l5/0x54b2c10074c8bt31ycjvl80000gp/T//ccIsYVMU.s 			page 1


   1              		.cpu arm1176jz-s
   2              		.eabi_attribute 20, 1
   3              		.eabi_attribute 21, 1
   4              		.eabi_attribute 23, 3
   5              		.eabi_attribute 24, 1
   6              		.eabi_attribute 25, 1
   7              		.eabi_attribute 26, 1
   8              		.eabi_attribute 30, 2
   9              		.eabi_attribute 34, 1
  10              		.eabi_attribute 18, 4
  11              		.file	"chschd.c"
  12              		.text
  13              	.Ltext0:
  14              		.cfi_sections	.debug_frame
  15              		.section	.text.wakeup,"ax",%progbits
  16              		.align	2
  17              		.arch armv6kz
  18              		.syntax unified
  19              		.arm
  20              		.fpu softvfp
  21              		.type	wakeup, %function
  22              	wakeup:
  23              	.LVL0:
  24              	.LFB10:
  25              		.file 1 "../../os/kernel/src/chschd.c"
  26              		.loc 1 129 29 view -0
  27              		.cfi_startproc
  28              		@ args = 0, pretend = 0, frame = 0
  29              		@ frame_needed = 0, uses_anonymous_args = 0
  30              		@ link register save eliminated.
  31              		.loc 1 130 3 view .LVU1
  32              		.loc 1 132 3 view .LVU2
  33              		.loc 1 132 3 view .LVU3
  34              		.loc 1 132 21 view .LVU4
  35              		.loc 1 133 3 view .LVU5
  36 0000 1C30D0E5 		ldrb	r3, [r0, #28]	@ zero_extendqisi2
  37 0004 0D0053E3 		cmp	r3, #13
  38 0008 03F19F97 		ldrls	pc, [pc, r3, asl #2]
  39 000c 150000EA 		b	.L2
  40              	.L4:
  41 0010 A8000000 		.word	.L1
  42 0014 68000000 		.word	.L2
  43 0018 68000000 		.word	.L2
  44 001c 48000000 		.word	.L5
  45 0020 68000000 		.word	.L2
  46 0024 58000000 		.word	.L3
  47 0028 68000000 		.word	.L2
  48 002c 68000000 		.word	.L2
  49 0030 68000000 		.word	.L2
  50 0034 68000000 		.word	.L2
  51 0038 68000000 		.word	.L2
  52 003c 68000000 		.word	.L2
  53 0040 68000000 		.word	.L2
  54 0044 58000000 		.word	.L3
  55              	.L5:
  56              		.loc 1 143 5 view .LVU6
  57 0048 242090E5 		ldr	r2, [r0, #36]
ARM GAS  /var/folders/l5/0x54b2c10074c8bt31ycjvl80000gp/T//ccIsYVMU.s 			page 2


  58 004c 083092E5 		ldr	r3, [r2, #8]
  59 0050 013083E2 		add	r3, r3, #1
  60 0054 083082E5 		str	r3, [r2, #8]
  61              	.L3:
  62              		.loc 1 153 5 view .LVU7
  63              	.LVL1:
  64              	.LBB33:
  65              	.LBI33:
  66              		.file 2 "../../os/kernel/include/chinline.h"
  67              		.loc 2 66 23 view .LVU8
  68              	.LBB34:
  69              		.loc 2 68 3 view .LVU9
  70              		.loc 2 68 5 is_stmt 0 view .LVU10
  71 0058 042090E5 		ldr	r2, [r0, #4]
  72              		.loc 2 68 26 view .LVU11
  73 005c 003090E5 		ldr	r3, [r0]
  74              		.loc 2 68 22 view .LVU12
  75 0060 003082E5 		str	r3, [r2]
  76              		.loc 2 69 3 is_stmt 1 view .LVU13
  77              		.loc 2 69 22 is_stmt 0 view .LVU14
  78 0064 042083E5 		str	r2, [r3, #4]
  79              		.loc 2 70 3 is_stmt 1 view .LVU15
  80              	.LVL2:
  81              	.L2:
  82              		.loc 2 70 3 is_stmt 0 view .LVU16
  83              	.LBE34:
  84              	.LBE33:
  85              		.loc 1 156 3 is_stmt 1 view .LVU17
  86              		.loc 1 156 18 is_stmt 0 view .LVU18
  87 0068 00C0E0E3 		mvn	ip, #0
  88              	.LBB35:
  89              	.LBB36:
  90              		.loc 1 85 15 view .LVU19
  91 006c 0020A0E3 		mov	r2, #0
  92              	.LBE36:
  93              	.LBE35:
  94              	.LBB38:
  95              	.LBB39:
  96              	.LBB40:
  97              	.LBB41:
  98              		.loc 1 89 28 view .LVU20
  99 0070 081090E5 		ldr	r1, [r0, #8]
 100              		.loc 1 86 6 view .LVU21
 101 0074 30309FE5 		ldr	r3, .L10
 102              	.LBE41:
 103              	.LBE40:
 104              	.LBE39:
 105              	.LBE38:
 106              		.loc 1 156 18 view .LVU22
 107 0078 24C080E5 		str	ip, [r0, #36]
 108              		.loc 1 157 3 is_stmt 1 view .LVU23
 109              	.LVL3:
 110              	.LBB45:
 111              	.LBI35:
 112              		.loc 1 74 9 view .LVU24
 113              	.LBB37:
 114              		.loc 1 75 3 view .LVU25
ARM GAS  /var/folders/l5/0x54b2c10074c8bt31ycjvl80000gp/T//ccIsYVMU.s 			page 3


 115              		.loc 1 77 3 view .LVU26
 116              		.loc 1 77 21 view .LVU27
 117              		.loc 1 80 3 view .LVU28
 118              		.loc 1 83 31 view .LVU29
 119              		.loc 1 85 3 view .LVU30
 120              		.loc 1 85 15 is_stmt 0 view .LVU31
 121 007c 1C20C0E5 		strb	r2, [r0, #28]
 122              		.loc 1 86 3 is_stmt 1 view .LVU32
 123              	.LVL4:
 124              		.loc 1 86 3 is_stmt 0 view .LVU33
 125              	.LBE37:
 126              	.LBE45:
 127              	.LBB46:
 128              	.LBI38:
 129              		.loc 1 129 13 is_stmt 1 view .LVU34
 130              	.L7:
 131              	.LBB44:
 132              	.LBB43:
 133              	.LBB42:
 134              		.loc 1 87 3 view .LVU35
 135              		.loc 1 88 5 view .LVU36
 136              		.loc 1 88 8 is_stmt 0 view .LVU37
 137 0080 003093E5 		ldr	r3, [r3]
 138              	.LVL5:
 139              		.loc 1 89 3 view .LVU38
 140 0084 082093E5 		ldr	r2, [r3, #8]
 141 0088 010052E1 		cmp	r2, r1
 142 008c FBFFFF2A 		bcs	.L7
 143              		.loc 1 91 3 is_stmt 1 view .LVU39
 144              		.loc 1 92 18 is_stmt 0 view .LVU40
 145 0090 042093E5 		ldr	r2, [r3, #4]
 146              		.loc 1 91 14 view .LVU41
 147 0094 003080E5 		str	r3, [r0]
 148              		.loc 1 92 3 is_stmt 1 view .LVU42
 149              		.loc 1 92 14 is_stmt 0 view .LVU43
 150 0098 042080E5 		str	r2, [r0, #4]
 151              		.loc 1 93 3 is_stmt 1 view .LVU44
 152              		.loc 1 93 35 is_stmt 0 view .LVU45
 153 009c 040083E5 		str	r0, [r3, #4]
 154              		.loc 1 93 22 view .LVU46
 155 00a0 043090E5 		ldr	r3, [r0, #4]
 156              	.LVL6:
 157              		.loc 1 93 22 view .LVU47
 158 00a4 000083E5 		str	r0, [r3]
 159              	.LVL7:
 160              		.loc 1 94 3 is_stmt 1 view .LVU48
 161              	.LBE42:
 162              	.LBE43:
 163              		.loc 1 158 3 view .LVU49
 164              		.loc 1 158 3 view .LVU50
 165              		.loc 1 158 23 view .LVU51
 166              	.LBE44:
 167              	.LBE46:
 168              		.loc 1 158 3 view .LVU52
 169              		.loc 1 158 3 view .LVU53
 170              		.loc 1 158 23 view .LVU54
 171              	.L1:
ARM GAS  /var/folders/l5/0x54b2c10074c8bt31ycjvl80000gp/T//ccIsYVMU.s 			page 4


 172              		.loc 1 159 1 is_stmt 0 view .LVU55
 173 00a8 1EFF2FE1 		bx	lr
 174              	.L11:
 175              		.align	2
 176              	.L10:
 177 00ac 00000000 		.word	rlist
 178              		.cfi_endproc
 179              	.LFE10:
 180              		.size	wakeup, .-wakeup
 181              		.section	.text._scheduler_init,"ax",%progbits
 182              		.align	2
 183              		.global	_scheduler_init
 184              		.syntax unified
 185              		.arm
 186              		.fpu softvfp
 187              		.type	_scheduler_init, %function
 188              	_scheduler_init:
 189              	.LFB7:
 190              		.loc 1 48 28 is_stmt 1 view -0
 191              		.cfi_startproc
 192              		@ args = 0, pretend = 0, frame = 0
 193              		@ frame_needed = 0, uses_anonymous_args = 0
 194              		@ link register save eliminated.
 195              		.loc 1 50 3 view .LVU57
 196              		.loc 1 51 16 is_stmt 0 view .LVU58
 197 0000 0020A0E3 		mov	r2, #0
 198              		.loc 1 50 3 view .LVU59
 199 0004 14309FE5 		ldr	r3, .L13
 200              		.loc 1 51 16 view .LVU60
 201 0008 082083E5 		str	r2, [r3, #8]
 202              		.loc 1 50 3 view .LVU61
 203 000c 043083E5 		str	r3, [r3, #4]
 204 0010 003083E5 		str	r3, [r3]
 205              		.loc 1 50 29 is_stmt 1 view .LVU62
 206              		.loc 1 51 3 view .LVU63
 207              		.loc 1 53 3 view .LVU64
 208              		.loc 1 53 33 is_stmt 0 view .LVU65
 209 0014 143083E5 		str	r3, [r3, #20]
 210              		.loc 1 53 17 view .LVU66
 211 0018 103083E5 		str	r3, [r3, #16]
 212              		.loc 1 55 1 view .LVU67
 213 001c 1EFF2FE1 		bx	lr
 214              	.L14:
 215              		.align	2
 216              	.L13:
 217 0020 00000000 		.word	rlist
 218              		.cfi_endproc
 219              	.LFE7:
 220              		.size	_scheduler_init, .-_scheduler_init
 221              		.section	.text.chSchReadyI,"ax",%progbits
 222              		.align	2
 223              		.global	chSchReadyI
 224              		.syntax unified
 225              		.arm
 226              		.fpu softvfp
 227              		.type	chSchReadyI, %function
 228              	chSchReadyI:
ARM GAS  /var/folders/l5/0x54b2c10074c8bt31ycjvl80000gp/T//ccIsYVMU.s 			page 5


 229              	.LVL8:
 230              	.LFB8:
 231              		.loc 1 74 33 is_stmt 1 view -0
 232              		.cfi_startproc
 233              		@ args = 0, pretend = 0, frame = 0
 234              		@ frame_needed = 0, uses_anonymous_args = 0
 235              		@ link register save eliminated.
 236              		.loc 1 75 3 view .LVU69
 237              		.loc 1 77 3 view .LVU70
 238              		.loc 1 77 21 view .LVU71
 239              		.loc 1 80 3 view .LVU72
 240              		.loc 1 83 31 view .LVU73
 241              		.loc 1 85 3 view .LVU74
 242              		.loc 1 85 15 is_stmt 0 view .LVU75
 243 0000 0020A0E3 		mov	r2, #0
 244              		.loc 1 74 33 view .LVU76
 245 0004 00C0A0E1 		mov	ip, r0
 246              		.loc 1 89 28 view .LVU77
 247 0008 081090E5 		ldr	r1, [r0, #8]
 248              		.loc 1 86 6 view .LVU78
 249 000c 30309FE5 		ldr	r3, .L18
 250              		.loc 1 85 15 view .LVU79
 251 0010 1C20C0E5 		strb	r2, [r0, #28]
 252              		.loc 1 86 3 is_stmt 1 view .LVU80
 253              	.LVL9:
 254              	.L16:
 255              		.loc 1 87 3 discriminator 1 view .LVU81
 256              		.loc 1 88 5 discriminator 1 view .LVU82
 257              		.loc 1 88 8 is_stmt 0 discriminator 1 view .LVU83
 258 0014 003093E5 		ldr	r3, [r3]
 259              	.LVL10:
 260              		.loc 1 89 3 discriminator 1 view .LVU84
 261 0018 082093E5 		ldr	r2, [r3, #8]
 262 001c 010052E1 		cmp	r2, r1
 263 0020 FBFFFF2A 		bcs	.L16
 264              		.loc 1 91 3 is_stmt 1 view .LVU85
 265              		.loc 1 92 18 is_stmt 0 view .LVU86
 266 0024 042093E5 		ldr	r2, [r3, #4]
 267              		.loc 1 91 14 view .LVU87
 268 0028 00308CE5 		str	r3, [ip]
 269              		.loc 1 92 3 is_stmt 1 view .LVU88
 270              		.loc 1 92 14 is_stmt 0 view .LVU89
 271 002c 04208CE5 		str	r2, [ip, #4]
 272              		.loc 1 93 3 is_stmt 1 view .LVU90
 273              		.loc 1 93 35 is_stmt 0 view .LVU91
 274 0030 04C083E5 		str	ip, [r3, #4]
 275              		.loc 1 93 22 view .LVU92
 276 0034 04309CE5 		ldr	r3, [ip, #4]
 277              	.LVL11:
 278              		.loc 1 95 1 view .LVU93
 279 0038 0C00A0E1 		mov	r0, ip
 280              	.LVL12:
 281              		.loc 1 93 22 view .LVU94
 282 003c 00C083E5 		str	ip, [r3]
 283              	.LVL13:
 284              		.loc 1 94 3 is_stmt 1 view .LVU95
 285              		.loc 1 95 1 is_stmt 0 view .LVU96
ARM GAS  /var/folders/l5/0x54b2c10074c8bt31ycjvl80000gp/T//ccIsYVMU.s 			page 6


 286 0040 1EFF2FE1 		bx	lr
 287              	.L19:
 288              		.align	2
 289              	.L18:
 290 0044 00000000 		.word	rlist
 291              		.cfi_endproc
 292              	.LFE8:
 293              		.size	chSchReadyI, .-chSchReadyI
 294              		.section	.text.chSchGoSleepS,"ax",%progbits
 295              		.align	2
 296              		.global	chSchGoSleepS
 297              		.syntax unified
 298              		.arm
 299              		.fpu softvfp
 300              		.type	chSchGoSleepS, %function
 301              	chSchGoSleepS:
 302              	.LVL14:
 303              	.LFB9:
 304              		.loc 1 108 39 is_stmt 1 view -0
 305              		.cfi_startproc
 306              		@ args = 0, pretend = 0, frame = 0
 307              		@ frame_needed = 0, uses_anonymous_args = 0
 308              		.loc 1 109 3 view .LVU98
 309              		.loc 1 111 3 view .LVU99
 310              		.loc 1 111 21 view .LVU100
 311              		.loc 1 113 3 view .LVU101
 312              		.loc 1 108 39 is_stmt 0 view .LVU102
 313 0000 04E02DE5 		str	lr, [sp, #-4]!
 314              		.cfi_def_cfa_offset 4
 315              		.cfi_offset 14, -4
 316              		.loc 1 120 18 view .LVU103
 317 0004 01E0A0E3 		mov	lr, #1
 318              		.loc 1 113 8 view .LVU104
 319 0008 28309FE5 		ldr	r3, .L22
 320 000c 181093E5 		ldr	r1, [r3, #24]
 321              	.LVL15:
 322              	.LBB47:
 323              	.LBB48:
 324              		.loc 2 53 11 view .LVU105
 325 0010 002093E5 		ldr	r2, [r3]
 326              	.LBE48:
 327              	.LBE47:
 328              		.loc 1 113 26 view .LVU106
 329 0014 1C00C1E5 		strb	r0, [r1, #28]
 330              		.loc 1 119 3 is_stmt 1 view .LVU107
 331              	.LVL16:
 332              	.LBB52:
 333              	.LBI47:
 334              		.loc 2 52 23 view .LVU108
 335              	.LBB49:
 336              		.loc 2 53 3 view .LVU109
 337              		.loc 2 55 3 view .LVU110
 338              		.loc 2 55 20 is_stmt 0 view .LVU111
 339 0018 00C092E5 		ldr	ip, [r2]
 340              	.LBE49:
 341              	.LBE52:
 342              		.loc 1 121 3 view .LVU112
ARM GAS  /var/folders/l5/0x54b2c10074c8bt31ycjvl80000gp/T//ccIsYVMU.s 			page 7


 343 001c 0200A0E1 		mov	r0, r2
 344              	.LVL17:
 345              	.LBB53:
 346              	.LBB50:
 347              		.loc 2 55 38 view .LVU113
 348 0020 04308CE5 		str	r3, [ip, #4]
 349              	.LVL18:
 350              		.loc 2 56 3 is_stmt 1 view .LVU114
 351              		.loc 2 56 3 is_stmt 0 view .LVU115
 352              	.LBE50:
 353              	.LBE53:
 354              		.loc 1 120 18 view .LVU116
 355 0024 1CE0C2E5 		strb	lr, [r2, #28]
 356              	.LBB54:
 357              	.LBB51:
 358              		.loc 2 55 16 view .LVU117
 359 0028 00C083E5 		str	ip, [r3]
 360              	.LBE51:
 361              	.LBE54:
 362              		.loc 1 122 1 view .LVU118
 363 002c 04E09DE4 		ldr	lr, [sp], #4
 364              		.cfi_restore 14
 365              		.cfi_def_cfa_offset 0
 366              		.loc 1 119 3 view .LVU119
 367 0030 182083E5 		str	r2, [r3, #24]
 368              		.loc 1 120 3 is_stmt 1 view .LVU120
 369              		.loc 1 121 3 view .LVU121
 370              		.loc 1 121 3 view .LVU122
 371              		.loc 1 121 3 view .LVU123
 372              		.loc 1 121 3 view .LVU124
 373 0034 FEFFFFEA 		b	_port_switch_arm
 374              	.LVL19:
 375              	.L23:
 376              		.loc 1 121 3 is_stmt 0 view .LVU125
 377              		.align	2
 378              	.L22:
 379 0038 00000000 		.word	rlist
 380              		.cfi_endproc
 381              	.LFE9:
 382              		.size	chSchGoSleepS, .-chSchGoSleepS
 383              		.section	.text.chSchGoSleepTimeoutS,"ax",%progbits
 384              		.align	2
 385              		.global	chSchGoSleepTimeoutS
 386              		.syntax unified
 387              		.arm
 388              		.fpu softvfp
 389              		.type	chSchGoSleepTimeoutS, %function
 390              	chSchGoSleepTimeoutS:
 391              	.LVL20:
 392              	.LFB11:
 393              		.loc 1 182 63 is_stmt 1 view -0
 394              		.cfi_startproc
 395              		@ args = 0, pretend = 0, frame = 24
 396              		@ frame_needed = 0, uses_anonymous_args = 0
 397              		.loc 1 184 3 view .LVU127
 398              		.loc 1 184 21 view .LVU128
 399              		.loc 1 186 3 view .LVU129
ARM GAS  /var/folders/l5/0x54b2c10074c8bt31ycjvl80000gp/T//ccIsYVMU.s 			page 8


 400              		.loc 1 182 63 is_stmt 0 view .LVU130
 401 0000 30402DE9 		push	{r4, r5, lr}
 402              		.cfi_def_cfa_offset 12
 403              		.cfi_offset 4, -12
 404              		.cfi_offset 5, -8
 405              		.cfi_offset 14, -4
 406              		.loc 1 186 6 view .LVU131
 407 0004 010071E3 		cmn	r1, #1
 408              		.loc 1 182 63 view .LVU132
 409 0008 1CD04DE2 		sub	sp, sp, #28
 410              		.cfi_def_cfa_offset 40
 411              		.loc 1 186 6 view .LVU133
 412 000c 1000000A 		beq	.L25
 413              	.LBB55:
 414              		.loc 1 187 5 is_stmt 1 view .LVU134
 415              		.loc 1 189 5 view .LVU135
 416 0010 0050A0E1 		mov	r5, r0
 417              		.loc 1 189 33 is_stmt 0 view .LVU136
 418 0014 50409FE5 		ldr	r4, .L32
 419              		.loc 1 189 5 view .LVU137
 420 0018 04008DE2 		add	r0, sp, #4
 421              	.LVL21:
 422              		.loc 1 189 5 view .LVU138
 423 001c 183094E5 		ldr	r3, [r4, #24]
 424 0020 48209FE5 		ldr	r2, .L32+4
 425 0024 FEFFFFEB 		bl	chVTSetI
 426              	.LVL22:
 427              		.loc 1 190 5 is_stmt 1 view .LVU139
 428 0028 0500A0E1 		mov	r0, r5
 429 002c FEFFFFEB 		bl	chSchGoSleepS
 430              	.LVL23:
 431              		.loc 1 191 5 view .LVU140
 432              		.loc 1 191 8 is_stmt 0 view .LVU141
 433 0030 10309DE5 		ldr	r3, [sp, #16]
 434 0034 000053E3 		cmp	r3, #0
 435 0038 0100000A 		beq	.L27
 436              		.loc 1 192 7 is_stmt 1 view .LVU142
 437 003c 04008DE2 		add	r0, sp, #4
 438 0040 FEFFFFEB 		bl	chVTResetI
 439              	.LVL24:
 440              	.L27:
 441              	.LBE55:
 442              		.loc 1 196 3 view .LVU143
 443              		.loc 1 196 20 is_stmt 0 view .LVU144
 444 0044 183094E5 		ldr	r3, [r4, #24]
 445              		.loc 1 197 1 view .LVU145
 446 0048 240093E5 		ldr	r0, [r3, #36]
 447 004c 1CD08DE2 		add	sp, sp, #28
 448              		.cfi_remember_state
 449              		.cfi_def_cfa_offset 12
 450              		@ sp needed
 451 0050 3080BDE8 		pop	{r4, r5, pc}
 452              	.LVL25:
 453              	.L25:
 454              		.cfi_restore_state
 455              		.loc 1 195 5 is_stmt 1 view .LVU146
 456 0054 FEFFFFEB 		bl	chSchGoSleepS
ARM GAS  /var/folders/l5/0x54b2c10074c8bt31ycjvl80000gp/T//ccIsYVMU.s 			page 9


 457              	.LVL26:
 458              		.loc 1 195 5 is_stmt 0 view .LVU147
 459 0058 0C409FE5 		ldr	r4, .L32
 460              		.loc 1 196 3 is_stmt 1 view .LVU148
 461              		.loc 1 196 20 is_stmt 0 view .LVU149
 462 005c 183094E5 		ldr	r3, [r4, #24]
 463              		.loc 1 197 1 view .LVU150
 464 0060 240093E5 		ldr	r0, [r3, #36]
 465 0064 1CD08DE2 		add	sp, sp, #28
 466              		.cfi_def_cfa_offset 12
 467              		@ sp needed
 468 0068 3080BDE8 		pop	{r4, r5, pc}
 469              	.L33:
 470              		.align	2
 471              	.L32:
 472 006c 00000000 		.word	rlist
 473 0070 00000000 		.word	wakeup
 474              		.cfi_endproc
 475              	.LFE11:
 476              		.size	chSchGoSleepTimeoutS, .-chSchGoSleepTimeoutS
 477              		.section	.text.chSchWakeupS,"ax",%progbits
 478              		.align	2
 479              		.global	chSchWakeupS
 480              		.syntax unified
 481              		.arm
 482              		.fpu softvfp
 483              		.type	chSchWakeupS, %function
 484              	chSchWakeupS:
 485              	.LVL27:
 486              	.LFB12:
 487              		.loc 1 218 43 is_stmt 1 view -0
 488              		.cfi_startproc
 489              		@ args = 0, pretend = 0, frame = 0
 490              		@ frame_needed = 0, uses_anonymous_args = 0
 491              		.loc 1 220 3 view .LVU152
 492              		.loc 1 220 21 view .LVU153
 493              		.loc 1 222 3 view .LVU154
 494              		.loc 1 227 22 is_stmt 0 view .LVU155
 495 0000 A0309FE5 		ldr	r3, .L43
 496              		.loc 1 218 43 view .LVU156
 497 0004 10402DE9 		push	{r4, lr}
 498              		.cfi_def_cfa_offset 8
 499              		.cfi_offset 4, -8
 500              		.cfi_offset 14, -4
 501              		.loc 1 227 22 view .LVU157
 502 0008 184093E5 		ldr	r4, [r3, #24]
 503              		.loc 1 227 10 view .LVU158
 504 000c 08E090E5 		ldr	lr, [r0, #8]
 505              		.loc 1 218 43 view .LVU159
 506 0010 00C0A0E1 		mov	ip, r0
 507              		.loc 1 222 19 view .LVU160
 508 0014 241080E5 		str	r1, [r0, #36]
 509              		.loc 1 227 3 is_stmt 1 view .LVU161
 510              		.loc 1 227 27 is_stmt 0 view .LVU162
 511 0018 080094E5 		ldr	r0, [r4, #8]
 512              	.LVL28:
 513              		.loc 1 227 6 view .LVU163
ARM GAS  /var/folders/l5/0x54b2c10074c8bt31ycjvl80000gp/T//ccIsYVMU.s 			page 10


 514 001c 00005EE1 		cmp	lr, r0
 515 0020 0C00008A 		bhi	.L35
 516              		.loc 1 228 5 is_stmt 1 view .LVU164
 517              	.LVL29:
 518              	.LBB56:
 519              	.LBI56:
 520              		.loc 1 74 9 view .LVU165
 521              	.LBB57:
 522              		.loc 1 75 3 view .LVU166
 523              		.loc 1 77 3 view .LVU167
 524              		.loc 1 77 21 view .LVU168
 525              		.loc 1 80 3 view .LVU169
 526              		.loc 1 83 31 view .LVU170
 527              		.loc 1 85 3 view .LVU171
 528              		.loc 1 85 15 is_stmt 0 view .LVU172
 529 0024 0020A0E3 		mov	r2, #0
 530 0028 1C20CCE5 		strb	r2, [ip, #28]
 531              		.loc 1 86 3 is_stmt 1 view .LVU173
 532              	.LVL30:
 533              	.L36:
 534              		.loc 1 87 3 view .LVU174
 535              		.loc 1 88 5 view .LVU175
 536              		.loc 1 88 8 is_stmt 0 view .LVU176
 537 002c 003093E5 		ldr	r3, [r3]
 538              	.LVL31:
 539              		.loc 1 89 3 view .LVU177
 540 0030 082093E5 		ldr	r2, [r3, #8]
 541 0034 02005EE1 		cmp	lr, r2
 542 0038 FBFFFF9A 		bls	.L36
 543              		.loc 1 91 3 is_stmt 1 view .LVU178
 544              		.loc 1 92 18 is_stmt 0 view .LVU179
 545 003c 042093E5 		ldr	r2, [r3, #4]
 546              		.loc 1 91 14 view .LVU180
 547 0040 00308CE5 		str	r3, [ip]
 548              		.loc 1 92 3 is_stmt 1 view .LVU181
 549              		.loc 1 92 14 is_stmt 0 view .LVU182
 550 0044 04208CE5 		str	r2, [ip, #4]
 551              		.loc 1 93 3 is_stmt 1 view .LVU183
 552              		.loc 1 93 35 is_stmt 0 view .LVU184
 553 0048 04C083E5 		str	ip, [r3, #4]
 554              		.loc 1 93 22 view .LVU185
 555 004c 04309CE5 		ldr	r3, [ip, #4]
 556              	.LVL32:
 557              		.loc 1 93 22 view .LVU186
 558 0050 00C083E5 		str	ip, [r3]
 559              	.LVL33:
 560              		.loc 1 94 3 is_stmt 1 view .LVU187
 561              	.LBE57:
 562              	.LBE56:
 563              		.loc 1 235 1 is_stmt 0 view .LVU188
 564 0054 1080BDE8 		pop	{r4, pc}
 565              	.LVL34:
 566              	.L35:
 567              	.LBB58:
 568              		.loc 1 230 5 is_stmt 1 view .LVU189
 569              	.LBB59:
 570              	.LBI59:
ARM GAS  /var/folders/l5/0x54b2c10074c8bt31ycjvl80000gp/T//ccIsYVMU.s 			page 11


 571              		.loc 1 74 9 view .LVU190
 572              	.LBB60:
 573              		.loc 1 75 3 view .LVU191
 574              		.loc 1 77 3 view .LVU192
 575              		.loc 1 77 21 view .LVU193
 576              		.loc 1 80 3 view .LVU194
 577              		.loc 1 83 31 view .LVU195
 578              		.loc 1 85 3 view .LVU196
 579              		.loc 1 85 15 is_stmt 0 view .LVU197
 580 0058 0010A0E3 		mov	r1, #0
 581              	.LVL35:
 582              		.loc 1 86 6 view .LVU198
 583 005c 0320A0E1 		mov	r2, r3
 584              		.loc 1 85 15 view .LVU199
 585 0060 1C10C4E5 		strb	r1, [r4, #28]
 586              	.LVL36:
 587              		.loc 1 86 3 is_stmt 1 view .LVU200
 588              	.L38:
 589              		.loc 1 87 3 view .LVU201
 590              		.loc 1 88 5 view .LVU202
 591              		.loc 1 88 8 is_stmt 0 view .LVU203
 592 0064 002092E5 		ldr	r2, [r2]
 593              	.LVL37:
 594              		.loc 1 89 3 view .LVU204
 595 0068 081092E5 		ldr	r1, [r2, #8]
 596 006c 010050E1 		cmp	r0, r1
 597 0070 FBFFFF9A 		bls	.L38
 598              		.loc 1 91 3 is_stmt 1 view .LVU205
 599              	.LBE60:
 600              	.LBE59:
 601              		.loc 1 232 18 is_stmt 0 view .LVU206
 602 0074 01E0A0E3 		mov	lr, #1
 603              	.LBB63:
 604              	.LBB61:
 605              		.loc 1 92 18 view .LVU207
 606 0078 041092E5 		ldr	r1, [r2, #4]
 607              		.loc 1 91 14 view .LVU208
 608 007c 002084E5 		str	r2, [r4]
 609              		.loc 1 92 3 is_stmt 1 view .LVU209
 610              		.loc 1 92 14 is_stmt 0 view .LVU210
 611 0080 041084E5 		str	r1, [r4, #4]
 612              		.loc 1 93 3 is_stmt 1 view .LVU211
 613              		.loc 1 93 35 is_stmt 0 view .LVU212
 614 0084 044082E5 		str	r4, [r2, #4]
 615              		.loc 1 93 22 view .LVU213
 616 0088 042094E5 		ldr	r2, [r4, #4]
 617              	.LVL38:
 618              		.loc 1 93 22 view .LVU214
 619              	.LBE61:
 620              	.LBE63:
 621              		.loc 1 233 5 view .LVU215
 622 008c 0410A0E1 		mov	r1, r4
 623              	.LBB64:
 624              	.LBB62:
 625              		.loc 1 93 22 view .LVU216
 626 0090 004082E5 		str	r4, [r2]
 627              	.LVL39:
ARM GAS  /var/folders/l5/0x54b2c10074c8bt31ycjvl80000gp/T//ccIsYVMU.s 			page 12


 628              		.loc 1 94 3 is_stmt 1 view .LVU217
 629              		.loc 1 94 3 is_stmt 0 view .LVU218
 630              	.LBE62:
 631              	.LBE64:
 632              		.loc 1 231 5 is_stmt 1 view .LVU219
 633              		.loc 1 232 18 is_stmt 0 view .LVU220
 634 0094 1CE0CCE5 		strb	lr, [ip, #28]
 635              		.loc 1 233 5 view .LVU221
 636 0098 0C00A0E1 		mov	r0, ip
 637              	.LBE58:
 638              		.loc 1 235 1 view .LVU222
 639 009c 1040BDE8 		pop	{r4, lr}
 640              		.cfi_restore 14
 641              		.cfi_restore 4
 642              		.cfi_def_cfa_offset 0
 643              	.LVL40:
 644              	.LBB65:
 645              		.loc 1 231 5 view .LVU223
 646 00a0 18C083E5 		str	ip, [r3, #24]
 647              		.loc 1 232 5 is_stmt 1 view .LVU224
 648              		.loc 1 233 5 view .LVU225
 649              		.loc 1 233 5 view .LVU226
 650              		.loc 1 233 5 view .LVU227
 651              		.loc 1 233 5 view .LVU228
 652 00a4 FEFFFFEA 		b	_port_switch_arm
 653              	.LVL41:
 654              	.L44:
 655              		.loc 1 233 5 is_stmt 0 view .LVU229
 656              		.align	2
 657              	.L43:
 658 00a8 00000000 		.word	rlist
 659              	.LBE65:
 660              		.cfi_endproc
 661              	.LFE12:
 662              		.size	chSchWakeupS, .-chSchWakeupS
 663              		.section	.text.chSchIsPreemptionRequired,"ax",%progbits
 664              		.align	2
 665              		.global	chSchIsPreemptionRequired
 666              		.syntax unified
 667              		.arm
 668              		.fpu softvfp
 669              		.type	chSchIsPreemptionRequired, %function
 670              	chSchIsPreemptionRequired:
 671              	.LFB14:
 672              		.loc 1 269 40 is_stmt 1 view -0
 673              		.cfi_startproc
 674              		@ args = 0, pretend = 0, frame = 0
 675              		@ frame_needed = 0, uses_anonymous_args = 0
 676              		@ link register save eliminated.
 677              		.loc 1 270 3 view .LVU231
 678              	.LVL42:
 679              		.loc 1 271 3 view .LVU232
 680              		.loc 1 281 3 view .LVU233
 681              		.loc 1 270 16 is_stmt 0 view .LVU234
 682 0000 1C309FE5 		ldr	r3, .L46
 683              	.LVL43:
 684              		.loc 1 270 11 view .LVU235
ARM GAS  /var/folders/l5/0x54b2c10074c8bt31ycjvl80000gp/T//ccIsYVMU.s 			page 13


 685 0004 002093E5 		ldr	r2, [r3]
 686              		.loc 1 271 11 view .LVU236
 687 0008 183093E5 		ldr	r3, [r3, #24]
 688              	.LVL44:
 689              		.loc 1 281 13 view .LVU237
 690 000c 080092E5 		ldr	r0, [r2, #8]
 691 0010 083093E5 		ldr	r3, [r3, #8]
 692              		.loc 1 283 1 view .LVU238
 693 0014 030050E1 		cmp	r0, r3
 694 0018 0000A093 		movls	r0, #0
 695 001c 0100A083 		movhi	r0, #1
 696 0020 1EFF2FE1 		bx	lr
 697              	.L47:
 698              		.align	2
 699              	.L46:
 700 0024 00000000 		.word	rlist
 701              		.cfi_endproc
 702              	.LFE14:
 703              		.size	chSchIsPreemptionRequired, .-chSchIsPreemptionRequired
 704              		.section	.text.chSchDoRescheduleBehind,"ax",%progbits
 705              		.align	2
 706              		.global	chSchDoRescheduleBehind
 707              		.syntax unified
 708              		.arm
 709              		.fpu softvfp
 710              		.type	chSchDoRescheduleBehind, %function
 711              	chSchDoRescheduleBehind:
 712              	.LFB15:
 713              		.loc 1 297 36 is_stmt 1 view -0
 714              		.cfi_startproc
 715              		@ args = 0, pretend = 0, frame = 0
 716              		@ frame_needed = 0, uses_anonymous_args = 0
 717              		.loc 1 298 3 view .LVU240
 718              		.loc 1 300 3 view .LVU241
 719              		.loc 1 297 36 is_stmt 0 view .LVU242
 720 0000 10402DE9 		push	{r4, lr}
 721              		.cfi_def_cfa_offset 8
 722              		.cfi_offset 4, -8
 723              		.cfi_offset 14, -4
 724              		.loc 1 303 18 view .LVU243
 725 0004 0140A0E3 		mov	r4, #1
 726              	.LBB66:
 727              	.LBB67:
 728              		.loc 1 85 15 view .LVU244
 729 0008 00E0A0E3 		mov	lr, #0
 730              	.LBE67:
 731              	.LBE66:
 732              		.loc 1 300 7 view .LVU245
 733 000c 58209FE5 		ldr	r2, .L53
 734              	.LBB72:
 735              	.LBB73:
 736              		.loc 2 53 11 view .LVU246
 737 0010 000092E5 		ldr	r0, [r2]
 738              	.LBE73:
 739              	.LBE72:
 740              		.loc 1 300 7 view .LVU247
 741 0014 181092E5 		ldr	r1, [r2, #24]
ARM GAS  /var/folders/l5/0x54b2c10074c8bt31ycjvl80000gp/T//ccIsYVMU.s 			page 14


 742              	.LVL45:
 743              		.loc 1 302 3 is_stmt 1 view .LVU248
 744              	.LBB77:
 745              	.LBI72:
 746              		.loc 2 52 23 view .LVU249
 747              	.LBB74:
 748              		.loc 2 53 3 view .LVU250
 749              		.loc 2 55 3 view .LVU251
 750              		.loc 2 55 20 is_stmt 0 view .LVU252
 751 0018 00C090E5 		ldr	ip, [r0]
 752              	.LBE74:
 753              	.LBE77:
 754              	.LBB78:
 755              	.LBB68:
 756              		.loc 1 89 28 view .LVU253
 757 001c 0030A0E1 		mov	r3, r0
 758              	.LBE68:
 759              	.LBE78:
 760              	.LBB79:
 761              	.LBB75:
 762              		.loc 2 55 38 view .LVU254
 763 0020 04208CE5 		str	r2, [ip, #4]
 764              		.loc 2 56 3 is_stmt 1 view .LVU255
 765              	.LVL46:
 766              		.loc 2 56 3 is_stmt 0 view .LVU256
 767              	.LBE75:
 768              	.LBE79:
 769              		.loc 1 303 18 view .LVU257
 770 0024 1C40C0E5 		strb	r4, [r0, #28]
 771              	.LBB80:
 772              	.LBB76:
 773              		.loc 2 55 16 view .LVU258
 774 0028 00C082E5 		str	ip, [r2]
 775              	.LBE76:
 776              	.LBE80:
 777              	.LBB81:
 778              	.LBB69:
 779              		.loc 1 85 15 view .LVU259
 780 002c 1CE0C1E5 		strb	lr, [r1, #28]
 781              		.loc 1 89 28 view .LVU260
 782 0030 08C091E5 		ldr	ip, [r1, #8]
 783              	.LBE69:
 784              	.LBE81:
 785              		.loc 1 302 3 view .LVU261
 786 0034 180082E5 		str	r0, [r2, #24]
 787              		.loc 1 303 3 is_stmt 1 view .LVU262
 788              		.loc 1 307 3 view .LVU263
 789              	.LVL47:
 790              	.LBB82:
 791              	.LBI66:
 792              		.loc 1 74 9 view .LVU264
 793              	.LBB70:
 794              		.loc 1 75 3 view .LVU265
 795              		.loc 1 77 3 view .LVU266
 796              		.loc 1 77 21 view .LVU267
 797              		.loc 1 80 3 view .LVU268
 798              		.loc 1 83 31 view .LVU269
ARM GAS  /var/folders/l5/0x54b2c10074c8bt31ycjvl80000gp/T//ccIsYVMU.s 			page 15


 799              		.loc 1 85 3 view .LVU270
 800              		.loc 1 86 3 view .LVU271
 801              		.loc 1 86 3 is_stmt 0 view .LVU272
 802 0038 000000EA 		b	.L50
 803              	.LVL48:
 804              	.L52:
 805              		.loc 1 86 3 view .LVU273
 806 003c 003093E5 		ldr	r3, [r3]
 807              	.L50:
 808              		.loc 1 87 3 is_stmt 1 view .LVU274
 809              		.loc 1 88 5 view .LVU275
 810              		.loc 1 89 3 is_stmt 0 view .LVU276
 811 0040 082093E5 		ldr	r2, [r3, #8]
 812 0044 0C0052E1 		cmp	r2, ip
 813 0048 FBFFFF2A 		bcs	.L52
 814              		.loc 1 91 3 is_stmt 1 view .LVU277
 815              	.LBE70:
 816              	.LBE82:
 817              		.loc 1 309 1 is_stmt 0 view .LVU278
 818 004c 1040BDE8 		pop	{r4, lr}
 819              		.cfi_restore 14
 820              		.cfi_restore 4
 821              		.cfi_def_cfa_offset 0
 822              	.LBB83:
 823              	.LBB71:
 824              		.loc 1 92 18 view .LVU279
 825 0050 042093E5 		ldr	r2, [r3, #4]
 826              		.loc 1 91 14 view .LVU280
 827 0054 003081E5 		str	r3, [r1]
 828              		.loc 1 92 3 is_stmt 1 view .LVU281
 829              		.loc 1 92 14 is_stmt 0 view .LVU282
 830 0058 042081E5 		str	r2, [r1, #4]
 831              		.loc 1 93 3 is_stmt 1 view .LVU283
 832              		.loc 1 93 35 is_stmt 0 view .LVU284
 833 005c 041083E5 		str	r1, [r3, #4]
 834              		.loc 1 93 22 view .LVU285
 835 0060 043091E5 		ldr	r3, [r1, #4]
 836 0064 001083E5 		str	r1, [r3]
 837              		.loc 1 94 3 is_stmt 1 view .LVU286
 838              	.LVL49:
 839              		.loc 1 94 3 is_stmt 0 view .LVU287
 840              	.LBE71:
 841              	.LBE83:
 842              		.loc 1 308 3 is_stmt 1 view .LVU288
 843              		.loc 1 308 3 view .LVU289
 844              		.loc 1 308 3 view .LVU290
 845              		.loc 1 308 3 view .LVU291
 846 0068 FEFFFFEA 		b	_port_switch_arm
 847              	.LVL50:
 848              	.L54:
 849              		.loc 1 308 3 is_stmt 0 view .LVU292
 850              		.align	2
 851              	.L53:
 852 006c 00000000 		.word	rlist
 853              		.cfi_endproc
 854              	.LFE15:
 855              		.size	chSchDoRescheduleBehind, .-chSchDoRescheduleBehind
ARM GAS  /var/folders/l5/0x54b2c10074c8bt31ycjvl80000gp/T//ccIsYVMU.s 			page 16


 856              		.section	.text.chSchDoRescheduleAhead,"ax",%progbits
 857              		.align	2
 858              		.global	chSchDoRescheduleAhead
 859              		.syntax unified
 860              		.arm
 861              		.fpu softvfp
 862              		.type	chSchDoRescheduleAhead, %function
 863              	chSchDoRescheduleAhead:
 864              	.LFB16:
 865              		.loc 1 322 35 is_stmt 1 view -0
 866              		.cfi_startproc
 867              		@ args = 0, pretend = 0, frame = 0
 868              		@ frame_needed = 0, uses_anonymous_args = 0
 869              		.loc 1 323 3 view .LVU294
 870              		.loc 1 325 3 view .LVU295
 871              		.loc 1 322 35 is_stmt 0 view .LVU296
 872 0000 10402DE9 		push	{r4, lr}
 873              		.cfi_def_cfa_offset 8
 874              		.cfi_offset 4, -8
 875              		.cfi_offset 14, -4
 876              		.loc 1 328 18 view .LVU297
 877 0004 0140A0E3 		mov	r4, #1
 878              		.loc 1 330 16 view .LVU298
 879 0008 00E0A0E3 		mov	lr, #0
 880              		.loc 1 325 7 view .LVU299
 881 000c 58209FE5 		ldr	r2, .L60
 882              	.LBB84:
 883              	.LBB85:
 884              		.loc 2 53 11 view .LVU300
 885 0010 000092E5 		ldr	r0, [r2]
 886              	.LBE85:
 887              	.LBE84:
 888              		.loc 1 325 7 view .LVU301
 889 0014 181092E5 		ldr	r1, [r2, #24]
 890              	.LVL51:
 891              		.loc 1 327 3 is_stmt 1 view .LVU302
 892              	.LBB89:
 893              	.LBI84:
 894              		.loc 2 52 23 view .LVU303
 895              	.LBB86:
 896              		.loc 2 53 3 view .LVU304
 897              		.loc 2 55 3 view .LVU305
 898              		.loc 2 55 20 is_stmt 0 view .LVU306
 899 0018 00C090E5 		ldr	ip, [r0]
 900              	.LBE86:
 901              	.LBE89:
 902              		.loc 1 334 28 view .LVU307
 903 001c 0030A0E1 		mov	r3, r0
 904              	.LBB90:
 905              	.LBB87:
 906              		.loc 2 55 38 view .LVU308
 907 0020 04208CE5 		str	r2, [ip, #4]
 908              		.loc 2 56 3 is_stmt 1 view .LVU309
 909              	.LVL52:
 910              		.loc 2 56 3 is_stmt 0 view .LVU310
 911              	.LBE87:
 912              	.LBE90:
ARM GAS  /var/folders/l5/0x54b2c10074c8bt31ycjvl80000gp/T//ccIsYVMU.s 			page 17


 913              		.loc 1 328 18 view .LVU311
 914 0024 1C40C0E5 		strb	r4, [r0, #28]
 915              	.LBB91:
 916              	.LBB88:
 917              		.loc 2 55 16 view .LVU312
 918 0028 00C082E5 		str	ip, [r2]
 919              	.LBE88:
 920              	.LBE91:
 921              		.loc 1 330 16 view .LVU313
 922 002c 1CE0C1E5 		strb	lr, [r1, #28]
 923              		.loc 1 334 28 view .LVU314
 924 0030 08C091E5 		ldr	ip, [r1, #8]
 925              		.loc 1 327 3 view .LVU315
 926 0034 180082E5 		str	r0, [r2, #24]
 927              		.loc 1 328 3 is_stmt 1 view .LVU316
 928              		.loc 1 330 3 view .LVU317
 929              		.loc 1 331 3 view .LVU318
 930              	.LVL53:
 931              		.loc 1 331 3 is_stmt 0 view .LVU319
 932 0038 000000EA 		b	.L57
 933              	.LVL54:
 934              	.L59:
 935              		.loc 1 331 3 view .LVU320
 936 003c 003093E5 		ldr	r3, [r3]
 937              	.L57:
 938              		.loc 1 332 3 is_stmt 1 discriminator 1 view .LVU321
 939              		.loc 1 333 5 discriminator 1 view .LVU322
 940              		.loc 1 334 3 is_stmt 0 discriminator 1 view .LVU323
 941 0040 082093E5 		ldr	r2, [r3, #8]
 942 0044 0C0052E1 		cmp	r2, ip
 943 0048 FBFFFF8A 		bhi	.L59
 944              		.loc 1 336 3 is_stmt 1 view .LVU324
 945              		.loc 1 341 1 is_stmt 0 view .LVU325
 946 004c 1040BDE8 		pop	{r4, lr}
 947              		.cfi_restore 14
 948              		.cfi_restore 4
 949              		.cfi_def_cfa_offset 0
 950              		.loc 1 337 19 view .LVU326
 951 0050 042093E5 		ldr	r2, [r3, #4]
 952              		.loc 1 336 15 view .LVU327
 953 0054 003081E5 		str	r3, [r1]
 954              		.loc 1 337 3 is_stmt 1 view .LVU328
 955              		.loc 1 337 15 is_stmt 0 view .LVU329
 956 0058 042081E5 		str	r2, [r1, #4]
 957              		.loc 1 338 3 is_stmt 1 view .LVU330
 958              		.loc 1 338 36 is_stmt 0 view .LVU331
 959 005c 041083E5 		str	r1, [r3, #4]
 960              		.loc 1 338 23 view .LVU332
 961 0060 043091E5 		ldr	r3, [r1, #4]
 962 0064 001083E5 		str	r1, [r3]
 963              		.loc 1 340 3 is_stmt 1 view .LVU333
 964              		.loc 1 340 3 view .LVU334
 965              		.loc 1 340 3 view .LVU335
 966              		.loc 1 340 3 view .LVU336
 967 0068 FEFFFFEA 		b	_port_switch_arm
 968              	.LVL55:
 969              	.L61:
ARM GAS  /var/folders/l5/0x54b2c10074c8bt31ycjvl80000gp/T//ccIsYVMU.s 			page 18


 970              		.loc 1 340 3 is_stmt 0 view .LVU337
 971              		.align	2
 972              	.L60:
 973 006c 00000000 		.word	rlist
 974              		.cfi_endproc
 975              	.LFE16:
 976              		.size	chSchDoRescheduleAhead, .-chSchDoRescheduleAhead
 977              		.section	.text.chSchRescheduleS,"ax",%progbits
 978              		.align	2
 979              		.global	chSchRescheduleS
 980              		.syntax unified
 981              		.arm
 982              		.fpu softvfp
 983              		.type	chSchRescheduleS, %function
 984              	chSchRescheduleS:
 985              	.LFB13:
 986              		.loc 1 246 29 is_stmt 1 view -0
 987              		.cfi_startproc
 988              		@ args = 0, pretend = 0, frame = 0
 989              		@ frame_needed = 0, uses_anonymous_args = 0
 990              		@ link register save eliminated.
 991              		.loc 1 248 3 view .LVU339
 992              		.loc 1 248 21 view .LVU340
 993              		.loc 1 250 3 view .LVU341
 994              		.loc 1 250 7 is_stmt 0 view .LVU342
 995 0000 18309FE5 		ldr	r3, .L64
 996 0004 002093E5 		ldr	r2, [r3]
 997 0008 183093E5 		ldr	r3, [r3, #24]
 998              		.loc 1 250 6 view .LVU343
 999 000c 082092E5 		ldr	r2, [r2, #8]
 1000 0010 083093E5 		ldr	r3, [r3, #8]
 1001 0014 030052E1 		cmp	r2, r3
 1002 0018 1EFF2F91 		bxls	lr
 1003              		.loc 1 251 5 is_stmt 1 view .LVU344
 1004 001c FEFFFFEA 		b	chSchDoRescheduleAhead
 1005              	.LVL56:
 1006              	.L65:
 1007              		.align	2
 1008              	.L64:
 1009 0020 00000000 		.word	rlist
 1010              		.cfi_endproc
 1011              	.LFE13:
 1012              		.size	chSchRescheduleS, .-chSchRescheduleS
 1013              		.section	.text.chSchDoReschedule,"ax",%progbits
 1014              		.align	2
 1015              		.global	chSchDoReschedule
 1016              		.syntax unified
 1017              		.arm
 1018              		.fpu softvfp
 1019              		.type	chSchDoReschedule, %function
 1020              	chSchDoReschedule:
 1021              	.LFB17:
 1022              		.loc 1 355 30 view -0
 1023              		.cfi_startproc
 1024              		@ args = 0, pretend = 0, frame = 0
 1025              		@ frame_needed = 0, uses_anonymous_args = 0
 1026              		@ link register save eliminated.
ARM GAS  /var/folders/l5/0x54b2c10074c8bt31ycjvl80000gp/T//ccIsYVMU.s 			page 19


 1027              		.loc 1 373 3 view .LVU346
 1028 0000 FEFFFFEA 		b	chSchDoRescheduleAhead
 1029              	.LVL57:
 1030              		.cfi_endproc
 1031              	.LFE17:
 1032              		.size	chSchDoReschedule, .-chSchDoReschedule
 1033              		.comm	rlist,28,4
 1034              		.text
 1035              	.Letext0:
 1036              		.file 3 "/usr/local/Cellar/arm-gcc-bin/8-2019-q3-update/arm-none-eabi/include/machine/_default_typ
 1037              		.file 4 "/usr/local/Cellar/arm-gcc-bin/8-2019-q3-update/arm-none-eabi/include/sys/_stdint.h"
 1038              		.file 5 "../../os/ports/GCC/ARM/chtypes.h"
 1039              		.file 6 "../../os/kernel/include/chlists.h"
 1040              		.file 7 "../../os/kernel/include/chthreads.h"
 1041              		.file 8 "../../os/ports/GCC/ARM/chcore.h"
 1042              		.file 9 "../../os/kernel/include/chvt.h"
 1043              		.file 10 "../../os/kernel/include/chschd.h"
 1044              		.file 11 "../../os/kernel/include/chsem.h"
 1045              		.file 12 "../../os/kernel/include/chmtx.h"
 1046              		.file 13 "../../os/kernel/include/chregistry.h"
 1047              		.file 14 "../../os/kernel/include/ch.h"