ARM GAS  /var/folders/l5/0x54b2c10074c8bt31ycjvl80000gp/T//ccxMzJPy.s 			page 1


   1              		.cpu arm1176jz-s
   2              		.eabi_attribute 20, 1
   3              		.eabi_attribute 21, 1
   4              		.eabi_attribute 23, 3
   5              		.eabi_attribute 24, 1
   6              		.eabi_attribute 25, 1
   7              		.eabi_attribute 26, 1
   8              		.eabi_attribute 30, 2
   9              		.eabi_attribute 34, 1
  10              		.eabi_attribute 18, 4
  11              		.file	"chsem.c"
  12              		.text
  13              	.Ltext0:
  14              		.cfi_sections	.debug_frame
  15              		.section	.text.chSemInit,"ax",%progbits
  16              		.align	2
  17              		.global	chSemInit
  18              		.arch armv6kz
  19              		.syntax unified
  20              		.arm
  21              		.fpu softvfp
  22              		.type	chSemInit, %function
  23              	chSemInit:
  24              	.LVL0:
  25              	.LFB7:
  26              		.file 1 "../../os/kernel/src/chsem.c"
  27              		.loc 1 79 40 view -0
  28              		.cfi_startproc
  29              		@ args = 0, pretend = 0, frame = 0
  30              		@ frame_needed = 0, uses_anonymous_args = 0
  31              		@ link register save eliminated.
  32              		.loc 1 81 3 view .LVU1
  33              		.loc 1 81 52 view .LVU2
  34              		.loc 1 83 3 view .LVU3
  35 0000 040080E5 		str	r0, [r0, #4]
  36 0004 000080E5 		str	r0, [r0]
  37              		.loc 1 83 27 view .LVU4
  38              		.loc 1 84 3 view .LVU5
  39              		.loc 1 84 13 is_stmt 0 view .LVU6
  40 0008 081080E5 		str	r1, [r0, #8]
  41              		.loc 1 85 1 view .LVU7
  42 000c 1EFF2FE1 		bx	lr
  43              		.cfi_endproc
  44              	.LFE7:
  45              		.size	chSemInit, .-chSemInit
  46              		.section	.text.chSemResetI,"ax",%progbits
  47              		.align	2
  48              		.global	chSemResetI
  49              		.syntax unified
  50              		.arm
  51              		.fpu softvfp
  52              		.type	chSemResetI, %function
  53              	chSemResetI:
  54              	.LVL1:
  55              	.LFB9:
  56              		.loc 1 129 42 is_stmt 1 view -0
  57              		.cfi_startproc
ARM GAS  /var/folders/l5/0x54b2c10074c8bt31ycjvl80000gp/T//ccxMzJPy.s 			page 2


  58              		@ args = 0, pretend = 0, frame = 0
  59              		@ frame_needed = 0, uses_anonymous_args = 0
  60              		.loc 1 130 3 view .LVU9
  61              		.loc 1 132 3 view .LVU10
  62              		.loc 1 132 21 view .LVU11
  63              		.loc 1 133 3 view .LVU12
  64              		.loc 1 133 54 view .LVU13
  65              		.loc 1 134 3 view .LVU14
  66              		.loc 1 129 42 is_stmt 0 view .LVU15
  67 0000 70402DE9 		push	{r4, r5, r6, lr}
  68              		.cfi_def_cfa_offset 16
  69              		.cfi_offset 4, -16
  70              		.cfi_offset 5, -12
  71              		.cfi_offset 6, -8
  72              		.cfi_offset 14, -4
  73              		.loc 1 134 3 view .LVU16
  74 0004 085090E5 		ldr	r5, [r0, #8]
  75              		.loc 1 137 40 is_stmt 1 view .LVU17
  76              		.loc 1 139 3 view .LVU18
  77              	.LVL2:
  78              		.loc 1 140 3 view .LVU19
  79              		.loc 1 140 13 is_stmt 0 view .LVU20
  80 0008 081080E5 		str	r1, [r0, #8]
  81              		.loc 1 141 3 is_stmt 1 view .LVU21
  82              		.loc 1 141 9 is_stmt 0 view .LVU22
  83 000c 015085E2 		add	r5, r5, #1
  84              	.LVL3:
  85              		.loc 1 141 9 view .LVU23
  86 0010 000055E3 		cmp	r5, #0
  87 0014 7080BDC8 		popgt	{r4, r5, r6, pc}
  88 0018 0040A0E1 		mov	r4, r0
  89              		.loc 1 142 56 view .LVU24
  90 001c 0160E0E3 		mvn	r6, #1
  91              	.LVL4:
  92              	.L5:
  93              		.loc 1 142 5 is_stmt 1 view .LVU25
  94              	.LBB28:
  95              	.LBI28:
  96              		.file 2 "../../os/kernel/include/chinline.h"
  97              		.loc 2 59 23 view .LVU26
  98              	.LBB29:
  99              		.loc 2 60 3 view .LVU27
 100              		.loc 2 60 11 is_stmt 0 view .LVU28
 101 0020 040094E5 		ldr	r0, [r4, #4]
 102              	.LVL5:
 103              		.loc 2 62 3 is_stmt 1 view .LVU29
 104              	.LBE29:
 105              	.LBE28:
 106              		.loc 1 141 9 is_stmt 0 view .LVU30
 107 0024 015085E2 		add	r5, r5, #1
 108              	.LVL6:
 109              	.LBB31:
 110              	.LBB30:
 111              		.loc 2 62 20 view .LVU31
 112 0028 043090E5 		ldr	r3, [r0, #4]
 113              		.loc 2 62 16 view .LVU32
 114 002c 043084E5 		str	r3, [r4, #4]
ARM GAS  /var/folders/l5/0x54b2c10074c8bt31ycjvl80000gp/T//ccxMzJPy.s 			page 3


 115              		.loc 2 62 38 view .LVU33
 116 0030 004083E5 		str	r4, [r3]
 117              		.loc 2 63 3 is_stmt 1 view .LVU34
 118              	.LVL7:
 119              		.loc 2 63 3 is_stmt 0 view .LVU35
 120              	.LBE30:
 121              	.LBE31:
 122              		.loc 1 142 5 view .LVU36
 123 0034 FEFFFFEB 		bl	chSchReadyI
 124              	.LVL8:
 125              		.loc 1 141 9 view .LVU37
 126 0038 010055E3 		cmp	r5, #1
 127              		.loc 1 142 56 view .LVU38
 128 003c 246080E5 		str	r6, [r0, #36]
 129              	.LVL9:
 130              		.loc 1 141 9 view .LVU39
 131 0040 F6FFFF1A 		bne	.L5
 132 0044 7080BDE8 		pop	{r4, r5, r6, pc}
 133              		.cfi_endproc
 134              	.LFE9:
 135              		.size	chSemResetI, .-chSemResetI
 136              		.section	.text.chSemReset,"ax",%progbits
 137              		.align	2
 138              		.global	chSemReset
 139              		.syntax unified
 140              		.arm
 141              		.fpu softvfp
 142              		.type	chSemReset, %function
 143              	chSemReset:
 144              	.LVL10:
 145              	.LFB8:
 146              		.loc 1 102 41 is_stmt 1 view -0
 147              		.cfi_startproc
 148              		@ args = 0, pretend = 0, frame = 0
 149              		@ frame_needed = 0, uses_anonymous_args = 0
 150              		.loc 1 104 3 view .LVU41
 151              		.loc 1 102 41 is_stmt 0 view .LVU42
 152 0000 10402DE9 		push	{r4, lr}
 153              		.cfi_def_cfa_offset 8
 154              		.cfi_offset 4, -8
 155              		.cfi_offset 14, -4
 156              		.loc 1 104 3 view .LVU43
 157              		.syntax divided
 158              	@ 104 "../../os/kernel/src/chsem.c" 1
 159 0004 9FF021E3 		msr     CPSR_c, #0x9F
 160              	@ 0 "" 2
 161              		.loc 1 104 3 is_stmt 1 view .LVU44
 162              		.loc 1 104 14 view .LVU45
 163              		.loc 1 105 3 view .LVU46
 164              		.arm
 165              		.syntax unified
 166 0008 FEFFFFEB 		bl	chSemResetI
 167              	.LVL11:
 168              		.loc 1 106 3 view .LVU47
 169 000c FEFFFFEB 		bl	chSchRescheduleS
 170              	.LVL12:
 171              		.loc 1 107 3 view .LVU48
ARM GAS  /var/folders/l5/0x54b2c10074c8bt31ycjvl80000gp/T//ccxMzJPy.s 			page 4


 172              		.loc 1 107 3 view .LVU49
 173              		.syntax divided
 174              	@ 107 "../../os/kernel/src/chsem.c" 1
 175 0010 1FF021E3 		msr     CPSR_c, #0x1F
 176              	@ 0 "" 2
 177              		.loc 1 107 16 view .LVU50
 178              		.loc 1 108 1 is_stmt 0 view .LVU51
 179              		.arm
 180              		.syntax unified
 181 0014 1080BDE8 		pop	{r4, pc}
 182              		.cfi_endproc
 183              	.LFE8:
 184              		.size	chSemReset, .-chSemReset
 185              		.section	.text.chSemWait,"ax",%progbits
 186              		.align	2
 187              		.global	chSemWait
 188              		.syntax unified
 189              		.arm
 190              		.fpu softvfp
 191              		.type	chSemWait, %function
 192              	chSemWait:
 193              	.LVL13:
 194              	.LFB10:
 195              		.loc 1 157 32 is_stmt 1 view -0
 196              		.cfi_startproc
 197              		@ args = 0, pretend = 0, frame = 0
 198              		@ frame_needed = 0, uses_anonymous_args = 0
 199              		.loc 1 158 3 view .LVU53
 200              		.loc 1 160 3 view .LVU54
 201              		.syntax divided
 202              	@ 160 "../../os/kernel/src/chsem.c" 1
 203 0000 9FF021E3 		msr     CPSR_c, #0x9F
 204              	@ 0 "" 2
 205              		.loc 1 160 3 view .LVU55
 206              		.loc 1 160 14 view .LVU56
 207              		.loc 1 161 3 view .LVU57
 208              	.LVL14:
 209              		.arm
 210              		.syntax unified
 211              	.LBB38:
 212              	.LBI38:
 213              		.loc 1 178 7 view .LVU58
 214              	.LBB39:
 215              		.loc 1 180 3 view .LVU59
 216              		.loc 1 180 21 view .LVU60
 217              		.loc 1 181 3 view .LVU61
 218              		.loc 1 181 39 view .LVU62
 219              		.loc 1 182 3 view .LVU63
 220              		.loc 1 185 40 view .LVU64
 221              		.loc 1 187 3 view .LVU65
 222              		.loc 1 187 7 is_stmt 0 view .LVU66
 223 0004 083090E5 		ldr	r3, [r0, #8]
 224 0008 013043E2 		sub	r3, r3, #1
 225              		.loc 1 187 6 view .LVU67
 226 000c 000053E3 		cmp	r3, #0
 227 0010 083080E5 		str	r3, [r0, #8]
 228 0014 020000BA 		blt	.L18
ARM GAS  /var/folders/l5/0x54b2c10074c8bt31ycjvl80000gp/T//ccxMzJPy.s 			page 5


 229              		.loc 1 193 10 view .LVU68
 230 0018 0000A0E3 		mov	r0, #0
 231              	.LVL15:
 232              		.loc 1 193 10 view .LVU69
 233              	.LBE39:
 234              	.LBE38:
 235              		.loc 1 162 3 is_stmt 1 view .LVU70
 236              		.loc 1 162 3 view .LVU71
 237              		.syntax divided
 238              	@ 162 "../../os/kernel/src/chsem.c" 1
 239 001c 1FF021E3 		msr     CPSR_c, #0x1F
 240              	@ 0 "" 2
 241              		.loc 1 162 16 view .LVU72
 242              		.loc 1 163 3 view .LVU73
 243              		.loc 1 164 1 is_stmt 0 view .LVU74
 244              		.arm
 245              		.syntax unified
 246 0020 1EFF2FE1 		bx	lr
 247              	.LVL16:
 248              	.L18:
 249              		.loc 1 164 1 view .LVU75
 250 0024 0030A0E1 		mov	r3, r0
 251              	.LVL17:
 252              	.LBB50:
 253              	.LBB48:
 254              	.LBB40:
 255              	.LBI40:
 256              		.loc 1 178 7 is_stmt 1 view .LVU76
 257              	.LBB41:
 258              		.loc 1 188 5 view .LVU77
 259              	.LBE41:
 260              	.LBE40:
 261              	.LBE48:
 262              	.LBE50:
 263              		.loc 1 157 32 is_stmt 0 view .LVU78
 264 0028 10402DE9 		push	{r4, lr}
 265              		.cfi_def_cfa_offset 8
 266              		.cfi_offset 4, -8
 267              		.cfi_offset 14, -4
 268              	.LBB51:
 269              	.LBB49:
 270              	.LBB47:
 271              	.LBB46:
 272              		.loc 1 188 5 view .LVU79
 273 002c 30409FE5 		ldr	r4, .L19
 274              	.LBB42:
 275              	.LBB43:
 276              		.loc 2 48 19 view .LVU80
 277 0030 041090E5 		ldr	r1, [r0, #4]
 278              	.LBE43:
 279              	.LBE42:
 280              		.loc 1 188 5 view .LVU81
 281 0034 182094E5 		ldr	r2, [r4, #24]
 282              		.loc 1 190 5 view .LVU82
 283 0038 0300A0E3 		mov	r0, #3
 284              	.LVL18:
 285              		.loc 1 188 23 view .LVU83
ARM GAS  /var/folders/l5/0x54b2c10074c8bt31ycjvl80000gp/T//ccxMzJPy.s 			page 6


 286 003c 243082E5 		str	r3, [r2, #36]
 287              		.loc 1 189 5 is_stmt 1 view .LVU84
 288              	.LVL19:
 289              	.LBB45:
 290              	.LBI42:
 291              		.loc 2 45 20 view .LVU85
 292              	.LBB44:
 293              		.loc 2 47 3 view .LVU86
 294              		.loc 2 47 14 is_stmt 0 view .LVU87
 295 0040 003082E5 		str	r3, [r2]
 296              		.loc 2 48 3 is_stmt 1 view .LVU88
 297              		.loc 2 48 14 is_stmt 0 view .LVU89
 298 0044 041082E5 		str	r1, [r2, #4]
 299              		.loc 2 49 3 is_stmt 1 view .LVU90
 300              		.loc 2 49 36 is_stmt 0 view .LVU91
 301 0048 042083E5 		str	r2, [r3, #4]
 302              		.loc 2 49 22 view .LVU92
 303 004c 002081E5 		str	r2, [r1]
 304              	.LVL20:
 305              		.loc 2 49 22 view .LVU93
 306              	.LBE44:
 307              	.LBE45:
 308              		.loc 1 190 5 is_stmt 1 view .LVU94
 309 0050 FEFFFFEB 		bl	chSchGoSleepS
 310              	.LVL21:
 311              		.loc 1 191 5 view .LVU95
 312              		.loc 1 191 22 is_stmt 0 view .LVU96
 313 0054 183094E5 		ldr	r3, [r4, #24]
 314 0058 240093E5 		ldr	r0, [r3, #36]
 315              	.LVL22:
 316              		.loc 1 191 22 view .LVU97
 317              	.LBE46:
 318              	.LBE47:
 319              	.LBE49:
 320              	.LBE51:
 321              		.loc 1 162 3 is_stmt 1 view .LVU98
 322              		.loc 1 162 3 view .LVU99
 323              		.syntax divided
 324              	@ 162 "../../os/kernel/src/chsem.c" 1
 325 005c 1FF021E3 		msr     CPSR_c, #0x1F
 326              	@ 0 "" 2
 327              		.loc 1 162 16 view .LVU100
 328              		.loc 1 163 3 view .LVU101
 329              		.loc 1 164 1 is_stmt 0 view .LVU102
 330              		.arm
 331              		.syntax unified
 332 0060 1080BDE8 		pop	{r4, pc}
 333              	.L20:
 334              		.align	2
 335              	.L19:
 336 0064 00000000 		.word	rlist
 337              		.cfi_endproc
 338              	.LFE10:
 339              		.size	chSemWait, .-chSemWait
 340              		.section	.text.chSemWaitS,"ax",%progbits
 341              		.align	2
 342              		.global	chSemWaitS
ARM GAS  /var/folders/l5/0x54b2c10074c8bt31ycjvl80000gp/T//ccxMzJPy.s 			page 7


 343              		.syntax unified
 344              		.arm
 345              		.fpu softvfp
 346              		.type	chSemWaitS, %function
 347              	chSemWaitS:
 348              	.LVL23:
 349              	.LFB11:
 350              		.loc 1 178 33 is_stmt 1 view -0
 351              		.cfi_startproc
 352              		@ args = 0, pretend = 0, frame = 0
 353              		@ frame_needed = 0, uses_anonymous_args = 0
 354              		.loc 1 180 3 view .LVU104
 355              		.loc 1 180 21 view .LVU105
 356              		.loc 1 181 3 view .LVU106
 357              		.loc 1 181 39 view .LVU107
 358              		.loc 1 182 3 view .LVU108
 359              		.loc 1 185 40 view .LVU109
 360              		.loc 1 187 3 view .LVU110
 361              		.loc 1 187 7 is_stmt 0 view .LVU111
 362 0000 083090E5 		ldr	r3, [r0, #8]
 363 0004 013043E2 		sub	r3, r3, #1
 364              		.loc 1 187 6 view .LVU112
 365 0008 000053E3 		cmp	r3, #0
 366 000c 083080E5 		str	r3, [r0, #8]
 367 0010 010000BA 		blt	.L28
 368              		.loc 1 193 10 view .LVU113
 369 0014 0000A0E3 		mov	r0, #0
 370              	.LVL24:
 371              		.loc 1 194 1 view .LVU114
 372 0018 1EFF2FE1 		bx	lr
 373              	.LVL25:
 374              	.L28:
 375              		.loc 1 194 1 view .LVU115
 376 001c 0030A0E1 		mov	r3, r0
 377              	.LVL26:
 378              	.LBB56:
 379              	.LBI56:
 380              		.loc 1 178 7 is_stmt 1 view .LVU116
 381              	.LBB57:
 382              		.loc 1 188 5 view .LVU117
 383              	.LBE57:
 384              	.LBE56:
 385              		.loc 1 178 33 is_stmt 0 view .LVU118
 386 0020 10402DE9 		push	{r4, lr}
 387              		.cfi_def_cfa_offset 8
 388              		.cfi_offset 4, -8
 389              		.cfi_offset 14, -4
 390              	.LBB63:
 391              	.LBB62:
 392              		.loc 1 188 5 view .LVU119
 393 0024 2C409FE5 		ldr	r4, .L29
 394              	.LBB58:
 395              	.LBB59:
 396              		.loc 2 48 19 view .LVU120
 397 0028 041090E5 		ldr	r1, [r0, #4]
 398              	.LBE59:
 399              	.LBE58:
ARM GAS  /var/folders/l5/0x54b2c10074c8bt31ycjvl80000gp/T//ccxMzJPy.s 			page 8


 400              		.loc 1 188 5 view .LVU121
 401 002c 182094E5 		ldr	r2, [r4, #24]
 402              		.loc 1 190 5 view .LVU122
 403 0030 0300A0E3 		mov	r0, #3
 404              	.LVL27:
 405              		.loc 1 188 23 view .LVU123
 406 0034 243082E5 		str	r3, [r2, #36]
 407              		.loc 1 189 5 is_stmt 1 view .LVU124
 408              	.LVL28:
 409              	.LBB61:
 410              	.LBI58:
 411              		.loc 2 45 20 view .LVU125
 412              	.LBB60:
 413              		.loc 2 47 3 view .LVU126
 414              		.loc 2 47 14 is_stmt 0 view .LVU127
 415 0038 003082E5 		str	r3, [r2]
 416              		.loc 2 48 3 is_stmt 1 view .LVU128
 417              		.loc 2 48 14 is_stmt 0 view .LVU129
 418 003c 041082E5 		str	r1, [r2, #4]
 419              		.loc 2 49 3 is_stmt 1 view .LVU130
 420              		.loc 2 49 36 is_stmt 0 view .LVU131
 421 0040 042083E5 		str	r2, [r3, #4]
 422              		.loc 2 49 22 view .LVU132
 423 0044 002081E5 		str	r2, [r1]
 424              	.LVL29:
 425              		.loc 2 49 22 view .LVU133
 426              	.LBE60:
 427              	.LBE61:
 428              		.loc 1 190 5 is_stmt 1 view .LVU134
 429 0048 FEFFFFEB 		bl	chSchGoSleepS
 430              	.LVL30:
 431              		.loc 1 191 5 view .LVU135
 432              		.loc 1 191 22 is_stmt 0 view .LVU136
 433 004c 183094E5 		ldr	r3, [r4, #24]
 434 0050 240093E5 		ldr	r0, [r3, #36]
 435              	.LVL31:
 436              		.loc 1 191 22 view .LVU137
 437              	.LBE62:
 438              	.LBE63:
 439              		.loc 1 194 1 view .LVU138
 440 0054 1080BDE8 		pop	{r4, pc}
 441              	.L30:
 442              		.align	2
 443              	.L29:
 444 0058 00000000 		.word	rlist
 445              		.cfi_endproc
 446              	.LFE11:
 447              		.size	chSemWaitS, .-chSemWaitS
 448              		.section	.text.chSemWaitTimeout,"ax",%progbits
 449              		.align	2
 450              		.global	chSemWaitTimeout
 451              		.syntax unified
 452              		.arm
 453              		.fpu softvfp
 454              		.type	chSemWaitTimeout, %function
 455              	chSemWaitTimeout:
 456              	.LVL32:
ARM GAS  /var/folders/l5/0x54b2c10074c8bt31ycjvl80000gp/T//ccxMzJPy.s 			page 9


 457              	.LFB12:
 458              		.loc 1 215 55 is_stmt 1 view -0
 459              		.cfi_startproc
 460              		@ args = 0, pretend = 0, frame = 0
 461              		@ frame_needed = 0, uses_anonymous_args = 0
 462              		.loc 1 216 3 view .LVU140
 463              		.loc 1 218 3 view .LVU141
 464              		.syntax divided
 465              	@ 218 "../../os/kernel/src/chsem.c" 1
 466 0000 9FF021E3 		msr     CPSR_c, #0x9F
 467              	@ 0 "" 2
 468              		.loc 1 218 3 view .LVU142
 469              		.loc 1 218 14 view .LVU143
 470              		.loc 1 219 3 view .LVU144
 471              	.LVL33:
 472              		.arm
 473              		.syntax unified
 474              	.LBB70:
 475              	.LBI70:
 476              		.loc 1 243 7 view .LVU145
 477              	.LBB71:
 478              		.loc 1 245 3 view .LVU146
 479              		.loc 1 245 21 view .LVU147
 480              		.loc 1 246 3 view .LVU148
 481              		.loc 1 246 46 view .LVU149
 482              		.loc 1 247 3 view .LVU150
 483 0004 082090E5 		ldr	r2, [r0, #8]
 484              		.loc 1 250 40 view .LVU151
 485              		.loc 1 252 3 view .LVU152
 486              		.loc 1 252 7 is_stmt 0 view .LVU153
 487 0008 013042E2 		sub	r3, r2, #1
 488              		.loc 1 252 6 view .LVU154
 489 000c 000053E3 		cmp	r3, #0
 490 0010 083080E5 		str	r3, [r0, #8]
 491              		.loc 1 261 10 view .LVU155
 492 0014 0000A0A3 		movge	r0, #0
 493              	.LVL34:
 494              		.loc 1 252 6 view .LVU156
 495 0018 010000BA 		blt	.L38
 496              	.L36:
 497              	.LVL35:
 498              		.loc 1 252 6 view .LVU157
 499              	.LBE71:
 500              	.LBE70:
 501              		.loc 1 220 3 is_stmt 1 view .LVU158
 502              		.loc 1 220 3 view .LVU159
 503              		.syntax divided
 504              	@ 220 "../../os/kernel/src/chsem.c" 1
 505 001c 1FF021E3 		msr     CPSR_c, #0x1F
 506              	@ 0 "" 2
 507              		.loc 1 220 16 view .LVU160
 508              		.loc 1 221 3 view .LVU161
 509              		.loc 1 222 1 is_stmt 0 view .LVU162
 510              		.arm
 511              		.syntax unified
 512 0020 1EFF2FE1 		bx	lr
 513              	.LVL36:
ARM GAS  /var/folders/l5/0x54b2c10074c8bt31ycjvl80000gp/T//ccxMzJPy.s 			page 10


 514              	.L38:
 515              	.LBB82:
 516              	.LBB80:
 517              		.loc 1 253 5 is_stmt 1 view .LVU163
 518              		.loc 1 253 8 is_stmt 0 view .LVU164
 519 0024 000051E3 		cmp	r1, #0
 520              		.loc 1 254 16 view .LVU165
 521 0028 08208005 		streq	r2, [r0, #8]
 522              		.loc 1 255 7 is_stmt 1 view .LVU166
 523              		.loc 1 255 14 is_stmt 0 view .LVU167
 524 002c 0000E003 		mvneq	r0, #0
 525              		.loc 1 253 8 view .LVU168
 526 0030 F9FFFF0A 		beq	.L36
 527 0034 0030A0E1 		mov	r3, r0
 528              	.LVL37:
 529              	.LBB72:
 530              	.LBI72:
 531              		.loc 1 243 7 is_stmt 1 view .LVU169
 532              	.LBB73:
 533              		.loc 1 257 5 view .LVU170
 534 0038 28209FE5 		ldr	r2, .L39
 535              	.LBB74:
 536              	.LBB75:
 537              		.loc 2 48 19 is_stmt 0 view .LVU171
 538 003c 04C090E5 		ldr	ip, [r0, #4]
 539              	.LBE75:
 540              	.LBE74:
 541              		.loc 1 257 5 view .LVU172
 542 0040 182092E5 		ldr	r2, [r2, #24]
 543              	.LBE73:
 544              	.LBE72:
 545              	.LBE80:
 546              	.LBE82:
 547              		.loc 1 215 55 view .LVU173
 548 0044 10402DE9 		push	{r4, lr}
 549              		.cfi_def_cfa_offset 8
 550              		.cfi_offset 4, -8
 551              		.cfi_offset 14, -4
 552              	.LBB83:
 553              	.LBB81:
 554              	.LBB79:
 555              	.LBB78:
 556              		.loc 1 259 12 view .LVU174
 557 0048 0300A0E3 		mov	r0, #3
 558              	.LVL38:
 559              		.loc 1 257 23 view .LVU175
 560 004c 243082E5 		str	r3, [r2, #36]
 561              		.loc 1 258 5 is_stmt 1 view .LVU176
 562              	.LVL39:
 563              	.LBB77:
 564              	.LBI74:
 565              		.loc 2 45 20 view .LVU177
 566              	.LBB76:
 567              		.loc 2 47 3 view .LVU178
 568              		.loc 2 48 14 is_stmt 0 view .LVU179
 569 0050 081082E8 		stm	r2, {r3, ip}
 570              		.loc 2 49 3 is_stmt 1 view .LVU180
ARM GAS  /var/folders/l5/0x54b2c10074c8bt31ycjvl80000gp/T//ccxMzJPy.s 			page 11


 571              		.loc 2 49 36 is_stmt 0 view .LVU181
 572 0054 042083E5 		str	r2, [r3, #4]
 573              		.loc 2 49 22 view .LVU182
 574 0058 00208CE5 		str	r2, [ip]
 575              	.LVL40:
 576              		.loc 2 49 22 view .LVU183
 577              	.LBE76:
 578              	.LBE77:
 579              		.loc 1 259 5 is_stmt 1 view .LVU184
 580              		.loc 1 259 12 is_stmt 0 view .LVU185
 581 005c FEFFFFEB 		bl	chSchGoSleepTimeoutS
 582              	.LVL41:
 583              		.loc 1 259 12 view .LVU186
 584              	.LBE78:
 585              	.LBE79:
 586              	.LBE81:
 587              	.LBE83:
 588              		.loc 1 220 3 is_stmt 1 view .LVU187
 589              		.loc 1 220 3 view .LVU188
 590              		.syntax divided
 591              	@ 220 "../../os/kernel/src/chsem.c" 1
 592 0060 1FF021E3 		msr     CPSR_c, #0x1F
 593              	@ 0 "" 2
 594              		.loc 1 220 16 view .LVU189
 595              		.loc 1 221 3 view .LVU190
 596              		.loc 1 222 1 is_stmt 0 view .LVU191
 597              		.arm
 598              		.syntax unified
 599 0064 1080BDE8 		pop	{r4, pc}
 600              	.L40:
 601              		.align	2
 602              	.L39:
 603 0068 00000000 		.word	rlist
 604              		.cfi_endproc
 605              	.LFE12:
 606              		.size	chSemWaitTimeout, .-chSemWaitTimeout
 607              		.section	.text.chSemWaitTimeoutS,"ax",%progbits
 608              		.align	2
 609              		.global	chSemWaitTimeoutS
 610              		.syntax unified
 611              		.arm
 612              		.fpu softvfp
 613              		.type	chSemWaitTimeoutS, %function
 614              	chSemWaitTimeoutS:
 615              	.LVL42:
 616              	.LFB13:
 617              		.loc 1 243 56 is_stmt 1 view -0
 618              		.cfi_startproc
 619              		@ args = 0, pretend = 0, frame = 0
 620              		@ frame_needed = 0, uses_anonymous_args = 0
 621              		@ link register save eliminated.
 622              		.loc 1 245 3 view .LVU193
 623              		.loc 1 245 21 view .LVU194
 624              		.loc 1 246 3 view .LVU195
 625              		.loc 1 246 46 view .LVU196
 626              		.loc 1 247 3 view .LVU197
 627              		.loc 1 243 56 is_stmt 0 view .LVU198
ARM GAS  /var/folders/l5/0x54b2c10074c8bt31ycjvl80000gp/T//ccxMzJPy.s 			page 12


 628 0000 0030A0E1 		mov	r3, r0
 629              		.loc 1 247 3 view .LVU199
 630 0004 080090E5 		ldr	r0, [r0, #8]
 631              	.LVL43:
 632              		.loc 1 250 40 is_stmt 1 view .LVU200
 633              		.loc 1 252 3 view .LVU201
 634              		.loc 1 252 7 is_stmt 0 view .LVU202
 635 0008 012040E2 		sub	r2, r0, #1
 636              		.loc 1 252 6 view .LVU203
 637 000c 000052E3 		cmp	r2, #0
 638 0010 082083E5 		str	r2, [r3, #8]
 639 0014 010000BA 		blt	.L45
 640              		.loc 1 261 10 view .LVU204
 641 0018 0000A0E3 		mov	r0, #0
 642              		.loc 1 262 1 view .LVU205
 643 001c 1EFF2FE1 		bx	lr
 644              	.L45:
 645              		.loc 1 253 5 is_stmt 1 view .LVU206
 646              		.loc 1 253 8 is_stmt 0 view .LVU207
 647 0020 000051E3 		cmp	r1, #0
 648 0024 0800000A 		beq	.L46
 649              	.LVL44:
 650              	.LBB88:
 651              	.LBI88:
 652              		.loc 1 243 7 is_stmt 1 view .LVU208
 653              	.LBB89:
 654              		.loc 1 257 5 view .LVU209
 655 0028 28209FE5 		ldr	r2, .L47
 656              	.LBB90:
 657              	.LBB91:
 658              		.loc 2 48 19 is_stmt 0 view .LVU210
 659 002c 04C093E5 		ldr	ip, [r3, #4]
 660              	.LBE91:
 661              	.LBE90:
 662              		.loc 1 257 5 view .LVU211
 663 0030 182092E5 		ldr	r2, [r2, #24]
 664              		.loc 1 259 12 view .LVU212
 665 0034 0300A0E3 		mov	r0, #3
 666              		.loc 1 257 23 view .LVU213
 667 0038 243082E5 		str	r3, [r2, #36]
 668              		.loc 1 258 5 is_stmt 1 view .LVU214
 669              	.LVL45:
 670              	.LBB93:
 671              	.LBI90:
 672              		.loc 2 45 20 view .LVU215
 673              	.LBB92:
 674              		.loc 2 47 3 view .LVU216
 675              		.loc 2 48 14 is_stmt 0 view .LVU217
 676 003c 081082E8 		stm	r2, {r3, ip}
 677              		.loc 2 49 3 is_stmt 1 view .LVU218
 678              		.loc 2 49 36 is_stmt 0 view .LVU219
 679 0040 042083E5 		str	r2, [r3, #4]
 680              		.loc 2 49 22 view .LVU220
 681 0044 00208CE5 		str	r2, [ip]
 682              	.LVL46:
 683              		.loc 2 49 22 view .LVU221
 684              	.LBE92:
ARM GAS  /var/folders/l5/0x54b2c10074c8bt31ycjvl80000gp/T//ccxMzJPy.s 			page 13


 685              	.LBE93:
 686              		.loc 1 259 5 is_stmt 1 view .LVU222
 687              		.loc 1 259 12 is_stmt 0 view .LVU223
 688 0048 FEFFFFEA 		b	chSchGoSleepTimeoutS
 689              	.LVL47:
 690              	.L46:
 691              		.loc 1 259 12 view .LVU224
 692              	.LBE89:
 693              	.LBE88:
 694              		.loc 1 254 7 is_stmt 1 view .LVU225
 695              		.loc 1 254 16 is_stmt 0 view .LVU226
 696 004c 080083E5 		str	r0, [r3, #8]
 697              		.loc 1 255 7 is_stmt 1 view .LVU227
 698              		.loc 1 255 14 is_stmt 0 view .LVU228
 699 0050 0000E0E3 		mvn	r0, #0
 700 0054 1EFF2FE1 		bx	lr
 701              	.L48:
 702              		.align	2
 703              	.L47:
 704 0058 00000000 		.word	rlist
 705              		.cfi_endproc
 706              	.LFE13:
 707              		.size	chSemWaitTimeoutS, .-chSemWaitTimeoutS
 708              		.section	.text.chSemSignal,"ax",%progbits
 709              		.align	2
 710              		.global	chSemSignal
 711              		.syntax unified
 712              		.arm
 713              		.fpu softvfp
 714              		.type	chSemSignal, %function
 715              	chSemSignal:
 716              	.LVL48:
 717              	.LFB14:
 718              		.loc 1 271 33 is_stmt 1 view -0
 719              		.cfi_startproc
 720              		@ args = 0, pretend = 0, frame = 0
 721              		@ frame_needed = 0, uses_anonymous_args = 0
 722              		.loc 1 273 3 view .LVU230
 723              		.loc 1 273 40 view .LVU231
 724              		.loc 1 274 3 view .LVU232
 725              		.loc 1 277 40 view .LVU233
 726              		.loc 1 279 3 view .LVU234
 727              		.syntax divided
 728              	@ 279 "../../os/kernel/src/chsem.c" 1
 729 0000 9FF021E3 		msr     CPSR_c, #0x9F
 730              	@ 0 "" 2
 731              		.loc 1 279 3 view .LVU235
 732              		.loc 1 279 14 view .LVU236
 733              		.loc 1 280 3 view .LVU237
 734              		.loc 1 280 7 is_stmt 0 view .LVU238
 735              		.arm
 736              		.syntax unified
 737 0004 083090E5 		ldr	r3, [r0, #8]
 738 0008 013083E2 		add	r3, r3, #1
 739              		.loc 1 280 6 view .LVU239
 740 000c 000053E3 		cmp	r3, #0
 741 0010 083080E5 		str	r3, [r0, #8]
ARM GAS  /var/folders/l5/0x54b2c10074c8bt31ycjvl80000gp/T//ccxMzJPy.s 			page 14


 742 0014 010000DA 		ble	.L55
 743              		.loc 1 282 3 is_stmt 1 view .LVU240
 744              		.loc 1 282 3 view .LVU241
 745              		.syntax divided
 746              	@ 282 "../../os/kernel/src/chsem.c" 1
 747 0018 1FF021E3 		msr     CPSR_c, #0x1F
 748              	@ 0 "" 2
 749              		.loc 1 282 16 view .LVU242
 750              		.loc 1 282 3 is_stmt 0 view .LVU243
 751              		.arm
 752              		.syntax unified
 753 001c 1EFF2FE1 		bx	lr
 754              	.L55:
 755 0020 0030A0E1 		mov	r3, r0
 756              		.loc 1 281 5 is_stmt 1 view .LVU244
 757              	.LVL49:
 758              	.LBB94:
 759              	.LBI94:
 760              		.loc 2 52 23 view .LVU245
 761              	.LBB95:
 762              		.loc 2 53 3 view .LVU246
 763              		.loc 2 53 11 is_stmt 0 view .LVU247
 764 0024 000090E5 		ldr	r0, [r0]
 765              	.LVL50:
 766              		.loc 2 55 3 is_stmt 1 view .LVU248
 767              	.LBE95:
 768              	.LBE94:
 769              		.loc 1 271 33 is_stmt 0 view .LVU249
 770 0028 10402DE9 		push	{r4, lr}
 771              		.cfi_def_cfa_offset 8
 772              		.cfi_offset 4, -8
 773              		.cfi_offset 14, -4
 774              	.LBB98:
 775              	.LBB96:
 776              		.loc 2 55 20 view .LVU250
 777 002c 002090E5 		ldr	r2, [r0]
 778              	.LBE96:
 779              	.LBE98:
 780              		.loc 1 281 5 view .LVU251
 781 0030 0010A0E3 		mov	r1, #0
 782              	.LBB99:
 783              	.LBB97:
 784              		.loc 2 55 16 view .LVU252
 785 0034 002083E5 		str	r2, [r3]
 786              		.loc 2 55 38 view .LVU253
 787 0038 043082E5 		str	r3, [r2, #4]
 788              		.loc 2 56 3 is_stmt 1 view .LVU254
 789              	.LVL51:
 790              		.loc 2 56 3 is_stmt 0 view .LVU255
 791              	.LBE97:
 792              	.LBE99:
 793              		.loc 1 281 5 view .LVU256
 794 003c FEFFFFEB 		bl	chSchWakeupS
 795              	.LVL52:
 796              		.loc 1 282 3 is_stmt 1 view .LVU257
 797              		.loc 1 282 3 view .LVU258
 798              		.syntax divided
ARM GAS  /var/folders/l5/0x54b2c10074c8bt31ycjvl80000gp/T//ccxMzJPy.s 			page 15


 799              	@ 282 "../../os/kernel/src/chsem.c" 1
 800 0040 1FF021E3 		msr     CPSR_c, #0x1F
 801              	@ 0 "" 2
 802              		.loc 1 282 16 view .LVU259
 803              		.loc 1 283 1 is_stmt 0 view .LVU260
 804              		.arm
 805              		.syntax unified
 806 0044 1080BDE8 		pop	{r4, pc}
 807              		.cfi_endproc
 808              	.LFE14:
 809              		.size	chSemSignal, .-chSemSignal
 810              		.section	.text.chSemSignalI,"ax",%progbits
 811              		.align	2
 812              		.global	chSemSignalI
 813              		.syntax unified
 814              		.arm
 815              		.fpu softvfp
 816              		.type	chSemSignalI, %function
 817              	chSemSignalI:
 818              	.LVL53:
 819              	.LFB15:
 820              		.loc 1 296 34 is_stmt 1 view -0
 821              		.cfi_startproc
 822              		@ args = 0, pretend = 0, frame = 0
 823              		@ frame_needed = 0, uses_anonymous_args = 0
 824              		@ link register save eliminated.
 825              		.loc 1 298 3 view .LVU262
 826              		.loc 1 298 21 view .LVU263
 827              		.loc 1 299 3 view .LVU264
 828              		.loc 1 299 41 view .LVU265
 829              		.loc 1 300 3 view .LVU266
 830              		.loc 1 303 40 view .LVU267
 831              		.loc 1 305 3 view .LVU268
 832              		.loc 1 305 7 is_stmt 0 view .LVU269
 833 0000 083090E5 		ldr	r3, [r0, #8]
 834              		.loc 1 296 34 view .LVU270
 835 0004 0020A0E1 		mov	r2, r0
 836              		.loc 1 305 7 view .LVU271
 837 0008 013083E2 		add	r3, r3, #1
 838              		.loc 1 305 6 view .LVU272
 839 000c 000053E3 		cmp	r3, #0
 840 0010 083080E5 		str	r3, [r0, #8]
 841 0014 1EFF2FC1 		bxgt	lr
 842              	.LBB100:
 843              		.loc 1 308 5 is_stmt 1 view .LVU273
 844              	.LVL54:
 845              	.LBB101:
 846              	.LBI101:
 847              		.loc 2 52 23 view .LVU274
 848              	.LBB102:
 849              		.loc 2 53 3 view .LVU275
 850              	.LBE102:
 851              	.LBE101:
 852              		.loc 1 309 20 is_stmt 0 view .LVU276
 853 0018 00C0A0E3 		mov	ip, #0
 854              	.LBB105:
 855              	.LBB103:
ARM GAS  /var/folders/l5/0x54b2c10074c8bt31ycjvl80000gp/T//ccxMzJPy.s 			page 16


 856              		.loc 2 53 11 view .LVU277
 857 001c 003090E5 		ldr	r3, [r0]
 858              	.LVL55:
 859              		.loc 2 55 3 is_stmt 1 view .LVU278
 860              		.loc 2 55 20 is_stmt 0 view .LVU279
 861 0020 001093E5 		ldr	r1, [r3]
 862              	.LBE103:
 863              	.LBE105:
 864              		.loc 1 310 5 view .LVU280
 865 0024 0300A0E1 		mov	r0, r3
 866              	.LVL56:
 867              	.LBB106:
 868              	.LBB104:
 869              		.loc 2 55 16 view .LVU281
 870 0028 001082E5 		str	r1, [r2]
 871              		.loc 2 55 38 view .LVU282
 872 002c 042081E5 		str	r2, [r1, #4]
 873              		.loc 2 56 3 is_stmt 1 view .LVU283
 874              	.LVL57:
 875              		.loc 2 56 3 is_stmt 0 view .LVU284
 876              	.LBE104:
 877              	.LBE106:
 878              		.loc 1 309 5 is_stmt 1 view .LVU285
 879              		.loc 1 309 20 is_stmt 0 view .LVU286
 880 0030 24C083E5 		str	ip, [r3, #36]
 881              		.loc 1 310 5 is_stmt 1 view .LVU287
 882 0034 FEFFFFEA 		b	chSchReadyI
 883              	.LVL58:
 884              		.loc 1 310 5 is_stmt 0 view .LVU288
 885              	.LBE100:
 886              		.cfi_endproc
 887              	.LFE15:
 888              		.size	chSemSignalI, .-chSemSignalI
 889              		.section	.text.chSemAddCounterI,"ax",%progbits
 890              		.align	2
 891              		.global	chSemAddCounterI
 892              		.syntax unified
 893              		.arm
 894              		.fpu softvfp
 895              		.type	chSemAddCounterI, %function
 896              	chSemAddCounterI:
 897              	.LVL59:
 898              	.LFB16:
 899              		.loc 1 327 47 is_stmt 1 view -0
 900              		.cfi_startproc
 901              		@ args = 0, pretend = 0, frame = 0
 902              		@ frame_needed = 0, uses_anonymous_args = 0
 903              		.loc 1 329 3 view .LVU290
 904              		.loc 1 329 21 view .LVU291
 905              		.loc 1 330 3 view .LVU292
 906              		.loc 1 330 58 view .LVU293
 907              		.loc 1 331 3 view .LVU294
 908              		.loc 1 327 47 is_stmt 0 view .LVU295
 909 0000 70402DE9 		push	{r4, r5, r6, lr}
 910              		.cfi_def_cfa_offset 16
 911              		.cfi_offset 4, -16
 912              		.cfi_offset 5, -12
ARM GAS  /var/folders/l5/0x54b2c10074c8bt31ycjvl80000gp/T//ccxMzJPy.s 			page 17


 913              		.cfi_offset 6, -8
 914              		.cfi_offset 14, -4
 915              		.loc 1 336 9 view .LVU296
 916 0004 004051E2 		subs	r4, r1, #0
 917 0008 7080BDD8 		pople	{r4, r5, r6, pc}
 918 000c 0050A0E1 		mov	r5, r0
 919              		.loc 1 338 58 view .LVU297
 920 0010 0060A0E3 		mov	r6, #0
 921 0014 010000EA 		b	.L61
 922              	.LVL60:
 923              	.L60:
 924              		.loc 1 339 5 is_stmt 1 view .LVU298
 925              		.loc 1 336 9 is_stmt 0 view .LVU299
 926 0018 014054E2 		subs	r4, r4, #1
 927              	.LVL61:
 928              		.loc 1 336 9 view .LVU300
 929 001c 7080BD08 		popeq	{r4, r5, r6, pc}
 930              	.LVL62:
 931              	.L61:
 932              		.loc 1 337 5 is_stmt 1 view .LVU301
 933              		.loc 1 337 9 is_stmt 0 view .LVU302
 934 0020 083095E5 		ldr	r3, [r5, #8]
 935 0024 013083E2 		add	r3, r3, #1
 936              		.loc 1 337 8 view .LVU303
 937 0028 000053E3 		cmp	r3, #0
 938 002c 083085E5 		str	r3, [r5, #8]
 939 0030 F8FFFFCA 		bgt	.L60
 940              		.loc 1 338 7 is_stmt 1 view .LVU304
 941              	.LVL63:
 942              	.LBB107:
 943              	.LBI107:
 944              		.loc 2 52 23 view .LVU305
 945              	.LBB108:
 946              		.loc 2 53 3 view .LVU306
 947              		.loc 2 53 11 is_stmt 0 view .LVU307
 948 0034 000095E5 		ldr	r0, [r5]
 949              	.LVL64:
 950              		.loc 2 55 3 is_stmt 1 view .LVU308
 951              		.loc 2 55 20 is_stmt 0 view .LVU309
 952 0038 003090E5 		ldr	r3, [r0]
 953              		.loc 2 55 16 view .LVU310
 954 003c 003085E5 		str	r3, [r5]
 955              		.loc 2 55 38 view .LVU311
 956 0040 045083E5 		str	r5, [r3, #4]
 957              		.loc 2 56 3 is_stmt 1 view .LVU312
 958              	.LVL65:
 959              		.loc 2 56 3 is_stmt 0 view .LVU313
 960              	.LBE108:
 961              	.LBE107:
 962              		.loc 1 338 7 view .LVU314
 963 0044 FEFFFFEB 		bl	chSchReadyI
 964              	.LVL66:
 965              		.loc 1 336 9 view .LVU315
 966 0048 014054E2 		subs	r4, r4, #1
 967              	.LVL67:
 968              		.loc 1 338 58 view .LVU316
 969 004c 246080E5 		str	r6, [r0, #36]
ARM GAS  /var/folders/l5/0x54b2c10074c8bt31ycjvl80000gp/T//ccxMzJPy.s 			page 18


 970              		.loc 1 339 5 is_stmt 1 view .LVU317
 971              	.LVL68:
 972              		.loc 1 336 9 is_stmt 0 view .LVU318
 973 0050 F2FFFF1A 		bne	.L61
 974 0054 7080BDE8 		pop	{r4, r5, r6, pc}
 975              		.cfi_endproc
 976              	.LFE16:
 977              		.size	chSemAddCounterI, .-chSemAddCounterI
 978              		.section	.text.chSemSignalWait,"ax",%progbits
 979              		.align	2
 980              		.global	chSemSignalWait
 981              		.syntax unified
 982              		.arm
 983              		.fpu softvfp
 984              		.type	chSemSignalWait, %function
 985              	chSemSignalWait:
 986              	.LVL69:
 987              	.LFB17:
 988              		.loc 1 359 55 is_stmt 1 view -0
 989              		.cfi_startproc
 990              		@ args = 0, pretend = 0, frame = 0
 991              		@ frame_needed = 0, uses_anonymous_args = 0
 992              		.loc 1 360 3 view .LVU320
 993              		.loc 1 362 3 view .LVU321
 994              		.loc 1 362 64 view .LVU322
 995              		.loc 1 363 3 view .LVU323
 996              		.loc 1 366 40 view .LVU324
 997              		.loc 1 367 3 view .LVU325
 998              		.loc 1 370 40 view .LVU326
 999              		.loc 1 372 3 view .LVU327
 1000              		.loc 1 359 55 is_stmt 0 view .LVU328
 1001 0000 70402DE9 		push	{r4, r5, r6, lr}
 1002              		.cfi_def_cfa_offset 16
 1003              		.cfi_offset 4, -16
 1004              		.cfi_offset 5, -12
 1005              		.cfi_offset 6, -8
 1006              		.cfi_offset 14, -4
 1007              		.loc 1 359 55 view .LVU329
 1008 0004 0140A0E1 		mov	r4, r1
 1009              		.loc 1 372 3 view .LVU330
 1010              		.syntax divided
 1011              	@ 372 "../../os/kernel/src/chsem.c" 1
 1012 0008 9FF021E3 		msr     CPSR_c, #0x9F
 1013              	@ 0 "" 2
 1014              		.loc 1 372 3 is_stmt 1 view .LVU331
 1015              		.loc 1 372 14 view .LVU332
 1016              		.loc 1 373 3 view .LVU333
 1017              		.loc 1 373 7 is_stmt 0 view .LVU334
 1018              		.arm
 1019              		.syntax unified
 1020 000c 083090E5 		ldr	r3, [r0, #8]
 1021 0010 013083E2 		add	r3, r3, #1
 1022              		.loc 1 373 6 view .LVU335
 1023 0014 000053E3 		cmp	r3, #0
 1024 0018 083080E5 		str	r3, [r0, #8]
 1025 001c 150000DA 		ble	.L69
 1026              	.LVL70:
ARM GAS  /var/folders/l5/0x54b2c10074c8bt31ycjvl80000gp/T//ccxMzJPy.s 			page 19


 1027              	.L65:
 1028              		.loc 1 375 3 is_stmt 1 view .LVU336
 1029              		.loc 1 375 7 is_stmt 0 view .LVU337
 1030 0020 083094E5 		ldr	r3, [r4, #8]
 1031 0024 013043E2 		sub	r3, r3, #1
 1032              		.loc 1 375 6 view .LVU338
 1033 0028 000053E3 		cmp	r3, #0
 1034 002c 083084E5 		str	r3, [r4, #8]
 1035 0030 030000BA 		blt	.L70
 1036              		.loc 1 383 5 is_stmt 1 view .LVU339
 1037 0034 FEFFFFEB 		bl	chSchRescheduleS
 1038              	.LVL71:
 1039              		.loc 1 384 5 view .LVU340
 1040              		.loc 1 384 9 is_stmt 0 view .LVU341
 1041 0038 0000A0E3 		mov	r0, #0
 1042              	.LVL72:
 1043              		.loc 1 386 3 is_stmt 1 view .LVU342
 1044              		.loc 1 386 3 view .LVU343
 1045              		.syntax divided
 1046              	@ 386 "../../os/kernel/src/chsem.c" 1
 1047 003c 1FF021E3 		msr     CPSR_c, #0x1F
 1048              	@ 0 "" 2
 1049              		.loc 1 386 16 view .LVU344
 1050              		.loc 1 387 3 view .LVU345
 1051              		.loc 1 388 1 is_stmt 0 view .LVU346
 1052              		.arm
 1053              		.syntax unified
 1054 0040 7080BDE8 		pop	{r4, r5, r6, pc}
 1055              	.LVL73:
 1056              	.L70:
 1057              	.LBB109:
 1058              		.loc 1 376 5 is_stmt 1 view .LVU347
 1059              		.loc 1 376 13 is_stmt 0 view .LVU348
 1060 0044 50209FE5 		ldr	r2, .L71
 1061              	.LBB110:
 1062              	.LBB111:
 1063              		.loc 2 48 19 view .LVU349
 1064 0048 043094E5 		ldr	r3, [r4, #4]
 1065              	.LBE111:
 1066              	.LBE110:
 1067              		.loc 1 376 13 view .LVU350
 1068 004c 185092E5 		ldr	r5, [r2, #24]
 1069              	.LVL74:
 1070              		.loc 1 377 5 is_stmt 1 view .LVU351
 1071              	.LBB114:
 1072              	.LBI110:
 1073              		.loc 2 45 20 view .LVU352
 1074              	.LBB112:
 1075              		.loc 2 47 3 view .LVU353
 1076              	.LBE112:
 1077              	.LBE114:
 1078              		.loc 1 379 5 is_stmt 0 view .LVU354
 1079 0050 0300A0E3 		mov	r0, #3
 1080              	.LBB115:
 1081              	.LBB113:
 1082              		.loc 2 47 14 view .LVU355
 1083 0054 004085E5 		str	r4, [r5]
ARM GAS  /var/folders/l5/0x54b2c10074c8bt31ycjvl80000gp/T//ccxMzJPy.s 			page 20


 1084              		.loc 2 48 3 is_stmt 1 view .LVU356
 1085              		.loc 2 48 14 is_stmt 0 view .LVU357
 1086 0058 043085E5 		str	r3, [r5, #4]
 1087              		.loc 2 49 3 is_stmt 1 view .LVU358
 1088              		.loc 2 49 36 is_stmt 0 view .LVU359
 1089 005c 045084E5 		str	r5, [r4, #4]
 1090              		.loc 2 49 22 view .LVU360
 1091 0060 005083E5 		str	r5, [r3]
 1092              	.LVL75:
 1093              		.loc 2 49 22 view .LVU361
 1094              	.LBE113:
 1095              	.LBE115:
 1096              		.loc 1 378 5 is_stmt 1 view .LVU362
 1097              		.loc 1 378 21 is_stmt 0 view .LVU363
 1098 0064 244085E5 		str	r4, [r5, #36]
 1099              		.loc 1 379 5 is_stmt 1 view .LVU364
 1100 0068 FEFFFFEB 		bl	chSchGoSleepS
 1101              	.LVL76:
 1102              		.loc 1 380 5 view .LVU365
 1103              		.loc 1 380 9 is_stmt 0 view .LVU366
 1104 006c 240095E5 		ldr	r0, [r5, #36]
 1105              	.LVL77:
 1106              		.loc 1 380 9 view .LVU367
 1107              	.LBE109:
 1108              		.loc 1 386 3 is_stmt 1 view .LVU368
 1109              		.loc 1 386 3 view .LVU369
 1110              		.syntax divided
 1111              	@ 386 "../../os/kernel/src/chsem.c" 1
 1112 0070 1FF021E3 		msr     CPSR_c, #0x1F
 1113              	@ 0 "" 2
 1114              		.loc 1 386 16 view .LVU370
 1115              		.loc 1 387 3 view .LVU371
 1116              		.loc 1 388 1 is_stmt 0 view .LVU372
 1117              		.arm
 1118              		.syntax unified
 1119 0074 7080BDE8 		pop	{r4, r5, r6, pc}
 1120              	.LVL78:
 1121              	.L69:
 1122              		.loc 1 388 1 view .LVU373
 1123 0078 0020A0E1 		mov	r2, r0
 1124              		.loc 1 374 5 is_stmt 1 view .LVU374
 1125              	.LVL79:
 1126              	.LBB116:
 1127              	.LBI116:
 1128              		.loc 2 52 23 view .LVU375
 1129              	.LBB117:
 1130              		.loc 2 53 3 view .LVU376
 1131              		.loc 2 53 11 is_stmt 0 view .LVU377
 1132 007c 000090E5 		ldr	r0, [r0]
 1133              	.LVL80:
 1134              		.loc 2 55 3 is_stmt 1 view .LVU378
 1135              		.loc 2 55 20 is_stmt 0 view .LVU379
 1136 0080 003090E5 		ldr	r3, [r0]
 1137              		.loc 2 55 16 view .LVU380
 1138 0084 003082E5 		str	r3, [r2]
 1139              		.loc 2 55 38 view .LVU381
 1140 0088 042083E5 		str	r2, [r3, #4]
ARM GAS  /var/folders/l5/0x54b2c10074c8bt31ycjvl80000gp/T//ccxMzJPy.s 			page 21


 1141              		.loc 2 56 3 is_stmt 1 view .LVU382
 1142              	.LVL81:
 1143              		.loc 2 56 3 is_stmt 0 view .LVU383
 1144              	.LBE117:
 1145              	.LBE116:
 1146              		.loc 1 374 5 view .LVU384
 1147 008c FEFFFFEB 		bl	chSchReadyI
 1148              	.LVL82:
 1149              		.loc 1 374 57 view .LVU385
 1150 0090 0030A0E3 		mov	r3, #0
 1151 0094 243080E5 		str	r3, [r0, #36]
 1152 0098 E0FFFFEA 		b	.L65
 1153              	.L72:
 1154              		.align	2
 1155              	.L71:
 1156 009c 00000000 		.word	rlist
 1157              		.cfi_endproc
 1158              	.LFE17:
 1159              		.size	chSemSignalWait, .-chSemSignalWait
 1160              		.text
 1161              	.Letext0:
 1162              		.file 3 "/usr/local/Cellar/arm-gcc-bin/8-2019-q3-update/arm-none-eabi/include/machine/_default_typ
 1163              		.file 4 "/usr/local/Cellar/arm-gcc-bin/8-2019-q3-update/arm-none-eabi/include/sys/_stdint.h"
 1164              		.file 5 "../../os/ports/GCC/ARM/chtypes.h"
 1165              		.file 6 "../../os/kernel/include/chlists.h"
 1166              		.file 7 "../../os/kernel/include/chthreads.h"
 1167              		.file 8 "../../os/ports/GCC/ARM/chcore.h"
 1168              		.file 9 "../../os/kernel/include/chvt.h"
 1169              		.file 10 "../../os/kernel/include/chschd.h"
 1170              		.file 11 "../../os/kernel/include/chsem.h"
 1171              		.file 12 "../../os/kernel/include/chmtx.h"
 1172              		.file 13 "../../os/kernel/include/chregistry.h"
 1173              		.file 14 "../../os/kernel/include/ch.h"
 1174              		.section	.debug_info,"",%progbits
 1175              	.Ldebug_info0:
 1176 0000 0E0E0000 		.4byte	0xe0e
 1177 0004 0400     		.2byte	0x4
 1178 0006 00000000 		.4byte	.Ldebug_abbrev0
 1179 000a 04       		.byte	0x4
 1180 000b 01       		.uleb128 0x1
 1181 000c 26020000 		.4byte	.LASF119
 1182 0010 0C       		.byte	0xc
 1183 0011 E5000000 		.4byte	.LASF120
 1184 0015 9A050000 		.4byte	.LASF121
 1185 0019 60010000 		.4byte	.Ldebug_ranges0+0x160
 1186 001d 00000000 		.4byte	0
 1187 0021 00000000 		.4byte	.Ldebug_line0
 1188 0025 02       		.uleb128 0x2
 1189 0026 04       		.byte	0x4
 1190 0027 05       		.byte	0x5
 1191 0028 696E7400 		.ascii	"int\000"
 1192 002c 03       		.uleb128 0x3
 1193 002d 04       		.byte	0x4
 1194 002e 07       		.byte	0x7
 1195 002f 95010000 		.4byte	.LASF0
 1196 0033 03       		.uleb128 0x3
 1197 0034 01       		.byte	0x1
ARM GAS  /var/folders/l5/0x54b2c10074c8bt31ycjvl80000gp/T//ccxMzJPy.s 			page 22


 1198 0035 06       		.byte	0x6
 1199 0036 A6000000 		.4byte	.LASF1
 1200 003a 04       		.uleb128 0x4
 1201 003b 34000000 		.4byte	.LASF4
 1202 003f 03       		.byte	0x3
 1203 0040 2B       		.byte	0x2b
 1204 0041 18       		.byte	0x18
 1205 0042 46000000 		.4byte	0x46
 1206 0046 03       		.uleb128 0x3
 1207 0047 01       		.byte	0x1
 1208 0048 08       		.byte	0x8
 1209 0049 C7030000 		.4byte	.LASF2
 1210 004d 03       		.uleb128 0x3
 1211 004e 02       		.byte	0x2
 1212 004f 05       		.byte	0x5
 1213 0050 DF030000 		.4byte	.LASF3
 1214 0054 04       		.uleb128 0x4
 1215 0055 AE040000 		.4byte	.LASF5
 1216 0059 03       		.byte	0x3
 1217 005a 39       		.byte	0x39
 1218 005b 19       		.byte	0x19
 1219 005c 60000000 		.4byte	0x60
 1220 0060 03       		.uleb128 0x3
 1221 0061 02       		.byte	0x2
 1222 0062 07       		.byte	0x7
 1223 0063 ED010000 		.4byte	.LASF6
 1224 0067 04       		.uleb128 0x4
 1225 0068 E1040000 		.4byte	.LASF7
 1226 006c 03       		.byte	0x3
 1227 006d 4D       		.byte	0x4d
 1228 006e 18       		.byte	0x18
 1229 006f 73000000 		.4byte	0x73
 1230 0073 03       		.uleb128 0x3
 1231 0074 04       		.byte	0x4
 1232 0075 05       		.byte	0x5
 1233 0076 01010000 		.4byte	.LASF8
 1234 007a 04       		.uleb128 0x4
 1235 007b 63010000 		.4byte	.LASF9
 1236 007f 03       		.byte	0x3
 1237 0080 4F       		.byte	0x4f
 1238 0081 19       		.byte	0x19
 1239 0082 86000000 		.4byte	0x86
 1240 0086 03       		.uleb128 0x3
 1241 0087 04       		.byte	0x4
 1242 0088 07       		.byte	0x7
 1243 0089 BB010000 		.4byte	.LASF10
 1244 008d 03       		.uleb128 0x3
 1245 008e 08       		.byte	0x8
 1246 008f 05       		.byte	0x5
 1247 0090 98000000 		.4byte	.LASF11
 1248 0094 03       		.uleb128 0x3
 1249 0095 08       		.byte	0x8
 1250 0096 07       		.byte	0x7
 1251 0097 45000000 		.4byte	.LASF12
 1252 009b 04       		.uleb128 0x4
 1253 009c 59050000 		.4byte	.LASF13
 1254 00a0 04       		.byte	0x4
ARM GAS  /var/folders/l5/0x54b2c10074c8bt31ycjvl80000gp/T//ccxMzJPy.s 			page 23


 1255 00a1 18       		.byte	0x18
 1256 00a2 13       		.byte	0x13
 1257 00a3 3A000000 		.4byte	0x3a
 1258 00a7 04       		.uleb128 0x4
 1259 00a8 1F010000 		.4byte	.LASF14
 1260 00ac 04       		.byte	0x4
 1261 00ad 24       		.byte	0x24
 1262 00ae 14       		.byte	0x14
 1263 00af 54000000 		.4byte	0x54
 1264 00b3 04       		.uleb128 0x4
 1265 00b4 BF030000 		.4byte	.LASF15
 1266 00b8 04       		.byte	0x4
 1267 00b9 2C       		.byte	0x2c
 1268 00ba 13       		.byte	0x13
 1269 00bb 67000000 		.4byte	0x67
 1270 00bf 04       		.uleb128 0x4
 1271 00c0 61040000 		.4byte	.LASF16
 1272 00c4 04       		.byte	0x4
 1273 00c5 30       		.byte	0x30
 1274 00c6 14       		.byte	0x14
 1275 00c7 7A000000 		.4byte	0x7a
 1276 00cb 04       		.uleb128 0x4
 1277 00cc F6020000 		.4byte	.LASF17
 1278 00d0 05       		.byte	0x5
 1279 00d1 2A       		.byte	0x2a
 1280 00d2 19       		.byte	0x19
 1281 00d3 9B000000 		.4byte	0x9b
 1282 00d7 04       		.uleb128 0x4
 1283 00d8 0A010000 		.4byte	.LASF18
 1284 00dc 05       		.byte	0x5
 1285 00dd 2B       		.byte	0x2b
 1286 00de 19       		.byte	0x19
 1287 00df 9B000000 		.4byte	0x9b
 1288 00e3 04       		.uleb128 0x4
 1289 00e4 9D030000 		.4byte	.LASF19
 1290 00e8 05       		.byte	0x5
 1291 00e9 2C       		.byte	0x2c
 1292 00ea 19       		.byte	0x19
 1293 00eb 9B000000 		.4byte	0x9b
 1294 00ef 04       		.uleb128 0x4
 1295 00f0 B7030000 		.4byte	.LASF20
 1296 00f4 05       		.byte	0x5
 1297 00f5 2E       		.byte	0x2e
 1298 00f6 19       		.byte	0x19
 1299 00f7 BF000000 		.4byte	0xbf
 1300 00fb 04       		.uleb128 0x4
 1301 00fc 18020000 		.4byte	.LASF21
 1302 0100 05       		.byte	0x5
 1303 0101 2F       		.byte	0x2f
 1304 0102 19       		.byte	0x19
 1305 0103 B3000000 		.4byte	0xb3
 1306 0107 04       		.uleb128 0x4
 1307 0108 0A030000 		.4byte	.LASF22
 1308 010c 05       		.byte	0x5
 1309 010d 31       		.byte	0x31
 1310 010e 19       		.byte	0x19
 1311 010f BF000000 		.4byte	0xbf
ARM GAS  /var/folders/l5/0x54b2c10074c8bt31ycjvl80000gp/T//ccxMzJPy.s 			page 24


 1312 0113 04       		.uleb128 0x4
 1313 0114 CC040000 		.4byte	.LASF23
 1314 0118 05       		.byte	0x5
 1315 0119 33       		.byte	0x33
 1316 011a 19       		.byte	0x19
 1317 011b BF000000 		.4byte	0xbf
 1318 011f 05       		.uleb128 0x5
 1319 0120 13010000 		.4byte	0x113
 1320 0124 04       		.uleb128 0x4
 1321 0125 8F010000 		.4byte	.LASF24
 1322 0129 05       		.byte	0x5
 1323 012a 34       		.byte	0x34
 1324 012b 19       		.byte	0x19
 1325 012c B3000000 		.4byte	0xb3
 1326 0130 04       		.uleb128 0x4
 1327 0131 34040000 		.4byte	.LASF25
 1328 0135 06       		.byte	0x6
 1329 0136 23       		.byte	0x23
 1330 0137 17       		.byte	0x17
 1331 0138 3C010000 		.4byte	0x13c
 1332 013c 06       		.uleb128 0x6
 1333 013d 34040000 		.4byte	.LASF25
 1334 0141 44       		.byte	0x44
 1335 0142 07       		.byte	0x7
 1336 0143 57       		.byte	0x57
 1337 0144 08       		.byte	0x8
 1338 0145 34020000 		.4byte	0x234
 1339 0149 07       		.uleb128 0x7
 1340 014a 0B040000 		.4byte	.LASF26
 1341 014e 07       		.byte	0x7
 1342 014f 58       		.byte	0x58
 1343 0150 1A       		.byte	0x1a
 1344 0151 58020000 		.4byte	0x258
 1345 0155 00       		.byte	0
 1346 0156 07       		.uleb128 0x7
 1347 0157 B0030000 		.4byte	.LASF27
 1348 015b 07       		.byte	0x7
 1349 015c 5A       		.byte	0x5a
 1350 015d 1A       		.byte	0x1a
 1351 015e 58020000 		.4byte	0x258
 1352 0162 04       		.byte	0x4
 1353 0163 07       		.uleb128 0x7
 1354 0164 84000000 		.4byte	.LASF28
 1355 0168 07       		.byte	0x7
 1356 0169 5C       		.byte	0x5c
 1357 016a 19       		.byte	0x19
 1358 016b EF000000 		.4byte	0xef
 1359 016f 08       		.byte	0x8
 1360 0170 07       		.uleb128 0x7
 1361 0171 F1050000 		.4byte	.LASF29
 1362 0175 07       		.byte	0x7
 1363 0176 5D       		.byte	0x5d
 1364 0177 19       		.byte	0x19
 1365 0178 23030000 		.4byte	0x323
 1366 017c 0C       		.byte	0xc
 1367 017d 07       		.uleb128 0x7
 1368 017e 32010000 		.4byte	.LASF30
ARM GAS  /var/folders/l5/0x54b2c10074c8bt31ycjvl80000gp/T//ccxMzJPy.s 			page 25


 1369 0182 07       		.byte	0x7
 1370 0183 5F       		.byte	0x5f
 1371 0184 1A       		.byte	0x1a
 1372 0185 58020000 		.4byte	0x258
 1373 0189 10       		.byte	0x10
 1374 018a 07       		.uleb128 0x7
 1375 018b 63030000 		.4byte	.LASF31
 1376 018f 07       		.byte	0x7
 1377 0190 60       		.byte	0x60
 1378 0191 1A       		.byte	0x1a
 1379 0192 58020000 		.4byte	0x258
 1380 0196 14       		.byte	0x14
 1381 0197 07       		.uleb128 0x7
 1382 0198 68050000 		.4byte	.LASF32
 1383 019c 07       		.byte	0x7
 1384 019d 67       		.byte	0x67
 1385 019e 1A       		.byte	0x1a
 1386 019f 3D050000 		.4byte	0x53d
 1387 01a3 18       		.byte	0x18
 1388 01a4 07       		.uleb128 0x7
 1389 01a5 E9030000 		.4byte	.LASF33
 1390 01a9 07       		.byte	0x7
 1391 01aa 72       		.byte	0x72
 1392 01ab 19       		.byte	0x19
 1393 01ac D7000000 		.4byte	0xd7
 1394 01b0 1C       		.byte	0x1c
 1395 01b1 07       		.uleb128 0x7
 1396 01b2 21040000 		.4byte	.LASF34
 1397 01b6 07       		.byte	0x7
 1398 01b7 76       		.byte	0x76
 1399 01b8 19       		.byte	0x19
 1400 01b9 CB000000 		.4byte	0xcb
 1401 01bd 1D       		.byte	0x1d
 1402 01be 07       		.uleb128 0x7
 1403 01bf 36050000 		.4byte	.LASF35
 1404 01c3 07       		.byte	0x7
 1405 01c4 7B       		.byte	0x7b
 1406 01c5 19       		.byte	0x19
 1407 01c6 E3000000 		.4byte	0xe3
 1408 01ca 1E       		.byte	0x1e
 1409 01cb 07       		.uleb128 0x7
 1410 01cc F5040000 		.4byte	.LASF36
 1411 01d0 07       		.byte	0x7
 1412 01d1 88       		.byte	0x88
 1413 01d2 19       		.byte	0x19
 1414 01d3 1F010000 		.4byte	0x11f
 1415 01d7 20       		.byte	0x20
 1416 01d8 08       		.uleb128 0x8
 1417 01d9 705F7500 		.ascii	"p_u\000"
 1418 01dd 07       		.byte	0x7
 1419 01de AD       		.byte	0xad
 1420 01df 19       		.byte	0x19
 1421 01e0 03050000 		.4byte	0x503
 1422 01e4 24       		.byte	0x24
 1423 01e5 07       		.uleb128 0x7
 1424 01e6 F7050000 		.4byte	.LASF37
 1425 01ea 07       		.byte	0x7
ARM GAS  /var/folders/l5/0x54b2c10074c8bt31ycjvl80000gp/T//ccxMzJPy.s 			page 26


 1426 01eb B2       		.byte	0xb2
 1427 01ec 19       		.byte	0x19
 1428 01ed 81020000 		.4byte	0x281
 1429 01f1 28       		.byte	0x28
 1430 01f2 07       		.uleb128 0x7
 1431 01f3 0F050000 		.4byte	.LASF38
 1432 01f7 07       		.byte	0x7
 1433 01f8 B8       		.byte	0xb8
 1434 01f9 19       		.byte	0x19
 1435 01fa 5E020000 		.4byte	0x25e
 1436 01fe 2C       		.byte	0x2c
 1437 01ff 07       		.uleb128 0x7
 1438 0200 0D000000 		.4byte	.LASF39
 1439 0204 07       		.byte	0x7
 1440 0205 BC       		.byte	0xbc
 1441 0206 19       		.byte	0x19
 1442 0207 FB000000 		.4byte	0xfb
 1443 020b 34       		.byte	0x34
 1444 020c 07       		.uleb128 0x7
 1445 020d 56040000 		.4byte	.LASF40
 1446 0211 07       		.byte	0x7
 1447 0212 C2       		.byte	0xc2
 1448 0213 19       		.byte	0x19
 1449 0214 07010000 		.4byte	0x107
 1450 0218 38       		.byte	0x38
 1451 0219 07       		.uleb128 0x7
 1452 021a D5030000 		.4byte	.LASF41
 1453 021e 07       		.byte	0x7
 1454 021f C9       		.byte	0xc9
 1455 0220 1A       		.byte	0x1a
 1456 0221 4F050000 		.4byte	0x54f
 1457 0225 3C       		.byte	0x3c
 1458 0226 07       		.uleb128 0x7
 1459 0227 D6040000 		.4byte	.LASF42
 1460 022b 07       		.byte	0x7
 1461 022c CD       		.byte	0xcd
 1462 022d 19       		.byte	0x19
 1463 022e EF000000 		.4byte	0xef
 1464 0232 40       		.byte	0x40
 1465 0233 00       		.byte	0
 1466 0234 09       		.uleb128 0x9
 1467 0235 08       		.byte	0x8
 1468 0236 06       		.byte	0x6
 1469 0237 5A       		.byte	0x5a
 1470 0238 09       		.byte	0x9
 1471 0239 58020000 		.4byte	0x258
 1472 023d 07       		.uleb128 0x7
 1473 023e 0B040000 		.4byte	.LASF26
 1474 0242 06       		.byte	0x6
 1475 0243 5B       		.byte	0x5b
 1476 0244 1A       		.byte	0x1a
 1477 0245 58020000 		.4byte	0x258
 1478 0249 00       		.byte	0
 1479 024a 07       		.uleb128 0x7
 1480 024b B0030000 		.4byte	.LASF27
 1481 024f 06       		.byte	0x6
 1482 0250 5D       		.byte	0x5d
ARM GAS  /var/folders/l5/0x54b2c10074c8bt31ycjvl80000gp/T//ccxMzJPy.s 			page 27


 1483 0251 1A       		.byte	0x1a
 1484 0252 58020000 		.4byte	0x258
 1485 0256 04       		.byte	0x4
 1486 0257 00       		.byte	0
 1487 0258 0A       		.uleb128 0xa
 1488 0259 04       		.byte	0x4
 1489 025a 30010000 		.4byte	0x130
 1490 025e 04       		.uleb128 0x4
 1491 025f 71030000 		.4byte	.LASF43
 1492 0263 06       		.byte	0x6
 1493 0264 5F       		.byte	0x5f
 1494 0265 03       		.byte	0x3
 1495 0266 34020000 		.4byte	0x234
 1496 026a 09       		.uleb128 0x9
 1497 026b 04       		.byte	0x4
 1498 026c 06       		.byte	0x6
 1499 026d 64       		.byte	0x64
 1500 026e 09       		.byte	0x9
 1501 026f 81020000 		.4byte	0x281
 1502 0273 07       		.uleb128 0x7
 1503 0274 0B040000 		.4byte	.LASF26
 1504 0278 06       		.byte	0x6
 1505 0279 66       		.byte	0x66
 1506 027a 16       		.byte	0x16
 1507 027b 58020000 		.4byte	0x258
 1508 027f 00       		.byte	0
 1509 0280 00       		.byte	0
 1510 0281 04       		.uleb128 0x4
 1511 0282 FE020000 		.4byte	.LASF44
 1512 0286 06       		.byte	0x6
 1513 0287 69       		.byte	0x69
 1514 0288 03       		.byte	0x3
 1515 0289 6A020000 		.4byte	0x26a
 1516 028d 04       		.uleb128 0x4
 1517 028e 1C030000 		.4byte	.LASF45
 1518 0292 08       		.byte	0x8
 1519 0293 9D       		.byte	0x9d
 1520 0294 12       		.byte	0x12
 1521 0295 BF000000 		.4byte	0xbf
 1522 0299 04       		.uleb128 0x4
 1523 029a 6E010000 		.4byte	.LASF46
 1524 029e 08       		.byte	0x8
 1525 029f A2       		.byte	0xa2
 1526 02a0 0F       		.byte	0xf
 1527 02a1 A5020000 		.4byte	0x2a5
 1528 02a5 0B       		.uleb128 0xb
 1529 02a6 04       		.byte	0x4
 1530 02a7 06       		.uleb128 0x6
 1531 02a8 08050000 		.4byte	.LASF47
 1532 02ac 24       		.byte	0x24
 1533 02ad 08       		.byte	0x8
 1534 02ae B9       		.byte	0xb9
 1535 02af 08       		.byte	0x8
 1536 02b0 23030000 		.4byte	0x323
 1537 02b4 08       		.uleb128 0x8
 1538 02b5 723400   		.ascii	"r4\000"
 1539 02b8 08       		.byte	0x8
ARM GAS  /var/folders/l5/0x54b2c10074c8bt31ycjvl80000gp/T//ccxMzJPy.s 			page 28


 1540 02b9 BA       		.byte	0xba
 1541 02ba 11       		.byte	0x11
 1542 02bb 99020000 		.4byte	0x299
 1543 02bf 00       		.byte	0
 1544 02c0 08       		.uleb128 0x8
 1545 02c1 723500   		.ascii	"r5\000"
 1546 02c4 08       		.byte	0x8
 1547 02c5 BB       		.byte	0xbb
 1548 02c6 11       		.byte	0x11
 1549 02c7 99020000 		.4byte	0x299
 1550 02cb 04       		.byte	0x4
 1551 02cc 08       		.uleb128 0x8
 1552 02cd 723600   		.ascii	"r6\000"
 1553 02d0 08       		.byte	0x8
 1554 02d1 BC       		.byte	0xbc
 1555 02d2 11       		.byte	0x11
 1556 02d3 99020000 		.4byte	0x299
 1557 02d7 08       		.byte	0x8
 1558 02d8 08       		.uleb128 0x8
 1559 02d9 723700   		.ascii	"r7\000"
 1560 02dc 08       		.byte	0x8
 1561 02dd BD       		.byte	0xbd
 1562 02de 11       		.byte	0x11
 1563 02df 99020000 		.4byte	0x299
 1564 02e3 0C       		.byte	0xc
 1565 02e4 08       		.uleb128 0x8
 1566 02e5 723800   		.ascii	"r8\000"
 1567 02e8 08       		.byte	0x8
 1568 02e9 BE       		.byte	0xbe
 1569 02ea 11       		.byte	0x11
 1570 02eb 99020000 		.4byte	0x299
 1571 02ef 10       		.byte	0x10
 1572 02f0 08       		.uleb128 0x8
 1573 02f1 723900   		.ascii	"r9\000"
 1574 02f4 08       		.byte	0x8
 1575 02f5 BF       		.byte	0xbf
 1576 02f6 11       		.byte	0x11
 1577 02f7 99020000 		.4byte	0x299
 1578 02fb 14       		.byte	0x14
 1579 02fc 08       		.uleb128 0x8
 1580 02fd 72313000 		.ascii	"r10\000"
 1581 0301 08       		.byte	0x8
 1582 0302 C0       		.byte	0xc0
 1583 0303 11       		.byte	0x11
 1584 0304 99020000 		.4byte	0x299
 1585 0308 18       		.byte	0x18
 1586 0309 08       		.uleb128 0x8
 1587 030a 72313100 		.ascii	"r11\000"
 1588 030e 08       		.byte	0x8
 1589 030f C1       		.byte	0xc1
 1590 0310 11       		.byte	0x11
 1591 0311 99020000 		.4byte	0x299
 1592 0315 1C       		.byte	0x1c
 1593 0316 08       		.uleb128 0x8
 1594 0317 6C7200   		.ascii	"lr\000"
 1595 031a 08       		.byte	0x8
 1596 031b C2       		.byte	0xc2
ARM GAS  /var/folders/l5/0x54b2c10074c8bt31ycjvl80000gp/T//ccxMzJPy.s 			page 29


 1597 031c 11       		.byte	0x11
 1598 031d 99020000 		.4byte	0x299
 1599 0321 20       		.byte	0x20
 1600 0322 00       		.byte	0
 1601 0323 06       		.uleb128 0x6
 1602 0324 E5010000 		.4byte	.LASF48
 1603 0328 04       		.byte	0x4
 1604 0329 08       		.byte	0x8
 1605 032a CA       		.byte	0xca
 1606 032b 08       		.byte	0x8
 1607 032c 3E030000 		.4byte	0x33e
 1608 0330 08       		.uleb128 0x8
 1609 0331 72313300 		.ascii	"r13\000"
 1610 0335 08       		.byte	0x8
 1611 0336 CB       		.byte	0xcb
 1612 0337 12       		.byte	0x12
 1613 0338 3E030000 		.4byte	0x33e
 1614 033c 00       		.byte	0
 1615 033d 00       		.byte	0
 1616 033e 0A       		.uleb128 0xa
 1617 033f 04       		.byte	0x4
 1618 0340 A7020000 		.4byte	0x2a7
 1619 0344 04       		.uleb128 0x4
 1620 0345 D6010000 		.4byte	.LASF49
 1621 0349 09       		.byte	0x9
 1622 034a 4E       		.byte	0x4e
 1623 034b 10       		.byte	0x10
 1624 034c 50030000 		.4byte	0x350
 1625 0350 0A       		.uleb128 0xa
 1626 0351 04       		.byte	0x4
 1627 0352 56030000 		.4byte	0x356
 1628 0356 0C       		.uleb128 0xc
 1629 0357 61030000 		.4byte	0x361
 1630 035b 0D       		.uleb128 0xd
 1631 035c A5020000 		.4byte	0x2a5
 1632 0360 00       		.byte	0
 1633 0361 04       		.uleb128 0x4
 1634 0362 7E040000 		.4byte	.LASF50
 1635 0366 09       		.byte	0x9
 1636 0367 53       		.byte	0x53
 1637 0368 1D       		.byte	0x1d
 1638 0369 6D030000 		.4byte	0x36d
 1639 036d 06       		.uleb128 0x6
 1640 036e 7E040000 		.4byte	.LASF50
 1641 0372 14       		.byte	0x14
 1642 0373 09       		.byte	0x9
 1643 0374 5A       		.byte	0x5a
 1644 0375 08       		.byte	0x8
 1645 0376 BC030000 		.4byte	0x3bc
 1646 037a 07       		.uleb128 0x7
 1647 037b B3010000 		.4byte	.LASF51
 1648 037f 09       		.byte	0x9
 1649 0380 5B       		.byte	0x5b
 1650 0381 1A       		.byte	0x1a
 1651 0382 BC030000 		.4byte	0x3bc
 1652 0386 00       		.byte	0
 1653 0387 07       		.uleb128 0x7
ARM GAS  /var/folders/l5/0x54b2c10074c8bt31ycjvl80000gp/T//ccxMzJPy.s 			page 30


 1654 0388 77010000 		.4byte	.LASF52
 1655 038c 09       		.byte	0x9
 1656 038d 5D       		.byte	0x5d
 1657 038e 1A       		.byte	0x1a
 1658 038f BC030000 		.4byte	0x3bc
 1659 0393 04       		.byte	0x4
 1660 0394 07       		.uleb128 0x7
 1661 0395 3B030000 		.4byte	.LASF53
 1662 0399 09       		.byte	0x9
 1663 039a 5F       		.byte	0x5f
 1664 039b 19       		.byte	0x19
 1665 039c 13010000 		.4byte	0x113
 1666 03a0 08       		.byte	0x8
 1667 03a1 07       		.uleb128 0x7
 1668 03a2 43030000 		.4byte	.LASF54
 1669 03a6 09       		.byte	0x9
 1670 03a7 60       		.byte	0x60
 1671 03a8 19       		.byte	0x19
 1672 03a9 44030000 		.4byte	0x344
 1673 03ad 0C       		.byte	0xc
 1674 03ae 07       		.uleb128 0x7
 1675 03af 1A050000 		.4byte	.LASF55
 1676 03b3 09       		.byte	0x9
 1677 03b4 62       		.byte	0x62
 1678 03b5 1A       		.byte	0x1a
 1679 03b6 A5020000 		.4byte	0x2a5
 1680 03ba 10       		.byte	0x10
 1681 03bb 00       		.byte	0
 1682 03bc 0A       		.uleb128 0xa
 1683 03bd 04       		.byte	0x4
 1684 03be 61030000 		.4byte	0x361
 1685 03c2 09       		.uleb128 0x9
 1686 03c3 10       		.byte	0x10
 1687 03c4 09       		.byte	0x9
 1688 03c5 6C       		.byte	0x6c
 1689 03c6 09       		.byte	0x9
 1690 03c7 00040000 		.4byte	0x400
 1691 03cb 07       		.uleb128 0x7
 1692 03cc B3010000 		.4byte	.LASF51
 1693 03d0 09       		.byte	0x9
 1694 03d1 6D       		.byte	0x6d
 1695 03d2 1A       		.byte	0x1a
 1696 03d3 BC030000 		.4byte	0x3bc
 1697 03d7 00       		.byte	0
 1698 03d8 07       		.uleb128 0x7
 1699 03d9 77010000 		.4byte	.LASF52
 1700 03dd 09       		.byte	0x9
 1701 03de 6F       		.byte	0x6f
 1702 03df 1A       		.byte	0x1a
 1703 03e0 BC030000 		.4byte	0x3bc
 1704 03e4 04       		.byte	0x4
 1705 03e5 07       		.uleb128 0x7
 1706 03e6 3B030000 		.4byte	.LASF53
 1707 03ea 09       		.byte	0x9
 1708 03eb 71       		.byte	0x71
 1709 03ec 19       		.byte	0x19
 1710 03ed 13010000 		.4byte	0x113
ARM GAS  /var/folders/l5/0x54b2c10074c8bt31ycjvl80000gp/T//ccxMzJPy.s 			page 31


 1711 03f1 08       		.byte	0x8
 1712 03f2 07       		.uleb128 0x7
 1713 03f3 6F050000 		.4byte	.LASF56
 1714 03f7 09       		.byte	0x9
 1715 03f8 72       		.byte	0x72
 1716 03f9 19       		.byte	0x19
 1717 03fa 1F010000 		.4byte	0x11f
 1718 03fe 0C       		.byte	0xc
 1719 03ff 00       		.byte	0
 1720 0400 04       		.uleb128 0x4
 1721 0401 E2050000 		.4byte	.LASF57
 1722 0405 09       		.byte	0x9
 1723 0406 73       		.byte	0x73
 1724 0407 03       		.byte	0x3
 1725 0408 C2030000 		.4byte	0x3c2
 1726 040c 0E       		.uleb128 0xe
 1727 040d 3E000000 		.4byte	.LASF65
 1728 0411 09       		.byte	0x9
 1729 0412 D1       		.byte	0xd1
 1730 0413 0F       		.byte	0xf
 1731 0414 00040000 		.4byte	0x400
 1732 0418 09       		.uleb128 0x9
 1733 0419 1C       		.byte	0x1c
 1734 041a 0A       		.byte	0xa
 1735 041b 57       		.byte	0x57
 1736 041c 09       		.byte	0x9
 1737 041d 70040000 		.4byte	0x470
 1738 0421 07       		.uleb128 0x7
 1739 0422 76040000 		.4byte	.LASF58
 1740 0426 0A       		.byte	0xa
 1741 0427 58       		.byte	0x58
 1742 0428 19       		.byte	0x19
 1743 0429 5E020000 		.4byte	0x25e
 1744 042d 00       		.byte	0
 1745 042e 07       		.uleb128 0x7
 1746 042f FD030000 		.4byte	.LASF59
 1747 0433 0A       		.byte	0xa
 1748 0434 59       		.byte	0x59
 1749 0435 19       		.byte	0x19
 1750 0436 EF000000 		.4byte	0xef
 1751 043a 08       		.byte	0x8
 1752 043b 07       		.uleb128 0x7
 1753 043c 6B030000 		.4byte	.LASF60
 1754 0440 0A       		.byte	0xa
 1755 0441 5B       		.byte	0x5b
 1756 0442 19       		.byte	0x19
 1757 0443 23030000 		.4byte	0x323
 1758 0447 0C       		.byte	0xc
 1759 0448 07       		.uleb128 0x7
 1760 0449 1E020000 		.4byte	.LASF61
 1761 044d 0A       		.byte	0xa
 1762 044e 5E       		.byte	0x5e
 1763 044f 1A       		.byte	0x1a
 1764 0450 58020000 		.4byte	0x258
 1765 0454 10       		.byte	0x10
 1766 0455 07       		.uleb128 0x7
 1767 0456 95030000 		.4byte	.LASF62
ARM GAS  /var/folders/l5/0x54b2c10074c8bt31ycjvl80000gp/T//ccxMzJPy.s 			page 32


 1768 045a 0A       		.byte	0xa
 1769 045b 5F       		.byte	0x5f
 1770 045c 1A       		.byte	0x1a
 1771 045d 58020000 		.4byte	0x258
 1772 0461 14       		.byte	0x14
 1773 0462 07       		.uleb128 0x7
 1774 0463 8B030000 		.4byte	.LASF63
 1775 0467 0A       		.byte	0xa
 1776 0468 62       		.byte	0x62
 1777 0469 1A       		.byte	0x1a
 1778 046a 58020000 		.4byte	0x258
 1779 046e 18       		.byte	0x18
 1780 046f 00       		.byte	0
 1781 0470 04       		.uleb128 0x4
 1782 0471 3D050000 		.4byte	.LASF64
 1783 0475 0A       		.byte	0xa
 1784 0476 64       		.byte	0x64
 1785 0477 03       		.byte	0x3
 1786 0478 18040000 		.4byte	0x418
 1787 047c 0E       		.uleb128 0xe
 1788 047d 53050000 		.4byte	.LASF66
 1789 0481 0A       		.byte	0xa
 1790 0482 68       		.byte	0x68
 1791 0483 12       		.byte	0x12
 1792 0484 70040000 		.4byte	0x470
 1793 0488 06       		.uleb128 0x6
 1794 0489 21050000 		.4byte	.LASF67
 1795 048d 0C       		.byte	0xc
 1796 048e 0B       		.byte	0xb
 1797 048f 25       		.byte	0x25
 1798 0490 10       		.byte	0x10
 1799 0491 B0040000 		.4byte	0x4b0
 1800 0495 07       		.uleb128 0x7
 1801 0496 4A010000 		.4byte	.LASF68
 1802 049a 0B       		.byte	0xb
 1803 049b 26       		.byte	0x26
 1804 049c 19       		.byte	0x19
 1805 049d 5E020000 		.4byte	0x25e
 1806 04a1 00       		.byte	0
 1807 04a2 07       		.uleb128 0x7
 1808 04a3 DF010000 		.4byte	.LASF69
 1809 04a7 0B       		.byte	0xb
 1810 04a8 28       		.byte	0x28
 1811 04a9 19       		.byte	0x19
 1812 04aa 24010000 		.4byte	0x124
 1813 04ae 08       		.byte	0x8
 1814 04af 00       		.byte	0
 1815 04b0 04       		.uleb128 0x4
 1816 04b1 21050000 		.4byte	.LASF67
 1817 04b5 0B       		.byte	0xb
 1818 04b6 29       		.byte	0x29
 1819 04b7 03       		.byte	0x3
 1820 04b8 88040000 		.4byte	0x488
 1821 04bc 06       		.uleb128 0x6
 1822 04bd 16030000 		.4byte	.LASF70
 1823 04c1 10       		.byte	0x10
 1824 04c2 0C       		.byte	0xc
ARM GAS  /var/folders/l5/0x54b2c10074c8bt31ycjvl80000gp/T//ccxMzJPy.s 			page 33


 1825 04c3 25       		.byte	0x25
 1826 04c4 10       		.byte	0x10
 1827 04c5 F1040000 		.4byte	0x4f1
 1828 04c9 07       		.uleb128 0x7
 1829 04ca CF000000 		.4byte	.LASF71
 1830 04ce 0C       		.byte	0xc
 1831 04cf 26       		.byte	0x26
 1832 04d0 19       		.byte	0x19
 1833 04d1 5E020000 		.4byte	0x25e
 1834 04d5 00       		.byte	0
 1835 04d6 07       		.uleb128 0x7
 1836 04d7 E9050000 		.4byte	.LASF72
 1837 04db 0C       		.byte	0xc
 1838 04dc 28       		.byte	0x28
 1839 04dd 1A       		.byte	0x1a
 1840 04de 58020000 		.4byte	0x258
 1841 04e2 08       		.byte	0x8
 1842 04e3 07       		.uleb128 0x7
 1843 04e4 C5040000 		.4byte	.LASF73
 1844 04e8 0C       		.byte	0xc
 1845 04e9 2A       		.byte	0x2a
 1846 04ea 1A       		.byte	0x1a
 1847 04eb F1040000 		.4byte	0x4f1
 1848 04ef 0C       		.byte	0xc
 1849 04f0 00       		.byte	0
 1850 04f1 0A       		.uleb128 0xa
 1851 04f2 04       		.byte	0x4
 1852 04f3 BC040000 		.4byte	0x4bc
 1853 04f7 04       		.uleb128 0x4
 1854 04f8 16030000 		.4byte	.LASF70
 1855 04fc 0C       		.byte	0xc
 1856 04fd 2C       		.byte	0x2c
 1857 04fe 03       		.byte	0x3
 1858 04ff BC040000 		.4byte	0x4bc
 1859 0503 0F       		.uleb128 0xf
 1860 0504 04       		.byte	0x4
 1861 0505 07       		.byte	0x7
 1862 0506 8F       		.byte	0x8f
 1863 0507 03       		.byte	0x3
 1864 0508 3D050000 		.4byte	0x53d
 1865 050c 10       		.uleb128 0x10
 1866 050d 2D000000 		.4byte	.LASF74
 1867 0511 07       		.byte	0x7
 1868 0512 96       		.byte	0x96
 1869 0513 19       		.byte	0x19
 1870 0514 FB000000 		.4byte	0xfb
 1871 0518 10       		.uleb128 0x10
 1872 0519 6A000000 		.4byte	.LASF75
 1873 051d 07       		.byte	0x7
 1874 051e 9D       		.byte	0x9d
 1875 051f 19       		.byte	0x19
 1876 0520 FB000000 		.4byte	0xfb
 1877 0524 10       		.uleb128 0x10
 1878 0525 61050000 		.4byte	.LASF76
 1879 0529 07       		.byte	0x7
 1880 052a A4       		.byte	0xa4
 1881 052b 1A       		.byte	0x1a
ARM GAS  /var/folders/l5/0x54b2c10074c8bt31ycjvl80000gp/T//ccxMzJPy.s 			page 34


 1882 052c A5020000 		.4byte	0x2a5
 1883 0530 10       		.uleb128 0x10
 1884 0531 04040000 		.4byte	.LASF77
 1885 0535 07       		.byte	0x7
 1886 0536 AB       		.byte	0xab
 1887 0537 19       		.byte	0x19
 1888 0538 07010000 		.4byte	0x107
 1889 053c 00       		.byte	0
 1890 053d 0A       		.uleb128 0xa
 1891 053e 04       		.byte	0x4
 1892 053f 4A050000 		.4byte	0x54a
 1893 0543 03       		.uleb128 0x3
 1894 0544 01       		.byte	0x1
 1895 0545 08       		.byte	0x8
 1896 0546 8B040000 		.4byte	.LASF78
 1897 054a 11       		.uleb128 0x11
 1898 054b 43050000 		.4byte	0x543
 1899 054f 0A       		.uleb128 0xa
 1900 0550 04       		.byte	0x4
 1901 0551 F7040000 		.4byte	0x4f7
 1902 0555 09       		.uleb128 0x9
 1903 0556 16       		.byte	0x16
 1904 0557 0D       		.byte	0xd
 1905 0558 25       		.byte	0x25
 1906 0559 09       		.byte	0x9
 1907 055a 49060000 		.4byte	0x649
 1908 055e 07       		.uleb128 0x7
 1909 055f D7000000 		.4byte	.LASF79
 1910 0563 0D       		.byte	0xd
 1911 0564 26       		.byte	0x26
 1912 0565 0D       		.byte	0xd
 1913 0566 49060000 		.4byte	0x649
 1914 056a 00       		.byte	0
 1915 056b 07       		.uleb128 0x7
 1916 056c 27030000 		.4byte	.LASF80
 1917 0570 0D       		.byte	0xd
 1918 0571 27       		.byte	0x27
 1919 0572 0D       		.byte	0xd
 1920 0573 9B000000 		.4byte	0x9b
 1921 0577 04       		.byte	0x4
 1922 0578 07       		.uleb128 0x7
 1923 0579 7E030000 		.4byte	.LASF81
 1924 057d 0D       		.byte	0xd
 1925 057e 28       		.byte	0x28
 1926 057f 0D       		.byte	0xd
 1927 0580 9B000000 		.4byte	0x9b
 1928 0584 05       		.byte	0x5
 1929 0585 07       		.uleb128 0x7
 1930 0586 8F050000 		.4byte	.LASF82
 1931 058a 0D       		.byte	0xd
 1932 058b 29       		.byte	0x29
 1933 058c 0D       		.byte	0xd
 1934 058d A7000000 		.4byte	0xa7
 1935 0591 06       		.byte	0x6
 1936 0592 07       		.uleb128 0x7
 1937 0593 A5030000 		.4byte	.LASF83
 1938 0597 0D       		.byte	0xd
ARM GAS  /var/folders/l5/0x54b2c10074c8bt31ycjvl80000gp/T//ccxMzJPy.s 			page 35


 1939 0598 2A       		.byte	0x2a
 1940 0599 0D       		.byte	0xd
 1941 059a 9B000000 		.4byte	0x9b
 1942 059e 08       		.byte	0x8
 1943 059f 07       		.uleb128 0x7
 1944 05a0 4B030000 		.4byte	.LASF84
 1945 05a4 0D       		.byte	0xd
 1946 05a5 2B       		.byte	0x2b
 1947 05a6 0D       		.byte	0xd
 1948 05a7 9B000000 		.4byte	0x9b
 1949 05ab 09       		.byte	0x9
 1950 05ac 07       		.uleb128 0x7
 1951 05ad 5C000000 		.4byte	.LASF85
 1952 05b1 0D       		.byte	0xd
 1953 05b2 2C       		.byte	0x2c
 1954 05b3 0D       		.byte	0xd
 1955 05b4 9B000000 		.4byte	0x9b
 1956 05b8 0A       		.byte	0xa
 1957 05b9 07       		.uleb128 0x7
 1958 05ba 6A040000 		.4byte	.LASF86
 1959 05be 0D       		.byte	0xd
 1960 05bf 2D       		.byte	0x2d
 1961 05c0 0D       		.byte	0xd
 1962 05c1 9B000000 		.4byte	0x9b
 1963 05c5 0B       		.byte	0xb
 1964 05c6 07       		.uleb128 0x7
 1965 05c7 2B050000 		.4byte	.LASF87
 1966 05cb 0D       		.byte	0xd
 1967 05cc 2E       		.byte	0x2e
 1968 05cd 0D       		.byte	0xd
 1969 05ce 9B000000 		.4byte	0x9b
 1970 05d2 0C       		.byte	0xc
 1971 05d3 07       		.uleb128 0x7
 1972 05d4 3B040000 		.4byte	.LASF88
 1973 05d8 0D       		.byte	0xd
 1974 05d9 2F       		.byte	0x2f
 1975 05da 0D       		.byte	0xd
 1976 05db 9B000000 		.4byte	0x9b
 1977 05df 0D       		.byte	0xd
 1978 05e0 07       		.uleb128 0x7
 1979 05e1 00000000 		.4byte	.LASF89
 1980 05e5 0D       		.byte	0xd
 1981 05e6 30       		.byte	0x30
 1982 05e7 0D       		.byte	0xd
 1983 05e8 9B000000 		.4byte	0x9b
 1984 05ec 0E       		.byte	0xe
 1985 05ed 07       		.uleb128 0x7
 1986 05ee 57030000 		.4byte	.LASF90
 1987 05f2 0D       		.byte	0xd
 1988 05f3 31       		.byte	0x31
 1989 05f4 0D       		.byte	0xd
 1990 05f5 9B000000 		.4byte	0x9b
 1991 05f9 0F       		.byte	0xf
 1992 05fa 07       		.uleb128 0x7
 1993 05fb B2000000 		.4byte	.LASF91
 1994 05ff 0D       		.byte	0xd
 1995 0600 32       		.byte	0x32
ARM GAS  /var/folders/l5/0x54b2c10074c8bt31ycjvl80000gp/T//ccxMzJPy.s 			page 36


 1996 0601 0D       		.byte	0xd
 1997 0602 9B000000 		.4byte	0x9b
 1998 0606 10       		.byte	0x10
 1999 0607 07       		.uleb128 0x7
 2000 0608 8B000000 		.4byte	.LASF92
 2001 060c 0D       		.byte	0xd
 2002 060d 34       		.byte	0x34
 2003 060e 0D       		.byte	0xd
 2004 060f 9B000000 		.4byte	0x9b
 2005 0613 11       		.byte	0x11
 2006 0614 07       		.uleb128 0x7
 2007 0615 C2000000 		.4byte	.LASF93
 2008 0619 0D       		.byte	0xd
 2009 061a 35       		.byte	0x35
 2010 061b 0D       		.byte	0xd
 2011 061c 9B000000 		.4byte	0x9b
 2012 0620 12       		.byte	0x12
 2013 0621 07       		.uleb128 0x7
 2014 0622 2F030000 		.4byte	.LASF94
 2015 0626 0D       		.byte	0xd
 2016 0627 36       		.byte	0x36
 2017 0628 0D       		.byte	0xd
 2018 0629 9B000000 		.4byte	0x9b
 2019 062d 13       		.byte	0x13
 2020 062e 07       		.uleb128 0x7
 2021 062f 12040000 		.4byte	.LASF95
 2022 0633 0D       		.byte	0xd
 2023 0634 37       		.byte	0x37
 2024 0635 0D       		.byte	0xd
 2025 0636 9B000000 		.4byte	0x9b
 2026 063a 14       		.byte	0x14
 2027 063b 07       		.uleb128 0x7
 2028 063c F1030000 		.4byte	.LASF96
 2029 0640 0D       		.byte	0xd
 2030 0641 39       		.byte	0x39
 2031 0642 0D       		.byte	0xd
 2032 0643 9B000000 		.4byte	0x9b
 2033 0647 15       		.byte	0x15
 2034 0648 00       		.byte	0
 2035 0649 12       		.uleb128 0x12
 2036 064a 43050000 		.4byte	0x543
 2037 064e 59060000 		.4byte	0x659
 2038 0652 13       		.uleb128 0x13
 2039 0653 2C000000 		.4byte	0x2c
 2040 0657 03       		.byte	0x3
 2041 0658 00       		.byte	0
 2042 0659 04       		.uleb128 0x4
 2043 065a 28010000 		.4byte	.LASF97
 2044 065e 0D       		.byte	0xd
 2045 065f 3A       		.byte	0x3a
 2046 0660 03       		.byte	0x3
 2047 0661 55050000 		.4byte	0x555
 2048 0665 11       		.uleb128 0x11
 2049 0666 59060000 		.4byte	0x659
 2050 066a 0E       		.uleb128 0xe
 2051 066b CD010000 		.4byte	.LASF98
 2052 066f 0D       		.byte	0xd
ARM GAS  /var/folders/l5/0x54b2c10074c8bt31ycjvl80000gp/T//ccxMzJPy.s 			page 37


 2053 0670 77       		.byte	0x77
 2054 0671 1D       		.byte	0x1d
 2055 0672 65060000 		.4byte	0x665
 2056 0676 12       		.uleb128 0x12
 2057 0677 8D020000 		.4byte	0x28d
 2058 067b 86060000 		.4byte	0x686
 2059 067f 13       		.uleb128 0x13
 2060 0680 2C000000 		.4byte	0x2c
 2061 0684 26       		.byte	0x26
 2062 0685 00       		.byte	0
 2063 0686 0E       		.uleb128 0xe
 2064 0687 3A010000 		.4byte	.LASF99
 2065 068b 0E       		.byte	0xe
 2066 068c 82       		.byte	0x82
 2067 068d 08       		.byte	0x8
 2068 068e 76060000 		.4byte	0x676
 2069 0692 14       		.uleb128 0x14
 2070 0693 7F010000 		.4byte	.LASF104
 2071 0697 01       		.byte	0x1
 2072 0698 6701     		.2byte	0x167
 2073 069a 07       		.byte	0x7
 2074 069b FB000000 		.4byte	0xfb
 2075 069f 00000000 		.4byte	.LFB17
 2076 06a3 A0000000 		.4byte	.LFE17-.LFB17
 2077 06a7 01       		.uleb128 0x1
 2078 06a8 9C       		.byte	0x9c
 2079 06a9 A1070000 		.4byte	0x7a1
 2080 06ad 15       		.uleb128 0x15
 2081 06ae 73707300 		.ascii	"sps\000"
 2082 06b2 01       		.byte	0x1
 2083 06b3 6701     		.2byte	0x167
 2084 06b5 22       		.byte	0x22
 2085 06b6 A1070000 		.4byte	0x7a1
 2086 06ba 0A000000 		.4byte	.LLST41
 2087 06be 00000000 		.4byte	.LVUS41
 2088 06c2 15       		.uleb128 0x15
 2089 06c3 73707700 		.ascii	"spw\000"
 2090 06c7 01       		.byte	0x1
 2091 06c8 6701     		.2byte	0x167
 2092 06ca 32       		.byte	0x32
 2093 06cb A1070000 		.4byte	0x7a1
 2094 06cf 57000000 		.4byte	.LLST42
 2095 06d3 4F000000 		.4byte	.LVUS42
 2096 06d7 16       		.uleb128 0x16
 2097 06d8 6D736700 		.ascii	"msg\000"
 2098 06dc 01       		.byte	0x1
 2099 06dd 6801     		.2byte	0x168
 2100 06df 09       		.byte	0x9
 2101 06e0 FB000000 		.4byte	0xfb
 2102 06e4 91000000 		.4byte	.LLST43
 2103 06e8 8B000000 		.4byte	.LVUS43
 2104 06ec 17       		.uleb128 0x17
 2105 06ed 44000000 		.4byte	.LBB109
 2106 06f1 2C000000 		.4byte	.LBE109-.LBB109
 2107 06f5 4F070000 		.4byte	0x74f
 2108 06f9 16       		.uleb128 0x16
 2109 06fa 63747000 		.ascii	"ctp\000"
ARM GAS  /var/folders/l5/0x54b2c10074c8bt31ycjvl80000gp/T//ccxMzJPy.s 			page 38


 2110 06fe 01       		.byte	0x1
 2111 06ff 7801     		.2byte	0x178
 2112 0701 0D       		.byte	0xd
 2113 0702 58020000 		.4byte	0x258
 2114 0706 BD000000 		.4byte	.LLST44
 2115 070a BB000000 		.4byte	.LVUS44
 2116 070e 18       		.uleb128 0x18
 2117 070f 940C0000 		.4byte	0xc94
 2118 0713 50000000 		.4byte	.LBI110
 2119 0717 01       		.byte	.LVU352
 2120 0718 40010000 		.4byte	.Ldebug_ranges0+0x140
 2121 071c 01       		.byte	0x1
 2122 071d 7901     		.2byte	0x179
 2123 071f 05       		.byte	0x5
 2124 0720 3F070000 		.4byte	0x73f
 2125 0724 19       		.uleb128 0x19
 2126 0725 AC0C0000 		.4byte	0xcac
 2127 0729 D2000000 		.4byte	.LLST45
 2128 072d D0000000 		.4byte	.LVUS45
 2129 0731 19       		.uleb128 0x19
 2130 0732 A10C0000 		.4byte	0xca1
 2131 0736 E7000000 		.4byte	.LLST46
 2132 073a E5000000 		.4byte	.LVUS46
 2133 073e 00       		.byte	0
 2134 073f 1A       		.uleb128 0x1a
 2135 0740 6C000000 		.4byte	.LVL76
 2136 0744 D50D0000 		.4byte	0xdd5
 2137 0748 1B       		.uleb128 0x1b
 2138 0749 01       		.uleb128 0x1
 2139 074a 50       		.byte	0x50
 2140 074b 01       		.uleb128 0x1
 2141 074c 33       		.byte	0x33
 2142 074d 00       		.byte	0
 2143 074e 00       		.byte	0
 2144 074f 1C       		.uleb128 0x1c
 2145 0750 6B0C0000 		.4byte	0xc6b
 2146 0754 7C000000 		.4byte	.LBI116
 2147 0758 01       		.byte	.LVU375
 2148 0759 7C000000 		.4byte	.LBB116
 2149 075d 10000000 		.4byte	.LBE116-.LBB116
 2150 0761 01       		.byte	0x1
 2151 0762 7601     		.2byte	0x176
 2152 0764 05       		.byte	0x5
 2153 0765 8E070000 		.4byte	0x78e
 2154 0769 19       		.uleb128 0x19
 2155 076a 7C0C0000 		.4byte	0xc7c
 2156 076e FC000000 		.4byte	.LLST47
 2157 0772 FA000000 		.4byte	.LVUS47
 2158 0776 1D       		.uleb128 0x1d
 2159 0777 7C000000 		.4byte	.LBB117
 2160 077b 10000000 		.4byte	.LBE117-.LBB117
 2161 077f 1E       		.uleb128 0x1e
 2162 0780 880C0000 		.4byte	0xc88
 2163 0784 11010000 		.4byte	.LLST48
 2164 0788 0F010000 		.4byte	.LVUS48
 2165 078c 00       		.byte	0
 2166 078d 00       		.byte	0
ARM GAS  /var/folders/l5/0x54b2c10074c8bt31ycjvl80000gp/T//ccxMzJPy.s 			page 39


 2167 078e 1F       		.uleb128 0x1f
 2168 078f 38000000 		.4byte	.LVL71
 2169 0793 E10D0000 		.4byte	0xde1
 2170 0797 1F       		.uleb128 0x1f
 2171 0798 90000000 		.4byte	.LVL82
 2172 079c ED0D0000 		.4byte	0xded
 2173 07a0 00       		.byte	0
 2174 07a1 0A       		.uleb128 0xa
 2175 07a2 04       		.byte	0x4
 2176 07a3 B0040000 		.4byte	0x4b0
 2177 07a7 20       		.uleb128 0x20
 2178 07a8 73000000 		.4byte	.LASF100
 2179 07ac 01       		.byte	0x1
 2180 07ad 4701     		.2byte	0x147
 2181 07af 06       		.byte	0x6
 2182 07b0 00000000 		.4byte	.LFB16
 2183 07b4 58000000 		.4byte	.LFE16-.LFB16
 2184 07b8 01       		.uleb128 0x1
 2185 07b9 9C       		.byte	0x9c
 2186 07ba 2E080000 		.4byte	0x82e
 2187 07be 15       		.uleb128 0x15
 2188 07bf 737000   		.ascii	"sp\000"
 2189 07c2 01       		.byte	0x1
 2190 07c3 4701     		.2byte	0x147
 2191 07c5 22       		.byte	0x22
 2192 07c6 A1070000 		.4byte	0x7a1
 2193 07ca 28010000 		.4byte	.LLST37
 2194 07ce 24010000 		.4byte	.LVUS37
 2195 07d2 15       		.uleb128 0x15
 2196 07d3 6E00     		.ascii	"n\000"
 2197 07d5 01       		.byte	0x1
 2198 07d6 4701     		.2byte	0x147
 2199 07d8 2C       		.byte	0x2c
 2200 07d9 24010000 		.4byte	0x124
 2201 07dd 50010000 		.4byte	.LLST38
 2202 07e1 46010000 		.4byte	.LVUS38
 2203 07e5 1C       		.uleb128 0x1c
 2204 07e6 6B0C0000 		.4byte	0xc6b
 2205 07ea 34000000 		.4byte	.LBI107
 2206 07ee 01       		.byte	.LVU305
 2207 07ef 34000000 		.4byte	.LBB107
 2208 07f3 10000000 		.4byte	.LBE107-.LBB107
 2209 07f7 01       		.byte	0x1
 2210 07f8 5201     		.2byte	0x152
 2211 07fa 07       		.byte	0x7
 2212 07fb 24080000 		.4byte	0x824
 2213 07ff 19       		.uleb128 0x19
 2214 0800 7C0C0000 		.4byte	0xc7c
 2215 0804 95010000 		.4byte	.LLST39
 2216 0808 93010000 		.4byte	.LVUS39
 2217 080c 1D       		.uleb128 0x1d
 2218 080d 34000000 		.4byte	.LBB108
 2219 0811 10000000 		.4byte	.LBE108-.LBB108
 2220 0815 1E       		.uleb128 0x1e
 2221 0816 880C0000 		.4byte	0xc88
 2222 081a AA010000 		.4byte	.LLST40
 2223 081e A8010000 		.4byte	.LVUS40
ARM GAS  /var/folders/l5/0x54b2c10074c8bt31ycjvl80000gp/T//ccxMzJPy.s 			page 40


 2224 0822 00       		.byte	0
 2225 0823 00       		.byte	0
 2226 0824 1F       		.uleb128 0x1f
 2227 0825 48000000 		.4byte	.LVL66
 2228 0829 ED0D0000 		.4byte	0xded
 2229 082d 00       		.byte	0
 2230 082e 20       		.uleb128 0x20
 2231 082f 20000000 		.4byte	.LASF101
 2232 0833 01       		.byte	0x1
 2233 0834 2801     		.2byte	0x128
 2234 0836 06       		.byte	0x6
 2235 0837 00000000 		.4byte	.LFB15
 2236 083b 38000000 		.4byte	.LFE15-.LFB15
 2237 083f 01       		.uleb128 0x1
 2238 0840 9C       		.byte	0x9c
 2239 0841 B8080000 		.4byte	0x8b8
 2240 0845 15       		.uleb128 0x15
 2241 0846 737000   		.ascii	"sp\000"
 2242 0849 01       		.byte	0x1
 2243 084a 2801     		.2byte	0x128
 2244 084c 1E       		.byte	0x1e
 2245 084d A1070000 		.4byte	0x7a1
 2246 0851 C3010000 		.4byte	.LLST33
 2247 0855 BD010000 		.4byte	.LVUS33
 2248 0859 1D       		.uleb128 0x1d
 2249 085a 18000000 		.4byte	.LBB100
 2250 085e 20000000 		.4byte	.LBE100-.LBB100
 2251 0862 16       		.uleb128 0x16
 2252 0863 747000   		.ascii	"tp\000"
 2253 0866 01       		.byte	0x1
 2254 0867 3401     		.2byte	0x134
 2255 0869 0D       		.byte	0xd
 2256 086a 58020000 		.4byte	0x258
 2257 086e F1010000 		.4byte	.LLST34
 2258 0872 EF010000 		.4byte	.LVUS34
 2259 0876 18       		.uleb128 0x18
 2260 0877 6B0C0000 		.4byte	0xc6b
 2261 087b 18000000 		.4byte	.LBI101
 2262 087f 01       		.byte	.LVU274
 2263 0880 20010000 		.4byte	.Ldebug_ranges0+0x120
 2264 0884 01       		.byte	0x1
 2265 0885 3401     		.2byte	0x134
 2266 0887 12       		.byte	0x12
 2267 0888 AD080000 		.4byte	0x8ad
 2268 088c 19       		.uleb128 0x19
 2269 088d 7C0C0000 		.4byte	0xc7c
 2270 0891 08020000 		.4byte	.LLST35
 2271 0895 04020000 		.4byte	.LVUS35
 2272 0899 21       		.uleb128 0x21
 2273 089a 20010000 		.4byte	.Ldebug_ranges0+0x120
 2274 089e 1E       		.uleb128 0x1e
 2275 089f 880C0000 		.4byte	0xc88
 2276 08a3 28020000 		.4byte	.LLST36
 2277 08a7 26020000 		.4byte	.LVUS36
 2278 08ab 00       		.byte	0
 2279 08ac 00       		.byte	0
 2280 08ad 22       		.uleb128 0x22
ARM GAS  /var/folders/l5/0x54b2c10074c8bt31ycjvl80000gp/T//ccxMzJPy.s 			page 41


 2281 08ae 38000000 		.4byte	.LVL58
 2282 08b2 ED0D0000 		.4byte	0xded
 2283 08b6 00       		.byte	0
 2284 08b7 00       		.byte	0
 2285 08b8 20       		.uleb128 0x20
 2286 08b9 13010000 		.4byte	.LASF102
 2287 08bd 01       		.byte	0x1
 2288 08be 0F01     		.2byte	0x10f
 2289 08c0 06       		.byte	0x6
 2290 08c1 00000000 		.4byte	.LFB14
 2291 08c5 48000000 		.4byte	.LFE14-.LFB14
 2292 08c9 01       		.uleb128 0x1
 2293 08ca 9C       		.byte	0x9c
 2294 08cb 2A090000 		.4byte	0x92a
 2295 08cf 15       		.uleb128 0x15
 2296 08d0 737000   		.ascii	"sp\000"
 2297 08d3 01       		.byte	0x1
 2298 08d4 0F01     		.2byte	0x10f
 2299 08d6 1D       		.byte	0x1d
 2300 08d7 A1070000 		.4byte	0x7a1
 2301 08db 41020000 		.4byte	.LLST30
 2302 08df 3B020000 		.4byte	.LVUS30
 2303 08e3 18       		.uleb128 0x18
 2304 08e4 6B0C0000 		.4byte	0xc6b
 2305 08e8 24000000 		.4byte	.LBI94
 2306 08ec 01       		.byte	.LVU245
 2307 08ed 00010000 		.4byte	.Ldebug_ranges0+0x100
 2308 08f1 01       		.byte	0x1
 2309 08f2 1901     		.2byte	0x119
 2310 08f4 05       		.byte	0x5
 2311 08f5 1A090000 		.4byte	0x91a
 2312 08f9 19       		.uleb128 0x19
 2313 08fa 7C0C0000 		.4byte	0xc7c
 2314 08fe 6F020000 		.4byte	.LLST31
 2315 0902 6D020000 		.4byte	.LVUS31
 2316 0906 21       		.uleb128 0x21
 2317 0907 00010000 		.4byte	.Ldebug_ranges0+0x100
 2318 090b 1E       		.uleb128 0x1e
 2319 090c 880C0000 		.4byte	0xc88
 2320 0910 84020000 		.4byte	.LLST32
 2321 0914 82020000 		.4byte	.LVUS32
 2322 0918 00       		.byte	0
 2323 0919 00       		.byte	0
 2324 091a 1A       		.uleb128 0x1a
 2325 091b 40000000 		.4byte	.LVL52
 2326 091f F90D0000 		.4byte	0xdf9
 2327 0923 1B       		.uleb128 0x1b
 2328 0924 01       		.uleb128 0x1
 2329 0925 51       		.byte	0x51
 2330 0926 01       		.uleb128 0x1
 2331 0927 30       		.byte	0x30
 2332 0928 00       		.byte	0
 2333 0929 00       		.byte	0
 2334 092a 23       		.uleb128 0x23
 2335 092b 9C040000 		.4byte	.LASF106
 2336 092f 01       		.byte	0x1
 2337 0930 F3       		.byte	0xf3
ARM GAS  /var/folders/l5/0x54b2c10074c8bt31ycjvl80000gp/T//ccxMzJPy.s 			page 42


 2338 0931 07       		.byte	0x7
 2339 0932 FB000000 		.4byte	0xfb
 2340 0936 01       		.byte	0x1
 2341 0937 53090000 		.4byte	0x953
 2342 093b 24       		.uleb128 0x24
 2343 093c 737000   		.ascii	"sp\000"
 2344 093f 01       		.byte	0x1
 2345 0940 F3       		.byte	0xf3
 2346 0941 24       		.byte	0x24
 2347 0942 A1070000 		.4byte	0x7a1
 2348 0946 25       		.uleb128 0x25
 2349 0947 86030000 		.4byte	.LASF103
 2350 094b 01       		.byte	0x1
 2351 094c F3       		.byte	0xf3
 2352 094d 32       		.byte	0x32
 2353 094e 13010000 		.4byte	0x113
 2354 0952 00       		.byte	0
 2355 0953 26       		.uleb128 0x26
 2356 0954 A2010000 		.4byte	.LASF105
 2357 0958 01       		.byte	0x1
 2358 0959 D7       		.byte	0xd7
 2359 095a 07       		.byte	0x7
 2360 095b FB000000 		.4byte	0xfb
 2361 095f 00000000 		.4byte	.LFB12
 2362 0963 6C000000 		.4byte	.LFE12-.LFB12
 2363 0967 01       		.uleb128 0x1
 2364 0968 9C       		.byte	0x9c
 2365 0969 400A0000 		.4byte	0xa40
 2366 096d 27       		.uleb128 0x27
 2367 096e 737000   		.ascii	"sp\000"
 2368 0971 01       		.byte	0x1
 2369 0972 D7       		.byte	0xd7
 2370 0973 23       		.byte	0x23
 2371 0974 A1070000 		.4byte	0x7a1
 2372 0978 9B020000 		.4byte	.LLST17
 2373 097c 97020000 		.4byte	.LVUS17
 2374 0980 28       		.uleb128 0x28
 2375 0981 86030000 		.4byte	.LASF103
 2376 0985 01       		.byte	0x1
 2377 0986 D7       		.byte	0xd7
 2378 0987 31       		.byte	0x31
 2379 0988 13010000 		.4byte	0x113
 2380 098c C0020000 		.4byte	.LLST18
 2381 0990 BC020000 		.4byte	.LVUS18
 2382 0994 29       		.uleb128 0x29
 2383 0995 6D736700 		.ascii	"msg\000"
 2384 0999 01       		.byte	0x1
 2385 099a D8       		.byte	0xd8
 2386 099b 09       		.byte	0x9
 2387 099c FB000000 		.4byte	0xfb
 2388 09a0 E5020000 		.4byte	.LLST19
 2389 09a4 E1020000 		.4byte	.LVUS19
 2390 09a8 2A       		.uleb128 0x2a
 2391 09a9 2A090000 		.4byte	0x92a
 2392 09ad 04000000 		.4byte	.LBI70
 2393 09b1 03       		.byte	.LVU145
 2394 09b2 98000000 		.4byte	.Ldebug_ranges0+0x98
ARM GAS  /var/folders/l5/0x54b2c10074c8bt31ycjvl80000gp/T//ccxMzJPy.s 			page 43


 2395 09b6 01       		.byte	0x1
 2396 09b7 DB       		.byte	0xdb
 2397 09b8 09       		.byte	0x9
 2398 09b9 19       		.uleb128 0x19
 2399 09ba 46090000 		.4byte	0x946
 2400 09be 09030000 		.4byte	.LLST20
 2401 09c2 03030000 		.4byte	.LVUS20
 2402 09c6 19       		.uleb128 0x19
 2403 09c7 3B090000 		.4byte	0x93b
 2404 09cb 3B030000 		.4byte	.LLST21
 2405 09cf 35030000 		.4byte	.LVUS21
 2406 09d3 2A       		.uleb128 0x2a
 2407 09d4 2A090000 		.4byte	0x92a
 2408 09d8 38000000 		.4byte	.LBI72
 2409 09dc 00       		.byte	.LVU169
 2410 09dd B8000000 		.4byte	.Ldebug_ranges0+0xb8
 2411 09e1 01       		.byte	0x1
 2412 09e2 F3       		.byte	0xf3
 2413 09e3 07       		.byte	0x7
 2414 09e4 2B       		.uleb128 0x2b
 2415 09e5 46090000 		.4byte	0x946
 2416 09e9 19       		.uleb128 0x19
 2417 09ea 3B090000 		.4byte	0x93b
 2418 09ee 6E030000 		.4byte	.LLST22
 2419 09f2 6A030000 		.4byte	.LVUS22
 2420 09f6 18       		.uleb128 0x18
 2421 09f7 940C0000 		.4byte	0xc94
 2422 09fb 50000000 		.4byte	.LBI74
 2423 09ff 01       		.byte	.LVU177
 2424 0a00 D0000000 		.4byte	.Ldebug_ranges0+0xd0
 2425 0a04 01       		.byte	0x1
 2426 0a05 0201     		.2byte	0x102
 2427 0a07 05       		.byte	0x5
 2428 0a08 270A0000 		.4byte	0xa27
 2429 0a0c 19       		.uleb128 0x19
 2430 0a0d AC0C0000 		.4byte	0xcac
 2431 0a11 8E030000 		.4byte	.LLST23
 2432 0a15 8C030000 		.4byte	.LVUS23
 2433 0a19 19       		.uleb128 0x19
 2434 0a1a A10C0000 		.4byte	0xca1
 2435 0a1e A3030000 		.4byte	.LLST24
 2436 0a22 A1030000 		.4byte	.LVUS24
 2437 0a26 00       		.byte	0
 2438 0a27 1A       		.uleb128 0x1a
 2439 0a28 60000000 		.4byte	.LVL41
 2440 0a2c 050E0000 		.4byte	0xe05
 2441 0a30 1B       		.uleb128 0x1b
 2442 0a31 01       		.uleb128 0x1
 2443 0a32 50       		.byte	0x50
 2444 0a33 01       		.uleb128 0x1
 2445 0a34 33       		.byte	0x33
 2446 0a35 1B       		.uleb128 0x1b
 2447 0a36 01       		.uleb128 0x1
 2448 0a37 51       		.byte	0x51
 2449 0a38 03       		.uleb128 0x3
 2450 0a39 F3       		.byte	0xf3
 2451 0a3a 01       		.uleb128 0x1
ARM GAS  /var/folders/l5/0x54b2c10074c8bt31ycjvl80000gp/T//ccxMzJPy.s 			page 44


 2452 0a3b 51       		.byte	0x51
 2453 0a3c 00       		.byte	0
 2454 0a3d 00       		.byte	0
 2455 0a3e 00       		.byte	0
 2456 0a3f 00       		.byte	0
 2457 0a40 23       		.uleb128 0x23
 2458 0a41 29040000 		.4byte	.LASF107
 2459 0a45 01       		.byte	0x1
 2460 0a46 B2       		.byte	0xb2
 2461 0a47 07       		.byte	0x7
 2462 0a48 FB000000 		.4byte	0xfb
 2463 0a4c 01       		.byte	0x1
 2464 0a4d 5D0A0000 		.4byte	0xa5d
 2465 0a51 24       		.uleb128 0x24
 2466 0a52 737000   		.ascii	"sp\000"
 2467 0a55 01       		.byte	0x1
 2468 0a56 B2       		.byte	0xb2
 2469 0a57 1D       		.byte	0x1d
 2470 0a58 A1070000 		.4byte	0x7a1
 2471 0a5c 00       		.byte	0
 2472 0a5d 26       		.uleb128 0x26
 2473 0a5e EB040000 		.4byte	.LASF108
 2474 0a62 01       		.byte	0x1
 2475 0a63 9D       		.byte	0x9d
 2476 0a64 07       		.byte	0x7
 2477 0a65 FB000000 		.4byte	0xfb
 2478 0a69 00000000 		.4byte	.LFB10
 2479 0a6d 68000000 		.4byte	.LFE10-.LFB10
 2480 0a71 01       		.uleb128 0x1
 2481 0a72 9C       		.byte	0x9c
 2482 0a73 1C0B0000 		.4byte	0xb1c
 2483 0a77 27       		.uleb128 0x27
 2484 0a78 737000   		.ascii	"sp\000"
 2485 0a7b 01       		.byte	0x1
 2486 0a7c 9D       		.byte	0x9d
 2487 0a7d 1C       		.byte	0x1c
 2488 0a7e A1070000 		.4byte	0x7a1
 2489 0a82 C0030000 		.4byte	.LLST7
 2490 0a86 B6030000 		.4byte	.LVUS7
 2491 0a8a 29       		.uleb128 0x29
 2492 0a8b 6D736700 		.ascii	"msg\000"
 2493 0a8f 01       		.byte	0x1
 2494 0a90 9E       		.byte	0x9e
 2495 0a91 09       		.byte	0x9
 2496 0a92 FB000000 		.4byte	0xfb
 2497 0a96 09040000 		.4byte	.LLST8
 2498 0a9a 05040000 		.4byte	.LVUS8
 2499 0a9e 2A       		.uleb128 0x2a
 2500 0a9f 400A0000 		.4byte	0xa40
 2501 0aa3 04000000 		.4byte	.LBI38
 2502 0aa7 03       		.byte	.LVU58
 2503 0aa8 18000000 		.4byte	.Ldebug_ranges0+0x18
 2504 0aac 01       		.byte	0x1
 2505 0aad A1       		.byte	0xa1
 2506 0aae 09       		.byte	0x9
 2507 0aaf 19       		.uleb128 0x19
 2508 0ab0 510A0000 		.4byte	0xa51
ARM GAS  /var/folders/l5/0x54b2c10074c8bt31ycjvl80000gp/T//ccxMzJPy.s 			page 45


 2509 0ab4 2F040000 		.4byte	.LLST9
 2510 0ab8 27040000 		.4byte	.LVUS9
 2511 0abc 2A       		.uleb128 0x2a
 2512 0abd 400A0000 		.4byte	0xa40
 2513 0ac1 28000000 		.4byte	.LBI40
 2514 0ac5 00       		.byte	.LVU76
 2515 0ac6 38000000 		.4byte	.Ldebug_ranges0+0x38
 2516 0aca 01       		.byte	0x1
 2517 0acb B2       		.byte	0xb2
 2518 0acc 07       		.byte	0x7
 2519 0acd 19       		.uleb128 0x19
 2520 0ace 510A0000 		.4byte	0xa51
 2521 0ad2 6A040000 		.4byte	.LLST10
 2522 0ad6 66040000 		.4byte	.LVUS10
 2523 0ada 2C       		.uleb128 0x2c
 2524 0adb 940C0000 		.4byte	0xc94
 2525 0adf 40000000 		.4byte	.LBI42
 2526 0ae3 01       		.byte	.LVU85
 2527 0ae4 50000000 		.4byte	.Ldebug_ranges0+0x50
 2528 0ae8 01       		.byte	0x1
 2529 0ae9 BD       		.byte	0xbd
 2530 0aea 05       		.byte	0x5
 2531 0aeb 0A0B0000 		.4byte	0xb0a
 2532 0aef 19       		.uleb128 0x19
 2533 0af0 AC0C0000 		.4byte	0xcac
 2534 0af4 8D040000 		.4byte	.LLST11
 2535 0af8 8B040000 		.4byte	.LVUS11
 2536 0afc 19       		.uleb128 0x19
 2537 0afd A10C0000 		.4byte	0xca1
 2538 0b01 A2040000 		.4byte	.LLST12
 2539 0b05 A0040000 		.4byte	.LVUS12
 2540 0b09 00       		.byte	0
 2541 0b0a 1A       		.uleb128 0x1a
 2542 0b0b 54000000 		.4byte	.LVL21
 2543 0b0f D50D0000 		.4byte	0xdd5
 2544 0b13 1B       		.uleb128 0x1b
 2545 0b14 01       		.uleb128 0x1
 2546 0b15 50       		.byte	0x50
 2547 0b16 01       		.uleb128 0x1
 2548 0b17 33       		.byte	0x33
 2549 0b18 00       		.byte	0
 2550 0b19 00       		.byte	0
 2551 0b1a 00       		.byte	0
 2552 0b1b 00       		.byte	0
 2553 0b1c 2D       		.uleb128 0x2d
 2554 0b1d 47050000 		.4byte	.LASF109
 2555 0b21 01       		.byte	0x1
 2556 0b22 81       		.byte	0x81
 2557 0b23 06       		.byte	0x6
 2558 0b24 00000000 		.4byte	.LFB9
 2559 0b28 48000000 		.4byte	.LFE9-.LFB9
 2560 0b2c 01       		.uleb128 0x1
 2561 0b2d 9C       		.byte	0x9c
 2562 0b2e AB0B0000 		.4byte	0xbab
 2563 0b32 27       		.uleb128 0x27
 2564 0b33 737000   		.ascii	"sp\000"
 2565 0b36 01       		.byte	0x1
ARM GAS  /var/folders/l5/0x54b2c10074c8bt31ycjvl80000gp/T//ccxMzJPy.s 			page 46


 2566 0b37 81       		.byte	0x81
 2567 0b38 1D       		.byte	0x1d
 2568 0b39 A1070000 		.4byte	0x7a1
 2569 0b3d B9040000 		.4byte	.LLST0
 2570 0b41 B5040000 		.4byte	.LVUS0
 2571 0b45 27       		.uleb128 0x27
 2572 0b46 6E00     		.ascii	"n\000"
 2573 0b48 01       		.byte	0x1
 2574 0b49 81       		.byte	0x81
 2575 0b4a 27       		.byte	0x27
 2576 0b4b 24010000 		.4byte	0x124
 2577 0b4f DB040000 		.4byte	.LLST1
 2578 0b53 D7040000 		.4byte	.LVUS1
 2579 0b57 29       		.uleb128 0x29
 2580 0b58 636E7400 		.ascii	"cnt\000"
 2581 0b5c 01       		.byte	0x1
 2582 0b5d 82       		.byte	0x82
 2583 0b5e 09       		.byte	0x9
 2584 0b5f 24010000 		.4byte	0x124
 2585 0b63 02050000 		.4byte	.LLST2
 2586 0b67 FC040000 		.4byte	.LVUS2
 2587 0b6b 2C       		.uleb128 0x2c
 2588 0b6c 3C0C0000 		.4byte	0xc3c
 2589 0b70 20000000 		.4byte	.LBI28
 2590 0b74 01       		.byte	.LVU26
 2591 0b75 00000000 		.4byte	.Ldebug_ranges0+0
 2592 0b79 01       		.byte	0x1
 2593 0b7a 8E       		.byte	0x8e
 2594 0b7b 05       		.byte	0x5
 2595 0b7c A10B0000 		.4byte	0xba1
 2596 0b80 19       		.uleb128 0x19
 2597 0b81 4D0C0000 		.4byte	0xc4d
 2598 0b85 2F050000 		.4byte	.LLST3
 2599 0b89 2D050000 		.4byte	.LVUS3
 2600 0b8d 21       		.uleb128 0x21
 2601 0b8e 00000000 		.4byte	.Ldebug_ranges0+0
 2602 0b92 1E       		.uleb128 0x1e
 2603 0b93 590C0000 		.4byte	0xc59
 2604 0b97 44050000 		.4byte	.LLST4
 2605 0b9b 42050000 		.4byte	.LVUS4
 2606 0b9f 00       		.byte	0
 2607 0ba0 00       		.byte	0
 2608 0ba1 1F       		.uleb128 0x1f
 2609 0ba2 38000000 		.4byte	.LVL8
 2610 0ba6 ED0D0000 		.4byte	0xded
 2611 0baa 00       		.byte	0
 2612 0bab 2D       		.uleb128 0x2d
 2613 0bac 00020000 		.4byte	.LASF110
 2614 0bb0 01       		.byte	0x1
 2615 0bb1 66       		.byte	0x66
 2616 0bb2 06       		.byte	0x6
 2617 0bb3 00000000 		.4byte	.LFB8
 2618 0bb7 18000000 		.4byte	.LFE8-.LFB8
 2619 0bbb 01       		.uleb128 0x1
 2620 0bbc 9C       		.byte	0x9c
 2621 0bbd 0C0C0000 		.4byte	0xc0c
 2622 0bc1 27       		.uleb128 0x27
ARM GAS  /var/folders/l5/0x54b2c10074c8bt31ycjvl80000gp/T//ccxMzJPy.s 			page 47


 2623 0bc2 737000   		.ascii	"sp\000"
 2624 0bc5 01       		.byte	0x1
 2625 0bc6 66       		.byte	0x66
 2626 0bc7 1C       		.byte	0x1c
 2627 0bc8 A1070000 		.4byte	0x7a1
 2628 0bcc 5B050000 		.4byte	.LLST5
 2629 0bd0 57050000 		.4byte	.LVUS5
 2630 0bd4 27       		.uleb128 0x27
 2631 0bd5 6E00     		.ascii	"n\000"
 2632 0bd7 01       		.byte	0x1
 2633 0bd8 66       		.byte	0x66
 2634 0bd9 26       		.byte	0x26
 2635 0bda 24010000 		.4byte	0x124
 2636 0bde 80050000 		.4byte	.LLST6
 2637 0be2 7C050000 		.4byte	.LVUS6
 2638 0be6 2E       		.uleb128 0x2e
 2639 0be7 0C000000 		.4byte	.LVL11
 2640 0beb 1C0B0000 		.4byte	0xb1c
 2641 0bef 020C0000 		.4byte	0xc02
 2642 0bf3 1B       		.uleb128 0x1b
 2643 0bf4 01       		.uleb128 0x1
 2644 0bf5 50       		.byte	0x50
 2645 0bf6 03       		.uleb128 0x3
 2646 0bf7 F3       		.byte	0xf3
 2647 0bf8 01       		.uleb128 0x1
 2648 0bf9 50       		.byte	0x50
 2649 0bfa 1B       		.uleb128 0x1b
 2650 0bfb 01       		.uleb128 0x1
 2651 0bfc 51       		.byte	0x51
 2652 0bfd 03       		.uleb128 0x3
 2653 0bfe F3       		.byte	0xf3
 2654 0bff 01       		.uleb128 0x1
 2655 0c00 51       		.byte	0x51
 2656 0c01 00       		.byte	0
 2657 0c02 1F       		.uleb128 0x1f
 2658 0c03 10000000 		.4byte	.LVL12
 2659 0c07 E10D0000 		.4byte	0xde1
 2660 0c0b 00       		.byte	0
 2661 0c0c 2D       		.uleb128 0x2d
 2662 0c0d 01060000 		.4byte	.LASF111
 2663 0c11 01       		.byte	0x1
 2664 0c12 4F       		.byte	0x4f
 2665 0c13 06       		.byte	0x6
 2666 0c14 00000000 		.4byte	.LFB7
 2667 0c18 10000000 		.4byte	.LFE7-.LFB7
 2668 0c1c 01       		.uleb128 0x1
 2669 0c1d 9C       		.byte	0x9c
 2670 0c1e 3C0C0000 		.4byte	0xc3c
 2671 0c22 2F       		.uleb128 0x2f
 2672 0c23 737000   		.ascii	"sp\000"
 2673 0c26 01       		.byte	0x1
 2674 0c27 4F       		.byte	0x4f
 2675 0c28 1B       		.byte	0x1b
 2676 0c29 A1070000 		.4byte	0x7a1
 2677 0c2d 01       		.uleb128 0x1
 2678 0c2e 50       		.byte	0x50
 2679 0c2f 2F       		.uleb128 0x2f
ARM GAS  /var/folders/l5/0x54b2c10074c8bt31ycjvl80000gp/T//ccxMzJPy.s 			page 48


 2680 0c30 6E00     		.ascii	"n\000"
 2681 0c32 01       		.byte	0x1
 2682 0c33 4F       		.byte	0x4f
 2683 0c34 25       		.byte	0x25
 2684 0c35 24010000 		.4byte	0x124
 2685 0c39 01       		.uleb128 0x1
 2686 0c3a 51       		.byte	0x51
 2687 0c3b 00       		.byte	0
 2688 0c3c 30       		.uleb128 0x30
 2689 0c3d FC040000 		.4byte	.LASF112
 2690 0c41 02       		.byte	0x2
 2691 0c42 3B       		.byte	0x3b
 2692 0c43 17       		.byte	0x17
 2693 0c44 58020000 		.4byte	0x258
 2694 0c48 03       		.byte	0x3
 2695 0c49 650C0000 		.4byte	0xc65
 2696 0c4d 24       		.uleb128 0x24
 2697 0c4e 74717000 		.ascii	"tqp\000"
 2698 0c52 02       		.byte	0x2
 2699 0c53 3B       		.byte	0x3b
 2700 0c54 31       		.byte	0x31
 2701 0c55 650C0000 		.4byte	0xc65
 2702 0c59 31       		.uleb128 0x31
 2703 0c5a 747000   		.ascii	"tp\000"
 2704 0c5d 02       		.byte	0x2
 2705 0c5e 3C       		.byte	0x3c
 2706 0c5f 0B       		.byte	0xb
 2707 0c60 58020000 		.4byte	0x258
 2708 0c64 00       		.byte	0
 2709 0c65 0A       		.uleb128 0xa
 2710 0c66 04       		.byte	0x4
 2711 0c67 5E020000 		.4byte	0x25e
 2712 0c6b 30       		.uleb128 0x30
 2713 0c6c 90040000 		.4byte	.LASF113
 2714 0c70 02       		.byte	0x2
 2715 0c71 34       		.byte	0x34
 2716 0c72 17       		.byte	0x17
 2717 0c73 58020000 		.4byte	0x258
 2718 0c77 03       		.byte	0x3
 2719 0c78 940C0000 		.4byte	0xc94
 2720 0c7c 24       		.uleb128 0x24
 2721 0c7d 74717000 		.ascii	"tqp\000"
 2722 0c81 02       		.byte	0x2
 2723 0c82 34       		.byte	0x34
 2724 0c83 31       		.byte	0x31
 2725 0c84 650C0000 		.4byte	0xc65
 2726 0c88 31       		.uleb128 0x31
 2727 0c89 747000   		.ascii	"tp\000"
 2728 0c8c 02       		.byte	0x2
 2729 0c8d 35       		.byte	0x35
 2730 0c8e 0B       		.byte	0xb
 2731 0c8f 58020000 		.4byte	0x258
 2732 0c93 00       		.byte	0
 2733 0c94 32       		.uleb128 0x32
 2734 0c95 13000000 		.4byte	.LASF122
 2735 0c99 02       		.byte	0x2
 2736 0c9a 2D       		.byte	0x2d
ARM GAS  /var/folders/l5/0x54b2c10074c8bt31ycjvl80000gp/T//ccxMzJPy.s 			page 49


 2737 0c9b 14       		.byte	0x14
 2738 0c9c 03       		.byte	0x3
 2739 0c9d B90C0000 		.4byte	0xcb9
 2740 0ca1 24       		.uleb128 0x24
 2741 0ca2 747000   		.ascii	"tp\000"
 2742 0ca5 02       		.byte	0x2
 2743 0ca6 2D       		.byte	0x2d
 2744 0ca7 29       		.byte	0x29
 2745 0ca8 58020000 		.4byte	0x258
 2746 0cac 24       		.uleb128 0x24
 2747 0cad 74717000 		.ascii	"tqp\000"
 2748 0cb1 02       		.byte	0x2
 2749 0cb2 2D       		.byte	0x2d
 2750 0cb3 3B       		.byte	0x3b
 2751 0cb4 650C0000 		.4byte	0xc65
 2752 0cb8 00       		.byte	0
 2753 0cb9 33       		.uleb128 0x33
 2754 0cba 400A0000 		.4byte	0xa40
 2755 0cbe 00000000 		.4byte	.LFB11
 2756 0cc2 5C000000 		.4byte	.LFE11-.LFB11
 2757 0cc6 01       		.uleb128 0x1
 2758 0cc7 9C       		.byte	0x9c
 2759 0cc8 380D0000 		.4byte	0xd38
 2760 0ccc 19       		.uleb128 0x19
 2761 0ccd 510A0000 		.4byte	0xa51
 2762 0cd1 AB050000 		.4byte	.LLST13
 2763 0cd5 A1050000 		.4byte	.LVUS13
 2764 0cd9 2A       		.uleb128 0x2a
 2765 0cda 400A0000 		.4byte	0xa40
 2766 0cde 20000000 		.4byte	.LBI56
 2767 0ce2 00       		.byte	.LVU116
 2768 0ce3 68000000 		.4byte	.Ldebug_ranges0+0x68
 2769 0ce7 01       		.byte	0x1
 2770 0ce8 B2       		.byte	0xb2
 2771 0ce9 07       		.byte	0x7
 2772 0cea 19       		.uleb128 0x19
 2773 0ceb 510A0000 		.4byte	0xa51
 2774 0cef F4050000 		.4byte	.LLST14
 2775 0cf3 F0050000 		.4byte	.LVUS14
 2776 0cf7 2C       		.uleb128 0x2c
 2777 0cf8 940C0000 		.4byte	0xc94
 2778 0cfc 38000000 		.4byte	.LBI58
 2779 0d00 01       		.byte	.LVU125
 2780 0d01 80000000 		.4byte	.Ldebug_ranges0+0x80
 2781 0d05 01       		.byte	0x1
 2782 0d06 BD       		.byte	0xbd
 2783 0d07 05       		.byte	0x5
 2784 0d08 270D0000 		.4byte	0xd27
 2785 0d0c 19       		.uleb128 0x19
 2786 0d0d AC0C0000 		.4byte	0xcac
 2787 0d11 17060000 		.4byte	.LLST15
 2788 0d15 15060000 		.4byte	.LVUS15
 2789 0d19 19       		.uleb128 0x19
 2790 0d1a A10C0000 		.4byte	0xca1
 2791 0d1e 2C060000 		.4byte	.LLST16
 2792 0d22 2A060000 		.4byte	.LVUS16
 2793 0d26 00       		.byte	0
ARM GAS  /var/folders/l5/0x54b2c10074c8bt31ycjvl80000gp/T//ccxMzJPy.s 			page 50


 2794 0d27 1A       		.uleb128 0x1a
 2795 0d28 4C000000 		.4byte	.LVL30
 2796 0d2c D50D0000 		.4byte	0xdd5
 2797 0d30 1B       		.uleb128 0x1b
 2798 0d31 01       		.uleb128 0x1
 2799 0d32 50       		.byte	0x50
 2800 0d33 01       		.uleb128 0x1
 2801 0d34 33       		.byte	0x33
 2802 0d35 00       		.byte	0
 2803 0d36 00       		.byte	0
 2804 0d37 00       		.byte	0
 2805 0d38 33       		.uleb128 0x33
 2806 0d39 2A090000 		.4byte	0x92a
 2807 0d3d 00000000 		.4byte	.LFB13
 2808 0d41 5C000000 		.4byte	.LFE13-.LFB13
 2809 0d45 01       		.uleb128 0x1
 2810 0d46 9C       		.byte	0x9c
 2811 0d47 D50D0000 		.4byte	0xdd5
 2812 0d4b 19       		.uleb128 0x19
 2813 0d4c 3B090000 		.4byte	0x93b
 2814 0d50 47060000 		.4byte	.LLST25
 2815 0d54 3F060000 		.4byte	.LVUS25
 2816 0d58 19       		.uleb128 0x19
 2817 0d59 46090000 		.4byte	0x946
 2818 0d5d 84060000 		.4byte	.LLST26
 2819 0d61 7E060000 		.4byte	.LVUS26
 2820 0d65 34       		.uleb128 0x34
 2821 0d66 2A090000 		.4byte	0x92a
 2822 0d6a 28000000 		.4byte	.LBI88
 2823 0d6e 00       		.byte	.LVU208
 2824 0d6f 28000000 		.4byte	.LBB88
 2825 0d73 24000000 		.4byte	.LBE88-.LBB88
 2826 0d77 01       		.byte	0x1
 2827 0d78 F3       		.byte	0xf3
 2828 0d79 07       		.byte	0x7
 2829 0d7a 2B       		.uleb128 0x2b
 2830 0d7b 46090000 		.4byte	0x946
 2831 0d7f 19       		.uleb128 0x19
 2832 0d80 3B090000 		.4byte	0x93b
 2833 0d84 B4060000 		.4byte	.LLST27
 2834 0d88 B0060000 		.4byte	.LVUS27
 2835 0d8c 18       		.uleb128 0x18
 2836 0d8d 940C0000 		.4byte	0xc94
 2837 0d91 3C000000 		.4byte	.LBI90
 2838 0d95 01       		.byte	.LVU215
 2839 0d96 E8000000 		.4byte	.Ldebug_ranges0+0xe8
 2840 0d9a 01       		.byte	0x1
 2841 0d9b 0201     		.2byte	0x102
 2842 0d9d 05       		.byte	0x5
 2843 0d9e BD0D0000 		.4byte	0xdbd
 2844 0da2 19       		.uleb128 0x19
 2845 0da3 AC0C0000 		.4byte	0xcac
 2846 0da7 D7060000 		.4byte	.LLST28
 2847 0dab D5060000 		.4byte	.LVUS28
 2848 0daf 19       		.uleb128 0x19
 2849 0db0 A10C0000 		.4byte	0xca1
 2850 0db4 EC060000 		.4byte	.LLST29
ARM GAS  /var/folders/l5/0x54b2c10074c8bt31ycjvl80000gp/T//ccxMzJPy.s 			page 51


 2851 0db8 EA060000 		.4byte	.LVUS29
 2852 0dbc 00       		.byte	0
 2853 0dbd 35       		.uleb128 0x35
 2854 0dbe 4C000000 		.4byte	.LVL47
 2855 0dc2 050E0000 		.4byte	0xe05
 2856 0dc6 1B       		.uleb128 0x1b
 2857 0dc7 01       		.uleb128 0x1
 2858 0dc8 50       		.byte	0x50
 2859 0dc9 01       		.uleb128 0x1
 2860 0dca 33       		.byte	0x33
 2861 0dcb 1B       		.uleb128 0x1b
 2862 0dcc 01       		.uleb128 0x1
 2863 0dcd 51       		.byte	0x51
 2864 0dce 03       		.uleb128 0x3
 2865 0dcf F3       		.byte	0xf3
 2866 0dd0 01       		.uleb128 0x1
 2867 0dd1 51       		.byte	0x51
 2868 0dd2 00       		.byte	0
 2869 0dd3 00       		.byte	0
 2870 0dd4 00       		.byte	0
 2871 0dd5 36       		.uleb128 0x36
 2872 0dd6 48040000 		.4byte	.LASF114
 2873 0dda 48040000 		.4byte	.LASF114
 2874 0dde 0A       		.byte	0xa
 2875 0ddf 8C       		.byte	0x8c
 2876 0de0 08       		.byte	0x8
 2877 0de1 36       		.uleb128 0x36
 2878 0de2 52010000 		.4byte	.LASF115
 2879 0de6 52010000 		.4byte	.LASF115
 2880 0dea 0A       		.byte	0xa
 2881 0deb 95       		.byte	0x95
 2882 0dec 08       		.byte	0x8
 2883 0ded 36       		.uleb128 0x36
 2884 0dee B9040000 		.4byte	.LASF116
 2885 0df2 B9040000 		.4byte	.LASF116
 2886 0df6 0A       		.byte	0xa
 2887 0df7 89       		.byte	0x89
 2888 0df8 0B       		.byte	0xb
 2889 0df9 36       		.uleb128 0x36
 2890 0dfa 0B020000 		.4byte	.LASF117
 2891 0dfe 0B020000 		.4byte	.LASF117
 2892 0e02 0A       		.byte	0xa
 2893 0e03 92       		.byte	0x92
 2894 0e04 08       		.byte	0x8
 2895 0e05 36       		.uleb128 0x36
 2896 0e06 7A050000 		.4byte	.LASF118
 2897 0e0a 7A050000 		.4byte	.LASF118
 2898 0e0e 0A       		.byte	0xa
 2899 0e0f 8F       		.byte	0x8f
 2900 0e10 09       		.byte	0x9
 2901 0e11 00       		.byte	0
 2902              		.section	.debug_abbrev,"",%progbits
 2903              	.Ldebug_abbrev0:
 2904 0000 01       		.uleb128 0x1
 2905 0001 11       		.uleb128 0x11
 2906 0002 01       		.byte	0x1
 2907 0003 25       		.uleb128 0x25
ARM GAS  /var/folders/l5/0x54b2c10074c8bt31ycjvl80000gp/T//ccxMzJPy.s 			page 52


 2908 0004 0E       		.uleb128 0xe
 2909 0005 13       		.uleb128 0x13
 2910 0006 0B       		.uleb128 0xb
 2911 0007 03       		.uleb128 0x3
 2912 0008 0E       		.uleb128 0xe
 2913 0009 1B       		.uleb128 0x1b
 2914 000a 0E       		.uleb128 0xe
 2915 000b 55       		.uleb128 0x55
 2916 000c 17       		.uleb128 0x17
 2917 000d 11       		.uleb128 0x11
 2918 000e 01       		.uleb128 0x1
 2919 000f 10       		.uleb128 0x10
 2920 0010 17       		.uleb128 0x17
 2921 0011 00       		.byte	0
 2922 0012 00       		.byte	0
 2923 0013 02       		.uleb128 0x2
 2924 0014 24       		.uleb128 0x24
 2925 0015 00       		.byte	0
 2926 0016 0B       		.uleb128 0xb
 2927 0017 0B       		.uleb128 0xb
 2928 0018 3E       		.uleb128 0x3e
 2929 0019 0B       		.uleb128 0xb
 2930 001a 03       		.uleb128 0x3
 2931 001b 08       		.uleb128 0x8
 2932 001c 00       		.byte	0
 2933 001d 00       		.byte	0
 2934 001e 03       		.uleb128 0x3
 2935 001f 24       		.uleb128 0x24
 2936 0020 00       		.byte	0
 2937 0021 0B       		.uleb128 0xb
 2938 0022 0B       		.uleb128 0xb
 2939 0023 3E       		.uleb128 0x3e
 2940 0024 0B       		.uleb128 0xb
 2941 0025 03       		.uleb128 0x3
 2942 0026 0E       		.uleb128 0xe
 2943 0027 00       		.byte	0
 2944 0028 00       		.byte	0
 2945 0029 04       		.uleb128 0x4
 2946 002a 16       		.uleb128 0x16
 2947 002b 00       		.byte	0
 2948 002c 03       		.uleb128 0x3
 2949 002d 0E       		.uleb128 0xe
 2950 002e 3A       		.uleb128 0x3a
 2951 002f 0B       		.uleb128 0xb
 2952 0030 3B       		.uleb128 0x3b
 2953 0031 0B       		.uleb128 0xb
 2954 0032 39       		.uleb128 0x39
 2955 0033 0B       		.uleb128 0xb
 2956 0034 49       		.uleb128 0x49
 2957 0035 13       		.uleb128 0x13
 2958 0036 00       		.byte	0
 2959 0037 00       		.byte	0
 2960 0038 05       		.uleb128 0x5
 2961 0039 35       		.uleb128 0x35
 2962 003a 00       		.byte	0
 2963 003b 49       		.uleb128 0x49
 2964 003c 13       		.uleb128 0x13
ARM GAS  /var/folders/l5/0x54b2c10074c8bt31ycjvl80000gp/T//ccxMzJPy.s 			page 53


 2965 003d 00       		.byte	0
 2966 003e 00       		.byte	0
 2967 003f 06       		.uleb128 0x6
 2968 0040 13       		.uleb128 0x13
 2969 0041 01       		.byte	0x1
 2970 0042 03       		.uleb128 0x3
 2971 0043 0E       		.uleb128 0xe
 2972 0044 0B       		.uleb128 0xb
 2973 0045 0B       		.uleb128 0xb
 2974 0046 3A       		.uleb128 0x3a
 2975 0047 0B       		.uleb128 0xb
 2976 0048 3B       		.uleb128 0x3b
 2977 0049 0B       		.uleb128 0xb
 2978 004a 39       		.uleb128 0x39
 2979 004b 0B       		.uleb128 0xb
 2980 004c 01       		.uleb128 0x1
 2981 004d 13       		.uleb128 0x13
 2982 004e 00       		.byte	0
 2983 004f 00       		.byte	0
 2984 0050 07       		.uleb128 0x7
 2985 0051 0D       		.uleb128 0xd
 2986 0052 00       		.byte	0
 2987 0053 03       		.uleb128 0x3
 2988 0054 0E       		.uleb128 0xe
 2989 0055 3A       		.uleb128 0x3a
 2990 0056 0B       		.uleb128 0xb
 2991 0057 3B       		.uleb128 0x3b
 2992 0058 0B       		.uleb128 0xb
 2993 0059 39       		.uleb128 0x39
 2994 005a 0B       		.uleb128 0xb
 2995 005b 49       		.uleb128 0x49
 2996 005c 13       		.uleb128 0x13
 2997 005d 38       		.uleb128 0x38
 2998 005e 0B       		.uleb128 0xb
 2999 005f 00       		.byte	0
 3000 0060 00       		.byte	0
 3001 0061 08       		.uleb128 0x8
 3002 0062 0D       		.uleb128 0xd
 3003 0063 00       		.byte	0
 3004 0064 03       		.uleb128 0x3
 3005 0065 08       		.uleb128 0x8
 3006 0066 3A       		.uleb128 0x3a
 3007 0067 0B       		.uleb128 0xb
 3008 0068 3B       		.uleb128 0x3b
 3009 0069 0B       		.uleb128 0xb
 3010 006a 39       		.uleb128 0x39
 3011 006b 0B       		.uleb128 0xb
 3012 006c 49       		.uleb128 0x49
 3013 006d 13       		.uleb128 0x13
 3014 006e 38       		.uleb128 0x38
 3015 006f 0B       		.uleb128 0xb
 3016 0070 00       		.byte	0
 3017 0071 00       		.byte	0
 3018 0072 09       		.uleb128 0x9
 3019 0073 13       		.uleb128 0x13
 3020 0074 01       		.byte	0x1
 3021 0075 0B       		.uleb128 0xb
ARM GAS  /var/folders/l5/0x54b2c10074c8bt31ycjvl80000gp/T//ccxMzJPy.s 			page 54


 3022 0076 0B       		.uleb128 0xb
 3023 0077 3A       		.uleb128 0x3a
 3024 0078 0B       		.uleb128 0xb
 3025 0079 3B       		.uleb128 0x3b
 3026 007a 0B       		.uleb128 0xb
 3027 007b 39       		.uleb128 0x39
 3028 007c 0B       		.uleb128 0xb
 3029 007d 01       		.uleb128 0x1
 3030 007e 13       		.uleb128 0x13
 3031 007f 00       		.byte	0
 3032 0080 00       		.byte	0
 3033 0081 0A       		.uleb128 0xa
 3034 0082 0F       		.uleb128 0xf
 3035 0083 00       		.byte	0
 3036 0084 0B       		.uleb128 0xb
 3037 0085 0B       		.uleb128 0xb
 3038 0086 49       		.uleb128 0x49
 3039 0087 13       		.uleb128 0x13
 3040 0088 00       		.byte	0
 3041 0089 00       		.byte	0
 3042 008a 0B       		.uleb128 0xb
 3043 008b 0F       		.uleb128 0xf
 3044 008c 00       		.byte	0
 3045 008d 0B       		.uleb128 0xb
 3046 008e 0B       		.uleb128 0xb
 3047 008f 00       		.byte	0
 3048 0090 00       		.byte	0
 3049 0091 0C       		.uleb128 0xc
 3050 0092 15       		.uleb128 0x15
 3051 0093 01       		.byte	0x1
 3052 0094 27       		.uleb128 0x27
 3053 0095 19       		.uleb128 0x19
 3054 0096 01       		.uleb128 0x1
 3055 0097 13       		.uleb128 0x13
 3056 0098 00       		.byte	0
 3057 0099 00       		.byte	0
 3058 009a 0D       		.uleb128 0xd
 3059 009b 05       		.uleb128 0x5
 3060 009c 00       		.byte	0
 3061 009d 49       		.uleb128 0x49
 3062 009e 13       		.uleb128 0x13
 3063 009f 00       		.byte	0
 3064 00a0 00       		.byte	0
 3065 00a1 0E       		.uleb128 0xe
 3066 00a2 34       		.uleb128 0x34
 3067 00a3 00       		.byte	0
 3068 00a4 03       		.uleb128 0x3
 3069 00a5 0E       		.uleb128 0xe
 3070 00a6 3A       		.uleb128 0x3a
 3071 00a7 0B       		.uleb128 0xb
 3072 00a8 3B       		.uleb128 0x3b
 3073 00a9 0B       		.uleb128 0xb
 3074 00aa 39       		.uleb128 0x39
 3075 00ab 0B       		.uleb128 0xb
 3076 00ac 49       		.uleb128 0x49
 3077 00ad 13       		.uleb128 0x13
 3078 00ae 3F       		.uleb128 0x3f
ARM GAS  /var/folders/l5/0x54b2c10074c8bt31ycjvl80000gp/T//ccxMzJPy.s 			page 55


 3079 00af 19       		.uleb128 0x19
 3080 00b0 3C       		.uleb128 0x3c
 3081 00b1 19       		.uleb128 0x19
 3082 00b2 00       		.byte	0
 3083 00b3 00       		.byte	0
 3084 00b4 0F       		.uleb128 0xf
 3085 00b5 17       		.uleb128 0x17
 3086 00b6 01       		.byte	0x1
 3087 00b7 0B       		.uleb128 0xb
 3088 00b8 0B       		.uleb128 0xb
 3089 00b9 3A       		.uleb128 0x3a
 3090 00ba 0B       		.uleb128 0xb
 3091 00bb 3B       		.uleb128 0x3b
 3092 00bc 0B       		.uleb128 0xb
 3093 00bd 39       		.uleb128 0x39
 3094 00be 0B       		.uleb128 0xb
 3095 00bf 01       		.uleb128 0x1
 3096 00c0 13       		.uleb128 0x13
 3097 00c1 00       		.byte	0
 3098 00c2 00       		.byte	0
 3099 00c3 10       		.uleb128 0x10
 3100 00c4 0D       		.uleb128 0xd
 3101 00c5 00       		.byte	0
 3102 00c6 03       		.uleb128 0x3
 3103 00c7 0E       		.uleb128 0xe
 3104 00c8 3A       		.uleb128 0x3a
 3105 00c9 0B       		.uleb128 0xb
 3106 00ca 3B       		.uleb128 0x3b
 3107 00cb 0B       		.uleb128 0xb
 3108 00cc 39       		.uleb128 0x39
 3109 00cd 0B       		.uleb128 0xb
 3110 00ce 49       		.uleb128 0x49
 3111 00cf 13       		.uleb128 0x13
 3112 00d0 00       		.byte	0
 3113 00d1 00       		.byte	0
 3114 00d2 11       		.uleb128 0x11
 3115 00d3 26       		.uleb128 0x26
 3116 00d4 00       		.byte	0
 3117 00d5 49       		.uleb128 0x49
 3118 00d6 13       		.uleb128 0x13
 3119 00d7 00       		.byte	0
 3120 00d8 00       		.byte	0
 3121 00d9 12       		.uleb128 0x12
 3122 00da 01       		.uleb128 0x1
 3123 00db 01       		.byte	0x1
 3124 00dc 49       		.uleb128 0x49
 3125 00dd 13       		.uleb128 0x13
 3126 00de 01       		.uleb128 0x1
 3127 00df 13       		.uleb128 0x13
 3128 00e0 00       		.byte	0
 3129 00e1 00       		.byte	0
 3130 00e2 13       		.uleb128 0x13
 3131 00e3 21       		.uleb128 0x21
 3132 00e4 00       		.byte	0
 3133 00e5 49       		.uleb128 0x49
 3134 00e6 13       		.uleb128 0x13
 3135 00e7 2F       		.uleb128 0x2f
ARM GAS  /var/folders/l5/0x54b2c10074c8bt31ycjvl80000gp/T//ccxMzJPy.s 			page 56


 3136 00e8 0B       		.uleb128 0xb
 3137 00e9 00       		.byte	0
 3138 00ea 00       		.byte	0
 3139 00eb 14       		.uleb128 0x14
 3140 00ec 2E       		.uleb128 0x2e
 3141 00ed 01       		.byte	0x1
 3142 00ee 3F       		.uleb128 0x3f
 3143 00ef 19       		.uleb128 0x19
 3144 00f0 03       		.uleb128 0x3
 3145 00f1 0E       		.uleb128 0xe
 3146 00f2 3A       		.uleb128 0x3a
 3147 00f3 0B       		.uleb128 0xb
 3148 00f4 3B       		.uleb128 0x3b
 3149 00f5 05       		.uleb128 0x5
 3150 00f6 39       		.uleb128 0x39
 3151 00f7 0B       		.uleb128 0xb
 3152 00f8 27       		.uleb128 0x27
 3153 00f9 19       		.uleb128 0x19
 3154 00fa 49       		.uleb128 0x49
 3155 00fb 13       		.uleb128 0x13
 3156 00fc 11       		.uleb128 0x11
 3157 00fd 01       		.uleb128 0x1
 3158 00fe 12       		.uleb128 0x12
 3159 00ff 06       		.uleb128 0x6
 3160 0100 40       		.uleb128 0x40
 3161 0101 18       		.uleb128 0x18
 3162 0102 9742     		.uleb128 0x2117
 3163 0104 19       		.uleb128 0x19
 3164 0105 01       		.uleb128 0x1
 3165 0106 13       		.uleb128 0x13
 3166 0107 00       		.byte	0
 3167 0108 00       		.byte	0
 3168 0109 15       		.uleb128 0x15
 3169 010a 05       		.uleb128 0x5
 3170 010b 00       		.byte	0
 3171 010c 03       		.uleb128 0x3
 3172 010d 08       		.uleb128 0x8
 3173 010e 3A       		.uleb128 0x3a
 3174 010f 0B       		.uleb128 0xb
 3175 0110 3B       		.uleb128 0x3b
 3176 0111 05       		.uleb128 0x5
 3177 0112 39       		.uleb128 0x39
 3178 0113 0B       		.uleb128 0xb
 3179 0114 49       		.uleb128 0x49
 3180 0115 13       		.uleb128 0x13
 3181 0116 02       		.uleb128 0x2
 3182 0117 17       		.uleb128 0x17
 3183 0118 B742     		.uleb128 0x2137
 3184 011a 17       		.uleb128 0x17
 3185 011b 00       		.byte	0
 3186 011c 00       		.byte	0
 3187 011d 16       		.uleb128 0x16
 3188 011e 34       		.uleb128 0x34
 3189 011f 00       		.byte	0
 3190 0120 03       		.uleb128 0x3
 3191 0121 08       		.uleb128 0x8
 3192 0122 3A       		.uleb128 0x3a
ARM GAS  /var/folders/l5/0x54b2c10074c8bt31ycjvl80000gp/T//ccxMzJPy.s 			page 57


 3193 0123 0B       		.uleb128 0xb
 3194 0124 3B       		.uleb128 0x3b
 3195 0125 05       		.uleb128 0x5
 3196 0126 39       		.uleb128 0x39
 3197 0127 0B       		.uleb128 0xb
 3198 0128 49       		.uleb128 0x49
 3199 0129 13       		.uleb128 0x13
 3200 012a 02       		.uleb128 0x2
 3201 012b 17       		.uleb128 0x17
 3202 012c B742     		.uleb128 0x2137
 3203 012e 17       		.uleb128 0x17
 3204 012f 00       		.byte	0
 3205 0130 00       		.byte	0
 3206 0131 17       		.uleb128 0x17
 3207 0132 0B       		.uleb128 0xb
 3208 0133 01       		.byte	0x1
 3209 0134 11       		.uleb128 0x11
 3210 0135 01       		.uleb128 0x1
 3211 0136 12       		.uleb128 0x12
 3212 0137 06       		.uleb128 0x6
 3213 0138 01       		.uleb128 0x1
 3214 0139 13       		.uleb128 0x13
 3215 013a 00       		.byte	0
 3216 013b 00       		.byte	0
 3217 013c 18       		.uleb128 0x18
 3218 013d 1D       		.uleb128 0x1d
 3219 013e 01       		.byte	0x1
 3220 013f 31       		.uleb128 0x31
 3221 0140 13       		.uleb128 0x13
 3222 0141 52       		.uleb128 0x52
 3223 0142 01       		.uleb128 0x1
 3224 0143 B842     		.uleb128 0x2138
 3225 0145 0B       		.uleb128 0xb
 3226 0146 55       		.uleb128 0x55
 3227 0147 17       		.uleb128 0x17
 3228 0148 58       		.uleb128 0x58
 3229 0149 0B       		.uleb128 0xb
 3230 014a 59       		.uleb128 0x59
 3231 014b 05       		.uleb128 0x5
 3232 014c 57       		.uleb128 0x57
 3233 014d 0B       		.uleb128 0xb
 3234 014e 01       		.uleb128 0x1
 3235 014f 13       		.uleb128 0x13
 3236 0150 00       		.byte	0
 3237 0151 00       		.byte	0
 3238 0152 19       		.uleb128 0x19
 3239 0153 05       		.uleb128 0x5
 3240 0154 00       		.byte	0
 3241 0155 31       		.uleb128 0x31
 3242 0156 13       		.uleb128 0x13
 3243 0157 02       		.uleb128 0x2
 3244 0158 17       		.uleb128 0x17
 3245 0159 B742     		.uleb128 0x2137
 3246 015b 17       		.uleb128 0x17
 3247 015c 00       		.byte	0
 3248 015d 00       		.byte	0
 3249 015e 1A       		.uleb128 0x1a
ARM GAS  /var/folders/l5/0x54b2c10074c8bt31ycjvl80000gp/T//ccxMzJPy.s 			page 58


 3250 015f 898201   		.uleb128 0x4109
 3251 0162 01       		.byte	0x1
 3252 0163 11       		.uleb128 0x11
 3253 0164 01       		.uleb128 0x1
 3254 0165 31       		.uleb128 0x31
 3255 0166 13       		.uleb128 0x13
 3256 0167 00       		.byte	0
 3257 0168 00       		.byte	0
 3258 0169 1B       		.uleb128 0x1b
 3259 016a 8A8201   		.uleb128 0x410a
 3260 016d 00       		.byte	0
 3261 016e 02       		.uleb128 0x2
 3262 016f 18       		.uleb128 0x18
 3263 0170 9142     		.uleb128 0x2111
 3264 0172 18       		.uleb128 0x18
 3265 0173 00       		.byte	0
 3266 0174 00       		.byte	0
 3267 0175 1C       		.uleb128 0x1c
 3268 0176 1D       		.uleb128 0x1d
 3269 0177 01       		.byte	0x1
 3270 0178 31       		.uleb128 0x31
 3271 0179 13       		.uleb128 0x13
 3272 017a 52       		.uleb128 0x52
 3273 017b 01       		.uleb128 0x1
 3274 017c B842     		.uleb128 0x2138
 3275 017e 0B       		.uleb128 0xb
 3276 017f 11       		.uleb128 0x11
 3277 0180 01       		.uleb128 0x1
 3278 0181 12       		.uleb128 0x12
 3279 0182 06       		.uleb128 0x6
 3280 0183 58       		.uleb128 0x58
 3281 0184 0B       		.uleb128 0xb
 3282 0185 59       		.uleb128 0x59
 3283 0186 05       		.uleb128 0x5
 3284 0187 57       		.uleb128 0x57
 3285 0188 0B       		.uleb128 0xb
 3286 0189 01       		.uleb128 0x1
 3287 018a 13       		.uleb128 0x13
 3288 018b 00       		.byte	0
 3289 018c 00       		.byte	0
 3290 018d 1D       		.uleb128 0x1d
 3291 018e 0B       		.uleb128 0xb
 3292 018f 01       		.byte	0x1
 3293 0190 11       		.uleb128 0x11
 3294 0191 01       		.uleb128 0x1
 3295 0192 12       		.uleb128 0x12
 3296 0193 06       		.uleb128 0x6
 3297 0194 00       		.byte	0
 3298 0195 00       		.byte	0
 3299 0196 1E       		.uleb128 0x1e
 3300 0197 34       		.uleb128 0x34
 3301 0198 00       		.byte	0
 3302 0199 31       		.uleb128 0x31
 3303 019a 13       		.uleb128 0x13
 3304 019b 02       		.uleb128 0x2
 3305 019c 17       		.uleb128 0x17
 3306 019d B742     		.uleb128 0x2137
ARM GAS  /var/folders/l5/0x54b2c10074c8bt31ycjvl80000gp/T//ccxMzJPy.s 			page 59


 3307 019f 17       		.uleb128 0x17
 3308 01a0 00       		.byte	0
 3309 01a1 00       		.byte	0
 3310 01a2 1F       		.uleb128 0x1f
 3311 01a3 898201   		.uleb128 0x4109
 3312 01a6 00       		.byte	0
 3313 01a7 11       		.uleb128 0x11
 3314 01a8 01       		.uleb128 0x1
 3315 01a9 31       		.uleb128 0x31
 3316 01aa 13       		.uleb128 0x13
 3317 01ab 00       		.byte	0
 3318 01ac 00       		.byte	0
 3319 01ad 20       		.uleb128 0x20
 3320 01ae 2E       		.uleb128 0x2e
 3321 01af 01       		.byte	0x1
 3322 01b0 3F       		.uleb128 0x3f
 3323 01b1 19       		.uleb128 0x19
 3324 01b2 03       		.uleb128 0x3
 3325 01b3 0E       		.uleb128 0xe
 3326 01b4 3A       		.uleb128 0x3a
 3327 01b5 0B       		.uleb128 0xb
 3328 01b6 3B       		.uleb128 0x3b
 3329 01b7 05       		.uleb128 0x5
 3330 01b8 39       		.uleb128 0x39
 3331 01b9 0B       		.uleb128 0xb
 3332 01ba 27       		.uleb128 0x27
 3333 01bb 19       		.uleb128 0x19
 3334 01bc 11       		.uleb128 0x11
 3335 01bd 01       		.uleb128 0x1
 3336 01be 12       		.uleb128 0x12
 3337 01bf 06       		.uleb128 0x6
 3338 01c0 40       		.uleb128 0x40
 3339 01c1 18       		.uleb128 0x18
 3340 01c2 9742     		.uleb128 0x2117
 3341 01c4 19       		.uleb128 0x19
 3342 01c5 01       		.uleb128 0x1
 3343 01c6 13       		.uleb128 0x13
 3344 01c7 00       		.byte	0
 3345 01c8 00       		.byte	0
 3346 01c9 21       		.uleb128 0x21
 3347 01ca 0B       		.uleb128 0xb
 3348 01cb 01       		.byte	0x1
 3349 01cc 55       		.uleb128 0x55
 3350 01cd 17       		.uleb128 0x17
 3351 01ce 00       		.byte	0
 3352 01cf 00       		.byte	0
 3353 01d0 22       		.uleb128 0x22
 3354 01d1 898201   		.uleb128 0x4109
 3355 01d4 00       		.byte	0
 3356 01d5 11       		.uleb128 0x11
 3357 01d6 01       		.uleb128 0x1
 3358 01d7 9542     		.uleb128 0x2115
 3359 01d9 19       		.uleb128 0x19
 3360 01da 31       		.uleb128 0x31
 3361 01db 13       		.uleb128 0x13
 3362 01dc 00       		.byte	0
 3363 01dd 00       		.byte	0
ARM GAS  /var/folders/l5/0x54b2c10074c8bt31ycjvl80000gp/T//ccxMzJPy.s 			page 60


 3364 01de 23       		.uleb128 0x23
 3365 01df 2E       		.uleb128 0x2e
 3366 01e0 01       		.byte	0x1
 3367 01e1 3F       		.uleb128 0x3f
 3368 01e2 19       		.uleb128 0x19
 3369 01e3 03       		.uleb128 0x3
 3370 01e4 0E       		.uleb128 0xe
 3371 01e5 3A       		.uleb128 0x3a
 3372 01e6 0B       		.uleb128 0xb
 3373 01e7 3B       		.uleb128 0x3b
 3374 01e8 0B       		.uleb128 0xb
 3375 01e9 39       		.uleb128 0x39
 3376 01ea 0B       		.uleb128 0xb
 3377 01eb 27       		.uleb128 0x27
 3378 01ec 19       		.uleb128 0x19
 3379 01ed 49       		.uleb128 0x49
 3380 01ee 13       		.uleb128 0x13
 3381 01ef 20       		.uleb128 0x20
 3382 01f0 0B       		.uleb128 0xb
 3383 01f1 01       		.uleb128 0x1
 3384 01f2 13       		.uleb128 0x13
 3385 01f3 00       		.byte	0
 3386 01f4 00       		.byte	0
 3387 01f5 24       		.uleb128 0x24
 3388 01f6 05       		.uleb128 0x5
 3389 01f7 00       		.byte	0
 3390 01f8 03       		.uleb128 0x3
 3391 01f9 08       		.uleb128 0x8
 3392 01fa 3A       		.uleb128 0x3a
 3393 01fb 0B       		.uleb128 0xb
 3394 01fc 3B       		.uleb128 0x3b
 3395 01fd 0B       		.uleb128 0xb
 3396 01fe 39       		.uleb128 0x39
 3397 01ff 0B       		.uleb128 0xb
 3398 0200 49       		.uleb128 0x49
 3399 0201 13       		.uleb128 0x13
 3400 0202 00       		.byte	0
 3401 0203 00       		.byte	0
 3402 0204 25       		.uleb128 0x25
 3403 0205 05       		.uleb128 0x5
 3404 0206 00       		.byte	0
 3405 0207 03       		.uleb128 0x3
 3406 0208 0E       		.uleb128 0xe
 3407 0209 3A       		.uleb128 0x3a
 3408 020a 0B       		.uleb128 0xb
 3409 020b 3B       		.uleb128 0x3b
 3410 020c 0B       		.uleb128 0xb
 3411 020d 39       		.uleb128 0x39
 3412 020e 0B       		.uleb128 0xb
 3413 020f 49       		.uleb128 0x49
 3414 0210 13       		.uleb128 0x13
 3415 0211 00       		.byte	0
 3416 0212 00       		.byte	0
 3417 0213 26       		.uleb128 0x26
 3418 0214 2E       		.uleb128 0x2e
 3419 0215 01       		.byte	0x1
 3420 0216 3F       		.uleb128 0x3f
ARM GAS  /var/folders/l5/0x54b2c10074c8bt31ycjvl80000gp/T//ccxMzJPy.s 			page 61


 3421 0217 19       		.uleb128 0x19
 3422 0218 03       		.uleb128 0x3
 3423 0219 0E       		.uleb128 0xe
 3424 021a 3A       		.uleb128 0x3a
 3425 021b 0B       		.uleb128 0xb
 3426 021c 3B       		.uleb128 0x3b
 3427 021d 0B       		.uleb128 0xb
 3428 021e 39       		.uleb128 0x39
 3429 021f 0B       		.uleb128 0xb
 3430 0220 27       		.uleb128 0x27
 3431 0221 19       		.uleb128 0x19
 3432 0222 49       		.uleb128 0x49
 3433 0223 13       		.uleb128 0x13
 3434 0224 11       		.uleb128 0x11
 3435 0225 01       		.uleb128 0x1
 3436 0226 12       		.uleb128 0x12
 3437 0227 06       		.uleb128 0x6
 3438 0228 40       		.uleb128 0x40
 3439 0229 18       		.uleb128 0x18
 3440 022a 9742     		.uleb128 0x2117
 3441 022c 19       		.uleb128 0x19
 3442 022d 01       		.uleb128 0x1
 3443 022e 13       		.uleb128 0x13
 3444 022f 00       		.byte	0
 3445 0230 00       		.byte	0
 3446 0231 27       		.uleb128 0x27
 3447 0232 05       		.uleb128 0x5
 3448 0233 00       		.byte	0
 3449 0234 03       		.uleb128 0x3
 3450 0235 08       		.uleb128 0x8
 3451 0236 3A       		.uleb128 0x3a
 3452 0237 0B       		.uleb128 0xb
 3453 0238 3B       		.uleb128 0x3b
 3454 0239 0B       		.uleb128 0xb
 3455 023a 39       		.uleb128 0x39
 3456 023b 0B       		.uleb128 0xb
 3457 023c 49       		.uleb128 0x49
 3458 023d 13       		.uleb128 0x13
 3459 023e 02       		.uleb128 0x2
 3460 023f 17       		.uleb128 0x17
 3461 0240 B742     		.uleb128 0x2137
 3462 0242 17       		.uleb128 0x17
 3463 0243 00       		.byte	0
 3464 0244 00       		.byte	0
 3465 0245 28       		.uleb128 0x28
 3466 0246 05       		.uleb128 0x5
 3467 0247 00       		.byte	0
 3468 0248 03       		.uleb128 0x3
 3469 0249 0E       		.uleb128 0xe
 3470 024a 3A       		.uleb128 0x3a
 3471 024b 0B       		.uleb128 0xb
 3472 024c 3B       		.uleb128 0x3b
 3473 024d 0B       		.uleb128 0xb
 3474 024e 39       		.uleb128 0x39
 3475 024f 0B       		.uleb128 0xb
 3476 0250 49       		.uleb128 0x49
 3477 0251 13       		.uleb128 0x13
ARM GAS  /var/folders/l5/0x54b2c10074c8bt31ycjvl80000gp/T//ccxMzJPy.s 			page 62


 3478 0252 02       		.uleb128 0x2
 3479 0253 17       		.uleb128 0x17
 3480 0254 B742     		.uleb128 0x2137
 3481 0256 17       		.uleb128 0x17
 3482 0257 00       		.byte	0
 3483 0258 00       		.byte	0
 3484 0259 29       		.uleb128 0x29
 3485 025a 34       		.uleb128 0x34
 3486 025b 00       		.byte	0
 3487 025c 03       		.uleb128 0x3
 3488 025d 08       		.uleb128 0x8
 3489 025e 3A       		.uleb128 0x3a
 3490 025f 0B       		.uleb128 0xb
 3491 0260 3B       		.uleb128 0x3b
 3492 0261 0B       		.uleb128 0xb
 3493 0262 39       		.uleb128 0x39
 3494 0263 0B       		.uleb128 0xb
 3495 0264 49       		.uleb128 0x49
 3496 0265 13       		.uleb128 0x13
 3497 0266 02       		.uleb128 0x2
 3498 0267 17       		.uleb128 0x17
 3499 0268 B742     		.uleb128 0x2137
 3500 026a 17       		.uleb128 0x17
 3501 026b 00       		.byte	0
 3502 026c 00       		.byte	0
 3503 026d 2A       		.uleb128 0x2a
 3504 026e 1D       		.uleb128 0x1d
 3505 026f 01       		.byte	0x1
 3506 0270 31       		.uleb128 0x31
 3507 0271 13       		.uleb128 0x13
 3508 0272 52       		.uleb128 0x52
 3509 0273 01       		.uleb128 0x1
 3510 0274 B842     		.uleb128 0x2138
 3511 0276 0B       		.uleb128 0xb
 3512 0277 55       		.uleb128 0x55
 3513 0278 17       		.uleb128 0x17
 3514 0279 58       		.uleb128 0x58
 3515 027a 0B       		.uleb128 0xb
 3516 027b 59       		.uleb128 0x59
 3517 027c 0B       		.uleb128 0xb
 3518 027d 57       		.uleb128 0x57
 3519 027e 0B       		.uleb128 0xb
 3520 027f 00       		.byte	0
 3521 0280 00       		.byte	0
 3522 0281 2B       		.uleb128 0x2b
 3523 0282 05       		.uleb128 0x5
 3524 0283 00       		.byte	0
 3525 0284 31       		.uleb128 0x31
 3526 0285 13       		.uleb128 0x13
 3527 0286 00       		.byte	0
 3528 0287 00       		.byte	0
 3529 0288 2C       		.uleb128 0x2c
 3530 0289 1D       		.uleb128 0x1d
 3531 028a 01       		.byte	0x1
 3532 028b 31       		.uleb128 0x31
 3533 028c 13       		.uleb128 0x13
 3534 028d 52       		.uleb128 0x52
ARM GAS  /var/folders/l5/0x54b2c10074c8bt31ycjvl80000gp/T//ccxMzJPy.s 			page 63


 3535 028e 01       		.uleb128 0x1
 3536 028f B842     		.uleb128 0x2138
 3537 0291 0B       		.uleb128 0xb
 3538 0292 55       		.uleb128 0x55
 3539 0293 17       		.uleb128 0x17
 3540 0294 58       		.uleb128 0x58
 3541 0295 0B       		.uleb128 0xb
 3542 0296 59       		.uleb128 0x59
 3543 0297 0B       		.uleb128 0xb
 3544 0298 57       		.uleb128 0x57
 3545 0299 0B       		.uleb128 0xb
 3546 029a 01       		.uleb128 0x1
 3547 029b 13       		.uleb128 0x13
 3548 029c 00       		.byte	0
 3549 029d 00       		.byte	0
 3550 029e 2D       		.uleb128 0x2d
 3551 029f 2E       		.uleb128 0x2e
 3552 02a0 01       		.byte	0x1
 3553 02a1 3F       		.uleb128 0x3f
 3554 02a2 19       		.uleb128 0x19
 3555 02a3 03       		.uleb128 0x3
 3556 02a4 0E       		.uleb128 0xe
 3557 02a5 3A       		.uleb128 0x3a
 3558 02a6 0B       		.uleb128 0xb
 3559 02a7 3B       		.uleb128 0x3b
 3560 02a8 0B       		.uleb128 0xb
 3561 02a9 39       		.uleb128 0x39
 3562 02aa 0B       		.uleb128 0xb
 3563 02ab 27       		.uleb128 0x27
 3564 02ac 19       		.uleb128 0x19
 3565 02ad 11       		.uleb128 0x11
 3566 02ae 01       		.uleb128 0x1
 3567 02af 12       		.uleb128 0x12
 3568 02b0 06       		.uleb128 0x6
 3569 02b1 40       		.uleb128 0x40
 3570 02b2 18       		.uleb128 0x18
 3571 02b3 9742     		.uleb128 0x2117
 3572 02b5 19       		.uleb128 0x19
 3573 02b6 01       		.uleb128 0x1
 3574 02b7 13       		.uleb128 0x13
 3575 02b8 00       		.byte	0
 3576 02b9 00       		.byte	0
 3577 02ba 2E       		.uleb128 0x2e
 3578 02bb 898201   		.uleb128 0x4109
 3579 02be 01       		.byte	0x1
 3580 02bf 11       		.uleb128 0x11
 3581 02c0 01       		.uleb128 0x1
 3582 02c1 31       		.uleb128 0x31
 3583 02c2 13       		.uleb128 0x13
 3584 02c3 01       		.uleb128 0x1
 3585 02c4 13       		.uleb128 0x13
 3586 02c5 00       		.byte	0
 3587 02c6 00       		.byte	0
 3588 02c7 2F       		.uleb128 0x2f
 3589 02c8 05       		.uleb128 0x5
 3590 02c9 00       		.byte	0
 3591 02ca 03       		.uleb128 0x3
ARM GAS  /var/folders/l5/0x54b2c10074c8bt31ycjvl80000gp/T//ccxMzJPy.s 			page 64


 3592 02cb 08       		.uleb128 0x8
 3593 02cc 3A       		.uleb128 0x3a
 3594 02cd 0B       		.uleb128 0xb
 3595 02ce 3B       		.uleb128 0x3b
 3596 02cf 0B       		.uleb128 0xb
 3597 02d0 39       		.uleb128 0x39
 3598 02d1 0B       		.uleb128 0xb
 3599 02d2 49       		.uleb128 0x49
 3600 02d3 13       		.uleb128 0x13
 3601 02d4 02       		.uleb128 0x2
 3602 02d5 18       		.uleb128 0x18
 3603 02d6 00       		.byte	0
 3604 02d7 00       		.byte	0
 3605 02d8 30       		.uleb128 0x30
 3606 02d9 2E       		.uleb128 0x2e
 3607 02da 01       		.byte	0x1
 3608 02db 03       		.uleb128 0x3
 3609 02dc 0E       		.uleb128 0xe
 3610 02dd 3A       		.uleb128 0x3a
 3611 02de 0B       		.uleb128 0xb
 3612 02df 3B       		.uleb128 0x3b
 3613 02e0 0B       		.uleb128 0xb
 3614 02e1 39       		.uleb128 0x39
 3615 02e2 0B       		.uleb128 0xb
 3616 02e3 27       		.uleb128 0x27
 3617 02e4 19       		.uleb128 0x19
 3618 02e5 49       		.uleb128 0x49
 3619 02e6 13       		.uleb128 0x13
 3620 02e7 20       		.uleb128 0x20
 3621 02e8 0B       		.uleb128 0xb
 3622 02e9 01       		.uleb128 0x1
 3623 02ea 13       		.uleb128 0x13
 3624 02eb 00       		.byte	0
 3625 02ec 00       		.byte	0
 3626 02ed 31       		.uleb128 0x31
 3627 02ee 34       		.uleb128 0x34
 3628 02ef 00       		.byte	0
 3629 02f0 03       		.uleb128 0x3
 3630 02f1 08       		.uleb128 0x8
 3631 02f2 3A       		.uleb128 0x3a
 3632 02f3 0B       		.uleb128 0xb
 3633 02f4 3B       		.uleb128 0x3b
 3634 02f5 0B       		.uleb128 0xb
 3635 02f6 39       		.uleb128 0x39
 3636 02f7 0B       		.uleb128 0xb
 3637 02f8 49       		.uleb128 0x49
 3638 02f9 13       		.uleb128 0x13
 3639 02fa 00       		.byte	0
 3640 02fb 00       		.byte	0
 3641 02fc 32       		.uleb128 0x32
 3642 02fd 2E       		.uleb128 0x2e
 3643 02fe 01       		.byte	0x1
 3644 02ff 03       		.uleb128 0x3
 3645 0300 0E       		.uleb128 0xe
 3646 0301 3A       		.uleb128 0x3a
 3647 0302 0B       		.uleb128 0xb
 3648 0303 3B       		.uleb128 0x3b
ARM GAS  /var/folders/l5/0x54b2c10074c8bt31ycjvl80000gp/T//ccxMzJPy.s 			page 65


 3649 0304 0B       		.uleb128 0xb
 3650 0305 39       		.uleb128 0x39
 3651 0306 0B       		.uleb128 0xb
 3652 0307 27       		.uleb128 0x27
 3653 0308 19       		.uleb128 0x19
 3654 0309 20       		.uleb128 0x20
 3655 030a 0B       		.uleb128 0xb
 3656 030b 01       		.uleb128 0x1
 3657 030c 13       		.uleb128 0x13
 3658 030d 00       		.byte	0
 3659 030e 00       		.byte	0
 3660 030f 33       		.uleb128 0x33
 3661 0310 2E       		.uleb128 0x2e
 3662 0311 01       		.byte	0x1
 3663 0312 31       		.uleb128 0x31
 3664 0313 13       		.uleb128 0x13
 3665 0314 11       		.uleb128 0x11
 3666 0315 01       		.uleb128 0x1
 3667 0316 12       		.uleb128 0x12
 3668 0317 06       		.uleb128 0x6
 3669 0318 40       		.uleb128 0x40
 3670 0319 18       		.uleb128 0x18
 3671 031a 9742     		.uleb128 0x2117
 3672 031c 19       		.uleb128 0x19
 3673 031d 01       		.uleb128 0x1
 3674 031e 13       		.uleb128 0x13
 3675 031f 00       		.byte	0
 3676 0320 00       		.byte	0
 3677 0321 34       		.uleb128 0x34
 3678 0322 1D       		.uleb128 0x1d
 3679 0323 01       		.byte	0x1
 3680 0324 31       		.uleb128 0x31
 3681 0325 13       		.uleb128 0x13
 3682 0326 52       		.uleb128 0x52
 3683 0327 01       		.uleb128 0x1
 3684 0328 B842     		.uleb128 0x2138
 3685 032a 0B       		.uleb128 0xb
 3686 032b 11       		.uleb128 0x11
 3687 032c 01       		.uleb128 0x1
 3688 032d 12       		.uleb128 0x12
 3689 032e 06       		.uleb128 0x6
 3690 032f 58       		.uleb128 0x58
 3691 0330 0B       		.uleb128 0xb
 3692 0331 59       		.uleb128 0x59
 3693 0332 0B       		.uleb128 0xb
 3694 0333 57       		.uleb128 0x57
 3695 0334 0B       		.uleb128 0xb
 3696 0335 00       		.byte	0
 3697 0336 00       		.byte	0
 3698 0337 35       		.uleb128 0x35
 3699 0338 898201   		.uleb128 0x4109
 3700 033b 01       		.byte	0x1
 3701 033c 11       		.uleb128 0x11
 3702 033d 01       		.uleb128 0x1
 3703 033e 9542     		.uleb128 0x2115
 3704 0340 19       		.uleb128 0x19
 3705 0341 31       		.uleb128 0x31
ARM GAS  /var/folders/l5/0x54b2c10074c8bt31ycjvl80000gp/T//ccxMzJPy.s 			page 66


 3706 0342 13       		.uleb128 0x13
 3707 0343 00       		.byte	0
 3708 0344 00       		.byte	0
 3709 0345 36       		.uleb128 0x36
 3710 0346 2E       		.uleb128 0x2e
 3711 0347 00       		.byte	0
 3712 0348 3F       		.uleb128 0x3f
 3713 0349 19       		.uleb128 0x19
 3714 034a 3C       		.uleb128 0x3c
 3715 034b 19       		.uleb128 0x19
 3716 034c 6E       		.uleb128 0x6e
 3717 034d 0E       		.uleb128 0xe
 3718 034e 03       		.uleb128 0x3
 3719 034f 0E       		.uleb128 0xe
 3720 0350 3A       		.uleb128 0x3a
 3721 0351 0B       		.uleb128 0xb
 3722 0352 3B       		.uleb128 0x3b
 3723 0353 0B       		.uleb128 0xb
 3724 0354 39       		.uleb128 0x39
 3725 0355 0B       		.uleb128 0xb
 3726 0356 00       		.byte	0
 3727 0357 00       		.byte	0
 3728 0358 00       		.byte	0
 3729              		.section	.debug_loc,"",%progbits
 3730              	.Ldebug_loc0:
 3731              	.LVUS41:
 3732 0000 00       		.uleb128 0
 3733 0001 00       		.uleb128 .LVU336
 3734 0002 00       		.uleb128 .LVU336
 3735 0003 00       		.uleb128 .LVU373
 3736 0004 00       		.uleb128 .LVU373
 3737 0005 00       		.uleb128 .LVU378
 3738 0006 00       		.uleb128 .LVU378
 3739 0007 00       		.uleb128 .LVU385
 3740 0008 00       		.uleb128 .LVU385
 3741 0009 00       		.uleb128 0
 3742              	.LLST41:
 3743 000a 00000000 		.4byte	.LVL69
 3744 000e 20000000 		.4byte	.LVL70
 3745 0012 0100     		.2byte	0x1
 3746 0014 50       		.byte	0x50
 3747 0015 20000000 		.4byte	.LVL70
 3748 0019 78000000 		.4byte	.LVL78
 3749 001d 0400     		.2byte	0x4
 3750 001f F3       		.byte	0xf3
 3751 0020 01       		.uleb128 0x1
 3752 0021 50       		.byte	0x50
 3753 0022 9F       		.byte	0x9f
 3754 0023 78000000 		.4byte	.LVL78
 3755 0027 80000000 		.4byte	.LVL80
 3756 002b 0100     		.2byte	0x1
 3757 002d 50       		.byte	0x50
 3758 002e 80000000 		.4byte	.LVL80
 3759 0032 8F000000 		.4byte	.LVL82-1
 3760 0036 0100     		.2byte	0x1
 3761 0038 52       		.byte	0x52
 3762 0039 8F000000 		.4byte	.LVL82-1
ARM GAS  /var/folders/l5/0x54b2c10074c8bt31ycjvl80000gp/T//ccxMzJPy.s 			page 67


 3763 003d A0000000 		.4byte	.LFE17
 3764 0041 0400     		.2byte	0x4
 3765 0043 F3       		.byte	0xf3
 3766 0044 01       		.uleb128 0x1
 3767 0045 50       		.byte	0x50
 3768 0046 9F       		.byte	0x9f
 3769 0047 00000000 		.4byte	0
 3770 004b 00000000 		.4byte	0
 3771              	.LVUS42:
 3772 004f 00       		.uleb128 0
 3773 0050 00       		.uleb128 .LVU336
 3774 0051 00       		.uleb128 .LVU336
 3775 0052 00       		.uleb128 .LVU373
 3776 0053 00       		.uleb128 .LVU373
 3777 0054 00       		.uleb128 .LVU385
 3778 0055 00       		.uleb128 .LVU385
 3779 0056 00       		.uleb128 0
 3780              	.LLST42:
 3781 0057 00000000 		.4byte	.LVL69
 3782 005b 20000000 		.4byte	.LVL70
 3783 005f 0100     		.2byte	0x1
 3784 0061 51       		.byte	0x51
 3785 0062 20000000 		.4byte	.LVL70
 3786 0066 78000000 		.4byte	.LVL78
 3787 006a 0100     		.2byte	0x1
 3788 006c 54       		.byte	0x54
 3789 006d 78000000 		.4byte	.LVL78
 3790 0071 8F000000 		.4byte	.LVL82-1
 3791 0075 0100     		.2byte	0x1
 3792 0077 51       		.byte	0x51
 3793 0078 8F000000 		.4byte	.LVL82-1
 3794 007c A0000000 		.4byte	.LFE17
 3795 0080 0100     		.2byte	0x1
 3796 0082 54       		.byte	0x54
 3797 0083 00000000 		.4byte	0
 3798 0087 00000000 		.4byte	0
 3799              	.LVUS43:
 3800 008b 01       		.uleb128 .LVU341
 3801 008c 00       		.uleb128 .LVU342
 3802 008d 00       		.uleb128 .LVU342
 3803 008e 00       		.uleb128 .LVU347
 3804 008f 00       		.uleb128 .LVU367
 3805 0090 00       		.uleb128 .LVU373
 3806              	.LLST43:
 3807 0091 38000000 		.4byte	.LVL71
 3808 0095 3C000000 		.4byte	.LVL72
 3809 0099 0200     		.2byte	0x2
 3810 009b 30       		.byte	0x30
 3811 009c 9F       		.byte	0x9f
 3812 009d 3C000000 		.4byte	.LVL72
 3813 00a1 44000000 		.4byte	.LVL73
 3814 00a5 0100     		.2byte	0x1
 3815 00a7 50       		.byte	0x50
 3816 00a8 70000000 		.4byte	.LVL77
 3817 00ac 78000000 		.4byte	.LVL78
 3818 00b0 0100     		.2byte	0x1
 3819 00b2 50       		.byte	0x50
ARM GAS  /var/folders/l5/0x54b2c10074c8bt31ycjvl80000gp/T//ccxMzJPy.s 			page 68


 3820 00b3 00000000 		.4byte	0
 3821 00b7 00000000 		.4byte	0
 3822              	.LVUS44:
 3823 00bb 00       		.uleb128 .LVU351
 3824 00bc 00       		.uleb128 .LVU373
 3825              	.LLST44:
 3826 00bd 50000000 		.4byte	.LVL74
 3827 00c1 78000000 		.4byte	.LVL78
 3828 00c5 0100     		.2byte	0x1
 3829 00c7 55       		.byte	0x55
 3830 00c8 00000000 		.4byte	0
 3831 00cc 00000000 		.4byte	0
 3832              	.LVUS45:
 3833 00d0 01       		.uleb128 .LVU352
 3834 00d1 00       		.uleb128 .LVU361
 3835              	.LLST45:
 3836 00d2 50000000 		.4byte	.LVL74
 3837 00d6 64000000 		.4byte	.LVL75
 3838 00da 0100     		.2byte	0x1
 3839 00dc 54       		.byte	0x54
 3840 00dd 00000000 		.4byte	0
 3841 00e1 00000000 		.4byte	0
 3842              	.LVUS46:
 3843 00e5 01       		.uleb128 .LVU352
 3844 00e6 00       		.uleb128 .LVU361
 3845              	.LLST46:
 3846 00e7 50000000 		.4byte	.LVL74
 3847 00eb 64000000 		.4byte	.LVL75
 3848 00ef 0100     		.2byte	0x1
 3849 00f1 55       		.byte	0x55
 3850 00f2 00000000 		.4byte	0
 3851 00f6 00000000 		.4byte	0
 3852              	.LVUS47:
 3853 00fa 01       		.uleb128 .LVU375
 3854 00fb 01       		.uleb128 .LVU383
 3855              	.LLST47:
 3856 00fc 7C000000 		.4byte	.LVL79
 3857 0100 8C000000 		.4byte	.LVL81
 3858 0104 0100     		.2byte	0x1
 3859 0106 52       		.byte	0x52
 3860 0107 00000000 		.4byte	0
 3861 010b 00000000 		.4byte	0
 3862              	.LVUS48:
 3863 010f 00       		.uleb128 .LVU378
 3864 0110 01       		.uleb128 .LVU383
 3865              	.LLST48:
 3866 0111 80000000 		.4byte	.LVL80
 3867 0115 8C000000 		.4byte	.LVL81
 3868 0119 0100     		.2byte	0x1
 3869 011b 50       		.byte	0x50
 3870 011c 00000000 		.4byte	0
 3871 0120 00000000 		.4byte	0
 3872              	.LVUS37:
 3873 0124 00       		.uleb128 0
 3874 0125 00       		.uleb128 .LVU298
 3875 0126 00       		.uleb128 .LVU298
 3876 0127 00       		.uleb128 0
ARM GAS  /var/folders/l5/0x54b2c10074c8bt31ycjvl80000gp/T//ccxMzJPy.s 			page 69


 3877              	.LLST37:
 3878 0128 00000000 		.4byte	.LVL59
 3879 012c 18000000 		.4byte	.LVL60
 3880 0130 0100     		.2byte	0x1
 3881 0132 50       		.byte	0x50
 3882 0133 18000000 		.4byte	.LVL60
 3883 0137 58000000 		.4byte	.LFE16
 3884 013b 0100     		.2byte	0x1
 3885 013d 55       		.byte	0x55
 3886 013e 00000000 		.4byte	0
 3887 0142 00000000 		.4byte	0
 3888              	.LVUS38:
 3889 0146 00       		.uleb128 0
 3890 0147 00       		.uleb128 .LVU298
 3891 0148 00       		.uleb128 .LVU298
 3892 0149 01       		.uleb128 .LVU299
 3893 014a 01       		.uleb128 .LVU299
 3894 014b 00       		.uleb128 .LVU300
 3895 014c 00       		.uleb128 .LVU300
 3896 014d 00       		.uleb128 .LVU316
 3897 014e 00       		.uleb128 .LVU316
 3898 014f 01       		.uleb128 .LVU318
 3899              	.LLST38:
 3900 0150 00000000 		.4byte	.LVL59
 3901 0154 18000000 		.4byte	.LVL60
 3902 0158 0100     		.2byte	0x1
 3903 015a 51       		.byte	0x51
 3904 015b 18000000 		.4byte	.LVL60
 3905 015f 18000000 		.4byte	.LVL60
 3906 0163 0100     		.2byte	0x1
 3907 0165 54       		.byte	0x54
 3908 0166 18000000 		.4byte	.LVL60
 3909 016a 1C000000 		.4byte	.LVL61
 3910 016e 0300     		.2byte	0x3
 3911 0170 74       		.byte	0x74
 3912 0171 7F       		.sleb128 -1
 3913 0172 9F       		.byte	0x9f
 3914 0173 1C000000 		.4byte	.LVL61
 3915 0177 4C000000 		.4byte	.LVL67
 3916 017b 0100     		.2byte	0x1
 3917 017d 54       		.byte	0x54
 3918 017e 4C000000 		.4byte	.LVL67
 3919 0182 50000000 		.4byte	.LVL68
 3920 0186 0300     		.2byte	0x3
 3921 0188 74       		.byte	0x74
 3922 0189 01       		.sleb128 1
 3923 018a 9F       		.byte	0x9f
 3924 018b 00000000 		.4byte	0
 3925 018f 00000000 		.4byte	0
 3926              	.LVUS39:
 3927 0193 01       		.uleb128 .LVU305
 3928 0194 01       		.uleb128 .LVU313
 3929              	.LLST39:
 3930 0195 34000000 		.4byte	.LVL63
 3931 0199 44000000 		.4byte	.LVL65
 3932 019d 0100     		.2byte	0x1
 3933 019f 55       		.byte	0x55
ARM GAS  /var/folders/l5/0x54b2c10074c8bt31ycjvl80000gp/T//ccxMzJPy.s 			page 70


 3934 01a0 00000000 		.4byte	0
 3935 01a4 00000000 		.4byte	0
 3936              	.LVUS40:
 3937 01a8 00       		.uleb128 .LVU308
 3938 01a9 01       		.uleb128 .LVU313
 3939              	.LLST40:
 3940 01aa 38000000 		.4byte	.LVL64
 3941 01ae 44000000 		.4byte	.LVL65
 3942 01b2 0100     		.2byte	0x1
 3943 01b4 50       		.byte	0x50
 3944 01b5 00000000 		.4byte	0
 3945 01b9 00000000 		.4byte	0
 3946              	.LVUS33:
 3947 01bd 00       		.uleb128 0
 3948 01be 00       		.uleb128 .LVU281
 3949 01bf 00       		.uleb128 .LVU281
 3950 01c0 00       		.uleb128 .LVU288
 3951 01c1 00       		.uleb128 .LVU288
 3952 01c2 00       		.uleb128 0
 3953              	.LLST33:
 3954 01c3 00000000 		.4byte	.LVL53
 3955 01c7 28000000 		.4byte	.LVL56
 3956 01cb 0100     		.2byte	0x1
 3957 01cd 50       		.byte	0x50
 3958 01ce 28000000 		.4byte	.LVL56
 3959 01d2 37000000 		.4byte	.LVL58-1
 3960 01d6 0100     		.2byte	0x1
 3961 01d8 52       		.byte	0x52
 3962 01d9 37000000 		.4byte	.LVL58-1
 3963 01dd 38000000 		.4byte	.LFE15
 3964 01e1 0400     		.2byte	0x4
 3965 01e3 F3       		.byte	0xf3
 3966 01e4 01       		.uleb128 0x1
 3967 01e5 50       		.byte	0x50
 3968 01e6 9F       		.byte	0x9f
 3969 01e7 00000000 		.4byte	0
 3970 01eb 00000000 		.4byte	0
 3971              	.LVUS34:
 3972 01ef 01       		.uleb128 .LVU284
 3973 01f0 00       		.uleb128 .LVU288
 3974              	.LLST34:
 3975 01f1 30000000 		.4byte	.LVL57
 3976 01f5 37000000 		.4byte	.LVL58-1
 3977 01f9 0100     		.2byte	0x1
 3978 01fb 53       		.byte	0x53
 3979 01fc 00000000 		.4byte	0
 3980 0200 00000000 		.4byte	0
 3981              	.LVUS35:
 3982 0204 01       		.uleb128 .LVU274
 3983 0205 00       		.uleb128 .LVU281
 3984 0206 00       		.uleb128 .LVU281
 3985 0207 01       		.uleb128 .LVU284
 3986              	.LLST35:
 3987 0208 18000000 		.4byte	.LVL54
 3988 020c 28000000 		.4byte	.LVL56
 3989 0210 0100     		.2byte	0x1
 3990 0212 50       		.byte	0x50
ARM GAS  /var/folders/l5/0x54b2c10074c8bt31ycjvl80000gp/T//ccxMzJPy.s 			page 71


 3991 0213 28000000 		.4byte	.LVL56
 3992 0217 30000000 		.4byte	.LVL57
 3993 021b 0100     		.2byte	0x1
 3994 021d 52       		.byte	0x52
 3995 021e 00000000 		.4byte	0
 3996 0222 00000000 		.4byte	0
 3997              	.LVUS36:
 3998 0226 00       		.uleb128 .LVU278
 3999 0227 01       		.uleb128 .LVU284
 4000              	.LLST36:
 4001 0228 20000000 		.4byte	.LVL55
 4002 022c 30000000 		.4byte	.LVL57
 4003 0230 0100     		.2byte	0x1
 4004 0232 53       		.byte	0x53
 4005 0233 00000000 		.4byte	0
 4006 0237 00000000 		.4byte	0
 4007              	.LVUS30:
 4008 023b 00       		.uleb128 0
 4009 023c 00       		.uleb128 .LVU248
 4010 023d 00       		.uleb128 .LVU248
 4011 023e 00       		.uleb128 .LVU257
 4012 023f 00       		.uleb128 .LVU257
 4013 0240 00       		.uleb128 0
 4014              	.LLST30:
 4015 0241 00000000 		.4byte	.LVL48
 4016 0245 28000000 		.4byte	.LVL50
 4017 0249 0100     		.2byte	0x1
 4018 024b 50       		.byte	0x50
 4019 024c 28000000 		.4byte	.LVL50
 4020 0250 3F000000 		.4byte	.LVL52-1
 4021 0254 0100     		.2byte	0x1
 4022 0256 53       		.byte	0x53
 4023 0257 3F000000 		.4byte	.LVL52-1
 4024 025b 48000000 		.4byte	.LFE14
 4025 025f 0400     		.2byte	0x4
 4026 0261 F3       		.byte	0xf3
 4027 0262 01       		.uleb128 0x1
 4028 0263 50       		.byte	0x50
 4029 0264 9F       		.byte	0x9f
 4030 0265 00000000 		.4byte	0
 4031 0269 00000000 		.4byte	0
 4032              	.LVUS31:
 4033 026d 01       		.uleb128 .LVU245
 4034 026e 01       		.uleb128 .LVU255
 4035              	.LLST31:
 4036 026f 24000000 		.4byte	.LVL49
 4037 0273 3C000000 		.4byte	.LVL51
 4038 0277 0100     		.2byte	0x1
 4039 0279 53       		.byte	0x53
 4040 027a 00000000 		.4byte	0
 4041 027e 00000000 		.4byte	0
 4042              	.LVUS32:
 4043 0282 00       		.uleb128 .LVU248
 4044 0283 01       		.uleb128 .LVU255
 4045              	.LLST32:
 4046 0284 28000000 		.4byte	.LVL50
 4047 0288 3C000000 		.4byte	.LVL51
ARM GAS  /var/folders/l5/0x54b2c10074c8bt31ycjvl80000gp/T//ccxMzJPy.s 			page 72


 4048 028c 0100     		.2byte	0x1
 4049 028e 50       		.byte	0x50
 4050 028f 00000000 		.4byte	0
 4051 0293 00000000 		.4byte	0
 4052              	.LVUS17:
 4053 0297 00       		.uleb128 0
 4054 0298 00       		.uleb128 .LVU156
 4055 0299 00       		.uleb128 .LVU156
 4056 029a 00       		.uleb128 0
 4057              	.LLST17:
 4058 029b 00000000 		.4byte	.LVL32
 4059 029f 18000000 		.4byte	.LVL34
 4060 02a3 0100     		.2byte	0x1
 4061 02a5 50       		.byte	0x50
 4062 02a6 18000000 		.4byte	.LVL34
 4063 02aa 6C000000 		.4byte	.LFE12
 4064 02ae 0400     		.2byte	0x4
 4065 02b0 F3       		.byte	0xf3
 4066 02b1 01       		.uleb128 0x1
 4067 02b2 50       		.byte	0x50
 4068 02b3 9F       		.byte	0x9f
 4069 02b4 00000000 		.4byte	0
 4070 02b8 00000000 		.4byte	0
 4071              	.LVUS18:
 4072 02bc 00       		.uleb128 0
 4073 02bd 00       		.uleb128 .LVU186
 4074 02be 00       		.uleb128 .LVU186
 4075 02bf 00       		.uleb128 0
 4076              	.LLST18:
 4077 02c0 00000000 		.4byte	.LVL32
 4078 02c4 5F000000 		.4byte	.LVL41-1
 4079 02c8 0100     		.2byte	0x1
 4080 02ca 51       		.byte	0x51
 4081 02cb 5F000000 		.4byte	.LVL41-1
 4082 02cf 6C000000 		.4byte	.LFE12
 4083 02d3 0400     		.2byte	0x4
 4084 02d5 F3       		.byte	0xf3
 4085 02d6 01       		.uleb128 0x1
 4086 02d7 51       		.byte	0x51
 4087 02d8 9F       		.byte	0x9f
 4088 02d9 00000000 		.4byte	0
 4089 02dd 00000000 		.4byte	0
 4090              	.LVUS19:
 4091 02e1 00       		.uleb128 .LVU157
 4092 02e2 00       		.uleb128 .LVU163
 4093 02e3 00       		.uleb128 .LVU186
 4094 02e4 00       		.uleb128 0
 4095              	.LLST19:
 4096 02e5 1C000000 		.4byte	.LVL35
 4097 02e9 24000000 		.4byte	.LVL36
 4098 02ed 0100     		.2byte	0x1
 4099 02ef 50       		.byte	0x50
 4100 02f0 60000000 		.4byte	.LVL41
 4101 02f4 6C000000 		.4byte	.LFE12
 4102 02f8 0100     		.2byte	0x1
 4103 02fa 50       		.byte	0x50
 4104 02fb 00000000 		.4byte	0
ARM GAS  /var/folders/l5/0x54b2c10074c8bt31ycjvl80000gp/T//ccxMzJPy.s 			page 73


 4105 02ff 00000000 		.4byte	0
 4106              	.LVUS20:
 4107 0303 03       		.uleb128 .LVU145
 4108 0304 00       		.uleb128 .LVU157
 4109 0305 00       		.uleb128 .LVU163
 4110 0306 00       		.uleb128 .LVU186
 4111 0307 00       		.uleb128 .LVU186
 4112 0308 00       		.uleb128 .LVU186
 4113              	.LLST20:
 4114 0309 04000000 		.4byte	.LVL33
 4115 030d 1C000000 		.4byte	.LVL35
 4116 0311 0100     		.2byte	0x1
 4117 0313 51       		.byte	0x51
 4118 0314 24000000 		.4byte	.LVL36
 4119 0318 5F000000 		.4byte	.LVL41-1
 4120 031c 0100     		.2byte	0x1
 4121 031e 51       		.byte	0x51
 4122 031f 5F000000 		.4byte	.LVL41-1
 4123 0323 60000000 		.4byte	.LVL41
 4124 0327 0400     		.2byte	0x4
 4125 0329 F3       		.byte	0xf3
 4126 032a 01       		.uleb128 0x1
 4127 032b 51       		.byte	0x51
 4128 032c 9F       		.byte	0x9f
 4129 032d 00000000 		.4byte	0
 4130 0331 00000000 		.4byte	0
 4131              	.LVUS21:
 4132 0335 03       		.uleb128 .LVU145
 4133 0336 00       		.uleb128 .LVU156
 4134 0337 00       		.uleb128 .LVU156
 4135 0338 00       		.uleb128 .LVU157
 4136 0339 00       		.uleb128 .LVU163
 4137 033a 00       		.uleb128 .LVU186
 4138              	.LLST21:
 4139 033b 04000000 		.4byte	.LVL33
 4140 033f 18000000 		.4byte	.LVL34
 4141 0343 0100     		.2byte	0x1
 4142 0345 50       		.byte	0x50
 4143 0346 18000000 		.4byte	.LVL34
 4144 034a 1C000000 		.4byte	.LVL35
 4145 034e 0400     		.2byte	0x4
 4146 0350 F3       		.byte	0xf3
 4147 0351 01       		.uleb128 0x1
 4148 0352 50       		.byte	0x50
 4149 0353 9F       		.byte	0x9f
 4150 0354 24000000 		.4byte	.LVL36
 4151 0358 60000000 		.4byte	.LVL41
 4152 035c 0400     		.2byte	0x4
 4153 035e F3       		.byte	0xf3
 4154 035f 01       		.uleb128 0x1
 4155 0360 50       		.byte	0x50
 4156 0361 9F       		.byte	0x9f
 4157 0362 00000000 		.4byte	0
 4158 0366 00000000 		.4byte	0
 4159              	.LVUS22:
 4160 036a 00       		.uleb128 .LVU169
 4161 036b 00       		.uleb128 .LVU175
ARM GAS  /var/folders/l5/0x54b2c10074c8bt31ycjvl80000gp/T//ccxMzJPy.s 			page 74


 4162 036c 00       		.uleb128 .LVU175
 4163 036d 00       		.uleb128 .LVU186
 4164              	.LLST22:
 4165 036e 38000000 		.4byte	.LVL37
 4166 0372 4C000000 		.4byte	.LVL38
 4167 0376 0100     		.2byte	0x1
 4168 0378 50       		.byte	0x50
 4169 0379 4C000000 		.4byte	.LVL38
 4170 037d 5F000000 		.4byte	.LVL41-1
 4171 0381 0100     		.2byte	0x1
 4172 0383 53       		.byte	0x53
 4173 0384 00000000 		.4byte	0
 4174 0388 00000000 		.4byte	0
 4175              	.LVUS23:
 4176 038c 01       		.uleb128 .LVU177
 4177 038d 00       		.uleb128 .LVU183
 4178              	.LLST23:
 4179 038e 50000000 		.4byte	.LVL39
 4180 0392 5C000000 		.4byte	.LVL40
 4181 0396 0100     		.2byte	0x1
 4182 0398 53       		.byte	0x53
 4183 0399 00000000 		.4byte	0
 4184 039d 00000000 		.4byte	0
 4185              	.LVUS24:
 4186 03a1 01       		.uleb128 .LVU177
 4187 03a2 00       		.uleb128 .LVU183
 4188              	.LLST24:
 4189 03a3 50000000 		.4byte	.LVL39
 4190 03a7 5C000000 		.4byte	.LVL40
 4191 03ab 0100     		.2byte	0x1
 4192 03ad 52       		.byte	0x52
 4193 03ae 00000000 		.4byte	0
 4194 03b2 00000000 		.4byte	0
 4195              	.LVUS7:
 4196 03b6 00       		.uleb128 0
 4197 03b7 00       		.uleb128 .LVU69
 4198 03b8 00       		.uleb128 .LVU69
 4199 03b9 00       		.uleb128 .LVU75
 4200 03ba 00       		.uleb128 .LVU75
 4201 03bb 00       		.uleb128 .LVU83
 4202 03bc 00       		.uleb128 .LVU83
 4203 03bd 00       		.uleb128 .LVU95
 4204 03be 00       		.uleb128 .LVU95
 4205 03bf 00       		.uleb128 0
 4206              	.LLST7:
 4207 03c0 00000000 		.4byte	.LVL13
 4208 03c4 1C000000 		.4byte	.LVL15
 4209 03c8 0100     		.2byte	0x1
 4210 03ca 50       		.byte	0x50
 4211 03cb 1C000000 		.4byte	.LVL15
 4212 03cf 24000000 		.4byte	.LVL16
 4213 03d3 0400     		.2byte	0x4
 4214 03d5 F3       		.byte	0xf3
 4215 03d6 01       		.uleb128 0x1
 4216 03d7 50       		.byte	0x50
 4217 03d8 9F       		.byte	0x9f
 4218 03d9 24000000 		.4byte	.LVL16
ARM GAS  /var/folders/l5/0x54b2c10074c8bt31ycjvl80000gp/T//ccxMzJPy.s 			page 75


 4219 03dd 3C000000 		.4byte	.LVL18
 4220 03e1 0100     		.2byte	0x1
 4221 03e3 50       		.byte	0x50
 4222 03e4 3C000000 		.4byte	.LVL18
 4223 03e8 53000000 		.4byte	.LVL21-1
 4224 03ec 0100     		.2byte	0x1
 4225 03ee 53       		.byte	0x53
 4226 03ef 53000000 		.4byte	.LVL21-1
 4227 03f3 68000000 		.4byte	.LFE10
 4228 03f7 0400     		.2byte	0x4
 4229 03f9 F3       		.byte	0xf3
 4230 03fa 01       		.uleb128 0x1
 4231 03fb 50       		.byte	0x50
 4232 03fc 9F       		.byte	0x9f
 4233 03fd 00000000 		.4byte	0
 4234 0401 00000000 		.4byte	0
 4235              	.LVUS8:
 4236 0405 00       		.uleb128 .LVU69
 4237 0406 00       		.uleb128 .LVU75
 4238 0407 00       		.uleb128 .LVU97
 4239 0408 00       		.uleb128 0
 4240              	.LLST8:
 4241 0409 1C000000 		.4byte	.LVL15
 4242 040d 24000000 		.4byte	.LVL16
 4243 0411 0100     		.2byte	0x1
 4244 0413 50       		.byte	0x50
 4245 0414 5C000000 		.4byte	.LVL22
 4246 0418 68000000 		.4byte	.LFE10
 4247 041c 0100     		.2byte	0x1
 4248 041e 50       		.byte	0x50
 4249 041f 00000000 		.4byte	0
 4250 0423 00000000 		.4byte	0
 4251              	.LVUS9:
 4252 0427 03       		.uleb128 .LVU58
 4253 0428 00       		.uleb128 .LVU69
 4254 0429 00       		.uleb128 .LVU75
 4255 042a 00       		.uleb128 .LVU83
 4256 042b 00       		.uleb128 .LVU83
 4257 042c 00       		.uleb128 .LVU95
 4258 042d 00       		.uleb128 .LVU95
 4259 042e 00       		.uleb128 .LVU97
 4260              	.LLST9:
 4261 042f 04000000 		.4byte	.LVL14
 4262 0433 1C000000 		.4byte	.LVL15
 4263 0437 0100     		.2byte	0x1
 4264 0439 50       		.byte	0x50
 4265 043a 24000000 		.4byte	.LVL16
 4266 043e 3C000000 		.4byte	.LVL18
 4267 0442 0100     		.2byte	0x1
 4268 0444 50       		.byte	0x50
 4269 0445 3C000000 		.4byte	.LVL18
 4270 0449 53000000 		.4byte	.LVL21-1
 4271 044d 0100     		.2byte	0x1
 4272 044f 53       		.byte	0x53
 4273 0450 53000000 		.4byte	.LVL21-1
 4274 0454 5C000000 		.4byte	.LVL22
 4275 0458 0400     		.2byte	0x4
ARM GAS  /var/folders/l5/0x54b2c10074c8bt31ycjvl80000gp/T//ccxMzJPy.s 			page 76


 4276 045a F3       		.byte	0xf3
 4277 045b 01       		.uleb128 0x1
 4278 045c 50       		.byte	0x50
 4279 045d 9F       		.byte	0x9f
 4280 045e 00000000 		.4byte	0
 4281 0462 00000000 		.4byte	0
 4282              	.LVUS10:
 4283 0466 00       		.uleb128 .LVU76
 4284 0467 00       		.uleb128 .LVU95
 4285 0468 00       		.uleb128 .LVU95
 4286 0469 00       		.uleb128 .LVU97
 4287              	.LLST10:
 4288 046a 28000000 		.4byte	.LVL17
 4289 046e 53000000 		.4byte	.LVL21-1
 4290 0472 0100     		.2byte	0x1
 4291 0474 53       		.byte	0x53
 4292 0475 53000000 		.4byte	.LVL21-1
 4293 0479 5C000000 		.4byte	.LVL22
 4294 047d 0400     		.2byte	0x4
 4295 047f F3       		.byte	0xf3
 4296 0480 01       		.uleb128 0x1
 4297 0481 50       		.byte	0x50
 4298 0482 9F       		.byte	0x9f
 4299 0483 00000000 		.4byte	0
 4300 0487 00000000 		.4byte	0
 4301              	.LVUS11:
 4302 048b 01       		.uleb128 .LVU85
 4303 048c 00       		.uleb128 .LVU93
 4304              	.LLST11:
 4305 048d 40000000 		.4byte	.LVL19
 4306 0491 50000000 		.4byte	.LVL20
 4307 0495 0100     		.2byte	0x1
 4308 0497 53       		.byte	0x53
 4309 0498 00000000 		.4byte	0
 4310 049c 00000000 		.4byte	0
 4311              	.LVUS12:
 4312 04a0 01       		.uleb128 .LVU85
 4313 04a1 00       		.uleb128 .LVU93
 4314              	.LLST12:
 4315 04a2 40000000 		.4byte	.LVL19
 4316 04a6 50000000 		.4byte	.LVL20
 4317 04aa 0100     		.2byte	0x1
 4318 04ac 52       		.byte	0x52
 4319 04ad 00000000 		.4byte	0
 4320 04b1 00000000 		.4byte	0
 4321              	.LVUS0:
 4322 04b5 00       		.uleb128 0
 4323 04b6 00       		.uleb128 .LVU25
 4324 04b7 00       		.uleb128 .LVU25
 4325 04b8 00       		.uleb128 0
 4326              	.LLST0:
 4327 04b9 00000000 		.4byte	.LVL1
 4328 04bd 20000000 		.4byte	.LVL4
 4329 04c1 0100     		.2byte	0x1
 4330 04c3 50       		.byte	0x50
 4331 04c4 20000000 		.4byte	.LVL4
 4332 04c8 48000000 		.4byte	.LFE9
ARM GAS  /var/folders/l5/0x54b2c10074c8bt31ycjvl80000gp/T//ccxMzJPy.s 			page 77


 4333 04cc 0100     		.2byte	0x1
 4334 04ce 54       		.byte	0x54
 4335 04cf 00000000 		.4byte	0
 4336 04d3 00000000 		.4byte	0
 4337              	.LVUS1:
 4338 04d7 00       		.uleb128 0
 4339 04d8 00       		.uleb128 .LVU25
 4340 04d9 00       		.uleb128 .LVU25
 4341 04da 00       		.uleb128 0
 4342              	.LLST1:
 4343 04db 00000000 		.4byte	.LVL1
 4344 04df 20000000 		.4byte	.LVL4
 4345 04e3 0100     		.2byte	0x1
 4346 04e5 51       		.byte	0x51
 4347 04e6 20000000 		.4byte	.LVL4
 4348 04ea 48000000 		.4byte	.LFE9
 4349 04ee 0400     		.2byte	0x4
 4350 04f0 F3       		.byte	0xf3
 4351 04f1 01       		.uleb128 0x1
 4352 04f2 51       		.byte	0x51
 4353 04f3 9F       		.byte	0x9f
 4354 04f4 00000000 		.4byte	0
 4355 04f8 00000000 		.4byte	0
 4356              	.LVUS2:
 4357 04fc 02       		.uleb128 .LVU19
 4358 04fd 00       		.uleb128 .LVU31
 4359 04fe 00       		.uleb128 .LVU31
 4360 04ff 00       		.uleb128 .LVU39
 4361 0500 00       		.uleb128 .LVU39
 4362 0501 00       		.uleb128 0
 4363              	.LLST2:
 4364 0502 08000000 		.4byte	.LVL2
 4365 0506 28000000 		.4byte	.LVL6
 4366 050a 0100     		.2byte	0x1
 4367 050c 55       		.byte	0x55
 4368 050d 28000000 		.4byte	.LVL6
 4369 0511 40000000 		.4byte	.LVL9
 4370 0515 0300     		.2byte	0x3
 4371 0517 75       		.byte	0x75
 4372 0518 7F       		.sleb128 -1
 4373 0519 9F       		.byte	0x9f
 4374 051a 40000000 		.4byte	.LVL9
 4375 051e 48000000 		.4byte	.LFE9
 4376 0522 0100     		.2byte	0x1
 4377 0524 55       		.byte	0x55
 4378 0525 00000000 		.4byte	0
 4379 0529 00000000 		.4byte	0
 4380              	.LVUS3:
 4381 052d 01       		.uleb128 .LVU26
 4382 052e 01       		.uleb128 .LVU35
 4383              	.LLST3:
 4384 052f 20000000 		.4byte	.LVL4
 4385 0533 34000000 		.4byte	.LVL7
 4386 0537 0100     		.2byte	0x1
 4387 0539 54       		.byte	0x54
 4388 053a 00000000 		.4byte	0
 4389 053e 00000000 		.4byte	0
ARM GAS  /var/folders/l5/0x54b2c10074c8bt31ycjvl80000gp/T//ccxMzJPy.s 			page 78


 4390              	.LVUS4:
 4391 0542 00       		.uleb128 .LVU29
 4392 0543 01       		.uleb128 .LVU35
 4393              	.LLST4:
 4394 0544 24000000 		.4byte	.LVL5
 4395 0548 34000000 		.4byte	.LVL7
 4396 054c 0100     		.2byte	0x1
 4397 054e 50       		.byte	0x50
 4398 054f 00000000 		.4byte	0
 4399 0553 00000000 		.4byte	0
 4400              	.LVUS5:
 4401 0557 00       		.uleb128 0
 4402 0558 00       		.uleb128 .LVU47
 4403 0559 00       		.uleb128 .LVU47
 4404 055a 00       		.uleb128 0
 4405              	.LLST5:
 4406 055b 00000000 		.4byte	.LVL10
 4407 055f 0B000000 		.4byte	.LVL11-1
 4408 0563 0100     		.2byte	0x1
 4409 0565 50       		.byte	0x50
 4410 0566 0B000000 		.4byte	.LVL11-1
 4411 056a 18000000 		.4byte	.LFE8
 4412 056e 0400     		.2byte	0x4
 4413 0570 F3       		.byte	0xf3
 4414 0571 01       		.uleb128 0x1
 4415 0572 50       		.byte	0x50
 4416 0573 9F       		.byte	0x9f
 4417 0574 00000000 		.4byte	0
 4418 0578 00000000 		.4byte	0
 4419              	.LVUS6:
 4420 057c 00       		.uleb128 0
 4421 057d 00       		.uleb128 .LVU47
 4422 057e 00       		.uleb128 .LVU47
 4423 057f 00       		.uleb128 0
 4424              	.LLST6:
 4425 0580 00000000 		.4byte	.LVL10
 4426 0584 0B000000 		.4byte	.LVL11-1
 4427 0588 0100     		.2byte	0x1
 4428 058a 51       		.byte	0x51
 4429 058b 0B000000 		.4byte	.LVL11-1
 4430 058f 18000000 		.4byte	.LFE8
 4431 0593 0400     		.2byte	0x4
 4432 0595 F3       		.byte	0xf3
 4433 0596 01       		.uleb128 0x1
 4434 0597 51       		.byte	0x51
 4435 0598 9F       		.byte	0x9f
 4436 0599 00000000 		.4byte	0
 4437 059d 00000000 		.4byte	0
 4438              	.LVUS13:
 4439 05a1 00       		.uleb128 0
 4440 05a2 00       		.uleb128 .LVU114
 4441 05a3 00       		.uleb128 .LVU114
 4442 05a4 00       		.uleb128 .LVU115
 4443 05a5 00       		.uleb128 .LVU115
 4444 05a6 00       		.uleb128 .LVU123
 4445 05a7 00       		.uleb128 .LVU123
 4446 05a8 00       		.uleb128 .LVU135
ARM GAS  /var/folders/l5/0x54b2c10074c8bt31ycjvl80000gp/T//ccxMzJPy.s 			page 79


 4447 05a9 00       		.uleb128 .LVU135
 4448 05aa 00       		.uleb128 0
 4449              	.LLST13:
 4450 05ab 00000000 		.4byte	.LVL23
 4451 05af 18000000 		.4byte	.LVL24
 4452 05b3 0100     		.2byte	0x1
 4453 05b5 50       		.byte	0x50
 4454 05b6 18000000 		.4byte	.LVL24
 4455 05ba 1C000000 		.4byte	.LVL25
 4456 05be 0400     		.2byte	0x4
 4457 05c0 F3       		.byte	0xf3
 4458 05c1 01       		.uleb128 0x1
 4459 05c2 50       		.byte	0x50
 4460 05c3 9F       		.byte	0x9f
 4461 05c4 1C000000 		.4byte	.LVL25
 4462 05c8 34000000 		.4byte	.LVL27
 4463 05cc 0100     		.2byte	0x1
 4464 05ce 50       		.byte	0x50
 4465 05cf 34000000 		.4byte	.LVL27
 4466 05d3 4B000000 		.4byte	.LVL30-1
 4467 05d7 0100     		.2byte	0x1
 4468 05d9 53       		.byte	0x53
 4469 05da 4B000000 		.4byte	.LVL30-1
 4470 05de 5C000000 		.4byte	.LFE11
 4471 05e2 0400     		.2byte	0x4
 4472 05e4 F3       		.byte	0xf3
 4473 05e5 01       		.uleb128 0x1
 4474 05e6 50       		.byte	0x50
 4475 05e7 9F       		.byte	0x9f
 4476 05e8 00000000 		.4byte	0
 4477 05ec 00000000 		.4byte	0
 4478              	.LVUS14:
 4479 05f0 00       		.uleb128 .LVU116
 4480 05f1 00       		.uleb128 .LVU135
 4481 05f2 00       		.uleb128 .LVU135
 4482 05f3 00       		.uleb128 .LVU137
 4483              	.LLST14:
 4484 05f4 20000000 		.4byte	.LVL26
 4485 05f8 4B000000 		.4byte	.LVL30-1
 4486 05fc 0100     		.2byte	0x1
 4487 05fe 53       		.byte	0x53
 4488 05ff 4B000000 		.4byte	.LVL30-1
 4489 0603 54000000 		.4byte	.LVL31
 4490 0607 0400     		.2byte	0x4
 4491 0609 F3       		.byte	0xf3
 4492 060a 01       		.uleb128 0x1
 4493 060b 50       		.byte	0x50
 4494 060c 9F       		.byte	0x9f
 4495 060d 00000000 		.4byte	0
 4496 0611 00000000 		.4byte	0
 4497              	.LVUS15:
 4498 0615 01       		.uleb128 .LVU125
 4499 0616 00       		.uleb128 .LVU133
 4500              	.LLST15:
 4501 0617 38000000 		.4byte	.LVL28
 4502 061b 48000000 		.4byte	.LVL29
 4503 061f 0100     		.2byte	0x1
ARM GAS  /var/folders/l5/0x54b2c10074c8bt31ycjvl80000gp/T//ccxMzJPy.s 			page 80


 4504 0621 53       		.byte	0x53
 4505 0622 00000000 		.4byte	0
 4506 0626 00000000 		.4byte	0
 4507              	.LVUS16:
 4508 062a 01       		.uleb128 .LVU125
 4509 062b 00       		.uleb128 .LVU133
 4510              	.LLST16:
 4511 062c 38000000 		.4byte	.LVL28
 4512 0630 48000000 		.4byte	.LVL29
 4513 0634 0100     		.2byte	0x1
 4514 0636 52       		.byte	0x52
 4515 0637 00000000 		.4byte	0
 4516 063b 00000000 		.4byte	0
 4517              	.LVUS25:
 4518 063f 00       		.uleb128 0
 4519 0640 00       		.uleb128 .LVU200
 4520 0641 00       		.uleb128 .LVU200
 4521 0642 00       		.uleb128 .LVU224
 4522 0643 00       		.uleb128 .LVU224
 4523 0644 00       		.uleb128 .LVU224
 4524 0645 00       		.uleb128 .LVU224
 4525 0646 00       		.uleb128 0
 4526              	.LLST25:
 4527 0647 00000000 		.4byte	.LVL42
 4528 064b 08000000 		.4byte	.LVL43
 4529 064f 0100     		.2byte	0x1
 4530 0651 50       		.byte	0x50
 4531 0652 08000000 		.4byte	.LVL43
 4532 0656 4B000000 		.4byte	.LVL47-1
 4533 065a 0100     		.2byte	0x1
 4534 065c 53       		.byte	0x53
 4535 065d 4B000000 		.4byte	.LVL47-1
 4536 0661 4C000000 		.4byte	.LVL47
 4537 0665 0400     		.2byte	0x4
 4538 0667 F3       		.byte	0xf3
 4539 0668 01       		.uleb128 0x1
 4540 0669 50       		.byte	0x50
 4541 066a 9F       		.byte	0x9f
 4542 066b 4C000000 		.4byte	.LVL47
 4543 066f 5C000000 		.4byte	.LFE13
 4544 0673 0100     		.2byte	0x1
 4545 0675 53       		.byte	0x53
 4546 0676 00000000 		.4byte	0
 4547 067a 00000000 		.4byte	0
 4548              	.LVUS26:
 4549 067e 00       		.uleb128 0
 4550 067f 00       		.uleb128 .LVU224
 4551 0680 00       		.uleb128 .LVU224
 4552 0681 00       		.uleb128 .LVU224
 4553 0682 00       		.uleb128 .LVU224
 4554 0683 00       		.uleb128 0
 4555              	.LLST26:
 4556 0684 00000000 		.4byte	.LVL42
 4557 0688 4B000000 		.4byte	.LVL47-1
 4558 068c 0100     		.2byte	0x1
 4559 068e 51       		.byte	0x51
 4560 068f 4B000000 		.4byte	.LVL47-1
ARM GAS  /var/folders/l5/0x54b2c10074c8bt31ycjvl80000gp/T//ccxMzJPy.s 			page 81


 4561 0693 4C000000 		.4byte	.LVL47
 4562 0697 0400     		.2byte	0x4
 4563 0699 F3       		.byte	0xf3
 4564 069a 01       		.uleb128 0x1
 4565 069b 51       		.byte	0x51
 4566 069c 9F       		.byte	0x9f
 4567 069d 4C000000 		.4byte	.LVL47
 4568 06a1 5C000000 		.4byte	.LFE13
 4569 06a5 0100     		.2byte	0x1
 4570 06a7 51       		.byte	0x51
 4571 06a8 00000000 		.4byte	0
 4572 06ac 00000000 		.4byte	0
 4573              	.LVUS27:
 4574 06b0 00       		.uleb128 .LVU208
 4575 06b1 00       		.uleb128 .LVU224
 4576 06b2 00       		.uleb128 .LVU224
 4577 06b3 00       		.uleb128 .LVU224
 4578              	.LLST27:
 4579 06b4 28000000 		.4byte	.LVL44
 4580 06b8 4B000000 		.4byte	.LVL47-1
 4581 06bc 0100     		.2byte	0x1
 4582 06be 53       		.byte	0x53
 4583 06bf 4B000000 		.4byte	.LVL47-1
 4584 06c3 4C000000 		.4byte	.LVL47
 4585 06c7 0400     		.2byte	0x4
 4586 06c9 F3       		.byte	0xf3
 4587 06ca 01       		.uleb128 0x1
 4588 06cb 50       		.byte	0x50
 4589 06cc 9F       		.byte	0x9f
 4590 06cd 00000000 		.4byte	0
 4591 06d1 00000000 		.4byte	0
 4592              	.LVUS28:
 4593 06d5 01       		.uleb128 .LVU215
 4594 06d6 00       		.uleb128 .LVU221
 4595              	.LLST28:
 4596 06d7 3C000000 		.4byte	.LVL45
 4597 06db 48000000 		.4byte	.LVL46
 4598 06df 0100     		.2byte	0x1
 4599 06e1 53       		.byte	0x53
 4600 06e2 00000000 		.4byte	0
 4601 06e6 00000000 		.4byte	0
 4602              	.LVUS29:
 4603 06ea 01       		.uleb128 .LVU215
 4604 06eb 00       		.uleb128 .LVU221
 4605              	.LLST29:
 4606 06ec 3C000000 		.4byte	.LVL45
 4607 06f0 48000000 		.4byte	.LVL46
 4608 06f4 0100     		.2byte	0x1
 4609 06f6 52       		.byte	0x52
 4610 06f7 00000000 		.4byte	0
 4611 06fb 00000000 		.4byte	0
 4612              		.section	.debug_aranges,"",%progbits
 4613 0000 6C000000 		.4byte	0x6c
 4614 0004 0200     		.2byte	0x2
 4615 0006 00000000 		.4byte	.Ldebug_info0
 4616 000a 04       		.byte	0x4
 4617 000b 00       		.byte	0
ARM GAS  /var/folders/l5/0x54b2c10074c8bt31ycjvl80000gp/T//ccxMzJPy.s 			page 82


 4618 000c 0000     		.2byte	0
 4619 000e 0000     		.2byte	0
 4620 0010 00000000 		.4byte	.LFB7
 4621 0014 10000000 		.4byte	.LFE7-.LFB7
 4622 0018 00000000 		.4byte	.LFB9
 4623 001c 48000000 		.4byte	.LFE9-.LFB9
 4624 0020 00000000 		.4byte	.LFB8
 4625 0024 18000000 		.4byte	.LFE8-.LFB8
 4626 0028 00000000 		.4byte	.LFB10
 4627 002c 68000000 		.4byte	.LFE10-.LFB10
 4628 0030 00000000 		.4byte	.LFB11
 4629 0034 5C000000 		.4byte	.LFE11-.LFB11
 4630 0038 00000000 		.4byte	.LFB12
 4631 003c 6C000000 		.4byte	.LFE12-.LFB12
 4632 0040 00000000 		.4byte	.LFB13
 4633 0044 5C000000 		.4byte	.LFE13-.LFB13
 4634 0048 00000000 		.4byte	.LFB14
 4635 004c 48000000 		.4byte	.LFE14-.LFB14
 4636 0050 00000000 		.4byte	.LFB15
 4637 0054 38000000 		.4byte	.LFE15-.LFB15
 4638 0058 00000000 		.4byte	.LFB16
 4639 005c 58000000 		.4byte	.LFE16-.LFB16
 4640 0060 00000000 		.4byte	.LFB17
 4641 0064 A0000000 		.4byte	.LFE17-.LFB17
 4642 0068 00000000 		.4byte	0
 4643 006c 00000000 		.4byte	0
 4644              		.section	.debug_ranges,"",%progbits
 4645              	.Ldebug_ranges0:
 4646 0000 20000000 		.4byte	.LBB28
 4647 0004 24000000 		.4byte	.LBE28
 4648 0008 28000000 		.4byte	.LBB31
 4649 000c 34000000 		.4byte	.LBE31
 4650 0010 00000000 		.4byte	0
 4651 0014 00000000 		.4byte	0
 4652 0018 04000000 		.4byte	.LBB38
 4653 001c 1C000000 		.4byte	.LBE38
 4654 0020 28000000 		.4byte	.LBB50
 4655 0024 28000000 		.4byte	.LBE50
 4656 0028 2C000000 		.4byte	.LBB51
 4657 002c 5C000000 		.4byte	.LBE51
 4658 0030 00000000 		.4byte	0
 4659 0034 00000000 		.4byte	0
 4660 0038 28000000 		.4byte	.LBB40
 4661 003c 28000000 		.4byte	.LBE40
 4662 0040 2C000000 		.4byte	.LBB47
 4663 0044 5C000000 		.4byte	.LBE47
 4664 0048 00000000 		.4byte	0
 4665 004c 00000000 		.4byte	0
 4666 0050 30000000 		.4byte	.LBB42
 4667 0054 34000000 		.4byte	.LBE42
 4668 0058 40000000 		.4byte	.LBB45
 4669 005c 50000000 		.4byte	.LBE45
 4670 0060 00000000 		.4byte	0
 4671 0064 00000000 		.4byte	0
 4672 0068 20000000 		.4byte	.LBB56
 4673 006c 20000000 		.4byte	.LBE56
 4674 0070 24000000 		.4byte	.LBB63
ARM GAS  /var/folders/l5/0x54b2c10074c8bt31ycjvl80000gp/T//ccxMzJPy.s 			page 83


 4675 0074 54000000 		.4byte	.LBE63
 4676 0078 00000000 		.4byte	0
 4677 007c 00000000 		.4byte	0
 4678 0080 28000000 		.4byte	.LBB58
 4679 0084 2C000000 		.4byte	.LBE58
 4680 0088 38000000 		.4byte	.LBB61
 4681 008c 48000000 		.4byte	.LBE61
 4682 0090 00000000 		.4byte	0
 4683 0094 00000000 		.4byte	0
 4684 0098 04000000 		.4byte	.LBB70
 4685 009c 1C000000 		.4byte	.LBE70
 4686 00a0 24000000 		.4byte	.LBB82
 4687 00a4 44000000 		.4byte	.LBE82
 4688 00a8 48000000 		.4byte	.LBB83
 4689 00ac 60000000 		.4byte	.LBE83
 4690 00b0 00000000 		.4byte	0
 4691 00b4 00000000 		.4byte	0
 4692 00b8 38000000 		.4byte	.LBB72
 4693 00bc 44000000 		.4byte	.LBE72
 4694 00c0 48000000 		.4byte	.LBB79
 4695 00c4 60000000 		.4byte	.LBE79
 4696 00c8 00000000 		.4byte	0
 4697 00cc 00000000 		.4byte	0
 4698 00d0 3C000000 		.4byte	.LBB74
 4699 00d4 40000000 		.4byte	.LBE74
 4700 00d8 50000000 		.4byte	.LBB77
 4701 00dc 5C000000 		.4byte	.LBE77
 4702 00e0 00000000 		.4byte	0
 4703 00e4 00000000 		.4byte	0
 4704 00e8 2C000000 		.4byte	.LBB90
 4705 00ec 30000000 		.4byte	.LBE90
 4706 00f0 3C000000 		.4byte	.LBB93
 4707 00f4 48000000 		.4byte	.LBE93
 4708 00f8 00000000 		.4byte	0
 4709 00fc 00000000 		.4byte	0
 4710 0100 24000000 		.4byte	.LBB94
 4711 0104 28000000 		.4byte	.LBE94
 4712 0108 2C000000 		.4byte	.LBB98
 4713 010c 30000000 		.4byte	.LBE98
 4714 0110 34000000 		.4byte	.LBB99
 4715 0114 3C000000 		.4byte	.LBE99
 4716 0118 00000000 		.4byte	0
 4717 011c 00000000 		.4byte	0
 4718 0120 18000000 		.4byte	.LBB101
 4719 0124 18000000 		.4byte	.LBE101
 4720 0128 1C000000 		.4byte	.LBB105
 4721 012c 24000000 		.4byte	.LBE105
 4722 0130 28000000 		.4byte	.LBB106
 4723 0134 30000000 		.4byte	.LBE106
 4724 0138 00000000 		.4byte	0
 4725 013c 00000000 		.4byte	0
 4726 0140 48000000 		.4byte	.LBB110
 4727 0144 4C000000 		.4byte	.LBE110
 4728 0148 50000000 		.4byte	.LBB114
 4729 014c 50000000 		.4byte	.LBE114
 4730 0150 54000000 		.4byte	.LBB115
 4731 0154 64000000 		.4byte	.LBE115
ARM GAS  /var/folders/l5/0x54b2c10074c8bt31ycjvl80000gp/T//ccxMzJPy.s 			page 84


 4732 0158 00000000 		.4byte	0
 4733 015c 00000000 		.4byte	0
 4734 0160 00000000 		.4byte	.LFB7
 4735 0164 10000000 		.4byte	.LFE7
 4736 0168 00000000 		.4byte	.LFB9
 4737 016c 48000000 		.4byte	.LFE9
 4738 0170 00000000 		.4byte	.LFB8
 4739 0174 18000000 		.4byte	.LFE8
 4740 0178 00000000 		.4byte	.LFB10
 4741 017c 68000000 		.4byte	.LFE10
 4742 0180 00000000 		.4byte	.LFB11
 4743 0184 5C000000 		.4byte	.LFE11
 4744 0188 00000000 		.4byte	.LFB12
 4745 018c 6C000000 		.4byte	.LFE12
 4746 0190 00000000 		.4byte	.LFB13
 4747 0194 5C000000 		.4byte	.LFE13
 4748 0198 00000000 		.4byte	.LFB14
 4749 019c 48000000 		.4byte	.LFE14
 4750 01a0 00000000 		.4byte	.LFB15
 4751 01a4 38000000 		.4byte	.LFE15
 4752 01a8 00000000 		.4byte	.LFB16
 4753 01ac 58000000 		.4byte	.LFE16
 4754 01b0 00000000 		.4byte	.LFB17
 4755 01b4 A0000000 		.4byte	.LFE17
 4756 01b8 00000000 		.4byte	0
 4757 01bc 00000000 		.4byte	0
 4758              		.section	.debug_line,"",%progbits
 4759              	.Ldebug_line0:
 4760 0000 07080000 		.section	.debug_str,"MS",%progbits,1
 4760      03009F01 
 4760      00000201 
 4760      FB0E0D00 
 4760      01010101 
 4761              	.LASF89:
 4762 0000 63665F6F 		.ascii	"cf_off_older\000"
 4762      66665F6F 
 4762      6C646572 
 4762      00
 4763              	.LASF39:
 4764 000d 705F6D73 		.ascii	"p_msg\000"
 4764      6700
 4765              	.LASF122:
 4766 0013 71756575 		.ascii	"queue_insert\000"
 4766      655F696E 
 4766      73657274 
 4766      00
 4767              	.LASF101:
 4768 0020 63685365 		.ascii	"chSemSignalI\000"
 4768      6D536967 
 4768      6E616C49 
 4768      00
 4769              	.LASF74:
 4770 002d 7264796D 		.ascii	"rdymsg\000"
 4770      736700
 4771              	.LASF4:
 4772 0034 5F5F7569 		.ascii	"__uint8_t\000"
 4772      6E74385F 
ARM GAS  /var/folders/l5/0x54b2c10074c8bt31ycjvl80000gp/T//ccxMzJPy.s 			page 85


 4772      7400
 4773              	.LASF65:
 4774 003e 76746C69 		.ascii	"vtlist\000"
 4774      737400
 4775              	.LASF12:
 4776 0045 6C6F6E67 		.ascii	"long long unsigned int\000"
 4776      206C6F6E 
 4776      6720756E 
 4776      7369676E 
 4776      65642069 
 4777              	.LASF85:
 4778 005c 63685F74 		.ascii	"ch_threadsize\000"
 4778      68726561 
 4778      6473697A 
 4778      6500
 4779              	.LASF75:
 4780 006a 65786974 		.ascii	"exitcode\000"
 4780      636F6465 
 4780      00
 4781              	.LASF100:
 4782 0073 63685365 		.ascii	"chSemAddCounterI\000"
 4782      6D416464 
 4782      436F756E 
 4782      74657249 
 4782      00
 4783              	.LASF28:
 4784 0084 705F7072 		.ascii	"p_prio\000"
 4784      696F00
 4785              	.LASF92:
 4786 008b 63665F6F 		.ascii	"cf_off_state\000"
 4786      66665F73 
 4786      74617465 
 4786      00
 4787              	.LASF11:
 4788 0098 6C6F6E67 		.ascii	"long long int\000"
 4788      206C6F6E 
 4788      6720696E 
 4788      7400
 4789              	.LASF1:
 4790 00a6 7369676E 		.ascii	"signed char\000"
 4790      65642063 
 4790      68617200 
 4791              	.LASF91:
 4792 00b2 63665F6F 		.ascii	"cf_off_stklimit\000"
 4792      66665F73 
 4792      746B6C69 
 4792      6D697400 
 4793              	.LASF93:
 4794 00c2 63665F6F 		.ascii	"cf_off_flags\000"
 4794      66665F66 
 4794      6C616773 
 4794      00
 4795              	.LASF71:
 4796 00cf 6D5F7175 		.ascii	"m_queue\000"
 4796      65756500 
 4797              	.LASF79:
 4798 00d7 63685F69 		.ascii	"ch_identifier\000"
ARM GAS  /var/folders/l5/0x54b2c10074c8bt31ycjvl80000gp/T//ccxMzJPy.s 			page 86


 4798      64656E74 
 4798      69666965 
 4798      7200
 4799              	.LASF120:
 4800 00e5 2E2E2F2E 		.ascii	"../../os/kernel/src/chsem.c\000"
 4800      2E2F6F73 
 4800      2F6B6572 
 4800      6E656C2F 
 4800      7372632F 
 4801              	.LASF8:
 4802 0101 6C6F6E67 		.ascii	"long int\000"
 4802      20696E74 
 4802      00
 4803              	.LASF18:
 4804 010a 74737461 		.ascii	"tstate_t\000"
 4804      74655F74 
 4804      00
 4805              	.LASF102:
 4806 0113 63685365 		.ascii	"chSemSignal\000"
 4806      6D536967 
 4806      6E616C00 
 4807              	.LASF14:
 4808 011f 75696E74 		.ascii	"uint16_t\000"
 4808      31365F74 
 4808      00
 4809              	.LASF97:
 4810 0128 63686465 		.ascii	"chdebug_t\000"
 4810      6275675F 
 4810      7400
 4811              	.LASF30:
 4812 0132 705F6E65 		.ascii	"p_newer\000"
 4812      77657200 
 4813              	.LASF99:
 4814 013a 5F69646C 		.ascii	"_idle_thread_wa\000"
 4814      655F7468 
 4814      72656164 
 4814      5F776100 
 4815              	.LASF68:
 4816 014a 735F7175 		.ascii	"s_queue\000"
 4816      65756500 
 4817              	.LASF115:
 4818 0152 63685363 		.ascii	"chSchRescheduleS\000"
 4818      68526573 
 4818      63686564 
 4818      756C6553 
 4818      00
 4819              	.LASF9:
 4820 0163 5F5F7569 		.ascii	"__uint32_t\000"
 4820      6E743332 
 4820      5F7400
 4821              	.LASF46:
 4822 016e 72656761 		.ascii	"regarm_t\000"
 4822      726D5F74 
 4822      00
 4823              	.LASF52:
 4824 0177 76745F70 		.ascii	"vt_prev\000"
 4824      72657600 
ARM GAS  /var/folders/l5/0x54b2c10074c8bt31ycjvl80000gp/T//ccxMzJPy.s 			page 87


 4825              	.LASF104:
 4826 017f 63685365 		.ascii	"chSemSignalWait\000"
 4826      6D536967 
 4826      6E616C57 
 4826      61697400 
 4827              	.LASF24:
 4828 018f 636E745F 		.ascii	"cnt_t\000"
 4828      7400
 4829              	.LASF0:
 4830 0195 756E7369 		.ascii	"unsigned int\000"
 4830      676E6564 
 4830      20696E74 
 4830      00
 4831              	.LASF105:
 4832 01a2 63685365 		.ascii	"chSemWaitTimeout\000"
 4832      6D576169 
 4832      7454696D 
 4832      656F7574 
 4832      00
 4833              	.LASF51:
 4834 01b3 76745F6E 		.ascii	"vt_next\000"
 4834      65787400 
 4835              	.LASF10:
 4836 01bb 6C6F6E67 		.ascii	"long unsigned int\000"
 4836      20756E73 
 4836      69676E65 
 4836      6420696E 
 4836      7400
 4837              	.LASF98:
 4838 01cd 63685F64 		.ascii	"ch_debug\000"
 4838      65627567 
 4838      00
 4839              	.LASF49:
 4840 01d6 76746675 		.ascii	"vtfunc_t\000"
 4840      6E635F74 
 4840      00
 4841              	.LASF69:
 4842 01df 735F636E 		.ascii	"s_cnt\000"
 4842      7400
 4843              	.LASF48:
 4844 01e5 636F6E74 		.ascii	"context\000"
 4844      65787400 
 4845              	.LASF6:
 4846 01ed 73686F72 		.ascii	"short unsigned int\000"
 4846      7420756E 
 4846      7369676E 
 4846      65642069 
 4846      6E7400
 4847              	.LASF110:
 4848 0200 63685365 		.ascii	"chSemReset\000"
 4848      6D526573 
 4848      657400
 4849              	.LASF117:
 4850 020b 63685363 		.ascii	"chSchWakeupS\000"
 4850      6857616B 
 4850      65757053 
 4850      00
ARM GAS  /var/folders/l5/0x54b2c10074c8bt31ycjvl80000gp/T//ccxMzJPy.s 			page 88


 4851              	.LASF21:
 4852 0218 6D73675F 		.ascii	"msg_t\000"
 4852      7400
 4853              	.LASF61:
 4854 021e 725F6E65 		.ascii	"r_newer\000"
 4854      77657200 
 4855              	.LASF119:
 4856 0226 474E5520 		.ascii	"GNU C17 8.3.1 20190703 (release) [gcc-8-branch revi"
 4856      43313720 
 4856      382E332E 
 4856      31203230 
 4856      31393037 
 4857 0259 73696F6E 		.ascii	"sion 273027] -mcpu=arm1176jz-s -mno-thumb-interwork"
 4857      20323733 
 4857      3032375D 
 4857      202D6D63 
 4857      70753D61 
 4858 028c 202D6D66 		.ascii	" -mfloat-abi=soft -marm -march=armv6kz -ggdb -O2 -f"
 4858      6C6F6174 
 4858      2D616269 
 4858      3D736F66 
 4858      74202D6D 
 4859 02bf 6F6D6974 		.ascii	"omit-frame-pointer -ffunction-sections -fdata-secti"
 4859      2D667261 
 4859      6D652D70 
 4859      6F696E74 
 4859      6572202D 
 4860 02f2 6F6E7300 		.ascii	"ons\000"
 4861              	.LASF17:
 4862 02f6 746D6F64 		.ascii	"tmode_t\000"
 4862      655F7400 
 4863              	.LASF44:
 4864 02fe 54687265 		.ascii	"ThreadsList\000"
 4864      6164734C 
 4864      69737400 
 4865              	.LASF22:
 4866 030a 6576656E 		.ascii	"eventmask_t\000"
 4866      746D6173 
 4866      6B5F7400 
 4867              	.LASF70:
 4868 0316 4D757465 		.ascii	"Mutex\000"
 4868      7800
 4869              	.LASF45:
 4870 031c 73746B61 		.ascii	"stkalign_t\000"
 4870      6C69676E 
 4870      5F7400
 4871              	.LASF80:
 4872 0327 63685F7A 		.ascii	"ch_zero\000"
 4872      65726F00 
 4873              	.LASF94:
 4874 032f 63665F6F 		.ascii	"cf_off_refs\000"
 4874      66665F72 
 4874      65667300 
 4875              	.LASF53:
 4876 033b 76745F74 		.ascii	"vt_time\000"
 4876      696D6500 
 4877              	.LASF54:
ARM GAS  /var/folders/l5/0x54b2c10074c8bt31ycjvl80000gp/T//ccxMzJPy.s 			page 89


 4878 0343 76745F66 		.ascii	"vt_func\000"
 4878      756E6300 
 4879              	.LASF84:
 4880 034b 63685F74 		.ascii	"ch_timesize\000"
 4880      696D6573 
 4880      697A6500 
 4881              	.LASF90:
 4882 0357 63665F6F 		.ascii	"cf_off_name\000"
 4882      66665F6E 
 4882      616D6500 
 4883              	.LASF31:
 4884 0363 705F6F6C 		.ascii	"p_older\000"
 4884      64657200 
 4885              	.LASF60:
 4886 036b 725F6374 		.ascii	"r_ctx\000"
 4886      7800
 4887              	.LASF43:
 4888 0371 54687265 		.ascii	"ThreadsQueue\000"
 4888      61647351 
 4888      75657565 
 4888      00
 4889              	.LASF81:
 4890 037e 63685F73 		.ascii	"ch_size\000"
 4890      697A6500 
 4891              	.LASF103:
 4892 0386 74696D65 		.ascii	"time\000"
 4892      00
 4893              	.LASF63:
 4894 038b 725F6375 		.ascii	"r_current\000"
 4894      7272656E 
 4894      7400
 4895              	.LASF62:
 4896 0395 725F6F6C 		.ascii	"r_older\000"
 4896      64657200 
 4897              	.LASF19:
 4898 039d 74726566 		.ascii	"trefs_t\000"
 4898      735F7400 
 4899              	.LASF83:
 4900 03a5 63685F70 		.ascii	"ch_ptrsize\000"
 4900      74727369 
 4900      7A6500
 4901              	.LASF27:
 4902 03b0 705F7072 		.ascii	"p_prev\000"
 4902      657600
 4903              	.LASF20:
 4904 03b7 74707269 		.ascii	"tprio_t\000"
 4904      6F5F7400 
 4905              	.LASF15:
 4906 03bf 696E7433 		.ascii	"int32_t\000"
 4906      325F7400 
 4907              	.LASF2:
 4908 03c7 756E7369 		.ascii	"unsigned char\000"
 4908      676E6564 
 4908      20636861 
 4908      7200
 4909              	.LASF41:
 4910 03d5 705F6D74 		.ascii	"p_mtxlist\000"
ARM GAS  /var/folders/l5/0x54b2c10074c8bt31ycjvl80000gp/T//ccxMzJPy.s 			page 90


 4910      786C6973 
 4910      7400
 4911              	.LASF3:
 4912 03df 73686F72 		.ascii	"short int\000"
 4912      7420696E 
 4912      7400
 4913              	.LASF33:
 4914 03e9 705F7374 		.ascii	"p_state\000"
 4914      61746500 
 4915              	.LASF96:
 4916 03f1 63665F6F 		.ascii	"cf_off_time\000"
 4916      66665F74 
 4916      696D6500 
 4917              	.LASF59:
 4918 03fd 725F7072 		.ascii	"r_prio\000"
 4918      696F00
 4919              	.LASF77:
 4920 0404 65776D61 		.ascii	"ewmask\000"
 4920      736B00
 4921              	.LASF26:
 4922 040b 705F6E65 		.ascii	"p_next\000"
 4922      787400
 4923              	.LASF95:
 4924 0412 63665F6F 		.ascii	"cf_off_preempt\000"
 4924      66665F70 
 4924      7265656D 
 4924      707400
 4925              	.LASF34:
 4926 0421 705F666C 		.ascii	"p_flags\000"
 4926      61677300 
 4927              	.LASF107:
 4928 0429 63685365 		.ascii	"chSemWaitS\000"
 4928      6D576169 
 4928      745300
 4929              	.LASF25:
 4930 0434 54687265 		.ascii	"Thread\000"
 4930      616400
 4931              	.LASF88:
 4932 043b 63665F6F 		.ascii	"cf_off_newer\000"
 4932      66665F6E 
 4932      65776572 
 4932      00
 4933              	.LASF114:
 4934 0448 63685363 		.ascii	"chSchGoSleepS\000"
 4934      68476F53 
 4934      6C656570 
 4934      5300
 4935              	.LASF40:
 4936 0456 705F6570 		.ascii	"p_epending\000"
 4936      656E6469 
 4936      6E6700
 4937              	.LASF16:
 4938 0461 75696E74 		.ascii	"uint32_t\000"
 4938      33325F74 
 4938      00
 4939              	.LASF86:
 4940 046a 63665F6F 		.ascii	"cf_off_prio\000"
ARM GAS  /var/folders/l5/0x54b2c10074c8bt31ycjvl80000gp/T//ccxMzJPy.s 			page 91


 4940      66665F70 
 4940      72696F00 
 4941              	.LASF58:
 4942 0476 725F7175 		.ascii	"r_queue\000"
 4942      65756500 
 4943              	.LASF50:
 4944 047e 56697274 		.ascii	"VirtualTimer\000"
 4944      75616C54 
 4944      696D6572 
 4944      00
 4945              	.LASF78:
 4946 048b 63686172 		.ascii	"char\000"
 4946      00
 4947              	.LASF113:
 4948 0490 6669666F 		.ascii	"fifo_remove\000"
 4948      5F72656D 
 4948      6F766500 
 4949              	.LASF106:
 4950 049c 63685365 		.ascii	"chSemWaitTimeoutS\000"
 4950      6D576169 
 4950      7454696D 
 4950      656F7574 
 4950      5300
 4951              	.LASF5:
 4952 04ae 5F5F7569 		.ascii	"__uint16_t\000"
 4952      6E743136 
 4952      5F7400
 4953              	.LASF116:
 4954 04b9 63685363 		.ascii	"chSchReadyI\000"
 4954      68526561 
 4954      64794900 
 4955              	.LASF73:
 4956 04c5 6D5F6E65 		.ascii	"m_next\000"
 4956      787400
 4957              	.LASF23:
 4958 04cc 73797374 		.ascii	"systime_t\000"
 4958      696D655F 
 4958      7400
 4959              	.LASF42:
 4960 04d6 705F7265 		.ascii	"p_realprio\000"
 4960      616C7072 
 4960      696F00
 4961              	.LASF7:
 4962 04e1 5F5F696E 		.ascii	"__int32_t\000"
 4962      7433325F 
 4962      7400
 4963              	.LASF108:
 4964 04eb 63685365 		.ascii	"chSemWait\000"
 4964      6D576169 
 4964      7400
 4965              	.LASF36:
 4966 04f5 705F7469 		.ascii	"p_time\000"
 4966      6D6500
 4967              	.LASF112:
 4968 04fc 6C69666F 		.ascii	"lifo_remove\000"
 4968      5F72656D 
 4968      6F766500 
ARM GAS  /var/folders/l5/0x54b2c10074c8bt31ycjvl80000gp/T//ccxMzJPy.s 			page 92


 4969              	.LASF47:
 4970 0508 696E7463 		.ascii	"intctx\000"
 4970      747800
 4971              	.LASF38:
 4972 050f 705F6D73 		.ascii	"p_msgqueue\000"
 4972      67717565 
 4972      756500
 4973              	.LASF55:
 4974 051a 76745F70 		.ascii	"vt_par\000"
 4974      617200
 4975              	.LASF67:
 4976 0521 53656D61 		.ascii	"Semaphore\000"
 4976      70686F72 
 4976      6500
 4977              	.LASF87:
 4978 052b 63665F6F 		.ascii	"cf_off_ctx\000"
 4978      66665F63 
 4978      747800
 4979              	.LASF35:
 4980 0536 705F7265 		.ascii	"p_refs\000"
 4980      667300
 4981              	.LASF64:
 4982 053d 52656164 		.ascii	"ReadyList\000"
 4982      794C6973 
 4982      7400
 4983              	.LASF109:
 4984 0547 63685365 		.ascii	"chSemResetI\000"
 4984      6D526573 
 4984      65744900 
 4985              	.LASF66:
 4986 0553 726C6973 		.ascii	"rlist\000"
 4986      7400
 4987              	.LASF13:
 4988 0559 75696E74 		.ascii	"uint8_t\000"
 4988      385F7400 
 4989              	.LASF76:
 4990 0561 77746F62 		.ascii	"wtobjp\000"
 4990      6A7000
 4991              	.LASF32:
 4992 0568 705F6E61 		.ascii	"p_name\000"
 4992      6D6500
 4993              	.LASF56:
 4994 056f 76745F73 		.ascii	"vt_systime\000"
 4994      79737469 
 4994      6D6500
 4995              	.LASF118:
 4996 057a 63685363 		.ascii	"chSchGoSleepTimeoutS\000"
 4996      68476F53 
 4996      6C656570 
 4996      54696D65 
 4996      6F757453 
 4997              	.LASF82:
 4998 058f 63685F76 		.ascii	"ch_version\000"
 4998      65727369 
 4998      6F6E00
 4999              	.LASF121:
 5000 059a 2F557365 		.ascii	"/Users/fernandoguirado/eclipse-workspace/ChibiOS-RP"
ARM GAS  /var/folders/l5/0x54b2c10074c8bt31ycjvl80000gp/T//ccxMzJPy.s 			page 93


 5000      72732F66 
 5000      65726E61 
 5000      6E646F67 
 5000      75697261 
 5001 05cd 692D636F 		.ascii	"i-copia/demos/timers\000"
 5001      7069612F 
 5001      64656D6F 
 5001      732F7469 
 5001      6D657273 
 5002              	.LASF57:
 5003 05e2 56544C69 		.ascii	"VTList\000"
 5003      737400
 5004              	.LASF72:
 5005 05e9 6D5F6F77 		.ascii	"m_owner\000"
 5005      6E657200 
 5006              	.LASF29:
 5007 05f1 705F6374 		.ascii	"p_ctx\000"
 5007      7800
 5008              	.LASF37:
 5009 05f7 705F7761 		.ascii	"p_waiting\000"
 5009      6974696E 
 5009      6700
 5010              	.LASF111:
 5011 0601 63685365 		.ascii	"chSemInit\000"
 5011      6D496E69 
 5011      7400
 5012              		.ident	"GCC: (GNU Tools for Arm Embedded Processors 8-2019-q3-update) 8.3.1 20190703 (release) [gc
ARM GAS  /var/folders/l5/0x54b2c10074c8bt31ycjvl80000gp/T//ccxMzJPy.s 			page 94


DEFINED SYMBOLS
                            *ABS*:0000000000000000 chsem.c
/var/folders/l5/0x54b2c10074c8bt31ycjvl80000gp/T//ccxMzJPy.s:16     .text.chSemInit:0000000000000000 $a
/var/folders/l5/0x54b2c10074c8bt31ycjvl80000gp/T//ccxMzJPy.s:23     .text.chSemInit:0000000000000000 chSemInit
/var/folders/l5/0x54b2c10074c8bt31ycjvl80000gp/T//ccxMzJPy.s:47     .text.chSemResetI:0000000000000000 $a
/var/folders/l5/0x54b2c10074c8bt31ycjvl80000gp/T//ccxMzJPy.s:53     .text.chSemResetI:0000000000000000 chSemResetI
/var/folders/l5/0x54b2c10074c8bt31ycjvl80000gp/T//ccxMzJPy.s:137    .text.chSemReset:0000000000000000 $a
/var/folders/l5/0x54b2c10074c8bt31ycjvl80000gp/T//ccxMzJPy.s:143    .text.chSemReset:0000000000000000 chSemReset
/var/folders/l5/0x54b2c10074c8bt31ycjvl80000gp/T//ccxMzJPy.s:186    .text.chSemWait:0000000000000000 $a
/var/folders/l5/0x54b2c10074c8bt31ycjvl80000gp/T//ccxMzJPy.s:192    .text.chSemWait:0000000000000000 chSemWait
/var/folders/l5/0x54b2c10074c8bt31ycjvl80000gp/T//ccxMzJPy.s:336    .text.chSemWait:0000000000000064 $d
/var/folders/l5/0x54b2c10074c8bt31ycjvl80000gp/T//ccxMzJPy.s:341    .text.chSemWaitS:0000000000000000 $a
/var/folders/l5/0x54b2c10074c8bt31ycjvl80000gp/T//ccxMzJPy.s:347    .text.chSemWaitS:0000000000000000 chSemWaitS
/var/folders/l5/0x54b2c10074c8bt31ycjvl80000gp/T//ccxMzJPy.s:444    .text.chSemWaitS:0000000000000058 $d
/var/folders/l5/0x54b2c10074c8bt31ycjvl80000gp/T//ccxMzJPy.s:449    .text.chSemWaitTimeout:0000000000000000 $a
/var/folders/l5/0x54b2c10074c8bt31ycjvl80000gp/T//ccxMzJPy.s:455    .text.chSemWaitTimeout:0000000000000000 chSemWaitTimeout
/var/folders/l5/0x54b2c10074c8bt31ycjvl80000gp/T//ccxMzJPy.s:603    .text.chSemWaitTimeout:0000000000000068 $d
/var/folders/l5/0x54b2c10074c8bt31ycjvl80000gp/T//ccxMzJPy.s:608    .text.chSemWaitTimeoutS:0000000000000000 $a
/var/folders/l5/0x54b2c10074c8bt31ycjvl80000gp/T//ccxMzJPy.s:614    .text.chSemWaitTimeoutS:0000000000000000 chSemWaitTimeoutS
/var/folders/l5/0x54b2c10074c8bt31ycjvl80000gp/T//ccxMzJPy.s:704    .text.chSemWaitTimeoutS:0000000000000058 $d
/var/folders/l5/0x54b2c10074c8bt31ycjvl80000gp/T//ccxMzJPy.s:709    .text.chSemSignal:0000000000000000 $a
/var/folders/l5/0x54b2c10074c8bt31ycjvl80000gp/T//ccxMzJPy.s:715    .text.chSemSignal:0000000000000000 chSemSignal
/var/folders/l5/0x54b2c10074c8bt31ycjvl80000gp/T//ccxMzJPy.s:811    .text.chSemSignalI:0000000000000000 $a
/var/folders/l5/0x54b2c10074c8bt31ycjvl80000gp/T//ccxMzJPy.s:817    .text.chSemSignalI:0000000000000000 chSemSignalI
/var/folders/l5/0x54b2c10074c8bt31ycjvl80000gp/T//ccxMzJPy.s:890    .text.chSemAddCounterI:0000000000000000 $a
/var/folders/l5/0x54b2c10074c8bt31ycjvl80000gp/T//ccxMzJPy.s:896    .text.chSemAddCounterI:0000000000000000 chSemAddCounterI
/var/folders/l5/0x54b2c10074c8bt31ycjvl80000gp/T//ccxMzJPy.s:979    .text.chSemSignalWait:0000000000000000 $a
/var/folders/l5/0x54b2c10074c8bt31ycjvl80000gp/T//ccxMzJPy.s:985    .text.chSemSignalWait:0000000000000000 chSemSignalWait
/var/folders/l5/0x54b2c10074c8bt31ycjvl80000gp/T//ccxMzJPy.s:1156   .text.chSemSignalWait:000000000000009c $d

UNDEFINED SYMBOLS
chSchReadyI
chSchRescheduleS
chSchGoSleepS
rlist
chSchGoSleepTimeoutS
chSchWakeupS
