ARM GAS  /var/folders/l5/0x54b2c10074c8bt31ycjvl80000gp/T//ccxMzJPy.s 			page 1


   1              		.cpu arm1176jz-s
   2              		.eabi_attribute 20, 1
   3              		.eabi_attribute 21, 1
   4              		.eabi_attribute 23, 3
   5              		.eabi_attribute 24, 1
   6              		.eabi_attribute 25, 1
   7              		.eabi_attribute 26, 1
   8              		.eabi_attribute 30, 2
   9              		.eabi_attribute 34, 1
  10              		.eabi_attribute 18, 4
  11              		.file	"chsem.c"
  12              		.text
  13              	.Ltext0:
  14              		.cfi_sections	.debug_frame
  15              		.section	.text.chSemInit,"ax",%progbits
  16              		.align	2
  17              		.global	chSemInit
  18              		.arch armv6kz
  19              		.syntax unified
  20              		.arm
  21              		.fpu softvfp
  22              		.type	chSemInit, %function
  23              	chSemInit:
  24              	.LVL0:
  25              	.LFB7:
  26              		.file 1 "../../os/kernel/src/chsem.c"
  27              		.loc 1 79 40 view -0
  28              		.cfi_startproc
  29              		@ args = 0, pretend = 0, frame = 0
  30              		@ frame_needed = 0, uses_anonymous_args = 0
  31              		@ link register save eliminated.
  32              		.loc 1 81 3 view .LVU1
  33              		.loc 1 81 52 view .LVU2
  34              		.loc 1 83 3 view .LVU3
  35 0000 040080E5 		str	r0, [r0, #4]
  36 0004 000080E5 		str	r0, [r0]
  37              		.loc 1 83 27 view .LVU4
  38              		.loc 1 84 3 view .LVU5
  39              		.loc 1 84 13 is_stmt 0 view .LVU6
  40 0008 081080E5 		str	r1, [r0, #8]
  41              		.loc 1 85 1 view .LVU7
  42 000c 1EFF2FE1 		bx	lr
  43              		.cfi_endproc
  44              	.LFE7:
  45              		.size	chSemInit, .-chSemInit
  46              		.section	.text.chSemResetI,"ax",%progbits
  47              		.align	2
  48              		.global	chSemResetI
  49              		.syntax unified
  50              		.arm
  51              		.fpu softvfp
  52              		.type	chSemResetI, %function
  53              	chSemResetI:
  54              	.LVL1:
  55              	.LFB9:
  56              		.loc 1 129 42 is_stmt 1 view -0
  57              		.cfi_startproc
ARM GAS  /var/folders/l5/0x54b2c10074c8bt31ycjvl80000gp/T//ccxMzJPy.s 			page 2


  58              		@ args = 0, pretend = 0, frame = 0
  59              		@ frame_needed = 0, uses_anonymous_args = 0
  60              		.loc 1 130 3 view .LVU9
  61              		.loc 1 132 3 view .LVU10
  62              		.loc 1 132 21 view .LVU11
  63              		.loc 1 133 3 view .LVU12
  64              		.loc 1 133 54 view .LVU13
  65              		.loc 1 134 3 view .LVU14
  66              		.loc 1 129 42 is_stmt 0 view .LVU15
  67 0000 70402DE9 		push	{r4, r5, r6, lr}
  68              		.cfi_def_cfa_offset 16
  69              		.cfi_offset 4, -16
  70              		.cfi_offset 5, -12
  71              		.cfi_offset 6, -8
  72              		.cfi_offset 14, -4
  73              		.loc 1 134 3 view .LVU16
  74 0004 085090E5 		ldr	r5, [r0, #8]
  75              		.loc 1 137 40 is_stmt 1 view .LVU17
  76              		.loc 1 139 3 view .LVU18
  77              	.LVL2:
  78              		.loc 1 140 3 view .LVU19
  79              		.loc 1 140 13 is_stmt 0 view .LVU20
  80 0008 081080E5 		str	r1, [r0, #8]
  81              		.loc 1 141 3 is_stmt 1 view .LVU21
  82              		.loc 1 141 9 is_stmt 0 view .LVU22
  83 000c 015085E2 		add	r5, r5, #1
  84              	.LVL3:
  85              		.loc 1 141 9 view .LVU23
  86 0010 000055E3 		cmp	r5, #0
  87 0014 7080BDC8 		popgt	{r4, r5, r6, pc}
  88 0018 0040A0E1 		mov	r4, r0
  89              		.loc 1 142 56 view .LVU24
  90 001c 0160E0E3 		mvn	r6, #1
  91              	.LVL4:
  92              	.L5:
  93              		.loc 1 142 5 is_stmt 1 view .LVU25
  94              	.LBB28:
  95              	.LBI28:
  96              		.file 2 "../../os/kernel/include/chinline.h"
  97              		.loc 2 59 23 view .LVU26
  98              	.LBB29:
  99              		.loc 2 60 3 view .LVU27
 100              		.loc 2 60 11 is_stmt 0 view .LVU28
 101 0020 040094E5 		ldr	r0, [r4, #4]
 102              	.LVL5:
 103              		.loc 2 62 3 is_stmt 1 view .LVU29
 104              	.LBE29:
 105              	.LBE28:
 106              		.loc 1 141 9 is_stmt 0 view .LVU30
 107 0024 015085E2 		add	r5, r5, #1
 108              	.LVL6:
 109              	.LBB31:
 110              	.LBB30:
 111              		.loc 2 62 20 view .LVU31
 112 0028 043090E5 		ldr	r3, [r0, #4]
 113              		.loc 2 62 16 view .LVU32
 114 002c 043084E5 		str	r3, [r4, #4]
ARM GAS  /var/folders/l5/0x54b2c10074c8bt31ycjvl80000gp/T//ccxMzJPy.s 			page 3


 115              		.loc 2 62 38 view .LVU33
 116 0030 004083E5 		str	r4, [r3]
 117              		.loc 2 63 3 is_stmt 1 view .LVU34
 118              	.LVL7:
 119              		.loc 2 63 3 is_stmt 0 view .LVU35
 120              	.LBE30:
 121              	.LBE31:
 122              		.loc 1 142 5 view .LVU36
 123 0034 FEFFFFEB 		bl	chSchReadyI
 124              	.LVL8:
 125              		.loc 1 141 9 view .LVU37
 126 0038 010055E3 		cmp	r5, #1
 127              		.loc 1 142 56 view .LVU38
 128 003c 246080E5 		str	r6, [r0, #36]
 129              	.LVL9:
 130              		.loc 1 141 9 view .LVU39
 131 0040 F6FFFF1A 		bne	.L5
 132 0044 7080BDE8 		pop	{r4, r5, r6, pc}
 133              		.cfi_endproc
 134              	.LFE9:
 135              		.size	chSemResetI, .-chSemResetI
 136              		.section	.text.chSemReset,"ax",%progbits
 137              		.align	2
 138              		.global	chSemReset
 139              		.syntax unified
 140              		.arm
 141              		.fpu softvfp
 142              		.type	chSemReset, %function
 143              	chSemReset:
 144              	.LVL10:
 145              	.LFB8:
 146              		.loc 1 102 41 is_stmt 1 view -0
 147              		.cfi_startproc
 148              		@ args = 0, pretend = 0, frame = 0
 149              		@ frame_needed = 0, uses_anonymous_args = 0
 150              		.loc 1 104 3 view .LVU41
 151              		.loc 1 102 41 is_stmt 0 view .LVU42
 152 0000 10402DE9 		push	{r4, lr}
 153              		.cfi_def_cfa_offset 8
 154              		.cfi_offset 4, -8
 155              		.cfi_offset 14, -4
 156              		.loc 1 104 3 view .LVU43
 157              		.syntax divided
 158              	@ 104 "../../os/kernel/src/chsem.c" 1
 159 0004 9FF021E3 		msr     CPSR_c, #0x9F
 160              	@ 0 "" 2
 161              		.loc 1 104 3 is_stmt 1 view .LVU44
 162              		.loc 1 104 14 view .LVU45
 163              		.loc 1 105 3 view .LVU46
 164              		.arm
 165              		.syntax unified
 166 0008 FEFFFFEB 		bl	chSemResetI
 167              	.LVL11:
 168              		.loc 1 106 3 view .LVU47
 169 000c FEFFFFEB 		bl	chSchRescheduleS
 170              	.LVL12:
 171              		.loc 1 107 3 view .LVU48
ARM GAS  /var/folders/l5/0x54b2c10074c8bt31ycjvl80000gp/T//ccxMzJPy.s 			page 4


 172              		.loc 1 107 3 view .LVU49
 173              		.syntax divided
 174              	@ 107 "../../os/kernel/src/chsem.c" 1
 175 0010 1FF021E3 		msr     CPSR_c, #0x1F
 176              	@ 0 "" 2
 177              		.loc 1 107 16 view .LVU50
 178              		.loc 1 108 1 is_stmt 0 view .LVU51
 179              		.arm
 180              		.syntax unified
 181 0014 1080BDE8 		pop	{r4, pc}
 182              		.cfi_endproc
 183              	.LFE8:
 184              		.size	chSemReset, .-chSemReset
 185              		.section	.text.chSemWait,"ax",%progbits
 186              		.align	2
 187              		.global	chSemWait
 188              		.syntax unified
 189              		.arm
 190              		.fpu softvfp
 191              		.type	chSemWait, %function
 192              	chSemWait:
 193              	.LVL13:
 194              	.LFB10:
 195              		.loc 1 157 32 is_stmt 1 view -0
 196              		.cfi_startproc
 197              		@ args = 0, pretend = 0, frame = 0
 198              		@ frame_needed = 0, uses_anonymous_args = 0
 199              		.loc 1 158 3 view .LVU53
 200              		.loc 1 160 3 view .LVU54
 201              		.syntax divided
 202              	@ 160 "../../os/kernel/src/chsem.c" 1
 203 0000 9FF021E3 		msr     CPSR_c, #0x9F
 204              	@ 0 "" 2
 205              		.loc 1 160 3 view .LVU55
 206              		.loc 1 160 14 view .LVU56
 207              		.loc 1 161 3 view .LVU57
 208              	.LVL14:
 209              		.arm
 210              		.syntax unified
 211              	.LBB38:
 212              	.LBI38:
 213              		.loc 1 178 7 view .LVU58
 214              	.LBB39:
 215              		.loc 1 180 3 view .LVU59
 216              		.loc 1 180 21 view .LVU60
 217              		.loc 1 181 3 view .LVU61
 218              		.loc 1 181 39 view .LVU62
 219              		.loc 1 182 3 view .LVU63
 220              		.loc 1 185 40 view .LVU64
 221              		.loc 1 187 3 view .LVU65
 222              		.loc 1 187 7 is_stmt 0 view .LVU66
 223 0004 083090E5 		ldr	r3, [r0, #8]
 224 0008 013043E2 		sub	r3, r3, #1
 225              		.loc 1 187 6 view .LVU67
 226 000c 000053E3 		cmp	r3, #0
 227 0010 083080E5 		str	r3, [r0, #8]
 228 0014 020000BA 		blt	.L18
ARM GAS  /var/folders/l5/0x54b2c10074c8bt31ycjvl80000gp/T//ccxMzJPy.s 			page 5


 229              		.loc 1 193 10 view .LVU68
 230 0018 0000A0E3 		mov	r0, #0
 231              	.LVL15:
 232              		.loc 1 193 10 view .LVU69
 233              	.LBE39:
 234              	.LBE38:
 235              		.loc 1 162 3 is_stmt 1 view .LVU70
 236              		.loc 1 162 3 view .LVU71
 237              		.syntax divided
 238              	@ 162 "../../os/kernel/src/chsem.c" 1
 239 001c 1FF021E3 		msr     CPSR_c, #0x1F
 240              	@ 0 "" 2
 241              		.loc 1 162 16 view .LVU72
 242              		.loc 1 163 3 view .LVU73
 243              		.loc 1 164 1 is_stmt 0 view .LVU74
 244              		.arm
 245              		.syntax unified
 246 0020 1EFF2FE1 		bx	lr
 247              	.LVL16:
 248              	.L18:
 249              		.loc 1 164 1 view .LVU75
 250 0024 0030A0E1 		mov	r3, r0
 251              	.LVL17:
 252              	.LBB50:
 253              	.LBB48:
 254              	.LBB40:
 255              	.LBI40:
 256              		.loc 1 178 7 is_stmt 1 view .LVU76
 257              	.LBB41:
 258              		.loc 1 188 5 view .LVU77
 259              	.LBE41:
 260              	.LBE40:
 261              	.LBE48:
 262              	.LBE50:
 263              		.loc 1 157 32 is_stmt 0 view .LVU78
 264 0028 10402DE9 		push	{r4, lr}
 265              		.cfi_def_cfa_offset 8
 266              		.cfi_offset 4, -8
 267              		.cfi_offset 14, -4
 268              	.LBB51:
 269              	.LBB49:
 270              	.LBB47:
 271              	.LBB46:
 272              		.loc 1 188 5 view .LVU79
 273 002c 30409FE5 		ldr	r4, .L19
 274              	.LBB42:
 275              	.LBB43:
 276              		.loc 2 48 19 view .LVU80
 277 0030 041090E5 		ldr	r1, [r0, #4]
 278              	.LBE43:
 279              	.LBE42:
 280              		.loc 1 188 5 view .LVU81
 281 0034 182094E5 		ldr	r2, [r4, #24]
 282              		.loc 1 190 5 view .LVU82
 283 0038 0300A0E3 		mov	r0, #3
 284              	.LVL18:
 285              		.loc 1 188 23 view .LVU83
ARM GAS  /var/folders/l5/0x54b2c10074c8bt31ycjvl80000gp/T//ccxMzJPy.s 			page 6


 286 003c 243082E5 		str	r3, [r2, #36]
 287              		.loc 1 189 5 is_stmt 1 view .LVU84
 288              	.LVL19:
 289              	.LBB45:
 290              	.LBI42:
 291              		.loc 2 45 20 view .LVU85
 292              	.LBB44:
 293              		.loc 2 47 3 view .LVU86
 294              		.loc 2 47 14 is_stmt 0 view .LVU87
 295 0040 003082E5 		str	r3, [r2]
 296              		.loc 2 48 3 is_stmt 1 view .LVU88
 297              		.loc 2 48 14 is_stmt 0 view .LVU89
 298 0044 041082E5 		str	r1, [r2, #4]
 299              		.loc 2 49 3 is_stmt 1 view .LVU90
 300              		.loc 2 49 36 is_stmt 0 view .LVU91
 301 0048 042083E5 		str	r2, [r3, #4]
 302              		.loc 2 49 22 view .LVU92
 303 004c 002081E5 		str	r2, [r1]
 304              	.LVL20:
 305              		.loc 2 49 22 view .LVU93
 306              	.LBE44:
 307              	.LBE45:
 308              		.loc 1 190 5 is_stmt 1 view .LVU94
 309 0050 FEFFFFEB 		bl	chSchGoSleepS
 310              	.LVL21:
 311              		.loc 1 191 5 view .LVU95
 312              		.loc 1 191 22 is_stmt 0 view .LVU96
 313 0054 183094E5 		ldr	r3, [r4, #24]
 314 0058 240093E5 		ldr	r0, [r3, #36]
 315              	.LVL22:
 316              		.loc 1 191 22 view .LVU97
 317              	.LBE46:
 318              	.LBE47:
 319              	.LBE49:
 320              	.LBE51:
 321              		.loc 1 162 3 is_stmt 1 view .LVU98
 322              		.loc 1 162 3 view .LVU99
 323              		.syntax divided
 324              	@ 162 "../../os/kernel/src/chsem.c" 1
 325 005c 1FF021E3 		msr     CPSR_c, #0x1F
 326              	@ 0 "" 2
 327              		.loc 1 162 16 view .LVU100
 328              		.loc 1 163 3 view .LVU101
 329              		.loc 1 164 1 is_stmt 0 view .LVU102
 330              		.arm
 331              		.syntax unified
 332 0060 1080BDE8 		pop	{r4, pc}
 333              	.L20:
 334              		.align	2
 335              	.L19:
 336 0064 00000000 		.word	rlist
 337              		.cfi_endproc
 338              	.LFE10:
 339              		.size	chSemWait, .-chSemWait
 340              		.section	.text.chSemWaitS,"ax",%progbits
 341              		.align	2
 342              		.global	chSemWaitS
ARM GAS  /var/folders/l5/0x54b2c10074c8bt31ycjvl80000gp/T//ccxMzJPy.s 			page 7


 343              		.syntax unified
 344              		.arm
 345              		.fpu softvfp
 346              		.type	chSemWaitS, %function
 347              	chSemWaitS:
 348              	.LVL23:
 349              	.LFB11:
 350              		.loc 1 178 33 is_stmt 1 view -0
 351              		.cfi_startproc
 352              		@ args = 0, pretend = 0, frame = 0
 353              		@ frame_needed = 0, uses_anonymous_args = 0
 354              		.loc 1 180 3 view .LVU104
 355              		.loc 1 180 21 view .LVU105
 356              		.loc 1 181 3 view .LVU106
 357              		.loc 1 181 39 view .LVU107
 358              		.loc 1 182 3 view .LVU108
 359              		.loc 1 185 40 view .LVU109
 360              		.loc 1 187 3 view .LVU110
 361              		.loc 1 187 7 is_stmt 0 view .LVU111
 362 0000 083090E5 		ldr	r3, [r0, #8]
 363 0004 013043E2 		sub	r3, r3, #1
 364              		.loc 1 187 6 view .LVU112
 365 0008 000053E3 		cmp	r3, #0
 366 000c 083080E5 		str	r3, [r0, #8]
 367 0010 010000BA 		blt	.L28
 368              		.loc 1 193 10 view .LVU113
 369 0014 0000A0E3 		mov	r0, #0
 370              	.LVL24:
 371              		.loc 1 194 1 view .LVU114
 372 0018 1EFF2FE1 		bx	lr
 373              	.LVL25:
 374              	.L28:
 375              		.loc 1 194 1 view .LVU115
 376 001c 0030A0E1 		mov	r3, r0
 377              	.LVL26:
 378              	.LBB56:
 379              	.LBI56:
 380              		.loc 1 178 7 is_stmt 1 view .LVU116
 381              	.LBB57:
 382              		.loc 1 188 5 view .LVU117
 383              	.LBE57:
 384              	.LBE56:
 385              		.loc 1 178 33 is_stmt 0 view .LVU118
 386 0020 10402DE9 		push	{r4, lr}
 387              		.cfi_def_cfa_offset 8
 388              		.cfi_offset 4, -8
 389              		.cfi_offset 14, -4
 390              	.LBB63:
 391              	.LBB62:
 392              		.loc 1 188 5 view .LVU119
 393 0024 2C409FE5 		ldr	r4, .L29
 394              	.LBB58:
 395              	.LBB59:
 396              		.loc 2 48 19 view .LVU120
 397 0028 041090E5 		ldr	r1, [r0, #4]
 398              	.LBE59:
 399              	.LBE58:
ARM GAS  /var/folders/l5/0x54b2c10074c8bt31ycjvl80000gp/T//ccxMzJPy.s 			page 8


 400              		.loc 1 188 5 view .LVU121
 401 002c 182094E5 		ldr	r2, [r4, #24]
 402              		.loc 1 190 5 view .LVU122
 403 0030 0300A0E3 		mov	r0, #3
 404              	.LVL27:
 405              		.loc 1 188 23 view .LVU123
 406 0034 243082E5 		str	r3, [r2, #36]
 407              		.loc 1 189 5 is_stmt 1 view .LVU124
 408              	.LVL28:
 409              	.LBB61:
 410              	.LBI58:
 411              		.loc 2 45 20 view .LVU125
 412              	.LBB60:
 413              		.loc 2 47 3 view .LVU126
 414              		.loc 2 47 14 is_stmt 0 view .LVU127
 415 0038 003082E5 		str	r3, [r2]
 416              		.loc 2 48 3 is_stmt 1 view .LVU128
 417              		.loc 2 48 14 is_stmt 0 view .LVU129
 418 003c 041082E5 		str	r1, [r2, #4]
 419              		.loc 2 49 3 is_stmt 1 view .LVU130
 420              		.loc 2 49 36 is_stmt 0 view .LVU131
 421 0040 042083E5 		str	r2, [r3, #4]
 422              		.loc 2 49 22 view .LVU132
 423 0044 002081E5 		str	r2, [r1]
 424              	.LVL29:
 425              		.loc 2 49 22 view .LVU133
 426              	.LBE60:
 427              	.LBE61:
 428              		.loc 1 190 5 is_stmt 1 view .LVU134
 429 0048 FEFFFFEB 		bl	chSchGoSleepS
 430              	.LVL30:
 431              		.loc 1 191 5 view .LVU135
 432              		.loc 1 191 22 is_stmt 0 view .LVU136
 433 004c 183094E5 		ldr	r3, [r4, #24]
 434 0050 240093E5 		ldr	r0, [r3, #36]
 435              	.LVL31:
 436              		.loc 1 191 22 view .LVU137
 437              	.LBE62:
 438              	.LBE63:
 439              		.loc 1 194 1 view .LVU138
 440 0054 1080BDE8 		pop	{r4, pc}
 441              	.L30:
 442              		.align	2
 443              	.L29:
 444 0058 00000000 		.word	rlist
 445              		.cfi_endproc
 446              	.LFE11:
 447              		.size	chSemWaitS, .-chSemWaitS
 448              		.section	.text.chSemWaitTimeout,"ax",%progbits
 449              		.align	2
 450              		.global	chSemWaitTimeout
 451              		.syntax unified
 452              		.arm
 453              		.fpu softvfp
 454              		.type	chSemWaitTimeout, %function
 455              	chSemWaitTimeout:
 456              	.LVL32:
ARM GAS  /var/folders/l5/0x54b2c10074c8bt31ycjvl80000gp/T//ccxMzJPy.s 			page 9


 457              	.LFB12:
 458              		.loc 1 215 55 is_stmt 1 view -0
 459              		.cfi_startproc
 460              		@ args = 0, pretend = 0, frame = 0
 461              		@ frame_needed = 0, uses_anonymous_args = 0
 462              		.loc 1 216 3 view .LVU140
 463              		.loc 1 218 3 view .LVU141
 464              		.syntax divided
 465              	@ 218 "../../os/kernel/src/chsem.c" 1
 466 0000 9FF021E3 		msr     CPSR_c, #0x9F
 467              	@ 0 "" 2
 468              		.loc 1 218 3 view .LVU142
 469              		.loc 1 218 14 view .LVU143
 470              		.loc 1 219 3 view .LVU144
 471              	.LVL33:
 472              		.arm
 473              		.syntax unified
 474              	.LBB70:
 475              	.LBI70:
 476              		.loc 1 243 7 view .LVU145
 477              	.LBB71:
 478              		.loc 1 245 3 view .LVU146
 479              		.loc 1 245 21 view .LVU147
 480              		.loc 1 246 3 view .LVU148
 481              		.loc 1 246 46 view .LVU149
 482              		.loc 1 247 3 view .LVU150
 483 0004 082090E5 		ldr	r2, [r0, #8]
 484              		.loc 1 250 40 view .LVU151
 485              		.loc 1 252 3 view .LVU152
 486              		.loc 1 252 7 is_stmt 0 view .LVU153
 487 0008 013042E2 		sub	r3, r2, #1
 488              		.loc 1 252 6 view .LVU154
 489 000c 000053E3 		cmp	r3, #0
 490 0010 083080E5 		str	r3, [r0, #8]
 491              		.loc 1 261 10 view .LVU155
 492 0014 0000A0A3 		movge	r0, #0
 493              	.LVL34:
 494              		.loc 1 252 6 view .LVU156
 495 0018 010000BA 		blt	.L38
 496              	.L36:
 497              	.LVL35:
 498              		.loc 1 252 6 view .LVU157
 499              	.LBE71:
 500              	.LBE70:
 501              		.loc 1 220 3 is_stmt 1 view .LVU158
 502              		.loc 1 220 3 view .LVU159
 503              		.syntax divided
 504              	@ 220 "../../os/kernel/src/chsem.c" 1
 505 001c 1FF021E3 		msr     CPSR_c, #0x1F
 506              	@ 0 "" 2
 507              		.loc 1 220 16 view .LVU160
 508              		.loc 1 221 3 view .LVU161
 509              		.loc 1 222 1 is_stmt 0 view .LVU162
 510              		.arm
 511              		.syntax unified
 512 0020 1EFF2FE1 		bx	lr
 513              	.LVL36:
ARM GAS  /var/folders/l5/0x54b2c10074c8bt31ycjvl80000gp/T//ccxMzJPy.s 			page 10


 514              	.L38:
 515              	.LBB82:
 516              	.LBB80:
 517              		.loc 1 253 5 is_stmt 1 view .LVU163
 518              		.loc 1 253 8 is_stmt 0 view .LVU164
 519 0024 000051E3 		cmp	r1, #0
 520              		.loc 1 254 16 view .LVU165
 521 0028 08208005 		streq	r2, [r0, #8]
 522              		.loc 1 255 7 is_stmt 1 view .LVU166
 523              		.loc 1 255 14 is_stmt 0 view .LVU167
 524 002c 0000E003 		mvneq	r0, #0
 525              		.loc 1 253 8 view .LVU168
 526 0030 F9FFFF0A 		beq	.L36
 527 0034 0030A0E1 		mov	r3, r0
 528              	.LVL37:
 529              	.LBB72:
 530              	.LBI72:
 531              		.loc 1 243 7 is_stmt 1 view .LVU169
 532              	.LBB73:
 533              		.loc 1 257 5 view .LVU170
 534 0038 28209FE5 		ldr	r2, .L39
 535              	.LBB74:
 536              	.LBB75:
 537              		.loc 2 48 19 is_stmt 0 view .LVU171
 538 003c 04C090E5 		ldr	ip, [r0, #4]
 539              	.LBE75:
 540              	.LBE74:
 541              		.loc 1 257 5 view .LVU172
 542 0040 182092E5 		ldr	r2, [r2, #24]
 543              	.LBE73:
 544              	.LBE72:
 545              	.LBE80:
 546              	.LBE82:
 547              		.loc 1 215 55 view .LVU173
 548 0044 10402DE9 		push	{r4, lr}
 549              		.cfi_def_cfa_offset 8
 550              		.cfi_offset 4, -8
 551              		.cfi_offset 14, -4
 552              	.LBB83:
 553              	.LBB81:
 554              	.LBB79:
 555              	.LBB78:
 556              		.loc 1 259 12 view .LVU174
 557 0048 0300A0E3 		mov	r0, #3
 558              	.LVL38:
 559              		.loc 1 257 23 view .LVU175
 560 004c 243082E5 		str	r3, [r2, #36]
 561              		.loc 1 258 5 is_stmt 1 view .LVU176
 562              	.LVL39:
 563              	.LBB77:
 564              	.LBI74:
 565              		.loc 2 45 20 view .LVU177
 566              	.LBB76:
 567              		.loc 2 47 3 view .LVU178
 568              		.loc 2 48 14 is_stmt 0 view .LVU179
 569 0050 081082E8 		stm	r2, {r3, ip}
 570              		.loc 2 49 3 is_stmt 1 view .LVU180
ARM GAS  /var/folders/l5/0x54b2c10074c8bt31ycjvl80000gp/T//ccxMzJPy.s 			page 11


 571              		.loc 2 49 36 is_stmt 0 view .LVU181
 572 0054 042083E5 		str	r2, [r3, #4]
 573              		.loc 2 49 22 view .LVU182
 574 0058 00208CE5 		str	r2, [ip]
 575              	.LVL40:
 576              		.loc 2 49 22 view .LVU183
 577              	.LBE76:
 578              	.LBE77:
 579              		.loc 1 259 5 is_stmt 1 view .LVU184
 580              		.loc 1 259 12 is_stmt 0 view .LVU185
 581 005c FEFFFFEB 		bl	chSchGoSleepTimeoutS
 582              	.LVL41:
 583              		.loc 1 259 12 view .LVU186
 584              	.LBE78:
 585              	.LBE79:
 586              	.LBE81:
 587              	.LBE83:
 588              		.loc 1 220 3 is_stmt 1 view .LVU187
 589              		.loc 1 220 3 view .LVU188
 590              		.syntax divided
 591              	@ 220 "../../os/kernel/src/chsem.c" 1
 592 0060 1FF021E3 		msr     CPSR_c, #0x1F
 593              	@ 0 "" 2
 594              		.loc 1 220 16 view .LVU189
 595              		.loc 1 221 3 view .LVU190
 596              		.loc 1 222 1 is_stmt 0 view .LVU191
 597              		.arm
 598              		.syntax unified
 599 0064 1080BDE8 		pop	{r4, pc}
 600              	.L40:
 601              		.align	2
 602              	.L39:
 603 0068 00000000 		.word	rlist
 604              		.cfi_endproc
 605              	.LFE12:
 606              		.size	chSemWaitTimeout, .-chSemWaitTimeout
 607              		.section	.text.chSemWaitTimeoutS,"ax",%progbits
 608              		.align	2
 609              		.global	chSemWaitTimeoutS
 610              		.syntax unified
 611              		.arm
 612              		.fpu softvfp
 613              		.type	chSemWaitTimeoutS, %function
 614              	chSemWaitTimeoutS:
 615              	.LVL42:
 616              	.LFB13:
 617              		.loc 1 243 56 is_stmt 1 view -0
 618              		.cfi_startproc
 619              		@ args = 0, pretend = 0, frame = 0
 620              		@ frame_needed = 0, uses_anonymous_args = 0
 621              		@ link register save eliminated.
 622              		.loc 1 245 3 view .LVU193
 623              		.loc 1 245 21 view .LVU194
 624              		.loc 1 246 3 view .LVU195
 625              		.loc 1 246 46 view .LVU196
 626              		.loc 1 247 3 view .LVU197
 627              		.loc 1 243 56 is_stmt 0 view .LVU198
ARM GAS  /var/folders/l5/0x54b2c10074c8bt31ycjvl80000gp/T//ccxMzJPy.s 			page 12


 628 0000 0030A0E1 		mov	r3, r0
 629              		.loc 1 247 3 view .LVU199
 630 0004 080090E5 		ldr	r0, [r0, #8]
 631              	.LVL43:
 632              		.loc 1 250 40 is_stmt 1 view .LVU200
 633              		.loc 1 252 3 view .LVU201
 634              		.loc 1 252 7 is_stmt 0 view .LVU202
 635 0008 012040E2 		sub	r2, r0, #1
 636              		.loc 1 252 6 view .LVU203
 637 000c 000052E3 		cmp	r2, #0
 638 0010 082083E5 		str	r2, [r3, #8]
 639 0014 010000BA 		blt	.L45
 640              		.loc 1 261 10 view .LVU204
 641 0018 0000A0E3 		mov	r0, #0
 642              		.loc 1 262 1 view .LVU205
 643 001c 1EFF2FE1 		bx	lr
 644              	.L45:
 645              		.loc 1 253 5 is_stmt 1 view .LVU206
 646              		.loc 1 253 8 is_stmt 0 view .LVU207
 647 0020 000051E3 		cmp	r1, #0
 648 0024 0800000A 		beq	.L46
 649              	.LVL44:
 650              	.LBB88:
 651              	.LBI88:
 652              		.loc 1 243 7 is_stmt 1 view .LVU208
 653              	.LBB89:
 654              		.loc 1 257 5 view .LVU209
 655 0028 28209FE5 		ldr	r2, .L47
 656              	.LBB90:
 657              	.LBB91:
 658              		.loc 2 48 19 is_stmt 0 view .LVU210
 659 002c 04C093E5 		ldr	ip, [r3, #4]
 660              	.LBE91:
 661              	.LBE90:
 662              		.loc 1 257 5 view .LVU211
 663 0030 182092E5 		ldr	r2, [r2, #24]
 664              		.loc 1 259 12 view .LVU212
 665 0034 0300A0E3 		mov	r0, #3
 666              		.loc 1 257 23 view .LVU213
 667 0038 243082E5 		str	r3, [r2, #36]
 668              		.loc 1 258 5 is_stmt 1 view .LVU214
 669              	.LVL45:
 670              	.LBB93:
 671              	.LBI90:
 672              		.loc 2 45 20 view .LVU215
 673              	.LBB92:
 674              		.loc 2 47 3 view .LVU216
 675              		.loc 2 48 14 is_stmt 0 view .LVU217
 676 003c 081082E8 		stm	r2, {r3, ip}
 677              		.loc 2 49 3 is_stmt 1 view .LVU218
 678              		.loc 2 49 36 is_stmt 0 view .LVU219
 679 0040 042083E5 		str	r2, [r3, #4]
 680              		.loc 2 49 22 view .LVU220
 681 0044 00208CE5 		str	r2, [ip]
 682              	.LVL46:
 683              		.loc 2 49 22 view .LVU221
 684              	.LBE92:
ARM GAS  /var/folders/l5/0x54b2c10074c8bt31ycjvl80000gp/T//ccxMzJPy.s 			page 13


 685              	.LBE93:
 686              		.loc 1 259 5 is_stmt 1 view .LVU222
 687              		.loc 1 259 12 is_stmt 0 view .LVU223
 688 0048 FEFFFFEA 		b	chSchGoSleepTimeoutS
 689              	.LVL47:
 690              	.L46:
 691              		.loc 1 259 12 view .LVU224
 692              	.LBE89:
 693              	.LBE88:
 694              		.loc 1 254 7 is_stmt 1 view .LVU225
 695              		.loc 1 254 16 is_stmt 0 view .LVU226
 696 004c 080083E5 		str	r0, [r3, #8]
 697              		.loc 1 255 7 is_stmt 1 view .LVU227
 698              		.loc 1 255 14 is_stmt 0 view .LVU228
 699 0050 0000E0E3 		mvn	r0, #0
 700 0054 1EFF2FE1 		bx	lr
 701              	.L48:
 702              		.align	2
 703              	.L47:
 704 0058 00000000 		.word	rlist
 705              		.cfi_endproc
 706              	.LFE13:
 707              		.size	chSemWaitTimeoutS, .-chSemWaitTimeoutS
 708              		.section	.text.chSemSignal,"ax",%progbits
 709              		.align	2
 710              		.global	chSemSignal
 711              		.syntax unified
 712              		.arm
 713              		.fpu softvfp
 714              		.type	chSemSignal, %function
 715              	chSemSignal:
 716              	.LVL48:
 717              	.LFB14:
 718              		.loc 1 271 33 is_stmt 1 view -0
 719              		.cfi_startproc
 720              		@ args = 0, pretend = 0, frame = 0
 721              		@ frame_needed = 0, uses_anonymous_args = 0
 722              		.loc 1 273 3 view .LVU230
 723              		.loc 1 273 40 view .LVU231
 724              		.loc 1 274 3 view .LVU232
 725              		.loc 1 277 40 view .LVU233
 726              		.loc 1 279 3 view .LVU234
 727              		.syntax divided
 728              	@ 279 "../../os/kernel/src/chsem.c" 1
 729 0000 9FF021E3 		msr     CPSR_c, #0x9F
 730              	@ 0 "" 2
 731              		.loc 1 279 3 view .LVU235
 732              		.loc 1 279 14 view .LVU236
 733              		.loc 1 280 3 view .LVU237
 734              		.loc 1 280 7 is_stmt 0 view .LVU238
 735              		.arm
 736              		.syntax unified
 737 0004 083090E5 		ldr	r3, [r0, #8]
 738 0008 013083E2 		add	r3, r3, #1
 739              		.loc 1 280 6 view .LVU239
 740 000c 000053E3 		cmp	r3, #0
 741 0010 083080E5 		str	r3, [r0, #8]
ARM GAS  /var/folders/l5/0x54b2c10074c8bt31ycjvl80000gp/T//ccxMzJPy.s 			page 14


 742 0014 010000DA 		ble	.L55
 743              		.loc 1 282 3 is_stmt 1 view .LVU240
 744              		.loc 1 282 3 view .LVU241
 745              		.syntax divided
 746              	@ 282 "../../os/kernel/src/chsem.c" 1
 747 0018 1FF021E3 		msr     CPSR_c, #0x1F
 748              	@ 0 "" 2
 749              		.loc 1 282 16 view .LVU242
 750              		.loc 1 282 3 is_stmt 0 view .LVU243
 751              		.arm
 752              		.syntax unified
 753 001c 1EFF2FE1 		bx	lr
 754              	.L55:
 755 0020 0030A0E1 		mov	r3, r0
 756              		.loc 1 281 5 is_stmt 1 view .LVU244
 757              	.LVL49:
 758              	.LBB94:
 759              	.LBI94:
 760              		.loc 2 52 23 view .LVU245
 761              	.LBB95:
 762              		.loc 2 53 3 view .LVU246
 763              		.loc 2 53 11 is_stmt 0 view .LVU247
 764 0024 000090E5 		ldr	r0, [r0]
 765              	.LVL50:
 766              		.loc 2 55 3 is_stmt 1 view .LVU248
 767              	.LBE95:
 768              	.LBE94:
 769              		.loc 1 271 33 is_stmt 0 view .LVU249
 770 0028 10402DE9 		push	{r4, lr}
 771              		.cfi_def_cfa_offset 8
 772              		.cfi_offset 4, -8
 773              		.cfi_offset 14, -4
 774              	.LBB98:
 775              	.LBB96:
 776              		.loc 2 55 20 view .LVU250
 777 002c 002090E5 		ldr	r2, [r0]
 778              	.LBE96:
 779              	.LBE98:
 780              		.loc 1 281 5 view .LVU251
 781 0030 0010A0E3 		mov	r1, #0
 782              	.LBB99:
 783              	.LBB97:
 784              		.loc 2 55 16 view .LVU252
 785 0034 002083E5 		str	r2, [r3]
 786              		.loc 2 55 38 view .LVU253
 787 0038 043082E5 		str	r3, [r2, #4]
 788              		.loc 2 56 3 is_stmt 1 view .LVU254
 789              	.LVL51:
 790              		.loc 2 56 3 is_stmt 0 view .LVU255
 791              	.LBE97:
 792              	.LBE99:
 793              		.loc 1 281 5 view .LVU256
 794 003c FEFFFFEB 		bl	chSchWakeupS
 795              	.LVL52:
 796              		.loc 1 282 3 is_stmt 1 view .LVU257
 797              		.loc 1 282 3 view .LVU258
 798              		.syntax divided
ARM GAS  /var/folders/l5/0x54b2c10074c8bt31ycjvl80000gp/T//ccxMzJPy.s 			page 15


 799              	@ 282 "../../os/kernel/src/chsem.c" 1
 800 0040 1FF021E3 		msr     CPSR_c, #0x1F
 801              	@ 0 "" 2
 802              		.loc 1 282 16 view .LVU259
 803              		.loc 1 283 1 is_stmt 0 view .LVU260
 804              		.arm
 805              		.syntax unified
 806 0044 1080BDE8 		pop	{r4, pc}
 807              		.cfi_endproc
 808              	.LFE14:
 809              		.size	chSemSignal, .-chSemSignal
 810              		.section	.text.chSemSignalI,"ax",%progbits
 811              		.align	2
 812              		.global	chSemSignalI
 813              		.syntax unified
 814              		.arm
 815              		.fpu softvfp
 816              		.type	chSemSignalI, %function
 817              	chSemSignalI:
 818              	.LVL53:
 819              	.LFB15:
 820              		.loc 1 296 34 is_stmt 1 view -0
 821              		.cfi_startproc
 822              		@ args = 0, pretend = 0, frame = 0
 823              		@ frame_needed = 0, uses_anonymous_args = 0
 824              		@ link register save eliminated.
 825              		.loc 1 298 3 view .LVU262
 826              		.loc 1 298 21 view .LVU263
 827              		.loc 1 299 3 view .LVU264
 828              		.loc 1 299 41 view .LVU265
 829              		.loc 1 300 3 view .LVU266
 830              		.loc 1 303 40 view .LVU267
 831              		.loc 1 305 3 view .LVU268
 832              		.loc 1 305 7 is_stmt 0 view .LVU269
 833 0000 083090E5 		ldr	r3, [r0, #8]
 834              		.loc 1 296 34 view .LVU270
 835 0004 0020A0E1 		mov	r2, r0
 836              		.loc 1 305 7 view .LVU271
 837 0008 013083E2 		add	r3, r3, #1
 838              		.loc 1 305 6 view .LVU272
 839 000c 000053E3 		cmp	r3, #0
 840 0010 083080E5 		str	r3, [r0, #8]
 841 0014 1EFF2FC1 		bxgt	lr
 842              	.LBB100:
 843              		.loc 1 308 5 is_stmt 1 view .LVU273
 844              	.LVL54:
 845              	.LBB101:
 846              	.LBI101:
 847              		.loc 2 52 23 view .LVU274
 848              	.LBB102:
 849              		.loc 2 53 3 view .LVU275
 850              	.LBE102:
 851              	.LBE101:
 852              		.loc 1 309 20 is_stmt 0 view .LVU276
 853 0018 00C0A0E3 		mov	ip, #0
 854              	.LBB105:
 855              	.LBB103:
ARM GAS  /var/folders/l5/0x54b2c10074c8bt31ycjvl80000gp/T//ccxMzJPy.s 			page 16


 856              		.loc 2 53 11 view .LVU277
 857 001c 003090E5 		ldr	r3, [r0]
 858              	.LVL55:
 859              		.loc 2 55 3 is_stmt 1 view .LVU278
 860              		.loc 2 55 20 is_stmt 0 view .LVU279
 861 0020 001093E5 		ldr	r1, [r3]
 862              	.LBE103:
 863              	.LBE105:
 864              		.loc 1 310 5 view .LVU280
 865 0024 0300A0E1 		mov	r0, r3
 866              	.LVL56:
 867              	.LBB106:
 868              	.LBB104:
 869              		.loc 2 55 16 view .LVU281
 870 0028 001082E5 		str	r1, [r2]
 871              		.loc 2 55 38 view .LVU282
 872 002c 042081E5 		str	r2, [r1, #4]
 873              		.loc 2 56 3 is_stmt 1 view .LVU283
 874              	.LVL57:
 875              		.loc 2 56 3 is_stmt 0 view .LVU284
 876              	.LBE104:
 877              	.LBE106:
 878              		.loc 1 309 5 is_stmt 1 view .LVU285
 879              		.loc 1 309 20 is_stmt 0 view .LVU286
 880 0030 24C083E5 		str	ip, [r3, #36]
 881              		.loc 1 310 5 is_stmt 1 view .LVU287
 882 0034 FEFFFFEA 		b	chSchReadyI
 883              	.LVL58:
 884              		.loc 1 310 5 is_stmt 0 view .LVU288
 885              	.LBE100:
 886              		.cfi_endproc
 887              	.LFE15:
 888              		.size	chSemSignalI, .-chSemSignalI
 889              		.section	.text.chSemAddCounterI,"ax",%progbits
 890              		.align	2
 891              		.global	chSemAddCounterI
 892              		.syntax unified
 893              		.arm
 894              		.fpu softvfp
 895              		.type	chSemAddCounterI, %function
 896              	chSemAddCounterI:
 897              	.LVL59:
 898              	.LFB16:
 899              		.loc 1 327 47 is_stmt 1 view -0
 900              		.cfi_startproc
 901              		@ args = 0, pretend = 0, frame = 0
 902              		@ frame_needed = 0, uses_anonymous_args = 0
 903              		.loc 1 329 3 view .LVU290
 904              		.loc 1 329 21 view .LVU291
 905              		.loc 1 330 3 view .LVU292
 906              		.loc 1 330 58 view .LVU293
 907              		.loc 1 331 3 view .LVU294
 908              		.loc 1 327 47 is_stmt 0 view .LVU295
 909 0000 70402DE9 		push	{r4, r5, r6, lr}
 910              		.cfi_def_cfa_offset 16
 911              		.cfi_offset 4, -16
 912              		.cfi_offset 5, -12
ARM GAS  /var/folders/l5/0x54b2c10074c8bt31ycjvl80000gp/T//ccxMzJPy.s 			page 17


 913              		.cfi_offset 6, -8
 914              		.cfi_offset 14, -4
 915              		.loc 1 336 9 view .LVU296
 916 0004 004051E2 		subs	r4, r1, #0
 917 0008 7080BDD8 		pople	{r4, r5, r6, pc}
 918 000c 0050A0E1 		mov	r5, r0
 919              		.loc 1 338 58 view .LVU297
 920 0010 0060A0E3 		mov	r6, #0
 921 0014 010000EA 		b	.L61
 922              	.LVL60:
 923              	.L60:
 924              		.loc 1 339 5 is_stmt 1 view .LVU298
 925              		.loc 1 336 9 is_stmt 0 view .LVU299
 926 0018 014054E2 		subs	r4, r4, #1
 927              	.LVL61:
 928              		.loc 1 336 9 view .LVU300
 929 001c 7080BD08 		popeq	{r4, r5, r6, pc}
 930              	.LVL62:
 931              	.L61:
 932              		.loc 1 337 5 is_stmt 1 view .LVU301
 933              		.loc 1 337 9 is_stmt 0 view .LVU302
 934 0020 083095E5 		ldr	r3, [r5, #8]
 935 0024 013083E2 		add	r3, r3, #1
 936              		.loc 1 337 8 view .LVU303
 937 0028 000053E3 		cmp	r3, #0
 938 002c 083085E5 		str	r3, [r5, #8]
 939 0030 F8FFFFCA 		bgt	.L60
 940              		.loc 1 338 7 is_stmt 1 view .LVU304
 941              	.LVL63:
 942              	.LBB107:
 943              	.LBI107:
 944              		.loc 2 52 23 view .LVU305
 945              	.LBB108:
 946              		.loc 2 53 3 view .LVU306
 947              		.loc 2 53 11 is_stmt 0 view .LVU307
 948 0034 000095E5 		ldr	r0, [r5]
 949              	.LVL64:
 950              		.loc 2 55 3 is_stmt 1 view .LVU308
 951              		.loc 2 55 20 is_stmt 0 view .LVU309
 952 0038 003090E5 		ldr	r3, [r0]
 953              		.loc 2 55 16 view .LVU310
 954 003c 003085E5 		str	r3, [r5]
 955              		.loc 2 55 38 view .LVU311
 956 0040 045083E5 		str	r5, [r3, #4]
 957              		.loc 2 56 3 is_stmt 1 view .LVU312
 958              	.LVL65:
 959              		.loc 2 56 3 is_stmt 0 view .LVU313
 960              	.LBE108:
 961              	.LBE107:
 962              		.loc 1 338 7 view .LVU314
 963 0044 FEFFFFEB 		bl	chSchReadyI
 964              	.LVL66:
 965              		.loc 1 336 9 view .LVU315
 966 0048 014054E2 		subs	r4, r4, #1
 967              	.LVL67:
 968              		.loc 1 338 58 view .LVU316
 969 004c 246080E5 		str	r6, [r0, #36]
ARM GAS  /var/folders/l5/0x54b2c10074c8bt31ycjvl80000gp/T//ccxMzJPy.s 			page 18


 970              		.loc 1 339 5 is_stmt 1 view .LVU317
 971              	.LVL68:
 972              		.loc 1 336 9 is_stmt 0 view .LVU318
 973 0050 F2FFFF1A 		bne	.L61
 974 0054 7080BDE8 		pop	{r4, r5, r6, pc}
 975              		.cfi_endproc
 976              	.LFE16:
 977              		.size	chSemAddCounterI, .-chSemAddCounterI
 978              		.section	.text.chSemSignalWait,"ax",%progbits
 979              		.align	2
 980              		.global	chSemSignalWait
 981              		.syntax unified
 982              		.arm
 983              		.fpu softvfp
 984              		.type	chSemSignalWait, %function
 985              	chSemSignalWait:
 986              	.LVL69:
 987              	.LFB17:
 988              		.loc 1 359 55 is_stmt 1 view -0
 989              		.cfi_startproc
 990              		@ args = 0, pretend = 0, frame = 0
 991              		@ frame_needed = 0, uses_anonymous_args = 0
 992              		.loc 1 360 3 view .LVU320
 993              		.loc 1 362 3 view .LVU321
 994              		.loc 1 362 64 view .LVU322
 995              		.loc 1 363 3 view .LVU323
 996              		.loc 1 366 40 view .LVU324
 997              		.loc 1 367 3 view .LVU325
 998              		.loc 1 370 40 view .LVU326
 999              		.loc 1 372 3 view .LVU327
 1000              		.loc 1 359 55 is_stmt 0 view .LVU328
 1001 0000 70402DE9 		push	{r4, r5, r6, lr}
 1002              		.cfi_def_cfa_offset 16
 1003              		.cfi_offset 4, -16
 1004              		.cfi_offset 5, -12
 1005              		.cfi_offset 6, -8
 1006              		.cfi_offset 14, -4
 1007              		.loc 1 359 55 view .LVU329
 1008 0004 0140A0E1 		mov	r4, r1
 1009              		.loc 1 372 3 view .LVU330
 1010              		.syntax divided
 1011              	@ 372 "../../os/kernel/src/chsem.c" 1
 1012 0008 9FF021E3 		msr     CPSR_c, #0x9F
 1013              	@ 0 "" 2
 1014              		.loc 1 372 3 is_stmt 1 view .LVU331
 1015              		.loc 1 372 14 view .LVU332
 1016              		.loc 1 373 3 view .LVU333
 1017              		.loc 1 373 7 is_stmt 0 view .LVU334
 1018              		.arm
 1019              		.syntax unified
 1020 000c 083090E5 		ldr	r3, [r0, #8]
 1021 0010 013083E2 		add	r3, r3, #1
 1022              		.loc 1 373 6 view .LVU335
 1023 0014 000053E3 		cmp	r3, #0
 1024 0018 083080E5 		str	r3, [r0, #8]
 1025 001c 150000DA 		ble	.L69
 1026              	.LVL70:
ARM GAS  /var/folders/l5/0x54b2c10074c8bt31ycjvl80000gp/T//ccxMzJPy.s 			page 19


 1027              	.L65:
 1028              		.loc 1 375 3 is_stmt 1 view .LVU336
 1029              		.loc 1 375 7 is_stmt 0 view .LVU337
 1030 0020 083094E5 		ldr	r3, [r4, #8]
 1031 0024 013043E2 		sub	r3, r3, #1
 1032              		.loc 1 375 6 view .LVU338
 1033 0028 000053E3 		cmp	r3, #0
 1034 002c 083084E5 		str	r3, [r4, #8]
 1035 0030 030000BA 		blt	.L70
 1036              		.loc 1 383 5 is_stmt 1 view .LVU339
 1037 0034 FEFFFFEB 		bl	chSchRescheduleS
 1038              	.LVL71:
 1039              		.loc 1 384 5 view .LVU340
 1040              		.loc 1 384 9 is_stmt 0 view .LVU341
 1041 0038 0000A0E3 		mov	r0, #0
 1042              	.LVL72:
 1043              		.loc 1 386 3 is_stmt 1 view .LVU342
 1044              		.loc 1 386 3 view .LVU343
 1045              		.syntax divided
 1046              	@ 386 "../../os/kernel/src/chsem.c" 1
 1047 003c 1FF021E3 		msr     CPSR_c, #0x1F
 1048              	@ 0 "" 2
 1049              		.loc 1 386 16 view .LVU344
 1050              		.loc 1 387 3 view .LVU345
 1051              		.loc 1 388 1 is_stmt 0 view .LVU346
 1052              		.arm
 1053              		.syntax unified
 1054 0040 7080BDE8 		pop	{r4, r5, r6, pc}
 1055              	.LVL73:
 1056              	.L70:
 1057              	.LBB109:
 1058              		.loc 1 376 5 is_stmt 1 view .LVU347
 1059              		.loc 1 376 13 is_stmt 0 view .LVU348
 1060 0044 50209FE5 		ldr	r2, .L71
 1061              	.LBB110:
 1062              	.LBB111:
 1063              		.loc 2 48 19 view .LVU349
 1064 0048 043094E5 		ldr	r3, [r4, #4]
 1065              	.LBE111:
 1066              	.LBE110:
 1067              		.loc 1 376 13 view .LVU350
 1068 004c 185092E5 		ldr	r5, [r2, #24]
 1069              	.LVL74:
 1070              		.loc 1 377 5 is_stmt 1 view .LVU351
 1071              	.LBB114:
 1072              	.LBI110:
 1073              		.loc 2 45 20 view .LVU352
 1074              	.LBB112:
 1075              		.loc 2 47 3 view .LVU353
 1076              	.LBE112:
 1077              	.LBE114:
 1078              		.loc 1 379 5 is_stmt 0 view .LVU354
 1079 0050 0300A0E3 		mov	r0, #3
 1080              	.LBB115:
 1081              	.LBB113:
 1082              		.loc 2 47 14 view .LVU355
 1083 0054 004085E5 		str	r4, [r5]
ARM GAS  /var/folders/l5/0x54b2c10074c8bt31ycjvl80000gp/T//ccxMzJPy.s 			page 20


 1084              		.loc 2 48 3 is_stmt 1 view .LVU356
 1085              		.loc 2 48 14 is_stmt 0 view .LVU357
 1086 0058 043085E5 		str	r3, [r5, #4]
 1087              		.loc 2 49 3 is_stmt 1 view .LVU358
 1088              		.loc 2 49 36 is_stmt 0 view .LVU359
 1089 005c 045084E5 		str	r5, [r4, #4]
 1090              		.loc 2 49 22 view .LVU360
 1091 0060 005083E5 		str	r5, [r3]
 1092              	.LVL75:
 1093              		.loc 2 49 22 view .LVU361
 1094              	.LBE113:
 1095              	.LBE115:
 1096              		.loc 1 378 5 is_stmt 1 view .LVU362
 1097              		.loc 1 378 21 is_stmt 0 view .LVU363
 1098 0064 244085E5 		str	r4, [r5, #36]
 1099              		.loc 1 379 5 is_stmt 1 view .LVU364
 1100 0068 FEFFFFEB 		bl	chSchGoSleepS
 1101              	.LVL76:
 1102              		.loc 1 380 5 view .LVU365
 1103              		.loc 1 380 9 is_stmt 0 view .LVU366
 1104 006c 240095E5 		ldr	r0, [r5, #36]
 1105              	.LVL77:
 1106              		.loc 1 380 9 view .LVU367
 1107              	.LBE109:
 1108              		.loc 1 386 3 is_stmt 1 view .LVU368
 1109              		.loc 1 386 3 view .LVU369
 1110              		.syntax divided
 1111              	@ 386 "../../os/kernel/src/chsem.c" 1
 1112 0070 1FF021E3 		msr     CPSR_c, #0x1F
 1113              	@ 0 "" 2
 1114              		.loc 1 386 16 view .LVU370
 1115              		.loc 1 387 3 view .LVU371
 1116              		.loc 1 388 1 is_stmt 0 view .LVU372
 1117              		.arm
 1118              		.syntax unified
 1119 0074 7080BDE8 		pop	{r4, r5, r6, pc}
 1120              	.LVL78:
 1121              	.L69:
 1122              		.loc 1 388 1 view .LVU373
 1123 0078 0020A0E1 		mov	r2, r0
 1124              		.loc 1 374 5 is_stmt 1 view .LVU374
 1125              	.LVL79:
 1126              	.LBB116:
 1127              	.LBI116:
 1128              		.loc 2 52 23 view .LVU375
 1129              	.LBB117:
 1130              		.loc 2 53 3 view .LVU376
 1131              		.loc 2 53 11 is_stmt 0 view .LVU377
 1132 007c 000090E5 		ldr	r0, [r0]
 1133              	.LVL80:
 1134              		.loc 2 55 3 is_stmt 1 view .LVU378
 1135              		.loc 2 55 20 is_stmt 0 view .LVU379
 1136 0080 003090E5 		ldr	r3, [r0]
 1137              		.loc 2 55 16 view .LVU380
 1138 0084 003082E5 		str	r3, [r2]
 1139              		.loc 2 55 38 view .LVU381
 1140 0088 042083E5 		str	r2, [r3, #4]
ARM GAS  /var/folders/l5/0x54b2c10074c8bt31ycjvl80000gp/T//ccxMzJPy.s 			page 21


 1141              		.loc 2 56 3 is_stmt 1 view .LVU382
 1142              	.LVL81:
 1143              		.loc 2 56 3 is_stmt 0 view .LVU383
 1144              	.LBE117:
 1145              	.LBE116:
 1146              		.loc 1 374 5 view .LVU384
 1147 008c FEFFFFEB 		bl	chSchReadyI
 1148              	.LVL82:
 1149              		.loc 1 374 57 view .LVU385
 1150 0090 0030A0E3 		mov	r3, #0
 1151 0094 243080E5 		str	r3, [r0, #36]
 1152 0098 E0FFFFEA 		b	.L65
 1153              	.L72:
 1154              		.align	2
 1155              	.L71:
 1156 009c 00000000 		.word	rlist
 1157              		.cfi_endproc
 1158              	.LFE17:
 1159              		.size	chSemSignalWait, .-chSemSignalWait
 1160              		.text
 1161              	.Letext0:
 1162              		.file 3 "/usr/local/Cellar/arm-gcc-bin/8-2019-q3-update/arm-none-eabi/include/machine/_default_typ
 1163              		.file 4 "/usr/local/Cellar/arm-gcc-bin/8-2019-q3-update/arm-none-eabi/include/sys/_stdint.h"
 1164              		.file 5 "../../os/ports/GCC/ARM/chtypes.h"
 1165              		.file 6 "../../os/kernel/include/chlists.h"
 1166              		.file 7 "../../os/kernel/include/chthreads.h"
 1167              		.file 8 "../../os/ports/GCC/ARM/chcore.h"
 1168              		.file 9 "../../os/kernel/include/chvt.h"
 1169              		.file 10 "../../os/kernel/include/chschd.h"
 1170              		.file 11 "../../os/kernel/include/chsem.h"
 1171              		.file 12 "../../os/kernel/include/chmtx.h"
 1172              		.file 13 "../../os/kernel/include/chregistry.h"
 1173              		.file 14 "../../os/kernel/include/ch.h"