ARM GAS  /var/folders/l5/0x54b2c10074c8bt31ycjvl80000gp/T//ccY9nfCX.s 			page 1


   1              		.cpu arm1176jz-s
   2              		.eabi_attribute 20, 1
   3              		.eabi_attribute 21, 1
   4              		.eabi_attribute 23, 3
   5              		.eabi_attribute 24, 1
   6              		.eabi_attribute 25, 1
   7              		.eabi_attribute 26, 1
   8              		.eabi_attribute 30, 2
   9              		.eabi_attribute 34, 1
  10              		.eabi_attribute 18, 4
  11              		.file	"chsys.c"
  12              		.text
  13              	.Ltext0:
  14              		.cfi_sections	.debug_frame
  15              		.section	.text._idle_thread,"ax",%progbits
  16              		.align	2
  17              		.global	_idle_thread
  18              		.arch armv6kz
  19              		.syntax unified
  20              		.arm
  21              		.fpu softvfp
  22              		.type	_idle_thread, %function
  23              	_idle_thread:
  24              	.LVL0:
  25              	.LFB7:
  26              		.file 1 "../../os/kernel/src/chsys.c"
  27              		.loc 1 54 28 view -0
  28              		.cfi_startproc
  29              		@ Volatile: function does not return.
  30              		@ args = 0, pretend = 0, frame = 0
  31              		@ frame_needed = 0, uses_anonymous_args = 0
  32              		@ link register save eliminated.
  33              		.loc 1 56 3 view .LVU1
  34              		.loc 1 57 3 view .LVU2
  35 0000 10309FE5 		ldr	r3, .L4
  36 0004 10209FE5 		ldr	r2, .L4+4
  37 0008 183093E5 		ldr	r3, [r3, #24]
  38 000c 182083E5 		str	r2, [r3, #24]
  39              	.L2:
  40              		.loc 1 58 3 discriminator 1 view .LVU3
  41              		.loc 1 59 5 discriminator 1 view .LVU4
  42              		.syntax divided
  43              	@ 59 "../../os/kernel/src/chsys.c" 1
  44 0010 900F07EE 		MCR p15,0,r0,c7,c0,4
  45              	@ 0 "" 2
  46              		.loc 1 59 30 discriminator 1 view .LVU5
  47              		.loc 1 60 5 discriminator 1 view .LVU6
  48              		.loc 1 60 21 discriminator 1 view .LVU7
  49              		.arm
  50              		.syntax unified
  51 0014 FDFFFFEA 		b	.L2
  52              	.L5:
  53              		.align	2
  54              	.L4:
  55 0018 00000000 		.word	rlist
  56 001c 00000000 		.word	.LC0
  57              		.cfi_endproc
ARM GAS  /var/folders/l5/0x54b2c10074c8bt31ycjvl80000gp/T//ccY9nfCX.s 			page 2


  58              	.LFE7:
  59              		.size	_idle_thread, .-_idle_thread
  60              		.section	.text.chSysInit,"ax",%progbits
  61              		.align	2
  62              		.global	chSysInit
  63              		.syntax unified
  64              		.arm
  65              		.fpu softvfp
  66              		.type	chSysInit, %function
  67              	chSysInit:
  68              	.LFB8:
  69              		.loc 1 77 22 view -0
  70              		.cfi_startproc
  71              		@ args = 0, pretend = 0, frame = 0
  72              		@ frame_needed = 0, uses_anonymous_args = 0
  73              		.loc 1 78 3 view .LVU9
  74              		.loc 1 83 14 view .LVU10
  75              		.loc 1 84 3 view .LVU11
  76              		.loc 1 77 22 is_stmt 0 view .LVU12
  77 0000 04E02DE5 		str	lr, [sp, #-4]!
  78              		.cfi_def_cfa_offset 4
  79              		.cfi_offset 14, -4
  80 0004 0CD04DE2 		sub	sp, sp, #12
  81              		.cfi_def_cfa_offset 16
  82              		.loc 1 84 3 view .LVU13
  83 0008 FEFFFFEB 		bl	_scheduler_init
  84              	.LVL1:
  85              		.loc 1 85 3 is_stmt 1 view .LVU14
  86 000c FEFFFFEB 		bl	_vt_init
  87              	.LVL2:
  88              		.loc 1 87 3 view .LVU15
  89 0010 FEFFFFEB 		bl	_core_init
  90              	.LVL3:
  91              		.loc 1 90 3 view .LVU16
  92 0014 FEFFFFEB 		bl	_heap_init
  93              	.LVL4:
  94              		.loc 1 97 3 view .LVU17
  95 0018 4010A0E3 		mov	r1, #64
  96 001c 40009FE5 		ldr	r0, .L8
  97 0020 FEFFFFEB 		bl	_thread_init
  98              	.LVL5:
  99              		.loc 1 98 18 is_stmt 0 view .LVU18
 100 0024 0120A0E3 		mov	r2, #1
 101              		.loc 1 97 3 view .LVU19
 102 0028 38309FE5 		ldr	r3, .L8+4
 103              		.loc 1 98 18 view .LVU20
 104 002c 1C20C0E5 		strb	r2, [r0, #28]
 105              		.loc 1 97 3 view .LVU21
 106 0030 180083E5 		str	r0, [r3, #24]
 107              		.loc 1 98 3 is_stmt 1 view .LVU22
 108              		.loc 1 104 3 view .LVU23
 109              		.loc 1 104 3 view .LVU24
 110              		.syntax divided
 111              	@ 104 "../../os/kernel/src/chsys.c" 1
 112 0034 1FF021E3 		msr     CPSR_c, #0x1F
 113              	@ 0 "" 2
 114              		.loc 1 104 16 view .LVU25
ARM GAS  /var/folders/l5/0x54b2c10074c8bt31ycjvl80000gp/T//ccY9nfCX.s 			page 3


 115              		.loc 1 108 3 view .LVU26
 116              		.loc 1 114 3 is_stmt 0 view .LVU27
 117              		.arm
 118              		.syntax unified
 119 0038 0010A0E3 		mov	r1, #0
 120              		.loc 1 108 3 view .LVU28
 121 003c 183093E5 		ldr	r3, [r3, #24]
 122 0040 24009FE5 		ldr	r0, .L8+8
 123 0044 180083E5 		str	r0, [r3, #24]
 124              		.loc 1 114 3 is_stmt 1 view .LVU29
 125 0048 00108DE5 		str	r1, [sp]
 126 004c 1C309FE5 		ldr	r3, .L8+12
 127 0050 9C10A0E3 		mov	r1, #156
 128 0054 18009FE5 		ldr	r0, .L8+16
 129 0058 FEFFFFEB 		bl	chThdCreateStatic
 130              	.LVL6:
 131              		.loc 1 117 1 is_stmt 0 view .LVU30
 132 005c 0CD08DE2 		add	sp, sp, #12
 133              		.cfi_def_cfa_offset 4
 134              		@ sp needed
 135 0060 04F09DE4 		ldr	pc, [sp], #4
 136              	.L9:
 137              		.align	2
 138              	.L8:
 139 0064 00000000 		.word	.LANCHOR0
 140 0068 00000000 		.word	rlist
 141 006c 00000000 		.word	ch_debug
 142 0070 00000000 		.word	_idle_thread
 143 0074 00000000 		.word	_idle_thread_wa
 144              		.cfi_endproc
 145              	.LFE8:
 146              		.size	chSysInit, .-chSysInit
 147              		.section	.text.chSysTimerHandlerI,"ax",%progbits
 148              		.align	2
 149              		.global	chSysTimerHandlerI
 150              		.syntax unified
 151              		.arm
 152              		.fpu softvfp
 153              		.type	chSysTimerHandlerI, %function
 154              	chSysTimerHandlerI:
 155              	.LFB9:
 156              		.loc 1 130 31 is_stmt 1 view -0
 157              		.cfi_startproc
 158              		@ args = 0, pretend = 0, frame = 0
 159              		@ frame_needed = 0, uses_anonymous_args = 0
 160              		.loc 1 132 3 view .LVU32
 161              		.loc 1 132 21 view .LVU33
 162              		.loc 1 141 3 view .LVU34
 163 0000 70309FE5 		ldr	r3, .L16
 164              		.loc 1 130 31 is_stmt 0 view .LVU35
 165 0004 70402DE9 		push	{r4, r5, r6, lr}
 166              		.cfi_def_cfa_offset 16
 167              		.cfi_offset 4, -16
 168              		.cfi_offset 5, -12
 169              		.cfi_offset 6, -8
 170              		.cfi_offset 14, -4
 171              		.loc 1 141 3 view .LVU36
ARM GAS  /var/folders/l5/0x54b2c10074c8bt31ycjvl80000gp/T//ccY9nfCX.s 			page 4


 172 0008 181093E5 		ldr	r1, [r3, #24]
 173              		.loc 1 143 3 view .LVU37
 174 000c 68409FE5 		ldr	r4, .L16+4
 175              		.loc 1 141 8 view .LVU38
 176 0010 202091E5 		ldr	r2, [r1, #32]
 177              		.loc 1 143 3 view .LVU39
 178 0014 003094E5 		ldr	r3, [r4]
 179              		.loc 1 141 16 view .LVU40
 180 0018 012082E2 		add	r2, r2, #1
 181 001c 202081E5 		str	r2, [r1, #32]
 182              		.loc 1 143 3 is_stmt 1 view .LVU41
 183 0020 0C2094E5 		ldr	r2, [r4, #12]
 184 0024 040053E1 		cmp	r3, r4
 185 0028 012082E2 		add	r2, r2, #1
 186 002c 0C2084E5 		str	r2, [r4, #12]
 187              		.loc 1 143 3 view .LVU42
 188 0030 7080BD08 		popeq	{r4, r5, r6, pc}
 189              	.LBB2:
 190              		.loc 1 143 3 discriminator 1 view .LVU43
 191              		.loc 1 143 3 discriminator 1 view .LVU44
 192 0034 085093E5 		ldr	r5, [r3, #8]
 193 0038 015045E2 		sub	r5, r5, #1
 194 003c 000055E3 		cmp	r5, #0
 195 0040 085083E5 		str	r5, [r3, #8]
 196              		.loc 1 143 3 discriminator 1 view .LVU45
 197              	.LBB3:
 198              		.loc 1 143 3 discriminator 1 view .LVU46
 199              		.loc 1 143 3 discriminator 1 view .LVU47
 200              		.loc 1 143 3 discriminator 1 view .LVU48
 201              	.LVL7:
 202              		.loc 1 143 3 is_stmt 0 discriminator 1 view .LVU49
 203              	.LBE3:
 204 0044 7080BD18 		popne	{r4, r5, r6, pc}
 205              	.L12:
 206              	.LBB4:
 207              		.loc 1 143 3 is_stmt 1 discriminator 5 view .LVU50
 208 0048 002093E5 		ldr	r2, [r3]
 209 004c 0C1093E5 		ldr	r1, [r3, #12]
 210              	.LVL8:
 211              		.loc 1 143 3 discriminator 5 view .LVU51
 212 0050 100093E5 		ldr	r0, [r3, #16]
 213 0054 0C5083E5 		str	r5, [r3, #12]
 214              		.loc 1 143 3 discriminator 5 view .LVU52
 215 0058 002084E5 		str	r2, [r4]
 216 005c 044082E5 		str	r4, [r2, #4]
 217              		.loc 1 143 3 discriminator 5 view .LVU53
 218              		.loc 1 143 3 discriminator 5 view .LVU54
 219              		.loc 1 143 3 discriminator 5 view .LVU55
 220              		.loc 1 143 3 discriminator 5 view .LVU56
 221              		.loc 1 143 3 discriminator 5 view .LVU57
 222 0060 31FF2FE1 		blx	r1
 223              	.LVL9:
 224              		.loc 1 143 3 discriminator 5 view .LVU58
 225              		.loc 1 143 3 discriminator 5 view .LVU59
 226              		.loc 1 143 3 discriminator 5 view .LVU60
 227              	.LBE4:
 228 0064 003094E5 		ldr	r3, [r4]
ARM GAS  /var/folders/l5/0x54b2c10074c8bt31ycjvl80000gp/T//ccY9nfCX.s 			page 5


 229              	.LVL10:
 230              		.loc 1 143 3 is_stmt 0 discriminator 5 view .LVU61
 231 0068 082093E5 		ldr	r2, [r3, #8]
 232 006c 000052E3 		cmp	r2, #0
 233 0070 F4FFFF0A 		beq	.L12
 234 0074 7080BDE8 		pop	{r4, r5, r6, pc}
 235              	.L17:
 236              		.align	2
 237              	.L16:
 238 0078 00000000 		.word	rlist
 239 007c 00000000 		.word	vtlist
 240              	.LBE2:
 241              		.cfi_endproc
 242              	.LFE9:
 243              		.size	chSysTimerHandlerI, .-chSysTimerHandlerI
 244              		.comm	_idle_thread_wa,156,4
 245              		.section	.bss.mainthread.4815,"aw",%nobits
 246              		.align	2
 247              		.set	.LANCHOR0,. + 0
 248              		.type	mainthread.4815, %object
 249              		.size	mainthread.4815, 68
 250              	mainthread.4815:
 251 0000 00000000 		.space	68
 251      00000000 
 251      00000000 
 251      00000000 
 251      00000000 
 252              		.section	.rodata._idle_thread.str1.4,"aMS",%progbits,1
 253              		.align	2
 254              	.LC0:
 255 0000 69646C65 		.ascii	"idle\000"
 255      00
 256              		.text
 257              	.Letext0:
 258              		.file 2 "/usr/local/Cellar/arm-gcc-bin/8-2019-q3-update/arm-none-eabi/include/machine/_default_typ
 259              		.file 3 "/usr/local/Cellar/arm-gcc-bin/8-2019-q3-update/arm-none-eabi/include/sys/_stdint.h"
 260              		.file 4 "../../os/ports/GCC/ARM/chtypes.h"
 261              		.file 5 "../../os/kernel/include/chlists.h"
 262              		.file 6 "../../os/kernel/include/chthreads.h"
 263              		.file 7 "../../os/ports/GCC/ARM/chcore.h"
 264              		.file 8 "../../os/kernel/include/chvt.h"
 265              		.file 9 "../../os/kernel/include/chschd.h"
 266              		.file 10 "../../os/kernel/include/chmtx.h"
 267              		.file 11 "../../os/kernel/include/chregistry.h"
 268              		.file 12 "../../os/kernel/include/ch.h"
 269              		.file 13 "../../os/kernel/include/chmemcore.h"
 270              		.file 14 "../../os/kernel/include/chheap.h"