ARM GAS  /var/folders/l5/0x54b2c10074c8bt31ycjvl80000gp/T//ccY9nfCX.s 			page 1


   1              		.cpu arm1176jz-s
   2              		.eabi_attribute 20, 1
   3              		.eabi_attribute 21, 1
   4              		.eabi_attribute 23, 3
   5              		.eabi_attribute 24, 1
   6              		.eabi_attribute 25, 1
   7              		.eabi_attribute 26, 1
   8              		.eabi_attribute 30, 2
   9              		.eabi_attribute 34, 1
  10              		.eabi_attribute 18, 4
  11              		.file	"chsys.c"
  12              		.text
  13              	.Ltext0:
  14              		.cfi_sections	.debug_frame
  15              		.section	.text._idle_thread,"ax",%progbits
  16              		.align	2
  17              		.global	_idle_thread
  18              		.arch armv6kz
  19              		.syntax unified
  20              		.arm
  21              		.fpu softvfp
  22              		.type	_idle_thread, %function
  23              	_idle_thread:
  24              	.LVL0:
  25              	.LFB7:
  26              		.file 1 "../../os/kernel/src/chsys.c"
  27              		.loc 1 54 28 view -0
  28              		.cfi_startproc
  29              		@ Volatile: function does not return.
  30              		@ args = 0, pretend = 0, frame = 0
  31              		@ frame_needed = 0, uses_anonymous_args = 0
  32              		@ link register save eliminated.
  33              		.loc 1 56 3 view .LVU1
  34              		.loc 1 57 3 view .LVU2
  35 0000 10309FE5 		ldr	r3, .L4
  36 0004 10209FE5 		ldr	r2, .L4+4
  37 0008 183093E5 		ldr	r3, [r3, #24]
  38 000c 182083E5 		str	r2, [r3, #24]
  39              	.L2:
  40              		.loc 1 58 3 discriminator 1 view .LVU3
  41              		.loc 1 59 5 discriminator 1 view .LVU4
  42              		.syntax divided
  43              	@ 59 "../../os/kernel/src/chsys.c" 1
  44 0010 900F07EE 		MCR p15,0,r0,c7,c0,4
  45              	@ 0 "" 2
  46              		.loc 1 59 30 discriminator 1 view .LVU5
  47              		.loc 1 60 5 discriminator 1 view .LVU6
  48              		.loc 1 60 21 discriminator 1 view .LVU7
  49              		.arm
  50              		.syntax unified
  51 0014 FDFFFFEA 		b	.L2
  52              	.L5:
  53              		.align	2
  54              	.L4:
  55 0018 00000000 		.word	rlist
  56 001c 00000000 		.word	.LC0
  57              		.cfi_endproc
ARM GAS  /var/folders/l5/0x54b2c10074c8bt31ycjvl80000gp/T//ccY9nfCX.s 			page 2


  58              	.LFE7:
  59              		.size	_idle_thread, .-_idle_thread
  60              		.section	.text.chSysInit,"ax",%progbits
  61              		.align	2
  62              		.global	chSysInit
  63              		.syntax unified
  64              		.arm
  65              		.fpu softvfp
  66              		.type	chSysInit, %function
  67              	chSysInit:
  68              	.LFB8:
  69              		.loc 1 77 22 view -0
  70              		.cfi_startproc
  71              		@ args = 0, pretend = 0, frame = 0
  72              		@ frame_needed = 0, uses_anonymous_args = 0
  73              		.loc 1 78 3 view .LVU9
  74              		.loc 1 83 14 view .LVU10
  75              		.loc 1 84 3 view .LVU11
  76              		.loc 1 77 22 is_stmt 0 view .LVU12
  77 0000 04E02DE5 		str	lr, [sp, #-4]!
  78              		.cfi_def_cfa_offset 4
  79              		.cfi_offset 14, -4
  80 0004 0CD04DE2 		sub	sp, sp, #12
  81              		.cfi_def_cfa_offset 16
  82              		.loc 1 84 3 view .LVU13
  83 0008 FEFFFFEB 		bl	_scheduler_init
  84              	.LVL1:
  85              		.loc 1 85 3 is_stmt 1 view .LVU14
  86 000c FEFFFFEB 		bl	_vt_init
  87              	.LVL2:
  88              		.loc 1 87 3 view .LVU15
  89 0010 FEFFFFEB 		bl	_core_init
  90              	.LVL3:
  91              		.loc 1 90 3 view .LVU16
  92 0014 FEFFFFEB 		bl	_heap_init
  93              	.LVL4:
  94              		.loc 1 97 3 view .LVU17
  95 0018 4010A0E3 		mov	r1, #64
  96 001c 40009FE5 		ldr	r0, .L8
  97 0020 FEFFFFEB 		bl	_thread_init
  98              	.LVL5:
  99              		.loc 1 98 18 is_stmt 0 view .LVU18
 100 0024 0120A0E3 		mov	r2, #1
 101              		.loc 1 97 3 view .LVU19
 102 0028 38309FE5 		ldr	r3, .L8+4
 103              		.loc 1 98 18 view .LVU20
 104 002c 1C20C0E5 		strb	r2, [r0, #28]
 105              		.loc 1 97 3 view .LVU21
 106 0030 180083E5 		str	r0, [r3, #24]
 107              		.loc 1 98 3 is_stmt 1 view .LVU22
 108              		.loc 1 104 3 view .LVU23
 109              		.loc 1 104 3 view .LVU24
 110              		.syntax divided
 111              	@ 104 "../../os/kernel/src/chsys.c" 1
 112 0034 1FF021E3 		msr     CPSR_c, #0x1F
 113              	@ 0 "" 2
 114              		.loc 1 104 16 view .LVU25
ARM GAS  /var/folders/l5/0x54b2c10074c8bt31ycjvl80000gp/T//ccY9nfCX.s 			page 3


 115              		.loc 1 108 3 view .LVU26
 116              		.loc 1 114 3 is_stmt 0 view .LVU27
 117              		.arm
 118              		.syntax unified
 119 0038 0010A0E3 		mov	r1, #0
 120              		.loc 1 108 3 view .LVU28
 121 003c 183093E5 		ldr	r3, [r3, #24]
 122 0040 24009FE5 		ldr	r0, .L8+8
 123 0044 180083E5 		str	r0, [r3, #24]
 124              		.loc 1 114 3 is_stmt 1 view .LVU29
 125 0048 00108DE5 		str	r1, [sp]
 126 004c 1C309FE5 		ldr	r3, .L8+12
 127 0050 9C10A0E3 		mov	r1, #156
 128 0054 18009FE5 		ldr	r0, .L8+16
 129 0058 FEFFFFEB 		bl	chThdCreateStatic
 130              	.LVL6:
 131              		.loc 1 117 1 is_stmt 0 view .LVU30
 132 005c 0CD08DE2 		add	sp, sp, #12
 133              		.cfi_def_cfa_offset 4
 134              		@ sp needed
 135 0060 04F09DE4 		ldr	pc, [sp], #4
 136              	.L9:
 137              		.align	2
 138              	.L8:
 139 0064 00000000 		.word	.LANCHOR0
 140 0068 00000000 		.word	rlist
 141 006c 00000000 		.word	ch_debug
 142 0070 00000000 		.word	_idle_thread
 143 0074 00000000 		.word	_idle_thread_wa
 144              		.cfi_endproc
 145              	.LFE8:
 146              		.size	chSysInit, .-chSysInit
 147              		.section	.text.chSysTimerHandlerI,"ax",%progbits
 148              		.align	2
 149              		.global	chSysTimerHandlerI
 150              		.syntax unified
 151              		.arm
 152              		.fpu softvfp
 153              		.type	chSysTimerHandlerI, %function
 154              	chSysTimerHandlerI:
 155              	.LFB9:
 156              		.loc 1 130 31 is_stmt 1 view -0
 157              		.cfi_startproc
 158              		@ args = 0, pretend = 0, frame = 0
 159              		@ frame_needed = 0, uses_anonymous_args = 0
 160              		.loc 1 132 3 view .LVU32
 161              		.loc 1 132 21 view .LVU33
 162              		.loc 1 141 3 view .LVU34
 163 0000 70309FE5 		ldr	r3, .L16
 164              		.loc 1 130 31 is_stmt 0 view .LVU35
 165 0004 70402DE9 		push	{r4, r5, r6, lr}
 166              		.cfi_def_cfa_offset 16
 167              		.cfi_offset 4, -16
 168              		.cfi_offset 5, -12
 169              		.cfi_offset 6, -8
 170              		.cfi_offset 14, -4
 171              		.loc 1 141 3 view .LVU36
ARM GAS  /var/folders/l5/0x54b2c10074c8bt31ycjvl80000gp/T//ccY9nfCX.s 			page 4


 172 0008 181093E5 		ldr	r1, [r3, #24]
 173              		.loc 1 143 3 view .LVU37
 174 000c 68409FE5 		ldr	r4, .L16+4
 175              		.loc 1 141 8 view .LVU38
 176 0010 202091E5 		ldr	r2, [r1, #32]
 177              		.loc 1 143 3 view .LVU39
 178 0014 003094E5 		ldr	r3, [r4]
 179              		.loc 1 141 16 view .LVU40
 180 0018 012082E2 		add	r2, r2, #1
 181 001c 202081E5 		str	r2, [r1, #32]
 182              		.loc 1 143 3 is_stmt 1 view .LVU41
 183 0020 0C2094E5 		ldr	r2, [r4, #12]
 184 0024 040053E1 		cmp	r3, r4
 185 0028 012082E2 		add	r2, r2, #1
 186 002c 0C2084E5 		str	r2, [r4, #12]
 187              		.loc 1 143 3 view .LVU42
 188 0030 7080BD08 		popeq	{r4, r5, r6, pc}
 189              	.LBB2:
 190              		.loc 1 143 3 discriminator 1 view .LVU43
 191              		.loc 1 143 3 discriminator 1 view .LVU44
 192 0034 085093E5 		ldr	r5, [r3, #8]
 193 0038 015045E2 		sub	r5, r5, #1
 194 003c 000055E3 		cmp	r5, #0
 195 0040 085083E5 		str	r5, [r3, #8]
 196              		.loc 1 143 3 discriminator 1 view .LVU45
 197              	.LBB3:
 198              		.loc 1 143 3 discriminator 1 view .LVU46
 199              		.loc 1 143 3 discriminator 1 view .LVU47
 200              		.loc 1 143 3 discriminator 1 view .LVU48
 201              	.LVL7:
 202              		.loc 1 143 3 is_stmt 0 discriminator 1 view .LVU49
 203              	.LBE3:
 204 0044 7080BD18 		popne	{r4, r5, r6, pc}
 205              	.L12:
 206              	.LBB4:
 207              		.loc 1 143 3 is_stmt 1 discriminator 5 view .LVU50
 208 0048 002093E5 		ldr	r2, [r3]
 209 004c 0C1093E5 		ldr	r1, [r3, #12]
 210              	.LVL8:
 211              		.loc 1 143 3 discriminator 5 view .LVU51
 212 0050 100093E5 		ldr	r0, [r3, #16]
 213 0054 0C5083E5 		str	r5, [r3, #12]
 214              		.loc 1 143 3 discriminator 5 view .LVU52
 215 0058 002084E5 		str	r2, [r4]
 216 005c 044082E5 		str	r4, [r2, #4]
 217              		.loc 1 143 3 discriminator 5 view .LVU53
 218              		.loc 1 143 3 discriminator 5 view .LVU54
 219              		.loc 1 143 3 discriminator 5 view .LVU55
 220              		.loc 1 143 3 discriminator 5 view .LVU56
 221              		.loc 1 143 3 discriminator 5 view .LVU57
 222 0060 31FF2FE1 		blx	r1
 223              	.LVL9:
 224              		.loc 1 143 3 discriminator 5 view .LVU58
 225              		.loc 1 143 3 discriminator 5 view .LVU59
 226              		.loc 1 143 3 discriminator 5 view .LVU60
 227              	.LBE4:
 228 0064 003094E5 		ldr	r3, [r4]
ARM GAS  /var/folders/l5/0x54b2c10074c8bt31ycjvl80000gp/T//ccY9nfCX.s 			page 5


 229              	.LVL10:
 230              		.loc 1 143 3 is_stmt 0 discriminator 5 view .LVU61
 231 0068 082093E5 		ldr	r2, [r3, #8]
 232 006c 000052E3 		cmp	r2, #0
 233 0070 F4FFFF0A 		beq	.L12
 234 0074 7080BDE8 		pop	{r4, r5, r6, pc}
 235              	.L17:
 236              		.align	2
 237              	.L16:
 238 0078 00000000 		.word	rlist
 239 007c 00000000 		.word	vtlist
 240              	.LBE2:
 241              		.cfi_endproc
 242              	.LFE9:
 243              		.size	chSysTimerHandlerI, .-chSysTimerHandlerI
 244              		.comm	_idle_thread_wa,156,4
 245              		.section	.bss.mainthread.4815,"aw",%nobits
 246              		.align	2
 247              		.set	.LANCHOR0,. + 0
 248              		.type	mainthread.4815, %object
 249              		.size	mainthread.4815, 68
 250              	mainthread.4815:
 251 0000 00000000 		.space	68
 251      00000000 
 251      00000000 
 251      00000000 
 251      00000000 
 252              		.section	.rodata._idle_thread.str1.4,"aMS",%progbits,1
 253              		.align	2
 254              	.LC0:
 255 0000 69646C65 		.ascii	"idle\000"
 255      00
 256              		.text
 257              	.Letext0:
 258              		.file 2 "/usr/local/Cellar/arm-gcc-bin/8-2019-q3-update/arm-none-eabi/include/machine/_default_typ
 259              		.file 3 "/usr/local/Cellar/arm-gcc-bin/8-2019-q3-update/arm-none-eabi/include/sys/_stdint.h"
 260              		.file 4 "../../os/ports/GCC/ARM/chtypes.h"
 261              		.file 5 "../../os/kernel/include/chlists.h"
 262              		.file 6 "../../os/kernel/include/chthreads.h"
 263              		.file 7 "../../os/ports/GCC/ARM/chcore.h"
 264              		.file 8 "../../os/kernel/include/chvt.h"
 265              		.file 9 "../../os/kernel/include/chschd.h"
 266              		.file 10 "../../os/kernel/include/chmtx.h"
 267              		.file 11 "../../os/kernel/include/chregistry.h"
 268              		.file 12 "../../os/kernel/include/ch.h"
 269              		.file 13 "../../os/kernel/include/chmemcore.h"
 270              		.file 14 "../../os/kernel/include/chheap.h"
 271              		.section	.debug_info,"",%progbits
 272              	.Ldebug_info0:
 273 0000 D0070000 		.4byte	0x7d0
 274 0004 0400     		.2byte	0x4
 275 0006 00000000 		.4byte	.Ldebug_abbrev0
 276 000a 04       		.byte	0x4
 277 000b 01       		.uleb128 0x1
 278 000c CD010000 		.4byte	.LASF106
 279 0010 0C       		.byte	0xc
 280 0011 BF040000 		.4byte	.LASF107
ARM GAS  /var/folders/l5/0x54b2c10074c8bt31ycjvl80000gp/T//ccY9nfCX.s 			page 6


 281 0015 07050000 		.4byte	.LASF108
 282 0019 18000000 		.4byte	.Ldebug_ranges0+0x18
 283 001d 00000000 		.4byte	0
 284 0021 00000000 		.4byte	.Ldebug_line0
 285 0025 02       		.uleb128 0x2
 286 0026 04       		.byte	0x4
 287 0027 05       		.byte	0x5
 288 0028 696E7400 		.ascii	"int\000"
 289 002c 03       		.uleb128 0x3
 290 002d 04       		.byte	0x4
 291 002e 07       		.byte	0x7
 292 002f 5E010000 		.4byte	.LASF0
 293 0033 03       		.uleb128 0x3
 294 0034 01       		.byte	0x1
 295 0035 06       		.byte	0x6
 296 0036 B1000000 		.4byte	.LASF1
 297 003a 04       		.uleb128 0x4
 298 003b 22000000 		.4byte	.LASF4
 299 003f 02       		.byte	0x2
 300 0040 2B       		.byte	0x2b
 301 0041 18       		.byte	0x18
 302 0042 46000000 		.4byte	0x46
 303 0046 03       		.uleb128 0x3
 304 0047 01       		.byte	0x1
 305 0048 08       		.byte	0x8
 306 0049 88030000 		.4byte	.LASF2
 307 004d 03       		.uleb128 0x3
 308 004e 02       		.byte	0x2
 309 004f 05       		.byte	0x5
 310 0050 AB030000 		.4byte	.LASF3
 311 0054 04       		.uleb128 0x4
 312 0055 43040000 		.4byte	.LASF5
 313 0059 02       		.byte	0x2
 314 005a 39       		.byte	0x39
 315 005b 19       		.byte	0x19
 316 005c 60000000 		.4byte	0x60
 317 0060 03       		.uleb128 0x3
 318 0061 02       		.byte	0x2
 319 0062 07       		.byte	0x7
 320 0063 AC010000 		.4byte	.LASF6
 321 0067 04       		.uleb128 0x4
 322 0068 6A040000 		.4byte	.LASF7
 323 006c 02       		.byte	0x2
 324 006d 4D       		.byte	0x4d
 325 006e 18       		.byte	0x18
 326 006f 73000000 		.4byte	0x73
 327 0073 03       		.uleb128 0x3
 328 0074 04       		.byte	0x4
 329 0075 05       		.byte	0x5
 330 0076 F0000000 		.4byte	.LASF8
 331 007a 04       		.uleb128 0x4
 332 007b 2D010000 		.4byte	.LASF9
 333 007f 02       		.byte	0x2
 334 0080 4F       		.byte	0x4f
 335 0081 19       		.byte	0x19
 336 0082 86000000 		.4byte	0x86
 337 0086 03       		.uleb128 0x3
ARM GAS  /var/folders/l5/0x54b2c10074c8bt31ycjvl80000gp/T//ccY9nfCX.s 			page 7


 338 0087 04       		.byte	0x4
 339 0088 07       		.byte	0x7
 340 0089 80010000 		.4byte	.LASF10
 341 008d 03       		.uleb128 0x3
 342 008e 08       		.byte	0x8
 343 008f 05       		.byte	0x5
 344 0090 A3000000 		.4byte	.LASF11
 345 0094 03       		.uleb128 0x3
 346 0095 08       		.byte	0x8
 347 0096 07       		.byte	0x7
 348 0097 46000000 		.4byte	.LASF12
 349 009b 04       		.uleb128 0x4
 350 009c DB040000 		.4byte	.LASF13
 351 00a0 03       		.byte	0x3
 352 00a1 18       		.byte	0x18
 353 00a2 13       		.byte	0x13
 354 00a3 3A000000 		.4byte	0x3a
 355 00a7 04       		.uleb128 0x4
 356 00a8 02010000 		.4byte	.LASF14
 357 00ac 03       		.byte	0x3
 358 00ad 24       		.byte	0x24
 359 00ae 14       		.byte	0x14
 360 00af 54000000 		.4byte	0x54
 361 00b3 04       		.uleb128 0x4
 362 00b4 80030000 		.4byte	.LASF15
 363 00b8 03       		.byte	0x3
 364 00b9 2C       		.byte	0x2c
 365 00ba 13       		.byte	0x13
 366 00bb 67000000 		.4byte	0x67
 367 00bf 04       		.uleb128 0x4
 368 00c0 14040000 		.4byte	.LASF16
 369 00c4 03       		.byte	0x3
 370 00c5 30       		.byte	0x30
 371 00c6 14       		.byte	0x14
 372 00c7 7A000000 		.4byte	0x7a
 373 00cb 04       		.uleb128 0x4
 374 00cc 9D020000 		.4byte	.LASF17
 375 00d0 04       		.byte	0x4
 376 00d1 2A       		.byte	0x2a
 377 00d2 19       		.byte	0x19
 378 00d3 9B000000 		.4byte	0x9b
 379 00d7 04       		.uleb128 0x4
 380 00d8 F9000000 		.4byte	.LASF18
 381 00dc 04       		.byte	0x4
 382 00dd 2B       		.byte	0x2b
 383 00de 19       		.byte	0x19
 384 00df 9B000000 		.4byte	0x9b
 385 00e3 04       		.uleb128 0x4
 386 00e4 5E030000 		.4byte	.LASF19
 387 00e8 04       		.byte	0x4
 388 00e9 2C       		.byte	0x2c
 389 00ea 19       		.byte	0x19
 390 00eb 9B000000 		.4byte	0x9b
 391 00ef 04       		.uleb128 0x4
 392 00f0 78030000 		.4byte	.LASF20
 393 00f4 04       		.byte	0x4
 394 00f5 2E       		.byte	0x2e
ARM GAS  /var/folders/l5/0x54b2c10074c8bt31ycjvl80000gp/T//ccY9nfCX.s 			page 8


 395 00f6 19       		.byte	0x19
 396 00f7 BF000000 		.4byte	0xbf
 397 00fb 04       		.uleb128 0x4
 398 00fc BF010000 		.4byte	.LASF21
 399 0100 04       		.byte	0x4
 400 0101 2F       		.byte	0x2f
 401 0102 19       		.byte	0x19
 402 0103 B3000000 		.4byte	0xb3
 403 0107 04       		.uleb128 0x4
 404 0108 B1020000 		.4byte	.LASF22
 405 010c 04       		.byte	0x4
 406 010d 31       		.byte	0x31
 407 010e 19       		.byte	0x19
 408 010f BF000000 		.4byte	0xbf
 409 0113 04       		.uleb128 0x4
 410 0114 55040000 		.4byte	.LASF23
 411 0118 04       		.byte	0x4
 412 0119 33       		.byte	0x33
 413 011a 19       		.byte	0x19
 414 011b BF000000 		.4byte	0xbf
 415 011f 05       		.uleb128 0x5
 416 0120 13010000 		.4byte	0x113
 417 0124 04       		.uleb128 0x4
 418 0125 F5030000 		.4byte	.LASF24
 419 0129 05       		.byte	0x5
 420 012a 23       		.byte	0x23
 421 012b 17       		.byte	0x17
 422 012c 30010000 		.4byte	0x130
 423 0130 06       		.uleb128 0x6
 424 0131 F5030000 		.4byte	.LASF24
 425 0135 44       		.byte	0x44
 426 0136 06       		.byte	0x6
 427 0137 57       		.byte	0x57
 428 0138 08       		.byte	0x8
 429 0139 28020000 		.4byte	0x228
 430 013d 07       		.uleb128 0x7
 431 013e D7030000 		.4byte	.LASF25
 432 0142 06       		.byte	0x6
 433 0143 58       		.byte	0x58
 434 0144 1A       		.byte	0x1a
 435 0145 4C020000 		.4byte	0x24c
 436 0149 00       		.byte	0
 437 014a 07       		.uleb128 0x7
 438 014b 71030000 		.4byte	.LASF26
 439 014f 06       		.byte	0x6
 440 0150 5A       		.byte	0x5a
 441 0151 1A       		.byte	0x1a
 442 0152 4C020000 		.4byte	0x24c
 443 0156 04       		.byte	0x4
 444 0157 07       		.uleb128 0x7
 445 0158 7F000000 		.4byte	.LASF27
 446 015c 06       		.byte	0x6
 447 015d 5C       		.byte	0x5c
 448 015e 19       		.byte	0x19
 449 015f EF000000 		.4byte	0xef
 450 0163 08       		.byte	0x8
 451 0164 07       		.uleb128 0x7
ARM GAS  /var/folders/l5/0x54b2c10074c8bt31ycjvl80000gp/T//ccY9nfCX.s 			page 9


 452 0165 5E050000 		.4byte	.LASF28
 453 0169 06       		.byte	0x6
 454 016a 5D       		.byte	0x5d
 455 016b 19       		.byte	0x19
 456 016c 17030000 		.4byte	0x317
 457 0170 0C       		.byte	0xc
 458 0171 07       		.uleb128 0x7
 459 0172 15010000 		.4byte	.LASF29
 460 0176 06       		.byte	0x6
 461 0177 5F       		.byte	0x5f
 462 0178 1A       		.byte	0x1a
 463 0179 4C020000 		.4byte	0x24c
 464 017d 10       		.byte	0x10
 465 017e 07       		.uleb128 0x7
 466 017f 1C030000 		.4byte	.LASF30
 467 0183 06       		.byte	0x6
 468 0184 60       		.byte	0x60
 469 0185 1A       		.byte	0x1a
 470 0186 4C020000 		.4byte	0x24c
 471 018a 14       		.byte	0x14
 472 018b 07       		.uleb128 0x7
 473 018c EA040000 		.4byte	.LASF31
 474 0190 06       		.byte	0x6
 475 0191 67       		.byte	0x67
 476 0192 1A       		.byte	0x1a
 477 0193 FD040000 		.4byte	0x4fd
 478 0197 18       		.byte	0x18
 479 0198 07       		.uleb128 0x7
 480 0199 B5030000 		.4byte	.LASF32
 481 019d 06       		.byte	0x6
 482 019e 72       		.byte	0x72
 483 019f 19       		.byte	0x19
 484 01a0 D7000000 		.4byte	0xd7
 485 01a4 1C       		.byte	0x1c
 486 01a5 07       		.uleb128 0x7
 487 01a6 ED030000 		.4byte	.LASF33
 488 01aa 06       		.byte	0x6
 489 01ab 76       		.byte	0x76
 490 01ac 19       		.byte	0x19
 491 01ad CB000000 		.4byte	0xcb
 492 01b1 1D       		.byte	0x1d
 493 01b2 07       		.uleb128 0x7
 494 01b3 A8040000 		.4byte	.LASF34
 495 01b7 06       		.byte	0x6
 496 01b8 7B       		.byte	0x7b
 497 01b9 19       		.byte	0x19
 498 01ba E3000000 		.4byte	0xe3
 499 01be 1E       		.byte	0x1e
 500 01bf 07       		.uleb128 0x7
 501 01c0 7D040000 		.4byte	.LASF35
 502 01c4 06       		.byte	0x6
 503 01c5 88       		.byte	0x88
 504 01c6 19       		.byte	0x19
 505 01c7 1F010000 		.4byte	0x11f
 506 01cb 20       		.byte	0x20
 507 01cc 08       		.uleb128 0x8
 508 01cd 705F7500 		.ascii	"p_u\000"
ARM GAS  /var/folders/l5/0x54b2c10074c8bt31ycjvl80000gp/T//ccY9nfCX.s 			page 10


 509 01d1 06       		.byte	0x6
 510 01d2 AD       		.byte	0xad
 511 01d3 19       		.byte	0x19
 512 01d4 C3040000 		.4byte	0x4c3
 513 01d8 24       		.byte	0x24
 514 01d9 07       		.uleb128 0x7
 515 01da 64050000 		.4byte	.LASF36
 516 01de 06       		.byte	0x6
 517 01df B2       		.byte	0xb2
 518 01e0 19       		.byte	0x19
 519 01e1 75020000 		.4byte	0x275
 520 01e5 28       		.byte	0x28
 521 01e6 07       		.uleb128 0x7
 522 01e7 8B040000 		.4byte	.LASF37
 523 01eb 06       		.byte	0x6
 524 01ec B8       		.byte	0xb8
 525 01ed 19       		.byte	0x19
 526 01ee 52020000 		.4byte	0x252
 527 01f2 2C       		.byte	0x2c
 528 01f3 07       		.uleb128 0x7
 529 01f4 15000000 		.4byte	.LASF38
 530 01f8 06       		.byte	0x6
 531 01f9 BC       		.byte	0xbc
 532 01fa 19       		.byte	0x19
 533 01fb FB000000 		.4byte	0xfb
 534 01ff 34       		.byte	0x34
 535 0200 07       		.uleb128 0x7
 536 0201 09040000 		.4byte	.LASF39
 537 0205 06       		.byte	0x6
 538 0206 C2       		.byte	0xc2
 539 0207 19       		.byte	0x19
 540 0208 07010000 		.4byte	0x107
 541 020c 38       		.byte	0x38
 542 020d 07       		.uleb128 0x7
 543 020e A1030000 		.4byte	.LASF40
 544 0212 06       		.byte	0x6
 545 0213 C9       		.byte	0xc9
 546 0214 1A       		.byte	0x1a
 547 0215 0F050000 		.4byte	0x50f
 548 0219 3C       		.byte	0x3c
 549 021a 07       		.uleb128 0x7
 550 021b 5F040000 		.4byte	.LASF41
 551 021f 06       		.byte	0x6
 552 0220 CD       		.byte	0xcd
 553 0221 19       		.byte	0x19
 554 0222 EF000000 		.4byte	0xef
 555 0226 40       		.byte	0x40
 556 0227 00       		.byte	0
 557 0228 09       		.uleb128 0x9
 558 0229 08       		.byte	0x8
 559 022a 05       		.byte	0x5
 560 022b 5A       		.byte	0x5a
 561 022c 09       		.byte	0x9
 562 022d 4C020000 		.4byte	0x24c
 563 0231 07       		.uleb128 0x7
 564 0232 D7030000 		.4byte	.LASF25
 565 0236 05       		.byte	0x5
ARM GAS  /var/folders/l5/0x54b2c10074c8bt31ycjvl80000gp/T//ccY9nfCX.s 			page 11


 566 0237 5B       		.byte	0x5b
 567 0238 1A       		.byte	0x1a
 568 0239 4C020000 		.4byte	0x24c
 569 023d 00       		.byte	0
 570 023e 07       		.uleb128 0x7
 571 023f 71030000 		.4byte	.LASF26
 572 0243 05       		.byte	0x5
 573 0244 5D       		.byte	0x5d
 574 0245 1A       		.byte	0x1a
 575 0246 4C020000 		.4byte	0x24c
 576 024a 04       		.byte	0x4
 577 024b 00       		.byte	0
 578 024c 0A       		.uleb128 0xa
 579 024d 04       		.byte	0x4
 580 024e 24010000 		.4byte	0x124
 581 0252 04       		.uleb128 0x4
 582 0253 2A030000 		.4byte	.LASF42
 583 0257 05       		.byte	0x5
 584 0258 5F       		.byte	0x5f
 585 0259 03       		.byte	0x3
 586 025a 28020000 		.4byte	0x228
 587 025e 09       		.uleb128 0x9
 588 025f 04       		.byte	0x4
 589 0260 05       		.byte	0x5
 590 0261 64       		.byte	0x64
 591 0262 09       		.byte	0x9
 592 0263 75020000 		.4byte	0x275
 593 0267 07       		.uleb128 0x7
 594 0268 D7030000 		.4byte	.LASF25
 595 026c 05       		.byte	0x5
 596 026d 66       		.byte	0x66
 597 026e 16       		.byte	0x16
 598 026f 4C020000 		.4byte	0x24c
 599 0273 00       		.byte	0
 600 0274 00       		.byte	0
 601 0275 04       		.uleb128 0x4
 602 0276 A5020000 		.4byte	.LASF43
 603 027a 05       		.byte	0x5
 604 027b 69       		.byte	0x69
 605 027c 03       		.byte	0x3
 606 027d 5E020000 		.4byte	0x25e
 607 0281 04       		.uleb128 0x4
 608 0282 C3020000 		.4byte	.LASF44
 609 0286 07       		.byte	0x7
 610 0287 9D       		.byte	0x9d
 611 0288 12       		.byte	0x12
 612 0289 BF000000 		.4byte	0xbf
 613 028d 04       		.uleb128 0x4
 614 028e 38010000 		.4byte	.LASF45
 615 0292 07       		.byte	0x7
 616 0293 A2       		.byte	0xa2
 617 0294 0F       		.byte	0xf
 618 0295 99020000 		.4byte	0x299
 619 0299 0B       		.uleb128 0xb
 620 029a 04       		.byte	0x4
 621 029b 06       		.uleb128 0x6
 622 029c 84040000 		.4byte	.LASF46
ARM GAS  /var/folders/l5/0x54b2c10074c8bt31ycjvl80000gp/T//ccY9nfCX.s 			page 12


 623 02a0 24       		.byte	0x24
 624 02a1 07       		.byte	0x7
 625 02a2 B9       		.byte	0xb9
 626 02a3 08       		.byte	0x8
 627 02a4 17030000 		.4byte	0x317
 628 02a8 08       		.uleb128 0x8
 629 02a9 723400   		.ascii	"r4\000"
 630 02ac 07       		.byte	0x7
 631 02ad BA       		.byte	0xba
 632 02ae 11       		.byte	0x11
 633 02af 8D020000 		.4byte	0x28d
 634 02b3 00       		.byte	0
 635 02b4 08       		.uleb128 0x8
 636 02b5 723500   		.ascii	"r5\000"
 637 02b8 07       		.byte	0x7
 638 02b9 BB       		.byte	0xbb
 639 02ba 11       		.byte	0x11
 640 02bb 8D020000 		.4byte	0x28d
 641 02bf 04       		.byte	0x4
 642 02c0 08       		.uleb128 0x8
 643 02c1 723600   		.ascii	"r6\000"
 644 02c4 07       		.byte	0x7
 645 02c5 BC       		.byte	0xbc
 646 02c6 11       		.byte	0x11
 647 02c7 8D020000 		.4byte	0x28d
 648 02cb 08       		.byte	0x8
 649 02cc 08       		.uleb128 0x8
 650 02cd 723700   		.ascii	"r7\000"
 651 02d0 07       		.byte	0x7
 652 02d1 BD       		.byte	0xbd
 653 02d2 11       		.byte	0x11
 654 02d3 8D020000 		.4byte	0x28d
 655 02d7 0C       		.byte	0xc
 656 02d8 08       		.uleb128 0x8
 657 02d9 723800   		.ascii	"r8\000"
 658 02dc 07       		.byte	0x7
 659 02dd BE       		.byte	0xbe
 660 02de 11       		.byte	0x11
 661 02df 8D020000 		.4byte	0x28d
 662 02e3 10       		.byte	0x10
 663 02e4 08       		.uleb128 0x8
 664 02e5 723900   		.ascii	"r9\000"
 665 02e8 07       		.byte	0x7
 666 02e9 BF       		.byte	0xbf
 667 02ea 11       		.byte	0x11
 668 02eb 8D020000 		.4byte	0x28d
 669 02ef 14       		.byte	0x14
 670 02f0 08       		.uleb128 0x8
 671 02f1 72313000 		.ascii	"r10\000"
 672 02f5 07       		.byte	0x7
 673 02f6 C0       		.byte	0xc0
 674 02f7 11       		.byte	0x11
 675 02f8 8D020000 		.4byte	0x28d
 676 02fc 18       		.byte	0x18
 677 02fd 08       		.uleb128 0x8
 678 02fe 72313100 		.ascii	"r11\000"
 679 0302 07       		.byte	0x7
ARM GAS  /var/folders/l5/0x54b2c10074c8bt31ycjvl80000gp/T//ccY9nfCX.s 			page 13


 680 0303 C1       		.byte	0xc1
 681 0304 11       		.byte	0x11
 682 0305 8D020000 		.4byte	0x28d
 683 0309 1C       		.byte	0x1c
 684 030a 08       		.uleb128 0x8
 685 030b 6C7200   		.ascii	"lr\000"
 686 030e 07       		.byte	0x7
 687 030f C2       		.byte	0xc2
 688 0310 11       		.byte	0x11
 689 0311 8D020000 		.4byte	0x28d
 690 0315 20       		.byte	0x20
 691 0316 00       		.byte	0
 692 0317 06       		.uleb128 0x6
 693 0318 A4010000 		.4byte	.LASF47
 694 031c 04       		.byte	0x4
 695 031d 07       		.byte	0x7
 696 031e CA       		.byte	0xca
 697 031f 08       		.byte	0x8
 698 0320 32030000 		.4byte	0x332
 699 0324 08       		.uleb128 0x8
 700 0325 72313300 		.ascii	"r13\000"
 701 0329 07       		.byte	0x7
 702 032a CB       		.byte	0xcb
 703 032b 12       		.byte	0x12
 704 032c 32030000 		.4byte	0x332
 705 0330 00       		.byte	0
 706 0331 00       		.byte	0
 707 0332 0A       		.uleb128 0xa
 708 0333 04       		.byte	0x4
 709 0334 9B020000 		.4byte	0x29b
 710 0338 04       		.uleb128 0x4
 711 0339 9B010000 		.4byte	.LASF48
 712 033d 08       		.byte	0x8
 713 033e 4E       		.byte	0x4e
 714 033f 10       		.byte	0x10
 715 0340 44030000 		.4byte	0x344
 716 0344 0A       		.uleb128 0xa
 717 0345 04       		.byte	0x4
 718 0346 4A030000 		.4byte	0x34a
 719 034a 0C       		.uleb128 0xc
 720 034b 55030000 		.4byte	0x355
 721 034f 0D       		.uleb128 0xd
 722 0350 99020000 		.4byte	0x299
 723 0354 00       		.byte	0
 724 0355 04       		.uleb128 0x4
 725 0356 31040000 		.4byte	.LASF49
 726 035a 08       		.byte	0x8
 727 035b 53       		.byte	0x53
 728 035c 1D       		.byte	0x1d
 729 035d 61030000 		.4byte	0x361
 730 0361 06       		.uleb128 0x6
 731 0362 31040000 		.4byte	.LASF49
 732 0366 14       		.byte	0x14
 733 0367 08       		.byte	0x8
 734 0368 5A       		.byte	0x5a
 735 0369 08       		.byte	0x8
 736 036a B0030000 		.4byte	0x3b0
ARM GAS  /var/folders/l5/0x54b2c10074c8bt31ycjvl80000gp/T//ccY9nfCX.s 			page 14


 737 036e 07       		.uleb128 0x7
 738 036f 78010000 		.4byte	.LASF50
 739 0373 08       		.byte	0x8
 740 0374 5B       		.byte	0x5b
 741 0375 1A       		.byte	0x1a
 742 0376 B0030000 		.4byte	0x3b0
 743 037a 00       		.byte	0
 744 037b 07       		.uleb128 0x7
 745 037c 41010000 		.4byte	.LASF51
 746 0380 08       		.byte	0x8
 747 0381 5D       		.byte	0x5d
 748 0382 1A       		.byte	0x1a
 749 0383 B0030000 		.4byte	0x3b0
 750 0387 04       		.byte	0x4
 751 0388 07       		.uleb128 0x7
 752 0389 F4020000 		.4byte	.LASF52
 753 038d 08       		.byte	0x8
 754 038e 5F       		.byte	0x5f
 755 038f 19       		.byte	0x19
 756 0390 13010000 		.4byte	0x113
 757 0394 08       		.byte	0x8
 758 0395 07       		.uleb128 0x7
 759 0396 FC020000 		.4byte	.LASF53
 760 039a 08       		.byte	0x8
 761 039b 60       		.byte	0x60
 762 039c 19       		.byte	0x19
 763 039d 38030000 		.4byte	0x338
 764 03a1 0C       		.byte	0xc
 765 03a2 07       		.uleb128 0x7
 766 03a3 96040000 		.4byte	.LASF54
 767 03a7 08       		.byte	0x8
 768 03a8 62       		.byte	0x62
 769 03a9 1A       		.byte	0x1a
 770 03aa 99020000 		.4byte	0x299
 771 03ae 10       		.byte	0x10
 772 03af 00       		.byte	0
 773 03b0 0A       		.uleb128 0xa
 774 03b1 04       		.byte	0x4
 775 03b2 55030000 		.4byte	0x355
 776 03b6 09       		.uleb128 0x9
 777 03b7 10       		.byte	0x10
 778 03b8 08       		.byte	0x8
 779 03b9 6C       		.byte	0x6c
 780 03ba 09       		.byte	0x9
 781 03bb F4030000 		.4byte	0x3f4
 782 03bf 07       		.uleb128 0x7
 783 03c0 78010000 		.4byte	.LASF50
 784 03c4 08       		.byte	0x8
 785 03c5 6D       		.byte	0x6d
 786 03c6 1A       		.byte	0x1a
 787 03c7 B0030000 		.4byte	0x3b0
 788 03cb 00       		.byte	0
 789 03cc 07       		.uleb128 0x7
 790 03cd 41010000 		.4byte	.LASF51
 791 03d1 08       		.byte	0x8
 792 03d2 6F       		.byte	0x6f
 793 03d3 1A       		.byte	0x1a
ARM GAS  /var/folders/l5/0x54b2c10074c8bt31ycjvl80000gp/T//ccY9nfCX.s 			page 15


 794 03d4 B0030000 		.4byte	0x3b0
 795 03d8 04       		.byte	0x4
 796 03d9 07       		.uleb128 0x7
 797 03da F4020000 		.4byte	.LASF52
 798 03de 08       		.byte	0x8
 799 03df 71       		.byte	0x71
 800 03e0 19       		.byte	0x19
 801 03e1 13010000 		.4byte	0x113
 802 03e5 08       		.byte	0x8
 803 03e6 07       		.uleb128 0x7
 804 03e7 F1040000 		.4byte	.LASF55
 805 03eb 08       		.byte	0x8
 806 03ec 72       		.byte	0x72
 807 03ed 19       		.byte	0x19
 808 03ee 1F010000 		.4byte	0x11f
 809 03f2 0C       		.byte	0xc
 810 03f3 00       		.byte	0
 811 03f4 04       		.uleb128 0x4
 812 03f5 4F050000 		.4byte	.LASF56
 813 03f9 08       		.byte	0x8
 814 03fa 73       		.byte	0x73
 815 03fb 03       		.byte	0x3
 816 03fc B6030000 		.4byte	0x3b6
 817 0400 0E       		.uleb128 0xe
 818 0401 2C000000 		.4byte	.LASF64
 819 0405 08       		.byte	0x8
 820 0406 D1       		.byte	0xd1
 821 0407 0F       		.byte	0xf
 822 0408 F4030000 		.4byte	0x3f4
 823 040c 09       		.uleb128 0x9
 824 040d 1C       		.byte	0x1c
 825 040e 09       		.byte	0x9
 826 040f 57       		.byte	0x57
 827 0410 09       		.byte	0x9
 828 0411 64040000 		.4byte	0x464
 829 0415 07       		.uleb128 0x7
 830 0416 29040000 		.4byte	.LASF57
 831 041a 09       		.byte	0x9
 832 041b 58       		.byte	0x58
 833 041c 19       		.byte	0x19
 834 041d 52020000 		.4byte	0x252
 835 0421 00       		.byte	0
 836 0422 07       		.uleb128 0x7
 837 0423 C9030000 		.4byte	.LASF58
 838 0427 09       		.byte	0x9
 839 0428 59       		.byte	0x59
 840 0429 19       		.byte	0x19
 841 042a EF000000 		.4byte	0xef
 842 042e 08       		.byte	0x8
 843 042f 07       		.uleb128 0x7
 844 0430 24030000 		.4byte	.LASF59
 845 0434 09       		.byte	0x9
 846 0435 5B       		.byte	0x5b
 847 0436 19       		.byte	0x19
 848 0437 17030000 		.4byte	0x317
 849 043b 0C       		.byte	0xc
 850 043c 07       		.uleb128 0x7
ARM GAS  /var/folders/l5/0x54b2c10074c8bt31ycjvl80000gp/T//ccY9nfCX.s 			page 16


 851 043d C5010000 		.4byte	.LASF60
 852 0441 09       		.byte	0x9
 853 0442 5E       		.byte	0x5e
 854 0443 1A       		.byte	0x1a
 855 0444 4C020000 		.4byte	0x24c
 856 0448 10       		.byte	0x10
 857 0449 07       		.uleb128 0x7
 858 044a 49030000 		.4byte	.LASF61
 859 044e 09       		.byte	0x9
 860 044f 5F       		.byte	0x5f
 861 0450 1A       		.byte	0x1a
 862 0451 4C020000 		.4byte	0x24c
 863 0455 14       		.byte	0x14
 864 0456 07       		.uleb128 0x7
 865 0457 3F030000 		.4byte	.LASF62
 866 045b 09       		.byte	0x9
 867 045c 62       		.byte	0x62
 868 045d 1A       		.byte	0x1a
 869 045e 4C020000 		.4byte	0x24c
 870 0462 18       		.byte	0x18
 871 0463 00       		.byte	0
 872 0464 04       		.uleb128 0x4
 873 0465 AF040000 		.4byte	.LASF63
 874 0469 09       		.byte	0x9
 875 046a 64       		.byte	0x64
 876 046b 03       		.byte	0x3
 877 046c 0C040000 		.4byte	0x40c
 878 0470 0E       		.uleb128 0xe
 879 0471 B9040000 		.4byte	.LASF65
 880 0475 09       		.byte	0x9
 881 0476 68       		.byte	0x68
 882 0477 12       		.byte	0x12
 883 0478 64040000 		.4byte	0x464
 884 047c 06       		.uleb128 0x6
 885 047d BD020000 		.4byte	.LASF66
 886 0481 10       		.byte	0x10
 887 0482 0A       		.byte	0xa
 888 0483 25       		.byte	0x25
 889 0484 10       		.byte	0x10
 890 0485 B1040000 		.4byte	0x4b1
 891 0489 07       		.uleb128 0x7
 892 048a DA000000 		.4byte	.LASF67
 893 048e 0A       		.byte	0xa
 894 048f 26       		.byte	0x26
 895 0490 19       		.byte	0x19
 896 0491 52020000 		.4byte	0x252
 897 0495 00       		.byte	0
 898 0496 07       		.uleb128 0x7
 899 0497 56050000 		.4byte	.LASF68
 900 049b 0A       		.byte	0xa
 901 049c 28       		.byte	0x28
 902 049d 1A       		.byte	0x1a
 903 049e 4C020000 		.4byte	0x24c
 904 04a2 08       		.byte	0x8
 905 04a3 07       		.uleb128 0x7
 906 04a4 4E040000 		.4byte	.LASF69
 907 04a8 0A       		.byte	0xa
ARM GAS  /var/folders/l5/0x54b2c10074c8bt31ycjvl80000gp/T//ccY9nfCX.s 			page 17


 908 04a9 2A       		.byte	0x2a
 909 04aa 1A       		.byte	0x1a
 910 04ab B1040000 		.4byte	0x4b1
 911 04af 0C       		.byte	0xc
 912 04b0 00       		.byte	0
 913 04b1 0A       		.uleb128 0xa
 914 04b2 04       		.byte	0x4
 915 04b3 7C040000 		.4byte	0x47c
 916 04b7 04       		.uleb128 0x4
 917 04b8 BD020000 		.4byte	.LASF66
 918 04bc 0A       		.byte	0xa
 919 04bd 2C       		.byte	0x2c
 920 04be 03       		.byte	0x3
 921 04bf 7C040000 		.4byte	0x47c
 922 04c3 0F       		.uleb128 0xf
 923 04c4 04       		.byte	0x4
 924 04c5 06       		.byte	0x6
 925 04c6 8F       		.byte	0x8f
 926 04c7 03       		.byte	0x3
 927 04c8 FD040000 		.4byte	0x4fd
 928 04cc 10       		.uleb128 0x10
 929 04cd 1B000000 		.4byte	.LASF70
 930 04d1 06       		.byte	0x6
 931 04d2 96       		.byte	0x96
 932 04d3 19       		.byte	0x19
 933 04d4 FB000000 		.4byte	0xfb
 934 04d8 10       		.uleb128 0x10
 935 04d9 6B000000 		.4byte	.LASF71
 936 04dd 06       		.byte	0x6
 937 04de 9D       		.byte	0x9d
 938 04df 19       		.byte	0x19
 939 04e0 FB000000 		.4byte	0xfb
 940 04e4 10       		.uleb128 0x10
 941 04e5 E3040000 		.4byte	.LASF72
 942 04e9 06       		.byte	0x6
 943 04ea A4       		.byte	0xa4
 944 04eb 1A       		.byte	0x1a
 945 04ec 99020000 		.4byte	0x299
 946 04f0 10       		.uleb128 0x10
 947 04f1 D0030000 		.4byte	.LASF73
 948 04f5 06       		.byte	0x6
 949 04f6 AB       		.byte	0xab
 950 04f7 19       		.byte	0x19
 951 04f8 07010000 		.4byte	0x107
 952 04fc 00       		.byte	0
 953 04fd 0A       		.uleb128 0xa
 954 04fe 04       		.byte	0x4
 955 04ff 0A050000 		.4byte	0x50a
 956 0503 03       		.uleb128 0x3
 957 0504 01       		.byte	0x1
 958 0505 08       		.byte	0x8
 959 0506 3E040000 		.4byte	.LASF74
 960 050a 11       		.uleb128 0x11
 961 050b 03050000 		.4byte	0x503
 962 050f 0A       		.uleb128 0xa
 963 0510 04       		.byte	0x4
 964 0511 B7040000 		.4byte	0x4b7
ARM GAS  /var/folders/l5/0x54b2c10074c8bt31ycjvl80000gp/T//ccY9nfCX.s 			page 18


 965 0515 04       		.uleb128 0x4
 966 0516 00000000 		.4byte	.LASF75
 967 051a 06       		.byte	0x6
 968 051b DE       		.byte	0xde
 969 051c 11       		.byte	0x11
 970 051d 21050000 		.4byte	0x521
 971 0521 0A       		.uleb128 0xa
 972 0522 04       		.byte	0x4
 973 0523 27050000 		.4byte	0x527
 974 0527 12       		.uleb128 0x12
 975 0528 FB000000 		.4byte	0xfb
 976 052c 36050000 		.4byte	0x536
 977 0530 0D       		.uleb128 0xd
 978 0531 99020000 		.4byte	0x299
 979 0535 00       		.byte	0
 980 0536 09       		.uleb128 0x9
 981 0537 16       		.byte	0x16
 982 0538 0B       		.byte	0xb
 983 0539 25       		.byte	0x25
 984 053a 09       		.byte	0x9
 985 053b 2A060000 		.4byte	0x62a
 986 053f 07       		.uleb128 0x7
 987 0540 E2000000 		.4byte	.LASF76
 988 0544 0B       		.byte	0xb
 989 0545 26       		.byte	0x26
 990 0546 0D       		.byte	0xd
 991 0547 2A060000 		.4byte	0x62a
 992 054b 00       		.byte	0
 993 054c 07       		.uleb128 0x7
 994 054d E0020000 		.4byte	.LASF77
 995 0551 0B       		.byte	0xb
 996 0552 27       		.byte	0x27
 997 0553 0D       		.byte	0xd
 998 0554 9B000000 		.4byte	0x9b
 999 0558 04       		.byte	0x4
 1000 0559 07       		.uleb128 0x7
 1001 055a 37030000 		.4byte	.LASF78
 1002 055e 0B       		.byte	0xb
 1003 055f 28       		.byte	0x28
 1004 0560 0D       		.byte	0xd
 1005 0561 9B000000 		.4byte	0x9b
 1006 0565 05       		.byte	0x5
 1007 0566 07       		.uleb128 0x7
 1008 0567 FC040000 		.4byte	.LASF79
 1009 056b 0B       		.byte	0xb
 1010 056c 29       		.byte	0x29
 1011 056d 0D       		.byte	0xd
 1012 056e A7000000 		.4byte	0xa7
 1013 0572 06       		.byte	0x6
 1014 0573 07       		.uleb128 0x7
 1015 0574 66030000 		.4byte	.LASF80
 1016 0578 0B       		.byte	0xb
 1017 0579 2A       		.byte	0x2a
 1018 057a 0D       		.byte	0xd
 1019 057b 9B000000 		.4byte	0x9b
 1020 057f 08       		.byte	0x8
 1021 0580 07       		.uleb128 0x7
ARM GAS  /var/folders/l5/0x54b2c10074c8bt31ycjvl80000gp/T//ccY9nfCX.s 			page 19


 1022 0581 04030000 		.4byte	.LASF81
 1023 0585 0B       		.byte	0xb
 1024 0586 2B       		.byte	0x2b
 1025 0587 0D       		.byte	0xd
 1026 0588 9B000000 		.4byte	0x9b
 1027 058c 09       		.byte	0x9
 1028 058d 07       		.uleb128 0x7
 1029 058e 5D000000 		.4byte	.LASF82
 1030 0592 0B       		.byte	0xb
 1031 0593 2C       		.byte	0x2c
 1032 0594 0D       		.byte	0xd
 1033 0595 9B000000 		.4byte	0x9b
 1034 0599 0A       		.byte	0xa
 1035 059a 07       		.uleb128 0x7
 1036 059b 1D040000 		.4byte	.LASF83
 1037 059f 0B       		.byte	0xb
 1038 05a0 2D       		.byte	0x2d
 1039 05a1 0D       		.byte	0xd
 1040 05a2 9B000000 		.4byte	0x9b
 1041 05a6 0B       		.byte	0xb
 1042 05a7 07       		.uleb128 0x7
 1043 05a8 9D040000 		.4byte	.LASF84
 1044 05ac 0B       		.byte	0xb
 1045 05ad 2E       		.byte	0x2e
 1046 05ae 0D       		.byte	0xd
 1047 05af 9B000000 		.4byte	0x9b
 1048 05b3 0C       		.byte	0xc
 1049 05b4 07       		.uleb128 0x7
 1050 05b5 FC030000 		.4byte	.LASF85
 1051 05b9 0B       		.byte	0xb
 1052 05ba 2F       		.byte	0x2f
 1053 05bb 0D       		.byte	0xd
 1054 05bc 9B000000 		.4byte	0x9b
 1055 05c0 0D       		.byte	0xd
 1056 05c1 07       		.uleb128 0x7
 1057 05c2 08000000 		.4byte	.LASF86
 1058 05c6 0B       		.byte	0xb
 1059 05c7 30       		.byte	0x30
 1060 05c8 0D       		.byte	0xd
 1061 05c9 9B000000 		.4byte	0x9b
 1062 05cd 0E       		.byte	0xe
 1063 05ce 07       		.uleb128 0x7
 1064 05cf 10030000 		.4byte	.LASF87
 1065 05d3 0B       		.byte	0xb
 1066 05d4 31       		.byte	0x31
 1067 05d5 0D       		.byte	0xd
 1068 05d6 9B000000 		.4byte	0x9b
 1069 05da 0F       		.byte	0xf
 1070 05db 07       		.uleb128 0x7
 1071 05dc BD000000 		.4byte	.LASF88
 1072 05e0 0B       		.byte	0xb
 1073 05e1 32       		.byte	0x32
 1074 05e2 0D       		.byte	0xd
 1075 05e3 9B000000 		.4byte	0x9b
 1076 05e7 10       		.byte	0x10
 1077 05e8 07       		.uleb128 0x7
 1078 05e9 86000000 		.4byte	.LASF89
ARM GAS  /var/folders/l5/0x54b2c10074c8bt31ycjvl80000gp/T//ccY9nfCX.s 			page 20


 1079 05ed 0B       		.byte	0xb
 1080 05ee 34       		.byte	0x34
 1081 05ef 0D       		.byte	0xd
 1082 05f0 9B000000 		.4byte	0x9b
 1083 05f4 11       		.byte	0x11
 1084 05f5 07       		.uleb128 0x7
 1085 05f6 CD000000 		.4byte	.LASF90
 1086 05fa 0B       		.byte	0xb
 1087 05fb 35       		.byte	0x35
 1088 05fc 0D       		.byte	0xd
 1089 05fd 9B000000 		.4byte	0x9b
 1090 0601 12       		.byte	0x12
 1091 0602 07       		.uleb128 0x7
 1092 0603 E8020000 		.4byte	.LASF91
 1093 0607 0B       		.byte	0xb
 1094 0608 36       		.byte	0x36
 1095 0609 0D       		.byte	0xd
 1096 060a 9B000000 		.4byte	0x9b
 1097 060e 13       		.byte	0x13
 1098 060f 07       		.uleb128 0x7
 1099 0610 DE030000 		.4byte	.LASF92
 1100 0614 0B       		.byte	0xb
 1101 0615 37       		.byte	0x37
 1102 0616 0D       		.byte	0xd
 1103 0617 9B000000 		.4byte	0x9b
 1104 061b 14       		.byte	0x14
 1105 061c 07       		.uleb128 0x7
 1106 061d BD030000 		.4byte	.LASF93
 1107 0621 0B       		.byte	0xb
 1108 0622 39       		.byte	0x39
 1109 0623 0D       		.byte	0xd
 1110 0624 9B000000 		.4byte	0x9b
 1111 0628 15       		.byte	0x15
 1112 0629 00       		.byte	0
 1113 062a 13       		.uleb128 0x13
 1114 062b 03050000 		.4byte	0x503
 1115 062f 3A060000 		.4byte	0x63a
 1116 0633 14       		.uleb128 0x14
 1117 0634 2C000000 		.4byte	0x2c
 1118 0638 03       		.byte	0x3
 1119 0639 00       		.byte	0
 1120 063a 04       		.uleb128 0x4
 1121 063b 0B010000 		.4byte	.LASF94
 1122 063f 0B       		.byte	0xb
 1123 0640 3A       		.byte	0x3a
 1124 0641 03       		.byte	0x3
 1125 0642 36050000 		.4byte	0x536
 1126 0646 11       		.uleb128 0x11
 1127 0647 3A060000 		.4byte	0x63a
 1128 064b 0E       		.uleb128 0xe
 1129 064c 92010000 		.4byte	.LASF95
 1130 0650 0B       		.byte	0xb
 1131 0651 77       		.byte	0x77
 1132 0652 1D       		.byte	0x1d
 1133 0653 46060000 		.4byte	0x646
 1134 0657 13       		.uleb128 0x13
 1135 0658 81020000 		.4byte	0x281
ARM GAS  /var/folders/l5/0x54b2c10074c8bt31ycjvl80000gp/T//ccY9nfCX.s 			page 21


 1136 065c 67060000 		.4byte	0x667
 1137 0660 14       		.uleb128 0x14
 1138 0661 2C000000 		.4byte	0x2c
 1139 0665 26       		.byte	0x26
 1140 0666 00       		.byte	0
 1141 0667 0E       		.uleb128 0xe
 1142 0668 1D010000 		.4byte	.LASF96
 1143 066c 0C       		.byte	0xc
 1144 066d 82       		.byte	0x82
 1145 066e 08       		.byte	0x8
 1146 066f 57060000 		.4byte	0x657
 1147 0673 15       		.uleb128 0x15
 1148 0674 67060000 		.4byte	0x667
 1149 0678 01       		.byte	0x1
 1150 0679 2A       		.byte	0x2a
 1151 067a 01       		.byte	0x1
 1152 067b 05       		.uleb128 0x5
 1153 067c 03       		.byte	0x3
 1154 067d 00000000 		.4byte	_idle_thread_wa
 1155 0681 16       		.uleb128 0x16
 1156 0682 33000000 		.4byte	.LASF97
 1157 0686 01       		.byte	0x1
 1158 0687 82       		.byte	0x82
 1159 0688 06       		.byte	0x6
 1160 0689 00000000 		.4byte	.LFB9
 1161 068d 80000000 		.4byte	.LFE9-.LFB9
 1162 0691 01       		.uleb128 0x1
 1163 0692 9C       		.byte	0x9c
 1164 0693 CF060000 		.4byte	0x6cf
 1165 0697 17       		.uleb128 0x17
 1166 0698 34000000 		.4byte	.LBB2
 1167 069c 4C000000 		.4byte	.LBE2-.LBB2
 1168 06a0 18       		.uleb128 0x18
 1169 06a1 76747000 		.ascii	"vtp\000"
 1170 06a5 01       		.byte	0x1
 1171 06a6 8F       		.byte	0x8f
 1172 06a7 03       		.byte	0x3
 1173 06a8 B0030000 		.4byte	0x3b0
 1174 06ac 04000000 		.4byte	.LLST0
 1175 06b0 00000000 		.4byte	.LVUS0
 1176 06b4 19       		.uleb128 0x19
 1177 06b5 00000000 		.4byte	.Ldebug_ranges0+0
 1178 06b9 18       		.uleb128 0x18
 1179 06ba 666E00   		.ascii	"fn\000"
 1180 06bd 01       		.byte	0x1
 1181 06be 8F       		.byte	0x8f
 1182 06bf 03       		.byte	0x3
 1183 06c0 38030000 		.4byte	0x338
 1184 06c4 24000000 		.4byte	.LLST1
 1185 06c8 22000000 		.4byte	.LVUS1
 1186 06cc 00       		.byte	0
 1187 06cd 00       		.byte	0
 1188 06ce 00       		.byte	0
 1189 06cf 1A       		.uleb128 0x1a
 1190 06d0 49010000 		.4byte	.LASF98
 1191 06d4 01       		.byte	0x1
 1192 06d5 4D       		.byte	0x4d
ARM GAS  /var/folders/l5/0x54b2c10074c8bt31ycjvl80000gp/T//ccY9nfCX.s 			page 22


 1193 06d6 06       		.byte	0x6
 1194 06d7 00000000 		.4byte	.LFB8
 1195 06db 78000000 		.4byte	.LFE8-.LFB8
 1196 06df 01       		.uleb128 0x1
 1197 06e0 9C       		.byte	0x9c
 1198 06e1 66070000 		.4byte	0x766
 1199 06e5 1B       		.uleb128 0x1b
 1200 06e6 74000000 		.4byte	.LASF109
 1201 06ea 01       		.byte	0x1
 1202 06eb 4E       		.byte	0x4e
 1203 06ec 11       		.byte	0x11
 1204 06ed 24010000 		.4byte	0x124
 1205 06f1 05       		.uleb128 0x5
 1206 06f2 03       		.byte	0x3
 1207 06f3 00000000 		.4byte	mainthread.4815
 1208 06f7 1C       		.uleb128 0x1c
 1209 06f8 0C000000 		.4byte	.LVL1
 1210 06fc 89070000 		.4byte	0x789
 1211 0700 1C       		.uleb128 0x1c
 1212 0701 10000000 		.4byte	.LVL2
 1213 0705 95070000 		.4byte	0x795
 1214 0709 1C       		.uleb128 0x1c
 1215 070a 14000000 		.4byte	.LVL3
 1216 070e A1070000 		.4byte	0x7a1
 1217 0712 1C       		.uleb128 0x1c
 1218 0713 18000000 		.4byte	.LVL4
 1219 0717 AD070000 		.4byte	0x7ad
 1220 071b 1D       		.uleb128 0x1d
 1221 071c 24000000 		.4byte	.LVL5
 1222 0720 B9070000 		.4byte	0x7b9
 1223 0724 38070000 		.4byte	0x738
 1224 0728 1E       		.uleb128 0x1e
 1225 0729 01       		.uleb128 0x1
 1226 072a 50       		.byte	0x50
 1227 072b 05       		.uleb128 0x5
 1228 072c 03       		.byte	0x3
 1229 072d 00000000 		.4byte	.LANCHOR0
 1230 0731 1E       		.uleb128 0x1e
 1231 0732 01       		.uleb128 0x1
 1232 0733 51       		.byte	0x51
 1233 0734 02       		.uleb128 0x2
 1234 0735 08       		.byte	0x8
 1235 0736 40       		.byte	0x40
 1236 0737 00       		.byte	0
 1237 0738 1F       		.uleb128 0x1f
 1238 0739 5C000000 		.4byte	.LVL6
 1239 073d C6070000 		.4byte	0x7c6
 1240 0741 1E       		.uleb128 0x1e
 1241 0742 01       		.uleb128 0x1
 1242 0743 50       		.byte	0x50
 1243 0744 05       		.uleb128 0x5
 1244 0745 03       		.byte	0x3
 1245 0746 00000000 		.4byte	_idle_thread_wa
 1246 074a 1E       		.uleb128 0x1e
 1247 074b 01       		.uleb128 0x1
 1248 074c 51       		.byte	0x51
 1249 074d 02       		.uleb128 0x2
ARM GAS  /var/folders/l5/0x54b2c10074c8bt31ycjvl80000gp/T//ccY9nfCX.s 			page 23


 1250 074e 08       		.byte	0x8
 1251 074f 9C       		.byte	0x9c
 1252 0750 1E       		.uleb128 0x1e
 1253 0751 01       		.uleb128 0x1
 1254 0752 52       		.byte	0x52
 1255 0753 01       		.uleb128 0x1
 1256 0754 31       		.byte	0x31
 1257 0755 1E       		.uleb128 0x1e
 1258 0756 01       		.uleb128 0x1
 1259 0757 53       		.byte	0x53
 1260 0758 05       		.uleb128 0x5
 1261 0759 03       		.byte	0x3
 1262 075a 00000000 		.4byte	_idle_thread
 1263 075e 1E       		.uleb128 0x1e
 1264 075f 02       		.uleb128 0x2
 1265 0760 7D       		.byte	0x7d
 1266 0761 00       		.sleb128 0
 1267 0762 01       		.uleb128 0x1
 1268 0763 30       		.byte	0x30
 1269 0764 00       		.byte	0
 1270 0765 00       		.byte	0
 1271 0766 1A       		.uleb128 0x1a
 1272 0767 51030000 		.4byte	.LASF99
 1273 076b 01       		.byte	0x1
 1274 076c 36       		.byte	0x36
 1275 076d 06       		.byte	0x6
 1276 076e 00000000 		.4byte	.LFB7
 1277 0772 20000000 		.4byte	.LFE7-.LFB7
 1278 0776 01       		.uleb128 0x1
 1279 0777 9C       		.byte	0x9c
 1280 0778 89070000 		.4byte	0x789
 1281 077c 20       		.uleb128 0x20
 1282 077d 7000     		.ascii	"p\000"
 1283 077f 01       		.byte	0x1
 1284 0780 36       		.byte	0x36
 1285 0781 19       		.byte	0x19
 1286 0782 99020000 		.4byte	0x299
 1287 0786 01       		.uleb128 0x1
 1288 0787 50       		.byte	0x50
 1289 0788 00       		.byte	0
 1290 0789 21       		.uleb128 0x21
 1291 078a 93000000 		.4byte	.LASF100
 1292 078e 93000000 		.4byte	.LASF100
 1293 0792 09       		.byte	0x9
 1294 0793 87       		.byte	0x87
 1295 0794 08       		.byte	0x8
 1296 0795 21       		.uleb128 0x21
 1297 0796 74040000 		.4byte	.LASF101
 1298 079a 74040000 		.4byte	.LASF101
 1299 079e 08       		.byte	0x8
 1300 079f D9       		.byte	0xd9
 1301 07a0 08       		.byte	0x8
 1302 07a1 21       		.uleb128 0x21
 1303 07a2 96030000 		.4byte	.LASF102
 1304 07a6 96030000 		.4byte	.LASF102
 1305 07aa 0D       		.byte	0xd
 1306 07ab 4A       		.byte	0x4a
ARM GAS  /var/folders/l5/0x54b2c10074c8bt31ycjvl80000gp/T//ccY9nfCX.s 			page 24


 1307 07ac 08       		.byte	0x8
 1308 07ad 21       		.uleb128 0x21
 1309 07ae 53010000 		.4byte	.LASF103
 1310 07b2 53010000 		.4byte	.LASF103
 1311 07b6 0E       		.byte	0xe
 1312 07b7 4E       		.byte	0x4e
 1313 07b8 08       		.byte	0x8
 1314 07b9 22       		.uleb128 0x22
 1315 07ba 6B010000 		.4byte	.LASF104
 1316 07be 6B010000 		.4byte	.LASF104
 1317 07c2 06       		.byte	0x6
 1318 07c3 5E01     		.2byte	0x15e
 1319 07c5 0B       		.byte	0xb
 1320 07c6 22       		.uleb128 0x22
 1321 07c7 CE020000 		.4byte	.LASF105
 1322 07cb CE020000 		.4byte	.LASF105
 1323 07cf 06       		.byte	0x6
 1324 07d0 6401     		.2byte	0x164
 1325 07d2 0B       		.byte	0xb
 1326 07d3 00       		.byte	0
 1327              		.section	.debug_abbrev,"",%progbits
 1328              	.Ldebug_abbrev0:
 1329 0000 01       		.uleb128 0x1
 1330 0001 11       		.uleb128 0x11
 1331 0002 01       		.byte	0x1
 1332 0003 25       		.uleb128 0x25
 1333 0004 0E       		.uleb128 0xe
 1334 0005 13       		.uleb128 0x13
 1335 0006 0B       		.uleb128 0xb
 1336 0007 03       		.uleb128 0x3
 1337 0008 0E       		.uleb128 0xe
 1338 0009 1B       		.uleb128 0x1b
 1339 000a 0E       		.uleb128 0xe
 1340 000b 55       		.uleb128 0x55
 1341 000c 17       		.uleb128 0x17
 1342 000d 11       		.uleb128 0x11
 1343 000e 01       		.uleb128 0x1
 1344 000f 10       		.uleb128 0x10
 1345 0010 17       		.uleb128 0x17
 1346 0011 00       		.byte	0
 1347 0012 00       		.byte	0
 1348 0013 02       		.uleb128 0x2
 1349 0014 24       		.uleb128 0x24
 1350 0015 00       		.byte	0
 1351 0016 0B       		.uleb128 0xb
 1352 0017 0B       		.uleb128 0xb
 1353 0018 3E       		.uleb128 0x3e
 1354 0019 0B       		.uleb128 0xb
 1355 001a 03       		.uleb128 0x3
 1356 001b 08       		.uleb128 0x8
 1357 001c 00       		.byte	0
 1358 001d 00       		.byte	0
 1359 001e 03       		.uleb128 0x3
 1360 001f 24       		.uleb128 0x24
 1361 0020 00       		.byte	0
 1362 0021 0B       		.uleb128 0xb
 1363 0022 0B       		.uleb128 0xb
ARM GAS  /var/folders/l5/0x54b2c10074c8bt31ycjvl80000gp/T//ccY9nfCX.s 			page 25


 1364 0023 3E       		.uleb128 0x3e
 1365 0024 0B       		.uleb128 0xb
 1366 0025 03       		.uleb128 0x3
 1367 0026 0E       		.uleb128 0xe
 1368 0027 00       		.byte	0
 1369 0028 00       		.byte	0
 1370 0029 04       		.uleb128 0x4
 1371 002a 16       		.uleb128 0x16
 1372 002b 00       		.byte	0
 1373 002c 03       		.uleb128 0x3
 1374 002d 0E       		.uleb128 0xe
 1375 002e 3A       		.uleb128 0x3a
 1376 002f 0B       		.uleb128 0xb
 1377 0030 3B       		.uleb128 0x3b
 1378 0031 0B       		.uleb128 0xb
 1379 0032 39       		.uleb128 0x39
 1380 0033 0B       		.uleb128 0xb
 1381 0034 49       		.uleb128 0x49
 1382 0035 13       		.uleb128 0x13
 1383 0036 00       		.byte	0
 1384 0037 00       		.byte	0
 1385 0038 05       		.uleb128 0x5
 1386 0039 35       		.uleb128 0x35
 1387 003a 00       		.byte	0
 1388 003b 49       		.uleb128 0x49
 1389 003c 13       		.uleb128 0x13
 1390 003d 00       		.byte	0
 1391 003e 00       		.byte	0
 1392 003f 06       		.uleb128 0x6
 1393 0040 13       		.uleb128 0x13
 1394 0041 01       		.byte	0x1
 1395 0042 03       		.uleb128 0x3
 1396 0043 0E       		.uleb128 0xe
 1397 0044 0B       		.uleb128 0xb
 1398 0045 0B       		.uleb128 0xb
 1399 0046 3A       		.uleb128 0x3a
 1400 0047 0B       		.uleb128 0xb
 1401 0048 3B       		.uleb128 0x3b
 1402 0049 0B       		.uleb128 0xb
 1403 004a 39       		.uleb128 0x39
 1404 004b 0B       		.uleb128 0xb
 1405 004c 01       		.uleb128 0x1
 1406 004d 13       		.uleb128 0x13
 1407 004e 00       		.byte	0
 1408 004f 00       		.byte	0
 1409 0050 07       		.uleb128 0x7
 1410 0051 0D       		.uleb128 0xd
 1411 0052 00       		.byte	0
 1412 0053 03       		.uleb128 0x3
 1413 0054 0E       		.uleb128 0xe
 1414 0055 3A       		.uleb128 0x3a
 1415 0056 0B       		.uleb128 0xb
 1416 0057 3B       		.uleb128 0x3b
 1417 0058 0B       		.uleb128 0xb
 1418 0059 39       		.uleb128 0x39
 1419 005a 0B       		.uleb128 0xb
 1420 005b 49       		.uleb128 0x49
ARM GAS  /var/folders/l5/0x54b2c10074c8bt31ycjvl80000gp/T//ccY9nfCX.s 			page 26


 1421 005c 13       		.uleb128 0x13
 1422 005d 38       		.uleb128 0x38
 1423 005e 0B       		.uleb128 0xb
 1424 005f 00       		.byte	0
 1425 0060 00       		.byte	0
 1426 0061 08       		.uleb128 0x8
 1427 0062 0D       		.uleb128 0xd
 1428 0063 00       		.byte	0
 1429 0064 03       		.uleb128 0x3
 1430 0065 08       		.uleb128 0x8
 1431 0066 3A       		.uleb128 0x3a
 1432 0067 0B       		.uleb128 0xb
 1433 0068 3B       		.uleb128 0x3b
 1434 0069 0B       		.uleb128 0xb
 1435 006a 39       		.uleb128 0x39
 1436 006b 0B       		.uleb128 0xb
 1437 006c 49       		.uleb128 0x49
 1438 006d 13       		.uleb128 0x13
 1439 006e 38       		.uleb128 0x38
 1440 006f 0B       		.uleb128 0xb
 1441 0070 00       		.byte	0
 1442 0071 00       		.byte	0
 1443 0072 09       		.uleb128 0x9
 1444 0073 13       		.uleb128 0x13
 1445 0074 01       		.byte	0x1
 1446 0075 0B       		.uleb128 0xb
 1447 0076 0B       		.uleb128 0xb
 1448 0077 3A       		.uleb128 0x3a
 1449 0078 0B       		.uleb128 0xb
 1450 0079 3B       		.uleb128 0x3b
 1451 007a 0B       		.uleb128 0xb
 1452 007b 39       		.uleb128 0x39
 1453 007c 0B       		.uleb128 0xb
 1454 007d 01       		.uleb128 0x1
 1455 007e 13       		.uleb128 0x13
 1456 007f 00       		.byte	0
 1457 0080 00       		.byte	0
 1458 0081 0A       		.uleb128 0xa
 1459 0082 0F       		.uleb128 0xf
 1460 0083 00       		.byte	0
 1461 0084 0B       		.uleb128 0xb
 1462 0085 0B       		.uleb128 0xb
 1463 0086 49       		.uleb128 0x49
 1464 0087 13       		.uleb128 0x13
 1465 0088 00       		.byte	0
 1466 0089 00       		.byte	0
 1467 008a 0B       		.uleb128 0xb
 1468 008b 0F       		.uleb128 0xf
 1469 008c 00       		.byte	0
 1470 008d 0B       		.uleb128 0xb
 1471 008e 0B       		.uleb128 0xb
 1472 008f 00       		.byte	0
 1473 0090 00       		.byte	0
 1474 0091 0C       		.uleb128 0xc
 1475 0092 15       		.uleb128 0x15
 1476 0093 01       		.byte	0x1
 1477 0094 27       		.uleb128 0x27
ARM GAS  /var/folders/l5/0x54b2c10074c8bt31ycjvl80000gp/T//ccY9nfCX.s 			page 27


 1478 0095 19       		.uleb128 0x19
 1479 0096 01       		.uleb128 0x1
 1480 0097 13       		.uleb128 0x13
 1481 0098 00       		.byte	0
 1482 0099 00       		.byte	0
 1483 009a 0D       		.uleb128 0xd
 1484 009b 05       		.uleb128 0x5
 1485 009c 00       		.byte	0
 1486 009d 49       		.uleb128 0x49
 1487 009e 13       		.uleb128 0x13
 1488 009f 00       		.byte	0
 1489 00a0 00       		.byte	0
 1490 00a1 0E       		.uleb128 0xe
 1491 00a2 34       		.uleb128 0x34
 1492 00a3 00       		.byte	0
 1493 00a4 03       		.uleb128 0x3
 1494 00a5 0E       		.uleb128 0xe
 1495 00a6 3A       		.uleb128 0x3a
 1496 00a7 0B       		.uleb128 0xb
 1497 00a8 3B       		.uleb128 0x3b
 1498 00a9 0B       		.uleb128 0xb
 1499 00aa 39       		.uleb128 0x39
 1500 00ab 0B       		.uleb128 0xb
 1501 00ac 49       		.uleb128 0x49
 1502 00ad 13       		.uleb128 0x13
 1503 00ae 3F       		.uleb128 0x3f
 1504 00af 19       		.uleb128 0x19
 1505 00b0 3C       		.uleb128 0x3c
 1506 00b1 19       		.uleb128 0x19
 1507 00b2 00       		.byte	0
 1508 00b3 00       		.byte	0
 1509 00b4 0F       		.uleb128 0xf
 1510 00b5 17       		.uleb128 0x17
 1511 00b6 01       		.byte	0x1
 1512 00b7 0B       		.uleb128 0xb
 1513 00b8 0B       		.uleb128 0xb
 1514 00b9 3A       		.uleb128 0x3a
 1515 00ba 0B       		.uleb128 0xb
 1516 00bb 3B       		.uleb128 0x3b
 1517 00bc 0B       		.uleb128 0xb
 1518 00bd 39       		.uleb128 0x39
 1519 00be 0B       		.uleb128 0xb
 1520 00bf 01       		.uleb128 0x1
 1521 00c0 13       		.uleb128 0x13
 1522 00c1 00       		.byte	0
 1523 00c2 00       		.byte	0
 1524 00c3 10       		.uleb128 0x10
 1525 00c4 0D       		.uleb128 0xd
 1526 00c5 00       		.byte	0
 1527 00c6 03       		.uleb128 0x3
 1528 00c7 0E       		.uleb128 0xe
 1529 00c8 3A       		.uleb128 0x3a
 1530 00c9 0B       		.uleb128 0xb
 1531 00ca 3B       		.uleb128 0x3b
 1532 00cb 0B       		.uleb128 0xb
 1533 00cc 39       		.uleb128 0x39
 1534 00cd 0B       		.uleb128 0xb
ARM GAS  /var/folders/l5/0x54b2c10074c8bt31ycjvl80000gp/T//ccY9nfCX.s 			page 28


 1535 00ce 49       		.uleb128 0x49
 1536 00cf 13       		.uleb128 0x13
 1537 00d0 00       		.byte	0
 1538 00d1 00       		.byte	0
 1539 00d2 11       		.uleb128 0x11
 1540 00d3 26       		.uleb128 0x26
 1541 00d4 00       		.byte	0
 1542 00d5 49       		.uleb128 0x49
 1543 00d6 13       		.uleb128 0x13
 1544 00d7 00       		.byte	0
 1545 00d8 00       		.byte	0
 1546 00d9 12       		.uleb128 0x12
 1547 00da 15       		.uleb128 0x15
 1548 00db 01       		.byte	0x1
 1549 00dc 27       		.uleb128 0x27
 1550 00dd 19       		.uleb128 0x19
 1551 00de 49       		.uleb128 0x49
 1552 00df 13       		.uleb128 0x13
 1553 00e0 01       		.uleb128 0x1
 1554 00e1 13       		.uleb128 0x13
 1555 00e2 00       		.byte	0
 1556 00e3 00       		.byte	0
 1557 00e4 13       		.uleb128 0x13
 1558 00e5 01       		.uleb128 0x1
 1559 00e6 01       		.byte	0x1
 1560 00e7 49       		.uleb128 0x49
 1561 00e8 13       		.uleb128 0x13
 1562 00e9 01       		.uleb128 0x1
 1563 00ea 13       		.uleb128 0x13
 1564 00eb 00       		.byte	0
 1565 00ec 00       		.byte	0
 1566 00ed 14       		.uleb128 0x14
 1567 00ee 21       		.uleb128 0x21
 1568 00ef 00       		.byte	0
 1569 00f0 49       		.uleb128 0x49
 1570 00f1 13       		.uleb128 0x13
 1571 00f2 2F       		.uleb128 0x2f
 1572 00f3 0B       		.uleb128 0xb
 1573 00f4 00       		.byte	0
 1574 00f5 00       		.byte	0
 1575 00f6 15       		.uleb128 0x15
 1576 00f7 34       		.uleb128 0x34
 1577 00f8 00       		.byte	0
 1578 00f9 47       		.uleb128 0x47
 1579 00fa 13       		.uleb128 0x13
 1580 00fb 3A       		.uleb128 0x3a
 1581 00fc 0B       		.uleb128 0xb
 1582 00fd 3B       		.uleb128 0x3b
 1583 00fe 0B       		.uleb128 0xb
 1584 00ff 39       		.uleb128 0x39
 1585 0100 0B       		.uleb128 0xb
 1586 0101 02       		.uleb128 0x2
 1587 0102 18       		.uleb128 0x18
 1588 0103 00       		.byte	0
 1589 0104 00       		.byte	0
 1590 0105 16       		.uleb128 0x16
 1591 0106 2E       		.uleb128 0x2e
ARM GAS  /var/folders/l5/0x54b2c10074c8bt31ycjvl80000gp/T//ccY9nfCX.s 			page 29


 1592 0107 01       		.byte	0x1
 1593 0108 3F       		.uleb128 0x3f
 1594 0109 19       		.uleb128 0x19
 1595 010a 03       		.uleb128 0x3
 1596 010b 0E       		.uleb128 0xe
 1597 010c 3A       		.uleb128 0x3a
 1598 010d 0B       		.uleb128 0xb
 1599 010e 3B       		.uleb128 0x3b
 1600 010f 0B       		.uleb128 0xb
 1601 0110 39       		.uleb128 0x39
 1602 0111 0B       		.uleb128 0xb
 1603 0112 27       		.uleb128 0x27
 1604 0113 19       		.uleb128 0x19
 1605 0114 11       		.uleb128 0x11
 1606 0115 01       		.uleb128 0x1
 1607 0116 12       		.uleb128 0x12
 1608 0117 06       		.uleb128 0x6
 1609 0118 40       		.uleb128 0x40
 1610 0119 18       		.uleb128 0x18
 1611 011a 9642     		.uleb128 0x2116
 1612 011c 19       		.uleb128 0x19
 1613 011d 01       		.uleb128 0x1
 1614 011e 13       		.uleb128 0x13
 1615 011f 00       		.byte	0
 1616 0120 00       		.byte	0
 1617 0121 17       		.uleb128 0x17
 1618 0122 0B       		.uleb128 0xb
 1619 0123 01       		.byte	0x1
 1620 0124 11       		.uleb128 0x11
 1621 0125 01       		.uleb128 0x1
 1622 0126 12       		.uleb128 0x12
 1623 0127 06       		.uleb128 0x6
 1624 0128 00       		.byte	0
 1625 0129 00       		.byte	0
 1626 012a 18       		.uleb128 0x18
 1627 012b 34       		.uleb128 0x34
 1628 012c 00       		.byte	0
 1629 012d 03       		.uleb128 0x3
 1630 012e 08       		.uleb128 0x8
 1631 012f 3A       		.uleb128 0x3a
 1632 0130 0B       		.uleb128 0xb
 1633 0131 3B       		.uleb128 0x3b
 1634 0132 0B       		.uleb128 0xb
 1635 0133 39       		.uleb128 0x39
 1636 0134 0B       		.uleb128 0xb
 1637 0135 49       		.uleb128 0x49
 1638 0136 13       		.uleb128 0x13
 1639 0137 02       		.uleb128 0x2
 1640 0138 17       		.uleb128 0x17
 1641 0139 B742     		.uleb128 0x2137
 1642 013b 17       		.uleb128 0x17
 1643 013c 00       		.byte	0
 1644 013d 00       		.byte	0
 1645 013e 19       		.uleb128 0x19
 1646 013f 0B       		.uleb128 0xb
 1647 0140 01       		.byte	0x1
 1648 0141 55       		.uleb128 0x55
ARM GAS  /var/folders/l5/0x54b2c10074c8bt31ycjvl80000gp/T//ccY9nfCX.s 			page 30


 1649 0142 17       		.uleb128 0x17
 1650 0143 00       		.byte	0
 1651 0144 00       		.byte	0
 1652 0145 1A       		.uleb128 0x1a
 1653 0146 2E       		.uleb128 0x2e
 1654 0147 01       		.byte	0x1
 1655 0148 3F       		.uleb128 0x3f
 1656 0149 19       		.uleb128 0x19
 1657 014a 03       		.uleb128 0x3
 1658 014b 0E       		.uleb128 0xe
 1659 014c 3A       		.uleb128 0x3a
 1660 014d 0B       		.uleb128 0xb
 1661 014e 3B       		.uleb128 0x3b
 1662 014f 0B       		.uleb128 0xb
 1663 0150 39       		.uleb128 0x39
 1664 0151 0B       		.uleb128 0xb
 1665 0152 27       		.uleb128 0x27
 1666 0153 19       		.uleb128 0x19
 1667 0154 11       		.uleb128 0x11
 1668 0155 01       		.uleb128 0x1
 1669 0156 12       		.uleb128 0x12
 1670 0157 06       		.uleb128 0x6
 1671 0158 40       		.uleb128 0x40
 1672 0159 18       		.uleb128 0x18
 1673 015a 9742     		.uleb128 0x2117
 1674 015c 19       		.uleb128 0x19
 1675 015d 01       		.uleb128 0x1
 1676 015e 13       		.uleb128 0x13
 1677 015f 00       		.byte	0
 1678 0160 00       		.byte	0
 1679 0161 1B       		.uleb128 0x1b
 1680 0162 34       		.uleb128 0x34
 1681 0163 00       		.byte	0
 1682 0164 03       		.uleb128 0x3
 1683 0165 0E       		.uleb128 0xe
 1684 0166 3A       		.uleb128 0x3a
 1685 0167 0B       		.uleb128 0xb
 1686 0168 3B       		.uleb128 0x3b
 1687 0169 0B       		.uleb128 0xb
 1688 016a 39       		.uleb128 0x39
 1689 016b 0B       		.uleb128 0xb
 1690 016c 49       		.uleb128 0x49
 1691 016d 13       		.uleb128 0x13
 1692 016e 02       		.uleb128 0x2
 1693 016f 18       		.uleb128 0x18
 1694 0170 00       		.byte	0
 1695 0171 00       		.byte	0
 1696 0172 1C       		.uleb128 0x1c
 1697 0173 898201   		.uleb128 0x4109
 1698 0176 00       		.byte	0
 1699 0177 11       		.uleb128 0x11
 1700 0178 01       		.uleb128 0x1
 1701 0179 31       		.uleb128 0x31
 1702 017a 13       		.uleb128 0x13
 1703 017b 00       		.byte	0
 1704 017c 00       		.byte	0
 1705 017d 1D       		.uleb128 0x1d
ARM GAS  /var/folders/l5/0x54b2c10074c8bt31ycjvl80000gp/T//ccY9nfCX.s 			page 31


 1706 017e 898201   		.uleb128 0x4109
 1707 0181 01       		.byte	0x1
 1708 0182 11       		.uleb128 0x11
 1709 0183 01       		.uleb128 0x1
 1710 0184 31       		.uleb128 0x31
 1711 0185 13       		.uleb128 0x13
 1712 0186 01       		.uleb128 0x1
 1713 0187 13       		.uleb128 0x13
 1714 0188 00       		.byte	0
 1715 0189 00       		.byte	0
 1716 018a 1E       		.uleb128 0x1e
 1717 018b 8A8201   		.uleb128 0x410a
 1718 018e 00       		.byte	0
 1719 018f 02       		.uleb128 0x2
 1720 0190 18       		.uleb128 0x18
 1721 0191 9142     		.uleb128 0x2111
 1722 0193 18       		.uleb128 0x18
 1723 0194 00       		.byte	0
 1724 0195 00       		.byte	0
 1725 0196 1F       		.uleb128 0x1f
 1726 0197 898201   		.uleb128 0x4109
 1727 019a 01       		.byte	0x1
 1728 019b 11       		.uleb128 0x11
 1729 019c 01       		.uleb128 0x1
 1730 019d 31       		.uleb128 0x31
 1731 019e 13       		.uleb128 0x13
 1732 019f 00       		.byte	0
 1733 01a0 00       		.byte	0
 1734 01a1 20       		.uleb128 0x20
 1735 01a2 05       		.uleb128 0x5
 1736 01a3 00       		.byte	0
 1737 01a4 03       		.uleb128 0x3
 1738 01a5 08       		.uleb128 0x8
 1739 01a6 3A       		.uleb128 0x3a
 1740 01a7 0B       		.uleb128 0xb
 1741 01a8 3B       		.uleb128 0x3b
 1742 01a9 0B       		.uleb128 0xb
 1743 01aa 39       		.uleb128 0x39
 1744 01ab 0B       		.uleb128 0xb
 1745 01ac 49       		.uleb128 0x49
 1746 01ad 13       		.uleb128 0x13
 1747 01ae 02       		.uleb128 0x2
 1748 01af 18       		.uleb128 0x18
 1749 01b0 00       		.byte	0
 1750 01b1 00       		.byte	0
 1751 01b2 21       		.uleb128 0x21
 1752 01b3 2E       		.uleb128 0x2e
 1753 01b4 00       		.byte	0
 1754 01b5 3F       		.uleb128 0x3f
 1755 01b6 19       		.uleb128 0x19
 1756 01b7 3C       		.uleb128 0x3c
 1757 01b8 19       		.uleb128 0x19
 1758 01b9 6E       		.uleb128 0x6e
 1759 01ba 0E       		.uleb128 0xe
 1760 01bb 03       		.uleb128 0x3
 1761 01bc 0E       		.uleb128 0xe
 1762 01bd 3A       		.uleb128 0x3a
ARM GAS  /var/folders/l5/0x54b2c10074c8bt31ycjvl80000gp/T//ccY9nfCX.s 			page 32


 1763 01be 0B       		.uleb128 0xb
 1764 01bf 3B       		.uleb128 0x3b
 1765 01c0 0B       		.uleb128 0xb
 1766 01c1 39       		.uleb128 0x39
 1767 01c2 0B       		.uleb128 0xb
 1768 01c3 00       		.byte	0
 1769 01c4 00       		.byte	0
 1770 01c5 22       		.uleb128 0x22
 1771 01c6 2E       		.uleb128 0x2e
 1772 01c7 00       		.byte	0
 1773 01c8 3F       		.uleb128 0x3f
 1774 01c9 19       		.uleb128 0x19
 1775 01ca 3C       		.uleb128 0x3c
 1776 01cb 19       		.uleb128 0x19
 1777 01cc 6E       		.uleb128 0x6e
 1778 01cd 0E       		.uleb128 0xe
 1779 01ce 03       		.uleb128 0x3
 1780 01cf 0E       		.uleb128 0xe
 1781 01d0 3A       		.uleb128 0x3a
 1782 01d1 0B       		.uleb128 0xb
 1783 01d2 3B       		.uleb128 0x3b
 1784 01d3 05       		.uleb128 0x5
 1785 01d4 39       		.uleb128 0x39
 1786 01d5 0B       		.uleb128 0xb
 1787 01d6 00       		.byte	0
 1788 01d7 00       		.byte	0
 1789 01d8 00       		.byte	0
 1790              		.section	.debug_loc,"",%progbits
 1791              	.Ldebug_loc0:
 1792              	.LVUS0:
 1793 0000 04       		.uleb128 .LVU49
 1794 0001 00       		.uleb128 .LVU58
 1795 0002 00       		.uleb128 .LVU61
 1796 0003 00       		.uleb128 0
 1797              	.LLST0:
 1798 0004 44000000 		.4byte	.LVL7
 1799 0008 63000000 		.4byte	.LVL9-1
 1800 000c 0100     		.2byte	0x1
 1801 000e 53       		.byte	0x53
 1802 000f 68000000 		.4byte	.LVL10
 1803 0013 80000000 		.4byte	.LFE9
 1804 0017 0100     		.2byte	0x1
 1805 0019 53       		.byte	0x53
 1806 001a 00000000 		.4byte	0
 1807 001e 00000000 		.4byte	0
 1808              	.LVUS1:
 1809 0022 00       		.uleb128 .LVU51
 1810 0023 00       		.uleb128 .LVU58
 1811              	.LLST1:
 1812 0024 50000000 		.4byte	.LVL8
 1813 0028 63000000 		.4byte	.LVL9-1
 1814 002c 0100     		.2byte	0x1
 1815 002e 51       		.byte	0x51
 1816 002f 00000000 		.4byte	0
 1817 0033 00000000 		.4byte	0
 1818              		.section	.debug_aranges,"",%progbits
 1819 0000 2C000000 		.4byte	0x2c
ARM GAS  /var/folders/l5/0x54b2c10074c8bt31ycjvl80000gp/T//ccY9nfCX.s 			page 33


 1820 0004 0200     		.2byte	0x2
 1821 0006 00000000 		.4byte	.Ldebug_info0
 1822 000a 04       		.byte	0x4
 1823 000b 00       		.byte	0
 1824 000c 0000     		.2byte	0
 1825 000e 0000     		.2byte	0
 1826 0010 00000000 		.4byte	.LFB7
 1827 0014 20000000 		.4byte	.LFE7-.LFB7
 1828 0018 00000000 		.4byte	.LFB8
 1829 001c 78000000 		.4byte	.LFE8-.LFB8
 1830 0020 00000000 		.4byte	.LFB9
 1831 0024 80000000 		.4byte	.LFE9-.LFB9
 1832 0028 00000000 		.4byte	0
 1833 002c 00000000 		.4byte	0
 1834              		.section	.debug_ranges,"",%progbits
 1835              	.Ldebug_ranges0:
 1836 0000 44000000 		.4byte	.LBB3
 1837 0004 44000000 		.4byte	.LBE3
 1838 0008 48000000 		.4byte	.LBB4
 1839 000c 64000000 		.4byte	.LBE4
 1840 0010 00000000 		.4byte	0
 1841 0014 00000000 		.4byte	0
 1842 0018 00000000 		.4byte	.LFB7
 1843 001c 20000000 		.4byte	.LFE7
 1844 0020 00000000 		.4byte	.LFB8
 1845 0024 78000000 		.4byte	.LFE8
 1846 0028 00000000 		.4byte	.LFB9
 1847 002c 80000000 		.4byte	.LFE9
 1848 0030 00000000 		.4byte	0
 1849 0034 00000000 		.4byte	0
 1850              		.section	.debug_line,"",%progbits
 1851              	.Ldebug_line0:
 1852 0000 C1020000 		.section	.debug_str,"MS",%progbits,1
 1852      0300A101 
 1852      00000201 
 1852      FB0E0D00 
 1852      01010101 
 1853              	.LASF75:
 1854 0000 7466756E 		.ascii	"tfunc_t\000"
 1854      635F7400 
 1855              	.LASF86:
 1856 0008 63665F6F 		.ascii	"cf_off_older\000"
 1856      66665F6F 
 1856      6C646572 
 1856      00
 1857              	.LASF38:
 1858 0015 705F6D73 		.ascii	"p_msg\000"
 1858      6700
 1859              	.LASF70:
 1860 001b 7264796D 		.ascii	"rdymsg\000"
 1860      736700
 1861              	.LASF4:
 1862 0022 5F5F7569 		.ascii	"__uint8_t\000"
 1862      6E74385F 
 1862      7400
 1863              	.LASF64:
 1864 002c 76746C69 		.ascii	"vtlist\000"
ARM GAS  /var/folders/l5/0x54b2c10074c8bt31ycjvl80000gp/T//ccY9nfCX.s 			page 34


 1864      737400
 1865              	.LASF97:
 1866 0033 63685379 		.ascii	"chSysTimerHandlerI\000"
 1866      7354696D 
 1866      65724861 
 1866      6E646C65 
 1866      724900
 1867              	.LASF12:
 1868 0046 6C6F6E67 		.ascii	"long long unsigned int\000"
 1868      206C6F6E 
 1868      6720756E 
 1868      7369676E 
 1868      65642069 
 1869              	.LASF82:
 1870 005d 63685F74 		.ascii	"ch_threadsize\000"
 1870      68726561 
 1870      6473697A 
 1870      6500
 1871              	.LASF71:
 1872 006b 65786974 		.ascii	"exitcode\000"
 1872      636F6465 
 1872      00
 1873              	.LASF109:
 1874 0074 6D61696E 		.ascii	"mainthread\000"
 1874      74687265 
 1874      616400
 1875              	.LASF27:
 1876 007f 705F7072 		.ascii	"p_prio\000"
 1876      696F00
 1877              	.LASF89:
 1878 0086 63665F6F 		.ascii	"cf_off_state\000"
 1878      66665F73 
 1878      74617465 
 1878      00
 1879              	.LASF100:
 1880 0093 5F736368 		.ascii	"_scheduler_init\000"
 1880      6564756C 
 1880      65725F69 
 1880      6E697400 
 1881              	.LASF11:
 1882 00a3 6C6F6E67 		.ascii	"long long int\000"
 1882      206C6F6E 
 1882      6720696E 
 1882      7400
 1883              	.LASF1:
 1884 00b1 7369676E 		.ascii	"signed char\000"
 1884      65642063 
 1884      68617200 
 1885              	.LASF88:
 1886 00bd 63665F6F 		.ascii	"cf_off_stklimit\000"
 1886      66665F73 
 1886      746B6C69 
 1886      6D697400 
 1887              	.LASF90:
 1888 00cd 63665F6F 		.ascii	"cf_off_flags\000"
 1888      66665F66 
 1888      6C616773 
ARM GAS  /var/folders/l5/0x54b2c10074c8bt31ycjvl80000gp/T//ccY9nfCX.s 			page 35


 1888      00
 1889              	.LASF67:
 1890 00da 6D5F7175 		.ascii	"m_queue\000"
 1890      65756500 
 1891              	.LASF76:
 1892 00e2 63685F69 		.ascii	"ch_identifier\000"
 1892      64656E74 
 1892      69666965 
 1892      7200
 1893              	.LASF8:
 1894 00f0 6C6F6E67 		.ascii	"long int\000"
 1894      20696E74 
 1894      00
 1895              	.LASF18:
 1896 00f9 74737461 		.ascii	"tstate_t\000"
 1896      74655F74 
 1896      00
 1897              	.LASF14:
 1898 0102 75696E74 		.ascii	"uint16_t\000"
 1898      31365F74 
 1898      00
 1899              	.LASF94:
 1900 010b 63686465 		.ascii	"chdebug_t\000"
 1900      6275675F 
 1900      7400
 1901              	.LASF29:
 1902 0115 705F6E65 		.ascii	"p_newer\000"
 1902      77657200 
 1903              	.LASF96:
 1904 011d 5F69646C 		.ascii	"_idle_thread_wa\000"
 1904      655F7468 
 1904      72656164 
 1904      5F776100 
 1905              	.LASF9:
 1906 012d 5F5F7569 		.ascii	"__uint32_t\000"
 1906      6E743332 
 1906      5F7400
 1907              	.LASF45:
 1908 0138 72656761 		.ascii	"regarm_t\000"
 1908      726D5F74 
 1908      00
 1909              	.LASF51:
 1910 0141 76745F70 		.ascii	"vt_prev\000"
 1910      72657600 
 1911              	.LASF98:
 1912 0149 63685379 		.ascii	"chSysInit\000"
 1912      73496E69 
 1912      7400
 1913              	.LASF103:
 1914 0153 5F686561 		.ascii	"_heap_init\000"
 1914      705F696E 
 1914      697400
 1915              	.LASF0:
 1916 015e 756E7369 		.ascii	"unsigned int\000"
 1916      676E6564 
 1916      20696E74 
 1916      00
ARM GAS  /var/folders/l5/0x54b2c10074c8bt31ycjvl80000gp/T//ccY9nfCX.s 			page 36


 1917              	.LASF104:
 1918 016b 5F746872 		.ascii	"_thread_init\000"
 1918      6561645F 
 1918      696E6974 
 1918      00
 1919              	.LASF50:
 1920 0178 76745F6E 		.ascii	"vt_next\000"
 1920      65787400 
 1921              	.LASF10:
 1922 0180 6C6F6E67 		.ascii	"long unsigned int\000"
 1922      20756E73 
 1922      69676E65 
 1922      6420696E 
 1922      7400
 1923              	.LASF95:
 1924 0192 63685F64 		.ascii	"ch_debug\000"
 1924      65627567 
 1924      00
 1925              	.LASF48:
 1926 019b 76746675 		.ascii	"vtfunc_t\000"
 1926      6E635F74 
 1926      00
 1927              	.LASF47:
 1928 01a4 636F6E74 		.ascii	"context\000"
 1928      65787400 
 1929              	.LASF6:
 1930 01ac 73686F72 		.ascii	"short unsigned int\000"
 1930      7420756E 
 1930      7369676E 
 1930      65642069 
 1930      6E7400
 1931              	.LASF21:
 1932 01bf 6D73675F 		.ascii	"msg_t\000"
 1932      7400
 1933              	.LASF60:
 1934 01c5 725F6E65 		.ascii	"r_newer\000"
 1934      77657200 
 1935              	.LASF106:
 1936 01cd 474E5520 		.ascii	"GNU C17 8.3.1 20190703 (release) [gcc-8-branch revi"
 1936      43313720 
 1936      382E332E 
 1936      31203230 
 1936      31393037 
 1937 0200 73696F6E 		.ascii	"sion 273027] -mcpu=arm1176jz-s -mno-thumb-interwork"
 1937      20323733 
 1937      3032375D 
 1937      202D6D63 
 1937      70753D61 
 1938 0233 202D6D66 		.ascii	" -mfloat-abi=soft -marm -march=armv6kz -ggdb -O2 -f"
 1938      6C6F6174 
 1938      2D616269 
 1938      3D736F66 
 1938      74202D6D 
 1939 0266 6F6D6974 		.ascii	"omit-frame-pointer -ffunction-sections -fdata-secti"
 1939      2D667261 
 1939      6D652D70 
 1939      6F696E74 
ARM GAS  /var/folders/l5/0x54b2c10074c8bt31ycjvl80000gp/T//ccY9nfCX.s 			page 37


 1939      6572202D 
 1940 0299 6F6E7300 		.ascii	"ons\000"
 1941              	.LASF17:
 1942 029d 746D6F64 		.ascii	"tmode_t\000"
 1942      655F7400 
 1943              	.LASF43:
 1944 02a5 54687265 		.ascii	"ThreadsList\000"
 1944      6164734C 
 1944      69737400 
 1945              	.LASF22:
 1946 02b1 6576656E 		.ascii	"eventmask_t\000"
 1946      746D6173 
 1946      6B5F7400 
 1947              	.LASF66:
 1948 02bd 4D757465 		.ascii	"Mutex\000"
 1948      7800
 1949              	.LASF44:
 1950 02c3 73746B61 		.ascii	"stkalign_t\000"
 1950      6C69676E 
 1950      5F7400
 1951              	.LASF105:
 1952 02ce 63685468 		.ascii	"chThdCreateStatic\000"
 1952      64437265 
 1952      61746553 
 1952      74617469 
 1952      6300
 1953              	.LASF77:
 1954 02e0 63685F7A 		.ascii	"ch_zero\000"
 1954      65726F00 
 1955              	.LASF91:
 1956 02e8 63665F6F 		.ascii	"cf_off_refs\000"
 1956      66665F72 
 1956      65667300 
 1957              	.LASF52:
 1958 02f4 76745F74 		.ascii	"vt_time\000"
 1958      696D6500 
 1959              	.LASF53:
 1960 02fc 76745F66 		.ascii	"vt_func\000"
 1960      756E6300 
 1961              	.LASF81:
 1962 0304 63685F74 		.ascii	"ch_timesize\000"
 1962      696D6573 
 1962      697A6500 
 1963              	.LASF87:
 1964 0310 63665F6F 		.ascii	"cf_off_name\000"
 1964      66665F6E 
 1964      616D6500 
 1965              	.LASF30:
 1966 031c 705F6F6C 		.ascii	"p_older\000"
 1966      64657200 
 1967              	.LASF59:
 1968 0324 725F6374 		.ascii	"r_ctx\000"
 1968      7800
 1969              	.LASF42:
 1970 032a 54687265 		.ascii	"ThreadsQueue\000"
 1970      61647351 
 1970      75657565 
ARM GAS  /var/folders/l5/0x54b2c10074c8bt31ycjvl80000gp/T//ccY9nfCX.s 			page 38


 1970      00
 1971              	.LASF78:
 1972 0337 63685F73 		.ascii	"ch_size\000"
 1972      697A6500 
 1973              	.LASF62:
 1974 033f 725F6375 		.ascii	"r_current\000"
 1974      7272656E 
 1974      7400
 1975              	.LASF61:
 1976 0349 725F6F6C 		.ascii	"r_older\000"
 1976      64657200 
 1977              	.LASF99:
 1978 0351 5F69646C 		.ascii	"_idle_thread\000"
 1978      655F7468 
 1978      72656164 
 1978      00
 1979              	.LASF19:
 1980 035e 74726566 		.ascii	"trefs_t\000"
 1980      735F7400 
 1981              	.LASF80:
 1982 0366 63685F70 		.ascii	"ch_ptrsize\000"
 1982      74727369 
 1982      7A6500
 1983              	.LASF26:
 1984 0371 705F7072 		.ascii	"p_prev\000"
 1984      657600
 1985              	.LASF20:
 1986 0378 74707269 		.ascii	"tprio_t\000"
 1986      6F5F7400 
 1987              	.LASF15:
 1988 0380 696E7433 		.ascii	"int32_t\000"
 1988      325F7400 
 1989              	.LASF2:
 1990 0388 756E7369 		.ascii	"unsigned char\000"
 1990      676E6564 
 1990      20636861 
 1990      7200
 1991              	.LASF102:
 1992 0396 5F636F72 		.ascii	"_core_init\000"
 1992      655F696E 
 1992      697400
 1993              	.LASF40:
 1994 03a1 705F6D74 		.ascii	"p_mtxlist\000"
 1994      786C6973 
 1994      7400
 1995              	.LASF3:
 1996 03ab 73686F72 		.ascii	"short int\000"
 1996      7420696E 
 1996      7400
 1997              	.LASF32:
 1998 03b5 705F7374 		.ascii	"p_state\000"
 1998      61746500 
 1999              	.LASF93:
 2000 03bd 63665F6F 		.ascii	"cf_off_time\000"
 2000      66665F74 
 2000      696D6500 
 2001              	.LASF58:
ARM GAS  /var/folders/l5/0x54b2c10074c8bt31ycjvl80000gp/T//ccY9nfCX.s 			page 39


 2002 03c9 725F7072 		.ascii	"r_prio\000"
 2002      696F00
 2003              	.LASF73:
 2004 03d0 65776D61 		.ascii	"ewmask\000"
 2004      736B00
 2005              	.LASF25:
 2006 03d7 705F6E65 		.ascii	"p_next\000"
 2006      787400
 2007              	.LASF92:
 2008 03de 63665F6F 		.ascii	"cf_off_preempt\000"
 2008      66665F70 
 2008      7265656D 
 2008      707400
 2009              	.LASF33:
 2010 03ed 705F666C 		.ascii	"p_flags\000"
 2010      61677300 
 2011              	.LASF24:
 2012 03f5 54687265 		.ascii	"Thread\000"
 2012      616400
 2013              	.LASF85:
 2014 03fc 63665F6F 		.ascii	"cf_off_newer\000"
 2014      66665F6E 
 2014      65776572 
 2014      00
 2015              	.LASF39:
 2016 0409 705F6570 		.ascii	"p_epending\000"
 2016      656E6469 
 2016      6E6700
 2017              	.LASF16:
 2018 0414 75696E74 		.ascii	"uint32_t\000"
 2018      33325F74 
 2018      00
 2019              	.LASF83:
 2020 041d 63665F6F 		.ascii	"cf_off_prio\000"
 2020      66665F70 
 2020      72696F00 
 2021              	.LASF57:
 2022 0429 725F7175 		.ascii	"r_queue\000"
 2022      65756500 
 2023              	.LASF49:
 2024 0431 56697274 		.ascii	"VirtualTimer\000"
 2024      75616C54 
 2024      696D6572 
 2024      00
 2025              	.LASF74:
 2026 043e 63686172 		.ascii	"char\000"
 2026      00
 2027              	.LASF5:
 2028 0443 5F5F7569 		.ascii	"__uint16_t\000"
 2028      6E743136 
 2028      5F7400
 2029              	.LASF69:
 2030 044e 6D5F6E65 		.ascii	"m_next\000"
 2030      787400
 2031              	.LASF23:
 2032 0455 73797374 		.ascii	"systime_t\000"
 2032      696D655F 
ARM GAS  /var/folders/l5/0x54b2c10074c8bt31ycjvl80000gp/T//ccY9nfCX.s 			page 40


 2032      7400
 2033              	.LASF41:
 2034 045f 705F7265 		.ascii	"p_realprio\000"
 2034      616C7072 
 2034      696F00
 2035              	.LASF7:
 2036 046a 5F5F696E 		.ascii	"__int32_t\000"
 2036      7433325F 
 2036      7400
 2037              	.LASF101:
 2038 0474 5F76745F 		.ascii	"_vt_init\000"
 2038      696E6974 
 2038      00
 2039              	.LASF35:
 2040 047d 705F7469 		.ascii	"p_time\000"
 2040      6D6500
 2041              	.LASF46:
 2042 0484 696E7463 		.ascii	"intctx\000"
 2042      747800
 2043              	.LASF37:
 2044 048b 705F6D73 		.ascii	"p_msgqueue\000"
 2044      67717565 
 2044      756500
 2045              	.LASF54:
 2046 0496 76745F70 		.ascii	"vt_par\000"
 2046      617200
 2047              	.LASF84:
 2048 049d 63665F6F 		.ascii	"cf_off_ctx\000"
 2048      66665F63 
 2048      747800
 2049              	.LASF34:
 2050 04a8 705F7265 		.ascii	"p_refs\000"
 2050      667300
 2051              	.LASF63:
 2052 04af 52656164 		.ascii	"ReadyList\000"
 2052      794C6973 
 2052      7400
 2053              	.LASF65:
 2054 04b9 726C6973 		.ascii	"rlist\000"
 2054      7400
 2055              	.LASF107:
 2056 04bf 2E2E2F2E 		.ascii	"../../os/kernel/src/chsys.c\000"
 2056      2E2F6F73 
 2056      2F6B6572 
 2056      6E656C2F 
 2056      7372632F 
 2057              	.LASF13:
 2058 04db 75696E74 		.ascii	"uint8_t\000"
 2058      385F7400 
 2059              	.LASF72:
 2060 04e3 77746F62 		.ascii	"wtobjp\000"
 2060      6A7000
 2061              	.LASF31:
 2062 04ea 705F6E61 		.ascii	"p_name\000"
 2062      6D6500
 2063              	.LASF55:
 2064 04f1 76745F73 		.ascii	"vt_systime\000"
ARM GAS  /var/folders/l5/0x54b2c10074c8bt31ycjvl80000gp/T//ccY9nfCX.s 			page 41


 2064      79737469 
 2064      6D6500
 2065              	.LASF79:
 2066 04fc 63685F76 		.ascii	"ch_version\000"
 2066      65727369 
 2066      6F6E00
 2067              	.LASF108:
 2068 0507 2F557365 		.ascii	"/Users/fernandoguirado/eclipse-workspace/ChibiOS-RP"
 2068      72732F66 
 2068      65726E61 
 2068      6E646F67 
 2068      75697261 
 2069 053a 692D636F 		.ascii	"i-copia/demos/timers\000"
 2069      7069612F 
 2069      64656D6F 
 2069      732F7469 
 2069      6D657273 
 2070              	.LASF56:
 2071 054f 56544C69 		.ascii	"VTList\000"
 2071      737400
 2072              	.LASF68:
 2073 0556 6D5F6F77 		.ascii	"m_owner\000"
 2073      6E657200 
 2074              	.LASF28:
 2075 055e 705F6374 		.ascii	"p_ctx\000"
 2075      7800
 2076              	.LASF36:
 2077 0564 705F7761 		.ascii	"p_waiting\000"
 2077      6974696E 
 2077      6700
 2078              		.ident	"GCC: (GNU Tools for Arm Embedded Processors 8-2019-q3-update) 8.3.1 20190703 (release) [gc
ARM GAS  /var/folders/l5/0x54b2c10074c8bt31ycjvl80000gp/T//ccY9nfCX.s 			page 42


DEFINED SYMBOLS
                            *ABS*:0000000000000000 chsys.c
/var/folders/l5/0x54b2c10074c8bt31ycjvl80000gp/T//ccY9nfCX.s:16     .text._idle_thread:0000000000000000 $a
/var/folders/l5/0x54b2c10074c8bt31ycjvl80000gp/T//ccY9nfCX.s:23     .text._idle_thread:0000000000000000 _idle_thread
/var/folders/l5/0x54b2c10074c8bt31ycjvl80000gp/T//ccY9nfCX.s:55     .text._idle_thread:0000000000000018 $d
/var/folders/l5/0x54b2c10074c8bt31ycjvl80000gp/T//ccY9nfCX.s:61     .text.chSysInit:0000000000000000 $a
/var/folders/l5/0x54b2c10074c8bt31ycjvl80000gp/T//ccY9nfCX.s:67     .text.chSysInit:0000000000000000 chSysInit
/var/folders/l5/0x54b2c10074c8bt31ycjvl80000gp/T//ccY9nfCX.s:139    .text.chSysInit:0000000000000064 $d
                            *COM*:000000000000009c _idle_thread_wa
/var/folders/l5/0x54b2c10074c8bt31ycjvl80000gp/T//ccY9nfCX.s:148    .text.chSysTimerHandlerI:0000000000000000 $a
/var/folders/l5/0x54b2c10074c8bt31ycjvl80000gp/T//ccY9nfCX.s:154    .text.chSysTimerHandlerI:0000000000000000 chSysTimerHandlerI
/var/folders/l5/0x54b2c10074c8bt31ycjvl80000gp/T//ccY9nfCX.s:238    .text.chSysTimerHandlerI:0000000000000078 $d
/var/folders/l5/0x54b2c10074c8bt31ycjvl80000gp/T//ccY9nfCX.s:246    .bss.mainthread.4815:0000000000000000 $d
/var/folders/l5/0x54b2c10074c8bt31ycjvl80000gp/T//ccY9nfCX.s:250    .bss.mainthread.4815:0000000000000000 mainthread.4815
/var/folders/l5/0x54b2c10074c8bt31ycjvl80000gp/T//ccY9nfCX.s:253    .rodata._idle_thread.str1.4:0000000000000000 $d

UNDEFINED SYMBOLS
rlist
_scheduler_init
_vt_init
_core_init
_heap_init
_thread_init
chThdCreateStatic
ch_debug
vtlist
