ARM GAS  /var/folders/l5/0x54b2c10074c8bt31ycjvl80000gp/T//ccuPlkW0.s 			page 1


   1              		.cpu arm1176jz-s
   2              		.eabi_attribute 20, 1
   3              		.eabi_attribute 21, 1
   4              		.eabi_attribute 23, 3
   5              		.eabi_attribute 24, 1
   6              		.eabi_attribute 25, 1
   7              		.eabi_attribute 26, 1
   8              		.eabi_attribute 30, 2
   9              		.eabi_attribute 34, 1
  10              		.eabi_attribute 18, 4
  11              		.file	"chthreads.c"
  12              		.text
  13              	.Ltext0:
  14              		.cfi_sections	.debug_frame
  15              		.section	.text._thread_init,"ax",%progbits
  16              		.align	2
  17              		.global	_thread_init
  18              		.arch armv6kz
  19              		.syntax unified
  20              		.arm
  21              		.fpu softvfp
  22              		.type	_thread_init, %function
  23              	_thread_init:
  24              	.LVL0:
  25              	.LFB7:
  26              		.file 1 "../../os/kernel/src/chthreads.c"
  27              		.loc 1 69 48 view -0
  28              		.cfi_startproc
  29              		@ args = 0, pretend = 0, frame = 0
  30              		@ frame_needed = 0, uses_anonymous_args = 0
  31              		.loc 1 71 3 view .LVU1
  32              		.loc 1 69 48 is_stmt 0 view .LVU2
  33 0000 30402DE9 		push	{r4, r5, lr}
  34              		.cfi_def_cfa_offset 12
  35              		.cfi_offset 4, -12
  36              		.cfi_offset 5, -8
  37              		.cfi_offset 14, -4
  38              		.loc 1 79 17 view .LVU3
  39 0004 0020A0E3 		mov	r2, #0
  40              		.loc 1 72 15 view .LVU4
  41 0008 0250A0E3 		mov	r5, #2
  42              		.loc 1 88 14 view .LVU5
  43 000c 0140A0E3 		mov	r4, #1
  44              		.loc 1 92 3 view .LVU6
  45 0010 48C09FE5 		ldr	ip, .L4
  46              		.loc 1 71 14 view .LVU7
  47 0014 081080E5 		str	r1, [r0, #8]
  48              		.loc 1 72 3 is_stmt 1 view .LVU8
  49              		.loc 1 73 3 view .LVU9
  50              		.loc 1 92 3 is_stmt 0 view .LVU10
  51 0018 14E09CE5 		ldr	lr, [ip, #20]
  52              		.loc 1 78 18 view .LVU11
  53 001c 401080E5 		str	r1, [r0, #64]
  54              		.loc 1 92 3 view .LVU12
  55 0020 10C080E5 		str	ip, [r0, #16]
  56 0024 14E080E5 		str	lr, [r0, #20]
  57              		.loc 1 98 3 view .LVU13
ARM GAS  /var/folders/l5/0x54b2c10074c8bt31ycjvl80000gp/T//ccuPlkW0.s 			page 2


  58 0028 2C1080E2 		add	r1, r0, #44
  59              	.LVL1:
  60              		.loc 1 92 3 view .LVU14
  61 002c 14008CE5 		str	r0, [ip, #20]
  62              		.loc 1 95 3 view .LVU15
  63 0030 28C080E2 		add	ip, r0, #40
  64              		.loc 1 72 15 view .LVU16
  65 0034 BC51C0E1 		strh	r5, [r0, #28]	@ movhi
  66              		.loc 1 78 3 is_stmt 1 view .LVU17
  67              		.loc 1 79 3 view .LVU18
  68              		.loc 1 88 14 is_stmt 0 view .LVU19
  69 0038 1E40C0E5 		strb	r4, [r0, #30]
  70              		.loc 1 79 17 view .LVU20
  71 003c 3C2080E5 		str	r2, [r0, #60]
  72              		.loc 1 82 3 is_stmt 1 view .LVU21
  73              		.loc 1 82 18 is_stmt 0 view .LVU22
  74 0040 382080E5 		str	r2, [r0, #56]
  75              		.loc 1 85 3 is_stmt 1 view .LVU23
  76              		.loc 1 85 14 is_stmt 0 view .LVU24
  77 0044 202080E5 		str	r2, [r0, #32]
  78              		.loc 1 88 3 is_stmt 1 view .LVU25
  79              		.loc 1 91 3 view .LVU26
  80              		.loc 1 91 14 is_stmt 0 view .LVU27
  81 0048 182080E5 		str	r2, [r0, #24]
  82              		.loc 1 92 3 is_stmt 1 view .LVU28
  83              		.loc 1 92 3 view .LVU29
  84              		.loc 1 92 3 view .LVU30
  85 004c 10008EE5 		str	r0, [lr, #16]
  86              		.loc 1 92 17 view .LVU31
  87              		.loc 1 95 3 view .LVU32
  88 0050 28C080E5 		str	ip, [r0, #40]
  89              		.loc 1 98 3 view .LVU33
  90 0054 301080E5 		str	r1, [r0, #48]
  91 0058 2C1080E5 		str	r1, [r0, #44]
  92              		.loc 1 98 30 view .LVU34
  93              		.loc 1 104 3 view .LVU35
  94              		.loc 1 104 27 view .LVU36
  95              		.loc 1 106 3 view .LVU37
  96              		.loc 1 107 1 is_stmt 0 view .LVU38
  97 005c 3080BDE8 		pop	{r4, r5, pc}
  98              	.L5:
  99              		.align	2
 100              	.L4:
 101 0060 00000000 		.word	rlist
 102              		.cfi_endproc
 103              	.LFE7:
 104              		.size	_thread_init, .-_thread_init
 105              		.section	.text.chThdCreateI,"ax",%progbits
 106              		.align	2
 107              		.global	chThdCreateI
 108              		.syntax unified
 109              		.arm
 110              		.fpu softvfp
 111              		.type	chThdCreateI, %function
 112              	chThdCreateI:
 113              	.LVL2:
 114              	.LFB8:
ARM GAS  /var/folders/l5/0x54b2c10074c8bt31ycjvl80000gp/T//ccuPlkW0.s 			page 3


 115              		.loc 1 151 59 is_stmt 1 view -0
 116              		.cfi_startproc
 117              		@ args = 4, pretend = 0, frame = 0
 118              		@ frame_needed = 0, uses_anonymous_args = 0
 119              		.loc 1 153 3 view .LVU40
 120              		.loc 1 155 3 view .LVU41
 121              		.loc 1 155 21 view .LVU42
 122              		.loc 1 157 3 view .LVU43
 123              		.loc 1 159 29 view .LVU44
 124              		.loc 1 160 3 view .LVU45
 125              		.loc 1 151 59 is_stmt 0 view .LVU46
 126 0000 F0402DE9 		push	{r4, r5, r6, r7, lr}
 127              		.cfi_def_cfa_offset 20
 128              		.cfi_offset 4, -20
 129              		.cfi_offset 5, -16
 130              		.cfi_offset 6, -12
 131              		.cfi_offset 7, -8
 132              		.cfi_offset 14, -4
 133              	.LBB12:
 134              	.LBB13:
 135              		.loc 1 79 17 view .LVU47
 136 0004 00E0A0E3 		mov	lr, #0
 137              		.loc 1 72 15 view .LVU48
 138 0008 0270A0E3 		mov	r7, #2
 139              		.loc 1 88 14 view .LVU49
 140 000c 0160A0E3 		mov	r6, #1
 141              	.LBE13:
 142              	.LBE12:
 143              		.loc 1 160 3 view .LVU50
 144 0010 241041E2 		sub	r1, r1, #36
 145              	.LVL3:
 146              		.loc 1 160 3 view .LVU51
 147 0014 015080E0 		add	r5, r0, r1
 148 0018 0C5080E5 		str	r5, [r0, #12]
 149              		.loc 1 160 3 is_stmt 1 view .LVU52
 150 001c 013080E7 		str	r3, [r0, r1]
 151              		.loc 1 160 3 view .LVU53
 152              		.loc 1 151 59 is_stmt 0 view .LVU54
 153 0020 14309DE5 		ldr	r3, [sp, #20]
 154              	.LVL4:
 155              	.LBB17:
 156              	.LBB14:
 157              		.loc 1 92 3 view .LVU55
 158 0024 54409FE5 		ldr	r4, .L8
 159              	.LBE14:
 160              	.LBE17:
 161              		.loc 1 160 3 view .LVU56
 162 0028 043085E5 		str	r3, [r5, #4]
 163              		.loc 1 160 3 is_stmt 1 view .LVU57
 164 002c 50309FE5 		ldr	r3, .L8+4
 165              	.LBB18:
 166              	.LBB15:
 167              		.loc 1 95 3 is_stmt 0 view .LVU58
 168 0030 281080E2 		add	r1, r0, #40
 169              	.LVL5:
 170              		.loc 1 95 3 view .LVU59
 171              	.LBE15:
ARM GAS  /var/folders/l5/0x54b2c10074c8bt31ycjvl80000gp/T//ccuPlkW0.s 			page 4


 172              	.LBE18:
 173              		.loc 1 160 3 view .LVU60
 174 0034 203085E5 		str	r3, [r5, #32]
 175              		.loc 1 160 36 is_stmt 1 view .LVU61
 176              		.loc 1 161 3 view .LVU62
 177              	.LVL6:
 178              	.LBB19:
 179              	.LBI12:
 180              		.loc 1 69 9 view .LVU63
 181              	.LBB16:
 182              		.loc 1 71 3 view .LVU64
 183              		.loc 1 71 14 is_stmt 0 view .LVU65
 184 0038 082080E5 		str	r2, [r0, #8]
 185              		.loc 1 72 3 is_stmt 1 view .LVU66
 186              		.loc 1 73 3 view .LVU67
 187              		.loc 1 78 18 is_stmt 0 view .LVU68
 188 003c 402080E5 		str	r2, [r0, #64]
 189              		.loc 1 92 3 view .LVU69
 190 0040 142094E5 		ldr	r2, [r4, #20]
 191              	.LVL7:
 192              		.loc 1 98 3 view .LVU70
 193 0044 2C3080E2 		add	r3, r0, #44
 194              		.loc 1 92 3 view .LVU71
 195 0048 104080E5 		str	r4, [r0, #16]
 196 004c 142080E5 		str	r2, [r0, #20]
 197              		.loc 1 72 15 view .LVU72
 198 0050 BC71C0E1 		strh	r7, [r0, #28]	@ movhi
 199              	.LVL8:
 200              		.loc 1 78 3 is_stmt 1 view .LVU73
 201              		.loc 1 79 3 view .LVU74
 202              		.loc 1 88 14 is_stmt 0 view .LVU75
 203 0054 1E60C0E5 		strb	r6, [r0, #30]
 204              		.loc 1 79 17 view .LVU76
 205 0058 3CE080E5 		str	lr, [r0, #60]
 206              		.loc 1 82 3 is_stmt 1 view .LVU77
 207              		.loc 1 92 3 is_stmt 0 view .LVU78
 208 005c 140084E5 		str	r0, [r4, #20]
 209              		.loc 1 82 18 view .LVU79
 210 0060 38E080E5 		str	lr, [r0, #56]
 211              		.loc 1 85 3 is_stmt 1 view .LVU80
 212              		.loc 1 85 14 is_stmt 0 view .LVU81
 213 0064 20E080E5 		str	lr, [r0, #32]
 214              		.loc 1 88 3 is_stmt 1 view .LVU82
 215              		.loc 1 91 3 view .LVU83
 216              		.loc 1 91 14 is_stmt 0 view .LVU84
 217 0068 18E080E5 		str	lr, [r0, #24]
 218              		.loc 1 92 3 is_stmt 1 view .LVU85
 219              		.loc 1 92 3 view .LVU86
 220              		.loc 1 92 3 view .LVU87
 221 006c 100082E5 		str	r0, [r2, #16]
 222              		.loc 1 92 17 view .LVU88
 223              		.loc 1 95 3 view .LVU89
 224 0070 281080E5 		str	r1, [r0, #40]
 225              		.loc 1 98 3 view .LVU90
 226 0074 303080E5 		str	r3, [r0, #48]
 227 0078 2C3080E5 		str	r3, [r0, #44]
 228              		.loc 1 98 30 view .LVU91
ARM GAS  /var/folders/l5/0x54b2c10074c8bt31ycjvl80000gp/T//ccuPlkW0.s 			page 5


 229              		.loc 1 104 3 view .LVU92
 230              		.loc 1 104 27 view .LVU93
 231              		.loc 1 106 3 view .LVU94
 232              	.LVL9:
 233              		.loc 1 106 3 is_stmt 0 view .LVU95
 234              	.LBE16:
 235              	.LBE19:
 236              		.loc 1 162 1 view .LVU96
 237 007c F080BDE8 		pop	{r4, r5, r6, r7, pc}
 238              	.L9:
 239              		.align	2
 240              	.L8:
 241 0080 00000000 		.word	rlist
 242 0084 00000000 		.word	_port_thread_start
 243              		.cfi_endproc
 244              	.LFE8:
 245              		.size	chThdCreateI, .-chThdCreateI
 246              		.section	.text.chThdCreateStatic,"ax",%progbits
 247              		.align	2
 248              		.global	chThdCreateStatic
 249              		.syntax unified
 250              		.arm
 251              		.fpu softvfp
 252              		.type	chThdCreateStatic, %function
 253              	chThdCreateStatic:
 254              	.LVL10:
 255              	.LFB9:
 256              		.loc 1 181 64 is_stmt 1 view -0
 257              		.cfi_startproc
 258              		@ args = 4, pretend = 0, frame = 0
 259              		@ frame_needed = 0, uses_anonymous_args = 0
 260              		.loc 1 182 3 view .LVU98
 261              		.loc 1 192 3 view .LVU99
 262              		.loc 1 181 64 is_stmt 0 view .LVU100
 263 0000 F0412DE9 		push	{r4, r5, r6, r7, r8, lr}
 264              		.cfi_def_cfa_offset 24
 265              		.cfi_offset 4, -24
 266              		.cfi_offset 5, -20
 267              		.cfi_offset 6, -16
 268              		.cfi_offset 7, -12
 269              		.cfi_offset 8, -8
 270              		.cfi_offset 14, -4
 271              		.loc 1 181 64 view .LVU101
 272 0004 18809DE5 		ldr	r8, [sp, #24]
 273 0008 0040A0E1 		mov	r4, r0
 274              		.loc 1 192 3 view .LVU102
 275              		.syntax divided
 276              	@ 192 "../../os/kernel/src/chthreads.c" 1
 277 000c 9FF021E3 		msr     CPSR_c, #0x9F
 278              	@ 0 "" 2
 279              		.loc 1 192 3 is_stmt 1 view .LVU103
 280              		.loc 1 192 14 view .LVU104
 281              		.loc 1 193 3 view .LVU105
 282              	.LVL11:
 283              		.arm
 284              		.syntax unified
 285              	.LBB20:
ARM GAS  /var/folders/l5/0x54b2c10074c8bt31ycjvl80000gp/T//ccuPlkW0.s 			page 6


 286              	.LBI20:
 287              		.loc 1 150 9 view .LVU106
 288              	.LBB21:
 289              		.loc 1 153 3 view .LVU107
 290              		.loc 1 155 3 view .LVU108
 291              		.loc 1 155 21 view .LVU109
 292              		.loc 1 157 3 view .LVU110
 293              		.loc 1 159 29 view .LVU111
 294              		.loc 1 160 3 view .LVU112
 295              	.LBB22:
 296              	.LBB23:
 297              		.loc 1 79 17 is_stmt 0 view .LVU113
 298 0010 00C0A0E3 		mov	ip, #0
 299              		.loc 1 72 15 view .LVU114
 300 0014 0270A0E3 		mov	r7, #2
 301              		.loc 1 88 14 view .LVU115
 302 0018 0160A0E3 		mov	r6, #1
 303              	.LBE23:
 304              	.LBE22:
 305              		.loc 1 160 3 view .LVU116
 306 001c 241041E2 		sub	r1, r1, #36
 307              	.LVL12:
 308              		.loc 1 160 3 view .LVU117
 309 0020 015080E0 		add	r5, r0, r1
 310 0024 0C5080E5 		str	r5, [r0, #12]
 311              		.loc 1 160 3 is_stmt 1 view .LVU118
 312              	.LBB27:
 313              	.LBB24:
 314              		.loc 1 92 3 is_stmt 0 view .LVU119
 315 0028 68E09FE5 		ldr	lr, .L12
 316              	.LBE24:
 317              	.LBE27:
 318              		.loc 1 160 3 view .LVU120
 319 002c 013080E7 		str	r3, [r0, r1]
 320              		.loc 1 160 3 is_stmt 1 view .LVU121
 321 0030 64309FE5 		ldr	r3, .L12+4
 322              	.LVL13:
 323              		.loc 1 160 3 is_stmt 0 view .LVU122
 324 0034 048085E5 		str	r8, [r5, #4]
 325              		.loc 1 160 3 is_stmt 1 view .LVU123
 326 0038 203085E5 		str	r3, [r5, #32]
 327              		.loc 1 160 36 view .LVU124
 328              		.loc 1 161 3 view .LVU125
 329              	.LVL14:
 330              	.LBB28:
 331              	.LBI22:
 332              		.loc 1 69 9 view .LVU126
 333              	.LBB25:
 334              		.loc 1 71 3 view .LVU127
 335              		.loc 1 92 3 is_stmt 0 view .LVU128
 336 003c 14509EE5 		ldr	r5, [lr, #20]
 337              	.LVL15:
 338              		.loc 1 78 18 view .LVU129
 339 0040 402080E5 		str	r2, [r0, #64]
 340              		.loc 1 71 14 view .LVU130
 341 0044 082080E5 		str	r2, [r0, #8]
 342              		.loc 1 72 3 is_stmt 1 view .LVU131
ARM GAS  /var/folders/l5/0x54b2c10074c8bt31ycjvl80000gp/T//ccuPlkW0.s 			page 7


 343              		.loc 1 73 3 view .LVU132
 344              		.loc 1 98 3 is_stmt 0 view .LVU133
 345 0048 2C3080E2 		add	r3, r0, #44
 346              		.loc 1 95 3 view .LVU134
 347 004c 282080E2 		add	r2, r0, #40
 348              	.LVL16:
 349              		.loc 1 92 3 view .LVU135
 350 0050 10E080E5 		str	lr, [r0, #16]
 351 0054 145080E5 		str	r5, [r0, #20]
 352              		.loc 1 72 15 view .LVU136
 353 0058 BC71C0E1 		strh	r7, [r0, #28]	@ movhi
 354              	.LVL17:
 355              		.loc 1 78 3 is_stmt 1 view .LVU137
 356              		.loc 1 79 3 view .LVU138
 357              		.loc 1 88 14 is_stmt 0 view .LVU139
 358 005c 1E60C0E5 		strb	r6, [r0, #30]
 359              		.loc 1 79 17 view .LVU140
 360 0060 3CC080E5 		str	ip, [r0, #60]
 361              		.loc 1 82 3 is_stmt 1 view .LVU141
 362              		.loc 1 92 3 is_stmt 0 view .LVU142
 363 0064 14008EE5 		str	r0, [lr, #20]
 364              		.loc 1 82 18 view .LVU143
 365 0068 38C080E5 		str	ip, [r0, #56]
 366              		.loc 1 85 3 is_stmt 1 view .LVU144
 367              		.loc 1 85 14 is_stmt 0 view .LVU145
 368 006c 20C080E5 		str	ip, [r0, #32]
 369              		.loc 1 88 3 is_stmt 1 view .LVU146
 370              		.loc 1 91 3 view .LVU147
 371              		.loc 1 91 14 is_stmt 0 view .LVU148
 372 0070 18C080E5 		str	ip, [r0, #24]
 373              		.loc 1 92 3 is_stmt 1 view .LVU149
 374              		.loc 1 92 3 view .LVU150
 375              		.loc 1 92 3 view .LVU151
 376              	.LBE25:
 377              	.LBE28:
 378              	.LBE21:
 379              	.LBE20:
 380              		.loc 1 193 3 is_stmt 0 view .LVU152
 381 0074 0C10A0E1 		mov	r1, ip
 382              	.LVL18:
 383              	.LBB31:
 384              	.LBB30:
 385              	.LBB29:
 386              	.LBB26:
 387              		.loc 1 92 3 view .LVU153
 388 0078 100085E5 		str	r0, [r5, #16]
 389              		.loc 1 92 17 is_stmt 1 view .LVU154
 390              		.loc 1 95 3 view .LVU155
 391 007c 282080E5 		str	r2, [r0, #40]
 392              		.loc 1 98 3 view .LVU156
 393 0080 303080E5 		str	r3, [r0, #48]
 394 0084 2C3080E5 		str	r3, [r0, #44]
 395              		.loc 1 98 30 view .LVU157
 396              		.loc 1 104 3 view .LVU158
 397              		.loc 1 104 27 view .LVU159
 398              		.loc 1 106 3 view .LVU160
 399              	.LVL19:
ARM GAS  /var/folders/l5/0x54b2c10074c8bt31ycjvl80000gp/T//ccuPlkW0.s 			page 8


 400              		.loc 1 106 3 is_stmt 0 view .LVU161
 401              	.LBE26:
 402              	.LBE29:
 403              	.LBE30:
 404              	.LBE31:
 405              		.loc 1 193 3 view .LVU162
 406 0088 FEFFFFEB 		bl	chSchWakeupS
 407              	.LVL20:
 408              		.loc 1 194 3 is_stmt 1 view .LVU163
 409              		.loc 1 194 3 view .LVU164
 410              		.syntax divided
 411              	@ 194 "../../os/kernel/src/chthreads.c" 1
 412 008c 1FF021E3 		msr     CPSR_c, #0x1F
 413              	@ 0 "" 2
 414              		.loc 1 194 16 view .LVU165
 415              		.loc 1 195 3 view .LVU166
 416              		.loc 1 196 1 is_stmt 0 view .LVU167
 417              		.arm
 418              		.syntax unified
 419 0090 0400A0E1 		mov	r0, r4
 420 0094 F081BDE8 		pop	{r4, r5, r6, r7, r8, pc}
 421              	.L13:
 422              		.align	2
 423              	.L12:
 424 0098 00000000 		.word	rlist
 425 009c 00000000 		.word	_port_thread_start
 426              		.cfi_endproc
 427              	.LFE9:
 428              		.size	chThdCreateStatic, .-chThdCreateStatic
 429              		.section	.text.chThdSetPriority,"ax",%progbits
 430              		.align	2
 431              		.global	chThdSetPriority
 432              		.syntax unified
 433              		.arm
 434              		.fpu softvfp
 435              		.type	chThdSetPriority, %function
 436              	chThdSetPriority:
 437              	.LVL21:
 438              	.LFB10:
 439              		.loc 1 210 43 is_stmt 1 view -0
 440              		.cfi_startproc
 441              		@ args = 0, pretend = 0, frame = 0
 442              		@ frame_needed = 0, uses_anonymous_args = 0
 443              		.loc 1 211 3 view .LVU169
 444              		.loc 1 213 3 view .LVU170
 445              		.loc 1 213 54 view .LVU171
 446              		.loc 1 215 3 view .LVU172
 447              		.loc 1 210 43 is_stmt 0 view .LVU173
 448 0000 10402DE9 		push	{r4, lr}
 449              		.cfi_def_cfa_offset 8
 450              		.cfi_offset 4, -8
 451              		.cfi_offset 14, -4
 452              		.loc 1 210 43 view .LVU174
 453 0004 0010A0E1 		mov	r1, r0
 454              		.loc 1 215 3 view .LVU175
 455              		.syntax divided
 456              	@ 215 "../../os/kernel/src/chthreads.c" 1
ARM GAS  /var/folders/l5/0x54b2c10074c8bt31ycjvl80000gp/T//ccuPlkW0.s 			page 9


 457 0008 9FF021E3 		msr     CPSR_c, #0x9F
 458              	@ 0 "" 2
 459              		.loc 1 215 3 is_stmt 1 view .LVU176
 460              		.loc 1 215 14 view .LVU177
 461              		.loc 1 217 3 view .LVU178
 462              		.loc 1 217 13 is_stmt 0 view .LVU179
 463              		.arm
 464              		.syntax unified
 465 000c 38309FE5 		ldr	r3, .L20
 466 0010 183093E5 		ldr	r3, [r3, #24]
 467              		.loc 1 218 13 view .LVU180
 468 0014 080093E5 		ldr	r0, [r3, #8]
 469              	.LVL22:
 470              		.loc 1 217 11 view .LVU181
 471 0018 404093E5 		ldr	r4, [r3, #64]
 472              	.LVL23:
 473              		.loc 1 218 3 is_stmt 1 view .LVU182
 474              		.loc 1 220 21 is_stmt 0 view .LVU183
 475 001c 401083E5 		str	r1, [r3, #64]
 476              		.loc 1 218 6 view .LVU184
 477 0020 042040E0 		sub	r2, r0, r4
 478 0024 122F6FE1 		clz	r2, r2
 479 0028 A222A0E1 		lsr	r2, r2, #5
 480              		.loc 1 218 44 view .LVU185
 481 002c 010050E1 		cmp	r0, r1
 482 0030 01208233 		orrcc	r2, r2, #1
 483 0034 000052E3 		cmp	r2, #0
 484              		.loc 1 219 5 is_stmt 1 view .LVU186
 485              		.loc 1 219 19 is_stmt 0 view .LVU187
 486 0038 08108315 		strne	r1, [r3, #8]
 487              		.loc 1 220 3 is_stmt 1 view .LVU188
 488              		.loc 1 225 3 view .LVU189
 489 003c FEFFFFEB 		bl	chSchRescheduleS
 490              	.LVL24:
 491              		.loc 1 226 3 view .LVU190
 492              		.loc 1 226 3 view .LVU191
 493              		.syntax divided
 494              	@ 226 "../../os/kernel/src/chthreads.c" 1
 495 0040 1FF021E3 		msr     CPSR_c, #0x1F
 496              	@ 0 "" 2
 497              		.loc 1 226 16 view .LVU192
 498              		.loc 1 227 3 view .LVU193
 499              		.loc 1 228 1 is_stmt 0 view .LVU194
 500              		.arm
 501              		.syntax unified
 502 0044 0400A0E1 		mov	r0, r4
 503 0048 1080BDE8 		pop	{r4, pc}
 504              	.L21:
 505              		.align	2
 506              	.L20:
 507 004c 00000000 		.word	rlist
 508              		.cfi_endproc
 509              	.LFE10:
 510              		.size	chThdSetPriority, .-chThdSetPriority
 511              		.section	.text.chThdResume,"ax",%progbits
 512              		.align	2
 513              		.global	chThdResume
ARM GAS  /var/folders/l5/0x54b2c10074c8bt31ycjvl80000gp/T//ccuPlkW0.s 			page 10


 514              		.syntax unified
 515              		.arm
 516              		.fpu softvfp
 517              		.type	chThdResume, %function
 518              	chThdResume:
 519              	.LVL25:
 520              	.LFB11:
 521              		.loc 1 243 33 is_stmt 1 view -0
 522              		.cfi_startproc
 523              		@ args = 0, pretend = 0, frame = 0
 524              		@ frame_needed = 0, uses_anonymous_args = 0
 525              		.loc 1 245 3 view .LVU196
 526              		.loc 1 243 33 is_stmt 0 view .LVU197
 527 0000 10402DE9 		push	{r4, lr}
 528              		.cfi_def_cfa_offset 8
 529              		.cfi_offset 4, -8
 530              		.cfi_offset 14, -4
 531              		.loc 1 243 33 view .LVU198
 532 0004 0040A0E1 		mov	r4, r0
 533              		.loc 1 245 3 view .LVU199
 534              		.syntax divided
 535              	@ 245 "../../os/kernel/src/chthreads.c" 1
 536 0008 9FF021E3 		msr     CPSR_c, #0x9F
 537              	@ 0 "" 2
 538              		.loc 1 245 3 is_stmt 1 view .LVU200
 539              		.loc 1 245 14 view .LVU201
 540              		.loc 1 246 3 view .LVU202
 541              		.loc 1 248 57 view .LVU203
 542              		.loc 1 249 3 view .LVU204
 543              		.arm
 544              		.syntax unified
 545 000c 0010A0E3 		mov	r1, #0
 546 0010 FEFFFFEB 		bl	chSchWakeupS
 547              	.LVL26:
 548              		.loc 1 250 3 view .LVU205
 549              		.loc 1 250 3 view .LVU206
 550              		.syntax divided
 551              	@ 250 "../../os/kernel/src/chthreads.c" 1
 552 0014 1FF021E3 		msr     CPSR_c, #0x1F
 553              	@ 0 "" 2
 554              		.loc 1 250 16 view .LVU207
 555              		.loc 1 251 3 view .LVU208
 556              		.loc 1 252 1 is_stmt 0 view .LVU209
 557              		.arm
 558              		.syntax unified
 559 0018 0400A0E1 		mov	r0, r4
 560 001c 1080BDE8 		pop	{r4, pc}
 561              		.cfi_endproc
 562              	.LFE11:
 563              		.size	chThdResume, .-chThdResume
 564              		.section	.text.chThdTerminate,"ax",%progbits
 565              		.align	2
 566              		.global	chThdTerminate
 567              		.syntax unified
 568              		.arm
 569              		.fpu softvfp
 570              		.type	chThdTerminate, %function
ARM GAS  /var/folders/l5/0x54b2c10074c8bt31ycjvl80000gp/T//ccuPlkW0.s 			page 11


 571              	chThdTerminate:
 572              	.LVL27:
 573              	.LFB12:
 574              		.loc 1 266 33 is_stmt 1 view -0
 575              		.cfi_startproc
 576              		@ args = 0, pretend = 0, frame = 0
 577              		@ frame_needed = 0, uses_anonymous_args = 0
 578              		@ link register save eliminated.
 579              		.loc 1 268 3 view .LVU211
 580              		.syntax divided
 581              	@ 268 "../../os/kernel/src/chthreads.c" 1
 582 0000 9FF021E3 		msr     CPSR_c, #0x9F
 583              	@ 0 "" 2
 584              		.loc 1 268 3 view .LVU212
 585              		.loc 1 268 14 view .LVU213
 586              		.loc 1 269 3 view .LVU214
 587              		.loc 1 269 15 is_stmt 0 view .LVU215
 588              		.arm
 589              		.syntax unified
 590 0004 1D30D0E5 		ldrb	r3, [r0, #29]	@ zero_extendqisi2
 591 0008 043083E3 		orr	r3, r3, #4
 592 000c 1D30C0E5 		strb	r3, [r0, #29]
 593              		.loc 1 270 3 is_stmt 1 view .LVU216
 594              		.loc 1 270 3 view .LVU217
 595              		.syntax divided
 596              	@ 270 "../../os/kernel/src/chthreads.c" 1
 597 0010 1FF021E3 		msr     CPSR_c, #0x1F
 598              	@ 0 "" 2
 599              		.loc 1 270 16 view .LVU218
 600              		.loc 1 271 1 is_stmt 0 view .LVU219
 601              		.arm
 602              		.syntax unified
 603 0014 1EFF2FE1 		bx	lr
 604              		.cfi_endproc
 605              	.LFE12:
 606              		.size	chThdTerminate, .-chThdTerminate
 607              		.section	.text.chThdSleep,"ax",%progbits
 608              		.align	2
 609              		.global	chThdSleep
 610              		.syntax unified
 611              		.arm
 612              		.fpu softvfp
 613              		.type	chThdSleep, %function
 614              	chThdSleep:
 615              	.LVL28:
 616              	.LFB13:
 617              		.loc 1 285 33 is_stmt 1 view -0
 618              		.cfi_startproc
 619              		@ args = 0, pretend = 0, frame = 0
 620              		@ frame_needed = 0, uses_anonymous_args = 0
 621              		.loc 1 287 3 view .LVU221
 622              		.loc 1 287 51 view .LVU222
 623              		.loc 1 289 3 view .LVU223
 624              		.loc 1 285 33 is_stmt 0 view .LVU224
 625 0000 10402DE9 		push	{r4, lr}
 626              		.cfi_def_cfa_offset 8
 627              		.cfi_offset 4, -8
ARM GAS  /var/folders/l5/0x54b2c10074c8bt31ycjvl80000gp/T//ccuPlkW0.s 			page 12


 628              		.cfi_offset 14, -4
 629              		.loc 1 285 33 view .LVU225
 630 0004 0010A0E1 		mov	r1, r0
 631              		.loc 1 289 3 view .LVU226
 632              		.syntax divided
 633              	@ 289 "../../os/kernel/src/chthreads.c" 1
 634 0008 9FF021E3 		msr     CPSR_c, #0x9F
 635              	@ 0 "" 2
 636              		.loc 1 289 3 is_stmt 1 view .LVU227
 637              		.loc 1 289 14 view .LVU228
 638              		.loc 1 290 3 view .LVU229
 639              		.arm
 640              		.syntax unified
 641 000c 0600A0E3 		mov	r0, #6
 642              	.LVL29:
 643              		.loc 1 290 3 is_stmt 0 view .LVU230
 644 0010 FEFFFFEB 		bl	chSchGoSleepTimeoutS
 645              	.LVL30:
 646              		.loc 1 291 3 is_stmt 1 view .LVU231
 647              		.loc 1 291 3 view .LVU232
 648              		.syntax divided
 649              	@ 291 "../../os/kernel/src/chthreads.c" 1
 650 0014 1FF021E3 		msr     CPSR_c, #0x1F
 651              	@ 0 "" 2
 652              		.loc 1 291 16 view .LVU233
 653              		.loc 1 292 1 is_stmt 0 view .LVU234
 654              		.arm
 655              		.syntax unified
 656 0018 1080BDE8 		pop	{r4, pc}
 657              		.cfi_endproc
 658              	.LFE13:
 659              		.size	chThdSleep, .-chThdSleep
 660              		.section	.text.chThdSleepUntil,"ax",%progbits
 661              		.align	2
 662              		.global	chThdSleepUntil
 663              		.syntax unified
 664              		.arm
 665              		.fpu softvfp
 666              		.type	chThdSleepUntil, %function
 667              	chThdSleepUntil:
 668              	.LVL31:
 669              	.LFB14:
 670              		.loc 1 302 38 is_stmt 1 view -0
 671              		.cfi_startproc
 672              		@ args = 0, pretend = 0, frame = 0
 673              		@ frame_needed = 0, uses_anonymous_args = 0
 674              		.loc 1 304 3 view .LVU236
 675              		.syntax divided
 676              	@ 304 "../../os/kernel/src/chthreads.c" 1
 677 0000 9FF021E3 		msr     CPSR_c, #0x9F
 678              	@ 0 "" 2
 679              		.loc 1 304 3 view .LVU237
 680              		.loc 1 304 14 view .LVU238
 681              		.loc 1 305 3 view .LVU239
 682              		.loc 1 305 16 is_stmt 0 view .LVU240
 683              		.arm
 684              		.syntax unified
ARM GAS  /var/folders/l5/0x54b2c10074c8bt31ycjvl80000gp/T//ccuPlkW0.s 			page 13


 685 0004 24309FE5 		ldr	r3, .L37
 686 0008 0C1093E5 		ldr	r1, [r3, #12]
 687              	.LVL32:
 688              		.loc 1 305 6 view .LVU241
 689 000c 011050E0 		subs	r1, r0, r1
 690              	.LVL33:
 691              		.loc 1 305 6 view .LVU242
 692 0010 0100001A 		bne	.L36
 693              		.loc 1 307 3 is_stmt 1 view .LVU243
 694              		.loc 1 307 3 view .LVU244
 695              		.syntax divided
 696              	@ 307 "../../os/kernel/src/chthreads.c" 1
 697 0014 1FF021E3 		msr     CPSR_c, #0x1F
 698              	@ 0 "" 2
 699              		.loc 1 307 16 view .LVU245
 700              		.loc 1 307 3 is_stmt 0 view .LVU246
 701              		.arm
 702              		.syntax unified
 703 0018 1EFF2FE1 		bx	lr
 704              	.L36:
 705              		.loc 1 306 5 is_stmt 1 view .LVU247
 706              		.loc 1 302 38 is_stmt 0 view .LVU248
 707 001c 10402DE9 		push	{r4, lr}
 708              		.cfi_def_cfa_offset 8
 709              		.cfi_offset 4, -8
 710              		.cfi_offset 14, -4
 711              		.loc 1 306 5 view .LVU249
 712 0020 0600A0E3 		mov	r0, #6
 713 0024 FEFFFFEB 		bl	chSchGoSleepTimeoutS
 714              	.LVL34:
 715              		.loc 1 307 3 is_stmt 1 view .LVU250
 716              		.loc 1 307 3 view .LVU251
 717              		.syntax divided
 718              	@ 307 "../../os/kernel/src/chthreads.c" 1
 719 0028 1FF021E3 		msr     CPSR_c, #0x1F
 720              	@ 0 "" 2
 721              		.loc 1 307 16 view .LVU252
 722              		.loc 1 308 1 is_stmt 0 view .LVU253
 723              		.arm
 724              		.syntax unified
 725 002c 1080BDE8 		pop	{r4, pc}
 726              	.L38:
 727              		.align	2
 728              	.L37:
 729 0030 00000000 		.word	vtlist
 730              		.cfi_endproc
 731              	.LFE14:
 732              		.size	chThdSleepUntil, .-chThdSleepUntil
 733              		.section	.text.chThdYield,"ax",%progbits
 734              		.align	2
 735              		.global	chThdYield
 736              		.syntax unified
 737              		.arm
 738              		.fpu softvfp
 739              		.type	chThdYield, %function
 740              	chThdYield:
 741              	.LFB15:
ARM GAS  /var/folders/l5/0x54b2c10074c8bt31ycjvl80000gp/T//ccuPlkW0.s 			page 14


 742              		.loc 1 317 23 is_stmt 1 view -0
 743              		.cfi_startproc
 744              		@ args = 0, pretend = 0, frame = 0
 745              		@ frame_needed = 0, uses_anonymous_args = 0
 746              		.loc 1 319 3 view .LVU255
 747              		.syntax divided
 748              	@ 319 "../../os/kernel/src/chthreads.c" 1
 749 0000 9FF021E3 		msr     CPSR_c, #0x9F
 750              	@ 0 "" 2
 751              		.loc 1 319 3 view .LVU256
 752              		.loc 1 319 14 view .LVU257
 753              		.loc 1 320 3 view .LVU258
 754              		.arm
 755              		.syntax unified
 756 0004 2C309FE5 		ldr	r3, .L46
 757 0008 002093E5 		ldr	r2, [r3]
 758 000c 183093E5 		ldr	r3, [r3, #24]
 759 0010 082092E5 		ldr	r2, [r2, #8]
 760 0014 083093E5 		ldr	r3, [r3, #8]
 761 0018 030052E1 		cmp	r2, r3
 762 001c 0100002A 		bcs	.L45
 763              		.loc 1 320 18 view .LVU259
 764              		.loc 1 321 3 view .LVU260
 765              		.loc 1 321 3 view .LVU261
 766              		.syntax divided
 767              	@ 321 "../../os/kernel/src/chthreads.c" 1
 768 0020 1FF021E3 		msr     CPSR_c, #0x1F
 769              	@ 0 "" 2
 770              		.loc 1 321 16 view .LVU262
 771              		.loc 1 321 3 is_stmt 0 view .LVU263
 772              		.arm
 773              		.syntax unified
 774 0024 1EFF2FE1 		bx	lr
 775              	.L45:
 776              		.loc 1 320 3 is_stmt 1 discriminator 1 view .LVU264
 777              		.loc 1 317 23 is_stmt 0 discriminator 1 view .LVU265
 778 0028 10402DE9 		push	{r4, lr}
 779              		.cfi_def_cfa_offset 8
 780              		.cfi_offset 4, -8
 781              		.cfi_offset 14, -4
 782              		.loc 1 320 3 discriminator 1 view .LVU266
 783 002c FEFFFFEB 		bl	chSchDoRescheduleBehind
 784              	.LVL35:
 785              		.loc 1 320 18 is_stmt 1 discriminator 1 view .LVU267
 786              		.loc 1 321 3 discriminator 1 view .LVU268
 787              		.loc 1 321 3 discriminator 1 view .LVU269
 788              		.syntax divided
 789              	@ 321 "../../os/kernel/src/chthreads.c" 1
 790 0030 1FF021E3 		msr     CPSR_c, #0x1F
 791              	@ 0 "" 2
 792              		.loc 1 321 16 discriminator 1 view .LVU270
 793              		.loc 1 322 1 is_stmt 0 discriminator 1 view .LVU271
 794              		.arm
 795              		.syntax unified
 796 0034 1080BDE8 		pop	{r4, pc}
 797              	.L47:
 798              		.align	2
ARM GAS  /var/folders/l5/0x54b2c10074c8bt31ycjvl80000gp/T//ccuPlkW0.s 			page 15


 799              	.L46:
 800 0038 00000000 		.word	rlist
 801              		.cfi_endproc
 802              	.LFE15:
 803              		.size	chThdYield, .-chThdYield
 804              		.section	.text.chThdExitS,"ax",%progbits
 805              		.align	2
 806              		.global	chThdExitS
 807              		.syntax unified
 808              		.arm
 809              		.fpu softvfp
 810              		.type	chThdExitS, %function
 811              	chThdExitS:
 812              	.LVL36:
 813              	.LFB17:
 814              		.loc 1 359 28 is_stmt 1 view -0
 815              		.cfi_startproc
 816              		@ args = 0, pretend = 0, frame = 0
 817              		@ frame_needed = 0, uses_anonymous_args = 0
 818              		.loc 1 360 3 view .LVU273
 819              		.loc 1 360 11 is_stmt 0 view .LVU274
 820 0000 58309FE5 		ldr	r3, .L54
 821              		.loc 1 359 28 view .LVU275
 822 0004 70402DE9 		push	{r4, r5, r6, lr}
 823              		.cfi_def_cfa_offset 16
 824              		.cfi_offset 4, -16
 825              		.cfi_offset 5, -12
 826              		.cfi_offset 6, -8
 827              		.cfi_offset 14, -4
 828              		.loc 1 360 11 view .LVU276
 829 0008 184093E5 		ldr	r4, [r3, #24]
 830              	.LVL37:
 831              		.loc 1 362 3 is_stmt 1 view .LVU277
 832              		.loc 1 367 10 is_stmt 0 view .LVU278
 833 000c 0450A0E1 		mov	r5, r4
 834 0010 2830B5E5 		ldr	r3, [r5, #40]!
 835              		.loc 1 362 20 view .LVU279
 836 0014 240084E5 		str	r0, [r4, #36]
 837              		.loc 1 364 3 is_stmt 1 view .LVU280
 838              		.loc 1 364 27 view .LVU281
 839              		.loc 1 367 3 view .LVU282
 840              		.loc 1 367 9 is_stmt 0 view .LVU283
 841 0018 030055E1 		cmp	r5, r3
 842 001c 0600000A 		beq	.L49
 843              	.LVL38:
 844              	.L50:
 845              		.loc 1 368 5 is_stmt 1 view .LVU284
 846              	.LBB32:
 847              	.LBI32:
 848              		.file 2 "../../os/kernel/include/chinline.h"
 849              		.loc 2 79 23 view .LVU285
 850              	.LBB33:
 851              		.loc 2 81 3 view .LVU286
 852              		.loc 2 82 3 view .LVU287
 853              		.loc 2 82 19 is_stmt 0 view .LVU288
 854 0020 002093E5 		ldr	r2, [r3]
 855              	.LBE33:
ARM GAS  /var/folders/l5/0x54b2c10074c8bt31ycjvl80000gp/T//ccuPlkW0.s 			page 16


 856              	.LBE32:
 857              		.loc 1 368 5 view .LVU289
 858 0024 0300A0E1 		mov	r0, r3
 859              	.LBB35:
 860              	.LBB34:
 861              		.loc 2 82 15 view .LVU290
 862 0028 282084E5 		str	r2, [r4, #40]
 863              		.loc 2 83 3 is_stmt 1 view .LVU291
 864              	.LVL39:
 865              		.loc 2 83 3 is_stmt 0 view .LVU292
 866              	.LBE34:
 867              	.LBE35:
 868              		.loc 1 368 5 view .LVU293
 869 002c FEFFFFEB 		bl	chSchReadyI
 870              	.LVL40:
 871              		.loc 1 367 10 view .LVU294
 872 0030 283094E5 		ldr	r3, [r4, #40]
 873              		.loc 1 367 9 view .LVU295
 874 0034 050053E1 		cmp	r3, r5
 875 0038 F8FFFF1A 		bne	.L50
 876              	.LVL41:
 877              	.L49:
 878              		.loc 1 373 3 is_stmt 1 view .LVU296
 879              		.loc 1 373 6 is_stmt 0 view .LVU297
 880 003c 1D30D4E5 		ldrb	r3, [r4, #29]	@ zero_extendqisi2
 881              		.loc 1 376 3 view .LVU298
 882 0040 0E00A0E3 		mov	r0, #14
 883              		.loc 1 373 6 view .LVU299
 884 0044 030013E3 		tst	r3, #3
 885              		.loc 1 374 5 is_stmt 1 view .LVU300
 886 0048 14209405 		ldreq	r2, [r4, #20]
 887 004c 10309405 		ldreq	r3, [r4, #16]
 888              		.loc 1 379 1 is_stmt 0 view .LVU301
 889 0050 7040BDE8 		pop	{r4, r5, r6, lr}
 890              		.cfi_restore 14
 891              		.cfi_restore 6
 892              		.cfi_restore 5
 893              		.cfi_restore 4
 894              		.cfi_def_cfa_offset 0
 895              	.LVL42:
 896              		.loc 1 374 5 view .LVU302
 897 0054 10308205 		streq	r3, [r2, #16]
 898              		.loc 1 374 5 is_stmt 1 view .LVU303
 899 0058 14208305 		streq	r2, [r3, #20]
 900              		.loc 1 374 19 view .LVU304
 901              		.loc 1 376 3 view .LVU305
 902 005c FEFFFFEA 		b	chSchGoSleepS
 903              	.LVL43:
 904              	.L55:
 905              		.align	2
 906              	.L54:
 907 0060 00000000 		.word	rlist
 908              		.cfi_endproc
 909              	.LFE17:
 910              		.size	chThdExitS, .-chThdExitS
 911              		.section	.text.chThdExit,"ax",%progbits
 912              		.align	2
ARM GAS  /var/folders/l5/0x54b2c10074c8bt31ycjvl80000gp/T//ccuPlkW0.s 			page 17


 913              		.global	chThdExit
 914              		.syntax unified
 915              		.arm
 916              		.fpu softvfp
 917              		.type	chThdExit, %function
 918              	chThdExit:
 919              	.LVL44:
 920              	.LFB16:
 921              		.loc 1 338 27 view -0
 922              		.cfi_startproc
 923              		@ args = 0, pretend = 0, frame = 0
 924              		@ frame_needed = 0, uses_anonymous_args = 0
 925              		@ link register save eliminated.
 926              		.loc 1 340 3 view .LVU307
 927              		.syntax divided
 928              	@ 340 "../../os/kernel/src/chthreads.c" 1
 929 0000 9FF021E3 		msr     CPSR_c, #0x9F
 930              	@ 0 "" 2
 931              		.loc 1 340 3 view .LVU308
 932              		.loc 1 340 14 view .LVU309
 933              		.loc 1 341 3 view .LVU310
 934              		.arm
 935              		.syntax unified
 936 0004 FEFFFFEA 		b	chThdExitS
 937              	.LVL45:
 938              		.loc 1 341 3 is_stmt 0 view .LVU311
 939              		.cfi_endproc
 940              	.LFE16:
 941              		.size	chThdExit, .-chThdExit
 942              		.section	.text.chThdWait,"ax",%progbits
 943              		.align	2
 944              		.global	chThdWait
 945              		.syntax unified
 946              		.arm
 947              		.fpu softvfp
 948              		.type	chThdWait, %function
 949              	chThdWait:
 950              	.LVL46:
 951              	.LFB18:
 952              		.loc 1 413 29 is_stmt 1 view -0
 953              		.cfi_startproc
 954              		@ args = 0, pretend = 0, frame = 0
 955              		@ frame_needed = 0, uses_anonymous_args = 0
 956              		.loc 1 414 3 view .LVU313
 957              		.loc 1 416 3 view .LVU314
 958              		.loc 1 416 38 view .LVU315
 959              		.loc 1 418 3 view .LVU316
 960              		.loc 1 413 29 is_stmt 0 view .LVU317
 961 0000 70402DE9 		push	{r4, r5, r6, lr}
 962              		.cfi_def_cfa_offset 16
 963              		.cfi_offset 4, -16
 964              		.cfi_offset 5, -12
 965              		.cfi_offset 6, -8
 966              		.cfi_offset 14, -4
 967              		.loc 1 413 29 view .LVU318
 968 0004 0040A0E1 		mov	r4, r0
 969              		.loc 1 418 3 view .LVU319
ARM GAS  /var/folders/l5/0x54b2c10074c8bt31ycjvl80000gp/T//ccuPlkW0.s 			page 18


 970              		.syntax divided
 971              	@ 418 "../../os/kernel/src/chthreads.c" 1
 972 0008 9FF021E3 		msr     CPSR_c, #0x9F
 973              	@ 0 "" 2
 974              		.loc 1 418 3 is_stmt 1 view .LVU320
 975              		.loc 1 418 14 view .LVU321
 976              		.loc 1 419 3 view .LVU322
 977              		.loc 1 419 62 view .LVU323
 978              		.loc 1 421 3 view .LVU324
 979              		.loc 1 421 67 view .LVU325
 980              		.loc 1 423 3 view .LVU326
 981              		.loc 1 423 6 is_stmt 0 view .LVU327
 982              		.arm
 983              		.syntax unified
 984 000c 1C30D0E5 		ldrb	r3, [r0, #28]	@ zero_extendqisi2
 985 0010 0E0053E3 		cmp	r3, #14
 986 0014 0600000A 		beq	.L58
 987              		.loc 1 419 3 view .LVU328
 988 0018 2C309FE5 		ldr	r3, .L63
 989              	.LBB36:
 990              	.LBB37:
 991              		.loc 2 75 19 view .LVU329
 992 001c 282090E5 		ldr	r2, [r0, #40]
 993              	.LBE37:
 994              	.LBE36:
 995              		.loc 1 419 3 view .LVU330
 996 0020 183093E5 		ldr	r3, [r3, #24]
 997              		.loc 1 424 5 is_stmt 1 view .LVU331
 998              	.LVL47:
 999              	.LBB40:
 1000              	.LBI36:
 1001              		.loc 2 73 20 view .LVU332
 1002              	.LBB38:
 1003              		.loc 2 75 3 view .LVU333
 1004              	.LBE38:
 1005              	.LBE40:
 1006              		.loc 1 425 5 is_stmt 0 view .LVU334
 1007 0024 0700A0E3 		mov	r0, #7
 1008              	.LVL48:
 1009              	.LBB41:
 1010              	.LBB39:
 1011              		.loc 2 75 14 view .LVU335
 1012 0028 002083E5 		str	r2, [r3]
 1013              		.loc 2 76 3 is_stmt 1 view .LVU336
 1014              		.loc 2 76 15 is_stmt 0 view .LVU337
 1015 002c 283084E5 		str	r3, [r4, #40]
 1016              	.LVL49:
 1017              		.loc 2 76 15 view .LVU338
 1018              	.LBE39:
 1019              	.LBE41:
 1020              		.loc 1 425 5 is_stmt 1 view .LVU339
 1021 0030 FEFFFFEB 		bl	chSchGoSleepS
 1022              	.LVL50:
 1023              	.L58:
 1024              		.loc 1 427 3 view .LVU340
 1025              		.loc 1 427 7 is_stmt 0 view .LVU341
 1026 0034 245094E5 		ldr	r5, [r4, #36]
ARM GAS  /var/folders/l5/0x54b2c10074c8bt31ycjvl80000gp/T//ccuPlkW0.s 			page 19


 1027              	.LVL51:
 1028              		.loc 1 428 3 is_stmt 1 view .LVU342
 1029              		.loc 1 428 3 view .LVU343
 1030              		.syntax divided
 1031              	@ 428 "../../os/kernel/src/chthreads.c" 1
 1032 0038 1FF021E3 		msr     CPSR_c, #0x1F
 1033              	@ 0 "" 2
 1034              		.loc 1 428 16 view .LVU344
 1035              		.loc 1 430 3 view .LVU345
 1036              		.arm
 1037              		.syntax unified
 1038 003c 0400A0E1 		mov	r0, r4
 1039 0040 FEFFFFEB 		bl	chThdRelease
 1040              	.LVL52:
 1041              		.loc 1 432 3 view .LVU346
 1042              		.loc 1 433 1 is_stmt 0 view .LVU347
 1043 0044 0500A0E1 		mov	r0, r5
 1044 0048 7080BDE8 		pop	{r4, r5, r6, pc}
 1045              	.L64:
 1046              		.align	2
 1047              	.L63:
 1048 004c 00000000 		.word	rlist
 1049              		.cfi_endproc
 1050              	.LFE18:
 1051              		.size	chThdWait, .-chThdWait
 1052              		.text
 1053              	.Letext0:
 1054              		.file 3 "/usr/local/Cellar/arm-gcc-bin/8-2019-q3-update/lib/gcc/arm-none-eabi/8.3.1/include/stddef
 1055              		.file 4 "/usr/local/Cellar/arm-gcc-bin/8-2019-q3-update/arm-none-eabi/include/machine/_default_typ
 1056              		.file 5 "/usr/local/Cellar/arm-gcc-bin/8-2019-q3-update/arm-none-eabi/include/sys/_stdint.h"
 1057              		.file 6 "../../os/ports/GCC/ARM/chtypes.h"
 1058              		.file 7 "../../os/kernel/include/chlists.h"
 1059              		.file 8 "../../os/kernel/include/chthreads.h"
 1060              		.file 9 "../../os/ports/GCC/ARM/chcore.h"
 1061              		.file 10 "../../os/kernel/include/chvt.h"
 1062              		.file 11 "../../os/kernel/include/chschd.h"
 1063              		.file 12 "../../os/kernel/include/chmtx.h"
 1064              		.file 13 "../../os/kernel/include/chregistry.h"
 1065              		.file 14 "../../os/kernel/include/ch.h"
 1066              		.file 15 "../../os/kernel/include/chdynamic.h"
 1067              		.section	.debug_info,"",%progbits
 1068              	.Ldebug_info0:
 1069 0000 3B0C0000 		.4byte	0xc3b
 1070 0004 0400     		.2byte	0x4
 1071 0006 00000000 		.4byte	.Ldebug_abbrev0
 1072 000a 04       		.byte	0x4
 1073 000b 01       		.uleb128 0x1
 1074 000c F8010000 		.4byte	.LASF122
 1075 0010 0C       		.byte	0xc
 1076 0011 7C050000 		.4byte	.LASF123
 1077 0015 D5050000 		.4byte	.LASF124
 1078 0019 A0000000 		.4byte	.Ldebug_ranges0+0xa0
 1079 001d 00000000 		.4byte	0
 1080 0021 00000000 		.4byte	.Ldebug_line0
 1081 0025 02       		.uleb128 0x2
 1082 0026 04       		.byte	0x4
 1083 0027 05       		.byte	0x5
ARM GAS  /var/folders/l5/0x54b2c10074c8bt31ycjvl80000gp/T//ccuPlkW0.s 			page 20


 1084 0028 696E7400 		.ascii	"int\000"
 1085 002c 03       		.uleb128 0x3
 1086 002d 1B000000 		.4byte	.LASF2
 1087 0031 03       		.byte	0x3
 1088 0032 D8       		.byte	0xd8
 1089 0033 17       		.byte	0x17
 1090 0034 38000000 		.4byte	0x38
 1091 0038 04       		.uleb128 0x4
 1092 0039 04       		.byte	0x4
 1093 003a 07       		.byte	0x7
 1094 003b 77010000 		.4byte	.LASF0
 1095 003f 04       		.uleb128 0x4
 1096 0040 01       		.byte	0x1
 1097 0041 06       		.byte	0x6
 1098 0042 9A000000 		.4byte	.LASF1
 1099 0046 03       		.uleb128 0x3
 1100 0047 2E000000 		.4byte	.LASF3
 1101 004b 04       		.byte	0x4
 1102 004c 2B       		.byte	0x2b
 1103 004d 18       		.byte	0x18
 1104 004e 52000000 		.4byte	0x52
 1105 0052 04       		.uleb128 0x4
 1106 0053 01       		.byte	0x1
 1107 0054 08       		.byte	0x8
 1108 0055 0A040000 		.4byte	.LASF4
 1109 0059 04       		.uleb128 0x4
 1110 005a 02       		.byte	0x2
 1111 005b 05       		.byte	0x5
 1112 005c 22040000 		.4byte	.LASF5
 1113 0060 03       		.uleb128 0x3
 1114 0061 E0040000 		.4byte	.LASF6
 1115 0065 04       		.byte	0x4
 1116 0066 39       		.byte	0x39
 1117 0067 19       		.byte	0x19
 1118 0068 6C000000 		.4byte	0x6c
 1119 006c 04       		.uleb128 0x4
 1120 006d 02       		.byte	0x2
 1121 006e 07       		.byte	0x7
 1122 006f CA010000 		.4byte	.LASF7
 1123 0073 03       		.uleb128 0x3
 1124 0074 13050000 		.4byte	.LASF8
 1125 0078 04       		.byte	0x4
 1126 0079 4D       		.byte	0x4d
 1127 007a 18       		.byte	0x18
 1128 007b 7F000000 		.4byte	0x7f
 1129 007f 04       		.uleb128 0x4
 1130 0080 04       		.byte	0x4
 1131 0081 05       		.byte	0x5
 1132 0082 F0000000 		.4byte	.LASF9
 1133 0086 03       		.uleb128 0x3
 1134 0087 4A010000 		.4byte	.LASF10
 1135 008b 04       		.byte	0x4
 1136 008c 4F       		.byte	0x4f
 1137 008d 19       		.byte	0x19
 1138 008e 92000000 		.4byte	0x92
 1139 0092 04       		.uleb128 0x4
 1140 0093 04       		.byte	0x4
ARM GAS  /var/folders/l5/0x54b2c10074c8bt31ycjvl80000gp/T//ccuPlkW0.s 			page 21


 1141 0094 07       		.byte	0x7
 1142 0095 99010000 		.4byte	.LASF11
 1143 0099 04       		.uleb128 0x4
 1144 009a 08       		.byte	0x8
 1145 009b 05       		.byte	0x5
 1146 009c 8C000000 		.4byte	.LASF12
 1147 00a0 04       		.uleb128 0x4
 1148 00a1 08       		.byte	0x8
 1149 00a2 07       		.byte	0x7
 1150 00a3 4A000000 		.4byte	.LASF13
 1151 00a7 03       		.uleb128 0x3
 1152 00a8 74050000 		.4byte	.LASF14
 1153 00ac 05       		.byte	0x5
 1154 00ad 18       		.byte	0x18
 1155 00ae 13       		.byte	0x13
 1156 00af 46000000 		.4byte	0x46
 1157 00b3 03       		.uleb128 0x3
 1158 00b4 02010000 		.4byte	.LASF15
 1159 00b8 05       		.byte	0x5
 1160 00b9 24       		.byte	0x24
 1161 00ba 14       		.byte	0x14
 1162 00bb 60000000 		.4byte	0x60
 1163 00bf 03       		.uleb128 0x3
 1164 00c0 02040000 		.4byte	.LASF16
 1165 00c4 05       		.byte	0x5
 1166 00c5 2C       		.byte	0x2c
 1167 00c6 13       		.byte	0x13
 1168 00c7 73000000 		.4byte	0x73
 1169 00cb 03       		.uleb128 0x3
 1170 00cc B1040000 		.4byte	.LASF17
 1171 00d0 05       		.byte	0x5
 1172 00d1 30       		.byte	0x30
 1173 00d2 14       		.byte	0x14
 1174 00d3 86000000 		.4byte	0x86
 1175 00d7 03       		.uleb128 0x3
 1176 00d8 D0020000 		.4byte	.LASF18
 1177 00dc 06       		.byte	0x6
 1178 00dd 2A       		.byte	0x2a
 1179 00de 19       		.byte	0x19
 1180 00df A7000000 		.4byte	0xa7
 1181 00e3 03       		.uleb128 0x3
 1182 00e4 F9000000 		.4byte	.LASF19
 1183 00e8 06       		.byte	0x6
 1184 00e9 2B       		.byte	0x2b
 1185 00ea 19       		.byte	0x19
 1186 00eb A7000000 		.4byte	0xa7
 1187 00ef 03       		.uleb128 0x3
 1188 00f0 E0030000 		.4byte	.LASF20
 1189 00f4 06       		.byte	0x6
 1190 00f5 2C       		.byte	0x2c
 1191 00f6 19       		.byte	0x19
 1192 00f7 A7000000 		.4byte	0xa7
 1193 00fb 03       		.uleb128 0x3
 1194 00fc FA030000 		.4byte	.LASF21
 1195 0100 06       		.byte	0x6
 1196 0101 2E       		.byte	0x2e
 1197 0102 19       		.byte	0x19
ARM GAS  /var/folders/l5/0x54b2c10074c8bt31ycjvl80000gp/T//ccuPlkW0.s 			page 22


 1198 0103 CB000000 		.4byte	0xcb
 1199 0107 03       		.uleb128 0x3
 1200 0108 EA010000 		.4byte	.LASF22
 1201 010c 06       		.byte	0x6
 1202 010d 2F       		.byte	0x2f
 1203 010e 19       		.byte	0x19
 1204 010f BF000000 		.4byte	0xbf
 1205 0113 03       		.uleb128 0x3
 1206 0114 F3020000 		.4byte	.LASF23
 1207 0118 06       		.byte	0x6
 1208 0119 31       		.byte	0x31
 1209 011a 19       		.byte	0x19
 1210 011b CB000000 		.4byte	0xcb
 1211 011f 03       		.uleb128 0x3
 1212 0120 FE040000 		.4byte	.LASF24
 1213 0124 06       		.byte	0x6
 1214 0125 33       		.byte	0x33
 1215 0126 19       		.byte	0x19
 1216 0127 CB000000 		.4byte	0xcb
 1217 012b 05       		.uleb128 0x5
 1218 012c 1F010000 		.4byte	0x11f
 1219 0130 03       		.uleb128 0x3
 1220 0131 79040000 		.4byte	.LASF25
 1221 0135 07       		.byte	0x7
 1222 0136 23       		.byte	0x23
 1223 0137 17       		.byte	0x17
 1224 0138 3C010000 		.4byte	0x13c
 1225 013c 06       		.uleb128 0x6
 1226 013d 79040000 		.4byte	.LASF25
 1227 0141 44       		.byte	0x44
 1228 0142 08       		.byte	0x8
 1229 0143 57       		.byte	0x57
 1230 0144 08       		.byte	0x8
 1231 0145 34020000 		.4byte	0x234
 1232 0149 07       		.uleb128 0x7
 1233 014a 4E040000 		.4byte	.LASF26
 1234 014e 08       		.byte	0x8
 1235 014f 58       		.byte	0x58
 1236 0150 1A       		.byte	0x1a
 1237 0151 58020000 		.4byte	0x258
 1238 0155 00       		.byte	0
 1239 0156 07       		.uleb128 0x7
 1240 0157 F3030000 		.4byte	.LASF27
 1241 015b 08       		.byte	0x8
 1242 015c 5A       		.byte	0x5a
 1243 015d 1A       		.byte	0x1a
 1244 015e 58020000 		.4byte	0x258
 1245 0162 04       		.byte	0x4
 1246 0163 07       		.uleb128 0x7
 1247 0164 78000000 		.4byte	.LASF28
 1248 0168 08       		.byte	0x8
 1249 0169 5C       		.byte	0x5c
 1250 016a 19       		.byte	0x19
 1251 016b FB000000 		.4byte	0xfb
 1252 016f 08       		.byte	0x8
 1253 0170 07       		.uleb128 0x7
 1254 0171 2C060000 		.4byte	.LASF29
ARM GAS  /var/folders/l5/0x54b2c10074c8bt31ycjvl80000gp/T//ccuPlkW0.s 			page 23


 1255 0175 08       		.byte	0x8
 1256 0176 5D       		.byte	0x5d
 1257 0177 19       		.byte	0x19
 1258 0178 23030000 		.4byte	0x323
 1259 017c 0C       		.byte	0xc
 1260 017d 07       		.uleb128 0x7
 1261 017e 15010000 		.4byte	.LASF30
 1262 0182 08       		.byte	0x8
 1263 0183 5F       		.byte	0x5f
 1264 0184 1A       		.byte	0x1a
 1265 0185 58020000 		.4byte	0x258
 1266 0189 10       		.byte	0x10
 1267 018a 07       		.uleb128 0x7
 1268 018b 8A030000 		.4byte	.LASF31
 1269 018f 08       		.byte	0x8
 1270 0190 60       		.byte	0x60
 1271 0191 1A       		.byte	0x1a
 1272 0192 58020000 		.4byte	0x258
 1273 0196 14       		.byte	0x14
 1274 0197 07       		.uleb128 0x7
 1275 0198 A3050000 		.4byte	.LASF32
 1276 019c 08       		.byte	0x8
 1277 019d 67       		.byte	0x67
 1278 019e 1A       		.byte	0x1a
 1279 019f 09050000 		.4byte	0x509
 1280 01a3 18       		.byte	0x18
 1281 01a4 07       		.uleb128 0x7
 1282 01a5 2C040000 		.4byte	.LASF33
 1283 01a9 08       		.byte	0x8
 1284 01aa 72       		.byte	0x72
 1285 01ab 19       		.byte	0x19
 1286 01ac E3000000 		.4byte	0xe3
 1287 01b0 1C       		.byte	0x1c
 1288 01b1 07       		.uleb128 0x7
 1289 01b2 64040000 		.4byte	.LASF34
 1290 01b6 08       		.byte	0x8
 1291 01b7 76       		.byte	0x76
 1292 01b8 19       		.byte	0x19
 1293 01b9 D7000000 		.4byte	0xd7
 1294 01bd 1D       		.byte	0x1d
 1295 01be 07       		.uleb128 0x7
 1296 01bf 5D050000 		.4byte	.LASF35
 1297 01c3 08       		.byte	0x8
 1298 01c4 7B       		.byte	0x7b
 1299 01c5 19       		.byte	0x19
 1300 01c6 EF000000 		.4byte	0xef
 1301 01ca 1E       		.byte	0x1e
 1302 01cb 07       		.uleb128 0x7
 1303 01cc 28050000 		.4byte	.LASF36
 1304 01d0 08       		.byte	0x8
 1305 01d1 88       		.byte	0x88
 1306 01d2 19       		.byte	0x19
 1307 01d3 2B010000 		.4byte	0x12b
 1308 01d7 20       		.byte	0x20
 1309 01d8 08       		.uleb128 0x8
 1310 01d9 705F7500 		.ascii	"p_u\000"
 1311 01dd 08       		.byte	0x8
ARM GAS  /var/folders/l5/0x54b2c10074c8bt31ycjvl80000gp/T//ccuPlkW0.s 			page 24


 1312 01de AD       		.byte	0xad
 1313 01df 19       		.byte	0x19
 1314 01e0 CF040000 		.4byte	0x4cf
 1315 01e4 24       		.byte	0x24
 1316 01e5 07       		.uleb128 0x7
 1317 01e6 32060000 		.4byte	.LASF37
 1318 01ea 08       		.byte	0x8
 1319 01eb B2       		.byte	0xb2
 1320 01ec 19       		.byte	0x19
 1321 01ed 81020000 		.4byte	0x281
 1322 01f1 28       		.byte	0x28
 1323 01f2 07       		.uleb128 0x7
 1324 01f3 36050000 		.4byte	.LASF38
 1325 01f7 08       		.byte	0x8
 1326 01f8 B8       		.byte	0xb8
 1327 01f9 19       		.byte	0x19
 1328 01fa 5E020000 		.4byte	0x25e
 1329 01fe 2C       		.byte	0x2c
 1330 01ff 07       		.uleb128 0x7
 1331 0200 15000000 		.4byte	.LASF39
 1332 0204 08       		.byte	0x8
 1333 0205 BC       		.byte	0xbc
 1334 0206 19       		.byte	0x19
 1335 0207 07010000 		.4byte	0x107
 1336 020b 34       		.byte	0x34
 1337 020c 07       		.uleb128 0x7
 1338 020d 9B040000 		.4byte	.LASF40
 1339 0211 08       		.byte	0x8
 1340 0212 C2       		.byte	0xc2
 1341 0213 19       		.byte	0x19
 1342 0214 13010000 		.4byte	0x113
 1343 0218 38       		.byte	0x38
 1344 0219 07       		.uleb128 0x7
 1345 021a 18040000 		.4byte	.LASF41
 1346 021e 08       		.byte	0x8
 1347 021f C9       		.byte	0xc9
 1348 0220 1A       		.byte	0x1a
 1349 0221 1B050000 		.4byte	0x51b
 1350 0225 3C       		.byte	0x3c
 1351 0226 07       		.uleb128 0x7
 1352 0227 08050000 		.4byte	.LASF42
 1353 022b 08       		.byte	0x8
 1354 022c CD       		.byte	0xcd
 1355 022d 19       		.byte	0x19
 1356 022e FB000000 		.4byte	0xfb
 1357 0232 40       		.byte	0x40
 1358 0233 00       		.byte	0
 1359 0234 09       		.uleb128 0x9
 1360 0235 08       		.byte	0x8
 1361 0236 07       		.byte	0x7
 1362 0237 5A       		.byte	0x5a
 1363 0238 09       		.byte	0x9
 1364 0239 58020000 		.4byte	0x258
 1365 023d 07       		.uleb128 0x7
 1366 023e 4E040000 		.4byte	.LASF26
 1367 0242 07       		.byte	0x7
 1368 0243 5B       		.byte	0x5b
ARM GAS  /var/folders/l5/0x54b2c10074c8bt31ycjvl80000gp/T//ccuPlkW0.s 			page 25


 1369 0244 1A       		.byte	0x1a
 1370 0245 58020000 		.4byte	0x258
 1371 0249 00       		.byte	0
 1372 024a 07       		.uleb128 0x7
 1373 024b F3030000 		.4byte	.LASF27
 1374 024f 07       		.byte	0x7
 1375 0250 5D       		.byte	0x5d
 1376 0251 1A       		.byte	0x1a
 1377 0252 58020000 		.4byte	0x258
 1378 0256 04       		.byte	0x4
 1379 0257 00       		.byte	0
 1380 0258 0A       		.uleb128 0xa
 1381 0259 04       		.byte	0x4
 1382 025a 30010000 		.4byte	0x130
 1383 025e 03       		.uleb128 0x3
 1384 025f 98030000 		.4byte	.LASF43
 1385 0263 07       		.byte	0x7
 1386 0264 5F       		.byte	0x5f
 1387 0265 03       		.byte	0x3
 1388 0266 34020000 		.4byte	0x234
 1389 026a 09       		.uleb128 0x9
 1390 026b 04       		.byte	0x4
 1391 026c 07       		.byte	0x7
 1392 026d 64       		.byte	0x64
 1393 026e 09       		.byte	0x9
 1394 026f 81020000 		.4byte	0x281
 1395 0273 07       		.uleb128 0x7
 1396 0274 4E040000 		.4byte	.LASF26
 1397 0278 07       		.byte	0x7
 1398 0279 66       		.byte	0x66
 1399 027a 16       		.byte	0x16
 1400 027b 58020000 		.4byte	0x258
 1401 027f 00       		.byte	0
 1402 0280 00       		.byte	0
 1403 0281 03       		.uleb128 0x3
 1404 0282 E7020000 		.4byte	.LASF44
 1405 0286 07       		.byte	0x7
 1406 0287 69       		.byte	0x69
 1407 0288 03       		.byte	0x3
 1408 0289 6A020000 		.4byte	0x26a
 1409 028d 03       		.uleb128 0x3
 1410 028e 0D030000 		.4byte	.LASF45
 1411 0292 09       		.byte	0x9
 1412 0293 9D       		.byte	0x9d
 1413 0294 12       		.byte	0x12
 1414 0295 CB000000 		.4byte	0xcb
 1415 0299 03       		.uleb128 0x3
 1416 029a 55010000 		.4byte	.LASF46
 1417 029e 09       		.byte	0x9
 1418 029f A2       		.byte	0xa2
 1419 02a0 0F       		.byte	0xf
 1420 02a1 A5020000 		.4byte	0x2a5
 1421 02a5 0B       		.uleb128 0xb
 1422 02a6 04       		.byte	0x4
 1423 02a7 06       		.uleb128 0x6
 1424 02a8 2F050000 		.4byte	.LASF47
 1425 02ac 24       		.byte	0x24
ARM GAS  /var/folders/l5/0x54b2c10074c8bt31ycjvl80000gp/T//ccuPlkW0.s 			page 26


 1426 02ad 09       		.byte	0x9
 1427 02ae B9       		.byte	0xb9
 1428 02af 08       		.byte	0x8
 1429 02b0 23030000 		.4byte	0x323
 1430 02b4 08       		.uleb128 0x8
 1431 02b5 723400   		.ascii	"r4\000"
 1432 02b8 09       		.byte	0x9
 1433 02b9 BA       		.byte	0xba
 1434 02ba 11       		.byte	0x11
 1435 02bb 99020000 		.4byte	0x299
 1436 02bf 00       		.byte	0
 1437 02c0 08       		.uleb128 0x8
 1438 02c1 723500   		.ascii	"r5\000"
 1439 02c4 09       		.byte	0x9
 1440 02c5 BB       		.byte	0xbb
 1441 02c6 11       		.byte	0x11
 1442 02c7 99020000 		.4byte	0x299
 1443 02cb 04       		.byte	0x4
 1444 02cc 08       		.uleb128 0x8
 1445 02cd 723600   		.ascii	"r6\000"
 1446 02d0 09       		.byte	0x9
 1447 02d1 BC       		.byte	0xbc
 1448 02d2 11       		.byte	0x11
 1449 02d3 99020000 		.4byte	0x299
 1450 02d7 08       		.byte	0x8
 1451 02d8 08       		.uleb128 0x8
 1452 02d9 723700   		.ascii	"r7\000"
 1453 02dc 09       		.byte	0x9
 1454 02dd BD       		.byte	0xbd
 1455 02de 11       		.byte	0x11
 1456 02df 99020000 		.4byte	0x299
 1457 02e3 0C       		.byte	0xc
 1458 02e4 08       		.uleb128 0x8
 1459 02e5 723800   		.ascii	"r8\000"
 1460 02e8 09       		.byte	0x9
 1461 02e9 BE       		.byte	0xbe
 1462 02ea 11       		.byte	0x11
 1463 02eb 99020000 		.4byte	0x299
 1464 02ef 10       		.byte	0x10
 1465 02f0 08       		.uleb128 0x8
 1466 02f1 723900   		.ascii	"r9\000"
 1467 02f4 09       		.byte	0x9
 1468 02f5 BF       		.byte	0xbf
 1469 02f6 11       		.byte	0x11
 1470 02f7 99020000 		.4byte	0x299
 1471 02fb 14       		.byte	0x14
 1472 02fc 08       		.uleb128 0x8
 1473 02fd 72313000 		.ascii	"r10\000"
 1474 0301 09       		.byte	0x9
 1475 0302 C0       		.byte	0xc0
 1476 0303 11       		.byte	0x11
 1477 0304 99020000 		.4byte	0x299
 1478 0308 18       		.byte	0x18
 1479 0309 08       		.uleb128 0x8
 1480 030a 72313100 		.ascii	"r11\000"
 1481 030e 09       		.byte	0x9
 1482 030f C1       		.byte	0xc1
ARM GAS  /var/folders/l5/0x54b2c10074c8bt31ycjvl80000gp/T//ccuPlkW0.s 			page 27


 1483 0310 11       		.byte	0x11
 1484 0311 99020000 		.4byte	0x299
 1485 0315 1C       		.byte	0x1c
 1486 0316 08       		.uleb128 0x8
 1487 0317 6C7200   		.ascii	"lr\000"
 1488 031a 09       		.byte	0x9
 1489 031b C2       		.byte	0xc2
 1490 031c 11       		.byte	0x11
 1491 031d 99020000 		.4byte	0x299
 1492 0321 20       		.byte	0x20
 1493 0322 00       		.byte	0
 1494 0323 06       		.uleb128 0x6
 1495 0324 BD010000 		.4byte	.LASF48
 1496 0328 04       		.byte	0x4
 1497 0329 09       		.byte	0x9
 1498 032a CA       		.byte	0xca
 1499 032b 08       		.byte	0x8
 1500 032c 3E030000 		.4byte	0x33e
 1501 0330 08       		.uleb128 0x8
 1502 0331 72313300 		.ascii	"r13\000"
 1503 0335 09       		.byte	0x9
 1504 0336 CB       		.byte	0xcb
 1505 0337 12       		.byte	0x12
 1506 0338 3E030000 		.4byte	0x33e
 1507 033c 00       		.byte	0
 1508 033d 00       		.byte	0
 1509 033e 0A       		.uleb128 0xa
 1510 033f 04       		.byte	0x4
 1511 0340 A7020000 		.4byte	0x2a7
 1512 0344 03       		.uleb128 0x3
 1513 0345 B4010000 		.4byte	.LASF49
 1514 0349 0A       		.byte	0xa
 1515 034a 4E       		.byte	0x4e
 1516 034b 10       		.byte	0x10
 1517 034c 50030000 		.4byte	0x350
 1518 0350 0A       		.uleb128 0xa
 1519 0351 04       		.byte	0x4
 1520 0352 56030000 		.4byte	0x356
 1521 0356 0C       		.uleb128 0xc
 1522 0357 61030000 		.4byte	0x361
 1523 035b 0D       		.uleb128 0xd
 1524 035c A5020000 		.4byte	0x2a5
 1525 0360 00       		.byte	0
 1526 0361 03       		.uleb128 0x3
 1527 0362 CE040000 		.4byte	.LASF50
 1528 0366 0A       		.byte	0xa
 1529 0367 53       		.byte	0x53
 1530 0368 1D       		.byte	0x1d
 1531 0369 6D030000 		.4byte	0x36d
 1532 036d 06       		.uleb128 0x6
 1533 036e CE040000 		.4byte	.LASF50
 1534 0372 14       		.byte	0x14
 1535 0373 0A       		.byte	0xa
 1536 0374 5A       		.byte	0x5a
 1537 0375 08       		.byte	0x8
 1538 0376 BC030000 		.4byte	0x3bc
 1539 037a 07       		.uleb128 0x7
ARM GAS  /var/folders/l5/0x54b2c10074c8bt31ycjvl80000gp/T//ccuPlkW0.s 			page 28


 1540 037b 91010000 		.4byte	.LASF51
 1541 037f 0A       		.byte	0xa
 1542 0380 5B       		.byte	0x5b
 1543 0381 1A       		.byte	0x1a
 1544 0382 BC030000 		.4byte	0x3bc
 1545 0386 00       		.byte	0
 1546 0387 07       		.uleb128 0x7
 1547 0388 5E010000 		.4byte	.LASF52
 1548 038c 0A       		.byte	0xa
 1549 038d 5D       		.byte	0x5d
 1550 038e 1A       		.byte	0x1a
 1551 038f BC030000 		.4byte	0x3bc
 1552 0393 04       		.byte	0x4
 1553 0394 07       		.uleb128 0x7
 1554 0395 3E030000 		.4byte	.LASF53
 1555 0399 0A       		.byte	0xa
 1556 039a 5F       		.byte	0x5f
 1557 039b 19       		.byte	0x19
 1558 039c 1F010000 		.4byte	0x11f
 1559 03a0 08       		.byte	0x8
 1560 03a1 07       		.uleb128 0x7
 1561 03a2 46030000 		.4byte	.LASF54
 1562 03a6 0A       		.byte	0xa
 1563 03a7 60       		.byte	0x60
 1564 03a8 19       		.byte	0x19
 1565 03a9 44030000 		.4byte	0x344
 1566 03ad 0C       		.byte	0xc
 1567 03ae 07       		.uleb128 0x7
 1568 03af 4B050000 		.4byte	.LASF55
 1569 03b3 0A       		.byte	0xa
 1570 03b4 62       		.byte	0x62
 1571 03b5 1A       		.byte	0x1a
 1572 03b6 A5020000 		.4byte	0x2a5
 1573 03ba 10       		.byte	0x10
 1574 03bb 00       		.byte	0
 1575 03bc 0A       		.uleb128 0xa
 1576 03bd 04       		.byte	0x4
 1577 03be 61030000 		.4byte	0x361
 1578 03c2 09       		.uleb128 0x9
 1579 03c3 10       		.byte	0x10
 1580 03c4 0A       		.byte	0xa
 1581 03c5 6C       		.byte	0x6c
 1582 03c6 09       		.byte	0x9
 1583 03c7 00040000 		.4byte	0x400
 1584 03cb 07       		.uleb128 0x7
 1585 03cc 91010000 		.4byte	.LASF51
 1586 03d0 0A       		.byte	0xa
 1587 03d1 6D       		.byte	0x6d
 1588 03d2 1A       		.byte	0x1a
 1589 03d3 BC030000 		.4byte	0x3bc
 1590 03d7 00       		.byte	0
 1591 03d8 07       		.uleb128 0x7
 1592 03d9 5E010000 		.4byte	.LASF52
 1593 03dd 0A       		.byte	0xa
 1594 03de 6F       		.byte	0x6f
 1595 03df 1A       		.byte	0x1a
 1596 03e0 BC030000 		.4byte	0x3bc
ARM GAS  /var/folders/l5/0x54b2c10074c8bt31ycjvl80000gp/T//ccuPlkW0.s 			page 29


 1597 03e4 04       		.byte	0x4
 1598 03e5 07       		.uleb128 0x7
 1599 03e6 3E030000 		.4byte	.LASF53
 1600 03ea 0A       		.byte	0xa
 1601 03eb 71       		.byte	0x71
 1602 03ec 19       		.byte	0x19
 1603 03ed 1F010000 		.4byte	0x11f
 1604 03f1 08       		.byte	0x8
 1605 03f2 07       		.uleb128 0x7
 1606 03f3 AA050000 		.4byte	.LASF56
 1607 03f7 0A       		.byte	0xa
 1608 03f8 72       		.byte	0x72
 1609 03f9 19       		.byte	0x19
 1610 03fa 2B010000 		.4byte	0x12b
 1611 03fe 0C       		.byte	0xc
 1612 03ff 00       		.byte	0
 1613 0400 03       		.uleb128 0x3
 1614 0401 1D060000 		.4byte	.LASF57
 1615 0405 0A       		.byte	0xa
 1616 0406 73       		.byte	0x73
 1617 0407 03       		.byte	0x3
 1618 0408 C2030000 		.4byte	0x3c2
 1619 040c 0E       		.uleb128 0xe
 1620 040d 38000000 		.4byte	.LASF65
 1621 0411 0A       		.byte	0xa
 1622 0412 D1       		.byte	0xd1
 1623 0413 0F       		.byte	0xf
 1624 0414 00040000 		.4byte	0x400
 1625 0418 09       		.uleb128 0x9
 1626 0419 1C       		.byte	0x1c
 1627 041a 0B       		.byte	0xb
 1628 041b 57       		.byte	0x57
 1629 041c 09       		.byte	0x9
 1630 041d 70040000 		.4byte	0x470
 1631 0421 07       		.uleb128 0x7
 1632 0422 C6040000 		.4byte	.LASF58
 1633 0426 0B       		.byte	0xb
 1634 0427 58       		.byte	0x58
 1635 0428 19       		.byte	0x19
 1636 0429 5E020000 		.4byte	0x25e
 1637 042d 00       		.byte	0
 1638 042e 07       		.uleb128 0x7
 1639 042f 40040000 		.4byte	.LASF59
 1640 0433 0B       		.byte	0xb
 1641 0434 59       		.byte	0x59
 1642 0435 19       		.byte	0x19
 1643 0436 FB000000 		.4byte	0xfb
 1644 043a 08       		.byte	0x8
 1645 043b 07       		.uleb128 0x7
 1646 043c 92030000 		.4byte	.LASF60
 1647 0440 0B       		.byte	0xb
 1648 0441 5B       		.byte	0x5b
 1649 0442 19       		.byte	0x19
 1650 0443 23030000 		.4byte	0x323
 1651 0447 0C       		.byte	0xc
 1652 0448 07       		.uleb128 0x7
 1653 0449 F0010000 		.4byte	.LASF61
ARM GAS  /var/folders/l5/0x54b2c10074c8bt31ycjvl80000gp/T//ccuPlkW0.s 			page 30


 1654 044d 0B       		.byte	0xb
 1655 044e 5E       		.byte	0x5e
 1656 044f 1A       		.byte	0x1a
 1657 0450 58020000 		.4byte	0x258
 1658 0454 10       		.byte	0x10
 1659 0455 07       		.uleb128 0x7
 1660 0456 C8030000 		.4byte	.LASF62
 1661 045a 0B       		.byte	0xb
 1662 045b 5F       		.byte	0x5f
 1663 045c 1A       		.byte	0x1a
 1664 045d 58020000 		.4byte	0x258
 1665 0461 14       		.byte	0x14
 1666 0462 07       		.uleb128 0x7
 1667 0463 BE030000 		.4byte	.LASF63
 1668 0467 0B       		.byte	0xb
 1669 0468 62       		.byte	0x62
 1670 0469 1A       		.byte	0x1a
 1671 046a 58020000 		.4byte	0x258
 1672 046e 18       		.byte	0x18
 1673 046f 00       		.byte	0
 1674 0470 03       		.uleb128 0x3
 1675 0471 64050000 		.4byte	.LASF64
 1676 0475 0B       		.byte	0xb
 1677 0476 64       		.byte	0x64
 1678 0477 03       		.byte	0x3
 1679 0478 18040000 		.4byte	0x418
 1680 047c 0E       		.uleb128 0xe
 1681 047d 6E050000 		.4byte	.LASF66
 1682 0481 0B       		.byte	0xb
 1683 0482 68       		.byte	0x68
 1684 0483 12       		.byte	0x12
 1685 0484 70040000 		.4byte	0x470
 1686 0488 06       		.uleb128 0x6
 1687 0489 FF020000 		.4byte	.LASF67
 1688 048d 10       		.byte	0x10
 1689 048e 0C       		.byte	0xc
 1690 048f 25       		.byte	0x25
 1691 0490 10       		.byte	0x10
 1692 0491 BD040000 		.4byte	0x4bd
 1693 0495 07       		.uleb128 0x7
 1694 0496 CD000000 		.4byte	.LASF68
 1695 049a 0C       		.byte	0xc
 1696 049b 26       		.byte	0x26
 1697 049c 19       		.byte	0x19
 1698 049d 5E020000 		.4byte	0x25e
 1699 04a1 00       		.byte	0
 1700 04a2 07       		.uleb128 0x7
 1701 04a3 24060000 		.4byte	.LASF69
 1702 04a7 0C       		.byte	0xc
 1703 04a8 28       		.byte	0x28
 1704 04a9 1A       		.byte	0x1a
 1705 04aa 58020000 		.4byte	0x258
 1706 04ae 08       		.byte	0x8
 1707 04af 07       		.uleb128 0x7
 1708 04b0 F7040000 		.4byte	.LASF70
 1709 04b4 0C       		.byte	0xc
 1710 04b5 2A       		.byte	0x2a
ARM GAS  /var/folders/l5/0x54b2c10074c8bt31ycjvl80000gp/T//ccuPlkW0.s 			page 31


 1711 04b6 1A       		.byte	0x1a
 1712 04b7 BD040000 		.4byte	0x4bd
 1713 04bb 0C       		.byte	0xc
 1714 04bc 00       		.byte	0
 1715 04bd 0A       		.uleb128 0xa
 1716 04be 04       		.byte	0x4
 1717 04bf 88040000 		.4byte	0x488
 1718 04c3 03       		.uleb128 0x3
 1719 04c4 FF020000 		.4byte	.LASF67
 1720 04c8 0C       		.byte	0xc
 1721 04c9 2C       		.byte	0x2c
 1722 04ca 03       		.byte	0x3
 1723 04cb 88040000 		.4byte	0x488
 1724 04cf 0F       		.uleb128 0xf
 1725 04d0 04       		.byte	0x4
 1726 04d1 08       		.byte	0x8
 1727 04d2 8F       		.byte	0x8f
 1728 04d3 03       		.byte	0x3
 1729 04d4 09050000 		.4byte	0x509
 1730 04d8 10       		.uleb128 0x10
 1731 04d9 27000000 		.4byte	.LASF71
 1732 04dd 08       		.byte	0x8
 1733 04de 96       		.byte	0x96
 1734 04df 19       		.byte	0x19
 1735 04e0 07010000 		.4byte	0x107
 1736 04e4 10       		.uleb128 0x10
 1737 04e5 6F000000 		.4byte	.LASF72
 1738 04e9 08       		.byte	0x8
 1739 04ea 9D       		.byte	0x9d
 1740 04eb 19       		.byte	0x19
 1741 04ec 07010000 		.4byte	0x107
 1742 04f0 10       		.uleb128 0x10
 1743 04f1 9C050000 		.4byte	.LASF73
 1744 04f5 08       		.byte	0x8
 1745 04f6 A4       		.byte	0xa4
 1746 04f7 1A       		.byte	0x1a
 1747 04f8 A5020000 		.4byte	0x2a5
 1748 04fc 10       		.uleb128 0x10
 1749 04fd 47040000 		.4byte	.LASF74
 1750 0501 08       		.byte	0x8
 1751 0502 AB       		.byte	0xab
 1752 0503 19       		.byte	0x19
 1753 0504 13010000 		.4byte	0x113
 1754 0508 00       		.byte	0
 1755 0509 0A       		.uleb128 0xa
 1756 050a 04       		.byte	0x4
 1757 050b 16050000 		.4byte	0x516
 1758 050f 04       		.uleb128 0x4
 1759 0510 01       		.byte	0x1
 1760 0511 08       		.byte	0x8
 1761 0512 DB040000 		.4byte	.LASF75
 1762 0516 11       		.uleb128 0x11
 1763 0517 0F050000 		.4byte	0x50f
 1764 051b 0A       		.uleb128 0xa
 1765 051c 04       		.byte	0x4
 1766 051d C3040000 		.4byte	0x4c3
 1767 0521 03       		.uleb128 0x3
ARM GAS  /var/folders/l5/0x54b2c10074c8bt31ycjvl80000gp/T//ccuPlkW0.s 			page 32


 1768 0522 00000000 		.4byte	.LASF76
 1769 0526 08       		.byte	0x8
 1770 0527 DE       		.byte	0xde
 1771 0528 11       		.byte	0x11
 1772 0529 2D050000 		.4byte	0x52d
 1773 052d 0A       		.uleb128 0xa
 1774 052e 04       		.byte	0x4
 1775 052f 33050000 		.4byte	0x533
 1776 0533 12       		.uleb128 0x12
 1777 0534 07010000 		.4byte	0x107
 1778 0538 42050000 		.4byte	0x542
 1779 053c 0D       		.uleb128 0xd
 1780 053d A5020000 		.4byte	0x2a5
 1781 0541 00       		.byte	0
 1782 0542 09       		.uleb128 0x9
 1783 0543 16       		.byte	0x16
 1784 0544 0D       		.byte	0xd
 1785 0545 25       		.byte	0x25
 1786 0546 09       		.byte	0x9
 1787 0547 36060000 		.4byte	0x636
 1788 054b 07       		.uleb128 0x7
 1789 054c D5000000 		.4byte	.LASF77
 1790 0550 0D       		.byte	0xd
 1791 0551 26       		.byte	0x26
 1792 0552 0D       		.byte	0xd
 1793 0553 36060000 		.4byte	0x636
 1794 0557 00       		.byte	0
 1795 0558 07       		.uleb128 0x7
 1796 0559 2A030000 		.4byte	.LASF78
 1797 055d 0D       		.byte	0xd
 1798 055e 27       		.byte	0x27
 1799 055f 0D       		.byte	0xd
 1800 0560 A7000000 		.4byte	0xa7
 1801 0564 04       		.byte	0x4
 1802 0565 07       		.uleb128 0x7
 1803 0566 A5030000 		.4byte	.LASF79
 1804 056a 0D       		.byte	0xd
 1805 056b 28       		.byte	0x28
 1806 056c 0D       		.byte	0xd
 1807 056d A7000000 		.4byte	0xa7
 1808 0571 05       		.byte	0x5
 1809 0572 07       		.uleb128 0x7
 1810 0573 CA050000 		.4byte	.LASF80
 1811 0577 0D       		.byte	0xd
 1812 0578 29       		.byte	0x29
 1813 0579 0D       		.byte	0xd
 1814 057a B3000000 		.4byte	0xb3
 1815 057e 06       		.byte	0x6
 1816 057f 07       		.uleb128 0x7
 1817 0580 E8030000 		.4byte	.LASF81
 1818 0584 0D       		.byte	0xd
 1819 0585 2A       		.byte	0x2a
 1820 0586 0D       		.byte	0xd
 1821 0587 A7000000 		.4byte	0xa7
 1822 058b 08       		.byte	0x8
 1823 058c 07       		.uleb128 0x7
 1824 058d 4E030000 		.4byte	.LASF82
ARM GAS  /var/folders/l5/0x54b2c10074c8bt31ycjvl80000gp/T//ccuPlkW0.s 			page 33


 1825 0591 0D       		.byte	0xd
 1826 0592 2B       		.byte	0x2b
 1827 0593 0D       		.byte	0xd
 1828 0594 A7000000 		.4byte	0xa7
 1829 0598 09       		.byte	0x9
 1830 0599 07       		.uleb128 0x7
 1831 059a 61000000 		.4byte	.LASF83
 1832 059e 0D       		.byte	0xd
 1833 059f 2C       		.byte	0x2c
 1834 05a0 0D       		.byte	0xd
 1835 05a1 A7000000 		.4byte	0xa7
 1836 05a5 0A       		.byte	0xa
 1837 05a6 07       		.uleb128 0x7
 1838 05a7 BA040000 		.4byte	.LASF84
 1839 05ab 0D       		.byte	0xd
 1840 05ac 2D       		.byte	0x2d
 1841 05ad 0D       		.byte	0xd
 1842 05ae A7000000 		.4byte	0xa7
 1843 05b2 0B       		.byte	0xb
 1844 05b3 07       		.uleb128 0x7
 1845 05b4 52050000 		.4byte	.LASF85
 1846 05b8 0D       		.byte	0xd
 1847 05b9 2E       		.byte	0x2e
 1848 05ba 0D       		.byte	0xd
 1849 05bb A7000000 		.4byte	0xa7
 1850 05bf 0C       		.byte	0xc
 1851 05c0 07       		.uleb128 0x7
 1852 05c1 80040000 		.4byte	.LASF86
 1853 05c5 0D       		.byte	0xd
 1854 05c6 2F       		.byte	0x2f
 1855 05c7 0D       		.byte	0xd
 1856 05c8 A7000000 		.4byte	0xa7
 1857 05cc 0D       		.byte	0xd
 1858 05cd 07       		.uleb128 0x7
 1859 05ce 08000000 		.4byte	.LASF87
 1860 05d2 0D       		.byte	0xd
 1861 05d3 30       		.byte	0x30
 1862 05d4 0D       		.byte	0xd
 1863 05d5 A7000000 		.4byte	0xa7
 1864 05d9 0E       		.byte	0xe
 1865 05da 07       		.uleb128 0x7
 1866 05db 7E030000 		.4byte	.LASF88
 1867 05df 0D       		.byte	0xd
 1868 05e0 31       		.byte	0x31
 1869 05e1 0D       		.byte	0xd
 1870 05e2 A7000000 		.4byte	0xa7
 1871 05e6 0F       		.byte	0xf
 1872 05e7 07       		.uleb128 0x7
 1873 05e8 B0000000 		.4byte	.LASF89
 1874 05ec 0D       		.byte	0xd
 1875 05ed 32       		.byte	0x32
 1876 05ee 0D       		.byte	0xd
 1877 05ef A7000000 		.4byte	0xa7
 1878 05f3 10       		.byte	0x10
 1879 05f4 07       		.uleb128 0x7
 1880 05f5 7F000000 		.4byte	.LASF90
 1881 05f9 0D       		.byte	0xd
ARM GAS  /var/folders/l5/0x54b2c10074c8bt31ycjvl80000gp/T//ccuPlkW0.s 			page 34


 1882 05fa 34       		.byte	0x34
 1883 05fb 0D       		.byte	0xd
 1884 05fc A7000000 		.4byte	0xa7
 1885 0600 11       		.byte	0x11
 1886 0601 07       		.uleb128 0x7
 1887 0602 C0000000 		.4byte	.LASF91
 1888 0606 0D       		.byte	0xd
 1889 0607 35       		.byte	0x35
 1890 0608 0D       		.byte	0xd
 1891 0609 A7000000 		.4byte	0xa7
 1892 060d 12       		.byte	0x12
 1893 060e 07       		.uleb128 0x7
 1894 060f 32030000 		.4byte	.LASF92
 1895 0613 0D       		.byte	0xd
 1896 0614 36       		.byte	0x36
 1897 0615 0D       		.byte	0xd
 1898 0616 A7000000 		.4byte	0xa7
 1899 061a 13       		.byte	0x13
 1900 061b 07       		.uleb128 0x7
 1901 061c 55040000 		.4byte	.LASF93
 1902 0620 0D       		.byte	0xd
 1903 0621 37       		.byte	0x37
 1904 0622 0D       		.byte	0xd
 1905 0623 A7000000 		.4byte	0xa7
 1906 0627 14       		.byte	0x14
 1907 0628 07       		.uleb128 0x7
 1908 0629 34040000 		.4byte	.LASF94
 1909 062d 0D       		.byte	0xd
 1910 062e 39       		.byte	0x39
 1911 062f 0D       		.byte	0xd
 1912 0630 A7000000 		.4byte	0xa7
 1913 0634 15       		.byte	0x15
 1914 0635 00       		.byte	0
 1915 0636 13       		.uleb128 0x13
 1916 0637 0F050000 		.4byte	0x50f
 1917 063b 46060000 		.4byte	0x646
 1918 063f 14       		.uleb128 0x14
 1919 0640 38000000 		.4byte	0x38
 1920 0644 03       		.byte	0x3
 1921 0645 00       		.byte	0
 1922 0646 03       		.uleb128 0x3
 1923 0647 0B010000 		.4byte	.LASF95
 1924 064b 0D       		.byte	0xd
 1925 064c 3A       		.byte	0x3a
 1926 064d 03       		.byte	0x3
 1927 064e 42050000 		.4byte	0x542
 1928 0652 11       		.uleb128 0x11
 1929 0653 46060000 		.4byte	0x646
 1930 0657 0E       		.uleb128 0xe
 1931 0658 AB010000 		.4byte	.LASF96
 1932 065c 0D       		.byte	0xd
 1933 065d 77       		.byte	0x77
 1934 065e 1D       		.byte	0x1d
 1935 065f 52060000 		.4byte	0x652
 1936 0663 13       		.uleb128 0x13
 1937 0664 8D020000 		.4byte	0x28d
 1938 0668 73060000 		.4byte	0x673
ARM GAS  /var/folders/l5/0x54b2c10074c8bt31ycjvl80000gp/T//ccuPlkW0.s 			page 35


 1939 066c 14       		.uleb128 0x14
 1940 066d 38000000 		.4byte	0x38
 1941 0671 26       		.byte	0x26
 1942 0672 00       		.byte	0
 1943 0673 0E       		.uleb128 0xe
 1944 0674 1D010000 		.4byte	.LASF97
 1945 0678 0E       		.byte	0xe
 1946 0679 82       		.byte	0x82
 1947 067a 08       		.byte	0x8
 1948 067b 63060000 		.4byte	0x663
 1949 067f 15       		.uleb128 0x15
 1950 0680 41050000 		.4byte	.LASF105
 1951 0684 01       		.byte	0x1
 1952 0685 9D01     		.2byte	0x19d
 1953 0687 07       		.byte	0x7
 1954 0688 07010000 		.4byte	0x107
 1955 068c 00000000 		.4byte	.LFB18
 1956 0690 50000000 		.4byte	.LFE18-.LFB18
 1957 0694 01       		.uleb128 0x1
 1958 0695 9C       		.byte	0x9c
 1959 0696 10070000 		.4byte	0x710
 1960 069a 16       		.uleb128 0x16
 1961 069b 747000   		.ascii	"tp\000"
 1962 069e 01       		.byte	0x1
 1963 069f 9D01     		.2byte	0x19d
 1964 06a1 19       		.byte	0x19
 1965 06a2 58020000 		.4byte	0x258
 1966 06a6 04000000 		.4byte	.LLST30
 1967 06aa 00000000 		.4byte	.LVUS30
 1968 06ae 17       		.uleb128 0x17
 1969 06af 6D736700 		.ascii	"msg\000"
 1970 06b3 01       		.byte	0x1
 1971 06b4 9E01     		.2byte	0x19e
 1972 06b6 09       		.byte	0x9
 1973 06b7 07010000 		.4byte	0x107
 1974 06bb 24000000 		.4byte	.LLST31
 1975 06bf 22000000 		.4byte	.LVUS31
 1976 06c3 18       		.uleb128 0x18
 1977 06c4 1A0B0000 		.4byte	0xb1a
 1978 06c8 24000000 		.4byte	.LBI36
 1979 06cc 01       		.byte	.LVU332
 1980 06cd 80000000 		.4byte	.Ldebug_ranges0+0x80
 1981 06d1 01       		.byte	0x1
 1982 06d2 A801     		.2byte	0x1a8
 1983 06d4 05       		.byte	0x5
 1984 06d5 EC060000 		.4byte	0x6ec
 1985 06d9 19       		.uleb128 0x19
 1986 06da 320B0000 		.4byte	0xb32
 1987 06de 3B000000 		.4byte	.LLST32
 1988 06e2 37000000 		.4byte	.LVUS32
 1989 06e6 1A       		.uleb128 0x1a
 1990 06e7 270B0000 		.4byte	0xb27
 1991 06eb 00       		.byte	0
 1992 06ec 1B       		.uleb128 0x1b
 1993 06ed 34000000 		.4byte	.LVL50
 1994 06f1 EA0B0000 		.4byte	0xbea
 1995 06f5 FF060000 		.4byte	0x6ff
ARM GAS  /var/folders/l5/0x54b2c10074c8bt31ycjvl80000gp/T//ccuPlkW0.s 			page 36


 1996 06f9 1C       		.uleb128 0x1c
 1997 06fa 01       		.uleb128 0x1
 1998 06fb 50       		.byte	0x50
 1999 06fc 01       		.uleb128 0x1
 2000 06fd 37       		.byte	0x37
 2001 06fe 00       		.byte	0
 2002 06ff 1D       		.uleb128 0x1d
 2003 0700 44000000 		.4byte	.LVL52
 2004 0704 F60B0000 		.4byte	0xbf6
 2005 0708 1C       		.uleb128 0x1c
 2006 0709 01       		.uleb128 0x1
 2007 070a 50       		.byte	0x50
 2008 070b 02       		.uleb128 0x2
 2009 070c 74       		.byte	0x74
 2010 070d 00       		.sleb128 0
 2011 070e 00       		.byte	0
 2012 070f 00       		.byte	0
 2013 0710 1E       		.uleb128 0x1e
 2014 0711 3F000000 		.4byte	.LASF98
 2015 0715 01       		.byte	0x1
 2016 0716 6701     		.2byte	0x167
 2017 0718 06       		.byte	0x6
 2018 0719 00000000 		.4byte	.LFB17
 2019 071d 64000000 		.4byte	.LFE17-.LFB17
 2020 0721 01       		.uleb128 0x1
 2021 0722 9C       		.byte	0x9c
 2022 0723 A0070000 		.4byte	0x7a0
 2023 0727 16       		.uleb128 0x16
 2024 0728 6D736700 		.ascii	"msg\000"
 2025 072c 01       		.byte	0x1
 2026 072d 6701     		.2byte	0x167
 2027 072f 17       		.byte	0x17
 2028 0730 07010000 		.4byte	0x107
 2029 0734 61000000 		.4byte	.LLST25
 2030 0738 5D000000 		.4byte	.LVUS25
 2031 073c 17       		.uleb128 0x17
 2032 073d 747000   		.ascii	"tp\000"
 2033 0740 01       		.byte	0x1
 2034 0741 6801     		.2byte	0x168
 2035 0743 0B       		.byte	0xb
 2036 0744 58020000 		.4byte	0x258
 2037 0748 84000000 		.4byte	.LLST26
 2038 074c 82000000 		.4byte	.LVUS26
 2039 0750 18       		.uleb128 0x18
 2040 0751 EB0A0000 		.4byte	0xaeb
 2041 0755 20000000 		.4byte	.LBI32
 2042 0759 01       		.byte	.LVU285
 2043 075a 68000000 		.4byte	.Ldebug_ranges0+0x68
 2044 075e 01       		.byte	0x1
 2045 075f 7001     		.2byte	0x170
 2046 0761 05       		.byte	0x5
 2047 0762 87070000 		.4byte	0x787
 2048 0766 19       		.uleb128 0x19
 2049 0767 FC0A0000 		.4byte	0xafc
 2050 076b 99000000 		.4byte	.LLST27
 2051 076f 97000000 		.4byte	.LVUS27
 2052 0773 1F       		.uleb128 0x1f
ARM GAS  /var/folders/l5/0x54b2c10074c8bt31ycjvl80000gp/T//ccuPlkW0.s 			page 37


 2053 0774 68000000 		.4byte	.Ldebug_ranges0+0x68
 2054 0778 20       		.uleb128 0x20
 2055 0779 080B0000 		.4byte	0xb08
 2056 077d AE000000 		.4byte	.LLST28
 2057 0781 AC000000 		.4byte	.LVUS28
 2058 0785 00       		.byte	0
 2059 0786 00       		.byte	0
 2060 0787 21       		.uleb128 0x21
 2061 0788 30000000 		.4byte	.LVL40
 2062 078c 020C0000 		.4byte	0xc02
 2063 0790 22       		.uleb128 0x22
 2064 0791 60000000 		.4byte	.LVL43
 2065 0795 EA0B0000 		.4byte	0xbea
 2066 0799 1C       		.uleb128 0x1c
 2067 079a 01       		.uleb128 0x1
 2068 079b 50       		.byte	0x50
 2069 079c 01       		.uleb128 0x1
 2070 079d 3E       		.byte	0x3e
 2071 079e 00       		.byte	0
 2072 079f 00       		.byte	0
 2073 07a0 1E       		.uleb128 0x1e
 2074 07a1 A6000000 		.4byte	.LASF99
 2075 07a5 01       		.byte	0x1
 2076 07a6 5201     		.2byte	0x152
 2077 07a8 06       		.byte	0x6
 2078 07a9 00000000 		.4byte	.LFB16
 2079 07ad 08000000 		.4byte	.LFE16-.LFB16
 2080 07b1 01       		.uleb128 0x1
 2081 07b2 9C       		.byte	0x9c
 2082 07b3 DE070000 		.4byte	0x7de
 2083 07b7 16       		.uleb128 0x16
 2084 07b8 6D736700 		.ascii	"msg\000"
 2085 07bc 01       		.byte	0x1
 2086 07bd 5201     		.2byte	0x152
 2087 07bf 16       		.byte	0x16
 2088 07c0 07010000 		.4byte	0x107
 2089 07c4 C5000000 		.4byte	.LLST29
 2090 07c8 C1000000 		.4byte	.LVUS29
 2091 07cc 22       		.uleb128 0x22
 2092 07cd 08000000 		.4byte	.LVL45
 2093 07d1 10070000 		.4byte	0x710
 2094 07d5 1C       		.uleb128 0x1c
 2095 07d6 01       		.uleb128 0x1
 2096 07d7 50       		.byte	0x50
 2097 07d8 03       		.uleb128 0x3
 2098 07d9 F3       		.byte	0xf3
 2099 07da 01       		.uleb128 0x1
 2100 07db 50       		.byte	0x50
 2101 07dc 00       		.byte	0
 2102 07dd 00       		.byte	0
 2103 07de 1E       		.uleb128 0x1e
 2104 07df 1D050000 		.4byte	.LASF100
 2105 07e3 01       		.byte	0x1
 2106 07e4 3D01     		.2byte	0x13d
 2107 07e6 06       		.byte	0x6
 2108 07e7 00000000 		.4byte	.LFB15
 2109 07eb 3C000000 		.4byte	.LFE15-.LFB15
ARM GAS  /var/folders/l5/0x54b2c10074c8bt31ycjvl80000gp/T//ccuPlkW0.s 			page 38


 2110 07ef 01       		.uleb128 0x1
 2111 07f0 9C       		.byte	0x9c
 2112 07f1 FF070000 		.4byte	0x7ff
 2113 07f5 21       		.uleb128 0x21
 2114 07f6 30000000 		.4byte	.LVL35
 2115 07fa 0E0C0000 		.4byte	0xc0e
 2116 07fe 00       		.byte	0
 2117 07ff 1E       		.uleb128 0x1e
 2118 0800 D0030000 		.4byte	.LASF101
 2119 0804 01       		.byte	0x1
 2120 0805 2E01     		.2byte	0x12e
 2121 0807 06       		.byte	0x6
 2122 0808 00000000 		.4byte	.LFB14
 2123 080c 34000000 		.4byte	.LFE14-.LFB14
 2124 0810 01       		.uleb128 0x1
 2125 0811 9C       		.byte	0x9c
 2126 0812 3B080000 		.4byte	0x83b
 2127 0816 23       		.uleb128 0x23
 2128 0817 AD030000 		.4byte	.LASF102
 2129 081b 01       		.byte	0x1
 2130 081c 2E01     		.2byte	0x12e
 2131 081e 20       		.byte	0x20
 2132 081f 1F010000 		.4byte	0x11f
 2133 0823 EC000000 		.4byte	.LLST24
 2134 0827 E6000000 		.4byte	.LVUS24
 2135 082b 1D       		.uleb128 0x1d
 2136 082c 28000000 		.4byte	.LVL34
 2137 0830 1A0C0000 		.4byte	0xc1a
 2138 0834 1C       		.uleb128 0x1c
 2139 0835 01       		.uleb128 0x1
 2140 0836 50       		.byte	0x50
 2141 0837 01       		.uleb128 0x1
 2142 0838 36       		.byte	0x36
 2143 0839 00       		.byte	0
 2144 083a 00       		.byte	0
 2145 083b 1E       		.uleb128 0x1e
 2146 083c A6040000 		.4byte	.LASF103
 2147 0840 01       		.byte	0x1
 2148 0841 1D01     		.2byte	0x11d
 2149 0843 06       		.byte	0x6
 2150 0844 00000000 		.4byte	.LFB13
 2151 0848 1C000000 		.4byte	.LFE13-.LFB13
 2152 084c 01       		.uleb128 0x1
 2153 084d 9C       		.byte	0x9c
 2154 084e 7E080000 		.4byte	0x87e
 2155 0852 23       		.uleb128 0x23
 2156 0853 AD030000 		.4byte	.LASF102
 2157 0857 01       		.byte	0x1
 2158 0858 1D01     		.2byte	0x11d
 2159 085a 1B       		.byte	0x1b
 2160 085b 1F010000 		.4byte	0x11f
 2161 085f 20010000 		.4byte	.LLST23
 2162 0863 1A010000 		.4byte	.LVUS23
 2163 0867 1D       		.uleb128 0x1d
 2164 0868 14000000 		.4byte	.LVL30
 2165 086c 1A0C0000 		.4byte	0xc1a
 2166 0870 1C       		.uleb128 0x1c
ARM GAS  /var/folders/l5/0x54b2c10074c8bt31ycjvl80000gp/T//ccuPlkW0.s 			page 39


 2167 0871 01       		.uleb128 0x1
 2168 0872 50       		.byte	0x50
 2169 0873 01       		.uleb128 0x1
 2170 0874 36       		.byte	0x36
 2171 0875 1C       		.uleb128 0x1c
 2172 0876 01       		.uleb128 0x1
 2173 0877 51       		.byte	0x51
 2174 0878 03       		.uleb128 0x3
 2175 0879 F3       		.byte	0xf3
 2176 087a 01       		.uleb128 0x1
 2177 087b 50       		.byte	0x50
 2178 087c 00       		.byte	0
 2179 087d 00       		.byte	0
 2180 087e 1E       		.uleb128 0x1e
 2181 087f D8020000 		.4byte	.LASF104
 2182 0883 01       		.byte	0x1
 2183 0884 0A01     		.2byte	0x10a
 2184 0886 06       		.byte	0x6
 2185 0887 00000000 		.4byte	.LFB12
 2186 088b 18000000 		.4byte	.LFE12-.LFB12
 2187 088f 01       		.uleb128 0x1
 2188 0890 9C       		.byte	0x9c
 2189 0891 A4080000 		.4byte	0x8a4
 2190 0895 24       		.uleb128 0x24
 2191 0896 747000   		.ascii	"tp\000"
 2192 0899 01       		.byte	0x1
 2193 089a 0A01     		.2byte	0x10a
 2194 089c 1D       		.byte	0x1d
 2195 089d 58020000 		.4byte	0x258
 2196 08a1 01       		.uleb128 0x1
 2197 08a2 50       		.byte	0x50
 2198 08a3 00       		.byte	0
 2199 08a4 25       		.uleb128 0x25
 2200 08a5 5A030000 		.4byte	.LASF106
 2201 08a9 01       		.byte	0x1
 2202 08aa F3       		.byte	0xf3
 2203 08ab 09       		.byte	0x9
 2204 08ac 58020000 		.4byte	0x258
 2205 08b0 00000000 		.4byte	.LFB11
 2206 08b4 20000000 		.4byte	.LFE11-.LFB11
 2207 08b8 01       		.uleb128 0x1
 2208 08b9 9C       		.byte	0x9c
 2209 08ba E7080000 		.4byte	0x8e7
 2210 08be 26       		.uleb128 0x26
 2211 08bf 747000   		.ascii	"tp\000"
 2212 08c2 01       		.byte	0x1
 2213 08c3 F3       		.byte	0xf3
 2214 08c4 1D       		.byte	0x1d
 2215 08c5 58020000 		.4byte	0x258
 2216 08c9 50010000 		.4byte	.LLST22
 2217 08cd 4C010000 		.4byte	.LVUS22
 2218 08d1 1D       		.uleb128 0x1d
 2219 08d2 14000000 		.4byte	.LVL26
 2220 08d6 260C0000 		.4byte	0xc26
 2221 08da 1C       		.uleb128 0x1c
 2222 08db 01       		.uleb128 0x1
 2223 08dc 50       		.byte	0x50
ARM GAS  /var/folders/l5/0x54b2c10074c8bt31ycjvl80000gp/T//ccuPlkW0.s 			page 40


 2224 08dd 02       		.uleb128 0x2
 2225 08de 74       		.byte	0x74
 2226 08df 00       		.sleb128 0
 2227 08e0 1C       		.uleb128 0x1c
 2228 08e1 01       		.uleb128 0x1
 2229 08e2 51       		.byte	0x51
 2230 08e3 01       		.uleb128 0x1
 2231 08e4 30       		.byte	0x30
 2232 08e5 00       		.byte	0
 2233 08e6 00       		.byte	0
 2234 08e7 25       		.uleb128 0x25
 2235 08e8 66010000 		.4byte	.LASF107
 2236 08ec 01       		.byte	0x1
 2237 08ed D2       		.byte	0xd2
 2238 08ee 09       		.byte	0x9
 2239 08ef FB000000 		.4byte	0xfb
 2240 08f3 00000000 		.4byte	.LFB10
 2241 08f7 50000000 		.4byte	.LFE10-.LFB10
 2242 08fb 01       		.uleb128 0x1
 2243 08fc 9C       		.byte	0x9c
 2244 08fd 33090000 		.4byte	0x933
 2245 0901 27       		.uleb128 0x27
 2246 0902 C8020000 		.4byte	.LASF108
 2247 0906 01       		.byte	0x1
 2248 0907 D2       		.byte	0xd2
 2249 0908 22       		.byte	0x22
 2250 0909 FB000000 		.4byte	0xfb
 2251 090d 74010000 		.4byte	.LLST20
 2252 0911 6E010000 		.4byte	.LVUS20
 2253 0915 28       		.uleb128 0x28
 2254 0916 05030000 		.4byte	.LASF109
 2255 091a 01       		.byte	0x1
 2256 091b D3       		.byte	0xd3
 2257 091c 0B       		.byte	0xb
 2258 091d FB000000 		.4byte	0xfb
 2259 0921 A2010000 		.4byte	.LLST21
 2260 0925 A0010000 		.4byte	.LVUS21
 2261 0929 21       		.uleb128 0x21
 2262 092a 40000000 		.4byte	.LVL24
 2263 092e 320C0000 		.4byte	0xc32
 2264 0932 00       		.byte	0
 2265 0933 25       		.uleb128 0x25
 2266 0934 18030000 		.4byte	.LASF110
 2267 0938 01       		.byte	0x1
 2268 0939 B4       		.byte	0xb4
 2269 093a 09       		.byte	0x9
 2270 093b 58020000 		.4byte	0x258
 2271 093f 00000000 		.4byte	.LFB9
 2272 0943 A0000000 		.4byte	.LFE9-.LFB9
 2273 0947 01       		.uleb128 0x1
 2274 0948 9C       		.byte	0x9c
 2275 0949 6A0A0000 		.4byte	0xa6a
 2276 094d 26       		.uleb128 0x26
 2277 094e 77737000 		.ascii	"wsp\000"
 2278 0952 01       		.byte	0x1
 2279 0953 B4       		.byte	0xb4
 2280 0954 21       		.byte	0x21
ARM GAS  /var/folders/l5/0x54b2c10074c8bt31ycjvl80000gp/T//ccuPlkW0.s 			page 41


 2281 0955 A5020000 		.4byte	0x2a5
 2282 0959 B9010000 		.4byte	.LLST7
 2283 095d B5010000 		.4byte	.LVUS7
 2284 0961 27       		.uleb128 0x27
 2285 0962 C5010000 		.4byte	.LASF111
 2286 0966 01       		.byte	0x1
 2287 0967 B4       		.byte	0xb4
 2288 0968 2D       		.byte	0x2d
 2289 0969 2C000000 		.4byte	0x2c
 2290 096d DD010000 		.4byte	.LLST8
 2291 0971 D7010000 		.4byte	.LVUS8
 2292 0975 27       		.uleb128 0x27
 2293 0976 22000000 		.4byte	.LASF112
 2294 097a 01       		.byte	0x1
 2295 097b B5       		.byte	0xb5
 2296 097c 23       		.byte	0x23
 2297 097d FB000000 		.4byte	0xfb
 2298 0981 11020000 		.4byte	.LLST9
 2299 0985 0B020000 		.4byte	.LVUS9
 2300 0989 26       		.uleb128 0x26
 2301 098a 706600   		.ascii	"pf\000"
 2302 098d 01       		.byte	0x1
 2303 098e B5       		.byte	0xb5
 2304 098f 31       		.byte	0x31
 2305 0990 21050000 		.4byte	0x521
 2306 0994 47020000 		.4byte	.LLST10
 2307 0998 3F020000 		.4byte	.LVUS10
 2308 099c 29       		.uleb128 0x29
 2309 099d 61726700 		.ascii	"arg\000"
 2310 09a1 01       		.byte	0x1
 2311 09a2 B5       		.byte	0xb5
 2312 09a3 3B       		.byte	0x3b
 2313 09a4 A5020000 		.4byte	0x2a5
 2314 09a8 02       		.uleb128 0x2
 2315 09a9 91       		.byte	0x91
 2316 09aa 00       		.sleb128 0
 2317 09ab 2A       		.uleb128 0x2a
 2318 09ac 747000   		.ascii	"tp\000"
 2319 09af 01       		.byte	0x1
 2320 09b0 B6       		.byte	0xb6
 2321 09b1 0B       		.byte	0xb
 2322 09b2 58020000 		.4byte	0x258
 2323 09b6 85020000 		.4byte	.LLST11
 2324 09ba 81020000 		.4byte	.LVUS11
 2325 09be 2B       		.uleb128 0x2b
 2326 09bf 6A0A0000 		.4byte	0xa6a
 2327 09c3 10000000 		.4byte	.LBI20
 2328 09c7 03       		.byte	.LVU106
 2329 09c8 28000000 		.4byte	.Ldebug_ranges0+0x28
 2330 09cc 01       		.byte	0x1
 2331 09cd C1       		.byte	0xc1
 2332 09ce 15       		.byte	0x15
 2333 09cf 540A0000 		.4byte	0xa54
 2334 09d3 19       		.uleb128 0x19
 2335 09d4 AA0A0000 		.4byte	0xaaa
 2336 09d8 A5020000 		.4byte	.LLST12
 2337 09dc A3020000 		.4byte	.LVUS12
ARM GAS  /var/folders/l5/0x54b2c10074c8bt31ycjvl80000gp/T//ccuPlkW0.s 			page 42


 2338 09e0 19       		.uleb128 0x19
 2339 09e1 9F0A0000 		.4byte	0xa9f
 2340 09e5 C0020000 		.4byte	.LLST13
 2341 09e9 B8020000 		.4byte	.LVUS13
 2342 09ed 19       		.uleb128 0x19
 2343 09ee 930A0000 		.4byte	0xa93
 2344 09f2 FE020000 		.4byte	.LLST14
 2345 09f6 FA020000 		.4byte	.LVUS14
 2346 09fa 19       		.uleb128 0x19
 2347 09fb 870A0000 		.4byte	0xa87
 2348 09ff 24030000 		.4byte	.LLST15
 2349 0a03 1E030000 		.4byte	.LVUS15
 2350 0a07 19       		.uleb128 0x19
 2351 0a08 7B0A0000 		.4byte	0xa7b
 2352 0a0c 54030000 		.4byte	.LLST16
 2353 0a10 52030000 		.4byte	.LVUS16
 2354 0a14 1F       		.uleb128 0x1f
 2355 0a15 28000000 		.4byte	.Ldebug_ranges0+0x28
 2356 0a19 20       		.uleb128 0x20
 2357 0a1a B60A0000 		.4byte	0xab6
 2358 0a1e 6B030000 		.4byte	.LLST17
 2359 0a22 67030000 		.4byte	.LVUS17
 2360 0a26 2C       		.uleb128 0x2c
 2361 0a27 C20A0000 		.4byte	0xac2
 2362 0a2b 3C000000 		.4byte	.LBI22
 2363 0a2f 02       		.byte	.LVU126
 2364 0a30 40000000 		.4byte	.Ldebug_ranges0+0x40
 2365 0a34 01       		.byte	0x1
 2366 0a35 A1       		.byte	0xa1
 2367 0a36 0A       		.byte	0xa
 2368 0a37 19       		.uleb128 0x19
 2369 0a38 DE0A0000 		.4byte	0xade
 2370 0a3c 8D030000 		.4byte	.LLST18
 2371 0a40 89030000 		.4byte	.LVUS18
 2372 0a44 19       		.uleb128 0x19
 2373 0a45 D30A0000 		.4byte	0xad3
 2374 0a49 AF030000 		.4byte	.LLST19
 2375 0a4d AD030000 		.4byte	.LVUS19
 2376 0a51 00       		.byte	0
 2377 0a52 00       		.byte	0
 2378 0a53 00       		.byte	0
 2379 0a54 1D       		.uleb128 0x1d
 2380 0a55 8C000000 		.4byte	.LVL20
 2381 0a59 260C0000 		.4byte	0xc26
 2382 0a5d 1C       		.uleb128 0x1c
 2383 0a5e 01       		.uleb128 0x1
 2384 0a5f 50       		.byte	0x50
 2385 0a60 02       		.uleb128 0x2
 2386 0a61 74       		.byte	0x74
 2387 0a62 00       		.sleb128 0
 2388 0a63 1C       		.uleb128 0x1c
 2389 0a64 01       		.uleb128 0x1
 2390 0a65 51       		.byte	0x51
 2391 0a66 01       		.uleb128 0x1
 2392 0a67 30       		.byte	0x30
 2393 0a68 00       		.byte	0
 2394 0a69 00       		.byte	0
ARM GAS  /var/folders/l5/0x54b2c10074c8bt31ycjvl80000gp/T//ccuPlkW0.s 			page 43


 2395 0a6a 2D       		.uleb128 0x2d
 2396 0a6b E3000000 		.4byte	.LASF113
 2397 0a6f 01       		.byte	0x1
 2398 0a70 96       		.byte	0x96
 2399 0a71 09       		.byte	0x9
 2400 0a72 58020000 		.4byte	0x258
 2401 0a76 01       		.byte	0x1
 2402 0a77 C20A0000 		.4byte	0xac2
 2403 0a7b 2E       		.uleb128 0x2e
 2404 0a7c 77737000 		.ascii	"wsp\000"
 2405 0a80 01       		.byte	0x1
 2406 0a81 96       		.byte	0x96
 2407 0a82 1C       		.byte	0x1c
 2408 0a83 A5020000 		.4byte	0x2a5
 2409 0a87 2F       		.uleb128 0x2f
 2410 0a88 C5010000 		.4byte	.LASF111
 2411 0a8c 01       		.byte	0x1
 2412 0a8d 96       		.byte	0x96
 2413 0a8e 28       		.byte	0x28
 2414 0a8f 2C000000 		.4byte	0x2c
 2415 0a93 2F       		.uleb128 0x2f
 2416 0a94 22000000 		.4byte	.LASF112
 2417 0a98 01       		.byte	0x1
 2418 0a99 97       		.byte	0x97
 2419 0a9a 1E       		.byte	0x1e
 2420 0a9b FB000000 		.4byte	0xfb
 2421 0a9f 2E       		.uleb128 0x2e
 2422 0aa0 706600   		.ascii	"pf\000"
 2423 0aa3 01       		.byte	0x1
 2424 0aa4 97       		.byte	0x97
 2425 0aa5 2C       		.byte	0x2c
 2426 0aa6 21050000 		.4byte	0x521
 2427 0aaa 2E       		.uleb128 0x2e
 2428 0aab 61726700 		.ascii	"arg\000"
 2429 0aaf 01       		.byte	0x1
 2430 0ab0 97       		.byte	0x97
 2431 0ab1 36       		.byte	0x36
 2432 0ab2 A5020000 		.4byte	0x2a5
 2433 0ab6 30       		.uleb128 0x30
 2434 0ab7 747000   		.ascii	"tp\000"
 2435 0aba 01       		.byte	0x1
 2436 0abb 99       		.byte	0x99
 2437 0abc 0B       		.byte	0xb
 2438 0abd 58020000 		.4byte	0x258
 2439 0ac1 00       		.byte	0
 2440 0ac2 2D       		.uleb128 0x2d
 2441 0ac3 84010000 		.4byte	.LASF114
 2442 0ac7 01       		.byte	0x1
 2443 0ac8 45       		.byte	0x45
 2444 0ac9 09       		.byte	0x9
 2445 0aca 58020000 		.4byte	0x258
 2446 0ace 01       		.byte	0x1
 2447 0acf EB0A0000 		.4byte	0xaeb
 2448 0ad3 2E       		.uleb128 0x2e
 2449 0ad4 747000   		.ascii	"tp\000"
 2450 0ad7 01       		.byte	0x1
 2451 0ad8 45       		.byte	0x45
ARM GAS  /var/folders/l5/0x54b2c10074c8bt31ycjvl80000gp/T//ccuPlkW0.s 			page 44


 2452 0ad9 1E       		.byte	0x1e
 2453 0ada 58020000 		.4byte	0x258
 2454 0ade 2F       		.uleb128 0x2f
 2455 0adf 22000000 		.4byte	.LASF112
 2456 0ae3 01       		.byte	0x1
 2457 0ae4 45       		.byte	0x45
 2458 0ae5 2A       		.byte	0x2a
 2459 0ae6 FB000000 		.4byte	0xfb
 2460 0aea 00       		.byte	0
 2461 0aeb 31       		.uleb128 0x31
 2462 0aec 2D010000 		.4byte	.LASF125
 2463 0af0 02       		.byte	0x2
 2464 0af1 4F       		.byte	0x4f
 2465 0af2 17       		.byte	0x17
 2466 0af3 58020000 		.4byte	0x258
 2467 0af7 03       		.byte	0x3
 2468 0af8 140B0000 		.4byte	0xb14
 2469 0afc 2E       		.uleb128 0x2e
 2470 0afd 746C7000 		.ascii	"tlp\000"
 2471 0b01 02       		.byte	0x2
 2472 0b02 4F       		.byte	0x4f
 2473 0b03 30       		.byte	0x30
 2474 0b04 140B0000 		.4byte	0xb14
 2475 0b08 30       		.uleb128 0x30
 2476 0b09 747000   		.ascii	"tp\000"
 2477 0b0c 02       		.byte	0x2
 2478 0b0d 51       		.byte	0x51
 2479 0b0e 0B       		.byte	0xb
 2480 0b0f 58020000 		.4byte	0x258
 2481 0b13 00       		.byte	0
 2482 0b14 0A       		.uleb128 0xa
 2483 0b15 04       		.byte	0x4
 2484 0b16 81020000 		.4byte	0x281
 2485 0b1a 32       		.uleb128 0x32
 2486 0b1b B2030000 		.4byte	.LASF126
 2487 0b1f 02       		.byte	0x2
 2488 0b20 49       		.byte	0x49
 2489 0b21 14       		.byte	0x14
 2490 0b22 03       		.byte	0x3
 2491 0b23 3F0B0000 		.4byte	0xb3f
 2492 0b27 2E       		.uleb128 0x2e
 2493 0b28 747000   		.ascii	"tp\000"
 2494 0b2b 02       		.byte	0x2
 2495 0b2c 49       		.byte	0x49
 2496 0b2d 28       		.byte	0x28
 2497 0b2e 58020000 		.4byte	0x258
 2498 0b32 2E       		.uleb128 0x2e
 2499 0b33 746C7000 		.ascii	"tlp\000"
 2500 0b37 02       		.byte	0x2
 2501 0b38 49       		.byte	0x49
 2502 0b39 39       		.byte	0x39
 2503 0b3a 140B0000 		.4byte	0xb14
 2504 0b3e 00       		.byte	0
 2505 0b3f 33       		.uleb128 0x33
 2506 0b40 C20A0000 		.4byte	0xac2
 2507 0b44 00000000 		.4byte	.LFB7
 2508 0b48 64000000 		.4byte	.LFE7-.LFB7
ARM GAS  /var/folders/l5/0x54b2c10074c8bt31ycjvl80000gp/T//ccuPlkW0.s 			page 45


 2509 0b4c 01       		.uleb128 0x1
 2510 0b4d 9C       		.byte	0x9c
 2511 0b4e 670B0000 		.4byte	0xb67
 2512 0b52 34       		.uleb128 0x34
 2513 0b53 D30A0000 		.4byte	0xad3
 2514 0b57 01       		.uleb128 0x1
 2515 0b58 50       		.byte	0x50
 2516 0b59 19       		.uleb128 0x19
 2517 0b5a DE0A0000 		.4byte	0xade
 2518 0b5e C6030000 		.4byte	.LLST0
 2519 0b62 C2030000 		.4byte	.LVUS0
 2520 0b66 00       		.byte	0
 2521 0b67 33       		.uleb128 0x33
 2522 0b68 6A0A0000 		.4byte	0xa6a
 2523 0b6c 00000000 		.4byte	.LFB8
 2524 0b70 88000000 		.4byte	.LFE8-.LFB8
 2525 0b74 01       		.uleb128 0x1
 2526 0b75 9C       		.byte	0x9c
 2527 0b76 EA0B0000 		.4byte	0xbea
 2528 0b7a 34       		.uleb128 0x34
 2529 0b7b 7B0A0000 		.4byte	0xa7b
 2530 0b7f 01       		.uleb128 0x1
 2531 0b80 50       		.byte	0x50
 2532 0b81 19       		.uleb128 0x19
 2533 0b82 870A0000 		.4byte	0xa87
 2534 0b86 EB030000 		.4byte	.LLST1
 2535 0b8a E5030000 		.4byte	.LVUS1
 2536 0b8e 19       		.uleb128 0x19
 2537 0b8f 930A0000 		.4byte	0xa93
 2538 0b93 1D040000 		.4byte	.LLST2
 2539 0b97 19040000 		.4byte	.LVUS2
 2540 0b9b 19       		.uleb128 0x19
 2541 0b9c 9F0A0000 		.4byte	0xa9f
 2542 0ba0 42040000 		.4byte	.LLST3
 2543 0ba4 3C040000 		.4byte	.LVUS3
 2544 0ba8 34       		.uleb128 0x34
 2545 0ba9 AA0A0000 		.4byte	0xaaa
 2546 0bad 02       		.uleb128 0x2
 2547 0bae 91       		.byte	0x91
 2548 0baf 00       		.sleb128 0
 2549 0bb0 20       		.uleb128 0x20
 2550 0bb1 B60A0000 		.4byte	0xab6
 2551 0bb5 71040000 		.4byte	.LLST4
 2552 0bb9 6F040000 		.4byte	.LVUS4
 2553 0bbd 2C       		.uleb128 0x2c
 2554 0bbe C20A0000 		.4byte	0xac2
 2555 0bc2 38000000 		.4byte	.LBI12
 2556 0bc6 02       		.byte	.LVU63
 2557 0bc7 00000000 		.4byte	.Ldebug_ranges0+0
 2558 0bcb 01       		.byte	0x1
 2559 0bcc A1       		.byte	0xa1
 2560 0bcd 0A       		.byte	0xa
 2561 0bce 19       		.uleb128 0x19
 2562 0bcf DE0A0000 		.4byte	0xade
 2563 0bd3 88040000 		.4byte	.LLST5
 2564 0bd7 84040000 		.4byte	.LVUS5
 2565 0bdb 19       		.uleb128 0x19
ARM GAS  /var/folders/l5/0x54b2c10074c8bt31ycjvl80000gp/T//ccuPlkW0.s 			page 46


 2566 0bdc D30A0000 		.4byte	0xad3
 2567 0be0 A9040000 		.4byte	.LLST6
 2568 0be4 A7040000 		.4byte	.LVUS6
 2569 0be8 00       		.byte	0
 2570 0be9 00       		.byte	0
 2571 0bea 35       		.uleb128 0x35
 2572 0beb 8D040000 		.4byte	.LASF115
 2573 0bef 8D040000 		.4byte	.LASF115
 2574 0bf3 0B       		.byte	0xb
 2575 0bf4 8C       		.byte	0x8c
 2576 0bf5 08       		.byte	0x8
 2577 0bf6 35       		.uleb128 0x35
 2578 0bf7 6C040000 		.4byte	.LASF116
 2579 0bfb 6C040000 		.4byte	.LASF116
 2580 0bff 0F       		.byte	0xf
 2581 0c00 33       		.byte	0x33
 2582 0c01 08       		.byte	0x8
 2583 0c02 35       		.uleb128 0x35
 2584 0c03 EB040000 		.4byte	.LASF117
 2585 0c07 EB040000 		.4byte	.LASF117
 2586 0c0b 0B       		.byte	0xb
 2587 0c0c 89       		.byte	0x89
 2588 0c0d 0B       		.byte	0xb
 2589 0c0e 35       		.uleb128 0x35
 2590 0c0f 66030000 		.4byte	.LASF118
 2591 0c13 66030000 		.4byte	.LASF118
 2592 0c17 0B       		.byte	0xb
 2593 0c18 9B       		.byte	0x9b
 2594 0c19 08       		.byte	0x8
 2595 0c1a 35       		.uleb128 0x35
 2596 0c1b B5050000 		.4byte	.LASF119
 2597 0c1f B5050000 		.4byte	.LASF119
 2598 0c23 0B       		.byte	0xb
 2599 0c24 8F       		.byte	0x8f
 2600 0c25 09       		.byte	0x9
 2601 0c26 35       		.uleb128 0x35
 2602 0c27 DD010000 		.4byte	.LASF120
 2603 0c2b DD010000 		.4byte	.LASF120
 2604 0c2f 0B       		.byte	0xb
 2605 0c30 92       		.byte	0x92
 2606 0c31 08       		.byte	0x8
 2607 0c32 35       		.uleb128 0x35
 2608 0c33 39010000 		.4byte	.LASF121
 2609 0c37 39010000 		.4byte	.LASF121
 2610 0c3b 0B       		.byte	0xb
 2611 0c3c 95       		.byte	0x95
 2612 0c3d 08       		.byte	0x8
 2613 0c3e 00       		.byte	0
 2614              		.section	.debug_abbrev,"",%progbits
 2615              	.Ldebug_abbrev0:
 2616 0000 01       		.uleb128 0x1
 2617 0001 11       		.uleb128 0x11
 2618 0002 01       		.byte	0x1
 2619 0003 25       		.uleb128 0x25
 2620 0004 0E       		.uleb128 0xe
 2621 0005 13       		.uleb128 0x13
 2622 0006 0B       		.uleb128 0xb
ARM GAS  /var/folders/l5/0x54b2c10074c8bt31ycjvl80000gp/T//ccuPlkW0.s 			page 47


 2623 0007 03       		.uleb128 0x3
 2624 0008 0E       		.uleb128 0xe
 2625 0009 1B       		.uleb128 0x1b
 2626 000a 0E       		.uleb128 0xe
 2627 000b 55       		.uleb128 0x55
 2628 000c 17       		.uleb128 0x17
 2629 000d 11       		.uleb128 0x11
 2630 000e 01       		.uleb128 0x1
 2631 000f 10       		.uleb128 0x10
 2632 0010 17       		.uleb128 0x17
 2633 0011 00       		.byte	0
 2634 0012 00       		.byte	0
 2635 0013 02       		.uleb128 0x2
 2636 0014 24       		.uleb128 0x24
 2637 0015 00       		.byte	0
 2638 0016 0B       		.uleb128 0xb
 2639 0017 0B       		.uleb128 0xb
 2640 0018 3E       		.uleb128 0x3e
 2641 0019 0B       		.uleb128 0xb
 2642 001a 03       		.uleb128 0x3
 2643 001b 08       		.uleb128 0x8
 2644 001c 00       		.byte	0
 2645 001d 00       		.byte	0
 2646 001e 03       		.uleb128 0x3
 2647 001f 16       		.uleb128 0x16
 2648 0020 00       		.byte	0
 2649 0021 03       		.uleb128 0x3
 2650 0022 0E       		.uleb128 0xe
 2651 0023 3A       		.uleb128 0x3a
 2652 0024 0B       		.uleb128 0xb
 2653 0025 3B       		.uleb128 0x3b
 2654 0026 0B       		.uleb128 0xb
 2655 0027 39       		.uleb128 0x39
 2656 0028 0B       		.uleb128 0xb
 2657 0029 49       		.uleb128 0x49
 2658 002a 13       		.uleb128 0x13
 2659 002b 00       		.byte	0
 2660 002c 00       		.byte	0
 2661 002d 04       		.uleb128 0x4
 2662 002e 24       		.uleb128 0x24
 2663 002f 00       		.byte	0
 2664 0030 0B       		.uleb128 0xb
 2665 0031 0B       		.uleb128 0xb
 2666 0032 3E       		.uleb128 0x3e
 2667 0033 0B       		.uleb128 0xb
 2668 0034 03       		.uleb128 0x3
 2669 0035 0E       		.uleb128 0xe
 2670 0036 00       		.byte	0
 2671 0037 00       		.byte	0
 2672 0038 05       		.uleb128 0x5
 2673 0039 35       		.uleb128 0x35
 2674 003a 00       		.byte	0
 2675 003b 49       		.uleb128 0x49
 2676 003c 13       		.uleb128 0x13
 2677 003d 00       		.byte	0
 2678 003e 00       		.byte	0
 2679 003f 06       		.uleb128 0x6
ARM GAS  /var/folders/l5/0x54b2c10074c8bt31ycjvl80000gp/T//ccuPlkW0.s 			page 48


 2680 0040 13       		.uleb128 0x13
 2681 0041 01       		.byte	0x1
 2682 0042 03       		.uleb128 0x3
 2683 0043 0E       		.uleb128 0xe
 2684 0044 0B       		.uleb128 0xb
 2685 0045 0B       		.uleb128 0xb
 2686 0046 3A       		.uleb128 0x3a
 2687 0047 0B       		.uleb128 0xb
 2688 0048 3B       		.uleb128 0x3b
 2689 0049 0B       		.uleb128 0xb
 2690 004a 39       		.uleb128 0x39
 2691 004b 0B       		.uleb128 0xb
 2692 004c 01       		.uleb128 0x1
 2693 004d 13       		.uleb128 0x13
 2694 004e 00       		.byte	0
 2695 004f 00       		.byte	0
 2696 0050 07       		.uleb128 0x7
 2697 0051 0D       		.uleb128 0xd
 2698 0052 00       		.byte	0
 2699 0053 03       		.uleb128 0x3
 2700 0054 0E       		.uleb128 0xe
 2701 0055 3A       		.uleb128 0x3a
 2702 0056 0B       		.uleb128 0xb
 2703 0057 3B       		.uleb128 0x3b
 2704 0058 0B       		.uleb128 0xb
 2705 0059 39       		.uleb128 0x39
 2706 005a 0B       		.uleb128 0xb
 2707 005b 49       		.uleb128 0x49
 2708 005c 13       		.uleb128 0x13
 2709 005d 38       		.uleb128 0x38
 2710 005e 0B       		.uleb128 0xb
 2711 005f 00       		.byte	0
 2712 0060 00       		.byte	0
 2713 0061 08       		.uleb128 0x8
 2714 0062 0D       		.uleb128 0xd
 2715 0063 00       		.byte	0
 2716 0064 03       		.uleb128 0x3
 2717 0065 08       		.uleb128 0x8
 2718 0066 3A       		.uleb128 0x3a
 2719 0067 0B       		.uleb128 0xb
 2720 0068 3B       		.uleb128 0x3b
 2721 0069 0B       		.uleb128 0xb
 2722 006a 39       		.uleb128 0x39
 2723 006b 0B       		.uleb128 0xb
 2724 006c 49       		.uleb128 0x49
 2725 006d 13       		.uleb128 0x13
 2726 006e 38       		.uleb128 0x38
 2727 006f 0B       		.uleb128 0xb
 2728 0070 00       		.byte	0
 2729 0071 00       		.byte	0
 2730 0072 09       		.uleb128 0x9
 2731 0073 13       		.uleb128 0x13
 2732 0074 01       		.byte	0x1
 2733 0075 0B       		.uleb128 0xb
 2734 0076 0B       		.uleb128 0xb
 2735 0077 3A       		.uleb128 0x3a
 2736 0078 0B       		.uleb128 0xb
ARM GAS  /var/folders/l5/0x54b2c10074c8bt31ycjvl80000gp/T//ccuPlkW0.s 			page 49


 2737 0079 3B       		.uleb128 0x3b
 2738 007a 0B       		.uleb128 0xb
 2739 007b 39       		.uleb128 0x39
 2740 007c 0B       		.uleb128 0xb
 2741 007d 01       		.uleb128 0x1
 2742 007e 13       		.uleb128 0x13
 2743 007f 00       		.byte	0
 2744 0080 00       		.byte	0
 2745 0081 0A       		.uleb128 0xa
 2746 0082 0F       		.uleb128 0xf
 2747 0083 00       		.byte	0
 2748 0084 0B       		.uleb128 0xb
 2749 0085 0B       		.uleb128 0xb
 2750 0086 49       		.uleb128 0x49
 2751 0087 13       		.uleb128 0x13
 2752 0088 00       		.byte	0
 2753 0089 00       		.byte	0
 2754 008a 0B       		.uleb128 0xb
 2755 008b 0F       		.uleb128 0xf
 2756 008c 00       		.byte	0
 2757 008d 0B       		.uleb128 0xb
 2758 008e 0B       		.uleb128 0xb
 2759 008f 00       		.byte	0
 2760 0090 00       		.byte	0
 2761 0091 0C       		.uleb128 0xc
 2762 0092 15       		.uleb128 0x15
 2763 0093 01       		.byte	0x1
 2764 0094 27       		.uleb128 0x27
 2765 0095 19       		.uleb128 0x19
 2766 0096 01       		.uleb128 0x1
 2767 0097 13       		.uleb128 0x13
 2768 0098 00       		.byte	0
 2769 0099 00       		.byte	0
 2770 009a 0D       		.uleb128 0xd
 2771 009b 05       		.uleb128 0x5
 2772 009c 00       		.byte	0
 2773 009d 49       		.uleb128 0x49
 2774 009e 13       		.uleb128 0x13
 2775 009f 00       		.byte	0
 2776 00a0 00       		.byte	0
 2777 00a1 0E       		.uleb128 0xe
 2778 00a2 34       		.uleb128 0x34
 2779 00a3 00       		.byte	0
 2780 00a4 03       		.uleb128 0x3
 2781 00a5 0E       		.uleb128 0xe
 2782 00a6 3A       		.uleb128 0x3a
 2783 00a7 0B       		.uleb128 0xb
 2784 00a8 3B       		.uleb128 0x3b
 2785 00a9 0B       		.uleb128 0xb
 2786 00aa 39       		.uleb128 0x39
 2787 00ab 0B       		.uleb128 0xb
 2788 00ac 49       		.uleb128 0x49
 2789 00ad 13       		.uleb128 0x13
 2790 00ae 3F       		.uleb128 0x3f
 2791 00af 19       		.uleb128 0x19
 2792 00b0 3C       		.uleb128 0x3c
 2793 00b1 19       		.uleb128 0x19
ARM GAS  /var/folders/l5/0x54b2c10074c8bt31ycjvl80000gp/T//ccuPlkW0.s 			page 50


 2794 00b2 00       		.byte	0
 2795 00b3 00       		.byte	0
 2796 00b4 0F       		.uleb128 0xf
 2797 00b5 17       		.uleb128 0x17
 2798 00b6 01       		.byte	0x1
 2799 00b7 0B       		.uleb128 0xb
 2800 00b8 0B       		.uleb128 0xb
 2801 00b9 3A       		.uleb128 0x3a
 2802 00ba 0B       		.uleb128 0xb
 2803 00bb 3B       		.uleb128 0x3b
 2804 00bc 0B       		.uleb128 0xb
 2805 00bd 39       		.uleb128 0x39
 2806 00be 0B       		.uleb128 0xb
 2807 00bf 01       		.uleb128 0x1
 2808 00c0 13       		.uleb128 0x13
 2809 00c1 00       		.byte	0
 2810 00c2 00       		.byte	0
 2811 00c3 10       		.uleb128 0x10
 2812 00c4 0D       		.uleb128 0xd
 2813 00c5 00       		.byte	0
 2814 00c6 03       		.uleb128 0x3
 2815 00c7 0E       		.uleb128 0xe
 2816 00c8 3A       		.uleb128 0x3a
 2817 00c9 0B       		.uleb128 0xb
 2818 00ca 3B       		.uleb128 0x3b
 2819 00cb 0B       		.uleb128 0xb
 2820 00cc 39       		.uleb128 0x39
 2821 00cd 0B       		.uleb128 0xb
 2822 00ce 49       		.uleb128 0x49
 2823 00cf 13       		.uleb128 0x13
 2824 00d0 00       		.byte	0
 2825 00d1 00       		.byte	0
 2826 00d2 11       		.uleb128 0x11
 2827 00d3 26       		.uleb128 0x26
 2828 00d4 00       		.byte	0
 2829 00d5 49       		.uleb128 0x49
 2830 00d6 13       		.uleb128 0x13
 2831 00d7 00       		.byte	0
 2832 00d8 00       		.byte	0
 2833 00d9 12       		.uleb128 0x12
 2834 00da 15       		.uleb128 0x15
 2835 00db 01       		.byte	0x1
 2836 00dc 27       		.uleb128 0x27
 2837 00dd 19       		.uleb128 0x19
 2838 00de 49       		.uleb128 0x49
 2839 00df 13       		.uleb128 0x13
 2840 00e0 01       		.uleb128 0x1
 2841 00e1 13       		.uleb128 0x13
 2842 00e2 00       		.byte	0
 2843 00e3 00       		.byte	0
 2844 00e4 13       		.uleb128 0x13
 2845 00e5 01       		.uleb128 0x1
 2846 00e6 01       		.byte	0x1
 2847 00e7 49       		.uleb128 0x49
 2848 00e8 13       		.uleb128 0x13
 2849 00e9 01       		.uleb128 0x1
 2850 00ea 13       		.uleb128 0x13
ARM GAS  /var/folders/l5/0x54b2c10074c8bt31ycjvl80000gp/T//ccuPlkW0.s 			page 51


 2851 00eb 00       		.byte	0
 2852 00ec 00       		.byte	0
 2853 00ed 14       		.uleb128 0x14
 2854 00ee 21       		.uleb128 0x21
 2855 00ef 00       		.byte	0
 2856 00f0 49       		.uleb128 0x49
 2857 00f1 13       		.uleb128 0x13
 2858 00f2 2F       		.uleb128 0x2f
 2859 00f3 0B       		.uleb128 0xb
 2860 00f4 00       		.byte	0
 2861 00f5 00       		.byte	0
 2862 00f6 15       		.uleb128 0x15
 2863 00f7 2E       		.uleb128 0x2e
 2864 00f8 01       		.byte	0x1
 2865 00f9 3F       		.uleb128 0x3f
 2866 00fa 19       		.uleb128 0x19
 2867 00fb 03       		.uleb128 0x3
 2868 00fc 0E       		.uleb128 0xe
 2869 00fd 3A       		.uleb128 0x3a
 2870 00fe 0B       		.uleb128 0xb
 2871 00ff 3B       		.uleb128 0x3b
 2872 0100 05       		.uleb128 0x5
 2873 0101 39       		.uleb128 0x39
 2874 0102 0B       		.uleb128 0xb
 2875 0103 27       		.uleb128 0x27
 2876 0104 19       		.uleb128 0x19
 2877 0105 49       		.uleb128 0x49
 2878 0106 13       		.uleb128 0x13
 2879 0107 11       		.uleb128 0x11
 2880 0108 01       		.uleb128 0x1
 2881 0109 12       		.uleb128 0x12
 2882 010a 06       		.uleb128 0x6
 2883 010b 40       		.uleb128 0x40
 2884 010c 18       		.uleb128 0x18
 2885 010d 9742     		.uleb128 0x2117
 2886 010f 19       		.uleb128 0x19
 2887 0110 01       		.uleb128 0x1
 2888 0111 13       		.uleb128 0x13
 2889 0112 00       		.byte	0
 2890 0113 00       		.byte	0
 2891 0114 16       		.uleb128 0x16
 2892 0115 05       		.uleb128 0x5
 2893 0116 00       		.byte	0
 2894 0117 03       		.uleb128 0x3
 2895 0118 08       		.uleb128 0x8
 2896 0119 3A       		.uleb128 0x3a
 2897 011a 0B       		.uleb128 0xb
 2898 011b 3B       		.uleb128 0x3b
 2899 011c 05       		.uleb128 0x5
 2900 011d 39       		.uleb128 0x39
 2901 011e 0B       		.uleb128 0xb
 2902 011f 49       		.uleb128 0x49
 2903 0120 13       		.uleb128 0x13
 2904 0121 02       		.uleb128 0x2
 2905 0122 17       		.uleb128 0x17
 2906 0123 B742     		.uleb128 0x2137
 2907 0125 17       		.uleb128 0x17
ARM GAS  /var/folders/l5/0x54b2c10074c8bt31ycjvl80000gp/T//ccuPlkW0.s 			page 52


 2908 0126 00       		.byte	0
 2909 0127 00       		.byte	0
 2910 0128 17       		.uleb128 0x17
 2911 0129 34       		.uleb128 0x34
 2912 012a 00       		.byte	0
 2913 012b 03       		.uleb128 0x3
 2914 012c 08       		.uleb128 0x8
 2915 012d 3A       		.uleb128 0x3a
 2916 012e 0B       		.uleb128 0xb
 2917 012f 3B       		.uleb128 0x3b
 2918 0130 05       		.uleb128 0x5
 2919 0131 39       		.uleb128 0x39
 2920 0132 0B       		.uleb128 0xb
 2921 0133 49       		.uleb128 0x49
 2922 0134 13       		.uleb128 0x13
 2923 0135 02       		.uleb128 0x2
 2924 0136 17       		.uleb128 0x17
 2925 0137 B742     		.uleb128 0x2137
 2926 0139 17       		.uleb128 0x17
 2927 013a 00       		.byte	0
 2928 013b 00       		.byte	0
 2929 013c 18       		.uleb128 0x18
 2930 013d 1D       		.uleb128 0x1d
 2931 013e 01       		.byte	0x1
 2932 013f 31       		.uleb128 0x31
 2933 0140 13       		.uleb128 0x13
 2934 0141 52       		.uleb128 0x52
 2935 0142 01       		.uleb128 0x1
 2936 0143 B842     		.uleb128 0x2138
 2937 0145 0B       		.uleb128 0xb
 2938 0146 55       		.uleb128 0x55
 2939 0147 17       		.uleb128 0x17
 2940 0148 58       		.uleb128 0x58
 2941 0149 0B       		.uleb128 0xb
 2942 014a 59       		.uleb128 0x59
 2943 014b 05       		.uleb128 0x5
 2944 014c 57       		.uleb128 0x57
 2945 014d 0B       		.uleb128 0xb
 2946 014e 01       		.uleb128 0x1
 2947 014f 13       		.uleb128 0x13
 2948 0150 00       		.byte	0
 2949 0151 00       		.byte	0
 2950 0152 19       		.uleb128 0x19
 2951 0153 05       		.uleb128 0x5
 2952 0154 00       		.byte	0
 2953 0155 31       		.uleb128 0x31
 2954 0156 13       		.uleb128 0x13
 2955 0157 02       		.uleb128 0x2
 2956 0158 17       		.uleb128 0x17
 2957 0159 B742     		.uleb128 0x2137
 2958 015b 17       		.uleb128 0x17
 2959 015c 00       		.byte	0
 2960 015d 00       		.byte	0
 2961 015e 1A       		.uleb128 0x1a
 2962 015f 05       		.uleb128 0x5
 2963 0160 00       		.byte	0
 2964 0161 31       		.uleb128 0x31
ARM GAS  /var/folders/l5/0x54b2c10074c8bt31ycjvl80000gp/T//ccuPlkW0.s 			page 53


 2965 0162 13       		.uleb128 0x13
 2966 0163 00       		.byte	0
 2967 0164 00       		.byte	0
 2968 0165 1B       		.uleb128 0x1b
 2969 0166 898201   		.uleb128 0x4109
 2970 0169 01       		.byte	0x1
 2971 016a 11       		.uleb128 0x11
 2972 016b 01       		.uleb128 0x1
 2973 016c 31       		.uleb128 0x31
 2974 016d 13       		.uleb128 0x13
 2975 016e 01       		.uleb128 0x1
 2976 016f 13       		.uleb128 0x13
 2977 0170 00       		.byte	0
 2978 0171 00       		.byte	0
 2979 0172 1C       		.uleb128 0x1c
 2980 0173 8A8201   		.uleb128 0x410a
 2981 0176 00       		.byte	0
 2982 0177 02       		.uleb128 0x2
 2983 0178 18       		.uleb128 0x18
 2984 0179 9142     		.uleb128 0x2111
 2985 017b 18       		.uleb128 0x18
 2986 017c 00       		.byte	0
 2987 017d 00       		.byte	0
 2988 017e 1D       		.uleb128 0x1d
 2989 017f 898201   		.uleb128 0x4109
 2990 0182 01       		.byte	0x1
 2991 0183 11       		.uleb128 0x11
 2992 0184 01       		.uleb128 0x1
 2993 0185 31       		.uleb128 0x31
 2994 0186 13       		.uleb128 0x13
 2995 0187 00       		.byte	0
 2996 0188 00       		.byte	0
 2997 0189 1E       		.uleb128 0x1e
 2998 018a 2E       		.uleb128 0x2e
 2999 018b 01       		.byte	0x1
 3000 018c 3F       		.uleb128 0x3f
 3001 018d 19       		.uleb128 0x19
 3002 018e 03       		.uleb128 0x3
 3003 018f 0E       		.uleb128 0xe
 3004 0190 3A       		.uleb128 0x3a
 3005 0191 0B       		.uleb128 0xb
 3006 0192 3B       		.uleb128 0x3b
 3007 0193 05       		.uleb128 0x5
 3008 0194 39       		.uleb128 0x39
 3009 0195 0B       		.uleb128 0xb
 3010 0196 27       		.uleb128 0x27
 3011 0197 19       		.uleb128 0x19
 3012 0198 11       		.uleb128 0x11
 3013 0199 01       		.uleb128 0x1
 3014 019a 12       		.uleb128 0x12
 3015 019b 06       		.uleb128 0x6
 3016 019c 40       		.uleb128 0x40
 3017 019d 18       		.uleb128 0x18
 3018 019e 9742     		.uleb128 0x2117
 3019 01a0 19       		.uleb128 0x19
 3020 01a1 01       		.uleb128 0x1
 3021 01a2 13       		.uleb128 0x13
ARM GAS  /var/folders/l5/0x54b2c10074c8bt31ycjvl80000gp/T//ccuPlkW0.s 			page 54


 3022 01a3 00       		.byte	0
 3023 01a4 00       		.byte	0
 3024 01a5 1F       		.uleb128 0x1f
 3025 01a6 0B       		.uleb128 0xb
 3026 01a7 01       		.byte	0x1
 3027 01a8 55       		.uleb128 0x55
 3028 01a9 17       		.uleb128 0x17
 3029 01aa 00       		.byte	0
 3030 01ab 00       		.byte	0
 3031 01ac 20       		.uleb128 0x20
 3032 01ad 34       		.uleb128 0x34
 3033 01ae 00       		.byte	0
 3034 01af 31       		.uleb128 0x31
 3035 01b0 13       		.uleb128 0x13
 3036 01b1 02       		.uleb128 0x2
 3037 01b2 17       		.uleb128 0x17
 3038 01b3 B742     		.uleb128 0x2137
 3039 01b5 17       		.uleb128 0x17
 3040 01b6 00       		.byte	0
 3041 01b7 00       		.byte	0
 3042 01b8 21       		.uleb128 0x21
 3043 01b9 898201   		.uleb128 0x4109
 3044 01bc 00       		.byte	0
 3045 01bd 11       		.uleb128 0x11
 3046 01be 01       		.uleb128 0x1
 3047 01bf 31       		.uleb128 0x31
 3048 01c0 13       		.uleb128 0x13
 3049 01c1 00       		.byte	0
 3050 01c2 00       		.byte	0
 3051 01c3 22       		.uleb128 0x22
 3052 01c4 898201   		.uleb128 0x4109
 3053 01c7 01       		.byte	0x1
 3054 01c8 11       		.uleb128 0x11
 3055 01c9 01       		.uleb128 0x1
 3056 01ca 9542     		.uleb128 0x2115
 3057 01cc 19       		.uleb128 0x19
 3058 01cd 31       		.uleb128 0x31
 3059 01ce 13       		.uleb128 0x13
 3060 01cf 00       		.byte	0
 3061 01d0 00       		.byte	0
 3062 01d1 23       		.uleb128 0x23
 3063 01d2 05       		.uleb128 0x5
 3064 01d3 00       		.byte	0
 3065 01d4 03       		.uleb128 0x3
 3066 01d5 0E       		.uleb128 0xe
 3067 01d6 3A       		.uleb128 0x3a
 3068 01d7 0B       		.uleb128 0xb
 3069 01d8 3B       		.uleb128 0x3b
 3070 01d9 05       		.uleb128 0x5
 3071 01da 39       		.uleb128 0x39
 3072 01db 0B       		.uleb128 0xb
 3073 01dc 49       		.uleb128 0x49
 3074 01dd 13       		.uleb128 0x13
 3075 01de 02       		.uleb128 0x2
 3076 01df 17       		.uleb128 0x17
 3077 01e0 B742     		.uleb128 0x2137
 3078 01e2 17       		.uleb128 0x17
ARM GAS  /var/folders/l5/0x54b2c10074c8bt31ycjvl80000gp/T//ccuPlkW0.s 			page 55


 3079 01e3 00       		.byte	0
 3080 01e4 00       		.byte	0
 3081 01e5 24       		.uleb128 0x24
 3082 01e6 05       		.uleb128 0x5
 3083 01e7 00       		.byte	0
 3084 01e8 03       		.uleb128 0x3
 3085 01e9 08       		.uleb128 0x8
 3086 01ea 3A       		.uleb128 0x3a
 3087 01eb 0B       		.uleb128 0xb
 3088 01ec 3B       		.uleb128 0x3b
 3089 01ed 05       		.uleb128 0x5
 3090 01ee 39       		.uleb128 0x39
 3091 01ef 0B       		.uleb128 0xb
 3092 01f0 49       		.uleb128 0x49
 3093 01f1 13       		.uleb128 0x13
 3094 01f2 02       		.uleb128 0x2
 3095 01f3 18       		.uleb128 0x18
 3096 01f4 00       		.byte	0
 3097 01f5 00       		.byte	0
 3098 01f6 25       		.uleb128 0x25
 3099 01f7 2E       		.uleb128 0x2e
 3100 01f8 01       		.byte	0x1
 3101 01f9 3F       		.uleb128 0x3f
 3102 01fa 19       		.uleb128 0x19
 3103 01fb 03       		.uleb128 0x3
 3104 01fc 0E       		.uleb128 0xe
 3105 01fd 3A       		.uleb128 0x3a
 3106 01fe 0B       		.uleb128 0xb
 3107 01ff 3B       		.uleb128 0x3b
 3108 0200 0B       		.uleb128 0xb
 3109 0201 39       		.uleb128 0x39
 3110 0202 0B       		.uleb128 0xb
 3111 0203 27       		.uleb128 0x27
 3112 0204 19       		.uleb128 0x19
 3113 0205 49       		.uleb128 0x49
 3114 0206 13       		.uleb128 0x13
 3115 0207 11       		.uleb128 0x11
 3116 0208 01       		.uleb128 0x1
 3117 0209 12       		.uleb128 0x12
 3118 020a 06       		.uleb128 0x6
 3119 020b 40       		.uleb128 0x40
 3120 020c 18       		.uleb128 0x18
 3121 020d 9742     		.uleb128 0x2117
 3122 020f 19       		.uleb128 0x19
 3123 0210 01       		.uleb128 0x1
 3124 0211 13       		.uleb128 0x13
 3125 0212 00       		.byte	0
 3126 0213 00       		.byte	0
 3127 0214 26       		.uleb128 0x26
 3128 0215 05       		.uleb128 0x5
 3129 0216 00       		.byte	0
 3130 0217 03       		.uleb128 0x3
 3131 0218 08       		.uleb128 0x8
 3132 0219 3A       		.uleb128 0x3a
 3133 021a 0B       		.uleb128 0xb
 3134 021b 3B       		.uleb128 0x3b
 3135 021c 0B       		.uleb128 0xb
ARM GAS  /var/folders/l5/0x54b2c10074c8bt31ycjvl80000gp/T//ccuPlkW0.s 			page 56


 3136 021d 39       		.uleb128 0x39
 3137 021e 0B       		.uleb128 0xb
 3138 021f 49       		.uleb128 0x49
 3139 0220 13       		.uleb128 0x13
 3140 0221 02       		.uleb128 0x2
 3141 0222 17       		.uleb128 0x17
 3142 0223 B742     		.uleb128 0x2137
 3143 0225 17       		.uleb128 0x17
 3144 0226 00       		.byte	0
 3145 0227 00       		.byte	0
 3146 0228 27       		.uleb128 0x27
 3147 0229 05       		.uleb128 0x5
 3148 022a 00       		.byte	0
 3149 022b 03       		.uleb128 0x3
 3150 022c 0E       		.uleb128 0xe
 3151 022d 3A       		.uleb128 0x3a
 3152 022e 0B       		.uleb128 0xb
 3153 022f 3B       		.uleb128 0x3b
 3154 0230 0B       		.uleb128 0xb
 3155 0231 39       		.uleb128 0x39
 3156 0232 0B       		.uleb128 0xb
 3157 0233 49       		.uleb128 0x49
 3158 0234 13       		.uleb128 0x13
 3159 0235 02       		.uleb128 0x2
 3160 0236 17       		.uleb128 0x17
 3161 0237 B742     		.uleb128 0x2137
 3162 0239 17       		.uleb128 0x17
 3163 023a 00       		.byte	0
 3164 023b 00       		.byte	0
 3165 023c 28       		.uleb128 0x28
 3166 023d 34       		.uleb128 0x34
 3167 023e 00       		.byte	0
 3168 023f 03       		.uleb128 0x3
 3169 0240 0E       		.uleb128 0xe
 3170 0241 3A       		.uleb128 0x3a
 3171 0242 0B       		.uleb128 0xb
 3172 0243 3B       		.uleb128 0x3b
 3173 0244 0B       		.uleb128 0xb
 3174 0245 39       		.uleb128 0x39
 3175 0246 0B       		.uleb128 0xb
 3176 0247 49       		.uleb128 0x49
 3177 0248 13       		.uleb128 0x13
 3178 0249 02       		.uleb128 0x2
 3179 024a 17       		.uleb128 0x17
 3180 024b B742     		.uleb128 0x2137
 3181 024d 17       		.uleb128 0x17
 3182 024e 00       		.byte	0
 3183 024f 00       		.byte	0
 3184 0250 29       		.uleb128 0x29
 3185 0251 05       		.uleb128 0x5
 3186 0252 00       		.byte	0
 3187 0253 03       		.uleb128 0x3
 3188 0254 08       		.uleb128 0x8
 3189 0255 3A       		.uleb128 0x3a
 3190 0256 0B       		.uleb128 0xb
 3191 0257 3B       		.uleb128 0x3b
 3192 0258 0B       		.uleb128 0xb
ARM GAS  /var/folders/l5/0x54b2c10074c8bt31ycjvl80000gp/T//ccuPlkW0.s 			page 57


 3193 0259 39       		.uleb128 0x39
 3194 025a 0B       		.uleb128 0xb
 3195 025b 49       		.uleb128 0x49
 3196 025c 13       		.uleb128 0x13
 3197 025d 02       		.uleb128 0x2
 3198 025e 18       		.uleb128 0x18
 3199 025f 00       		.byte	0
 3200 0260 00       		.byte	0
 3201 0261 2A       		.uleb128 0x2a
 3202 0262 34       		.uleb128 0x34
 3203 0263 00       		.byte	0
 3204 0264 03       		.uleb128 0x3
 3205 0265 08       		.uleb128 0x8
 3206 0266 3A       		.uleb128 0x3a
 3207 0267 0B       		.uleb128 0xb
 3208 0268 3B       		.uleb128 0x3b
 3209 0269 0B       		.uleb128 0xb
 3210 026a 39       		.uleb128 0x39
 3211 026b 0B       		.uleb128 0xb
 3212 026c 49       		.uleb128 0x49
 3213 026d 13       		.uleb128 0x13
 3214 026e 02       		.uleb128 0x2
 3215 026f 17       		.uleb128 0x17
 3216 0270 B742     		.uleb128 0x2137
 3217 0272 17       		.uleb128 0x17
 3218 0273 00       		.byte	0
 3219 0274 00       		.byte	0
 3220 0275 2B       		.uleb128 0x2b
 3221 0276 1D       		.uleb128 0x1d
 3222 0277 01       		.byte	0x1
 3223 0278 31       		.uleb128 0x31
 3224 0279 13       		.uleb128 0x13
 3225 027a 52       		.uleb128 0x52
 3226 027b 01       		.uleb128 0x1
 3227 027c B842     		.uleb128 0x2138
 3228 027e 0B       		.uleb128 0xb
 3229 027f 55       		.uleb128 0x55
 3230 0280 17       		.uleb128 0x17
 3231 0281 58       		.uleb128 0x58
 3232 0282 0B       		.uleb128 0xb
 3233 0283 59       		.uleb128 0x59
 3234 0284 0B       		.uleb128 0xb
 3235 0285 57       		.uleb128 0x57
 3236 0286 0B       		.uleb128 0xb
 3237 0287 01       		.uleb128 0x1
 3238 0288 13       		.uleb128 0x13
 3239 0289 00       		.byte	0
 3240 028a 00       		.byte	0
 3241 028b 2C       		.uleb128 0x2c
 3242 028c 1D       		.uleb128 0x1d
 3243 028d 01       		.byte	0x1
 3244 028e 31       		.uleb128 0x31
 3245 028f 13       		.uleb128 0x13
 3246 0290 52       		.uleb128 0x52
 3247 0291 01       		.uleb128 0x1
 3248 0292 B842     		.uleb128 0x2138
 3249 0294 0B       		.uleb128 0xb
ARM GAS  /var/folders/l5/0x54b2c10074c8bt31ycjvl80000gp/T//ccuPlkW0.s 			page 58


 3250 0295 55       		.uleb128 0x55
 3251 0296 17       		.uleb128 0x17
 3252 0297 58       		.uleb128 0x58
 3253 0298 0B       		.uleb128 0xb
 3254 0299 59       		.uleb128 0x59
 3255 029a 0B       		.uleb128 0xb
 3256 029b 57       		.uleb128 0x57
 3257 029c 0B       		.uleb128 0xb
 3258 029d 00       		.byte	0
 3259 029e 00       		.byte	0
 3260 029f 2D       		.uleb128 0x2d
 3261 02a0 2E       		.uleb128 0x2e
 3262 02a1 01       		.byte	0x1
 3263 02a2 3F       		.uleb128 0x3f
 3264 02a3 19       		.uleb128 0x19
 3265 02a4 03       		.uleb128 0x3
 3266 02a5 0E       		.uleb128 0xe
 3267 02a6 3A       		.uleb128 0x3a
 3268 02a7 0B       		.uleb128 0xb
 3269 02a8 3B       		.uleb128 0x3b
 3270 02a9 0B       		.uleb128 0xb
 3271 02aa 39       		.uleb128 0x39
 3272 02ab 0B       		.uleb128 0xb
 3273 02ac 27       		.uleb128 0x27
 3274 02ad 19       		.uleb128 0x19
 3275 02ae 49       		.uleb128 0x49
 3276 02af 13       		.uleb128 0x13
 3277 02b0 20       		.uleb128 0x20
 3278 02b1 0B       		.uleb128 0xb
 3279 02b2 01       		.uleb128 0x1
 3280 02b3 13       		.uleb128 0x13
 3281 02b4 00       		.byte	0
 3282 02b5 00       		.byte	0
 3283 02b6 2E       		.uleb128 0x2e
 3284 02b7 05       		.uleb128 0x5
 3285 02b8 00       		.byte	0
 3286 02b9 03       		.uleb128 0x3
 3287 02ba 08       		.uleb128 0x8
 3288 02bb 3A       		.uleb128 0x3a
 3289 02bc 0B       		.uleb128 0xb
 3290 02bd 3B       		.uleb128 0x3b
 3291 02be 0B       		.uleb128 0xb
 3292 02bf 39       		.uleb128 0x39
 3293 02c0 0B       		.uleb128 0xb
 3294 02c1 49       		.uleb128 0x49
 3295 02c2 13       		.uleb128 0x13
 3296 02c3 00       		.byte	0
 3297 02c4 00       		.byte	0
 3298 02c5 2F       		.uleb128 0x2f
 3299 02c6 05       		.uleb128 0x5
 3300 02c7 00       		.byte	0
 3301 02c8 03       		.uleb128 0x3
 3302 02c9 0E       		.uleb128 0xe
 3303 02ca 3A       		.uleb128 0x3a
 3304 02cb 0B       		.uleb128 0xb
 3305 02cc 3B       		.uleb128 0x3b
 3306 02cd 0B       		.uleb128 0xb
ARM GAS  /var/folders/l5/0x54b2c10074c8bt31ycjvl80000gp/T//ccuPlkW0.s 			page 59


 3307 02ce 39       		.uleb128 0x39
 3308 02cf 0B       		.uleb128 0xb
 3309 02d0 49       		.uleb128 0x49
 3310 02d1 13       		.uleb128 0x13
 3311 02d2 00       		.byte	0
 3312 02d3 00       		.byte	0
 3313 02d4 30       		.uleb128 0x30
 3314 02d5 34       		.uleb128 0x34
 3315 02d6 00       		.byte	0
 3316 02d7 03       		.uleb128 0x3
 3317 02d8 08       		.uleb128 0x8
 3318 02d9 3A       		.uleb128 0x3a
 3319 02da 0B       		.uleb128 0xb
 3320 02db 3B       		.uleb128 0x3b
 3321 02dc 0B       		.uleb128 0xb
 3322 02dd 39       		.uleb128 0x39
 3323 02de 0B       		.uleb128 0xb
 3324 02df 49       		.uleb128 0x49
 3325 02e0 13       		.uleb128 0x13
 3326 02e1 00       		.byte	0
 3327 02e2 00       		.byte	0
 3328 02e3 31       		.uleb128 0x31
 3329 02e4 2E       		.uleb128 0x2e
 3330 02e5 01       		.byte	0x1
 3331 02e6 03       		.uleb128 0x3
 3332 02e7 0E       		.uleb128 0xe
 3333 02e8 3A       		.uleb128 0x3a
 3334 02e9 0B       		.uleb128 0xb
 3335 02ea 3B       		.uleb128 0x3b
 3336 02eb 0B       		.uleb128 0xb
 3337 02ec 39       		.uleb128 0x39
 3338 02ed 0B       		.uleb128 0xb
 3339 02ee 27       		.uleb128 0x27
 3340 02ef 19       		.uleb128 0x19
 3341 02f0 49       		.uleb128 0x49
 3342 02f1 13       		.uleb128 0x13
 3343 02f2 20       		.uleb128 0x20
 3344 02f3 0B       		.uleb128 0xb
 3345 02f4 01       		.uleb128 0x1
 3346 02f5 13       		.uleb128 0x13
 3347 02f6 00       		.byte	0
 3348 02f7 00       		.byte	0
 3349 02f8 32       		.uleb128 0x32
 3350 02f9 2E       		.uleb128 0x2e
 3351 02fa 01       		.byte	0x1
 3352 02fb 03       		.uleb128 0x3
 3353 02fc 0E       		.uleb128 0xe
 3354 02fd 3A       		.uleb128 0x3a
 3355 02fe 0B       		.uleb128 0xb
 3356 02ff 3B       		.uleb128 0x3b
 3357 0300 0B       		.uleb128 0xb
 3358 0301 39       		.uleb128 0x39
 3359 0302 0B       		.uleb128 0xb
 3360 0303 27       		.uleb128 0x27
 3361 0304 19       		.uleb128 0x19
 3362 0305 20       		.uleb128 0x20
 3363 0306 0B       		.uleb128 0xb
ARM GAS  /var/folders/l5/0x54b2c10074c8bt31ycjvl80000gp/T//ccuPlkW0.s 			page 60


 3364 0307 01       		.uleb128 0x1
 3365 0308 13       		.uleb128 0x13
 3366 0309 00       		.byte	0
 3367 030a 00       		.byte	0
 3368 030b 33       		.uleb128 0x33
 3369 030c 2E       		.uleb128 0x2e
 3370 030d 01       		.byte	0x1
 3371 030e 31       		.uleb128 0x31
 3372 030f 13       		.uleb128 0x13
 3373 0310 11       		.uleb128 0x11
 3374 0311 01       		.uleb128 0x1
 3375 0312 12       		.uleb128 0x12
 3376 0313 06       		.uleb128 0x6
 3377 0314 40       		.uleb128 0x40
 3378 0315 18       		.uleb128 0x18
 3379 0316 9742     		.uleb128 0x2117
 3380 0318 19       		.uleb128 0x19
 3381 0319 01       		.uleb128 0x1
 3382 031a 13       		.uleb128 0x13
 3383 031b 00       		.byte	0
 3384 031c 00       		.byte	0
 3385 031d 34       		.uleb128 0x34
 3386 031e 05       		.uleb128 0x5
 3387 031f 00       		.byte	0
 3388 0320 31       		.uleb128 0x31
 3389 0321 13       		.uleb128 0x13
 3390 0322 02       		.uleb128 0x2
 3391 0323 18       		.uleb128 0x18
 3392 0324 00       		.byte	0
 3393 0325 00       		.byte	0
 3394 0326 35       		.uleb128 0x35
 3395 0327 2E       		.uleb128 0x2e
 3396 0328 00       		.byte	0
 3397 0329 3F       		.uleb128 0x3f
 3398 032a 19       		.uleb128 0x19
 3399 032b 3C       		.uleb128 0x3c
 3400 032c 19       		.uleb128 0x19
 3401 032d 6E       		.uleb128 0x6e
 3402 032e 0E       		.uleb128 0xe
 3403 032f 03       		.uleb128 0x3
 3404 0330 0E       		.uleb128 0xe
 3405 0331 3A       		.uleb128 0x3a
 3406 0332 0B       		.uleb128 0xb
 3407 0333 3B       		.uleb128 0x3b
 3408 0334 0B       		.uleb128 0xb
 3409 0335 39       		.uleb128 0x39
 3410 0336 0B       		.uleb128 0xb
 3411 0337 00       		.byte	0
 3412 0338 00       		.byte	0
 3413 0339 00       		.byte	0
 3414              		.section	.debug_loc,"",%progbits
 3415              	.Ldebug_loc0:
 3416              	.LVUS30:
 3417 0000 00       		.uleb128 0
 3418 0001 00       		.uleb128 .LVU335
 3419 0002 00       		.uleb128 .LVU335
 3420 0003 00       		.uleb128 0
ARM GAS  /var/folders/l5/0x54b2c10074c8bt31ycjvl80000gp/T//ccuPlkW0.s 			page 61


 3421              	.LLST30:
 3422 0004 00000000 		.4byte	.LVL46
 3423 0008 28000000 		.4byte	.LVL48
 3424 000c 0100     		.2byte	0x1
 3425 000e 50       		.byte	0x50
 3426 000f 28000000 		.4byte	.LVL48
 3427 0013 50000000 		.4byte	.LFE18
 3428 0017 0100     		.2byte	0x1
 3429 0019 54       		.byte	0x54
 3430 001a 00000000 		.4byte	0
 3431 001e 00000000 		.4byte	0
 3432              	.LVUS31:
 3433 0022 00       		.uleb128 .LVU342
 3434 0023 00       		.uleb128 0
 3435              	.LLST31:
 3436 0024 38000000 		.4byte	.LVL51
 3437 0028 50000000 		.4byte	.LFE18
 3438 002c 0100     		.2byte	0x1
 3439 002e 55       		.byte	0x55
 3440 002f 00000000 		.4byte	0
 3441 0033 00000000 		.4byte	0
 3442              	.LVUS32:
 3443 0037 02       		.uleb128 .LVU333
 3444 0038 00       		.uleb128 .LVU335
 3445 0039 00       		.uleb128 .LVU335
 3446 003a 00       		.uleb128 .LVU340
 3447              	.LLST32:
 3448 003b 24000000 		.4byte	.LVL47
 3449 003f 28000000 		.4byte	.LVL48
 3450 0043 0300     		.2byte	0x3
 3451 0045 70       		.byte	0x70
 3452 0046 28       		.sleb128 40
 3453 0047 9F       		.byte	0x9f
 3454 0048 28000000 		.4byte	.LVL48
 3455 004c 34000000 		.4byte	.LVL50
 3456 0050 0300     		.2byte	0x3
 3457 0052 74       		.byte	0x74
 3458 0053 28       		.sleb128 40
 3459 0054 9F       		.byte	0x9f
 3460 0055 00000000 		.4byte	0
 3461 0059 00000000 		.4byte	0
 3462              	.LVUS25:
 3463 005d 00       		.uleb128 0
 3464 005e 00       		.uleb128 .LVU284
 3465 005f 00       		.uleb128 .LVU284
 3466 0060 00       		.uleb128 0
 3467              	.LLST25:
 3468 0061 00000000 		.4byte	.LVL36
 3469 0065 20000000 		.4byte	.LVL38
 3470 0069 0100     		.2byte	0x1
 3471 006b 50       		.byte	0x50
 3472 006c 20000000 		.4byte	.LVL38
 3473 0070 64000000 		.4byte	.LFE17
 3474 0074 0400     		.2byte	0x4
 3475 0076 F3       		.byte	0xf3
 3476 0077 01       		.uleb128 0x1
 3477 0078 50       		.byte	0x50
ARM GAS  /var/folders/l5/0x54b2c10074c8bt31ycjvl80000gp/T//ccuPlkW0.s 			page 62


 3478 0079 9F       		.byte	0x9f
 3479 007a 00000000 		.4byte	0
 3480 007e 00000000 		.4byte	0
 3481              	.LVUS26:
 3482 0082 00       		.uleb128 .LVU277
 3483 0083 00       		.uleb128 .LVU302
 3484              	.LLST26:
 3485 0084 0C000000 		.4byte	.LVL37
 3486 0088 54000000 		.4byte	.LVL42
 3487 008c 0100     		.2byte	0x1
 3488 008e 54       		.byte	0x54
 3489 008f 00000000 		.4byte	0
 3490 0093 00000000 		.4byte	0
 3491              	.LVUS27:
 3492 0097 02       		.uleb128 .LVU286
 3493 0098 00       		.uleb128 .LVU296
 3494              	.LLST27:
 3495 0099 20000000 		.4byte	.LVL38
 3496 009d 3C000000 		.4byte	.LVL41
 3497 00a1 0100     		.2byte	0x1
 3498 00a3 55       		.byte	0x55
 3499 00a4 00000000 		.4byte	0
 3500 00a8 00000000 		.4byte	0
 3501              	.LVUS28:
 3502 00ac 03       		.uleb128 .LVU287
 3503 00ad 01       		.uleb128 .LVU292
 3504              	.LLST28:
 3505 00ae 20000000 		.4byte	.LVL38
 3506 00b2 2C000000 		.4byte	.LVL39
 3507 00b6 0100     		.2byte	0x1
 3508 00b8 53       		.byte	0x53
 3509 00b9 00000000 		.4byte	0
 3510 00bd 00000000 		.4byte	0
 3511              	.LVUS29:
 3512 00c1 00       		.uleb128 0
 3513 00c2 00       		.uleb128 .LVU311
 3514 00c3 00       		.uleb128 .LVU311
 3515 00c4 00       		.uleb128 0
 3516              	.LLST29:
 3517 00c5 00000000 		.4byte	.LVL44
 3518 00c9 07000000 		.4byte	.LVL45-1
 3519 00cd 0100     		.2byte	0x1
 3520 00cf 50       		.byte	0x50
 3521 00d0 07000000 		.4byte	.LVL45-1
 3522 00d4 08000000 		.4byte	.LFE16
 3523 00d8 0400     		.2byte	0x4
 3524 00da F3       		.byte	0xf3
 3525 00db 01       		.uleb128 0x1
 3526 00dc 50       		.byte	0x50
 3527 00dd 9F       		.byte	0x9f
 3528 00de 00000000 		.4byte	0
 3529 00e2 00000000 		.4byte	0
 3530              	.LVUS24:
 3531 00e6 00       		.uleb128 0
 3532 00e7 00       		.uleb128 .LVU241
 3533 00e8 00       		.uleb128 .LVU241
 3534 00e9 00       		.uleb128 .LVU242
ARM GAS  /var/folders/l5/0x54b2c10074c8bt31ycjvl80000gp/T//ccuPlkW0.s 			page 63


 3535 00ea 00       		.uleb128 .LVU242
 3536 00eb 00       		.uleb128 .LVU250
 3537              	.LLST24:
 3538 00ec 00000000 		.4byte	.LVL31
 3539 00f0 0C000000 		.4byte	.LVL32
 3540 00f4 0100     		.2byte	0x1
 3541 00f6 50       		.byte	0x50
 3542 00f7 0C000000 		.4byte	.LVL32
 3543 00fb 10000000 		.4byte	.LVL33
 3544 00ff 0600     		.2byte	0x6
 3545 0101 70       		.byte	0x70
 3546 0102 00       		.sleb128 0
 3547 0103 71       		.byte	0x71
 3548 0104 00       		.sleb128 0
 3549 0105 1C       		.byte	0x1c
 3550 0106 9F       		.byte	0x9f
 3551 0107 10000000 		.4byte	.LVL33
 3552 010b 27000000 		.4byte	.LVL34-1
 3553 010f 0100     		.2byte	0x1
 3554 0111 51       		.byte	0x51
 3555 0112 00000000 		.4byte	0
 3556 0116 00000000 		.4byte	0
 3557              	.LVUS23:
 3558 011a 00       		.uleb128 0
 3559 011b 00       		.uleb128 .LVU230
 3560 011c 00       		.uleb128 .LVU230
 3561 011d 00       		.uleb128 .LVU231
 3562 011e 00       		.uleb128 .LVU231
 3563 011f 00       		.uleb128 0
 3564              	.LLST23:
 3565 0120 00000000 		.4byte	.LVL28
 3566 0124 10000000 		.4byte	.LVL29
 3567 0128 0100     		.2byte	0x1
 3568 012a 50       		.byte	0x50
 3569 012b 10000000 		.4byte	.LVL29
 3570 012f 13000000 		.4byte	.LVL30-1
 3571 0133 0100     		.2byte	0x1
 3572 0135 51       		.byte	0x51
 3573 0136 13000000 		.4byte	.LVL30-1
 3574 013a 1C000000 		.4byte	.LFE13
 3575 013e 0400     		.2byte	0x4
 3576 0140 F3       		.byte	0xf3
 3577 0141 01       		.uleb128 0x1
 3578 0142 50       		.byte	0x50
 3579 0143 9F       		.byte	0x9f
 3580 0144 00000000 		.4byte	0
 3581 0148 00000000 		.4byte	0
 3582              	.LVUS22:
 3583 014c 00       		.uleb128 0
 3584 014d 00       		.uleb128 .LVU205
 3585 014e 00       		.uleb128 .LVU205
 3586 014f 00       		.uleb128 0
 3587              	.LLST22:
 3588 0150 00000000 		.4byte	.LVL25
 3589 0154 13000000 		.4byte	.LVL26-1
 3590 0158 0100     		.2byte	0x1
 3591 015a 50       		.byte	0x50
ARM GAS  /var/folders/l5/0x54b2c10074c8bt31ycjvl80000gp/T//ccuPlkW0.s 			page 64


 3592 015b 13000000 		.4byte	.LVL26-1
 3593 015f 20000000 		.4byte	.LFE11
 3594 0163 0100     		.2byte	0x1
 3595 0165 54       		.byte	0x54
 3596 0166 00000000 		.4byte	0
 3597 016a 00000000 		.4byte	0
 3598              	.LVUS20:
 3599 016e 00       		.uleb128 0
 3600 016f 00       		.uleb128 .LVU181
 3601 0170 00       		.uleb128 .LVU181
 3602 0171 00       		.uleb128 .LVU190
 3603 0172 00       		.uleb128 .LVU190
 3604 0173 00       		.uleb128 0
 3605              	.LLST20:
 3606 0174 00000000 		.4byte	.LVL21
 3607 0178 18000000 		.4byte	.LVL22
 3608 017c 0100     		.2byte	0x1
 3609 017e 50       		.byte	0x50
 3610 017f 18000000 		.4byte	.LVL22
 3611 0183 3F000000 		.4byte	.LVL24-1
 3612 0187 0100     		.2byte	0x1
 3613 0189 51       		.byte	0x51
 3614 018a 3F000000 		.4byte	.LVL24-1
 3615 018e 50000000 		.4byte	.LFE10
 3616 0192 0400     		.2byte	0x4
 3617 0194 F3       		.byte	0xf3
 3618 0195 01       		.uleb128 0x1
 3619 0196 50       		.byte	0x50
 3620 0197 9F       		.byte	0x9f
 3621 0198 00000000 		.4byte	0
 3622 019c 00000000 		.4byte	0
 3623              	.LVUS21:
 3624 01a0 00       		.uleb128 .LVU182
 3625 01a1 00       		.uleb128 0
 3626              	.LLST21:
 3627 01a2 1C000000 		.4byte	.LVL23
 3628 01a6 50000000 		.4byte	.LFE10
 3629 01aa 0100     		.2byte	0x1
 3630 01ac 54       		.byte	0x54
 3631 01ad 00000000 		.4byte	0
 3632 01b1 00000000 		.4byte	0
 3633              	.LVUS7:
 3634 01b5 00       		.uleb128 0
 3635 01b6 00       		.uleb128 .LVU163
 3636 01b7 00       		.uleb128 .LVU163
 3637 01b8 00       		.uleb128 0
 3638              	.LLST7:
 3639 01b9 00000000 		.4byte	.LVL10
 3640 01bd 8B000000 		.4byte	.LVL20-1
 3641 01c1 0100     		.2byte	0x1
 3642 01c3 50       		.byte	0x50
 3643 01c4 8B000000 		.4byte	.LVL20-1
 3644 01c8 A0000000 		.4byte	.LFE9
 3645 01cc 0100     		.2byte	0x1
 3646 01ce 54       		.byte	0x54
 3647 01cf 00000000 		.4byte	0
 3648 01d3 00000000 		.4byte	0
ARM GAS  /var/folders/l5/0x54b2c10074c8bt31ycjvl80000gp/T//ccuPlkW0.s 			page 65


 3649              	.LVUS8:
 3650 01d7 00       		.uleb128 0
 3651 01d8 00       		.uleb128 .LVU117
 3652 01d9 00       		.uleb128 .LVU117
 3653 01da 00       		.uleb128 .LVU153
 3654 01db 00       		.uleb128 .LVU153
 3655 01dc 00       		.uleb128 0
 3656              	.LLST8:
 3657 01dd 00000000 		.4byte	.LVL10
 3658 01e1 20000000 		.4byte	.LVL12
 3659 01e5 0100     		.2byte	0x1
 3660 01e7 51       		.byte	0x51
 3661 01e8 20000000 		.4byte	.LVL12
 3662 01ec 78000000 		.4byte	.LVL18
 3663 01f0 0300     		.2byte	0x3
 3664 01f2 71       		.byte	0x71
 3665 01f3 24       		.sleb128 36
 3666 01f4 9F       		.byte	0x9f
 3667 01f5 78000000 		.4byte	.LVL18
 3668 01f9 A0000000 		.4byte	.LFE9
 3669 01fd 0400     		.2byte	0x4
 3670 01ff F3       		.byte	0xf3
 3671 0200 01       		.uleb128 0x1
 3672 0201 51       		.byte	0x51
 3673 0202 9F       		.byte	0x9f
 3674 0203 00000000 		.4byte	0
 3675 0207 00000000 		.4byte	0
 3676              	.LVUS9:
 3677 020b 00       		.uleb128 0
 3678 020c 00       		.uleb128 .LVU135
 3679 020d 00       		.uleb128 .LVU135
 3680 020e 00       		.uleb128 .LVU163
 3681 020f 00       		.uleb128 .LVU163
 3682 0210 00       		.uleb128 0
 3683              	.LLST9:
 3684 0211 00000000 		.4byte	.LVL10
 3685 0215 50000000 		.4byte	.LVL16
 3686 0219 0100     		.2byte	0x1
 3687 021b 52       		.byte	0x52
 3688 021c 50000000 		.4byte	.LVL16
 3689 0220 8B000000 		.4byte	.LVL20-1
 3690 0224 0300     		.2byte	0x3
 3691 0226 70       		.byte	0x70
 3692 0227 C000     		.sleb128 64
 3693 0229 8B000000 		.4byte	.LVL20-1
 3694 022d A0000000 		.4byte	.LFE9
 3695 0231 0400     		.2byte	0x4
 3696 0233 F3       		.byte	0xf3
 3697 0234 01       		.uleb128 0x1
 3698 0235 52       		.byte	0x52
 3699 0236 9F       		.byte	0x9f
 3700 0237 00000000 		.4byte	0
 3701 023b 00000000 		.4byte	0
 3702              	.LVUS10:
 3703 023f 00       		.uleb128 0
 3704 0240 00       		.uleb128 .LVU122
 3705 0241 00       		.uleb128 .LVU122
ARM GAS  /var/folders/l5/0x54b2c10074c8bt31ycjvl80000gp/T//ccuPlkW0.s 			page 66


 3706 0242 00       		.uleb128 .LVU129
 3707 0243 00       		.uleb128 .LVU129
 3708 0244 00       		.uleb128 .LVU137
 3709 0245 00       		.uleb128 .LVU137
 3710 0246 00       		.uleb128 0
 3711              	.LLST10:
 3712 0247 00000000 		.4byte	.LVL10
 3713 024b 34000000 		.4byte	.LVL13
 3714 024f 0100     		.2byte	0x1
 3715 0251 53       		.byte	0x53
 3716 0252 34000000 		.4byte	.LVL13
 3717 0256 40000000 		.4byte	.LVL15
 3718 025a 0200     		.2byte	0x2
 3719 025c 75       		.byte	0x75
 3720 025d 00       		.sleb128 0
 3721 025e 40000000 		.4byte	.LVL15
 3722 0262 5C000000 		.4byte	.LVL17
 3723 0266 0300     		.2byte	0x3
 3724 0268 70       		.byte	0x70
 3725 0269 0C       		.sleb128 12
 3726 026a 06       		.byte	0x6
 3727 026b 5C000000 		.4byte	.LVL17
 3728 026f A0000000 		.4byte	.LFE9
 3729 0273 0400     		.2byte	0x4
 3730 0275 F3       		.byte	0xf3
 3731 0276 01       		.uleb128 0x1
 3732 0277 53       		.byte	0x53
 3733 0278 9F       		.byte	0x9f
 3734 0279 00000000 		.4byte	0
 3735 027d 00000000 		.4byte	0
 3736              	.LVUS11:
 3737 0281 04       		.uleb128 .LVU161
 3738 0282 00       		.uleb128 .LVU163
 3739 0283 00       		.uleb128 .LVU163
 3740 0284 00       		.uleb128 0
 3741              	.LLST11:
 3742 0285 88000000 		.4byte	.LVL19
 3743 0289 8B000000 		.4byte	.LVL20-1
 3744 028d 0100     		.2byte	0x1
 3745 028f 50       		.byte	0x50
 3746 0290 8B000000 		.4byte	.LVL20-1
 3747 0294 A0000000 		.4byte	.LFE9
 3748 0298 0100     		.2byte	0x1
 3749 029a 54       		.byte	0x54
 3750 029b 00000000 		.4byte	0
 3751 029f 00000000 		.4byte	0
 3752              	.LVUS12:
 3753 02a3 03       		.uleb128 .LVU106
 3754 02a4 04       		.uleb128 .LVU161
 3755              	.LLST12:
 3756 02a5 10000000 		.4byte	.LVL11
 3757 02a9 88000000 		.4byte	.LVL19
 3758 02ad 0100     		.2byte	0x1
 3759 02af 58       		.byte	0x58
 3760 02b0 00000000 		.4byte	0
 3761 02b4 00000000 		.4byte	0
 3762              	.LVUS13:
ARM GAS  /var/folders/l5/0x54b2c10074c8bt31ycjvl80000gp/T//ccuPlkW0.s 			page 67


 3763 02b8 03       		.uleb128 .LVU106
 3764 02b9 00       		.uleb128 .LVU122
 3765 02ba 00       		.uleb128 .LVU122
 3766 02bb 00       		.uleb128 .LVU129
 3767 02bc 00       		.uleb128 .LVU129
 3768 02bd 00       		.uleb128 .LVU137
 3769 02be 00       		.uleb128 .LVU137
 3770 02bf 04       		.uleb128 .LVU161
 3771              	.LLST13:
 3772 02c0 10000000 		.4byte	.LVL11
 3773 02c4 34000000 		.4byte	.LVL13
 3774 02c8 0100     		.2byte	0x1
 3775 02ca 53       		.byte	0x53
 3776 02cb 34000000 		.4byte	.LVL13
 3777 02cf 40000000 		.4byte	.LVL15
 3778 02d3 0200     		.2byte	0x2
 3779 02d5 75       		.byte	0x75
 3780 02d6 00       		.sleb128 0
 3781 02d7 40000000 		.4byte	.LVL15
 3782 02db 5C000000 		.4byte	.LVL17
 3783 02df 0300     		.2byte	0x3
 3784 02e1 70       		.byte	0x70
 3785 02e2 0C       		.sleb128 12
 3786 02e3 06       		.byte	0x6
 3787 02e4 5C000000 		.4byte	.LVL17
 3788 02e8 88000000 		.4byte	.LVL19
 3789 02ec 0400     		.2byte	0x4
 3790 02ee F3       		.byte	0xf3
 3791 02ef 01       		.uleb128 0x1
 3792 02f0 53       		.byte	0x53
 3793 02f1 9F       		.byte	0x9f
 3794 02f2 00000000 		.4byte	0
 3795 02f6 00000000 		.4byte	0
 3796              	.LVUS14:
 3797 02fa 03       		.uleb128 .LVU106
 3798 02fb 00       		.uleb128 .LVU135
 3799 02fc 00       		.uleb128 .LVU135
 3800 02fd 04       		.uleb128 .LVU161
 3801              	.LLST14:
 3802 02fe 10000000 		.4byte	.LVL11
 3803 0302 50000000 		.4byte	.LVL16
 3804 0306 0100     		.2byte	0x1
 3805 0308 52       		.byte	0x52
 3806 0309 50000000 		.4byte	.LVL16
 3807 030d 88000000 		.4byte	.LVL19
 3808 0311 0300     		.2byte	0x3
 3809 0313 70       		.byte	0x70
 3810 0314 C000     		.sleb128 64
 3811 0316 00000000 		.4byte	0
 3812 031a 00000000 		.4byte	0
 3813              	.LVUS15:
 3814 031e 03       		.uleb128 .LVU106
 3815 031f 00       		.uleb128 .LVU117
 3816 0320 00       		.uleb128 .LVU117
 3817 0321 00       		.uleb128 .LVU153
 3818 0322 00       		.uleb128 .LVU153
 3819 0323 04       		.uleb128 .LVU161
ARM GAS  /var/folders/l5/0x54b2c10074c8bt31ycjvl80000gp/T//ccuPlkW0.s 			page 68


 3820              	.LLST15:
 3821 0324 10000000 		.4byte	.LVL11
 3822 0328 20000000 		.4byte	.LVL12
 3823 032c 0100     		.2byte	0x1
 3824 032e 51       		.byte	0x51
 3825 032f 20000000 		.4byte	.LVL12
 3826 0333 78000000 		.4byte	.LVL18
 3827 0337 0300     		.2byte	0x3
 3828 0339 71       		.byte	0x71
 3829 033a 24       		.sleb128 36
 3830 033b 9F       		.byte	0x9f
 3831 033c 78000000 		.4byte	.LVL18
 3832 0340 88000000 		.4byte	.LVL19
 3833 0344 0400     		.2byte	0x4
 3834 0346 F3       		.byte	0xf3
 3835 0347 01       		.uleb128 0x1
 3836 0348 51       		.byte	0x51
 3837 0349 9F       		.byte	0x9f
 3838 034a 00000000 		.4byte	0
 3839 034e 00000000 		.4byte	0
 3840              	.LVUS16:
 3841 0352 03       		.uleb128 .LVU106
 3842 0353 04       		.uleb128 .LVU161
 3843              	.LLST16:
 3844 0354 10000000 		.4byte	.LVL11
 3845 0358 88000000 		.4byte	.LVL19
 3846 035c 0100     		.2byte	0x1
 3847 035e 50       		.byte	0x50
 3848 035f 00000000 		.4byte	0
 3849 0363 00000000 		.4byte	0
 3850              	.LVUS17:
 3851 0367 05       		.uleb128 .LVU108
 3852 0368 00       		.uleb128 .LVU163
 3853 0369 00       		.uleb128 .LVU163
 3854 036a 00       		.uleb128 0
 3855              	.LLST17:
 3856 036b 10000000 		.4byte	.LVL11
 3857 036f 8B000000 		.4byte	.LVL20-1
 3858 0373 0100     		.2byte	0x1
 3859 0375 50       		.byte	0x50
 3860 0376 8B000000 		.4byte	.LVL20-1
 3861 037a A0000000 		.4byte	.LFE9
 3862 037e 0100     		.2byte	0x1
 3863 0380 54       		.byte	0x54
 3864 0381 00000000 		.4byte	0
 3865 0385 00000000 		.4byte	0
 3866              	.LVUS18:
 3867 0389 02       		.uleb128 .LVU126
 3868 038a 00       		.uleb128 .LVU135
 3869 038b 00       		.uleb128 .LVU135
 3870 038c 04       		.uleb128 .LVU161
 3871              	.LLST18:
 3872 038d 3C000000 		.4byte	.LVL14
 3873 0391 50000000 		.4byte	.LVL16
 3874 0395 0100     		.2byte	0x1
 3875 0397 52       		.byte	0x52
 3876 0398 50000000 		.4byte	.LVL16
ARM GAS  /var/folders/l5/0x54b2c10074c8bt31ycjvl80000gp/T//ccuPlkW0.s 			page 69


 3877 039c 88000000 		.4byte	.LVL19
 3878 03a0 0300     		.2byte	0x3
 3879 03a2 70       		.byte	0x70
 3880 03a3 C000     		.sleb128 64
 3881 03a5 00000000 		.4byte	0
 3882 03a9 00000000 		.4byte	0
 3883              	.LVUS19:
 3884 03ad 02       		.uleb128 .LVU126
 3885 03ae 04       		.uleb128 .LVU161
 3886              	.LLST19:
 3887 03af 3C000000 		.4byte	.LVL14
 3888 03b3 88000000 		.4byte	.LVL19
 3889 03b7 0100     		.2byte	0x1
 3890 03b9 50       		.byte	0x50
 3891 03ba 00000000 		.4byte	0
 3892 03be 00000000 		.4byte	0
 3893              	.LVUS0:
 3894 03c2 00       		.uleb128 0
 3895 03c3 00       		.uleb128 .LVU14
 3896 03c4 00       		.uleb128 .LVU14
 3897 03c5 00       		.uleb128 0
 3898              	.LLST0:
 3899 03c6 00000000 		.4byte	.LVL0
 3900 03ca 2C000000 		.4byte	.LVL1
 3901 03ce 0100     		.2byte	0x1
 3902 03d0 51       		.byte	0x51
 3903 03d1 2C000000 		.4byte	.LVL1
 3904 03d5 64000000 		.4byte	.LFE7
 3905 03d9 0200     		.2byte	0x2
 3906 03db 70       		.byte	0x70
 3907 03dc 08       		.sleb128 8
 3908 03dd 00000000 		.4byte	0
 3909 03e1 00000000 		.4byte	0
 3910              	.LVUS1:
 3911 03e5 00       		.uleb128 0
 3912 03e6 00       		.uleb128 .LVU51
 3913 03e7 00       		.uleb128 .LVU51
 3914 03e8 00       		.uleb128 .LVU59
 3915 03e9 00       		.uleb128 .LVU59
 3916 03ea 00       		.uleb128 0
 3917              	.LLST1:
 3918 03eb 00000000 		.4byte	.LVL2
 3919 03ef 14000000 		.4byte	.LVL3
 3920 03f3 0100     		.2byte	0x1
 3921 03f5 51       		.byte	0x51
 3922 03f6 14000000 		.4byte	.LVL3
 3923 03fa 34000000 		.4byte	.LVL5
 3924 03fe 0300     		.2byte	0x3
 3925 0400 71       		.byte	0x71
 3926 0401 24       		.sleb128 36
 3927 0402 9F       		.byte	0x9f
 3928 0403 34000000 		.4byte	.LVL5
 3929 0407 88000000 		.4byte	.LFE8
 3930 040b 0400     		.2byte	0x4
 3931 040d F3       		.byte	0xf3
 3932 040e 01       		.uleb128 0x1
 3933 040f 51       		.byte	0x51
ARM GAS  /var/folders/l5/0x54b2c10074c8bt31ycjvl80000gp/T//ccuPlkW0.s 			page 70


 3934 0410 9F       		.byte	0x9f
 3935 0411 00000000 		.4byte	0
 3936 0415 00000000 		.4byte	0
 3937              	.LVUS2:
 3938 0419 00       		.uleb128 0
 3939 041a 00       		.uleb128 .LVU70
 3940 041b 00       		.uleb128 .LVU70
 3941 041c 00       		.uleb128 0
 3942              	.LLST2:
 3943 041d 00000000 		.4byte	.LVL2
 3944 0421 44000000 		.4byte	.LVL7
 3945 0425 0100     		.2byte	0x1
 3946 0427 52       		.byte	0x52
 3947 0428 44000000 		.4byte	.LVL7
 3948 042c 88000000 		.4byte	.LFE8
 3949 0430 0200     		.2byte	0x2
 3950 0432 70       		.byte	0x70
 3951 0433 08       		.sleb128 8
 3952 0434 00000000 		.4byte	0
 3953 0438 00000000 		.4byte	0
 3954              	.LVUS3:
 3955 043c 00       		.uleb128 0
 3956 043d 00       		.uleb128 .LVU55
 3957 043e 00       		.uleb128 .LVU55
 3958 043f 00       		.uleb128 .LVU73
 3959 0440 00       		.uleb128 .LVU73
 3960 0441 00       		.uleb128 0
 3961              	.LLST3:
 3962 0442 00000000 		.4byte	.LVL2
 3963 0446 24000000 		.4byte	.LVL4
 3964 044a 0100     		.2byte	0x1
 3965 044c 53       		.byte	0x53
 3966 044d 24000000 		.4byte	.LVL4
 3967 0451 54000000 		.4byte	.LVL8
 3968 0455 0200     		.2byte	0x2
 3969 0457 75       		.byte	0x75
 3970 0458 00       		.sleb128 0
 3971 0459 54000000 		.4byte	.LVL8
 3972 045d 88000000 		.4byte	.LFE8
 3973 0461 0400     		.2byte	0x4
 3974 0463 F3       		.byte	0xf3
 3975 0464 01       		.uleb128 0x1
 3976 0465 53       		.byte	0x53
 3977 0466 9F       		.byte	0x9f
 3978 0467 00000000 		.4byte	0
 3979 046b 00000000 		.4byte	0
 3980              	.LVUS4:
 3981 046f 02       		.uleb128 .LVU41
 3982 0470 00       		.uleb128 0
 3983              	.LLST4:
 3984 0471 00000000 		.4byte	.LVL2
 3985 0475 88000000 		.4byte	.LFE8
 3986 0479 0100     		.2byte	0x1
 3987 047b 50       		.byte	0x50
 3988 047c 00000000 		.4byte	0
 3989 0480 00000000 		.4byte	0
 3990              	.LVUS5:
ARM GAS  /var/folders/l5/0x54b2c10074c8bt31ycjvl80000gp/T//ccuPlkW0.s 			page 71


 3991 0484 02       		.uleb128 .LVU63
 3992 0485 00       		.uleb128 .LVU70
 3993 0486 00       		.uleb128 .LVU70
 3994 0487 04       		.uleb128 .LVU95
 3995              	.LLST5:
 3996 0488 38000000 		.4byte	.LVL6
 3997 048c 44000000 		.4byte	.LVL7
 3998 0490 0100     		.2byte	0x1
 3999 0492 52       		.byte	0x52
 4000 0493 44000000 		.4byte	.LVL7
 4001 0497 7C000000 		.4byte	.LVL9
 4002 049b 0200     		.2byte	0x2
 4003 049d 70       		.byte	0x70
 4004 049e 08       		.sleb128 8
 4005 049f 00000000 		.4byte	0
 4006 04a3 00000000 		.4byte	0
 4007              	.LVUS6:
 4008 04a7 02       		.uleb128 .LVU63
 4009 04a8 04       		.uleb128 .LVU95
 4010              	.LLST6:
 4011 04a9 38000000 		.4byte	.LVL6
 4012 04ad 7C000000 		.4byte	.LVL9
 4013 04b1 0100     		.2byte	0x1
 4014 04b3 50       		.byte	0x50
 4015 04b4 00000000 		.4byte	0
 4016 04b8 00000000 		.4byte	0
 4017              		.section	.debug_aranges,"",%progbits
 4018 0000 74000000 		.4byte	0x74
 4019 0004 0200     		.2byte	0x2
 4020 0006 00000000 		.4byte	.Ldebug_info0
 4021 000a 04       		.byte	0x4
 4022 000b 00       		.byte	0
 4023 000c 0000     		.2byte	0
 4024 000e 0000     		.2byte	0
 4025 0010 00000000 		.4byte	.LFB7
 4026 0014 64000000 		.4byte	.LFE7-.LFB7
 4027 0018 00000000 		.4byte	.LFB8
 4028 001c 88000000 		.4byte	.LFE8-.LFB8
 4029 0020 00000000 		.4byte	.LFB9
 4030 0024 A0000000 		.4byte	.LFE9-.LFB9
 4031 0028 00000000 		.4byte	.LFB10
 4032 002c 50000000 		.4byte	.LFE10-.LFB10
 4033 0030 00000000 		.4byte	.LFB11
 4034 0034 20000000 		.4byte	.LFE11-.LFB11
 4035 0038 00000000 		.4byte	.LFB12
 4036 003c 18000000 		.4byte	.LFE12-.LFB12
 4037 0040 00000000 		.4byte	.LFB13
 4038 0044 1C000000 		.4byte	.LFE13-.LFB13
 4039 0048 00000000 		.4byte	.LFB14
 4040 004c 34000000 		.4byte	.LFE14-.LFB14
 4041 0050 00000000 		.4byte	.LFB15
 4042 0054 3C000000 		.4byte	.LFE15-.LFB15
 4043 0058 00000000 		.4byte	.LFB17
 4044 005c 64000000 		.4byte	.LFE17-.LFB17
 4045 0060 00000000 		.4byte	.LFB16
 4046 0064 08000000 		.4byte	.LFE16-.LFB16
 4047 0068 00000000 		.4byte	.LFB18
ARM GAS  /var/folders/l5/0x54b2c10074c8bt31ycjvl80000gp/T//ccuPlkW0.s 			page 72


 4048 006c 50000000 		.4byte	.LFE18-.LFB18
 4049 0070 00000000 		.4byte	0
 4050 0074 00000000 		.4byte	0
 4051              		.section	.debug_ranges,"",%progbits
 4052              	.Ldebug_ranges0:
 4053 0000 04000000 		.4byte	.LBB12
 4054 0004 10000000 		.4byte	.LBE12
 4055 0008 24000000 		.4byte	.LBB17
 4056 000c 28000000 		.4byte	.LBE17
 4057 0010 30000000 		.4byte	.LBB18
 4058 0014 34000000 		.4byte	.LBE18
 4059 0018 38000000 		.4byte	.LBB19
 4060 001c 7C000000 		.4byte	.LBE19
 4061 0020 00000000 		.4byte	0
 4062 0024 00000000 		.4byte	0
 4063 0028 10000000 		.4byte	.LBB20
 4064 002c 74000000 		.4byte	.LBE20
 4065 0030 78000000 		.4byte	.LBB31
 4066 0034 88000000 		.4byte	.LBE31
 4067 0038 00000000 		.4byte	0
 4068 003c 00000000 		.4byte	0
 4069 0040 10000000 		.4byte	.LBB22
 4070 0044 1C000000 		.4byte	.LBE22
 4071 0048 28000000 		.4byte	.LBB27
 4072 004c 2C000000 		.4byte	.LBE27
 4073 0050 3C000000 		.4byte	.LBB28
 4074 0054 74000000 		.4byte	.LBE28
 4075 0058 78000000 		.4byte	.LBB29
 4076 005c 88000000 		.4byte	.LBE29
 4077 0060 00000000 		.4byte	0
 4078 0064 00000000 		.4byte	0
 4079 0068 20000000 		.4byte	.LBB32
 4080 006c 24000000 		.4byte	.LBE32
 4081 0070 28000000 		.4byte	.LBB35
 4082 0074 2C000000 		.4byte	.LBE35
 4083 0078 00000000 		.4byte	0
 4084 007c 00000000 		.4byte	0
 4085 0080 1C000000 		.4byte	.LBB36
 4086 0084 20000000 		.4byte	.LBE36
 4087 0088 24000000 		.4byte	.LBB40
 4088 008c 24000000 		.4byte	.LBE40
 4089 0090 28000000 		.4byte	.LBB41
 4090 0094 30000000 		.4byte	.LBE41
 4091 0098 00000000 		.4byte	0
 4092 009c 00000000 		.4byte	0
 4093 00a0 00000000 		.4byte	.LFB7
 4094 00a4 64000000 		.4byte	.LFE7
 4095 00a8 00000000 		.4byte	.LFB8
 4096 00ac 88000000 		.4byte	.LFE8
 4097 00b0 00000000 		.4byte	.LFB9
 4098 00b4 A0000000 		.4byte	.LFE9
 4099 00b8 00000000 		.4byte	.LFB10
 4100 00bc 50000000 		.4byte	.LFE10
 4101 00c0 00000000 		.4byte	.LFB11
 4102 00c4 20000000 		.4byte	.LFE11
 4103 00c8 00000000 		.4byte	.LFB12
 4104 00cc 18000000 		.4byte	.LFE12
ARM GAS  /var/folders/l5/0x54b2c10074c8bt31ycjvl80000gp/T//ccuPlkW0.s 			page 73


 4105 00d0 00000000 		.4byte	.LFB13
 4106 00d4 1C000000 		.4byte	.LFE13
 4107 00d8 00000000 		.4byte	.LFB14
 4108 00dc 34000000 		.4byte	.LFE14
 4109 00e0 00000000 		.4byte	.LFB15
 4110 00e4 3C000000 		.4byte	.LFE15
 4111 00e8 00000000 		.4byte	.LFB17
 4112 00ec 64000000 		.4byte	.LFE17
 4113 00f0 00000000 		.4byte	.LFB16
 4114 00f4 08000000 		.4byte	.LFE16
 4115 00f8 00000000 		.4byte	.LFB18
 4116 00fc 50000000 		.4byte	.LFE18
 4117 0100 00000000 		.4byte	0
 4118 0104 00000000 		.4byte	0
 4119              		.section	.debug_line,"",%progbits
 4120              	.Ldebug_line0:
 4121 0000 55070000 		.section	.debug_str,"MS",%progbits,1
 4121      03000602 
 4121      00000201 
 4121      FB0E0D00 
 4121      01010101 
 4122              	.LASF76:
 4123 0000 7466756E 		.ascii	"tfunc_t\000"
 4123      635F7400 
 4124              	.LASF87:
 4125 0008 63665F6F 		.ascii	"cf_off_older\000"
 4125      66665F6F 
 4125      6C646572 
 4125      00
 4126              	.LASF39:
 4127 0015 705F6D73 		.ascii	"p_msg\000"
 4127      6700
 4128              	.LASF2:
 4129 001b 73697A65 		.ascii	"size_t\000"
 4129      5F7400
 4130              	.LASF112:
 4131 0022 7072696F 		.ascii	"prio\000"
 4131      00
 4132              	.LASF71:
 4133 0027 7264796D 		.ascii	"rdymsg\000"
 4133      736700
 4134              	.LASF3:
 4135 002e 5F5F7569 		.ascii	"__uint8_t\000"
 4135      6E74385F 
 4135      7400
 4136              	.LASF65:
 4137 0038 76746C69 		.ascii	"vtlist\000"
 4137      737400
 4138              	.LASF98:
 4139 003f 63685468 		.ascii	"chThdExitS\000"
 4139      64457869 
 4139      745300
 4140              	.LASF13:
 4141 004a 6C6F6E67 		.ascii	"long long unsigned int\000"
 4141      206C6F6E 
 4141      6720756E 
 4141      7369676E 
ARM GAS  /var/folders/l5/0x54b2c10074c8bt31ycjvl80000gp/T//ccuPlkW0.s 			page 74


 4141      65642069 
 4142              	.LASF83:
 4143 0061 63685F74 		.ascii	"ch_threadsize\000"
 4143      68726561 
 4143      6473697A 
 4143      6500
 4144              	.LASF72:
 4145 006f 65786974 		.ascii	"exitcode\000"
 4145      636F6465 
 4145      00
 4146              	.LASF28:
 4147 0078 705F7072 		.ascii	"p_prio\000"
 4147      696F00
 4148              	.LASF90:
 4149 007f 63665F6F 		.ascii	"cf_off_state\000"
 4149      66665F73 
 4149      74617465 
 4149      00
 4150              	.LASF12:
 4151 008c 6C6F6E67 		.ascii	"long long int\000"
 4151      206C6F6E 
 4151      6720696E 
 4151      7400
 4152              	.LASF1:
 4153 009a 7369676E 		.ascii	"signed char\000"
 4153      65642063 
 4153      68617200 
 4154              	.LASF99:
 4155 00a6 63685468 		.ascii	"chThdExit\000"
 4155      64457869 
 4155      7400
 4156              	.LASF89:
 4157 00b0 63665F6F 		.ascii	"cf_off_stklimit\000"
 4157      66665F73 
 4157      746B6C69 
 4157      6D697400 
 4158              	.LASF91:
 4159 00c0 63665F6F 		.ascii	"cf_off_flags\000"
 4159      66665F66 
 4159      6C616773 
 4159      00
 4160              	.LASF68:
 4161 00cd 6D5F7175 		.ascii	"m_queue\000"
 4161      65756500 
 4162              	.LASF77:
 4163 00d5 63685F69 		.ascii	"ch_identifier\000"
 4163      64656E74 
 4163      69666965 
 4163      7200
 4164              	.LASF113:
 4165 00e3 63685468 		.ascii	"chThdCreateI\000"
 4165      64437265 
 4165      61746549 
 4165      00
 4166              	.LASF9:
 4167 00f0 6C6F6E67 		.ascii	"long int\000"
 4167      20696E74 
ARM GAS  /var/folders/l5/0x54b2c10074c8bt31ycjvl80000gp/T//ccuPlkW0.s 			page 75


 4167      00
 4168              	.LASF19:
 4169 00f9 74737461 		.ascii	"tstate_t\000"
 4169      74655F74 
 4169      00
 4170              	.LASF15:
 4171 0102 75696E74 		.ascii	"uint16_t\000"
 4171      31365F74 
 4171      00
 4172              	.LASF95:
 4173 010b 63686465 		.ascii	"chdebug_t\000"
 4173      6275675F 
 4173      7400
 4174              	.LASF30:
 4175 0115 705F6E65 		.ascii	"p_newer\000"
 4175      77657200 
 4176              	.LASF97:
 4177 011d 5F69646C 		.ascii	"_idle_thread_wa\000"
 4177      655F7468 
 4177      72656164 
 4177      5F776100 
 4178              	.LASF125:
 4179 012d 6C697374 		.ascii	"list_remove\000"
 4179      5F72656D 
 4179      6F766500 
 4180              	.LASF121:
 4181 0139 63685363 		.ascii	"chSchRescheduleS\000"
 4181      68526573 
 4181      63686564 
 4181      756C6553 
 4181      00
 4182              	.LASF10:
 4183 014a 5F5F7569 		.ascii	"__uint32_t\000"
 4183      6E743332 
 4183      5F7400
 4184              	.LASF46:
 4185 0155 72656761 		.ascii	"regarm_t\000"
 4185      726D5F74 
 4185      00
 4186              	.LASF52:
 4187 015e 76745F70 		.ascii	"vt_prev\000"
 4187      72657600 
 4188              	.LASF107:
 4189 0166 63685468 		.ascii	"chThdSetPriority\000"
 4189      64536574 
 4189      5072696F 
 4189      72697479 
 4189      00
 4190              	.LASF0:
 4191 0177 756E7369 		.ascii	"unsigned int\000"
 4191      676E6564 
 4191      20696E74 
 4191      00
 4192              	.LASF114:
 4193 0184 5F746872 		.ascii	"_thread_init\000"
 4193      6561645F 
 4193      696E6974 
ARM GAS  /var/folders/l5/0x54b2c10074c8bt31ycjvl80000gp/T//ccuPlkW0.s 			page 76


 4193      00
 4194              	.LASF51:
 4195 0191 76745F6E 		.ascii	"vt_next\000"
 4195      65787400 
 4196              	.LASF11:
 4197 0199 6C6F6E67 		.ascii	"long unsigned int\000"
 4197      20756E73 
 4197      69676E65 
 4197      6420696E 
 4197      7400
 4198              	.LASF96:
 4199 01ab 63685F64 		.ascii	"ch_debug\000"
 4199      65627567 
 4199      00
 4200              	.LASF49:
 4201 01b4 76746675 		.ascii	"vtfunc_t\000"
 4201      6E635F74 
 4201      00
 4202              	.LASF48:
 4203 01bd 636F6E74 		.ascii	"context\000"
 4203      65787400 
 4204              	.LASF111:
 4205 01c5 73697A65 		.ascii	"size\000"
 4205      00
 4206              	.LASF7:
 4207 01ca 73686F72 		.ascii	"short unsigned int\000"
 4207      7420756E 
 4207      7369676E 
 4207      65642069 
 4207      6E7400
 4208              	.LASF120:
 4209 01dd 63685363 		.ascii	"chSchWakeupS\000"
 4209      6857616B 
 4209      65757053 
 4209      00
 4210              	.LASF22:
 4211 01ea 6D73675F 		.ascii	"msg_t\000"
 4211      7400
 4212              	.LASF61:
 4213 01f0 725F6E65 		.ascii	"r_newer\000"
 4213      77657200 
 4214              	.LASF122:
 4215 01f8 474E5520 		.ascii	"GNU C17 8.3.1 20190703 (release) [gcc-8-branch revi"
 4215      43313720 
 4215      382E332E 
 4215      31203230 
 4215      31393037 
 4216 022b 73696F6E 		.ascii	"sion 273027] -mcpu=arm1176jz-s -mno-thumb-interwork"
 4216      20323733 
 4216      3032375D 
 4216      202D6D63 
 4216      70753D61 
 4217 025e 202D6D66 		.ascii	" -mfloat-abi=soft -marm -march=armv6kz -ggdb -O2 -f"
 4217      6C6F6174 
 4217      2D616269 
 4217      3D736F66 
 4217      74202D6D 
ARM GAS  /var/folders/l5/0x54b2c10074c8bt31ycjvl80000gp/T//ccuPlkW0.s 			page 77


 4218 0291 6F6D6974 		.ascii	"omit-frame-pointer -ffunction-sections -fdata-secti"
 4218      2D667261 
 4218      6D652D70 
 4218      6F696E74 
 4218      6572202D 
 4219 02c4 6F6E7300 		.ascii	"ons\000"
 4220              	.LASF108:
 4221 02c8 6E657770 		.ascii	"newprio\000"
 4221      72696F00 
 4222              	.LASF18:
 4223 02d0 746D6F64 		.ascii	"tmode_t\000"
 4223      655F7400 
 4224              	.LASF104:
 4225 02d8 63685468 		.ascii	"chThdTerminate\000"
 4225      64546572 
 4225      6D696E61 
 4225      746500
 4226              	.LASF44:
 4227 02e7 54687265 		.ascii	"ThreadsList\000"
 4227      6164734C 
 4227      69737400 
 4228              	.LASF23:
 4229 02f3 6576656E 		.ascii	"eventmask_t\000"
 4229      746D6173 
 4229      6B5F7400 
 4230              	.LASF67:
 4231 02ff 4D757465 		.ascii	"Mutex\000"
 4231      7800
 4232              	.LASF109:
 4233 0305 6F6C6470 		.ascii	"oldprio\000"
 4233      72696F00 
 4234              	.LASF45:
 4235 030d 73746B61 		.ascii	"stkalign_t\000"
 4235      6C69676E 
 4235      5F7400
 4236              	.LASF110:
 4237 0318 63685468 		.ascii	"chThdCreateStatic\000"
 4237      64437265 
 4237      61746553 
 4237      74617469 
 4237      6300
 4238              	.LASF78:
 4239 032a 63685F7A 		.ascii	"ch_zero\000"
 4239      65726F00 
 4240              	.LASF92:
 4241 0332 63665F6F 		.ascii	"cf_off_refs\000"
 4241      66665F72 
 4241      65667300 
 4242              	.LASF53:
 4243 033e 76745F74 		.ascii	"vt_time\000"
 4243      696D6500 
 4244              	.LASF54:
 4245 0346 76745F66 		.ascii	"vt_func\000"
 4245      756E6300 
 4246              	.LASF82:
 4247 034e 63685F74 		.ascii	"ch_timesize\000"
 4247      696D6573 
ARM GAS  /var/folders/l5/0x54b2c10074c8bt31ycjvl80000gp/T//ccuPlkW0.s 			page 78


 4247      697A6500 
 4248              	.LASF106:
 4249 035a 63685468 		.ascii	"chThdResume\000"
 4249      64526573 
 4249      756D6500 
 4250              	.LASF118:
 4251 0366 63685363 		.ascii	"chSchDoRescheduleBehind\000"
 4251      68446F52 
 4251      65736368 
 4251      6564756C 
 4251      65426568 
 4252              	.LASF88:
 4253 037e 63665F6F 		.ascii	"cf_off_name\000"
 4253      66665F6E 
 4253      616D6500 
 4254              	.LASF31:
 4255 038a 705F6F6C 		.ascii	"p_older\000"
 4255      64657200 
 4256              	.LASF60:
 4257 0392 725F6374 		.ascii	"r_ctx\000"
 4257      7800
 4258              	.LASF43:
 4259 0398 54687265 		.ascii	"ThreadsQueue\000"
 4259      61647351 
 4259      75657565 
 4259      00
 4260              	.LASF79:
 4261 03a5 63685F73 		.ascii	"ch_size\000"
 4261      697A6500 
 4262              	.LASF102:
 4263 03ad 74696D65 		.ascii	"time\000"
 4263      00
 4264              	.LASF126:
 4265 03b2 6C697374 		.ascii	"list_insert\000"
 4265      5F696E73 
 4265      65727400 
 4266              	.LASF63:
 4267 03be 725F6375 		.ascii	"r_current\000"
 4267      7272656E 
 4267      7400
 4268              	.LASF62:
 4269 03c8 725F6F6C 		.ascii	"r_older\000"
 4269      64657200 
 4270              	.LASF101:
 4271 03d0 63685468 		.ascii	"chThdSleepUntil\000"
 4271      64536C65 
 4271      6570556E 
 4271      74696C00 
 4272              	.LASF20:
 4273 03e0 74726566 		.ascii	"trefs_t\000"
 4273      735F7400 
 4274              	.LASF81:
 4275 03e8 63685F70 		.ascii	"ch_ptrsize\000"
 4275      74727369 
 4275      7A6500
 4276              	.LASF27:
 4277 03f3 705F7072 		.ascii	"p_prev\000"
ARM GAS  /var/folders/l5/0x54b2c10074c8bt31ycjvl80000gp/T//ccuPlkW0.s 			page 79


 4277      657600
 4278              	.LASF21:
 4279 03fa 74707269 		.ascii	"tprio_t\000"
 4279      6F5F7400 
 4280              	.LASF16:
 4281 0402 696E7433 		.ascii	"int32_t\000"
 4281      325F7400 
 4282              	.LASF4:
 4283 040a 756E7369 		.ascii	"unsigned char\000"
 4283      676E6564 
 4283      20636861 
 4283      7200
 4284              	.LASF41:
 4285 0418 705F6D74 		.ascii	"p_mtxlist\000"
 4285      786C6973 
 4285      7400
 4286              	.LASF5:
 4287 0422 73686F72 		.ascii	"short int\000"
 4287      7420696E 
 4287      7400
 4288              	.LASF33:
 4289 042c 705F7374 		.ascii	"p_state\000"
 4289      61746500 
 4290              	.LASF94:
 4291 0434 63665F6F 		.ascii	"cf_off_time\000"
 4291      66665F74 
 4291      696D6500 
 4292              	.LASF59:
 4293 0440 725F7072 		.ascii	"r_prio\000"
 4293      696F00
 4294              	.LASF74:
 4295 0447 65776D61 		.ascii	"ewmask\000"
 4295      736B00
 4296              	.LASF26:
 4297 044e 705F6E65 		.ascii	"p_next\000"
 4297      787400
 4298              	.LASF93:
 4299 0455 63665F6F 		.ascii	"cf_off_preempt\000"
 4299      66665F70 
 4299      7265656D 
 4299      707400
 4300              	.LASF34:
 4301 0464 705F666C 		.ascii	"p_flags\000"
 4301      61677300 
 4302              	.LASF116:
 4303 046c 63685468 		.ascii	"chThdRelease\000"
 4303      6452656C 
 4303      65617365 
 4303      00
 4304              	.LASF25:
 4305 0479 54687265 		.ascii	"Thread\000"
 4305      616400
 4306              	.LASF86:
 4307 0480 63665F6F 		.ascii	"cf_off_newer\000"
 4307      66665F6E 
 4307      65776572 
 4307      00
ARM GAS  /var/folders/l5/0x54b2c10074c8bt31ycjvl80000gp/T//ccuPlkW0.s 			page 80


 4308              	.LASF115:
 4309 048d 63685363 		.ascii	"chSchGoSleepS\000"
 4309      68476F53 
 4309      6C656570 
 4309      5300
 4310              	.LASF40:
 4311 049b 705F6570 		.ascii	"p_epending\000"
 4311      656E6469 
 4311      6E6700
 4312              	.LASF103:
 4313 04a6 63685468 		.ascii	"chThdSleep\000"
 4313      64536C65 
 4313      657000
 4314              	.LASF17:
 4315 04b1 75696E74 		.ascii	"uint32_t\000"
 4315      33325F74 
 4315      00
 4316              	.LASF84:
 4317 04ba 63665F6F 		.ascii	"cf_off_prio\000"
 4317      66665F70 
 4317      72696F00 
 4318              	.LASF58:
 4319 04c6 725F7175 		.ascii	"r_queue\000"
 4319      65756500 
 4320              	.LASF50:
 4321 04ce 56697274 		.ascii	"VirtualTimer\000"
 4321      75616C54 
 4321      696D6572 
 4321      00
 4322              	.LASF75:
 4323 04db 63686172 		.ascii	"char\000"
 4323      00
 4324              	.LASF6:
 4325 04e0 5F5F7569 		.ascii	"__uint16_t\000"
 4325      6E743136 
 4325      5F7400
 4326              	.LASF117:
 4327 04eb 63685363 		.ascii	"chSchReadyI\000"
 4327      68526561 
 4327      64794900 
 4328              	.LASF70:
 4329 04f7 6D5F6E65 		.ascii	"m_next\000"
 4329      787400
 4330              	.LASF24:
 4331 04fe 73797374 		.ascii	"systime_t\000"
 4331      696D655F 
 4331      7400
 4332              	.LASF42:
 4333 0508 705F7265 		.ascii	"p_realprio\000"
 4333      616C7072 
 4333      696F00
 4334              	.LASF8:
 4335 0513 5F5F696E 		.ascii	"__int32_t\000"
 4335      7433325F 
 4335      7400
 4336              	.LASF100:
 4337 051d 63685468 		.ascii	"chThdYield\000"
ARM GAS  /var/folders/l5/0x54b2c10074c8bt31ycjvl80000gp/T//ccuPlkW0.s 			page 81


 4337      64596965 
 4337      6C6400
 4338              	.LASF36:
 4339 0528 705F7469 		.ascii	"p_time\000"
 4339      6D6500
 4340              	.LASF47:
 4341 052f 696E7463 		.ascii	"intctx\000"
 4341      747800
 4342              	.LASF38:
 4343 0536 705F6D73 		.ascii	"p_msgqueue\000"
 4343      67717565 
 4343      756500
 4344              	.LASF105:
 4345 0541 63685468 		.ascii	"chThdWait\000"
 4345      64576169 
 4345      7400
 4346              	.LASF55:
 4347 054b 76745F70 		.ascii	"vt_par\000"
 4347      617200
 4348              	.LASF85:
 4349 0552 63665F6F 		.ascii	"cf_off_ctx\000"
 4349      66665F63 
 4349      747800
 4350              	.LASF35:
 4351 055d 705F7265 		.ascii	"p_refs\000"
 4351      667300
 4352              	.LASF64:
 4353 0564 52656164 		.ascii	"ReadyList\000"
 4353      794C6973 
 4353      7400
 4354              	.LASF66:
 4355 056e 726C6973 		.ascii	"rlist\000"
 4355      7400
 4356              	.LASF14:
 4357 0574 75696E74 		.ascii	"uint8_t\000"
 4357      385F7400 
 4358              	.LASF123:
 4359 057c 2E2E2F2E 		.ascii	"../../os/kernel/src/chthreads.c\000"
 4359      2E2F6F73 
 4359      2F6B6572 
 4359      6E656C2F 
 4359      7372632F 
 4360              	.LASF73:
 4361 059c 77746F62 		.ascii	"wtobjp\000"
 4361      6A7000
 4362              	.LASF32:
 4363 05a3 705F6E61 		.ascii	"p_name\000"
 4363      6D6500
 4364              	.LASF56:
 4365 05aa 76745F73 		.ascii	"vt_systime\000"
 4365      79737469 
 4365      6D6500
 4366              	.LASF119:
 4367 05b5 63685363 		.ascii	"chSchGoSleepTimeoutS\000"
 4367      68476F53 
 4367      6C656570 
 4367      54696D65 
ARM GAS  /var/folders/l5/0x54b2c10074c8bt31ycjvl80000gp/T//ccuPlkW0.s 			page 82


 4367      6F757453 
 4368              	.LASF80:
 4369 05ca 63685F76 		.ascii	"ch_version\000"
 4369      65727369 
 4369      6F6E00
 4370              	.LASF124:
 4371 05d5 2F557365 		.ascii	"/Users/fernandoguirado/eclipse-workspace/ChibiOS-RP"
 4371      72732F66 
 4371      65726E61 
 4371      6E646F67 
 4371      75697261 
 4372 0608 692D636F 		.ascii	"i-copia/demos/timers\000"
 4372      7069612F 
 4372      64656D6F 
 4372      732F7469 
 4372      6D657273 
 4373              	.LASF57:
 4374 061d 56544C69 		.ascii	"VTList\000"
 4374      737400
 4375              	.LASF69:
 4376 0624 6D5F6F77 		.ascii	"m_owner\000"
 4376      6E657200 
 4377              	.LASF29:
 4378 062c 705F6374 		.ascii	"p_ctx\000"
 4378      7800
 4379              	.LASF37:
 4380 0632 705F7761 		.ascii	"p_waiting\000"
 4380      6974696E 
 4380      6700
 4381              		.ident	"GCC: (GNU Tools for Arm Embedded Processors 8-2019-q3-update) 8.3.1 20190703 (release) [gc
ARM GAS  /var/folders/l5/0x54b2c10074c8bt31ycjvl80000gp/T//ccuPlkW0.s 			page 83


DEFINED SYMBOLS
                            *ABS*:0000000000000000 chthreads.c
/var/folders/l5/0x54b2c10074c8bt31ycjvl80000gp/T//ccuPlkW0.s:16     .text._thread_init:0000000000000000 $a
/var/folders/l5/0x54b2c10074c8bt31ycjvl80000gp/T//ccuPlkW0.s:23     .text._thread_init:0000000000000000 _thread_init
/var/folders/l5/0x54b2c10074c8bt31ycjvl80000gp/T//ccuPlkW0.s:101    .text._thread_init:0000000000000060 $d
/var/folders/l5/0x54b2c10074c8bt31ycjvl80000gp/T//ccuPlkW0.s:106    .text.chThdCreateI:0000000000000000 $a
/var/folders/l5/0x54b2c10074c8bt31ycjvl80000gp/T//ccuPlkW0.s:112    .text.chThdCreateI:0000000000000000 chThdCreateI
/var/folders/l5/0x54b2c10074c8bt31ycjvl80000gp/T//ccuPlkW0.s:241    .text.chThdCreateI:0000000000000080 $d
/var/folders/l5/0x54b2c10074c8bt31ycjvl80000gp/T//ccuPlkW0.s:247    .text.chThdCreateStatic:0000000000000000 $a
/var/folders/l5/0x54b2c10074c8bt31ycjvl80000gp/T//ccuPlkW0.s:253    .text.chThdCreateStatic:0000000000000000 chThdCreateStatic
/var/folders/l5/0x54b2c10074c8bt31ycjvl80000gp/T//ccuPlkW0.s:424    .text.chThdCreateStatic:0000000000000098 $d
/var/folders/l5/0x54b2c10074c8bt31ycjvl80000gp/T//ccuPlkW0.s:430    .text.chThdSetPriority:0000000000000000 $a
/var/folders/l5/0x54b2c10074c8bt31ycjvl80000gp/T//ccuPlkW0.s:436    .text.chThdSetPriority:0000000000000000 chThdSetPriority
/var/folders/l5/0x54b2c10074c8bt31ycjvl80000gp/T//ccuPlkW0.s:507    .text.chThdSetPriority:000000000000004c $d
/var/folders/l5/0x54b2c10074c8bt31ycjvl80000gp/T//ccuPlkW0.s:512    .text.chThdResume:0000000000000000 $a
/var/folders/l5/0x54b2c10074c8bt31ycjvl80000gp/T//ccuPlkW0.s:518    .text.chThdResume:0000000000000000 chThdResume
/var/folders/l5/0x54b2c10074c8bt31ycjvl80000gp/T//ccuPlkW0.s:565    .text.chThdTerminate:0000000000000000 $a
/var/folders/l5/0x54b2c10074c8bt31ycjvl80000gp/T//ccuPlkW0.s:571    .text.chThdTerminate:0000000000000000 chThdTerminate
/var/folders/l5/0x54b2c10074c8bt31ycjvl80000gp/T//ccuPlkW0.s:608    .text.chThdSleep:0000000000000000 $a
/var/folders/l5/0x54b2c10074c8bt31ycjvl80000gp/T//ccuPlkW0.s:614    .text.chThdSleep:0000000000000000 chThdSleep
/var/folders/l5/0x54b2c10074c8bt31ycjvl80000gp/T//ccuPlkW0.s:661    .text.chThdSleepUntil:0000000000000000 $a
/var/folders/l5/0x54b2c10074c8bt31ycjvl80000gp/T//ccuPlkW0.s:667    .text.chThdSleepUntil:0000000000000000 chThdSleepUntil
/var/folders/l5/0x54b2c10074c8bt31ycjvl80000gp/T//ccuPlkW0.s:729    .text.chThdSleepUntil:0000000000000030 $d
/var/folders/l5/0x54b2c10074c8bt31ycjvl80000gp/T//ccuPlkW0.s:734    .text.chThdYield:0000000000000000 $a
/var/folders/l5/0x54b2c10074c8bt31ycjvl80000gp/T//ccuPlkW0.s:740    .text.chThdYield:0000000000000000 chThdYield
/var/folders/l5/0x54b2c10074c8bt31ycjvl80000gp/T//ccuPlkW0.s:800    .text.chThdYield:0000000000000038 $d
/var/folders/l5/0x54b2c10074c8bt31ycjvl80000gp/T//ccuPlkW0.s:805    .text.chThdExitS:0000000000000000 $a
/var/folders/l5/0x54b2c10074c8bt31ycjvl80000gp/T//ccuPlkW0.s:811    .text.chThdExitS:0000000000000000 chThdExitS
/var/folders/l5/0x54b2c10074c8bt31ycjvl80000gp/T//ccuPlkW0.s:907    .text.chThdExitS:0000000000000060 $d
/var/folders/l5/0x54b2c10074c8bt31ycjvl80000gp/T//ccuPlkW0.s:912    .text.chThdExit:0000000000000000 $a
/var/folders/l5/0x54b2c10074c8bt31ycjvl80000gp/T//ccuPlkW0.s:918    .text.chThdExit:0000000000000000 chThdExit
/var/folders/l5/0x54b2c10074c8bt31ycjvl80000gp/T//ccuPlkW0.s:943    .text.chThdWait:0000000000000000 $a
/var/folders/l5/0x54b2c10074c8bt31ycjvl80000gp/T//ccuPlkW0.s:949    .text.chThdWait:0000000000000000 chThdWait
/var/folders/l5/0x54b2c10074c8bt31ycjvl80000gp/T//ccuPlkW0.s:1048   .text.chThdWait:000000000000004c $d

UNDEFINED SYMBOLS
rlist
_port_thread_start
chSchWakeupS
chSchRescheduleS
chSchGoSleepTimeoutS
vtlist
chSchDoRescheduleBehind
chSchReadyI
chSchGoSleepS
chThdRelease
