ARM GAS  /var/folders/l5/0x54b2c10074c8bt31ycjvl80000gp/T//ccuPlkW0.s 			page 1


   1              		.cpu arm1176jz-s
   2              		.eabi_attribute 20, 1
   3              		.eabi_attribute 21, 1
   4              		.eabi_attribute 23, 3
   5              		.eabi_attribute 24, 1
   6              		.eabi_attribute 25, 1
   7              		.eabi_attribute 26, 1
   8              		.eabi_attribute 30, 2
   9              		.eabi_attribute 34, 1
  10              		.eabi_attribute 18, 4
  11              		.file	"chthreads.c"
  12              		.text
  13              	.Ltext0:
  14              		.cfi_sections	.debug_frame
  15              		.section	.text._thread_init,"ax",%progbits
  16              		.align	2
  17              		.global	_thread_init
  18              		.arch armv6kz
  19              		.syntax unified
  20              		.arm
  21              		.fpu softvfp
  22              		.type	_thread_init, %function
  23              	_thread_init:
  24              	.LVL0:
  25              	.LFB7:
  26              		.file 1 "../../os/kernel/src/chthreads.c"
  27              		.loc 1 69 48 view -0
  28              		.cfi_startproc
  29              		@ args = 0, pretend = 0, frame = 0
  30              		@ frame_needed = 0, uses_anonymous_args = 0
  31              		.loc 1 71 3 view .LVU1
  32              		.loc 1 69 48 is_stmt 0 view .LVU2
  33 0000 30402DE9 		push	{r4, r5, lr}
  34              		.cfi_def_cfa_offset 12
  35              		.cfi_offset 4, -12
  36              		.cfi_offset 5, -8
  37              		.cfi_offset 14, -4
  38              		.loc 1 79 17 view .LVU3
  39 0004 0020A0E3 		mov	r2, #0
  40              		.loc 1 72 15 view .LVU4
  41 0008 0250A0E3 		mov	r5, #2
  42              		.loc 1 88 14 view .LVU5
  43 000c 0140A0E3 		mov	r4, #1
  44              		.loc 1 92 3 view .LVU6
  45 0010 48C09FE5 		ldr	ip, .L4
  46              		.loc 1 71 14 view .LVU7
  47 0014 081080E5 		str	r1, [r0, #8]
  48              		.loc 1 72 3 is_stmt 1 view .LVU8
  49              		.loc 1 73 3 view .LVU9
  50              		.loc 1 92 3 is_stmt 0 view .LVU10
  51 0018 14E09CE5 		ldr	lr, [ip, #20]
  52              		.loc 1 78 18 view .LVU11
  53 001c 401080E5 		str	r1, [r0, #64]
  54              		.loc 1 92 3 view .LVU12
  55 0020 10C080E5 		str	ip, [r0, #16]
  56 0024 14E080E5 		str	lr, [r0, #20]
  57              		.loc 1 98 3 view .LVU13
ARM GAS  /var/folders/l5/0x54b2c10074c8bt31ycjvl80000gp/T//ccuPlkW0.s 			page 2


  58 0028 2C1080E2 		add	r1, r0, #44
  59              	.LVL1:
  60              		.loc 1 92 3 view .LVU14
  61 002c 14008CE5 		str	r0, [ip, #20]
  62              		.loc 1 95 3 view .LVU15
  63 0030 28C080E2 		add	ip, r0, #40
  64              		.loc 1 72 15 view .LVU16
  65 0034 BC51C0E1 		strh	r5, [r0, #28]	@ movhi
  66              		.loc 1 78 3 is_stmt 1 view .LVU17
  67              		.loc 1 79 3 view .LVU18
  68              		.loc 1 88 14 is_stmt 0 view .LVU19
  69 0038 1E40C0E5 		strb	r4, [r0, #30]
  70              		.loc 1 79 17 view .LVU20
  71 003c 3C2080E5 		str	r2, [r0, #60]
  72              		.loc 1 82 3 is_stmt 1 view .LVU21
  73              		.loc 1 82 18 is_stmt 0 view .LVU22
  74 0040 382080E5 		str	r2, [r0, #56]
  75              		.loc 1 85 3 is_stmt 1 view .LVU23
  76              		.loc 1 85 14 is_stmt 0 view .LVU24
  77 0044 202080E5 		str	r2, [r0, #32]
  78              		.loc 1 88 3 is_stmt 1 view .LVU25
  79              		.loc 1 91 3 view .LVU26
  80              		.loc 1 91 14 is_stmt 0 view .LVU27
  81 0048 182080E5 		str	r2, [r0, #24]
  82              		.loc 1 92 3 is_stmt 1 view .LVU28
  83              		.loc 1 92 3 view .LVU29
  84              		.loc 1 92 3 view .LVU30
  85 004c 10008EE5 		str	r0, [lr, #16]
  86              		.loc 1 92 17 view .LVU31
  87              		.loc 1 95 3 view .LVU32
  88 0050 28C080E5 		str	ip, [r0, #40]
  89              		.loc 1 98 3 view .LVU33
  90 0054 301080E5 		str	r1, [r0, #48]
  91 0058 2C1080E5 		str	r1, [r0, #44]
  92              		.loc 1 98 30 view .LVU34
  93              		.loc 1 104 3 view .LVU35
  94              		.loc 1 104 27 view .LVU36
  95              		.loc 1 106 3 view .LVU37
  96              		.loc 1 107 1 is_stmt 0 view .LVU38
  97 005c 3080BDE8 		pop	{r4, r5, pc}
  98              	.L5:
  99              		.align	2
 100              	.L4:
 101 0060 00000000 		.word	rlist
 102              		.cfi_endproc
 103              	.LFE7:
 104              		.size	_thread_init, .-_thread_init
 105              		.section	.text.chThdCreateI,"ax",%progbits
 106              		.align	2
 107              		.global	chThdCreateI
 108              		.syntax unified
 109              		.arm
 110              		.fpu softvfp
 111              		.type	chThdCreateI, %function
 112              	chThdCreateI:
 113              	.LVL2:
 114              	.LFB8:
ARM GAS  /var/folders/l5/0x54b2c10074c8bt31ycjvl80000gp/T//ccuPlkW0.s 			page 3


 115              		.loc 1 151 59 is_stmt 1 view -0
 116              		.cfi_startproc
 117              		@ args = 4, pretend = 0, frame = 0
 118              		@ frame_needed = 0, uses_anonymous_args = 0
 119              		.loc 1 153 3 view .LVU40
 120              		.loc 1 155 3 view .LVU41
 121              		.loc 1 155 21 view .LVU42
 122              		.loc 1 157 3 view .LVU43
 123              		.loc 1 159 29 view .LVU44
 124              		.loc 1 160 3 view .LVU45
 125              		.loc 1 151 59 is_stmt 0 view .LVU46
 126 0000 F0402DE9 		push	{r4, r5, r6, r7, lr}
 127              		.cfi_def_cfa_offset 20
 128              		.cfi_offset 4, -20
 129              		.cfi_offset 5, -16
 130              		.cfi_offset 6, -12
 131              		.cfi_offset 7, -8
 132              		.cfi_offset 14, -4
 133              	.LBB12:
 134              	.LBB13:
 135              		.loc 1 79 17 view .LVU47
 136 0004 00E0A0E3 		mov	lr, #0
 137              		.loc 1 72 15 view .LVU48
 138 0008 0270A0E3 		mov	r7, #2
 139              		.loc 1 88 14 view .LVU49
 140 000c 0160A0E3 		mov	r6, #1
 141              	.LBE13:
 142              	.LBE12:
 143              		.loc 1 160 3 view .LVU50
 144 0010 241041E2 		sub	r1, r1, #36
 145              	.LVL3:
 146              		.loc 1 160 3 view .LVU51
 147 0014 015080E0 		add	r5, r0, r1
 148 0018 0C5080E5 		str	r5, [r0, #12]
 149              		.loc 1 160 3 is_stmt 1 view .LVU52
 150 001c 013080E7 		str	r3, [r0, r1]
 151              		.loc 1 160 3 view .LVU53
 152              		.loc 1 151 59 is_stmt 0 view .LVU54
 153 0020 14309DE5 		ldr	r3, [sp, #20]
 154              	.LVL4:
 155              	.LBB17:
 156              	.LBB14:
 157              		.loc 1 92 3 view .LVU55
 158 0024 54409FE5 		ldr	r4, .L8
 159              	.LBE14:
 160              	.LBE17:
 161              		.loc 1 160 3 view .LVU56
 162 0028 043085E5 		str	r3, [r5, #4]
 163              		.loc 1 160 3 is_stmt 1 view .LVU57
 164 002c 50309FE5 		ldr	r3, .L8+4
 165              	.LBB18:
 166              	.LBB15:
 167              		.loc 1 95 3 is_stmt 0 view .LVU58
 168 0030 281080E2 		add	r1, r0, #40
 169              	.LVL5:
 170              		.loc 1 95 3 view .LVU59
 171              	.LBE15:
ARM GAS  /var/folders/l5/0x54b2c10074c8bt31ycjvl80000gp/T//ccuPlkW0.s 			page 4


 172              	.LBE18:
 173              		.loc 1 160 3 view .LVU60
 174 0034 203085E5 		str	r3, [r5, #32]
 175              		.loc 1 160 36 is_stmt 1 view .LVU61
 176              		.loc 1 161 3 view .LVU62
 177              	.LVL6:
 178              	.LBB19:
 179              	.LBI12:
 180              		.loc 1 69 9 view .LVU63
 181              	.LBB16:
 182              		.loc 1 71 3 view .LVU64
 183              		.loc 1 71 14 is_stmt 0 view .LVU65
 184 0038 082080E5 		str	r2, [r0, #8]
 185              		.loc 1 72 3 is_stmt 1 view .LVU66
 186              		.loc 1 73 3 view .LVU67
 187              		.loc 1 78 18 is_stmt 0 view .LVU68
 188 003c 402080E5 		str	r2, [r0, #64]
 189              		.loc 1 92 3 view .LVU69
 190 0040 142094E5 		ldr	r2, [r4, #20]
 191              	.LVL7:
 192              		.loc 1 98 3 view .LVU70
 193 0044 2C3080E2 		add	r3, r0, #44
 194              		.loc 1 92 3 view .LVU71
 195 0048 104080E5 		str	r4, [r0, #16]
 196 004c 142080E5 		str	r2, [r0, #20]
 197              		.loc 1 72 15 view .LVU72
 198 0050 BC71C0E1 		strh	r7, [r0, #28]	@ movhi
 199              	.LVL8:
 200              		.loc 1 78 3 is_stmt 1 view .LVU73
 201              		.loc 1 79 3 view .LVU74
 202              		.loc 1 88 14 is_stmt 0 view .LVU75
 203 0054 1E60C0E5 		strb	r6, [r0, #30]
 204              		.loc 1 79 17 view .LVU76
 205 0058 3CE080E5 		str	lr, [r0, #60]
 206              		.loc 1 82 3 is_stmt 1 view .LVU77
 207              		.loc 1 92 3 is_stmt 0 view .LVU78
 208 005c 140084E5 		str	r0, [r4, #20]
 209              		.loc 1 82 18 view .LVU79
 210 0060 38E080E5 		str	lr, [r0, #56]
 211              		.loc 1 85 3 is_stmt 1 view .LVU80
 212              		.loc 1 85 14 is_stmt 0 view .LVU81
 213 0064 20E080E5 		str	lr, [r0, #32]
 214              		.loc 1 88 3 is_stmt 1 view .LVU82
 215              		.loc 1 91 3 view .LVU83
 216              		.loc 1 91 14 is_stmt 0 view .LVU84
 217 0068 18E080E5 		str	lr, [r0, #24]
 218              		.loc 1 92 3 is_stmt 1 view .LVU85
 219              		.loc 1 92 3 view .LVU86
 220              		.loc 1 92 3 view .LVU87
 221 006c 100082E5 		str	r0, [r2, #16]
 222              		.loc 1 92 17 view .LVU88
 223              		.loc 1 95 3 view .LVU89
 224 0070 281080E5 		str	r1, [r0, #40]
 225              		.loc 1 98 3 view .LVU90
 226 0074 303080E5 		str	r3, [r0, #48]
 227 0078 2C3080E5 		str	r3, [r0, #44]
 228              		.loc 1 98 30 view .LVU91
ARM GAS  /var/folders/l5/0x54b2c10074c8bt31ycjvl80000gp/T//ccuPlkW0.s 			page 5


 229              		.loc 1 104 3 view .LVU92
 230              		.loc 1 104 27 view .LVU93
 231              		.loc 1 106 3 view .LVU94
 232              	.LVL9:
 233              		.loc 1 106 3 is_stmt 0 view .LVU95
 234              	.LBE16:
 235              	.LBE19:
 236              		.loc 1 162 1 view .LVU96
 237 007c F080BDE8 		pop	{r4, r5, r6, r7, pc}
 238              	.L9:
 239              		.align	2
 240              	.L8:
 241 0080 00000000 		.word	rlist
 242 0084 00000000 		.word	_port_thread_start
 243              		.cfi_endproc
 244              	.LFE8:
 245              		.size	chThdCreateI, .-chThdCreateI
 246              		.section	.text.chThdCreateStatic,"ax",%progbits
 247              		.align	2
 248              		.global	chThdCreateStatic
 249              		.syntax unified
 250              		.arm
 251              		.fpu softvfp
 252              		.type	chThdCreateStatic, %function
 253              	chThdCreateStatic:
 254              	.LVL10:
 255              	.LFB9:
 256              		.loc 1 181 64 is_stmt 1 view -0
 257              		.cfi_startproc
 258              		@ args = 4, pretend = 0, frame = 0
 259              		@ frame_needed = 0, uses_anonymous_args = 0
 260              		.loc 1 182 3 view .LVU98
 261              		.loc 1 192 3 view .LVU99
 262              		.loc 1 181 64 is_stmt 0 view .LVU100
 263 0000 F0412DE9 		push	{r4, r5, r6, r7, r8, lr}
 264              		.cfi_def_cfa_offset 24
 265              		.cfi_offset 4, -24
 266              		.cfi_offset 5, -20
 267              		.cfi_offset 6, -16
 268              		.cfi_offset 7, -12
 269              		.cfi_offset 8, -8
 270              		.cfi_offset 14, -4
 271              		.loc 1 181 64 view .LVU101
 272 0004 18809DE5 		ldr	r8, [sp, #24]
 273 0008 0040A0E1 		mov	r4, r0
 274              		.loc 1 192 3 view .LVU102
 275              		.syntax divided
 276              	@ 192 "../../os/kernel/src/chthreads.c" 1
 277 000c 9FF021E3 		msr     CPSR_c, #0x9F
 278              	@ 0 "" 2
 279              		.loc 1 192 3 is_stmt 1 view .LVU103
 280              		.loc 1 192 14 view .LVU104
 281              		.loc 1 193 3 view .LVU105
 282              	.LVL11:
 283              		.arm
 284              		.syntax unified
 285              	.LBB20:
ARM GAS  /var/folders/l5/0x54b2c10074c8bt31ycjvl80000gp/T//ccuPlkW0.s 			page 6


 286              	.LBI20:
 287              		.loc 1 150 9 view .LVU106
 288              	.LBB21:
 289              		.loc 1 153 3 view .LVU107
 290              		.loc 1 155 3 view .LVU108
 291              		.loc 1 155 21 view .LVU109
 292              		.loc 1 157 3 view .LVU110
 293              		.loc 1 159 29 view .LVU111
 294              		.loc 1 160 3 view .LVU112
 295              	.LBB22:
 296              	.LBB23:
 297              		.loc 1 79 17 is_stmt 0 view .LVU113
 298 0010 00C0A0E3 		mov	ip, #0
 299              		.loc 1 72 15 view .LVU114
 300 0014 0270A0E3 		mov	r7, #2
 301              		.loc 1 88 14 view .LVU115
 302 0018 0160A0E3 		mov	r6, #1
 303              	.LBE23:
 304              	.LBE22:
 305              		.loc 1 160 3 view .LVU116
 306 001c 241041E2 		sub	r1, r1, #36
 307              	.LVL12:
 308              		.loc 1 160 3 view .LVU117
 309 0020 015080E0 		add	r5, r0, r1
 310 0024 0C5080E5 		str	r5, [r0, #12]
 311              		.loc 1 160 3 is_stmt 1 view .LVU118
 312              	.LBB27:
 313              	.LBB24:
 314              		.loc 1 92 3 is_stmt 0 view .LVU119
 315 0028 68E09FE5 		ldr	lr, .L12
 316              	.LBE24:
 317              	.LBE27:
 318              		.loc 1 160 3 view .LVU120
 319 002c 013080E7 		str	r3, [r0, r1]
 320              		.loc 1 160 3 is_stmt 1 view .LVU121
 321 0030 64309FE5 		ldr	r3, .L12+4
 322              	.LVL13:
 323              		.loc 1 160 3 is_stmt 0 view .LVU122
 324 0034 048085E5 		str	r8, [r5, #4]
 325              		.loc 1 160 3 is_stmt 1 view .LVU123
 326 0038 203085E5 		str	r3, [r5, #32]
 327              		.loc 1 160 36 view .LVU124
 328              		.loc 1 161 3 view .LVU125
 329              	.LVL14:
 330              	.LBB28:
 331              	.LBI22:
 332              		.loc 1 69 9 view .LVU126
 333              	.LBB25:
 334              		.loc 1 71 3 view .LVU127
 335              		.loc 1 92 3 is_stmt 0 view .LVU128
 336 003c 14509EE5 		ldr	r5, [lr, #20]
 337              	.LVL15:
 338              		.loc 1 78 18 view .LVU129
 339 0040 402080E5 		str	r2, [r0, #64]
 340              		.loc 1 71 14 view .LVU130
 341 0044 082080E5 		str	r2, [r0, #8]
 342              		.loc 1 72 3 is_stmt 1 view .LVU131
ARM GAS  /var/folders/l5/0x54b2c10074c8bt31ycjvl80000gp/T//ccuPlkW0.s 			page 7


 343              		.loc 1 73 3 view .LVU132
 344              		.loc 1 98 3 is_stmt 0 view .LVU133
 345 0048 2C3080E2 		add	r3, r0, #44
 346              		.loc 1 95 3 view .LVU134
 347 004c 282080E2 		add	r2, r0, #40
 348              	.LVL16:
 349              		.loc 1 92 3 view .LVU135
 350 0050 10E080E5 		str	lr, [r0, #16]
 351 0054 145080E5 		str	r5, [r0, #20]
 352              		.loc 1 72 15 view .LVU136
 353 0058 BC71C0E1 		strh	r7, [r0, #28]	@ movhi
 354              	.LVL17:
 355              		.loc 1 78 3 is_stmt 1 view .LVU137
 356              		.loc 1 79 3 view .LVU138
 357              		.loc 1 88 14 is_stmt 0 view .LVU139
 358 005c 1E60C0E5 		strb	r6, [r0, #30]
 359              		.loc 1 79 17 view .LVU140
 360 0060 3CC080E5 		str	ip, [r0, #60]
 361              		.loc 1 82 3 is_stmt 1 view .LVU141
 362              		.loc 1 92 3 is_stmt 0 view .LVU142
 363 0064 14008EE5 		str	r0, [lr, #20]
 364              		.loc 1 82 18 view .LVU143
 365 0068 38C080E5 		str	ip, [r0, #56]
 366              		.loc 1 85 3 is_stmt 1 view .LVU144
 367              		.loc 1 85 14 is_stmt 0 view .LVU145
 368 006c 20C080E5 		str	ip, [r0, #32]
 369              		.loc 1 88 3 is_stmt 1 view .LVU146
 370              		.loc 1 91 3 view .LVU147
 371              		.loc 1 91 14 is_stmt 0 view .LVU148
 372 0070 18C080E5 		str	ip, [r0, #24]
 373              		.loc 1 92 3 is_stmt 1 view .LVU149
 374              		.loc 1 92 3 view .LVU150
 375              		.loc 1 92 3 view .LVU151
 376              	.LBE25:
 377              	.LBE28:
 378              	.LBE21:
 379              	.LBE20:
 380              		.loc 1 193 3 is_stmt 0 view .LVU152
 381 0074 0C10A0E1 		mov	r1, ip
 382              	.LVL18:
 383              	.LBB31:
 384              	.LBB30:
 385              	.LBB29:
 386              	.LBB26:
 387              		.loc 1 92 3 view .LVU153
 388 0078 100085E5 		str	r0, [r5, #16]
 389              		.loc 1 92 17 is_stmt 1 view .LVU154
 390              		.loc 1 95 3 view .LVU155
 391 007c 282080E5 		str	r2, [r0, #40]
 392              		.loc 1 98 3 view .LVU156
 393 0080 303080E5 		str	r3, [r0, #48]
 394 0084 2C3080E5 		str	r3, [r0, #44]
 395              		.loc 1 98 30 view .LVU157
 396              		.loc 1 104 3 view .LVU158
 397              		.loc 1 104 27 view .LVU159
 398              		.loc 1 106 3 view .LVU160
 399              	.LVL19:
ARM GAS  /var/folders/l5/0x54b2c10074c8bt31ycjvl80000gp/T//ccuPlkW0.s 			page 8


 400              		.loc 1 106 3 is_stmt 0 view .LVU161
 401              	.LBE26:
 402              	.LBE29:
 403              	.LBE30:
 404              	.LBE31:
 405              		.loc 1 193 3 view .LVU162
 406 0088 FEFFFFEB 		bl	chSchWakeupS
 407              	.LVL20:
 408              		.loc 1 194 3 is_stmt 1 view .LVU163
 409              		.loc 1 194 3 view .LVU164
 410              		.syntax divided
 411              	@ 194 "../../os/kernel/src/chthreads.c" 1
 412 008c 1FF021E3 		msr     CPSR_c, #0x1F
 413              	@ 0 "" 2
 414              		.loc 1 194 16 view .LVU165
 415              		.loc 1 195 3 view .LVU166
 416              		.loc 1 196 1 is_stmt 0 view .LVU167
 417              		.arm
 418              		.syntax unified
 419 0090 0400A0E1 		mov	r0, r4
 420 0094 F081BDE8 		pop	{r4, r5, r6, r7, r8, pc}
 421              	.L13:
 422              		.align	2
 423              	.L12:
 424 0098 00000000 		.word	rlist
 425 009c 00000000 		.word	_port_thread_start
 426              		.cfi_endproc
 427              	.LFE9:
 428              		.size	chThdCreateStatic, .-chThdCreateStatic
 429              		.section	.text.chThdSetPriority,"ax",%progbits
 430              		.align	2
 431              		.global	chThdSetPriority
 432              		.syntax unified
 433              		.arm
 434              		.fpu softvfp
 435              		.type	chThdSetPriority, %function
 436              	chThdSetPriority:
 437              	.LVL21:
 438              	.LFB10:
 439              		.loc 1 210 43 is_stmt 1 view -0
 440              		.cfi_startproc
 441              		@ args = 0, pretend = 0, frame = 0
 442              		@ frame_needed = 0, uses_anonymous_args = 0
 443              		.loc 1 211 3 view .LVU169
 444              		.loc 1 213 3 view .LVU170
 445              		.loc 1 213 54 view .LVU171
 446              		.loc 1 215 3 view .LVU172
 447              		.loc 1 210 43 is_stmt 0 view .LVU173
 448 0000 10402DE9 		push	{r4, lr}
 449              		.cfi_def_cfa_offset 8
 450              		.cfi_offset 4, -8
 451              		.cfi_offset 14, -4
 452              		.loc 1 210 43 view .LVU174
 453 0004 0010A0E1 		mov	r1, r0
 454              		.loc 1 215 3 view .LVU175
 455              		.syntax divided
 456              	@ 215 "../../os/kernel/src/chthreads.c" 1
ARM GAS  /var/folders/l5/0x54b2c10074c8bt31ycjvl80000gp/T//ccuPlkW0.s 			page 9


 457 0008 9FF021E3 		msr     CPSR_c, #0x9F
 458              	@ 0 "" 2
 459              		.loc 1 215 3 is_stmt 1 view .LVU176
 460              		.loc 1 215 14 view .LVU177
 461              		.loc 1 217 3 view .LVU178
 462              		.loc 1 217 13 is_stmt 0 view .LVU179
 463              		.arm
 464              		.syntax unified
 465 000c 38309FE5 		ldr	r3, .L20
 466 0010 183093E5 		ldr	r3, [r3, #24]
 467              		.loc 1 218 13 view .LVU180
 468 0014 080093E5 		ldr	r0, [r3, #8]
 469              	.LVL22:
 470              		.loc 1 217 11 view .LVU181
 471 0018 404093E5 		ldr	r4, [r3, #64]
 472              	.LVL23:
 473              		.loc 1 218 3 is_stmt 1 view .LVU182
 474              		.loc 1 220 21 is_stmt 0 view .LVU183
 475 001c 401083E5 		str	r1, [r3, #64]
 476              		.loc 1 218 6 view .LVU184
 477 0020 042040E0 		sub	r2, r0, r4
 478 0024 122F6FE1 		clz	r2, r2
 479 0028 A222A0E1 		lsr	r2, r2, #5
 480              		.loc 1 218 44 view .LVU185
 481 002c 010050E1 		cmp	r0, r1
 482 0030 01208233 		orrcc	r2, r2, #1
 483 0034 000052E3 		cmp	r2, #0
 484              		.loc 1 219 5 is_stmt 1 view .LVU186
 485              		.loc 1 219 19 is_stmt 0 view .LVU187
 486 0038 08108315 		strne	r1, [r3, #8]
 487              		.loc 1 220 3 is_stmt 1 view .LVU188
 488              		.loc 1 225 3 view .LVU189
 489 003c FEFFFFEB 		bl	chSchRescheduleS
 490              	.LVL24:
 491              		.loc 1 226 3 view .LVU190
 492              		.loc 1 226 3 view .LVU191
 493              		.syntax divided
 494              	@ 226 "../../os/kernel/src/chthreads.c" 1
 495 0040 1FF021E3 		msr     CPSR_c, #0x1F
 496              	@ 0 "" 2
 497              		.loc 1 226 16 view .LVU192
 498              		.loc 1 227 3 view .LVU193
 499              		.loc 1 228 1 is_stmt 0 view .LVU194
 500              		.arm
 501              		.syntax unified
 502 0044 0400A0E1 		mov	r0, r4
 503 0048 1080BDE8 		pop	{r4, pc}
 504              	.L21:
 505              		.align	2
 506              	.L20:
 507 004c 00000000 		.word	rlist
 508              		.cfi_endproc
 509              	.LFE10:
 510              		.size	chThdSetPriority, .-chThdSetPriority
 511              		.section	.text.chThdResume,"ax",%progbits
 512              		.align	2
 513              		.global	chThdResume
ARM GAS  /var/folders/l5/0x54b2c10074c8bt31ycjvl80000gp/T//ccuPlkW0.s 			page 10


 514              		.syntax unified
 515              		.arm
 516              		.fpu softvfp
 517              		.type	chThdResume, %function
 518              	chThdResume:
 519              	.LVL25:
 520              	.LFB11:
 521              		.loc 1 243 33 is_stmt 1 view -0
 522              		.cfi_startproc
 523              		@ args = 0, pretend = 0, frame = 0
 524              		@ frame_needed = 0, uses_anonymous_args = 0
 525              		.loc 1 245 3 view .LVU196
 526              		.loc 1 243 33 is_stmt 0 view .LVU197
 527 0000 10402DE9 		push	{r4, lr}
 528              		.cfi_def_cfa_offset 8
 529              		.cfi_offset 4, -8
 530              		.cfi_offset 14, -4
 531              		.loc 1 243 33 view .LVU198
 532 0004 0040A0E1 		mov	r4, r0
 533              		.loc 1 245 3 view .LVU199
 534              		.syntax divided
 535              	@ 245 "../../os/kernel/src/chthreads.c" 1
 536 0008 9FF021E3 		msr     CPSR_c, #0x9F
 537              	@ 0 "" 2
 538              		.loc 1 245 3 is_stmt 1 view .LVU200
 539              		.loc 1 245 14 view .LVU201
 540              		.loc 1 246 3 view .LVU202
 541              		.loc 1 248 57 view .LVU203
 542              		.loc 1 249 3 view .LVU204
 543              		.arm
 544              		.syntax unified
 545 000c 0010A0E3 		mov	r1, #0
 546 0010 FEFFFFEB 		bl	chSchWakeupS
 547              	.LVL26:
 548              		.loc 1 250 3 view .LVU205
 549              		.loc 1 250 3 view .LVU206
 550              		.syntax divided
 551              	@ 250 "../../os/kernel/src/chthreads.c" 1
 552 0014 1FF021E3 		msr     CPSR_c, #0x1F
 553              	@ 0 "" 2
 554              		.loc 1 250 16 view .LVU207
 555              		.loc 1 251 3 view .LVU208
 556              		.loc 1 252 1 is_stmt 0 view .LVU209
 557              		.arm
 558              		.syntax unified
 559 0018 0400A0E1 		mov	r0, r4
 560 001c 1080BDE8 		pop	{r4, pc}
 561              		.cfi_endproc
 562              	.LFE11:
 563              		.size	chThdResume, .-chThdResume
 564              		.section	.text.chThdTerminate,"ax",%progbits
 565              		.align	2
 566              		.global	chThdTerminate
 567              		.syntax unified
 568              		.arm
 569              		.fpu softvfp
 570              		.type	chThdTerminate, %function
ARM GAS  /var/folders/l5/0x54b2c10074c8bt31ycjvl80000gp/T//ccuPlkW0.s 			page 11


 571              	chThdTerminate:
 572              	.LVL27:
 573              	.LFB12:
 574              		.loc 1 266 33 is_stmt 1 view -0
 575              		.cfi_startproc
 576              		@ args = 0, pretend = 0, frame = 0
 577              		@ frame_needed = 0, uses_anonymous_args = 0
 578              		@ link register save eliminated.
 579              		.loc 1 268 3 view .LVU211
 580              		.syntax divided
 581              	@ 268 "../../os/kernel/src/chthreads.c" 1
 582 0000 9FF021E3 		msr     CPSR_c, #0x9F
 583              	@ 0 "" 2
 584              		.loc 1 268 3 view .LVU212
 585              		.loc 1 268 14 view .LVU213
 586              		.loc 1 269 3 view .LVU214
 587              		.loc 1 269 15 is_stmt 0 view .LVU215
 588              		.arm
 589              		.syntax unified
 590 0004 1D30D0E5 		ldrb	r3, [r0, #29]	@ zero_extendqisi2
 591 0008 043083E3 		orr	r3, r3, #4
 592 000c 1D30C0E5 		strb	r3, [r0, #29]
 593              		.loc 1 270 3 is_stmt 1 view .LVU216
 594              		.loc 1 270 3 view .LVU217
 595              		.syntax divided
 596              	@ 270 "../../os/kernel/src/chthreads.c" 1
 597 0010 1FF021E3 		msr     CPSR_c, #0x1F
 598              	@ 0 "" 2
 599              		.loc 1 270 16 view .LVU218
 600              		.loc 1 271 1 is_stmt 0 view .LVU219
 601              		.arm
 602              		.syntax unified
 603 0014 1EFF2FE1 		bx	lr
 604              		.cfi_endproc
 605              	.LFE12:
 606              		.size	chThdTerminate, .-chThdTerminate
 607              		.section	.text.chThdSleep,"ax",%progbits
 608              		.align	2
 609              		.global	chThdSleep
 610              		.syntax unified
 611              		.arm
 612              		.fpu softvfp
 613              		.type	chThdSleep, %function
 614              	chThdSleep:
 615              	.LVL28:
 616              	.LFB13:
 617              		.loc 1 285 33 is_stmt 1 view -0
 618              		.cfi_startproc
 619              		@ args = 0, pretend = 0, frame = 0
 620              		@ frame_needed = 0, uses_anonymous_args = 0
 621              		.loc 1 287 3 view .LVU221
 622              		.loc 1 287 51 view .LVU222
 623              		.loc 1 289 3 view .LVU223
 624              		.loc 1 285 33 is_stmt 0 view .LVU224
 625 0000 10402DE9 		push	{r4, lr}
 626              		.cfi_def_cfa_offset 8
 627              		.cfi_offset 4, -8
ARM GAS  /var/folders/l5/0x54b2c10074c8bt31ycjvl80000gp/T//ccuPlkW0.s 			page 12


 628              		.cfi_offset 14, -4
 629              		.loc 1 285 33 view .LVU225
 630 0004 0010A0E1 		mov	r1, r0
 631              		.loc 1 289 3 view .LVU226
 632              		.syntax divided
 633              	@ 289 "../../os/kernel/src/chthreads.c" 1
 634 0008 9FF021E3 		msr     CPSR_c, #0x9F
 635              	@ 0 "" 2
 636              		.loc 1 289 3 is_stmt 1 view .LVU227
 637              		.loc 1 289 14 view .LVU228
 638              		.loc 1 290 3 view .LVU229
 639              		.arm
 640              		.syntax unified
 641 000c 0600A0E3 		mov	r0, #6
 642              	.LVL29:
 643              		.loc 1 290 3 is_stmt 0 view .LVU230
 644 0010 FEFFFFEB 		bl	chSchGoSleepTimeoutS
 645              	.LVL30:
 646              		.loc 1 291 3 is_stmt 1 view .LVU231
 647              		.loc 1 291 3 view .LVU232
 648              		.syntax divided
 649              	@ 291 "../../os/kernel/src/chthreads.c" 1
 650 0014 1FF021E3 		msr     CPSR_c, #0x1F
 651              	@ 0 "" 2
 652              		.loc 1 291 16 view .LVU233
 653              		.loc 1 292 1 is_stmt 0 view .LVU234
 654              		.arm
 655              		.syntax unified
 656 0018 1080BDE8 		pop	{r4, pc}
 657              		.cfi_endproc
 658              	.LFE13:
 659              		.size	chThdSleep, .-chThdSleep
 660              		.section	.text.chThdSleepUntil,"ax",%progbits
 661              		.align	2
 662              		.global	chThdSleepUntil
 663              		.syntax unified
 664              		.arm
 665              		.fpu softvfp
 666              		.type	chThdSleepUntil, %function
 667              	chThdSleepUntil:
 668              	.LVL31:
 669              	.LFB14:
 670              		.loc 1 302 38 is_stmt 1 view -0
 671              		.cfi_startproc
 672              		@ args = 0, pretend = 0, frame = 0
 673              		@ frame_needed = 0, uses_anonymous_args = 0
 674              		.loc 1 304 3 view .LVU236
 675              		.syntax divided
 676              	@ 304 "../../os/kernel/src/chthreads.c" 1
 677 0000 9FF021E3 		msr     CPSR_c, #0x9F
 678              	@ 0 "" 2
 679              		.loc 1 304 3 view .LVU237
 680              		.loc 1 304 14 view .LVU238
 681              		.loc 1 305 3 view .LVU239
 682              		.loc 1 305 16 is_stmt 0 view .LVU240
 683              		.arm
 684              		.syntax unified
ARM GAS  /var/folders/l5/0x54b2c10074c8bt31ycjvl80000gp/T//ccuPlkW0.s 			page 13


 685 0004 24309FE5 		ldr	r3, .L37
 686 0008 0C1093E5 		ldr	r1, [r3, #12]
 687              	.LVL32:
 688              		.loc 1 305 6 view .LVU241
 689 000c 011050E0 		subs	r1, r0, r1
 690              	.LVL33:
 691              		.loc 1 305 6 view .LVU242
 692 0010 0100001A 		bne	.L36
 693              		.loc 1 307 3 is_stmt 1 view .LVU243
 694              		.loc 1 307 3 view .LVU244
 695              		.syntax divided
 696              	@ 307 "../../os/kernel/src/chthreads.c" 1
 697 0014 1FF021E3 		msr     CPSR_c, #0x1F
 698              	@ 0 "" 2
 699              		.loc 1 307 16 view .LVU245
 700              		.loc 1 307 3 is_stmt 0 view .LVU246
 701              		.arm
 702              		.syntax unified
 703 0018 1EFF2FE1 		bx	lr
 704              	.L36:
 705              		.loc 1 306 5 is_stmt 1 view .LVU247
 706              		.loc 1 302 38 is_stmt 0 view .LVU248
 707 001c 10402DE9 		push	{r4, lr}
 708              		.cfi_def_cfa_offset 8
 709              		.cfi_offset 4, -8
 710              		.cfi_offset 14, -4
 711              		.loc 1 306 5 view .LVU249
 712 0020 0600A0E3 		mov	r0, #6
 713 0024 FEFFFFEB 		bl	chSchGoSleepTimeoutS
 714              	.LVL34:
 715              		.loc 1 307 3 is_stmt 1 view .LVU250
 716              		.loc 1 307 3 view .LVU251
 717              		.syntax divided
 718              	@ 307 "../../os/kernel/src/chthreads.c" 1
 719 0028 1FF021E3 		msr     CPSR_c, #0x1F
 720              	@ 0 "" 2
 721              		.loc 1 307 16 view .LVU252
 722              		.loc 1 308 1 is_stmt 0 view .LVU253
 723              		.arm
 724              		.syntax unified
 725 002c 1080BDE8 		pop	{r4, pc}
 726              	.L38:
 727              		.align	2
 728              	.L37:
 729 0030 00000000 		.word	vtlist
 730              		.cfi_endproc
 731              	.LFE14:
 732              		.size	chThdSleepUntil, .-chThdSleepUntil
 733              		.section	.text.chThdYield,"ax",%progbits
 734              		.align	2
 735              		.global	chThdYield
 736              		.syntax unified
 737              		.arm
 738              		.fpu softvfp
 739              		.type	chThdYield, %function
 740              	chThdYield:
 741              	.LFB15:
ARM GAS  /var/folders/l5/0x54b2c10074c8bt31ycjvl80000gp/T//ccuPlkW0.s 			page 14


 742              		.loc 1 317 23 is_stmt 1 view -0
 743              		.cfi_startproc
 744              		@ args = 0, pretend = 0, frame = 0
 745              		@ frame_needed = 0, uses_anonymous_args = 0
 746              		.loc 1 319 3 view .LVU255
 747              		.syntax divided
 748              	@ 319 "../../os/kernel/src/chthreads.c" 1
 749 0000 9FF021E3 		msr     CPSR_c, #0x9F
 750              	@ 0 "" 2
 751              		.loc 1 319 3 view .LVU256
 752              		.loc 1 319 14 view .LVU257
 753              		.loc 1 320 3 view .LVU258
 754              		.arm
 755              		.syntax unified
 756 0004 2C309FE5 		ldr	r3, .L46
 757 0008 002093E5 		ldr	r2, [r3]
 758 000c 183093E5 		ldr	r3, [r3, #24]
 759 0010 082092E5 		ldr	r2, [r2, #8]
 760 0014 083093E5 		ldr	r3, [r3, #8]
 761 0018 030052E1 		cmp	r2, r3
 762 001c 0100002A 		bcs	.L45
 763              		.loc 1 320 18 view .LVU259
 764              		.loc 1 321 3 view .LVU260
 765              		.loc 1 321 3 view .LVU261
 766              		.syntax divided
 767              	@ 321 "../../os/kernel/src/chthreads.c" 1
 768 0020 1FF021E3 		msr     CPSR_c, #0x1F
 769              	@ 0 "" 2
 770              		.loc 1 321 16 view .LVU262
 771              		.loc 1 321 3 is_stmt 0 view .LVU263
 772              		.arm
 773              		.syntax unified
 774 0024 1EFF2FE1 		bx	lr
 775              	.L45:
 776              		.loc 1 320 3 is_stmt 1 discriminator 1 view .LVU264
 777              		.loc 1 317 23 is_stmt 0 discriminator 1 view .LVU265
 778 0028 10402DE9 		push	{r4, lr}
 779              		.cfi_def_cfa_offset 8
 780              		.cfi_offset 4, -8
 781              		.cfi_offset 14, -4
 782              		.loc 1 320 3 discriminator 1 view .LVU266
 783 002c FEFFFFEB 		bl	chSchDoRescheduleBehind
 784              	.LVL35:
 785              		.loc 1 320 18 is_stmt 1 discriminator 1 view .LVU267
 786              		.loc 1 321 3 discriminator 1 view .LVU268
 787              		.loc 1 321 3 discriminator 1 view .LVU269
 788              		.syntax divided
 789              	@ 321 "../../os/kernel/src/chthreads.c" 1
 790 0030 1FF021E3 		msr     CPSR_c, #0x1F
 791              	@ 0 "" 2
 792              		.loc 1 321 16 discriminator 1 view .LVU270
 793              		.loc 1 322 1 is_stmt 0 discriminator 1 view .LVU271
 794              		.arm
 795              		.syntax unified
 796 0034 1080BDE8 		pop	{r4, pc}
 797              	.L47:
 798              		.align	2
ARM GAS  /var/folders/l5/0x54b2c10074c8bt31ycjvl80000gp/T//ccuPlkW0.s 			page 15


 799              	.L46:
 800 0038 00000000 		.word	rlist
 801              		.cfi_endproc
 802              	.LFE15:
 803              		.size	chThdYield, .-chThdYield
 804              		.section	.text.chThdExitS,"ax",%progbits
 805              		.align	2
 806              		.global	chThdExitS
 807              		.syntax unified
 808              		.arm
 809              		.fpu softvfp
 810              		.type	chThdExitS, %function
 811              	chThdExitS:
 812              	.LVL36:
 813              	.LFB17:
 814              		.loc 1 359 28 is_stmt 1 view -0
 815              		.cfi_startproc
 816              		@ args = 0, pretend = 0, frame = 0
 817              		@ frame_needed = 0, uses_anonymous_args = 0
 818              		.loc 1 360 3 view .LVU273
 819              		.loc 1 360 11 is_stmt 0 view .LVU274
 820 0000 58309FE5 		ldr	r3, .L54
 821              		.loc 1 359 28 view .LVU275
 822 0004 70402DE9 		push	{r4, r5, r6, lr}
 823              		.cfi_def_cfa_offset 16
 824              		.cfi_offset 4, -16
 825              		.cfi_offset 5, -12
 826              		.cfi_offset 6, -8
 827              		.cfi_offset 14, -4
 828              		.loc 1 360 11 view .LVU276
 829 0008 184093E5 		ldr	r4, [r3, #24]
 830              	.LVL37:
 831              		.loc 1 362 3 is_stmt 1 view .LVU277
 832              		.loc 1 367 10 is_stmt 0 view .LVU278
 833 000c 0450A0E1 		mov	r5, r4
 834 0010 2830B5E5 		ldr	r3, [r5, #40]!
 835              		.loc 1 362 20 view .LVU279
 836 0014 240084E5 		str	r0, [r4, #36]
 837              		.loc 1 364 3 is_stmt 1 view .LVU280
 838              		.loc 1 364 27 view .LVU281
 839              		.loc 1 367 3 view .LVU282
 840              		.loc 1 367 9 is_stmt 0 view .LVU283
 841 0018 030055E1 		cmp	r5, r3
 842 001c 0600000A 		beq	.L49
 843              	.LVL38:
 844              	.L50:
 845              		.loc 1 368 5 is_stmt 1 view .LVU284
 846              	.LBB32:
 847              	.LBI32:
 848              		.file 2 "../../os/kernel/include/chinline.h"
 849              		.loc 2 79 23 view .LVU285
 850              	.LBB33:
 851              		.loc 2 81 3 view .LVU286
 852              		.loc 2 82 3 view .LVU287
 853              		.loc 2 82 19 is_stmt 0 view .LVU288
 854 0020 002093E5 		ldr	r2, [r3]
 855              	.LBE33:
ARM GAS  /var/folders/l5/0x54b2c10074c8bt31ycjvl80000gp/T//ccuPlkW0.s 			page 16


 856              	.LBE32:
 857              		.loc 1 368 5 view .LVU289
 858 0024 0300A0E1 		mov	r0, r3
 859              	.LBB35:
 860              	.LBB34:
 861              		.loc 2 82 15 view .LVU290
 862 0028 282084E5 		str	r2, [r4, #40]
 863              		.loc 2 83 3 is_stmt 1 view .LVU291
 864              	.LVL39:
 865              		.loc 2 83 3 is_stmt 0 view .LVU292
 866              	.LBE34:
 867              	.LBE35:
 868              		.loc 1 368 5 view .LVU293
 869 002c FEFFFFEB 		bl	chSchReadyI
 870              	.LVL40:
 871              		.loc 1 367 10 view .LVU294
 872 0030 283094E5 		ldr	r3, [r4, #40]
 873              		.loc 1 367 9 view .LVU295
 874 0034 050053E1 		cmp	r3, r5
 875 0038 F8FFFF1A 		bne	.L50
 876              	.LVL41:
 877              	.L49:
 878              		.loc 1 373 3 is_stmt 1 view .LVU296
 879              		.loc 1 373 6 is_stmt 0 view .LVU297
 880 003c 1D30D4E5 		ldrb	r3, [r4, #29]	@ zero_extendqisi2
 881              		.loc 1 376 3 view .LVU298
 882 0040 0E00A0E3 		mov	r0, #14
 883              		.loc 1 373 6 view .LVU299
 884 0044 030013E3 		tst	r3, #3
 885              		.loc 1 374 5 is_stmt 1 view .LVU300
 886 0048 14209405 		ldreq	r2, [r4, #20]
 887 004c 10309405 		ldreq	r3, [r4, #16]
 888              		.loc 1 379 1 is_stmt 0 view .LVU301
 889 0050 7040BDE8 		pop	{r4, r5, r6, lr}
 890              		.cfi_restore 14
 891              		.cfi_restore 6
 892              		.cfi_restore 5
 893              		.cfi_restore 4
 894              		.cfi_def_cfa_offset 0
 895              	.LVL42:
 896              		.loc 1 374 5 view .LVU302
 897 0054 10308205 		streq	r3, [r2, #16]
 898              		.loc 1 374 5 is_stmt 1 view .LVU303
 899 0058 14208305 		streq	r2, [r3, #20]
 900              		.loc 1 374 19 view .LVU304
 901              		.loc 1 376 3 view .LVU305
 902 005c FEFFFFEA 		b	chSchGoSleepS
 903              	.LVL43:
 904              	.L55:
 905              		.align	2
 906              	.L54:
 907 0060 00000000 		.word	rlist
 908              		.cfi_endproc
 909              	.LFE17:
 910              		.size	chThdExitS, .-chThdExitS
 911              		.section	.text.chThdExit,"ax",%progbits
 912              		.align	2
ARM GAS  /var/folders/l5/0x54b2c10074c8bt31ycjvl80000gp/T//ccuPlkW0.s 			page 17


 913              		.global	chThdExit
 914              		.syntax unified
 915              		.arm
 916              		.fpu softvfp
 917              		.type	chThdExit, %function
 918              	chThdExit:
 919              	.LVL44:
 920              	.LFB16:
 921              		.loc 1 338 27 view -0
 922              		.cfi_startproc
 923              		@ args = 0, pretend = 0, frame = 0
 924              		@ frame_needed = 0, uses_anonymous_args = 0
 925              		@ link register save eliminated.
 926              		.loc 1 340 3 view .LVU307
 927              		.syntax divided
 928              	@ 340 "../../os/kernel/src/chthreads.c" 1
 929 0000 9FF021E3 		msr     CPSR_c, #0x9F
 930              	@ 0 "" 2
 931              		.loc 1 340 3 view .LVU308
 932              		.loc 1 340 14 view .LVU309
 933              		.loc 1 341 3 view .LVU310
 934              		.arm
 935              		.syntax unified
 936 0004 FEFFFFEA 		b	chThdExitS
 937              	.LVL45:
 938              		.loc 1 341 3 is_stmt 0 view .LVU311
 939              		.cfi_endproc
 940              	.LFE16:
 941              		.size	chThdExit, .-chThdExit
 942              		.section	.text.chThdWait,"ax",%progbits
 943              		.align	2
 944              		.global	chThdWait
 945              		.syntax unified
 946              		.arm
 947              		.fpu softvfp
 948              		.type	chThdWait, %function
 949              	chThdWait:
 950              	.LVL46:
 951              	.LFB18:
 952              		.loc 1 413 29 is_stmt 1 view -0
 953              		.cfi_startproc
 954              		@ args = 0, pretend = 0, frame = 0
 955              		@ frame_needed = 0, uses_anonymous_args = 0
 956              		.loc 1 414 3 view .LVU313
 957              		.loc 1 416 3 view .LVU314
 958              		.loc 1 416 38 view .LVU315
 959              		.loc 1 418 3 view .LVU316
 960              		.loc 1 413 29 is_stmt 0 view .LVU317
 961 0000 70402DE9 		push	{r4, r5, r6, lr}
 962              		.cfi_def_cfa_offset 16
 963              		.cfi_offset 4, -16
 964              		.cfi_offset 5, -12
 965              		.cfi_offset 6, -8
 966              		.cfi_offset 14, -4
 967              		.loc 1 413 29 view .LVU318
 968 0004 0040A0E1 		mov	r4, r0
 969              		.loc 1 418 3 view .LVU319
ARM GAS  /var/folders/l5/0x54b2c10074c8bt31ycjvl80000gp/T//ccuPlkW0.s 			page 18


 970              		.syntax divided
 971              	@ 418 "../../os/kernel/src/chthreads.c" 1
 972 0008 9FF021E3 		msr     CPSR_c, #0x9F
 973              	@ 0 "" 2
 974              		.loc 1 418 3 is_stmt 1 view .LVU320
 975              		.loc 1 418 14 view .LVU321
 976              		.loc 1 419 3 view .LVU322
 977              		.loc 1 419 62 view .LVU323
 978              		.loc 1 421 3 view .LVU324
 979              		.loc 1 421 67 view .LVU325
 980              		.loc 1 423 3 view .LVU326
 981              		.loc 1 423 6 is_stmt 0 view .LVU327
 982              		.arm
 983              		.syntax unified
 984 000c 1C30D0E5 		ldrb	r3, [r0, #28]	@ zero_extendqisi2
 985 0010 0E0053E3 		cmp	r3, #14
 986 0014 0600000A 		beq	.L58
 987              		.loc 1 419 3 view .LVU328
 988 0018 2C309FE5 		ldr	r3, .L63
 989              	.LBB36:
 990              	.LBB37:
 991              		.loc 2 75 19 view .LVU329
 992 001c 282090E5 		ldr	r2, [r0, #40]
 993              	.LBE37:
 994              	.LBE36:
 995              		.loc 1 419 3 view .LVU330
 996 0020 183093E5 		ldr	r3, [r3, #24]
 997              		.loc 1 424 5 is_stmt 1 view .LVU331
 998              	.LVL47:
 999              	.LBB40:
 1000              	.LBI36:
 1001              		.loc 2 73 20 view .LVU332
 1002              	.LBB38:
 1003              		.loc 2 75 3 view .LVU333
 1004              	.LBE38:
 1005              	.LBE40:
 1006              		.loc 1 425 5 is_stmt 0 view .LVU334
 1007 0024 0700A0E3 		mov	r0, #7
 1008              	.LVL48:
 1009              	.LBB41:
 1010              	.LBB39:
 1011              		.loc 2 75 14 view .LVU335
 1012 0028 002083E5 		str	r2, [r3]
 1013              		.loc 2 76 3 is_stmt 1 view .LVU336
 1014              		.loc 2 76 15 is_stmt 0 view .LVU337
 1015 002c 283084E5 		str	r3, [r4, #40]
 1016              	.LVL49:
 1017              		.loc 2 76 15 view .LVU338
 1018              	.LBE39:
 1019              	.LBE41:
 1020              		.loc 1 425 5 is_stmt 1 view .LVU339
 1021 0030 FEFFFFEB 		bl	chSchGoSleepS
 1022              	.LVL50:
 1023              	.L58:
 1024              		.loc 1 427 3 view .LVU340
 1025              		.loc 1 427 7 is_stmt 0 view .LVU341
 1026 0034 245094E5 		ldr	r5, [r4, #36]
ARM GAS  /var/folders/l5/0x54b2c10074c8bt31ycjvl80000gp/T//ccuPlkW0.s 			page 19


 1027              	.LVL51:
 1028              		.loc 1 428 3 is_stmt 1 view .LVU342
 1029              		.loc 1 428 3 view .LVU343
 1030              		.syntax divided
 1031              	@ 428 "../../os/kernel/src/chthreads.c" 1
 1032 0038 1FF021E3 		msr     CPSR_c, #0x1F
 1033              	@ 0 "" 2
 1034              		.loc 1 428 16 view .LVU344
 1035              		.loc 1 430 3 view .LVU345
 1036              		.arm
 1037              		.syntax unified
 1038 003c 0400A0E1 		mov	r0, r4
 1039 0040 FEFFFFEB 		bl	chThdRelease
 1040              	.LVL52:
 1041              		.loc 1 432 3 view .LVU346
 1042              		.loc 1 433 1 is_stmt 0 view .LVU347
 1043 0044 0500A0E1 		mov	r0, r5
 1044 0048 7080BDE8 		pop	{r4, r5, r6, pc}
 1045              	.L64:
 1046              		.align	2
 1047              	.L63:
 1048 004c 00000000 		.word	rlist
 1049              		.cfi_endproc
 1050              	.LFE18:
 1051              		.size	chThdWait, .-chThdWait
 1052              		.text
 1053              	.Letext0:
 1054              		.file 3 "/usr/local/Cellar/arm-gcc-bin/8-2019-q3-update/lib/gcc/arm-none-eabi/8.3.1/include/stddef
 1055              		.file 4 "/usr/local/Cellar/arm-gcc-bin/8-2019-q3-update/arm-none-eabi/include/machine/_default_typ
 1056              		.file 5 "/usr/local/Cellar/arm-gcc-bin/8-2019-q3-update/arm-none-eabi/include/sys/_stdint.h"
 1057              		.file 6 "../../os/ports/GCC/ARM/chtypes.h"
 1058              		.file 7 "../../os/kernel/include/chlists.h"
 1059              		.file 8 "../../os/kernel/include/chthreads.h"
 1060              		.file 9 "../../os/ports/GCC/ARM/chcore.h"
 1061              		.file 10 "../../os/kernel/include/chvt.h"
 1062              		.file 11 "../../os/kernel/include/chschd.h"
 1063              		.file 12 "../../os/kernel/include/chmtx.h"
 1064              		.file 13 "../../os/kernel/include/chregistry.h"
 1065              		.file 14 "../../os/kernel/include/ch.h"
 1066              		.file 15 "../../os/kernel/include/chdynamic.h"