ARM GAS  /var/folders/l5/0x54b2c10074c8bt31ycjvl80000gp/T//ccvfbglW.s 			page 1


   1              		.cpu arm1176jz-s
   2              		.eabi_attribute 20, 1
   3              		.eabi_attribute 21, 1
   4              		.eabi_attribute 23, 3
   5              		.eabi_attribute 24, 1
   6              		.eabi_attribute 25, 1
   7              		.eabi_attribute 26, 1
   8              		.eabi_attribute 30, 2
   9              		.eabi_attribute 34, 1
  10              		.eabi_attribute 18, 4
  11              		.file	"chvt.c"
  12              		.text
  13              	.Ltext0:
  14              		.cfi_sections	.debug_frame
  15              		.section	.text._vt_init,"ax",%progbits
  16              		.align	2
  17              		.global	_vt_init
  18              		.arch armv6kz
  19              		.syntax unified
  20              		.arm
  21              		.fpu softvfp
  22              		.type	_vt_init, %function
  23              	_vt_init:
  24              	.LFB7:
  25              		.file 1 "../../os/kernel/src/chvt.c"
  26              		.loc 1 43 21 view -0
  27              		.cfi_startproc
  28              		@ args = 0, pretend = 0, frame = 0
  29              		@ frame_needed = 0, uses_anonymous_args = 0
  30              		@ link register save eliminated.
  31              		.loc 1 45 3 view .LVU1
  32              		.loc 1 46 18 is_stmt 0 view .LVU2
  33 0000 0010E0E3 		mvn	r1, #0
  34              		.loc 1 47 21 view .LVU3
  35 0004 0020A0E3 		mov	r2, #0
  36              		.loc 1 45 35 view .LVU4
  37 0008 10309FE5 		ldr	r3, .L3
  38              		.loc 1 46 18 view .LVU5
  39 000c 081083E5 		str	r1, [r3, #8]
  40              		.loc 1 45 35 view .LVU6
  41 0010 043083E5 		str	r3, [r3, #4]
  42              		.loc 1 45 18 view .LVU7
  43 0014 003083E5 		str	r3, [r3]
  44              		.loc 1 46 3 is_stmt 1 view .LVU8
  45              		.loc 1 47 3 view .LVU9
  46              		.loc 1 47 21 is_stmt 0 view .LVU10
  47 0018 0C2083E5 		str	r2, [r3, #12]
  48              		.loc 1 48 1 view .LVU11
  49 001c 1EFF2FE1 		bx	lr
  50              	.L4:
  51              		.align	2
  52              	.L3:
  53 0020 00000000 		.word	vtlist
  54              		.cfi_endproc
  55              	.LFE7:
  56              		.size	_vt_init, .-_vt_init
  57              		.section	.text.chVTSetI,"ax",%progbits
ARM GAS  /var/folders/l5/0x54b2c10074c8bt31ycjvl80000gp/T//ccvfbglW.s 			page 2


  58              		.align	2
  59              		.global	chVTSetI
  60              		.syntax unified
  61              		.arm
  62              		.fpu softvfp
  63              		.type	chVTSetI, %function
  64              	chVTSetI:
  65              	.LVL0:
  66              	.LFB8:
  67              		.loc 1 69 78 is_stmt 1 view -0
  68              		.cfi_startproc
  69              		@ args = 0, pretend = 0, frame = 0
  70              		@ frame_needed = 0, uses_anonymous_args = 0
  71              		@ link register save eliminated.
  72              		.loc 1 70 3 view .LVU13
  73              		.loc 1 72 3 view .LVU14
  74              		.loc 1 72 21 view .LVU15
  75              		.loc 1 73 3 view .LVU16
  76              		.loc 1 74 25 view .LVU17
  77              		.loc 1 76 3 view .LVU18
  78              		.loc 1 78 5 is_stmt 0 view .LVU19
  79 0000 58C09FE5 		ldr	ip, .L10
  80              		.loc 1 76 15 view .LVU20
  81 0004 103080E5 		str	r3, [r0, #16]
  82              		.loc 1 77 3 is_stmt 1 view .LVU21
  83              		.loc 1 78 5 is_stmt 0 view .LVU22
  84 0008 00309CE5 		ldr	r3, [ip]
  85              	.LVL1:
  86              		.loc 1 77 16 view .LVU23
  87 000c 0C2080E5 		str	r2, [r0, #12]
  88              		.loc 1 78 3 is_stmt 1 view .LVU24
  89              	.LVL2:
  90              		.loc 1 79 3 view .LVU25
  91              		.loc 1 79 11 is_stmt 0 view .LVU26
  92 0010 082093E5 		ldr	r2, [r3, #8]
  93              	.LVL3:
  94              		.loc 1 79 9 view .LVU27
  95 0014 020051E1 		cmp	r1, r2
  96 0018 0400009A 		bls	.L6
  97              	.L7:
  98              		.loc 1 80 5 is_stmt 1 view .LVU28
  99              		.loc 1 81 7 is_stmt 0 view .LVU29
 100 001c 003093E5 		ldr	r3, [r3]
 101              	.LVL4:
 102              		.loc 1 80 10 view .LVU30
 103 0020 021041E0 		sub	r1, r1, r2
 104              	.LVL5:
 105              		.loc 1 81 5 is_stmt 1 view .LVU31
 106              		.loc 1 79 11 is_stmt 0 view .LVU32
 107 0024 082093E5 		ldr	r2, [r3, #8]
 108              		.loc 1 79 9 view .LVU33
 109 0028 010052E1 		cmp	r2, r1
 110 002c FAFFFF3A 		bcc	.L7
 111              	.L6:
 112              		.loc 1 84 3 is_stmt 1 view .LVU34
 113              		.loc 1 84 36 is_stmt 0 view .LVU35
 114 0030 042093E5 		ldr	r2, [r3, #4]
ARM GAS  /var/folders/l5/0x54b2c10074c8bt31ycjvl80000gp/T//ccvfbglW.s 			page 3


 115              		.loc 1 84 32 view .LVU36
 116 0034 003080E5 		str	r3, [r0]
 117              		.loc 1 84 16 view .LVU37
 118 0038 042080E5 		str	r2, [r0, #4]
 119              		.loc 1 85 3 is_stmt 1 view .LVU38
 120              		.loc 1 85 38 is_stmt 0 view .LVU39
 121 003c 040083E5 		str	r0, [r3, #4]
 122              		.loc 1 85 25 view .LVU40
 123 0040 042090E5 		ldr	r2, [r0, #4]
 124              		.loc 1 87 6 view .LVU41
 125 0044 0C0053E1 		cmp	r3, ip
 126              		.loc 1 85 25 view .LVU42
 127 0048 000082E5 		str	r0, [r2]
 128              		.loc 1 86 3 is_stmt 1 view .LVU43
 129              		.loc 1 86 16 is_stmt 0 view .LVU44
 130 004c 081080E5 		str	r1, [r0, #8]
 131              		.loc 1 87 3 is_stmt 1 view .LVU45
 132              		.loc 1 88 5 view .LVU46
 133              		.loc 1 88 16 is_stmt 0 view .LVU47
 134 0050 08209315 		ldrne	r2, [r3, #8]
 135 0054 01104210 		subne	r1, r2, r1
 136              	.LVL6:
 137              		.loc 1 88 16 view .LVU48
 138 0058 08108315 		strne	r1, [r3, #8]
 139              	.LVL7:
 140              		.loc 1 89 1 view .LVU49
 141 005c 1EFF2FE1 		bx	lr
 142              	.L11:
 143              		.align	2
 144              	.L10:
 145 0060 00000000 		.word	vtlist
 146              		.cfi_endproc
 147              	.LFE8:
 148              		.size	chVTSetI, .-chVTSetI
 149              		.section	.text.chVTResetI,"ax",%progbits
 150              		.align	2
 151              		.global	chVTResetI
 152              		.syntax unified
 153              		.arm
 154              		.fpu softvfp
 155              		.type	chVTResetI, %function
 156              	chVTResetI:
 157              	.LVL8:
 158              	.LFB9:
 159              		.loc 1 99 36 is_stmt 1 view -0
 160              		.cfi_startproc
 161              		@ args = 0, pretend = 0, frame = 0
 162              		@ frame_needed = 0, uses_anonymous_args = 0
 163              		@ link register save eliminated.
 164              		.loc 1 101 3 view .LVU51
 165              		.loc 1 101 21 view .LVU52
 166              		.loc 1 102 3 view .LVU53
 167              		.loc 1 102 40 view .LVU54
 168              		.loc 1 103 3 view .LVU55
 169              		.loc 1 105 52 view .LVU56
 170              		.loc 1 107 3 view .LVU57
 171              		.loc 1 107 10 is_stmt 0 view .LVU58
ARM GAS  /var/folders/l5/0x54b2c10074c8bt31ycjvl80000gp/T//ccvfbglW.s 			page 4


 172 0000 003090E5 		ldr	r3, [r0]
 173              		.loc 1 107 6 view .LVU59
 174 0004 2C209FE5 		ldr	r2, .L14
 175 0008 020053E1 		cmp	r3, r2
 176              		.loc 1 108 5 is_stmt 1 view .LVU60
 177              		.loc 1 108 27 is_stmt 0 view .LVU61
 178 000c 08209315 		ldrne	r2, [r3, #8]
 179 0010 08109015 		ldrne	r1, [r0, #8]
 180 0014 01208210 		addne	r2, r2, r1
 181              		.loc 1 111 16 view .LVU62
 182 0018 0010A0E3 		mov	r1, #0
 183              		.loc 1 108 27 view .LVU63
 184 001c 08208315 		strne	r2, [r3, #8]
 185              		.loc 1 109 3 is_stmt 1 view .LVU64
 186              		.loc 1 109 6 is_stmt 0 view .LVU65
 187 0020 042090E5 		ldr	r2, [r0, #4]
 188              		.loc 1 109 25 view .LVU66
 189 0024 003082E5 		str	r3, [r2]
 190              		.loc 1 110 3 is_stmt 1 view .LVU67
 191              		.loc 1 110 25 is_stmt 0 view .LVU68
 192 0028 003090E5 		ldr	r3, [r0]
 193 002c 042083E5 		str	r2, [r3, #4]
 194              		.loc 1 111 3 is_stmt 1 view .LVU69
 195              		.loc 1 111 16 is_stmt 0 view .LVU70
 196 0030 0C1080E5 		str	r1, [r0, #12]
 197              		.loc 1 112 1 view .LVU71
 198 0034 1EFF2FE1 		bx	lr
 199              	.L15:
 200              		.align	2
 201              	.L14:
 202 0038 00000000 		.word	vtlist
 203              		.cfi_endproc
 204              	.LFE9:
 205              		.size	chVTResetI, .-chVTResetI
 206              		.section	.text.chTimeIsWithin,"ax",%progbits
 207              		.align	2
 208              		.global	chTimeIsWithin
 209              		.syntax unified
 210              		.arm
 211              		.fpu softvfp
 212              		.type	chTimeIsWithin, %function
 213              	chTimeIsWithin:
 214              	.LVL9:
 215              	.LFB10:
 216              		.loc 1 127 55 is_stmt 1 view -0
 217              		.cfi_startproc
 218              		@ args = 0, pretend = 0, frame = 0
 219              		@ frame_needed = 0, uses_anonymous_args = 0
 220              		@ link register save eliminated.
 221              		.loc 1 129 3 view .LVU73
 222              		.loc 1 129 13 is_stmt 0 view .LVU74
 223 0000 3C309FE5 		ldr	r3, .L19
 224              		.loc 1 130 56 view .LVU75
 225 0004 000051E1 		cmp	r1, r0
 226              		.loc 1 129 13 view .LVU76
 227 0008 0C3093E5 		ldr	r3, [r3, #12]
 228              	.LVL10:
ARM GAS  /var/folders/l5/0x54b2c10074c8bt31ycjvl80000gp/T//ccvfbglW.s 			page 5


 229              		.loc 1 130 3 is_stmt 1 view .LVU77
 230              		.loc 1 130 56 is_stmt 0 view .LVU78
 231 000c 0500009A 		bls	.L17
 232              		.loc 1 130 56 discriminator 1 view .LVU79
 233 0010 000053E1 		cmp	r3, r0
 234 0014 0100A023 		movcs	r0, #1
 235              	.LVL11:
 236              		.loc 1 130 56 discriminator 1 view .LVU80
 237 0018 0000A033 		movcc	r0, #0
 238 001c 010053E1 		cmp	r3, r1
 239 0020 0000A023 		movcs	r0, #0
 240 0024 1EFF2FE1 		bx	lr
 241              	.LVL12:
 242              	.L17:
 243              		.loc 1 131 49 discriminator 2 view .LVU81
 244 0028 010053E1 		cmp	r3, r1
 245 002c 0010A023 		movcs	r1, #0
 246              	.LVL13:
 247              		.loc 1 131 49 discriminator 2 view .LVU82
 248 0030 0110A033 		movcc	r1, #1
 249              		.loc 1 130 56 discriminator 2 view .LVU83
 250 0034 000053E1 		cmp	r3, r0
 251 0038 0100A031 		movcc	r0, r1
 252 003c 01008123 		orrcs	r0, r1, #1
 253              	.LVL14:
 254              		.loc 1 132 1 discriminator 2 view .LVU84
 255 0040 1EFF2FE1 		bx	lr
 256              	.L20:
 257              		.align	2
 258              	.L19:
 259 0044 00000000 		.word	vtlist
 260              		.cfi_endproc
 261              	.LFE10:
 262              		.size	chTimeIsWithin, .-chTimeIsWithin
 263              		.comm	vtlist,16,4
 264              		.text
 265              	.Letext0:
 266              		.file 2 "/usr/local/Cellar/arm-gcc-bin/8-2019-q3-update/arm-none-eabi/include/machine/_default_typ
 267              		.file 3 "/usr/local/Cellar/arm-gcc-bin/8-2019-q3-update/arm-none-eabi/include/sys/_stdint.h"
 268              		.file 4 "../../os/ports/GCC/ARM/chtypes.h"
 269              		.file 5 "../../os/kernel/include/chlists.h"
 270              		.file 6 "../../os/kernel/include/chthreads.h"
 271              		.file 7 "../../os/ports/GCC/ARM/chcore.h"
 272              		.file 8 "../../os/kernel/include/chvt.h"
 273              		.file 9 "../../os/kernel/include/chschd.h"
 274              		.file 10 "../../os/kernel/include/chmtx.h"
 275              		.file 11 "../../os/kernel/include/chregistry.h"
 276              		.file 12 "../../os/kernel/include/ch.h"