ARM GAS  /var/folders/l5/0x54b2c10074c8bt31ycjvl80000gp/T//ccnMGHS5.s 			page 1


   1              		.cpu arm1176jz-s
   2              		.eabi_attribute 20, 1
   3              		.eabi_attribute 21, 1
   4              		.eabi_attribute 23, 3
   5              		.eabi_attribute 24, 1
   6              		.eabi_attribute 25, 1
   7              		.eabi_attribute 26, 1
   8              		.eabi_attribute 30, 2
   9              		.eabi_attribute 34, 1
  10              		.eabi_attribute 18, 4
  11              		.file	"i2c.c"
  12              		.text
  13              	.Ltext0:
  14              		.cfi_sections	.debug_frame
  15              		.section	.text.i2cInit,"ax",%progbits
  16              		.align	2
  17              		.global	i2cInit
  18              		.arch armv6kz
  19              		.syntax unified
  20              		.arm
  21              		.fpu softvfp
  22              		.type	i2cInit, %function
  23              	i2cInit:
  24              	.LFB7:
  25              		.file 1 "../../os/hal/src/i2c.c"
  26              		.loc 1 64 20 view -0
  27              		.cfi_startproc
  28              		@ args = 0, pretend = 0, frame = 0
  29              		@ frame_needed = 0, uses_anonymous_args = 0
  30              		@ link register save eliminated.
  31              		.loc 1 65 3 view .LVU1
  32 0000 FEFFFFEA 		b	i2c_lld_init
  33              	.LVL0:
  34              		.cfi_endproc
  35              	.LFE7:
  36              		.size	i2cInit, .-i2cInit
  37              		.section	.text.i2cObjectInit,"ax",%progbits
  38              		.align	2
  39              		.global	i2cObjectInit
  40              		.syntax unified
  41              		.arm
  42              		.fpu softvfp
  43              		.type	i2cObjectInit, %function
  44              	i2cObjectInit:
  45              	.LVL1:
  46              	.LFB8:
  47              		.loc 1 75 37 view -0
  48              		.cfi_startproc
  49              		@ args = 0, pretend = 0, frame = 0
  50              		@ frame_needed = 0, uses_anonymous_args = 0
  51              		@ link register save eliminated.
  52              		.loc 1 77 3 view .LVU3
  53              		.loc 1 77 16 is_stmt 0 view .LVU4
  54 0000 0120A0E3 		mov	r2, #1
  55              		.loc 1 78 16 view .LVU5
  56 0004 0030A0E3 		mov	r3, #0
  57              		.loc 1 77 16 view .LVU6
ARM GAS  /var/folders/l5/0x54b2c10074c8bt31ycjvl80000gp/T//ccnMGHS5.s 			page 2


  58 0008 0020C0E5 		strb	r2, [r0]
  59              		.loc 1 78 3 is_stmt 1 view .LVU7
  60              		.loc 1 78 16 is_stmt 0 view .LVU8
  61 000c 043080E5 		str	r3, [r0, #4]
  62              		.loc 1 82 3 is_stmt 1 view .LVU9
  63 0010 100080E2 		add	r0, r0, #16
  64              	.LVL2:
  65              		.loc 1 82 3 is_stmt 0 view .LVU10
  66 0014 FEFFFFEA 		b	chMtxInit
  67              	.LVL3:
  68              		.loc 1 82 3 view .LVU11
  69              		.cfi_endproc
  70              	.LFE8:
  71              		.size	i2cObjectInit, .-i2cObjectInit
  72              		.section	.text.i2cStart,"ax",%progbits
  73              		.align	2
  74              		.global	i2cStart
  75              		.syntax unified
  76              		.arm
  77              		.fpu softvfp
  78              		.type	i2cStart, %function
  79              	i2cStart:
  80              	.LVL4:
  81              	.LFB9:
  82              		.loc 1 101 57 is_stmt 1 view -0
  83              		.cfi_startproc
  84              		@ args = 0, pretend = 0, frame = 0
  85              		@ frame_needed = 0, uses_anonymous_args = 0
  86              		.loc 1 103 3 view .LVU13
  87              		.loc 1 103 61 view .LVU14
  88              		.loc 1 104 3 view .LVU15
  89              		.loc 1 107 31 view .LVU16
  90              		.loc 1 109 3 view .LVU17
  91              		.loc 1 101 57 is_stmt 0 view .LVU18
  92 0000 10402DE9 		push	{r4, lr}
  93              		.cfi_def_cfa_offset 8
  94              		.cfi_offset 4, -8
  95              		.cfi_offset 14, -4
  96              		.loc 1 101 57 view .LVU19
  97 0004 0040A0E1 		mov	r4, r0
  98              		.loc 1 109 3 view .LVU20
  99              		.syntax divided
 100              	@ 109 "../../os/hal/src/i2c.c" 1
 101 0008 9FF021E3 		msr     CPSR_c, #0x9F
 102              	@ 0 "" 2
 103              		.loc 1 109 3 is_stmt 1 view .LVU21
 104              		.loc 1 109 14 view .LVU22
 105              		.loc 1 110 3 view .LVU23
 106              		.loc 1 110 16 is_stmt 0 view .LVU24
 107              		.arm
 108              		.syntax unified
 109 000c 041080E5 		str	r1, [r0, #4]
 110              		.loc 1 111 3 is_stmt 1 view .LVU25
 111 0010 FEFFFFEB 		bl	i2c_lld_start
 112              	.LVL5:
 113              		.loc 1 112 3 view .LVU26
 114              		.loc 1 112 15 is_stmt 0 view .LVU27
ARM GAS  /var/folders/l5/0x54b2c10074c8bt31ycjvl80000gp/T//ccnMGHS5.s 			page 3


 115 0014 0230A0E3 		mov	r3, #2
 116 0018 0030C4E5 		strb	r3, [r4]
 117              		.loc 1 113 3 is_stmt 1 view .LVU28
 118              		.loc 1 113 3 view .LVU29
 119              		.syntax divided
 120              	@ 113 "../../os/hal/src/i2c.c" 1
 121 001c 1FF021E3 		msr     CPSR_c, #0x1F
 122              	@ 0 "" 2
 123              		.loc 1 113 16 view .LVU30
 124              		.loc 1 114 1 is_stmt 0 view .LVU31
 125              		.arm
 126              		.syntax unified
 127 0020 1080BDE8 		pop	{r4, pc}
 128              		.cfi_endproc
 129              	.LFE9:
 130              		.size	i2cStart, .-i2cStart
 131              		.section	.text.i2cStop,"ax",%progbits
 132              		.align	2
 133              		.global	i2cStop
 134              		.syntax unified
 135              		.arm
 136              		.fpu softvfp
 137              		.type	i2cStop, %function
 138              	i2cStop:
 139              	.LVL6:
 140              	.LFB10:
 141              		.loc 1 123 31 is_stmt 1 view -0
 142              		.cfi_startproc
 143              		@ args = 0, pretend = 0, frame = 0
 144              		@ frame_needed = 0, uses_anonymous_args = 0
 145              		.loc 1 125 3 view .LVU33
 146              		.loc 1 125 38 view .LVU34
 147              		.loc 1 126 3 view .LVU35
 148              		.loc 1 129 31 view .LVU36
 149              		.loc 1 131 3 view .LVU37
 150              		.loc 1 123 31 is_stmt 0 view .LVU38
 151 0000 10402DE9 		push	{r4, lr}
 152              		.cfi_def_cfa_offset 8
 153              		.cfi_offset 4, -8
 154              		.cfi_offset 14, -4
 155              		.loc 1 123 31 view .LVU39
 156 0004 0040A0E1 		mov	r4, r0
 157              		.loc 1 131 3 view .LVU40
 158              		.syntax divided
 159              	@ 131 "../../os/hal/src/i2c.c" 1
 160 0008 9FF021E3 		msr     CPSR_c, #0x9F
 161              	@ 0 "" 2
 162              		.loc 1 131 3 is_stmt 1 view .LVU41
 163              		.loc 1 131 14 view .LVU42
 164              		.loc 1 132 3 view .LVU43
 165              		.arm
 166              		.syntax unified
 167 000c FEFFFFEB 		bl	i2c_lld_stop
 168              	.LVL7:
 169              		.loc 1 133 3 view .LVU44
 170              		.loc 1 133 15 is_stmt 0 view .LVU45
 171 0010 0130A0E3 		mov	r3, #1
ARM GAS  /var/folders/l5/0x54b2c10074c8bt31ycjvl80000gp/T//ccnMGHS5.s 			page 4


 172 0014 0030C4E5 		strb	r3, [r4]
 173              		.loc 1 134 3 is_stmt 1 view .LVU46
 174              		.loc 1 134 3 view .LVU47
 175              		.syntax divided
 176              	@ 134 "../../os/hal/src/i2c.c" 1
 177 0018 1FF021E3 		msr     CPSR_c, #0x1F
 178              	@ 0 "" 2
 179              		.loc 1 134 16 view .LVU48
 180              		.loc 1 135 1 is_stmt 0 view .LVU49
 181              		.arm
 182              		.syntax unified
 183 001c 1080BDE8 		pop	{r4, pc}
 184              		.cfi_endproc
 185              	.LFE10:
 186              		.size	i2cStop, .-i2cStop
 187              		.section	.text.i2cGetErrors,"ax",%progbits
 188              		.align	2
 189              		.global	i2cGetErrors
 190              		.syntax unified
 191              		.arm
 192              		.fpu softvfp
 193              		.type	i2cGetErrors, %function
 194              	i2cGetErrors:
 195              	.LVL8:
 196              	.LFB11:
 197              		.loc 1 145 42 is_stmt 1 view -0
 198              		.cfi_startproc
 199              		@ args = 0, pretend = 0, frame = 0
 200              		@ frame_needed = 0, uses_anonymous_args = 0
 201              		@ link register save eliminated.
 202              		.loc 1 147 3 view .LVU51
 203              		.loc 1 147 43 view .LVU52
 204              		.loc 1 149 3 view .LVU53
 205              		.loc 1 150 1 is_stmt 0 view .LVU54
 206 0000 080090E5 		ldr	r0, [r0, #8]
 207              	.LVL9:
 208              		.loc 1 150 1 view .LVU55
 209 0004 1EFF2FE1 		bx	lr
 210              		.cfi_endproc
 211              	.LFE11:
 212              		.size	i2cGetErrors, .-i2cGetErrors
 213              		.section	.text.i2cMasterTransmitTimeout,"ax",%progbits
 214              		.align	2
 215              		.global	i2cMasterTransmitTimeout
 216              		.syntax unified
 217              		.arm
 218              		.fpu softvfp
 219              		.type	i2cMasterTransmitTimeout, %function
 220              	i2cMasterTransmitTimeout:
 221              	.LVL10:
 222              	.LFB12:
 223              		.loc 1 184 51 is_stmt 1 view -0
 224              		.cfi_startproc
 225              		@ args = 12, pretend = 0, frame = 0
 226              		@ frame_needed = 0, uses_anonymous_args = 0
 227              		.loc 1 185 3 view .LVU57
 228              		.loc 1 187 3 view .LVU58
ARM GAS  /var/folders/l5/0x54b2c10074c8bt31ycjvl80000gp/T//ccnMGHS5.s 			page 5


 229              		.loc 1 191 41 view .LVU59
 230              		.loc 1 193 3 view .LVU60
 231              		.loc 1 194 61 view .LVU61
 232              		.loc 1 196 3 view .LVU62
 233              		.loc 1 184 51 is_stmt 0 view .LVU63
 234 0000 70402DE9 		push	{r4, r5, r6, lr}
 235              		.cfi_def_cfa_offset 16
 236              		.cfi_offset 4, -16
 237              		.cfi_offset 5, -12
 238              		.cfi_offset 6, -8
 239              		.cfi_offset 14, -4
 240 0004 10D04DE2 		sub	sp, sp, #16
 241              		.cfi_def_cfa_offset 32
 242              		.loc 1 184 51 view .LVU64
 243 0008 0040A0E1 		mov	r4, r0
 244 000c 20C09DE5 		ldr	ip, [sp, #32]
 245 0010 28609DE5 		ldr	r6, [sp, #40]
 246              		.loc 1 196 3 view .LVU65
 247              		.syntax divided
 248              	@ 196 "../../os/hal/src/i2c.c" 1
 249 0014 9FF021E3 		msr     CPSR_c, #0x9F
 250              	@ 0 "" 2
 251              		.loc 1 196 3 is_stmt 1 view .LVU66
 252              		.loc 1 196 14 view .LVU67
 253              		.loc 1 197 3 view .LVU68
 254              		.loc 1 198 15 is_stmt 0 view .LVU69
 255              		.arm
 256              		.syntax unified
 257 0018 03E0A0E3 		mov	lr, #3
 258              		.loc 1 197 16 view .LVU70
 259 001c 0050A0E3 		mov	r5, #0
 260              		.loc 1 199 12 view .LVU71
 261 0020 00C08DE5 		str	ip, [sp]
 262 0024 24C09DE5 		ldr	ip, [sp, #36]
 263 0028 08608DE5 		str	r6, [sp, #8]
 264 002c 7CC0EFE6 		uxtb	ip, ip
 265              		.loc 1 197 16 view .LVU72
 266 0030 085080E5 		str	r5, [r0, #8]
 267              		.loc 1 198 3 is_stmt 1 view .LVU73
 268              		.loc 1 198 15 is_stmt 0 view .LVU74
 269 0034 00E0C0E5 		strb	lr, [r0]
 270              		.loc 1 199 3 is_stmt 1 view .LVU75
 271              		.loc 1 199 12 is_stmt 0 view .LVU76
 272 0038 04C08DE5 		str	ip, [sp, #4]
 273 003c FEFFFFEB 		bl	i2c_lld_master_transmit_timeout
 274              	.LVL11:
 275              		.loc 1 201 3 is_stmt 1 view .LVU77
 276              		.loc 1 201 6 is_stmt 0 view .LVU78
 277 0040 010070E3 		cmn	r0, #1
 278              		.loc 1 202 17 view .LVU79
 279 0044 0230A013 		movne	r3, #2
 280 0048 0530A003 		moveq	r3, #5
 281 004c 0030C4E5 		strb	r3, [r4]
 282              		.loc 1 205 3 is_stmt 1 view .LVU80
 283              		.loc 1 205 3 view .LVU81
 284              		.syntax divided
 285              	@ 205 "../../os/hal/src/i2c.c" 1
ARM GAS  /var/folders/l5/0x54b2c10074c8bt31ycjvl80000gp/T//ccnMGHS5.s 			page 6


 286 0050 1FF021E3 		msr     CPSR_c, #0x1F
 287              	@ 0 "" 2
 288              		.loc 1 205 16 view .LVU82
 289              		.loc 1 206 3 view .LVU83
 290              		.loc 1 207 1 is_stmt 0 view .LVU84
 291              		.arm
 292              		.syntax unified
 293 0054 10D08DE2 		add	sp, sp, #16
 294              		.cfi_def_cfa_offset 16
 295              		@ sp needed
 296 0058 7080BDE8 		pop	{r4, r5, r6, pc}
 297              		.loc 1 207 1 view .LVU85
 298              		.cfi_endproc
 299              	.LFE12:
 300              		.size	i2cMasterTransmitTimeout, .-i2cMasterTransmitTimeout
 301              		.section	.text.i2cMasterReceiveTimeout,"ax",%progbits
 302              		.align	2
 303              		.global	i2cMasterReceiveTimeout
 304              		.syntax unified
 305              		.arm
 306              		.fpu softvfp
 307              		.type	i2cMasterReceiveTimeout, %function
 308              	i2cMasterReceiveTimeout:
 309              	.LVL12:
 310              	.LFB13:
 311              		.loc 1 233 49 is_stmt 1 view -0
 312              		.cfi_startproc
 313              		@ args = 4, pretend = 0, frame = 0
 314              		@ frame_needed = 0, uses_anonymous_args = 0
 315              		.loc 1 235 3 view .LVU87
 316              		.loc 1 237 3 view .LVU88
 317              		.loc 1 240 40 view .LVU89
 318              		.loc 1 242 3 view .LVU90
 319              		.loc 1 243 53 view .LVU91
 320              		.loc 1 245 3 view .LVU92
 321              		.loc 1 233 49 is_stmt 0 view .LVU93
 322 0000 30402DE9 		push	{r4, r5, lr}
 323              		.cfi_def_cfa_offset 12
 324              		.cfi_offset 4, -12
 325              		.cfi_offset 5, -8
 326              		.cfi_offset 14, -4
 327 0004 0CD04DE2 		sub	sp, sp, #12
 328              		.cfi_def_cfa_offset 24
 329              		.loc 1 233 49 view .LVU94
 330 0008 0040A0E1 		mov	r4, r0
 331 000c 18509DE5 		ldr	r5, [sp, #24]
 332              		.loc 1 245 3 view .LVU95
 333              		.syntax divided
 334              	@ 245 "../../os/hal/src/i2c.c" 1
 335 0010 9FF021E3 		msr     CPSR_c, #0x9F
 336              	@ 0 "" 2
 337              		.loc 1 245 3 is_stmt 1 view .LVU96
 338              		.loc 1 245 14 view .LVU97
 339              		.loc 1 246 3 view .LVU98
 340              		.loc 1 246 16 is_stmt 0 view .LVU99
 341              		.arm
 342              		.syntax unified
ARM GAS  /var/folders/l5/0x54b2c10074c8bt31ycjvl80000gp/T//ccnMGHS5.s 			page 7


 343 0014 00E0A0E3 		mov	lr, #0
 344              		.loc 1 247 15 view .LVU100
 345 0018 04C0A0E3 		mov	ip, #4
 346              		.loc 1 248 12 view .LVU101
 347 001c 00508DE5 		str	r5, [sp]
 348              		.loc 1 246 16 view .LVU102
 349 0020 08E080E5 		str	lr, [r0, #8]
 350              		.loc 1 247 3 is_stmt 1 view .LVU103
 351              		.loc 1 247 15 is_stmt 0 view .LVU104
 352 0024 00C0C0E5 		strb	ip, [r0]
 353              		.loc 1 248 3 is_stmt 1 view .LVU105
 354              		.loc 1 248 12 is_stmt 0 view .LVU106
 355 0028 FEFFFFEB 		bl	i2c_lld_master_receive_timeout
 356              	.LVL13:
 357              		.loc 1 249 3 is_stmt 1 view .LVU107
 358              		.loc 1 249 6 is_stmt 0 view .LVU108
 359 002c 010070E3 		cmn	r0, #1
 360              		.loc 1 250 17 view .LVU109
 361 0030 0230A013 		movne	r3, #2
 362 0034 0530A003 		moveq	r3, #5
 363 0038 0030C4E5 		strb	r3, [r4]
 364              		.loc 1 253 3 is_stmt 1 view .LVU110
 365              		.loc 1 253 3 view .LVU111
 366              		.syntax divided
 367              	@ 253 "../../os/hal/src/i2c.c" 1
 368 003c 1FF021E3 		msr     CPSR_c, #0x1F
 369              	@ 0 "" 2
 370              		.loc 1 253 16 view .LVU112
 371              		.loc 1 254 3 view .LVU113
 372              		.loc 1 255 1 is_stmt 0 view .LVU114
 373              		.arm
 374              		.syntax unified
 375 0040 0CD08DE2 		add	sp, sp, #12
 376              		.cfi_def_cfa_offset 12
 377              		@ sp needed
 378 0044 3080BDE8 		pop	{r4, r5, pc}
 379              		.loc 1 255 1 view .LVU115
 380              		.cfi_endproc
 381              	.LFE13:
 382              		.size	i2cMasterReceiveTimeout, .-i2cMasterReceiveTimeout
 383              		.section	.text.i2cAcquireBus,"ax",%progbits
 384              		.align	2
 385              		.global	i2cAcquireBus
 386              		.syntax unified
 387              		.arm
 388              		.fpu softvfp
 389              		.type	i2cAcquireBus, %function
 390              	i2cAcquireBus:
 391              	.LVL14:
 392              	.LFB14:
 393              		.loc 1 269 37 is_stmt 1 view -0
 394              		.cfi_startproc
 395              		@ args = 0, pretend = 0, frame = 0
 396              		@ frame_needed = 0, uses_anonymous_args = 0
 397              		@ link register save eliminated.
 398              		.loc 1 271 3 view .LVU117
 399              		.loc 1 271 44 view .LVU118
ARM GAS  /var/folders/l5/0x54b2c10074c8bt31ycjvl80000gp/T//ccnMGHS5.s 			page 8


 400              		.loc 1 274 3 view .LVU119
 401 0000 100080E2 		add	r0, r0, #16
 402              	.LVL15:
 403              		.loc 1 274 3 is_stmt 0 view .LVU120
 404 0004 FEFFFFEA 		b	chMtxLock
 405              	.LVL16:
 406              		.loc 1 274 3 view .LVU121
 407              		.cfi_endproc
 408              	.LFE14:
 409              		.size	i2cAcquireBus, .-i2cAcquireBus
 410              		.section	.text.i2cReleaseBus,"ax",%progbits
 411              		.align	2
 412              		.global	i2cReleaseBus
 413              		.syntax unified
 414              		.arm
 415              		.fpu softvfp
 416              		.type	i2cReleaseBus, %function
 417              	i2cReleaseBus:
 418              	.LVL17:
 419              	.LFB15:
 420              		.loc 1 289 37 is_stmt 1 view -0
 421              		.cfi_startproc
 422              		@ args = 0, pretend = 0, frame = 0
 423              		@ frame_needed = 0, uses_anonymous_args = 0
 424              		@ link register save eliminated.
 425              		.loc 1 291 3 view .LVU123
 426              		.loc 1 291 44 view .LVU124
 427              		.loc 1 294 3 view .LVU125
 428 0000 FEFFFFEA 		b	chMtxUnlock
 429              	.LVL18:
 430              		.loc 1 294 3 is_stmt 0 view .LVU126
 431              		.cfi_endproc
 432              	.LFE15:
 433              		.size	i2cReleaseBus, .-i2cReleaseBus
 434              		.text
 435              	.Letext0:
 436              		.file 2 "/usr/local/Cellar/arm-gcc-bin/8-2019-q3-update/lib/gcc/arm-none-eabi/8.3.1/include/stddef
 437              		.file 3 "/usr/local/Cellar/arm-gcc-bin/8-2019-q3-update/arm-none-eabi/include/machine/_default_typ
 438              		.file 4 "/usr/local/Cellar/arm-gcc-bin/8-2019-q3-update/arm-none-eabi/include/sys/_stdint.h"
 439              		.file 5 "../../os/ports/GCC/ARM/chtypes.h"
 440              		.file 6 "../../os/kernel/include/chlists.h"
 441              		.file 7 "../../os/kernel/include/chthreads.h"
 442              		.file 8 "../../os/ports/GCC/ARM/chcore.h"
 443              		.file 9 "../../os/kernel/include/chvt.h"
 444              		.file 10 "../../os/kernel/include/chschd.h"
 445              		.file 11 "../../os/kernel/include/chmtx.h"
 446              		.file 12 "../../os/kernel/include/chevents.h"
 447              		.file 13 "../../os/kernel/include/chregistry.h"
 448              		.file 14 "../../os/kernel/include/chqueues.h"
 449              		.file 15 "../../os/kernel/include/ch.h"
 450              		.file 16 "../../os/hal/platforms/BCM2835/bcm2835.h"
 451              		.file 17 "../../os/hal/platforms/BCM2835/pal_lld.h"
 452              		.file 18 "../../os/hal/include/i2c.h"
 453              		.file 19 "../../os/hal/platforms/BCM2835/i2c_lld.h"
 454              		.file 20 "../../os/hal/include/serial.h"
 455              		.file 21 "../../os/hal/include/spi.h"
 456              		.file 22 "../../os/hal/platforms/BCM2835/spi_lld.h"
ARM GAS  /var/folders/l5/0x54b2c10074c8bt31ycjvl80000gp/T//ccnMGHS5.s 			page 9


 457              		.file 23 "../../os/hal/platforms/BCM2835/serial_lld.h"