ARM GAS  /var/folders/l5/0x54b2c10074c8bt31ycjvl80000gp/T//ccnMGHS5.s 			page 1


   1              		.cpu arm1176jz-s
   2              		.eabi_attribute 20, 1
   3              		.eabi_attribute 21, 1
   4              		.eabi_attribute 23, 3
   5              		.eabi_attribute 24, 1
   6              		.eabi_attribute 25, 1
   7              		.eabi_attribute 26, 1
   8              		.eabi_attribute 30, 2
   9              		.eabi_attribute 34, 1
  10              		.eabi_attribute 18, 4
  11              		.file	"i2c.c"
  12              		.text
  13              	.Ltext0:
  14              		.cfi_sections	.debug_frame
  15              		.section	.text.i2cInit,"ax",%progbits
  16              		.align	2
  17              		.global	i2cInit
  18              		.arch armv6kz
  19              		.syntax unified
  20              		.arm
  21              		.fpu softvfp
  22              		.type	i2cInit, %function
  23              	i2cInit:
  24              	.LFB7:
  25              		.file 1 "../../os/hal/src/i2c.c"
  26              		.loc 1 64 20 view -0
  27              		.cfi_startproc
  28              		@ args = 0, pretend = 0, frame = 0
  29              		@ frame_needed = 0, uses_anonymous_args = 0
  30              		@ link register save eliminated.
  31              		.loc 1 65 3 view .LVU1
  32 0000 FEFFFFEA 		b	i2c_lld_init
  33              	.LVL0:
  34              		.cfi_endproc
  35              	.LFE7:
  36              		.size	i2cInit, .-i2cInit
  37              		.section	.text.i2cObjectInit,"ax",%progbits
  38              		.align	2
  39              		.global	i2cObjectInit
  40              		.syntax unified
  41              		.arm
  42              		.fpu softvfp
  43              		.type	i2cObjectInit, %function
  44              	i2cObjectInit:
  45              	.LVL1:
  46              	.LFB8:
  47              		.loc 1 75 37 view -0
  48              		.cfi_startproc
  49              		@ args = 0, pretend = 0, frame = 0
  50              		@ frame_needed = 0, uses_anonymous_args = 0
  51              		@ link register save eliminated.
  52              		.loc 1 77 3 view .LVU3
  53              		.loc 1 77 16 is_stmt 0 view .LVU4
  54 0000 0120A0E3 		mov	r2, #1
  55              		.loc 1 78 16 view .LVU5
  56 0004 0030A0E3 		mov	r3, #0
  57              		.loc 1 77 16 view .LVU6
ARM GAS  /var/folders/l5/0x54b2c10074c8bt31ycjvl80000gp/T//ccnMGHS5.s 			page 2


  58 0008 0020C0E5 		strb	r2, [r0]
  59              		.loc 1 78 3 is_stmt 1 view .LVU7
  60              		.loc 1 78 16 is_stmt 0 view .LVU8
  61 000c 043080E5 		str	r3, [r0, #4]
  62              		.loc 1 82 3 is_stmt 1 view .LVU9
  63 0010 100080E2 		add	r0, r0, #16
  64              	.LVL2:
  65              		.loc 1 82 3 is_stmt 0 view .LVU10
  66 0014 FEFFFFEA 		b	chMtxInit
  67              	.LVL3:
  68              		.loc 1 82 3 view .LVU11
  69              		.cfi_endproc
  70              	.LFE8:
  71              		.size	i2cObjectInit, .-i2cObjectInit
  72              		.section	.text.i2cStart,"ax",%progbits
  73              		.align	2
  74              		.global	i2cStart
  75              		.syntax unified
  76              		.arm
  77              		.fpu softvfp
  78              		.type	i2cStart, %function
  79              	i2cStart:
  80              	.LVL4:
  81              	.LFB9:
  82              		.loc 1 101 57 is_stmt 1 view -0
  83              		.cfi_startproc
  84              		@ args = 0, pretend = 0, frame = 0
  85              		@ frame_needed = 0, uses_anonymous_args = 0
  86              		.loc 1 103 3 view .LVU13
  87              		.loc 1 103 61 view .LVU14
  88              		.loc 1 104 3 view .LVU15
  89              		.loc 1 107 31 view .LVU16
  90              		.loc 1 109 3 view .LVU17
  91              		.loc 1 101 57 is_stmt 0 view .LVU18
  92 0000 10402DE9 		push	{r4, lr}
  93              		.cfi_def_cfa_offset 8
  94              		.cfi_offset 4, -8
  95              		.cfi_offset 14, -4
  96              		.loc 1 101 57 view .LVU19
  97 0004 0040A0E1 		mov	r4, r0
  98              		.loc 1 109 3 view .LVU20
  99              		.syntax divided
 100              	@ 109 "../../os/hal/src/i2c.c" 1
 101 0008 9FF021E3 		msr     CPSR_c, #0x9F
 102              	@ 0 "" 2
 103              		.loc 1 109 3 is_stmt 1 view .LVU21
 104              		.loc 1 109 14 view .LVU22
 105              		.loc 1 110 3 view .LVU23
 106              		.loc 1 110 16 is_stmt 0 view .LVU24
 107              		.arm
 108              		.syntax unified
 109 000c 041080E5 		str	r1, [r0, #4]
 110              		.loc 1 111 3 is_stmt 1 view .LVU25
 111 0010 FEFFFFEB 		bl	i2c_lld_start
 112              	.LVL5:
 113              		.loc 1 112 3 view .LVU26
 114              		.loc 1 112 15 is_stmt 0 view .LVU27
ARM GAS  /var/folders/l5/0x54b2c10074c8bt31ycjvl80000gp/T//ccnMGHS5.s 			page 3


 115 0014 0230A0E3 		mov	r3, #2
 116 0018 0030C4E5 		strb	r3, [r4]
 117              		.loc 1 113 3 is_stmt 1 view .LVU28
 118              		.loc 1 113 3 view .LVU29
 119              		.syntax divided
 120              	@ 113 "../../os/hal/src/i2c.c" 1
 121 001c 1FF021E3 		msr     CPSR_c, #0x1F
 122              	@ 0 "" 2
 123              		.loc 1 113 16 view .LVU30
 124              		.loc 1 114 1 is_stmt 0 view .LVU31
 125              		.arm
 126              		.syntax unified
 127 0020 1080BDE8 		pop	{r4, pc}
 128              		.cfi_endproc
 129              	.LFE9:
 130              		.size	i2cStart, .-i2cStart
 131              		.section	.text.i2cStop,"ax",%progbits
 132              		.align	2
 133              		.global	i2cStop
 134              		.syntax unified
 135              		.arm
 136              		.fpu softvfp
 137              		.type	i2cStop, %function
 138              	i2cStop:
 139              	.LVL6:
 140              	.LFB10:
 141              		.loc 1 123 31 is_stmt 1 view -0
 142              		.cfi_startproc
 143              		@ args = 0, pretend = 0, frame = 0
 144              		@ frame_needed = 0, uses_anonymous_args = 0
 145              		.loc 1 125 3 view .LVU33
 146              		.loc 1 125 38 view .LVU34
 147              		.loc 1 126 3 view .LVU35
 148              		.loc 1 129 31 view .LVU36
 149              		.loc 1 131 3 view .LVU37
 150              		.loc 1 123 31 is_stmt 0 view .LVU38
 151 0000 10402DE9 		push	{r4, lr}
 152              		.cfi_def_cfa_offset 8
 153              		.cfi_offset 4, -8
 154              		.cfi_offset 14, -4
 155              		.loc 1 123 31 view .LVU39
 156 0004 0040A0E1 		mov	r4, r0
 157              		.loc 1 131 3 view .LVU40
 158              		.syntax divided
 159              	@ 131 "../../os/hal/src/i2c.c" 1
 160 0008 9FF021E3 		msr     CPSR_c, #0x9F
 161              	@ 0 "" 2
 162              		.loc 1 131 3 is_stmt 1 view .LVU41
 163              		.loc 1 131 14 view .LVU42
 164              		.loc 1 132 3 view .LVU43
 165              		.arm
 166              		.syntax unified
 167 000c FEFFFFEB 		bl	i2c_lld_stop
 168              	.LVL7:
 169              		.loc 1 133 3 view .LVU44
 170              		.loc 1 133 15 is_stmt 0 view .LVU45
 171 0010 0130A0E3 		mov	r3, #1
ARM GAS  /var/folders/l5/0x54b2c10074c8bt31ycjvl80000gp/T//ccnMGHS5.s 			page 4


 172 0014 0030C4E5 		strb	r3, [r4]
 173              		.loc 1 134 3 is_stmt 1 view .LVU46
 174              		.loc 1 134 3 view .LVU47
 175              		.syntax divided
 176              	@ 134 "../../os/hal/src/i2c.c" 1
 177 0018 1FF021E3 		msr     CPSR_c, #0x1F
 178              	@ 0 "" 2
 179              		.loc 1 134 16 view .LVU48
 180              		.loc 1 135 1 is_stmt 0 view .LVU49
 181              		.arm
 182              		.syntax unified
 183 001c 1080BDE8 		pop	{r4, pc}
 184              		.cfi_endproc
 185              	.LFE10:
 186              		.size	i2cStop, .-i2cStop
 187              		.section	.text.i2cGetErrors,"ax",%progbits
 188              		.align	2
 189              		.global	i2cGetErrors
 190              		.syntax unified
 191              		.arm
 192              		.fpu softvfp
 193              		.type	i2cGetErrors, %function
 194              	i2cGetErrors:
 195              	.LVL8:
 196              	.LFB11:
 197              		.loc 1 145 42 is_stmt 1 view -0
 198              		.cfi_startproc
 199              		@ args = 0, pretend = 0, frame = 0
 200              		@ frame_needed = 0, uses_anonymous_args = 0
 201              		@ link register save eliminated.
 202              		.loc 1 147 3 view .LVU51
 203              		.loc 1 147 43 view .LVU52
 204              		.loc 1 149 3 view .LVU53
 205              		.loc 1 150 1 is_stmt 0 view .LVU54
 206 0000 080090E5 		ldr	r0, [r0, #8]
 207              	.LVL9:
 208              		.loc 1 150 1 view .LVU55
 209 0004 1EFF2FE1 		bx	lr
 210              		.cfi_endproc
 211              	.LFE11:
 212              		.size	i2cGetErrors, .-i2cGetErrors
 213              		.section	.text.i2cMasterTransmitTimeout,"ax",%progbits
 214              		.align	2
 215              		.global	i2cMasterTransmitTimeout
 216              		.syntax unified
 217              		.arm
 218              		.fpu softvfp
 219              		.type	i2cMasterTransmitTimeout, %function
 220              	i2cMasterTransmitTimeout:
 221              	.LVL10:
 222              	.LFB12:
 223              		.loc 1 184 51 is_stmt 1 view -0
 224              		.cfi_startproc
 225              		@ args = 12, pretend = 0, frame = 0
 226              		@ frame_needed = 0, uses_anonymous_args = 0
 227              		.loc 1 185 3 view .LVU57
 228              		.loc 1 187 3 view .LVU58
ARM GAS  /var/folders/l5/0x54b2c10074c8bt31ycjvl80000gp/T//ccnMGHS5.s 			page 5


 229              		.loc 1 191 41 view .LVU59
 230              		.loc 1 193 3 view .LVU60
 231              		.loc 1 194 61 view .LVU61
 232              		.loc 1 196 3 view .LVU62
 233              		.loc 1 184 51 is_stmt 0 view .LVU63
 234 0000 70402DE9 		push	{r4, r5, r6, lr}
 235              		.cfi_def_cfa_offset 16
 236              		.cfi_offset 4, -16
 237              		.cfi_offset 5, -12
 238              		.cfi_offset 6, -8
 239              		.cfi_offset 14, -4
 240 0004 10D04DE2 		sub	sp, sp, #16
 241              		.cfi_def_cfa_offset 32
 242              		.loc 1 184 51 view .LVU64
 243 0008 0040A0E1 		mov	r4, r0
 244 000c 20C09DE5 		ldr	ip, [sp, #32]
 245 0010 28609DE5 		ldr	r6, [sp, #40]
 246              		.loc 1 196 3 view .LVU65
 247              		.syntax divided
 248              	@ 196 "../../os/hal/src/i2c.c" 1
 249 0014 9FF021E3 		msr     CPSR_c, #0x9F
 250              	@ 0 "" 2
 251              		.loc 1 196 3 is_stmt 1 view .LVU66
 252              		.loc 1 196 14 view .LVU67
 253              		.loc 1 197 3 view .LVU68
 254              		.loc 1 198 15 is_stmt 0 view .LVU69
 255              		.arm
 256              		.syntax unified
 257 0018 03E0A0E3 		mov	lr, #3
 258              		.loc 1 197 16 view .LVU70
 259 001c 0050A0E3 		mov	r5, #0
 260              		.loc 1 199 12 view .LVU71
 261 0020 00C08DE5 		str	ip, [sp]
 262 0024 24C09DE5 		ldr	ip, [sp, #36]
 263 0028 08608DE5 		str	r6, [sp, #8]
 264 002c 7CC0EFE6 		uxtb	ip, ip
 265              		.loc 1 197 16 view .LVU72
 266 0030 085080E5 		str	r5, [r0, #8]
 267              		.loc 1 198 3 is_stmt 1 view .LVU73
 268              		.loc 1 198 15 is_stmt 0 view .LVU74
 269 0034 00E0C0E5 		strb	lr, [r0]
 270              		.loc 1 199 3 is_stmt 1 view .LVU75
 271              		.loc 1 199 12 is_stmt 0 view .LVU76
 272 0038 04C08DE5 		str	ip, [sp, #4]
 273 003c FEFFFFEB 		bl	i2c_lld_master_transmit_timeout
 274              	.LVL11:
 275              		.loc 1 201 3 is_stmt 1 view .LVU77
 276              		.loc 1 201 6 is_stmt 0 view .LVU78
 277 0040 010070E3 		cmn	r0, #1
 278              		.loc 1 202 17 view .LVU79
 279 0044 0230A013 		movne	r3, #2
 280 0048 0530A003 		moveq	r3, #5
 281 004c 0030C4E5 		strb	r3, [r4]
 282              		.loc 1 205 3 is_stmt 1 view .LVU80
 283              		.loc 1 205 3 view .LVU81
 284              		.syntax divided
 285              	@ 205 "../../os/hal/src/i2c.c" 1
ARM GAS  /var/folders/l5/0x54b2c10074c8bt31ycjvl80000gp/T//ccnMGHS5.s 			page 6


 286 0050 1FF021E3 		msr     CPSR_c, #0x1F
 287              	@ 0 "" 2
 288              		.loc 1 205 16 view .LVU82
 289              		.loc 1 206 3 view .LVU83
 290              		.loc 1 207 1 is_stmt 0 view .LVU84
 291              		.arm
 292              		.syntax unified
 293 0054 10D08DE2 		add	sp, sp, #16
 294              		.cfi_def_cfa_offset 16
 295              		@ sp needed
 296 0058 7080BDE8 		pop	{r4, r5, r6, pc}
 297              		.loc 1 207 1 view .LVU85
 298              		.cfi_endproc
 299              	.LFE12:
 300              		.size	i2cMasterTransmitTimeout, .-i2cMasterTransmitTimeout
 301              		.section	.text.i2cMasterReceiveTimeout,"ax",%progbits
 302              		.align	2
 303              		.global	i2cMasterReceiveTimeout
 304              		.syntax unified
 305              		.arm
 306              		.fpu softvfp
 307              		.type	i2cMasterReceiveTimeout, %function
 308              	i2cMasterReceiveTimeout:
 309              	.LVL12:
 310              	.LFB13:
 311              		.loc 1 233 49 is_stmt 1 view -0
 312              		.cfi_startproc
 313              		@ args = 4, pretend = 0, frame = 0
 314              		@ frame_needed = 0, uses_anonymous_args = 0
 315              		.loc 1 235 3 view .LVU87
 316              		.loc 1 237 3 view .LVU88
 317              		.loc 1 240 40 view .LVU89
 318              		.loc 1 242 3 view .LVU90
 319              		.loc 1 243 53 view .LVU91
 320              		.loc 1 245 3 view .LVU92
 321              		.loc 1 233 49 is_stmt 0 view .LVU93
 322 0000 30402DE9 		push	{r4, r5, lr}
 323              		.cfi_def_cfa_offset 12
 324              		.cfi_offset 4, -12
 325              		.cfi_offset 5, -8
 326              		.cfi_offset 14, -4
 327 0004 0CD04DE2 		sub	sp, sp, #12
 328              		.cfi_def_cfa_offset 24
 329              		.loc 1 233 49 view .LVU94
 330 0008 0040A0E1 		mov	r4, r0
 331 000c 18509DE5 		ldr	r5, [sp, #24]
 332              		.loc 1 245 3 view .LVU95
 333              		.syntax divided
 334              	@ 245 "../../os/hal/src/i2c.c" 1
 335 0010 9FF021E3 		msr     CPSR_c, #0x9F
 336              	@ 0 "" 2
 337              		.loc 1 245 3 is_stmt 1 view .LVU96
 338              		.loc 1 245 14 view .LVU97
 339              		.loc 1 246 3 view .LVU98
 340              		.loc 1 246 16 is_stmt 0 view .LVU99
 341              		.arm
 342              		.syntax unified
ARM GAS  /var/folders/l5/0x54b2c10074c8bt31ycjvl80000gp/T//ccnMGHS5.s 			page 7


 343 0014 00E0A0E3 		mov	lr, #0
 344              		.loc 1 247 15 view .LVU100
 345 0018 04C0A0E3 		mov	ip, #4
 346              		.loc 1 248 12 view .LVU101
 347 001c 00508DE5 		str	r5, [sp]
 348              		.loc 1 246 16 view .LVU102
 349 0020 08E080E5 		str	lr, [r0, #8]
 350              		.loc 1 247 3 is_stmt 1 view .LVU103
 351              		.loc 1 247 15 is_stmt 0 view .LVU104
 352 0024 00C0C0E5 		strb	ip, [r0]
 353              		.loc 1 248 3 is_stmt 1 view .LVU105
 354              		.loc 1 248 12 is_stmt 0 view .LVU106
 355 0028 FEFFFFEB 		bl	i2c_lld_master_receive_timeout
 356              	.LVL13:
 357              		.loc 1 249 3 is_stmt 1 view .LVU107
 358              		.loc 1 249 6 is_stmt 0 view .LVU108
 359 002c 010070E3 		cmn	r0, #1
 360              		.loc 1 250 17 view .LVU109
 361 0030 0230A013 		movne	r3, #2
 362 0034 0530A003 		moveq	r3, #5
 363 0038 0030C4E5 		strb	r3, [r4]
 364              		.loc 1 253 3 is_stmt 1 view .LVU110
 365              		.loc 1 253 3 view .LVU111
 366              		.syntax divided
 367              	@ 253 "../../os/hal/src/i2c.c" 1
 368 003c 1FF021E3 		msr     CPSR_c, #0x1F
 369              	@ 0 "" 2
 370              		.loc 1 253 16 view .LVU112
 371              		.loc 1 254 3 view .LVU113
 372              		.loc 1 255 1 is_stmt 0 view .LVU114
 373              		.arm
 374              		.syntax unified
 375 0040 0CD08DE2 		add	sp, sp, #12
 376              		.cfi_def_cfa_offset 12
 377              		@ sp needed
 378 0044 3080BDE8 		pop	{r4, r5, pc}
 379              		.loc 1 255 1 view .LVU115
 380              		.cfi_endproc
 381              	.LFE13:
 382              		.size	i2cMasterReceiveTimeout, .-i2cMasterReceiveTimeout
 383              		.section	.text.i2cAcquireBus,"ax",%progbits
 384              		.align	2
 385              		.global	i2cAcquireBus
 386              		.syntax unified
 387              		.arm
 388              		.fpu softvfp
 389              		.type	i2cAcquireBus, %function
 390              	i2cAcquireBus:
 391              	.LVL14:
 392              	.LFB14:
 393              		.loc 1 269 37 is_stmt 1 view -0
 394              		.cfi_startproc
 395              		@ args = 0, pretend = 0, frame = 0
 396              		@ frame_needed = 0, uses_anonymous_args = 0
 397              		@ link register save eliminated.
 398              		.loc 1 271 3 view .LVU117
 399              		.loc 1 271 44 view .LVU118
ARM GAS  /var/folders/l5/0x54b2c10074c8bt31ycjvl80000gp/T//ccnMGHS5.s 			page 8


 400              		.loc 1 274 3 view .LVU119
 401 0000 100080E2 		add	r0, r0, #16
 402              	.LVL15:
 403              		.loc 1 274 3 is_stmt 0 view .LVU120
 404 0004 FEFFFFEA 		b	chMtxLock
 405              	.LVL16:
 406              		.loc 1 274 3 view .LVU121
 407              		.cfi_endproc
 408              	.LFE14:
 409              		.size	i2cAcquireBus, .-i2cAcquireBus
 410              		.section	.text.i2cReleaseBus,"ax",%progbits
 411              		.align	2
 412              		.global	i2cReleaseBus
 413              		.syntax unified
 414              		.arm
 415              		.fpu softvfp
 416              		.type	i2cReleaseBus, %function
 417              	i2cReleaseBus:
 418              	.LVL17:
 419              	.LFB15:
 420              		.loc 1 289 37 is_stmt 1 view -0
 421              		.cfi_startproc
 422              		@ args = 0, pretend = 0, frame = 0
 423              		@ frame_needed = 0, uses_anonymous_args = 0
 424              		@ link register save eliminated.
 425              		.loc 1 291 3 view .LVU123
 426              		.loc 1 291 44 view .LVU124
 427              		.loc 1 294 3 view .LVU125
 428 0000 FEFFFFEA 		b	chMtxUnlock
 429              	.LVL18:
 430              		.loc 1 294 3 is_stmt 0 view .LVU126
 431              		.cfi_endproc
 432              	.LFE15:
 433              		.size	i2cReleaseBus, .-i2cReleaseBus
 434              		.text
 435              	.Letext0:
 436              		.file 2 "/usr/local/Cellar/arm-gcc-bin/8-2019-q3-update/lib/gcc/arm-none-eabi/8.3.1/include/stddef
 437              		.file 3 "/usr/local/Cellar/arm-gcc-bin/8-2019-q3-update/arm-none-eabi/include/machine/_default_typ
 438              		.file 4 "/usr/local/Cellar/arm-gcc-bin/8-2019-q3-update/arm-none-eabi/include/sys/_stdint.h"
 439              		.file 5 "../../os/ports/GCC/ARM/chtypes.h"
 440              		.file 6 "../../os/kernel/include/chlists.h"
 441              		.file 7 "../../os/kernel/include/chthreads.h"
 442              		.file 8 "../../os/ports/GCC/ARM/chcore.h"
 443              		.file 9 "../../os/kernel/include/chvt.h"
 444              		.file 10 "../../os/kernel/include/chschd.h"
 445              		.file 11 "../../os/kernel/include/chmtx.h"
 446              		.file 12 "../../os/kernel/include/chevents.h"
 447              		.file 13 "../../os/kernel/include/chregistry.h"
 448              		.file 14 "../../os/kernel/include/chqueues.h"
 449              		.file 15 "../../os/kernel/include/ch.h"
 450              		.file 16 "../../os/hal/platforms/BCM2835/bcm2835.h"
 451              		.file 17 "../../os/hal/platforms/BCM2835/pal_lld.h"
 452              		.file 18 "../../os/hal/include/i2c.h"
 453              		.file 19 "../../os/hal/platforms/BCM2835/i2c_lld.h"
 454              		.file 20 "../../os/hal/include/serial.h"
 455              		.file 21 "../../os/hal/include/spi.h"
 456              		.file 22 "../../os/hal/platforms/BCM2835/spi_lld.h"
ARM GAS  /var/folders/l5/0x54b2c10074c8bt31ycjvl80000gp/T//ccnMGHS5.s 			page 9


 457              		.file 23 "../../os/hal/platforms/BCM2835/serial_lld.h"
 458              		.section	.debug_info,"",%progbits
 459              	.Ldebug_info0:
 460 0000 58110000 		.4byte	0x1158
 461 0004 0400     		.2byte	0x4
 462 0006 00000000 		.4byte	.Ldebug_abbrev0
 463 000a 04       		.byte	0x4
 464 000b 01       		.uleb128 0x1
 465 000c C9030000 		.4byte	.LASF217
 466 0010 0C       		.byte	0xc
 467 0011 48010000 		.4byte	.LASF218
 468 0015 22090000 		.4byte	.LASF219
 469 0019 00000000 		.4byte	.Ldebug_ranges0+0
 470 001d 00000000 		.4byte	0
 471 0021 00000000 		.4byte	.Ldebug_line0
 472 0025 02       		.uleb128 0x2
 473 0026 04       		.byte	0x4
 474 0027 05       		.byte	0x5
 475 0028 696E7400 		.ascii	"int\000"
 476 002c 03       		.uleb128 0x3
 477 002d 13000000 		.4byte	.LASF2
 478 0031 02       		.byte	0x2
 479 0032 D8       		.byte	0xd8
 480 0033 17       		.byte	0x17
 481 0034 38000000 		.4byte	0x38
 482 0038 04       		.uleb128 0x4
 483 0039 04       		.byte	0x4
 484 003a 07       		.byte	0x7
 485 003b FA020000 		.4byte	.LASF0
 486 003f 05       		.uleb128 0x5
 487 0040 38000000 		.4byte	0x38
 488 0044 04       		.uleb128 0x4
 489 0045 01       		.byte	0x1
 490 0046 06       		.byte	0x6
 491 0047 16010000 		.4byte	.LASF1
 492 004b 03       		.uleb128 0x3
 493 004c 33000000 		.4byte	.LASF3
 494 0050 03       		.byte	0x3
 495 0051 2B       		.byte	0x2b
 496 0052 18       		.byte	0x18
 497 0053 57000000 		.4byte	0x57
 498 0057 04       		.uleb128 0x4
 499 0058 01       		.byte	0x1
 500 0059 08       		.byte	0x8
 501 005a 69060000 		.4byte	.LASF4
 502 005e 04       		.uleb128 0x4
 503 005f 02       		.byte	0x2
 504 0060 05       		.byte	0x5
 505 0061 96060000 		.4byte	.LASF5
 506 0065 03       		.uleb128 0x3
 507 0066 96070000 		.4byte	.LASF6
 508 006a 03       		.byte	0x3
 509 006b 39       		.byte	0x39
 510 006c 19       		.byte	0x19
 511 006d 71000000 		.4byte	0x71
 512 0071 04       		.uleb128 0x4
 513 0072 02       		.byte	0x2
ARM GAS  /var/folders/l5/0x54b2c10074c8bt31ycjvl80000gp/T//ccnMGHS5.s 			page 10


 514 0073 07       		.byte	0x7
 515 0074 87030000 		.4byte	.LASF7
 516 0078 03       		.uleb128 0x3
 517 0079 C8070000 		.4byte	.LASF8
 518 007d 03       		.byte	0x3
 519 007e 4D       		.byte	0x4d
 520 007f 18       		.byte	0x18
 521 0080 84000000 		.4byte	0x84
 522 0084 04       		.uleb128 0x4
 523 0085 04       		.byte	0x4
 524 0086 05       		.byte	0x5
 525 0087 DC010000 		.4byte	.LASF9
 526 008b 03       		.uleb128 0x3
 527 008c B2020000 		.4byte	.LASF10
 528 0090 03       		.byte	0x3
 529 0091 4F       		.byte	0x4f
 530 0092 19       		.byte	0x19
 531 0093 97000000 		.4byte	0x97
 532 0097 04       		.uleb128 0x4
 533 0098 04       		.byte	0x4
 534 0099 07       		.byte	0x7
 535 009a 33030000 		.4byte	.LASF11
 536 009e 04       		.uleb128 0x4
 537 009f 08       		.byte	0x8
 538 00a0 05       		.byte	0x5
 539 00a1 08010000 		.4byte	.LASF12
 540 00a5 04       		.uleb128 0x4
 541 00a6 08       		.byte	0x8
 542 00a7 07       		.byte	0x7
 543 00a8 67000000 		.4byte	.LASF13
 544 00ac 03       		.uleb128 0x3
 545 00ad B0080000 		.4byte	.LASF14
 546 00b1 04       		.byte	0x4
 547 00b2 18       		.byte	0x18
 548 00b3 13       		.byte	0x13
 549 00b4 4B000000 		.4byte	0x4b
 550 00b8 06       		.uleb128 0x6
 551 00b9 AC000000 		.4byte	0xac
 552 00bd 03       		.uleb128 0x3
 553 00be 27020000 		.4byte	.LASF15
 554 00c2 04       		.byte	0x4
 555 00c3 24       		.byte	0x24
 556 00c4 14       		.byte	0x14
 557 00c5 65000000 		.4byte	0x65
 558 00c9 03       		.uleb128 0x3
 559 00ca 61060000 		.4byte	.LASF16
 560 00ce 04       		.byte	0x4
 561 00cf 2C       		.byte	0x2c
 562 00d0 13       		.byte	0x13
 563 00d1 78000000 		.4byte	0x78
 564 00d5 03       		.uleb128 0x3
 565 00d6 33070000 		.4byte	.LASF17
 566 00da 04       		.byte	0x4
 567 00db 30       		.byte	0x30
 568 00dc 14       		.byte	0x14
 569 00dd 8B000000 		.4byte	0x8b
 570 00e1 05       		.uleb128 0x5
ARM GAS  /var/folders/l5/0x54b2c10074c8bt31ycjvl80000gp/T//ccnMGHS5.s 			page 11


 571 00e2 D5000000 		.4byte	0xd5
 572 00e6 03       		.uleb128 0x3
 573 00e7 A0040000 		.4byte	.LASF18
 574 00eb 05       		.byte	0x5
 575 00ec 2A       		.byte	0x2a
 576 00ed 19       		.byte	0x19
 577 00ee AC000000 		.4byte	0xac
 578 00f2 03       		.uleb128 0x3
 579 00f3 FE010000 		.4byte	.LASF19
 580 00f7 05       		.byte	0x5
 581 00f8 2B       		.byte	0x2b
 582 00f9 19       		.byte	0x19
 583 00fa AC000000 		.4byte	0xac
 584 00fe 03       		.uleb128 0x3
 585 00ff F5050000 		.4byte	.LASF20
 586 0103 05       		.byte	0x5
 587 0104 2C       		.byte	0x2c
 588 0105 19       		.byte	0x19
 589 0106 AC000000 		.4byte	0xac
 590 010a 03       		.uleb128 0x3
 591 010b 32060000 		.4byte	.LASF21
 592 010f 05       		.byte	0x5
 593 0110 2E       		.byte	0x2e
 594 0111 19       		.byte	0x19
 595 0112 D5000000 		.4byte	0xd5
 596 0116 03       		.uleb128 0x3
 597 0117 AC030000 		.4byte	.LASF22
 598 011b 05       		.byte	0x5
 599 011c 2F       		.byte	0x2f
 600 011d 19       		.byte	0x19
 601 011e C9000000 		.4byte	0xc9
 602 0122 03       		.uleb128 0x3
 603 0123 B4040000 		.4byte	.LASF23
 604 0127 05       		.byte	0x5
 605 0128 31       		.byte	0x31
 606 0129 19       		.byte	0x19
 607 012a D5000000 		.4byte	0xd5
 608 012e 03       		.uleb128 0x3
 609 012f 4B080000 		.4byte	.LASF24
 610 0133 05       		.byte	0x5
 611 0134 32       		.byte	0x32
 612 0135 19       		.byte	0x19
 613 0136 D5000000 		.4byte	0xd5
 614 013a 03       		.uleb128 0x3
 615 013b B3070000 		.4byte	.LASF25
 616 013f 05       		.byte	0x5
 617 0140 33       		.byte	0x33
 618 0141 19       		.byte	0x19
 619 0142 D5000000 		.4byte	0xd5
 620 0146 05       		.uleb128 0x5
 621 0147 3A010000 		.4byte	0x13a
 622 014b 03       		.uleb128 0x3
 623 014c F1060000 		.4byte	.LASF26
 624 0150 06       		.byte	0x6
 625 0151 23       		.byte	0x23
 626 0152 17       		.byte	0x17
 627 0153 57010000 		.4byte	0x157
ARM GAS  /var/folders/l5/0x54b2c10074c8bt31ycjvl80000gp/T//ccnMGHS5.s 			page 12


 628 0157 07       		.uleb128 0x7
 629 0158 F1060000 		.4byte	.LASF26
 630 015c 44       		.byte	0x44
 631 015d 07       		.byte	0x7
 632 015e 57       		.byte	0x57
 633 015f 08       		.byte	0x8
 634 0160 4F020000 		.4byte	0x24f
 635 0164 08       		.uleb128 0x8
 636 0165 CB060000 		.4byte	.LASF27
 637 0169 07       		.byte	0x7
 638 016a 58       		.byte	0x58
 639 016b 1A       		.byte	0x1a
 640 016c 73020000 		.4byte	0x273
 641 0170 00       		.byte	0
 642 0171 08       		.uleb128 0x8
 643 0172 1D060000 		.4byte	.LASF28
 644 0176 07       		.byte	0x7
 645 0177 5A       		.byte	0x5a
 646 0178 1A       		.byte	0x1a
 647 0179 73020000 		.4byte	0x273
 648 017d 04       		.byte	0x4
 649 017e 08       		.uleb128 0x8
 650 017f DD000000 		.4byte	.LASF29
 651 0183 07       		.byte	0x7
 652 0184 5C       		.byte	0x5c
 653 0185 19       		.byte	0x19
 654 0186 0A010000 		.4byte	0x10a
 655 018a 08       		.byte	0x8
 656 018b 08       		.uleb128 0x8
 657 018c A8090000 		.4byte	.LASF30
 658 0190 07       		.byte	0x7
 659 0191 5D       		.byte	0x5d
 660 0192 19       		.byte	0x19
 661 0193 3E030000 		.4byte	0x33e
 662 0197 0C       		.byte	0xc
 663 0198 08       		.uleb128 0x8
 664 0199 59020000 		.4byte	.LASF31
 665 019d 07       		.byte	0x7
 666 019e 5F       		.byte	0x5f
 667 019f 1A       		.byte	0x1a
 668 01a0 73020000 		.4byte	0x273
 669 01a4 10       		.byte	0x10
 670 01a5 08       		.uleb128 0x8
 671 01a6 70050000 		.4byte	.LASF32
 672 01aa 07       		.byte	0x7
 673 01ab 60       		.byte	0x60
 674 01ac 1A       		.byte	0x1a
 675 01ad 73020000 		.4byte	0x273
 676 01b1 14       		.byte	0x14
 677 01b2 08       		.uleb128 0x8
 678 01b3 EB080000 		.4byte	.LASF33
 679 01b7 07       		.byte	0x7
 680 01b8 67       		.byte	0x67
 681 01b9 1A       		.byte	0x1a
 682 01ba 9F050000 		.4byte	0x59f
 683 01be 18       		.byte	0x18
 684 01bf 08       		.uleb128 0x8
ARM GAS  /var/folders/l5/0x54b2c10074c8bt31ycjvl80000gp/T//ccnMGHS5.s 			page 13


 685 01c0 A0060000 		.4byte	.LASF34
 686 01c4 07       		.byte	0x7
 687 01c5 72       		.byte	0x72
 688 01c6 19       		.byte	0x19
 689 01c7 F2000000 		.4byte	0xf2
 690 01cb 1C       		.byte	0x1c
 691 01cc 08       		.uleb128 0x8
 692 01cd E9060000 		.4byte	.LASF35
 693 01d1 07       		.byte	0x7
 694 01d2 76       		.byte	0x76
 695 01d3 19       		.byte	0x19
 696 01d4 E6000000 		.4byte	0xe6
 697 01d8 1D       		.byte	0x1d
 698 01d9 08       		.uleb128 0x8
 699 01da 89080000 		.4byte	.LASF36
 700 01de 07       		.byte	0x7
 701 01df 7B       		.byte	0x7b
 702 01e0 19       		.byte	0x19
 703 01e1 FE000000 		.4byte	0xfe
 704 01e5 1E       		.byte	0x1e
 705 01e6 08       		.uleb128 0x8
 706 01e7 E6070000 		.4byte	.LASF37
 707 01eb 07       		.byte	0x7
 708 01ec 88       		.byte	0x88
 709 01ed 19       		.byte	0x19
 710 01ee 46010000 		.4byte	0x146
 711 01f2 20       		.byte	0x20
 712 01f3 09       		.uleb128 0x9
 713 01f4 705F7500 		.ascii	"p_u\000"
 714 01f8 07       		.byte	0x7
 715 01f9 AD       		.byte	0xad
 716 01fa 19       		.byte	0x19
 717 01fb 65050000 		.4byte	0x565
 718 01ff 24       		.byte	0x24
 719 0200 08       		.uleb128 0x8
 720 0201 AE090000 		.4byte	.LASF38
 721 0205 07       		.byte	0x7
 722 0206 B2       		.byte	0xb2
 723 0207 19       		.byte	0x19
 724 0208 9C020000 		.4byte	0x29c
 725 020c 28       		.byte	0x28
 726 020d 08       		.uleb128 0x8
 727 020e 11080000 		.4byte	.LASF39
 728 0212 07       		.byte	0x7
 729 0213 B8       		.byte	0xb8
 730 0214 19       		.byte	0x19
 731 0215 79020000 		.4byte	0x279
 732 0219 2C       		.byte	0x2c
 733 021a 08       		.uleb128 0x8
 734 021b 0D000000 		.4byte	.LASF40
 735 021f 07       		.byte	0x7
 736 0220 BC       		.byte	0xbc
 737 0221 19       		.byte	0x19
 738 0222 16010000 		.4byte	0x116
 739 0226 34       		.byte	0x34
 740 0227 08       		.uleb128 0x8
 741 0228 1E070000 		.4byte	.LASF41
ARM GAS  /var/folders/l5/0x54b2c10074c8bt31ycjvl80000gp/T//ccnMGHS5.s 			page 14


 742 022c 07       		.byte	0x7
 743 022d C2       		.byte	0xc2
 744 022e 19       		.byte	0x19
 745 022f 22010000 		.4byte	0x122
 746 0233 38       		.byte	0x38
 747 0234 08       		.uleb128 0x8
 748 0235 8C060000 		.4byte	.LASF42
 749 0239 07       		.byte	0x7
 750 023a C9       		.byte	0xc9
 751 023b 1A       		.byte	0x1a
 752 023c B1050000 		.4byte	0x5b1
 753 0240 3C       		.byte	0x3c
 754 0241 08       		.uleb128 0x8
 755 0242 BD070000 		.4byte	.LASF43
 756 0246 07       		.byte	0x7
 757 0247 CD       		.byte	0xcd
 758 0248 19       		.byte	0x19
 759 0249 0A010000 		.4byte	0x10a
 760 024d 40       		.byte	0x40
 761 024e 00       		.byte	0
 762 024f 0A       		.uleb128 0xa
 763 0250 08       		.byte	0x8
 764 0251 06       		.byte	0x6
 765 0252 5A       		.byte	0x5a
 766 0253 09       		.byte	0x9
 767 0254 73020000 		.4byte	0x273
 768 0258 08       		.uleb128 0x8
 769 0259 CB060000 		.4byte	.LASF27
 770 025d 06       		.byte	0x6
 771 025e 5B       		.byte	0x5b
 772 025f 1A       		.byte	0x1a
 773 0260 73020000 		.4byte	0x273
 774 0264 00       		.byte	0
 775 0265 08       		.uleb128 0x8
 776 0266 1D060000 		.4byte	.LASF28
 777 026a 06       		.byte	0x6
 778 026b 5D       		.byte	0x5d
 779 026c 1A       		.byte	0x1a
 780 026d 73020000 		.4byte	0x273
 781 0271 04       		.byte	0x4
 782 0272 00       		.byte	0
 783 0273 0B       		.uleb128 0xb
 784 0274 04       		.byte	0x4
 785 0275 4B010000 		.4byte	0x14b
 786 0279 03       		.uleb128 0x3
 787 027a 8E050000 		.4byte	.LASF44
 788 027e 06       		.byte	0x6
 789 027f 5F       		.byte	0x5f
 790 0280 03       		.byte	0x3
 791 0281 4F020000 		.4byte	0x24f
 792 0285 0A       		.uleb128 0xa
 793 0286 04       		.byte	0x4
 794 0287 06       		.byte	0x6
 795 0288 64       		.byte	0x64
 796 0289 09       		.byte	0x9
 797 028a 9C020000 		.4byte	0x29c
 798 028e 08       		.uleb128 0x8
ARM GAS  /var/folders/l5/0x54b2c10074c8bt31ycjvl80000gp/T//ccnMGHS5.s 			page 15


 799 028f CB060000 		.4byte	.LASF27
 800 0293 06       		.byte	0x6
 801 0294 66       		.byte	0x66
 802 0295 16       		.byte	0x16
 803 0296 73020000 		.4byte	0x273
 804 029a 00       		.byte	0
 805 029b 00       		.byte	0
 806 029c 03       		.uleb128 0x3
 807 029d A8040000 		.4byte	.LASF45
 808 02a1 06       		.byte	0x6
 809 02a2 69       		.byte	0x69
 810 02a3 03       		.byte	0x3
 811 02a4 85020000 		.4byte	0x285
 812 02a8 03       		.uleb128 0x3
 813 02a9 DE040000 		.4byte	.LASF46
 814 02ad 08       		.byte	0x8
 815 02ae 9D       		.byte	0x9d
 816 02af 12       		.byte	0x12
 817 02b0 D5000000 		.4byte	0xd5
 818 02b4 03       		.uleb128 0x3
 819 02b5 BD020000 		.4byte	.LASF47
 820 02b9 08       		.byte	0x8
 821 02ba A2       		.byte	0xa2
 822 02bb 0F       		.byte	0xf
 823 02bc C0020000 		.4byte	0x2c0
 824 02c0 0C       		.uleb128 0xc
 825 02c1 04       		.byte	0x4
 826 02c2 07       		.uleb128 0x7
 827 02c3 0A080000 		.4byte	.LASF48
 828 02c7 24       		.byte	0x24
 829 02c8 08       		.byte	0x8
 830 02c9 B9       		.byte	0xb9
 831 02ca 08       		.byte	0x8
 832 02cb 3E030000 		.4byte	0x33e
 833 02cf 09       		.uleb128 0x9
 834 02d0 723400   		.ascii	"r4\000"
 835 02d3 08       		.byte	0x8
 836 02d4 BA       		.byte	0xba
 837 02d5 11       		.byte	0x11
 838 02d6 B4020000 		.4byte	0x2b4
 839 02da 00       		.byte	0
 840 02db 09       		.uleb128 0x9
 841 02dc 723500   		.ascii	"r5\000"
 842 02df 08       		.byte	0x8
 843 02e0 BB       		.byte	0xbb
 844 02e1 11       		.byte	0x11
 845 02e2 B4020000 		.4byte	0x2b4
 846 02e6 04       		.byte	0x4
 847 02e7 09       		.uleb128 0x9
 848 02e8 723600   		.ascii	"r6\000"
 849 02eb 08       		.byte	0x8
 850 02ec BC       		.byte	0xbc
 851 02ed 11       		.byte	0x11
 852 02ee B4020000 		.4byte	0x2b4
 853 02f2 08       		.byte	0x8
 854 02f3 09       		.uleb128 0x9
 855 02f4 723700   		.ascii	"r7\000"
ARM GAS  /var/folders/l5/0x54b2c10074c8bt31ycjvl80000gp/T//ccnMGHS5.s 			page 16


 856 02f7 08       		.byte	0x8
 857 02f8 BD       		.byte	0xbd
 858 02f9 11       		.byte	0x11
 859 02fa B4020000 		.4byte	0x2b4
 860 02fe 0C       		.byte	0xc
 861 02ff 09       		.uleb128 0x9
 862 0300 723800   		.ascii	"r8\000"
 863 0303 08       		.byte	0x8
 864 0304 BE       		.byte	0xbe
 865 0305 11       		.byte	0x11
 866 0306 B4020000 		.4byte	0x2b4
 867 030a 10       		.byte	0x10
 868 030b 09       		.uleb128 0x9
 869 030c 723900   		.ascii	"r9\000"
 870 030f 08       		.byte	0x8
 871 0310 BF       		.byte	0xbf
 872 0311 11       		.byte	0x11
 873 0312 B4020000 		.4byte	0x2b4
 874 0316 14       		.byte	0x14
 875 0317 09       		.uleb128 0x9
 876 0318 72313000 		.ascii	"r10\000"
 877 031c 08       		.byte	0x8
 878 031d C0       		.byte	0xc0
 879 031e 11       		.byte	0x11
 880 031f B4020000 		.4byte	0x2b4
 881 0323 18       		.byte	0x18
 882 0324 09       		.uleb128 0x9
 883 0325 72313100 		.ascii	"r11\000"
 884 0329 08       		.byte	0x8
 885 032a C1       		.byte	0xc1
 886 032b 11       		.byte	0x11
 887 032c B4020000 		.4byte	0x2b4
 888 0330 1C       		.byte	0x1c
 889 0331 09       		.uleb128 0x9
 890 0332 6C7200   		.ascii	"lr\000"
 891 0335 08       		.byte	0x8
 892 0336 C2       		.byte	0xc2
 893 0337 11       		.byte	0x11
 894 0338 B4020000 		.4byte	0x2b4
 895 033c 20       		.byte	0x20
 896 033d 00       		.byte	0
 897 033e 07       		.uleb128 0x7
 898 033f 7F030000 		.4byte	.LASF49
 899 0343 04       		.byte	0x4
 900 0344 08       		.byte	0x8
 901 0345 CA       		.byte	0xca
 902 0346 08       		.byte	0x8
 903 0347 59030000 		.4byte	0x359
 904 034b 09       		.uleb128 0x9
 905 034c 72313300 		.ascii	"r13\000"
 906 0350 08       		.byte	0x8
 907 0351 CB       		.byte	0xcb
 908 0352 12       		.byte	0x12
 909 0353 59030000 		.4byte	0x359
 910 0357 00       		.byte	0
 911 0358 00       		.byte	0
 912 0359 0B       		.uleb128 0xb
ARM GAS  /var/folders/l5/0x54b2c10074c8bt31ycjvl80000gp/T//ccnMGHS5.s 			page 17


 913 035a 04       		.byte	0x4
 914 035b C2020000 		.4byte	0x2c2
 915 035f 03       		.uleb128 0x3
 916 0360 5B030000 		.4byte	.LASF50
 917 0364 09       		.byte	0x9
 918 0365 4E       		.byte	0x4e
 919 0366 10       		.byte	0x10
 920 0367 6B030000 		.4byte	0x36b
 921 036b 0B       		.uleb128 0xb
 922 036c 04       		.byte	0x4
 923 036d 71030000 		.4byte	0x371
 924 0371 0D       		.uleb128 0xd
 925 0372 7C030000 		.4byte	0x37c
 926 0376 0E       		.uleb128 0xe
 927 0377 C0020000 		.4byte	0x2c0
 928 037b 00       		.byte	0
 929 037c 03       		.uleb128 0x3
 930 037d 50070000 		.4byte	.LASF51
 931 0381 09       		.byte	0x9
 932 0382 53       		.byte	0x53
 933 0383 1D       		.byte	0x1d
 934 0384 88030000 		.4byte	0x388
 935 0388 07       		.uleb128 0x7
 936 0389 50070000 		.4byte	.LASF51
 937 038d 14       		.byte	0x14
 938 038e 09       		.byte	0x9
 939 038f 5A       		.byte	0x5a
 940 0390 08       		.byte	0x8
 941 0391 D7030000 		.4byte	0x3d7
 942 0395 08       		.uleb128 0x8
 943 0396 07030000 		.4byte	.LASF52
 944 039a 09       		.byte	0x9
 945 039b 5B       		.byte	0x5b
 946 039c 1A       		.byte	0x1a
 947 039d D7030000 		.4byte	0x3d7
 948 03a1 00       		.byte	0
 949 03a2 08       		.uleb128 0x8
 950 03a3 C6020000 		.4byte	.LASF53
 951 03a7 09       		.byte	0x9
 952 03a8 5D       		.byte	0x5d
 953 03a9 1A       		.byte	0x1a
 954 03aa D7030000 		.4byte	0x3d7
 955 03ae 04       		.byte	0x4
 956 03af 08       		.uleb128 0x8
 957 03b0 15050000 		.4byte	.LASF54
 958 03b4 09       		.byte	0x9
 959 03b5 5F       		.byte	0x5f
 960 03b6 19       		.byte	0x19
 961 03b7 3A010000 		.4byte	0x13a
 962 03bb 08       		.byte	0x8
 963 03bc 08       		.uleb128 0x8
 964 03bd 3D050000 		.4byte	.LASF55
 965 03c1 09       		.byte	0x9
 966 03c2 60       		.byte	0x60
 967 03c3 19       		.byte	0x19
 968 03c4 5F030000 		.4byte	0x35f
 969 03c8 0C       		.byte	0xc
ARM GAS  /var/folders/l5/0x54b2c10074c8bt31ycjvl80000gp/T//ccnMGHS5.s 			page 18


 970 03c9 08       		.uleb128 0x8
 971 03ca 3A080000 		.4byte	.LASF56
 972 03ce 09       		.byte	0x9
 973 03cf 62       		.byte	0x62
 974 03d0 1A       		.byte	0x1a
 975 03d1 C0020000 		.4byte	0x2c0
 976 03d5 10       		.byte	0x10
 977 03d6 00       		.byte	0
 978 03d7 0B       		.uleb128 0xb
 979 03d8 04       		.byte	0x4
 980 03d9 7C030000 		.4byte	0x37c
 981 03dd 0A       		.uleb128 0xa
 982 03de 10       		.byte	0x10
 983 03df 09       		.byte	0x9
 984 03e0 6C       		.byte	0x6c
 985 03e1 09       		.byte	0x9
 986 03e2 1B040000 		.4byte	0x41b
 987 03e6 08       		.uleb128 0x8
 988 03e7 07030000 		.4byte	.LASF52
 989 03eb 09       		.byte	0x9
 990 03ec 6D       		.byte	0x6d
 991 03ed 1A       		.byte	0x1a
 992 03ee D7030000 		.4byte	0x3d7
 993 03f2 00       		.byte	0
 994 03f3 08       		.uleb128 0x8
 995 03f4 C6020000 		.4byte	.LASF53
 996 03f8 09       		.byte	0x9
 997 03f9 6F       		.byte	0x6f
 998 03fa 1A       		.byte	0x1a
 999 03fb D7030000 		.4byte	0x3d7
 1000 03ff 04       		.byte	0x4
 1001 0400 08       		.uleb128 0x8
 1002 0401 15050000 		.4byte	.LASF54
 1003 0405 09       		.byte	0x9
 1004 0406 71       		.byte	0x71
 1005 0407 19       		.byte	0x19
 1006 0408 3A010000 		.4byte	0x13a
 1007 040c 08       		.byte	0x8
 1008 040d 08       		.uleb128 0x8
 1009 040e F2080000 		.4byte	.LASF57
 1010 0412 09       		.byte	0x9
 1011 0413 72       		.byte	0x72
 1012 0414 19       		.byte	0x19
 1013 0415 46010000 		.4byte	0x146
 1014 0419 0C       		.byte	0xc
 1015 041a 00       		.byte	0
 1016 041b 03       		.uleb128 0x3
 1017 041c 75090000 		.4byte	.LASF58
 1018 0420 09       		.byte	0x9
 1019 0421 73       		.byte	0x73
 1020 0422 03       		.byte	0x3
 1021 0423 DD030000 		.4byte	0x3dd
 1022 0427 0F       		.uleb128 0xf
 1023 0428 48000000 		.4byte	.LASF66
 1024 042c 09       		.byte	0x9
 1025 042d D1       		.byte	0xd1
 1026 042e 0F       		.byte	0xf
ARM GAS  /var/folders/l5/0x54b2c10074c8bt31ycjvl80000gp/T//ccnMGHS5.s 			page 19


 1027 042f 1B040000 		.4byte	0x41b
 1028 0433 0A       		.uleb128 0xa
 1029 0434 1C       		.byte	0x1c
 1030 0435 0A       		.byte	0xa
 1031 0436 57       		.byte	0x57
 1032 0437 09       		.byte	0x9
 1033 0438 8B040000 		.4byte	0x48b
 1034 043c 08       		.uleb128 0x8
 1035 043d 48070000 		.4byte	.LASF59
 1036 0441 0A       		.byte	0xa
 1037 0442 58       		.byte	0x58
 1038 0443 19       		.byte	0x19
 1039 0444 79020000 		.4byte	0x279
 1040 0448 00       		.byte	0
 1041 0449 08       		.uleb128 0x8
 1042 044a B4060000 		.4byte	.LASF60
 1043 044e 0A       		.byte	0xa
 1044 044f 59       		.byte	0x59
 1045 0450 19       		.byte	0x19
 1046 0451 0A010000 		.4byte	0x10a
 1047 0455 08       		.byte	0x8
 1048 0456 08       		.uleb128 0x8
 1049 0457 88050000 		.4byte	.LASF61
 1050 045b 0A       		.byte	0xa
 1051 045c 5B       		.byte	0x5b
 1052 045d 19       		.byte	0x19
 1053 045e 3E030000 		.4byte	0x33e
 1054 0462 0C       		.byte	0xc
 1055 0463 08       		.uleb128 0x8
 1056 0464 B9030000 		.4byte	.LASF62
 1057 0468 0A       		.byte	0xa
 1058 0469 5E       		.byte	0x5e
 1059 046a 1A       		.byte	0x1a
 1060 046b 73020000 		.4byte	0x273
 1061 046f 10       		.byte	0x10
 1062 0470 08       		.uleb128 0x8
 1063 0471 B5050000 		.4byte	.LASF63
 1064 0475 0A       		.byte	0xa
 1065 0476 5F       		.byte	0x5f
 1066 0477 1A       		.byte	0x1a
 1067 0478 73020000 		.4byte	0x273
 1068 047c 14       		.byte	0x14
 1069 047d 08       		.uleb128 0x8
 1070 047e AB050000 		.4byte	.LASF64
 1071 0482 0A       		.byte	0xa
 1072 0483 62       		.byte	0x62
 1073 0484 1A       		.byte	0x1a
 1074 0485 73020000 		.4byte	0x273
 1075 0489 18       		.byte	0x18
 1076 048a 00       		.byte	0
 1077 048b 03       		.uleb128 0x3
 1078 048c 97080000 		.4byte	.LASF65
 1079 0490 0A       		.byte	0xa
 1080 0491 64       		.byte	0x64
 1081 0492 03       		.byte	0x3
 1082 0493 33040000 		.4byte	0x433
 1083 0497 0F       		.uleb128 0xf
ARM GAS  /var/folders/l5/0x54b2c10074c8bt31ycjvl80000gp/T//ccnMGHS5.s 			page 20


 1084 0498 AA080000 		.4byte	.LASF67
 1085 049c 0A       		.byte	0xa
 1086 049d 68       		.byte	0x68
 1087 049e 12       		.byte	0x12
 1088 049f 8B040000 		.4byte	0x48b
 1089 04a3 07       		.uleb128 0x7
 1090 04a4 CB040000 		.4byte	.LASF68
 1091 04a8 10       		.byte	0x10
 1092 04a9 0B       		.byte	0xb
 1093 04aa 25       		.byte	0x25
 1094 04ab 10       		.byte	0x10
 1095 04ac D8040000 		.4byte	0x4d8
 1096 04b0 08       		.uleb128 0x8
 1097 04b1 67010000 		.4byte	.LASF69
 1098 04b5 0B       		.byte	0xb
 1099 04b6 26       		.byte	0x26
 1100 04b7 19       		.byte	0x19
 1101 04b8 79020000 		.4byte	0x279
 1102 04bc 00       		.byte	0
 1103 04bd 08       		.uleb128 0x8
 1104 04be 8D090000 		.4byte	.LASF70
 1105 04c2 0B       		.byte	0xb
 1106 04c3 28       		.byte	0x28
 1107 04c4 1A       		.byte	0x1a
 1108 04c5 73020000 		.4byte	0x273
 1109 04c9 08       		.byte	0x8
 1110 04ca 08       		.uleb128 0x8
 1111 04cb AC070000 		.4byte	.LASF71
 1112 04cf 0B       		.byte	0xb
 1113 04d0 2A       		.byte	0x2a
 1114 04d1 1A       		.byte	0x1a
 1115 04d2 D8040000 		.4byte	0x4d8
 1116 04d6 0C       		.byte	0xc
 1117 04d7 00       		.byte	0
 1118 04d8 0B       		.uleb128 0xb
 1119 04d9 04       		.byte	0x4
 1120 04da A3040000 		.4byte	0x4a3
 1121 04de 03       		.uleb128 0x3
 1122 04df CB040000 		.4byte	.LASF68
 1123 04e3 0B       		.byte	0xb
 1124 04e4 2C       		.byte	0x2c
 1125 04e5 03       		.byte	0x3
 1126 04e6 A3040000 		.4byte	0x4a3
 1127 04ea 03       		.uleb128 0x3
 1128 04eb D6080000 		.4byte	.LASF72
 1129 04ef 0C       		.byte	0xc
 1130 04f0 25       		.byte	0x25
 1131 04f1 1E       		.byte	0x1e
 1132 04f2 F6040000 		.4byte	0x4f6
 1133 04f6 07       		.uleb128 0x7
 1134 04f7 D6080000 		.4byte	.LASF72
 1135 04fb 10       		.byte	0x10
 1136 04fc 0C       		.byte	0xc
 1137 04fd 2A       		.byte	0x2a
 1138 04fe 08       		.byte	0x8
 1139 04ff 38050000 		.4byte	0x538
 1140 0503 08       		.uleb128 0x8
ARM GAS  /var/folders/l5/0x54b2c10074c8bt31ycjvl80000gp/T//ccnMGHS5.s 			page 21


 1141 0504 C1030000 		.4byte	.LASF73
 1142 0508 0C       		.byte	0xc
 1143 0509 2B       		.byte	0x2b
 1144 050a 1A       		.byte	0x1a
 1145 050b 38050000 		.4byte	0x538
 1146 050f 00       		.byte	0
 1147 0510 08       		.uleb128 0x8
 1148 0511 77060000 		.4byte	.LASF74
 1149 0515 0C       		.byte	0xc
 1150 0516 2E       		.byte	0x2e
 1151 0517 1A       		.byte	0x1a
 1152 0518 73020000 		.4byte	0x273
 1153 051c 04       		.byte	0x4
 1154 051d 08       		.uleb128 0x8
 1155 051e BD050000 		.4byte	.LASF75
 1156 0522 0C       		.byte	0xc
 1157 0523 30       		.byte	0x30
 1158 0524 19       		.byte	0x19
 1159 0525 22010000 		.4byte	0x122
 1160 0529 08       		.byte	0x8
 1161 052a 08       		.uleb128 0x8
 1162 052b 83060000 		.4byte	.LASF76
 1163 052f 0C       		.byte	0xc
 1164 0530 33       		.byte	0x33
 1165 0531 19       		.byte	0x19
 1166 0532 2E010000 		.4byte	0x12e
 1167 0536 0C       		.byte	0xc
 1168 0537 00       		.byte	0
 1169 0538 0B       		.uleb128 0xb
 1170 0539 04       		.byte	0x4
 1171 053a EA040000 		.4byte	0x4ea
 1172 053e 07       		.uleb128 0x7
 1173 053f EE020000 		.4byte	.LASF77
 1174 0543 04       		.byte	0x4
 1175 0544 0C       		.byte	0xc
 1176 0545 3A       		.byte	0x3a
 1177 0546 10       		.byte	0x10
 1178 0547 59050000 		.4byte	0x559
 1179 054b 08       		.uleb128 0x8
 1180 054c FD080000 		.4byte	.LASF78
 1181 0550 0C       		.byte	0xc
 1182 0551 3B       		.byte	0x3b
 1183 0552 1A       		.byte	0x1a
 1184 0553 38050000 		.4byte	0x538
 1185 0557 00       		.byte	0
 1186 0558 00       		.byte	0
 1187 0559 03       		.uleb128 0x3
 1188 055a EE020000 		.4byte	.LASF77
 1189 055e 0C       		.byte	0xc
 1190 055f 3E       		.byte	0x3e
 1191 0560 03       		.byte	0x3
 1192 0561 3E050000 		.4byte	0x53e
 1193 0565 10       		.uleb128 0x10
 1194 0566 04       		.byte	0x4
 1195 0567 07       		.byte	0x7
 1196 0568 8F       		.byte	0x8f
 1197 0569 03       		.byte	0x3
ARM GAS  /var/folders/l5/0x54b2c10074c8bt31ycjvl80000gp/T//ccnMGHS5.s 			page 22


 1198 056a 9F050000 		.4byte	0x59f
 1199 056e 11       		.uleb128 0x11
 1200 056f 1A000000 		.4byte	.LASF79
 1201 0573 07       		.byte	0x7
 1202 0574 96       		.byte	0x96
 1203 0575 19       		.byte	0x19
 1204 0576 16010000 		.4byte	0x116
 1205 057a 11       		.uleb128 0x11
 1206 057b A1000000 		.4byte	.LASF80
 1207 057f 07       		.byte	0x7
 1208 0580 9D       		.byte	0x9d
 1209 0581 19       		.byte	0x19
 1210 0582 16010000 		.4byte	0x116
 1211 0586 11       		.uleb128 0x11
 1212 0587 E4080000 		.4byte	.LASF81
 1213 058b 07       		.byte	0x7
 1214 058c A4       		.byte	0xa4
 1215 058d 1A       		.byte	0x1a
 1216 058e C0020000 		.4byte	0x2c0
 1217 0592 11       		.uleb128 0x11
 1218 0593 C4060000 		.4byte	.LASF82
 1219 0597 07       		.byte	0x7
 1220 0598 AB       		.byte	0xab
 1221 0599 19       		.byte	0x19
 1222 059a 22010000 		.4byte	0x122
 1223 059e 00       		.byte	0
 1224 059f 0B       		.uleb128 0xb
 1225 05a0 04       		.byte	0x4
 1226 05a1 AC050000 		.4byte	0x5ac
 1227 05a5 04       		.uleb128 0x4
 1228 05a6 01       		.byte	0x1
 1229 05a7 08       		.byte	0x8
 1230 05a8 7D070000 		.4byte	.LASF83
 1231 05ac 06       		.uleb128 0x6
 1232 05ad A5050000 		.4byte	0x5a5
 1233 05b1 0B       		.uleb128 0xb
 1234 05b2 04       		.byte	0x4
 1235 05b3 DE040000 		.4byte	0x4de
 1236 05b7 0B       		.uleb128 0xb
 1237 05b8 04       		.byte	0x4
 1238 05b9 BD050000 		.4byte	0x5bd
 1239 05bd 12       		.uleb128 0x12
 1240 05be 16010000 		.4byte	0x116
 1241 05c2 CC050000 		.4byte	0x5cc
 1242 05c6 0E       		.uleb128 0xe
 1243 05c7 C0020000 		.4byte	0x2c0
 1244 05cb 00       		.byte	0
 1245 05cc 0A       		.uleb128 0xa
 1246 05cd 16       		.byte	0x16
 1247 05ce 0D       		.byte	0xd
 1248 05cf 25       		.byte	0x25
 1249 05d0 09       		.byte	0x9
 1250 05d1 C0060000 		.4byte	0x6c0
 1251 05d5 08       		.uleb128 0x8
 1252 05d6 B3010000 		.4byte	.LASF84
 1253 05da 0D       		.byte	0xd
 1254 05db 26       		.byte	0x26
ARM GAS  /var/folders/l5/0x54b2c10074c8bt31ycjvl80000gp/T//ccnMGHS5.s 			page 23


 1255 05dc 0D       		.byte	0xd
 1256 05dd C0060000 		.4byte	0x6c0
 1257 05e1 00       		.byte	0
 1258 05e2 08       		.uleb128 0x8
 1259 05e3 F6040000 		.4byte	.LASF85
 1260 05e7 0D       		.byte	0xd
 1261 05e8 27       		.byte	0x27
 1262 05e9 0D       		.byte	0xd
 1263 05ea AC000000 		.4byte	0xac
 1264 05ee 04       		.byte	0x4
 1265 05ef 08       		.uleb128 0x8
 1266 05f0 9B050000 		.4byte	.LASF86
 1267 05f4 0D       		.byte	0xd
 1268 05f5 28       		.byte	0x28
 1269 05f6 0D       		.byte	0xd
 1270 05f7 AC000000 		.4byte	0xac
 1271 05fb 05       		.byte	0x5
 1272 05fc 08       		.uleb128 0x8
 1273 05fd 17090000 		.4byte	.LASF87
 1274 0601 0D       		.byte	0xd
 1275 0602 29       		.byte	0x29
 1276 0603 0D       		.byte	0xd
 1277 0604 BD000000 		.4byte	0xbd
 1278 0608 06       		.byte	0x6
 1279 0609 08       		.uleb128 0x8
 1280 060a 08060000 		.4byte	.LASF88
 1281 060e 0D       		.byte	0xd
 1282 060f 2A       		.byte	0x2a
 1283 0610 0D       		.byte	0xd
 1284 0611 AC000000 		.4byte	0xac
 1285 0615 08       		.byte	0x8
 1286 0616 08       		.uleb128 0x8
 1287 0617 45050000 		.4byte	.LASF89
 1288 061b 0D       		.byte	0xd
 1289 061c 2B       		.byte	0x2b
 1290 061d 0D       		.byte	0xd
 1291 061e AC000000 		.4byte	0xac
 1292 0622 09       		.byte	0x9
 1293 0623 08       		.uleb128 0x8
 1294 0624 8A000000 		.4byte	.LASF90
 1295 0628 0D       		.byte	0xd
 1296 0629 2C       		.byte	0x2c
 1297 062a 0D       		.byte	0xd
 1298 062b AC000000 		.4byte	0xac
 1299 062f 0A       		.byte	0xa
 1300 0630 08       		.uleb128 0x8
 1301 0631 3C070000 		.4byte	.LASF91
 1302 0635 0D       		.byte	0xd
 1303 0636 2D       		.byte	0x2d
 1304 0637 0D       		.byte	0xd
 1305 0638 AC000000 		.4byte	0xac
 1306 063c 0B       		.byte	0xb
 1307 063d 08       		.uleb128 0x8
 1308 063e 71080000 		.4byte	.LASF92
 1309 0642 0D       		.byte	0xd
 1310 0643 2E       		.byte	0x2e
 1311 0644 0D       		.byte	0xd
ARM GAS  /var/folders/l5/0x54b2c10074c8bt31ycjvl80000gp/T//ccnMGHS5.s 			page 24


 1312 0645 AC000000 		.4byte	0xac
 1313 0649 0C       		.byte	0xc
 1314 064a 08       		.uleb128 0x8
 1315 064b 06070000 		.4byte	.LASF93
 1316 064f 0D       		.byte	0xd
 1317 0650 2F       		.byte	0x2f
 1318 0651 0D       		.byte	0xd
 1319 0652 AC000000 		.4byte	0xac
 1320 0656 0D       		.byte	0xd
 1321 0657 08       		.uleb128 0x8
 1322 0658 00000000 		.4byte	.LASF94
 1323 065c 0D       		.byte	0xd
 1324 065d 30       		.byte	0x30
 1325 065e 0D       		.byte	0xd
 1326 065f AC000000 		.4byte	0xac
 1327 0663 0E       		.byte	0xe
 1328 0664 08       		.uleb128 0x8
 1329 0665 5A050000 		.4byte	.LASF95
 1330 0669 0D       		.byte	0xd
 1331 066a 31       		.byte	0x31
 1332 066b 0D       		.byte	0xd
 1333 066c AC000000 		.4byte	0xac
 1334 0670 0F       		.byte	0xf
 1335 0671 08       		.uleb128 0x8
 1336 0672 22010000 		.4byte	.LASF96
 1337 0676 0D       		.byte	0xd
 1338 0677 32       		.byte	0x32
 1339 0678 0D       		.byte	0xd
 1340 0679 AC000000 		.4byte	0xac
 1341 067d 10       		.byte	0x10
 1342 067e 08       		.uleb128 0x8
 1343 067f E4000000 		.4byte	.LASF97
 1344 0683 0D       		.byte	0xd
 1345 0684 34       		.byte	0x34
 1346 0685 0D       		.byte	0xd
 1347 0686 AC000000 		.4byte	0xac
 1348 068a 11       		.byte	0x11
 1349 068b 08       		.uleb128 0x8
 1350 068c 3B010000 		.4byte	.LASF98
 1351 0690 0D       		.byte	0xd
 1352 0691 35       		.byte	0x35
 1353 0692 0D       		.byte	0xd
 1354 0693 AC000000 		.4byte	0xac
 1355 0697 12       		.byte	0x12
 1356 0698 08       		.uleb128 0x8
 1357 0699 FE040000 		.4byte	.LASF99
 1358 069d 0D       		.byte	0xd
 1359 069e 36       		.byte	0x36
 1360 069f 0D       		.byte	0xd
 1361 06a0 AC000000 		.4byte	0xac
 1362 06a4 13       		.byte	0x13
 1363 06a5 08       		.uleb128 0x8
 1364 06a6 DA060000 		.4byte	.LASF100
 1365 06aa 0D       		.byte	0xd
 1366 06ab 37       		.byte	0x37
 1367 06ac 0D       		.byte	0xd
 1368 06ad AC000000 		.4byte	0xac
ARM GAS  /var/folders/l5/0x54b2c10074c8bt31ycjvl80000gp/T//ccnMGHS5.s 			page 25


 1369 06b1 14       		.byte	0x14
 1370 06b2 08       		.uleb128 0x8
 1371 06b3 A8060000 		.4byte	.LASF101
 1372 06b7 0D       		.byte	0xd
 1373 06b8 39       		.byte	0x39
 1374 06b9 0D       		.byte	0xd
 1375 06ba AC000000 		.4byte	0xac
 1376 06be 15       		.byte	0x15
 1377 06bf 00       		.byte	0
 1378 06c0 13       		.uleb128 0x13
 1379 06c1 A5050000 		.4byte	0x5a5
 1380 06c5 D0060000 		.4byte	0x6d0
 1381 06c9 14       		.uleb128 0x14
 1382 06ca 38000000 		.4byte	0x38
 1383 06ce 03       		.byte	0x3
 1384 06cf 00       		.byte	0
 1385 06d0 03       		.uleb128 0x3
 1386 06d1 35020000 		.4byte	.LASF102
 1387 06d5 0D       		.byte	0xd
 1388 06d6 3A       		.byte	0x3a
 1389 06d7 03       		.byte	0x3
 1390 06d8 CC050000 		.4byte	0x5cc
 1391 06dc 06       		.uleb128 0x6
 1392 06dd D0060000 		.4byte	0x6d0
 1393 06e1 0F       		.uleb128 0xf
 1394 06e2 45030000 		.4byte	.LASF103
 1395 06e6 0D       		.byte	0xd
 1396 06e7 77       		.byte	0x77
 1397 06e8 1D       		.byte	0x1d
 1398 06e9 DC060000 		.4byte	0x6dc
 1399 06ed 03       		.uleb128 0x3
 1400 06ee D1040000 		.4byte	.LASF104
 1401 06f2 0E       		.byte	0xe
 1402 06f3 30       		.byte	0x30
 1403 06f4 1D       		.byte	0x1d
 1404 06f5 F9060000 		.4byte	0x6f9
 1405 06f9 07       		.uleb128 0x7
 1406 06fa D1040000 		.4byte	.LASF104
 1407 06fe 24       		.byte	0x24
 1408 06ff 0E       		.byte	0xe
 1409 0700 3E       		.byte	0x3e
 1410 0701 08       		.byte	0x8
 1411 0702 6F070000 		.4byte	0x76f
 1412 0706 08       		.uleb128 0x8
 1413 0707 FE000000 		.4byte	.LASF105
 1414 070b 0E       		.byte	0xe
 1415 070c 3F       		.byte	0x3f
 1416 070d 19       		.byte	0x19
 1417 070e 79020000 		.4byte	0x279
 1418 0712 00       		.byte	0
 1419 0713 08       		.uleb128 0x8
 1420 0714 33050000 		.4byte	.LASF106
 1421 0718 0E       		.byte	0xe
 1422 0719 40       		.byte	0x40
 1423 071a 19       		.byte	0x19
 1424 071b 2C000000 		.4byte	0x2c
 1425 071f 08       		.byte	0x8
ARM GAS  /var/folders/l5/0x54b2c10074c8bt31ycjvl80000gp/T//ccnMGHS5.s 			page 26


 1426 0720 08       		.uleb128 0x8
 1427 0721 1E020000 		.4byte	.LASF107
 1428 0725 0E       		.byte	0xe
 1429 0726 41       		.byte	0x41
 1430 0727 1A       		.byte	0x1a
 1431 0728 92070000 		.4byte	0x792
 1432 072c 0C       		.byte	0xc
 1433 072d 08       		.uleb128 0x8
 1434 072e 61000000 		.4byte	.LASF108
 1435 0732 0E       		.byte	0xe
 1436 0733 42       		.byte	0x42
 1437 0734 1A       		.byte	0x1a
 1438 0735 92070000 		.4byte	0x792
 1439 0739 10       		.byte	0x10
 1440 073a 08       		.uleb128 0x8
 1441 073b 80050000 		.4byte	.LASF109
 1442 073f 0E       		.byte	0xe
 1443 0740 44       		.byte	0x44
 1444 0741 1A       		.byte	0x1a
 1445 0742 92070000 		.4byte	0x792
 1446 0746 14       		.byte	0x14
 1447 0747 08       		.uleb128 0x8
 1448 0748 3A060000 		.4byte	.LASF110
 1449 074c 0E       		.byte	0xe
 1450 074d 45       		.byte	0x45
 1451 074e 1A       		.byte	0x1a
 1452 074f 92070000 		.4byte	0x792
 1453 0753 18       		.byte	0x18
 1454 0754 08       		.uleb128 0x8
 1455 0755 A1080000 		.4byte	.LASF111
 1456 0759 0E       		.byte	0xe
 1457 075a 46       		.byte	0x46
 1458 075b 19       		.byte	0x19
 1459 075c 6F070000 		.4byte	0x76f
 1460 0760 1C       		.byte	0x1c
 1461 0761 08       		.uleb128 0x8
 1462 0762 7C090000 		.4byte	.LASF112
 1463 0766 0E       		.byte	0xe
 1464 0767 47       		.byte	0x47
 1465 0768 1A       		.byte	0x1a
 1466 0769 C0020000 		.4byte	0x2c0
 1467 076d 20       		.byte	0x20
 1468 076e 00       		.byte	0
 1469 076f 03       		.uleb128 0x3
 1470 0770 13060000 		.4byte	.LASF113
 1471 0774 0E       		.byte	0xe
 1472 0775 33       		.byte	0x33
 1473 0776 10       		.byte	0x10
 1474 0777 7B070000 		.4byte	0x77b
 1475 077b 0B       		.uleb128 0xb
 1476 077c 04       		.byte	0x4
 1477 077d 81070000 		.4byte	0x781
 1478 0781 0D       		.uleb128 0xd
 1479 0782 8C070000 		.4byte	0x78c
 1480 0786 0E       		.uleb128 0xe
 1481 0787 8C070000 		.4byte	0x78c
 1482 078b 00       		.byte	0
ARM GAS  /var/folders/l5/0x54b2c10074c8bt31ycjvl80000gp/T//ccnMGHS5.s 			page 27


 1483 078c 0B       		.uleb128 0xb
 1484 078d 04       		.byte	0x4
 1485 078e ED060000 		.4byte	0x6ed
 1486 0792 0B       		.uleb128 0xb
 1487 0793 04       		.byte	0x4
 1488 0794 AC000000 		.4byte	0xac
 1489 0798 03       		.uleb128 0x3
 1490 0799 C0040000 		.4byte	.LASF114
 1491 079d 0E       		.byte	0xe
 1492 079e 7B       		.byte	0x7b
 1493 079f 16       		.byte	0x16
 1494 07a0 ED060000 		.4byte	0x6ed
 1495 07a4 03       		.uleb128 0x3
 1496 07a5 27000000 		.4byte	.LASF115
 1497 07a9 0E       		.byte	0xe
 1498 07aa EE       		.byte	0xee
 1499 07ab 16       		.byte	0x16
 1500 07ac ED060000 		.4byte	0x6ed
 1501 07b0 12       		.uleb128 0x12
 1502 07b1 2C000000 		.4byte	0x2c
 1503 07b5 C9070000 		.4byte	0x7c9
 1504 07b9 0E       		.uleb128 0xe
 1505 07ba C0020000 		.4byte	0x2c0
 1506 07be 0E       		.uleb128 0xe
 1507 07bf C9070000 		.4byte	0x7c9
 1508 07c3 0E       		.uleb128 0xe
 1509 07c4 2C000000 		.4byte	0x2c
 1510 07c8 00       		.byte	0
 1511 07c9 0B       		.uleb128 0xb
 1512 07ca 04       		.byte	0x4
 1513 07cb B8000000 		.4byte	0xb8
 1514 07cf 0B       		.uleb128 0xb
 1515 07d0 04       		.byte	0x4
 1516 07d1 B0070000 		.4byte	0x7b0
 1517 07d5 12       		.uleb128 0x12
 1518 07d6 2C000000 		.4byte	0x2c
 1519 07da EE070000 		.4byte	0x7ee
 1520 07de 0E       		.uleb128 0xe
 1521 07df C0020000 		.4byte	0x2c0
 1522 07e3 0E       		.uleb128 0xe
 1523 07e4 92070000 		.4byte	0x792
 1524 07e8 0E       		.uleb128 0xe
 1525 07e9 2C000000 		.4byte	0x2c
 1526 07ed 00       		.byte	0
 1527 07ee 0B       		.uleb128 0xb
 1528 07ef 04       		.byte	0x4
 1529 07f0 D5070000 		.4byte	0x7d5
 1530 07f4 12       		.uleb128 0x12
 1531 07f5 16010000 		.4byte	0x116
 1532 07f9 08080000 		.4byte	0x808
 1533 07fd 0E       		.uleb128 0xe
 1534 07fe C0020000 		.4byte	0x2c0
 1535 0802 0E       		.uleb128 0xe
 1536 0803 AC000000 		.4byte	0xac
 1537 0807 00       		.byte	0
 1538 0808 0B       		.uleb128 0xb
 1539 0809 04       		.byte	0x4
ARM GAS  /var/folders/l5/0x54b2c10074c8bt31ycjvl80000gp/T//ccnMGHS5.s 			page 28


 1540 080a F4070000 		.4byte	0x7f4
 1541 080e 13       		.uleb128 0x13
 1542 080f A8020000 		.4byte	0x2a8
 1543 0813 1E080000 		.4byte	0x81e
 1544 0817 14       		.uleb128 0x14
 1545 0818 38000000 		.4byte	0x38
 1546 081c 26       		.byte	0x26
 1547 081d 00       		.byte	0
 1548 081e 0F       		.uleb128 0xf
 1549 081f 61020000 		.4byte	.LASF116
 1550 0823 0F       		.byte	0xf
 1551 0824 82       		.byte	0x82
 1552 0825 08       		.byte	0x8
 1553 0826 0E080000 		.4byte	0x80e
 1554 082a 07       		.uleb128 0x7
 1555 082b 4F000000 		.4byte	.LASF117
 1556 082f 20       		.byte	0x20
 1557 0830 10       		.byte	0x10
 1558 0831 FD       		.byte	0xfd
 1559 0832 08       		.byte	0x8
 1560 0833 A6080000 		.4byte	0x8a6
 1561 0837 08       		.uleb128 0x8
 1562 0838 AA020000 		.4byte	.LASF118
 1563 083c 10       		.byte	0x10
 1564 083d FE       		.byte	0xfe
 1565 083e 19       		.byte	0x19
 1566 083f 3F000000 		.4byte	0x3f
 1567 0843 00       		.byte	0
 1568 0844 08       		.uleb128 0x8
 1569 0845 90080000 		.4byte	.LASF119
 1570 0849 10       		.byte	0x10
 1571 084a FF       		.byte	0xff
 1572 084b 19       		.byte	0x19
 1573 084c 3F000000 		.4byte	0x3f
 1574 0850 04       		.byte	0x4
 1575 0851 15       		.uleb128 0x15
 1576 0852 6A090000 		.4byte	.LASF120
 1577 0856 10       		.byte	0x10
 1578 0857 0001     		.2byte	0x100
 1579 0859 19       		.byte	0x19
 1580 085a 3F000000 		.4byte	0x3f
 1581 085e 08       		.byte	0x8
 1582 085f 15       		.uleb128 0x15
 1583 0860 CE020000 		.4byte	.LASF121
 1584 0864 10       		.byte	0x10
 1585 0865 0101     		.2byte	0x101
 1586 0867 19       		.byte	0x19
 1587 0868 3F000000 		.4byte	0x3f
 1588 086c 0C       		.byte	0xc
 1589 086d 15       		.uleb128 0x15
 1590 086e D4000000 		.4byte	.LASF122
 1591 0872 10       		.byte	0x10
 1592 0873 0201     		.2byte	0x102
 1593 0875 19       		.byte	0x19
 1594 0876 3F000000 		.4byte	0x3f
 1595 087a 10       		.byte	0x10
 1596 087b 15       		.uleb128 0x15
ARM GAS  /var/folders/l5/0x54b2c10074c8bt31ycjvl80000gp/T//ccnMGHS5.s 			page 29


 1597 087c 26050000 		.4byte	.LASF123
 1598 0880 10       		.byte	0x10
 1599 0881 0301     		.2byte	0x103
 1600 0883 19       		.byte	0x19
 1601 0884 3F000000 		.4byte	0x3f
 1602 0888 14       		.byte	0x14
 1603 0889 15       		.uleb128 0x15
 1604 088a 0E020000 		.4byte	.LASF124
 1605 088e 10       		.byte	0x10
 1606 088f 0401     		.2byte	0x104
 1607 0891 19       		.byte	0x19
 1608 0892 3F000000 		.4byte	0x3f
 1609 0896 18       		.byte	0x18
 1610 0897 15       		.uleb128 0x15
 1611 0898 C0090000 		.4byte	.LASF125
 1612 089c 10       		.byte	0x10
 1613 089d 0501     		.2byte	0x105
 1614 089f 19       		.byte	0x19
 1615 08a0 3F000000 		.4byte	0x3f
 1616 08a4 1C       		.byte	0x1c
 1617 08a5 00       		.byte	0
 1618 08a6 16       		.uleb128 0x16
 1619 08a7 4F000000 		.4byte	.LASF117
 1620 08ab 10       		.byte	0x10
 1621 08ac 0801     		.2byte	0x108
 1622 08ae 1C       		.byte	0x1c
 1623 08af 2A080000 		.4byte	0x82a
 1624 08b3 12       		.uleb128 0x12
 1625 08b4 16010000 		.4byte	0x116
 1626 08b8 CC080000 		.4byte	0x8cc
 1627 08bc 0E       		.uleb128 0xe
 1628 08bd C0020000 		.4byte	0x2c0
 1629 08c1 0E       		.uleb128 0xe
 1630 08c2 AC000000 		.4byte	0xac
 1631 08c6 0E       		.uleb128 0xe
 1632 08c7 3A010000 		.4byte	0x13a
 1633 08cb 00       		.byte	0
 1634 08cc 0B       		.uleb128 0xb
 1635 08cd 04       		.byte	0x4
 1636 08ce B3080000 		.4byte	0x8b3
 1637 08d2 12       		.uleb128 0x12
 1638 08d3 16010000 		.4byte	0x116
 1639 08d7 E6080000 		.4byte	0x8e6
 1640 08db 0E       		.uleb128 0xe
 1641 08dc C0020000 		.4byte	0x2c0
 1642 08e0 0E       		.uleb128 0xe
 1643 08e1 3A010000 		.4byte	0x13a
 1644 08e5 00       		.byte	0
 1645 08e6 0B       		.uleb128 0xb
 1646 08e7 04       		.byte	0x4
 1647 08e8 D2080000 		.4byte	0x8d2
 1648 08ec 12       		.uleb128 0x12
 1649 08ed 2C000000 		.4byte	0x2c
 1650 08f1 0A090000 		.4byte	0x90a
 1651 08f5 0E       		.uleb128 0xe
 1652 08f6 C0020000 		.4byte	0x2c0
 1653 08fa 0E       		.uleb128 0xe
ARM GAS  /var/folders/l5/0x54b2c10074c8bt31ycjvl80000gp/T//ccnMGHS5.s 			page 30


 1654 08fb C9070000 		.4byte	0x7c9
 1655 08ff 0E       		.uleb128 0xe
 1656 0900 2C000000 		.4byte	0x2c
 1657 0904 0E       		.uleb128 0xe
 1658 0905 3A010000 		.4byte	0x13a
 1659 0909 00       		.byte	0
 1660 090a 0B       		.uleb128 0xb
 1661 090b 04       		.byte	0x4
 1662 090c EC080000 		.4byte	0x8ec
 1663 0910 12       		.uleb128 0x12
 1664 0911 2C000000 		.4byte	0x2c
 1665 0915 2E090000 		.4byte	0x92e
 1666 0919 0E       		.uleb128 0xe
 1667 091a C0020000 		.4byte	0x2c0
 1668 091e 0E       		.uleb128 0xe
 1669 091f 92070000 		.4byte	0x792
 1670 0923 0E       		.uleb128 0xe
 1671 0924 2C000000 		.4byte	0x2c
 1672 0928 0E       		.uleb128 0xe
 1673 0929 3A010000 		.4byte	0x13a
 1674 092d 00       		.byte	0
 1675 092e 0B       		.uleb128 0xb
 1676 092f 04       		.byte	0x4
 1677 0930 10090000 		.4byte	0x910
 1678 0934 0A       		.uleb128 0xa
 1679 0935 18       		.byte	0x18
 1680 0936 11       		.byte	0x11
 1681 0937 2A       		.byte	0x2a
 1682 0938 09       		.byte	0x9
 1683 0939 8C090000 		.4byte	0x98c
 1684 093d 08       		.uleb128 0x8
 1685 093e B8080000 		.4byte	.LASF126
 1686 0942 11       		.byte	0x11
 1687 0943 2F       		.byte	0x2f
 1688 0944 15       		.byte	0x15
 1689 0945 D5000000 		.4byte	0xd5
 1690 0949 00       		.byte	0
 1691 094a 08       		.uleb128 0x8
 1692 094b CD050000 		.4byte	.LASF127
 1693 094f 11       		.byte	0x11
 1694 0950 31       		.byte	0x31
 1695 0951 16       		.byte	0x16
 1696 0952 8C090000 		.4byte	0x98c
 1697 0956 04       		.byte	0x4
 1698 0957 08       		.uleb128 0x8
 1699 0958 A6030000 		.4byte	.LASF128
 1700 095c 11       		.byte	0x11
 1701 095d 32       		.byte	0x32
 1702 095e 16       		.byte	0x16
 1703 095f 8C090000 		.4byte	0x98c
 1704 0963 08       		.byte	0x8
 1705 0964 08       		.uleb128 0x8
 1706 0965 0A050000 		.4byte	.LASF129
 1707 0969 11       		.byte	0x11
 1708 096a 33       		.byte	0x33
 1709 096b 16       		.byte	0x16
 1710 096c 8C090000 		.4byte	0x98c
ARM GAS  /var/folders/l5/0x54b2c10074c8bt31ycjvl80000gp/T//ccnMGHS5.s 			page 31


 1711 0970 0C       		.byte	0xc
 1712 0971 08       		.uleb128 0x8
 1713 0972 D3050000 		.4byte	.LASF130
 1714 0976 11       		.byte	0x11
 1715 0977 34       		.byte	0x34
 1716 0978 16       		.byte	0x16
 1717 0979 8C090000 		.4byte	0x98c
 1718 097d 10       		.byte	0x10
 1719 097e 08       		.uleb128 0x8
 1720 097f BB060000 		.4byte	.LASF131
 1721 0983 11       		.byte	0x11
 1722 0984 35       		.byte	0x35
 1723 0985 10       		.byte	0x10
 1724 0986 38000000 		.4byte	0x38
 1725 098a 14       		.byte	0x14
 1726 098b 00       		.byte	0
 1727 098c 0B       		.uleb128 0xb
 1728 098d 04       		.byte	0x4
 1729 098e E1000000 		.4byte	0xe1
 1730 0992 03       		.uleb128 0x3
 1731 0993 9A030000 		.4byte	.LASF132
 1732 0997 11       		.byte	0x11
 1733 0998 37       		.byte	0x37
 1734 0999 03       		.byte	0x3
 1735 099a 34090000 		.4byte	0x934
 1736 099e 17       		.uleb128 0x17
 1737 099f 00       		.byte	0
 1738 09a0 11       		.byte	0x11
 1739 09a1 43       		.byte	0x43
 1740 09a2 09       		.byte	0x9
 1741 09a3 03       		.uleb128 0x3
 1742 09a4 83090000 		.4byte	.LASF133
 1743 09a8 11       		.byte	0x11
 1744 09a9 45       		.byte	0x45
 1745 09aa 03       		.byte	0x3
 1746 09ab 9E090000 		.4byte	0x99e
 1747 09af 06       		.uleb128 0x6
 1748 09b0 A3090000 		.4byte	0x9a3
 1749 09b4 0F       		.uleb128 0xf
 1750 09b5 A3050000 		.4byte	.LASF134
 1751 09b9 11       		.byte	0x11
 1752 09ba 6D       		.byte	0x6d
 1753 09bb 14       		.byte	0x14
 1754 09bc 92090000 		.4byte	0x992
 1755 09c0 0F       		.uleb128 0xf
 1756 09c1 D2060000 		.4byte	.LASF135
 1757 09c5 11       		.byte	0x11
 1758 09c6 6E       		.byte	0x6e
 1759 09c7 14       		.byte	0x14
 1760 09c8 92090000 		.4byte	0x992
 1761 09cc 0F       		.uleb128 0xf
 1762 09cd 95090000 		.4byte	.LASF136
 1763 09d1 11       		.byte	0x11
 1764 09d2 75       		.byte	0x75
 1765 09d3 18       		.byte	0x18
 1766 09d4 AF090000 		.4byte	0x9af
 1767 09d8 18       		.uleb128 0x18
ARM GAS  /var/folders/l5/0x54b2c10074c8bt31ycjvl80000gp/T//ccnMGHS5.s 			page 32


 1768 09d9 07       		.byte	0x7
 1769 09da 01       		.byte	0x1
 1770 09db 57000000 		.4byte	0x57
 1771 09df 12       		.byte	0x12
 1772 09e0 54       		.byte	0x54
 1773 09e1 0E       		.byte	0xe
 1774 09e2 0B0A0000 		.4byte	0xa0b
 1775 09e6 19       		.uleb128 0x19
 1776 09e7 C1010000 		.4byte	.LASF137
 1777 09eb 00       		.byte	0
 1778 09ec 19       		.uleb128 0x19
 1779 09ed 1D050000 		.4byte	.LASF138
 1780 09f1 01       		.byte	0x1
 1781 09f2 19       		.uleb128 0x19
 1782 09f3 D2070000 		.4byte	.LASF139
 1783 09f7 02       		.byte	0x2
 1784 09f8 19       		.uleb128 0x19
 1785 09f9 3F020000 		.4byte	.LASF140
 1786 09fd 03       		.byte	0x3
 1787 09fe 19       		.uleb128 0x19
 1788 09ff 6A070000 		.4byte	.LASF141
 1789 0a03 04       		.byte	0x4
 1790 0a04 19       		.uleb128 0x19
 1791 0a05 13070000 		.4byte	.LASF142
 1792 0a09 05       		.byte	0x5
 1793 0a0a 00       		.byte	0
 1794 0a0b 03       		.uleb128 0x3
 1795 0a0c FD050000 		.4byte	.LASF143
 1796 0a10 12       		.byte	0x12
 1797 0a11 5B       		.byte	0x5b
 1798 0a12 03       		.byte	0x3
 1799 0a13 D8090000 		.4byte	0x9d8
 1800 0a17 03       		.uleb128 0x3
 1801 0a18 DC070000 		.4byte	.LASF144
 1802 0a1c 13       		.byte	0x13
 1803 0a1d 38       		.byte	0x38
 1804 0a1e 1A       		.byte	0x1a
 1805 0a1f 230A0000 		.4byte	0xa23
 1806 0a23 07       		.uleb128 0x7
 1807 0a24 DC070000 		.4byte	.LASF144
 1808 0a28 40       		.byte	0x40
 1809 0a29 13       		.byte	0x13
 1810 0a2a 62       		.byte	0x62
 1811 0a2b 08       		.byte	0x8
 1812 0a2c DA0A0000 		.4byte	0xada
 1813 0a30 08       		.uleb128 0x8
 1814 0a31 D6010000 		.4byte	.LASF145
 1815 0a35 13       		.byte	0x13
 1816 0a36 64       		.byte	0x64
 1817 0a37 1D       		.byte	0x1d
 1818 0a38 0B0A0000 		.4byte	0xa0b
 1819 0a3c 00       		.byte	0
 1820 0a3d 08       		.uleb128 0x8
 1821 0a3e 8F070000 		.4byte	.LASF146
 1822 0a42 13       		.byte	0x13
 1823 0a43 66       		.byte	0x66
 1824 0a44 1E       		.byte	0x1e
ARM GAS  /var/folders/l5/0x54b2c10074c8bt31ycjvl80000gp/T//ccnMGHS5.s 			page 33


 1825 0a45 200B0000 		.4byte	0xb20
 1826 0a49 04       		.byte	0x4
 1827 0a4a 08       		.uleb128 0x8
 1828 0a4b 25030000 		.4byte	.LASF147
 1829 0a4f 13       		.byte	0x13
 1830 0a50 68       		.byte	0x68
 1831 0a51 1D       		.byte	0x1d
 1832 0a52 DA0A0000 		.4byte	0xada
 1833 0a56 08       		.byte	0x8
 1834 0a57 08       		.uleb128 0x8
 1835 0a58 F7000000 		.4byte	.LASF148
 1836 0a5c 13       		.byte	0x13
 1837 0a5d 6A       		.byte	0x6a
 1838 0a5e 1E       		.byte	0x1e
 1839 0a5f 260B0000 		.4byte	0xb26
 1840 0a63 0C       		.byte	0xc
 1841 0a64 08       		.uleb128 0x8
 1842 0a65 4D060000 		.4byte	.LASF149
 1843 0a69 13       		.byte	0x13
 1844 0a6a 6D       		.byte	0x6d
 1845 0a6b 1D       		.byte	0x1d
 1846 0a6c DE040000 		.4byte	0x4de
 1847 0a70 10       		.byte	0x10
 1848 0a71 08       		.uleb128 0x8
 1849 0a72 07020000 		.4byte	.LASF150
 1850 0a76 13       		.byte	0x13
 1851 0a77 77       		.byte	0x77
 1852 0a78 1E       		.byte	0x1e
 1853 0a79 73020000 		.4byte	0x273
 1854 0a7d 20       		.byte	0x20
 1855 0a7e 08       		.uleb128 0x8
 1856 0a7f 8E010000 		.4byte	.LASF151
 1857 0a83 13       		.byte	0x13
 1858 0a84 7B       		.byte	0x7b
 1859 0a85 1D       		.byte	0x1d
 1860 0a86 E60A0000 		.4byte	0xae6
 1861 0a8a 24       		.byte	0x24
 1862 0a8b 08       		.uleb128 0x8
 1863 0a8c 0F030000 		.4byte	.LASF152
 1864 0a90 13       		.byte	0x13
 1865 0a91 7F       		.byte	0x7f
 1866 0a92 1E       		.byte	0x1e
 1867 0a93 C9070000 		.4byte	0x7c9
 1868 0a97 28       		.byte	0x28
 1869 0a98 08       		.uleb128 0x8
 1870 0a99 B8090000 		.4byte	.LASF153
 1871 0a9d 13       		.byte	0x13
 1872 0a9e 83       		.byte	0x83
 1873 0a9f 1D       		.byte	0x1d
 1874 0aa0 2C000000 		.4byte	0x2c
 1875 0aa4 2C       		.byte	0x2c
 1876 0aa5 08       		.uleb128 0x8
 1877 0aa6 6B080000 		.4byte	.LASF154
 1878 0aaa 13       		.byte	0x13
 1879 0aab 87       		.byte	0x87
 1880 0aac 1D       		.byte	0x1d
 1881 0aad 2C000000 		.4byte	0x2c
ARM GAS  /var/folders/l5/0x54b2c10074c8bt31ycjvl80000gp/T//ccnMGHS5.s 			page 34


 1882 0ab1 30       		.byte	0x30
 1883 0ab2 08       		.uleb128 0x8
 1884 0ab3 5B000000 		.4byte	.LASF155
 1885 0ab7 13       		.byte	0x13
 1886 0ab8 8B       		.byte	0x8b
 1887 0ab9 1E       		.byte	0x1e
 1888 0aba 92070000 		.4byte	0x792
 1889 0abe 34       		.byte	0x34
 1890 0abf 08       		.uleb128 0x8
 1891 0ac0 78050000 		.4byte	.LASF156
 1892 0ac4 13       		.byte	0x13
 1893 0ac5 8F       		.byte	0x8f
 1894 0ac6 1D       		.byte	0x1d
 1895 0ac7 2C000000 		.4byte	0x2c
 1896 0acb 38       		.byte	0x38
 1897 0acc 08       		.uleb128 0x8
 1898 0acd 18020000 		.4byte	.LASF157
 1899 0ad1 13       		.byte	0x13
 1900 0ad2 93       		.byte	0x93
 1901 0ad3 1D       		.byte	0x1d
 1902 0ad4 2C000000 		.4byte	0x2c
 1903 0ad8 3C       		.byte	0x3c
 1904 0ad9 00       		.byte	0
 1905 0ada 03       		.uleb128 0x3
 1906 0adb 42060000 		.4byte	.LASF158
 1907 0adf 13       		.byte	0x13
 1908 0ae0 42       		.byte	0x42
 1909 0ae1 12       		.byte	0x12
 1910 0ae2 D5000000 		.4byte	0xd5
 1911 0ae6 03       		.uleb128 0x3
 1912 0ae7 CC010000 		.4byte	.LASF159
 1913 0aeb 13       		.byte	0x13
 1914 0aec 48       		.byte	0x48
 1915 0aed 12       		.byte	0x12
 1916 0aee BD000000 		.4byte	0xbd
 1917 0af2 0B       		.uleb128 0xb
 1918 0af3 04       		.byte	0x4
 1919 0af4 170A0000 		.4byte	0xa17
 1920 0af8 0A       		.uleb128 0xa
 1921 0af9 04       		.byte	0x4
 1922 0afa 13       		.byte	0x13
 1923 0afb 57       		.byte	0x57
 1924 0afc 09       		.byte	0x9
 1925 0afd 0F0B0000 		.4byte	0xb0f
 1926 0b01 08       		.uleb128 0x8
 1927 0b02 51050000 		.4byte	.LASF160
 1928 0b06 13       		.byte	0x13
 1929 0b07 59       		.byte	0x59
 1930 0b08 1D       		.byte	0x1d
 1931 0b09 D5000000 		.4byte	0xd5
 1932 0b0d 00       		.byte	0
 1933 0b0e 00       		.byte	0
 1934 0b0f 03       		.uleb128 0x3
 1935 0b10 57080000 		.4byte	.LASF161
 1936 0b14 13       		.byte	0x13
 1937 0b15 5B       		.byte	0x5b
 1938 0b16 03       		.byte	0x3
ARM GAS  /var/folders/l5/0x54b2c10074c8bt31ycjvl80000gp/T//ccnMGHS5.s 			page 35


 1939 0b17 F80A0000 		.4byte	0xaf8
 1940 0b1b 06       		.uleb128 0x6
 1941 0b1c 0F0B0000 		.4byte	0xb0f
 1942 0b20 0B       		.uleb128 0xb
 1943 0b21 04       		.byte	0x4
 1944 0b22 1B0B0000 		.4byte	0xb1b
 1945 0b26 0B       		.uleb128 0xb
 1946 0b27 04       		.byte	0x4
 1947 0b28 A6080000 		.4byte	0x8a6
 1948 0b2c 0F       		.uleb128 0xf
 1949 0b2d E9020000 		.4byte	.LASF162
 1950 0b31 13       		.byte	0x13
 1951 0b32 A6       		.byte	0xa6
 1952 0b33 12       		.byte	0x12
 1953 0b34 170A0000 		.4byte	0xa17
 1954 0b38 18       		.uleb128 0x18
 1955 0b39 07       		.byte	0x7
 1956 0b3a 01       		.byte	0x1
 1957 0b3b 57000000 		.4byte	0x57
 1958 0b3f 14       		.byte	0x14
 1959 0b40 5D       		.byte	0x5d
 1960 0b41 0E       		.byte	0xe
 1961 0b42 590B0000 		.4byte	0xb59
 1962 0b46 19       		.uleb128 0x19
 1963 0b47 29070000 		.4byte	.LASF163
 1964 0b4b 00       		.byte	0
 1965 0b4c 19       		.uleb128 0x19
 1966 0b4d 5F010000 		.4byte	.LASF164
 1967 0b51 01       		.byte	0x1
 1968 0b52 19       		.uleb128 0x19
 1969 0b53 1C080000 		.4byte	.LASF165
 1970 0b57 02       		.byte	0x2
 1971 0b58 00       		.byte	0
 1972 0b59 03       		.uleb128 0x3
 1973 0b5a 61080000 		.4byte	.LASF166
 1974 0b5e 14       		.byte	0x14
 1975 0b5f 61       		.byte	0x61
 1976 0b60 03       		.byte	0x3
 1977 0b61 380B0000 		.4byte	0xb38
 1978 0b65 03       		.uleb128 0x3
 1979 0b66 5D070000 		.4byte	.LASF167
 1980 0b6a 14       		.byte	0x14
 1981 0b6b 66       		.byte	0x66
 1982 0b6c 1D       		.byte	0x1d
 1983 0b6d 710B0000 		.4byte	0xb71
 1984 0b71 07       		.uleb128 0x7
 1985 0b72 5D070000 		.4byte	.LASF167
 1986 0b76 74       		.byte	0x74
 1987 0b77 14       		.byte	0x14
 1988 0b78 80       		.byte	0x80
 1989 0b79 08       		.byte	0x8
 1990 0b7a D80B0000 		.4byte	0xbd8
 1991 0b7e 09       		.uleb128 0x9
 1992 0b7f 766D7400 		.ascii	"vmt\000"
 1993 0b83 14       		.byte	0x14
 1994 0b84 82       		.byte	0x82
 1995 0b85 21       		.byte	0x21
ARM GAS  /var/folders/l5/0x54b2c10074c8bt31ycjvl80000gp/T//ccnMGHS5.s 			page 36


 1996 0b86 5F0C0000 		.4byte	0xc5f
 1997 0b8a 00       		.byte	0
 1998 0b8b 08       		.uleb128 0x8
 1999 0b8c 79030000 		.4byte	.LASF168
 2000 0b90 14       		.byte	0x14
 2001 0b91 83       		.byte	0x83
 2002 0b92 03       		.byte	0x3
 2003 0b93 59050000 		.4byte	0x559
 2004 0b97 04       		.byte	0x4
 2005 0b98 08       		.uleb128 0x8
 2006 0b99 D6010000 		.4byte	.LASF145
 2007 0b9d 14       		.byte	0x14
 2008 0b9e 83       		.byte	0x83
 2009 0b9f 03       		.byte	0x3
 2010 0ba0 590B0000 		.4byte	0xb59
 2011 0ba4 08       		.byte	0x8
 2012 0ba5 08       		.uleb128 0x8
 2013 0ba6 2C030000 		.4byte	.LASF169
 2014 0baa 14       		.byte	0x14
 2015 0bab 83       		.byte	0x83
 2016 0bac 03       		.byte	0x3
 2017 0bad 98070000 		.4byte	0x798
 2018 0bb1 0C       		.byte	0xc
 2019 0bb2 08       		.uleb128 0x8
 2020 0bb3 B2030000 		.4byte	.LASF170
 2021 0bb7 14       		.byte	0x14
 2022 0bb8 83       		.byte	0x83
 2023 0bb9 03       		.byte	0x3
 2024 0bba A4070000 		.4byte	0x7a4
 2025 0bbe 30       		.byte	0x30
 2026 0bbf 09       		.uleb128 0x9
 2027 0bc0 696200   		.ascii	"ib\000"
 2028 0bc3 14       		.byte	0x14
 2029 0bc4 83       		.byte	0x83
 2030 0bc5 03       		.byte	0x3
 2031 0bc6 650C0000 		.4byte	0xc65
 2032 0bca 54       		.byte	0x54
 2033 0bcb 09       		.uleb128 0x9
 2034 0bcc 6F6200   		.ascii	"ob\000"
 2035 0bcf 14       		.byte	0x14
 2036 0bd0 83       		.byte	0x83
 2037 0bd1 03       		.byte	0x3
 2038 0bd2 650C0000 		.4byte	0xc65
 2039 0bd6 64       		.byte	0x64
 2040 0bd7 00       		.byte	0
 2041 0bd8 1A       		.uleb128 0x1a
 2042 0bd9 53443100 		.ascii	"SD1\000"
 2043 0bdd 17       		.byte	0x17
 2044 0bde 62       		.byte	0x62
 2045 0bdf 15       		.byte	0x15
 2046 0be0 650B0000 		.4byte	0xb65
 2047 0be4 07       		.uleb128 0x7
 2048 0be5 15030000 		.4byte	.LASF171
 2049 0be9 20       		.byte	0x20
 2050 0bea 14       		.byte	0x14
 2051 0beb 75       		.byte	0x75
 2052 0bec 08       		.byte	0x8
ARM GAS  /var/folders/l5/0x54b2c10074c8bt31ycjvl80000gp/T//ccnMGHS5.s 			page 37


 2053 0bed 5A0C0000 		.4byte	0xc5a
 2054 0bf1 08       		.uleb128 0x8
 2055 0bf2 21000000 		.4byte	.LASF172
 2056 0bf6 14       		.byte	0x14
 2057 0bf7 76       		.byte	0x76
 2058 0bf8 03       		.byte	0x3
 2059 0bf9 CF070000 		.4byte	0x7cf
 2060 0bfd 00       		.byte	0
 2061 0bfe 08       		.uleb128 0x8
 2062 0bff 78070000 		.4byte	.LASF173
 2063 0c03 14       		.byte	0x14
 2064 0c04 76       		.byte	0x76
 2065 0c05 03       		.byte	0x3
 2066 0c06 EE070000 		.4byte	0x7ee
 2067 0c0a 04       		.byte	0x4
 2068 0c0b 09       		.uleb128 0x9
 2069 0c0c 70757400 		.ascii	"put\000"
 2070 0c10 14       		.byte	0x14
 2071 0c11 76       		.byte	0x76
 2072 0c12 03       		.byte	0x3
 2073 0c13 08080000 		.4byte	0x808
 2074 0c17 08       		.byte	0x8
 2075 0c18 09       		.uleb128 0x9
 2076 0c19 67657400 		.ascii	"get\000"
 2077 0c1d 14       		.byte	0x14
 2078 0c1e 76       		.byte	0x76
 2079 0c1f 03       		.byte	0x3
 2080 0c20 B7050000 		.4byte	0x5b7
 2081 0c24 0C       		.byte	0xc
 2082 0c25 08       		.uleb128 0x8
 2083 0c26 10050000 		.4byte	.LASF174
 2084 0c2a 14       		.byte	0x14
 2085 0c2b 76       		.byte	0x76
 2086 0c2c 03       		.byte	0x3
 2087 0c2d CC080000 		.4byte	0x8cc
 2088 0c31 10       		.byte	0x10
 2089 0c32 08       		.uleb128 0x8
 2090 0c33 56030000 		.4byte	.LASF175
 2091 0c37 14       		.byte	0x14
 2092 0c38 76       		.byte	0x76
 2093 0c39 03       		.byte	0x3
 2094 0c3a E6080000 		.4byte	0x8e6
 2095 0c3e 14       		.byte	0x14
 2096 0c3f 08       		.uleb128 0x8
 2097 0c40 99040000 		.4byte	.LASF176
 2098 0c44 14       		.byte	0x14
 2099 0c45 76       		.byte	0x76
 2100 0c46 03       		.byte	0x3
 2101 0c47 0A090000 		.4byte	0x90a
 2102 0c4b 18       		.byte	0x18
 2103 0c4c 08       		.uleb128 0x8
 2104 0c4d F1000000 		.4byte	.LASF177
 2105 0c51 14       		.byte	0x14
 2106 0c52 76       		.byte	0x76
 2107 0c53 03       		.byte	0x3
 2108 0c54 2E090000 		.4byte	0x92e
 2109 0c58 1C       		.byte	0x1c
ARM GAS  /var/folders/l5/0x54b2c10074c8bt31ycjvl80000gp/T//ccnMGHS5.s 			page 38


 2110 0c59 00       		.byte	0
 2111 0c5a 06       		.uleb128 0x6
 2112 0c5b E40B0000 		.4byte	0xbe4
 2113 0c5f 0B       		.uleb128 0xb
 2114 0c60 04       		.byte	0x4
 2115 0c61 5A0C0000 		.4byte	0xc5a
 2116 0c65 13       		.uleb128 0x13
 2117 0c66 AC000000 		.4byte	0xac
 2118 0c6a 750C0000 		.4byte	0xc75
 2119 0c6e 14       		.uleb128 0x14
 2120 0c6f 38000000 		.4byte	0x38
 2121 0c73 0F       		.byte	0xf
 2122 0c74 00       		.byte	0
 2123 0c75 18       		.uleb128 0x18
 2124 0c76 07       		.byte	0x7
 2125 0c77 01       		.byte	0x1
 2126 0c78 57000000 		.4byte	0x57
 2127 0c7c 15       		.byte	0x15
 2128 0c7d 4E       		.byte	0x4e
 2129 0c7e 0E       		.byte	0xe
 2130 0c7f A20C0000 		.4byte	0xca2
 2131 0c83 19       		.uleb128 0x19
 2132 0c84 2F080000 		.4byte	.LASF178
 2133 0c88 00       		.byte	0
 2134 0c89 19       		.uleb128 0x19
 2135 0c8a 32010000 		.4byte	.LASF179
 2136 0c8e 01       		.byte	0x1
 2137 0c8f 19       		.uleb128 0x19
 2138 0c90 25080000 		.4byte	.LASF180
 2139 0c94 02       		.byte	0x2
 2140 0c95 19       		.uleb128 0x19
 2141 0c96 3D000000 		.4byte	.LASF181
 2142 0c9a 03       		.byte	0x3
 2143 0c9b 19       		.uleb128 0x19
 2144 0c9c 82070000 		.4byte	.LASF182
 2145 0ca0 04       		.byte	0x4
 2146 0ca1 00       		.byte	0
 2147 0ca2 03       		.uleb128 0x3
 2148 0ca3 A1070000 		.4byte	.LASF183
 2149 0ca7 15       		.byte	0x15
 2150 0ca8 54       		.byte	0x54
 2151 0ca9 03       		.byte	0x3
 2152 0caa 750C0000 		.4byte	0xc75
 2153 0cae 03       		.uleb128 0x3
 2154 0caf C5000000 		.4byte	.LASF184
 2155 0cb3 16       		.byte	0x16
 2156 0cb4 35       		.byte	0x35
 2157 0cb5 1A       		.byte	0x1a
 2158 0cb6 BA0C0000 		.4byte	0xcba
 2159 0cba 07       		.uleb128 0x7
 2160 0cbb C5000000 		.4byte	.LASF184
 2161 0cbf 28       		.byte	0x28
 2162 0cc0 16       		.byte	0x16
 2163 0cc1 7C       		.byte	0x7c
 2164 0cc2 08       		.byte	0x8
 2165 0cc3 230D0000 		.4byte	0xd23
 2166 0cc7 08       		.uleb128 0x8
ARM GAS  /var/folders/l5/0x54b2c10074c8bt31ycjvl80000gp/T//ccnMGHS5.s 			page 39


 2167 0cc8 D6010000 		.4byte	.LASF145
 2168 0ccc 16       		.byte	0x16
 2169 0ccd 80       		.byte	0x80
 2170 0cce 19       		.byte	0x19
 2171 0ccf A20C0000 		.4byte	0xca2
 2172 0cd3 00       		.byte	0
 2173 0cd4 08       		.uleb128 0x8
 2174 0cd5 8F070000 		.4byte	.LASF146
 2175 0cd9 16       		.byte	0x16
 2176 0cda 84       		.byte	0x84
 2177 0cdb 1A       		.byte	0x1a
 2178 0cdc D60D0000 		.4byte	0xdd6
 2179 0ce0 04       		.byte	0x4
 2180 0ce1 08       		.uleb128 0x8
 2181 0ce2 07020000 		.4byte	.LASF150
 2182 0ce6 16       		.byte	0x16
 2183 0ce7 89       		.byte	0x89
 2184 0ce8 1A       		.byte	0x1a
 2185 0ce9 73020000 		.4byte	0x273
 2186 0ced 08       		.byte	0x8
 2187 0cee 08       		.uleb128 0x8
 2188 0cef 4D060000 		.4byte	.LASF149
 2189 0cf3 16       		.byte	0x16
 2190 0cf4 90       		.byte	0x90
 2191 0cf5 19       		.byte	0x19
 2192 0cf6 DE040000 		.4byte	0x4de
 2193 0cfa 0C       		.byte	0xc
 2194 0cfb 08       		.uleb128 0x8
 2195 0cfc 5B000000 		.4byte	.LASF155
 2196 0d00 16       		.byte	0x16
 2197 0d01 98       		.byte	0x98
 2198 0d02 1A       		.byte	0x1a
 2199 0d03 C0020000 		.4byte	0x2c0
 2200 0d07 1C       		.byte	0x1c
 2201 0d08 08       		.uleb128 0x8
 2202 0d09 0F030000 		.4byte	.LASF152
 2203 0d0d 16       		.byte	0x16
 2204 0d0e 9D       		.byte	0x9d
 2205 0d0f 1A       		.byte	0x1a
 2206 0d10 DC0D0000 		.4byte	0xddc
 2207 0d14 20       		.byte	0x20
 2208 0d15 08       		.uleb128 0x8
 2209 0d16 78020000 		.4byte	.LASF185
 2210 0d1a 16       		.byte	0x16
 2211 0d1b A2       		.byte	0xa2
 2212 0d1c 17       		.byte	0x17
 2213 0d1d 2C000000 		.4byte	0x2c
 2214 0d21 24       		.byte	0x24
 2215 0d22 00       		.byte	0
 2216 0d23 03       		.uleb128 0x3
 2217 0d24 DB020000 		.4byte	.LASF186
 2218 0d28 16       		.byte	0x16
 2219 0d29 3D       		.byte	0x3d
 2220 0d2a 10       		.byte	0x10
 2221 0d2b 2F0D0000 		.4byte	0xd2f
 2222 0d2f 0B       		.uleb128 0xb
 2223 0d30 04       		.byte	0x4
ARM GAS  /var/folders/l5/0x54b2c10074c8bt31ycjvl80000gp/T//ccnMGHS5.s 			page 40


 2224 0d31 350D0000 		.4byte	0xd35
 2225 0d35 0D       		.uleb128 0xd
 2226 0d36 400D0000 		.4byte	0xd40
 2227 0d3a 0E       		.uleb128 0xe
 2228 0d3b 400D0000 		.4byte	0xd40
 2229 0d3f 00       		.byte	0
 2230 0d40 0B       		.uleb128 0xb
 2231 0d41 04       		.byte	0x4
 2232 0d42 AE0C0000 		.4byte	0xcae
 2233 0d46 0A       		.uleb128 0xa
 2234 0d47 10       		.byte	0x10
 2235 0d48 16       		.byte	0x16
 2236 0d49 44       		.byte	0x44
 2237 0d4a 09       		.byte	0x9
 2238 0d4b C50D0000 		.4byte	0xdc5
 2239 0d4f 08       		.uleb128 0x8
 2240 0d50 71020000 		.4byte	.LASF187
 2241 0d54 16       		.byte	0x16
 2242 0d55 48       		.byte	0x48
 2243 0d56 19       		.byte	0x19
 2244 0d57 230D0000 		.4byte	0xd23
 2245 0d5b 00       		.byte	0
 2246 0d5c 08       		.uleb128 0x8
 2247 0d5d DC050000 		.4byte	.LASF188
 2248 0d61 16       		.byte	0x16
 2249 0d62 4F       		.byte	0x4f
 2250 0d63 19       		.byte	0x19
 2251 0d64 AC000000 		.4byte	0xac
 2252 0d68 04       		.byte	0x4
 2253 0d69 08       		.uleb128 0x8
 2254 0d6a E9050000 		.4byte	.LASF189
 2255 0d6e 16       		.byte	0x16
 2256 0d6f 52       		.byte	0x52
 2257 0d70 19       		.byte	0x19
 2258 0d71 AC000000 		.4byte	0xac
 2259 0d75 05       		.byte	0x5
 2260 0d76 08       		.uleb128 0x8
 2261 0d77 64030000 		.4byte	.LASF190
 2262 0d7b 16       		.byte	0x16
 2263 0d7c 58       		.byte	0x58
 2264 0d7d 19       		.byte	0x19
 2265 0d7e AC000000 		.4byte	0xac
 2266 0d82 06       		.byte	0x6
 2267 0d83 08       		.uleb128 0x8
 2268 0d84 7E020000 		.4byte	.LASF191
 2269 0d88 16       		.byte	0x16
 2270 0d89 5E       		.byte	0x5e
 2271 0d8a 19       		.byte	0x19
 2272 0d8b AC000000 		.4byte	0xac
 2273 0d8f 07       		.byte	0x7
 2274 0d90 08       		.uleb128 0x8
 2275 0d91 94020000 		.4byte	.LASF192
 2276 0d95 16       		.byte	0x16
 2277 0d96 64       		.byte	0x64
 2278 0d97 19       		.byte	0x19
 2279 0d98 AC000000 		.4byte	0xac
 2280 0d9c 08       		.byte	0x8
ARM GAS  /var/folders/l5/0x54b2c10074c8bt31ycjvl80000gp/T//ccnMGHS5.s 			page 41


 2281 0d9d 08       		.uleb128 0x8
 2282 0d9e ED070000 		.4byte	.LASF193
 2283 0da2 16       		.byte	0x16
 2284 0da3 6A       		.byte	0x6a
 2285 0da4 19       		.byte	0x19
 2286 0da5 AC000000 		.4byte	0xac
 2287 0da9 09       		.byte	0x9
 2288 0daa 08       		.uleb128 0x8
 2289 0dab 4D020000 		.4byte	.LASF194
 2290 0daf 16       		.byte	0x16
 2291 0db0 70       		.byte	0x70
 2292 0db1 19       		.byte	0x19
 2293 0db2 AC000000 		.4byte	0xac
 2294 0db6 0A       		.byte	0xa
 2295 0db7 08       		.uleb128 0x8
 2296 0db8 F8060000 		.4byte	.LASF195
 2297 0dbc 16       		.byte	0x16
 2298 0dbd 73       		.byte	0x73
 2299 0dbe 19       		.byte	0x19
 2300 0dbf D5000000 		.4byte	0xd5
 2301 0dc3 0C       		.byte	0xc
 2302 0dc4 00       		.byte	0
 2303 0dc5 03       		.uleb128 0x3
 2304 0dc6 05090000 		.4byte	.LASF196
 2305 0dca 16       		.byte	0x16
 2306 0dcb 75       		.byte	0x75
 2307 0dcc 03       		.byte	0x3
 2308 0dcd 460D0000 		.4byte	0xd46
 2309 0dd1 06       		.uleb128 0x6
 2310 0dd2 C50D0000 		.4byte	0xdc5
 2311 0dd6 0B       		.uleb128 0xb
 2312 0dd7 04       		.byte	0x4
 2313 0dd8 D10D0000 		.4byte	0xdd1
 2314 0ddc 0B       		.uleb128 0xb
 2315 0ddd 04       		.byte	0x4
 2316 0dde E20D0000 		.4byte	0xde2
 2317 0de2 1B       		.uleb128 0x1b
 2318 0de3 0F       		.uleb128 0xf
 2319 0de4 30020000 		.4byte	.LASF197
 2320 0de8 16       		.byte	0x16
 2321 0de9 B6       		.byte	0xb6
 2322 0dea 14       		.byte	0x14
 2323 0deb AE0C0000 		.4byte	0xcae
 2324 0def 1C       		.uleb128 0x1c
 2325 0df0 B7000000 		.4byte	.LASF198
 2326 0df4 01       		.byte	0x1
 2327 0df5 2101     		.2byte	0x121
 2328 0df7 06       		.byte	0x6
 2329 0df8 00000000 		.4byte	.LFB15
 2330 0dfc 04000000 		.4byte	.LFE15-.LFB15
 2331 0e00 01       		.uleb128 0x1
 2332 0e01 9C       		.byte	0x9c
 2333 0e02 250E0000 		.4byte	0xe25
 2334 0e06 1D       		.uleb128 0x1d
 2335 0e07 CF000000 		.4byte	.LASF200
 2336 0e0b 01       		.byte	0x1
 2337 0e0c 2101     		.2byte	0x121
ARM GAS  /var/folders/l5/0x54b2c10074c8bt31ycjvl80000gp/T//ccnMGHS5.s 			page 42


 2338 0e0e 1F       		.byte	0x1f
 2339 0e0f F20A0000 		.4byte	0xaf2
 2340 0e13 04000000 		.4byte	.LLST16
 2341 0e17 00000000 		.4byte	.LVUS16
 2342 0e1b 1E       		.uleb128 0x1e
 2343 0e1c 04000000 		.4byte	.LVL18
 2344 0e20 FB100000 		.4byte	0x10fb
 2345 0e24 00       		.byte	0
 2346 0e25 1C       		.uleb128 0x1c
 2347 0e26 24060000 		.4byte	.LASF199
 2348 0e2a 01       		.byte	0x1
 2349 0e2b 0D01     		.2byte	0x10d
 2350 0e2d 06       		.byte	0x6
 2351 0e2e 00000000 		.4byte	.LFB14
 2352 0e32 08000000 		.4byte	.LFE14-.LFB14
 2353 0e36 01       		.uleb128 0x1
 2354 0e37 9C       		.byte	0x9c
 2355 0e38 650E0000 		.4byte	0xe65
 2356 0e3c 1D       		.uleb128 0x1d
 2357 0e3d CF000000 		.4byte	.LASF200
 2358 0e41 01       		.byte	0x1
 2359 0e42 0D01     		.2byte	0x10d
 2360 0e44 1F       		.byte	0x1f
 2361 0e45 F20A0000 		.4byte	0xaf2
 2362 0e49 2B000000 		.4byte	.LLST15
 2363 0e4d 25000000 		.4byte	.LVUS15
 2364 0e51 1F       		.uleb128 0x1f
 2365 0e52 08000000 		.4byte	.LVL16
 2366 0e56 07110000 		.4byte	0x1107
 2367 0e5a 20       		.uleb128 0x20
 2368 0e5b 01       		.uleb128 0x1
 2369 0e5c 50       		.byte	0x50
 2370 0e5d 05       		.uleb128 0x5
 2371 0e5e F3       		.byte	0xf3
 2372 0e5f 01       		.uleb128 0x1
 2373 0e60 50       		.byte	0x50
 2374 0e61 23       		.byte	0x23
 2375 0e62 10       		.uleb128 0x10
 2376 0e63 00       		.byte	0
 2377 0e64 00       		.byte	0
 2378 0e65 21       		.uleb128 0x21
 2379 0e66 BE080000 		.4byte	.LASF201
 2380 0e6a 01       		.byte	0x1
 2381 0e6b E5       		.byte	0xe5
 2382 0e6c 07       		.byte	0x7
 2383 0e6d 16010000 		.4byte	0x116
 2384 0e71 00000000 		.4byte	.LFB13
 2385 0e75 48000000 		.4byte	.LFE13-.LFB13
 2386 0e79 01       		.uleb128 0x1
 2387 0e7a 9C       		.byte	0x9c
 2388 0e7b 110F0000 		.4byte	0xf11
 2389 0e7f 22       		.uleb128 0x22
 2390 0e80 CF000000 		.4byte	.LASF200
 2391 0e84 01       		.byte	0x1
 2392 0e85 E5       		.byte	0xe5
 2393 0e86 2A       		.byte	0x2a
 2394 0e87 F20A0000 		.4byte	0xaf2
ARM GAS  /var/folders/l5/0x54b2c10074c8bt31ycjvl80000gp/T//ccnMGHS5.s 			page 43


 2395 0e8b 5D000000 		.4byte	.LLST10
 2396 0e8f 59000000 		.4byte	.LVUS10
 2397 0e93 22       		.uleb128 0x22
 2398 0e94 8E010000 		.4byte	.LASF151
 2399 0e98 01       		.byte	0x1
 2400 0e99 E6       		.byte	0xe6
 2401 0e9a 29       		.byte	0x29
 2402 0e9b E60A0000 		.4byte	0xae6
 2403 0e9f 7F000000 		.4byte	.LLST11
 2404 0ea3 7B000000 		.4byte	.LVUS11
 2405 0ea7 22       		.uleb128 0x22
 2406 0ea8 5B000000 		.4byte	.LASF155
 2407 0eac 01       		.byte	0x1
 2408 0ead E7       		.byte	0xe7
 2409 0eae 28       		.byte	0x28
 2410 0eaf 92070000 		.4byte	0x792
 2411 0eb3 A4000000 		.4byte	.LLST12
 2412 0eb7 A0000000 		.4byte	.LVUS12
 2413 0ebb 22       		.uleb128 0x22
 2414 0ebc 78050000 		.4byte	.LASF156
 2415 0ec0 01       		.byte	0x1
 2416 0ec1 E8       		.byte	0xe8
 2417 0ec2 26       		.byte	0x26
 2418 0ec3 2C000000 		.4byte	0x2c
 2419 0ec7 C9000000 		.4byte	.LLST13
 2420 0ecb C5000000 		.4byte	.LVUS13
 2421 0ecf 23       		.uleb128 0x23
 2422 0ed0 4E030000 		.4byte	.LASF203
 2423 0ed4 01       		.byte	0x1
 2424 0ed5 E9       		.byte	0xe9
 2425 0ed6 29       		.byte	0x29
 2426 0ed7 3A010000 		.4byte	0x13a
 2427 0edb 02       		.uleb128 0x2
 2428 0edc 91       		.byte	0x91
 2429 0edd 00       		.sleb128 0
 2430 0ede 24       		.uleb128 0x24
 2431 0edf 1A000000 		.4byte	.LASF79
 2432 0ee3 01       		.byte	0x1
 2433 0ee4 EB       		.byte	0xeb
 2434 0ee5 09       		.byte	0x9
 2435 0ee6 16010000 		.4byte	0x116
 2436 0eea EC000000 		.4byte	.LLST14
 2437 0eee EA000000 		.4byte	.LVUS14
 2438 0ef2 25       		.uleb128 0x25
 2439 0ef3 2C000000 		.4byte	.LVL13
 2440 0ef7 13110000 		.4byte	0x1113
 2441 0efb 20       		.uleb128 0x20
 2442 0efc 01       		.uleb128 0x1
 2443 0efd 50       		.byte	0x50
 2444 0efe 02       		.uleb128 0x2
 2445 0eff 74       		.byte	0x74
 2446 0f00 00       		.sleb128 0
 2447 0f01 20       		.uleb128 0x20
 2448 0f02 01       		.uleb128 0x1
 2449 0f03 52       		.byte	0x52
 2450 0f04 03       		.uleb128 0x3
 2451 0f05 F3       		.byte	0xf3
ARM GAS  /var/folders/l5/0x54b2c10074c8bt31ycjvl80000gp/T//ccnMGHS5.s 			page 44


 2452 0f06 01       		.uleb128 0x1
 2453 0f07 52       		.byte	0x52
 2454 0f08 20       		.uleb128 0x20
 2455 0f09 01       		.uleb128 0x1
 2456 0f0a 53       		.byte	0x53
 2457 0f0b 03       		.uleb128 0x3
 2458 0f0c F3       		.byte	0xf3
 2459 0f0d 01       		.uleb128 0x1
 2460 0f0e 53       		.byte	0x53
 2461 0f0f 00       		.byte	0
 2462 0f10 00       		.byte	0
 2463 0f11 21       		.uleb128 0x21
 2464 0f12 E5010000 		.4byte	.LASF202
 2465 0f16 01       		.byte	0x1
 2466 0f17 B2       		.byte	0xb2
 2467 0f18 07       		.byte	0x7
 2468 0f19 16010000 		.4byte	0x116
 2469 0f1d 00000000 		.4byte	.LFB12
 2470 0f21 5C000000 		.4byte	.LFE12-.LFB12
 2471 0f25 01       		.uleb128 0x1
 2472 0f26 9C       		.byte	0x9c
 2473 0f27 E40F0000 		.4byte	0xfe4
 2474 0f2b 22       		.uleb128 0x22
 2475 0f2c CF000000 		.4byte	.LASF200
 2476 0f30 01       		.byte	0x1
 2477 0f31 B2       		.byte	0xb2
 2478 0f32 2B       		.byte	0x2b
 2479 0f33 F20A0000 		.4byte	0xaf2
 2480 0f37 03010000 		.4byte	.LLST5
 2481 0f3b FF000000 		.4byte	.LVUS5
 2482 0f3f 22       		.uleb128 0x22
 2483 0f40 8E010000 		.4byte	.LASF151
 2484 0f44 01       		.byte	0x1
 2485 0f45 B3       		.byte	0xb3
 2486 0f46 2A       		.byte	0x2a
 2487 0f47 E60A0000 		.4byte	0xae6
 2488 0f4b 25010000 		.4byte	.LLST6
 2489 0f4f 21010000 		.4byte	.LVUS6
 2490 0f53 22       		.uleb128 0x22
 2491 0f54 0F030000 		.4byte	.LASF152
 2492 0f58 01       		.byte	0x1
 2493 0f59 B4       		.byte	0xb4
 2494 0f5a 2F       		.byte	0x2f
 2495 0f5b C9070000 		.4byte	0x7c9
 2496 0f5f 4A010000 		.4byte	.LLST7
 2497 0f63 46010000 		.4byte	.LVUS7
 2498 0f67 22       		.uleb128 0x22
 2499 0f68 B8090000 		.4byte	.LASF153
 2500 0f6c 01       		.byte	0x1
 2501 0f6d B5       		.byte	0xb5
 2502 0f6e 27       		.byte	0x27
 2503 0f6f 2C000000 		.4byte	0x2c
 2504 0f73 6F010000 		.4byte	.LLST8
 2505 0f77 6B010000 		.4byte	.LVUS8
 2506 0f7b 23       		.uleb128 0x23
 2507 0f7c 5B000000 		.4byte	.LASF155
 2508 0f80 01       		.byte	0x1
ARM GAS  /var/folders/l5/0x54b2c10074c8bt31ycjvl80000gp/T//ccnMGHS5.s 			page 45


 2509 0f81 B6       		.byte	0xb6
 2510 0f82 29       		.byte	0x29
 2511 0f83 92070000 		.4byte	0x792
 2512 0f87 02       		.uleb128 0x2
 2513 0f88 91       		.byte	0x91
 2514 0f89 00       		.sleb128 0
 2515 0f8a 23       		.uleb128 0x23
 2516 0f8b 78050000 		.4byte	.LASF156
 2517 0f8f 01       		.byte	0x1
 2518 0f90 B7       		.byte	0xb7
 2519 0f91 27       		.byte	0x27
 2520 0f92 2C000000 		.4byte	0x2c
 2521 0f96 02       		.uleb128 0x2
 2522 0f97 91       		.byte	0x91
 2523 0f98 04       		.sleb128 4
 2524 0f99 23       		.uleb128 0x23
 2525 0f9a 4E030000 		.4byte	.LASF203
 2526 0f9e 01       		.byte	0x1
 2527 0f9f B8       		.byte	0xb8
 2528 0fa0 2A       		.byte	0x2a
 2529 0fa1 3A010000 		.4byte	0x13a
 2530 0fa5 02       		.uleb128 0x2
 2531 0fa6 91       		.byte	0x91
 2532 0fa7 08       		.sleb128 8
 2533 0fa8 24       		.uleb128 0x24
 2534 0fa9 1A000000 		.4byte	.LASF79
 2535 0fad 01       		.byte	0x1
 2536 0fae B9       		.byte	0xb9
 2537 0faf 09       		.byte	0x9
 2538 0fb0 16010000 		.4byte	0x116
 2539 0fb4 92010000 		.4byte	.LLST9
 2540 0fb8 90010000 		.4byte	.LVUS9
 2541 0fbc 25       		.uleb128 0x25
 2542 0fbd 40000000 		.4byte	.LVL11
 2543 0fc1 1F110000 		.4byte	0x111f
 2544 0fc5 20       		.uleb128 0x20
 2545 0fc6 01       		.uleb128 0x1
 2546 0fc7 50       		.byte	0x50
 2547 0fc8 02       		.uleb128 0x2
 2548 0fc9 74       		.byte	0x74
 2549 0fca 00       		.sleb128 0
 2550 0fcb 20       		.uleb128 0x20
 2551 0fcc 01       		.uleb128 0x1
 2552 0fcd 52       		.byte	0x52
 2553 0fce 03       		.uleb128 0x3
 2554 0fcf F3       		.byte	0xf3
 2555 0fd0 01       		.uleb128 0x1
 2556 0fd1 52       		.byte	0x52
 2557 0fd2 20       		.uleb128 0x20
 2558 0fd3 01       		.uleb128 0x1
 2559 0fd4 53       		.byte	0x53
 2560 0fd5 03       		.uleb128 0x3
 2561 0fd6 F3       		.byte	0xf3
 2562 0fd7 01       		.uleb128 0x1
 2563 0fd8 53       		.byte	0x53
 2564 0fd9 20       		.uleb128 0x20
 2565 0fda 02       		.uleb128 0x2
ARM GAS  /var/folders/l5/0x54b2c10074c8bt31ycjvl80000gp/T//ccnMGHS5.s 			page 46


 2566 0fdb 7D       		.byte	0x7d
 2567 0fdc 04       		.sleb128 4
 2568 0fdd 04       		.uleb128 0x4
 2569 0fde 91       		.byte	0x91
 2570 0fdf 7C       		.sleb128 -4
 2571 0fe0 94       		.byte	0x94
 2572 0fe1 01       		.byte	0x1
 2573 0fe2 00       		.byte	0
 2574 0fe3 00       		.byte	0
 2575 0fe4 21       		.uleb128 0x21
 2576 0fe5 AA000000 		.4byte	.LASF204
 2577 0fe9 01       		.byte	0x1
 2578 0fea 91       		.byte	0x91
 2579 0feb 0C       		.byte	0xc
 2580 0fec DA0A0000 		.4byte	0xada
 2581 0ff0 00000000 		.4byte	.LFB11
 2582 0ff4 08000000 		.4byte	.LFE11-.LFB11
 2583 0ff8 01       		.uleb128 0x1
 2584 0ff9 9C       		.byte	0x9c
 2585 0ffa 13100000 		.4byte	0x1013
 2586 0ffe 22       		.uleb128 0x22
 2587 0fff CF000000 		.4byte	.LASF200
 2588 1003 01       		.byte	0x1
 2589 1004 91       		.byte	0x91
 2590 1005 24       		.byte	0x24
 2591 1006 F20A0000 		.4byte	0xaf2
 2592 100a A9010000 		.4byte	.LLST4
 2593 100e A5010000 		.4byte	.LVUS4
 2594 1012 00       		.byte	0
 2595 1013 26       		.uleb128 0x26
 2596 1014 C5050000 		.4byte	.LASF205
 2597 1018 01       		.byte	0x1
 2598 1019 7B       		.byte	0x7b
 2599 101a 06       		.byte	0x6
 2600 101b 00000000 		.4byte	.LFB10
 2601 101f 20000000 		.4byte	.LFE10-.LFB10
 2602 1023 01       		.uleb128 0x1
 2603 1024 9C       		.byte	0x9c
 2604 1025 4E100000 		.4byte	0x104e
 2605 1029 22       		.uleb128 0x22
 2606 102a CF000000 		.4byte	.LASF200
 2607 102e 01       		.byte	0x1
 2608 102f 7B       		.byte	0x7b
 2609 1030 19       		.byte	0x19
 2610 1031 F20A0000 		.4byte	0xaf2
 2611 1035 CE010000 		.4byte	.LLST3
 2612 1039 CA010000 		.4byte	.LVUS3
 2613 103d 25       		.uleb128 0x25
 2614 103e 10000000 		.4byte	.LVL7
 2615 1042 2B110000 		.4byte	0x112b
 2616 1046 20       		.uleb128 0x20
 2617 1047 01       		.uleb128 0x1
 2618 1048 50       		.byte	0x50
 2619 1049 02       		.uleb128 0x2
 2620 104a 74       		.byte	0x74
 2621 104b 00       		.sleb128 0
 2622 104c 00       		.byte	0
ARM GAS  /var/folders/l5/0x54b2c10074c8bt31ycjvl80000gp/T//ccnMGHS5.s 			page 47


 2623 104d 00       		.byte	0
 2624 104e 26       		.uleb128 0x26
 2625 104f 98000000 		.4byte	.LASF206
 2626 1053 01       		.byte	0x1
 2627 1054 65       		.byte	0x65
 2628 1055 06       		.byte	0x6
 2629 1056 00000000 		.4byte	.LFB9
 2630 105a 24000000 		.4byte	.LFE9-.LFB9
 2631 105e 01       		.uleb128 0x1
 2632 105f 9C       		.byte	0x9c
 2633 1060 9D100000 		.4byte	0x109d
 2634 1064 22       		.uleb128 0x22
 2635 1065 CF000000 		.4byte	.LASF200
 2636 1069 01       		.byte	0x1
 2637 106a 65       		.byte	0x65
 2638 106b 1A       		.byte	0x1a
 2639 106c F20A0000 		.4byte	0xaf2
 2640 1070 F0010000 		.4byte	.LLST1
 2641 1074 EC010000 		.4byte	.LVUS1
 2642 1078 22       		.uleb128 0x22
 2643 1079 8F070000 		.4byte	.LASF146
 2644 107d 01       		.byte	0x1
 2645 107e 65       		.byte	0x65
 2646 107f 31       		.byte	0x31
 2647 1080 200B0000 		.4byte	0xb20
 2648 1084 12020000 		.4byte	.LLST2
 2649 1088 0E020000 		.4byte	.LVUS2
 2650 108c 25       		.uleb128 0x25
 2651 108d 14000000 		.4byte	.LVL5
 2652 1091 37110000 		.4byte	0x1137
 2653 1095 20       		.uleb128 0x20
 2654 1096 01       		.uleb128 0x1
 2655 1097 50       		.byte	0x50
 2656 1098 02       		.uleb128 0x2
 2657 1099 74       		.byte	0x74
 2658 109a 00       		.sleb128 0
 2659 109b 00       		.byte	0
 2660 109c 00       		.byte	0
 2661 109d 26       		.uleb128 0x26
 2662 109e FC070000 		.4byte	.LASF207
 2663 10a2 01       		.byte	0x1
 2664 10a3 4B       		.byte	0x4b
 2665 10a4 06       		.byte	0x6
 2666 10a5 00000000 		.4byte	.LFB8
 2667 10a9 18000000 		.4byte	.LFE8-.LFB8
 2668 10ad 01       		.uleb128 0x1
 2669 10ae 9C       		.byte	0x9c
 2670 10af DB100000 		.4byte	0x10db
 2671 10b3 22       		.uleb128 0x22
 2672 10b4 CF000000 		.4byte	.LASF200
 2673 10b8 01       		.byte	0x1
 2674 10b9 4B       		.byte	0x4b
 2675 10ba 1F       		.byte	0x1f
 2676 10bb F20A0000 		.4byte	0xaf2
 2677 10bf 39020000 		.4byte	.LLST0
 2678 10c3 33020000 		.4byte	.LVUS0
 2679 10c7 1F       		.uleb128 0x1f
ARM GAS  /var/folders/l5/0x54b2c10074c8bt31ycjvl80000gp/T//ccnMGHS5.s 			page 48


 2680 10c8 18000000 		.4byte	.LVL3
 2681 10cc 43110000 		.4byte	0x1143
 2682 10d0 20       		.uleb128 0x20
 2683 10d1 01       		.uleb128 0x1
 2684 10d2 50       		.byte	0x50
 2685 10d3 05       		.uleb128 0x5
 2686 10d4 F3       		.byte	0xf3
 2687 10d5 01       		.uleb128 0x1
 2688 10d6 50       		.byte	0x50
 2689 10d7 23       		.byte	0x23
 2690 10d8 10       		.uleb128 0x10
 2691 10d9 00       		.byte	0
 2692 10da 00       		.byte	0
 2693 10db 26       		.uleb128 0x26
 2694 10dc 0F090000 		.4byte	.LASF208
 2695 10e0 01       		.byte	0x1
 2696 10e1 40       		.byte	0x40
 2697 10e2 06       		.byte	0x6
 2698 10e3 00000000 		.4byte	.LFB7
 2699 10e7 04000000 		.4byte	.LFE7-.LFB7
 2700 10eb 01       		.uleb128 0x1
 2701 10ec 9C       		.byte	0x9c
 2702 10ed FB100000 		.4byte	0x10fb
 2703 10f1 1E       		.uleb128 0x1e
 2704 10f2 04000000 		.4byte	.LVL0
 2705 10f6 4F110000 		.4byte	0x114f
 2706 10fa 00       		.byte	0
 2707 10fb 27       		.uleb128 0x27
 2708 10fc 7E000000 		.4byte	.LASF209
 2709 1100 7E000000 		.4byte	.LASF209
 2710 1104 0B       		.byte	0xb
 2711 1105 36       		.byte	0x36
 2712 1106 0A       		.byte	0xa
 2713 1107 27       		.uleb128 0x27
 2714 1108 66050000 		.4byte	.LASF210
 2715 110c 66050000 		.4byte	.LASF210
 2716 1110 0B       		.byte	0xb
 2717 1111 32       		.byte	0x32
 2718 1112 08       		.byte	0x8
 2719 1113 27       		.uleb128 0x27
 2720 1114 6F010000 		.4byte	.LASF211
 2721 1118 6F010000 		.4byte	.LASF211
 2722 111c 13       		.byte	0x13
 2723 111d B4       		.byte	0xb4
 2724 111e 09       		.byte	0x9
 2725 111f 27       		.uleb128 0x27
 2726 1120 93010000 		.4byte	.LASF212
 2727 1124 93010000 		.4byte	.LASF212
 2728 1128 13       		.byte	0x13
 2729 1129 AF       		.byte	0xaf
 2730 112a 09       		.byte	0x9
 2731 112b 27       		.uleb128 0x27
 2732 112c E9040000 		.4byte	.LASF213
 2733 1130 E9040000 		.4byte	.LASF213
 2734 1134 13       		.byte	0x13
 2735 1135 AD       		.byte	0xad
 2736 1136 08       		.byte	0x8
ARM GAS  /var/folders/l5/0x54b2c10074c8bt31ycjvl80000gp/T//ccnMGHS5.s 			page 49


 2737 1137 27       		.uleb128 0x27
 2738 1138 53060000 		.4byte	.LASF214
 2739 113c 53060000 		.4byte	.LASF214
 2740 1140 13       		.byte	0x13
 2741 1141 AC       		.byte	0xac
 2742 1142 08       		.byte	0x8
 2743 1143 27       		.uleb128 0x27
 2744 1144 41080000 		.4byte	.LASF215
 2745 1148 41080000 		.4byte	.LASF215
 2746 114c 0B       		.byte	0xb
 2747 114d 31       		.byte	0x31
 2748 114e 08       		.byte	0x8
 2749 114f 27       		.uleb128 0x27
 2750 1150 7C080000 		.4byte	.LASF216
 2751 1154 7C080000 		.4byte	.LASF216
 2752 1158 13       		.byte	0x13
 2753 1159 AB       		.byte	0xab
 2754 115a 08       		.byte	0x8
 2755 115b 00       		.byte	0
 2756              		.section	.debug_abbrev,"",%progbits
 2757              	.Ldebug_abbrev0:
 2758 0000 01       		.uleb128 0x1
 2759 0001 11       		.uleb128 0x11
 2760 0002 01       		.byte	0x1
 2761 0003 25       		.uleb128 0x25
 2762 0004 0E       		.uleb128 0xe
 2763 0005 13       		.uleb128 0x13
 2764 0006 0B       		.uleb128 0xb
 2765 0007 03       		.uleb128 0x3
 2766 0008 0E       		.uleb128 0xe
 2767 0009 1B       		.uleb128 0x1b
 2768 000a 0E       		.uleb128 0xe
 2769 000b 55       		.uleb128 0x55
 2770 000c 17       		.uleb128 0x17
 2771 000d 11       		.uleb128 0x11
 2772 000e 01       		.uleb128 0x1
 2773 000f 10       		.uleb128 0x10
 2774 0010 17       		.uleb128 0x17
 2775 0011 00       		.byte	0
 2776 0012 00       		.byte	0
 2777 0013 02       		.uleb128 0x2
 2778 0014 24       		.uleb128 0x24
 2779 0015 00       		.byte	0
 2780 0016 0B       		.uleb128 0xb
 2781 0017 0B       		.uleb128 0xb
 2782 0018 3E       		.uleb128 0x3e
 2783 0019 0B       		.uleb128 0xb
 2784 001a 03       		.uleb128 0x3
 2785 001b 08       		.uleb128 0x8
 2786 001c 00       		.byte	0
 2787 001d 00       		.byte	0
 2788 001e 03       		.uleb128 0x3
 2789 001f 16       		.uleb128 0x16
 2790 0020 00       		.byte	0
 2791 0021 03       		.uleb128 0x3
 2792 0022 0E       		.uleb128 0xe
 2793 0023 3A       		.uleb128 0x3a
ARM GAS  /var/folders/l5/0x54b2c10074c8bt31ycjvl80000gp/T//ccnMGHS5.s 			page 50


 2794 0024 0B       		.uleb128 0xb
 2795 0025 3B       		.uleb128 0x3b
 2796 0026 0B       		.uleb128 0xb
 2797 0027 39       		.uleb128 0x39
 2798 0028 0B       		.uleb128 0xb
 2799 0029 49       		.uleb128 0x49
 2800 002a 13       		.uleb128 0x13
 2801 002b 00       		.byte	0
 2802 002c 00       		.byte	0
 2803 002d 04       		.uleb128 0x4
 2804 002e 24       		.uleb128 0x24
 2805 002f 00       		.byte	0
 2806 0030 0B       		.uleb128 0xb
 2807 0031 0B       		.uleb128 0xb
 2808 0032 3E       		.uleb128 0x3e
 2809 0033 0B       		.uleb128 0xb
 2810 0034 03       		.uleb128 0x3
 2811 0035 0E       		.uleb128 0xe
 2812 0036 00       		.byte	0
 2813 0037 00       		.byte	0
 2814 0038 05       		.uleb128 0x5
 2815 0039 35       		.uleb128 0x35
 2816 003a 00       		.byte	0
 2817 003b 49       		.uleb128 0x49
 2818 003c 13       		.uleb128 0x13
 2819 003d 00       		.byte	0
 2820 003e 00       		.byte	0
 2821 003f 06       		.uleb128 0x6
 2822 0040 26       		.uleb128 0x26
 2823 0041 00       		.byte	0
 2824 0042 49       		.uleb128 0x49
 2825 0043 13       		.uleb128 0x13
 2826 0044 00       		.byte	0
 2827 0045 00       		.byte	0
 2828 0046 07       		.uleb128 0x7
 2829 0047 13       		.uleb128 0x13
 2830 0048 01       		.byte	0x1
 2831 0049 03       		.uleb128 0x3
 2832 004a 0E       		.uleb128 0xe
 2833 004b 0B       		.uleb128 0xb
 2834 004c 0B       		.uleb128 0xb
 2835 004d 3A       		.uleb128 0x3a
 2836 004e 0B       		.uleb128 0xb
 2837 004f 3B       		.uleb128 0x3b
 2838 0050 0B       		.uleb128 0xb
 2839 0051 39       		.uleb128 0x39
 2840 0052 0B       		.uleb128 0xb
 2841 0053 01       		.uleb128 0x1
 2842 0054 13       		.uleb128 0x13
 2843 0055 00       		.byte	0
 2844 0056 00       		.byte	0
 2845 0057 08       		.uleb128 0x8
 2846 0058 0D       		.uleb128 0xd
 2847 0059 00       		.byte	0
 2848 005a 03       		.uleb128 0x3
 2849 005b 0E       		.uleb128 0xe
 2850 005c 3A       		.uleb128 0x3a
ARM GAS  /var/folders/l5/0x54b2c10074c8bt31ycjvl80000gp/T//ccnMGHS5.s 			page 51


 2851 005d 0B       		.uleb128 0xb
 2852 005e 3B       		.uleb128 0x3b
 2853 005f 0B       		.uleb128 0xb
 2854 0060 39       		.uleb128 0x39
 2855 0061 0B       		.uleb128 0xb
 2856 0062 49       		.uleb128 0x49
 2857 0063 13       		.uleb128 0x13
 2858 0064 38       		.uleb128 0x38
 2859 0065 0B       		.uleb128 0xb
 2860 0066 00       		.byte	0
 2861 0067 00       		.byte	0
 2862 0068 09       		.uleb128 0x9
 2863 0069 0D       		.uleb128 0xd
 2864 006a 00       		.byte	0
 2865 006b 03       		.uleb128 0x3
 2866 006c 08       		.uleb128 0x8
 2867 006d 3A       		.uleb128 0x3a
 2868 006e 0B       		.uleb128 0xb
 2869 006f 3B       		.uleb128 0x3b
 2870 0070 0B       		.uleb128 0xb
 2871 0071 39       		.uleb128 0x39
 2872 0072 0B       		.uleb128 0xb
 2873 0073 49       		.uleb128 0x49
 2874 0074 13       		.uleb128 0x13
 2875 0075 38       		.uleb128 0x38
 2876 0076 0B       		.uleb128 0xb
 2877 0077 00       		.byte	0
 2878 0078 00       		.byte	0
 2879 0079 0A       		.uleb128 0xa
 2880 007a 13       		.uleb128 0x13
 2881 007b 01       		.byte	0x1
 2882 007c 0B       		.uleb128 0xb
 2883 007d 0B       		.uleb128 0xb
 2884 007e 3A       		.uleb128 0x3a
 2885 007f 0B       		.uleb128 0xb
 2886 0080 3B       		.uleb128 0x3b
 2887 0081 0B       		.uleb128 0xb
 2888 0082 39       		.uleb128 0x39
 2889 0083 0B       		.uleb128 0xb
 2890 0084 01       		.uleb128 0x1
 2891 0085 13       		.uleb128 0x13
 2892 0086 00       		.byte	0
 2893 0087 00       		.byte	0
 2894 0088 0B       		.uleb128 0xb
 2895 0089 0F       		.uleb128 0xf
 2896 008a 00       		.byte	0
 2897 008b 0B       		.uleb128 0xb
 2898 008c 0B       		.uleb128 0xb
 2899 008d 49       		.uleb128 0x49
 2900 008e 13       		.uleb128 0x13
 2901 008f 00       		.byte	0
 2902 0090 00       		.byte	0
 2903 0091 0C       		.uleb128 0xc
 2904 0092 0F       		.uleb128 0xf
 2905 0093 00       		.byte	0
 2906 0094 0B       		.uleb128 0xb
 2907 0095 0B       		.uleb128 0xb
ARM GAS  /var/folders/l5/0x54b2c10074c8bt31ycjvl80000gp/T//ccnMGHS5.s 			page 52


 2908 0096 00       		.byte	0
 2909 0097 00       		.byte	0
 2910 0098 0D       		.uleb128 0xd
 2911 0099 15       		.uleb128 0x15
 2912 009a 01       		.byte	0x1
 2913 009b 27       		.uleb128 0x27
 2914 009c 19       		.uleb128 0x19
 2915 009d 01       		.uleb128 0x1
 2916 009e 13       		.uleb128 0x13
 2917 009f 00       		.byte	0
 2918 00a0 00       		.byte	0
 2919 00a1 0E       		.uleb128 0xe
 2920 00a2 05       		.uleb128 0x5
 2921 00a3 00       		.byte	0
 2922 00a4 49       		.uleb128 0x49
 2923 00a5 13       		.uleb128 0x13
 2924 00a6 00       		.byte	0
 2925 00a7 00       		.byte	0
 2926 00a8 0F       		.uleb128 0xf
 2927 00a9 34       		.uleb128 0x34
 2928 00aa 00       		.byte	0
 2929 00ab 03       		.uleb128 0x3
 2930 00ac 0E       		.uleb128 0xe
 2931 00ad 3A       		.uleb128 0x3a
 2932 00ae 0B       		.uleb128 0xb
 2933 00af 3B       		.uleb128 0x3b
 2934 00b0 0B       		.uleb128 0xb
 2935 00b1 39       		.uleb128 0x39
 2936 00b2 0B       		.uleb128 0xb
 2937 00b3 49       		.uleb128 0x49
 2938 00b4 13       		.uleb128 0x13
 2939 00b5 3F       		.uleb128 0x3f
 2940 00b6 19       		.uleb128 0x19
 2941 00b7 3C       		.uleb128 0x3c
 2942 00b8 19       		.uleb128 0x19
 2943 00b9 00       		.byte	0
 2944 00ba 00       		.byte	0
 2945 00bb 10       		.uleb128 0x10
 2946 00bc 17       		.uleb128 0x17
 2947 00bd 01       		.byte	0x1
 2948 00be 0B       		.uleb128 0xb
 2949 00bf 0B       		.uleb128 0xb
 2950 00c0 3A       		.uleb128 0x3a
 2951 00c1 0B       		.uleb128 0xb
 2952 00c2 3B       		.uleb128 0x3b
 2953 00c3 0B       		.uleb128 0xb
 2954 00c4 39       		.uleb128 0x39
 2955 00c5 0B       		.uleb128 0xb
 2956 00c6 01       		.uleb128 0x1
 2957 00c7 13       		.uleb128 0x13
 2958 00c8 00       		.byte	0
 2959 00c9 00       		.byte	0
 2960 00ca 11       		.uleb128 0x11
 2961 00cb 0D       		.uleb128 0xd
 2962 00cc 00       		.byte	0
 2963 00cd 03       		.uleb128 0x3
 2964 00ce 0E       		.uleb128 0xe
ARM GAS  /var/folders/l5/0x54b2c10074c8bt31ycjvl80000gp/T//ccnMGHS5.s 			page 53


 2965 00cf 3A       		.uleb128 0x3a
 2966 00d0 0B       		.uleb128 0xb
 2967 00d1 3B       		.uleb128 0x3b
 2968 00d2 0B       		.uleb128 0xb
 2969 00d3 39       		.uleb128 0x39
 2970 00d4 0B       		.uleb128 0xb
 2971 00d5 49       		.uleb128 0x49
 2972 00d6 13       		.uleb128 0x13
 2973 00d7 00       		.byte	0
 2974 00d8 00       		.byte	0
 2975 00d9 12       		.uleb128 0x12
 2976 00da 15       		.uleb128 0x15
 2977 00db 01       		.byte	0x1
 2978 00dc 27       		.uleb128 0x27
 2979 00dd 19       		.uleb128 0x19
 2980 00de 49       		.uleb128 0x49
 2981 00df 13       		.uleb128 0x13
 2982 00e0 01       		.uleb128 0x1
 2983 00e1 13       		.uleb128 0x13
 2984 00e2 00       		.byte	0
 2985 00e3 00       		.byte	0
 2986 00e4 13       		.uleb128 0x13
 2987 00e5 01       		.uleb128 0x1
 2988 00e6 01       		.byte	0x1
 2989 00e7 49       		.uleb128 0x49
 2990 00e8 13       		.uleb128 0x13
 2991 00e9 01       		.uleb128 0x1
 2992 00ea 13       		.uleb128 0x13
 2993 00eb 00       		.byte	0
 2994 00ec 00       		.byte	0
 2995 00ed 14       		.uleb128 0x14
 2996 00ee 21       		.uleb128 0x21
 2997 00ef 00       		.byte	0
 2998 00f0 49       		.uleb128 0x49
 2999 00f1 13       		.uleb128 0x13
 3000 00f2 2F       		.uleb128 0x2f
 3001 00f3 0B       		.uleb128 0xb
 3002 00f4 00       		.byte	0
 3003 00f5 00       		.byte	0
 3004 00f6 15       		.uleb128 0x15
 3005 00f7 0D       		.uleb128 0xd
 3006 00f8 00       		.byte	0
 3007 00f9 03       		.uleb128 0x3
 3008 00fa 0E       		.uleb128 0xe
 3009 00fb 3A       		.uleb128 0x3a
 3010 00fc 0B       		.uleb128 0xb
 3011 00fd 3B       		.uleb128 0x3b
 3012 00fe 05       		.uleb128 0x5
 3013 00ff 39       		.uleb128 0x39
 3014 0100 0B       		.uleb128 0xb
 3015 0101 49       		.uleb128 0x49
 3016 0102 13       		.uleb128 0x13
 3017 0103 38       		.uleb128 0x38
 3018 0104 0B       		.uleb128 0xb
 3019 0105 00       		.byte	0
 3020 0106 00       		.byte	0
 3021 0107 16       		.uleb128 0x16
ARM GAS  /var/folders/l5/0x54b2c10074c8bt31ycjvl80000gp/T//ccnMGHS5.s 			page 54


 3022 0108 16       		.uleb128 0x16
 3023 0109 00       		.byte	0
 3024 010a 03       		.uleb128 0x3
 3025 010b 0E       		.uleb128 0xe
 3026 010c 3A       		.uleb128 0x3a
 3027 010d 0B       		.uleb128 0xb
 3028 010e 3B       		.uleb128 0x3b
 3029 010f 05       		.uleb128 0x5
 3030 0110 39       		.uleb128 0x39
 3031 0111 0B       		.uleb128 0xb
 3032 0112 49       		.uleb128 0x49
 3033 0113 13       		.uleb128 0x13
 3034 0114 00       		.byte	0
 3035 0115 00       		.byte	0
 3036 0116 17       		.uleb128 0x17
 3037 0117 13       		.uleb128 0x13
 3038 0118 00       		.byte	0
 3039 0119 0B       		.uleb128 0xb
 3040 011a 0B       		.uleb128 0xb
 3041 011b 3A       		.uleb128 0x3a
 3042 011c 0B       		.uleb128 0xb
 3043 011d 3B       		.uleb128 0x3b
 3044 011e 0B       		.uleb128 0xb
 3045 011f 39       		.uleb128 0x39
 3046 0120 0B       		.uleb128 0xb
 3047 0121 00       		.byte	0
 3048 0122 00       		.byte	0
 3049 0123 18       		.uleb128 0x18
 3050 0124 04       		.uleb128 0x4
 3051 0125 01       		.byte	0x1
 3052 0126 3E       		.uleb128 0x3e
 3053 0127 0B       		.uleb128 0xb
 3054 0128 0B       		.uleb128 0xb
 3055 0129 0B       		.uleb128 0xb
 3056 012a 49       		.uleb128 0x49
 3057 012b 13       		.uleb128 0x13
 3058 012c 3A       		.uleb128 0x3a
 3059 012d 0B       		.uleb128 0xb
 3060 012e 3B       		.uleb128 0x3b
 3061 012f 0B       		.uleb128 0xb
 3062 0130 39       		.uleb128 0x39
 3063 0131 0B       		.uleb128 0xb
 3064 0132 01       		.uleb128 0x1
 3065 0133 13       		.uleb128 0x13
 3066 0134 00       		.byte	0
 3067 0135 00       		.byte	0
 3068 0136 19       		.uleb128 0x19
 3069 0137 28       		.uleb128 0x28
 3070 0138 00       		.byte	0
 3071 0139 03       		.uleb128 0x3
 3072 013a 0E       		.uleb128 0xe
 3073 013b 1C       		.uleb128 0x1c
 3074 013c 0B       		.uleb128 0xb
 3075 013d 00       		.byte	0
 3076 013e 00       		.byte	0
 3077 013f 1A       		.uleb128 0x1a
 3078 0140 34       		.uleb128 0x34
ARM GAS  /var/folders/l5/0x54b2c10074c8bt31ycjvl80000gp/T//ccnMGHS5.s 			page 55


 3079 0141 00       		.byte	0
 3080 0142 03       		.uleb128 0x3
 3081 0143 08       		.uleb128 0x8
 3082 0144 3A       		.uleb128 0x3a
 3083 0145 0B       		.uleb128 0xb
 3084 0146 3B       		.uleb128 0x3b
 3085 0147 0B       		.uleb128 0xb
 3086 0148 39       		.uleb128 0x39
 3087 0149 0B       		.uleb128 0xb
 3088 014a 49       		.uleb128 0x49
 3089 014b 13       		.uleb128 0x13
 3090 014c 3F       		.uleb128 0x3f
 3091 014d 19       		.uleb128 0x19
 3092 014e 3C       		.uleb128 0x3c
 3093 014f 19       		.uleb128 0x19
 3094 0150 00       		.byte	0
 3095 0151 00       		.byte	0
 3096 0152 1B       		.uleb128 0x1b
 3097 0153 26       		.uleb128 0x26
 3098 0154 00       		.byte	0
 3099 0155 00       		.byte	0
 3100 0156 00       		.byte	0
 3101 0157 1C       		.uleb128 0x1c
 3102 0158 2E       		.uleb128 0x2e
 3103 0159 01       		.byte	0x1
 3104 015a 3F       		.uleb128 0x3f
 3105 015b 19       		.uleb128 0x19
 3106 015c 03       		.uleb128 0x3
 3107 015d 0E       		.uleb128 0xe
 3108 015e 3A       		.uleb128 0x3a
 3109 015f 0B       		.uleb128 0xb
 3110 0160 3B       		.uleb128 0x3b
 3111 0161 05       		.uleb128 0x5
 3112 0162 39       		.uleb128 0x39
 3113 0163 0B       		.uleb128 0xb
 3114 0164 27       		.uleb128 0x27
 3115 0165 19       		.uleb128 0x19
 3116 0166 11       		.uleb128 0x11
 3117 0167 01       		.uleb128 0x1
 3118 0168 12       		.uleb128 0x12
 3119 0169 06       		.uleb128 0x6
 3120 016a 40       		.uleb128 0x40
 3121 016b 18       		.uleb128 0x18
 3122 016c 9742     		.uleb128 0x2117
 3123 016e 19       		.uleb128 0x19
 3124 016f 01       		.uleb128 0x1
 3125 0170 13       		.uleb128 0x13
 3126 0171 00       		.byte	0
 3127 0172 00       		.byte	0
 3128 0173 1D       		.uleb128 0x1d
 3129 0174 05       		.uleb128 0x5
 3130 0175 00       		.byte	0
 3131 0176 03       		.uleb128 0x3
 3132 0177 0E       		.uleb128 0xe
 3133 0178 3A       		.uleb128 0x3a
 3134 0179 0B       		.uleb128 0xb
 3135 017a 3B       		.uleb128 0x3b
ARM GAS  /var/folders/l5/0x54b2c10074c8bt31ycjvl80000gp/T//ccnMGHS5.s 			page 56


 3136 017b 05       		.uleb128 0x5
 3137 017c 39       		.uleb128 0x39
 3138 017d 0B       		.uleb128 0xb
 3139 017e 49       		.uleb128 0x49
 3140 017f 13       		.uleb128 0x13
 3141 0180 02       		.uleb128 0x2
 3142 0181 17       		.uleb128 0x17
 3143 0182 B742     		.uleb128 0x2137
 3144 0184 17       		.uleb128 0x17
 3145 0185 00       		.byte	0
 3146 0186 00       		.byte	0
 3147 0187 1E       		.uleb128 0x1e
 3148 0188 898201   		.uleb128 0x4109
 3149 018b 00       		.byte	0
 3150 018c 11       		.uleb128 0x11
 3151 018d 01       		.uleb128 0x1
 3152 018e 9542     		.uleb128 0x2115
 3153 0190 19       		.uleb128 0x19
 3154 0191 31       		.uleb128 0x31
 3155 0192 13       		.uleb128 0x13
 3156 0193 00       		.byte	0
 3157 0194 00       		.byte	0
 3158 0195 1F       		.uleb128 0x1f
 3159 0196 898201   		.uleb128 0x4109
 3160 0199 01       		.byte	0x1
 3161 019a 11       		.uleb128 0x11
 3162 019b 01       		.uleb128 0x1
 3163 019c 9542     		.uleb128 0x2115
 3164 019e 19       		.uleb128 0x19
 3165 019f 31       		.uleb128 0x31
 3166 01a0 13       		.uleb128 0x13
 3167 01a1 00       		.byte	0
 3168 01a2 00       		.byte	0
 3169 01a3 20       		.uleb128 0x20
 3170 01a4 8A8201   		.uleb128 0x410a
 3171 01a7 00       		.byte	0
 3172 01a8 02       		.uleb128 0x2
 3173 01a9 18       		.uleb128 0x18
 3174 01aa 9142     		.uleb128 0x2111
 3175 01ac 18       		.uleb128 0x18
 3176 01ad 00       		.byte	0
 3177 01ae 00       		.byte	0
 3178 01af 21       		.uleb128 0x21
 3179 01b0 2E       		.uleb128 0x2e
 3180 01b1 01       		.byte	0x1
 3181 01b2 3F       		.uleb128 0x3f
 3182 01b3 19       		.uleb128 0x19
 3183 01b4 03       		.uleb128 0x3
 3184 01b5 0E       		.uleb128 0xe
 3185 01b6 3A       		.uleb128 0x3a
 3186 01b7 0B       		.uleb128 0xb
 3187 01b8 3B       		.uleb128 0x3b
 3188 01b9 0B       		.uleb128 0xb
 3189 01ba 39       		.uleb128 0x39
 3190 01bb 0B       		.uleb128 0xb
 3191 01bc 27       		.uleb128 0x27
 3192 01bd 19       		.uleb128 0x19
ARM GAS  /var/folders/l5/0x54b2c10074c8bt31ycjvl80000gp/T//ccnMGHS5.s 			page 57


 3193 01be 49       		.uleb128 0x49
 3194 01bf 13       		.uleb128 0x13
 3195 01c0 11       		.uleb128 0x11
 3196 01c1 01       		.uleb128 0x1
 3197 01c2 12       		.uleb128 0x12
 3198 01c3 06       		.uleb128 0x6
 3199 01c4 40       		.uleb128 0x40
 3200 01c5 18       		.uleb128 0x18
 3201 01c6 9742     		.uleb128 0x2117
 3202 01c8 19       		.uleb128 0x19
 3203 01c9 01       		.uleb128 0x1
 3204 01ca 13       		.uleb128 0x13
 3205 01cb 00       		.byte	0
 3206 01cc 00       		.byte	0
 3207 01cd 22       		.uleb128 0x22
 3208 01ce 05       		.uleb128 0x5
 3209 01cf 00       		.byte	0
 3210 01d0 03       		.uleb128 0x3
 3211 01d1 0E       		.uleb128 0xe
 3212 01d2 3A       		.uleb128 0x3a
 3213 01d3 0B       		.uleb128 0xb
 3214 01d4 3B       		.uleb128 0x3b
 3215 01d5 0B       		.uleb128 0xb
 3216 01d6 39       		.uleb128 0x39
 3217 01d7 0B       		.uleb128 0xb
 3218 01d8 49       		.uleb128 0x49
 3219 01d9 13       		.uleb128 0x13
 3220 01da 02       		.uleb128 0x2
 3221 01db 17       		.uleb128 0x17
 3222 01dc B742     		.uleb128 0x2137
 3223 01de 17       		.uleb128 0x17
 3224 01df 00       		.byte	0
 3225 01e0 00       		.byte	0
 3226 01e1 23       		.uleb128 0x23
 3227 01e2 05       		.uleb128 0x5
 3228 01e3 00       		.byte	0
 3229 01e4 03       		.uleb128 0x3
 3230 01e5 0E       		.uleb128 0xe
 3231 01e6 3A       		.uleb128 0x3a
 3232 01e7 0B       		.uleb128 0xb
 3233 01e8 3B       		.uleb128 0x3b
 3234 01e9 0B       		.uleb128 0xb
 3235 01ea 39       		.uleb128 0x39
 3236 01eb 0B       		.uleb128 0xb
 3237 01ec 49       		.uleb128 0x49
 3238 01ed 13       		.uleb128 0x13
 3239 01ee 02       		.uleb128 0x2
 3240 01ef 18       		.uleb128 0x18
 3241 01f0 00       		.byte	0
 3242 01f1 00       		.byte	0
 3243 01f2 24       		.uleb128 0x24
 3244 01f3 34       		.uleb128 0x34
 3245 01f4 00       		.byte	0
 3246 01f5 03       		.uleb128 0x3
 3247 01f6 0E       		.uleb128 0xe
 3248 01f7 3A       		.uleb128 0x3a
 3249 01f8 0B       		.uleb128 0xb
ARM GAS  /var/folders/l5/0x54b2c10074c8bt31ycjvl80000gp/T//ccnMGHS5.s 			page 58


 3250 01f9 3B       		.uleb128 0x3b
 3251 01fa 0B       		.uleb128 0xb
 3252 01fb 39       		.uleb128 0x39
 3253 01fc 0B       		.uleb128 0xb
 3254 01fd 49       		.uleb128 0x49
 3255 01fe 13       		.uleb128 0x13
 3256 01ff 02       		.uleb128 0x2
 3257 0200 17       		.uleb128 0x17
 3258 0201 B742     		.uleb128 0x2137
 3259 0203 17       		.uleb128 0x17
 3260 0204 00       		.byte	0
 3261 0205 00       		.byte	0
 3262 0206 25       		.uleb128 0x25
 3263 0207 898201   		.uleb128 0x4109
 3264 020a 01       		.byte	0x1
 3265 020b 11       		.uleb128 0x11
 3266 020c 01       		.uleb128 0x1
 3267 020d 31       		.uleb128 0x31
 3268 020e 13       		.uleb128 0x13
 3269 020f 00       		.byte	0
 3270 0210 00       		.byte	0
 3271 0211 26       		.uleb128 0x26
 3272 0212 2E       		.uleb128 0x2e
 3273 0213 01       		.byte	0x1
 3274 0214 3F       		.uleb128 0x3f
 3275 0215 19       		.uleb128 0x19
 3276 0216 03       		.uleb128 0x3
 3277 0217 0E       		.uleb128 0xe
 3278 0218 3A       		.uleb128 0x3a
 3279 0219 0B       		.uleb128 0xb
 3280 021a 3B       		.uleb128 0x3b
 3281 021b 0B       		.uleb128 0xb
 3282 021c 39       		.uleb128 0x39
 3283 021d 0B       		.uleb128 0xb
 3284 021e 27       		.uleb128 0x27
 3285 021f 19       		.uleb128 0x19
 3286 0220 11       		.uleb128 0x11
 3287 0221 01       		.uleb128 0x1
 3288 0222 12       		.uleb128 0x12
 3289 0223 06       		.uleb128 0x6
 3290 0224 40       		.uleb128 0x40
 3291 0225 18       		.uleb128 0x18
 3292 0226 9742     		.uleb128 0x2117
 3293 0228 19       		.uleb128 0x19
 3294 0229 01       		.uleb128 0x1
 3295 022a 13       		.uleb128 0x13
 3296 022b 00       		.byte	0
 3297 022c 00       		.byte	0
 3298 022d 27       		.uleb128 0x27
 3299 022e 2E       		.uleb128 0x2e
 3300 022f 00       		.byte	0
 3301 0230 3F       		.uleb128 0x3f
 3302 0231 19       		.uleb128 0x19
 3303 0232 3C       		.uleb128 0x3c
 3304 0233 19       		.uleb128 0x19
 3305 0234 6E       		.uleb128 0x6e
 3306 0235 0E       		.uleb128 0xe
ARM GAS  /var/folders/l5/0x54b2c10074c8bt31ycjvl80000gp/T//ccnMGHS5.s 			page 59


 3307 0236 03       		.uleb128 0x3
 3308 0237 0E       		.uleb128 0xe
 3309 0238 3A       		.uleb128 0x3a
 3310 0239 0B       		.uleb128 0xb
 3311 023a 3B       		.uleb128 0x3b
 3312 023b 0B       		.uleb128 0xb
 3313 023c 39       		.uleb128 0x39
 3314 023d 0B       		.uleb128 0xb
 3315 023e 00       		.byte	0
 3316 023f 00       		.byte	0
 3317 0240 00       		.byte	0
 3318              		.section	.debug_loc,"",%progbits
 3319              	.Ldebug_loc0:
 3320              	.LVUS16:
 3321 0000 00       		.uleb128 0
 3322 0001 00       		.uleb128 .LVU126
 3323 0002 00       		.uleb128 .LVU126
 3324 0003 00       		.uleb128 0
 3325              	.LLST16:
 3326 0004 00000000 		.4byte	.LVL17
 3327 0008 03000000 		.4byte	.LVL18-1
 3328 000c 0100     		.2byte	0x1
 3329 000e 50       		.byte	0x50
 3330 000f 03000000 		.4byte	.LVL18-1
 3331 0013 04000000 		.4byte	.LFE15
 3332 0017 0400     		.2byte	0x4
 3333 0019 F3       		.byte	0xf3
 3334 001a 01       		.uleb128 0x1
 3335 001b 50       		.byte	0x50
 3336 001c 9F       		.byte	0x9f
 3337 001d 00000000 		.4byte	0
 3338 0021 00000000 		.4byte	0
 3339              	.LVUS15:
 3340 0025 00       		.uleb128 0
 3341 0026 00       		.uleb128 .LVU120
 3342 0027 00       		.uleb128 .LVU120
 3343 0028 00       		.uleb128 .LVU121
 3344 0029 00       		.uleb128 .LVU121
 3345 002a 00       		.uleb128 0
 3346              	.LLST15:
 3347 002b 00000000 		.4byte	.LVL14
 3348 002f 04000000 		.4byte	.LVL15
 3349 0033 0100     		.2byte	0x1
 3350 0035 50       		.byte	0x50
 3351 0036 04000000 		.4byte	.LVL15
 3352 003a 07000000 		.4byte	.LVL16-1
 3353 003e 0300     		.2byte	0x3
 3354 0040 70       		.byte	0x70
 3355 0041 70       		.sleb128 -16
 3356 0042 9F       		.byte	0x9f
 3357 0043 07000000 		.4byte	.LVL16-1
 3358 0047 08000000 		.4byte	.LFE14
 3359 004b 0400     		.2byte	0x4
 3360 004d F3       		.byte	0xf3
 3361 004e 01       		.uleb128 0x1
 3362 004f 50       		.byte	0x50
 3363 0050 9F       		.byte	0x9f
ARM GAS  /var/folders/l5/0x54b2c10074c8bt31ycjvl80000gp/T//ccnMGHS5.s 			page 60


 3364 0051 00000000 		.4byte	0
 3365 0055 00000000 		.4byte	0
 3366              	.LVUS10:
 3367 0059 00       		.uleb128 0
 3368 005a 00       		.uleb128 .LVU107
 3369 005b 00       		.uleb128 .LVU107
 3370 005c 00       		.uleb128 0
 3371              	.LLST10:
 3372 005d 00000000 		.4byte	.LVL12
 3373 0061 2B000000 		.4byte	.LVL13-1
 3374 0065 0100     		.2byte	0x1
 3375 0067 50       		.byte	0x50
 3376 0068 2B000000 		.4byte	.LVL13-1
 3377 006c 48000000 		.4byte	.LFE13
 3378 0070 0100     		.2byte	0x1
 3379 0072 54       		.byte	0x54
 3380 0073 00000000 		.4byte	0
 3381 0077 00000000 		.4byte	0
 3382              	.LVUS11:
 3383 007b 00       		.uleb128 0
 3384 007c 00       		.uleb128 .LVU107
 3385 007d 00       		.uleb128 .LVU107
 3386 007e 00       		.uleb128 0
 3387              	.LLST11:
 3388 007f 00000000 		.4byte	.LVL12
 3389 0083 2B000000 		.4byte	.LVL13-1
 3390 0087 0100     		.2byte	0x1
 3391 0089 51       		.byte	0x51
 3392 008a 2B000000 		.4byte	.LVL13-1
 3393 008e 48000000 		.4byte	.LFE13
 3394 0092 0400     		.2byte	0x4
 3395 0094 F3       		.byte	0xf3
 3396 0095 01       		.uleb128 0x1
 3397 0096 51       		.byte	0x51
 3398 0097 9F       		.byte	0x9f
 3399 0098 00000000 		.4byte	0
 3400 009c 00000000 		.4byte	0
 3401              	.LVUS12:
 3402 00a0 00       		.uleb128 0
 3403 00a1 00       		.uleb128 .LVU107
 3404 00a2 00       		.uleb128 .LVU107
 3405 00a3 00       		.uleb128 0
 3406              	.LLST12:
 3407 00a4 00000000 		.4byte	.LVL12
 3408 00a8 2B000000 		.4byte	.LVL13-1
 3409 00ac 0100     		.2byte	0x1
 3410 00ae 52       		.byte	0x52
 3411 00af 2B000000 		.4byte	.LVL13-1
 3412 00b3 48000000 		.4byte	.LFE13
 3413 00b7 0400     		.2byte	0x4
 3414 00b9 F3       		.byte	0xf3
 3415 00ba 01       		.uleb128 0x1
 3416 00bb 52       		.byte	0x52
 3417 00bc 9F       		.byte	0x9f
 3418 00bd 00000000 		.4byte	0
 3419 00c1 00000000 		.4byte	0
 3420              	.LVUS13:
ARM GAS  /var/folders/l5/0x54b2c10074c8bt31ycjvl80000gp/T//ccnMGHS5.s 			page 61


 3421 00c5 00       		.uleb128 0
 3422 00c6 00       		.uleb128 .LVU107
 3423 00c7 00       		.uleb128 .LVU107
 3424 00c8 00       		.uleb128 0
 3425              	.LLST13:
 3426 00c9 00000000 		.4byte	.LVL12
 3427 00cd 2B000000 		.4byte	.LVL13-1
 3428 00d1 0100     		.2byte	0x1
 3429 00d3 53       		.byte	0x53
 3430 00d4 2B000000 		.4byte	.LVL13-1
 3431 00d8 48000000 		.4byte	.LFE13
 3432 00dc 0400     		.2byte	0x4
 3433 00de F3       		.byte	0xf3
 3434 00df 01       		.uleb128 0x1
 3435 00e0 53       		.byte	0x53
 3436 00e1 9F       		.byte	0x9f
 3437 00e2 00000000 		.4byte	0
 3438 00e6 00000000 		.4byte	0
 3439              	.LVUS14:
 3440 00ea 00       		.uleb128 .LVU107
 3441 00eb 00       		.uleb128 0
 3442              	.LLST14:
 3443 00ec 2C000000 		.4byte	.LVL13
 3444 00f0 48000000 		.4byte	.LFE13
 3445 00f4 0100     		.2byte	0x1
 3446 00f6 50       		.byte	0x50
 3447 00f7 00000000 		.4byte	0
 3448 00fb 00000000 		.4byte	0
 3449              	.LVUS5:
 3450 00ff 00       		.uleb128 0
 3451 0100 00       		.uleb128 .LVU77
 3452 0101 00       		.uleb128 .LVU77
 3453 0102 00       		.uleb128 0
 3454              	.LLST5:
 3455 0103 00000000 		.4byte	.LVL10
 3456 0107 3F000000 		.4byte	.LVL11-1
 3457 010b 0100     		.2byte	0x1
 3458 010d 50       		.byte	0x50
 3459 010e 3F000000 		.4byte	.LVL11-1
 3460 0112 5C000000 		.4byte	.LFE12
 3461 0116 0100     		.2byte	0x1
 3462 0118 54       		.byte	0x54
 3463 0119 00000000 		.4byte	0
 3464 011d 00000000 		.4byte	0
 3465              	.LVUS6:
 3466 0121 00       		.uleb128 0
 3467 0122 00       		.uleb128 .LVU77
 3468 0123 00       		.uleb128 .LVU77
 3469 0124 00       		.uleb128 0
 3470              	.LLST6:
 3471 0125 00000000 		.4byte	.LVL10
 3472 0129 3F000000 		.4byte	.LVL11-1
 3473 012d 0100     		.2byte	0x1
 3474 012f 51       		.byte	0x51
 3475 0130 3F000000 		.4byte	.LVL11-1
 3476 0134 5C000000 		.4byte	.LFE12
 3477 0138 0400     		.2byte	0x4
ARM GAS  /var/folders/l5/0x54b2c10074c8bt31ycjvl80000gp/T//ccnMGHS5.s 			page 62


 3478 013a F3       		.byte	0xf3
 3479 013b 01       		.uleb128 0x1
 3480 013c 51       		.byte	0x51
 3481 013d 9F       		.byte	0x9f
 3482 013e 00000000 		.4byte	0
 3483 0142 00000000 		.4byte	0
 3484              	.LVUS7:
 3485 0146 00       		.uleb128 0
 3486 0147 00       		.uleb128 .LVU77
 3487 0148 00       		.uleb128 .LVU77
 3488 0149 00       		.uleb128 0
 3489              	.LLST7:
 3490 014a 00000000 		.4byte	.LVL10
 3491 014e 3F000000 		.4byte	.LVL11-1
 3492 0152 0100     		.2byte	0x1
 3493 0154 52       		.byte	0x52
 3494 0155 3F000000 		.4byte	.LVL11-1
 3495 0159 5C000000 		.4byte	.LFE12
 3496 015d 0400     		.2byte	0x4
 3497 015f F3       		.byte	0xf3
 3498 0160 01       		.uleb128 0x1
 3499 0161 52       		.byte	0x52
 3500 0162 9F       		.byte	0x9f
 3501 0163 00000000 		.4byte	0
 3502 0167 00000000 		.4byte	0
 3503              	.LVUS8:
 3504 016b 00       		.uleb128 0
 3505 016c 00       		.uleb128 .LVU77
 3506 016d 00       		.uleb128 .LVU77
 3507 016e 00       		.uleb128 0
 3508              	.LLST8:
 3509 016f 00000000 		.4byte	.LVL10
 3510 0173 3F000000 		.4byte	.LVL11-1
 3511 0177 0100     		.2byte	0x1
 3512 0179 53       		.byte	0x53
 3513 017a 3F000000 		.4byte	.LVL11-1
 3514 017e 5C000000 		.4byte	.LFE12
 3515 0182 0400     		.2byte	0x4
 3516 0184 F3       		.byte	0xf3
 3517 0185 01       		.uleb128 0x1
 3518 0186 53       		.byte	0x53
 3519 0187 9F       		.byte	0x9f
 3520 0188 00000000 		.4byte	0
 3521 018c 00000000 		.4byte	0
 3522              	.LVUS9:
 3523 0190 00       		.uleb128 .LVU77
 3524 0191 00       		.uleb128 0
 3525              	.LLST9:
 3526 0192 40000000 		.4byte	.LVL11
 3527 0196 5C000000 		.4byte	.LFE12
 3528 019a 0100     		.2byte	0x1
 3529 019c 50       		.byte	0x50
 3530 019d 00000000 		.4byte	0
 3531 01a1 00000000 		.4byte	0
 3532              	.LVUS4:
 3533 01a5 00       		.uleb128 0
 3534 01a6 00       		.uleb128 .LVU55
ARM GAS  /var/folders/l5/0x54b2c10074c8bt31ycjvl80000gp/T//ccnMGHS5.s 			page 63


 3535 01a7 00       		.uleb128 .LVU55
 3536 01a8 00       		.uleb128 0
 3537              	.LLST4:
 3538 01a9 00000000 		.4byte	.LVL8
 3539 01ad 04000000 		.4byte	.LVL9
 3540 01b1 0100     		.2byte	0x1
 3541 01b3 50       		.byte	0x50
 3542 01b4 04000000 		.4byte	.LVL9
 3543 01b8 08000000 		.4byte	.LFE11
 3544 01bc 0400     		.2byte	0x4
 3545 01be F3       		.byte	0xf3
 3546 01bf 01       		.uleb128 0x1
 3547 01c0 50       		.byte	0x50
 3548 01c1 9F       		.byte	0x9f
 3549 01c2 00000000 		.4byte	0
 3550 01c6 00000000 		.4byte	0
 3551              	.LVUS3:
 3552 01ca 00       		.uleb128 0
 3553 01cb 00       		.uleb128 .LVU44
 3554 01cc 00       		.uleb128 .LVU44
 3555 01cd 00       		.uleb128 0
 3556              	.LLST3:
 3557 01ce 00000000 		.4byte	.LVL6
 3558 01d2 0F000000 		.4byte	.LVL7-1
 3559 01d6 0100     		.2byte	0x1
 3560 01d8 50       		.byte	0x50
 3561 01d9 0F000000 		.4byte	.LVL7-1
 3562 01dd 20000000 		.4byte	.LFE10
 3563 01e1 0100     		.2byte	0x1
 3564 01e3 54       		.byte	0x54
 3565 01e4 00000000 		.4byte	0
 3566 01e8 00000000 		.4byte	0
 3567              	.LVUS1:
 3568 01ec 00       		.uleb128 0
 3569 01ed 00       		.uleb128 .LVU26
 3570 01ee 00       		.uleb128 .LVU26
 3571 01ef 00       		.uleb128 0
 3572              	.LLST1:
 3573 01f0 00000000 		.4byte	.LVL4
 3574 01f4 13000000 		.4byte	.LVL5-1
 3575 01f8 0100     		.2byte	0x1
 3576 01fa 50       		.byte	0x50
 3577 01fb 13000000 		.4byte	.LVL5-1
 3578 01ff 24000000 		.4byte	.LFE9
 3579 0203 0100     		.2byte	0x1
 3580 0205 54       		.byte	0x54
 3581 0206 00000000 		.4byte	0
 3582 020a 00000000 		.4byte	0
 3583              	.LVUS2:
 3584 020e 00       		.uleb128 0
 3585 020f 00       		.uleb128 .LVU26
 3586 0210 00       		.uleb128 .LVU26
 3587 0211 00       		.uleb128 0
 3588              	.LLST2:
 3589 0212 00000000 		.4byte	.LVL4
 3590 0216 13000000 		.4byte	.LVL5-1
 3591 021a 0100     		.2byte	0x1
ARM GAS  /var/folders/l5/0x54b2c10074c8bt31ycjvl80000gp/T//ccnMGHS5.s 			page 64


 3592 021c 51       		.byte	0x51
 3593 021d 13000000 		.4byte	.LVL5-1
 3594 0221 24000000 		.4byte	.LFE9
 3595 0225 0400     		.2byte	0x4
 3596 0227 F3       		.byte	0xf3
 3597 0228 01       		.uleb128 0x1
 3598 0229 51       		.byte	0x51
 3599 022a 9F       		.byte	0x9f
 3600 022b 00000000 		.4byte	0
 3601 022f 00000000 		.4byte	0
 3602              	.LVUS0:
 3603 0233 00       		.uleb128 0
 3604 0234 00       		.uleb128 .LVU10
 3605 0235 00       		.uleb128 .LVU10
 3606 0236 00       		.uleb128 .LVU11
 3607 0237 00       		.uleb128 .LVU11
 3608 0238 00       		.uleb128 0
 3609              	.LLST0:
 3610 0239 00000000 		.4byte	.LVL1
 3611 023d 14000000 		.4byte	.LVL2
 3612 0241 0100     		.2byte	0x1
 3613 0243 50       		.byte	0x50
 3614 0244 14000000 		.4byte	.LVL2
 3615 0248 17000000 		.4byte	.LVL3-1
 3616 024c 0300     		.2byte	0x3
 3617 024e 70       		.byte	0x70
 3618 024f 70       		.sleb128 -16
 3619 0250 9F       		.byte	0x9f
 3620 0251 17000000 		.4byte	.LVL3-1
 3621 0255 18000000 		.4byte	.LFE8
 3622 0259 0400     		.2byte	0x4
 3623 025b F3       		.byte	0xf3
 3624 025c 01       		.uleb128 0x1
 3625 025d 50       		.byte	0x50
 3626 025e 9F       		.byte	0x9f
 3627 025f 00000000 		.4byte	0
 3628 0263 00000000 		.4byte	0
 3629              		.section	.debug_aranges,"",%progbits
 3630 0000 5C000000 		.4byte	0x5c
 3631 0004 0200     		.2byte	0x2
 3632 0006 00000000 		.4byte	.Ldebug_info0
 3633 000a 04       		.byte	0x4
 3634 000b 00       		.byte	0
 3635 000c 0000     		.2byte	0
 3636 000e 0000     		.2byte	0
 3637 0010 00000000 		.4byte	.LFB7
 3638 0014 04000000 		.4byte	.LFE7-.LFB7
 3639 0018 00000000 		.4byte	.LFB8
 3640 001c 18000000 		.4byte	.LFE8-.LFB8
 3641 0020 00000000 		.4byte	.LFB9
 3642 0024 24000000 		.4byte	.LFE9-.LFB9
 3643 0028 00000000 		.4byte	.LFB10
 3644 002c 20000000 		.4byte	.LFE10-.LFB10
 3645 0030 00000000 		.4byte	.LFB11
 3646 0034 08000000 		.4byte	.LFE11-.LFB11
 3647 0038 00000000 		.4byte	.LFB12
 3648 003c 5C000000 		.4byte	.LFE12-.LFB12
ARM GAS  /var/folders/l5/0x54b2c10074c8bt31ycjvl80000gp/T//ccnMGHS5.s 			page 65


 3649 0040 00000000 		.4byte	.LFB13
 3650 0044 48000000 		.4byte	.LFE13-.LFB13
 3651 0048 00000000 		.4byte	.LFB14
 3652 004c 08000000 		.4byte	.LFE14-.LFB14
 3653 0050 00000000 		.4byte	.LFB15
 3654 0054 04000000 		.4byte	.LFE15-.LFB15
 3655 0058 00000000 		.4byte	0
 3656 005c 00000000 		.4byte	0
 3657              		.section	.debug_ranges,"",%progbits
 3658              	.Ldebug_ranges0:
 3659 0000 00000000 		.4byte	.LFB7
 3660 0004 04000000 		.4byte	.LFE7
 3661 0008 00000000 		.4byte	.LFB8
 3662 000c 18000000 		.4byte	.LFE8
 3663 0010 00000000 		.4byte	.LFB9
 3664 0014 24000000 		.4byte	.LFE9
 3665 0018 00000000 		.4byte	.LFB10
 3666 001c 20000000 		.4byte	.LFE10
 3667 0020 00000000 		.4byte	.LFB11
 3668 0024 08000000 		.4byte	.LFE11
 3669 0028 00000000 		.4byte	.LFB12
 3670 002c 5C000000 		.4byte	.LFE12
 3671 0030 00000000 		.4byte	.LFB13
 3672 0034 48000000 		.4byte	.LFE13
 3673 0038 00000000 		.4byte	.LFB14
 3674 003c 08000000 		.4byte	.LFE14
 3675 0040 00000000 		.4byte	.LFB15
 3676 0044 04000000 		.4byte	.LFE15
 3677 0048 00000000 		.4byte	0
 3678 004c 00000000 		.4byte	0
 3679              		.section	.debug_line,"",%progbits
 3680              	.Ldebug_line0:
 3681 0000 9D040000 		.section	.debug_str,"MS",%progbits,1
 3681      03009202 
 3681      00000201 
 3681      FB0E0D00 
 3681      01010101 
 3682              	.LASF94:
 3683 0000 63665F6F 		.ascii	"cf_off_older\000"
 3683      66665F6F 
 3683      6C646572 
 3683      00
 3684              	.LASF40:
 3685 000d 705F6D73 		.ascii	"p_msg\000"
 3685      6700
 3686              	.LASF2:
 3687 0013 73697A65 		.ascii	"size_t\000"
 3687      5F7400
 3688              	.LASF79:
 3689 001a 7264796D 		.ascii	"rdymsg\000"
 3689      736700
 3690              	.LASF172:
 3691 0021 77726974 		.ascii	"write\000"
 3691      6500
 3692              	.LASF115:
 3693 0027 4F757470 		.ascii	"OutputQueue\000"
 3693      75745175 
ARM GAS  /var/folders/l5/0x54b2c10074c8bt31ycjvl80000gp/T//ccnMGHS5.s 			page 66


 3693      65756500 
 3694              	.LASF3:
 3695 0033 5F5F7569 		.ascii	"__uint8_t\000"
 3695      6E74385F 
 3695      7400
 3696              	.LASF181:
 3697 003d 5350495F 		.ascii	"SPI_ACTIVE\000"
 3697      41435449 
 3697      564500
 3698              	.LASF66:
 3699 0048 76746C69 		.ascii	"vtlist\000"
 3699      737400
 3700              	.LASF117:
 3701 004f 62736364 		.ascii	"bscdevice_t\000"
 3701      65766963 
 3701      655F7400 
 3702              	.LASF155:
 3703 005b 72786275 		.ascii	"rxbuf\000"
 3703      6600
 3704              	.LASF108:
 3705 0061 715F746F 		.ascii	"q_top\000"
 3705      7000
 3706              	.LASF13:
 3707 0067 6C6F6E67 		.ascii	"long long unsigned int\000"
 3707      206C6F6E 
 3707      6720756E 
 3707      7369676E 
 3707      65642069 
 3708              	.LASF209:
 3709 007e 63684D74 		.ascii	"chMtxUnlock\000"
 3709      78556E6C 
 3709      6F636B00 
 3710              	.LASF90:
 3711 008a 63685F74 		.ascii	"ch_threadsize\000"
 3711      68726561 
 3711      6473697A 
 3711      6500
 3712              	.LASF206:
 3713 0098 69326353 		.ascii	"i2cStart\000"
 3713      74617274 
 3713      00
 3714              	.LASF80:
 3715 00a1 65786974 		.ascii	"exitcode\000"
 3715      636F6465 
 3715      00
 3716              	.LASF204:
 3717 00aa 69326347 		.ascii	"i2cGetErrors\000"
 3717      65744572 
 3717      726F7273 
 3717      00
 3718              	.LASF198:
 3719 00b7 69326352 		.ascii	"i2cReleaseBus\000"
 3719      656C6561 
 3719      73654275 
 3719      7300
 3720              	.LASF184:
 3721 00c5 53504944 		.ascii	"SPIDriver\000"
ARM GAS  /var/folders/l5/0x54b2c10074c8bt31ycjvl80000gp/T//ccnMGHS5.s 			page 67


 3721      72697665 
 3721      7200
 3722              	.LASF200:
 3723 00cf 69326370 		.ascii	"i2cp\000"
 3723      00
 3724              	.LASF122:
 3725 00d4 64617461 		.ascii	"dataFifo\000"
 3725      4669666F 
 3725      00
 3726              	.LASF29:
 3727 00dd 705F7072 		.ascii	"p_prio\000"
 3727      696F00
 3728              	.LASF97:
 3729 00e4 63665F6F 		.ascii	"cf_off_state\000"
 3729      66665F73 
 3729      74617465 
 3729      00
 3730              	.LASF177:
 3731 00f1 72656164 		.ascii	"readt\000"
 3731      7400
 3732              	.LASF148:
 3733 00f7 64657669 		.ascii	"device\000"
 3733      636500
 3734              	.LASF105:
 3735 00fe 715F7761 		.ascii	"q_waiting\000"
 3735      6974696E 
 3735      6700
 3736              	.LASF12:
 3737 0108 6C6F6E67 		.ascii	"long long int\000"
 3737      206C6F6E 
 3737      6720696E 
 3737      7400
 3738              	.LASF1:
 3739 0116 7369676E 		.ascii	"signed char\000"
 3739      65642063 
 3739      68617200 
 3740              	.LASF96:
 3741 0122 63665F6F 		.ascii	"cf_off_stklimit\000"
 3741      66665F73 
 3741      746B6C69 
 3741      6D697400 
 3742              	.LASF179:
 3743 0132 5350495F 		.ascii	"SPI_STOP\000"
 3743      53544F50 
 3743      00
 3744              	.LASF98:
 3745 013b 63665F6F 		.ascii	"cf_off_flags\000"
 3745      66665F66 
 3745      6C616773 
 3745      00
 3746              	.LASF218:
 3747 0148 2E2E2F2E 		.ascii	"../../os/hal/src/i2c.c\000"
 3747      2E2F6F73 
 3747      2F68616C 
 3747      2F737263 
 3747      2F693263 
 3748              	.LASF164:
ARM GAS  /var/folders/l5/0x54b2c10074c8bt31ycjvl80000gp/T//ccnMGHS5.s 			page 68


 3749 015f 53445F53 		.ascii	"SD_STOP\000"
 3749      544F5000 
 3750              	.LASF69:
 3751 0167 6D5F7175 		.ascii	"m_queue\000"
 3751      65756500 
 3752              	.LASF211:
 3753 016f 6932635F 		.ascii	"i2c_lld_master_receive_timeout\000"
 3753      6C6C645F 
 3753      6D617374 
 3753      65725F72 
 3753      65636569 
 3754              	.LASF151:
 3755 018e 61646472 		.ascii	"addr\000"
 3755      00
 3756              	.LASF212:
 3757 0193 6932635F 		.ascii	"i2c_lld_master_transmit_timeout\000"
 3757      6C6C645F 
 3757      6D617374 
 3757      65725F74 
 3757      72616E73 
 3758              	.LASF84:
 3759 01b3 63685F69 		.ascii	"ch_identifier\000"
 3759      64656E74 
 3759      69666965 
 3759      7200
 3760              	.LASF137:
 3761 01c1 4932435F 		.ascii	"I2C_UNINIT\000"
 3761      554E494E 
 3761      495400
 3762              	.LASF159:
 3763 01cc 69326361 		.ascii	"i2caddr_t\000"
 3763      6464725F 
 3763      7400
 3764              	.LASF145:
 3765 01d6 73746174 		.ascii	"state\000"
 3765      6500
 3766              	.LASF9:
 3767 01dc 6C6F6E67 		.ascii	"long int\000"
 3767      20696E74 
 3767      00
 3768              	.LASF202:
 3769 01e5 6932634D 		.ascii	"i2cMasterTransmitTimeout\000"
 3769      61737465 
 3769      72547261 
 3769      6E736D69 
 3769      7454696D 
 3770              	.LASF19:
 3771 01fe 74737461 		.ascii	"tstate_t\000"
 3771      74655F74 
 3771      00
 3772              	.LASF150:
 3773 0207 74687265 		.ascii	"thread\000"
 3773      616400
 3774              	.LASF124:
 3775 020e 64617461 		.ascii	"dataDelay\000"
 3775      44656C61 
 3775      7900
ARM GAS  /var/folders/l5/0x54b2c10074c8bt31ycjvl80000gp/T//ccnMGHS5.s 			page 69


 3776              	.LASF157:
 3777 0218 72786964 		.ascii	"rxidx\000"
 3777      7800
 3778              	.LASF107:
 3779 021e 715F6275 		.ascii	"q_buffer\000"
 3779      66666572 
 3779      00
 3780              	.LASF15:
 3781 0227 75696E74 		.ascii	"uint16_t\000"
 3781      31365F74 
 3781      00
 3782              	.LASF197:
 3783 0230 53504930 		.ascii	"SPI0\000"
 3783      00
 3784              	.LASF102:
 3785 0235 63686465 		.ascii	"chdebug_t\000"
 3785      6275675F 
 3785      7400
 3786              	.LASF140:
 3787 023f 4932435F 		.ascii	"I2C_ACTIVE_TX\000"
 3787      41435449 
 3787      56455F54 
 3787      5800
 3788              	.LASF194:
 3789 024d 636C6F63 		.ascii	"clock_phase\000"
 3789      6B5F7068 
 3789      61736500 
 3790              	.LASF31:
 3791 0259 705F6E65 		.ascii	"p_newer\000"
 3791      77657200 
 3792              	.LASF116:
 3793 0261 5F69646C 		.ascii	"_idle_thread_wa\000"
 3793      655F7468 
 3793      72656164 
 3793      5F776100 
 3794              	.LASF187:
 3795 0271 656E645F 		.ascii	"end_cb\000"
 3795      636200
 3796              	.LASF185:
 3797 0278 7478636E 		.ascii	"txcnt\000"
 3797      7400
 3798              	.LASF191:
 3799 027e 63686970 		.ascii	"chip_select_polarity0\000"
 3799      5F73656C 
 3799      6563745F 
 3799      706F6C61 
 3799      72697479 
 3800              	.LASF192:
 3801 0294 63686970 		.ascii	"chip_select_polarity1\000"
 3801      5F73656C 
 3801      6563745F 
 3801      706F6C61 
 3801      72697479 
 3802              	.LASF118:
 3803 02aa 636F6E74 		.ascii	"control\000"
 3803      726F6C00 
 3804              	.LASF10:
ARM GAS  /var/folders/l5/0x54b2c10074c8bt31ycjvl80000gp/T//ccnMGHS5.s 			page 70


 3805 02b2 5F5F7569 		.ascii	"__uint32_t\000"
 3805      6E743332 
 3805      5F7400
 3806              	.LASF47:
 3807 02bd 72656761 		.ascii	"regarm_t\000"
 3807      726D5F74 
 3807      00
 3808              	.LASF53:
 3809 02c6 76745F70 		.ascii	"vt_prev\000"
 3809      72657600 
 3810              	.LASF121:
 3811 02ce 736C6176 		.ascii	"slaveAddress\000"
 3811      65416464 
 3811      72657373 
 3811      00
 3812              	.LASF186:
 3813 02db 73706963 		.ascii	"spicallback_t\000"
 3813      616C6C62 
 3813      61636B5F 
 3813      7400
 3814              	.LASF162:
 3815 02e9 49324330 		.ascii	"I2C0\000"
 3815      00
 3816              	.LASF77:
 3817 02ee 4576656E 		.ascii	"EventSource\000"
 3817      74536F75 
 3817      72636500 
 3818              	.LASF0:
 3819 02fa 756E7369 		.ascii	"unsigned int\000"
 3819      676E6564 
 3819      20696E74 
 3819      00
 3820              	.LASF52:
 3821 0307 76745F6E 		.ascii	"vt_next\000"
 3821      65787400 
 3822              	.LASF152:
 3823 030f 74786275 		.ascii	"txbuf\000"
 3823      6600
 3824              	.LASF171:
 3825 0315 53657269 		.ascii	"SerialDriverVMT\000"
 3825      616C4472 
 3825      69766572 
 3825      564D5400 
 3826              	.LASF147:
 3827 0325 6572726F 		.ascii	"errors\000"
 3827      727300
 3828              	.LASF169:
 3829 032c 69717565 		.ascii	"iqueue\000"
 3829      756500
 3830              	.LASF11:
 3831 0333 6C6F6E67 		.ascii	"long unsigned int\000"
 3831      20756E73 
 3831      69676E65 
 3831      6420696E 
 3831      7400
 3832              	.LASF103:
 3833 0345 63685F64 		.ascii	"ch_debug\000"
ARM GAS  /var/folders/l5/0x54b2c10074c8bt31ycjvl80000gp/T//ccnMGHS5.s 			page 71


 3833      65627567 
 3833      00
 3834              	.LASF203:
 3835 034e 74696D65 		.ascii	"timeout\000"
 3835      6F757400 
 3836              	.LASF175:
 3837 0356 67657474 		.ascii	"gett\000"
 3837      00
 3838              	.LASF50:
 3839 035b 76746675 		.ascii	"vtfunc_t\000"
 3839      6E635F74 
 3839      00
 3840              	.LASF190:
 3841 0364 63686970 		.ascii	"chip_select_polarity\000"
 3841      5F73656C 
 3841      6563745F 
 3841      706F6C61 
 3841      72697479 
 3842              	.LASF168:
 3843 0379 6576656E 		.ascii	"event\000"
 3843      7400
 3844              	.LASF49:
 3845 037f 636F6E74 		.ascii	"context\000"
 3845      65787400 
 3846              	.LASF7:
 3847 0387 73686F72 		.ascii	"short unsigned int\000"
 3847      7420756E 
 3847      7369676E 
 3847      65642069 
 3847      6E7400
 3848              	.LASF132:
 3849 039a 6770696F 		.ascii	"gpio_port_t\000"
 3849      5F706F72 
 3849      745F7400 
 3850              	.LASF128:
 3851 03a6 6770636C 		.ascii	"gpclr\000"
 3851      7200
 3852              	.LASF22:
 3853 03ac 6D73675F 		.ascii	"msg_t\000"
 3853      7400
 3854              	.LASF170:
 3855 03b2 6F717565 		.ascii	"oqueue\000"
 3855      756500
 3856              	.LASF62:
 3857 03b9 725F6E65 		.ascii	"r_newer\000"
 3857      77657200 
 3858              	.LASF73:
 3859 03c1 656C5F6E 		.ascii	"el_next\000"
 3859      65787400 
 3860              	.LASF217:
 3861 03c9 474E5520 		.ascii	"GNU C17 8.3.1 20190703 (release) [gcc-8-branch revi"
 3861      43313720 
 3861      382E332E 
 3861      31203230 
 3861      31393037 
 3862 03fc 73696F6E 		.ascii	"sion 273027] -mcpu=arm1176jz-s -mno-thumb-interwork"
 3862      20323733 
ARM GAS  /var/folders/l5/0x54b2c10074c8bt31ycjvl80000gp/T//ccnMGHS5.s 			page 72


 3862      3032375D 
 3862      202D6D63 
 3862      70753D61 
 3863 042f 202D6D66 		.ascii	" -mfloat-abi=soft -marm -march=armv6kz -ggdb -O2 -f"
 3863      6C6F6174 
 3863      2D616269 
 3863      3D736F66 
 3863      74202D6D 
 3864 0462 6F6D6974 		.ascii	"omit-frame-pointer -ffunction-sections -fdata-secti"
 3864      2D667261 
 3864      6D652D70 
 3864      6F696E74 
 3864      6572202D 
 3865 0495 6F6E7300 		.ascii	"ons\000"
 3866              	.LASF176:
 3867 0499 77726974 		.ascii	"writet\000"
 3867      657400
 3868              	.LASF18:
 3869 04a0 746D6F64 		.ascii	"tmode_t\000"
 3869      655F7400 
 3870              	.LASF45:
 3871 04a8 54687265 		.ascii	"ThreadsList\000"
 3871      6164734C 
 3871      69737400 
 3872              	.LASF23:
 3873 04b4 6576656E 		.ascii	"eventmask_t\000"
 3873      746D6173 
 3873      6B5F7400 
 3874              	.LASF114:
 3875 04c0 496E7075 		.ascii	"InputQueue\000"
 3875      74517565 
 3875      756500
 3876              	.LASF68:
 3877 04cb 4D757465 		.ascii	"Mutex\000"
 3877      7800
 3878              	.LASF104:
 3879 04d1 47656E65 		.ascii	"GenericQueue\000"
 3879      72696351 
 3879      75657565 
 3879      00
 3880              	.LASF46:
 3881 04de 73746B61 		.ascii	"stkalign_t\000"
 3881      6C69676E 
 3881      5F7400
 3882              	.LASF213:
 3883 04e9 6932635F 		.ascii	"i2c_lld_stop\000"
 3883      6C6C645F 
 3883      73746F70 
 3883      00
 3884              	.LASF85:
 3885 04f6 63685F7A 		.ascii	"ch_zero\000"
 3885      65726F00 
 3886              	.LASF99:
 3887 04fe 63665F6F 		.ascii	"cf_off_refs\000"
 3887      66665F72 
 3887      65667300 
 3888              	.LASF129:
ARM GAS  /var/folders/l5/0x54b2c10074c8bt31ycjvl80000gp/T//ccnMGHS5.s 			page 73


 3889 050a 67706C65 		.ascii	"gplev\000"
 3889      7600
 3890              	.LASF174:
 3891 0510 70757474 		.ascii	"putt\000"
 3891      00
 3892              	.LASF54:
 3893 0515 76745F74 		.ascii	"vt_time\000"
 3893      696D6500 
 3894              	.LASF138:
 3895 051d 4932435F 		.ascii	"I2C_STOP\000"
 3895      53544F50 
 3895      00
 3896              	.LASF123:
 3897 0526 636C6F63 		.ascii	"clockDivider\000"
 3897      6B446976 
 3897      69646572 
 3897      00
 3898              	.LASF106:
 3899 0533 715F636F 		.ascii	"q_counter\000"
 3899      756E7465 
 3899      7200
 3900              	.LASF55:
 3901 053d 76745F66 		.ascii	"vt_func\000"
 3901      756E6300 
 3902              	.LASF89:
 3903 0545 63685F74 		.ascii	"ch_timesize\000"
 3903      696D6573 
 3903      697A6500 
 3904              	.LASF160:
 3905 0551 69635F73 		.ascii	"ic_speed\000"
 3905      70656564 
 3905      00
 3906              	.LASF95:
 3907 055a 63665F6F 		.ascii	"cf_off_name\000"
 3907      66665F6E 
 3907      616D6500 
 3908              	.LASF210:
 3909 0566 63684D74 		.ascii	"chMtxLock\000"
 3909      784C6F63 
 3909      6B00
 3910              	.LASF32:
 3911 0570 705F6F6C 		.ascii	"p_older\000"
 3911      64657200 
 3912              	.LASF156:
 3913 0578 72786279 		.ascii	"rxbytes\000"
 3913      74657300 
 3914              	.LASF109:
 3915 0580 715F7772 		.ascii	"q_wrptr\000"
 3915      70747200 
 3916              	.LASF61:
 3917 0588 725F6374 		.ascii	"r_ctx\000"
 3917      7800
 3918              	.LASF44:
 3919 058e 54687265 		.ascii	"ThreadsQueue\000"
 3919      61647351 
 3919      75657565 
 3919      00
ARM GAS  /var/folders/l5/0x54b2c10074c8bt31ycjvl80000gp/T//ccnMGHS5.s 			page 74


 3920              	.LASF86:
 3921 059b 63685F73 		.ascii	"ch_size\000"
 3921      697A6500 
 3922              	.LASF134:
 3923 05a3 494F504F 		.ascii	"IOPORT0\000"
 3923      52543000 
 3924              	.LASF64:
 3925 05ab 725F6375 		.ascii	"r_current\000"
 3925      7272656E 
 3925      7400
 3926              	.LASF63:
 3927 05b5 725F6F6C 		.ascii	"r_older\000"
 3927      64657200 
 3928              	.LASF75:
 3929 05bd 656C5F6D 		.ascii	"el_mask\000"
 3929      61736B00 
 3930              	.LASF205:
 3931 05c5 69326353 		.ascii	"i2cStop\000"
 3931      746F7000 
 3932              	.LASF127:
 3933 05cd 67707365 		.ascii	"gpset\000"
 3933      7400
 3934              	.LASF130:
 3935 05d3 67707075 		.ascii	"gppudclk\000"
 3935      64636C6B 
 3935      00
 3936              	.LASF188:
 3937 05dc 6C6F7373 		.ascii	"lossiEnabled\000"
 3937      69456E61 
 3937      626C6564 
 3937      00
 3938              	.LASF189:
 3939 05e9 63686970 		.ascii	"chip_select\000"
 3939      5F73656C 
 3939      65637400 
 3940              	.LASF20:
 3941 05f5 74726566 		.ascii	"trefs_t\000"
 3941      735F7400 
 3942              	.LASF143:
 3943 05fd 69326373 		.ascii	"i2cstate_t\000"
 3943      74617465 
 3943      5F7400
 3944              	.LASF88:
 3945 0608 63685F70 		.ascii	"ch_ptrsize\000"
 3945      74727369 
 3945      7A6500
 3946              	.LASF113:
 3947 0613 716E6F74 		.ascii	"qnotify_t\000"
 3947      6966795F 
 3947      7400
 3948              	.LASF28:
 3949 061d 705F7072 		.ascii	"p_prev\000"
 3949      657600
 3950              	.LASF199:
 3951 0624 69326341 		.ascii	"i2cAcquireBus\000"
 3951      63717569 
 3951      72654275 
ARM GAS  /var/folders/l5/0x54b2c10074c8bt31ycjvl80000gp/T//ccnMGHS5.s 			page 75


 3951      7300
 3952              	.LASF21:
 3953 0632 74707269 		.ascii	"tprio_t\000"
 3953      6F5F7400 
 3954              	.LASF110:
 3955 063a 715F7264 		.ascii	"q_rdptr\000"
 3955      70747200 
 3956              	.LASF158:
 3957 0642 69326366 		.ascii	"i2cflags_t\000"
 3957      6C616773 
 3957      5F7400
 3958              	.LASF149:
 3959 064d 6D757465 		.ascii	"mutex\000"
 3959      7800
 3960              	.LASF214:
 3961 0653 6932635F 		.ascii	"i2c_lld_start\000"
 3961      6C6C645F 
 3961      73746172 
 3961      7400
 3962              	.LASF16:
 3963 0661 696E7433 		.ascii	"int32_t\000"
 3963      325F7400 
 3964              	.LASF4:
 3965 0669 756E7369 		.ascii	"unsigned char\000"
 3965      676E6564 
 3965      20636861 
 3965      7200
 3966              	.LASF74:
 3967 0677 656C5F6C 		.ascii	"el_listener\000"
 3967      69737465 
 3967      6E657200 
 3968              	.LASF76:
 3969 0683 656C5F66 		.ascii	"el_flags\000"
 3969      6C616773 
 3969      00
 3970              	.LASF42:
 3971 068c 705F6D74 		.ascii	"p_mtxlist\000"
 3971      786C6973 
 3971      7400
 3972              	.LASF5:
 3973 0696 73686F72 		.ascii	"short int\000"
 3973      7420696E 
 3973      7400
 3974              	.LASF34:
 3975 06a0 705F7374 		.ascii	"p_state\000"
 3975      61746500 
 3976              	.LASF101:
 3977 06a8 63665F6F 		.ascii	"cf_off_time\000"
 3977      66665F74 
 3977      696D6500 
 3978              	.LASF60:
 3979 06b4 725F7072 		.ascii	"r_prio\000"
 3979      696F00
 3980              	.LASF131:
 3981 06bb 70696E5F 		.ascii	"pin_base\000"
 3981      62617365 
 3981      00
ARM GAS  /var/folders/l5/0x54b2c10074c8bt31ycjvl80000gp/T//ccnMGHS5.s 			page 76


 3982              	.LASF82:
 3983 06c4 65776D61 		.ascii	"ewmask\000"
 3983      736B00
 3984              	.LASF27:
 3985 06cb 705F6E65 		.ascii	"p_next\000"
 3985      787400
 3986              	.LASF135:
 3987 06d2 494F504F 		.ascii	"IOPORT1\000"
 3987      52543100 
 3988              	.LASF100:
 3989 06da 63665F6F 		.ascii	"cf_off_preempt\000"
 3989      66665F70 
 3989      7265656D 
 3989      707400
 3990              	.LASF35:
 3991 06e9 705F666C 		.ascii	"p_flags\000"
 3991      61677300 
 3992              	.LASF26:
 3993 06f1 54687265 		.ascii	"Thread\000"
 3993      616400
 3994              	.LASF195:
 3995 06f8 636C6F63 		.ascii	"clock_divider\000"
 3995      6B5F6469 
 3995      76696465 
 3995      7200
 3996              	.LASF93:
 3997 0706 63665F6F 		.ascii	"cf_off_newer\000"
 3997      66665F6E 
 3997      65776572 
 3997      00
 3998              	.LASF142:
 3999 0713 4932435F 		.ascii	"I2C_LOCKED\000"
 3999      4C4F434B 
 3999      454400
 4000              	.LASF41:
 4001 071e 705F6570 		.ascii	"p_epending\000"
 4001      656E6469 
 4001      6E6700
 4002              	.LASF163:
 4003 0729 53445F55 		.ascii	"SD_UNINIT\000"
 4003      4E494E49 
 4003      5400
 4004              	.LASF17:
 4005 0733 75696E74 		.ascii	"uint32_t\000"
 4005      33325F74 
 4005      00
 4006              	.LASF91:
 4007 073c 63665F6F 		.ascii	"cf_off_prio\000"
 4007      66665F70 
 4007      72696F00 
 4008              	.LASF59:
 4009 0748 725F7175 		.ascii	"r_queue\000"
 4009      65756500 
 4010              	.LASF51:
 4011 0750 56697274 		.ascii	"VirtualTimer\000"
 4011      75616C54 
 4011      696D6572 
ARM GAS  /var/folders/l5/0x54b2c10074c8bt31ycjvl80000gp/T//ccnMGHS5.s 			page 77


 4011      00
 4012              	.LASF167:
 4013 075d 53657269 		.ascii	"SerialDriver\000"
 4013      616C4472 
 4013      69766572 
 4013      00
 4014              	.LASF141:
 4015 076a 4932435F 		.ascii	"I2C_ACTIVE_RX\000"
 4015      41435449 
 4015      56455F52 
 4015      5800
 4016              	.LASF173:
 4017 0778 72656164 		.ascii	"read\000"
 4017      00
 4018              	.LASF83:
 4019 077d 63686172 		.ascii	"char\000"
 4019      00
 4020              	.LASF182:
 4021 0782 5350495F 		.ascii	"SPI_COMPLETE\000"
 4021      434F4D50 
 4021      4C455445 
 4021      00
 4022              	.LASF146:
 4023 078f 636F6E66 		.ascii	"config\000"
 4023      696700
 4024              	.LASF6:
 4025 0796 5F5F7569 		.ascii	"__uint16_t\000"
 4025      6E743136 
 4025      5F7400
 4026              	.LASF183:
 4027 07a1 73706973 		.ascii	"spistate_t\000"
 4027      74617465 
 4027      5F7400
 4028              	.LASF71:
 4029 07ac 6D5F6E65 		.ascii	"m_next\000"
 4029      787400
 4030              	.LASF25:
 4031 07b3 73797374 		.ascii	"systime_t\000"
 4031      696D655F 
 4031      7400
 4032              	.LASF43:
 4033 07bd 705F7265 		.ascii	"p_realprio\000"
 4033      616C7072 
 4033      696F00
 4034              	.LASF8:
 4035 07c8 5F5F696E 		.ascii	"__int32_t\000"
 4035      7433325F 
 4035      7400
 4036              	.LASF139:
 4037 07d2 4932435F 		.ascii	"I2C_READY\000"
 4037      52454144 
 4037      5900
 4038              	.LASF144:
 4039 07dc 49324344 		.ascii	"I2CDriver\000"
 4039      72697665 
 4039      7200
 4040              	.LASF37:
ARM GAS  /var/folders/l5/0x54b2c10074c8bt31ycjvl80000gp/T//ccnMGHS5.s 			page 78


 4041 07e6 705F7469 		.ascii	"p_time\000"
 4041      6D6500
 4042              	.LASF193:
 4043 07ed 636C6F63 		.ascii	"clock_polarity\000"
 4043      6B5F706F 
 4043      6C617269 
 4043      747900
 4044              	.LASF207:
 4045 07fc 6932634F 		.ascii	"i2cObjectInit\000"
 4045      626A6563 
 4045      74496E69 
 4045      7400
 4046              	.LASF48:
 4047 080a 696E7463 		.ascii	"intctx\000"
 4047      747800
 4048              	.LASF39:
 4049 0811 705F6D73 		.ascii	"p_msgqueue\000"
 4049      67717565 
 4049      756500
 4050              	.LASF165:
 4051 081c 53445F52 		.ascii	"SD_READY\000"
 4051      45414459 
 4051      00
 4052              	.LASF180:
 4053 0825 5350495F 		.ascii	"SPI_READY\000"
 4053      52454144 
 4053      5900
 4054              	.LASF178:
 4055 082f 5350495F 		.ascii	"SPI_UNINIT\000"
 4055      554E494E 
 4055      495400
 4056              	.LASF56:
 4057 083a 76745F70 		.ascii	"vt_par\000"
 4057      617200
 4058              	.LASF215:
 4059 0841 63684D74 		.ascii	"chMtxInit\000"
 4059      78496E69 
 4059      7400
 4060              	.LASF24:
 4061 084b 666C6167 		.ascii	"flagsmask_t\000"
 4061      736D6173 
 4061      6B5F7400 
 4062              	.LASF161:
 4063 0857 49324343 		.ascii	"I2CConfig\000"
 4063      6F6E6669 
 4063      6700
 4064              	.LASF166:
 4065 0861 73647374 		.ascii	"sdstate_t\000"
 4065      6174655F 
 4065      7400
 4066              	.LASF154:
 4067 086b 74786964 		.ascii	"txidx\000"
 4067      7800
 4068              	.LASF92:
 4069 0871 63665F6F 		.ascii	"cf_off_ctx\000"
 4069      66665F63 
 4069      747800
ARM GAS  /var/folders/l5/0x54b2c10074c8bt31ycjvl80000gp/T//ccnMGHS5.s 			page 79


 4070              	.LASF216:
 4071 087c 6932635F 		.ascii	"i2c_lld_init\000"
 4071      6C6C645F 
 4071      696E6974 
 4071      00
 4072              	.LASF36:
 4073 0889 705F7265 		.ascii	"p_refs\000"
 4073      667300
 4074              	.LASF119:
 4075 0890 73746174 		.ascii	"status\000"
 4075      757300
 4076              	.LASF65:
 4077 0897 52656164 		.ascii	"ReadyList\000"
 4077      794C6973 
 4077      7400
 4078              	.LASF111:
 4079 08a1 715F6E6F 		.ascii	"q_notify\000"
 4079      74696679 
 4079      00
 4080              	.LASF67:
 4081 08aa 726C6973 		.ascii	"rlist\000"
 4081      7400
 4082              	.LASF14:
 4083 08b0 75696E74 		.ascii	"uint8_t\000"
 4083      385F7400 
 4084              	.LASF126:
 4085 08b8 6C617463 		.ascii	"latch\000"
 4085      6800
 4086              	.LASF201:
 4087 08be 6932634D 		.ascii	"i2cMasterReceiveTimeout\000"
 4087      61737465 
 4087      72526563 
 4087      65697665 
 4087      54696D65 
 4088              	.LASF72:
 4089 08d6 4576656E 		.ascii	"EventListener\000"
 4089      744C6973 
 4089      74656E65 
 4089      7200
 4090              	.LASF81:
 4091 08e4 77746F62 		.ascii	"wtobjp\000"
 4091      6A7000
 4092              	.LASF33:
 4093 08eb 705F6E61 		.ascii	"p_name\000"
 4093      6D6500
 4094              	.LASF57:
 4095 08f2 76745F73 		.ascii	"vt_systime\000"
 4095      79737469 
 4095      6D6500
 4096              	.LASF78:
 4097 08fd 65735F6E 		.ascii	"es_next\000"
 4097      65787400 
 4098              	.LASF196:
 4099 0905 53504943 		.ascii	"SPIConfig\000"
 4099      6F6E6669 
 4099      6700
 4100              	.LASF208:
ARM GAS  /var/folders/l5/0x54b2c10074c8bt31ycjvl80000gp/T//ccnMGHS5.s 			page 80


 4101 090f 69326349 		.ascii	"i2cInit\000"
 4101      6E697400 
 4102              	.LASF87:
 4103 0917 63685F76 		.ascii	"ch_version\000"
 4103      65727369 
 4103      6F6E00
 4104              	.LASF219:
 4105 0922 2F557365 		.ascii	"/Users/fernandoguirado/eclipse-workspace/ChibiOS-RP"
 4105      72732F66 
 4105      65726E61 
 4105      6E646F67 
 4105      75697261 
 4106 0955 692D636F 		.ascii	"i-copia/demos/timers\000"
 4106      7069612F 
 4106      64656D6F 
 4106      732F7469 
 4106      6D657273 
 4107              	.LASF120:
 4108 096a 64617461 		.ascii	"dataLength\000"
 4108      4C656E67 
 4108      746800
 4109              	.LASF58:
 4110 0975 56544C69 		.ascii	"VTList\000"
 4110      737400
 4111              	.LASF112:
 4112 097c 715F6C69 		.ascii	"q_link\000"
 4112      6E6B00
 4113              	.LASF133:
 4114 0983 50414C43 		.ascii	"PALConfig\000"
 4114      6F6E6669 
 4114      6700
 4115              	.LASF70:
 4116 098d 6D5F6F77 		.ascii	"m_owner\000"
 4116      6E657200 
 4117              	.LASF136:
 4118 0995 70616C5F 		.ascii	"pal_default_config\000"
 4118      64656661 
 4118      756C745F 
 4118      636F6E66 
 4118      696700
 4119              	.LASF30:
 4120 09a8 705F6374 		.ascii	"p_ctx\000"
 4120      7800
 4121              	.LASF38:
 4122 09ae 705F7761 		.ascii	"p_waiting\000"
 4122      6974696E 
 4122      6700
 4123              	.LASF153:
 4124 09b8 74786279 		.ascii	"txbytes\000"
 4124      74657300 
 4125              	.LASF125:
 4126 09c0 636C6F63 		.ascii	"clockStretchTimeout\000"
 4126      6B537472 
 4126      65746368 
 4126      54696D65 
 4126      6F757400 
 4127              		.ident	"GCC: (GNU Tools for Arm Embedded Processors 8-2019-q3-update) 8.3.1 20190703 (release) [gc
ARM GAS  /var/folders/l5/0x54b2c10074c8bt31ycjvl80000gp/T//ccnMGHS5.s 			page 81


ARM GAS  /var/folders/l5/0x54b2c10074c8bt31ycjvl80000gp/T//ccnMGHS5.s 			page 82


DEFINED SYMBOLS
                            *ABS*:0000000000000000 i2c.c
/var/folders/l5/0x54b2c10074c8bt31ycjvl80000gp/T//ccnMGHS5.s:16     .text.i2cInit:0000000000000000 $a
/var/folders/l5/0x54b2c10074c8bt31ycjvl80000gp/T//ccnMGHS5.s:23     .text.i2cInit:0000000000000000 i2cInit
/var/folders/l5/0x54b2c10074c8bt31ycjvl80000gp/T//ccnMGHS5.s:38     .text.i2cObjectInit:0000000000000000 $a
/var/folders/l5/0x54b2c10074c8bt31ycjvl80000gp/T//ccnMGHS5.s:44     .text.i2cObjectInit:0000000000000000 i2cObjectInit
/var/folders/l5/0x54b2c10074c8bt31ycjvl80000gp/T//ccnMGHS5.s:73     .text.i2cStart:0000000000000000 $a
/var/folders/l5/0x54b2c10074c8bt31ycjvl80000gp/T//ccnMGHS5.s:79     .text.i2cStart:0000000000000000 i2cStart
/var/folders/l5/0x54b2c10074c8bt31ycjvl80000gp/T//ccnMGHS5.s:132    .text.i2cStop:0000000000000000 $a
/var/folders/l5/0x54b2c10074c8bt31ycjvl80000gp/T//ccnMGHS5.s:138    .text.i2cStop:0000000000000000 i2cStop
/var/folders/l5/0x54b2c10074c8bt31ycjvl80000gp/T//ccnMGHS5.s:188    .text.i2cGetErrors:0000000000000000 $a
/var/folders/l5/0x54b2c10074c8bt31ycjvl80000gp/T//ccnMGHS5.s:194    .text.i2cGetErrors:0000000000000000 i2cGetErrors
/var/folders/l5/0x54b2c10074c8bt31ycjvl80000gp/T//ccnMGHS5.s:214    .text.i2cMasterTransmitTimeout:0000000000000000 $a
/var/folders/l5/0x54b2c10074c8bt31ycjvl80000gp/T//ccnMGHS5.s:220    .text.i2cMasterTransmitTimeout:0000000000000000 i2cMasterTransmitTimeout
/var/folders/l5/0x54b2c10074c8bt31ycjvl80000gp/T//ccnMGHS5.s:302    .text.i2cMasterReceiveTimeout:0000000000000000 $a
/var/folders/l5/0x54b2c10074c8bt31ycjvl80000gp/T//ccnMGHS5.s:308    .text.i2cMasterReceiveTimeout:0000000000000000 i2cMasterReceiveTimeout
/var/folders/l5/0x54b2c10074c8bt31ycjvl80000gp/T//ccnMGHS5.s:384    .text.i2cAcquireBus:0000000000000000 $a
/var/folders/l5/0x54b2c10074c8bt31ycjvl80000gp/T//ccnMGHS5.s:390    .text.i2cAcquireBus:0000000000000000 i2cAcquireBus
/var/folders/l5/0x54b2c10074c8bt31ycjvl80000gp/T//ccnMGHS5.s:411    .text.i2cReleaseBus:0000000000000000 $a
/var/folders/l5/0x54b2c10074c8bt31ycjvl80000gp/T//ccnMGHS5.s:417    .text.i2cReleaseBus:0000000000000000 i2cReleaseBus

UNDEFINED SYMBOLS
i2c_lld_init
chMtxInit
i2c_lld_start
i2c_lld_stop
i2c_lld_master_transmit_timeout
i2c_lld_master_receive_timeout
chMtxLock
chMtxUnlock
