ARM GAS  /var/folders/l5/0x54b2c10074c8bt31ycjvl80000gp/T//ccOsUWHl.s 			page 1


   1              		.cpu arm1176jz-s
   2              		.eabi_attribute 20, 1
   3              		.eabi_attribute 21, 1
   4              		.eabi_attribute 23, 3
   5              		.eabi_attribute 24, 1
   6              		.eabi_attribute 25, 1
   7              		.eabi_attribute 26, 1
   8              		.eabi_attribute 30, 2
   9              		.eabi_attribute 34, 1
  10              		.eabi_attribute 18, 4
  11              		.file	"main.c"
  12              		.text
  13              	.Ltext0:
  14              		.cfi_sections	.debug_frame
  15              		.section	.text.led_set,"ax",%progbits
  16              		.align	2
  17              		.arch armv6kz
  18              		.syntax unified
  19              		.arm
  20              		.fpu softvfp
  21              		.type	led_set, %function
  22              	led_set:
  23              	.LVL0:
  24              	.LFB8:
  25              		.file 1 "main.c"
  26              		.loc 1 34 31 view -0
  27              		.cfi_startproc
  28              		@ args = 0, pretend = 0, frame = 0
  29              		@ frame_needed = 0, uses_anonymous_args = 0
  30              		.loc 1 35 3 view .LVU1
  31 0000 24009FE5 		ldr	r0, .L4
  32              	.LVL1:
  33              		.loc 1 34 31 is_stmt 0 view .LVU2
  34 0004 10402DE9 		push	{r4, lr}
  35              		.cfi_def_cfa_offset 8
  36              		.cfi_offset 4, -8
  37              		.cfi_offset 14, -4
  38              		.loc 1 35 3 view .LVU3
  39 0008 001090E5 		ldr	r1, [r0]
  40 000c 021481E3 		orr	r1, r1, #33554432
  41 0010 FEFFFFEB 		bl	_pal_lld_writeport
  42              	.LVL2:
  43              		.loc 1 36 3 is_stmt 1 view .LVU4
  44              		.loc 1 37 1 is_stmt 0 view .LVU5
  45 0014 1040BDE8 		pop	{r4, lr}
  46              		.cfi_restore 14
  47              		.cfi_restore 4
  48              		.cfi_def_cfa_offset 0
  49              		.loc 1 36 3 view .LVU6
  50 0018 0030A0E3 		mov	r3, #0
  51 001c 0C209FE5 		ldr	r2, .L4+4
  52 0020 7D1FA0E3 		mov	r1, #500
  53 0024 08009FE5 		ldr	r0, .L4+8
  54 0028 FEFFFFEA 		b	chVTSetI
  55              	.LVL3:
  56              	.L5:
  57              		.align	2
ARM GAS  /var/folders/l5/0x54b2c10074c8bt31ycjvl80000gp/T//ccOsUWHl.s 			page 2


  58              	.L4:
  59 002c 00000000 		.word	IOPORT0
  60 0030 00000000 		.word	led_clear
  61 0034 00000000 		.word	.LANCHOR0
  62              		.cfi_endproc
  63              	.LFE8:
  64              		.size	led_set, .-led_set
  65              		.section	.text.led_clear,"ax",%progbits
  66              		.align	2
  67              		.syntax unified
  68              		.arm
  69              		.fpu softvfp
  70              		.type	led_clear, %function
  71              	led_clear:
  72              	.LVL4:
  73              	.LFB7:
  74              		.loc 1 29 33 is_stmt 1 view -0
  75              		.cfi_startproc
  76              		@ args = 0, pretend = 0, frame = 0
  77              		@ frame_needed = 0, uses_anonymous_args = 0
  78              		.loc 1 30 3 view .LVU8
  79 0000 24009FE5 		ldr	r0, .L8
  80              	.LVL5:
  81              		.loc 1 29 33 is_stmt 0 view .LVU9
  82 0004 10402DE9 		push	{r4, lr}
  83              		.cfi_def_cfa_offset 8
  84              		.cfi_offset 4, -8
  85              		.cfi_offset 14, -4
  86              		.loc 1 30 3 view .LVU10
  87 0008 001090E5 		ldr	r1, [r0]
  88 000c 0214C1E3 		bic	r1, r1, #33554432
  89 0010 FEFFFFEB 		bl	_pal_lld_writeport
  90              	.LVL6:
  91              		.loc 1 31 3 is_stmt 1 view .LVU11
  92              		.loc 1 32 1 is_stmt 0 view .LVU12
  93 0014 1040BDE8 		pop	{r4, lr}
  94              		.cfi_restore 14
  95              		.cfi_restore 4
  96              		.cfi_def_cfa_offset 0
  97              		.loc 1 31 3 view .LVU13
  98 0018 0030A0E3 		mov	r3, #0
  99 001c 0C209FE5 		ldr	r2, .L8+4
 100 0020 7D1FA0E3 		mov	r1, #500
 101 0024 08009FE5 		ldr	r0, .L8+8
 102 0028 FEFFFFEA 		b	chVTSetI
 103              	.LVL7:
 104              	.L9:
 105              		.align	2
 106              	.L8:
 107 002c 00000000 		.word	IOPORT0
 108 0030 00000000 		.word	led_set
 109 0034 00000000 		.word	.LANCHOR1
 110              		.cfi_endproc
 111              	.LFE7:
 112              		.size	led_clear, .-led_clear
 113              		.section	.text.evaluator,"ax",%progbits
 114              		.align	2
ARM GAS  /var/folders/l5/0x54b2c10074c8bt31ycjvl80000gp/T//ccOsUWHl.s 			page 3


 115              		.syntax unified
 116              		.arm
 117              		.fpu softvfp
 118              		.type	evaluator, %function
 119              	evaluator:
 120              	.LVL8:
 121              	.LFB9:
 122              		.loc 1 40 33 is_stmt 1 view -0
 123              		.cfi_startproc
 124              		@ Volatile: function does not return.
 125              		@ args = 0, pretend = 0, frame = 0
 126              		@ frame_needed = 0, uses_anonymous_args = 0
 127              		.loc 1 41 3 view .LVU15
 128              		.loc 1 42 3 view .LVU16
 129              		.loc 1 40 33 is_stmt 0 view .LVU17
 130 0000 10402DE9 		push	{r4, lr}
 131              		.cfi_def_cfa_offset 8
 132              		.cfi_offset 4, -8
 133              		.cfi_offset 14, -4
 134 0004 34409FE5 		ldr	r4, .L16
 135              		.loc 1 42 3 view .LVU18
 136 0008 34309FE5 		ldr	r3, .L16+4
 137              		.loc 1 47 9 view .LVU19
 138 000c 0460A0E1 		mov	r6, r4
 139              		.loc 1 42 3 view .LVU20
 140 0010 183093E5 		ldr	r3, [r3, #24]
 141 0014 2C209FE5 		ldr	r2, .L16+8
 142 0018 2C509FE5 		ldr	r5, .L16+12
 143 001c 182083E5 		str	r2, [r3, #24]
 144              	.LVL9:
 145              	.L11:
 146              		.loc 1 43 3 is_stmt 1 view .LVU21
 147              		.loc 1 44 5 view .LVU22
 148              		.loc 1 45 7 view .LVU23
 149              		.loc 1 47 9 view .LVU24
 150              		.loc 1 44 7 is_stmt 0 view .LVU25
 151 0020 0C2095E5 		ldr	r2, [r5, #12]
 152 0024 003094E5 		ldr	r3, [r4]
 153 0028 000052E3 		cmp	r2, #0
 154              		.loc 1 45 7 view .LVU26
 155 002c 011783E3 		orr	r1, r3, #262144
 156              		.loc 1 47 9 view .LVU27
 157 0030 0600A0E1 		mov	r0, r6
 158 0034 0117C303 		biceq	r1, r3, #262144
 159 0038 FEFFFFEB 		bl	_pal_lld_writeport
 160              	.LVL10:
 161 003c F7FFFFEA 		b	.L11
 162              	.L17:
 163              		.align	2
 164              	.L16:
 165 0040 00000000 		.word	IOPORT0
 166 0044 00000000 		.word	rlist
 167 0048 00000000 		.word	.LC0
 168 004c 00000000 		.word	.LANCHOR1
 169              		.cfi_endproc
 170              	.LFE9:
 171              		.size	evaluator, .-evaluator
ARM GAS  /var/folders/l5/0x54b2c10074c8bt31ycjvl80000gp/T//ccOsUWHl.s 			page 4


 172              		.section	.text.startup.main,"ax",%progbits
 173              		.align	2
 174              		.global	main
 175              		.syntax unified
 176              		.arm
 177              		.fpu softvfp
 178              		.type	main, %function
 179              	main:
 180              	.LFB10:
 181              		.loc 1 54 17 is_stmt 1 view -0
 182              		.cfi_startproc
 183              		@ args = 0, pretend = 0, frame = 0
 184              		@ frame_needed = 0, uses_anonymous_args = 0
 185              		.loc 1 55 3 view .LVU29
 186              		.loc 1 54 17 is_stmt 0 view .LVU30
 187 0000 30402DE9 		push	{r4, r5, lr}
 188              		.cfi_def_cfa_offset 12
 189              		.cfi_offset 4, -12
 190              		.cfi_offset 5, -8
 191              		.cfi_offset 14, -4
 192              		.loc 1 61 3 view .LVU31
 193 0004 0040A0E3 		mov	r4, #0
 194              		.loc 1 58 3 view .LVU32
 195 0008 68509FE5 		ldr	r5, .L20
 196              		.loc 1 54 17 view .LVU33
 197 000c 0CD04DE2 		sub	sp, sp, #12
 198              		.cfi_def_cfa_offset 24
 199              		.loc 1 55 3 view .LVU34
 200 0010 FEFFFFEB 		bl	halInit
 201              	.LVL11:
 202              		.loc 1 56 3 is_stmt 1 view .LVU35
 203 0014 FEFFFFEB 		bl	chSysInit
 204              	.LVL12:
 205              		.loc 1 58 3 view .LVU36
 206 0018 0500A0E1 		mov	r0, r5
 207 001c FF20A0E3 		mov	r2, #255
 208 0020 0214A0E3 		mov	r1, #33554432
 209 0024 FEFFFFEB 		bl	_pal_lld_setgroupmode
 210              	.LVL13:
 211              		.loc 1 59 3 view .LVU37
 212 0028 0500A0E1 		mov	r0, r5
 213 002c FF20A0E3 		mov	r2, #255
 214 0030 0117A0E3 		mov	r1, #262144
 215 0034 FEFFFFEB 		bl	_pal_lld_setgroupmode
 216              	.LVL14:
 217              		.loc 1 61 3 view .LVU38
 218 0038 00408DE5 		str	r4, [sp]
 219 003c 38309FE5 		ldr	r3, .L20+4
 220 0040 0220A0E3 		mov	r2, #2
 221 0044 461FA0E3 		mov	r1, #280
 222 0048 30009FE5 		ldr	r0, .L20+8
 223 004c FEFFFFEB 		bl	chThdCreateStatic
 224              	.LVL15:
 225              		.loc 1 63 3 view .LVU39
 226 0050 0430A0E1 		mov	r3, r4
 227 0054 28209FE5 		ldr	r2, .L20+12
 228 0058 7D1FA0E3 		mov	r1, #500
ARM GAS  /var/folders/l5/0x54b2c10074c8bt31ycjvl80000gp/T//ccOsUWHl.s 			page 5


 229 005c 24009FE5 		ldr	r0, .L20+16
 230 0060 FEFFFFEB 		bl	chVTSetI
 231              	.LVL16:
 232              		.loc 1 65 3 view .LVU40
 233 0064 20309FE5 		ldr	r3, .L20+20
 234 0068 180093E5 		ldr	r0, [r3, #24]
 235              		.loc 1 67 1 is_stmt 0 view .LVU41
 236 006c 0CD08DE2 		add	sp, sp, #12
 237              		.cfi_def_cfa_offset 12
 238              		@ sp needed
 239 0070 3040BDE8 		pop	{r4, r5, lr}
 240              		.cfi_restore 14
 241              		.cfi_restore 5
 242              		.cfi_restore 4
 243              		.cfi_def_cfa_offset 0
 244              		.loc 1 65 3 view .LVU42
 245 0074 FEFFFFEA 		b	chThdWait
 246              	.LVL17:
 247              	.L21:
 248              		.align	2
 249              	.L20:
 250 0078 00000000 		.word	IOPORT0
 251 007c 00000000 		.word	evaluator
 252 0080 00000000 		.word	.LANCHOR2
 253 0084 00000000 		.word	led_set
 254 0088 00000000 		.word	.LANCHOR1
 255 008c 00000000 		.word	rlist
 256              		.cfi_endproc
 257              	.LFE10:
 258              		.size	main, .-main
 259              		.section	.bss.led_vt1,"aw",%nobits
 260              		.align	2
 261              		.set	.LANCHOR1,. + 0
 262              		.type	led_vt1, %object
 263              		.size	led_vt1, 20
 264              	led_vt1:
 265 0000 00000000 		.space	20
 265      00000000 
 265      00000000 
 265      00000000 
 265      00000000 
 266              		.section	.bss.led_vt2,"aw",%nobits
 267              		.align	2
 268              		.set	.LANCHOR0,. + 0
 269              		.type	led_vt2, %object
 270              		.size	led_vt2, 20
 271              	led_vt2:
 272 0000 00000000 		.space	20
 272      00000000 
 272      00000000 
 272      00000000 
 272      00000000 
 273              		.section	.bss.waThread1,"aw",%nobits
 274              		.align	2
 275              		.set	.LANCHOR2,. + 0
 276              		.type	waThread1, %object
 277              		.size	waThread1, 280
ARM GAS  /var/folders/l5/0x54b2c10074c8bt31ycjvl80000gp/T//ccOsUWHl.s 			page 6


 278              	waThread1:
 279 0000 00000000 		.space	280
 279      00000000 
 279      00000000 
 279      00000000 
 279      00000000 
 280              		.section	.rodata.evaluator.str1.4,"aMS",%progbits,1
 281              		.align	2
 282              	.LC0:
 283 0000 4576616C 		.ascii	"Evaluator\000"
 283      7561746F 
 283      7200
 284              		.text
 285              	.Letext0:
 286              		.file 2 "/usr/local/Cellar/arm-gcc-bin/8-2019-q3-update/lib/gcc/arm-none-eabi/8.3.1/include/stddef
 287              		.file 3 "/usr/local/Cellar/arm-gcc-bin/8-2019-q3-update/arm-none-eabi/include/machine/_default_typ
 288              		.file 4 "/usr/local/Cellar/arm-gcc-bin/8-2019-q3-update/arm-none-eabi/include/sys/_stdint.h"
 289              		.file 5 "../../os/ports/GCC/ARM/chtypes.h"
 290              		.file 6 "../../os/kernel/include/chlists.h"
 291              		.file 7 "../../os/kernel/include/chthreads.h"
 292              		.file 8 "../../os/ports/GCC/ARM/chcore.h"
 293              		.file 9 "../../os/kernel/include/chvt.h"
 294              		.file 10 "../../os/kernel/include/chschd.h"
 295              		.file 11 "../../os/kernel/include/chmtx.h"
 296              		.file 12 "../../os/kernel/include/chevents.h"
 297              		.file 13 "../../os/kernel/include/chregistry.h"
 298              		.file 14 "../../os/kernel/include/chqueues.h"
 299              		.file 15 "../../os/kernel/include/ch.h"
 300              		.file 16 "../../os/hal/platforms/BCM2835/bcm2835.h"
 301              		.file 17 "../../os/hal/platforms/BCM2835/pal_lld.h"
 302              		.file 18 "../../os/hal/include/i2c.h"
 303              		.file 19 "../../os/hal/platforms/BCM2835/i2c_lld.h"
 304              		.file 20 "../../os/hal/include/serial.h"
 305              		.file 21 "../../os/hal/include/spi.h"
 306              		.file 22 "../../os/hal/platforms/BCM2835/spi_lld.h"
 307              		.file 23 "../../os/hal/include/hal.h"
 308              		.file 24 "../../os/kernel/include/chsys.h"
 309              		.file 25 "../../os/hal/platforms/BCM2835/serial_lld.h"