ARM GAS  /var/folders/l5/0x54b2c10074c8bt31ycjvl80000gp/T//ccOsUWHl.s 			page 1


   1              		.cpu arm1176jz-s
   2              		.eabi_attribute 20, 1
   3              		.eabi_attribute 21, 1
   4              		.eabi_attribute 23, 3
   5              		.eabi_attribute 24, 1
   6              		.eabi_attribute 25, 1
   7              		.eabi_attribute 26, 1
   8              		.eabi_attribute 30, 2
   9              		.eabi_attribute 34, 1
  10              		.eabi_attribute 18, 4
  11              		.file	"main.c"
  12              		.text
  13              	.Ltext0:
  14              		.cfi_sections	.debug_frame
  15              		.section	.text.led_set,"ax",%progbits
  16              		.align	2
  17              		.arch armv6kz
  18              		.syntax unified
  19              		.arm
  20              		.fpu softvfp
  21              		.type	led_set, %function
  22              	led_set:
  23              	.LVL0:
  24              	.LFB8:
  25              		.file 1 "main.c"
  26              		.loc 1 34 31 view -0
  27              		.cfi_startproc
  28              		@ args = 0, pretend = 0, frame = 0
  29              		@ frame_needed = 0, uses_anonymous_args = 0
  30              		.loc 1 35 3 view .LVU1
  31 0000 24009FE5 		ldr	r0, .L4
  32              	.LVL1:
  33              		.loc 1 34 31 is_stmt 0 view .LVU2
  34 0004 10402DE9 		push	{r4, lr}
  35              		.cfi_def_cfa_offset 8
  36              		.cfi_offset 4, -8
  37              		.cfi_offset 14, -4
  38              		.loc 1 35 3 view .LVU3
  39 0008 001090E5 		ldr	r1, [r0]
  40 000c 021481E3 		orr	r1, r1, #33554432
  41 0010 FEFFFFEB 		bl	_pal_lld_writeport
  42              	.LVL2:
  43              		.loc 1 36 3 is_stmt 1 view .LVU4
  44              		.loc 1 37 1 is_stmt 0 view .LVU5
  45 0014 1040BDE8 		pop	{r4, lr}
  46              		.cfi_restore 14
  47              		.cfi_restore 4
  48              		.cfi_def_cfa_offset 0
  49              		.loc 1 36 3 view .LVU6
  50 0018 0030A0E3 		mov	r3, #0
  51 001c 0C209FE5 		ldr	r2, .L4+4
  52 0020 7D1FA0E3 		mov	r1, #500
  53 0024 08009FE5 		ldr	r0, .L4+8
  54 0028 FEFFFFEA 		b	chVTSetI
  55              	.LVL3:
  56              	.L5:
  57              		.align	2
ARM GAS  /var/folders/l5/0x54b2c10074c8bt31ycjvl80000gp/T//ccOsUWHl.s 			page 2


  58              	.L4:
  59 002c 00000000 		.word	IOPORT0
  60 0030 00000000 		.word	led_clear
  61 0034 00000000 		.word	.LANCHOR0
  62              		.cfi_endproc
  63              	.LFE8:
  64              		.size	led_set, .-led_set
  65              		.section	.text.led_clear,"ax",%progbits
  66              		.align	2
  67              		.syntax unified
  68              		.arm
  69              		.fpu softvfp
  70              		.type	led_clear, %function
  71              	led_clear:
  72              	.LVL4:
  73              	.LFB7:
  74              		.loc 1 29 33 is_stmt 1 view -0
  75              		.cfi_startproc
  76              		@ args = 0, pretend = 0, frame = 0
  77              		@ frame_needed = 0, uses_anonymous_args = 0
  78              		.loc 1 30 3 view .LVU8
  79 0000 24009FE5 		ldr	r0, .L8
  80              	.LVL5:
  81              		.loc 1 29 33 is_stmt 0 view .LVU9
  82 0004 10402DE9 		push	{r4, lr}
  83              		.cfi_def_cfa_offset 8
  84              		.cfi_offset 4, -8
  85              		.cfi_offset 14, -4
  86              		.loc 1 30 3 view .LVU10
  87 0008 001090E5 		ldr	r1, [r0]
  88 000c 0214C1E3 		bic	r1, r1, #33554432
  89 0010 FEFFFFEB 		bl	_pal_lld_writeport
  90              	.LVL6:
  91              		.loc 1 31 3 is_stmt 1 view .LVU11
  92              		.loc 1 32 1 is_stmt 0 view .LVU12
  93 0014 1040BDE8 		pop	{r4, lr}
  94              		.cfi_restore 14
  95              		.cfi_restore 4
  96              		.cfi_def_cfa_offset 0
  97              		.loc 1 31 3 view .LVU13
  98 0018 0030A0E3 		mov	r3, #0
  99 001c 0C209FE5 		ldr	r2, .L8+4
 100 0020 7D1FA0E3 		mov	r1, #500
 101 0024 08009FE5 		ldr	r0, .L8+8
 102 0028 FEFFFFEA 		b	chVTSetI
 103              	.LVL7:
 104              	.L9:
 105              		.align	2
 106              	.L8:
 107 002c 00000000 		.word	IOPORT0
 108 0030 00000000 		.word	led_set
 109 0034 00000000 		.word	.LANCHOR1
 110              		.cfi_endproc
 111              	.LFE7:
 112              		.size	led_clear, .-led_clear
 113              		.section	.text.evaluator,"ax",%progbits
 114              		.align	2
ARM GAS  /var/folders/l5/0x54b2c10074c8bt31ycjvl80000gp/T//ccOsUWHl.s 			page 3


 115              		.syntax unified
 116              		.arm
 117              		.fpu softvfp
 118              		.type	evaluator, %function
 119              	evaluator:
 120              	.LVL8:
 121              	.LFB9:
 122              		.loc 1 40 33 is_stmt 1 view -0
 123              		.cfi_startproc
 124              		@ Volatile: function does not return.
 125              		@ args = 0, pretend = 0, frame = 0
 126              		@ frame_needed = 0, uses_anonymous_args = 0
 127              		.loc 1 41 3 view .LVU15
 128              		.loc 1 42 3 view .LVU16
 129              		.loc 1 40 33 is_stmt 0 view .LVU17
 130 0000 10402DE9 		push	{r4, lr}
 131              		.cfi_def_cfa_offset 8
 132              		.cfi_offset 4, -8
 133              		.cfi_offset 14, -4
 134 0004 34409FE5 		ldr	r4, .L16
 135              		.loc 1 42 3 view .LVU18
 136 0008 34309FE5 		ldr	r3, .L16+4
 137              		.loc 1 47 9 view .LVU19
 138 000c 0460A0E1 		mov	r6, r4
 139              		.loc 1 42 3 view .LVU20
 140 0010 183093E5 		ldr	r3, [r3, #24]
 141 0014 2C209FE5 		ldr	r2, .L16+8
 142 0018 2C509FE5 		ldr	r5, .L16+12
 143 001c 182083E5 		str	r2, [r3, #24]
 144              	.LVL9:
 145              	.L11:
 146              		.loc 1 43 3 is_stmt 1 view .LVU21
 147              		.loc 1 44 5 view .LVU22
 148              		.loc 1 45 7 view .LVU23
 149              		.loc 1 47 9 view .LVU24
 150              		.loc 1 44 7 is_stmt 0 view .LVU25
 151 0020 0C2095E5 		ldr	r2, [r5, #12]
 152 0024 003094E5 		ldr	r3, [r4]
 153 0028 000052E3 		cmp	r2, #0
 154              		.loc 1 45 7 view .LVU26
 155 002c 011783E3 		orr	r1, r3, #262144
 156              		.loc 1 47 9 view .LVU27
 157 0030 0600A0E1 		mov	r0, r6
 158 0034 0117C303 		biceq	r1, r3, #262144
 159 0038 FEFFFFEB 		bl	_pal_lld_writeport
 160              	.LVL10:
 161 003c F7FFFFEA 		b	.L11
 162              	.L17:
 163              		.align	2
 164              	.L16:
 165 0040 00000000 		.word	IOPORT0
 166 0044 00000000 		.word	rlist
 167 0048 00000000 		.word	.LC0
 168 004c 00000000 		.word	.LANCHOR1
 169              		.cfi_endproc
 170              	.LFE9:
 171              		.size	evaluator, .-evaluator
ARM GAS  /var/folders/l5/0x54b2c10074c8bt31ycjvl80000gp/T//ccOsUWHl.s 			page 4


 172              		.section	.text.startup.main,"ax",%progbits
 173              		.align	2
 174              		.global	main
 175              		.syntax unified
 176              		.arm
 177              		.fpu softvfp
 178              		.type	main, %function
 179              	main:
 180              	.LFB10:
 181              		.loc 1 54 17 is_stmt 1 view -0
 182              		.cfi_startproc
 183              		@ args = 0, pretend = 0, frame = 0
 184              		@ frame_needed = 0, uses_anonymous_args = 0
 185              		.loc 1 55 3 view .LVU29
 186              		.loc 1 54 17 is_stmt 0 view .LVU30
 187 0000 30402DE9 		push	{r4, r5, lr}
 188              		.cfi_def_cfa_offset 12
 189              		.cfi_offset 4, -12
 190              		.cfi_offset 5, -8
 191              		.cfi_offset 14, -4
 192              		.loc 1 61 3 view .LVU31
 193 0004 0040A0E3 		mov	r4, #0
 194              		.loc 1 58 3 view .LVU32
 195 0008 68509FE5 		ldr	r5, .L20
 196              		.loc 1 54 17 view .LVU33
 197 000c 0CD04DE2 		sub	sp, sp, #12
 198              		.cfi_def_cfa_offset 24
 199              		.loc 1 55 3 view .LVU34
 200 0010 FEFFFFEB 		bl	halInit
 201              	.LVL11:
 202              		.loc 1 56 3 is_stmt 1 view .LVU35
 203 0014 FEFFFFEB 		bl	chSysInit
 204              	.LVL12:
 205              		.loc 1 58 3 view .LVU36
 206 0018 0500A0E1 		mov	r0, r5
 207 001c FF20A0E3 		mov	r2, #255
 208 0020 0214A0E3 		mov	r1, #33554432
 209 0024 FEFFFFEB 		bl	_pal_lld_setgroupmode
 210              	.LVL13:
 211              		.loc 1 59 3 view .LVU37
 212 0028 0500A0E1 		mov	r0, r5
 213 002c FF20A0E3 		mov	r2, #255
 214 0030 0117A0E3 		mov	r1, #262144
 215 0034 FEFFFFEB 		bl	_pal_lld_setgroupmode
 216              	.LVL14:
 217              		.loc 1 61 3 view .LVU38
 218 0038 00408DE5 		str	r4, [sp]
 219 003c 38309FE5 		ldr	r3, .L20+4
 220 0040 0220A0E3 		mov	r2, #2
 221 0044 461FA0E3 		mov	r1, #280
 222 0048 30009FE5 		ldr	r0, .L20+8
 223 004c FEFFFFEB 		bl	chThdCreateStatic
 224              	.LVL15:
 225              		.loc 1 63 3 view .LVU39
 226 0050 0430A0E1 		mov	r3, r4
 227 0054 28209FE5 		ldr	r2, .L20+12
 228 0058 7D1FA0E3 		mov	r1, #500
ARM GAS  /var/folders/l5/0x54b2c10074c8bt31ycjvl80000gp/T//ccOsUWHl.s 			page 5


 229 005c 24009FE5 		ldr	r0, .L20+16
 230 0060 FEFFFFEB 		bl	chVTSetI
 231              	.LVL16:
 232              		.loc 1 65 3 view .LVU40
 233 0064 20309FE5 		ldr	r3, .L20+20
 234 0068 180093E5 		ldr	r0, [r3, #24]
 235              		.loc 1 67 1 is_stmt 0 view .LVU41
 236 006c 0CD08DE2 		add	sp, sp, #12
 237              		.cfi_def_cfa_offset 12
 238              		@ sp needed
 239 0070 3040BDE8 		pop	{r4, r5, lr}
 240              		.cfi_restore 14
 241              		.cfi_restore 5
 242              		.cfi_restore 4
 243              		.cfi_def_cfa_offset 0
 244              		.loc 1 65 3 view .LVU42
 245 0074 FEFFFFEA 		b	chThdWait
 246              	.LVL17:
 247              	.L21:
 248              		.align	2
 249              	.L20:
 250 0078 00000000 		.word	IOPORT0
 251 007c 00000000 		.word	evaluator
 252 0080 00000000 		.word	.LANCHOR2
 253 0084 00000000 		.word	led_set
 254 0088 00000000 		.word	.LANCHOR1
 255 008c 00000000 		.word	rlist
 256              		.cfi_endproc
 257              	.LFE10:
 258              		.size	main, .-main
 259              		.section	.bss.led_vt1,"aw",%nobits
 260              		.align	2
 261              		.set	.LANCHOR1,. + 0
 262              		.type	led_vt1, %object
 263              		.size	led_vt1, 20
 264              	led_vt1:
 265 0000 00000000 		.space	20
 265      00000000 
 265      00000000 
 265      00000000 
 265      00000000 
 266              		.section	.bss.led_vt2,"aw",%nobits
 267              		.align	2
 268              		.set	.LANCHOR0,. + 0
 269              		.type	led_vt2, %object
 270              		.size	led_vt2, 20
 271              	led_vt2:
 272 0000 00000000 		.space	20
 272      00000000 
 272      00000000 
 272      00000000 
 272      00000000 
 273              		.section	.bss.waThread1,"aw",%nobits
 274              		.align	2
 275              		.set	.LANCHOR2,. + 0
 276              		.type	waThread1, %object
 277              		.size	waThread1, 280
ARM GAS  /var/folders/l5/0x54b2c10074c8bt31ycjvl80000gp/T//ccOsUWHl.s 			page 6


 278              	waThread1:
 279 0000 00000000 		.space	280
 279      00000000 
 279      00000000 
 279      00000000 
 279      00000000 
 280              		.section	.rodata.evaluator.str1.4,"aMS",%progbits,1
 281              		.align	2
 282              	.LC0:
 283 0000 4576616C 		.ascii	"Evaluator\000"
 283      7561746F 
 283      7200
 284              		.text
 285              	.Letext0:
 286              		.file 2 "/usr/local/Cellar/arm-gcc-bin/8-2019-q3-update/lib/gcc/arm-none-eabi/8.3.1/include/stddef
 287              		.file 3 "/usr/local/Cellar/arm-gcc-bin/8-2019-q3-update/arm-none-eabi/include/machine/_default_typ
 288              		.file 4 "/usr/local/Cellar/arm-gcc-bin/8-2019-q3-update/arm-none-eabi/include/sys/_stdint.h"
 289              		.file 5 "../../os/ports/GCC/ARM/chtypes.h"
 290              		.file 6 "../../os/kernel/include/chlists.h"
 291              		.file 7 "../../os/kernel/include/chthreads.h"
 292              		.file 8 "../../os/ports/GCC/ARM/chcore.h"
 293              		.file 9 "../../os/kernel/include/chvt.h"
 294              		.file 10 "../../os/kernel/include/chschd.h"
 295              		.file 11 "../../os/kernel/include/chmtx.h"
 296              		.file 12 "../../os/kernel/include/chevents.h"
 297              		.file 13 "../../os/kernel/include/chregistry.h"
 298              		.file 14 "../../os/kernel/include/chqueues.h"
 299              		.file 15 "../../os/kernel/include/ch.h"
 300              		.file 16 "../../os/hal/platforms/BCM2835/bcm2835.h"
 301              		.file 17 "../../os/hal/platforms/BCM2835/pal_lld.h"
 302              		.file 18 "../../os/hal/include/i2c.h"
 303              		.file 19 "../../os/hal/platforms/BCM2835/i2c_lld.h"
 304              		.file 20 "../../os/hal/include/serial.h"
 305              		.file 21 "../../os/hal/include/spi.h"
 306              		.file 22 "../../os/hal/platforms/BCM2835/spi_lld.h"
 307              		.file 23 "../../os/hal/include/hal.h"
 308              		.file 24 "../../os/kernel/include/chsys.h"
 309              		.file 25 "../../os/hal/platforms/BCM2835/serial_lld.h"
 310              		.section	.debug_info,"",%progbits
 311              	.Ldebug_info0:
 312 0000 57100000 		.4byte	0x1057
 313 0004 0400     		.2byte	0x4
 314 0006 00000000 		.4byte	.Ldebug_abbrev0
 315 000a 04       		.byte	0x4
 316 000b 01       		.uleb128 0x1
 317 000c 44030000 		.4byte	.LASF211
 318 0010 0C       		.byte	0xc
 319 0011 14040000 		.4byte	.LASF212
 320 0015 A5080000 		.4byte	.LASF213
 321 0019 00000000 		.4byte	.Ldebug_ranges0+0
 322 001d 00000000 		.4byte	0
 323 0021 00000000 		.4byte	.Ldebug_line0
 324 0025 02       		.uleb128 0x2
 325 0026 04       		.byte	0x4
 326 0027 05       		.byte	0x5
 327 0028 696E7400 		.ascii	"int\000"
 328 002c 03       		.uleb128 0x3
ARM GAS  /var/folders/l5/0x54b2c10074c8bt31ycjvl80000gp/T//ccOsUWHl.s 			page 7


 329 002d 13000000 		.4byte	.LASF2
 330 0031 02       		.byte	0x2
 331 0032 D8       		.byte	0xd8
 332 0033 17       		.byte	0x17
 333 0034 38000000 		.4byte	0x38
 334 0038 04       		.uleb128 0x4
 335 0039 04       		.byte	0x4
 336 003a 07       		.byte	0x7
 337 003b 73020000 		.4byte	.LASF0
 338 003f 05       		.uleb128 0x5
 339 0040 38000000 		.4byte	0x38
 340 0044 04       		.uleb128 0x4
 341 0045 01       		.byte	0x1
 342 0046 06       		.byte	0x6
 343 0047 F6000000 		.4byte	.LASF1
 344 004b 03       		.uleb128 0x3
 345 004c 33000000 		.4byte	.LASF3
 346 0050 03       		.byte	0x3
 347 0051 2B       		.byte	0x2b
 348 0052 18       		.byte	0x18
 349 0053 57000000 		.4byte	0x57
 350 0057 04       		.uleb128 0x4
 351 0058 01       		.byte	0x1
 352 0059 08       		.byte	0x8
 353 005a 07060000 		.4byte	.LASF4
 354 005e 04       		.uleb128 0x4
 355 005f 02       		.byte	0x2
 356 0060 05       		.byte	0x5
 357 0061 3E060000 		.4byte	.LASF5
 358 0065 03       		.uleb128 0x3
 359 0066 3E070000 		.4byte	.LASF6
 360 006a 03       		.byte	0x3
 361 006b 39       		.byte	0x39
 362 006c 19       		.byte	0x19
 363 006d 71000000 		.4byte	0x71
 364 0071 04       		.uleb128 0x4
 365 0072 02       		.byte	0x2
 366 0073 07       		.byte	0x7
 367 0074 02030000 		.4byte	.LASF7
 368 0078 03       		.uleb128 0x3
 369 0079 70070000 		.4byte	.LASF8
 370 007d 03       		.byte	0x3
 371 007e 4D       		.byte	0x4d
 372 007f 18       		.byte	0x18
 373 0080 84000000 		.4byte	0x84
 374 0084 04       		.uleb128 0x4
 375 0085 04       		.byte	0x4
 376 0086 05       		.byte	0x5
 377 0087 66010000 		.4byte	.LASF9
 378 008b 03       		.uleb128 0x3
 379 008c 23020000 		.4byte	.LASF10
 380 0090 03       		.byte	0x3
 381 0091 4F       		.byte	0x4f
 382 0092 19       		.byte	0x19
 383 0093 97000000 		.4byte	0x97
 384 0097 04       		.uleb128 0x4
 385 0098 04       		.byte	0x4
ARM GAS  /var/folders/l5/0x54b2c10074c8bt31ycjvl80000gp/T//ccOsUWHl.s 			page 8


 386 0099 07       		.byte	0x7
 387 009a AC020000 		.4byte	.LASF11
 388 009e 04       		.uleb128 0x4
 389 009f 08       		.byte	0x8
 390 00a0 05       		.byte	0x5
 391 00a1 E8000000 		.4byte	.LASF12
 392 00a5 04       		.uleb128 0x4
 393 00a6 08       		.byte	0x8
 394 00a7 07       		.byte	0x7
 395 00a8 6E000000 		.4byte	.LASF13
 396 00ac 03       		.uleb128 0x3
 397 00ad 53080000 		.4byte	.LASF14
 398 00b1 04       		.byte	0x4
 399 00b2 18       		.byte	0x18
 400 00b3 13       		.byte	0x13
 401 00b4 4B000000 		.4byte	0x4b
 402 00b8 06       		.uleb128 0x6
 403 00b9 AC000000 		.4byte	0xac
 404 00bd 03       		.uleb128 0x3
 405 00be 98010000 		.4byte	.LASF15
 406 00c2 04       		.byte	0x4
 407 00c3 24       		.byte	0x24
 408 00c4 14       		.byte	0x14
 409 00c5 65000000 		.4byte	0x65
 410 00c9 03       		.uleb128 0x3
 411 00ca FF050000 		.4byte	.LASF16
 412 00ce 04       		.byte	0x4
 413 00cf 2C       		.byte	0x2c
 414 00d0 13       		.byte	0x13
 415 00d1 78000000 		.4byte	0x78
 416 00d5 03       		.uleb128 0x3
 417 00d6 DB060000 		.4byte	.LASF17
 418 00da 04       		.byte	0x4
 419 00db 30       		.byte	0x30
 420 00dc 14       		.byte	0x14
 421 00dd 8B000000 		.4byte	0x8b
 422 00e1 05       		.uleb128 0x5
 423 00e2 D5000000 		.4byte	0xd5
 424 00e6 03       		.uleb128 0x3
 425 00e7 2C040000 		.4byte	.LASF18
 426 00eb 05       		.byte	0x5
 427 00ec 2A       		.byte	0x2a
 428 00ed 19       		.byte	0x19
 429 00ee AC000000 		.4byte	0xac
 430 00f2 03       		.uleb128 0x3
 431 00f3 6F010000 		.4byte	.LASF19
 432 00f7 05       		.byte	0x5
 433 00f8 2B       		.byte	0x2b
 434 00f9 19       		.byte	0x19
 435 00fa AC000000 		.4byte	0xac
 436 00fe 03       		.uleb128 0x3
 437 00ff A7050000 		.4byte	.LASF20
 438 0103 05       		.byte	0x5
 439 0104 2C       		.byte	0x2c
 440 0105 19       		.byte	0x19
 441 0106 AC000000 		.4byte	0xac
 442 010a 03       		.uleb128 0x3
ARM GAS  /var/folders/l5/0x54b2c10074c8bt31ycjvl80000gp/T//ccOsUWHl.s 			page 9


 443 010b DE050000 		.4byte	.LASF21
 444 010f 05       		.byte	0x5
 445 0110 2E       		.byte	0x2e
 446 0111 19       		.byte	0x19
 447 0112 D5000000 		.4byte	0xd5
 448 0116 03       		.uleb128 0x3
 449 0117 27030000 		.4byte	.LASF22
 450 011b 05       		.byte	0x5
 451 011c 2F       		.byte	0x2f
 452 011d 19       		.byte	0x19
 453 011e C9000000 		.4byte	0xc9
 454 0122 03       		.uleb128 0x3
 455 0123 53040000 		.4byte	.LASF23
 456 0127 05       		.byte	0x5
 457 0128 31       		.byte	0x31
 458 0129 19       		.byte	0x19
 459 012a D5000000 		.4byte	0xd5
 460 012e 03       		.uleb128 0x3
 461 012f FB070000 		.4byte	.LASF24
 462 0133 05       		.byte	0x5
 463 0134 32       		.byte	0x32
 464 0135 19       		.byte	0x19
 465 0136 D5000000 		.4byte	0xd5
 466 013a 03       		.uleb128 0x3
 467 013b 5B070000 		.4byte	.LASF25
 468 013f 05       		.byte	0x5
 469 0140 33       		.byte	0x33
 470 0141 19       		.byte	0x19
 471 0142 D5000000 		.4byte	0xd5
 472 0146 05       		.uleb128 0x5
 473 0147 3A010000 		.4byte	0x13a
 474 014b 03       		.uleb128 0x3
 475 014c 99060000 		.4byte	.LASF26
 476 0150 06       		.byte	0x6
 477 0151 23       		.byte	0x23
 478 0152 17       		.byte	0x17
 479 0153 57010000 		.4byte	0x157
 480 0157 07       		.uleb128 0x7
 481 0158 99060000 		.4byte	.LASF26
 482 015c 44       		.byte	0x44
 483 015d 07       		.byte	0x7
 484 015e 57       		.byte	0x57
 485 015f 08       		.byte	0x8
 486 0160 4F020000 		.4byte	0x24f
 487 0164 08       		.uleb128 0x8
 488 0165 73060000 		.4byte	.LASF27
 489 0169 07       		.byte	0x7
 490 016a 58       		.byte	0x58
 491 016b 1A       		.byte	0x1a
 492 016c 73020000 		.4byte	0x273
 493 0170 00       		.byte	0
 494 0171 08       		.uleb128 0x8
 495 0172 CF050000 		.4byte	.LASF28
 496 0176 07       		.byte	0x7
 497 0177 5A       		.byte	0x5a
 498 0178 1A       		.byte	0x1a
 499 0179 73020000 		.4byte	0x273
ARM GAS  /var/folders/l5/0x54b2c10074c8bt31ycjvl80000gp/T//ccOsUWHl.s 			page 10


 500 017d 04       		.byte	0x4
 501 017e 08       		.uleb128 0x8
 502 017f BD000000 		.4byte	.LASF29
 503 0183 07       		.byte	0x7
 504 0184 5C       		.byte	0x5c
 505 0185 19       		.byte	0x19
 506 0186 0A010000 		.4byte	0x10a
 507 018a 08       		.byte	0x8
 508 018b 08       		.uleb128 0x8
 509 018c 2B090000 		.4byte	.LASF30
 510 0190 07       		.byte	0x7
 511 0191 5D       		.byte	0x5d
 512 0192 19       		.byte	0x19
 513 0193 3E030000 		.4byte	0x33e
 514 0197 0C       		.byte	0xc
 515 0198 08       		.uleb128 0x8
 516 0199 CA010000 		.4byte	.LASF31
 517 019d 07       		.byte	0x7
 518 019e 5F       		.byte	0x5f
 519 019f 1A       		.byte	0x1a
 520 01a0 73020000 		.4byte	0x273
 521 01a4 10       		.byte	0x10
 522 01a5 08       		.uleb128 0x8
 523 01a6 18050000 		.4byte	.LASF32
 524 01aa 07       		.byte	0x7
 525 01ab 60       		.byte	0x60
 526 01ac 1A       		.byte	0x1a
 527 01ad 73020000 		.4byte	0x273
 528 01b1 14       		.byte	0x14
 529 01b2 08       		.uleb128 0x8
 530 01b3 76080000 		.4byte	.LASF33
 531 01b7 07       		.byte	0x7
 532 01b8 67       		.byte	0x67
 533 01b9 1A       		.byte	0x1a
 534 01ba 9F050000 		.4byte	0x59f
 535 01be 18       		.byte	0x18
 536 01bf 08       		.uleb128 0x8
 537 01c0 48060000 		.4byte	.LASF34
 538 01c4 07       		.byte	0x7
 539 01c5 72       		.byte	0x72
 540 01c6 19       		.byte	0x19
 541 01c7 F2000000 		.4byte	0xf2
 542 01cb 1C       		.byte	0x1c
 543 01cc 08       		.uleb128 0x8
 544 01cd 91060000 		.4byte	.LASF35
 545 01d1 07       		.byte	0x7
 546 01d2 76       		.byte	0x76
 547 01d3 19       		.byte	0x19
 548 01d4 E6000000 		.4byte	0xe6
 549 01d8 1D       		.byte	0x1d
 550 01d9 08       		.uleb128 0x8
 551 01da 2C080000 		.4byte	.LASF36
 552 01de 07       		.byte	0x7
 553 01df 7B       		.byte	0x7b
 554 01e0 19       		.byte	0x19
 555 01e1 FE000000 		.4byte	0xfe
 556 01e5 1E       		.byte	0x1e
ARM GAS  /var/folders/l5/0x54b2c10074c8bt31ycjvl80000gp/T//ccOsUWHl.s 			page 11


 557 01e6 08       		.uleb128 0x8
 558 01e7 8E070000 		.4byte	.LASF37
 559 01eb 07       		.byte	0x7
 560 01ec 88       		.byte	0x88
 561 01ed 19       		.byte	0x19
 562 01ee 46010000 		.4byte	0x146
 563 01f2 20       		.byte	0x20
 564 01f3 09       		.uleb128 0x9
 565 01f4 705F7500 		.ascii	"p_u\000"
 566 01f8 07       		.byte	0x7
 567 01f9 AD       		.byte	0xad
 568 01fa 19       		.byte	0x19
 569 01fb 65050000 		.4byte	0x565
 570 01ff 24       		.byte	0x24
 571 0200 08       		.uleb128 0x8
 572 0201 31090000 		.4byte	.LASF38
 573 0205 07       		.byte	0x7
 574 0206 B2       		.byte	0xb2
 575 0207 19       		.byte	0x19
 576 0208 9C020000 		.4byte	0x29c
 577 020c 28       		.byte	0x28
 578 020d 08       		.uleb128 0x8
 579 020e C1070000 		.4byte	.LASF39
 580 0212 07       		.byte	0x7
 581 0213 B8       		.byte	0xb8
 582 0214 19       		.byte	0x19
 583 0215 79020000 		.4byte	0x279
 584 0219 2C       		.byte	0x2c
 585 021a 08       		.uleb128 0x8
 586 021b 0D000000 		.4byte	.LASF40
 587 021f 07       		.byte	0x7
 588 0220 BC       		.byte	0xbc
 589 0221 19       		.byte	0x19
 590 0222 16010000 		.4byte	0x116
 591 0226 34       		.byte	0x34
 592 0227 08       		.uleb128 0x8
 593 0228 C6060000 		.4byte	.LASF41
 594 022c 07       		.byte	0x7
 595 022d C2       		.byte	0xc2
 596 022e 19       		.byte	0x19
 597 022f 22010000 		.4byte	0x122
 598 0233 38       		.byte	0x38
 599 0234 08       		.uleb128 0x8
 600 0235 34060000 		.4byte	.LASF42
 601 0239 07       		.byte	0x7
 602 023a C9       		.byte	0xc9
 603 023b 1A       		.byte	0x1a
 604 023c B1050000 		.4byte	0x5b1
 605 0240 3C       		.byte	0x3c
 606 0241 08       		.uleb128 0x8
 607 0242 65070000 		.4byte	.LASF43
 608 0246 07       		.byte	0x7
 609 0247 CD       		.byte	0xcd
 610 0248 19       		.byte	0x19
 611 0249 0A010000 		.4byte	0x10a
 612 024d 40       		.byte	0x40
 613 024e 00       		.byte	0
ARM GAS  /var/folders/l5/0x54b2c10074c8bt31ycjvl80000gp/T//ccOsUWHl.s 			page 12


 614 024f 0A       		.uleb128 0xa
 615 0250 08       		.byte	0x8
 616 0251 06       		.byte	0x6
 617 0252 5A       		.byte	0x5a
 618 0253 09       		.byte	0x9
 619 0254 73020000 		.4byte	0x273
 620 0258 08       		.uleb128 0x8
 621 0259 73060000 		.4byte	.LASF27
 622 025d 06       		.byte	0x6
 623 025e 5B       		.byte	0x5b
 624 025f 1A       		.byte	0x1a
 625 0260 73020000 		.4byte	0x273
 626 0264 00       		.byte	0
 627 0265 08       		.uleb128 0x8
 628 0266 CF050000 		.4byte	.LASF28
 629 026a 06       		.byte	0x6
 630 026b 5D       		.byte	0x5d
 631 026c 1A       		.byte	0x1a
 632 026d 73020000 		.4byte	0x273
 633 0271 04       		.byte	0x4
 634 0272 00       		.byte	0
 635 0273 0B       		.uleb128 0xb
 636 0274 04       		.byte	0x4
 637 0275 4B010000 		.4byte	0x14b
 638 0279 03       		.uleb128 0x3
 639 027a 36050000 		.4byte	.LASF44
 640 027e 06       		.byte	0x6
 641 027f 5F       		.byte	0x5f
 642 0280 03       		.byte	0x3
 643 0281 4F020000 		.4byte	0x24f
 644 0285 0A       		.uleb128 0xa
 645 0286 04       		.byte	0x4
 646 0287 06       		.byte	0x6
 647 0288 64       		.byte	0x64
 648 0289 09       		.byte	0x9
 649 028a 9C020000 		.4byte	0x29c
 650 028e 08       		.uleb128 0x8
 651 028f 73060000 		.4byte	.LASF27
 652 0293 06       		.byte	0x6
 653 0294 66       		.byte	0x66
 654 0295 16       		.byte	0x16
 655 0296 73020000 		.4byte	0x273
 656 029a 00       		.byte	0
 657 029b 00       		.byte	0
 658 029c 03       		.uleb128 0x3
 659 029d 47040000 		.4byte	.LASF45
 660 02a1 06       		.byte	0x6
 661 02a2 69       		.byte	0x69
 662 02a3 03       		.byte	0x3
 663 02a4 85020000 		.4byte	0x285
 664 02a8 03       		.uleb128 0x3
 665 02a9 7D040000 		.4byte	.LASF46
 666 02ad 08       		.byte	0x8
 667 02ae 9D       		.byte	0x9d
 668 02af 12       		.byte	0x12
 669 02b0 D5000000 		.4byte	0xd5
 670 02b4 03       		.uleb128 0x3
ARM GAS  /var/folders/l5/0x54b2c10074c8bt31ycjvl80000gp/T//ccOsUWHl.s 			page 13


 671 02b5 2E020000 		.4byte	.LASF47
 672 02b9 08       		.byte	0x8
 673 02ba A2       		.byte	0xa2
 674 02bb 0F       		.byte	0xf
 675 02bc C0020000 		.4byte	0x2c0
 676 02c0 0C       		.uleb128 0xc
 677 02c1 04       		.byte	0x4
 678 02c2 07       		.uleb128 0x7
 679 02c3 BA070000 		.4byte	.LASF48
 680 02c7 24       		.byte	0x24
 681 02c8 08       		.byte	0x8
 682 02c9 B9       		.byte	0xb9
 683 02ca 08       		.byte	0x8
 684 02cb 3E030000 		.4byte	0x33e
 685 02cf 09       		.uleb128 0x9
 686 02d0 723400   		.ascii	"r4\000"
 687 02d3 08       		.byte	0x8
 688 02d4 BA       		.byte	0xba
 689 02d5 11       		.byte	0x11
 690 02d6 B4020000 		.4byte	0x2b4
 691 02da 00       		.byte	0
 692 02db 09       		.uleb128 0x9
 693 02dc 723500   		.ascii	"r5\000"
 694 02df 08       		.byte	0x8
 695 02e0 BB       		.byte	0xbb
 696 02e1 11       		.byte	0x11
 697 02e2 B4020000 		.4byte	0x2b4
 698 02e6 04       		.byte	0x4
 699 02e7 09       		.uleb128 0x9
 700 02e8 723600   		.ascii	"r6\000"
 701 02eb 08       		.byte	0x8
 702 02ec BC       		.byte	0xbc
 703 02ed 11       		.byte	0x11
 704 02ee B4020000 		.4byte	0x2b4
 705 02f2 08       		.byte	0x8
 706 02f3 09       		.uleb128 0x9
 707 02f4 723700   		.ascii	"r7\000"
 708 02f7 08       		.byte	0x8
 709 02f8 BD       		.byte	0xbd
 710 02f9 11       		.byte	0x11
 711 02fa B4020000 		.4byte	0x2b4
 712 02fe 0C       		.byte	0xc
 713 02ff 09       		.uleb128 0x9
 714 0300 723800   		.ascii	"r8\000"
 715 0303 08       		.byte	0x8
 716 0304 BE       		.byte	0xbe
 717 0305 11       		.byte	0x11
 718 0306 B4020000 		.4byte	0x2b4
 719 030a 10       		.byte	0x10
 720 030b 09       		.uleb128 0x9
 721 030c 723900   		.ascii	"r9\000"
 722 030f 08       		.byte	0x8
 723 0310 BF       		.byte	0xbf
 724 0311 11       		.byte	0x11
 725 0312 B4020000 		.4byte	0x2b4
 726 0316 14       		.byte	0x14
 727 0317 09       		.uleb128 0x9
ARM GAS  /var/folders/l5/0x54b2c10074c8bt31ycjvl80000gp/T//ccOsUWHl.s 			page 14


 728 0318 72313000 		.ascii	"r10\000"
 729 031c 08       		.byte	0x8
 730 031d C0       		.byte	0xc0
 731 031e 11       		.byte	0x11
 732 031f B4020000 		.4byte	0x2b4
 733 0323 18       		.byte	0x18
 734 0324 09       		.uleb128 0x9
 735 0325 72313100 		.ascii	"r11\000"
 736 0329 08       		.byte	0x8
 737 032a C1       		.byte	0xc1
 738 032b 11       		.byte	0x11
 739 032c B4020000 		.4byte	0x2b4
 740 0330 1C       		.byte	0x1c
 741 0331 09       		.uleb128 0x9
 742 0332 6C7200   		.ascii	"lr\000"
 743 0335 08       		.byte	0x8
 744 0336 C2       		.byte	0xc2
 745 0337 11       		.byte	0x11
 746 0338 B4020000 		.4byte	0x2b4
 747 033c 20       		.byte	0x20
 748 033d 00       		.byte	0
 749 033e 07       		.uleb128 0x7
 750 033f F0020000 		.4byte	.LASF49
 751 0343 04       		.byte	0x4
 752 0344 08       		.byte	0x8
 753 0345 CA       		.byte	0xca
 754 0346 08       		.byte	0x8
 755 0347 59030000 		.4byte	0x359
 756 034b 09       		.uleb128 0x9
 757 034c 72313300 		.ascii	"r13\000"
 758 0350 08       		.byte	0x8
 759 0351 CB       		.byte	0xcb
 760 0352 12       		.byte	0x12
 761 0353 59030000 		.4byte	0x359
 762 0357 00       		.byte	0
 763 0358 00       		.byte	0
 764 0359 0B       		.uleb128 0xb
 765 035a 04       		.byte	0x4
 766 035b C2020000 		.4byte	0x2c2
 767 035f 03       		.uleb128 0x3
 768 0360 CC020000 		.4byte	.LASF50
 769 0364 09       		.byte	0x9
 770 0365 4E       		.byte	0x4e
 771 0366 10       		.byte	0x10
 772 0367 6B030000 		.4byte	0x36b
 773 036b 0B       		.uleb128 0xb
 774 036c 04       		.byte	0x4
 775 036d 71030000 		.4byte	0x371
 776 0371 0D       		.uleb128 0xd
 777 0372 7C030000 		.4byte	0x37c
 778 0376 0E       		.uleb128 0xe
 779 0377 C0020000 		.4byte	0x2c0
 780 037b 00       		.byte	0
 781 037c 03       		.uleb128 0x3
 782 037d F8060000 		.4byte	.LASF51
 783 0381 09       		.byte	0x9
 784 0382 53       		.byte	0x53
ARM GAS  /var/folders/l5/0x54b2c10074c8bt31ycjvl80000gp/T//ccOsUWHl.s 			page 15


 785 0383 1D       		.byte	0x1d
 786 0384 88030000 		.4byte	0x388
 787 0388 07       		.uleb128 0x7
 788 0389 F8060000 		.4byte	.LASF51
 789 038d 14       		.byte	0x14
 790 038e 09       		.byte	0x9
 791 038f 5A       		.byte	0x5a
 792 0390 08       		.byte	0x8
 793 0391 D7030000 		.4byte	0x3d7
 794 0395 08       		.uleb128 0x8
 795 0396 80020000 		.4byte	.LASF52
 796 039a 09       		.byte	0x9
 797 039b 5B       		.byte	0x5b
 798 039c 1A       		.byte	0x1a
 799 039d D7030000 		.4byte	0x3d7
 800 03a1 00       		.byte	0
 801 03a2 08       		.uleb128 0x8
 802 03a3 37020000 		.4byte	.LASF53
 803 03a7 09       		.byte	0x9
 804 03a8 5D       		.byte	0x5d
 805 03a9 1A       		.byte	0x1a
 806 03aa D7030000 		.4byte	0x3d7
 807 03ae 04       		.byte	0x4
 808 03af 08       		.uleb128 0x8
 809 03b0 B9040000 		.4byte	.LASF54
 810 03b4 09       		.byte	0x9
 811 03b5 5F       		.byte	0x5f
 812 03b6 19       		.byte	0x19
 813 03b7 3A010000 		.4byte	0x13a
 814 03bb 08       		.byte	0x8
 815 03bc 08       		.uleb128 0x8
 816 03bd E1040000 		.4byte	.LASF55
 817 03c1 09       		.byte	0x9
 818 03c2 60       		.byte	0x60
 819 03c3 19       		.byte	0x19
 820 03c4 5F030000 		.4byte	0x35f
 821 03c8 0C       		.byte	0xc
 822 03c9 08       		.uleb128 0x8
 823 03ca F4070000 		.4byte	.LASF56
 824 03ce 09       		.byte	0x9
 825 03cf 62       		.byte	0x62
 826 03d0 1A       		.byte	0x1a
 827 03d1 C0020000 		.4byte	0x2c0
 828 03d5 10       		.byte	0x10
 829 03d6 00       		.byte	0
 830 03d7 0B       		.uleb128 0xb
 831 03d8 04       		.byte	0x4
 832 03d9 7C030000 		.4byte	0x37c
 833 03dd 0A       		.uleb128 0xa
 834 03de 10       		.byte	0x10
 835 03df 09       		.byte	0x9
 836 03e0 6C       		.byte	0x6c
 837 03e1 09       		.byte	0x9
 838 03e2 1B040000 		.4byte	0x41b
 839 03e6 08       		.uleb128 0x8
 840 03e7 80020000 		.4byte	.LASF52
 841 03eb 09       		.byte	0x9
ARM GAS  /var/folders/l5/0x54b2c10074c8bt31ycjvl80000gp/T//ccOsUWHl.s 			page 16


 842 03ec 6D       		.byte	0x6d
 843 03ed 1A       		.byte	0x1a
 844 03ee D7030000 		.4byte	0x3d7
 845 03f2 00       		.byte	0
 846 03f3 08       		.uleb128 0x8
 847 03f4 37020000 		.4byte	.LASF53
 848 03f8 09       		.byte	0x9
 849 03f9 6F       		.byte	0x6f
 850 03fa 1A       		.byte	0x1a
 851 03fb D7030000 		.4byte	0x3d7
 852 03ff 04       		.byte	0x4
 853 0400 08       		.uleb128 0x8
 854 0401 B9040000 		.4byte	.LASF54
 855 0405 09       		.byte	0x9
 856 0406 71       		.byte	0x71
 857 0407 19       		.byte	0x19
 858 0408 3A010000 		.4byte	0x13a
 859 040c 08       		.byte	0x8
 860 040d 08       		.uleb128 0x8
 861 040e 7D080000 		.4byte	.LASF57
 862 0412 09       		.byte	0x9
 863 0413 72       		.byte	0x72
 864 0414 19       		.byte	0x19
 865 0415 46010000 		.4byte	0x146
 866 0419 0C       		.byte	0xc
 867 041a 00       		.byte	0
 868 041b 03       		.uleb128 0x3
 869 041c F8080000 		.4byte	.LASF58
 870 0420 09       		.byte	0x9
 871 0421 73       		.byte	0x73
 872 0422 03       		.byte	0x3
 873 0423 DD030000 		.4byte	0x3dd
 874 0427 0F       		.uleb128 0xf
 875 0428 48000000 		.4byte	.LASF66
 876 042c 09       		.byte	0x9
 877 042d D1       		.byte	0xd1
 878 042e 0F       		.byte	0xf
 879 042f 1B040000 		.4byte	0x41b
 880 0433 0A       		.uleb128 0xa
 881 0434 1C       		.byte	0x1c
 882 0435 0A       		.byte	0xa
 883 0436 57       		.byte	0x57
 884 0437 09       		.byte	0x9
 885 0438 8B040000 		.4byte	0x48b
 886 043c 08       		.uleb128 0x8
 887 043d F0060000 		.4byte	.LASF59
 888 0441 0A       		.byte	0xa
 889 0442 58       		.byte	0x58
 890 0443 19       		.byte	0x19
 891 0444 79020000 		.4byte	0x279
 892 0448 00       		.byte	0
 893 0449 08       		.uleb128 0x8
 894 044a 5C060000 		.4byte	.LASF60
 895 044e 0A       		.byte	0xa
 896 044f 59       		.byte	0x59
 897 0450 19       		.byte	0x19
 898 0451 0A010000 		.4byte	0x10a
ARM GAS  /var/folders/l5/0x54b2c10074c8bt31ycjvl80000gp/T//ccOsUWHl.s 			page 17


 899 0455 08       		.byte	0x8
 900 0456 08       		.uleb128 0x8
 901 0457 30050000 		.4byte	.LASF61
 902 045b 0A       		.byte	0xa
 903 045c 5B       		.byte	0x5b
 904 045d 19       		.byte	0x19
 905 045e 3E030000 		.4byte	0x33e
 906 0462 0C       		.byte	0xc
 907 0463 08       		.uleb128 0x8
 908 0464 34030000 		.4byte	.LASF62
 909 0468 0A       		.byte	0xa
 910 0469 5E       		.byte	0x5e
 911 046a 1A       		.byte	0x1a
 912 046b 73020000 		.4byte	0x273
 913 046f 10       		.byte	0x10
 914 0470 08       		.uleb128 0x8
 915 0471 65050000 		.4byte	.LASF63
 916 0475 0A       		.byte	0xa
 917 0476 5F       		.byte	0x5f
 918 0477 1A       		.byte	0x1a
 919 0478 73020000 		.4byte	0x273
 920 047c 14       		.byte	0x14
 921 047d 08       		.uleb128 0x8
 922 047e 5B050000 		.4byte	.LASF64
 923 0482 0A       		.byte	0xa
 924 0483 62       		.byte	0x62
 925 0484 1A       		.byte	0x1a
 926 0485 73020000 		.4byte	0x273
 927 0489 18       		.byte	0x18
 928 048a 00       		.byte	0
 929 048b 03       		.uleb128 0x3
 930 048c 3A080000 		.4byte	.LASF65
 931 0490 0A       		.byte	0xa
 932 0491 64       		.byte	0x64
 933 0492 03       		.byte	0x3
 934 0493 33040000 		.4byte	0x433
 935 0497 0F       		.uleb128 0xf
 936 0498 4D080000 		.4byte	.LASF67
 937 049c 0A       		.byte	0xa
 938 049d 68       		.byte	0x68
 939 049e 12       		.byte	0x12
 940 049f 8B040000 		.4byte	0x48b
 941 04a3 07       		.uleb128 0x7
 942 04a4 6A040000 		.4byte	.LASF68
 943 04a8 10       		.byte	0x10
 944 04a9 0B       		.byte	0xb
 945 04aa 25       		.byte	0x25
 946 04ab 10       		.byte	0x10
 947 04ac D8040000 		.4byte	0x4d8
 948 04b0 08       		.uleb128 0x8
 949 04b1 30010000 		.4byte	.LASF69
 950 04b5 0B       		.byte	0xb
 951 04b6 26       		.byte	0x26
 952 04b7 19       		.byte	0x19
 953 04b8 79020000 		.4byte	0x279
 954 04bc 00       		.byte	0
 955 04bd 08       		.uleb128 0x8
ARM GAS  /var/folders/l5/0x54b2c10074c8bt31ycjvl80000gp/T//ccOsUWHl.s 			page 18


 956 04be 10090000 		.4byte	.LASF70
 957 04c2 0B       		.byte	0xb
 958 04c3 28       		.byte	0x28
 959 04c4 1A       		.byte	0x1a
 960 04c5 73020000 		.4byte	0x273
 961 04c9 08       		.byte	0x8
 962 04ca 08       		.uleb128 0x8
 963 04cb 54070000 		.4byte	.LASF71
 964 04cf 0B       		.byte	0xb
 965 04d0 2A       		.byte	0x2a
 966 04d1 1A       		.byte	0x1a
 967 04d2 D8040000 		.4byte	0x4d8
 968 04d6 0C       		.byte	0xc
 969 04d7 00       		.byte	0
 970 04d8 0B       		.uleb128 0xb
 971 04d9 04       		.byte	0x4
 972 04da A3040000 		.4byte	0x4a3
 973 04de 03       		.uleb128 0x3
 974 04df 6A040000 		.4byte	.LASF68
 975 04e3 0B       		.byte	0xb
 976 04e4 2C       		.byte	0x2c
 977 04e5 03       		.byte	0x3
 978 04e6 A3040000 		.4byte	0x4a3
 979 04ea 03       		.uleb128 0x3
 980 04eb 61080000 		.4byte	.LASF72
 981 04ef 0C       		.byte	0xc
 982 04f0 25       		.byte	0x25
 983 04f1 1E       		.byte	0x1e
 984 04f2 F6040000 		.4byte	0x4f6
 985 04f6 07       		.uleb128 0x7
 986 04f7 61080000 		.4byte	.LASF72
 987 04fb 10       		.byte	0x10
 988 04fc 0C       		.byte	0xc
 989 04fd 2A       		.byte	0x2a
 990 04fe 08       		.byte	0x8
 991 04ff 38050000 		.4byte	0x538
 992 0503 08       		.uleb128 0x8
 993 0504 3C030000 		.4byte	.LASF73
 994 0508 0C       		.byte	0xc
 995 0509 2B       		.byte	0x2b
 996 050a 1A       		.byte	0x1a
 997 050b 38050000 		.4byte	0x538
 998 050f 00       		.byte	0
 999 0510 08       		.uleb128 0x8
 1000 0511 1F060000 		.4byte	.LASF74
 1001 0515 0C       		.byte	0xc
 1002 0516 2E       		.byte	0x2e
 1003 0517 1A       		.byte	0x1a
 1004 0518 73020000 		.4byte	0x273
 1005 051c 04       		.byte	0x4
 1006 051d 08       		.uleb128 0x8
 1007 051e 6D050000 		.4byte	.LASF75
 1008 0522 0C       		.byte	0xc
 1009 0523 30       		.byte	0x30
 1010 0524 19       		.byte	0x19
 1011 0525 22010000 		.4byte	0x122
 1012 0529 08       		.byte	0x8
ARM GAS  /var/folders/l5/0x54b2c10074c8bt31ycjvl80000gp/T//ccOsUWHl.s 			page 19


 1013 052a 08       		.uleb128 0x8
 1014 052b 2B060000 		.4byte	.LASF76
 1015 052f 0C       		.byte	0xc
 1016 0530 33       		.byte	0x33
 1017 0531 19       		.byte	0x19
 1018 0532 2E010000 		.4byte	0x12e
 1019 0536 0C       		.byte	0xc
 1020 0537 00       		.byte	0
 1021 0538 0B       		.uleb128 0xb
 1022 0539 04       		.byte	0x4
 1023 053a EA040000 		.4byte	0x4ea
 1024 053e 07       		.uleb128 0x7
 1025 053f 5F020000 		.4byte	.LASF77
 1026 0543 04       		.byte	0x4
 1027 0544 0C       		.byte	0xc
 1028 0545 3A       		.byte	0x3a
 1029 0546 10       		.byte	0x10
 1030 0547 59050000 		.4byte	0x559
 1031 054b 08       		.uleb128 0x8
 1032 054c 88080000 		.4byte	.LASF78
 1033 0550 0C       		.byte	0xc
 1034 0551 3B       		.byte	0x3b
 1035 0552 1A       		.byte	0x1a
 1036 0553 38050000 		.4byte	0x538
 1037 0557 00       		.byte	0
 1038 0558 00       		.byte	0
 1039 0559 03       		.uleb128 0x3
 1040 055a 5F020000 		.4byte	.LASF77
 1041 055e 0C       		.byte	0xc
 1042 055f 3E       		.byte	0x3e
 1043 0560 03       		.byte	0x3
 1044 0561 3E050000 		.4byte	0x53e
 1045 0565 10       		.uleb128 0x10
 1046 0566 04       		.byte	0x4
 1047 0567 07       		.byte	0x7
 1048 0568 8F       		.byte	0x8f
 1049 0569 03       		.byte	0x3
 1050 056a 9F050000 		.4byte	0x59f
 1051 056e 11       		.uleb128 0x11
 1052 056f 1A000000 		.4byte	.LASF79
 1053 0573 07       		.byte	0x7
 1054 0574 96       		.byte	0x96
 1055 0575 19       		.byte	0x19
 1056 0576 16010000 		.4byte	0x116
 1057 057a 11       		.uleb128 0x11
 1058 057b 93000000 		.4byte	.LASF80
 1059 057f 07       		.byte	0x7
 1060 0580 9D       		.byte	0x9d
 1061 0581 19       		.byte	0x19
 1062 0582 16010000 		.4byte	0x116
 1063 0586 11       		.uleb128 0x11
 1064 0587 6F080000 		.4byte	.LASF81
 1065 058b 07       		.byte	0x7
 1066 058c A4       		.byte	0xa4
 1067 058d 1A       		.byte	0x1a
 1068 058e C0020000 		.4byte	0x2c0
 1069 0592 11       		.uleb128 0x11
ARM GAS  /var/folders/l5/0x54b2c10074c8bt31ycjvl80000gp/T//ccOsUWHl.s 			page 20


 1070 0593 6C060000 		.4byte	.LASF82
 1071 0597 07       		.byte	0x7
 1072 0598 AB       		.byte	0xab
 1073 0599 19       		.byte	0x19
 1074 059a 22010000 		.4byte	0x122
 1075 059e 00       		.byte	0
 1076 059f 0B       		.uleb128 0xb
 1077 05a0 04       		.byte	0x4
 1078 05a1 AC050000 		.4byte	0x5ac
 1079 05a5 04       		.uleb128 0x4
 1080 05a6 01       		.byte	0x1
 1081 05a7 08       		.byte	0x8
 1082 05a8 25070000 		.4byte	.LASF83
 1083 05ac 06       		.uleb128 0x6
 1084 05ad A5050000 		.4byte	0x5a5
 1085 05b1 0B       		.uleb128 0xb
 1086 05b2 04       		.byte	0x4
 1087 05b3 DE040000 		.4byte	0x4de
 1088 05b7 0B       		.uleb128 0xb
 1089 05b8 04       		.byte	0x4
 1090 05b9 BD050000 		.4byte	0x5bd
 1091 05bd 12       		.uleb128 0x12
 1092 05be 16010000 		.4byte	0x116
 1093 05c2 CC050000 		.4byte	0x5cc
 1094 05c6 0E       		.uleb128 0xe
 1095 05c7 C0020000 		.4byte	0x2c0
 1096 05cb 00       		.byte	0
 1097 05cc 0A       		.uleb128 0xa
 1098 05cd 16       		.byte	0x16
 1099 05ce 0D       		.byte	0xd
 1100 05cf 25       		.byte	0x25
 1101 05d0 09       		.byte	0x9
 1102 05d1 C0060000 		.4byte	0x6c0
 1103 05d5 08       		.uleb128 0x8
 1104 05d6 3D010000 		.4byte	.LASF84
 1105 05da 0D       		.byte	0xd
 1106 05db 26       		.byte	0x26
 1107 05dc 0D       		.byte	0xd
 1108 05dd C0060000 		.4byte	0x6c0
 1109 05e1 00       		.byte	0
 1110 05e2 08       		.uleb128 0x8
 1111 05e3 9A040000 		.4byte	.LASF85
 1112 05e7 0D       		.byte	0xd
 1113 05e8 27       		.byte	0x27
 1114 05e9 0D       		.byte	0xd
 1115 05ea AC000000 		.4byte	0xac
 1116 05ee 04       		.byte	0x4
 1117 05ef 08       		.uleb128 0x8
 1118 05f0 4B050000 		.4byte	.LASF86
 1119 05f4 0D       		.byte	0xd
 1120 05f5 28       		.byte	0x28
 1121 05f6 0D       		.byte	0xd
 1122 05f7 AC000000 		.4byte	0xac
 1123 05fb 05       		.byte	0x5
 1124 05fc 08       		.uleb128 0x8
 1125 05fd 9A080000 		.4byte	.LASF87
 1126 0601 0D       		.byte	0xd
ARM GAS  /var/folders/l5/0x54b2c10074c8bt31ycjvl80000gp/T//ccOsUWHl.s 			page 21


 1127 0602 29       		.byte	0x29
 1128 0603 0D       		.byte	0xd
 1129 0604 BD000000 		.4byte	0xbd
 1130 0608 06       		.byte	0x6
 1131 0609 08       		.uleb128 0x8
 1132 060a BA050000 		.4byte	.LASF88
 1133 060e 0D       		.byte	0xd
 1134 060f 2A       		.byte	0x2a
 1135 0610 0D       		.byte	0xd
 1136 0611 AC000000 		.4byte	0xac
 1137 0615 08       		.byte	0x8
 1138 0616 08       		.uleb128 0x8
 1139 0617 E9040000 		.4byte	.LASF89
 1140 061b 0D       		.byte	0xd
 1141 061c 2B       		.byte	0x2b
 1142 061d 0D       		.byte	0xd
 1143 061e AC000000 		.4byte	0xac
 1144 0622 09       		.byte	0x9
 1145 0623 08       		.uleb128 0x8
 1146 0624 85000000 		.4byte	.LASF90
 1147 0628 0D       		.byte	0xd
 1148 0629 2C       		.byte	0x2c
 1149 062a 0D       		.byte	0xd
 1150 062b AC000000 		.4byte	0xac
 1151 062f 0A       		.byte	0xa
 1152 0630 08       		.uleb128 0x8
 1153 0631 E4060000 		.4byte	.LASF91
 1154 0635 0D       		.byte	0xd
 1155 0636 2D       		.byte	0x2d
 1156 0637 0D       		.byte	0xd
 1157 0638 AC000000 		.4byte	0xac
 1158 063c 0B       		.byte	0xb
 1159 063d 08       		.uleb128 0x8
 1160 063e 21080000 		.4byte	.LASF92
 1161 0642 0D       		.byte	0xd
 1162 0643 2E       		.byte	0x2e
 1163 0644 0D       		.byte	0xd
 1164 0645 AC000000 		.4byte	0xac
 1165 0649 0C       		.byte	0xc
 1166 064a 08       		.uleb128 0x8
 1167 064b AE060000 		.4byte	.LASF93
 1168 064f 0D       		.byte	0xd
 1169 0650 2F       		.byte	0x2f
 1170 0651 0D       		.byte	0xd
 1171 0652 AC000000 		.4byte	0xac
 1172 0656 0D       		.byte	0xd
 1173 0657 08       		.uleb128 0x8
 1174 0658 00000000 		.4byte	.LASF94
 1175 065c 0D       		.byte	0xd
 1176 065d 30       		.byte	0x30
 1177 065e 0D       		.byte	0xd
 1178 065f AC000000 		.4byte	0xac
 1179 0663 0E       		.byte	0xe
 1180 0664 08       		.uleb128 0x8
 1181 0665 03050000 		.4byte	.LASF95
 1182 0669 0D       		.byte	0xd
 1183 066a 31       		.byte	0x31
ARM GAS  /var/folders/l5/0x54b2c10074c8bt31ycjvl80000gp/T//ccOsUWHl.s 			page 22


 1184 066b 0D       		.byte	0xd
 1185 066c AC000000 		.4byte	0xac
 1186 0670 0F       		.byte	0xf
 1187 0671 08       		.uleb128 0x8
 1188 0672 02010000 		.4byte	.LASF96
 1189 0676 0D       		.byte	0xd
 1190 0677 32       		.byte	0x32
 1191 0678 0D       		.byte	0xd
 1192 0679 AC000000 		.4byte	0xac
 1193 067d 10       		.byte	0x10
 1194 067e 08       		.uleb128 0x8
 1195 067f C4000000 		.4byte	.LASF97
 1196 0683 0D       		.byte	0xd
 1197 0684 34       		.byte	0x34
 1198 0685 0D       		.byte	0xd
 1199 0686 AC000000 		.4byte	0xac
 1200 068a 11       		.byte	0x11
 1201 068b 08       		.uleb128 0x8
 1202 068c 1B010000 		.4byte	.LASF98
 1203 0690 0D       		.byte	0xd
 1204 0691 35       		.byte	0x35
 1205 0692 0D       		.byte	0xd
 1206 0693 AC000000 		.4byte	0xac
 1207 0697 12       		.byte	0x12
 1208 0698 08       		.uleb128 0x8
 1209 0699 A2040000 		.4byte	.LASF99
 1210 069d 0D       		.byte	0xd
 1211 069e 36       		.byte	0x36
 1212 069f 0D       		.byte	0xd
 1213 06a0 AC000000 		.4byte	0xac
 1214 06a4 13       		.byte	0x13
 1215 06a5 08       		.uleb128 0x8
 1216 06a6 82060000 		.4byte	.LASF100
 1217 06aa 0D       		.byte	0xd
 1218 06ab 37       		.byte	0x37
 1219 06ac 0D       		.byte	0xd
 1220 06ad AC000000 		.4byte	0xac
 1221 06b1 14       		.byte	0x14
 1222 06b2 08       		.uleb128 0x8
 1223 06b3 50060000 		.4byte	.LASF101
 1224 06b7 0D       		.byte	0xd
 1225 06b8 39       		.byte	0x39
 1226 06b9 0D       		.byte	0xd
 1227 06ba AC000000 		.4byte	0xac
 1228 06be 15       		.byte	0x15
 1229 06bf 00       		.byte	0
 1230 06c0 13       		.uleb128 0x13
 1231 06c1 A5050000 		.4byte	0x5a5
 1232 06c5 D0060000 		.4byte	0x6d0
 1233 06c9 14       		.uleb128 0x14
 1234 06ca 38000000 		.4byte	0x38
 1235 06ce 03       		.byte	0x3
 1236 06cf 00       		.byte	0
 1237 06d0 03       		.uleb128 0x3
 1238 06d1 A6010000 		.4byte	.LASF102
 1239 06d5 0D       		.byte	0xd
 1240 06d6 3A       		.byte	0x3a
ARM GAS  /var/folders/l5/0x54b2c10074c8bt31ycjvl80000gp/T//ccOsUWHl.s 			page 23


 1241 06d7 03       		.byte	0x3
 1242 06d8 CC050000 		.4byte	0x5cc
 1243 06dc 06       		.uleb128 0x6
 1244 06dd D0060000 		.4byte	0x6d0
 1245 06e1 0F       		.uleb128 0xf
 1246 06e2 BE020000 		.4byte	.LASF103
 1247 06e6 0D       		.byte	0xd
 1248 06e7 77       		.byte	0x77
 1249 06e8 1D       		.byte	0x1d
 1250 06e9 DC060000 		.4byte	0x6dc
 1251 06ed 03       		.uleb128 0x3
 1252 06ee 70040000 		.4byte	.LASF104
 1253 06f2 0E       		.byte	0xe
 1254 06f3 30       		.byte	0x30
 1255 06f4 1D       		.byte	0x1d
 1256 06f5 F9060000 		.4byte	0x6f9
 1257 06f9 07       		.uleb128 0x7
 1258 06fa 70040000 		.4byte	.LASF104
 1259 06fe 24       		.byte	0x24
 1260 06ff 0E       		.byte	0xe
 1261 0700 3E       		.byte	0x3e
 1262 0701 08       		.byte	0x8
 1263 0702 6F070000 		.4byte	0x76f
 1264 0706 08       		.uleb128 0x8
 1265 0707 DE000000 		.4byte	.LASF105
 1266 070b 0E       		.byte	0xe
 1267 070c 3F       		.byte	0x3f
 1268 070d 19       		.byte	0x19
 1269 070e 79020000 		.4byte	0x279
 1270 0712 00       		.byte	0
 1271 0713 08       		.uleb128 0x8
 1272 0714 D7040000 		.4byte	.LASF106
 1273 0718 0E       		.byte	0xe
 1274 0719 40       		.byte	0x40
 1275 071a 19       		.byte	0x19
 1276 071b 2C000000 		.4byte	0x2c
 1277 071f 08       		.byte	0x8
 1278 0720 08       		.uleb128 0x8
 1279 0721 8F010000 		.4byte	.LASF107
 1280 0725 0E       		.byte	0xe
 1281 0726 41       		.byte	0x41
 1282 0727 1A       		.byte	0x1a
 1283 0728 92070000 		.4byte	0x792
 1284 072c 0C       		.byte	0xc
 1285 072d 08       		.uleb128 0x8
 1286 072e 68000000 		.4byte	.LASF108
 1287 0732 0E       		.byte	0xe
 1288 0733 42       		.byte	0x42
 1289 0734 1A       		.byte	0x1a
 1290 0735 92070000 		.4byte	0x792
 1291 0739 10       		.byte	0x10
 1292 073a 08       		.uleb128 0x8
 1293 073b 28050000 		.4byte	.LASF109
 1294 073f 0E       		.byte	0xe
 1295 0740 44       		.byte	0x44
 1296 0741 1A       		.byte	0x1a
 1297 0742 92070000 		.4byte	0x792
ARM GAS  /var/folders/l5/0x54b2c10074c8bt31ycjvl80000gp/T//ccOsUWHl.s 			page 24


 1298 0746 14       		.byte	0x14
 1299 0747 08       		.uleb128 0x8
 1300 0748 E6050000 		.4byte	.LASF110
 1301 074c 0E       		.byte	0xe
 1302 074d 45       		.byte	0x45
 1303 074e 1A       		.byte	0x1a
 1304 074f 92070000 		.4byte	0x792
 1305 0753 18       		.byte	0x18
 1306 0754 08       		.uleb128 0x8
 1307 0755 44080000 		.4byte	.LASF111
 1308 0759 0E       		.byte	0xe
 1309 075a 46       		.byte	0x46
 1310 075b 19       		.byte	0x19
 1311 075c 6F070000 		.4byte	0x76f
 1312 0760 1C       		.byte	0x1c
 1313 0761 08       		.uleb128 0x8
 1314 0762 FF080000 		.4byte	.LASF112
 1315 0766 0E       		.byte	0xe
 1316 0767 47       		.byte	0x47
 1317 0768 1A       		.byte	0x1a
 1318 0769 C0020000 		.4byte	0x2c0
 1319 076d 20       		.byte	0x20
 1320 076e 00       		.byte	0
 1321 076f 03       		.uleb128 0x3
 1322 0770 C5050000 		.4byte	.LASF113
 1323 0774 0E       		.byte	0xe
 1324 0775 33       		.byte	0x33
 1325 0776 10       		.byte	0x10
 1326 0777 7B070000 		.4byte	0x77b
 1327 077b 0B       		.uleb128 0xb
 1328 077c 04       		.byte	0x4
 1329 077d 81070000 		.4byte	0x781
 1330 0781 0D       		.uleb128 0xd
 1331 0782 8C070000 		.4byte	0x78c
 1332 0786 0E       		.uleb128 0xe
 1333 0787 8C070000 		.4byte	0x78c
 1334 078b 00       		.byte	0
 1335 078c 0B       		.uleb128 0xb
 1336 078d 04       		.byte	0x4
 1337 078e ED060000 		.4byte	0x6ed
 1338 0792 0B       		.uleb128 0xb
 1339 0793 04       		.byte	0x4
 1340 0794 AC000000 		.4byte	0xac
 1341 0798 03       		.uleb128 0x3
 1342 0799 5F040000 		.4byte	.LASF114
 1343 079d 0E       		.byte	0xe
 1344 079e 7B       		.byte	0x7b
 1345 079f 16       		.byte	0x16
 1346 07a0 ED060000 		.4byte	0x6ed
 1347 07a4 03       		.uleb128 0x3
 1348 07a5 27000000 		.4byte	.LASF115
 1349 07a9 0E       		.byte	0xe
 1350 07aa EE       		.byte	0xee
 1351 07ab 16       		.byte	0x16
 1352 07ac ED060000 		.4byte	0x6ed
 1353 07b0 12       		.uleb128 0x12
 1354 07b1 2C000000 		.4byte	0x2c
ARM GAS  /var/folders/l5/0x54b2c10074c8bt31ycjvl80000gp/T//ccOsUWHl.s 			page 25


 1355 07b5 C9070000 		.4byte	0x7c9
 1356 07b9 0E       		.uleb128 0xe
 1357 07ba C0020000 		.4byte	0x2c0
 1358 07be 0E       		.uleb128 0xe
 1359 07bf C9070000 		.4byte	0x7c9
 1360 07c3 0E       		.uleb128 0xe
 1361 07c4 2C000000 		.4byte	0x2c
 1362 07c8 00       		.byte	0
 1363 07c9 0B       		.uleb128 0xb
 1364 07ca 04       		.byte	0x4
 1365 07cb B8000000 		.4byte	0xb8
 1366 07cf 0B       		.uleb128 0xb
 1367 07d0 04       		.byte	0x4
 1368 07d1 B0070000 		.4byte	0x7b0
 1369 07d5 12       		.uleb128 0x12
 1370 07d6 2C000000 		.4byte	0x2c
 1371 07da EE070000 		.4byte	0x7ee
 1372 07de 0E       		.uleb128 0xe
 1373 07df C0020000 		.4byte	0x2c0
 1374 07e3 0E       		.uleb128 0xe
 1375 07e4 92070000 		.4byte	0x792
 1376 07e8 0E       		.uleb128 0xe
 1377 07e9 2C000000 		.4byte	0x2c
 1378 07ed 00       		.byte	0
 1379 07ee 0B       		.uleb128 0xb
 1380 07ef 04       		.byte	0x4
 1381 07f0 D5070000 		.4byte	0x7d5
 1382 07f4 12       		.uleb128 0x12
 1383 07f5 16010000 		.4byte	0x116
 1384 07f9 08080000 		.4byte	0x808
 1385 07fd 0E       		.uleb128 0xe
 1386 07fe C0020000 		.4byte	0x2c0
 1387 0802 0E       		.uleb128 0xe
 1388 0803 AC000000 		.4byte	0xac
 1389 0807 00       		.byte	0
 1390 0808 0B       		.uleb128 0xb
 1391 0809 04       		.byte	0x4
 1392 080a F4070000 		.4byte	0x7f4
 1393 080e 13       		.uleb128 0x13
 1394 080f A8020000 		.4byte	0x2a8
 1395 0813 1E080000 		.4byte	0x81e
 1396 0817 14       		.uleb128 0x14
 1397 0818 38000000 		.4byte	0x38
 1398 081c 26       		.byte	0x26
 1399 081d 00       		.byte	0
 1400 081e 0F       		.uleb128 0xf
 1401 081f D2010000 		.4byte	.LASF116
 1402 0823 0F       		.byte	0xf
 1403 0824 82       		.byte	0x82
 1404 0825 08       		.byte	0x8
 1405 0826 0E080000 		.4byte	0x80e
 1406 082a 07       		.uleb128 0x7
 1407 082b 4F000000 		.4byte	.LASF117
 1408 082f 20       		.byte	0x20
 1409 0830 10       		.byte	0x10
 1410 0831 FD       		.byte	0xfd
 1411 0832 08       		.byte	0x8
ARM GAS  /var/folders/l5/0x54b2c10074c8bt31ycjvl80000gp/T//ccOsUWHl.s 			page 26


 1412 0833 A6080000 		.4byte	0x8a6
 1413 0837 08       		.uleb128 0x8
 1414 0838 1B020000 		.4byte	.LASF118
 1415 083c 10       		.byte	0x10
 1416 083d FE       		.byte	0xfe
 1417 083e 19       		.byte	0x19
 1418 083f 3F000000 		.4byte	0x3f
 1419 0843 00       		.byte	0
 1420 0844 08       		.uleb128 0x8
 1421 0845 33080000 		.4byte	.LASF119
 1422 0849 10       		.byte	0x10
 1423 084a FF       		.byte	0xff
 1424 084b 19       		.byte	0x19
 1425 084c 3F000000 		.4byte	0x3f
 1426 0850 04       		.byte	0x4
 1427 0851 15       		.uleb128 0x15
 1428 0852 ED080000 		.4byte	.LASF120
 1429 0856 10       		.byte	0x10
 1430 0857 0001     		.2byte	0x100
 1431 0859 19       		.byte	0x19
 1432 085a 3F000000 		.4byte	0x3f
 1433 085e 08       		.byte	0x8
 1434 085f 15       		.uleb128 0x15
 1435 0860 3F020000 		.4byte	.LASF121
 1436 0864 10       		.byte	0x10
 1437 0865 0101     		.2byte	0x101
 1438 0867 19       		.byte	0x19
 1439 0868 3F000000 		.4byte	0x3f
 1440 086c 0C       		.byte	0xc
 1441 086d 15       		.uleb128 0x15
 1442 086e AC000000 		.4byte	.LASF122
 1443 0872 10       		.byte	0x10
 1444 0873 0201     		.2byte	0x102
 1445 0875 19       		.byte	0x19
 1446 0876 3F000000 		.4byte	0x3f
 1447 087a 10       		.byte	0x10
 1448 087b 15       		.uleb128 0x15
 1449 087c CA040000 		.4byte	.LASF123
 1450 0880 10       		.byte	0x10
 1451 0881 0301     		.2byte	0x103
 1452 0883 19       		.byte	0x19
 1453 0884 3F000000 		.4byte	0x3f
 1454 0888 14       		.byte	0x14
 1455 0889 15       		.uleb128 0x15
 1456 088a 7F010000 		.4byte	.LASF124
 1457 088e 10       		.byte	0x10
 1458 088f 0401     		.2byte	0x104
 1459 0891 19       		.byte	0x19
 1460 0892 3F000000 		.4byte	0x3f
 1461 0896 18       		.byte	0x18
 1462 0897 15       		.uleb128 0x15
 1463 0898 43090000 		.4byte	.LASF125
 1464 089c 10       		.byte	0x10
 1465 089d 0501     		.2byte	0x105
 1466 089f 19       		.byte	0x19
 1467 08a0 3F000000 		.4byte	0x3f
 1468 08a4 1C       		.byte	0x1c
ARM GAS  /var/folders/l5/0x54b2c10074c8bt31ycjvl80000gp/T//ccOsUWHl.s 			page 27


 1469 08a5 00       		.byte	0
 1470 08a6 16       		.uleb128 0x16
 1471 08a7 4F000000 		.4byte	.LASF117
 1472 08ab 10       		.byte	0x10
 1473 08ac 0801     		.2byte	0x108
 1474 08ae 1C       		.byte	0x1c
 1475 08af 2A080000 		.4byte	0x82a
 1476 08b3 12       		.uleb128 0x12
 1477 08b4 16010000 		.4byte	0x116
 1478 08b8 CC080000 		.4byte	0x8cc
 1479 08bc 0E       		.uleb128 0xe
 1480 08bd C0020000 		.4byte	0x2c0
 1481 08c1 0E       		.uleb128 0xe
 1482 08c2 AC000000 		.4byte	0xac
 1483 08c6 0E       		.uleb128 0xe
 1484 08c7 3A010000 		.4byte	0x13a
 1485 08cb 00       		.byte	0
 1486 08cc 0B       		.uleb128 0xb
 1487 08cd 04       		.byte	0x4
 1488 08ce B3080000 		.4byte	0x8b3
 1489 08d2 12       		.uleb128 0x12
 1490 08d3 16010000 		.4byte	0x116
 1491 08d7 E6080000 		.4byte	0x8e6
 1492 08db 0E       		.uleb128 0xe
 1493 08dc C0020000 		.4byte	0x2c0
 1494 08e0 0E       		.uleb128 0xe
 1495 08e1 3A010000 		.4byte	0x13a
 1496 08e5 00       		.byte	0
 1497 08e6 0B       		.uleb128 0xb
 1498 08e7 04       		.byte	0x4
 1499 08e8 D2080000 		.4byte	0x8d2
 1500 08ec 12       		.uleb128 0x12
 1501 08ed 2C000000 		.4byte	0x2c
 1502 08f1 0A090000 		.4byte	0x90a
 1503 08f5 0E       		.uleb128 0xe
 1504 08f6 C0020000 		.4byte	0x2c0
 1505 08fa 0E       		.uleb128 0xe
 1506 08fb C9070000 		.4byte	0x7c9
 1507 08ff 0E       		.uleb128 0xe
 1508 0900 2C000000 		.4byte	0x2c
 1509 0904 0E       		.uleb128 0xe
 1510 0905 3A010000 		.4byte	0x13a
 1511 0909 00       		.byte	0
 1512 090a 0B       		.uleb128 0xb
 1513 090b 04       		.byte	0x4
 1514 090c EC080000 		.4byte	0x8ec
 1515 0910 12       		.uleb128 0x12
 1516 0911 2C000000 		.4byte	0x2c
 1517 0915 2E090000 		.4byte	0x92e
 1518 0919 0E       		.uleb128 0xe
 1519 091a C0020000 		.4byte	0x2c0
 1520 091e 0E       		.uleb128 0xe
 1521 091f 92070000 		.4byte	0x792
 1522 0923 0E       		.uleb128 0xe
 1523 0924 2C000000 		.4byte	0x2c
 1524 0928 0E       		.uleb128 0xe
 1525 0929 3A010000 		.4byte	0x13a
ARM GAS  /var/folders/l5/0x54b2c10074c8bt31ycjvl80000gp/T//ccOsUWHl.s 			page 28


 1526 092d 00       		.byte	0
 1527 092e 0B       		.uleb128 0xb
 1528 092f 04       		.byte	0x4
 1529 0930 10090000 		.4byte	0x910
 1530 0934 0A       		.uleb128 0xa
 1531 0935 18       		.byte	0x18
 1532 0936 11       		.byte	0x11
 1533 0937 2A       		.byte	0x2a
 1534 0938 09       		.byte	0x9
 1535 0939 8C090000 		.4byte	0x98c
 1536 093d 08       		.uleb128 0x8
 1537 093e 5B080000 		.4byte	.LASF126
 1538 0942 11       		.byte	0x11
 1539 0943 2F       		.byte	0x2f
 1540 0944 15       		.byte	0x15
 1541 0945 D5000000 		.4byte	0xd5
 1542 0949 00       		.byte	0
 1543 094a 08       		.uleb128 0x8
 1544 094b 75050000 		.4byte	.LASF127
 1545 094f 11       		.byte	0x11
 1546 0950 31       		.byte	0x31
 1547 0951 16       		.byte	0x16
 1548 0952 8C090000 		.4byte	0x98c
 1549 0956 04       		.byte	0x4
 1550 0957 08       		.uleb128 0x8
 1551 0958 21030000 		.4byte	.LASF128
 1552 095c 11       		.byte	0x11
 1553 095d 32       		.byte	0x32
 1554 095e 16       		.byte	0x16
 1555 095f 8C090000 		.4byte	0x98c
 1556 0963 08       		.byte	0x8
 1557 0964 08       		.uleb128 0x8
 1558 0965 AE040000 		.4byte	.LASF129
 1559 0969 11       		.byte	0x11
 1560 096a 33       		.byte	0x33
 1561 096b 16       		.byte	0x16
 1562 096c 8C090000 		.4byte	0x98c
 1563 0970 0C       		.byte	0xc
 1564 0971 08       		.uleb128 0x8
 1565 0972 7B050000 		.4byte	.LASF130
 1566 0976 11       		.byte	0x11
 1567 0977 34       		.byte	0x34
 1568 0978 16       		.byte	0x16
 1569 0979 8C090000 		.4byte	0x98c
 1570 097d 10       		.byte	0x10
 1571 097e 08       		.uleb128 0x8
 1572 097f 63060000 		.4byte	.LASF131
 1573 0983 11       		.byte	0x11
 1574 0984 35       		.byte	0x35
 1575 0985 10       		.byte	0x10
 1576 0986 38000000 		.4byte	0x38
 1577 098a 14       		.byte	0x14
 1578 098b 00       		.byte	0
 1579 098c 0B       		.uleb128 0xb
 1580 098d 04       		.byte	0x4
 1581 098e E1000000 		.4byte	0xe1
 1582 0992 03       		.uleb128 0x3
ARM GAS  /var/folders/l5/0x54b2c10074c8bt31ycjvl80000gp/T//ccOsUWHl.s 			page 29


 1583 0993 15030000 		.4byte	.LASF132
 1584 0997 11       		.byte	0x11
 1585 0998 37       		.byte	0x37
 1586 0999 03       		.byte	0x3
 1587 099a 34090000 		.4byte	0x934
 1588 099e 17       		.uleb128 0x17
 1589 099f 00       		.byte	0
 1590 09a0 11       		.byte	0x11
 1591 09a1 43       		.byte	0x43
 1592 09a2 09       		.byte	0x9
 1593 09a3 03       		.uleb128 0x3
 1594 09a4 06090000 		.4byte	.LASF133
 1595 09a8 11       		.byte	0x11
 1596 09a9 45       		.byte	0x45
 1597 09aa 03       		.byte	0x3
 1598 09ab 9E090000 		.4byte	0x99e
 1599 09af 06       		.uleb128 0x6
 1600 09b0 A3090000 		.4byte	0x9a3
 1601 09b4 03       		.uleb128 0x3
 1602 09b5 5B000000 		.4byte	.LASF134
 1603 09b9 11       		.byte	0x11
 1604 09ba 55       		.byte	0x55
 1605 09bb 12       		.byte	0x12
 1606 09bc D5000000 		.4byte	0xd5
 1607 09c0 0F       		.uleb128 0xf
 1608 09c1 53050000 		.4byte	.LASF135
 1609 09c5 11       		.byte	0x11
 1610 09c6 6D       		.byte	0x6d
 1611 09c7 14       		.byte	0x14
 1612 09c8 92090000 		.4byte	0x992
 1613 09cc 0F       		.uleb128 0xf
 1614 09cd 7A060000 		.4byte	.LASF136
 1615 09d1 11       		.byte	0x11
 1616 09d2 6E       		.byte	0x6e
 1617 09d3 14       		.byte	0x14
 1618 09d4 92090000 		.4byte	0x992
 1619 09d8 0F       		.uleb128 0xf
 1620 09d9 18090000 		.4byte	.LASF137
 1621 09dd 11       		.byte	0x11
 1622 09de 75       		.byte	0x75
 1623 09df 18       		.byte	0x18
 1624 09e0 AF090000 		.4byte	0x9af
 1625 09e4 18       		.uleb128 0x18
 1626 09e5 07       		.byte	0x7
 1627 09e6 01       		.byte	0x1
 1628 09e7 57000000 		.4byte	0x57
 1629 09eb 12       		.byte	0x12
 1630 09ec 54       		.byte	0x54
 1631 09ed 0E       		.byte	0xe
 1632 09ee 170A0000 		.4byte	0xa17
 1633 09f2 19       		.uleb128 0x19
 1634 09f3 4B010000 		.4byte	.LASF138
 1635 09f7 00       		.byte	0
 1636 09f8 19       		.uleb128 0x19
 1637 09f9 C1040000 		.4byte	.LASF139
 1638 09fd 01       		.byte	0x1
 1639 09fe 19       		.uleb128 0x19
ARM GAS  /var/folders/l5/0x54b2c10074c8bt31ycjvl80000gp/T//ccOsUWHl.s 			page 30


 1640 09ff 7A070000 		.4byte	.LASF140
 1641 0a03 02       		.byte	0x2
 1642 0a04 19       		.uleb128 0x19
 1643 0a05 B0010000 		.4byte	.LASF141
 1644 0a09 03       		.byte	0x3
 1645 0a0a 19       		.uleb128 0x19
 1646 0a0b 12070000 		.4byte	.LASF142
 1647 0a0f 04       		.byte	0x4
 1648 0a10 19       		.uleb128 0x19
 1649 0a11 BB060000 		.4byte	.LASF143
 1650 0a15 05       		.byte	0x5
 1651 0a16 00       		.byte	0
 1652 0a17 03       		.uleb128 0x3
 1653 0a18 AF050000 		.4byte	.LASF144
 1654 0a1c 12       		.byte	0x12
 1655 0a1d 5B       		.byte	0x5b
 1656 0a1e 03       		.byte	0x3
 1657 0a1f E4090000 		.4byte	0x9e4
 1658 0a23 03       		.uleb128 0x3
 1659 0a24 84070000 		.4byte	.LASF145
 1660 0a28 13       		.byte	0x13
 1661 0a29 38       		.byte	0x38
 1662 0a2a 1A       		.byte	0x1a
 1663 0a2b 2F0A0000 		.4byte	0xa2f
 1664 0a2f 07       		.uleb128 0x7
 1665 0a30 84070000 		.4byte	.LASF145
 1666 0a34 40       		.byte	0x40
 1667 0a35 13       		.byte	0x13
 1668 0a36 62       		.byte	0x62
 1669 0a37 08       		.byte	0x8
 1670 0a38 E60A0000 		.4byte	0xae6
 1671 0a3c 08       		.uleb128 0x8
 1672 0a3d 60010000 		.4byte	.LASF146
 1673 0a41 13       		.byte	0x13
 1674 0a42 64       		.byte	0x64
 1675 0a43 1D       		.byte	0x1d
 1676 0a44 170A0000 		.4byte	0xa17
 1677 0a48 00       		.byte	0
 1678 0a49 08       		.uleb128 0x8
 1679 0a4a 37070000 		.4byte	.LASF147
 1680 0a4e 13       		.byte	0x13
 1681 0a4f 66       		.byte	0x66
 1682 0a50 1E       		.byte	0x1e
 1683 0a51 260B0000 		.4byte	0xb26
 1684 0a55 04       		.byte	0x4
 1685 0a56 08       		.uleb128 0x8
 1686 0a57 9E020000 		.4byte	.LASF148
 1687 0a5b 13       		.byte	0x13
 1688 0a5c 68       		.byte	0x68
 1689 0a5d 1D       		.byte	0x1d
 1690 0a5e E60A0000 		.4byte	0xae6
 1691 0a62 08       		.byte	0x8
 1692 0a63 08       		.uleb128 0x8
 1693 0a64 D7000000 		.4byte	.LASF149
 1694 0a68 13       		.byte	0x13
 1695 0a69 6A       		.byte	0x6a
 1696 0a6a 1E       		.byte	0x1e
ARM GAS  /var/folders/l5/0x54b2c10074c8bt31ycjvl80000gp/T//ccOsUWHl.s 			page 31


 1697 0a6b 2C0B0000 		.4byte	0xb2c
 1698 0a6f 0C       		.byte	0xc
 1699 0a70 08       		.uleb128 0x8
 1700 0a71 F9050000 		.4byte	.LASF150
 1701 0a75 13       		.byte	0x13
 1702 0a76 6D       		.byte	0x6d
 1703 0a77 1D       		.byte	0x1d
 1704 0a78 DE040000 		.4byte	0x4de
 1705 0a7c 10       		.byte	0x10
 1706 0a7d 08       		.uleb128 0x8
 1707 0a7e 78010000 		.4byte	.LASF151
 1708 0a82 13       		.byte	0x13
 1709 0a83 77       		.byte	0x77
 1710 0a84 1E       		.byte	0x1e
 1711 0a85 73020000 		.4byte	0x273
 1712 0a89 20       		.byte	0x20
 1713 0a8a 08       		.uleb128 0x8
 1714 0a8b 38010000 		.4byte	.LASF152
 1715 0a8f 13       		.byte	0x13
 1716 0a90 7B       		.byte	0x7b
 1717 0a91 1D       		.byte	0x1d
 1718 0a92 F20A0000 		.4byte	0xaf2
 1719 0a96 24       		.byte	0x24
 1720 0a97 08       		.uleb128 0x8
 1721 0a98 88020000 		.4byte	.LASF153
 1722 0a9c 13       		.byte	0x13
 1723 0a9d 7F       		.byte	0x7f
 1724 0a9e 1E       		.byte	0x1e
 1725 0a9f C9070000 		.4byte	0x7c9
 1726 0aa3 28       		.byte	0x28
 1727 0aa4 08       		.uleb128 0x8
 1728 0aa5 3B090000 		.4byte	.LASF154
 1729 0aa9 13       		.byte	0x13
 1730 0aaa 83       		.byte	0x83
 1731 0aab 1D       		.byte	0x1d
 1732 0aac 2C000000 		.4byte	0x2c
 1733 0ab0 2C       		.byte	0x2c
 1734 0ab1 08       		.uleb128 0x8
 1735 0ab2 1B080000 		.4byte	.LASF155
 1736 0ab6 13       		.byte	0x13
 1737 0ab7 87       		.byte	0x87
 1738 0ab8 1D       		.byte	0x1d
 1739 0ab9 2C000000 		.4byte	0x2c
 1740 0abd 30       		.byte	0x30
 1741 0abe 08       		.uleb128 0x8
 1742 0abf A6000000 		.4byte	.LASF156
 1743 0ac3 13       		.byte	0x13
 1744 0ac4 8B       		.byte	0x8b
 1745 0ac5 1E       		.byte	0x1e
 1746 0ac6 92070000 		.4byte	0x792
 1747 0aca 34       		.byte	0x34
 1748 0acb 08       		.uleb128 0x8
 1749 0acc 20050000 		.4byte	.LASF157
 1750 0ad0 13       		.byte	0x13
 1751 0ad1 8F       		.byte	0x8f
 1752 0ad2 1D       		.byte	0x1d
 1753 0ad3 2C000000 		.4byte	0x2c
ARM GAS  /var/folders/l5/0x54b2c10074c8bt31ycjvl80000gp/T//ccOsUWHl.s 			page 32


 1754 0ad7 38       		.byte	0x38
 1755 0ad8 08       		.uleb128 0x8
 1756 0ad9 89010000 		.4byte	.LASF158
 1757 0add 13       		.byte	0x13
 1758 0ade 93       		.byte	0x93
 1759 0adf 1D       		.byte	0x1d
 1760 0ae0 2C000000 		.4byte	0x2c
 1761 0ae4 3C       		.byte	0x3c
 1762 0ae5 00       		.byte	0
 1763 0ae6 03       		.uleb128 0x3
 1764 0ae7 EE050000 		.4byte	.LASF159
 1765 0aeb 13       		.byte	0x13
 1766 0aec 42       		.byte	0x42
 1767 0aed 12       		.byte	0x12
 1768 0aee D5000000 		.4byte	0xd5
 1769 0af2 03       		.uleb128 0x3
 1770 0af3 56010000 		.4byte	.LASF160
 1771 0af7 13       		.byte	0x13
 1772 0af8 48       		.byte	0x48
 1773 0af9 12       		.byte	0x12
 1774 0afa BD000000 		.4byte	0xbd
 1775 0afe 0A       		.uleb128 0xa
 1776 0aff 04       		.byte	0x4
 1777 0b00 13       		.byte	0x13
 1778 0b01 57       		.byte	0x57
 1779 0b02 09       		.byte	0x9
 1780 0b03 150B0000 		.4byte	0xb15
 1781 0b07 08       		.uleb128 0x8
 1782 0b08 FA040000 		.4byte	.LASF161
 1783 0b0c 13       		.byte	0x13
 1784 0b0d 59       		.byte	0x59
 1785 0b0e 1D       		.byte	0x1d
 1786 0b0f D5000000 		.4byte	0xd5
 1787 0b13 00       		.byte	0
 1788 0b14 00       		.byte	0
 1789 0b15 03       		.uleb128 0x3
 1790 0b16 07080000 		.4byte	.LASF162
 1791 0b1a 13       		.byte	0x13
 1792 0b1b 5B       		.byte	0x5b
 1793 0b1c 03       		.byte	0x3
 1794 0b1d FE0A0000 		.4byte	0xafe
 1795 0b21 06       		.uleb128 0x6
 1796 0b22 150B0000 		.4byte	0xb15
 1797 0b26 0B       		.uleb128 0xb
 1798 0b27 04       		.byte	0x4
 1799 0b28 210B0000 		.4byte	0xb21
 1800 0b2c 0B       		.uleb128 0xb
 1801 0b2d 04       		.byte	0x4
 1802 0b2e A6080000 		.4byte	0x8a6
 1803 0b32 0F       		.uleb128 0xf
 1804 0b33 5A020000 		.4byte	.LASF163
 1805 0b37 13       		.byte	0x13
 1806 0b38 A6       		.byte	0xa6
 1807 0b39 12       		.byte	0x12
 1808 0b3a 230A0000 		.4byte	0xa23
 1809 0b3e 18       		.uleb128 0x18
 1810 0b3f 07       		.byte	0x7
ARM GAS  /var/folders/l5/0x54b2c10074c8bt31ycjvl80000gp/T//ccOsUWHl.s 			page 33


 1811 0b40 01       		.byte	0x1
 1812 0b41 57000000 		.4byte	0x57
 1813 0b45 14       		.byte	0x14
 1814 0b46 5D       		.byte	0x5d
 1815 0b47 0E       		.byte	0xe
 1816 0b48 5F0B0000 		.4byte	0xb5f
 1817 0b4c 19       		.uleb128 0x19
 1818 0b4d D1060000 		.4byte	.LASF164
 1819 0b51 00       		.byte	0
 1820 0b52 19       		.uleb128 0x19
 1821 0b53 28010000 		.4byte	.LASF165
 1822 0b57 01       		.byte	0x1
 1823 0b58 19       		.uleb128 0x19
 1824 0b59 CC070000 		.4byte	.LASF166
 1825 0b5d 02       		.byte	0x2
 1826 0b5e 00       		.byte	0
 1827 0b5f 03       		.uleb128 0x3
 1828 0b60 11080000 		.4byte	.LASF167
 1829 0b64 14       		.byte	0x14
 1830 0b65 61       		.byte	0x61
 1831 0b66 03       		.byte	0x3
 1832 0b67 3E0B0000 		.4byte	0xb3e
 1833 0b6b 03       		.uleb128 0x3
 1834 0b6c 05070000 		.4byte	.LASF168
 1835 0b70 14       		.byte	0x14
 1836 0b71 66       		.byte	0x66
 1837 0b72 1D       		.byte	0x1d
 1838 0b73 770B0000 		.4byte	0xb77
 1839 0b77 07       		.uleb128 0x7
 1840 0b78 05070000 		.4byte	.LASF168
 1841 0b7c 74       		.byte	0x74
 1842 0b7d 14       		.byte	0x14
 1843 0b7e 80       		.byte	0x80
 1844 0b7f 08       		.byte	0x8
 1845 0b80 DE0B0000 		.4byte	0xbde
 1846 0b84 09       		.uleb128 0x9
 1847 0b85 766D7400 		.ascii	"vmt\000"
 1848 0b89 14       		.byte	0x14
 1849 0b8a 82       		.byte	0x82
 1850 0b8b 21       		.byte	0x21
 1851 0b8c 650C0000 		.4byte	0xc65
 1852 0b90 00       		.byte	0
 1853 0b91 08       		.uleb128 0x8
 1854 0b92 EA020000 		.4byte	.LASF169
 1855 0b96 14       		.byte	0x14
 1856 0b97 83       		.byte	0x83
 1857 0b98 03       		.byte	0x3
 1858 0b99 59050000 		.4byte	0x559
 1859 0b9d 04       		.byte	0x4
 1860 0b9e 08       		.uleb128 0x8
 1861 0b9f 60010000 		.4byte	.LASF146
 1862 0ba3 14       		.byte	0x14
 1863 0ba4 83       		.byte	0x83
 1864 0ba5 03       		.byte	0x3
 1865 0ba6 5F0B0000 		.4byte	0xb5f
 1866 0baa 08       		.byte	0x8
 1867 0bab 08       		.uleb128 0x8
ARM GAS  /var/folders/l5/0x54b2c10074c8bt31ycjvl80000gp/T//ccOsUWHl.s 			page 34


 1868 0bac A5020000 		.4byte	.LASF170
 1869 0bb0 14       		.byte	0x14
 1870 0bb1 83       		.byte	0x83
 1871 0bb2 03       		.byte	0x3
 1872 0bb3 98070000 		.4byte	0x798
 1873 0bb7 0C       		.byte	0xc
 1874 0bb8 08       		.uleb128 0x8
 1875 0bb9 2D030000 		.4byte	.LASF171
 1876 0bbd 14       		.byte	0x14
 1877 0bbe 83       		.byte	0x83
 1878 0bbf 03       		.byte	0x3
 1879 0bc0 A4070000 		.4byte	0x7a4
 1880 0bc4 30       		.byte	0x30
 1881 0bc5 09       		.uleb128 0x9
 1882 0bc6 696200   		.ascii	"ib\000"
 1883 0bc9 14       		.byte	0x14
 1884 0bca 83       		.byte	0x83
 1885 0bcb 03       		.byte	0x3
 1886 0bcc 6B0C0000 		.4byte	0xc6b
 1887 0bd0 54       		.byte	0x54
 1888 0bd1 09       		.uleb128 0x9
 1889 0bd2 6F6200   		.ascii	"ob\000"
 1890 0bd5 14       		.byte	0x14
 1891 0bd6 83       		.byte	0x83
 1892 0bd7 03       		.byte	0x3
 1893 0bd8 6B0C0000 		.4byte	0xc6b
 1894 0bdc 64       		.byte	0x64
 1895 0bdd 00       		.byte	0
 1896 0bde 1A       		.uleb128 0x1a
 1897 0bdf 53443100 		.ascii	"SD1\000"
 1898 0be3 19       		.byte	0x19
 1899 0be4 62       		.byte	0x62
 1900 0be5 15       		.byte	0x15
 1901 0be6 6B0B0000 		.4byte	0xb6b
 1902 0bea 07       		.uleb128 0x7
 1903 0beb 8E020000 		.4byte	.LASF172
 1904 0bef 20       		.byte	0x20
 1905 0bf0 14       		.byte	0x14
 1906 0bf1 75       		.byte	0x75
 1907 0bf2 08       		.byte	0x8
 1908 0bf3 600C0000 		.4byte	0xc60
 1909 0bf7 08       		.uleb128 0x8
 1910 0bf8 21000000 		.4byte	.LASF173
 1911 0bfc 14       		.byte	0x14
 1912 0bfd 76       		.byte	0x76
 1913 0bfe 03       		.byte	0x3
 1914 0bff CF070000 		.4byte	0x7cf
 1915 0c03 00       		.byte	0
 1916 0c04 08       		.uleb128 0x8
 1917 0c05 20070000 		.4byte	.LASF174
 1918 0c09 14       		.byte	0x14
 1919 0c0a 76       		.byte	0x76
 1920 0c0b 03       		.byte	0x3
 1921 0c0c EE070000 		.4byte	0x7ee
 1922 0c10 04       		.byte	0x4
 1923 0c11 09       		.uleb128 0x9
 1924 0c12 70757400 		.ascii	"put\000"
ARM GAS  /var/folders/l5/0x54b2c10074c8bt31ycjvl80000gp/T//ccOsUWHl.s 			page 35


 1925 0c16 14       		.byte	0x14
 1926 0c17 76       		.byte	0x76
 1927 0c18 03       		.byte	0x3
 1928 0c19 08080000 		.4byte	0x808
 1929 0c1d 08       		.byte	0x8
 1930 0c1e 09       		.uleb128 0x9
 1931 0c1f 67657400 		.ascii	"get\000"
 1932 0c23 14       		.byte	0x14
 1933 0c24 76       		.byte	0x76
 1934 0c25 03       		.byte	0x3
 1935 0c26 B7050000 		.4byte	0x5b7
 1936 0c2a 0C       		.byte	0xc
 1937 0c2b 08       		.uleb128 0x8
 1938 0c2c B4040000 		.4byte	.LASF175
 1939 0c30 14       		.byte	0x14
 1940 0c31 76       		.byte	0x76
 1941 0c32 03       		.byte	0x3
 1942 0c33 CC080000 		.4byte	0x8cc
 1943 0c37 10       		.byte	0x10
 1944 0c38 08       		.uleb128 0x8
 1945 0c39 C7020000 		.4byte	.LASF176
 1946 0c3d 14       		.byte	0x14
 1947 0c3e 76       		.byte	0x76
 1948 0c3f 03       		.byte	0x3
 1949 0c40 E6080000 		.4byte	0x8e6
 1950 0c44 14       		.byte	0x14
 1951 0c45 08       		.uleb128 0x8
 1952 0c46 1B040000 		.4byte	.LASF177
 1953 0c4a 14       		.byte	0x14
 1954 0c4b 76       		.byte	0x76
 1955 0c4c 03       		.byte	0x3
 1956 0c4d 0A090000 		.4byte	0x90a
 1957 0c51 18       		.byte	0x18
 1958 0c52 08       		.uleb128 0x8
 1959 0c53 D1000000 		.4byte	.LASF178
 1960 0c57 14       		.byte	0x14
 1961 0c58 76       		.byte	0x76
 1962 0c59 03       		.byte	0x3
 1963 0c5a 2E090000 		.4byte	0x92e
 1964 0c5e 1C       		.byte	0x1c
 1965 0c5f 00       		.byte	0
 1966 0c60 06       		.uleb128 0x6
 1967 0c61 EA0B0000 		.4byte	0xbea
 1968 0c65 0B       		.uleb128 0xb
 1969 0c66 04       		.byte	0x4
 1970 0c67 600C0000 		.4byte	0xc60
 1971 0c6b 13       		.uleb128 0x13
 1972 0c6c AC000000 		.4byte	0xac
 1973 0c70 7B0C0000 		.4byte	0xc7b
 1974 0c74 14       		.uleb128 0x14
 1975 0c75 38000000 		.4byte	0x38
 1976 0c79 0F       		.byte	0xf
 1977 0c7a 00       		.byte	0
 1978 0c7b 18       		.uleb128 0x18
 1979 0c7c 07       		.byte	0x7
 1980 0c7d 01       		.byte	0x1
 1981 0c7e 57000000 		.4byte	0x57
ARM GAS  /var/folders/l5/0x54b2c10074c8bt31ycjvl80000gp/T//ccOsUWHl.s 			page 36


 1982 0c82 15       		.byte	0x15
 1983 0c83 4E       		.byte	0x4e
 1984 0c84 0E       		.byte	0xe
 1985 0c85 A80C0000 		.4byte	0xca8
 1986 0c89 19       		.uleb128 0x19
 1987 0c8a DF070000 		.4byte	.LASF179
 1988 0c8e 00       		.byte	0
 1989 0c8f 19       		.uleb128 0x19
 1990 0c90 12010000 		.4byte	.LASF180
 1991 0c94 01       		.byte	0x1
 1992 0c95 19       		.uleb128 0x19
 1993 0c96 D5070000 		.4byte	.LASF181
 1994 0c9a 02       		.byte	0x2
 1995 0c9b 19       		.uleb128 0x19
 1996 0c9c 3D000000 		.4byte	.LASF182
 1997 0ca0 03       		.byte	0x3
 1998 0ca1 19       		.uleb128 0x19
 1999 0ca2 2A070000 		.4byte	.LASF183
 2000 0ca6 04       		.byte	0x4
 2001 0ca7 00       		.byte	0
 2002 0ca8 03       		.uleb128 0x3
 2003 0ca9 49070000 		.4byte	.LASF184
 2004 0cad 15       		.byte	0x15
 2005 0cae 54       		.byte	0x54
 2006 0caf 03       		.byte	0x3
 2007 0cb0 7B0C0000 		.4byte	0xc7b
 2008 0cb4 03       		.uleb128 0x3
 2009 0cb5 9C000000 		.4byte	.LASF185
 2010 0cb9 16       		.byte	0x16
 2011 0cba 35       		.byte	0x35
 2012 0cbb 1A       		.byte	0x1a
 2013 0cbc C00C0000 		.4byte	0xcc0
 2014 0cc0 07       		.uleb128 0x7
 2015 0cc1 9C000000 		.4byte	.LASF185
 2016 0cc5 28       		.byte	0x28
 2017 0cc6 16       		.byte	0x16
 2018 0cc7 7C       		.byte	0x7c
 2019 0cc8 08       		.byte	0x8
 2020 0cc9 290D0000 		.4byte	0xd29
 2021 0ccd 08       		.uleb128 0x8
 2022 0cce 60010000 		.4byte	.LASF146
 2023 0cd2 16       		.byte	0x16
 2024 0cd3 80       		.byte	0x80
 2025 0cd4 19       		.byte	0x19
 2026 0cd5 A80C0000 		.4byte	0xca8
 2027 0cd9 00       		.byte	0
 2028 0cda 08       		.uleb128 0x8
 2029 0cdb 37070000 		.4byte	.LASF147
 2030 0cdf 16       		.byte	0x16
 2031 0ce0 84       		.byte	0x84
 2032 0ce1 1A       		.byte	0x1a
 2033 0ce2 DC0D0000 		.4byte	0xddc
 2034 0ce6 04       		.byte	0x4
 2035 0ce7 08       		.uleb128 0x8
 2036 0ce8 78010000 		.4byte	.LASF151
 2037 0cec 16       		.byte	0x16
 2038 0ced 89       		.byte	0x89
ARM GAS  /var/folders/l5/0x54b2c10074c8bt31ycjvl80000gp/T//ccOsUWHl.s 			page 37


 2039 0cee 1A       		.byte	0x1a
 2040 0cef 73020000 		.4byte	0x273
 2041 0cf3 08       		.byte	0x8
 2042 0cf4 08       		.uleb128 0x8
 2043 0cf5 F9050000 		.4byte	.LASF150
 2044 0cf9 16       		.byte	0x16
 2045 0cfa 90       		.byte	0x90
 2046 0cfb 19       		.byte	0x19
 2047 0cfc DE040000 		.4byte	0x4de
 2048 0d00 0C       		.byte	0xc
 2049 0d01 08       		.uleb128 0x8
 2050 0d02 A6000000 		.4byte	.LASF156
 2051 0d06 16       		.byte	0x16
 2052 0d07 98       		.byte	0x98
 2053 0d08 1A       		.byte	0x1a
 2054 0d09 C0020000 		.4byte	0x2c0
 2055 0d0d 1C       		.byte	0x1c
 2056 0d0e 08       		.uleb128 0x8
 2057 0d0f 88020000 		.4byte	.LASF153
 2058 0d13 16       		.byte	0x16
 2059 0d14 9D       		.byte	0x9d
 2060 0d15 1A       		.byte	0x1a
 2061 0d16 E20D0000 		.4byte	0xde2
 2062 0d1a 20       		.byte	0x20
 2063 0d1b 08       		.uleb128 0x8
 2064 0d1c E9010000 		.4byte	.LASF186
 2065 0d20 16       		.byte	0x16
 2066 0d21 A2       		.byte	0xa2
 2067 0d22 17       		.byte	0x17
 2068 0d23 2C000000 		.4byte	0x2c
 2069 0d27 24       		.byte	0x24
 2070 0d28 00       		.byte	0
 2071 0d29 03       		.uleb128 0x3
 2072 0d2a 4C020000 		.4byte	.LASF187
 2073 0d2e 16       		.byte	0x16
 2074 0d2f 3D       		.byte	0x3d
 2075 0d30 10       		.byte	0x10
 2076 0d31 350D0000 		.4byte	0xd35
 2077 0d35 0B       		.uleb128 0xb
 2078 0d36 04       		.byte	0x4
 2079 0d37 3B0D0000 		.4byte	0xd3b
 2080 0d3b 0D       		.uleb128 0xd
 2081 0d3c 460D0000 		.4byte	0xd46
 2082 0d40 0E       		.uleb128 0xe
 2083 0d41 460D0000 		.4byte	0xd46
 2084 0d45 00       		.byte	0
 2085 0d46 0B       		.uleb128 0xb
 2086 0d47 04       		.byte	0x4
 2087 0d48 B40C0000 		.4byte	0xcb4
 2088 0d4c 0A       		.uleb128 0xa
 2089 0d4d 10       		.byte	0x10
 2090 0d4e 16       		.byte	0x16
 2091 0d4f 44       		.byte	0x44
 2092 0d50 09       		.byte	0x9
 2093 0d51 CB0D0000 		.4byte	0xdcb
 2094 0d55 08       		.uleb128 0x8
 2095 0d56 E2010000 		.4byte	.LASF188
ARM GAS  /var/folders/l5/0x54b2c10074c8bt31ycjvl80000gp/T//ccOsUWHl.s 			page 38


 2096 0d5a 16       		.byte	0x16
 2097 0d5b 48       		.byte	0x48
 2098 0d5c 19       		.byte	0x19
 2099 0d5d 290D0000 		.4byte	0xd29
 2100 0d61 00       		.byte	0
 2101 0d62 08       		.uleb128 0x8
 2102 0d63 84050000 		.4byte	.LASF189
 2103 0d67 16       		.byte	0x16
 2104 0d68 4F       		.byte	0x4f
 2105 0d69 19       		.byte	0x19
 2106 0d6a AC000000 		.4byte	0xac
 2107 0d6e 04       		.byte	0x4
 2108 0d6f 08       		.uleb128 0x8
 2109 0d70 9B050000 		.4byte	.LASF190
 2110 0d74 16       		.byte	0x16
 2111 0d75 52       		.byte	0x52
 2112 0d76 19       		.byte	0x19
 2113 0d77 AC000000 		.4byte	0xac
 2114 0d7b 05       		.byte	0x5
 2115 0d7c 08       		.uleb128 0x8
 2116 0d7d D5020000 		.4byte	.LASF191
 2117 0d81 16       		.byte	0x16
 2118 0d82 58       		.byte	0x58
 2119 0d83 19       		.byte	0x19
 2120 0d84 AC000000 		.4byte	0xac
 2121 0d88 06       		.byte	0x6
 2122 0d89 08       		.uleb128 0x8
 2123 0d8a EF010000 		.4byte	.LASF192
 2124 0d8e 16       		.byte	0x16
 2125 0d8f 5E       		.byte	0x5e
 2126 0d90 19       		.byte	0x19
 2127 0d91 AC000000 		.4byte	0xac
 2128 0d95 07       		.byte	0x7
 2129 0d96 08       		.uleb128 0x8
 2130 0d97 05020000 		.4byte	.LASF193
 2131 0d9b 16       		.byte	0x16
 2132 0d9c 64       		.byte	0x64
 2133 0d9d 19       		.byte	0x19
 2134 0d9e AC000000 		.4byte	0xac
 2135 0da2 08       		.byte	0x8
 2136 0da3 08       		.uleb128 0x8
 2137 0da4 95070000 		.4byte	.LASF194
 2138 0da8 16       		.byte	0x16
 2139 0da9 6A       		.byte	0x6a
 2140 0daa 19       		.byte	0x19
 2141 0dab AC000000 		.4byte	0xac
 2142 0daf 09       		.byte	0x9
 2143 0db0 08       		.uleb128 0x8
 2144 0db1 BE010000 		.4byte	.LASF195
 2145 0db5 16       		.byte	0x16
 2146 0db6 70       		.byte	0x70
 2147 0db7 19       		.byte	0x19
 2148 0db8 AC000000 		.4byte	0xac
 2149 0dbc 0A       		.byte	0xa
 2150 0dbd 08       		.uleb128 0x8
 2151 0dbe A0060000 		.4byte	.LASF196
 2152 0dc2 16       		.byte	0x16
ARM GAS  /var/folders/l5/0x54b2c10074c8bt31ycjvl80000gp/T//ccOsUWHl.s 			page 39


 2153 0dc3 73       		.byte	0x73
 2154 0dc4 19       		.byte	0x19
 2155 0dc5 D5000000 		.4byte	0xd5
 2156 0dc9 0C       		.byte	0xc
 2157 0dca 00       		.byte	0
 2158 0dcb 03       		.uleb128 0x3
 2159 0dcc 90080000 		.4byte	.LASF197
 2160 0dd0 16       		.byte	0x16
 2161 0dd1 75       		.byte	0x75
 2162 0dd2 03       		.byte	0x3
 2163 0dd3 4C0D0000 		.4byte	0xd4c
 2164 0dd7 06       		.uleb128 0x6
 2165 0dd8 CB0D0000 		.4byte	0xdcb
 2166 0ddc 0B       		.uleb128 0xb
 2167 0ddd 04       		.byte	0x4
 2168 0dde D70D0000 		.4byte	0xdd7
 2169 0de2 0B       		.uleb128 0xb
 2170 0de3 04       		.byte	0x4
 2171 0de4 E80D0000 		.4byte	0xde8
 2172 0de8 1B       		.uleb128 0x1b
 2173 0de9 0F       		.uleb128 0xf
 2174 0dea A1010000 		.4byte	.LASF198
 2175 0dee 16       		.byte	0x16
 2176 0def B6       		.byte	0xb6
 2177 0df0 14       		.byte	0x14
 2178 0df1 B40C0000 		.4byte	0xcb4
 2179 0df5 1C       		.uleb128 0x1c
 2180 0df6 D6050000 		.4byte	.LASF199
 2181 0dfa 01       		.byte	0x1
 2182 0dfb 1B       		.byte	0x1b
 2183 0dfc 15       		.byte	0x15
 2184 0dfd 7C030000 		.4byte	0x37c
 2185 0e01 05       		.uleb128 0x5
 2186 0e02 03       		.byte	0x3
 2187 0e03 00000000 		.4byte	led_vt1
 2188 0e07 1C       		.uleb128 0x1c
 2189 0e08 43050000 		.4byte	.LASF200
 2190 0e0c 01       		.byte	0x1
 2191 0e0d 1B       		.byte	0x1b
 2192 0e0e 1E       		.byte	0x1e
 2193 0e0f 7C030000 		.4byte	0x37c
 2194 0e13 05       		.uleb128 0x5
 2195 0e14 03       		.byte	0x3
 2196 0e15 00000000 		.4byte	led_vt2
 2197 0e19 13       		.uleb128 0x13
 2198 0e1a A8020000 		.4byte	0x2a8
 2199 0e1e 290E0000 		.4byte	0xe29
 2200 0e22 14       		.uleb128 0x14
 2201 0e23 38000000 		.4byte	0x38
 2202 0e27 45       		.byte	0x45
 2203 0e28 00       		.byte	0
 2204 0e29 1C       		.uleb128 0x1c
 2205 0e2a 91050000 		.4byte	.LASF201
 2206 0e2e 01       		.byte	0x1
 2207 0e2f 27       		.byte	0x27
 2208 0e30 08       		.byte	0x8
 2209 0e31 190E0000 		.4byte	0xe19
ARM GAS  /var/folders/l5/0x54b2c10074c8bt31ycjvl80000gp/T//ccOsUWHl.s 			page 40


 2210 0e35 05       		.uleb128 0x5
 2211 0e36 03       		.byte	0x3
 2212 0e37 00000000 		.4byte	waThread1
 2213 0e3b 1D       		.uleb128 0x1d
 2214 0e3c F5040000 		.4byte	.LASF214
 2215 0e40 01       		.byte	0x1
 2216 0e41 36       		.byte	0x36
 2217 0e42 06       		.byte	0x6
 2218 0e43 00000000 		.4byte	.LFB10
 2219 0e47 90000000 		.4byte	.LFE10-.LFB10
 2220 0e4b 01       		.uleb128 0x1
 2221 0e4c 9C       		.byte	0x9c
 2222 0e4d 0F0F0000 		.4byte	0xf0f
 2223 0e51 1E       		.uleb128 0x1e
 2224 0e52 14000000 		.4byte	.LVL11
 2225 0e56 04100000 		.4byte	0x1004
 2226 0e5a 1E       		.uleb128 0x1e
 2227 0e5b 18000000 		.4byte	.LVL12
 2228 0e5f 10100000 		.4byte	0x1010
 2229 0e63 1F       		.uleb128 0x1f
 2230 0e64 28000000 		.4byte	.LVL13
 2231 0e68 1C100000 		.4byte	0x101c
 2232 0e6c 840E0000 		.4byte	0xe84
 2233 0e70 20       		.uleb128 0x20
 2234 0e71 01       		.uleb128 0x1
 2235 0e72 50       		.byte	0x50
 2236 0e73 02       		.uleb128 0x2
 2237 0e74 75       		.byte	0x75
 2238 0e75 00       		.sleb128 0
 2239 0e76 20       		.uleb128 0x20
 2240 0e77 01       		.uleb128 0x1
 2241 0e78 51       		.byte	0x51
 2242 0e79 03       		.uleb128 0x3
 2243 0e7a 40       		.byte	0x40
 2244 0e7b 45       		.byte	0x45
 2245 0e7c 24       		.byte	0x24
 2246 0e7d 20       		.uleb128 0x20
 2247 0e7e 01       		.uleb128 0x1
 2248 0e7f 52       		.byte	0x52
 2249 0e80 02       		.uleb128 0x2
 2250 0e81 08       		.byte	0x8
 2251 0e82 FF       		.byte	0xff
 2252 0e83 00       		.byte	0
 2253 0e84 1F       		.uleb128 0x1f
 2254 0e85 38000000 		.4byte	.LVL14
 2255 0e89 1C100000 		.4byte	0x101c
 2256 0e8d A50E0000 		.4byte	0xea5
 2257 0e91 20       		.uleb128 0x20
 2258 0e92 01       		.uleb128 0x1
 2259 0e93 50       		.byte	0x50
 2260 0e94 02       		.uleb128 0x2
 2261 0e95 75       		.byte	0x75
 2262 0e96 00       		.sleb128 0
 2263 0e97 20       		.uleb128 0x20
 2264 0e98 01       		.uleb128 0x1
 2265 0e99 51       		.byte	0x51
 2266 0e9a 03       		.uleb128 0x3
ARM GAS  /var/folders/l5/0x54b2c10074c8bt31ycjvl80000gp/T//ccOsUWHl.s 			page 41


 2267 0e9b 40       		.byte	0x40
 2268 0e9c 3E       		.byte	0x3e
 2269 0e9d 24       		.byte	0x24
 2270 0e9e 20       		.uleb128 0x20
 2271 0e9f 01       		.uleb128 0x1
 2272 0ea0 52       		.byte	0x52
 2273 0ea1 02       		.uleb128 0x2
 2274 0ea2 08       		.byte	0x8
 2275 0ea3 FF       		.byte	0xff
 2276 0ea4 00       		.byte	0
 2277 0ea5 1F       		.uleb128 0x1f
 2278 0ea6 50000000 		.4byte	.LVL15
 2279 0eaa 28100000 		.4byte	0x1028
 2280 0eae D80E0000 		.4byte	0xed8
 2281 0eb2 20       		.uleb128 0x20
 2282 0eb3 01       		.uleb128 0x1
 2283 0eb4 50       		.byte	0x50
 2284 0eb5 05       		.uleb128 0x5
 2285 0eb6 03       		.byte	0x3
 2286 0eb7 00000000 		.4byte	.LANCHOR2
 2287 0ebb 20       		.uleb128 0x20
 2288 0ebc 01       		.uleb128 0x1
 2289 0ebd 51       		.byte	0x51
 2290 0ebe 03       		.uleb128 0x3
 2291 0ebf 0A       		.byte	0xa
 2292 0ec0 1801     		.2byte	0x118
 2293 0ec2 20       		.uleb128 0x20
 2294 0ec3 01       		.uleb128 0x1
 2295 0ec4 52       		.byte	0x52
 2296 0ec5 01       		.uleb128 0x1
 2297 0ec6 32       		.byte	0x32
 2298 0ec7 20       		.uleb128 0x20
 2299 0ec8 01       		.uleb128 0x1
 2300 0ec9 53       		.byte	0x53
 2301 0eca 05       		.uleb128 0x5
 2302 0ecb 03       		.byte	0x3
 2303 0ecc 00000000 		.4byte	evaluator
 2304 0ed0 20       		.uleb128 0x20
 2305 0ed1 02       		.uleb128 0x2
 2306 0ed2 7D       		.byte	0x7d
 2307 0ed3 00       		.sleb128 0
 2308 0ed4 02       		.uleb128 0x2
 2309 0ed5 74       		.byte	0x74
 2310 0ed6 00       		.sleb128 0
 2311 0ed7 00       		.byte	0
 2312 0ed8 1F       		.uleb128 0x1f
 2313 0ed9 64000000 		.4byte	.LVL16
 2314 0edd 35100000 		.4byte	0x1035
 2315 0ee1 050F0000 		.4byte	0xf05
 2316 0ee5 20       		.uleb128 0x20
 2317 0ee6 01       		.uleb128 0x1
 2318 0ee7 50       		.byte	0x50
 2319 0ee8 05       		.uleb128 0x5
 2320 0ee9 03       		.byte	0x3
 2321 0eea 00000000 		.4byte	.LANCHOR1
 2322 0eee 20       		.uleb128 0x20
 2323 0eef 01       		.uleb128 0x1
ARM GAS  /var/folders/l5/0x54b2c10074c8bt31ycjvl80000gp/T//ccOsUWHl.s 			page 42


 2324 0ef0 51       		.byte	0x51
 2325 0ef1 03       		.uleb128 0x3
 2326 0ef2 0A       		.byte	0xa
 2327 0ef3 F401     		.2byte	0x1f4
 2328 0ef5 20       		.uleb128 0x20
 2329 0ef6 01       		.uleb128 0x1
 2330 0ef7 52       		.byte	0x52
 2331 0ef8 05       		.uleb128 0x5
 2332 0ef9 03       		.byte	0x3
 2333 0efa 00000000 		.4byte	led_set
 2334 0efe 20       		.uleb128 0x20
 2335 0eff 01       		.uleb128 0x1
 2336 0f00 53       		.byte	0x53
 2337 0f01 02       		.uleb128 0x2
 2338 0f02 74       		.byte	0x74
 2339 0f03 00       		.sleb128 0
 2340 0f04 00       		.byte	0
 2341 0f05 21       		.uleb128 0x21
 2342 0f06 78000000 		.4byte	.LVL17
 2343 0f0a 41100000 		.4byte	0x1041
 2344 0f0e 00       		.byte	0
 2345 0f0f 22       		.uleb128 0x22
 2346 0f10 F8020000 		.4byte	.LASF215
 2347 0f14 01       		.byte	0x1
 2348 0f15 28       		.byte	0x28
 2349 0f16 0E       		.byte	0xe
 2350 0f17 16010000 		.4byte	0x116
 2351 0f1b 00000000 		.4byte	.LFB9
 2352 0f1f 50000000 		.4byte	.LFE9-.LFB9
 2353 0f23 01       		.uleb128 0x1
 2354 0f24 9C       		.byte	0x9c
 2355 0f25 4C0F0000 		.4byte	0xf4c
 2356 0f29 23       		.uleb128 0x23
 2357 0f2a 7000     		.ascii	"p\000"
 2358 0f2c 01       		.byte	0x1
 2359 0f2d 28       		.byte	0x28
 2360 0f2e 1E       		.byte	0x1e
 2361 0f2f C0020000 		.4byte	0x2c0
 2362 0f33 04000000 		.4byte	.LLST2
 2363 0f37 00000000 		.4byte	.LVUS2
 2364 0f3b 24       		.uleb128 0x24
 2365 0f3c 3C000000 		.4byte	.LVL10
 2366 0f40 4E100000 		.4byte	0x104e
 2367 0f44 20       		.uleb128 0x20
 2368 0f45 01       		.uleb128 0x1
 2369 0f46 50       		.byte	0x50
 2370 0f47 02       		.uleb128 0x2
 2371 0f48 74       		.byte	0x74
 2372 0f49 00       		.sleb128 0
 2373 0f4a 00       		.byte	0
 2374 0f4b 00       		.byte	0
 2375 0f4c 25       		.uleb128 0x25
 2376 0f4d 6B020000 		.4byte	.LASF202
 2377 0f51 01       		.byte	0x1
 2378 0f52 22       		.byte	0x22
 2379 0f53 0D       		.byte	0xd
 2380 0f54 00000000 		.4byte	.LFB8
ARM GAS  /var/folders/l5/0x54b2c10074c8bt31ycjvl80000gp/T//ccOsUWHl.s 			page 43


 2381 0f58 38000000 		.4byte	.LFE8-.LFB8
 2382 0f5c 01       		.uleb128 0x1
 2383 0f5d 9C       		.byte	0x9c
 2384 0f5e A80F0000 		.4byte	0xfa8
 2385 0f62 23       		.uleb128 0x23
 2386 0f63 61726700 		.ascii	"arg\000"
 2387 0f67 01       		.byte	0x1
 2388 0f68 22       		.byte	0x22
 2389 0f69 1B       		.byte	0x1b
 2390 0f6a C0020000 		.4byte	0x2c0
 2391 0f6e 29000000 		.4byte	.LLST0
 2392 0f72 25000000 		.4byte	.LVUS0
 2393 0f76 1E       		.uleb128 0x1e
 2394 0f77 14000000 		.4byte	.LVL2
 2395 0f7b 4E100000 		.4byte	0x104e
 2396 0f7f 26       		.uleb128 0x26
 2397 0f80 2C000000 		.4byte	.LVL3
 2398 0f84 35100000 		.4byte	0x1035
 2399 0f88 20       		.uleb128 0x20
 2400 0f89 01       		.uleb128 0x1
 2401 0f8a 50       		.byte	0x50
 2402 0f8b 05       		.uleb128 0x5
 2403 0f8c 03       		.byte	0x3
 2404 0f8d 00000000 		.4byte	.LANCHOR0
 2405 0f91 20       		.uleb128 0x20
 2406 0f92 01       		.uleb128 0x1
 2407 0f93 51       		.byte	0x51
 2408 0f94 03       		.uleb128 0x3
 2409 0f95 0A       		.byte	0xa
 2410 0f96 F401     		.2byte	0x1f4
 2411 0f98 20       		.uleb128 0x20
 2412 0f99 01       		.uleb128 0x1
 2413 0f9a 52       		.byte	0x52
 2414 0f9b 05       		.uleb128 0x5
 2415 0f9c 03       		.byte	0x3
 2416 0f9d 00000000 		.4byte	led_clear
 2417 0fa1 20       		.uleb128 0x20
 2418 0fa2 01       		.uleb128 0x1
 2419 0fa3 53       		.byte	0x53
 2420 0fa4 01       		.uleb128 0x1
 2421 0fa5 30       		.byte	0x30
 2422 0fa6 00       		.byte	0
 2423 0fa7 00       		.byte	0
 2424 0fa8 25       		.uleb128 0x25
 2425 0fa9 15060000 		.4byte	.LASF203
 2426 0fad 01       		.byte	0x1
 2427 0fae 1D       		.byte	0x1d
 2428 0faf 0D       		.byte	0xd
 2429 0fb0 00000000 		.4byte	.LFB7
 2430 0fb4 38000000 		.4byte	.LFE7-.LFB7
 2431 0fb8 01       		.uleb128 0x1
 2432 0fb9 9C       		.byte	0x9c
 2433 0fba 04100000 		.4byte	0x1004
 2434 0fbe 23       		.uleb128 0x23
 2435 0fbf 61726700 		.ascii	"arg\000"
 2436 0fc3 01       		.byte	0x1
 2437 0fc4 1D       		.byte	0x1d
ARM GAS  /var/folders/l5/0x54b2c10074c8bt31ycjvl80000gp/T//ccOsUWHl.s 			page 44


 2438 0fc5 1D       		.byte	0x1d
 2439 0fc6 C0020000 		.4byte	0x2c0
 2440 0fca 4E000000 		.4byte	.LLST1
 2441 0fce 4A000000 		.4byte	.LVUS1
 2442 0fd2 1E       		.uleb128 0x1e
 2443 0fd3 14000000 		.4byte	.LVL6
 2444 0fd7 4E100000 		.4byte	0x104e
 2445 0fdb 26       		.uleb128 0x26
 2446 0fdc 2C000000 		.4byte	.LVL7
 2447 0fe0 35100000 		.4byte	0x1035
 2448 0fe4 20       		.uleb128 0x20
 2449 0fe5 01       		.uleb128 0x1
 2450 0fe6 50       		.byte	0x50
 2451 0fe7 05       		.uleb128 0x5
 2452 0fe8 03       		.byte	0x3
 2453 0fe9 00000000 		.4byte	.LANCHOR1
 2454 0fed 20       		.uleb128 0x20
 2455 0fee 01       		.uleb128 0x1
 2456 0fef 51       		.byte	0x51
 2457 0ff0 03       		.uleb128 0x3
 2458 0ff1 0A       		.byte	0xa
 2459 0ff2 F401     		.2byte	0x1f4
 2460 0ff4 20       		.uleb128 0x20
 2461 0ff5 01       		.uleb128 0x1
 2462 0ff6 52       		.byte	0x52
 2463 0ff7 05       		.uleb128 0x5
 2464 0ff8 03       		.byte	0x3
 2465 0ff9 00000000 		.4byte	led_set
 2466 0ffd 20       		.uleb128 0x20
 2467 0ffe 01       		.uleb128 0x1
 2468 0fff 53       		.byte	0x53
 2469 1000 01       		.uleb128 0x1
 2470 1001 30       		.byte	0x30
 2471 1002 00       		.byte	0
 2472 1003 00       		.byte	0
 2473 1004 27       		.uleb128 0x27
 2474 1005 B5000000 		.4byte	.LASF204
 2475 1009 B5000000 		.4byte	.LASF204
 2476 100d 17       		.byte	0x17
 2477 100e C9       		.byte	0xc9
 2478 100f 08       		.byte	0x8
 2479 1010 27       		.uleb128 0x27
 2480 1011 22040000 		.4byte	.LASF205
 2481 1015 22040000 		.4byte	.LASF205
 2482 1019 18       		.byte	0x18
 2483 101a EF       		.byte	0xef
 2484 101b 08       		.byte	0x8
 2485 101c 27       		.uleb128 0x27
 2486 101d A4070000 		.4byte	.LASF206
 2487 1021 A4070000 		.4byte	.LASF206
 2488 1025 11       		.byte	0x11
 2489 1026 B6       		.byte	0xb6
 2490 1027 08       		.byte	0x8
 2491 1028 28       		.uleb128 0x28
 2492 1029 88040000 		.4byte	.LASF207
 2493 102d 88040000 		.4byte	.LASF207
 2494 1031 07       		.byte	0x7
ARM GAS  /var/folders/l5/0x54b2c10074c8bt31ycjvl80000gp/T//ccOsUWHl.s 			page 45


 2495 1032 6401     		.2byte	0x164
 2496 1034 0B       		.byte	0xb
 2497 1035 27       		.uleb128 0x27
 2498 1036 0F050000 		.4byte	.LASF208
 2499 103a 0F050000 		.4byte	.LASF208
 2500 103e 09       		.byte	0x9
 2501 103f DA       		.byte	0xda
 2502 1040 08       		.byte	0x8
 2503 1041 28       		.uleb128 0x28
 2504 1042 EA070000 		.4byte	.LASF209
 2505 1046 EA070000 		.4byte	.LASF209
 2506 104a 07       		.byte	0x7
 2507 104b 6F01     		.2byte	0x16f
 2508 104d 09       		.byte	0x9
 2509 104e 27       		.uleb128 0x27
 2510 104f 34040000 		.4byte	.LASF210
 2511 1053 34040000 		.4byte	.LASF210
 2512 1057 11       		.byte	0x11
 2513 1058 BA       		.byte	0xba
 2514 1059 08       		.byte	0x8
 2515 105a 00       		.byte	0
 2516              		.section	.debug_abbrev,"",%progbits
 2517              	.Ldebug_abbrev0:
 2518 0000 01       		.uleb128 0x1
 2519 0001 11       		.uleb128 0x11
 2520 0002 01       		.byte	0x1
 2521 0003 25       		.uleb128 0x25
 2522 0004 0E       		.uleb128 0xe
 2523 0005 13       		.uleb128 0x13
 2524 0006 0B       		.uleb128 0xb
 2525 0007 03       		.uleb128 0x3
 2526 0008 0E       		.uleb128 0xe
 2527 0009 1B       		.uleb128 0x1b
 2528 000a 0E       		.uleb128 0xe
 2529 000b 55       		.uleb128 0x55
 2530 000c 17       		.uleb128 0x17
 2531 000d 11       		.uleb128 0x11
 2532 000e 01       		.uleb128 0x1
 2533 000f 10       		.uleb128 0x10
 2534 0010 17       		.uleb128 0x17
 2535 0011 00       		.byte	0
 2536 0012 00       		.byte	0
 2537 0013 02       		.uleb128 0x2
 2538 0014 24       		.uleb128 0x24
 2539 0015 00       		.byte	0
 2540 0016 0B       		.uleb128 0xb
 2541 0017 0B       		.uleb128 0xb
 2542 0018 3E       		.uleb128 0x3e
 2543 0019 0B       		.uleb128 0xb
 2544 001a 03       		.uleb128 0x3
 2545 001b 08       		.uleb128 0x8
 2546 001c 00       		.byte	0
 2547 001d 00       		.byte	0
 2548 001e 03       		.uleb128 0x3
 2549 001f 16       		.uleb128 0x16
 2550 0020 00       		.byte	0
 2551 0021 03       		.uleb128 0x3
ARM GAS  /var/folders/l5/0x54b2c10074c8bt31ycjvl80000gp/T//ccOsUWHl.s 			page 46


 2552 0022 0E       		.uleb128 0xe
 2553 0023 3A       		.uleb128 0x3a
 2554 0024 0B       		.uleb128 0xb
 2555 0025 3B       		.uleb128 0x3b
 2556 0026 0B       		.uleb128 0xb
 2557 0027 39       		.uleb128 0x39
 2558 0028 0B       		.uleb128 0xb
 2559 0029 49       		.uleb128 0x49
 2560 002a 13       		.uleb128 0x13
 2561 002b 00       		.byte	0
 2562 002c 00       		.byte	0
 2563 002d 04       		.uleb128 0x4
 2564 002e 24       		.uleb128 0x24
 2565 002f 00       		.byte	0
 2566 0030 0B       		.uleb128 0xb
 2567 0031 0B       		.uleb128 0xb
 2568 0032 3E       		.uleb128 0x3e
 2569 0033 0B       		.uleb128 0xb
 2570 0034 03       		.uleb128 0x3
 2571 0035 0E       		.uleb128 0xe
 2572 0036 00       		.byte	0
 2573 0037 00       		.byte	0
 2574 0038 05       		.uleb128 0x5
 2575 0039 35       		.uleb128 0x35
 2576 003a 00       		.byte	0
 2577 003b 49       		.uleb128 0x49
 2578 003c 13       		.uleb128 0x13
 2579 003d 00       		.byte	0
 2580 003e 00       		.byte	0
 2581 003f 06       		.uleb128 0x6
 2582 0040 26       		.uleb128 0x26
 2583 0041 00       		.byte	0
 2584 0042 49       		.uleb128 0x49
 2585 0043 13       		.uleb128 0x13
 2586 0044 00       		.byte	0
 2587 0045 00       		.byte	0
 2588 0046 07       		.uleb128 0x7
 2589 0047 13       		.uleb128 0x13
 2590 0048 01       		.byte	0x1
 2591 0049 03       		.uleb128 0x3
 2592 004a 0E       		.uleb128 0xe
 2593 004b 0B       		.uleb128 0xb
 2594 004c 0B       		.uleb128 0xb
 2595 004d 3A       		.uleb128 0x3a
 2596 004e 0B       		.uleb128 0xb
 2597 004f 3B       		.uleb128 0x3b
 2598 0050 0B       		.uleb128 0xb
 2599 0051 39       		.uleb128 0x39
 2600 0052 0B       		.uleb128 0xb
 2601 0053 01       		.uleb128 0x1
 2602 0054 13       		.uleb128 0x13
 2603 0055 00       		.byte	0
 2604 0056 00       		.byte	0
 2605 0057 08       		.uleb128 0x8
 2606 0058 0D       		.uleb128 0xd
 2607 0059 00       		.byte	0
 2608 005a 03       		.uleb128 0x3
ARM GAS  /var/folders/l5/0x54b2c10074c8bt31ycjvl80000gp/T//ccOsUWHl.s 			page 47


 2609 005b 0E       		.uleb128 0xe
 2610 005c 3A       		.uleb128 0x3a
 2611 005d 0B       		.uleb128 0xb
 2612 005e 3B       		.uleb128 0x3b
 2613 005f 0B       		.uleb128 0xb
 2614 0060 39       		.uleb128 0x39
 2615 0061 0B       		.uleb128 0xb
 2616 0062 49       		.uleb128 0x49
 2617 0063 13       		.uleb128 0x13
 2618 0064 38       		.uleb128 0x38
 2619 0065 0B       		.uleb128 0xb
 2620 0066 00       		.byte	0
 2621 0067 00       		.byte	0
 2622 0068 09       		.uleb128 0x9
 2623 0069 0D       		.uleb128 0xd
 2624 006a 00       		.byte	0
 2625 006b 03       		.uleb128 0x3
 2626 006c 08       		.uleb128 0x8
 2627 006d 3A       		.uleb128 0x3a
 2628 006e 0B       		.uleb128 0xb
 2629 006f 3B       		.uleb128 0x3b
 2630 0070 0B       		.uleb128 0xb
 2631 0071 39       		.uleb128 0x39
 2632 0072 0B       		.uleb128 0xb
 2633 0073 49       		.uleb128 0x49
 2634 0074 13       		.uleb128 0x13
 2635 0075 38       		.uleb128 0x38
 2636 0076 0B       		.uleb128 0xb
 2637 0077 00       		.byte	0
 2638 0078 00       		.byte	0
 2639 0079 0A       		.uleb128 0xa
 2640 007a 13       		.uleb128 0x13
 2641 007b 01       		.byte	0x1
 2642 007c 0B       		.uleb128 0xb
 2643 007d 0B       		.uleb128 0xb
 2644 007e 3A       		.uleb128 0x3a
 2645 007f 0B       		.uleb128 0xb
 2646 0080 3B       		.uleb128 0x3b
 2647 0081 0B       		.uleb128 0xb
 2648 0082 39       		.uleb128 0x39
 2649 0083 0B       		.uleb128 0xb
 2650 0084 01       		.uleb128 0x1
 2651 0085 13       		.uleb128 0x13
 2652 0086 00       		.byte	0
 2653 0087 00       		.byte	0
 2654 0088 0B       		.uleb128 0xb
 2655 0089 0F       		.uleb128 0xf
 2656 008a 00       		.byte	0
 2657 008b 0B       		.uleb128 0xb
 2658 008c 0B       		.uleb128 0xb
 2659 008d 49       		.uleb128 0x49
 2660 008e 13       		.uleb128 0x13
 2661 008f 00       		.byte	0
 2662 0090 00       		.byte	0
 2663 0091 0C       		.uleb128 0xc
 2664 0092 0F       		.uleb128 0xf
 2665 0093 00       		.byte	0
ARM GAS  /var/folders/l5/0x54b2c10074c8bt31ycjvl80000gp/T//ccOsUWHl.s 			page 48


 2666 0094 0B       		.uleb128 0xb
 2667 0095 0B       		.uleb128 0xb
 2668 0096 00       		.byte	0
 2669 0097 00       		.byte	0
 2670 0098 0D       		.uleb128 0xd
 2671 0099 15       		.uleb128 0x15
 2672 009a 01       		.byte	0x1
 2673 009b 27       		.uleb128 0x27
 2674 009c 19       		.uleb128 0x19
 2675 009d 01       		.uleb128 0x1
 2676 009e 13       		.uleb128 0x13
 2677 009f 00       		.byte	0
 2678 00a0 00       		.byte	0
 2679 00a1 0E       		.uleb128 0xe
 2680 00a2 05       		.uleb128 0x5
 2681 00a3 00       		.byte	0
 2682 00a4 49       		.uleb128 0x49
 2683 00a5 13       		.uleb128 0x13
 2684 00a6 00       		.byte	0
 2685 00a7 00       		.byte	0
 2686 00a8 0F       		.uleb128 0xf
 2687 00a9 34       		.uleb128 0x34
 2688 00aa 00       		.byte	0
 2689 00ab 03       		.uleb128 0x3
 2690 00ac 0E       		.uleb128 0xe
 2691 00ad 3A       		.uleb128 0x3a
 2692 00ae 0B       		.uleb128 0xb
 2693 00af 3B       		.uleb128 0x3b
 2694 00b0 0B       		.uleb128 0xb
 2695 00b1 39       		.uleb128 0x39
 2696 00b2 0B       		.uleb128 0xb
 2697 00b3 49       		.uleb128 0x49
 2698 00b4 13       		.uleb128 0x13
 2699 00b5 3F       		.uleb128 0x3f
 2700 00b6 19       		.uleb128 0x19
 2701 00b7 3C       		.uleb128 0x3c
 2702 00b8 19       		.uleb128 0x19
 2703 00b9 00       		.byte	0
 2704 00ba 00       		.byte	0
 2705 00bb 10       		.uleb128 0x10
 2706 00bc 17       		.uleb128 0x17
 2707 00bd 01       		.byte	0x1
 2708 00be 0B       		.uleb128 0xb
 2709 00bf 0B       		.uleb128 0xb
 2710 00c0 3A       		.uleb128 0x3a
 2711 00c1 0B       		.uleb128 0xb
 2712 00c2 3B       		.uleb128 0x3b
 2713 00c3 0B       		.uleb128 0xb
 2714 00c4 39       		.uleb128 0x39
 2715 00c5 0B       		.uleb128 0xb
 2716 00c6 01       		.uleb128 0x1
 2717 00c7 13       		.uleb128 0x13
 2718 00c8 00       		.byte	0
 2719 00c9 00       		.byte	0
 2720 00ca 11       		.uleb128 0x11
 2721 00cb 0D       		.uleb128 0xd
 2722 00cc 00       		.byte	0
ARM GAS  /var/folders/l5/0x54b2c10074c8bt31ycjvl80000gp/T//ccOsUWHl.s 			page 49


 2723 00cd 03       		.uleb128 0x3
 2724 00ce 0E       		.uleb128 0xe
 2725 00cf 3A       		.uleb128 0x3a
 2726 00d0 0B       		.uleb128 0xb
 2727 00d1 3B       		.uleb128 0x3b
 2728 00d2 0B       		.uleb128 0xb
 2729 00d3 39       		.uleb128 0x39
 2730 00d4 0B       		.uleb128 0xb
 2731 00d5 49       		.uleb128 0x49
 2732 00d6 13       		.uleb128 0x13
 2733 00d7 00       		.byte	0
 2734 00d8 00       		.byte	0
 2735 00d9 12       		.uleb128 0x12
 2736 00da 15       		.uleb128 0x15
 2737 00db 01       		.byte	0x1
 2738 00dc 27       		.uleb128 0x27
 2739 00dd 19       		.uleb128 0x19
 2740 00de 49       		.uleb128 0x49
 2741 00df 13       		.uleb128 0x13
 2742 00e0 01       		.uleb128 0x1
 2743 00e1 13       		.uleb128 0x13
 2744 00e2 00       		.byte	0
 2745 00e3 00       		.byte	0
 2746 00e4 13       		.uleb128 0x13
 2747 00e5 01       		.uleb128 0x1
 2748 00e6 01       		.byte	0x1
 2749 00e7 49       		.uleb128 0x49
 2750 00e8 13       		.uleb128 0x13
 2751 00e9 01       		.uleb128 0x1
 2752 00ea 13       		.uleb128 0x13
 2753 00eb 00       		.byte	0
 2754 00ec 00       		.byte	0
 2755 00ed 14       		.uleb128 0x14
 2756 00ee 21       		.uleb128 0x21
 2757 00ef 00       		.byte	0
 2758 00f0 49       		.uleb128 0x49
 2759 00f1 13       		.uleb128 0x13
 2760 00f2 2F       		.uleb128 0x2f
 2761 00f3 0B       		.uleb128 0xb
 2762 00f4 00       		.byte	0
 2763 00f5 00       		.byte	0
 2764 00f6 15       		.uleb128 0x15
 2765 00f7 0D       		.uleb128 0xd
 2766 00f8 00       		.byte	0
 2767 00f9 03       		.uleb128 0x3
 2768 00fa 0E       		.uleb128 0xe
 2769 00fb 3A       		.uleb128 0x3a
 2770 00fc 0B       		.uleb128 0xb
 2771 00fd 3B       		.uleb128 0x3b
 2772 00fe 05       		.uleb128 0x5
 2773 00ff 39       		.uleb128 0x39
 2774 0100 0B       		.uleb128 0xb
 2775 0101 49       		.uleb128 0x49
 2776 0102 13       		.uleb128 0x13
 2777 0103 38       		.uleb128 0x38
 2778 0104 0B       		.uleb128 0xb
 2779 0105 00       		.byte	0
ARM GAS  /var/folders/l5/0x54b2c10074c8bt31ycjvl80000gp/T//ccOsUWHl.s 			page 50


 2780 0106 00       		.byte	0
 2781 0107 16       		.uleb128 0x16
 2782 0108 16       		.uleb128 0x16
 2783 0109 00       		.byte	0
 2784 010a 03       		.uleb128 0x3
 2785 010b 0E       		.uleb128 0xe
 2786 010c 3A       		.uleb128 0x3a
 2787 010d 0B       		.uleb128 0xb
 2788 010e 3B       		.uleb128 0x3b
 2789 010f 05       		.uleb128 0x5
 2790 0110 39       		.uleb128 0x39
 2791 0111 0B       		.uleb128 0xb
 2792 0112 49       		.uleb128 0x49
 2793 0113 13       		.uleb128 0x13
 2794 0114 00       		.byte	0
 2795 0115 00       		.byte	0
 2796 0116 17       		.uleb128 0x17
 2797 0117 13       		.uleb128 0x13
 2798 0118 00       		.byte	0
 2799 0119 0B       		.uleb128 0xb
 2800 011a 0B       		.uleb128 0xb
 2801 011b 3A       		.uleb128 0x3a
 2802 011c 0B       		.uleb128 0xb
 2803 011d 3B       		.uleb128 0x3b
 2804 011e 0B       		.uleb128 0xb
 2805 011f 39       		.uleb128 0x39
 2806 0120 0B       		.uleb128 0xb
 2807 0121 00       		.byte	0
 2808 0122 00       		.byte	0
 2809 0123 18       		.uleb128 0x18
 2810 0124 04       		.uleb128 0x4
 2811 0125 01       		.byte	0x1
 2812 0126 3E       		.uleb128 0x3e
 2813 0127 0B       		.uleb128 0xb
 2814 0128 0B       		.uleb128 0xb
 2815 0129 0B       		.uleb128 0xb
 2816 012a 49       		.uleb128 0x49
 2817 012b 13       		.uleb128 0x13
 2818 012c 3A       		.uleb128 0x3a
 2819 012d 0B       		.uleb128 0xb
 2820 012e 3B       		.uleb128 0x3b
 2821 012f 0B       		.uleb128 0xb
 2822 0130 39       		.uleb128 0x39
 2823 0131 0B       		.uleb128 0xb
 2824 0132 01       		.uleb128 0x1
 2825 0133 13       		.uleb128 0x13
 2826 0134 00       		.byte	0
 2827 0135 00       		.byte	0
 2828 0136 19       		.uleb128 0x19
 2829 0137 28       		.uleb128 0x28
 2830 0138 00       		.byte	0
 2831 0139 03       		.uleb128 0x3
 2832 013a 0E       		.uleb128 0xe
 2833 013b 1C       		.uleb128 0x1c
 2834 013c 0B       		.uleb128 0xb
 2835 013d 00       		.byte	0
 2836 013e 00       		.byte	0
ARM GAS  /var/folders/l5/0x54b2c10074c8bt31ycjvl80000gp/T//ccOsUWHl.s 			page 51


 2837 013f 1A       		.uleb128 0x1a
 2838 0140 34       		.uleb128 0x34
 2839 0141 00       		.byte	0
 2840 0142 03       		.uleb128 0x3
 2841 0143 08       		.uleb128 0x8
 2842 0144 3A       		.uleb128 0x3a
 2843 0145 0B       		.uleb128 0xb
 2844 0146 3B       		.uleb128 0x3b
 2845 0147 0B       		.uleb128 0xb
 2846 0148 39       		.uleb128 0x39
 2847 0149 0B       		.uleb128 0xb
 2848 014a 49       		.uleb128 0x49
 2849 014b 13       		.uleb128 0x13
 2850 014c 3F       		.uleb128 0x3f
 2851 014d 19       		.uleb128 0x19
 2852 014e 3C       		.uleb128 0x3c
 2853 014f 19       		.uleb128 0x19
 2854 0150 00       		.byte	0
 2855 0151 00       		.byte	0
 2856 0152 1B       		.uleb128 0x1b
 2857 0153 26       		.uleb128 0x26
 2858 0154 00       		.byte	0
 2859 0155 00       		.byte	0
 2860 0156 00       		.byte	0
 2861 0157 1C       		.uleb128 0x1c
 2862 0158 34       		.uleb128 0x34
 2863 0159 00       		.byte	0
 2864 015a 03       		.uleb128 0x3
 2865 015b 0E       		.uleb128 0xe
 2866 015c 3A       		.uleb128 0x3a
 2867 015d 0B       		.uleb128 0xb
 2868 015e 3B       		.uleb128 0x3b
 2869 015f 0B       		.uleb128 0xb
 2870 0160 39       		.uleb128 0x39
 2871 0161 0B       		.uleb128 0xb
 2872 0162 49       		.uleb128 0x49
 2873 0163 13       		.uleb128 0x13
 2874 0164 02       		.uleb128 0x2
 2875 0165 18       		.uleb128 0x18
 2876 0166 00       		.byte	0
 2877 0167 00       		.byte	0
 2878 0168 1D       		.uleb128 0x1d
 2879 0169 2E       		.uleb128 0x2e
 2880 016a 01       		.byte	0x1
 2881 016b 3F       		.uleb128 0x3f
 2882 016c 19       		.uleb128 0x19
 2883 016d 03       		.uleb128 0x3
 2884 016e 0E       		.uleb128 0xe
 2885 016f 3A       		.uleb128 0x3a
 2886 0170 0B       		.uleb128 0xb
 2887 0171 3B       		.uleb128 0x3b
 2888 0172 0B       		.uleb128 0xb
 2889 0173 39       		.uleb128 0x39
 2890 0174 0B       		.uleb128 0xb
 2891 0175 27       		.uleb128 0x27
 2892 0176 19       		.uleb128 0x19
 2893 0177 11       		.uleb128 0x11
ARM GAS  /var/folders/l5/0x54b2c10074c8bt31ycjvl80000gp/T//ccOsUWHl.s 			page 52


 2894 0178 01       		.uleb128 0x1
 2895 0179 12       		.uleb128 0x12
 2896 017a 06       		.uleb128 0x6
 2897 017b 40       		.uleb128 0x40
 2898 017c 18       		.uleb128 0x18
 2899 017d 9742     		.uleb128 0x2117
 2900 017f 19       		.uleb128 0x19
 2901 0180 01       		.uleb128 0x1
 2902 0181 13       		.uleb128 0x13
 2903 0182 00       		.byte	0
 2904 0183 00       		.byte	0
 2905 0184 1E       		.uleb128 0x1e
 2906 0185 898201   		.uleb128 0x4109
 2907 0188 00       		.byte	0
 2908 0189 11       		.uleb128 0x11
 2909 018a 01       		.uleb128 0x1
 2910 018b 31       		.uleb128 0x31
 2911 018c 13       		.uleb128 0x13
 2912 018d 00       		.byte	0
 2913 018e 00       		.byte	0
 2914 018f 1F       		.uleb128 0x1f
 2915 0190 898201   		.uleb128 0x4109
 2916 0193 01       		.byte	0x1
 2917 0194 11       		.uleb128 0x11
 2918 0195 01       		.uleb128 0x1
 2919 0196 31       		.uleb128 0x31
 2920 0197 13       		.uleb128 0x13
 2921 0198 01       		.uleb128 0x1
 2922 0199 13       		.uleb128 0x13
 2923 019a 00       		.byte	0
 2924 019b 00       		.byte	0
 2925 019c 20       		.uleb128 0x20
 2926 019d 8A8201   		.uleb128 0x410a
 2927 01a0 00       		.byte	0
 2928 01a1 02       		.uleb128 0x2
 2929 01a2 18       		.uleb128 0x18
 2930 01a3 9142     		.uleb128 0x2111
 2931 01a5 18       		.uleb128 0x18
 2932 01a6 00       		.byte	0
 2933 01a7 00       		.byte	0
 2934 01a8 21       		.uleb128 0x21
 2935 01a9 898201   		.uleb128 0x4109
 2936 01ac 00       		.byte	0
 2937 01ad 11       		.uleb128 0x11
 2938 01ae 01       		.uleb128 0x1
 2939 01af 9542     		.uleb128 0x2115
 2940 01b1 19       		.uleb128 0x19
 2941 01b2 31       		.uleb128 0x31
 2942 01b3 13       		.uleb128 0x13
 2943 01b4 00       		.byte	0
 2944 01b5 00       		.byte	0
 2945 01b6 22       		.uleb128 0x22
 2946 01b7 2E       		.uleb128 0x2e
 2947 01b8 01       		.byte	0x1
 2948 01b9 03       		.uleb128 0x3
 2949 01ba 0E       		.uleb128 0xe
 2950 01bb 3A       		.uleb128 0x3a
ARM GAS  /var/folders/l5/0x54b2c10074c8bt31ycjvl80000gp/T//ccOsUWHl.s 			page 53


 2951 01bc 0B       		.uleb128 0xb
 2952 01bd 3B       		.uleb128 0x3b
 2953 01be 0B       		.uleb128 0xb
 2954 01bf 39       		.uleb128 0x39
 2955 01c0 0B       		.uleb128 0xb
 2956 01c1 27       		.uleb128 0x27
 2957 01c2 19       		.uleb128 0x19
 2958 01c3 49       		.uleb128 0x49
 2959 01c4 13       		.uleb128 0x13
 2960 01c5 11       		.uleb128 0x11
 2961 01c6 01       		.uleb128 0x1
 2962 01c7 12       		.uleb128 0x12
 2963 01c8 06       		.uleb128 0x6
 2964 01c9 40       		.uleb128 0x40
 2965 01ca 18       		.uleb128 0x18
 2966 01cb 9742     		.uleb128 0x2117
 2967 01cd 19       		.uleb128 0x19
 2968 01ce 01       		.uleb128 0x1
 2969 01cf 13       		.uleb128 0x13
 2970 01d0 00       		.byte	0
 2971 01d1 00       		.byte	0
 2972 01d2 23       		.uleb128 0x23
 2973 01d3 05       		.uleb128 0x5
 2974 01d4 00       		.byte	0
 2975 01d5 03       		.uleb128 0x3
 2976 01d6 08       		.uleb128 0x8
 2977 01d7 3A       		.uleb128 0x3a
 2978 01d8 0B       		.uleb128 0xb
 2979 01d9 3B       		.uleb128 0x3b
 2980 01da 0B       		.uleb128 0xb
 2981 01db 39       		.uleb128 0x39
 2982 01dc 0B       		.uleb128 0xb
 2983 01dd 49       		.uleb128 0x49
 2984 01de 13       		.uleb128 0x13
 2985 01df 02       		.uleb128 0x2
 2986 01e0 17       		.uleb128 0x17
 2987 01e1 B742     		.uleb128 0x2137
 2988 01e3 17       		.uleb128 0x17
 2989 01e4 00       		.byte	0
 2990 01e5 00       		.byte	0
 2991 01e6 24       		.uleb128 0x24
 2992 01e7 898201   		.uleb128 0x4109
 2993 01ea 01       		.byte	0x1
 2994 01eb 11       		.uleb128 0x11
 2995 01ec 01       		.uleb128 0x1
 2996 01ed 31       		.uleb128 0x31
 2997 01ee 13       		.uleb128 0x13
 2998 01ef 00       		.byte	0
 2999 01f0 00       		.byte	0
 3000 01f1 25       		.uleb128 0x25
 3001 01f2 2E       		.uleb128 0x2e
 3002 01f3 01       		.byte	0x1
 3003 01f4 03       		.uleb128 0x3
 3004 01f5 0E       		.uleb128 0xe
 3005 01f6 3A       		.uleb128 0x3a
 3006 01f7 0B       		.uleb128 0xb
 3007 01f8 3B       		.uleb128 0x3b
ARM GAS  /var/folders/l5/0x54b2c10074c8bt31ycjvl80000gp/T//ccOsUWHl.s 			page 54


 3008 01f9 0B       		.uleb128 0xb
 3009 01fa 39       		.uleb128 0x39
 3010 01fb 0B       		.uleb128 0xb
 3011 01fc 27       		.uleb128 0x27
 3012 01fd 19       		.uleb128 0x19
 3013 01fe 11       		.uleb128 0x11
 3014 01ff 01       		.uleb128 0x1
 3015 0200 12       		.uleb128 0x12
 3016 0201 06       		.uleb128 0x6
 3017 0202 40       		.uleb128 0x40
 3018 0203 18       		.uleb128 0x18
 3019 0204 9742     		.uleb128 0x2117
 3020 0206 19       		.uleb128 0x19
 3021 0207 01       		.uleb128 0x1
 3022 0208 13       		.uleb128 0x13
 3023 0209 00       		.byte	0
 3024 020a 00       		.byte	0
 3025 020b 26       		.uleb128 0x26
 3026 020c 898201   		.uleb128 0x4109
 3027 020f 01       		.byte	0x1
 3028 0210 11       		.uleb128 0x11
 3029 0211 01       		.uleb128 0x1
 3030 0212 9542     		.uleb128 0x2115
 3031 0214 19       		.uleb128 0x19
 3032 0215 31       		.uleb128 0x31
 3033 0216 13       		.uleb128 0x13
 3034 0217 00       		.byte	0
 3035 0218 00       		.byte	0
 3036 0219 27       		.uleb128 0x27
 3037 021a 2E       		.uleb128 0x2e
 3038 021b 00       		.byte	0
 3039 021c 3F       		.uleb128 0x3f
 3040 021d 19       		.uleb128 0x19
 3041 021e 3C       		.uleb128 0x3c
 3042 021f 19       		.uleb128 0x19
 3043 0220 6E       		.uleb128 0x6e
 3044 0221 0E       		.uleb128 0xe
 3045 0222 03       		.uleb128 0x3
 3046 0223 0E       		.uleb128 0xe
 3047 0224 3A       		.uleb128 0x3a
 3048 0225 0B       		.uleb128 0xb
 3049 0226 3B       		.uleb128 0x3b
 3050 0227 0B       		.uleb128 0xb
 3051 0228 39       		.uleb128 0x39
 3052 0229 0B       		.uleb128 0xb
 3053 022a 00       		.byte	0
 3054 022b 00       		.byte	0
 3055 022c 28       		.uleb128 0x28
 3056 022d 2E       		.uleb128 0x2e
 3057 022e 00       		.byte	0
 3058 022f 3F       		.uleb128 0x3f
 3059 0230 19       		.uleb128 0x19
 3060 0231 3C       		.uleb128 0x3c
 3061 0232 19       		.uleb128 0x19
 3062 0233 6E       		.uleb128 0x6e
 3063 0234 0E       		.uleb128 0xe
 3064 0235 03       		.uleb128 0x3
ARM GAS  /var/folders/l5/0x54b2c10074c8bt31ycjvl80000gp/T//ccOsUWHl.s 			page 55


 3065 0236 0E       		.uleb128 0xe
 3066 0237 3A       		.uleb128 0x3a
 3067 0238 0B       		.uleb128 0xb
 3068 0239 3B       		.uleb128 0x3b
 3069 023a 05       		.uleb128 0x5
 3070 023b 39       		.uleb128 0x39
 3071 023c 0B       		.uleb128 0xb
 3072 023d 00       		.byte	0
 3073 023e 00       		.byte	0
 3074 023f 00       		.byte	0
 3075              		.section	.debug_loc,"",%progbits
 3076              	.Ldebug_loc0:
 3077              	.LVUS2:
 3078 0000 00       		.uleb128 0
 3079 0001 00       		.uleb128 .LVU21
 3080 0002 00       		.uleb128 .LVU21
 3081 0003 00       		.uleb128 0
 3082              	.LLST2:
 3083 0004 00000000 		.4byte	.LVL8
 3084 0008 20000000 		.4byte	.LVL9
 3085 000c 0100     		.2byte	0x1
 3086 000e 50       		.byte	0x50
 3087 000f 20000000 		.4byte	.LVL9
 3088 0013 50000000 		.4byte	.LFE9
 3089 0017 0400     		.2byte	0x4
 3090 0019 F3       		.byte	0xf3
 3091 001a 01       		.uleb128 0x1
 3092 001b 50       		.byte	0x50
 3093 001c 9F       		.byte	0x9f
 3094 001d 00000000 		.4byte	0
 3095 0021 00000000 		.4byte	0
 3096              	.LVUS0:
 3097 0025 00       		.uleb128 0
 3098 0026 00       		.uleb128 .LVU2
 3099 0027 00       		.uleb128 .LVU2
 3100 0028 00       		.uleb128 0
 3101              	.LLST0:
 3102 0029 00000000 		.4byte	.LVL0
 3103 002d 04000000 		.4byte	.LVL1
 3104 0031 0100     		.2byte	0x1
 3105 0033 50       		.byte	0x50
 3106 0034 04000000 		.4byte	.LVL1
 3107 0038 38000000 		.4byte	.LFE8
 3108 003c 0400     		.2byte	0x4
 3109 003e F3       		.byte	0xf3
 3110 003f 01       		.uleb128 0x1
 3111 0040 50       		.byte	0x50
 3112 0041 9F       		.byte	0x9f
 3113 0042 00000000 		.4byte	0
 3114 0046 00000000 		.4byte	0
 3115              	.LVUS1:
 3116 004a 00       		.uleb128 0
 3117 004b 00       		.uleb128 .LVU9
 3118 004c 00       		.uleb128 .LVU9
 3119 004d 00       		.uleb128 0
 3120              	.LLST1:
 3121 004e 00000000 		.4byte	.LVL4
ARM GAS  /var/folders/l5/0x54b2c10074c8bt31ycjvl80000gp/T//ccOsUWHl.s 			page 56


 3122 0052 04000000 		.4byte	.LVL5
 3123 0056 0100     		.2byte	0x1
 3124 0058 50       		.byte	0x50
 3125 0059 04000000 		.4byte	.LVL5
 3126 005d 38000000 		.4byte	.LFE7
 3127 0061 0400     		.2byte	0x4
 3128 0063 F3       		.byte	0xf3
 3129 0064 01       		.uleb128 0x1
 3130 0065 50       		.byte	0x50
 3131 0066 9F       		.byte	0x9f
 3132 0067 00000000 		.4byte	0
 3133 006b 00000000 		.4byte	0
 3134              		.section	.debug_aranges,"",%progbits
 3135 0000 34000000 		.4byte	0x34
 3136 0004 0200     		.2byte	0x2
 3137 0006 00000000 		.4byte	.Ldebug_info0
 3138 000a 04       		.byte	0x4
 3139 000b 00       		.byte	0
 3140 000c 0000     		.2byte	0
 3141 000e 0000     		.2byte	0
 3142 0010 00000000 		.4byte	.LFB8
 3143 0014 38000000 		.4byte	.LFE8-.LFB8
 3144 0018 00000000 		.4byte	.LFB7
 3145 001c 38000000 		.4byte	.LFE7-.LFB7
 3146 0020 00000000 		.4byte	.LFB9
 3147 0024 50000000 		.4byte	.LFE9-.LFB9
 3148 0028 00000000 		.4byte	.LFB10
 3149 002c 90000000 		.4byte	.LFE10-.LFB10
 3150 0030 00000000 		.4byte	0
 3151 0034 00000000 		.4byte	0
 3152              		.section	.debug_ranges,"",%progbits
 3153              	.Ldebug_ranges0:
 3154 0000 00000000 		.4byte	.LFB8
 3155 0004 38000000 		.4byte	.LFE8
 3156 0008 00000000 		.4byte	.LFB7
 3157 000c 38000000 		.4byte	.LFE7
 3158 0010 00000000 		.4byte	.LFB9
 3159 0014 50000000 		.4byte	.LFE9
 3160 0018 00000000 		.4byte	.LFB10
 3161 001c 90000000 		.4byte	.LFE10
 3162 0020 00000000 		.4byte	0
 3163 0024 00000000 		.4byte	0
 3164              		.section	.debug_line,"",%progbits
 3165              	.Ldebug_line0:
 3166 0000 49030000 		.section	.debug_str,"MS",%progbits,1
 3166      03009602 
 3166      00000201 
 3166      FB0E0D00 
 3166      01010101 
 3167              	.LASF94:
 3168 0000 63665F6F 		.ascii	"cf_off_older\000"
 3168      66665F6F 
 3168      6C646572 
 3168      00
 3169              	.LASF40:
 3170 000d 705F6D73 		.ascii	"p_msg\000"
 3170      6700
ARM GAS  /var/folders/l5/0x54b2c10074c8bt31ycjvl80000gp/T//ccOsUWHl.s 			page 57


 3171              	.LASF2:
 3172 0013 73697A65 		.ascii	"size_t\000"
 3172      5F7400
 3173              	.LASF79:
 3174 001a 7264796D 		.ascii	"rdymsg\000"
 3174      736700
 3175              	.LASF173:
 3176 0021 77726974 		.ascii	"write\000"
 3176      6500
 3177              	.LASF115:
 3178 0027 4F757470 		.ascii	"OutputQueue\000"
 3178      75745175 
 3178      65756500 
 3179              	.LASF3:
 3180 0033 5F5F7569 		.ascii	"__uint8_t\000"
 3180      6E74385F 
 3180      7400
 3181              	.LASF182:
 3182 003d 5350495F 		.ascii	"SPI_ACTIVE\000"
 3182      41435449 
 3182      564500
 3183              	.LASF66:
 3184 0048 76746C69 		.ascii	"vtlist\000"
 3184      737400
 3185              	.LASF117:
 3186 004f 62736364 		.ascii	"bscdevice_t\000"
 3186      65766963 
 3186      655F7400 
 3187              	.LASF134:
 3188 005b 696F706F 		.ascii	"ioportmask_t\000"
 3188      72746D61 
 3188      736B5F74 
 3188      00
 3189              	.LASF108:
 3190 0068 715F746F 		.ascii	"q_top\000"
 3190      7000
 3191              	.LASF13:
 3192 006e 6C6F6E67 		.ascii	"long long unsigned int\000"
 3192      206C6F6E 
 3192      6720756E 
 3192      7369676E 
 3192      65642069 
 3193              	.LASF90:
 3194 0085 63685F74 		.ascii	"ch_threadsize\000"
 3194      68726561 
 3194      6473697A 
 3194      6500
 3195              	.LASF80:
 3196 0093 65786974 		.ascii	"exitcode\000"
 3196      636F6465 
 3196      00
 3197              	.LASF185:
 3198 009c 53504944 		.ascii	"SPIDriver\000"
 3198      72697665 
 3198      7200
 3199              	.LASF156:
 3200 00a6 72786275 		.ascii	"rxbuf\000"
ARM GAS  /var/folders/l5/0x54b2c10074c8bt31ycjvl80000gp/T//ccOsUWHl.s 			page 58


 3200      6600
 3201              	.LASF122:
 3202 00ac 64617461 		.ascii	"dataFifo\000"
 3202      4669666F 
 3202      00
 3203              	.LASF204:
 3204 00b5 68616C49 		.ascii	"halInit\000"
 3204      6E697400 
 3205              	.LASF29:
 3206 00bd 705F7072 		.ascii	"p_prio\000"
 3206      696F00
 3207              	.LASF97:
 3208 00c4 63665F6F 		.ascii	"cf_off_state\000"
 3208      66665F73 
 3208      74617465 
 3208      00
 3209              	.LASF178:
 3210 00d1 72656164 		.ascii	"readt\000"
 3210      7400
 3211              	.LASF149:
 3212 00d7 64657669 		.ascii	"device\000"
 3212      636500
 3213              	.LASF105:
 3214 00de 715F7761 		.ascii	"q_waiting\000"
 3214      6974696E 
 3214      6700
 3215              	.LASF12:
 3216 00e8 6C6F6E67 		.ascii	"long long int\000"
 3216      206C6F6E 
 3216      6720696E 
 3216      7400
 3217              	.LASF1:
 3218 00f6 7369676E 		.ascii	"signed char\000"
 3218      65642063 
 3218      68617200 
 3219              	.LASF96:
 3220 0102 63665F6F 		.ascii	"cf_off_stklimit\000"
 3220      66665F73 
 3220      746B6C69 
 3220      6D697400 
 3221              	.LASF180:
 3222 0112 5350495F 		.ascii	"SPI_STOP\000"
 3222      53544F50 
 3222      00
 3223              	.LASF98:
 3224 011b 63665F6F 		.ascii	"cf_off_flags\000"
 3224      66665F66 
 3224      6C616773 
 3224      00
 3225              	.LASF165:
 3226 0128 53445F53 		.ascii	"SD_STOP\000"
 3226      544F5000 
 3227              	.LASF69:
 3228 0130 6D5F7175 		.ascii	"m_queue\000"
 3228      65756500 
 3229              	.LASF152:
 3230 0138 61646472 		.ascii	"addr\000"
ARM GAS  /var/folders/l5/0x54b2c10074c8bt31ycjvl80000gp/T//ccOsUWHl.s 			page 59


 3230      00
 3231              	.LASF84:
 3232 013d 63685F69 		.ascii	"ch_identifier\000"
 3232      64656E74 
 3232      69666965 
 3232      7200
 3233              	.LASF138:
 3234 014b 4932435F 		.ascii	"I2C_UNINIT\000"
 3234      554E494E 
 3234      495400
 3235              	.LASF160:
 3236 0156 69326361 		.ascii	"i2caddr_t\000"
 3236      6464725F 
 3236      7400
 3237              	.LASF146:
 3238 0160 73746174 		.ascii	"state\000"
 3238      6500
 3239              	.LASF9:
 3240 0166 6C6F6E67 		.ascii	"long int\000"
 3240      20696E74 
 3240      00
 3241              	.LASF19:
 3242 016f 74737461 		.ascii	"tstate_t\000"
 3242      74655F74 
 3242      00
 3243              	.LASF151:
 3244 0178 74687265 		.ascii	"thread\000"
 3244      616400
 3245              	.LASF124:
 3246 017f 64617461 		.ascii	"dataDelay\000"
 3246      44656C61 
 3246      7900
 3247              	.LASF158:
 3248 0189 72786964 		.ascii	"rxidx\000"
 3248      7800
 3249              	.LASF107:
 3250 018f 715F6275 		.ascii	"q_buffer\000"
 3250      66666572 
 3250      00
 3251              	.LASF15:
 3252 0198 75696E74 		.ascii	"uint16_t\000"
 3252      31365F74 
 3252      00
 3253              	.LASF198:
 3254 01a1 53504930 		.ascii	"SPI0\000"
 3254      00
 3255              	.LASF102:
 3256 01a6 63686465 		.ascii	"chdebug_t\000"
 3256      6275675F 
 3256      7400
 3257              	.LASF141:
 3258 01b0 4932435F 		.ascii	"I2C_ACTIVE_TX\000"
 3258      41435449 
 3258      56455F54 
 3258      5800
 3259              	.LASF195:
 3260 01be 636C6F63 		.ascii	"clock_phase\000"
ARM GAS  /var/folders/l5/0x54b2c10074c8bt31ycjvl80000gp/T//ccOsUWHl.s 			page 60


 3260      6B5F7068 
 3260      61736500 
 3261              	.LASF31:
 3262 01ca 705F6E65 		.ascii	"p_newer\000"
 3262      77657200 
 3263              	.LASF116:
 3264 01d2 5F69646C 		.ascii	"_idle_thread_wa\000"
 3264      655F7468 
 3264      72656164 
 3264      5F776100 
 3265              	.LASF188:
 3266 01e2 656E645F 		.ascii	"end_cb\000"
 3266      636200
 3267              	.LASF186:
 3268 01e9 7478636E 		.ascii	"txcnt\000"
 3268      7400
 3269              	.LASF192:
 3270 01ef 63686970 		.ascii	"chip_select_polarity0\000"
 3270      5F73656C 
 3270      6563745F 
 3270      706F6C61 
 3270      72697479 
 3271              	.LASF193:
 3272 0205 63686970 		.ascii	"chip_select_polarity1\000"
 3272      5F73656C 
 3272      6563745F 
 3272      706F6C61 
 3272      72697479 
 3273              	.LASF118:
 3274 021b 636F6E74 		.ascii	"control\000"
 3274      726F6C00 
 3275              	.LASF10:
 3276 0223 5F5F7569 		.ascii	"__uint32_t\000"
 3276      6E743332 
 3276      5F7400
 3277              	.LASF47:
 3278 022e 72656761 		.ascii	"regarm_t\000"
 3278      726D5F74 
 3278      00
 3279              	.LASF53:
 3280 0237 76745F70 		.ascii	"vt_prev\000"
 3280      72657600 
 3281              	.LASF121:
 3282 023f 736C6176 		.ascii	"slaveAddress\000"
 3282      65416464 
 3282      72657373 
 3282      00
 3283              	.LASF187:
 3284 024c 73706963 		.ascii	"spicallback_t\000"
 3284      616C6C62 
 3284      61636B5F 
 3284      7400
 3285              	.LASF163:
 3286 025a 49324330 		.ascii	"I2C0\000"
 3286      00
 3287              	.LASF77:
 3288 025f 4576656E 		.ascii	"EventSource\000"
ARM GAS  /var/folders/l5/0x54b2c10074c8bt31ycjvl80000gp/T//ccOsUWHl.s 			page 61


 3288      74536F75 
 3288      72636500 
 3289              	.LASF202:
 3290 026b 6C65645F 		.ascii	"led_set\000"
 3290      73657400 
 3291              	.LASF0:
 3292 0273 756E7369 		.ascii	"unsigned int\000"
 3292      676E6564 
 3292      20696E74 
 3292      00
 3293              	.LASF52:
 3294 0280 76745F6E 		.ascii	"vt_next\000"
 3294      65787400 
 3295              	.LASF153:
 3296 0288 74786275 		.ascii	"txbuf\000"
 3296      6600
 3297              	.LASF172:
 3298 028e 53657269 		.ascii	"SerialDriverVMT\000"
 3298      616C4472 
 3298      69766572 
 3298      564D5400 
 3299              	.LASF148:
 3300 029e 6572726F 		.ascii	"errors\000"
 3300      727300
 3301              	.LASF170:
 3302 02a5 69717565 		.ascii	"iqueue\000"
 3302      756500
 3303              	.LASF11:
 3304 02ac 6C6F6E67 		.ascii	"long unsigned int\000"
 3304      20756E73 
 3304      69676E65 
 3304      6420696E 
 3304      7400
 3305              	.LASF103:
 3306 02be 63685F64 		.ascii	"ch_debug\000"
 3306      65627567 
 3306      00
 3307              	.LASF176:
 3308 02c7 67657474 		.ascii	"gett\000"
 3308      00
 3309              	.LASF50:
 3310 02cc 76746675 		.ascii	"vtfunc_t\000"
 3310      6E635F74 
 3310      00
 3311              	.LASF191:
 3312 02d5 63686970 		.ascii	"chip_select_polarity\000"
 3312      5F73656C 
 3312      6563745F 
 3312      706F6C61 
 3312      72697479 
 3313              	.LASF169:
 3314 02ea 6576656E 		.ascii	"event\000"
 3314      7400
 3315              	.LASF49:
 3316 02f0 636F6E74 		.ascii	"context\000"
 3316      65787400 
 3317              	.LASF215:
ARM GAS  /var/folders/l5/0x54b2c10074c8bt31ycjvl80000gp/T//ccOsUWHl.s 			page 62


 3318 02f8 6576616C 		.ascii	"evaluator\000"
 3318      7561746F 
 3318      7200
 3319              	.LASF7:
 3320 0302 73686F72 		.ascii	"short unsigned int\000"
 3320      7420756E 
 3320      7369676E 
 3320      65642069 
 3320      6E7400
 3321              	.LASF132:
 3322 0315 6770696F 		.ascii	"gpio_port_t\000"
 3322      5F706F72 
 3322      745F7400 
 3323              	.LASF128:
 3324 0321 6770636C 		.ascii	"gpclr\000"
 3324      7200
 3325              	.LASF22:
 3326 0327 6D73675F 		.ascii	"msg_t\000"
 3326      7400
 3327              	.LASF171:
 3328 032d 6F717565 		.ascii	"oqueue\000"
 3328      756500
 3329              	.LASF62:
 3330 0334 725F6E65 		.ascii	"r_newer\000"
 3330      77657200 
 3331              	.LASF73:
 3332 033c 656C5F6E 		.ascii	"el_next\000"
 3332      65787400 
 3333              	.LASF211:
 3334 0344 474E5520 		.ascii	"GNU C17 8.3.1 20190703 (release) [gcc-8-branch revi"
 3334      43313720 
 3334      382E332E 
 3334      31203230 
 3334      31393037 
 3335 0377 73696F6E 		.ascii	"sion 273027] -mcpu=arm1176jz-s -mno-thumb-interwork"
 3335      20323733 
 3335      3032375D 
 3335      202D6D63 
 3335      70753D61 
 3336 03aa 202D6D66 		.ascii	" -mfloat-abi=soft -marm -march=armv6kz -ggdb -O2 -f"
 3336      6C6F6174 
 3336      2D616269 
 3336      3D736F66 
 3336      74202D6D 
 3337 03dd 6F6D6974 		.ascii	"omit-frame-pointer -ffunction-sections -fdata-secti"
 3337      2D667261 
 3337      6D652D70 
 3337      6F696E74 
 3337      6572202D 
 3338 0410 6F6E7300 		.ascii	"ons\000"
 3339              	.LASF212:
 3340 0414 6D61696E 		.ascii	"main.c\000"
 3340      2E6300
 3341              	.LASF177:
 3342 041b 77726974 		.ascii	"writet\000"
 3342      657400
 3343              	.LASF205:
ARM GAS  /var/folders/l5/0x54b2c10074c8bt31ycjvl80000gp/T//ccOsUWHl.s 			page 63


 3344 0422 63685379 		.ascii	"chSysInit\000"
 3344      73496E69 
 3344      7400
 3345              	.LASF18:
 3346 042c 746D6F64 		.ascii	"tmode_t\000"
 3346      655F7400 
 3347              	.LASF210:
 3348 0434 5F70616C 		.ascii	"_pal_lld_writeport\000"
 3348      5F6C6C64 
 3348      5F777269 
 3348      7465706F 
 3348      727400
 3349              	.LASF45:
 3350 0447 54687265 		.ascii	"ThreadsList\000"
 3350      6164734C 
 3350      69737400 
 3351              	.LASF23:
 3352 0453 6576656E 		.ascii	"eventmask_t\000"
 3352      746D6173 
 3352      6B5F7400 
 3353              	.LASF114:
 3354 045f 496E7075 		.ascii	"InputQueue\000"
 3354      74517565 
 3354      756500
 3355              	.LASF68:
 3356 046a 4D757465 		.ascii	"Mutex\000"
 3356      7800
 3357              	.LASF104:
 3358 0470 47656E65 		.ascii	"GenericQueue\000"
 3358      72696351 
 3358      75657565 
 3358      00
 3359              	.LASF46:
 3360 047d 73746B61 		.ascii	"stkalign_t\000"
 3360      6C69676E 
 3360      5F7400
 3361              	.LASF207:
 3362 0488 63685468 		.ascii	"chThdCreateStatic\000"
 3362      64437265 
 3362      61746553 
 3362      74617469 
 3362      6300
 3363              	.LASF85:
 3364 049a 63685F7A 		.ascii	"ch_zero\000"
 3364      65726F00 
 3365              	.LASF99:
 3366 04a2 63665F6F 		.ascii	"cf_off_refs\000"
 3366      66665F72 
 3366      65667300 
 3367              	.LASF129:
 3368 04ae 67706C65 		.ascii	"gplev\000"
 3368      7600
 3369              	.LASF175:
 3370 04b4 70757474 		.ascii	"putt\000"
 3370      00
 3371              	.LASF54:
 3372 04b9 76745F74 		.ascii	"vt_time\000"
ARM GAS  /var/folders/l5/0x54b2c10074c8bt31ycjvl80000gp/T//ccOsUWHl.s 			page 64


 3372      696D6500 
 3373              	.LASF139:
 3374 04c1 4932435F 		.ascii	"I2C_STOP\000"
 3374      53544F50 
 3374      00
 3375              	.LASF123:
 3376 04ca 636C6F63 		.ascii	"clockDivider\000"
 3376      6B446976 
 3376      69646572 
 3376      00
 3377              	.LASF106:
 3378 04d7 715F636F 		.ascii	"q_counter\000"
 3378      756E7465 
 3378      7200
 3379              	.LASF55:
 3380 04e1 76745F66 		.ascii	"vt_func\000"
 3380      756E6300 
 3381              	.LASF89:
 3382 04e9 63685F74 		.ascii	"ch_timesize\000"
 3382      696D6573 
 3382      697A6500 
 3383              	.LASF214:
 3384 04f5 6D61696E 		.ascii	"main\000"
 3384      00
 3385              	.LASF161:
 3386 04fa 69635F73 		.ascii	"ic_speed\000"
 3386      70656564 
 3386      00
 3387              	.LASF95:
 3388 0503 63665F6F 		.ascii	"cf_off_name\000"
 3388      66665F6E 
 3388      616D6500 
 3389              	.LASF208:
 3390 050f 63685654 		.ascii	"chVTSetI\000"
 3390      53657449 
 3390      00
 3391              	.LASF32:
 3392 0518 705F6F6C 		.ascii	"p_older\000"
 3392      64657200 
 3393              	.LASF157:
 3394 0520 72786279 		.ascii	"rxbytes\000"
 3394      74657300 
 3395              	.LASF109:
 3396 0528 715F7772 		.ascii	"q_wrptr\000"
 3396      70747200 
 3397              	.LASF61:
 3398 0530 725F6374 		.ascii	"r_ctx\000"
 3398      7800
 3399              	.LASF44:
 3400 0536 54687265 		.ascii	"ThreadsQueue\000"
 3400      61647351 
 3400      75657565 
 3400      00
 3401              	.LASF200:
 3402 0543 6C65645F 		.ascii	"led_vt2\000"
 3402      76743200 
 3403              	.LASF86:
ARM GAS  /var/folders/l5/0x54b2c10074c8bt31ycjvl80000gp/T//ccOsUWHl.s 			page 65


 3404 054b 63685F73 		.ascii	"ch_size\000"
 3404      697A6500 
 3405              	.LASF135:
 3406 0553 494F504F 		.ascii	"IOPORT0\000"
 3406      52543000 
 3407              	.LASF64:
 3408 055b 725F6375 		.ascii	"r_current\000"
 3408      7272656E 
 3408      7400
 3409              	.LASF63:
 3410 0565 725F6F6C 		.ascii	"r_older\000"
 3410      64657200 
 3411              	.LASF75:
 3412 056d 656C5F6D 		.ascii	"el_mask\000"
 3412      61736B00 
 3413              	.LASF127:
 3414 0575 67707365 		.ascii	"gpset\000"
 3414      7400
 3415              	.LASF130:
 3416 057b 67707075 		.ascii	"gppudclk\000"
 3416      64636C6B 
 3416      00
 3417              	.LASF189:
 3418 0584 6C6F7373 		.ascii	"lossiEnabled\000"
 3418      69456E61 
 3418      626C6564 
 3418      00
 3419              	.LASF201:
 3420 0591 77615468 		.ascii	"waThread1\000"
 3420      72656164 
 3420      3100
 3421              	.LASF190:
 3422 059b 63686970 		.ascii	"chip_select\000"
 3422      5F73656C 
 3422      65637400 
 3423              	.LASF20:
 3424 05a7 74726566 		.ascii	"trefs_t\000"
 3424      735F7400 
 3425              	.LASF144:
 3426 05af 69326373 		.ascii	"i2cstate_t\000"
 3426      74617465 
 3426      5F7400
 3427              	.LASF88:
 3428 05ba 63685F70 		.ascii	"ch_ptrsize\000"
 3428      74727369 
 3428      7A6500
 3429              	.LASF113:
 3430 05c5 716E6F74 		.ascii	"qnotify_t\000"
 3430      6966795F 
 3430      7400
 3431              	.LASF28:
 3432 05cf 705F7072 		.ascii	"p_prev\000"
 3432      657600
 3433              	.LASF199:
 3434 05d6 6C65645F 		.ascii	"led_vt1\000"
 3434      76743100 
 3435              	.LASF21:
ARM GAS  /var/folders/l5/0x54b2c10074c8bt31ycjvl80000gp/T//ccOsUWHl.s 			page 66


 3436 05de 74707269 		.ascii	"tprio_t\000"
 3436      6F5F7400 
 3437              	.LASF110:
 3438 05e6 715F7264 		.ascii	"q_rdptr\000"
 3438      70747200 
 3439              	.LASF159:
 3440 05ee 69326366 		.ascii	"i2cflags_t\000"
 3440      6C616773 
 3440      5F7400
 3441              	.LASF150:
 3442 05f9 6D757465 		.ascii	"mutex\000"
 3442      7800
 3443              	.LASF16:
 3444 05ff 696E7433 		.ascii	"int32_t\000"
 3444      325F7400 
 3445              	.LASF4:
 3446 0607 756E7369 		.ascii	"unsigned char\000"
 3446      676E6564 
 3446      20636861 
 3446      7200
 3447              	.LASF203:
 3448 0615 6C65645F 		.ascii	"led_clear\000"
 3448      636C6561 
 3448      7200
 3449              	.LASF74:
 3450 061f 656C5F6C 		.ascii	"el_listener\000"
 3450      69737465 
 3450      6E657200 
 3451              	.LASF76:
 3452 062b 656C5F66 		.ascii	"el_flags\000"
 3452      6C616773 
 3452      00
 3453              	.LASF42:
 3454 0634 705F6D74 		.ascii	"p_mtxlist\000"
 3454      786C6973 
 3454      7400
 3455              	.LASF5:
 3456 063e 73686F72 		.ascii	"short int\000"
 3456      7420696E 
 3456      7400
 3457              	.LASF34:
 3458 0648 705F7374 		.ascii	"p_state\000"
 3458      61746500 
 3459              	.LASF101:
 3460 0650 63665F6F 		.ascii	"cf_off_time\000"
 3460      66665F74 
 3460      696D6500 
 3461              	.LASF60:
 3462 065c 725F7072 		.ascii	"r_prio\000"
 3462      696F00
 3463              	.LASF131:
 3464 0663 70696E5F 		.ascii	"pin_base\000"
 3464      62617365 
 3464      00
 3465              	.LASF82:
 3466 066c 65776D61 		.ascii	"ewmask\000"
 3466      736B00
ARM GAS  /var/folders/l5/0x54b2c10074c8bt31ycjvl80000gp/T//ccOsUWHl.s 			page 67


 3467              	.LASF27:
 3468 0673 705F6E65 		.ascii	"p_next\000"
 3468      787400
 3469              	.LASF136:
 3470 067a 494F504F 		.ascii	"IOPORT1\000"
 3470      52543100 
 3471              	.LASF100:
 3472 0682 63665F6F 		.ascii	"cf_off_preempt\000"
 3472      66665F70 
 3472      7265656D 
 3472      707400
 3473              	.LASF35:
 3474 0691 705F666C 		.ascii	"p_flags\000"
 3474      61677300 
 3475              	.LASF26:
 3476 0699 54687265 		.ascii	"Thread\000"
 3476      616400
 3477              	.LASF196:
 3478 06a0 636C6F63 		.ascii	"clock_divider\000"
 3478      6B5F6469 
 3478      76696465 
 3478      7200
 3479              	.LASF93:
 3480 06ae 63665F6F 		.ascii	"cf_off_newer\000"
 3480      66665F6E 
 3480      65776572 
 3480      00
 3481              	.LASF143:
 3482 06bb 4932435F 		.ascii	"I2C_LOCKED\000"
 3482      4C4F434B 
 3482      454400
 3483              	.LASF41:
 3484 06c6 705F6570 		.ascii	"p_epending\000"
 3484      656E6469 
 3484      6E6700
 3485              	.LASF164:
 3486 06d1 53445F55 		.ascii	"SD_UNINIT\000"
 3486      4E494E49 
 3486      5400
 3487              	.LASF17:
 3488 06db 75696E74 		.ascii	"uint32_t\000"
 3488      33325F74 
 3488      00
 3489              	.LASF91:
 3490 06e4 63665F6F 		.ascii	"cf_off_prio\000"
 3490      66665F70 
 3490      72696F00 
 3491              	.LASF59:
 3492 06f0 725F7175 		.ascii	"r_queue\000"
 3492      65756500 
 3493              	.LASF51:
 3494 06f8 56697274 		.ascii	"VirtualTimer\000"
 3494      75616C54 
 3494      696D6572 
 3494      00
 3495              	.LASF168:
 3496 0705 53657269 		.ascii	"SerialDriver\000"
ARM GAS  /var/folders/l5/0x54b2c10074c8bt31ycjvl80000gp/T//ccOsUWHl.s 			page 68


 3496      616C4472 
 3496      69766572 
 3496      00
 3497              	.LASF142:
 3498 0712 4932435F 		.ascii	"I2C_ACTIVE_RX\000"
 3498      41435449 
 3498      56455F52 
 3498      5800
 3499              	.LASF174:
 3500 0720 72656164 		.ascii	"read\000"
 3500      00
 3501              	.LASF83:
 3502 0725 63686172 		.ascii	"char\000"
 3502      00
 3503              	.LASF183:
 3504 072a 5350495F 		.ascii	"SPI_COMPLETE\000"
 3504      434F4D50 
 3504      4C455445 
 3504      00
 3505              	.LASF147:
 3506 0737 636F6E66 		.ascii	"config\000"
 3506      696700
 3507              	.LASF6:
 3508 073e 5F5F7569 		.ascii	"__uint16_t\000"
 3508      6E743136 
 3508      5F7400
 3509              	.LASF184:
 3510 0749 73706973 		.ascii	"spistate_t\000"
 3510      74617465 
 3510      5F7400
 3511              	.LASF71:
 3512 0754 6D5F6E65 		.ascii	"m_next\000"
 3512      787400
 3513              	.LASF25:
 3514 075b 73797374 		.ascii	"systime_t\000"
 3514      696D655F 
 3514      7400
 3515              	.LASF43:
 3516 0765 705F7265 		.ascii	"p_realprio\000"
 3516      616C7072 
 3516      696F00
 3517              	.LASF8:
 3518 0770 5F5F696E 		.ascii	"__int32_t\000"
 3518      7433325F 
 3518      7400
 3519              	.LASF140:
 3520 077a 4932435F 		.ascii	"I2C_READY\000"
 3520      52454144 
 3520      5900
 3521              	.LASF145:
 3522 0784 49324344 		.ascii	"I2CDriver\000"
 3522      72697665 
 3522      7200
 3523              	.LASF37:
 3524 078e 705F7469 		.ascii	"p_time\000"
 3524      6D6500
 3525              	.LASF194:
ARM GAS  /var/folders/l5/0x54b2c10074c8bt31ycjvl80000gp/T//ccOsUWHl.s 			page 69


 3526 0795 636C6F63 		.ascii	"clock_polarity\000"
 3526      6B5F706F 
 3526      6C617269 
 3526      747900
 3527              	.LASF206:
 3528 07a4 5F70616C 		.ascii	"_pal_lld_setgroupmode\000"
 3528      5F6C6C64 
 3528      5F736574 
 3528      67726F75 
 3528      706D6F64 
 3529              	.LASF48:
 3530 07ba 696E7463 		.ascii	"intctx\000"
 3530      747800
 3531              	.LASF39:
 3532 07c1 705F6D73 		.ascii	"p_msgqueue\000"
 3532      67717565 
 3532      756500
 3533              	.LASF166:
 3534 07cc 53445F52 		.ascii	"SD_READY\000"
 3534      45414459 
 3534      00
 3535              	.LASF181:
 3536 07d5 5350495F 		.ascii	"SPI_READY\000"
 3536      52454144 
 3536      5900
 3537              	.LASF179:
 3538 07df 5350495F 		.ascii	"SPI_UNINIT\000"
 3538      554E494E 
 3538      495400
 3539              	.LASF209:
 3540 07ea 63685468 		.ascii	"chThdWait\000"
 3540      64576169 
 3540      7400
 3541              	.LASF56:
 3542 07f4 76745F70 		.ascii	"vt_par\000"
 3542      617200
 3543              	.LASF24:
 3544 07fb 666C6167 		.ascii	"flagsmask_t\000"
 3544      736D6173 
 3544      6B5F7400 
 3545              	.LASF162:
 3546 0807 49324343 		.ascii	"I2CConfig\000"
 3546      6F6E6669 
 3546      6700
 3547              	.LASF167:
 3548 0811 73647374 		.ascii	"sdstate_t\000"
 3548      6174655F 
 3548      7400
 3549              	.LASF155:
 3550 081b 74786964 		.ascii	"txidx\000"
 3550      7800
 3551              	.LASF92:
 3552 0821 63665F6F 		.ascii	"cf_off_ctx\000"
 3552      66665F63 
 3552      747800
 3553              	.LASF36:
 3554 082c 705F7265 		.ascii	"p_refs\000"
ARM GAS  /var/folders/l5/0x54b2c10074c8bt31ycjvl80000gp/T//ccOsUWHl.s 			page 70


 3554      667300
 3555              	.LASF119:
 3556 0833 73746174 		.ascii	"status\000"
 3556      757300
 3557              	.LASF65:
 3558 083a 52656164 		.ascii	"ReadyList\000"
 3558      794C6973 
 3558      7400
 3559              	.LASF111:
 3560 0844 715F6E6F 		.ascii	"q_notify\000"
 3560      74696679 
 3560      00
 3561              	.LASF67:
 3562 084d 726C6973 		.ascii	"rlist\000"
 3562      7400
 3563              	.LASF14:
 3564 0853 75696E74 		.ascii	"uint8_t\000"
 3564      385F7400 
 3565              	.LASF126:
 3566 085b 6C617463 		.ascii	"latch\000"
 3566      6800
 3567              	.LASF72:
 3568 0861 4576656E 		.ascii	"EventListener\000"
 3568      744C6973 
 3568      74656E65 
 3568      7200
 3569              	.LASF81:
 3570 086f 77746F62 		.ascii	"wtobjp\000"
 3570      6A7000
 3571              	.LASF33:
 3572 0876 705F6E61 		.ascii	"p_name\000"
 3572      6D6500
 3573              	.LASF57:
 3574 087d 76745F73 		.ascii	"vt_systime\000"
 3574      79737469 
 3574      6D6500
 3575              	.LASF78:
 3576 0888 65735F6E 		.ascii	"es_next\000"
 3576      65787400 
 3577              	.LASF197:
 3578 0890 53504943 		.ascii	"SPIConfig\000"
 3578      6F6E6669 
 3578      6700
 3579              	.LASF87:
 3580 089a 63685F76 		.ascii	"ch_version\000"
 3580      65727369 
 3580      6F6E00
 3581              	.LASF213:
 3582 08a5 2F557365 		.ascii	"/Users/fernandoguirado/eclipse-workspace/ChibiOS-RP"
 3582      72732F66 
 3582      65726E61 
 3582      6E646F67 
 3582      75697261 
 3583 08d8 692D636F 		.ascii	"i-copia/demos/timers\000"
 3583      7069612F 
 3583      64656D6F 
 3583      732F7469 
ARM GAS  /var/folders/l5/0x54b2c10074c8bt31ycjvl80000gp/T//ccOsUWHl.s 			page 71


 3583      6D657273 
 3584              	.LASF120:
 3585 08ed 64617461 		.ascii	"dataLength\000"
 3585      4C656E67 
 3585      746800
 3586              	.LASF58:
 3587 08f8 56544C69 		.ascii	"VTList\000"
 3587      737400
 3588              	.LASF112:
 3589 08ff 715F6C69 		.ascii	"q_link\000"
 3589      6E6B00
 3590              	.LASF133:
 3591 0906 50414C43 		.ascii	"PALConfig\000"
 3591      6F6E6669 
 3591      6700
 3592              	.LASF70:
 3593 0910 6D5F6F77 		.ascii	"m_owner\000"
 3593      6E657200 
 3594              	.LASF137:
 3595 0918 70616C5F 		.ascii	"pal_default_config\000"
 3595      64656661 
 3595      756C745F 
 3595      636F6E66 
 3595      696700
 3596              	.LASF30:
 3597 092b 705F6374 		.ascii	"p_ctx\000"
 3597      7800
 3598              	.LASF38:
 3599 0931 705F7761 		.ascii	"p_waiting\000"
 3599      6974696E 
 3599      6700
 3600              	.LASF154:
 3601 093b 74786279 		.ascii	"txbytes\000"
 3601      74657300 
 3602              	.LASF125:
 3603 0943 636C6F63 		.ascii	"clockStretchTimeout\000"
 3603      6B537472 
 3603      65746368 
 3603      54696D65 
 3603      6F757400 
 3604              		.ident	"GCC: (GNU Tools for Arm Embedded Processors 8-2019-q3-update) 8.3.1 20190703 (release) [gc
ARM GAS  /var/folders/l5/0x54b2c10074c8bt31ycjvl80000gp/T//ccOsUWHl.s 			page 72


DEFINED SYMBOLS
                            *ABS*:0000000000000000 main.c
/var/folders/l5/0x54b2c10074c8bt31ycjvl80000gp/T//ccOsUWHl.s:16     .text.led_set:0000000000000000 $a
/var/folders/l5/0x54b2c10074c8bt31ycjvl80000gp/T//ccOsUWHl.s:22     .text.led_set:0000000000000000 led_set
/var/folders/l5/0x54b2c10074c8bt31ycjvl80000gp/T//ccOsUWHl.s:59     .text.led_set:000000000000002c $d
/var/folders/l5/0x54b2c10074c8bt31ycjvl80000gp/T//ccOsUWHl.s:71     .text.led_clear:0000000000000000 led_clear
/var/folders/l5/0x54b2c10074c8bt31ycjvl80000gp/T//ccOsUWHl.s:66     .text.led_clear:0000000000000000 $a
/var/folders/l5/0x54b2c10074c8bt31ycjvl80000gp/T//ccOsUWHl.s:107    .text.led_clear:000000000000002c $d
/var/folders/l5/0x54b2c10074c8bt31ycjvl80000gp/T//ccOsUWHl.s:114    .text.evaluator:0000000000000000 $a
/var/folders/l5/0x54b2c10074c8bt31ycjvl80000gp/T//ccOsUWHl.s:119    .text.evaluator:0000000000000000 evaluator
/var/folders/l5/0x54b2c10074c8bt31ycjvl80000gp/T//ccOsUWHl.s:165    .text.evaluator:0000000000000040 $d
/var/folders/l5/0x54b2c10074c8bt31ycjvl80000gp/T//ccOsUWHl.s:173    .text.startup.main:0000000000000000 $a
/var/folders/l5/0x54b2c10074c8bt31ycjvl80000gp/T//ccOsUWHl.s:179    .text.startup.main:0000000000000000 main
/var/folders/l5/0x54b2c10074c8bt31ycjvl80000gp/T//ccOsUWHl.s:250    .text.startup.main:0000000000000078 $d
/var/folders/l5/0x54b2c10074c8bt31ycjvl80000gp/T//ccOsUWHl.s:260    .bss.led_vt1:0000000000000000 $d
/var/folders/l5/0x54b2c10074c8bt31ycjvl80000gp/T//ccOsUWHl.s:264    .bss.led_vt1:0000000000000000 led_vt1
/var/folders/l5/0x54b2c10074c8bt31ycjvl80000gp/T//ccOsUWHl.s:267    .bss.led_vt2:0000000000000000 $d
/var/folders/l5/0x54b2c10074c8bt31ycjvl80000gp/T//ccOsUWHl.s:271    .bss.led_vt2:0000000000000000 led_vt2
/var/folders/l5/0x54b2c10074c8bt31ycjvl80000gp/T//ccOsUWHl.s:274    .bss.waThread1:0000000000000000 $d
/var/folders/l5/0x54b2c10074c8bt31ycjvl80000gp/T//ccOsUWHl.s:278    .bss.waThread1:0000000000000000 waThread1
/var/folders/l5/0x54b2c10074c8bt31ycjvl80000gp/T//ccOsUWHl.s:281    .rodata.evaluator.str1.4:0000000000000000 $d

UNDEFINED SYMBOLS
_pal_lld_writeport
chVTSetI
IOPORT0
rlist
halInit
chSysInit
_pal_lld_setgroupmode
chThdCreateStatic
chThdWait
