ARM GAS  /var/folders/l5/0x54b2c10074c8bt31ycjvl80000gp/T//ccQeNjrv.s 			page 1


   1              		.cpu arm1176jz-s
   2              		.eabi_attribute 20, 1
   3              		.eabi_attribute 21, 1
   4              		.eabi_attribute 23, 3
   5              		.eabi_attribute 24, 1
   6              		.eabi_attribute 25, 1
   7              		.eabi_attribute 26, 1
   8              		.eabi_attribute 30, 2
   9              		.eabi_attribute 34, 1
  10              		.eabi_attribute 18, 4
  11              		.file	"pal.c"
  12              		.text
  13              	.Ltext0:
  14              		.cfi_sections	.debug_frame
  15              		.section	.text.palReadBus,"ax",%progbits
  16              		.align	2
  17              		.global	palReadBus
  18              		.arch armv6kz
  19              		.syntax unified
  20              		.arm
  21              		.fpu softvfp
  22              		.type	palReadBus, %function
  23              	palReadBus:
  24              	.LVL0:
  25              	.LFB7:
  26              		.file 1 "../../os/hal/src/pal.c"
  27              		.loc 1 69 37 view -0
  28              		.cfi_startproc
  29              		@ args = 0, pretend = 0, frame = 0
  30              		@ frame_needed = 0, uses_anonymous_args = 0
  31              		@ link register save eliminated.
  32              		.loc 1 71 3 view .LVU1
  33              		.loc 1 72 62 view .LVU2
  34              		.loc 1 74 3 view .LVU3
  35              		.loc 1 74 10 is_stmt 0 view .LVU4
  36 0000 003090E5 		ldr	r3, [r0]
  37 0004 082090E5 		ldr	r2, [r0, #8]
  38 0008 0C1093E5 		ldr	r1, [r3, #12]
  39 000c 043090E5 		ldr	r3, [r0, #4]
  40 0010 000091E5 		ldr	r0, [r1]
  41              	.LVL1:
  42              		.loc 1 75 1 view .LVU5
  43 0014 300203E0 		and	r0, r3, r0, lsr r2
  44 0018 1EFF2FE1 		bx	lr
  45              		.cfi_endproc
  46              	.LFE7:
  47              		.size	palReadBus, .-palReadBus
  48              		.section	.text.palWriteBus,"ax",%progbits
  49              		.align	2
  50              		.global	palWriteBus
  51              		.syntax unified
  52              		.arm
  53              		.fpu softvfp
  54              		.type	palWriteBus, %function
  55              	palWriteBus:
  56              	.LVL2:
  57              	.LFB8:
ARM GAS  /var/folders/l5/0x54b2c10074c8bt31ycjvl80000gp/T//ccQeNjrv.s 			page 2


  58              		.loc 1 94 49 is_stmt 1 view -0
  59              		.cfi_startproc
  60              		@ args = 0, pretend = 0, frame = 0
  61              		@ frame_needed = 0, uses_anonymous_args = 0
  62              		@ link register save eliminated.
  63              		.loc 1 96 3 view .LVU7
  64              		.loc 1 97 63 view .LVU8
  65              		.loc 1 99 3 view .LVU9
  66              		.loc 1 94 49 is_stmt 0 view .LVU10
  67 0000 0020A0E1 		mov	r2, r0
  68              		.loc 1 99 3 view .LVU11
  69 0004 011090E8 		ldm	r0, {r0, ip}
  70              	.LVL3:
  71              		.loc 1 99 3 view .LVU12
  72 0008 082092E5 		ldr	r2, [r2, #8]
  73              	.LVL4:
  74              		.loc 1 99 3 view .LVU13
  75 000c 003090E5 		ldr	r3, [r0]
  76 0010 0C1001E0 		and	r1, r1, ip
  77              	.LVL5:
  78              		.loc 1 99 3 view .LVU14
  79 0014 1C32C3E1 		bic	r3, r3, ip, lsl r2
  80 0018 111283E1 		orr	r1, r3, r1, lsl r2
  81 001c FEFFFFEA 		b	_pal_lld_writeport
  82              	.LVL6:
  83              		.cfi_endproc
  84              	.LFE8:
  85              		.size	palWriteBus, .-palWriteBus
  86              		.section	.text.palSetBusMode,"ax",%progbits
  87              		.align	2
  88              		.global	palSetBusMode
  89              		.syntax unified
  90              		.arm
  91              		.fpu softvfp
  92              		.type	palSetBusMode, %function
  93              	palSetBusMode:
  94              	.LVL7:
  95              	.LFB9:
  96              		.loc 1 117 47 is_stmt 1 view -0
  97              		.cfi_startproc
  98              		@ args = 0, pretend = 0, frame = 0
  99              		@ frame_needed = 0, uses_anonymous_args = 0
 100              		@ link register save eliminated.
 101              		.loc 1 119 3 view .LVU16
 102              		.loc 1 120 65 view .LVU17
 103              		.loc 1 122 3 view .LVU18
 104 0000 04C090E5 		ldr	ip, [r0, #4]
 105 0004 083090E5 		ldr	r3, [r0, #8]
 106 0008 0120A0E1 		mov	r2, r1
 107 000c 000090E5 		ldr	r0, [r0]
 108              	.LVL8:
 109              		.loc 1 122 3 is_stmt 0 view .LVU19
 110 0010 1C13A0E1 		lsl	r1, ip, r3
 111              	.LVL9:
 112              		.loc 1 122 3 view .LVU20
 113 0014 FEFFFFEA 		b	_pal_lld_setgroupmode
 114              	.LVL10:
ARM GAS  /var/folders/l5/0x54b2c10074c8bt31ycjvl80000gp/T//ccQeNjrv.s 			page 3


 115              		.loc 1 122 3 view .LVU21
 116              		.cfi_endproc
 117              	.LFE9:
 118              		.size	palSetBusMode, .-palSetBusMode
 119              		.text
 120              	.Letext0:
 121              		.file 2 "/usr/local/Cellar/arm-gcc-bin/8-2019-q3-update/lib/gcc/arm-none-eabi/8.3.1/include/stddef
 122              		.file 3 "/usr/local/Cellar/arm-gcc-bin/8-2019-q3-update/arm-none-eabi/include/machine/_default_typ
 123              		.file 4 "/usr/local/Cellar/arm-gcc-bin/8-2019-q3-update/arm-none-eabi/include/sys/_stdint.h"
 124              		.file 5 "/usr/local/Cellar/arm-gcc-bin/8-2019-q3-update/arm-none-eabi/include/stdint.h"
 125              		.file 6 "../../os/ports/GCC/ARM/chtypes.h"
 126              		.file 7 "../../os/kernel/include/chlists.h"
 127              		.file 8 "../../os/kernel/include/chthreads.h"
 128              		.file 9 "../../os/ports/GCC/ARM/chcore.h"
 129              		.file 10 "../../os/kernel/include/chvt.h"
 130              		.file 11 "../../os/kernel/include/chschd.h"
 131              		.file 12 "../../os/kernel/include/chmtx.h"
 132              		.file 13 "../../os/kernel/include/chevents.h"
 133              		.file 14 "../../os/kernel/include/chregistry.h"
 134              		.file 15 "../../os/kernel/include/chqueues.h"
 135              		.file 16 "../../os/kernel/include/ch.h"
 136              		.file 17 "../../os/hal/platforms/BCM2835/bcm2835.h"
 137              		.file 18 "../../os/hal/platforms/BCM2835/pal_lld.h"
 138              		.file 19 "../../os/hal/include/pal.h"
 139              		.file 20 "../../os/hal/include/i2c.h"
 140              		.file 21 "../../os/hal/platforms/BCM2835/i2c_lld.h"
 141              		.file 22 "../../os/hal/include/serial.h"
 142              		.file 23 "../../os/hal/include/spi.h"
 143              		.file 24 "../../os/hal/platforms/BCM2835/spi_lld.h"
 144              		.file 25 "../../os/hal/platforms/BCM2835/serial_lld.h"