ARM GAS  /var/folders/l5/0x54b2c10074c8bt31ycjvl80000gp/T//ccQeNjrv.s 			page 1


   1              		.cpu arm1176jz-s
   2              		.eabi_attribute 20, 1
   3              		.eabi_attribute 21, 1
   4              		.eabi_attribute 23, 3
   5              		.eabi_attribute 24, 1
   6              		.eabi_attribute 25, 1
   7              		.eabi_attribute 26, 1
   8              		.eabi_attribute 30, 2
   9              		.eabi_attribute 34, 1
  10              		.eabi_attribute 18, 4
  11              		.file	"pal.c"
  12              		.text
  13              	.Ltext0:
  14              		.cfi_sections	.debug_frame
  15              		.section	.text.palReadBus,"ax",%progbits
  16              		.align	2
  17              		.global	palReadBus
  18              		.arch armv6kz
  19              		.syntax unified
  20              		.arm
  21              		.fpu softvfp
  22              		.type	palReadBus, %function
  23              	palReadBus:
  24              	.LVL0:
  25              	.LFB7:
  26              		.file 1 "../../os/hal/src/pal.c"
  27              		.loc 1 69 37 view -0
  28              		.cfi_startproc
  29              		@ args = 0, pretend = 0, frame = 0
  30              		@ frame_needed = 0, uses_anonymous_args = 0
  31              		@ link register save eliminated.
  32              		.loc 1 71 3 view .LVU1
  33              		.loc 1 72 62 view .LVU2
  34              		.loc 1 74 3 view .LVU3
  35              		.loc 1 74 10 is_stmt 0 view .LVU4
  36 0000 003090E5 		ldr	r3, [r0]
  37 0004 082090E5 		ldr	r2, [r0, #8]
  38 0008 0C1093E5 		ldr	r1, [r3, #12]
  39 000c 043090E5 		ldr	r3, [r0, #4]
  40 0010 000091E5 		ldr	r0, [r1]
  41              	.LVL1:
  42              		.loc 1 75 1 view .LVU5
  43 0014 300203E0 		and	r0, r3, r0, lsr r2
  44 0018 1EFF2FE1 		bx	lr
  45              		.cfi_endproc
  46              	.LFE7:
  47              		.size	palReadBus, .-palReadBus
  48              		.section	.text.palWriteBus,"ax",%progbits
  49              		.align	2
  50              		.global	palWriteBus
  51              		.syntax unified
  52              		.arm
  53              		.fpu softvfp
  54              		.type	palWriteBus, %function
  55              	palWriteBus:
  56              	.LVL2:
  57              	.LFB8:
ARM GAS  /var/folders/l5/0x54b2c10074c8bt31ycjvl80000gp/T//ccQeNjrv.s 			page 2


  58              		.loc 1 94 49 is_stmt 1 view -0
  59              		.cfi_startproc
  60              		@ args = 0, pretend = 0, frame = 0
  61              		@ frame_needed = 0, uses_anonymous_args = 0
  62              		@ link register save eliminated.
  63              		.loc 1 96 3 view .LVU7
  64              		.loc 1 97 63 view .LVU8
  65              		.loc 1 99 3 view .LVU9
  66              		.loc 1 94 49 is_stmt 0 view .LVU10
  67 0000 0020A0E1 		mov	r2, r0
  68              		.loc 1 99 3 view .LVU11
  69 0004 011090E8 		ldm	r0, {r0, ip}
  70              	.LVL3:
  71              		.loc 1 99 3 view .LVU12
  72 0008 082092E5 		ldr	r2, [r2, #8]
  73              	.LVL4:
  74              		.loc 1 99 3 view .LVU13
  75 000c 003090E5 		ldr	r3, [r0]
  76 0010 0C1001E0 		and	r1, r1, ip
  77              	.LVL5:
  78              		.loc 1 99 3 view .LVU14
  79 0014 1C32C3E1 		bic	r3, r3, ip, lsl r2
  80 0018 111283E1 		orr	r1, r3, r1, lsl r2
  81 001c FEFFFFEA 		b	_pal_lld_writeport
  82              	.LVL6:
  83              		.cfi_endproc
  84              	.LFE8:
  85              		.size	palWriteBus, .-palWriteBus
  86              		.section	.text.palSetBusMode,"ax",%progbits
  87              		.align	2
  88              		.global	palSetBusMode
  89              		.syntax unified
  90              		.arm
  91              		.fpu softvfp
  92              		.type	palSetBusMode, %function
  93              	palSetBusMode:
  94              	.LVL7:
  95              	.LFB9:
  96              		.loc 1 117 47 is_stmt 1 view -0
  97              		.cfi_startproc
  98              		@ args = 0, pretend = 0, frame = 0
  99              		@ frame_needed = 0, uses_anonymous_args = 0
 100              		@ link register save eliminated.
 101              		.loc 1 119 3 view .LVU16
 102              		.loc 1 120 65 view .LVU17
 103              		.loc 1 122 3 view .LVU18
 104 0000 04C090E5 		ldr	ip, [r0, #4]
 105 0004 083090E5 		ldr	r3, [r0, #8]
 106 0008 0120A0E1 		mov	r2, r1
 107 000c 000090E5 		ldr	r0, [r0]
 108              	.LVL8:
 109              		.loc 1 122 3 is_stmt 0 view .LVU19
 110 0010 1C13A0E1 		lsl	r1, ip, r3
 111              	.LVL9:
 112              		.loc 1 122 3 view .LVU20
 113 0014 FEFFFFEA 		b	_pal_lld_setgroupmode
 114              	.LVL10:
ARM GAS  /var/folders/l5/0x54b2c10074c8bt31ycjvl80000gp/T//ccQeNjrv.s 			page 3


 115              		.loc 1 122 3 view .LVU21
 116              		.cfi_endproc
 117              	.LFE9:
 118              		.size	palSetBusMode, .-palSetBusMode
 119              		.text
 120              	.Letext0:
 121              		.file 2 "/usr/local/Cellar/arm-gcc-bin/8-2019-q3-update/lib/gcc/arm-none-eabi/8.3.1/include/stddef
 122              		.file 3 "/usr/local/Cellar/arm-gcc-bin/8-2019-q3-update/arm-none-eabi/include/machine/_default_typ
 123              		.file 4 "/usr/local/Cellar/arm-gcc-bin/8-2019-q3-update/arm-none-eabi/include/sys/_stdint.h"
 124              		.file 5 "/usr/local/Cellar/arm-gcc-bin/8-2019-q3-update/arm-none-eabi/include/stdint.h"
 125              		.file 6 "../../os/ports/GCC/ARM/chtypes.h"
 126              		.file 7 "../../os/kernel/include/chlists.h"
 127              		.file 8 "../../os/kernel/include/chthreads.h"
 128              		.file 9 "../../os/ports/GCC/ARM/chcore.h"
 129              		.file 10 "../../os/kernel/include/chvt.h"
 130              		.file 11 "../../os/kernel/include/chschd.h"
 131              		.file 12 "../../os/kernel/include/chmtx.h"
 132              		.file 13 "../../os/kernel/include/chevents.h"
 133              		.file 14 "../../os/kernel/include/chregistry.h"
 134              		.file 15 "../../os/kernel/include/chqueues.h"
 135              		.file 16 "../../os/kernel/include/ch.h"
 136              		.file 17 "../../os/hal/platforms/BCM2835/bcm2835.h"
 137              		.file 18 "../../os/hal/platforms/BCM2835/pal_lld.h"
 138              		.file 19 "../../os/hal/include/pal.h"
 139              		.file 20 "../../os/hal/include/i2c.h"
 140              		.file 21 "../../os/hal/platforms/BCM2835/i2c_lld.h"
 141              		.file 22 "../../os/hal/include/serial.h"
 142              		.file 23 "../../os/hal/include/spi.h"
 143              		.file 24 "../../os/hal/platforms/BCM2835/spi_lld.h"
 144              		.file 25 "../../os/hal/platforms/BCM2835/serial_lld.h"
 145              		.section	.debug_info,"",%progbits
 146              	.Ldebug_info0:
 147 0000 3E0F0000 		.4byte	0xf3e
 148 0004 0400     		.2byte	0x4
 149 0006 00000000 		.4byte	.Ldebug_abbrev0
 150 000a 04       		.byte	0x4
 151 000b 01       		.uleb128 0x1
 152 000c 47030000 		.4byte	.LASF212
 153 0010 0C       		.byte	0xc
 154 0011 F2060000 		.4byte	.LASF213
 155 0015 A3080000 		.4byte	.LASF214
 156 0019 00000000 		.4byte	.Ldebug_ranges0+0
 157 001d 00000000 		.4byte	0
 158 0021 00000000 		.4byte	.Ldebug_line0
 159 0025 02       		.uleb128 0x2
 160 0026 04       		.byte	0x4
 161 0027 05       		.byte	0x5
 162 0028 696E7400 		.ascii	"int\000"
 163 002c 03       		.uleb128 0x3
 164 002d 13000000 		.4byte	.LASF2
 165 0031 02       		.byte	0x2
 166 0032 D8       		.byte	0xd8
 167 0033 17       		.byte	0x17
 168 0034 38000000 		.4byte	0x38
 169 0038 04       		.uleb128 0x4
 170 0039 04       		.byte	0x4
 171 003a 07       		.byte	0x7
ARM GAS  /var/folders/l5/0x54b2c10074c8bt31ycjvl80000gp/T//ccQeNjrv.s 			page 4


 172 003b 80020000 		.4byte	.LASF0
 173 003f 05       		.uleb128 0x5
 174 0040 38000000 		.4byte	0x38
 175 0044 04       		.uleb128 0x4
 176 0045 01       		.byte	0x1
 177 0046 06       		.byte	0x6
 178 0047 F6000000 		.4byte	.LASF1
 179 004b 03       		.uleb128 0x3
 180 004c 33000000 		.4byte	.LASF3
 181 0050 03       		.byte	0x3
 182 0051 2B       		.byte	0x2b
 183 0052 18       		.byte	0x18
 184 0053 57000000 		.4byte	0x57
 185 0057 04       		.uleb128 0x4
 186 0058 01       		.byte	0x1
 187 0059 08       		.byte	0x8
 188 005a D4050000 		.4byte	.LASF4
 189 005e 04       		.uleb128 0x4
 190 005f 02       		.byte	0x2
 191 0060 05       		.byte	0x5
 192 0061 01060000 		.4byte	.LASF5
 193 0065 03       		.uleb128 0x3
 194 0066 28070000 		.4byte	.LASF6
 195 006a 03       		.byte	0x3
 196 006b 39       		.byte	0x39
 197 006c 19       		.byte	0x19
 198 006d 71000000 		.4byte	0x71
 199 0071 04       		.uleb128 0x4
 200 0072 02       		.byte	0x2
 201 0073 07       		.byte	0x7
 202 0074 05030000 		.4byte	.LASF7
 203 0078 03       		.uleb128 0x3
 204 0079 5A070000 		.4byte	.LASF8
 205 007d 03       		.byte	0x3
 206 007e 4D       		.byte	0x4d
 207 007f 18       		.byte	0x18
 208 0080 84000000 		.4byte	0x84
 209 0084 04       		.uleb128 0x4
 210 0085 04       		.byte	0x4
 211 0086 05       		.byte	0x5
 212 0087 6B010000 		.4byte	.LASF9
 213 008b 03       		.uleb128 0x3
 214 008c 28020000 		.4byte	.LASF10
 215 0090 03       		.byte	0x3
 216 0091 4F       		.byte	0x4f
 217 0092 19       		.byte	0x19
 218 0093 97000000 		.4byte	0x97
 219 0097 04       		.uleb128 0x4
 220 0098 04       		.byte	0x4
 221 0099 07       		.byte	0x7
 222 009a B9020000 		.4byte	.LASF11
 223 009e 04       		.uleb128 0x4
 224 009f 08       		.byte	0x8
 225 00a0 05       		.byte	0x5
 226 00a1 E8000000 		.4byte	.LASF12
 227 00a5 04       		.uleb128 0x4
 228 00a6 08       		.byte	0x8
ARM GAS  /var/folders/l5/0x54b2c10074c8bt31ycjvl80000gp/T//ccQeNjrv.s 			page 5


 229 00a7 07       		.byte	0x7
 230 00a8 6E000000 		.4byte	.LASF13
 231 00ac 03       		.uleb128 0x3
 232 00ad 51080000 		.4byte	.LASF14
 233 00b1 04       		.byte	0x4
 234 00b2 18       		.byte	0x18
 235 00b3 13       		.byte	0x13
 236 00b4 4B000000 		.4byte	0x4b
 237 00b8 06       		.uleb128 0x6
 238 00b9 AC000000 		.4byte	0xac
 239 00bd 03       		.uleb128 0x3
 240 00be 9D010000 		.4byte	.LASF15
 241 00c2 04       		.byte	0x4
 242 00c3 24       		.byte	0x24
 243 00c4 14       		.byte	0x14
 244 00c5 65000000 		.4byte	0x65
 245 00c9 03       		.uleb128 0x3
 246 00ca CC050000 		.4byte	.LASF16
 247 00ce 04       		.byte	0x4
 248 00cf 2C       		.byte	0x2c
 249 00d0 13       		.byte	0x13
 250 00d1 78000000 		.4byte	0x78
 251 00d5 03       		.uleb128 0x3
 252 00d6 A3060000 		.4byte	.LASF17
 253 00da 04       		.byte	0x4
 254 00db 30       		.byte	0x30
 255 00dc 14       		.byte	0x14
 256 00dd 8B000000 		.4byte	0x8b
 257 00e1 05       		.uleb128 0x5
 258 00e2 D5000000 		.4byte	0xd5
 259 00e6 03       		.uleb128 0x3
 260 00e7 3D060000 		.4byte	.LASF18
 261 00eb 05       		.byte	0x5
 262 00ec 34       		.byte	0x34
 263 00ed 1F       		.byte	0x1f
 264 00ee 38000000 		.4byte	0x38
 265 00f2 03       		.uleb128 0x3
 266 00f3 1E040000 		.4byte	.LASF19
 267 00f7 06       		.byte	0x6
 268 00f8 2A       		.byte	0x2a
 269 00f9 19       		.byte	0x19
 270 00fa AC000000 		.4byte	0xac
 271 00fe 03       		.uleb128 0x3
 272 00ff 74010000 		.4byte	.LASF20
 273 0103 06       		.byte	0x6
 274 0104 2B       		.byte	0x2b
 275 0105 19       		.byte	0x19
 276 0106 AC000000 		.4byte	0xac
 277 010a 03       		.uleb128 0x3
 278 010b 7C050000 		.4byte	.LASF21
 279 010f 06       		.byte	0x6
 280 0110 2C       		.byte	0x2c
 281 0111 19       		.byte	0x19
 282 0112 AC000000 		.4byte	0xac
 283 0116 03       		.uleb128 0x3
 284 0117 AB050000 		.4byte	.LASF22
 285 011b 06       		.byte	0x6
ARM GAS  /var/folders/l5/0x54b2c10074c8bt31ycjvl80000gp/T//ccQeNjrv.s 			page 6


 286 011c 2E       		.byte	0x2e
 287 011d 19       		.byte	0x19
 288 011e D5000000 		.4byte	0xd5
 289 0122 03       		.uleb128 0x3
 290 0123 2A030000 		.4byte	.LASF23
 291 0127 06       		.byte	0x6
 292 0128 2F       		.byte	0x2f
 293 0129 19       		.byte	0x19
 294 012a C9000000 		.4byte	0xc9
 295 012e 03       		.uleb128 0x3
 296 012f 45040000 		.4byte	.LASF24
 297 0133 06       		.byte	0x6
 298 0134 31       		.byte	0x31
 299 0135 19       		.byte	0x19
 300 0136 D5000000 		.4byte	0xd5
 301 013a 03       		.uleb128 0x3
 302 013b ED070000 		.4byte	.LASF25
 303 013f 06       		.byte	0x6
 304 0140 32       		.byte	0x32
 305 0141 19       		.byte	0x19
 306 0142 D5000000 		.4byte	0xd5
 307 0146 03       		.uleb128 0x3
 308 0147 45070000 		.4byte	.LASF26
 309 014b 06       		.byte	0x6
 310 014c 33       		.byte	0x33
 311 014d 19       		.byte	0x19
 312 014e D5000000 		.4byte	0xd5
 313 0152 05       		.uleb128 0x5
 314 0153 46010000 		.4byte	0x146
 315 0157 03       		.uleb128 0x3
 316 0158 61060000 		.4byte	.LASF27
 317 015c 07       		.byte	0x7
 318 015d 23       		.byte	0x23
 319 015e 17       		.byte	0x17
 320 015f 63010000 		.4byte	0x163
 321 0163 07       		.uleb128 0x7
 322 0164 61060000 		.4byte	.LASF27
 323 0168 44       		.byte	0x44
 324 0169 08       		.byte	0x8
 325 016a 57       		.byte	0x57
 326 016b 08       		.byte	0x8
 327 016c 5B020000 		.4byte	0x25b
 328 0170 08       		.uleb128 0x8
 329 0171 36060000 		.4byte	.LASF28
 330 0175 08       		.byte	0x8
 331 0176 58       		.byte	0x58
 332 0177 1A       		.byte	0x1a
 333 0178 7F020000 		.4byte	0x27f
 334 017c 00       		.byte	0
 335 017d 08       		.uleb128 0x8
 336 017e A4050000 		.4byte	.LASF29
 337 0182 08       		.byte	0x8
 338 0183 5A       		.byte	0x5a
 339 0184 1A       		.byte	0x1a
 340 0185 7F020000 		.4byte	0x27f
 341 0189 04       		.byte	0x4
 342 018a 08       		.uleb128 0x8
ARM GAS  /var/folders/l5/0x54b2c10074c8bt31ycjvl80000gp/T//ccQeNjrv.s 			page 7


 343 018b BD000000 		.4byte	.LASF30
 344 018f 08       		.byte	0x8
 345 0190 5C       		.byte	0x5c
 346 0191 19       		.byte	0x19
 347 0192 16010000 		.4byte	0x116
 348 0196 08       		.byte	0x8
 349 0197 08       		.uleb128 0x8
 350 0198 32090000 		.4byte	.LASF31
 351 019c 08       		.byte	0x8
 352 019d 5D       		.byte	0x5d
 353 019e 19       		.byte	0x19
 354 019f 4A030000 		.4byte	0x34a
 355 01a3 0C       		.byte	0xc
 356 01a4 08       		.uleb128 0x8
 357 01a5 CF010000 		.4byte	.LASF32
 358 01a9 08       		.byte	0x8
 359 01aa 5F       		.byte	0x5f
 360 01ab 1A       		.byte	0x1a
 361 01ac 7F020000 		.4byte	0x27f
 362 01b0 10       		.byte	0x10
 363 01b1 08       		.uleb128 0x8
 364 01b2 EA040000 		.4byte	.LASF33
 365 01b6 08       		.byte	0x8
 366 01b7 60       		.byte	0x60
 367 01b8 1A       		.byte	0x1a
 368 01b9 7F020000 		.4byte	0x27f
 369 01bd 14       		.byte	0x14
 370 01be 08       		.uleb128 0x8
 371 01bf 74080000 		.4byte	.LASF34
 372 01c3 08       		.byte	0x8
 373 01c4 67       		.byte	0x67
 374 01c5 1A       		.byte	0x1a
 375 01c6 AB050000 		.4byte	0x5ab
 376 01ca 18       		.byte	0x18
 377 01cb 08       		.uleb128 0x8
 378 01cc 0B060000 		.4byte	.LASF35
 379 01d0 08       		.byte	0x8
 380 01d1 72       		.byte	0x72
 381 01d2 19       		.byte	0x19
 382 01d3 FE000000 		.4byte	0xfe
 383 01d7 1C       		.byte	0x1c
 384 01d8 08       		.uleb128 0x8
 385 01d9 59060000 		.4byte	.LASF36
 386 01dd 08       		.byte	0x8
 387 01de 76       		.byte	0x76
 388 01df 19       		.byte	0x19
 389 01e0 F2000000 		.4byte	0xf2
 390 01e4 1D       		.byte	0x1d
 391 01e5 08       		.uleb128 0x8
 392 01e6 2A080000 		.4byte	.LASF37
 393 01ea 08       		.byte	0x8
 394 01eb 7B       		.byte	0x7b
 395 01ec 19       		.byte	0x19
 396 01ed 0A010000 		.4byte	0x10a
 397 01f1 1E       		.byte	0x1e
 398 01f2 08       		.uleb128 0x8
 399 01f3 8A070000 		.4byte	.LASF38
ARM GAS  /var/folders/l5/0x54b2c10074c8bt31ycjvl80000gp/T//ccQeNjrv.s 			page 8


 400 01f7 08       		.byte	0x8
 401 01f8 88       		.byte	0x88
 402 01f9 19       		.byte	0x19
 403 01fa 52010000 		.4byte	0x152
 404 01fe 20       		.byte	0x20
 405 01ff 09       		.uleb128 0x9
 406 0200 705F7500 		.ascii	"p_u\000"
 407 0204 08       		.byte	0x8
 408 0205 AD       		.byte	0xad
 409 0206 19       		.byte	0x19
 410 0207 71050000 		.4byte	0x571
 411 020b 24       		.byte	0x24
 412 020c 08       		.uleb128 0x8
 413 020d 38090000 		.4byte	.LASF39
 414 0211 08       		.byte	0x8
 415 0212 B2       		.byte	0xb2
 416 0213 19       		.byte	0x19
 417 0214 A8020000 		.4byte	0x2a8
 418 0218 28       		.byte	0x28
 419 0219 08       		.uleb128 0x8
 420 021a BD070000 		.4byte	.LASF40
 421 021e 08       		.byte	0x8
 422 021f B8       		.byte	0xb8
 423 0220 19       		.byte	0x19
 424 0221 85020000 		.4byte	0x285
 425 0225 2C       		.byte	0x2c
 426 0226 08       		.uleb128 0x8
 427 0227 0D000000 		.4byte	.LASF41
 428 022b 08       		.byte	0x8
 429 022c BC       		.byte	0xbc
 430 022d 19       		.byte	0x19
 431 022e 22010000 		.4byte	0x122
 432 0232 34       		.byte	0x34
 433 0233 08       		.uleb128 0x8
 434 0234 8E060000 		.4byte	.LASF42
 435 0238 08       		.byte	0x8
 436 0239 C2       		.byte	0xc2
 437 023a 19       		.byte	0x19
 438 023b 2E010000 		.4byte	0x12e
 439 023f 38       		.byte	0x38
 440 0240 08       		.uleb128 0x8
 441 0241 F7050000 		.4byte	.LASF43
 442 0245 08       		.byte	0x8
 443 0246 C9       		.byte	0xc9
 444 0247 1A       		.byte	0x1a
 445 0248 BD050000 		.4byte	0x5bd
 446 024c 3C       		.byte	0x3c
 447 024d 08       		.uleb128 0x8
 448 024e 4F070000 		.4byte	.LASF44
 449 0252 08       		.byte	0x8
 450 0253 CD       		.byte	0xcd
 451 0254 19       		.byte	0x19
 452 0255 16010000 		.4byte	0x116
 453 0259 40       		.byte	0x40
 454 025a 00       		.byte	0
 455 025b 0A       		.uleb128 0xa
 456 025c 08       		.byte	0x8
ARM GAS  /var/folders/l5/0x54b2c10074c8bt31ycjvl80000gp/T//ccQeNjrv.s 			page 9


 457 025d 07       		.byte	0x7
 458 025e 5A       		.byte	0x5a
 459 025f 09       		.byte	0x9
 460 0260 7F020000 		.4byte	0x27f
 461 0264 08       		.uleb128 0x8
 462 0265 36060000 		.4byte	.LASF28
 463 0269 07       		.byte	0x7
 464 026a 5B       		.byte	0x5b
 465 026b 1A       		.byte	0x1a
 466 026c 7F020000 		.4byte	0x27f
 467 0270 00       		.byte	0
 468 0271 08       		.uleb128 0x8
 469 0272 A4050000 		.4byte	.LASF29
 470 0276 07       		.byte	0x7
 471 0277 5D       		.byte	0x5d
 472 0278 1A       		.byte	0x1a
 473 0279 7F020000 		.4byte	0x27f
 474 027d 04       		.byte	0x4
 475 027e 00       		.byte	0
 476 027f 0B       		.uleb128 0xb
 477 0280 04       		.byte	0x4
 478 0281 57010000 		.4byte	0x157
 479 0285 03       		.uleb128 0x3
 480 0286 08050000 		.4byte	.LASF45
 481 028a 07       		.byte	0x7
 482 028b 5F       		.byte	0x5f
 483 028c 03       		.byte	0x3
 484 028d 5B020000 		.4byte	0x25b
 485 0291 0A       		.uleb128 0xa
 486 0292 04       		.byte	0x4
 487 0293 07       		.byte	0x7
 488 0294 64       		.byte	0x64
 489 0295 09       		.byte	0x9
 490 0296 A8020000 		.4byte	0x2a8
 491 029a 08       		.uleb128 0x8
 492 029b 36060000 		.4byte	.LASF28
 493 029f 07       		.byte	0x7
 494 02a0 66       		.byte	0x66
 495 02a1 16       		.byte	0x16
 496 02a2 7F020000 		.4byte	0x27f
 497 02a6 00       		.byte	0
 498 02a7 00       		.byte	0
 499 02a8 03       		.uleb128 0x3
 500 02a9 39040000 		.4byte	.LASF46
 501 02ad 07       		.byte	0x7
 502 02ae 69       		.byte	0x69
 503 02af 03       		.byte	0x3
 504 02b0 91020000 		.4byte	0x291
 505 02b4 03       		.uleb128 0x3
 506 02b5 6F040000 		.4byte	.LASF47
 507 02b9 09       		.byte	0x9
 508 02ba 9D       		.byte	0x9d
 509 02bb 12       		.byte	0x12
 510 02bc D5000000 		.4byte	0xd5
 511 02c0 03       		.uleb128 0x3
 512 02c1 38020000 		.4byte	.LASF48
 513 02c5 09       		.byte	0x9
ARM GAS  /var/folders/l5/0x54b2c10074c8bt31ycjvl80000gp/T//ccQeNjrv.s 			page 10


 514 02c6 A2       		.byte	0xa2
 515 02c7 0F       		.byte	0xf
 516 02c8 CC020000 		.4byte	0x2cc
 517 02cc 0C       		.uleb128 0xc
 518 02cd 04       		.byte	0x4
 519 02ce 07       		.uleb128 0x7
 520 02cf B6070000 		.4byte	.LASF49
 521 02d3 24       		.byte	0x24
 522 02d4 09       		.byte	0x9
 523 02d5 B9       		.byte	0xb9
 524 02d6 08       		.byte	0x8
 525 02d7 4A030000 		.4byte	0x34a
 526 02db 09       		.uleb128 0x9
 527 02dc 723400   		.ascii	"r4\000"
 528 02df 09       		.byte	0x9
 529 02e0 BA       		.byte	0xba
 530 02e1 11       		.byte	0x11
 531 02e2 C0020000 		.4byte	0x2c0
 532 02e6 00       		.byte	0
 533 02e7 09       		.uleb128 0x9
 534 02e8 723500   		.ascii	"r5\000"
 535 02eb 09       		.byte	0x9
 536 02ec BB       		.byte	0xbb
 537 02ed 11       		.byte	0x11
 538 02ee C0020000 		.4byte	0x2c0
 539 02f2 04       		.byte	0x4
 540 02f3 09       		.uleb128 0x9
 541 02f4 723600   		.ascii	"r6\000"
 542 02f7 09       		.byte	0x9
 543 02f8 BC       		.byte	0xbc
 544 02f9 11       		.byte	0x11
 545 02fa C0020000 		.4byte	0x2c0
 546 02fe 08       		.byte	0x8
 547 02ff 09       		.uleb128 0x9
 548 0300 723700   		.ascii	"r7\000"
 549 0303 09       		.byte	0x9
 550 0304 BD       		.byte	0xbd
 551 0305 11       		.byte	0x11
 552 0306 C0020000 		.4byte	0x2c0
 553 030a 0C       		.byte	0xc
 554 030b 09       		.uleb128 0x9
 555 030c 723800   		.ascii	"r8\000"
 556 030f 09       		.byte	0x9
 557 0310 BE       		.byte	0xbe
 558 0311 11       		.byte	0x11
 559 0312 C0020000 		.4byte	0x2c0
 560 0316 10       		.byte	0x10
 561 0317 09       		.uleb128 0x9
 562 0318 723900   		.ascii	"r9\000"
 563 031b 09       		.byte	0x9
 564 031c BF       		.byte	0xbf
 565 031d 11       		.byte	0x11
 566 031e C0020000 		.4byte	0x2c0
 567 0322 14       		.byte	0x14
 568 0323 09       		.uleb128 0x9
 569 0324 72313000 		.ascii	"r10\000"
 570 0328 09       		.byte	0x9
ARM GAS  /var/folders/l5/0x54b2c10074c8bt31ycjvl80000gp/T//ccQeNjrv.s 			page 11


 571 0329 C0       		.byte	0xc0
 572 032a 11       		.byte	0x11
 573 032b C0020000 		.4byte	0x2c0
 574 032f 18       		.byte	0x18
 575 0330 09       		.uleb128 0x9
 576 0331 72313100 		.ascii	"r11\000"
 577 0335 09       		.byte	0x9
 578 0336 C1       		.byte	0xc1
 579 0337 11       		.byte	0x11
 580 0338 C0020000 		.4byte	0x2c0
 581 033c 1C       		.byte	0x1c
 582 033d 09       		.uleb128 0x9
 583 033e 6C7200   		.ascii	"lr\000"
 584 0341 09       		.byte	0x9
 585 0342 C2       		.byte	0xc2
 586 0343 11       		.byte	0x11
 587 0344 C0020000 		.4byte	0x2c0
 588 0348 20       		.byte	0x20
 589 0349 00       		.byte	0
 590 034a 07       		.uleb128 0x7
 591 034b FD020000 		.4byte	.LASF50
 592 034f 04       		.byte	0x4
 593 0350 09       		.byte	0x9
 594 0351 CA       		.byte	0xca
 595 0352 08       		.byte	0x8
 596 0353 65030000 		.4byte	0x365
 597 0357 09       		.uleb128 0x9
 598 0358 72313300 		.ascii	"r13\000"
 599 035c 09       		.byte	0x9
 600 035d CB       		.byte	0xcb
 601 035e 12       		.byte	0x12
 602 035f 65030000 		.4byte	0x365
 603 0363 00       		.byte	0
 604 0364 00       		.byte	0
 605 0365 0B       		.uleb128 0xb
 606 0366 04       		.byte	0x4
 607 0367 CE020000 		.4byte	0x2ce
 608 036b 03       		.uleb128 0x3
 609 036c D9020000 		.4byte	.LASF51
 610 0370 0A       		.byte	0xa
 611 0371 4E       		.byte	0x4e
 612 0372 10       		.byte	0x10
 613 0373 77030000 		.4byte	0x377
 614 0377 0B       		.uleb128 0xb
 615 0378 04       		.byte	0x4
 616 0379 7D030000 		.4byte	0x37d
 617 037d 0D       		.uleb128 0xd
 618 037e 88030000 		.4byte	0x388
 619 0382 0E       		.uleb128 0xe
 620 0383 CC020000 		.4byte	0x2cc
 621 0387 00       		.byte	0
 622 0388 03       		.uleb128 0x3
 623 0389 C0060000 		.4byte	.LASF52
 624 038d 0A       		.byte	0xa
 625 038e 53       		.byte	0x53
 626 038f 1D       		.byte	0x1d
 627 0390 94030000 		.4byte	0x394
ARM GAS  /var/folders/l5/0x54b2c10074c8bt31ycjvl80000gp/T//ccQeNjrv.s 			page 12


 628 0394 07       		.uleb128 0x7
 629 0395 C0060000 		.4byte	.LASF52
 630 0399 14       		.byte	0x14
 631 039a 0A       		.byte	0xa
 632 039b 5A       		.byte	0x5a
 633 039c 08       		.byte	0x8
 634 039d E3030000 		.4byte	0x3e3
 635 03a1 08       		.uleb128 0x8
 636 03a2 8D020000 		.4byte	.LASF53
 637 03a6 0A       		.byte	0xa
 638 03a7 5B       		.byte	0x5b
 639 03a8 1A       		.byte	0x1a
 640 03a9 E3030000 		.4byte	0x3e3
 641 03ad 00       		.byte	0
 642 03ae 08       		.uleb128 0x8
 643 03af 41020000 		.4byte	.LASF54
 644 03b3 0A       		.byte	0xa
 645 03b4 5D       		.byte	0x5d
 646 03b5 1A       		.byte	0x1a
 647 03b6 E3030000 		.4byte	0x3e3
 648 03ba 04       		.byte	0x4
 649 03bb 08       		.uleb128 0x8
 650 03bc 99040000 		.4byte	.LASF55
 651 03c0 0A       		.byte	0xa
 652 03c1 5F       		.byte	0x5f
 653 03c2 19       		.byte	0x19
 654 03c3 46010000 		.4byte	0x146
 655 03c7 08       		.byte	0x8
 656 03c8 08       		.uleb128 0x8
 657 03c9 C1040000 		.4byte	.LASF56
 658 03cd 0A       		.byte	0xa
 659 03ce 60       		.byte	0x60
 660 03cf 19       		.byte	0x19
 661 03d0 6B030000 		.4byte	0x36b
 662 03d4 0C       		.byte	0xc
 663 03d5 08       		.uleb128 0x8
 664 03d6 E6070000 		.4byte	.LASF57
 665 03da 0A       		.byte	0xa
 666 03db 62       		.byte	0x62
 667 03dc 1A       		.byte	0x1a
 668 03dd CC020000 		.4byte	0x2cc
 669 03e1 10       		.byte	0x10
 670 03e2 00       		.byte	0
 671 03e3 0B       		.uleb128 0xb
 672 03e4 04       		.byte	0x4
 673 03e5 88030000 		.4byte	0x388
 674 03e9 0A       		.uleb128 0xa
 675 03ea 10       		.byte	0x10
 676 03eb 0A       		.byte	0xa
 677 03ec 6C       		.byte	0x6c
 678 03ed 09       		.byte	0x9
 679 03ee 27040000 		.4byte	0x427
 680 03f2 08       		.uleb128 0x8
 681 03f3 8D020000 		.4byte	.LASF53
 682 03f7 0A       		.byte	0xa
 683 03f8 6D       		.byte	0x6d
 684 03f9 1A       		.byte	0x1a
ARM GAS  /var/folders/l5/0x54b2c10074c8bt31ycjvl80000gp/T//ccQeNjrv.s 			page 13


 685 03fa E3030000 		.4byte	0x3e3
 686 03fe 00       		.byte	0
 687 03ff 08       		.uleb128 0x8
 688 0400 41020000 		.4byte	.LASF54
 689 0404 0A       		.byte	0xa
 690 0405 6F       		.byte	0x6f
 691 0406 1A       		.byte	0x1a
 692 0407 E3030000 		.4byte	0x3e3
 693 040b 04       		.byte	0x4
 694 040c 08       		.uleb128 0x8
 695 040d 99040000 		.4byte	.LASF55
 696 0411 0A       		.byte	0xa
 697 0412 71       		.byte	0x71
 698 0413 19       		.byte	0x19
 699 0414 46010000 		.4byte	0x146
 700 0418 08       		.byte	0x8
 701 0419 08       		.uleb128 0x8
 702 041a 7B080000 		.4byte	.LASF58
 703 041e 0A       		.byte	0xa
 704 041f 72       		.byte	0x72
 705 0420 19       		.byte	0x19
 706 0421 52010000 		.4byte	0x152
 707 0425 0C       		.byte	0xc
 708 0426 00       		.byte	0
 709 0427 03       		.uleb128 0x3
 710 0428 F6080000 		.4byte	.LASF59
 711 042c 0A       		.byte	0xa
 712 042d 73       		.byte	0x73
 713 042e 03       		.byte	0x3
 714 042f E9030000 		.4byte	0x3e9
 715 0433 0F       		.uleb128 0xf
 716 0434 48000000 		.4byte	.LASF67
 717 0438 0A       		.byte	0xa
 718 0439 D1       		.byte	0xd1
 719 043a 0F       		.byte	0xf
 720 043b 27040000 		.4byte	0x427
 721 043f 0A       		.uleb128 0xa
 722 0440 1C       		.byte	0x1c
 723 0441 0B       		.byte	0xb
 724 0442 57       		.byte	0x57
 725 0443 09       		.byte	0x9
 726 0444 97040000 		.4byte	0x497
 727 0448 08       		.uleb128 0x8
 728 0449 B8060000 		.4byte	.LASF60
 729 044d 0B       		.byte	0xb
 730 044e 58       		.byte	0x58
 731 044f 19       		.byte	0x19
 732 0450 85020000 		.4byte	0x285
 733 0454 00       		.byte	0
 734 0455 08       		.uleb128 0x8
 735 0456 1F060000 		.4byte	.LASF61
 736 045a 0B       		.byte	0xb
 737 045b 59       		.byte	0x59
 738 045c 19       		.byte	0x19
 739 045d 16010000 		.4byte	0x116
 740 0461 08       		.byte	0x8
 741 0462 08       		.uleb128 0x8
ARM GAS  /var/folders/l5/0x54b2c10074c8bt31ycjvl80000gp/T//ccQeNjrv.s 			page 14


 742 0463 02050000 		.4byte	.LASF62
 743 0467 0B       		.byte	0xb
 744 0468 5B       		.byte	0x5b
 745 0469 19       		.byte	0x19
 746 046a 4A030000 		.4byte	0x34a
 747 046e 0C       		.byte	0xc
 748 046f 08       		.uleb128 0x8
 749 0470 37030000 		.4byte	.LASF63
 750 0474 0B       		.byte	0xb
 751 0475 5E       		.byte	0x5e
 752 0476 1A       		.byte	0x1a
 753 0477 7F020000 		.4byte	0x27f
 754 047b 10       		.byte	0x10
 755 047c 08       		.uleb128 0x8
 756 047d 2F050000 		.4byte	.LASF64
 757 0481 0B       		.byte	0xb
 758 0482 5F       		.byte	0x5f
 759 0483 1A       		.byte	0x1a
 760 0484 7F020000 		.4byte	0x27f
 761 0488 14       		.byte	0x14
 762 0489 08       		.uleb128 0x8
 763 048a 25050000 		.4byte	.LASF65
 764 048e 0B       		.byte	0xb
 765 048f 62       		.byte	0x62
 766 0490 1A       		.byte	0x1a
 767 0491 7F020000 		.4byte	0x27f
 768 0495 18       		.byte	0x18
 769 0496 00       		.byte	0
 770 0497 03       		.uleb128 0x3
 771 0498 38080000 		.4byte	.LASF66
 772 049c 0B       		.byte	0xb
 773 049d 64       		.byte	0x64
 774 049e 03       		.byte	0x3
 775 049f 3F040000 		.4byte	0x43f
 776 04a3 0F       		.uleb128 0xf
 777 04a4 4B080000 		.4byte	.LASF68
 778 04a8 0B       		.byte	0xb
 779 04a9 68       		.byte	0x68
 780 04aa 12       		.byte	0x12
 781 04ab 97040000 		.4byte	0x497
 782 04af 07       		.uleb128 0x7
 783 04b0 5C040000 		.4byte	.LASF69
 784 04b4 10       		.byte	0x10
 785 04b5 0C       		.byte	0xc
 786 04b6 25       		.byte	0x25
 787 04b7 10       		.byte	0x10
 788 04b8 E4040000 		.4byte	0x4e4
 789 04bc 08       		.uleb128 0x8
 790 04bd 30010000 		.4byte	.LASF70
 791 04c1 0C       		.byte	0xc
 792 04c2 26       		.byte	0x26
 793 04c3 19       		.byte	0x19
 794 04c4 85020000 		.4byte	0x285
 795 04c8 00       		.byte	0
 796 04c9 08       		.uleb128 0x8
 797 04ca 17090000 		.4byte	.LASF71
 798 04ce 0C       		.byte	0xc
ARM GAS  /var/folders/l5/0x54b2c10074c8bt31ycjvl80000gp/T//ccQeNjrv.s 			page 15


 799 04cf 28       		.byte	0x28
 800 04d0 1A       		.byte	0x1a
 801 04d1 7F020000 		.4byte	0x27f
 802 04d5 08       		.byte	0x8
 803 04d6 08       		.uleb128 0x8
 804 04d7 3E070000 		.4byte	.LASF72
 805 04db 0C       		.byte	0xc
 806 04dc 2A       		.byte	0x2a
 807 04dd 1A       		.byte	0x1a
 808 04de E4040000 		.4byte	0x4e4
 809 04e2 0C       		.byte	0xc
 810 04e3 00       		.byte	0
 811 04e4 0B       		.uleb128 0xb
 812 04e5 04       		.byte	0x4
 813 04e6 AF040000 		.4byte	0x4af
 814 04ea 03       		.uleb128 0x3
 815 04eb 5C040000 		.4byte	.LASF69
 816 04ef 0C       		.byte	0xc
 817 04f0 2C       		.byte	0x2c
 818 04f1 03       		.byte	0x3
 819 04f2 AF040000 		.4byte	0x4af
 820 04f6 03       		.uleb128 0x3
 821 04f7 5F080000 		.4byte	.LASF73
 822 04fb 0D       		.byte	0xd
 823 04fc 25       		.byte	0x25
 824 04fd 1E       		.byte	0x1e
 825 04fe 02050000 		.4byte	0x502
 826 0502 07       		.uleb128 0x7
 827 0503 5F080000 		.4byte	.LASF73
 828 0507 10       		.byte	0x10
 829 0508 0D       		.byte	0xd
 830 0509 2A       		.byte	0x2a
 831 050a 08       		.byte	0x8
 832 050b 44050000 		.4byte	0x544
 833 050f 08       		.uleb128 0x8
 834 0510 3F030000 		.4byte	.LASF74
 835 0514 0D       		.byte	0xd
 836 0515 2B       		.byte	0x2b
 837 0516 1A       		.byte	0x1a
 838 0517 44050000 		.4byte	0x544
 839 051b 00       		.byte	0
 840 051c 08       		.uleb128 0x8
 841 051d E2050000 		.4byte	.LASF75
 842 0521 0D       		.byte	0xd
 843 0522 2E       		.byte	0x2e
 844 0523 1A       		.byte	0x1a
 845 0524 7F020000 		.4byte	0x27f
 846 0528 04       		.byte	0x4
 847 0529 08       		.uleb128 0x8
 848 052a 37050000 		.4byte	.LASF76
 849 052e 0D       		.byte	0xd
 850 052f 30       		.byte	0x30
 851 0530 19       		.byte	0x19
 852 0531 2E010000 		.4byte	0x12e
 853 0535 08       		.byte	0x8
 854 0536 08       		.uleb128 0x8
 855 0537 EE050000 		.4byte	.LASF77
ARM GAS  /var/folders/l5/0x54b2c10074c8bt31ycjvl80000gp/T//ccQeNjrv.s 			page 16


 856 053b 0D       		.byte	0xd
 857 053c 33       		.byte	0x33
 858 053d 19       		.byte	0x19
 859 053e 3A010000 		.4byte	0x13a
 860 0542 0C       		.byte	0xc
 861 0543 00       		.byte	0
 862 0544 0B       		.uleb128 0xb
 863 0545 04       		.byte	0x4
 864 0546 F6040000 		.4byte	0x4f6
 865 054a 07       		.uleb128 0x7
 866 054b 69020000 		.4byte	.LASF78
 867 054f 04       		.byte	0x4
 868 0550 0D       		.byte	0xd
 869 0551 3A       		.byte	0x3a
 870 0552 10       		.byte	0x10
 871 0553 65050000 		.4byte	0x565
 872 0557 08       		.uleb128 0x8
 873 0558 86080000 		.4byte	.LASF79
 874 055c 0D       		.byte	0xd
 875 055d 3B       		.byte	0x3b
 876 055e 1A       		.byte	0x1a
 877 055f 44050000 		.4byte	0x544
 878 0563 00       		.byte	0
 879 0564 00       		.byte	0
 880 0565 03       		.uleb128 0x3
 881 0566 69020000 		.4byte	.LASF78
 882 056a 0D       		.byte	0xd
 883 056b 3E       		.byte	0x3e
 884 056c 03       		.byte	0x3
 885 056d 4A050000 		.4byte	0x54a
 886 0571 10       		.uleb128 0x10
 887 0572 04       		.byte	0x4
 888 0573 08       		.byte	0x8
 889 0574 8F       		.byte	0x8f
 890 0575 03       		.byte	0x3
 891 0576 AB050000 		.4byte	0x5ab
 892 057a 11       		.uleb128 0x11
 893 057b 1A000000 		.4byte	.LASF80
 894 057f 08       		.byte	0x8
 895 0580 96       		.byte	0x96
 896 0581 19       		.byte	0x19
 897 0582 22010000 		.4byte	0x122
 898 0586 11       		.uleb128 0x11
 899 0587 93000000 		.4byte	.LASF81
 900 058b 08       		.byte	0x8
 901 058c 9D       		.byte	0x9d
 902 058d 19       		.byte	0x19
 903 058e 22010000 		.4byte	0x122
 904 0592 11       		.uleb128 0x11
 905 0593 6D080000 		.4byte	.LASF82
 906 0597 08       		.byte	0x8
 907 0598 A4       		.byte	0xa4
 908 0599 1A       		.byte	0x1a
 909 059a CC020000 		.4byte	0x2cc
 910 059e 11       		.uleb128 0x11
 911 059f 2F060000 		.4byte	.LASF83
 912 05a3 08       		.byte	0x8
ARM GAS  /var/folders/l5/0x54b2c10074c8bt31ycjvl80000gp/T//ccQeNjrv.s 			page 17


 913 05a4 AB       		.byte	0xab
 914 05a5 19       		.byte	0x19
 915 05a6 2E010000 		.4byte	0x12e
 916 05aa 00       		.byte	0
 917 05ab 0B       		.uleb128 0xb
 918 05ac 04       		.byte	0x4
 919 05ad B8050000 		.4byte	0x5b8
 920 05b1 04       		.uleb128 0x4
 921 05b2 01       		.byte	0x1
 922 05b3 08       		.byte	0x8
 923 05b4 ED060000 		.4byte	.LASF84
 924 05b8 06       		.uleb128 0x6
 925 05b9 B1050000 		.4byte	0x5b1
 926 05bd 0B       		.uleb128 0xb
 927 05be 04       		.byte	0x4
 928 05bf EA040000 		.4byte	0x4ea
 929 05c3 0B       		.uleb128 0xb
 930 05c4 04       		.byte	0x4
 931 05c5 C9050000 		.4byte	0x5c9
 932 05c9 12       		.uleb128 0x12
 933 05ca 22010000 		.4byte	0x122
 934 05ce D8050000 		.4byte	0x5d8
 935 05d2 0E       		.uleb128 0xe
 936 05d3 CC020000 		.4byte	0x2cc
 937 05d7 00       		.byte	0
 938 05d8 0A       		.uleb128 0xa
 939 05d9 16       		.byte	0x16
 940 05da 0E       		.byte	0xe
 941 05db 25       		.byte	0x25
 942 05dc 09       		.byte	0x9
 943 05dd CC060000 		.4byte	0x6cc
 944 05e1 08       		.uleb128 0x8
 945 05e2 3D010000 		.4byte	.LASF85
 946 05e6 0E       		.byte	0xe
 947 05e7 26       		.byte	0x26
 948 05e8 0D       		.byte	0xd
 949 05e9 CC060000 		.4byte	0x6cc
 950 05ed 00       		.byte	0
 951 05ee 08       		.uleb128 0x8
 952 05ef 7A040000 		.4byte	.LASF86
 953 05f3 0E       		.byte	0xe
 954 05f4 27       		.byte	0x27
 955 05f5 0D       		.byte	0xd
 956 05f6 AC000000 		.4byte	0xac
 957 05fa 04       		.byte	0x4
 958 05fb 08       		.uleb128 0x8
 959 05fc 15050000 		.4byte	.LASF87
 960 0600 0E       		.byte	0xe
 961 0601 28       		.byte	0x28
 962 0602 0D       		.byte	0xd
 963 0603 AC000000 		.4byte	0xac
 964 0607 05       		.byte	0x5
 965 0608 08       		.uleb128 0x8
 966 0609 98080000 		.4byte	.LASF88
 967 060d 0E       		.byte	0xe
 968 060e 29       		.byte	0x29
 969 060f 0D       		.byte	0xd
ARM GAS  /var/folders/l5/0x54b2c10074c8bt31ycjvl80000gp/T//ccQeNjrv.s 			page 18


 970 0610 BD000000 		.4byte	0xbd
 971 0614 06       		.byte	0x6
 972 0615 08       		.uleb128 0x8
 973 0616 8F050000 		.4byte	.LASF89
 974 061a 0E       		.byte	0xe
 975 061b 2A       		.byte	0x2a
 976 061c 0D       		.byte	0xd
 977 061d AC000000 		.4byte	0xac
 978 0621 08       		.byte	0x8
 979 0622 08       		.uleb128 0x8
 980 0623 C9040000 		.4byte	.LASF90
 981 0627 0E       		.byte	0xe
 982 0628 2B       		.byte	0x2b
 983 0629 0D       		.byte	0xd
 984 062a AC000000 		.4byte	0xac
 985 062e 09       		.byte	0x9
 986 062f 08       		.uleb128 0x8
 987 0630 85000000 		.4byte	.LASF91
 988 0634 0E       		.byte	0xe
 989 0635 2C       		.byte	0x2c
 990 0636 0D       		.byte	0xd
 991 0637 AC000000 		.4byte	0xac
 992 063b 0A       		.byte	0xa
 993 063c 08       		.uleb128 0x8
 994 063d AC060000 		.4byte	.LASF92
 995 0641 0E       		.byte	0xe
 996 0642 2D       		.byte	0x2d
 997 0643 0D       		.byte	0xd
 998 0644 AC000000 		.4byte	0xac
 999 0648 0B       		.byte	0xb
 1000 0649 08       		.uleb128 0x8
 1001 064a 1F080000 		.4byte	.LASF93
 1002 064e 0E       		.byte	0xe
 1003 064f 2E       		.byte	0x2e
 1004 0650 0D       		.byte	0xd
 1005 0651 AC000000 		.4byte	0xac
 1006 0655 0C       		.byte	0xc
 1007 0656 08       		.uleb128 0x8
 1008 0657 76060000 		.4byte	.LASF94
 1009 065b 0E       		.byte	0xe
 1010 065c 2F       		.byte	0x2f
 1011 065d 0D       		.byte	0xd
 1012 065e AC000000 		.4byte	0xac
 1013 0662 0D       		.byte	0xd
 1014 0663 08       		.uleb128 0x8
 1015 0664 00000000 		.4byte	.LASF95
 1016 0668 0E       		.byte	0xe
 1017 0669 30       		.byte	0x30
 1018 066a 0D       		.byte	0xd
 1019 066b AC000000 		.4byte	0xac
 1020 066f 0E       		.byte	0xe
 1021 0670 08       		.uleb128 0x8
 1022 0671 DE040000 		.4byte	.LASF96
 1023 0675 0E       		.byte	0xe
 1024 0676 31       		.byte	0x31
 1025 0677 0D       		.byte	0xd
 1026 0678 AC000000 		.4byte	0xac
ARM GAS  /var/folders/l5/0x54b2c10074c8bt31ycjvl80000gp/T//ccQeNjrv.s 			page 19


 1027 067c 0F       		.byte	0xf
 1028 067d 08       		.uleb128 0x8
 1029 067e 02010000 		.4byte	.LASF97
 1030 0682 0E       		.byte	0xe
 1031 0683 32       		.byte	0x32
 1032 0684 0D       		.byte	0xd
 1033 0685 AC000000 		.4byte	0xac
 1034 0689 10       		.byte	0x10
 1035 068a 08       		.uleb128 0x8
 1036 068b C4000000 		.4byte	.LASF98
 1037 068f 0E       		.byte	0xe
 1038 0690 34       		.byte	0x34
 1039 0691 0D       		.byte	0xd
 1040 0692 AC000000 		.4byte	0xac
 1041 0696 11       		.byte	0x11
 1042 0697 08       		.uleb128 0x8
 1043 0698 1B010000 		.4byte	.LASF99
 1044 069c 0E       		.byte	0xe
 1045 069d 35       		.byte	0x35
 1046 069e 0D       		.byte	0xd
 1047 069f AC000000 		.4byte	0xac
 1048 06a3 12       		.byte	0x12
 1049 06a4 08       		.uleb128 0x8
 1050 06a5 82040000 		.4byte	.LASF100
 1051 06a9 0E       		.byte	0xe
 1052 06aa 36       		.byte	0x36
 1053 06ab 0D       		.byte	0xd
 1054 06ac AC000000 		.4byte	0xac
 1055 06b0 13       		.byte	0x13
 1056 06b1 08       		.uleb128 0x8
 1057 06b2 4A060000 		.4byte	.LASF101
 1058 06b6 0E       		.byte	0xe
 1059 06b7 37       		.byte	0x37
 1060 06b8 0D       		.byte	0xd
 1061 06b9 AC000000 		.4byte	0xac
 1062 06bd 14       		.byte	0x14
 1063 06be 08       		.uleb128 0x8
 1064 06bf 13060000 		.4byte	.LASF102
 1065 06c3 0E       		.byte	0xe
 1066 06c4 39       		.byte	0x39
 1067 06c5 0D       		.byte	0xd
 1068 06c6 AC000000 		.4byte	0xac
 1069 06ca 15       		.byte	0x15
 1070 06cb 00       		.byte	0
 1071 06cc 13       		.uleb128 0x13
 1072 06cd B1050000 		.4byte	0x5b1
 1073 06d1 DC060000 		.4byte	0x6dc
 1074 06d5 14       		.uleb128 0x14
 1075 06d6 38000000 		.4byte	0x38
 1076 06da 03       		.byte	0x3
 1077 06db 00       		.byte	0
 1078 06dc 03       		.uleb128 0x3
 1079 06dd AB010000 		.4byte	.LASF103
 1080 06e1 0E       		.byte	0xe
 1081 06e2 3A       		.byte	0x3a
 1082 06e3 03       		.byte	0x3
 1083 06e4 D8050000 		.4byte	0x5d8
ARM GAS  /var/folders/l5/0x54b2c10074c8bt31ycjvl80000gp/T//ccQeNjrv.s 			page 20


 1084 06e8 06       		.uleb128 0x6
 1085 06e9 DC060000 		.4byte	0x6dc
 1086 06ed 0F       		.uleb128 0xf
 1087 06ee CB020000 		.4byte	.LASF104
 1088 06f2 0E       		.byte	0xe
 1089 06f3 77       		.byte	0x77
 1090 06f4 1D       		.byte	0x1d
 1091 06f5 E8060000 		.4byte	0x6e8
 1092 06f9 03       		.uleb128 0x3
 1093 06fa 62040000 		.4byte	.LASF105
 1094 06fe 0F       		.byte	0xf
 1095 06ff 30       		.byte	0x30
 1096 0700 1D       		.byte	0x1d
 1097 0701 05070000 		.4byte	0x705
 1098 0705 07       		.uleb128 0x7
 1099 0706 62040000 		.4byte	.LASF105
 1100 070a 24       		.byte	0x24
 1101 070b 0F       		.byte	0xf
 1102 070c 3E       		.byte	0x3e
 1103 070d 08       		.byte	0x8
 1104 070e 7B070000 		.4byte	0x77b
 1105 0712 08       		.uleb128 0x8
 1106 0713 DE000000 		.4byte	.LASF106
 1107 0717 0F       		.byte	0xf
 1108 0718 3F       		.byte	0x3f
 1109 0719 19       		.byte	0x19
 1110 071a 85020000 		.4byte	0x285
 1111 071e 00       		.byte	0
 1112 071f 08       		.uleb128 0x8
 1113 0720 B7040000 		.4byte	.LASF107
 1114 0724 0F       		.byte	0xf
 1115 0725 40       		.byte	0x40
 1116 0726 19       		.byte	0x19
 1117 0727 2C000000 		.4byte	0x2c
 1118 072b 08       		.byte	0x8
 1119 072c 08       		.uleb128 0x8
 1120 072d 94010000 		.4byte	.LASF108
 1121 0731 0F       		.byte	0xf
 1122 0732 41       		.byte	0x41
 1123 0733 1A       		.byte	0x1a
 1124 0734 9E070000 		.4byte	0x79e
 1125 0738 0C       		.byte	0xc
 1126 0739 08       		.uleb128 0x8
 1127 073a 68000000 		.4byte	.LASF109
 1128 073e 0F       		.byte	0xf
 1129 073f 42       		.byte	0x42
 1130 0740 1A       		.byte	0x1a
 1131 0741 9E070000 		.4byte	0x79e
 1132 0745 10       		.byte	0x10
 1133 0746 08       		.uleb128 0x8
 1134 0747 FA040000 		.4byte	.LASF110
 1135 074b 0F       		.byte	0xf
 1136 074c 44       		.byte	0x44
 1137 074d 1A       		.byte	0x1a
 1138 074e 9E070000 		.4byte	0x79e
 1139 0752 14       		.byte	0x14
 1140 0753 08       		.uleb128 0x8
ARM GAS  /var/folders/l5/0x54b2c10074c8bt31ycjvl80000gp/T//ccQeNjrv.s 			page 21


 1141 0754 B3050000 		.4byte	.LASF111
 1142 0758 0F       		.byte	0xf
 1143 0759 45       		.byte	0x45
 1144 075a 1A       		.byte	0x1a
 1145 075b 9E070000 		.4byte	0x79e
 1146 075f 18       		.byte	0x18
 1147 0760 08       		.uleb128 0x8
 1148 0761 42080000 		.4byte	.LASF112
 1149 0765 0F       		.byte	0xf
 1150 0766 46       		.byte	0x46
 1151 0767 19       		.byte	0x19
 1152 0768 7B070000 		.4byte	0x77b
 1153 076c 1C       		.byte	0x1c
 1154 076d 08       		.uleb128 0x8
 1155 076e FD080000 		.4byte	.LASF113
 1156 0772 0F       		.byte	0xf
 1157 0773 47       		.byte	0x47
 1158 0774 1A       		.byte	0x1a
 1159 0775 CC020000 		.4byte	0x2cc
 1160 0779 20       		.byte	0x20
 1161 077a 00       		.byte	0
 1162 077b 03       		.uleb128 0x3
 1163 077c 9A050000 		.4byte	.LASF114
 1164 0780 0F       		.byte	0xf
 1165 0781 33       		.byte	0x33
 1166 0782 10       		.byte	0x10
 1167 0783 87070000 		.4byte	0x787
 1168 0787 0B       		.uleb128 0xb
 1169 0788 04       		.byte	0x4
 1170 0789 8D070000 		.4byte	0x78d
 1171 078d 0D       		.uleb128 0xd
 1172 078e 98070000 		.4byte	0x798
 1173 0792 0E       		.uleb128 0xe
 1174 0793 98070000 		.4byte	0x798
 1175 0797 00       		.byte	0
 1176 0798 0B       		.uleb128 0xb
 1177 0799 04       		.byte	0x4
 1178 079a F9060000 		.4byte	0x6f9
 1179 079e 0B       		.uleb128 0xb
 1180 079f 04       		.byte	0x4
 1181 07a0 AC000000 		.4byte	0xac
 1182 07a4 03       		.uleb128 0x3
 1183 07a5 51040000 		.4byte	.LASF115
 1184 07a9 0F       		.byte	0xf
 1185 07aa 7B       		.byte	0x7b
 1186 07ab 16       		.byte	0x16
 1187 07ac F9060000 		.4byte	0x6f9
 1188 07b0 03       		.uleb128 0x3
 1189 07b1 27000000 		.4byte	.LASF116
 1190 07b5 0F       		.byte	0xf
 1191 07b6 EE       		.byte	0xee
 1192 07b7 16       		.byte	0x16
 1193 07b8 F9060000 		.4byte	0x6f9
 1194 07bc 12       		.uleb128 0x12
 1195 07bd 2C000000 		.4byte	0x2c
 1196 07c1 D5070000 		.4byte	0x7d5
 1197 07c5 0E       		.uleb128 0xe
ARM GAS  /var/folders/l5/0x54b2c10074c8bt31ycjvl80000gp/T//ccQeNjrv.s 			page 22


 1198 07c6 CC020000 		.4byte	0x2cc
 1199 07ca 0E       		.uleb128 0xe
 1200 07cb D5070000 		.4byte	0x7d5
 1201 07cf 0E       		.uleb128 0xe
 1202 07d0 2C000000 		.4byte	0x2c
 1203 07d4 00       		.byte	0
 1204 07d5 0B       		.uleb128 0xb
 1205 07d6 04       		.byte	0x4
 1206 07d7 B8000000 		.4byte	0xb8
 1207 07db 0B       		.uleb128 0xb
 1208 07dc 04       		.byte	0x4
 1209 07dd BC070000 		.4byte	0x7bc
 1210 07e1 12       		.uleb128 0x12
 1211 07e2 2C000000 		.4byte	0x2c
 1212 07e6 FA070000 		.4byte	0x7fa
 1213 07ea 0E       		.uleb128 0xe
 1214 07eb CC020000 		.4byte	0x2cc
 1215 07ef 0E       		.uleb128 0xe
 1216 07f0 9E070000 		.4byte	0x79e
 1217 07f4 0E       		.uleb128 0xe
 1218 07f5 2C000000 		.4byte	0x2c
 1219 07f9 00       		.byte	0
 1220 07fa 0B       		.uleb128 0xb
 1221 07fb 04       		.byte	0x4
 1222 07fc E1070000 		.4byte	0x7e1
 1223 0800 12       		.uleb128 0x12
 1224 0801 22010000 		.4byte	0x122
 1225 0805 14080000 		.4byte	0x814
 1226 0809 0E       		.uleb128 0xe
 1227 080a CC020000 		.4byte	0x2cc
 1228 080e 0E       		.uleb128 0xe
 1229 080f AC000000 		.4byte	0xac
 1230 0813 00       		.byte	0
 1231 0814 0B       		.uleb128 0xb
 1232 0815 04       		.byte	0x4
 1233 0816 00080000 		.4byte	0x800
 1234 081a 13       		.uleb128 0x13
 1235 081b B4020000 		.4byte	0x2b4
 1236 081f 2A080000 		.4byte	0x82a
 1237 0823 14       		.uleb128 0x14
 1238 0824 38000000 		.4byte	0x38
 1239 0828 26       		.byte	0x26
 1240 0829 00       		.byte	0
 1241 082a 0F       		.uleb128 0xf
 1242 082b D7010000 		.4byte	.LASF117
 1243 082f 10       		.byte	0x10
 1244 0830 82       		.byte	0x82
 1245 0831 08       		.byte	0x8
 1246 0832 1A080000 		.4byte	0x81a
 1247 0836 07       		.uleb128 0x7
 1248 0837 4F000000 		.4byte	.LASF118
 1249 083b 20       		.byte	0x20
 1250 083c 11       		.byte	0x11
 1251 083d FD       		.byte	0xfd
 1252 083e 08       		.byte	0x8
 1253 083f B2080000 		.4byte	0x8b2
 1254 0843 08       		.uleb128 0x8
ARM GAS  /var/folders/l5/0x54b2c10074c8bt31ycjvl80000gp/T//ccQeNjrv.s 			page 23


 1255 0844 20020000 		.4byte	.LASF119
 1256 0848 11       		.byte	0x11
 1257 0849 FE       		.byte	0xfe
 1258 084a 19       		.byte	0x19
 1259 084b 3F000000 		.4byte	0x3f
 1260 084f 00       		.byte	0
 1261 0850 08       		.uleb128 0x8
 1262 0851 31080000 		.4byte	.LASF120
 1263 0855 11       		.byte	0x11
 1264 0856 FF       		.byte	0xff
 1265 0857 19       		.byte	0x19
 1266 0858 3F000000 		.4byte	0x3f
 1267 085c 04       		.byte	0x4
 1268 085d 15       		.uleb128 0x15
 1269 085e EB080000 		.4byte	.LASF121
 1270 0862 11       		.byte	0x11
 1271 0863 0001     		.2byte	0x100
 1272 0865 19       		.byte	0x19
 1273 0866 3F000000 		.4byte	0x3f
 1274 086a 08       		.byte	0x8
 1275 086b 15       		.uleb128 0x15
 1276 086c 49020000 		.4byte	.LASF122
 1277 0870 11       		.byte	0x11
 1278 0871 0101     		.2byte	0x101
 1279 0873 19       		.byte	0x19
 1280 0874 3F000000 		.4byte	0x3f
 1281 0878 0C       		.byte	0xc
 1282 0879 15       		.uleb128 0x15
 1283 087a AC000000 		.4byte	.LASF123
 1284 087e 11       		.byte	0x11
 1285 087f 0201     		.2byte	0x102
 1286 0881 19       		.byte	0x19
 1287 0882 3F000000 		.4byte	0x3f
 1288 0886 10       		.byte	0x10
 1289 0887 15       		.uleb128 0x15
 1290 0888 AA040000 		.4byte	.LASF124
 1291 088c 11       		.byte	0x11
 1292 088d 0301     		.2byte	0x103
 1293 088f 19       		.byte	0x19
 1294 0890 3F000000 		.4byte	0x3f
 1295 0894 14       		.byte	0x14
 1296 0895 15       		.uleb128 0x15
 1297 0896 84010000 		.4byte	.LASF125
 1298 089a 11       		.byte	0x11
 1299 089b 0401     		.2byte	0x104
 1300 089d 19       		.byte	0x19
 1301 089e 3F000000 		.4byte	0x3f
 1302 08a2 18       		.byte	0x18
 1303 08a3 15       		.uleb128 0x15
 1304 08a4 4A090000 		.4byte	.LASF126
 1305 08a8 11       		.byte	0x11
 1306 08a9 0501     		.2byte	0x105
 1307 08ab 19       		.byte	0x19
 1308 08ac 3F000000 		.4byte	0x3f
 1309 08b0 1C       		.byte	0x1c
 1310 08b1 00       		.byte	0
 1311 08b2 16       		.uleb128 0x16
ARM GAS  /var/folders/l5/0x54b2c10074c8bt31ycjvl80000gp/T//ccQeNjrv.s 			page 24


 1312 08b3 4F000000 		.4byte	.LASF118
 1313 08b7 11       		.byte	0x11
 1314 08b8 0801     		.2byte	0x108
 1315 08ba 1C       		.byte	0x1c
 1316 08bb 36080000 		.4byte	0x836
 1317 08bf 12       		.uleb128 0x12
 1318 08c0 22010000 		.4byte	0x122
 1319 08c4 D8080000 		.4byte	0x8d8
 1320 08c8 0E       		.uleb128 0xe
 1321 08c9 CC020000 		.4byte	0x2cc
 1322 08cd 0E       		.uleb128 0xe
 1323 08ce AC000000 		.4byte	0xac
 1324 08d2 0E       		.uleb128 0xe
 1325 08d3 46010000 		.4byte	0x146
 1326 08d7 00       		.byte	0
 1327 08d8 0B       		.uleb128 0xb
 1328 08d9 04       		.byte	0x4
 1329 08da BF080000 		.4byte	0x8bf
 1330 08de 12       		.uleb128 0x12
 1331 08df 22010000 		.4byte	0x122
 1332 08e3 F2080000 		.4byte	0x8f2
 1333 08e7 0E       		.uleb128 0xe
 1334 08e8 CC020000 		.4byte	0x2cc
 1335 08ec 0E       		.uleb128 0xe
 1336 08ed 46010000 		.4byte	0x146
 1337 08f1 00       		.byte	0
 1338 08f2 0B       		.uleb128 0xb
 1339 08f3 04       		.byte	0x4
 1340 08f4 DE080000 		.4byte	0x8de
 1341 08f8 12       		.uleb128 0x12
 1342 08f9 2C000000 		.4byte	0x2c
 1343 08fd 16090000 		.4byte	0x916
 1344 0901 0E       		.uleb128 0xe
 1345 0902 CC020000 		.4byte	0x2cc
 1346 0906 0E       		.uleb128 0xe
 1347 0907 D5070000 		.4byte	0x7d5
 1348 090b 0E       		.uleb128 0xe
 1349 090c 2C000000 		.4byte	0x2c
 1350 0910 0E       		.uleb128 0xe
 1351 0911 46010000 		.4byte	0x146
 1352 0915 00       		.byte	0
 1353 0916 0B       		.uleb128 0xb
 1354 0917 04       		.byte	0x4
 1355 0918 F8080000 		.4byte	0x8f8
 1356 091c 12       		.uleb128 0x12
 1357 091d 2C000000 		.4byte	0x2c
 1358 0921 3A090000 		.4byte	0x93a
 1359 0925 0E       		.uleb128 0xe
 1360 0926 CC020000 		.4byte	0x2cc
 1361 092a 0E       		.uleb128 0xe
 1362 092b 9E070000 		.4byte	0x79e
 1363 092f 0E       		.uleb128 0xe
 1364 0930 2C000000 		.4byte	0x2c
 1365 0934 0E       		.uleb128 0xe
 1366 0935 46010000 		.4byte	0x146
 1367 0939 00       		.byte	0
 1368 093a 0B       		.uleb128 0xb
ARM GAS  /var/folders/l5/0x54b2c10074c8bt31ycjvl80000gp/T//ccQeNjrv.s 			page 25


 1369 093b 04       		.byte	0x4
 1370 093c 1C090000 		.4byte	0x91c
 1371 0940 0A       		.uleb128 0xa
 1372 0941 18       		.byte	0x18
 1373 0942 12       		.byte	0x12
 1374 0943 2A       		.byte	0x2a
 1375 0944 09       		.byte	0x9
 1376 0945 98090000 		.4byte	0x998
 1377 0949 08       		.uleb128 0x8
 1378 094a 59080000 		.4byte	.LASF127
 1379 094e 12       		.byte	0x12
 1380 094f 2F       		.byte	0x2f
 1381 0950 15       		.byte	0x15
 1382 0951 D5000000 		.4byte	0xd5
 1383 0955 00       		.byte	0
 1384 0956 08       		.uleb128 0x8
 1385 0957 3F050000 		.4byte	.LASF128
 1386 095b 12       		.byte	0x12
 1387 095c 31       		.byte	0x31
 1388 095d 16       		.byte	0x16
 1389 095e 98090000 		.4byte	0x998
 1390 0962 04       		.byte	0x4
 1391 0963 08       		.uleb128 0x8
 1392 0964 24030000 		.4byte	.LASF129
 1393 0968 12       		.byte	0x12
 1394 0969 32       		.byte	0x32
 1395 096a 16       		.byte	0x16
 1396 096b 98090000 		.4byte	0x998
 1397 096f 08       		.byte	0x8
 1398 0970 08       		.uleb128 0x8
 1399 0971 8E040000 		.4byte	.LASF130
 1400 0975 12       		.byte	0x12
 1401 0976 33       		.byte	0x33
 1402 0977 16       		.byte	0x16
 1403 0978 98090000 		.4byte	0x998
 1404 097c 0C       		.byte	0xc
 1405 097d 08       		.uleb128 0x8
 1406 097e 4C050000 		.4byte	.LASF131
 1407 0982 12       		.byte	0x12
 1408 0983 34       		.byte	0x34
 1409 0984 16       		.byte	0x16
 1410 0985 98090000 		.4byte	0x998
 1411 0989 10       		.byte	0x10
 1412 098a 08       		.uleb128 0x8
 1413 098b 26060000 		.4byte	.LASF132
 1414 098f 12       		.byte	0x12
 1415 0990 35       		.byte	0x35
 1416 0991 10       		.byte	0x10
 1417 0992 38000000 		.4byte	0x38
 1418 0996 14       		.byte	0x14
 1419 0997 00       		.byte	0
 1420 0998 0B       		.uleb128 0xb
 1421 0999 04       		.byte	0x4
 1422 099a E1000000 		.4byte	0xe1
 1423 099e 03       		.uleb128 0x3
 1424 099f 18030000 		.4byte	.LASF133
 1425 09a3 12       		.byte	0x12
ARM GAS  /var/folders/l5/0x54b2c10074c8bt31ycjvl80000gp/T//ccQeNjrv.s 			page 26


 1426 09a4 37       		.byte	0x37
 1427 09a5 03       		.byte	0x3
 1428 09a6 40090000 		.4byte	0x940
 1429 09aa 17       		.uleb128 0x17
 1430 09ab 00       		.byte	0
 1431 09ac 12       		.byte	0x12
 1432 09ad 43       		.byte	0x43
 1433 09ae 09       		.byte	0x9
 1434 09af 03       		.uleb128 0x3
 1435 09b0 0D090000 		.4byte	.LASF134
 1436 09b4 12       		.byte	0x12
 1437 09b5 45       		.byte	0x45
 1438 09b6 03       		.byte	0x3
 1439 09b7 AA090000 		.4byte	0x9aa
 1440 09bb 06       		.uleb128 0x6
 1441 09bc AF090000 		.4byte	0x9af
 1442 09c0 03       		.uleb128 0x3
 1443 09c1 5B000000 		.4byte	.LASF135
 1444 09c5 12       		.byte	0x12
 1445 09c6 55       		.byte	0x55
 1446 09c7 12       		.byte	0x12
 1447 09c8 D5000000 		.4byte	0xd5
 1448 09cc 03       		.uleb128 0x3
 1449 09cd 04090000 		.4byte	.LASF136
 1450 09d1 12       		.byte	0x12
 1451 09d2 5A       		.byte	0x5a
 1452 09d3 12       		.byte	0x12
 1453 09d4 D5000000 		.4byte	0xd5
 1454 09d8 03       		.uleb128 0x3
 1455 09d9 7F070000 		.4byte	.LASF137
 1456 09dd 12       		.byte	0x12
 1457 09de 62       		.byte	0x62
 1458 09df 16       		.byte	0x16
 1459 09e0 E4090000 		.4byte	0x9e4
 1460 09e4 0B       		.uleb128 0xb
 1461 09e5 04       		.byte	0x4
 1462 09e6 9E090000 		.4byte	0x99e
 1463 09ea 0F       		.uleb128 0xf
 1464 09eb 1D050000 		.4byte	.LASF138
 1465 09ef 12       		.byte	0x12
 1466 09f0 6D       		.byte	0x6d
 1467 09f1 14       		.byte	0x14
 1468 09f2 9E090000 		.4byte	0x99e
 1469 09f6 0F       		.uleb128 0xf
 1470 09f7 B5000000 		.4byte	.LASF139
 1471 09fb 12       		.byte	0x12
 1472 09fc 6E       		.byte	0x6e
 1473 09fd 14       		.byte	0x14
 1474 09fe 9E090000 		.4byte	0x99e
 1475 0a02 0F       		.uleb128 0xf
 1476 0a03 1F090000 		.4byte	.LASF140
 1477 0a07 12       		.byte	0x12
 1478 0a08 75       		.byte	0x75
 1479 0a09 18       		.byte	0x18
 1480 0a0a BB090000 		.4byte	0x9bb
 1481 0a0e 0A       		.uleb128 0xa
 1482 0a0f 0C       		.byte	0xc
ARM GAS  /var/folders/l5/0x54b2c10074c8bt31ycjvl80000gp/T//ccQeNjrv.s 			page 27


 1483 0a10 13       		.byte	0x13
 1484 0a11 7E       		.byte	0x7e
 1485 0a12 09       		.byte	0x9
 1486 0a13 3F0A0000 		.4byte	0xa3f
 1487 0a17 08       		.uleb128 0x8
 1488 0a18 45050000 		.4byte	.LASF141
 1489 0a1c 13       		.byte	0x13
 1490 0a1d 82       		.byte	0x82
 1491 0a1e 19       		.byte	0x19
 1492 0a1f D8090000 		.4byte	0x9d8
 1493 0a23 00       		.byte	0
 1494 0a24 08       		.uleb128 0x8
 1495 0a25 33020000 		.4byte	.LASF142
 1496 0a29 13       		.byte	0x13
 1497 0a2a 88       		.byte	0x88
 1498 0a2b 19       		.byte	0x19
 1499 0a2c C0090000 		.4byte	0x9c0
 1500 0a30 04       		.byte	0x4
 1501 0a31 08       		.uleb128 0x8
 1502 0a32 6E070000 		.4byte	.LASF143
 1503 0a36 13       		.byte	0x13
 1504 0a37 8C       		.byte	0x8c
 1505 0a38 19       		.byte	0x19
 1506 0a39 E6000000 		.4byte	0xe6
 1507 0a3d 08       		.byte	0x8
 1508 0a3e 00       		.byte	0
 1509 0a3f 03       		.uleb128 0x3
 1510 0a40 75020000 		.4byte	.LASF144
 1511 0a44 13       		.byte	0x13
 1512 0a45 8D       		.byte	0x8d
 1513 0a46 03       		.byte	0x3
 1514 0a47 0E0A0000 		.4byte	0xa0e
 1515 0a4b 18       		.uleb128 0x18
 1516 0a4c 07       		.byte	0x7
 1517 0a4d 01       		.byte	0x1
 1518 0a4e 57000000 		.4byte	0x57
 1519 0a52 14       		.byte	0x14
 1520 0a53 54       		.byte	0x54
 1521 0a54 0E       		.byte	0xe
 1522 0a55 7E0A0000 		.4byte	0xa7e
 1523 0a59 19       		.uleb128 0x19
 1524 0a5a 4B010000 		.4byte	.LASF145
 1525 0a5e 00       		.byte	0
 1526 0a5f 19       		.uleb128 0x19
 1527 0a60 A1040000 		.4byte	.LASF146
 1528 0a64 01       		.byte	0x1
 1529 0a65 19       		.uleb128 0x19
 1530 0a66 64070000 		.4byte	.LASF147
 1531 0a6a 02       		.byte	0x2
 1532 0a6b 19       		.uleb128 0x19
 1533 0a6c B5010000 		.4byte	.LASF148
 1534 0a70 03       		.byte	0x3
 1535 0a71 19       		.uleb128 0x19
 1536 0a72 DA060000 		.4byte	.LASF149
 1537 0a76 04       		.byte	0x4
 1538 0a77 19       		.uleb128 0x19
 1539 0a78 83060000 		.4byte	.LASF150
ARM GAS  /var/folders/l5/0x54b2c10074c8bt31ycjvl80000gp/T//ccQeNjrv.s 			page 28


 1540 0a7c 05       		.byte	0x5
 1541 0a7d 00       		.byte	0
 1542 0a7e 03       		.uleb128 0x3
 1543 0a7f 84050000 		.4byte	.LASF151
 1544 0a83 14       		.byte	0x14
 1545 0a84 5B       		.byte	0x5b
 1546 0a85 03       		.byte	0x3
 1547 0a86 4B0A0000 		.4byte	0xa4b
 1548 0a8a 03       		.uleb128 0x3
 1549 0a8b 75070000 		.4byte	.LASF152
 1550 0a8f 15       		.byte	0x15
 1551 0a90 38       		.byte	0x38
 1552 0a91 1A       		.byte	0x1a
 1553 0a92 960A0000 		.4byte	0xa96
 1554 0a96 07       		.uleb128 0x7
 1555 0a97 75070000 		.4byte	.LASF152
 1556 0a9b 40       		.byte	0x40
 1557 0a9c 15       		.byte	0x15
 1558 0a9d 62       		.byte	0x62
 1559 0a9e 08       		.byte	0x8
 1560 0a9f 4D0B0000 		.4byte	0xb4d
 1561 0aa3 08       		.uleb128 0x8
 1562 0aa4 60010000 		.4byte	.LASF153
 1563 0aa8 15       		.byte	0x15
 1564 0aa9 64       		.byte	0x64
 1565 0aaa 1D       		.byte	0x1d
 1566 0aab 7E0A0000 		.4byte	0xa7e
 1567 0aaf 00       		.byte	0
 1568 0ab0 08       		.uleb128 0x8
 1569 0ab1 21070000 		.4byte	.LASF154
 1570 0ab5 15       		.byte	0x15
 1571 0ab6 66       		.byte	0x66
 1572 0ab7 1E       		.byte	0x1e
 1573 0ab8 8D0B0000 		.4byte	0xb8d
 1574 0abc 04       		.byte	0x4
 1575 0abd 08       		.uleb128 0x8
 1576 0abe AB020000 		.4byte	.LASF155
 1577 0ac2 15       		.byte	0x15
 1578 0ac3 68       		.byte	0x68
 1579 0ac4 1D       		.byte	0x1d
 1580 0ac5 4D0B0000 		.4byte	0xb4d
 1581 0ac9 08       		.byte	0x8
 1582 0aca 08       		.uleb128 0x8
 1583 0acb D7000000 		.4byte	.LASF156
 1584 0acf 15       		.byte	0x15
 1585 0ad0 6A       		.byte	0x6a
 1586 0ad1 1E       		.byte	0x1e
 1587 0ad2 930B0000 		.4byte	0xb93
 1588 0ad6 0C       		.byte	0xc
 1589 0ad7 08       		.uleb128 0x8
 1590 0ad8 C6050000 		.4byte	.LASF157
 1591 0adc 15       		.byte	0x15
 1592 0add 6D       		.byte	0x6d
 1593 0ade 1D       		.byte	0x1d
 1594 0adf EA040000 		.4byte	0x4ea
 1595 0ae3 10       		.byte	0x10
 1596 0ae4 08       		.uleb128 0x8
ARM GAS  /var/folders/l5/0x54b2c10074c8bt31ycjvl80000gp/T//ccQeNjrv.s 			page 29


 1597 0ae5 7D010000 		.4byte	.LASF158
 1598 0ae9 15       		.byte	0x15
 1599 0aea 77       		.byte	0x77
 1600 0aeb 1E       		.byte	0x1e
 1601 0aec 7F020000 		.4byte	0x27f
 1602 0af0 20       		.byte	0x20
 1603 0af1 08       		.uleb128 0x8
 1604 0af2 38010000 		.4byte	.LASF159
 1605 0af6 15       		.byte	0x15
 1606 0af7 7B       		.byte	0x7b
 1607 0af8 1D       		.byte	0x1d
 1608 0af9 590B0000 		.4byte	0xb59
 1609 0afd 24       		.byte	0x24
 1610 0afe 08       		.uleb128 0x8
 1611 0aff 95020000 		.4byte	.LASF160
 1612 0b03 15       		.byte	0x15
 1613 0b04 7F       		.byte	0x7f
 1614 0b05 1E       		.byte	0x1e
 1615 0b06 D5070000 		.4byte	0x7d5
 1616 0b0a 28       		.byte	0x28
 1617 0b0b 08       		.uleb128 0x8
 1618 0b0c 42090000 		.4byte	.LASF161
 1619 0b10 15       		.byte	0x15
 1620 0b11 83       		.byte	0x83
 1621 0b12 1D       		.byte	0x1d
 1622 0b13 2C000000 		.4byte	0x2c
 1623 0b17 2C       		.byte	0x2c
 1624 0b18 08       		.uleb128 0x8
 1625 0b19 0D080000 		.4byte	.LASF162
 1626 0b1d 15       		.byte	0x15
 1627 0b1e 87       		.byte	0x87
 1628 0b1f 1D       		.byte	0x1d
 1629 0b20 2C000000 		.4byte	0x2c
 1630 0b24 30       		.byte	0x30
 1631 0b25 08       		.uleb128 0x8
 1632 0b26 A6000000 		.4byte	.LASF163
 1633 0b2a 15       		.byte	0x15
 1634 0b2b 8B       		.byte	0x8b
 1635 0b2c 1E       		.byte	0x1e
 1636 0b2d 9E070000 		.4byte	0x79e
 1637 0b31 34       		.byte	0x34
 1638 0b32 08       		.uleb128 0x8
 1639 0b33 F2040000 		.4byte	.LASF164
 1640 0b37 15       		.byte	0x15
 1641 0b38 8F       		.byte	0x8f
 1642 0b39 1D       		.byte	0x1d
 1643 0b3a 2C000000 		.4byte	0x2c
 1644 0b3e 38       		.byte	0x38
 1645 0b3f 08       		.uleb128 0x8
 1646 0b40 8E010000 		.4byte	.LASF165
 1647 0b44 15       		.byte	0x15
 1648 0b45 93       		.byte	0x93
 1649 0b46 1D       		.byte	0x1d
 1650 0b47 2C000000 		.4byte	0x2c
 1651 0b4b 3C       		.byte	0x3c
 1652 0b4c 00       		.byte	0
 1653 0b4d 03       		.uleb128 0x3
ARM GAS  /var/folders/l5/0x54b2c10074c8bt31ycjvl80000gp/T//ccQeNjrv.s 			page 30


 1654 0b4e BB050000 		.4byte	.LASF166
 1655 0b52 15       		.byte	0x15
 1656 0b53 42       		.byte	0x42
 1657 0b54 12       		.byte	0x12
 1658 0b55 D5000000 		.4byte	0xd5
 1659 0b59 03       		.uleb128 0x3
 1660 0b5a 56010000 		.4byte	.LASF167
 1661 0b5e 15       		.byte	0x15
 1662 0b5f 48       		.byte	0x48
 1663 0b60 12       		.byte	0x12
 1664 0b61 BD000000 		.4byte	0xbd
 1665 0b65 0A       		.uleb128 0xa
 1666 0b66 04       		.byte	0x4
 1667 0b67 15       		.byte	0x15
 1668 0b68 57       		.byte	0x57
 1669 0b69 09       		.byte	0x9
 1670 0b6a 7C0B0000 		.4byte	0xb7c
 1671 0b6e 08       		.uleb128 0x8
 1672 0b6f D5040000 		.4byte	.LASF168
 1673 0b73 15       		.byte	0x15
 1674 0b74 59       		.byte	0x59
 1675 0b75 1D       		.byte	0x1d
 1676 0b76 D5000000 		.4byte	0xd5
 1677 0b7a 00       		.byte	0
 1678 0b7b 00       		.byte	0
 1679 0b7c 03       		.uleb128 0x3
 1680 0b7d F9070000 		.4byte	.LASF169
 1681 0b81 15       		.byte	0x15
 1682 0b82 5B       		.byte	0x5b
 1683 0b83 03       		.byte	0x3
 1684 0b84 650B0000 		.4byte	0xb65
 1685 0b88 06       		.uleb128 0x6
 1686 0b89 7C0B0000 		.4byte	0xb7c
 1687 0b8d 0B       		.uleb128 0xb
 1688 0b8e 04       		.byte	0x4
 1689 0b8f 880B0000 		.4byte	0xb88
 1690 0b93 0B       		.uleb128 0xb
 1691 0b94 04       		.byte	0x4
 1692 0b95 B2080000 		.4byte	0x8b2
 1693 0b99 0F       		.uleb128 0xf
 1694 0b9a 64020000 		.4byte	.LASF170
 1695 0b9e 15       		.byte	0x15
 1696 0b9f A6       		.byte	0xa6
 1697 0ba0 12       		.byte	0x12
 1698 0ba1 8A0A0000 		.4byte	0xa8a
 1699 0ba5 18       		.uleb128 0x18
 1700 0ba6 07       		.byte	0x7
 1701 0ba7 01       		.byte	0x1
 1702 0ba8 57000000 		.4byte	0x57
 1703 0bac 16       		.byte	0x16
 1704 0bad 5D       		.byte	0x5d
 1705 0bae 0E       		.byte	0xe
 1706 0baf C60B0000 		.4byte	0xbc6
 1707 0bb3 19       		.uleb128 0x19
 1708 0bb4 99060000 		.4byte	.LASF171
 1709 0bb8 00       		.byte	0
 1710 0bb9 19       		.uleb128 0x19
ARM GAS  /var/folders/l5/0x54b2c10074c8bt31ycjvl80000gp/T//ccQeNjrv.s 			page 31


 1711 0bba 28010000 		.4byte	.LASF172
 1712 0bbe 01       		.byte	0x1
 1713 0bbf 19       		.uleb128 0x19
 1714 0bc0 C8070000 		.4byte	.LASF173
 1715 0bc4 02       		.byte	0x2
 1716 0bc5 00       		.byte	0
 1717 0bc6 03       		.uleb128 0x3
 1718 0bc7 03080000 		.4byte	.LASF174
 1719 0bcb 16       		.byte	0x16
 1720 0bcc 61       		.byte	0x61
 1721 0bcd 03       		.byte	0x3
 1722 0bce A50B0000 		.4byte	0xba5
 1723 0bd2 03       		.uleb128 0x3
 1724 0bd3 CD060000 		.4byte	.LASF175
 1725 0bd7 16       		.byte	0x16
 1726 0bd8 66       		.byte	0x66
 1727 0bd9 1D       		.byte	0x1d
 1728 0bda DE0B0000 		.4byte	0xbde
 1729 0bde 07       		.uleb128 0x7
 1730 0bdf CD060000 		.4byte	.LASF175
 1731 0be3 74       		.byte	0x74
 1732 0be4 16       		.byte	0x16
 1733 0be5 80       		.byte	0x80
 1734 0be6 08       		.byte	0x8
 1735 0be7 450C0000 		.4byte	0xc45
 1736 0beb 09       		.uleb128 0x9
 1737 0bec 766D7400 		.ascii	"vmt\000"
 1738 0bf0 16       		.byte	0x16
 1739 0bf1 82       		.byte	0x82
 1740 0bf2 21       		.byte	0x21
 1741 0bf3 CC0C0000 		.4byte	0xccc
 1742 0bf7 00       		.byte	0
 1743 0bf8 08       		.uleb128 0x8
 1744 0bf9 F7020000 		.4byte	.LASF176
 1745 0bfd 16       		.byte	0x16
 1746 0bfe 83       		.byte	0x83
 1747 0bff 03       		.byte	0x3
 1748 0c00 65050000 		.4byte	0x565
 1749 0c04 04       		.byte	0x4
 1750 0c05 08       		.uleb128 0x8
 1751 0c06 60010000 		.4byte	.LASF153
 1752 0c0a 16       		.byte	0x16
 1753 0c0b 83       		.byte	0x83
 1754 0c0c 03       		.byte	0x3
 1755 0c0d C60B0000 		.4byte	0xbc6
 1756 0c11 08       		.byte	0x8
 1757 0c12 08       		.uleb128 0x8
 1758 0c13 B2020000 		.4byte	.LASF177
 1759 0c17 16       		.byte	0x16
 1760 0c18 83       		.byte	0x83
 1761 0c19 03       		.byte	0x3
 1762 0c1a A4070000 		.4byte	0x7a4
 1763 0c1e 0C       		.byte	0xc
 1764 0c1f 08       		.uleb128 0x8
 1765 0c20 30030000 		.4byte	.LASF178
 1766 0c24 16       		.byte	0x16
 1767 0c25 83       		.byte	0x83
ARM GAS  /var/folders/l5/0x54b2c10074c8bt31ycjvl80000gp/T//ccQeNjrv.s 			page 32


 1768 0c26 03       		.byte	0x3
 1769 0c27 B0070000 		.4byte	0x7b0
 1770 0c2b 30       		.byte	0x30
 1771 0c2c 09       		.uleb128 0x9
 1772 0c2d 696200   		.ascii	"ib\000"
 1773 0c30 16       		.byte	0x16
 1774 0c31 83       		.byte	0x83
 1775 0c32 03       		.byte	0x3
 1776 0c33 D20C0000 		.4byte	0xcd2
 1777 0c37 54       		.byte	0x54
 1778 0c38 09       		.uleb128 0x9
 1779 0c39 6F6200   		.ascii	"ob\000"
 1780 0c3c 16       		.byte	0x16
 1781 0c3d 83       		.byte	0x83
 1782 0c3e 03       		.byte	0x3
 1783 0c3f D20C0000 		.4byte	0xcd2
 1784 0c43 64       		.byte	0x64
 1785 0c44 00       		.byte	0
 1786 0c45 1A       		.uleb128 0x1a
 1787 0c46 53443100 		.ascii	"SD1\000"
 1788 0c4a 19       		.byte	0x19
 1789 0c4b 62       		.byte	0x62
 1790 0c4c 15       		.byte	0x15
 1791 0c4d D20B0000 		.4byte	0xbd2
 1792 0c51 07       		.uleb128 0x7
 1793 0c52 9B020000 		.4byte	.LASF179
 1794 0c56 20       		.byte	0x20
 1795 0c57 16       		.byte	0x16
 1796 0c58 75       		.byte	0x75
 1797 0c59 08       		.byte	0x8
 1798 0c5a C70C0000 		.4byte	0xcc7
 1799 0c5e 08       		.uleb128 0x8
 1800 0c5f 21000000 		.4byte	.LASF180
 1801 0c63 16       		.byte	0x16
 1802 0c64 76       		.byte	0x76
 1803 0c65 03       		.byte	0x3
 1804 0c66 DB070000 		.4byte	0x7db
 1805 0c6a 00       		.byte	0
 1806 0c6b 08       		.uleb128 0x8
 1807 0c6c E8060000 		.4byte	.LASF181
 1808 0c70 16       		.byte	0x16
 1809 0c71 76       		.byte	0x76
 1810 0c72 03       		.byte	0x3
 1811 0c73 FA070000 		.4byte	0x7fa
 1812 0c77 04       		.byte	0x4
 1813 0c78 09       		.uleb128 0x9
 1814 0c79 70757400 		.ascii	"put\000"
 1815 0c7d 16       		.byte	0x16
 1816 0c7e 76       		.byte	0x76
 1817 0c7f 03       		.byte	0x3
 1818 0c80 14080000 		.4byte	0x814
 1819 0c84 08       		.byte	0x8
 1820 0c85 09       		.uleb128 0x9
 1821 0c86 67657400 		.ascii	"get\000"
 1822 0c8a 16       		.byte	0x16
 1823 0c8b 76       		.byte	0x76
 1824 0c8c 03       		.byte	0x3
ARM GAS  /var/folders/l5/0x54b2c10074c8bt31ycjvl80000gp/T//ccQeNjrv.s 			page 33


 1825 0c8d C3050000 		.4byte	0x5c3
 1826 0c91 0C       		.byte	0xc
 1827 0c92 08       		.uleb128 0x8
 1828 0c93 94040000 		.4byte	.LASF182
 1829 0c97 16       		.byte	0x16
 1830 0c98 76       		.byte	0x76
 1831 0c99 03       		.byte	0x3
 1832 0c9a D8080000 		.4byte	0x8d8
 1833 0c9e 10       		.byte	0x10
 1834 0c9f 08       		.uleb128 0x8
 1835 0ca0 D4020000 		.4byte	.LASF183
 1836 0ca4 16       		.byte	0x16
 1837 0ca5 76       		.byte	0x76
 1838 0ca6 03       		.byte	0x3
 1839 0ca7 F2080000 		.4byte	0x8f2
 1840 0cab 14       		.byte	0x14
 1841 0cac 08       		.uleb128 0x8
 1842 0cad 17040000 		.4byte	.LASF184
 1843 0cb1 16       		.byte	0x16
 1844 0cb2 76       		.byte	0x76
 1845 0cb3 03       		.byte	0x3
 1846 0cb4 16090000 		.4byte	0x916
 1847 0cb8 18       		.byte	0x18
 1848 0cb9 08       		.uleb128 0x8
 1849 0cba D1000000 		.4byte	.LASF185
 1850 0cbe 16       		.byte	0x16
 1851 0cbf 76       		.byte	0x76
 1852 0cc0 03       		.byte	0x3
 1853 0cc1 3A090000 		.4byte	0x93a
 1854 0cc5 1C       		.byte	0x1c
 1855 0cc6 00       		.byte	0
 1856 0cc7 06       		.uleb128 0x6
 1857 0cc8 510C0000 		.4byte	0xc51
 1858 0ccc 0B       		.uleb128 0xb
 1859 0ccd 04       		.byte	0x4
 1860 0cce C70C0000 		.4byte	0xcc7
 1861 0cd2 13       		.uleb128 0x13
 1862 0cd3 AC000000 		.4byte	0xac
 1863 0cd7 E20C0000 		.4byte	0xce2
 1864 0cdb 14       		.uleb128 0x14
 1865 0cdc 38000000 		.4byte	0x38
 1866 0ce0 0F       		.byte	0xf
 1867 0ce1 00       		.byte	0
 1868 0ce2 18       		.uleb128 0x18
 1869 0ce3 07       		.byte	0x7
 1870 0ce4 01       		.byte	0x1
 1871 0ce5 57000000 		.4byte	0x57
 1872 0ce9 17       		.byte	0x17
 1873 0cea 4E       		.byte	0x4e
 1874 0ceb 0E       		.byte	0xe
 1875 0cec 0F0D0000 		.4byte	0xd0f
 1876 0cf0 19       		.uleb128 0x19
 1877 0cf1 DB070000 		.4byte	.LASF186
 1878 0cf5 00       		.byte	0
 1879 0cf6 19       		.uleb128 0x19
 1880 0cf7 12010000 		.4byte	.LASF187
 1881 0cfb 01       		.byte	0x1
ARM GAS  /var/folders/l5/0x54b2c10074c8bt31ycjvl80000gp/T//ccQeNjrv.s 			page 34


 1882 0cfc 19       		.uleb128 0x19
 1883 0cfd D1070000 		.4byte	.LASF188
 1884 0d01 02       		.byte	0x2
 1885 0d02 19       		.uleb128 0x19
 1886 0d03 3D000000 		.4byte	.LASF189
 1887 0d07 03       		.byte	0x3
 1888 0d08 19       		.uleb128 0x19
 1889 0d09 09070000 		.4byte	.LASF190
 1890 0d0d 04       		.byte	0x4
 1891 0d0e 00       		.byte	0
 1892 0d0f 03       		.uleb128 0x3
 1893 0d10 33070000 		.4byte	.LASF191
 1894 0d14 17       		.byte	0x17
 1895 0d15 54       		.byte	0x54
 1896 0d16 03       		.byte	0x3
 1897 0d17 E20C0000 		.4byte	0xce2
 1898 0d1b 03       		.uleb128 0x3
 1899 0d1c 9C000000 		.4byte	.LASF192
 1900 0d20 18       		.byte	0x18
 1901 0d21 35       		.byte	0x35
 1902 0d22 1A       		.byte	0x1a
 1903 0d23 270D0000 		.4byte	0xd27
 1904 0d27 07       		.uleb128 0x7
 1905 0d28 9C000000 		.4byte	.LASF192
 1906 0d2c 28       		.byte	0x28
 1907 0d2d 18       		.byte	0x18
 1908 0d2e 7C       		.byte	0x7c
 1909 0d2f 08       		.byte	0x8
 1910 0d30 900D0000 		.4byte	0xd90
 1911 0d34 08       		.uleb128 0x8
 1912 0d35 60010000 		.4byte	.LASF153
 1913 0d39 18       		.byte	0x18
 1914 0d3a 80       		.byte	0x80
 1915 0d3b 19       		.byte	0x19
 1916 0d3c 0F0D0000 		.4byte	0xd0f
 1917 0d40 00       		.byte	0
 1918 0d41 08       		.uleb128 0x8
 1919 0d42 21070000 		.4byte	.LASF154
 1920 0d46 18       		.byte	0x18
 1921 0d47 84       		.byte	0x84
 1922 0d48 1A       		.byte	0x1a
 1923 0d49 430E0000 		.4byte	0xe43
 1924 0d4d 04       		.byte	0x4
 1925 0d4e 08       		.uleb128 0x8
 1926 0d4f 7D010000 		.4byte	.LASF158
 1927 0d53 18       		.byte	0x18
 1928 0d54 89       		.byte	0x89
 1929 0d55 1A       		.byte	0x1a
 1930 0d56 7F020000 		.4byte	0x27f
 1931 0d5a 08       		.byte	0x8
 1932 0d5b 08       		.uleb128 0x8
 1933 0d5c C6050000 		.4byte	.LASF157
 1934 0d60 18       		.byte	0x18
 1935 0d61 90       		.byte	0x90
 1936 0d62 19       		.byte	0x19
 1937 0d63 EA040000 		.4byte	0x4ea
 1938 0d67 0C       		.byte	0xc
ARM GAS  /var/folders/l5/0x54b2c10074c8bt31ycjvl80000gp/T//ccQeNjrv.s 			page 35


 1939 0d68 08       		.uleb128 0x8
 1940 0d69 A6000000 		.4byte	.LASF163
 1941 0d6d 18       		.byte	0x18
 1942 0d6e 98       		.byte	0x98
 1943 0d6f 1A       		.byte	0x1a
 1944 0d70 CC020000 		.4byte	0x2cc
 1945 0d74 1C       		.byte	0x1c
 1946 0d75 08       		.uleb128 0x8
 1947 0d76 95020000 		.4byte	.LASF160
 1948 0d7a 18       		.byte	0x18
 1949 0d7b 9D       		.byte	0x9d
 1950 0d7c 1A       		.byte	0x1a
 1951 0d7d 490E0000 		.4byte	0xe49
 1952 0d81 20       		.byte	0x20
 1953 0d82 08       		.uleb128 0x8
 1954 0d83 EE010000 		.4byte	.LASF193
 1955 0d87 18       		.byte	0x18
 1956 0d88 A2       		.byte	0xa2
 1957 0d89 17       		.byte	0x17
 1958 0d8a 2C000000 		.4byte	0x2c
 1959 0d8e 24       		.byte	0x24
 1960 0d8f 00       		.byte	0
 1961 0d90 03       		.uleb128 0x3
 1962 0d91 56020000 		.4byte	.LASF194
 1963 0d95 18       		.byte	0x18
 1964 0d96 3D       		.byte	0x3d
 1965 0d97 10       		.byte	0x10
 1966 0d98 9C0D0000 		.4byte	0xd9c
 1967 0d9c 0B       		.uleb128 0xb
 1968 0d9d 04       		.byte	0x4
 1969 0d9e A20D0000 		.4byte	0xda2
 1970 0da2 0D       		.uleb128 0xd
 1971 0da3 AD0D0000 		.4byte	0xdad
 1972 0da7 0E       		.uleb128 0xe
 1973 0da8 AD0D0000 		.4byte	0xdad
 1974 0dac 00       		.byte	0
 1975 0dad 0B       		.uleb128 0xb
 1976 0dae 04       		.byte	0x4
 1977 0daf 1B0D0000 		.4byte	0xd1b
 1978 0db3 0A       		.uleb128 0xa
 1979 0db4 10       		.byte	0x10
 1980 0db5 18       		.byte	0x18
 1981 0db6 44       		.byte	0x44
 1982 0db7 09       		.byte	0x9
 1983 0db8 320E0000 		.4byte	0xe32
 1984 0dbc 08       		.uleb128 0x8
 1985 0dbd E7010000 		.4byte	.LASF195
 1986 0dc1 18       		.byte	0x18
 1987 0dc2 48       		.byte	0x48
 1988 0dc3 19       		.byte	0x19
 1989 0dc4 900D0000 		.4byte	0xd90
 1990 0dc8 00       		.byte	0
 1991 0dc9 08       		.uleb128 0x8
 1992 0dca 55050000 		.4byte	.LASF196
 1993 0dce 18       		.byte	0x18
 1994 0dcf 4F       		.byte	0x4f
 1995 0dd0 19       		.byte	0x19
ARM GAS  /var/folders/l5/0x54b2c10074c8bt31ycjvl80000gp/T//ccQeNjrv.s 			page 36


 1996 0dd1 AC000000 		.4byte	0xac
 1997 0dd5 04       		.byte	0x4
 1998 0dd6 08       		.uleb128 0x8
 1999 0dd7 70050000 		.4byte	.LASF197
 2000 0ddb 18       		.byte	0x18
 2001 0ddc 52       		.byte	0x52
 2002 0ddd 19       		.byte	0x19
 2003 0dde AC000000 		.4byte	0xac
 2004 0de2 05       		.byte	0x5
 2005 0de3 08       		.uleb128 0x8
 2006 0de4 E2020000 		.4byte	.LASF198
 2007 0de8 18       		.byte	0x18
 2008 0de9 58       		.byte	0x58
 2009 0dea 19       		.byte	0x19
 2010 0deb AC000000 		.4byte	0xac
 2011 0def 06       		.byte	0x6
 2012 0df0 08       		.uleb128 0x8
 2013 0df1 F4010000 		.4byte	.LASF199
 2014 0df5 18       		.byte	0x18
 2015 0df6 5E       		.byte	0x5e
 2016 0df7 19       		.byte	0x19
 2017 0df8 AC000000 		.4byte	0xac
 2018 0dfc 07       		.byte	0x7
 2019 0dfd 08       		.uleb128 0x8
 2020 0dfe 0A020000 		.4byte	.LASF200
 2021 0e02 18       		.byte	0x18
 2022 0e03 64       		.byte	0x64
 2023 0e04 19       		.byte	0x19
 2024 0e05 AC000000 		.4byte	0xac
 2025 0e09 08       		.byte	0x8
 2026 0e0a 08       		.uleb128 0x8
 2027 0e0b 91070000 		.4byte	.LASF201
 2028 0e0f 18       		.byte	0x18
 2029 0e10 6A       		.byte	0x6a
 2030 0e11 19       		.byte	0x19
 2031 0e12 AC000000 		.4byte	0xac
 2032 0e16 09       		.byte	0x9
 2033 0e17 08       		.uleb128 0x8
 2034 0e18 C3010000 		.4byte	.LASF202
 2035 0e1c 18       		.byte	0x18
 2036 0e1d 70       		.byte	0x70
 2037 0e1e 19       		.byte	0x19
 2038 0e1f AC000000 		.4byte	0xac
 2039 0e23 0A       		.byte	0xa
 2040 0e24 08       		.uleb128 0x8
 2041 0e25 68060000 		.4byte	.LASF203
 2042 0e29 18       		.byte	0x18
 2043 0e2a 73       		.byte	0x73
 2044 0e2b 19       		.byte	0x19
 2045 0e2c D5000000 		.4byte	0xd5
 2046 0e30 0C       		.byte	0xc
 2047 0e31 00       		.byte	0
 2048 0e32 03       		.uleb128 0x3
 2049 0e33 8E080000 		.4byte	.LASF204
 2050 0e37 18       		.byte	0x18
 2051 0e38 75       		.byte	0x75
 2052 0e39 03       		.byte	0x3
ARM GAS  /var/folders/l5/0x54b2c10074c8bt31ycjvl80000gp/T//ccQeNjrv.s 			page 37


 2053 0e3a B30D0000 		.4byte	0xdb3
 2054 0e3e 06       		.uleb128 0x6
 2055 0e3f 320E0000 		.4byte	0xe32
 2056 0e43 0B       		.uleb128 0xb
 2057 0e44 04       		.byte	0x4
 2058 0e45 3E0E0000 		.4byte	0xe3e
 2059 0e49 0B       		.uleb128 0xb
 2060 0e4a 04       		.byte	0x4
 2061 0e4b 4F0E0000 		.4byte	0xe4f
 2062 0e4f 1B       		.uleb128 0x1b
 2063 0e50 0F       		.uleb128 0xf
 2064 0e51 A6010000 		.4byte	.LASF205
 2065 0e55 18       		.byte	0x18
 2066 0e56 B6       		.byte	0xb6
 2067 0e57 14       		.byte	0x14
 2068 0e58 1B0D0000 		.4byte	0xd1b
 2069 0e5c 1C       		.uleb128 0x1c
 2070 0e5d 62050000 		.4byte	.LASF207
 2071 0e61 01       		.byte	0x1
 2072 0e62 75       		.byte	0x75
 2073 0e63 06       		.byte	0x6
 2074 0e64 00000000 		.4byte	.LFB9
 2075 0e68 18000000 		.4byte	.LFE9-.LFB9
 2076 0e6c 01       		.uleb128 0x1
 2077 0e6d 9C       		.byte	0x9c
 2078 0e6e AC0E0000 		.4byte	0xeac
 2079 0e72 1D       		.uleb128 0x1d
 2080 0e73 62757300 		.ascii	"bus\000"
 2081 0e77 01       		.byte	0x1
 2082 0e78 75       		.byte	0x75
 2083 0e79 1B       		.byte	0x1b
 2084 0e7a AC0E0000 		.4byte	0xeac
 2085 0e7e 04000000 		.4byte	.LLST3
 2086 0e82 00000000 		.4byte	.LVUS3
 2087 0e86 1E       		.uleb128 0x1e
 2088 0e87 7B020000 		.4byte	.LASF206
 2089 0e8b 01       		.byte	0x1
 2090 0e8c 75       		.byte	0x75
 2091 0e8d 29       		.byte	0x29
 2092 0e8e CC090000 		.4byte	0x9cc
 2093 0e92 2B000000 		.4byte	.LLST4
 2094 0e96 25000000 		.4byte	.LVUS4
 2095 0e9a 1F       		.uleb128 0x1f
 2096 0e9b 18000000 		.4byte	.LVL10
 2097 0e9f 290F0000 		.4byte	0xf29
 2098 0ea3 20       		.uleb128 0x20
 2099 0ea4 01       		.uleb128 0x1
 2100 0ea5 52       		.byte	0x52
 2101 0ea6 03       		.uleb128 0x3
 2102 0ea7 F3       		.byte	0xf3
 2103 0ea8 01       		.uleb128 0x1
 2104 0ea9 51       		.byte	0x51
 2105 0eaa 00       		.byte	0
 2106 0eab 00       		.byte	0
 2107 0eac 0B       		.uleb128 0xb
 2108 0ead 04       		.byte	0x4
 2109 0eae 3F0A0000 		.4byte	0xa3f
ARM GAS  /var/folders/l5/0x54b2c10074c8bt31ycjvl80000gp/T//ccQeNjrv.s 			page 38


 2110 0eb2 1C       		.uleb128 0x1c
 2111 0eb3 13080000 		.4byte	.LASF208
 2112 0eb7 01       		.byte	0x1
 2113 0eb8 5E       		.byte	0x5e
 2114 0eb9 06       		.byte	0x6
 2115 0eba 00000000 		.4byte	.LFB8
 2116 0ebe 20000000 		.4byte	.LFE8-.LFB8
 2117 0ec2 01       		.uleb128 0x1
 2118 0ec3 9C       		.byte	0x9c
 2119 0ec4 FA0E0000 		.4byte	0xefa
 2120 0ec8 1D       		.uleb128 0x1d
 2121 0ec9 62757300 		.ascii	"bus\000"
 2122 0ecd 01       		.byte	0x1
 2123 0ece 5E       		.byte	0x5e
 2124 0ecf 19       		.byte	0x19
 2125 0ed0 AC0E0000 		.4byte	0xeac
 2126 0ed4 5D000000 		.4byte	.LLST1
 2127 0ed8 57000000 		.4byte	.LVUS1
 2128 0edc 1E       		.uleb128 0x1e
 2129 0edd 66010000 		.4byte	.LASF209
 2130 0ee1 01       		.byte	0x1
 2131 0ee2 5E       		.byte	0x5e
 2132 0ee3 2B       		.byte	0x2b
 2133 0ee4 C0090000 		.4byte	0x9c0
 2134 0ee8 8D000000 		.4byte	.LLST2
 2135 0eec 89000000 		.4byte	.LVUS2
 2136 0ef0 21       		.uleb128 0x21
 2137 0ef1 20000000 		.4byte	.LVL6
 2138 0ef5 350F0000 		.4byte	0xf35
 2139 0ef9 00       		.byte	0
 2140 0efa 22       		.uleb128 0x22
 2141 0efb 16070000 		.4byte	.LASF215
 2142 0eff 01       		.byte	0x1
 2143 0f00 45       		.byte	0x45
 2144 0f01 0E       		.byte	0xe
 2145 0f02 C0090000 		.4byte	0x9c0
 2146 0f06 00000000 		.4byte	.LFB7
 2147 0f0a 1C000000 		.4byte	.LFE7-.LFB7
 2148 0f0e 01       		.uleb128 0x1
 2149 0f0f 9C       		.byte	0x9c
 2150 0f10 290F0000 		.4byte	0xf29
 2151 0f14 1D       		.uleb128 0x1d
 2152 0f15 62757300 		.ascii	"bus\000"
 2153 0f19 01       		.byte	0x1
 2154 0f1a 45       		.byte	0x45
 2155 0f1b 20       		.byte	0x20
 2156 0f1c AC0E0000 		.4byte	0xeac
 2157 0f20 B2000000 		.4byte	.LLST0
 2158 0f24 AE000000 		.4byte	.LVUS0
 2159 0f28 00       		.byte	0
 2160 0f29 23       		.uleb128 0x23
 2161 0f2a A0070000 		.4byte	.LASF210
 2162 0f2e A0070000 		.4byte	.LASF210
 2163 0f32 12       		.byte	0x12
 2164 0f33 B6       		.byte	0xb6
 2165 0f34 08       		.byte	0x8
 2166 0f35 23       		.uleb128 0x23
ARM GAS  /var/folders/l5/0x54b2c10074c8bt31ycjvl80000gp/T//ccQeNjrv.s 			page 39


 2167 0f36 26040000 		.4byte	.LASF211
 2168 0f3a 26040000 		.4byte	.LASF211
 2169 0f3e 12       		.byte	0x12
 2170 0f3f BA       		.byte	0xba
 2171 0f40 08       		.byte	0x8
 2172 0f41 00       		.byte	0
 2173              		.section	.debug_abbrev,"",%progbits
 2174              	.Ldebug_abbrev0:
 2175 0000 01       		.uleb128 0x1
 2176 0001 11       		.uleb128 0x11
 2177 0002 01       		.byte	0x1
 2178 0003 25       		.uleb128 0x25
 2179 0004 0E       		.uleb128 0xe
 2180 0005 13       		.uleb128 0x13
 2181 0006 0B       		.uleb128 0xb
 2182 0007 03       		.uleb128 0x3
 2183 0008 0E       		.uleb128 0xe
 2184 0009 1B       		.uleb128 0x1b
 2185 000a 0E       		.uleb128 0xe
 2186 000b 55       		.uleb128 0x55
 2187 000c 17       		.uleb128 0x17
 2188 000d 11       		.uleb128 0x11
 2189 000e 01       		.uleb128 0x1
 2190 000f 10       		.uleb128 0x10
 2191 0010 17       		.uleb128 0x17
 2192 0011 00       		.byte	0
 2193 0012 00       		.byte	0
 2194 0013 02       		.uleb128 0x2
 2195 0014 24       		.uleb128 0x24
 2196 0015 00       		.byte	0
 2197 0016 0B       		.uleb128 0xb
 2198 0017 0B       		.uleb128 0xb
 2199 0018 3E       		.uleb128 0x3e
 2200 0019 0B       		.uleb128 0xb
 2201 001a 03       		.uleb128 0x3
 2202 001b 08       		.uleb128 0x8
 2203 001c 00       		.byte	0
 2204 001d 00       		.byte	0
 2205 001e 03       		.uleb128 0x3
 2206 001f 16       		.uleb128 0x16
 2207 0020 00       		.byte	0
 2208 0021 03       		.uleb128 0x3
 2209 0022 0E       		.uleb128 0xe
 2210 0023 3A       		.uleb128 0x3a
 2211 0024 0B       		.uleb128 0xb
 2212 0025 3B       		.uleb128 0x3b
 2213 0026 0B       		.uleb128 0xb
 2214 0027 39       		.uleb128 0x39
 2215 0028 0B       		.uleb128 0xb
 2216 0029 49       		.uleb128 0x49
 2217 002a 13       		.uleb128 0x13
 2218 002b 00       		.byte	0
 2219 002c 00       		.byte	0
 2220 002d 04       		.uleb128 0x4
 2221 002e 24       		.uleb128 0x24
 2222 002f 00       		.byte	0
 2223 0030 0B       		.uleb128 0xb
ARM GAS  /var/folders/l5/0x54b2c10074c8bt31ycjvl80000gp/T//ccQeNjrv.s 			page 40


 2224 0031 0B       		.uleb128 0xb
 2225 0032 3E       		.uleb128 0x3e
 2226 0033 0B       		.uleb128 0xb
 2227 0034 03       		.uleb128 0x3
 2228 0035 0E       		.uleb128 0xe
 2229 0036 00       		.byte	0
 2230 0037 00       		.byte	0
 2231 0038 05       		.uleb128 0x5
 2232 0039 35       		.uleb128 0x35
 2233 003a 00       		.byte	0
 2234 003b 49       		.uleb128 0x49
 2235 003c 13       		.uleb128 0x13
 2236 003d 00       		.byte	0
 2237 003e 00       		.byte	0
 2238 003f 06       		.uleb128 0x6
 2239 0040 26       		.uleb128 0x26
 2240 0041 00       		.byte	0
 2241 0042 49       		.uleb128 0x49
 2242 0043 13       		.uleb128 0x13
 2243 0044 00       		.byte	0
 2244 0045 00       		.byte	0
 2245 0046 07       		.uleb128 0x7
 2246 0047 13       		.uleb128 0x13
 2247 0048 01       		.byte	0x1
 2248 0049 03       		.uleb128 0x3
 2249 004a 0E       		.uleb128 0xe
 2250 004b 0B       		.uleb128 0xb
 2251 004c 0B       		.uleb128 0xb
 2252 004d 3A       		.uleb128 0x3a
 2253 004e 0B       		.uleb128 0xb
 2254 004f 3B       		.uleb128 0x3b
 2255 0050 0B       		.uleb128 0xb
 2256 0051 39       		.uleb128 0x39
 2257 0052 0B       		.uleb128 0xb
 2258 0053 01       		.uleb128 0x1
 2259 0054 13       		.uleb128 0x13
 2260 0055 00       		.byte	0
 2261 0056 00       		.byte	0
 2262 0057 08       		.uleb128 0x8
 2263 0058 0D       		.uleb128 0xd
 2264 0059 00       		.byte	0
 2265 005a 03       		.uleb128 0x3
 2266 005b 0E       		.uleb128 0xe
 2267 005c 3A       		.uleb128 0x3a
 2268 005d 0B       		.uleb128 0xb
 2269 005e 3B       		.uleb128 0x3b
 2270 005f 0B       		.uleb128 0xb
 2271 0060 39       		.uleb128 0x39
 2272 0061 0B       		.uleb128 0xb
 2273 0062 49       		.uleb128 0x49
 2274 0063 13       		.uleb128 0x13
 2275 0064 38       		.uleb128 0x38
 2276 0065 0B       		.uleb128 0xb
 2277 0066 00       		.byte	0
 2278 0067 00       		.byte	0
 2279 0068 09       		.uleb128 0x9
 2280 0069 0D       		.uleb128 0xd
ARM GAS  /var/folders/l5/0x54b2c10074c8bt31ycjvl80000gp/T//ccQeNjrv.s 			page 41


 2281 006a 00       		.byte	0
 2282 006b 03       		.uleb128 0x3
 2283 006c 08       		.uleb128 0x8
 2284 006d 3A       		.uleb128 0x3a
 2285 006e 0B       		.uleb128 0xb
 2286 006f 3B       		.uleb128 0x3b
 2287 0070 0B       		.uleb128 0xb
 2288 0071 39       		.uleb128 0x39
 2289 0072 0B       		.uleb128 0xb
 2290 0073 49       		.uleb128 0x49
 2291 0074 13       		.uleb128 0x13
 2292 0075 38       		.uleb128 0x38
 2293 0076 0B       		.uleb128 0xb
 2294 0077 00       		.byte	0
 2295 0078 00       		.byte	0
 2296 0079 0A       		.uleb128 0xa
 2297 007a 13       		.uleb128 0x13
 2298 007b 01       		.byte	0x1
 2299 007c 0B       		.uleb128 0xb
 2300 007d 0B       		.uleb128 0xb
 2301 007e 3A       		.uleb128 0x3a
 2302 007f 0B       		.uleb128 0xb
 2303 0080 3B       		.uleb128 0x3b
 2304 0081 0B       		.uleb128 0xb
 2305 0082 39       		.uleb128 0x39
 2306 0083 0B       		.uleb128 0xb
 2307 0084 01       		.uleb128 0x1
 2308 0085 13       		.uleb128 0x13
 2309 0086 00       		.byte	0
 2310 0087 00       		.byte	0
 2311 0088 0B       		.uleb128 0xb
 2312 0089 0F       		.uleb128 0xf
 2313 008a 00       		.byte	0
 2314 008b 0B       		.uleb128 0xb
 2315 008c 0B       		.uleb128 0xb
 2316 008d 49       		.uleb128 0x49
 2317 008e 13       		.uleb128 0x13
 2318 008f 00       		.byte	0
 2319 0090 00       		.byte	0
 2320 0091 0C       		.uleb128 0xc
 2321 0092 0F       		.uleb128 0xf
 2322 0093 00       		.byte	0
 2323 0094 0B       		.uleb128 0xb
 2324 0095 0B       		.uleb128 0xb
 2325 0096 00       		.byte	0
 2326 0097 00       		.byte	0
 2327 0098 0D       		.uleb128 0xd
 2328 0099 15       		.uleb128 0x15
 2329 009a 01       		.byte	0x1
 2330 009b 27       		.uleb128 0x27
 2331 009c 19       		.uleb128 0x19
 2332 009d 01       		.uleb128 0x1
 2333 009e 13       		.uleb128 0x13
 2334 009f 00       		.byte	0
 2335 00a0 00       		.byte	0
 2336 00a1 0E       		.uleb128 0xe
 2337 00a2 05       		.uleb128 0x5
ARM GAS  /var/folders/l5/0x54b2c10074c8bt31ycjvl80000gp/T//ccQeNjrv.s 			page 42


 2338 00a3 00       		.byte	0
 2339 00a4 49       		.uleb128 0x49
 2340 00a5 13       		.uleb128 0x13
 2341 00a6 00       		.byte	0
 2342 00a7 00       		.byte	0
 2343 00a8 0F       		.uleb128 0xf
 2344 00a9 34       		.uleb128 0x34
 2345 00aa 00       		.byte	0
 2346 00ab 03       		.uleb128 0x3
 2347 00ac 0E       		.uleb128 0xe
 2348 00ad 3A       		.uleb128 0x3a
 2349 00ae 0B       		.uleb128 0xb
 2350 00af 3B       		.uleb128 0x3b
 2351 00b0 0B       		.uleb128 0xb
 2352 00b1 39       		.uleb128 0x39
 2353 00b2 0B       		.uleb128 0xb
 2354 00b3 49       		.uleb128 0x49
 2355 00b4 13       		.uleb128 0x13
 2356 00b5 3F       		.uleb128 0x3f
 2357 00b6 19       		.uleb128 0x19
 2358 00b7 3C       		.uleb128 0x3c
 2359 00b8 19       		.uleb128 0x19
 2360 00b9 00       		.byte	0
 2361 00ba 00       		.byte	0
 2362 00bb 10       		.uleb128 0x10
 2363 00bc 17       		.uleb128 0x17
 2364 00bd 01       		.byte	0x1
 2365 00be 0B       		.uleb128 0xb
 2366 00bf 0B       		.uleb128 0xb
 2367 00c0 3A       		.uleb128 0x3a
 2368 00c1 0B       		.uleb128 0xb
 2369 00c2 3B       		.uleb128 0x3b
 2370 00c3 0B       		.uleb128 0xb
 2371 00c4 39       		.uleb128 0x39
 2372 00c5 0B       		.uleb128 0xb
 2373 00c6 01       		.uleb128 0x1
 2374 00c7 13       		.uleb128 0x13
 2375 00c8 00       		.byte	0
 2376 00c9 00       		.byte	0
 2377 00ca 11       		.uleb128 0x11
 2378 00cb 0D       		.uleb128 0xd
 2379 00cc 00       		.byte	0
 2380 00cd 03       		.uleb128 0x3
 2381 00ce 0E       		.uleb128 0xe
 2382 00cf 3A       		.uleb128 0x3a
 2383 00d0 0B       		.uleb128 0xb
 2384 00d1 3B       		.uleb128 0x3b
 2385 00d2 0B       		.uleb128 0xb
 2386 00d3 39       		.uleb128 0x39
 2387 00d4 0B       		.uleb128 0xb
 2388 00d5 49       		.uleb128 0x49
 2389 00d6 13       		.uleb128 0x13
 2390 00d7 00       		.byte	0
 2391 00d8 00       		.byte	0
 2392 00d9 12       		.uleb128 0x12
 2393 00da 15       		.uleb128 0x15
 2394 00db 01       		.byte	0x1
ARM GAS  /var/folders/l5/0x54b2c10074c8bt31ycjvl80000gp/T//ccQeNjrv.s 			page 43


 2395 00dc 27       		.uleb128 0x27
 2396 00dd 19       		.uleb128 0x19
 2397 00de 49       		.uleb128 0x49
 2398 00df 13       		.uleb128 0x13
 2399 00e0 01       		.uleb128 0x1
 2400 00e1 13       		.uleb128 0x13
 2401 00e2 00       		.byte	0
 2402 00e3 00       		.byte	0
 2403 00e4 13       		.uleb128 0x13
 2404 00e5 01       		.uleb128 0x1
 2405 00e6 01       		.byte	0x1
 2406 00e7 49       		.uleb128 0x49
 2407 00e8 13       		.uleb128 0x13
 2408 00e9 01       		.uleb128 0x1
 2409 00ea 13       		.uleb128 0x13
 2410 00eb 00       		.byte	0
 2411 00ec 00       		.byte	0
 2412 00ed 14       		.uleb128 0x14
 2413 00ee 21       		.uleb128 0x21
 2414 00ef 00       		.byte	0
 2415 00f0 49       		.uleb128 0x49
 2416 00f1 13       		.uleb128 0x13
 2417 00f2 2F       		.uleb128 0x2f
 2418 00f3 0B       		.uleb128 0xb
 2419 00f4 00       		.byte	0
 2420 00f5 00       		.byte	0
 2421 00f6 15       		.uleb128 0x15
 2422 00f7 0D       		.uleb128 0xd
 2423 00f8 00       		.byte	0
 2424 00f9 03       		.uleb128 0x3
 2425 00fa 0E       		.uleb128 0xe
 2426 00fb 3A       		.uleb128 0x3a
 2427 00fc 0B       		.uleb128 0xb
 2428 00fd 3B       		.uleb128 0x3b
 2429 00fe 05       		.uleb128 0x5
 2430 00ff 39       		.uleb128 0x39
 2431 0100 0B       		.uleb128 0xb
 2432 0101 49       		.uleb128 0x49
 2433 0102 13       		.uleb128 0x13
 2434 0103 38       		.uleb128 0x38
 2435 0104 0B       		.uleb128 0xb
 2436 0105 00       		.byte	0
 2437 0106 00       		.byte	0
 2438 0107 16       		.uleb128 0x16
 2439 0108 16       		.uleb128 0x16
 2440 0109 00       		.byte	0
 2441 010a 03       		.uleb128 0x3
 2442 010b 0E       		.uleb128 0xe
 2443 010c 3A       		.uleb128 0x3a
 2444 010d 0B       		.uleb128 0xb
 2445 010e 3B       		.uleb128 0x3b
 2446 010f 05       		.uleb128 0x5
 2447 0110 39       		.uleb128 0x39
 2448 0111 0B       		.uleb128 0xb
 2449 0112 49       		.uleb128 0x49
 2450 0113 13       		.uleb128 0x13
 2451 0114 00       		.byte	0
ARM GAS  /var/folders/l5/0x54b2c10074c8bt31ycjvl80000gp/T//ccQeNjrv.s 			page 44


 2452 0115 00       		.byte	0
 2453 0116 17       		.uleb128 0x17
 2454 0117 13       		.uleb128 0x13
 2455 0118 00       		.byte	0
 2456 0119 0B       		.uleb128 0xb
 2457 011a 0B       		.uleb128 0xb
 2458 011b 3A       		.uleb128 0x3a
 2459 011c 0B       		.uleb128 0xb
 2460 011d 3B       		.uleb128 0x3b
 2461 011e 0B       		.uleb128 0xb
 2462 011f 39       		.uleb128 0x39
 2463 0120 0B       		.uleb128 0xb
 2464 0121 00       		.byte	0
 2465 0122 00       		.byte	0
 2466 0123 18       		.uleb128 0x18
 2467 0124 04       		.uleb128 0x4
 2468 0125 01       		.byte	0x1
 2469 0126 3E       		.uleb128 0x3e
 2470 0127 0B       		.uleb128 0xb
 2471 0128 0B       		.uleb128 0xb
 2472 0129 0B       		.uleb128 0xb
 2473 012a 49       		.uleb128 0x49
 2474 012b 13       		.uleb128 0x13
 2475 012c 3A       		.uleb128 0x3a
 2476 012d 0B       		.uleb128 0xb
 2477 012e 3B       		.uleb128 0x3b
 2478 012f 0B       		.uleb128 0xb
 2479 0130 39       		.uleb128 0x39
 2480 0131 0B       		.uleb128 0xb
 2481 0132 01       		.uleb128 0x1
 2482 0133 13       		.uleb128 0x13
 2483 0134 00       		.byte	0
 2484 0135 00       		.byte	0
 2485 0136 19       		.uleb128 0x19
 2486 0137 28       		.uleb128 0x28
 2487 0138 00       		.byte	0
 2488 0139 03       		.uleb128 0x3
 2489 013a 0E       		.uleb128 0xe
 2490 013b 1C       		.uleb128 0x1c
 2491 013c 0B       		.uleb128 0xb
 2492 013d 00       		.byte	0
 2493 013e 00       		.byte	0
 2494 013f 1A       		.uleb128 0x1a
 2495 0140 34       		.uleb128 0x34
 2496 0141 00       		.byte	0
 2497 0142 03       		.uleb128 0x3
 2498 0143 08       		.uleb128 0x8
 2499 0144 3A       		.uleb128 0x3a
 2500 0145 0B       		.uleb128 0xb
 2501 0146 3B       		.uleb128 0x3b
 2502 0147 0B       		.uleb128 0xb
 2503 0148 39       		.uleb128 0x39
 2504 0149 0B       		.uleb128 0xb
 2505 014a 49       		.uleb128 0x49
 2506 014b 13       		.uleb128 0x13
 2507 014c 3F       		.uleb128 0x3f
 2508 014d 19       		.uleb128 0x19
ARM GAS  /var/folders/l5/0x54b2c10074c8bt31ycjvl80000gp/T//ccQeNjrv.s 			page 45


 2509 014e 3C       		.uleb128 0x3c
 2510 014f 19       		.uleb128 0x19
 2511 0150 00       		.byte	0
 2512 0151 00       		.byte	0
 2513 0152 1B       		.uleb128 0x1b
 2514 0153 26       		.uleb128 0x26
 2515 0154 00       		.byte	0
 2516 0155 00       		.byte	0
 2517 0156 00       		.byte	0
 2518 0157 1C       		.uleb128 0x1c
 2519 0158 2E       		.uleb128 0x2e
 2520 0159 01       		.byte	0x1
 2521 015a 3F       		.uleb128 0x3f
 2522 015b 19       		.uleb128 0x19
 2523 015c 03       		.uleb128 0x3
 2524 015d 0E       		.uleb128 0xe
 2525 015e 3A       		.uleb128 0x3a
 2526 015f 0B       		.uleb128 0xb
 2527 0160 3B       		.uleb128 0x3b
 2528 0161 0B       		.uleb128 0xb
 2529 0162 39       		.uleb128 0x39
 2530 0163 0B       		.uleb128 0xb
 2531 0164 27       		.uleb128 0x27
 2532 0165 19       		.uleb128 0x19
 2533 0166 11       		.uleb128 0x11
 2534 0167 01       		.uleb128 0x1
 2535 0168 12       		.uleb128 0x12
 2536 0169 06       		.uleb128 0x6
 2537 016a 40       		.uleb128 0x40
 2538 016b 18       		.uleb128 0x18
 2539 016c 9742     		.uleb128 0x2117
 2540 016e 19       		.uleb128 0x19
 2541 016f 01       		.uleb128 0x1
 2542 0170 13       		.uleb128 0x13
 2543 0171 00       		.byte	0
 2544 0172 00       		.byte	0
 2545 0173 1D       		.uleb128 0x1d
 2546 0174 05       		.uleb128 0x5
 2547 0175 00       		.byte	0
 2548 0176 03       		.uleb128 0x3
 2549 0177 08       		.uleb128 0x8
 2550 0178 3A       		.uleb128 0x3a
 2551 0179 0B       		.uleb128 0xb
 2552 017a 3B       		.uleb128 0x3b
 2553 017b 0B       		.uleb128 0xb
 2554 017c 39       		.uleb128 0x39
 2555 017d 0B       		.uleb128 0xb
 2556 017e 49       		.uleb128 0x49
 2557 017f 13       		.uleb128 0x13
 2558 0180 02       		.uleb128 0x2
 2559 0181 17       		.uleb128 0x17
 2560 0182 B742     		.uleb128 0x2137
 2561 0184 17       		.uleb128 0x17
 2562 0185 00       		.byte	0
 2563 0186 00       		.byte	0
 2564 0187 1E       		.uleb128 0x1e
 2565 0188 05       		.uleb128 0x5
ARM GAS  /var/folders/l5/0x54b2c10074c8bt31ycjvl80000gp/T//ccQeNjrv.s 			page 46


 2566 0189 00       		.byte	0
 2567 018a 03       		.uleb128 0x3
 2568 018b 0E       		.uleb128 0xe
 2569 018c 3A       		.uleb128 0x3a
 2570 018d 0B       		.uleb128 0xb
 2571 018e 3B       		.uleb128 0x3b
 2572 018f 0B       		.uleb128 0xb
 2573 0190 39       		.uleb128 0x39
 2574 0191 0B       		.uleb128 0xb
 2575 0192 49       		.uleb128 0x49
 2576 0193 13       		.uleb128 0x13
 2577 0194 02       		.uleb128 0x2
 2578 0195 17       		.uleb128 0x17
 2579 0196 B742     		.uleb128 0x2137
 2580 0198 17       		.uleb128 0x17
 2581 0199 00       		.byte	0
 2582 019a 00       		.byte	0
 2583 019b 1F       		.uleb128 0x1f
 2584 019c 898201   		.uleb128 0x4109
 2585 019f 01       		.byte	0x1
 2586 01a0 11       		.uleb128 0x11
 2587 01a1 01       		.uleb128 0x1
 2588 01a2 9542     		.uleb128 0x2115
 2589 01a4 19       		.uleb128 0x19
 2590 01a5 31       		.uleb128 0x31
 2591 01a6 13       		.uleb128 0x13
 2592 01a7 00       		.byte	0
 2593 01a8 00       		.byte	0
 2594 01a9 20       		.uleb128 0x20
 2595 01aa 8A8201   		.uleb128 0x410a
 2596 01ad 00       		.byte	0
 2597 01ae 02       		.uleb128 0x2
 2598 01af 18       		.uleb128 0x18
 2599 01b0 9142     		.uleb128 0x2111
 2600 01b2 18       		.uleb128 0x18
 2601 01b3 00       		.byte	0
 2602 01b4 00       		.byte	0
 2603 01b5 21       		.uleb128 0x21
 2604 01b6 898201   		.uleb128 0x4109
 2605 01b9 00       		.byte	0
 2606 01ba 11       		.uleb128 0x11
 2607 01bb 01       		.uleb128 0x1
 2608 01bc 9542     		.uleb128 0x2115
 2609 01be 19       		.uleb128 0x19
 2610 01bf 31       		.uleb128 0x31
 2611 01c0 13       		.uleb128 0x13
 2612 01c1 00       		.byte	0
 2613 01c2 00       		.byte	0
 2614 01c3 22       		.uleb128 0x22
 2615 01c4 2E       		.uleb128 0x2e
 2616 01c5 01       		.byte	0x1
 2617 01c6 3F       		.uleb128 0x3f
 2618 01c7 19       		.uleb128 0x19
 2619 01c8 03       		.uleb128 0x3
 2620 01c9 0E       		.uleb128 0xe
 2621 01ca 3A       		.uleb128 0x3a
 2622 01cb 0B       		.uleb128 0xb
ARM GAS  /var/folders/l5/0x54b2c10074c8bt31ycjvl80000gp/T//ccQeNjrv.s 			page 47


 2623 01cc 3B       		.uleb128 0x3b
 2624 01cd 0B       		.uleb128 0xb
 2625 01ce 39       		.uleb128 0x39
 2626 01cf 0B       		.uleb128 0xb
 2627 01d0 27       		.uleb128 0x27
 2628 01d1 19       		.uleb128 0x19
 2629 01d2 49       		.uleb128 0x49
 2630 01d3 13       		.uleb128 0x13
 2631 01d4 11       		.uleb128 0x11
 2632 01d5 01       		.uleb128 0x1
 2633 01d6 12       		.uleb128 0x12
 2634 01d7 06       		.uleb128 0x6
 2635 01d8 40       		.uleb128 0x40
 2636 01d9 18       		.uleb128 0x18
 2637 01da 9742     		.uleb128 0x2117
 2638 01dc 19       		.uleb128 0x19
 2639 01dd 01       		.uleb128 0x1
 2640 01de 13       		.uleb128 0x13
 2641 01df 00       		.byte	0
 2642 01e0 00       		.byte	0
 2643 01e1 23       		.uleb128 0x23
 2644 01e2 2E       		.uleb128 0x2e
 2645 01e3 00       		.byte	0
 2646 01e4 3F       		.uleb128 0x3f
 2647 01e5 19       		.uleb128 0x19
 2648 01e6 3C       		.uleb128 0x3c
 2649 01e7 19       		.uleb128 0x19
 2650 01e8 6E       		.uleb128 0x6e
 2651 01e9 0E       		.uleb128 0xe
 2652 01ea 03       		.uleb128 0x3
 2653 01eb 0E       		.uleb128 0xe
 2654 01ec 3A       		.uleb128 0x3a
 2655 01ed 0B       		.uleb128 0xb
 2656 01ee 3B       		.uleb128 0x3b
 2657 01ef 0B       		.uleb128 0xb
 2658 01f0 39       		.uleb128 0x39
 2659 01f1 0B       		.uleb128 0xb
 2660 01f2 00       		.byte	0
 2661 01f3 00       		.byte	0
 2662 01f4 00       		.byte	0
 2663              		.section	.debug_loc,"",%progbits
 2664              	.Ldebug_loc0:
 2665              	.LVUS3:
 2666 0000 00       		.uleb128 0
 2667 0001 00       		.uleb128 .LVU19
 2668 0002 00       		.uleb128 .LVU19
 2669 0003 00       		.uleb128 0
 2670              	.LLST3:
 2671 0004 00000000 		.4byte	.LVL7
 2672 0008 10000000 		.4byte	.LVL8
 2673 000c 0100     		.2byte	0x1
 2674 000e 50       		.byte	0x50
 2675 000f 10000000 		.4byte	.LVL8
 2676 0013 18000000 		.4byte	.LFE9
 2677 0017 0400     		.2byte	0x4
 2678 0019 F3       		.byte	0xf3
 2679 001a 01       		.uleb128 0x1
ARM GAS  /var/folders/l5/0x54b2c10074c8bt31ycjvl80000gp/T//ccQeNjrv.s 			page 48


 2680 001b 50       		.byte	0x50
 2681 001c 9F       		.byte	0x9f
 2682 001d 00000000 		.4byte	0
 2683 0021 00000000 		.4byte	0
 2684              	.LVUS4:
 2685 0025 00       		.uleb128 0
 2686 0026 00       		.uleb128 .LVU20
 2687 0027 00       		.uleb128 .LVU20
 2688 0028 00       		.uleb128 .LVU21
 2689 0029 00       		.uleb128 .LVU21
 2690 002a 00       		.uleb128 0
 2691              	.LLST4:
 2692 002b 00000000 		.4byte	.LVL7
 2693 002f 14000000 		.4byte	.LVL9
 2694 0033 0100     		.2byte	0x1
 2695 0035 51       		.byte	0x51
 2696 0036 14000000 		.4byte	.LVL9
 2697 003a 17000000 		.4byte	.LVL10-1
 2698 003e 0100     		.2byte	0x1
 2699 0040 52       		.byte	0x52
 2700 0041 17000000 		.4byte	.LVL10-1
 2701 0045 18000000 		.4byte	.LFE9
 2702 0049 0400     		.2byte	0x4
 2703 004b F3       		.byte	0xf3
 2704 004c 01       		.uleb128 0x1
 2705 004d 51       		.byte	0x51
 2706 004e 9F       		.byte	0x9f
 2707 004f 00000000 		.4byte	0
 2708 0053 00000000 		.4byte	0
 2709              	.LVUS1:
 2710 0057 00       		.uleb128 0
 2711 0058 00       		.uleb128 .LVU12
 2712 0059 00       		.uleb128 .LVU12
 2713 005a 00       		.uleb128 .LVU13
 2714 005b 00       		.uleb128 .LVU13
 2715 005c 00       		.uleb128 0
 2716              	.LLST1:
 2717 005d 00000000 		.4byte	.LVL2
 2718 0061 08000000 		.4byte	.LVL3
 2719 0065 0100     		.2byte	0x1
 2720 0067 50       		.byte	0x50
 2721 0068 08000000 		.4byte	.LVL3
 2722 006c 0C000000 		.4byte	.LVL4
 2723 0070 0100     		.2byte	0x1
 2724 0072 52       		.byte	0x52
 2725 0073 0C000000 		.4byte	.LVL4
 2726 0077 20000000 		.4byte	.LFE8
 2727 007b 0400     		.2byte	0x4
 2728 007d F3       		.byte	0xf3
 2729 007e 01       		.uleb128 0x1
 2730 007f 50       		.byte	0x50
 2731 0080 9F       		.byte	0x9f
 2732 0081 00000000 		.4byte	0
 2733 0085 00000000 		.4byte	0
 2734              	.LVUS2:
 2735 0089 00       		.uleb128 0
 2736 008a 00       		.uleb128 .LVU14
ARM GAS  /var/folders/l5/0x54b2c10074c8bt31ycjvl80000gp/T//ccQeNjrv.s 			page 49


 2737 008b 00       		.uleb128 .LVU14
 2738 008c 00       		.uleb128 0
 2739              	.LLST2:
 2740 008d 00000000 		.4byte	.LVL2
 2741 0091 14000000 		.4byte	.LVL5
 2742 0095 0100     		.2byte	0x1
 2743 0097 51       		.byte	0x51
 2744 0098 14000000 		.4byte	.LVL5
 2745 009c 20000000 		.4byte	.LFE8
 2746 00a0 0400     		.2byte	0x4
 2747 00a2 F3       		.byte	0xf3
 2748 00a3 01       		.uleb128 0x1
 2749 00a4 51       		.byte	0x51
 2750 00a5 9F       		.byte	0x9f
 2751 00a6 00000000 		.4byte	0
 2752 00aa 00000000 		.4byte	0
 2753              	.LVUS0:
 2754 00ae 00       		.uleb128 0
 2755 00af 00       		.uleb128 .LVU5
 2756 00b0 00       		.uleb128 .LVU5
 2757 00b1 00       		.uleb128 0
 2758              	.LLST0:
 2759 00b2 00000000 		.4byte	.LVL0
 2760 00b6 14000000 		.4byte	.LVL1
 2761 00ba 0100     		.2byte	0x1
 2762 00bc 50       		.byte	0x50
 2763 00bd 14000000 		.4byte	.LVL1
 2764 00c1 1C000000 		.4byte	.LFE7
 2765 00c5 0400     		.2byte	0x4
 2766 00c7 F3       		.byte	0xf3
 2767 00c8 01       		.uleb128 0x1
 2768 00c9 50       		.byte	0x50
 2769 00ca 9F       		.byte	0x9f
 2770 00cb 00000000 		.4byte	0
 2771 00cf 00000000 		.4byte	0
 2772              		.section	.debug_aranges,"",%progbits
 2773 0000 2C000000 		.4byte	0x2c
 2774 0004 0200     		.2byte	0x2
 2775 0006 00000000 		.4byte	.Ldebug_info0
 2776 000a 04       		.byte	0x4
 2777 000b 00       		.byte	0
 2778 000c 0000     		.2byte	0
 2779 000e 0000     		.2byte	0
 2780 0010 00000000 		.4byte	.LFB7
 2781 0014 1C000000 		.4byte	.LFE7-.LFB7
 2782 0018 00000000 		.4byte	.LFB8
 2783 001c 20000000 		.4byte	.LFE8-.LFB8
 2784 0020 00000000 		.4byte	.LFB9
 2785 0024 18000000 		.4byte	.LFE9-.LFB9
 2786 0028 00000000 		.4byte	0
 2787 002c 00000000 		.4byte	0
 2788              		.section	.debug_ranges,"",%progbits
 2789              	.Ldebug_ranges0:
 2790 0000 00000000 		.4byte	.LFB7
 2791 0004 1C000000 		.4byte	.LFE7
 2792 0008 00000000 		.4byte	.LFB8
 2793 000c 20000000 		.4byte	.LFE8
ARM GAS  /var/folders/l5/0x54b2c10074c8bt31ycjvl80000gp/T//ccQeNjrv.s 			page 50


 2794 0010 00000000 		.4byte	.LFB9
 2795 0014 18000000 		.4byte	.LFE9
 2796 0018 00000000 		.4byte	0
 2797 001c 00000000 		.4byte	0
 2798              		.section	.debug_line,"",%progbits
 2799              	.Ldebug_line0:
 2800 0000 58030000 		.section	.debug_str,"MS",%progbits,1
 2800      0300EC02 
 2800      00000201 
 2800      FB0E0D00 
 2800      01010101 
 2801              	.LASF95:
 2802 0000 63665F6F 		.ascii	"cf_off_older\000"
 2802      66665F6F 
 2802      6C646572 
 2802      00
 2803              	.LASF41:
 2804 000d 705F6D73 		.ascii	"p_msg\000"
 2804      6700
 2805              	.LASF2:
 2806 0013 73697A65 		.ascii	"size_t\000"
 2806      5F7400
 2807              	.LASF80:
 2808 001a 7264796D 		.ascii	"rdymsg\000"
 2808      736700
 2809              	.LASF180:
 2810 0021 77726974 		.ascii	"write\000"
 2810      6500
 2811              	.LASF116:
 2812 0027 4F757470 		.ascii	"OutputQueue\000"
 2812      75745175 
 2812      65756500 
 2813              	.LASF3:
 2814 0033 5F5F7569 		.ascii	"__uint8_t\000"
 2814      6E74385F 
 2814      7400
 2815              	.LASF189:
 2816 003d 5350495F 		.ascii	"SPI_ACTIVE\000"
 2816      41435449 
 2816      564500
 2817              	.LASF67:
 2818 0048 76746C69 		.ascii	"vtlist\000"
 2818      737400
 2819              	.LASF118:
 2820 004f 62736364 		.ascii	"bscdevice_t\000"
 2820      65766963 
 2820      655F7400 
 2821              	.LASF135:
 2822 005b 696F706F 		.ascii	"ioportmask_t\000"
 2822      72746D61 
 2822      736B5F74 
 2822      00
 2823              	.LASF109:
 2824 0068 715F746F 		.ascii	"q_top\000"
 2824      7000
 2825              	.LASF13:
 2826 006e 6C6F6E67 		.ascii	"long long unsigned int\000"
ARM GAS  /var/folders/l5/0x54b2c10074c8bt31ycjvl80000gp/T//ccQeNjrv.s 			page 51


 2826      206C6F6E 
 2826      6720756E 
 2826      7369676E 
 2826      65642069 
 2827              	.LASF91:
 2828 0085 63685F74 		.ascii	"ch_threadsize\000"
 2828      68726561 
 2828      6473697A 
 2828      6500
 2829              	.LASF81:
 2830 0093 65786974 		.ascii	"exitcode\000"
 2830      636F6465 
 2830      00
 2831              	.LASF192:
 2832 009c 53504944 		.ascii	"SPIDriver\000"
 2832      72697665 
 2832      7200
 2833              	.LASF163:
 2834 00a6 72786275 		.ascii	"rxbuf\000"
 2834      6600
 2835              	.LASF123:
 2836 00ac 64617461 		.ascii	"dataFifo\000"
 2836      4669666F 
 2836      00
 2837              	.LASF139:
 2838 00b5 494F504F 		.ascii	"IOPORT1\000"
 2838      52543100 
 2839              	.LASF30:
 2840 00bd 705F7072 		.ascii	"p_prio\000"
 2840      696F00
 2841              	.LASF98:
 2842 00c4 63665F6F 		.ascii	"cf_off_state\000"
 2842      66665F73 
 2842      74617465 
 2842      00
 2843              	.LASF185:
 2844 00d1 72656164 		.ascii	"readt\000"
 2844      7400
 2845              	.LASF156:
 2846 00d7 64657669 		.ascii	"device\000"
 2846      636500
 2847              	.LASF106:
 2848 00de 715F7761 		.ascii	"q_waiting\000"
 2848      6974696E 
 2848      6700
 2849              	.LASF12:
 2850 00e8 6C6F6E67 		.ascii	"long long int\000"
 2850      206C6F6E 
 2850      6720696E 
 2850      7400
 2851              	.LASF1:
 2852 00f6 7369676E 		.ascii	"signed char\000"
 2852      65642063 
 2852      68617200 
 2853              	.LASF97:
 2854 0102 63665F6F 		.ascii	"cf_off_stklimit\000"
 2854      66665F73 
ARM GAS  /var/folders/l5/0x54b2c10074c8bt31ycjvl80000gp/T//ccQeNjrv.s 			page 52


 2854      746B6C69 
 2854      6D697400 
 2855              	.LASF187:
 2856 0112 5350495F 		.ascii	"SPI_STOP\000"
 2856      53544F50 
 2856      00
 2857              	.LASF99:
 2858 011b 63665F6F 		.ascii	"cf_off_flags\000"
 2858      66665F66 
 2858      6C616773 
 2858      00
 2859              	.LASF172:
 2860 0128 53445F53 		.ascii	"SD_STOP\000"
 2860      544F5000 
 2861              	.LASF70:
 2862 0130 6D5F7175 		.ascii	"m_queue\000"
 2862      65756500 
 2863              	.LASF159:
 2864 0138 61646472 		.ascii	"addr\000"
 2864      00
 2865              	.LASF85:
 2866 013d 63685F69 		.ascii	"ch_identifier\000"
 2866      64656E74 
 2866      69666965 
 2866      7200
 2867              	.LASF145:
 2868 014b 4932435F 		.ascii	"I2C_UNINIT\000"
 2868      554E494E 
 2868      495400
 2869              	.LASF167:
 2870 0156 69326361 		.ascii	"i2caddr_t\000"
 2870      6464725F 
 2870      7400
 2871              	.LASF153:
 2872 0160 73746174 		.ascii	"state\000"
 2872      6500
 2873              	.LASF209:
 2874 0166 62697473 		.ascii	"bits\000"
 2874      00
 2875              	.LASF9:
 2876 016b 6C6F6E67 		.ascii	"long int\000"
 2876      20696E74 
 2876      00
 2877              	.LASF20:
 2878 0174 74737461 		.ascii	"tstate_t\000"
 2878      74655F74 
 2878      00
 2879              	.LASF158:
 2880 017d 74687265 		.ascii	"thread\000"
 2880      616400
 2881              	.LASF125:
 2882 0184 64617461 		.ascii	"dataDelay\000"
 2882      44656C61 
 2882      7900
 2883              	.LASF165:
 2884 018e 72786964 		.ascii	"rxidx\000"
 2884      7800
ARM GAS  /var/folders/l5/0x54b2c10074c8bt31ycjvl80000gp/T//ccQeNjrv.s 			page 53


 2885              	.LASF108:
 2886 0194 715F6275 		.ascii	"q_buffer\000"
 2886      66666572 
 2886      00
 2887              	.LASF15:
 2888 019d 75696E74 		.ascii	"uint16_t\000"
 2888      31365F74 
 2888      00
 2889              	.LASF205:
 2890 01a6 53504930 		.ascii	"SPI0\000"
 2890      00
 2891              	.LASF103:
 2892 01ab 63686465 		.ascii	"chdebug_t\000"
 2892      6275675F 
 2892      7400
 2893              	.LASF148:
 2894 01b5 4932435F 		.ascii	"I2C_ACTIVE_TX\000"
 2894      41435449 
 2894      56455F54 
 2894      5800
 2895              	.LASF202:
 2896 01c3 636C6F63 		.ascii	"clock_phase\000"
 2896      6B5F7068 
 2896      61736500 
 2897              	.LASF32:
 2898 01cf 705F6E65 		.ascii	"p_newer\000"
 2898      77657200 
 2899              	.LASF117:
 2900 01d7 5F69646C 		.ascii	"_idle_thread_wa\000"
 2900      655F7468 
 2900      72656164 
 2900      5F776100 
 2901              	.LASF195:
 2902 01e7 656E645F 		.ascii	"end_cb\000"
 2902      636200
 2903              	.LASF193:
 2904 01ee 7478636E 		.ascii	"txcnt\000"
 2904      7400
 2905              	.LASF199:
 2906 01f4 63686970 		.ascii	"chip_select_polarity0\000"
 2906      5F73656C 
 2906      6563745F 
 2906      706F6C61 
 2906      72697479 
 2907              	.LASF200:
 2908 020a 63686970 		.ascii	"chip_select_polarity1\000"
 2908      5F73656C 
 2908      6563745F 
 2908      706F6C61 
 2908      72697479 
 2909              	.LASF119:
 2910 0220 636F6E74 		.ascii	"control\000"
 2910      726F6C00 
 2911              	.LASF10:
 2912 0228 5F5F7569 		.ascii	"__uint32_t\000"
 2912      6E743332 
 2912      5F7400
ARM GAS  /var/folders/l5/0x54b2c10074c8bt31ycjvl80000gp/T//ccQeNjrv.s 			page 54


 2913              	.LASF142:
 2914 0233 6D61736B 		.ascii	"mask\000"
 2914      00
 2915              	.LASF48:
 2916 0238 72656761 		.ascii	"regarm_t\000"
 2916      726D5F74 
 2916      00
 2917              	.LASF54:
 2918 0241 76745F70 		.ascii	"vt_prev\000"
 2918      72657600 
 2919              	.LASF122:
 2920 0249 736C6176 		.ascii	"slaveAddress\000"
 2920      65416464 
 2920      72657373 
 2920      00
 2921              	.LASF194:
 2922 0256 73706963 		.ascii	"spicallback_t\000"
 2922      616C6C62 
 2922      61636B5F 
 2922      7400
 2923              	.LASF170:
 2924 0264 49324330 		.ascii	"I2C0\000"
 2924      00
 2925              	.LASF78:
 2926 0269 4576656E 		.ascii	"EventSource\000"
 2926      74536F75 
 2926      72636500 
 2927              	.LASF144:
 2928 0275 494F4275 		.ascii	"IOBus\000"
 2928      7300
 2929              	.LASF206:
 2930 027b 6D6F6465 		.ascii	"mode\000"
 2930      00
 2931              	.LASF0:
 2932 0280 756E7369 		.ascii	"unsigned int\000"
 2932      676E6564 
 2932      20696E74 
 2932      00
 2933              	.LASF53:
 2934 028d 76745F6E 		.ascii	"vt_next\000"
 2934      65787400 
 2935              	.LASF160:
 2936 0295 74786275 		.ascii	"txbuf\000"
 2936      6600
 2937              	.LASF179:
 2938 029b 53657269 		.ascii	"SerialDriverVMT\000"
 2938      616C4472 
 2938      69766572 
 2938      564D5400 
 2939              	.LASF155:
 2940 02ab 6572726F 		.ascii	"errors\000"
 2940      727300
 2941              	.LASF177:
 2942 02b2 69717565 		.ascii	"iqueue\000"
 2942      756500
 2943              	.LASF11:
 2944 02b9 6C6F6E67 		.ascii	"long unsigned int\000"
ARM GAS  /var/folders/l5/0x54b2c10074c8bt31ycjvl80000gp/T//ccQeNjrv.s 			page 55


 2944      20756E73 
 2944      69676E65 
 2944      6420696E 
 2944      7400
 2945              	.LASF104:
 2946 02cb 63685F64 		.ascii	"ch_debug\000"
 2946      65627567 
 2946      00
 2947              	.LASF183:
 2948 02d4 67657474 		.ascii	"gett\000"
 2948      00
 2949              	.LASF51:
 2950 02d9 76746675 		.ascii	"vtfunc_t\000"
 2950      6E635F74 
 2950      00
 2951              	.LASF198:
 2952 02e2 63686970 		.ascii	"chip_select_polarity\000"
 2952      5F73656C 
 2952      6563745F 
 2952      706F6C61 
 2952      72697479 
 2953              	.LASF176:
 2954 02f7 6576656E 		.ascii	"event\000"
 2954      7400
 2955              	.LASF50:
 2956 02fd 636F6E74 		.ascii	"context\000"
 2956      65787400 
 2957              	.LASF7:
 2958 0305 73686F72 		.ascii	"short unsigned int\000"
 2958      7420756E 
 2958      7369676E 
 2958      65642069 
 2958      6E7400
 2959              	.LASF133:
 2960 0318 6770696F 		.ascii	"gpio_port_t\000"
 2960      5F706F72 
 2960      745F7400 
 2961              	.LASF129:
 2962 0324 6770636C 		.ascii	"gpclr\000"
 2962      7200
 2963              	.LASF23:
 2964 032a 6D73675F 		.ascii	"msg_t\000"
 2964      7400
 2965              	.LASF178:
 2966 0330 6F717565 		.ascii	"oqueue\000"
 2966      756500
 2967              	.LASF63:
 2968 0337 725F6E65 		.ascii	"r_newer\000"
 2968      77657200 
 2969              	.LASF74:
 2970 033f 656C5F6E 		.ascii	"el_next\000"
 2970      65787400 
 2971              	.LASF212:
 2972 0347 474E5520 		.ascii	"GNU C17 8.3.1 20190703 (release) [gcc-8-branch revi"
 2972      43313720 
 2972      382E332E 
 2972      31203230 
ARM GAS  /var/folders/l5/0x54b2c10074c8bt31ycjvl80000gp/T//ccQeNjrv.s 			page 56


 2972      31393037 
 2973 037a 73696F6E 		.ascii	"sion 273027] -mcpu=arm1176jz-s -mno-thumb-interwork"
 2973      20323733 
 2973      3032375D 
 2973      202D6D63 
 2973      70753D61 
 2974 03ad 202D6D66 		.ascii	" -mfloat-abi=soft -marm -march=armv6kz -ggdb -O2 -f"
 2974      6C6F6174 
 2974      2D616269 
 2974      3D736F66 
 2974      74202D6D 
 2975 03e0 6F6D6974 		.ascii	"omit-frame-pointer -ffunction-sections -fdata-secti"
 2975      2D667261 
 2975      6D652D70 
 2975      6F696E74 
 2975      6572202D 
 2976 0413 6F6E7300 		.ascii	"ons\000"
 2977              	.LASF184:
 2978 0417 77726974 		.ascii	"writet\000"
 2978      657400
 2979              	.LASF19:
 2980 041e 746D6F64 		.ascii	"tmode_t\000"
 2980      655F7400 
 2981              	.LASF211:
 2982 0426 5F70616C 		.ascii	"_pal_lld_writeport\000"
 2982      5F6C6C64 
 2982      5F777269 
 2982      7465706F 
 2982      727400
 2983              	.LASF46:
 2984 0439 54687265 		.ascii	"ThreadsList\000"
 2984      6164734C 
 2984      69737400 
 2985              	.LASF24:
 2986 0445 6576656E 		.ascii	"eventmask_t\000"
 2986      746D6173 
 2986      6B5F7400 
 2987              	.LASF115:
 2988 0451 496E7075 		.ascii	"InputQueue\000"
 2988      74517565 
 2988      756500
 2989              	.LASF69:
 2990 045c 4D757465 		.ascii	"Mutex\000"
 2990      7800
 2991              	.LASF105:
 2992 0462 47656E65 		.ascii	"GenericQueue\000"
 2992      72696351 
 2992      75657565 
 2992      00
 2993              	.LASF47:
 2994 046f 73746B61 		.ascii	"stkalign_t\000"
 2994      6C69676E 
 2994      5F7400
 2995              	.LASF86:
 2996 047a 63685F7A 		.ascii	"ch_zero\000"
 2996      65726F00 
 2997              	.LASF100:
ARM GAS  /var/folders/l5/0x54b2c10074c8bt31ycjvl80000gp/T//ccQeNjrv.s 			page 57


 2998 0482 63665F6F 		.ascii	"cf_off_refs\000"
 2998      66665F72 
 2998      65667300 
 2999              	.LASF130:
 3000 048e 67706C65 		.ascii	"gplev\000"
 3000      7600
 3001              	.LASF182:
 3002 0494 70757474 		.ascii	"putt\000"
 3002      00
 3003              	.LASF55:
 3004 0499 76745F74 		.ascii	"vt_time\000"
 3004      696D6500 
 3005              	.LASF146:
 3006 04a1 4932435F 		.ascii	"I2C_STOP\000"
 3006      53544F50 
 3006      00
 3007              	.LASF124:
 3008 04aa 636C6F63 		.ascii	"clockDivider\000"
 3008      6B446976 
 3008      69646572 
 3008      00
 3009              	.LASF107:
 3010 04b7 715F636F 		.ascii	"q_counter\000"
 3010      756E7465 
 3010      7200
 3011              	.LASF56:
 3012 04c1 76745F66 		.ascii	"vt_func\000"
 3012      756E6300 
 3013              	.LASF90:
 3014 04c9 63685F74 		.ascii	"ch_timesize\000"
 3014      696D6573 
 3014      697A6500 
 3015              	.LASF168:
 3016 04d5 69635F73 		.ascii	"ic_speed\000"
 3016      70656564 
 3016      00
 3017              	.LASF96:
 3018 04de 63665F6F 		.ascii	"cf_off_name\000"
 3018      66665F6E 
 3018      616D6500 
 3019              	.LASF33:
 3020 04ea 705F6F6C 		.ascii	"p_older\000"
 3020      64657200 
 3021              	.LASF164:
 3022 04f2 72786279 		.ascii	"rxbytes\000"
 3022      74657300 
 3023              	.LASF110:
 3024 04fa 715F7772 		.ascii	"q_wrptr\000"
 3024      70747200 
 3025              	.LASF62:
 3026 0502 725F6374 		.ascii	"r_ctx\000"
 3026      7800
 3027              	.LASF45:
 3028 0508 54687265 		.ascii	"ThreadsQueue\000"
 3028      61647351 
 3028      75657565 
 3028      00
ARM GAS  /var/folders/l5/0x54b2c10074c8bt31ycjvl80000gp/T//ccQeNjrv.s 			page 58


 3029              	.LASF87:
 3030 0515 63685F73 		.ascii	"ch_size\000"
 3030      697A6500 
 3031              	.LASF138:
 3032 051d 494F504F 		.ascii	"IOPORT0\000"
 3032      52543000 
 3033              	.LASF65:
 3034 0525 725F6375 		.ascii	"r_current\000"
 3034      7272656E 
 3034      7400
 3035              	.LASF64:
 3036 052f 725F6F6C 		.ascii	"r_older\000"
 3036      64657200 
 3037              	.LASF76:
 3038 0537 656C5F6D 		.ascii	"el_mask\000"
 3038      61736B00 
 3039              	.LASF128:
 3040 053f 67707365 		.ascii	"gpset\000"
 3040      7400
 3041              	.LASF141:
 3042 0545 706F7274 		.ascii	"portid\000"
 3042      696400
 3043              	.LASF131:
 3044 054c 67707075 		.ascii	"gppudclk\000"
 3044      64636C6B 
 3044      00
 3045              	.LASF196:
 3046 0555 6C6F7373 		.ascii	"lossiEnabled\000"
 3046      69456E61 
 3046      626C6564 
 3046      00
 3047              	.LASF207:
 3048 0562 70616C53 		.ascii	"palSetBusMode\000"
 3048      65744275 
 3048      734D6F64 
 3048      6500
 3049              	.LASF197:
 3050 0570 63686970 		.ascii	"chip_select\000"
 3050      5F73656C 
 3050      65637400 
 3051              	.LASF21:
 3052 057c 74726566 		.ascii	"trefs_t\000"
 3052      735F7400 
 3053              	.LASF151:
 3054 0584 69326373 		.ascii	"i2cstate_t\000"
 3054      74617465 
 3054      5F7400
 3055              	.LASF89:
 3056 058f 63685F70 		.ascii	"ch_ptrsize\000"
 3056      74727369 
 3056      7A6500
 3057              	.LASF114:
 3058 059a 716E6F74 		.ascii	"qnotify_t\000"
 3058      6966795F 
 3058      7400
 3059              	.LASF29:
 3060 05a4 705F7072 		.ascii	"p_prev\000"
ARM GAS  /var/folders/l5/0x54b2c10074c8bt31ycjvl80000gp/T//ccQeNjrv.s 			page 59


 3060      657600
 3061              	.LASF22:
 3062 05ab 74707269 		.ascii	"tprio_t\000"
 3062      6F5F7400 
 3063              	.LASF111:
 3064 05b3 715F7264 		.ascii	"q_rdptr\000"
 3064      70747200 
 3065              	.LASF166:
 3066 05bb 69326366 		.ascii	"i2cflags_t\000"
 3066      6C616773 
 3066      5F7400
 3067              	.LASF157:
 3068 05c6 6D757465 		.ascii	"mutex\000"
 3068      7800
 3069              	.LASF16:
 3070 05cc 696E7433 		.ascii	"int32_t\000"
 3070      325F7400 
 3071              	.LASF4:
 3072 05d4 756E7369 		.ascii	"unsigned char\000"
 3072      676E6564 
 3072      20636861 
 3072      7200
 3073              	.LASF75:
 3074 05e2 656C5F6C 		.ascii	"el_listener\000"
 3074      69737465 
 3074      6E657200 
 3075              	.LASF77:
 3076 05ee 656C5F66 		.ascii	"el_flags\000"
 3076      6C616773 
 3076      00
 3077              	.LASF43:
 3078 05f7 705F6D74 		.ascii	"p_mtxlist\000"
 3078      786C6973 
 3078      7400
 3079              	.LASF5:
 3080 0601 73686F72 		.ascii	"short int\000"
 3080      7420696E 
 3080      7400
 3081              	.LASF35:
 3082 060b 705F7374 		.ascii	"p_state\000"
 3082      61746500 
 3083              	.LASF102:
 3084 0613 63665F6F 		.ascii	"cf_off_time\000"
 3084      66665F74 
 3084      696D6500 
 3085              	.LASF61:
 3086 061f 725F7072 		.ascii	"r_prio\000"
 3086      696F00
 3087              	.LASF132:
 3088 0626 70696E5F 		.ascii	"pin_base\000"
 3088      62617365 
 3088      00
 3089              	.LASF83:
 3090 062f 65776D61 		.ascii	"ewmask\000"
 3090      736B00
 3091              	.LASF28:
 3092 0636 705F6E65 		.ascii	"p_next\000"
ARM GAS  /var/folders/l5/0x54b2c10074c8bt31ycjvl80000gp/T//ccQeNjrv.s 			page 60


 3092      787400
 3093              	.LASF18:
 3094 063d 75696E74 		.ascii	"uint_fast8_t\000"
 3094      5F666173 
 3094      74385F74 
 3094      00
 3095              	.LASF101:
 3096 064a 63665F6F 		.ascii	"cf_off_preempt\000"
 3096      66665F70 
 3096      7265656D 
 3096      707400
 3097              	.LASF36:
 3098 0659 705F666C 		.ascii	"p_flags\000"
 3098      61677300 
 3099              	.LASF27:
 3100 0661 54687265 		.ascii	"Thread\000"
 3100      616400
 3101              	.LASF203:
 3102 0668 636C6F63 		.ascii	"clock_divider\000"
 3102      6B5F6469 
 3102      76696465 
 3102      7200
 3103              	.LASF94:
 3104 0676 63665F6F 		.ascii	"cf_off_newer\000"
 3104      66665F6E 
 3104      65776572 
 3104      00
 3105              	.LASF150:
 3106 0683 4932435F 		.ascii	"I2C_LOCKED\000"
 3106      4C4F434B 
 3106      454400
 3107              	.LASF42:
 3108 068e 705F6570 		.ascii	"p_epending\000"
 3108      656E6469 
 3108      6E6700
 3109              	.LASF171:
 3110 0699 53445F55 		.ascii	"SD_UNINIT\000"
 3110      4E494E49 
 3110      5400
 3111              	.LASF17:
 3112 06a3 75696E74 		.ascii	"uint32_t\000"
 3112      33325F74 
 3112      00
 3113              	.LASF92:
 3114 06ac 63665F6F 		.ascii	"cf_off_prio\000"
 3114      66665F70 
 3114      72696F00 
 3115              	.LASF60:
 3116 06b8 725F7175 		.ascii	"r_queue\000"
 3116      65756500 
 3117              	.LASF52:
 3118 06c0 56697274 		.ascii	"VirtualTimer\000"
 3118      75616C54 
 3118      696D6572 
 3118      00
 3119              	.LASF175:
 3120 06cd 53657269 		.ascii	"SerialDriver\000"
ARM GAS  /var/folders/l5/0x54b2c10074c8bt31ycjvl80000gp/T//ccQeNjrv.s 			page 61


 3120      616C4472 
 3120      69766572 
 3120      00
 3121              	.LASF149:
 3122 06da 4932435F 		.ascii	"I2C_ACTIVE_RX\000"
 3122      41435449 
 3122      56455F52 
 3122      5800
 3123              	.LASF181:
 3124 06e8 72656164 		.ascii	"read\000"
 3124      00
 3125              	.LASF84:
 3126 06ed 63686172 		.ascii	"char\000"
 3126      00
 3127              	.LASF213:
 3128 06f2 2E2E2F2E 		.ascii	"../../os/hal/src/pal.c\000"
 3128      2E2F6F73 
 3128      2F68616C 
 3128      2F737263 
 3128      2F70616C 
 3129              	.LASF190:
 3130 0709 5350495F 		.ascii	"SPI_COMPLETE\000"
 3130      434F4D50 
 3130      4C455445 
 3130      00
 3131              	.LASF215:
 3132 0716 70616C52 		.ascii	"palReadBus\000"
 3132      65616442 
 3132      757300
 3133              	.LASF154:
 3134 0721 636F6E66 		.ascii	"config\000"
 3134      696700
 3135              	.LASF6:
 3136 0728 5F5F7569 		.ascii	"__uint16_t\000"
 3136      6E743136 
 3136      5F7400
 3137              	.LASF191:
 3138 0733 73706973 		.ascii	"spistate_t\000"
 3138      74617465 
 3138      5F7400
 3139              	.LASF72:
 3140 073e 6D5F6E65 		.ascii	"m_next\000"
 3140      787400
 3141              	.LASF26:
 3142 0745 73797374 		.ascii	"systime_t\000"
 3142      696D655F 
 3142      7400
 3143              	.LASF44:
 3144 074f 705F7265 		.ascii	"p_realprio\000"
 3144      616C7072 
 3144      696F00
 3145              	.LASF8:
 3146 075a 5F5F696E 		.ascii	"__int32_t\000"
 3146      7433325F 
 3146      7400
 3147              	.LASF147:
 3148 0764 4932435F 		.ascii	"I2C_READY\000"
ARM GAS  /var/folders/l5/0x54b2c10074c8bt31ycjvl80000gp/T//ccQeNjrv.s 			page 62


 3148      52454144 
 3148      5900
 3149              	.LASF143:
 3150 076e 6F666673 		.ascii	"offset\000"
 3150      657400
 3151              	.LASF152:
 3152 0775 49324344 		.ascii	"I2CDriver\000"
 3152      72697665 
 3152      7200
 3153              	.LASF137:
 3154 077f 696F706F 		.ascii	"ioportid_t\000"
 3154      72746964 
 3154      5F7400
 3155              	.LASF38:
 3156 078a 705F7469 		.ascii	"p_time\000"
 3156      6D6500
 3157              	.LASF201:
 3158 0791 636C6F63 		.ascii	"clock_polarity\000"
 3158      6B5F706F 
 3158      6C617269 
 3158      747900
 3159              	.LASF210:
 3160 07a0 5F70616C 		.ascii	"_pal_lld_setgroupmode\000"
 3160      5F6C6C64 
 3160      5F736574 
 3160      67726F75 
 3160      706D6F64 
 3161              	.LASF49:
 3162 07b6 696E7463 		.ascii	"intctx\000"
 3162      747800
 3163              	.LASF40:
 3164 07bd 705F6D73 		.ascii	"p_msgqueue\000"
 3164      67717565 
 3164      756500
 3165              	.LASF173:
 3166 07c8 53445F52 		.ascii	"SD_READY\000"
 3166      45414459 
 3166      00
 3167              	.LASF188:
 3168 07d1 5350495F 		.ascii	"SPI_READY\000"
 3168      52454144 
 3168      5900
 3169              	.LASF186:
 3170 07db 5350495F 		.ascii	"SPI_UNINIT\000"
 3170      554E494E 
 3170      495400
 3171              	.LASF57:
 3172 07e6 76745F70 		.ascii	"vt_par\000"
 3172      617200
 3173              	.LASF25:
 3174 07ed 666C6167 		.ascii	"flagsmask_t\000"
 3174      736D6173 
 3174      6B5F7400 
 3175              	.LASF169:
 3176 07f9 49324343 		.ascii	"I2CConfig\000"
 3176      6F6E6669 
 3176      6700
ARM GAS  /var/folders/l5/0x54b2c10074c8bt31ycjvl80000gp/T//ccQeNjrv.s 			page 63


 3177              	.LASF174:
 3178 0803 73647374 		.ascii	"sdstate_t\000"
 3178      6174655F 
 3178      7400
 3179              	.LASF162:
 3180 080d 74786964 		.ascii	"txidx\000"
 3180      7800
 3181              	.LASF208:
 3182 0813 70616C57 		.ascii	"palWriteBus\000"
 3182      72697465 
 3182      42757300 
 3183              	.LASF93:
 3184 081f 63665F6F 		.ascii	"cf_off_ctx\000"
 3184      66665F63 
 3184      747800
 3185              	.LASF37:
 3186 082a 705F7265 		.ascii	"p_refs\000"
 3186      667300
 3187              	.LASF120:
 3188 0831 73746174 		.ascii	"status\000"
 3188      757300
 3189              	.LASF66:
 3190 0838 52656164 		.ascii	"ReadyList\000"
 3190      794C6973 
 3190      7400
 3191              	.LASF112:
 3192 0842 715F6E6F 		.ascii	"q_notify\000"
 3192      74696679 
 3192      00
 3193              	.LASF68:
 3194 084b 726C6973 		.ascii	"rlist\000"
 3194      7400
 3195              	.LASF14:
 3196 0851 75696E74 		.ascii	"uint8_t\000"
 3196      385F7400 
 3197              	.LASF127:
 3198 0859 6C617463 		.ascii	"latch\000"
 3198      6800
 3199              	.LASF73:
 3200 085f 4576656E 		.ascii	"EventListener\000"
 3200      744C6973 
 3200      74656E65 
 3200      7200
 3201              	.LASF82:
 3202 086d 77746F62 		.ascii	"wtobjp\000"
 3202      6A7000
 3203              	.LASF34:
 3204 0874 705F6E61 		.ascii	"p_name\000"
 3204      6D6500
 3205              	.LASF58:
 3206 087b 76745F73 		.ascii	"vt_systime\000"
 3206      79737469 
 3206      6D6500
 3207              	.LASF79:
 3208 0886 65735F6E 		.ascii	"es_next\000"
 3208      65787400 
 3209              	.LASF204:
ARM GAS  /var/folders/l5/0x54b2c10074c8bt31ycjvl80000gp/T//ccQeNjrv.s 			page 64


 3210 088e 53504943 		.ascii	"SPIConfig\000"
 3210      6F6E6669 
 3210      6700
 3211              	.LASF88:
 3212 0898 63685F76 		.ascii	"ch_version\000"
 3212      65727369 
 3212      6F6E00
 3213              	.LASF214:
 3214 08a3 2F557365 		.ascii	"/Users/fernandoguirado/eclipse-workspace/ChibiOS-RP"
 3214      72732F66 
 3214      65726E61 
 3214      6E646F67 
 3214      75697261 
 3215 08d6 692D636F 		.ascii	"i-copia/demos/timers\000"
 3215      7069612F 
 3215      64656D6F 
 3215      732F7469 
 3215      6D657273 
 3216              	.LASF121:
 3217 08eb 64617461 		.ascii	"dataLength\000"
 3217      4C656E67 
 3217      746800
 3218              	.LASF59:
 3219 08f6 56544C69 		.ascii	"VTList\000"
 3219      737400
 3220              	.LASF113:
 3221 08fd 715F6C69 		.ascii	"q_link\000"
 3221      6E6B00
 3222              	.LASF136:
 3223 0904 696F6D6F 		.ascii	"iomode_t\000"
 3223      64655F74 
 3223      00
 3224              	.LASF134:
 3225 090d 50414C43 		.ascii	"PALConfig\000"
 3225      6F6E6669 
 3225      6700
 3226              	.LASF71:
 3227 0917 6D5F6F77 		.ascii	"m_owner\000"
 3227      6E657200 
 3228              	.LASF140:
 3229 091f 70616C5F 		.ascii	"pal_default_config\000"
 3229      64656661 
 3229      756C745F 
 3229      636F6E66 
 3229      696700
 3230              	.LASF31:
 3231 0932 705F6374 		.ascii	"p_ctx\000"
 3231      7800
 3232              	.LASF39:
 3233 0938 705F7761 		.ascii	"p_waiting\000"
 3233      6974696E 
 3233      6700
 3234              	.LASF161:
 3235 0942 74786279 		.ascii	"txbytes\000"
 3235      74657300 
 3236              	.LASF126:
 3237 094a 636C6F63 		.ascii	"clockStretchTimeout\000"
ARM GAS  /var/folders/l5/0x54b2c10074c8bt31ycjvl80000gp/T//ccQeNjrv.s 			page 65


 3237      6B537472 
 3237      65746368 
 3237      54696D65 
 3237      6F757400 
 3238              		.ident	"GCC: (GNU Tools for Arm Embedded Processors 8-2019-q3-update) 8.3.1 20190703 (release) [gc
ARM GAS  /var/folders/l5/0x54b2c10074c8bt31ycjvl80000gp/T//ccQeNjrv.s 			page 66


DEFINED SYMBOLS
                            *ABS*:0000000000000000 pal.c
/var/folders/l5/0x54b2c10074c8bt31ycjvl80000gp/T//ccQeNjrv.s:16     .text.palReadBus:0000000000000000 $a
/var/folders/l5/0x54b2c10074c8bt31ycjvl80000gp/T//ccQeNjrv.s:23     .text.palReadBus:0000000000000000 palReadBus
/var/folders/l5/0x54b2c10074c8bt31ycjvl80000gp/T//ccQeNjrv.s:49     .text.palWriteBus:0000000000000000 $a
/var/folders/l5/0x54b2c10074c8bt31ycjvl80000gp/T//ccQeNjrv.s:55     .text.palWriteBus:0000000000000000 palWriteBus
/var/folders/l5/0x54b2c10074c8bt31ycjvl80000gp/T//ccQeNjrv.s:87     .text.palSetBusMode:0000000000000000 $a
/var/folders/l5/0x54b2c10074c8bt31ycjvl80000gp/T//ccQeNjrv.s:93     .text.palSetBusMode:0000000000000000 palSetBusMode

UNDEFINED SYMBOLS
_pal_lld_writeport
_pal_lld_setgroupmode
