ARM GAS  /var/folders/l5/0x54b2c10074c8bt31ycjvl80000gp/T//ccnmDlVy.s 			page 1


   1              		.cpu arm1176jz-s
   2              		.eabi_attribute 20, 1
   3              		.eabi_attribute 21, 1
   4              		.eabi_attribute 23, 3
   5              		.eabi_attribute 24, 1
   6              		.eabi_attribute 25, 1
   7              		.eabi_attribute 26, 1
   8              		.eabi_attribute 30, 2
   9              		.eabi_attribute 34, 1
  10              		.eabi_attribute 18, 4
  11              		.file	"serial.c"
  12              		.text
  13              	.Ltext0:
  14              		.cfi_sections	.debug_frame
  15              		.section	.text.readt,"ax",%progbits
  16              		.align	2
  17              		.arch armv6kz
  18              		.syntax unified
  19              		.arm
  20              		.fpu softvfp
  21              		.type	readt, %function
  22              	readt:
  23              	.LVL0:
  24              	.LFB14:
  25              		.file 1 "../../os/hal/src/serial.c"
  26              		.loc 1 92 70 view -0
  27              		.cfi_startproc
  28              		@ args = 0, pretend = 0, frame = 0
  29              		@ frame_needed = 0, uses_anonymous_args = 0
  30              		@ link register save eliminated.
  31              		.loc 1 94 3 view .LVU1
  32              		.loc 1 94 10 is_stmt 0 view .LVU2
  33 0000 0C0080E2 		add	r0, r0, #12
  34              	.LVL1:
  35              		.loc 1 94 10 view .LVU3
  36 0004 FEFFFFEA 		b	chIQReadTimeout
  37              	.LVL2:
  38              		.loc 1 94 10 view .LVU4
  39              		.cfi_endproc
  40              	.LFE14:
  41              		.size	readt, .-readt
  42              		.section	.text.read,"ax",%progbits
  43              		.align	2
  44              		.syntax unified
  45              		.arm
  46              		.fpu softvfp
  47              		.type	read, %function
  48              	read:
  49              	.LVL3:
  50              	.LFB8:
  51              		.loc 1 61 53 is_stmt 1 view -0
  52              		.cfi_startproc
  53              		@ args = 0, pretend = 0, frame = 0
  54              		@ frame_needed = 0, uses_anonymous_args = 0
  55              		@ link register save eliminated.
  56              		.loc 1 63 3 view .LVU6
  57              		.loc 1 63 10 is_stmt 0 view .LVU7
ARM GAS  /var/folders/l5/0x54b2c10074c8bt31ycjvl80000gp/T//ccnmDlVy.s 			page 2


  58 0000 0C0080E2 		add	r0, r0, #12
  59              	.LVL4:
  60              		.loc 1 63 10 view .LVU8
  61 0004 0030E0E3 		mvn	r3, #0
  62 0008 FEFFFFEA 		b	chIQReadTimeout
  63              	.LVL5:
  64              		.loc 1 63 10 view .LVU9
  65              		.cfi_endproc
  66              	.LFE8:
  67              		.size	read, .-read
  68              		.section	.text.writet,"ax",%progbits
  69              		.align	2
  70              		.syntax unified
  71              		.arm
  72              		.fpu softvfp
  73              		.type	writet, %function
  74              	writet:
  75              	.LVL6:
  76              	.LFB13:
  77              		.loc 1 87 77 is_stmt 1 view -0
  78              		.cfi_startproc
  79              		@ args = 0, pretend = 0, frame = 0
  80              		@ frame_needed = 0, uses_anonymous_args = 0
  81              		@ link register save eliminated.
  82              		.loc 1 89 3 view .LVU11
  83              		.loc 1 89 10 is_stmt 0 view .LVU12
  84 0000 300080E2 		add	r0, r0, #48
  85              	.LVL7:
  86              		.loc 1 89 10 view .LVU13
  87 0004 FEFFFFEA 		b	chOQWriteTimeout
  88              	.LVL8:
  89              		.loc 1 89 10 view .LVU14
  90              		.cfi_endproc
  91              	.LFE13:
  92              		.size	writet, .-writet
  93              		.section	.text.write,"ax",%progbits
  94              		.align	2
  95              		.syntax unified
  96              		.arm
  97              		.fpu softvfp
  98              		.type	write, %function
  99              	write:
 100              	.LVL9:
 101              	.LFB7:
 102              		.loc 1 55 60 is_stmt 1 view -0
 103              		.cfi_startproc
 104              		@ args = 0, pretend = 0, frame = 0
 105              		@ frame_needed = 0, uses_anonymous_args = 0
 106              		@ link register save eliminated.
 107              		.loc 1 57 3 view .LVU16
 108              		.loc 1 57 10 is_stmt 0 view .LVU17
 109 0000 300080E2 		add	r0, r0, #48
 110              	.LVL10:
 111              		.loc 1 57 10 view .LVU18
 112 0004 0030E0E3 		mvn	r3, #0
 113 0008 FEFFFFEA 		b	chOQWriteTimeout
 114              	.LVL11:
ARM GAS  /var/folders/l5/0x54b2c10074c8bt31ycjvl80000gp/T//ccnmDlVy.s 			page 3


 115              		.loc 1 57 10 view .LVU19
 116              		.cfi_endproc
 117              	.LFE7:
 118              		.size	write, .-write
 119              		.section	.text.gett,"ax",%progbits
 120              		.align	2
 121              		.syntax unified
 122              		.arm
 123              		.fpu softvfp
 124              		.type	gett, %function
 125              	gett:
 126              	.LVL12:
 127              	.LFB12:
 128              		.loc 1 82 48 is_stmt 1 view -0
 129              		.cfi_startproc
 130              		@ args = 0, pretend = 0, frame = 0
 131              		@ frame_needed = 0, uses_anonymous_args = 0
 132              		@ link register save eliminated.
 133              		.loc 1 84 3 view .LVU21
 134              		.loc 1 84 10 is_stmt 0 view .LVU22
 135 0000 0C0080E2 		add	r0, r0, #12
 136              	.LVL13:
 137              		.loc 1 84 10 view .LVU23
 138 0004 FEFFFFEA 		b	chIQGetTimeout
 139              	.LVL14:
 140              		.loc 1 84 10 view .LVU24
 141              		.cfi_endproc
 142              	.LFE12:
 143              		.size	gett, .-gett
 144              		.section	.text.get,"ax",%progbits
 145              		.align	2
 146              		.syntax unified
 147              		.arm
 148              		.fpu softvfp
 149              		.type	get, %function
 150              	get:
 151              	.LVL15:
 152              	.LFB10:
 153              		.loc 1 72 28 is_stmt 1 view -0
 154              		.cfi_startproc
 155              		@ args = 0, pretend = 0, frame = 0
 156              		@ frame_needed = 0, uses_anonymous_args = 0
 157              		@ link register save eliminated.
 158              		.loc 1 74 3 view .LVU26
 159              		.loc 1 74 10 is_stmt 0 view .LVU27
 160 0000 0C0080E2 		add	r0, r0, #12
 161              	.LVL16:
 162              		.loc 1 74 10 view .LVU28
 163 0004 0010E0E3 		mvn	r1, #0
 164 0008 FEFFFFEA 		b	chIQGetTimeout
 165              	.LVL17:
 166              		.loc 1 74 10 view .LVU29
 167              		.cfi_endproc
 168              	.LFE10:
 169              		.size	get, .-get
 170              		.section	.text.putt,"ax",%progbits
 171              		.align	2
ARM GAS  /var/folders/l5/0x54b2c10074c8bt31ycjvl80000gp/T//ccnmDlVy.s 			page 4


 172              		.syntax unified
 173              		.arm
 174              		.fpu softvfp
 175              		.type	putt, %function
 176              	putt:
 177              	.LVL18:
 178              	.LFB11:
 179              		.loc 1 77 59 is_stmt 1 view -0
 180              		.cfi_startproc
 181              		@ args = 0, pretend = 0, frame = 0
 182              		@ frame_needed = 0, uses_anonymous_args = 0
 183              		@ link register save eliminated.
 184              		.loc 1 79 3 view .LVU31
 185              		.loc 1 79 10 is_stmt 0 view .LVU32
 186 0000 300080E2 		add	r0, r0, #48
 187              	.LVL19:
 188              		.loc 1 79 10 view .LVU33
 189 0004 FEFFFFEA 		b	chOQPutTimeout
 190              	.LVL20:
 191              		.loc 1 79 10 view .LVU34
 192              		.cfi_endproc
 193              	.LFE11:
 194              		.size	putt, .-putt
 195              		.section	.text.put,"ax",%progbits
 196              		.align	2
 197              		.syntax unified
 198              		.arm
 199              		.fpu softvfp
 200              		.type	put, %function
 201              	put:
 202              	.LVL21:
 203              	.LFB9:
 204              		.loc 1 67 39 is_stmt 1 view -0
 205              		.cfi_startproc
 206              		@ args = 0, pretend = 0, frame = 0
 207              		@ frame_needed = 0, uses_anonymous_args = 0
 208              		@ link register save eliminated.
 209              		.loc 1 69 3 view .LVU36
 210              		.loc 1 69 10 is_stmt 0 view .LVU37
 211 0000 300080E2 		add	r0, r0, #48
 212              	.LVL22:
 213              		.loc 1 69 10 view .LVU38
 214 0004 0020E0E3 		mvn	r2, #0
 215 0008 FEFFFFEA 		b	chOQPutTimeout
 216              	.LVL23:
 217              		.loc 1 69 10 view .LVU39
 218              		.cfi_endproc
 219              	.LFE9:
 220              		.size	put, .-put
 221              		.section	.text.sdInit,"ax",%progbits
 222              		.align	2
 223              		.global	sdInit
 224              		.syntax unified
 225              		.arm
 226              		.fpu softvfp
 227              		.type	sdInit, %function
 228              	sdInit:
ARM GAS  /var/folders/l5/0x54b2c10074c8bt31ycjvl80000gp/T//ccnmDlVy.s 			page 5


 229              	.LFB15:
 230              		.loc 1 113 19 is_stmt 1 view -0
 231              		.cfi_startproc
 232              		@ args = 0, pretend = 0, frame = 0
 233              		@ frame_needed = 0, uses_anonymous_args = 0
 234              		@ link register save eliminated.
 235              		.loc 1 115 3 view .LVU41
 236 0000 FEFFFFEA 		b	sd_lld_init
 237              	.LVL24:
 238              		.cfi_endproc
 239              	.LFE15:
 240              		.size	sdInit, .-sdInit
 241              		.section	.text.sdObjectInit,"ax",%progbits
 242              		.align	2
 243              		.global	sdObjectInit
 244              		.syntax unified
 245              		.arm
 246              		.fpu softvfp
 247              		.type	sdObjectInit, %function
 248              	sdObjectInit:
 249              	.LVL25:
 250              	.LFB16:
 251              		.loc 1 133 76 view -0
 252              		.cfi_startproc
 253              		@ args = 0, pretend = 0, frame = 0
 254              		@ frame_needed = 0, uses_anonymous_args = 0
 255              		.loc 1 135 3 view .LVU43
 256              		.loc 1 133 76 is_stmt 0 view .LVU44
 257 0000 30402DE9 		push	{r4, r5, lr}
 258              		.cfi_def_cfa_offset 12
 259              		.cfi_offset 4, -12
 260              		.cfi_offset 5, -8
 261              		.cfi_offset 14, -4
 262              		.loc 1 137 14 view .LVU45
 263 0004 01C0A0E3 		mov	ip, #1
 264              		.loc 1 133 76 view .LVU46
 265 0008 0040A0E1 		mov	r4, r0
 266 000c 0250A0E1 		mov	r5, r2
 267              		.loc 1 135 12 view .LVU47
 268 0010 44309FE5 		ldr	r3, .L13
 269              		.loc 1 133 76 view .LVU48
 270 0014 0CD04DE2 		sub	sp, sp, #12
 271              		.cfi_def_cfa_offset 24
 272              		.loc 1 138 3 view .LVU49
 273 0018 00008DE5 		str	r0, [sp]
 274              		.loc 1 135 12 view .LVU50
 275 001c 043080E4 		str	r3, [r0], #4
 276              	.LVL26:
 277              		.loc 1 136 3 is_stmt 1 view .LVU51
 278 0020 040084E5 		str	r0, [r4, #4]
 279              		.loc 1 137 3 view .LVU52
 280              		.loc 1 138 3 is_stmt 0 view .LVU53
 281 0024 0130A0E1 		mov	r3, r1
 282              		.loc 1 137 14 view .LVU54
 283 0028 08C0C4E5 		strb	ip, [r4, #8]
 284              		.loc 1 138 3 is_stmt 1 view .LVU55
 285 002c 541084E2 		add	r1, r4, #84
ARM GAS  /var/folders/l5/0x54b2c10074c8bt31ycjvl80000gp/T//ccnmDlVy.s 			page 6


 286              	.LVL27:
 287              		.loc 1 138 3 is_stmt 0 view .LVU56
 288 0030 0C0084E2 		add	r0, r4, #12
 289 0034 1020A0E3 		mov	r2, #16
 290              	.LVL28:
 291              		.loc 1 138 3 view .LVU57
 292 0038 FEFFFFEB 		bl	chIQInit
 293              	.LVL29:
 294              		.loc 1 139 3 is_stmt 1 view .LVU58
 295 003c 00408DE5 		str	r4, [sp]
 296 0040 0530A0E1 		mov	r3, r5
 297 0044 641084E2 		add	r1, r4, #100
 298 0048 300084E2 		add	r0, r4, #48
 299 004c 1020A0E3 		mov	r2, #16
 300 0050 FEFFFFEB 		bl	chOQInit
 301              	.LVL30:
 302              		.loc 1 140 1 is_stmt 0 view .LVU59
 303 0054 0CD08DE2 		add	sp, sp, #12
 304              		.cfi_def_cfa_offset 12
 305              		@ sp needed
 306 0058 3080BDE8 		pop	{r4, r5, pc}
 307              	.LVL31:
 308              	.L14:
 309              		.loc 1 140 1 view .LVU60
 310              		.align	2
 311              	.L13:
 312 005c 00000000 		.word	.LANCHOR0
 313              		.cfi_endproc
 314              	.LFE16:
 315              		.size	sdObjectInit, .-sdObjectInit
 316              		.section	.text.sdStart,"ax",%progbits
 317              		.align	2
 318              		.global	sdStart
 319              		.syntax unified
 320              		.arm
 321              		.fpu softvfp
 322              		.type	sdStart, %function
 323              	sdStart:
 324              	.LVL32:
 325              	.LFB17:
 326              		.loc 1 152 61 is_stmt 1 view -0
 327              		.cfi_startproc
 328              		@ args = 0, pretend = 0, frame = 0
 329              		@ frame_needed = 0, uses_anonymous_args = 0
 330              		.loc 1 154 3 view .LVU62
 331              		.loc 1 154 37 view .LVU63
 332              		.loc 1 156 3 view .LVU64
 333              		.loc 1 152 61 is_stmt 0 view .LVU65
 334 0000 10402DE9 		push	{r4, lr}
 335              		.cfi_def_cfa_offset 8
 336              		.cfi_offset 4, -8
 337              		.cfi_offset 14, -4
 338              		.loc 1 152 61 view .LVU66
 339 0004 0040A0E1 		mov	r4, r0
 340              		.loc 1 156 3 view .LVU67
 341              		.syntax divided
 342              	@ 156 "../../os/hal/src/serial.c" 1
ARM GAS  /var/folders/l5/0x54b2c10074c8bt31ycjvl80000gp/T//ccnmDlVy.s 			page 7


 343 0008 9FF021E3 		msr     CPSR_c, #0x9F
 344              	@ 0 "" 2
 345              		.loc 1 156 3 is_stmt 1 view .LVU68
 346              		.loc 1 156 14 view .LVU69
 347              		.loc 1 157 3 view .LVU70
 348              		.loc 1 159 31 view .LVU71
 349              		.loc 1 160 3 view .LVU72
 350              		.arm
 351              		.syntax unified
 352 000c FEFFFFEB 		bl	sd_lld_start
 353              	.LVL33:
 354              		.loc 1 161 3 view .LVU73
 355              		.loc 1 161 14 is_stmt 0 view .LVU74
 356 0010 0230A0E3 		mov	r3, #2
 357 0014 0830C4E5 		strb	r3, [r4, #8]
 358              		.loc 1 162 3 is_stmt 1 view .LVU75
 359              		.loc 1 162 3 view .LVU76
 360              		.syntax divided
 361              	@ 162 "../../os/hal/src/serial.c" 1
 362 0018 1FF021E3 		msr     CPSR_c, #0x1F
 363              	@ 0 "" 2
 364              		.loc 1 162 16 view .LVU77
 365              		.loc 1 163 1 is_stmt 0 view .LVU78
 366              		.arm
 367              		.syntax unified
 368 001c 1080BDE8 		pop	{r4, pc}
 369              		.cfi_endproc
 370              	.LFE17:
 371              		.size	sdStart, .-sdStart
 372              		.section	.text.sdStop,"ax",%progbits
 373              		.align	2
 374              		.global	sdStop
 375              		.syntax unified
 376              		.arm
 377              		.fpu softvfp
 378              		.type	sdStop, %function
 379              	sdStop:
 380              	.LVL34:
 381              	.LFB18:
 382              		.loc 1 174 32 is_stmt 1 view -0
 383              		.cfi_startproc
 384              		@ args = 0, pretend = 0, frame = 0
 385              		@ frame_needed = 0, uses_anonymous_args = 0
 386              		.loc 1 176 3 view .LVU80
 387              		.loc 1 176 36 view .LVU81
 388              		.loc 1 178 3 view .LVU82
 389              		.loc 1 174 32 is_stmt 0 view .LVU83
 390 0000 10402DE9 		push	{r4, lr}
 391              		.cfi_def_cfa_offset 8
 392              		.cfi_offset 4, -8
 393              		.cfi_offset 14, -4
 394              		.loc 1 174 32 view .LVU84
 395 0004 0040A0E1 		mov	r4, r0
 396              		.loc 1 178 3 view .LVU85
 397              		.syntax divided
 398              	@ 178 "../../os/hal/src/serial.c" 1
 399 0008 9FF021E3 		msr     CPSR_c, #0x9F
ARM GAS  /var/folders/l5/0x54b2c10074c8bt31ycjvl80000gp/T//ccnmDlVy.s 			page 8


 400              	@ 0 "" 2
 401              		.loc 1 178 3 is_stmt 1 view .LVU86
 402              		.loc 1 178 14 view .LVU87
 403              		.loc 1 179 3 view .LVU88
 404              		.loc 1 181 31 view .LVU89
 405              		.loc 1 182 3 view .LVU90
 406              		.arm
 407              		.syntax unified
 408 000c FEFFFFEB 		bl	sd_lld_stop
 409              	.LVL35:
 410              		.loc 1 183 3 view .LVU91
 411              		.loc 1 183 14 is_stmt 0 view .LVU92
 412 0010 0130A0E3 		mov	r3, #1
 413              		.loc 1 184 3 view .LVU93
 414 0014 300084E2 		add	r0, r4, #48
 415              		.loc 1 183 14 view .LVU94
 416 0018 0830C4E5 		strb	r3, [r4, #8]
 417              		.loc 1 184 3 is_stmt 1 view .LVU95
 418 001c FEFFFFEB 		bl	chOQResetI
 419              	.LVL36:
 420              		.loc 1 185 3 view .LVU96
 421 0020 0C0084E2 		add	r0, r4, #12
 422 0024 FEFFFFEB 		bl	chIQResetI
 423              	.LVL37:
 424              		.loc 1 186 3 view .LVU97
 425 0028 FEFFFFEB 		bl	chSchRescheduleS
 426              	.LVL38:
 427              		.loc 1 187 3 view .LVU98
 428              		.loc 1 187 3 view .LVU99
 429              		.syntax divided
 430              	@ 187 "../../os/hal/src/serial.c" 1
 431 002c 1FF021E3 		msr     CPSR_c, #0x1F
 432              	@ 0 "" 2
 433              		.loc 1 187 16 view .LVU100
 434              		.loc 1 188 1 is_stmt 0 view .LVU101
 435              		.arm
 436              		.syntax unified
 437 0030 1080BDE8 		pop	{r4, pc}
 438              		.cfi_endproc
 439              	.LFE18:
 440              		.size	sdStop, .-sdStop
 441              		.section	.text.sdIncomingDataI,"ax",%progbits
 442              		.align	2
 443              		.global	sdIncomingDataI
 444              		.syntax unified
 445              		.arm
 446              		.fpu softvfp
 447              		.type	sdIncomingDataI, %function
 448              	sdIncomingDataI:
 449              	.LVL39:
 450              	.LFB19:
 451              		.loc 1 206 52 is_stmt 1 view -0
 452              		.cfi_startproc
 453              		@ args = 0, pretend = 0, frame = 0
 454              		@ frame_needed = 0, uses_anonymous_args = 0
 455              		.loc 1 208 3 view .LVU103
 456              		.loc 1 208 21 view .LVU104
ARM GAS  /var/folders/l5/0x54b2c10074c8bt31ycjvl80000gp/T//ccnmDlVy.s 			page 9


 457              		.loc 1 209 3 view .LVU105
 458              		.loc 1 209 45 view .LVU106
 459              		.loc 1 211 3 view .LVU107
 460              		.loc 1 211 6 is_stmt 0 view .LVU108
 461 0000 143090E5 		ldr	r3, [r0, #20]
 462              		.loc 1 206 52 view .LVU109
 463 0004 70402DE9 		push	{r4, r5, r6, lr}
 464              		.cfi_def_cfa_offset 16
 465              		.cfi_offset 4, -16
 466              		.cfi_offset 5, -12
 467              		.cfi_offset 6, -8
 468              		.cfi_offset 14, -4
 469              		.loc 1 211 6 view .LVU110
 470 0008 000053E3 		cmp	r3, #0
 471              		.loc 1 206 52 view .LVU111
 472 000c 0040A0E1 		mov	r4, r0
 473 0010 0150A0E1 		mov	r5, r1
 474              		.loc 1 211 6 view .LVU112
 475 0014 0800000A 		beq	.L23
 476              	.LVL40:
 477              	.L20:
 478              		.loc 1 212 43 is_stmt 1 discriminator 1 view .LVU113
 479              		.loc 1 213 3 discriminator 1 view .LVU114
 480              		.loc 1 213 7 is_stmt 0 discriminator 1 view .LVU115
 481 0018 0510A0E1 		mov	r1, r5
 482 001c 0C0084E2 		add	r0, r4, #12
 483 0020 FEFFFFEB 		bl	chIQPutI
 484              	.LVL41:
 485              		.loc 1 213 6 discriminator 1 view .LVU116
 486 0024 000050E3 		cmp	r0, #0
 487 0028 7080BDA8 		popge	{r4, r5, r6, pc}
 488              		.loc 1 214 5 is_stmt 1 view .LVU117
 489 002c 040084E2 		add	r0, r4, #4
 490 0030 8010A0E3 		mov	r1, #128
 491              		.loc 1 215 1 is_stmt 0 view .LVU118
 492 0034 7040BDE8 		pop	{r4, r5, r6, lr}
 493              		.cfi_remember_state
 494              		.cfi_restore 14
 495              		.cfi_restore 6
 496              		.cfi_restore 5
 497              		.cfi_restore 4
 498              		.cfi_def_cfa_offset 0
 499              	.LVL42:
 500              		.loc 1 214 5 view .LVU119
 501 0038 FEFFFFEA 		b	chEvtBroadcastFlagsI
 502              	.LVL43:
 503              	.L23:
 504              		.cfi_restore_state
 505              		.loc 1 212 5 is_stmt 1 view .LVU120
 506 003c 0410A0E3 		mov	r1, #4
 507              	.LVL44:
 508              		.loc 1 212 5 is_stmt 0 view .LVU121
 509 0040 010080E0 		add	r0, r0, r1
 510              	.LVL45:
 511              		.loc 1 212 5 view .LVU122
 512 0044 FEFFFFEB 		bl	chEvtBroadcastFlagsI
 513              	.LVL46:
ARM GAS  /var/folders/l5/0x54b2c10074c8bt31ycjvl80000gp/T//ccnmDlVy.s 			page 10


 514 0048 F2FFFFEA 		b	.L20
 515              		.cfi_endproc
 516              	.LFE19:
 517              		.size	sdIncomingDataI, .-sdIncomingDataI
 518              		.section	.text.sdRequestDataI,"ax",%progbits
 519              		.align	2
 520              		.global	sdRequestDataI
 521              		.syntax unified
 522              		.arm
 523              		.fpu softvfp
 524              		.type	sdRequestDataI, %function
 525              	sdRequestDataI:
 526              	.LVL47:
 527              	.LFB20:
 528              		.loc 1 232 41 is_stmt 1 view -0
 529              		.cfi_startproc
 530              		@ args = 0, pretend = 0, frame = 0
 531              		@ frame_needed = 0, uses_anonymous_args = 0
 532              		.loc 1 233 3 view .LVU124
 533              		.loc 1 235 3 view .LVU125
 534              		.loc 1 235 21 view .LVU126
 535              		.loc 1 236 3 view .LVU127
 536              		.loc 1 236 44 view .LVU128
 537              		.loc 1 238 3 view .LVU129
 538              		.loc 1 232 41 is_stmt 0 view .LVU130
 539 0000 70402DE9 		push	{r4, r5, r6, lr}
 540              		.cfi_def_cfa_offset 16
 541              		.cfi_offset 4, -16
 542              		.cfi_offset 5, -12
 543              		.cfi_offset 6, -8
 544              		.cfi_offset 14, -4
 545              		.loc 1 232 41 view .LVU131
 546 0004 0040A0E1 		mov	r4, r0
 547              		.loc 1 238 7 view .LVU132
 548 0008 300080E2 		add	r0, r0, #48
 549              	.LVL48:
 550              		.loc 1 238 7 view .LVU133
 551 000c FEFFFFEB 		bl	chOQGetI
 552              	.LVL49:
 553              		.loc 1 239 3 is_stmt 1 view .LVU134
 554              		.loc 1 239 6 is_stmt 0 view .LVU135
 555 0010 005050E2 		subs	r5, r0, #0
 556 0014 010000BA 		blt	.L27
 557              		.loc 1 242 1 view .LVU136
 558 0018 0500A0E1 		mov	r0, r5
 559              		.loc 1 242 1 view .LVU137
 560 001c 7080BDE8 		pop	{r4, r5, r6, pc}
 561              	.L27:
 562              		.loc 1 240 5 is_stmt 1 view .LVU138
 563 0020 040084E2 		add	r0, r4, #4
 564 0024 0810A0E3 		mov	r1, #8
 565 0028 FEFFFFEB 		bl	chEvtBroadcastFlagsI
 566              	.LVL50:
 567              		.loc 1 240 40 view .LVU139
 568              		.loc 1 241 3 view .LVU140
 569              		.loc 1 242 1 is_stmt 0 view .LVU141
 570 002c 0500A0E1 		mov	r0, r5
ARM GAS  /var/folders/l5/0x54b2c10074c8bt31ycjvl80000gp/T//ccnmDlVy.s 			page 11


 571 0030 7080BDE8 		pop	{r4, r5, r6, pc}
 572              		.cfi_endproc
 573              	.LFE20:
 574              		.size	sdRequestDataI, .-sdRequestDataI
 575              		.section	.rodata.vmt,"a"
 576              		.align	2
 577              		.set	.LANCHOR0,. + 0
 578              		.type	vmt, %object
 579              		.size	vmt, 32
 580              	vmt:
 581 0000 00000000 		.word	write
 582 0004 00000000 		.word	read
 583 0008 00000000 		.word	put
 584 000c 00000000 		.word	get
 585 0010 00000000 		.word	putt
 586 0014 00000000 		.word	gett
 587 0018 00000000 		.word	writet
 588 001c 00000000 		.word	readt
 589              		.text
 590              	.Letext0:
 591              		.file 2 "/usr/local/Cellar/arm-gcc-bin/8-2019-q3-update/lib/gcc/arm-none-eabi/8.3.1/include/stddef
 592              		.file 3 "/usr/local/Cellar/arm-gcc-bin/8-2019-q3-update/arm-none-eabi/include/machine/_default_typ
 593              		.file 4 "/usr/local/Cellar/arm-gcc-bin/8-2019-q3-update/arm-none-eabi/include/sys/_stdint.h"
 594              		.file 5 "../../os/ports/GCC/ARM/chtypes.h"
 595              		.file 6 "../../os/kernel/include/chlists.h"
 596              		.file 7 "../../os/kernel/include/chthreads.h"
 597              		.file 8 "../../os/ports/GCC/ARM/chcore.h"
 598              		.file 9 "../../os/kernel/include/chvt.h"
 599              		.file 10 "../../os/kernel/include/chschd.h"
 600              		.file 11 "../../os/kernel/include/chmtx.h"
 601              		.file 12 "../../os/kernel/include/chevents.h"
 602              		.file 13 "../../os/kernel/include/chregistry.h"
 603              		.file 14 "../../os/kernel/include/chqueues.h"
 604              		.file 15 "../../os/kernel/include/ch.h"
 605              		.file 16 "../../os/hal/platforms/BCM2835/bcm2835.h"
 606              		.file 17 "../../os/hal/platforms/BCM2835/pal_lld.h"
 607              		.file 18 "../../os/hal/include/i2c.h"
 608              		.file 19 "../../os/hal/platforms/BCM2835/i2c_lld.h"
 609              		.file 20 "../../os/hal/include/serial.h"
 610              		.file 21 "../../os/hal/platforms/BCM2835/serial_lld.h"
 611              		.file 22 "../../os/hal/include/spi.h"
 612              		.file 23 "../../os/hal/platforms/BCM2835/spi_lld.h"