ARM GAS  /var/folders/l5/0x54b2c10074c8bt31ycjvl80000gp/T//cckp9Qb0.s 			page 1


   1              		.cpu arm1176jz-s
   2              		.eabi_attribute 20, 1
   3              		.eabi_attribute 21, 1
   4              		.eabi_attribute 23, 3
   5              		.eabi_attribute 24, 1
   6              		.eabi_attribute 25, 1
   7              		.eabi_attribute 26, 1
   8              		.eabi_attribute 30, 2
   9              		.eabi_attribute 34, 1
  10              		.eabi_attribute 18, 4
  11              		.file	"shell.c"
  12              		.text
  13              	.Ltext0:
  14              		.cfi_sections	.debug_frame
  15              		.section	.text.cmd_systime,"ax",%progbits
  16              		.align	2
  17              		.arch armv6kz
  18              		.syntax unified
  19              		.arm
  20              		.fpu softvfp
  21              		.type	cmd_systime, %function
  22              	cmd_systime:
  23              	.LVL0:
  24              	.LFB11:
  25              		.file 1 "../../os/various/shell.c"
  26              		.loc 1 103 76 view -0
  27              		.cfi_startproc
  28              		@ args = 0, pretend = 0, frame = 0
  29              		@ frame_needed = 0, uses_anonymous_args = 0
  30              		@ link register save eliminated.
  31              		.loc 1 105 3 view .LVU1
  32              		.loc 1 106 3 view .LVU2
  33              		.loc 1 106 6 is_stmt 0 view .LVU3
  34 0000 000051E3 		cmp	r1, #0
  35 0004 030000CA 		bgt	.L4
  36              		.loc 1 110 3 is_stmt 1 view .LVU4
  37              		.loc 1 110 43 is_stmt 0 view .LVU5
  38 0008 14309FE5 		ldr	r3, .L5
  39              		.loc 1 110 3 view .LVU6
  40 000c 14109FE5 		ldr	r1, .L5+4
  41              	.LVL1:
  42              		.loc 1 110 43 view .LVU7
  43 0010 0C2093E5 		ldr	r2, [r3, #12]
  44              	.LVL2:
  45              		.loc 1 110 3 view .LVU8
  46 0014 FEFFFFEA 		b	chprintf
  47              	.LVL3:
  48              	.L4:
  49              	.LBB22:
  50              	.LBI22:
  51              		.loc 1 103 13 is_stmt 1 view .LVU9
  52              	.LBB23:
  53              		.loc 1 107 5 view .LVU10
  54              	.LBB24:
  55              	.LBI24:
  56              		.loc 1 58 13 view .LVU11
  57              	.LBB25:
ARM GAS  /var/folders/l5/0x54b2c10074c8bt31ycjvl80000gp/T//cckp9Qb0.s 			page 2


  58              		.loc 1 60 3 view .LVU12
  59 0018 0C209FE5 		ldr	r2, .L5+8
  60              	.LVL4:
  61              		.loc 1 60 3 is_stmt 0 view .LVU13
  62 001c 0C109FE5 		ldr	r1, .L5+12
  63              	.LVL5:
  64              		.loc 1 60 3 view .LVU14
  65 0020 FEFFFFEA 		b	chprintf
  66              	.LVL6:
  67              	.L6:
  68              		.loc 1 60 3 view .LVU15
  69              		.align	2
  70              	.L5:
  71 0024 00000000 		.word	vtlist
  72 0028 14000000 		.word	.LC2
  73 002c 00000000 		.word	.LC0
  74 0030 08000000 		.word	.LC1
  75              	.LBE25:
  76              	.LBE24:
  77              	.LBE23:
  78              	.LBE22:
  79              		.cfi_endproc
  80              	.LFE11:
  81              		.size	cmd_systime, .-cmd_systime
  82              		.section	.text.cmd_info,"ax",%progbits
  83              		.align	2
  84              		.syntax unified
  85              		.arm
  86              		.fpu softvfp
  87              		.type	cmd_info, %function
  88              	cmd_info:
  89              	.LVL7:
  90              	.LFB10:
  91              		.loc 1 71 73 is_stmt 1 view -0
  92              		.cfi_startproc
  93              		@ args = 0, pretend = 0, frame = 0
  94              		@ frame_needed = 0, uses_anonymous_args = 0
  95              		.loc 1 74 6 is_stmt 0 view .LVU17
  96 0000 000051E3 		cmp	r1, #0
  97              		.loc 1 73 3 is_stmt 1 view .LVU18
  98              		.loc 1 74 3 view .LVU19
  99              		.loc 1 74 6 is_stmt 0 view .LVU20
 100 0004 220000CA 		bgt	.L11
 101              		.loc 1 71 73 view .LVU21
 102 0008 10402DE9 		push	{r4, lr}
 103              		.cfi_def_cfa_offset 8
 104              		.cfi_offset 4, -8
 105              		.cfi_offset 14, -4
 106 000c 0040A0E1 		mov	r4, r0
 107              		.loc 1 79 3 is_stmt 1 view .LVU22
 108              		.loc 1 71 73 is_stmt 0 view .LVU23
 109 0010 08D04DE2 		sub	sp, sp, #8
 110              		.cfi_def_cfa_offset 16
 111              		.loc 1 79 3 view .LVU24
 112 0014 84209FE5 		ldr	r2, .L12
 113              	.LVL8:
 114              		.loc 1 79 3 view .LVU25
ARM GAS  /var/folders/l5/0x54b2c10074c8bt31ycjvl80000gp/T//cckp9Qb0.s 			page 3


 115 0018 84109FE5 		ldr	r1, .L12+4
 116              	.LVL9:
 117              		.loc 1 79 3 view .LVU26
 118 001c FEFFFFEB 		bl	chprintf
 119              	.LVL10:
 120              		.loc 1 81 3 is_stmt 1 view .LVU27
 121 0020 0400A0E1 		mov	r0, r4
 122 0024 7C209FE5 		ldr	r2, .L12+8
 123 0028 7C109FE5 		ldr	r1, .L12+12
 124 002c FEFFFFEB 		bl	chprintf
 125              	.LVL11:
 126              		.loc 1 83 3 view .LVU28
 127 0030 0400A0E1 		mov	r0, r4
 128 0034 74209FE5 		ldr	r2, .L12+16
 129 0038 74109FE5 		ldr	r1, .L12+20
 130 003c FEFFFFEB 		bl	chprintf
 131              	.LVL12:
 132              		.loc 1 85 3 view .LVU29
 133 0040 0400A0E1 		mov	r0, r4
 134 0044 6C209FE5 		ldr	r2, .L12+24
 135 0048 6C109FE5 		ldr	r1, .L12+28
 136 004c FEFFFFEB 		bl	chprintf
 137              	.LVL13:
 138              		.loc 1 88 3 view .LVU30
 139 0050 0400A0E1 		mov	r0, r4
 140 0054 64209FE5 		ldr	r2, .L12+32
 141 0058 64109FE5 		ldr	r1, .L12+36
 142 005c FEFFFFEB 		bl	chprintf
 143              	.LVL14:
 144              		.loc 1 91 3 view .LVU31
 145 0060 0400A0E1 		mov	r0, r4
 146 0064 5C209FE5 		ldr	r2, .L12+40
 147 0068 5C109FE5 		ldr	r1, .L12+44
 148 006c FEFFFFEB 		bl	chprintf
 149              	.LVL15:
 150              		.loc 1 98 3 view .LVU32
 151 0070 58309FE5 		ldr	r3, .L12+48
 152 0074 0400A0E1 		mov	r0, r4
 153 0078 00308DE5 		str	r3, [sp]
 154 007c 50209FE5 		ldr	r2, .L12+52
 155 0080 50309FE5 		ldr	r3, .L12+56
 156 0084 50109FE5 		ldr	r1, .L12+60
 157 0088 FEFFFFEB 		bl	chprintf
 158              	.LVL16:
 159              		.loc 1 101 1 is_stmt 0 view .LVU33
 160 008c 08D08DE2 		add	sp, sp, #8
 161              		.cfi_def_cfa_offset 8
 162              		@ sp needed
 163 0090 1080BDE8 		pop	{r4, pc}
 164              	.LVL17:
 165              	.L11:
 166              		.cfi_def_cfa_offset 0
 167              		.cfi_restore 4
 168              		.cfi_restore 14
 169              	.LBB30:
 170              	.LBI30:
 171              		.loc 1 71 13 is_stmt 1 view .LVU34
ARM GAS  /var/folders/l5/0x54b2c10074c8bt31ycjvl80000gp/T//cckp9Qb0.s 			page 4


 172              	.LBB31:
 173              		.loc 1 75 5 view .LVU35
 174              	.LBB32:
 175              	.LBI32:
 176              		.loc 1 58 13 view .LVU36
 177              	.LBB33:
 178              		.loc 1 60 3 view .LVU37
 179 0094 44209FE5 		ldr	r2, .L12+64
 180              	.LVL18:
 181              		.loc 1 60 3 is_stmt 0 view .LVU38
 182 0098 44109FE5 		ldr	r1, .L12+68
 183              	.LVL19:
 184              		.loc 1 60 3 view .LVU39
 185 009c FEFFFFEA 		b	chprintf
 186              	.LVL20:
 187              	.L13:
 188              		.loc 1 60 3 view .LVU40
 189              		.align	2
 190              	.L12:
 191 00a0 08000000 		.word	.LC4
 192 00a4 18000000 		.word	.LC5
 193 00a8 2C000000 		.word	.LC6
 194 00ac 68000000 		.word	.LC7
 195 00b0 7C000000 		.word	.LC8
 196 00b4 84000000 		.word	.LC9
 197 00b8 98000000 		.word	.LC10
 198 00bc A8000000 		.word	.LC11
 199 00c0 BC000000 		.word	.LC12
 200 00c4 CC000000 		.word	.LC13
 201 00c8 E0000000 		.word	.LC14
 202 00cc E8000000 		.word	.LC15
 203 00d0 24010000 		.word	.LC19
 204 00d4 00010000 		.word	.LC17
 205 00d8 FC000000 		.word	.LC16
 206 00dc 0C010000 		.word	.LC18
 207 00e0 00000000 		.word	.LC3
 208 00e4 08000000 		.word	.LC1
 209              	.LBE33:
 210              	.LBE32:
 211              	.LBE31:
 212              	.LBE30:
 213              		.cfi_endproc
 214              	.LFE10:
 215              		.size	cmd_info, .-cmd_info
 216              		.section	.text._strtok.constprop.2,"ax",%progbits
 217              		.align	2
 218              		.syntax unified
 219              		.arm
 220              		.fpu softvfp
 221              		.type	_strtok.constprop.2, %function
 222              	_strtok.constprop.2:
 223              	.LVL21:
 224              	.LFB20:
 225              		.loc 1 41 14 is_stmt 1 view -0
 226              		.cfi_startproc
 227              		@ args = 0, pretend = 0, frame = 0
 228              		@ frame_needed = 0, uses_anonymous_args = 0
ARM GAS  /var/folders/l5/0x54b2c10074c8bt31ycjvl80000gp/T//cckp9Qb0.s 			page 5


 229              		.loc 1 42 3 view .LVU42
 230              		.loc 1 43 3 view .LVU43
 231              		.loc 1 41 14 is_stmt 0 view .LVU44
 232 0000 70402DE9 		push	{r4, r5, r6, lr}
 233              		.cfi_def_cfa_offset 16
 234              		.cfi_offset 4, -16
 235              		.cfi_offset 5, -12
 236              		.cfi_offset 6, -8
 237              		.cfi_offset 14, -4
 238              		.loc 1 43 6 view .LVU45
 239 0004 004050E2 		subs	r4, r0, #0
 240              		.loc 1 41 14 view .LVU46
 241 0008 0150A0E1 		mov	r5, r1
 242              		.loc 1 44 14 view .LVU47
 243 000c 00408115 		strne	r4, [r1]
 244              		.loc 1 43 6 view .LVU48
 245 0010 1100000A 		beq	.L25
 246              	.L16:
 247              	.LVL22:
 248              		.loc 1 50 3 is_stmt 1 view .LVU49
 249              		.loc 1 50 12 is_stmt 0 view .LVU50
 250 0014 58109FE5 		ldr	r1, .L26
 251              	.LVL23:
 252              		.loc 1 50 12 view .LVU51
 253 0018 0400A0E1 		mov	r0, r4
 254              	.LVL24:
 255              		.loc 1 50 12 view .LVU52
 256 001c FEFFFFEB 		bl	strspn
 257              	.LVL25:
 258              		.loc 1 50 9 view .LVU53
 259 0020 004084E0 		add	r4, r4, r0
 260              	.LVL26:
 261              		.loc 1 51 3 is_stmt 1 view .LVU54
 262              		.loc 1 51 14 is_stmt 0 view .LVU55
 263 0024 0400A0E1 		mov	r0, r4
 264 0028 2010A0E3 		mov	r1, #32
 265 002c FEFFFFEB 		bl	strchr
 266              	.LVL27:
 267              		.loc 1 52 3 is_stmt 1 view .LVU56
 268              		.loc 1 52 6 is_stmt 0 view .LVU57
 269 0030 000050E3 		cmp	r0, #0
 270              		.loc 1 53 19 view .LVU58
 271 0034 0030A013 		movne	r3, #0
 272              		.loc 1 53 16 view .LVU59
 273 0038 01208012 		addne	r2, r0, #1
 274 003c 00208515 		strne	r2, [r5]
 275              		.loc 1 51 12 view .LVU60
 276 0040 00008505 		streq	r0, [r5]
 277              		.loc 1 53 5 is_stmt 1 view .LVU61
 278              		.loc 1 53 19 is_stmt 0 view .LVU62
 279 0044 0030C015 		strbne	r3, [r0]
 280              		.loc 1 55 3 is_stmt 1 view .LVU63
 281              		.loc 1 55 25 is_stmt 0 view .LVU64
 282 0048 0030D4E5 		ldrb	r3, [r4]	@ zero_extendqisi2
 283 004c 000053E3 		cmp	r3, #0
 284 0050 0400000A 		beq	.L20
 285              		.loc 1 56 1 view .LVU65
ARM GAS  /var/folders/l5/0x54b2c10074c8bt31ycjvl80000gp/T//cckp9Qb0.s 			page 6


 286 0054 0400A0E1 		mov	r0, r4
 287 0058 7080BDE8 		pop	{r4, r5, r6, pc}
 288              	.LVL28:
 289              	.L25:
 290              		.loc 1 45 3 is_stmt 1 view .LVU66
 291              		.loc 1 45 9 is_stmt 0 view .LVU67
 292 005c 004091E5 		ldr	r4, [r1]
 293              	.LVL29:
 294              		.loc 1 47 3 is_stmt 1 view .LVU68
 295              		.loc 1 47 6 is_stmt 0 view .LVU69
 296 0060 000054E3 		cmp	r4, #0
 297 0064 EAFFFF1A 		bne	.L16
 298              	.LVL30:
 299              	.L20:
 300              		.loc 1 48 12 view .LVU70
 301 0068 0040A0E3 		mov	r4, #0
 302              	.LVL31:
 303              		.loc 1 56 1 view .LVU71
 304 006c 0400A0E1 		mov	r0, r4
 305 0070 7080BDE8 		pop	{r4, r5, r6, pc}
 306              	.L27:
 307              		.align	2
 308              	.L26:
 309 0074 00000000 		.word	.LANCHOR0
 310              		.cfi_endproc
 311              	.LFE20:
 312              		.size	_strtok.constprop.2, .-_strtok.constprop.2
 313              		.section	.text.shellInit,"ax",%progbits
 314              		.align	2
 315              		.global	shellInit
 316              		.syntax unified
 317              		.arm
 318              		.fpu softvfp
 319              		.type	shellInit, %function
 320              	shellInit:
 321              	.LFB14:
 322              		.loc 1 208 22 is_stmt 1 view -0
 323              		.cfi_startproc
 324              		@ args = 0, pretend = 0, frame = 0
 325              		@ frame_needed = 0, uses_anonymous_args = 0
 326              		@ link register save eliminated.
 327              		.loc 1 210 3 view .LVU73
 328 0000 04309FE5 		ldr	r3, .L29
 329 0004 003083E5 		str	r3, [r3]
 330              		.loc 1 211 1 is_stmt 0 view .LVU74
 331 0008 1EFF2FE1 		bx	lr
 332              	.L30:
 333              		.align	2
 334              	.L29:
 335 000c 00000000 		.word	shell_terminated
 336              		.cfi_endproc
 337              	.LFE14:
 338              		.size	shellInit, .-shellInit
 339              		.section	.text.shellCreate,"ax",%progbits
 340              		.align	2
 341              		.global	shellCreate
 342              		.syntax unified
ARM GAS  /var/folders/l5/0x54b2c10074c8bt31ycjvl80000gp/T//cckp9Qb0.s 			page 7


 343              		.arm
 344              		.fpu softvfp
 345              		.type	shellCreate, %function
 346              	shellCreate:
 347              	.LVL32:
 348              	.LFB15:
 349              		.loc 1 224 72 is_stmt 1 view -0
 350              		.cfi_startproc
 351              		@ args = 0, pretend = 0, frame = 0
 352              		@ frame_needed = 0, uses_anonymous_args = 0
 353              		.loc 1 226 3 view .LVU76
 354              		.loc 1 224 72 is_stmt 0 view .LVU77
 355 0000 04E02DE5 		str	lr, [sp, #-4]!
 356              		.cfi_def_cfa_offset 4
 357              		.cfi_offset 14, -4
 358 0004 0CD04DE2 		sub	sp, sp, #12
 359              		.cfi_def_cfa_offset 16
 360              		.loc 1 226 10 view .LVU78
 361 0008 00008DE5 		str	r0, [sp]
 362 000c 0C309FE5 		ldr	r3, .L33
 363 0010 0000A0E3 		mov	r0, #0
 364              	.LVL33:
 365              		.loc 1 226 10 view .LVU79
 366 0014 FEFFFFEB 		bl	chThdCreateFromHeap
 367              	.LVL34:
 368              		.loc 1 227 1 view .LVU80
 369 0018 0CD08DE2 		add	sp, sp, #12
 370              		.cfi_def_cfa_offset 4
 371              		@ sp needed
 372 001c 04F09DE4 		ldr	pc, [sp], #4
 373              	.L34:
 374              		.align	2
 375              	.L33:
 376 0020 00000000 		.word	shell_thread
 377              		.cfi_endproc
 378              	.LFE15:
 379              		.size	shellCreate, .-shellCreate
 380              		.section	.text.shellCreateStatic,"ax",%progbits
 381              		.align	2
 382              		.global	shellCreateStatic
 383              		.syntax unified
 384              		.arm
 385              		.fpu softvfp
 386              		.type	shellCreateStatic, %function
 387              	shellCreateStatic:
 388              	.LVL35:
 389              	.LFB16:
 390              		.loc 1 240 54 is_stmt 1 view -0
 391              		.cfi_startproc
 392              		@ args = 0, pretend = 0, frame = 0
 393              		@ frame_needed = 0, uses_anonymous_args = 0
 394              		.loc 1 242 3 view .LVU82
 395              		.loc 1 240 54 is_stmt 0 view .LVU83
 396 0000 01C0A0E1 		mov	ip, r1
 397 0004 04E02DE5 		str	lr, [sp, #-4]!
 398              		.cfi_def_cfa_offset 4
 399              		.cfi_offset 14, -4
ARM GAS  /var/folders/l5/0x54b2c10074c8bt31ycjvl80000gp/T//cckp9Qb0.s 			page 8


 400 0008 0CD04DE2 		sub	sp, sp, #12
 401              		.cfi_def_cfa_offset 16
 402              		.loc 1 242 10 view .LVU84
 403 000c 0210A0E1 		mov	r1, r2
 404              	.LVL36:
 405              		.loc 1 242 10 view .LVU85
 406 0010 00008DE5 		str	r0, [sp]
 407 0014 0320A0E1 		mov	r2, r3
 408              	.LVL37:
 409              		.loc 1 242 10 view .LVU86
 410 0018 0C00A0E1 		mov	r0, ip
 411              	.LVL38:
 412              		.loc 1 242 10 view .LVU87
 413 001c 08309FE5 		ldr	r3, .L37
 414              	.LVL39:
 415              		.loc 1 242 10 view .LVU88
 416 0020 FEFFFFEB 		bl	chThdCreateStatic
 417              	.LVL40:
 418              		.loc 1 243 1 view .LVU89
 419 0024 0CD08DE2 		add	sp, sp, #12
 420              		.cfi_def_cfa_offset 4
 421              		@ sp needed
 422 0028 04F09DE4 		ldr	pc, [sp], #4
 423              	.L38:
 424              		.align	2
 425              	.L37:
 426 002c 00000000 		.word	shell_thread
 427              		.cfi_endproc
 428              	.LFE16:
 429              		.size	shellCreateStatic, .-shellCreateStatic
 430              		.section	.text.shellGetLine,"ax",%progbits
 431              		.align	2
 432              		.global	shellGetLine
 433              		.syntax unified
 434              		.arm
 435              		.fpu softvfp
 436              		.type	shellGetLine, %function
 437              	shellGetLine:
 438              	.LVL41:
 439              	.LFB17:
 440              		.loc 1 255 75 is_stmt 1 view -0
 441              		.cfi_startproc
 442              		@ args = 0, pretend = 0, frame = 8
 443              		@ frame_needed = 0, uses_anonymous_args = 0
 444              		.loc 1 256 3 view .LVU91
 445              		.loc 1 255 75 is_stmt 0 view .LVU92
 446 0000 F0402DE9 		push	{r4, r5, r6, r7, lr}
 447              		.cfi_def_cfa_offset 20
 448              		.cfi_offset 4, -20
 449              		.cfi_offset 5, -16
 450              		.cfi_offset 6, -12
 451              		.cfi_offset 7, -8
 452              		.cfi_offset 14, -4
 453 0004 0170A0E1 		mov	r7, r1
 454              	.LVL42:
 455              		.loc 1 255 75 view .LVU93
 456 0008 0040A0E1 		mov	r4, r0
ARM GAS  /var/folders/l5/0x54b2c10074c8bt31ycjvl80000gp/T//cckp9Qb0.s 			page 9


 457 000c 0150A0E1 		mov	r5, r1
 458              	.LBB34:
 459              		.loc 1 283 25 view .LVU94
 460 0010 012042E2 		sub	r2, r2, #1
 461              	.LVL43:
 462              		.loc 1 283 25 view .LVU95
 463 0014 003090E5 		ldr	r3, [r0]
 464              	.LBE34:
 465              		.loc 1 255 75 view .LVU96
 466 0018 0CD04DE2 		sub	sp, sp, #12
 467              		.cfi_def_cfa_offset 32
 468              	.LBB35:
 469              		.loc 1 283 25 view .LVU97
 470 001c 026081E0 		add	r6, r1, r2
 471              	.LVL44:
 472              	.L40:
 473              		.loc 1 283 25 view .LVU98
 474              	.LBE35:
 475              		.loc 1 258 3 is_stmt 1 view .LVU99
 476              	.LBB36:
 477              		.loc 1 259 5 view .LVU100
 478              		.loc 1 261 5 view .LVU101
 479              		.loc 1 261 9 is_stmt 0 view .LVU102
 480 0020 043093E5 		ldr	r3, [r3, #4]
 481 0024 0120A0E3 		mov	r2, #1
 482 0028 07108DE2 		add	r1, sp, #7
 483 002c 0400A0E1 		mov	r0, r4
 484 0030 33FF2FE1 		blx	r3
 485              	.LVL45:
 486              		.loc 1 263 5 is_stmt 1 view .LVU103
 487              		.loc 1 267 5 view .LVU104
 488              		.loc 1 276 5 view .LVU105
 489              		.loc 1 281 5 view .LVU106
 490              		.loc 1 283 5 view .LVU107
 491              		.loc 1 261 8 is_stmt 0 view .LVU108
 492 0034 000050E3 		cmp	r0, #0
 493 0038 2500000A 		beq	.L48
 494              		.loc 1 263 11 view .LVU109
 495 003c 0710DDE5 		ldrb	r1, [sp, #7]	@ zero_extendqisi2
 496              		.loc 1 263 8 view .LVU110
 497 0040 040051E3 		cmp	r1, #4
 498 0044 2500000A 		beq	.L51
 499              		.loc 1 267 8 view .LVU111
 500 0048 080051E3 		cmp	r1, #8
 501 004c 0D00000A 		beq	.L52
 502              		.loc 1 276 8 view .LVU112
 503 0050 0D0051E3 		cmp	r1, #13
 504 0054 2700000A 		beq	.L53
 505              		.loc 1 281 8 view .LVU113
 506 0058 1F0051E3 		cmp	r1, #31
 507 005c 003094E5 		ldr	r3, [r4]
 508 0060 EEFFFF9A 		bls	.L40
 509              		.loc 1 284 7 is_stmt 1 view .LVU114
 510              		.loc 1 283 8 is_stmt 0 view .LVU115
 511 0064 060055E1 		cmp	r5, r6
 512 0068 ECFFFF2A 		bcs	.L40
 513              		.loc 1 284 7 view .LVU116
ARM GAS  /var/folders/l5/0x54b2c10074c8bt31ycjvl80000gp/T//cckp9Qb0.s 			page 10


 514 006c 083093E5 		ldr	r3, [r3, #8]
 515 0070 0400A0E1 		mov	r0, r4
 516 0074 33FF2FE1 		blx	r3
 517              	.LVL46:
 518              		.loc 1 285 7 is_stmt 1 view .LVU117
 519              		.loc 1 285 12 is_stmt 0 view .LVU118
 520 0078 0730DDE5 		ldrb	r3, [sp, #7]	@ zero_extendqisi2
 521 007c 0130C5E4 		strb	r3, [r5], #1
 522              	.LVL47:
 523              		.loc 1 285 12 view .LVU119
 524 0080 003094E5 		ldr	r3, [r4]
 525 0084 E5FFFFEA 		b	.L40
 526              	.LVL48:
 527              	.L52:
 528              		.loc 1 268 7 is_stmt 1 view .LVU120
 529              		.loc 1 269 9 view .LVU121
 530              		.loc 1 268 10 is_stmt 0 view .LVU122
 531 0088 070055E1 		cmp	r5, r7
 532 008c 003094E5 		ldr	r3, [r4]
 533 0090 E2FFFF0A 		beq	.L40
 534              		.loc 1 269 9 view .LVU123
 535 0094 083093E5 		ldr	r3, [r3, #8]
 536 0098 0400A0E1 		mov	r0, r4
 537 009c 33FF2FE1 		blx	r3
 538              	.LVL49:
 539              		.loc 1 270 9 is_stmt 1 view .LVU124
 540 00a0 003094E5 		ldr	r3, [r4]
 541 00a4 2010A0E3 		mov	r1, #32
 542 00a8 083093E5 		ldr	r3, [r3, #8]
 543 00ac 0400A0E1 		mov	r0, r4
 544 00b0 33FF2FE1 		blx	r3
 545              	.LVL50:
 546              		.loc 1 271 9 view .LVU125
 547 00b4 003094E5 		ldr	r3, [r4]
 548 00b8 0710DDE5 		ldrb	r1, [sp, #7]	@ zero_extendqisi2
 549 00bc 083093E5 		ldr	r3, [r3, #8]
 550 00c0 0400A0E1 		mov	r0, r4
 551 00c4 33FF2FE1 		blx	r3
 552              	.LVL51:
 553              		.loc 1 272 9 view .LVU126
 554              		.loc 1 272 10 is_stmt 0 view .LVU127
 555 00c8 015045E2 		sub	r5, r5, #1
 556              	.LVL52:
 557              		.loc 1 272 10 view .LVU128
 558 00cc 003094E5 		ldr	r3, [r4]
 559 00d0 D2FFFFEA 		b	.L40
 560              	.L48:
 561              		.loc 1 262 14 view .LVU129
 562 00d4 0100A0E3 		mov	r0, #1
 563              	.LBE36:
 564              		.loc 1 288 1 view .LVU130
 565 00d8 0CD08DE2 		add	sp, sp, #12
 566              		.cfi_remember_state
 567              		.cfi_def_cfa_offset 20
 568              		@ sp needed
 569 00dc F080BDE8 		pop	{r4, r5, r6, r7, pc}
 570              	.LVL53:
ARM GAS  /var/folders/l5/0x54b2c10074c8bt31ycjvl80000gp/T//cckp9Qb0.s 			page 11


 571              	.L51:
 572              		.cfi_restore_state
 573              	.LBB37:
 574              		.loc 1 264 7 is_stmt 1 view .LVU131
 575 00e0 0400A0E1 		mov	r0, r4
 576 00e4 28109FE5 		ldr	r1, .L54
 577 00e8 FEFFFFEB 		bl	chprintf
 578              	.LVL54:
 579              		.loc 1 265 7 view .LVU132
 580              		.loc 1 265 14 is_stmt 0 view .LVU133
 581 00ec 0100A0E3 		mov	r0, #1
 582              	.LBE37:
 583              		.loc 1 288 1 view .LVU134
 584 00f0 0CD08DE2 		add	sp, sp, #12
 585              		.cfi_remember_state
 586              		.cfi_def_cfa_offset 20
 587              		@ sp needed
 588 00f4 F080BDE8 		pop	{r4, r5, r6, r7, pc}
 589              	.LVL55:
 590              	.L53:
 591              		.cfi_restore_state
 592              	.LBB38:
 593              		.loc 1 277 7 is_stmt 1 view .LVU135
 594 00f8 0400A0E1 		mov	r0, r4
 595 00fc 14109FE5 		ldr	r1, .L54+4
 596 0100 FEFFFFEB 		bl	chprintf
 597              	.LVL56:
 598              		.loc 1 278 7 view .LVU136
 599              		.loc 1 278 10 is_stmt 0 view .LVU137
 600 0104 0000A0E3 		mov	r0, #0
 601 0108 0000C5E5 		strb	r0, [r5]
 602              		.loc 1 279 7 is_stmt 1 view .LVU138
 603              	.LBE38:
 604              		.loc 1 288 1 is_stmt 0 view .LVU139
 605 010c 0CD08DE2 		add	sp, sp, #12
 606              		.cfi_def_cfa_offset 20
 607              		@ sp needed
 608 0110 F080BDE8 		pop	{r4, r5, r6, r7, pc}
 609              	.LVL57:
 610              	.L55:
 611              		.loc 1 288 1 view .LVU140
 612              		.align	2
 613              	.L54:
 614 0114 00000000 		.word	.LC21
 615 0118 04000000 		.word	.LC22
 616              		.cfi_endproc
 617              	.LFE17:
 618              		.size	shellGetLine, .-shellGetLine
 619              		.section	.text.shell_thread,"ax",%progbits
 620              		.align	2
 621              		.syntax unified
 622              		.arm
 623              		.fpu softvfp
 624              		.type	shell_thread, %function
 625              	shell_thread:
 626              	.LVL58:
 627              	.LFB13:
ARM GAS  /var/folders/l5/0x54b2c10074c8bt31ycjvl80000gp/T//cckp9Qb0.s 			page 12


 628              		.loc 1 143 36 is_stmt 1 view -0
 629              		.cfi_startproc
 630              		@ args = 0, pretend = 0, frame = 88
 631              		@ frame_needed = 0, uses_anonymous_args = 0
 632              		.loc 1 144 3 view .LVU142
 633              		.loc 1 145 3 view .LVU143
 634              		.loc 1 146 3 view .LVU144
 635              		.loc 1 143 36 is_stmt 0 view .LVU145
 636 0000 F04F2DE9 		push	{r4, r5, r6, r7, r8, r9, r10, fp, lr}
 637              		.cfi_def_cfa_offset 36
 638              		.cfi_offset 4, -36
 639              		.cfi_offset 5, -32
 640              		.cfi_offset 6, -28
 641              		.cfi_offset 7, -24
 642              		.cfi_offset 8, -20
 643              		.cfi_offset 9, -16
 644              		.cfi_offset 10, -12
 645              		.cfi_offset 11, -8
 646              		.cfi_offset 14, -4
 647              		.loc 1 151 3 view .LVU146
 648 0004 74329FE5 		ldr	r3, .L111
 649              		.loc 1 146 25 view .LVU147
 650 0008 005090E5 		ldr	r5, [r0]
 651              	.LVL59:
 652              		.loc 1 147 3 is_stmt 1 view .LVU148
 653              		.loc 1 151 3 is_stmt 0 view .LVU149
 654 000c 183093E5 		ldr	r3, [r3, #24]
 655 0010 6C229FE5 		ldr	r2, .L111+4
 656              		.loc 1 147 23 view .LVU150
 657 0014 04A090E5 		ldr	r10, [r0, #4]
 658              	.LVL60:
 659              		.loc 1 148 3 is_stmt 1 view .LVU151
 660              		.loc 1 149 3 view .LVU152
 661              		.loc 1 151 3 view .LVU153
 662              		.loc 1 143 36 is_stmt 0 view .LVU154
 663 0018 5CD04DE2 		sub	sp, sp, #92
 664              		.cfi_def_cfa_offset 128
 665              		.loc 1 152 3 view .LVU155
 666 001c 0500A0E1 		mov	r0, r5
 667              	.LVL61:
 668              		.loc 1 151 3 view .LVU156
 669 0020 182083E5 		str	r2, [r3, #24]
 670              		.loc 1 152 3 is_stmt 1 view .LVU157
 671 0024 5C129FE5 		ldr	r1, .L111+8
 672 0028 FEFFFFEB 		bl	chprintf
 673              	.LVL62:
 674              		.loc 1 154 5 is_stmt 0 view .LVU158
 675 002c 58729FE5 		ldr	r7, .L111+12
 676              		.loc 1 172 11 view .LVU159
 677 0030 58829FE5 		ldr	r8, .L111+16
 678              		.loc 1 179 16 view .LVU160
 679 0034 58929FE5 		ldr	r9, .L111+20
 680              	.L57:
 681              		.loc 1 153 3 is_stmt 1 view .LVU161
 682              		.loc 1 154 5 view .LVU162
 683 0038 0710A0E1 		mov	r1, r7
 684 003c 0500A0E1 		mov	r0, r5
ARM GAS  /var/folders/l5/0x54b2c10074c8bt31ycjvl80000gp/T//cckp9Qb0.s 			page 13


 685 0040 FEFFFFEB 		bl	chprintf
 686              	.LVL63:
 687              		.loc 1 155 5 view .LVU163
 688              		.loc 1 155 9 is_stmt 0 view .LVU164
 689 0044 4020A0E3 		mov	r2, #64
 690 0048 18108DE2 		add	r1, sp, #24
 691 004c 0500A0E1 		mov	r0, r5
 692 0050 FEFFFFEB 		bl	shellGetLine
 693              	.LVL64:
 694              		.loc 1 155 8 view .LVU165
 695 0054 004050E2 		subs	r4, r0, #0
 696 0058 4700001A 		bne	.L105
 697              		.loc 1 159 5 is_stmt 1 view .LVU166
 698              		.loc 1 159 10 is_stmt 0 view .LVU167
 699 005c 0D10A0E1 		mov	r1, sp
 700 0060 18008DE2 		add	r0, sp, #24
 701 0064 FEFFFFEB 		bl	_strtok.constprop.2
 702              	.LVL65:
 703 0068 00B0A0E1 		mov	fp, r0
 704              	.LVL66:
 705              		.loc 1 160 5 is_stmt 1 view .LVU168
 706              		.loc 1 161 5 view .LVU169
 707              		.loc 1 162 5 view .LVU170
 708 006c 04608DE2 		add	r6, sp, #4
 709              	.LVL67:
 710              	.L60:
 711              		.loc 1 162 18 is_stmt 0 view .LVU171
 712 0070 0D10A0E1 		mov	r1, sp
 713 0074 0000A0E3 		mov	r0, #0
 714              	.LVL68:
 715              		.loc 1 162 18 view .LVU172
 716 0078 FEFFFFEB 		bl	_strtok.constprop.2
 717              	.LVL69:
 718              		.loc 1 163 7 is_stmt 1 view .LVU173
 719              		.loc 1 168 7 view .LVU174
 720              		.loc 1 162 11 is_stmt 0 view .LVU175
 721 007c 000050E3 		cmp	r0, #0
 722              		.loc 1 162 11 view .LVU176
 723 0080 0900000A 		beq	.L106
 724              		.loc 1 163 10 view .LVU177
 725 0084 040054E3 		cmp	r4, #4
 726              		.loc 1 168 13 view .LVU178
 727 0088 01408412 		addne	r4, r4, #1
 728              	.LVL70:
 729              		.loc 1 168 17 view .LVU179
 730 008c 04008614 		strne	r0, [r6], #4
 731 0090 F6FFFF1A 		bne	.L60
 732              	.L107:
 733              		.loc 1 164 9 is_stmt 1 view .LVU180
 734 0094 FC119FE5 		ldr	r1, .L111+24
 735 0098 0500A0E1 		mov	r0, r5
 736              	.LVL71:
 737              		.loc 1 164 9 is_stmt 0 view .LVU181
 738 009c FEFFFFEB 		bl	chprintf
 739              	.LVL72:
 740              		.loc 1 165 9 is_stmt 1 view .LVU182
 741              		.loc 1 166 9 view .LVU183
ARM GAS  /var/folders/l5/0x54b2c10074c8bt31ycjvl80000gp/T//cckp9Qb0.s 			page 14


 742              		.loc 1 170 5 view .LVU184
 743              		.loc 1 170 13 is_stmt 0 view .LVU185
 744 00a0 0030A0E3 		mov	r3, #0
 745 00a4 14308DE5 		str	r3, [sp, #20]
 746              		.loc 1 171 5 is_stmt 1 view .LVU186
 747 00a8 E2FFFFEA 		b	.L57
 748              	.LVL73:
 749              	.L106:
 750              		.loc 1 170 5 view .LVU187
 751              		.loc 1 170 13 is_stmt 0 view .LVU188
 752 00ac 58308DE2 		add	r3, sp, #88
 753 00b0 043183E0 		add	r3, r3, r4, lsl #2
 754              		.loc 1 171 8 view .LVU189
 755 00b4 00005BE3 		cmp	fp, #0
 756              		.loc 1 170 13 view .LVU190
 757 00b8 540003E5 		str	r0, [r3, #-84]
 758              		.loc 1 171 5 is_stmt 1 view .LVU191
 759              		.loc 1 171 8 is_stmt 0 view .LVU192
 760 00bc DDFFFF0A 		beq	.L57
 761              		.loc 1 172 7 is_stmt 1 view .LVU193
 762              		.loc 1 172 11 is_stmt 0 view .LVU194
 763 00c0 0810A0E1 		mov	r1, r8
 764 00c4 0B00A0E1 		mov	r0, fp
 765              	.LVL74:
 766              		.loc 1 172 11 view .LVU195
 767 00c8 FEFFFFEB 		bl	strcasecmp
 768              	.LVL75:
 769              		.loc 1 172 10 view .LVU196
 770 00cc 000050E3 		cmp	r0, #0
 771 00d0 0A00001A 		bne	.L64
 772              		.loc 1 173 9 is_stmt 1 view .LVU197
 773              		.loc 1 173 12 is_stmt 0 view .LVU198
 774 00d4 000054E3 		cmp	r4, #0
 775 00d8 2B00001A 		bne	.L108
 776              	.LVL76:
 777              	.L59:
 778              		.loc 1 199 3 is_stmt 1 view .LVU199
 779              		.syntax divided
 780              	@ 199 "../../os/various/shell.c" 1
 781 00dc 9FF021E3 		msr     CPSR_c, #0x9F
 782              	@ 0 "" 2
 783              		.loc 1 199 3 view .LVU200
 784              		.loc 1 199 14 view .LVU201
 785              		.loc 1 200 3 view .LVU202
 786              		.arm
 787              		.syntax unified
 788 00e0 0010A0E3 		mov	r1, #0
 789 00e4 B0019FE5 		ldr	r0, .L111+28
 790 00e8 FEFFFFEB 		bl	chEvtBroadcastFlagsI
 791              	.LVL77:
 792              		.loc 1 201 3 view .LVU203
 793 00ec 0000A0E3 		mov	r0, #0
 794 00f0 FEFFFFEB 		bl	chThdExitS
 795              	.LVL78:
 796              		.loc 1 202 3 view .LVU204
 797              		.loc 1 203 1 is_stmt 0 view .LVU205
 798 00f4 0000A0E3 		mov	r0, #0
ARM GAS  /var/folders/l5/0x54b2c10074c8bt31ycjvl80000gp/T//cckp9Qb0.s 			page 15


 799 00f8 5CD08DE2 		add	sp, sp, #92
 800              		.cfi_remember_state
 801              		.cfi_def_cfa_offset 36
 802              		@ sp needed
 803 00fc F08FBDE8 		pop	{r4, r5, r6, r7, r8, r9, r10, fp, pc}
 804              	.LVL79:
 805              	.L64:
 806              		.cfi_restore_state
 807              		.loc 1 179 12 is_stmt 1 view .LVU206
 808              		.loc 1 179 16 is_stmt 0 view .LVU207
 809 0100 0910A0E1 		mov	r1, r9
 810 0104 0B00A0E1 		mov	r0, fp
 811 0108 FEFFFFEB 		bl	strcasecmp
 812              	.LVL80:
 813              		.loc 1 179 15 view .LVU208
 814 010c 000050E3 		cmp	r0, #0
 815 0110 0600001A 		bne	.L109
 816              		.loc 1 180 9 is_stmt 1 view .LVU209
 817              		.loc 1 180 12 is_stmt 0 view .LVU210
 818 0114 000054E3 		cmp	r4, #0
 819 0118 2000000A 		beq	.L68
 820              		.loc 1 181 11 is_stmt 1 view .LVU211
 821              	.LVL81:
 822              	.LBB51:
 823              	.LBI51:
 824              		.loc 1 58 13 view .LVU212
 825              	.LBB52:
 826              		.loc 1 60 3 view .LVU213
 827 011c 0920A0E1 		mov	r2, r9
 828 0120 78119FE5 		ldr	r1, .L111+32
 829 0124 0500A0E1 		mov	r0, r5
 830 0128 FEFFFFEB 		bl	chprintf
 831              	.LVL82:
 832              		.loc 1 60 3 is_stmt 0 view .LVU214
 833              	.LBE52:
 834              	.LBE51:
 835              		.loc 1 182 11 is_stmt 1 view .LVU215
 836 012c C1FFFFEA 		b	.L57
 837              	.L109:
 838              	.LVL83:
 839              	.LBB53:
 840              	.LBB54:
 841              		.loc 1 125 13 is_stmt 0 view .LVU216
 842 0130 6C319FE5 		ldr	r3, .L111+36
 843 0134 000093E5 		ldr	r0, [r3]
 844              		.loc 1 125 9 view .LVU217
 845 0138 000050E3 		cmp	r0, #0
 846 013c 60619F15 		ldrne	r6, .L111+36
 847 0140 0300001A 		bne	.L74
 848 0144 2A0000EA 		b	.L67
 849              	.LVL84:
 850              	.L73:
 851              		.loc 1 125 13 view .LVU218
 852 0148 0800B6E5 		ldr	r0, [r6, #8]!
 853              	.LVL85:
 854              		.loc 1 125 9 view .LVU219
 855 014c 000050E3 		cmp	r0, #0
ARM GAS  /var/folders/l5/0x54b2c10074c8bt31ycjvl80000gp/T//cckp9Qb0.s 			page 16


 856 0150 2700000A 		beq	.L67
 857              	.LVL86:
 858              	.L74:
 859              		.loc 1 126 5 is_stmt 1 view .LVU220
 860              		.loc 1 126 9 is_stmt 0 view .LVU221
 861 0154 0B10A0E1 		mov	r1, fp
 862 0158 FEFFFFEB 		bl	strcasecmp
 863              	.LVL87:
 864              		.loc 1 130 5 is_stmt 1 view .LVU222
 865              		.loc 1 126 8 is_stmt 0 view .LVU223
 866 015c 000050E3 		cmp	r0, #0
 867 0160 F8FFFF1A 		bne	.L73
 868              	.LVL88:
 869              	.L104:
 870              		.loc 1 126 8 view .LVU224
 871              	.LBE54:
 872              	.LBE53:
 873              	.LBB55:
 874              	.LBB56:
 875              		.loc 1 127 7 is_stmt 1 view .LVU225
 876 0164 043096E5 		ldr	r3, [r6, #4]
 877 0168 04208DE2 		add	r2, sp, #4
 878 016c 0410A0E1 		mov	r1, r4
 879 0170 0500A0E1 		mov	r0, r5
 880 0174 33FF2FE1 		blx	r3
 881              	.LVL89:
 882              		.loc 1 128 7 view .LVU226
 883 0178 AEFFFFEA 		b	.L57
 884              	.LVL90:
 885              	.L105:
 886              		.loc 1 128 7 is_stmt 0 view .LVU227
 887              	.LBE56:
 888              	.LBE55:
 889              		.loc 1 156 7 is_stmt 1 view .LVU228
 890 017c 0500A0E1 		mov	r0, r5
 891 0180 20119FE5 		ldr	r1, .L111+40
 892 0184 FEFFFFEB 		bl	chprintf
 893              	.LVL91:
 894              		.loc 1 157 7 view .LVU229
 895 0188 D3FFFFEA 		b	.L59
 896              	.LVL92:
 897              	.L108:
 898              		.loc 1 174 11 view .LVU230
 899              	.LBB58:
 900              	.LBI58:
 901              		.loc 1 58 13 view .LVU231
 902              	.LBB59:
 903              		.loc 1 60 3 view .LVU232
 904 018c 0820A0E1 		mov	r2, r8
 905 0190 08119FE5 		ldr	r1, .L111+32
 906 0194 0500A0E1 		mov	r0, r5
 907 0198 FEFFFFEB 		bl	chprintf
 908              	.LVL93:
 909              		.loc 1 60 3 is_stmt 0 view .LVU233
 910              	.LBE59:
 911              	.LBE58:
 912              		.loc 1 175 11 is_stmt 1 view .LVU234
ARM GAS  /var/folders/l5/0x54b2c10074c8bt31ycjvl80000gp/T//cckp9Qb0.s 			page 17


 913 019c A5FFFFEA 		b	.L57
 914              	.L68:
 915              		.loc 1 184 9 view .LVU235
 916 01a0 04119FE5 		ldr	r1, .L111+44
 917 01a4 0500A0E1 		mov	r0, r5
 918 01a8 FEFFFFEB 		bl	chprintf
 919              	.LVL94:
 920              		.loc 1 185 9 view .LVU236
 921              	.LBB60:
 922              	.LBI60:
 923              		.loc 1 63 13 view .LVU237
 924              	.LBB61:
 925              		.loc 1 65 3 view .LVU238
 926              		.loc 1 65 13 is_stmt 0 view .LVU239
 927 01ac F0309FE5 		ldr	r3, .L111+36
 928 01b0 002093E5 		ldr	r2, [r3]
 929              		.loc 1 65 9 view .LVU240
 930 01b4 000052E3 		cmp	r2, #0
 931 01b8 0700000A 		beq	.L69
 932 01bc 0340A0E1 		mov	r4, r3
 933              	.LVL95:
 934              		.loc 1 66 5 view .LVU241
 935 01c0 E8609FE5 		ldr	r6, .L111+48
 936              	.LVL96:
 937              	.L70:
 938              		.loc 1 66 5 is_stmt 1 view .LVU242
 939 01c4 0610A0E1 		mov	r1, r6
 940 01c8 0500A0E1 		mov	r0, r5
 941 01cc FEFFFFEB 		bl	chprintf
 942              	.LVL97:
 943              		.loc 1 67 5 view .LVU243
 944              		.loc 1 65 13 is_stmt 0 view .LVU244
 945 01d0 0820B4E5 		ldr	r2, [r4, #8]!
 946              	.LVL98:
 947              		.loc 1 65 9 view .LVU245
 948 01d4 000052E3 		cmp	r2, #0
 949 01d8 F9FFFF1A 		bne	.L70
 950              	.LVL99:
 951              	.L69:
 952              		.loc 1 65 9 view .LVU246
 953              	.LBE61:
 954              	.LBE60:
 955              		.loc 1 186 9 is_stmt 1 view .LVU247
 956              		.loc 1 186 12 is_stmt 0 view .LVU248
 957 01dc 00005AE3 		cmp	r10, #0
 958 01e0 1A00001A 		bne	.L110
 959              	.L71:
 960              		.loc 1 188 9 is_stmt 1 view .LVU249
 961 01e4 C8109FE5 		ldr	r1, .L111+52
 962 01e8 0500A0E1 		mov	r0, r5
 963 01ec FEFFFFEB 		bl	chprintf
 964              	.LVL100:
 965 01f0 90FFFFEA 		b	.L57
 966              	.LVL101:
 967              	.L67:
 968              		.loc 1 190 59 is_stmt 0 view .LVU250
 969 01f4 00005AE3 		cmp	r10, #0
ARM GAS  /var/folders/l5/0x54b2c10074c8bt31ycjvl80000gp/T//cckp9Qb0.s 			page 18


 970 01f8 0C00000A 		beq	.L75
 971              	.LVL102:
 972              	.LBB62:
 973              	.LBB57:
 974              		.loc 1 125 13 view .LVU251
 975 01fc 00009AE5 		ldr	r0, [r10]
 976              		.loc 1 125 9 view .LVU252
 977 0200 000050E3 		cmp	r0, #0
 978 0204 0900000A 		beq	.L75
 979 0208 0A60A0E1 		mov	r6, r10
 980 020c 020000EA 		b	.L77
 981              	.LVL103:
 982              	.L76:
 983              		.loc 1 125 13 view .LVU253
 984 0210 0800B6E5 		ldr	r0, [r6, #8]!
 985              	.LVL104:
 986              		.loc 1 125 9 view .LVU254
 987 0214 000050E3 		cmp	r0, #0
 988 0218 0400000A 		beq	.L75
 989              	.LVL105:
 990              	.L77:
 991              		.loc 1 126 5 is_stmt 1 view .LVU255
 992              		.loc 1 126 9 is_stmt 0 view .LVU256
 993 021c 0B10A0E1 		mov	r1, fp
 994 0220 FEFFFFEB 		bl	strcasecmp
 995              	.LVL106:
 996              		.loc 1 130 5 is_stmt 1 view .LVU257
 997              		.loc 1 126 8 is_stmt 0 view .LVU258
 998 0224 000050E3 		cmp	r0, #0
 999 0228 F8FFFF1A 		bne	.L76
 1000 022c CCFFFFEA 		b	.L104
 1001              	.LVL107:
 1002              	.L75:
 1003              		.loc 1 126 8 view .LVU259
 1004              	.LBE57:
 1005              	.LBE62:
 1006              		.loc 1 192 9 is_stmt 1 view .LVU260
 1007 0230 0500A0E1 		mov	r0, r5
 1008 0234 0B20A0E1 		mov	r2, fp
 1009 0238 78109FE5 		ldr	r1, .L111+56
 1010 023c FEFFFFEB 		bl	chprintf
 1011              	.LVL108:
 1012              		.loc 1 193 9 view .LVU261
 1013 0240 74109FE5 		ldr	r1, .L111+60
 1014 0244 0500A0E1 		mov	r0, r5
 1015 0248 FEFFFFEB 		bl	chprintf
 1016              	.LVL109:
 1017 024c 79FFFFEA 		b	.L57
 1018              	.LVL110:
 1019              	.L110:
 1020              	.LBB63:
 1021              	.LBB64:
 1022              		.loc 1 65 13 is_stmt 0 view .LVU262
 1023 0250 00209AE5 		ldr	r2, [r10]
 1024              		.loc 1 65 9 view .LVU263
 1025 0254 000052E3 		cmp	r2, #0
 1026 0258 E1FFFF0A 		beq	.L71
ARM GAS  /var/folders/l5/0x54b2c10074c8bt31ycjvl80000gp/T//cckp9Qb0.s 			page 19


 1027 025c 0A40A0E1 		mov	r4, r10
 1028              		.loc 1 66 5 view .LVU264
 1029 0260 48609FE5 		ldr	r6, .L111+48
 1030              	.LVL111:
 1031              	.L72:
 1032              		.loc 1 66 5 is_stmt 1 view .LVU265
 1033 0264 0610A0E1 		mov	r1, r6
 1034 0268 0500A0E1 		mov	r0, r5
 1035 026c FEFFFFEB 		bl	chprintf
 1036              	.LVL112:
 1037              		.loc 1 67 5 view .LVU266
 1038              		.loc 1 65 13 is_stmt 0 view .LVU267
 1039 0270 0820B4E5 		ldr	r2, [r4, #8]!
 1040              	.LVL113:
 1041              		.loc 1 65 9 view .LVU268
 1042 0274 000052E3 		cmp	r2, #0
 1043 0278 F9FFFF1A 		bne	.L72
 1044 027c D8FFFFEA 		b	.L71
 1045              	.L112:
 1046              		.align	2
 1047              	.L111:
 1048 0280 00000000 		.word	rlist
 1049 0284 00000000 		.word	.LC23
 1050 0288 08000000 		.word	.LC24
 1051 028c 20000000 		.word	.LC25
 1052 0290 4C000000 		.word	.LC28
 1053 0294 54000000 		.word	.LC29
 1054 0298 34000000 		.word	.LC27
 1055 029c 00000000 		.word	shell_terminated
 1056 02a0 08000000 		.word	.LC1
 1057 02a4 00000000 		.word	.LANCHOR1
 1058 02a8 28000000 		.word	.LC26
 1059 02ac 5C000000 		.word	.LC30
 1060 02b0 74000000 		.word	.LC31
 1061 02b4 04000000 		.word	.LC22
 1062 02b8 78000000 		.word	.LC32
 1063 02bc 7C000000 		.word	.LC33
 1064              	.LBE64:
 1065              	.LBE63:
 1066              		.cfi_endproc
 1067              	.LFE13:
 1068              		.size	shell_thread, .-shell_thread
 1069              		.comm	shell_terminated,4,4
 1070              		.section	.rodata
 1071              		.align	2
 1072              		.set	.LANCHOR0,. + 0
 1073              	.LC20:
 1074 0000 20003900 		.ascii	" \0009\000"
 1075              		.section	.data.local_commands,"aw"
 1076              		.align	2
 1077              		.set	.LANCHOR1,. + 0
 1078              		.type	local_commands, %object
 1079              		.size	local_commands, 24
 1080              	local_commands:
 1081 0000 00000000 		.word	.LC3
 1082 0004 00000000 		.word	cmd_info
 1083 0008 00000000 		.word	.LC0
ARM GAS  /var/folders/l5/0x54b2c10074c8bt31ycjvl80000gp/T//cckp9Qb0.s 			page 20


 1084 000c 00000000 		.word	cmd_systime
 1085 0010 00000000 		.word	0
 1086 0014 00000000 		.word	0
 1087              		.section	.rodata.cmd_info.str1.4,"aMS",%progbits,1
 1088              		.align	2
 1089              	.LC3:
 1090 0000 696E666F 		.ascii	"info\000"
 1090      00
 1091 0005 000000   		.space	3
 1092              	.LC4:
 1093 0008 322E352E 		.ascii	"2.5.1unstable\000"
 1093      31756E73 
 1093      7461626C 
 1093      6500
 1094 0016 0000     		.space	2
 1095              	.LC5:
 1096 0018 4B65726E 		.ascii	"Kernel:       %s\015\012\000"
 1096      656C3A20 
 1096      20202020 
 1096      20202573 
 1096      0D0A00
 1097 002b 00       		.space	1
 1098              	.LC6:
 1099 002c 47434320 		.ascii	"GCC 8.3.1 20190703 (release) [gcc-8-branch revision"
 1099      382E332E 
 1099      31203230 
 1099      31393037 
 1099      30332028 
 1100 005f 20323733 		.ascii	" 273027]\000"
 1100      3032375D 
 1100      00
 1101              	.LC7:
 1102 0068 436F6D70 		.ascii	"Compiler:     %s\015\012\000"
 1102      696C6572 
 1102      3A202020 
 1102      20202573 
 1102      0D0A00
 1103 007b 00       		.space	1
 1104              	.LC8:
 1105 007c 41524D31 		.ascii	"ARM11\000"
 1105      3100
 1106 0082 0000     		.space	2
 1107              	.LC9:
 1108 0084 41726368 		.ascii	"Architecture: %s\015\012\000"
 1108      69746563 
 1108      74757265 
 1108      3A202573 
 1108      0D0A00
 1109 0097 00       		.space	1
 1110              	.LC10:
 1111 0098 41524D31 		.ascii	"ARM1176JZF-S\000"
 1111      3137364A 
 1111      5A462D53 
 1111      00
 1112 00a5 000000   		.space	3
 1113              	.LC11:
 1114 00a8 436F7265 		.ascii	"Core Variant: %s\015\012\000"
ARM GAS  /var/folders/l5/0x54b2c10074c8bt31ycjvl80000gp/T//cckp9Qb0.s 			page 21


 1114      20566172 
 1114      69616E74 
 1114      3A202573 
 1114      0D0A00
 1115 00bb 00       		.space	1
 1116              	.LC12:
 1117 00bc 50757265 		.ascii	"Pure ARM mode\000"
 1117      2041524D 
 1117      206D6F64 
 1117      6500
 1118 00ca 0000     		.space	2
 1119              	.LC13:
 1120 00cc 506F7274 		.ascii	"Port Info:    %s\015\012\000"
 1120      20496E66 
 1120      6F3A2020 
 1120      20202573 
 1120      0D0A00
 1121 00df 00       		.space	1
 1122              	.LC14:
 1123 00e0 42434D32 		.ascii	"BCM2835\000"
 1123      38333500 
 1124              	.LC15:
 1125 00e8 506C6174 		.ascii	"Platform:     %s\015\012\000"
 1125      666F726D 
 1125      3A202020 
 1125      20202573 
 1125      0D0A00
 1126 00fb 00       		.space	1
 1127              	.LC16:
 1128 00fc 202D2000 		.ascii	" - \000"
 1129              	.LC17:
 1130 0100 4E6F7620 		.ascii	"Nov 19 2019\000"
 1130      31392032 
 1130      30313900 
 1131              	.LC18:
 1132 010c 4275696C 		.ascii	"Build time:   %s%s%s\015\012\000"
 1132      64207469 
 1132      6D653A20 
 1132      20202573 
 1132      25732573 
 1133 0123 00       		.space	1
 1134              	.LC19:
 1135 0124 30393A35 		.ascii	"09:57:47\000"
 1135      373A3437 
 1135      00
 1136              		.section	.rodata.cmd_systime.str1.4,"aMS",%progbits,1
 1137              		.align	2
 1138              	.LC0:
 1139 0000 73797374 		.ascii	"systime\000"
 1139      696D6500 
 1140              	.LC1:
 1141 0008 55736167 		.ascii	"Usage: %s\015\012\000"
 1141      653A2025 
 1141      730D0A00 
 1142              	.LC2:
 1143 0014 256C750D 		.ascii	"%lu\015\012\000"
 1143      0A00
ARM GAS  /var/folders/l5/0x54b2c10074c8bt31ycjvl80000gp/T//cckp9Qb0.s 			page 22


 1144              		.section	.rodata.shellGetLine.str1.4,"aMS",%progbits,1
 1145              		.align	2
 1146              	.LC21:
 1147 0000 5E4400   		.ascii	"^D\000"
 1148 0003 00       		.space	1
 1149              	.LC22:
 1150 0004 0D0A00   		.ascii	"\015\012\000"
 1151              		.section	.rodata.shell_thread.str1.4,"aMS",%progbits,1
 1152              		.align	2
 1153              	.LC23:
 1154 0000 7368656C 		.ascii	"shell\000"
 1154      6C00
 1155 0006 0000     		.space	2
 1156              	.LC24:
 1157 0008 0D0A4368 		.ascii	"\015\012ChibiOS/RT Shell\015\012\000"
 1157      6962694F 
 1157      532F5254 
 1157      20536865 
 1157      6C6C0D0A 
 1158 001d 000000   		.space	3
 1159              	.LC25:
 1160 0020 63683E20 		.ascii	"ch> \000"
 1160      00
 1161 0025 000000   		.space	3
 1162              	.LC26:
 1163 0028 0D0A6C6F 		.ascii	"\015\012logout\000"
 1163      676F7574 
 1163      00
 1164 0031 000000   		.space	3
 1165              	.LC27:
 1166 0034 746F6F20 		.ascii	"too many arguments\015\012\000"
 1166      6D616E79 
 1166      20617267 
 1166      756D656E 
 1166      74730D0A 
 1167 0049 000000   		.space	3
 1168              	.LC28:
 1169 004c 65786974 		.ascii	"exit\000"
 1169      00
 1170 0051 000000   		.space	3
 1171              	.LC29:
 1172 0054 68656C70 		.ascii	"help\000"
 1172      00
 1173 0059 000000   		.space	3
 1174              	.LC30:
 1175 005c 436F6D6D 		.ascii	"Commands: help exit \000"
 1175      616E6473 
 1175      3A206865 
 1175      6C702065 
 1175      78697420 
 1176 0071 000000   		.space	3
 1177              	.LC31:
 1178 0074 25732000 		.ascii	"%s \000"
 1179              	.LC32:
 1180 0078 257300   		.ascii	"%s\000"
 1181 007b 00       		.space	1
 1182              	.LC33:
ARM GAS  /var/folders/l5/0x54b2c10074c8bt31ycjvl80000gp/T//cckp9Qb0.s 			page 23


 1183 007c 203F0D0A 		.ascii	" ?\015\012\000"
 1183      00
 1184              		.text
 1185              	.Letext0:
 1186              		.file 2 "/usr/local/Cellar/arm-gcc-bin/8-2019-q3-update/lib/gcc/arm-none-eabi/8.3.1/include/stddef
 1187              		.file 3 "/usr/local/Cellar/arm-gcc-bin/8-2019-q3-update/arm-none-eabi/include/machine/_default_typ
 1188              		.file 4 "/usr/local/Cellar/arm-gcc-bin/8-2019-q3-update/arm-none-eabi/include/sys/_types.h"
 1189              		.file 5 "/usr/local/Cellar/arm-gcc-bin/8-2019-q3-update/arm-none-eabi/include/sys/reent.h"
 1190              		.file 6 "/usr/local/Cellar/arm-gcc-bin/8-2019-q3-update/arm-none-eabi/include/sys/lock.h"
 1191              		.file 7 "/usr/local/Cellar/arm-gcc-bin/8-2019-q3-update/arm-none-eabi/include/sys/_stdint.h"
 1192              		.file 8 "../../os/ports/GCC/ARM/chtypes.h"
 1193              		.file 9 "../../os/kernel/include/chlists.h"
 1194              		.file 10 "../../os/kernel/include/chthreads.h"
 1195              		.file 11 "../../os/ports/GCC/ARM/chcore.h"
 1196              		.file 12 "../../os/kernel/include/chvt.h"
 1197              		.file 13 "../../os/kernel/include/chschd.h"
 1198              		.file 14 "../../os/kernel/include/chmtx.h"
 1199              		.file 15 "../../os/kernel/include/chevents.h"
 1200              		.file 16 "../../os/kernel/include/chregistry.h"
 1201              		.file 17 "../../os/kernel/include/chqueues.h"
 1202              		.file 18 "../../os/kernel/include/chstreams.h"
 1203              		.file 19 "../../os/kernel/include/ch.h"
 1204              		.file 20 "../../os/hal/platforms/BCM2835/bcm2835.h"
 1205              		.file 21 "../../os/hal/platforms/BCM2835/pal_lld.h"
 1206              		.file 22 "../../os/hal/include/i2c.h"
 1207              		.file 23 "../../os/hal/platforms/BCM2835/i2c_lld.h"
 1208              		.file 24 "../../os/hal/include/serial.h"
 1209              		.file 25 "../../os/hal/include/spi.h"
 1210              		.file 26 "../../os/hal/platforms/BCM2835/spi_lld.h"
 1211              		.file 27 "../../os/various/shell.h"
 1212              		.file 28 "../../os/hal/platforms/BCM2835/serial_lld.h"
 1213              		.file 29 "../../os/various/chprintf.h"
 1214              		.file 30 "../../os/kernel/include/chdynamic.h"
 1215              		.file 31 "/usr/local/Cellar/arm-gcc-bin/8-2019-q3-update/arm-none-eabi/include/strings.h"
 1216              		.file 32 "/usr/local/Cellar/arm-gcc-bin/8-2019-q3-update/arm-none-eabi/include/string.h"
 1217              		.file 33 "<built-in>"