ARM GAS  /var/folders/l5/0x54b2c10074c8bt31ycjvl80000gp/T//cchcLbgS.s 			page 1


   1              		.cpu arm1176jz-s
   2              		.eabi_attribute 20, 1
   3              		.eabi_attribute 21, 1
   4              		.eabi_attribute 23, 3
   5              		.eabi_attribute 24, 1
   6              		.eabi_attribute 25, 1
   7              		.eabi_attribute 26, 1
   8              		.eabi_attribute 30, 2
   9              		.eabi_attribute 34, 1
  10              		.eabi_attribute 18, 4
  11              		.file	"spi_lld.c"
  12              		.text
  13              	.Ltext0:
  14              		.cfi_sections	.debug_frame
  15              		.section	.text.spi_lld_serve_interrupt,"ax",%progbits
  16              		.align	2
  17              		.global	spi_lld_serve_interrupt
  18              		.arch armv6kz
  19              		.syntax unified
  20              		.arm
  21              		.fpu softvfp
  22              		.type	spi_lld_serve_interrupt, %function
  23              	spi_lld_serve_interrupt:
  24              	.LVL0:
  25              	.LFB7:
  26              		.file 1 "../../os/hal/platforms/BCM2835/spi_lld.c"
  27              		.loc 1 75 47 view -0
  28              		.cfi_startproc
  29              		@ args = 0, pretend = 0, frame = 0
  30              		@ frame_needed = 0, uses_anonymous_args = 0
  31              		.loc 1 76 3 view .LVU1
  32              		.loc 1 76 7 is_stmt 0 view .LVU2
  33 0000 6C319FE5 		ldr	r3, .L54
  34 0004 083293E5 		ldr	r3, [r3, #520]
  35              		.loc 1 76 6 view .LVU3
  36 0008 010513E3 		tst	r3, #4194304
  37 000c 1EFF2F01 		bxeq	lr
  38              		.loc 1 77 5 is_stmt 1 view .LVU4
  39              		.loc 1 77 9 is_stmt 0 view .LVU5
  40 0010 60319FE5 		ldr	r3, .L54+4
  41              		.loc 1 75 47 view .LVU6
  42 0014 10402DE9 		push	{r4, lr}
  43              		.cfi_def_cfa_offset 8
  44              		.cfi_offset 4, -8
  45              		.cfi_offset 14, -4
  46              		.loc 1 77 9 view .LVU7
  47 0018 002093E5 		ldr	r2, [r3]
  48 001c 0040A0E1 		mov	r4, r0
  49              		.loc 1 77 8 view .LVU8
  50 0020 010812E3 		tst	r2, #65536
  51 0024 1700000A 		beq	.L4
  52              	.LBB8:
  53              		.loc 1 78 7 is_stmt 1 view .LVU9
  54              	.LVL1:
  55              		.loc 1 79 7 view .LVU10
  56              		.loc 1 79 11 is_stmt 0 view .LVU11
  57 0028 242090E5 		ldr	r2, [r0, #36]
ARM GAS  /var/folders/l5/0x54b2c10074c8bt31ycjvl80000gp/T//cchcLbgS.s 			page 2


  58              		.loc 1 79 10 view .LVU12
  59 002c 000052E3 		cmp	r2, #0
  60 0030 2400000A 		beq	.L13
  61              		.loc 1 81 2 is_stmt 1 view .LVU13
  62              		.loc 1 81 18 is_stmt 0 view .LVU14
  63 0034 041090E5 		ldr	r1, [r0, #4]
  64 0038 200090E5 		ldr	r0, [r0, #32]
  65              	.LVL2:
  66              		.loc 1 81 5 view .LVU15
  67 003c 0410D1E5 		ldrb	r1, [r1, #4]	@ zero_extendqisi2
  68 0040 000051E3 		cmp	r1, #0
  69              	.LBB9:
  70              		.loc 1 84 12 view .LVU16
  71 0044 001093E5 		ldr	r1, [r3]
  72              	.LBE9:
  73              		.loc 1 81 5 view .LVU17
  74 0048 3900000A 		beq	.L6
  75              	.LBB10:
  76              		.loc 1 83 4 is_stmt 1 view .LVU18
  77              	.LVL3:
  78              		.loc 1 84 4 view .LVU19
  79              		.loc 1 84 10 is_stmt 0 view .LVU20
  80 004c 010711E3 		tst	r1, #262144
  81 0050 0C00000A 		beq	.L4
  82              		.loc 1 83 14 view .LVU21
  83 0054 0010A0E1 		mov	r1, r0
  84 0058 010000EA 		b	.L10
  85              	.LVL4:
  86              	.L9:
  87              		.loc 1 84 34 discriminator 1 view .LVU22
  88 005c 000052E3 		cmp	r2, #0
  89 0060 0700000A 		beq	.L51
  90              	.LVL5:
  91              	.L10:
  92              		.loc 1 85 6 is_stmt 1 view .LVU23
  93              		.loc 1 85 51 is_stmt 0 view .LVU24
  94 0064 000050E3 		cmp	r0, #0
  95              		.loc 1 85 51 view .LVU25
  96 0068 00C0A001 		moveq	ip, r0
  97 006c B2C0D110 		ldrhne	ip, [r1], #2
  98              	.LVL6:
  99              		.loc 1 86 13 view .LVU26
 100 0070 022042E2 		sub	r2, r2, #2
 101              		.loc 1 85 16 view .LVU27
 102 0074 04C083E5 		str	ip, [r3, #4]
 103              		.loc 1 86 6 is_stmt 1 view .LVU28
 104              		.loc 1 84 12 is_stmt 0 view .LVU29
 105 0078 00C093E5 		ldr	ip, [r3]
 106              		.loc 1 84 10 view .LVU30
 107 007c 01071CE3 		tst	ip, #262144
 108 0080 F5FFFF1A 		bne	.L9
 109              	.L51:
 110 0084 242084E5 		str	r2, [r4, #36]
 111              	.LVL7:
 112              	.L4:
 113              		.loc 1 84 10 view .LVU31
 114              	.LBE10:
ARM GAS  /var/folders/l5/0x54b2c10074c8bt31ycjvl80000gp/T//cchcLbgS.s 			page 3


 115              	.LBB11:
 116              		.loc 1 102 2 is_stmt 1 discriminator 7 view .LVU32
 117              		.loc 1 102 2 discriminator 7 view .LVU33
 118              		.loc 1 102 2 discriminator 7 view .LVU34
 119              	.LBE11:
 120              		.loc 1 102 2 discriminator 7 view .LVU35
 121              		.loc 1 102 21 discriminator 7 view .LVU36
 122              	.LBE8:
 123              		.loc 1 106 5 discriminator 7 view .LVU37
 124              		.loc 1 106 9 is_stmt 0 discriminator 7 view .LVU38
 125 0088 E8309FE5 		ldr	r3, .L54+4
 126 008c 002093E5 		ldr	r2, [r3]
 127              		.loc 1 106 8 discriminator 7 view .LVU39
 128 0090 020712E3 		tst	r2, #524288
 129 0094 1080BD08 		popeq	{r4, pc}
 130              	.L19:
 131              	.LBB15:
 132              		.loc 1 107 7 is_stmt 1 discriminator 3 view .LVU40
 133              	.LBE15:
 134 0098 002093E5 		ldr	r2, [r3]
 135 009c 020812E3 		tst	r2, #131072
 136 00a0 1080BD08 		popeq	{r4, pc}
 137              	.LBB16:
 138              		.loc 1 107 7 is_stmt 0 discriminator 4 view .LVU41
 139 00a4 1C2094E5 		ldr	r2, [r4, #28]
 140 00a8 041093E5 		ldr	r1, [r3, #4]
 141              	.LVL8:
 142              		.loc 1 107 7 is_stmt 1 discriminator 4 view .LVU42
 143              		.loc 1 107 7 discriminator 4 view .LVU43
 144 00ac 000052E3 		cmp	r2, #0
 145              		.loc 1 107 7 discriminator 4 view .LVU44
 146              	.LVL9:
 147              		.loc 1 107 7 is_stmt 0 discriminator 4 view .LVU45
 148 00b0 0010C215 		strbne	r1, [r2]
 149 00b4 F7FFFFEA 		b	.L19
 150              	.LVL10:
 151              	.L14:
 152              		.loc 1 107 7 discriminator 4 view .LVU46
 153              	.LBE16:
 154              	.LBB17:
 155              	.LBB12:
 156              		.loc 1 99 2 discriminator 4 view .LVU47
 157 00b8 1C2094E5 		ldr	r2, [r4, #28]
 158 00bc 041093E5 		ldr	r1, [r3, #4]
 159              	.LVL11:
 160              		.loc 1 99 2 is_stmt 1 discriminator 4 view .LVU48
 161              		.loc 1 99 2 discriminator 4 view .LVU49
 162 00c0 000052E3 		cmp	r2, #0
 163              		.loc 1 99 2 discriminator 4 view .LVU50
 164              	.LVL12:
 165              		.loc 1 99 2 is_stmt 0 discriminator 4 view .LVU51
 166 00c4 0010C215 		strbne	r1, [r2]
 167              	.LVL13:
 168              	.L13:
 169              		.loc 1 99 2 is_stmt 1 discriminator 3 view .LVU52
 170              	.LBE12:
 171 00c8 002093E5 		ldr	r2, [r3]
ARM GAS  /var/folders/l5/0x54b2c10074c8bt31ycjvl80000gp/T//cchcLbgS.s 			page 4


 172 00cc 020812E3 		tst	r2, #131072
 173 00d0 F8FFFF1A 		bne	.L14
 174              		.loc 1 99 17 discriminator 5 view .LVU53
 175              		.loc 1 101 2 discriminator 5 view .LVU54
 176              		.loc 1 102 2 is_stmt 0 discriminator 5 view .LVU55
 177 00d4 041094E5 		ldr	r1, [r4, #4]
 178              		.loc 1 101 10 discriminator 5 view .LVU56
 179 00d8 002093E5 		ldr	r2, [r3]
 180              		.loc 1 102 2 discriminator 5 view .LVU57
 181 00dc 001091E5 		ldr	r1, [r1]
 182              		.loc 1 101 10 discriminator 5 view .LVU58
 183 00e0 1A2DC2E3 		bic	r2, r2, #1664
 184              		.loc 1 102 2 discriminator 5 view .LVU59
 185 00e4 000051E3 		cmp	r1, #0
 186              		.loc 1 101 10 discriminator 5 view .LVU60
 187 00e8 002083E5 		str	r2, [r3]
 188              		.loc 1 102 2 is_stmt 1 discriminator 5 view .LVU61
 189 00ec 0D00000A 		beq	.L15
 190              		.loc 1 102 2 discriminator 1 view .LVU62
 191 00f0 0430A0E3 		mov	r3, #4
 192 00f4 0400A0E1 		mov	r0, r4
 193              	.LVL14:
 194              		.loc 1 102 2 is_stmt 0 discriminator 1 view .LVU63
 195 00f8 0030C4E5 		strb	r3, [r4]
 196              		.loc 1 102 2 is_stmt 1 discriminator 1 view .LVU64
 197 00fc 31FF2FE1 		blx	r1
 198              	.LVL15:
 199              		.loc 1 102 2 discriminator 1 view .LVU65
 200 0100 0030D4E5 		ldrb	r3, [r4]	@ zero_extendqisi2
 201 0104 040053E3 		cmp	r3, #4
 202 0108 0600000A 		beq	.L15
 203              	.L16:
 204              		.loc 1 102 2 discriminator 4 view .LVU66
 205 010c 080094E5 		ldr	r0, [r4, #8]
 206 0110 000050E3 		cmp	r0, #0
 207 0114 DBFFFF0A 		beq	.L4
 208              	.LBB13:
 209              		.loc 1 102 2 discriminator 5 view .LVU67
 210              	.LVL16:
 211              		.loc 1 102 2 discriminator 5 view .LVU68
 212 0118 0030A0E3 		mov	r3, #0
 213 011c 083084E5 		str	r3, [r4, #8]
 214              		.loc 1 102 2 discriminator 5 view .LVU69
 215              		.loc 1 102 2 discriminator 5 view .LVU70
 216              		.loc 1 102 2 discriminator 5 view .LVU71
 217              		.loc 1 102 2 discriminator 5 view .LVU72
 218 0120 FEFFFFEB 		bl	chSchReadyI
 219              	.LVL17:
 220              		.loc 1 102 2 is_stmt 0 discriminator 5 view .LVU73
 221 0124 D7FFFFEA 		b	.L4
 222              	.L15:
 223              		.loc 1 102 2 discriminator 5 view .LVU74
 224              	.LBE13:
 225              		.loc 1 102 2 is_stmt 1 discriminator 3 view .LVU75
 226 0128 0230A0E3 		mov	r3, #2
 227 012c 0030C4E5 		strb	r3, [r4]
 228 0130 F5FFFFEA 		b	.L16
ARM GAS  /var/folders/l5/0x54b2c10074c8bt31ycjvl80000gp/T//cchcLbgS.s 			page 5


 229              	.L6:
 230              	.LBB14:
 231              		.loc 1 90 4 view .LVU76
 232              	.LVL18:
 233              		.loc 1 91 4 view .LVU77
 234              		.loc 1 91 10 is_stmt 0 view .LVU78
 235 0134 010711E3 		tst	r1, #262144
 236 0138 D2FFFF0A 		beq	.L4
 237              		.loc 1 90 13 view .LVU79
 238 013c 0010A0E1 		mov	r1, r0
 239 0140 010000EA 		b	.L12
 240              	.LVL19:
 241              	.L53:
 242              		.loc 1 91 34 discriminator 1 view .LVU80
 243 0144 000052E3 		cmp	r2, #0
 244 0148 CEFFFF0A 		beq	.L4
 245              	.LVL20:
 246              	.L12:
 247              		.loc 1 92 6 is_stmt 1 view .LVU81
 248              		.loc 1 92 51 is_stmt 0 view .LVU82
 249 014c 000050E3 		cmp	r0, #0
 250              		.loc 1 92 51 view .LVU83
 251 0150 00C0A001 		moveq	ip, r0
 252 0154 01C0D114 		ldrbne	ip, [r1], #1	@ zero_extendqisi2
 253              	.LVL21:
 254              		.loc 1 93 6 view .LVU84
 255 0158 012042E2 		sub	r2, r2, #1
 256              		.loc 1 92 16 view .LVU85
 257 015c 04C083E5 		str	ip, [r3, #4]
 258              		.loc 1 93 6 is_stmt 1 view .LVU86
 259              		.loc 1 91 12 is_stmt 0 view .LVU87
 260 0160 00C093E5 		ldr	ip, [r3]
 261              		.loc 1 93 6 view .LVU88
 262 0164 242084E5 		str	r2, [r4, #36]
 263              		.loc 1 91 10 view .LVU89
 264 0168 01071CE3 		tst	ip, #262144
 265 016c F4FFFF1A 		bne	.L53
 266 0170 C4FFFFEA 		b	.L4
 267              	.L55:
 268              		.align	2
 269              	.L54:
 270 0174 00B00020 		.word	536915968
 271 0178 00402020 		.word	538984448
 272              	.LBE14:
 273              	.LBE17:
 274              		.cfi_endproc
 275              	.LFE7:
 276              		.size	spi_lld_serve_interrupt, .-spi_lld_serve_interrupt
 277              		.section	.text.spi_lld_init,"ax",%progbits
 278              		.align	2
 279              		.global	spi_lld_init
 280              		.syntax unified
 281              		.arm
 282              		.fpu softvfp
 283              		.type	spi_lld_init, %function
 284              	spi_lld_init:
 285              	.LFB8:
ARM GAS  /var/folders/l5/0x54b2c10074c8bt31ycjvl80000gp/T//cchcLbgS.s 			page 6


 286              		.loc 1 121 25 is_stmt 1 view -0
 287              		.cfi_startproc
 288              		@ args = 0, pretend = 0, frame = 0
 289              		@ frame_needed = 0, uses_anonymous_args = 0
 290              		@ link register save eliminated.
 291              		.loc 1 122 3 view .LVU91
 292 0000 00009FE5 		ldr	r0, .L57
 293 0004 FEFFFFEA 		b	spiObjectInit
 294              	.LVL22:
 295              	.L58:
 296              		.align	2
 297              	.L57:
 298 0008 00000000 		.word	SPI0
 299              		.cfi_endproc
 300              	.LFE8:
 301              		.size	spi_lld_init, .-spi_lld_init
 302              		.section	.text.spi_lld_start,"ax",%progbits
 303              		.align	2
 304              		.global	spi_lld_start
 305              		.syntax unified
 306              		.arm
 307              		.fpu softvfp
 308              		.type	spi_lld_start, %function
 309              	spi_lld_start:
 310              	.LVL23:
 311              	.LFB9:
 312              		.loc 1 132 37 view -0
 313              		.cfi_startproc
 314              		@ args = 0, pretend = 0, frame = 0
 315              		@ frame_needed = 0, uses_anonymous_args = 0
 316              		.loc 1 133 3 view .LVU93
 317              		.loc 1 135 3 view .LVU94
 318              		.loc 1 132 37 is_stmt 0 view .LVU95
 319 0000 10402DE9 		push	{r4, lr}
 320              		.cfi_def_cfa_offset 8
 321              		.cfi_offset 4, -8
 322              		.cfi_offset 14, -4
 323              		.loc 1 132 37 view .LVU96
 324 0004 0040A0E1 		mov	r4, r0
 325              		.loc 1 135 16 view .LVU97
 326 0008 AC209FE5 		ldr	r2, .L83
 327              		.loc 1 138 3 view .LVU98
 328 000c 0410A0E3 		mov	r1, #4
 329              		.loc 1 135 16 view .LVU99
 330 0010 203292E5 		ldr	r3, [r2, #544]
 331              		.loc 1 138 3 view .LVU100
 332 0014 0700A0E3 		mov	r0, #7
 333              	.LVL24:
 334              		.loc 1 135 16 view .LVU101
 335 0018 013583E3 		orr	r3, r3, #4194304
 336 001c 203282E5 		str	r3, [r2, #544]
 337              		.loc 1 138 3 is_stmt 1 view .LVU102
 338 0020 FEFFFFEB 		bl	bcm2835_gpio_fnsel
 339              	.LVL25:
 340              		.loc 1 139 3 view .LVU103
 341 0024 0410A0E3 		mov	r1, #4
 342 0028 0800A0E3 		mov	r0, #8
ARM GAS  /var/folders/l5/0x54b2c10074c8bt31ycjvl80000gp/T//cchcLbgS.s 			page 7


 343 002c FEFFFFEB 		bl	bcm2835_gpio_fnsel
 344              	.LVL26:
 345              		.loc 1 140 3 view .LVU104
 346 0030 0410A0E3 		mov	r1, #4
 347 0034 0900A0E3 		mov	r0, #9
 348 0038 FEFFFFEB 		bl	bcm2835_gpio_fnsel
 349              	.LVL27:
 350              		.loc 1 141 3 view .LVU105
 351 003c 0410A0E3 		mov	r1, #4
 352 0040 0A00A0E3 		mov	r0, #10
 353 0044 FEFFFFEB 		bl	bcm2835_gpio_fnsel
 354              	.LVL28:
 355              		.loc 1 142 3 view .LVU106
 356 0048 0410A0E3 		mov	r1, #4
 357 004c 0B00A0E3 		mov	r0, #11
 358 0050 FEFFFFEB 		bl	bcm2835_gpio_fnsel
 359              	.LVL29:
 360              		.loc 1 144 3 view .LVU107
 361              		.loc 1 147 3 view .LVU108
 362              		.loc 1 149 3 view .LVU109
 363              		.loc 1 149 20 is_stmt 0 view .LVU110
 364 0054 042094E5 		ldr	r2, [r4, #4]
 365              	.LVL30:
 366              		.loc 1 151 3 is_stmt 1 view .LVU111
 367              		.loc 1 151 6 is_stmt 0 view .LVU112
 368 0058 0930D2E5 		ldrb	r3, [r2, #9]	@ zero_extendqisi2
 369              		.loc 1 154 6 view .LVU113
 370 005c 0A10D2E5 		ldrb	r1, [r2, #10]	@ zero_extendqisi2
 371              		.loc 1 152 13 view .LVU114
 372 0060 000053E3 		cmp	r3, #0
 373 0064 0830A013 		movne	r3, #8
 374 0068 0030A003 		moveq	r3, #0
 375              	.LVL31:
 376              		.loc 1 154 3 is_stmt 1 view .LVU115
 377              		.loc 1 154 6 is_stmt 0 view .LVU116
 378 006c 000051E3 		cmp	r1, #0
 379              		.loc 1 155 5 is_stmt 1 view .LVU117
 380              		.loc 1 157 6 is_stmt 0 view .LVU118
 381 0070 0610D2E5 		ldrb	r1, [r2, #6]	@ zero_extendqisi2
 382              		.loc 1 155 13 view .LVU119
 383 0074 04308313 		orrne	r3, r3, #4
 384              	.LVL32:
 385              		.loc 1 157 3 is_stmt 1 view .LVU120
 386              		.loc 1 157 6 is_stmt 0 view .LVU121
 387 0078 000051E3 		cmp	r1, #0
 388              		.loc 1 158 5 is_stmt 1 view .LVU122
 389              		.loc 1 160 6 is_stmt 0 view .LVU123
 390 007c 0710D2E5 		ldrb	r1, [r2, #7]	@ zero_extendqisi2
 391              		.loc 1 158 13 view .LVU124
 392 0080 40308313 		orrne	r3, r3, #64
 393              	.LVL33:
 394              		.loc 1 160 3 is_stmt 1 view .LVU125
 395              		.loc 1 160 6 is_stmt 0 view .LVU126
 396 0084 000051E3 		cmp	r1, #0
 397              		.loc 1 161 5 is_stmt 1 view .LVU127
 398              		.loc 1 163 6 is_stmt 0 view .LVU128
 399 0088 0810D2E5 		ldrb	r1, [r2, #8]	@ zero_extendqisi2
ARM GAS  /var/folders/l5/0x54b2c10074c8bt31ycjvl80000gp/T//cchcLbgS.s 			page 8


 400              		.loc 1 161 13 view .LVU129
 401 008c 02368313 		orrne	r3, r3, #2097152
 402              	.LVL34:
 403              		.loc 1 163 3 is_stmt 1 view .LVU130
 404              		.loc 1 163 6 is_stmt 0 view .LVU131
 405 0090 000051E3 		cmp	r1, #0
 406              		.loc 1 164 5 is_stmt 1 view .LVU132
 407              		.loc 1 166 6 is_stmt 0 view .LVU133
 408 0094 0410D2E5 		ldrb	r1, [r2, #4]	@ zero_extendqisi2
 409              		.loc 1 164 13 view .LVU134
 410 0098 01358313 		orrne	r3, r3, #4194304
 411              	.LVL35:
 412              		.loc 1 166 3 is_stmt 1 view .LVU135
 413              		.loc 1 166 6 is_stmt 0 view .LVU136
 414 009c 000051E3 		cmp	r1, #0
 415              		.loc 1 167 5 is_stmt 1 view .LVU137
 416              		.loc 1 167 13 is_stmt 0 view .LVU138
 417 00a0 023A8313 		orrne	r3, r3, #8192
 418              	.LVL36:
 419              		.loc 1 170 3 is_stmt 1 view .LVU139
 420              		.loc 1 170 11 is_stmt 0 view .LVU140
 421 00a4 14109FE5 		ldr	r1, .L83+4
 422              		.loc 1 170 39 view .LVU141
 423 00a8 303083E3 		orr	r3, r3, #48
 424              	.LVL37:
 425              		.loc 1 170 11 view .LVU142
 426 00ac 003081E5 		str	r3, [r1]
 427              	.LVL38:
 428              		.loc 1 172 3 is_stmt 1 view .LVU143
 429              		.loc 1 172 17 is_stmt 0 view .LVU144
 430 00b0 0C3092E5 		ldr	r3, [r2, #12]
 431              		.loc 1 172 12 view .LVU145
 432 00b4 083081E5 		str	r3, [r1, #8]
 433              		.loc 1 173 1 view .LVU146
 434 00b8 1080BDE8 		pop	{r4, pc}
 435              	.L84:
 436              		.align	2
 437              	.L83:
 438 00bc 00B00020 		.word	536915968
 439 00c0 00402020 		.word	538984448
 440              		.cfi_endproc
 441              	.LFE9:
 442              		.size	spi_lld_start, .-spi_lld_start
 443              		.section	.text.spi_lld_stop,"ax",%progbits
 444              		.align	2
 445              		.global	spi_lld_stop
 446              		.syntax unified
 447              		.arm
 448              		.fpu softvfp
 449              		.type	spi_lld_stop, %function
 450              	spi_lld_stop:
 451              	.LVL39:
 452              	.LFB10:
 453              		.loc 1 182 36 is_stmt 1 view -0
 454              		.cfi_startproc
 455              		@ args = 0, pretend = 0, frame = 0
 456              		@ frame_needed = 0, uses_anonymous_args = 0
ARM GAS  /var/folders/l5/0x54b2c10074c8bt31ycjvl80000gp/T//cchcLbgS.s 			page 9


 457              		.loc 1 183 3 view .LVU148
 458              		.loc 1 185 3 view .LVU149
 459              		.loc 1 185 16 is_stmt 0 view .LVU150
 460 0000 4C209FE5 		ldr	r2, .L87
 461              		.loc 1 182 36 view .LVU151
 462 0004 10402DE9 		push	{r4, lr}
 463              		.cfi_def_cfa_offset 8
 464              		.cfi_offset 4, -8
 465              		.cfi_offset 14, -4
 466              		.loc 1 185 16 view .LVU152
 467 0008 203292E5 		ldr	r3, [r2, #544]
 468              		.loc 1 188 3 view .LVU153
 469 000c 0010A0E3 		mov	r1, #0
 470              		.loc 1 185 16 view .LVU154
 471 0010 013583E3 		orr	r3, r3, #4194304
 472 0014 203282E5 		str	r3, [r2, #544]
 473              		.loc 1 188 3 is_stmt 1 view .LVU155
 474 0018 0700A0E3 		mov	r0, #7
 475              	.LVL40:
 476              		.loc 1 188 3 is_stmt 0 view .LVU156
 477 001c FEFFFFEB 		bl	bcm2835_gpio_fnsel
 478              	.LVL41:
 479              		.loc 1 189 3 is_stmt 1 view .LVU157
 480 0020 0010A0E3 		mov	r1, #0
 481 0024 0800A0E3 		mov	r0, #8
 482 0028 FEFFFFEB 		bl	bcm2835_gpio_fnsel
 483              	.LVL42:
 484              		.loc 1 190 3 view .LVU158
 485 002c 0010A0E3 		mov	r1, #0
 486 0030 0900A0E3 		mov	r0, #9
 487 0034 FEFFFFEB 		bl	bcm2835_gpio_fnsel
 488              	.LVL43:
 489              		.loc 1 191 3 view .LVU159
 490 0038 0010A0E3 		mov	r1, #0
 491 003c 0A00A0E3 		mov	r0, #10
 492 0040 FEFFFFEB 		bl	bcm2835_gpio_fnsel
 493              	.LVL44:
 494              		.loc 1 192 3 view .LVU160
 495              		.loc 1 193 1 is_stmt 0 view .LVU161
 496 0044 1040BDE8 		pop	{r4, lr}
 497              		.cfi_restore 14
 498              		.cfi_restore 4
 499              		.cfi_def_cfa_offset 0
 500              		.loc 1 192 3 view .LVU162
 501 0048 0010A0E3 		mov	r1, #0
 502 004c 0B00A0E3 		mov	r0, #11
 503 0050 FEFFFFEA 		b	bcm2835_gpio_fnsel
 504              	.LVL45:
 505              	.L88:
 506              		.align	2
 507              	.L87:
 508 0054 00B00020 		.word	536915968
 509              		.cfi_endproc
 510              	.LFE10:
 511              		.size	spi_lld_stop, .-spi_lld_stop
 512              		.section	.text.spi_lld_select,"ax",%progbits
 513              		.align	2
ARM GAS  /var/folders/l5/0x54b2c10074c8bt31ycjvl80000gp/T//cchcLbgS.s 			page 10


 514              		.global	spi_lld_select
 515              		.syntax unified
 516              		.arm
 517              		.fpu softvfp
 518              		.type	spi_lld_select, %function
 519              	spi_lld_select:
 520              	.LVL46:
 521              	.LFB11:
 522              		.loc 1 202 38 is_stmt 1 view -0
 523              		.cfi_startproc
 524              		@ args = 0, pretend = 0, frame = 0
 525              		@ frame_needed = 0, uses_anonymous_args = 0
 526              		@ link register save eliminated.
 527              		.loc 1 203 3 view .LVU164
 528              		.loc 1 205 22 is_stmt 0 view .LVU165
 529 0000 043090E5 		ldr	r3, [r0, #4]
 530              		.loc 1 203 12 view .LVU166
 531 0004 18109FE5 		ldr	r1, .L90
 532              		.loc 1 205 36 view .LVU167
 533 0008 0530D3E5 		ldrb	r3, [r3, #5]	@ zero_extendqisi2
 534              		.loc 1 203 12 view .LVU168
 535 000c 002091E5 		ldr	r2, [r1]
 536              	.LVL47:
 537              		.loc 1 204 3 is_stmt 1 view .LVU169
 538              		.loc 1 205 36 is_stmt 0 view .LVU170
 539 0010 033003E2 		and	r3, r3, #3
 540              		.loc 1 204 6 view .LVU171
 541 0014 0320C2E3 		bic	r2, r2, #3
 542              	.LVL48:
 543              		.loc 1 205 3 is_stmt 1 view .LVU172
 544              		.loc 1 205 6 is_stmt 0 view .LVU173
 545 0018 023083E1 		orr	r3, r3, r2
 546              	.LVL49:
 547              		.loc 1 206 3 is_stmt 1 view .LVU174
 548              		.loc 1 206 11 is_stmt 0 view .LVU175
 549 001c 003081E5 		str	r3, [r1]
 550              		.loc 1 207 1 view .LVU176
 551 0020 1EFF2FE1 		bx	lr
 552              	.L91:
 553              		.align	2
 554              	.L90:
 555 0024 00402020 		.word	538984448
 556              		.cfi_endproc
 557              	.LFE11:
 558              		.size	spi_lld_select, .-spi_lld_select
 559              		.section	.text.spi_lld_unselect,"ax",%progbits
 560              		.align	2
 561              		.global	spi_lld_unselect
 562              		.syntax unified
 563              		.arm
 564              		.fpu softvfp
 565              		.type	spi_lld_unselect, %function
 566              	spi_lld_unselect:
 567              	.LVL50:
 568              	.LFB12:
 569              		.loc 1 217 40 is_stmt 1 view -0
 570              		.cfi_startproc
ARM GAS  /var/folders/l5/0x54b2c10074c8bt31ycjvl80000gp/T//cchcLbgS.s 			page 11


 571              		@ args = 0, pretend = 0, frame = 0
 572              		@ frame_needed = 0, uses_anonymous_args = 0
 573              		@ link register save eliminated.
 574              		.loc 1 218 3 view .LVU178
 575              		.loc 1 223 3 view .LVU179
 576              		.loc 1 223 11 is_stmt 0 view .LVU180
 577 0000 0C209FE5 		ldr	r2, .L93
 578 0004 003092E5 		ldr	r3, [r2]
 579 0008 0330C3E3 		bic	r3, r3, #3
 580 000c 003082E5 		str	r3, [r2]
 581              		.loc 1 224 1 view .LVU181
 582 0010 1EFF2FE1 		bx	lr
 583              	.L94:
 584              		.align	2
 585              	.L93:
 586 0014 00402020 		.word	538984448
 587              		.cfi_endproc
 588              	.LFE12:
 589              		.size	spi_lld_unselect, .-spi_lld_unselect
 590              		.section	.text.spi_lld_ignore,"ax",%progbits
 591              		.align	2
 592              		.global	spi_lld_ignore
 593              		.syntax unified
 594              		.arm
 595              		.fpu softvfp
 596              		.type	spi_lld_ignore, %function
 597              	spi_lld_ignore:
 598              	.LVL51:
 599              	.LFB13:
 600              		.loc 1 237 48 is_stmt 1 view -0
 601              		.cfi_startproc
 602              		@ args = 0, pretend = 0, frame = 0
 603              		@ frame_needed = 0, uses_anonymous_args = 0
 604              		.loc 1 238 3 view .LVU183
 605              	.LBB18:
 606              	.LBI18:
 607              		.loc 1 256 6 view .LVU184
 608              	.LBB19:
 609              		.loc 1 259 3 view .LVU185
 610              	.LBE19:
 611              	.LBE18:
 612              		.loc 1 237 48 is_stmt 0 view .LVU186
 613 0000 04E02DE5 		str	lr, [sp, #-4]!
 614              		.cfi_def_cfa_offset 4
 615              		.cfi_offset 14, -4
 616              	.LBB21:
 617              	.LBB20:
 618              		.loc 1 261 15 view .LVU187
 619 0004 00E0A0E3 		mov	lr, #0
 620              		.loc 1 259 11 view .LVU188
 621 0008 34309FE5 		ldr	r3, .L97
 622              		.loc 1 267 15 view .LVU189
 623 000c 34C09FE5 		ldr	ip, .L97+4
 624              		.loc 1 259 11 view .LVU190
 625 0010 002093E5 		ldr	r2, [r3]
 626 0014 302082E3 		orr	r2, r2, #48
 627 0018 002083E5 		str	r2, [r3]
ARM GAS  /var/folders/l5/0x54b2c10074c8bt31ycjvl80000gp/T//cchcLbgS.s 			page 12


 628              		.loc 1 261 3 is_stmt 1 view .LVU191
 629              		.loc 1 266 11 is_stmt 0 view .LVU192
 630 001c 002093E5 		ldr	r2, [r3]
 631              		.loc 1 262 15 view .LVU193
 632 0020 241080E5 		str	r1, [r0, #36]
 633              		.loc 1 266 11 view .LVU194
 634 0024 1A2D82E3 		orr	r2, r2, #1664
 635              		.loc 1 261 15 view .LVU195
 636 0028 20E080E5 		str	lr, [r0, #32]
 637              		.loc 1 262 3 is_stmt 1 view .LVU196
 638              		.loc 1 263 3 view .LVU197
 639              		.loc 1 263 15 is_stmt 0 view .LVU198
 640 002c 1CE080E5 		str	lr, [r0, #28]
 641              		.loc 1 266 3 is_stmt 1 view .LVU199
 642              		.loc 1 266 11 is_stmt 0 view .LVU200
 643 0030 002083E5 		str	r2, [r3]
 644              		.loc 1 267 3 is_stmt 1 view .LVU201
 645              		.loc 1 267 15 is_stmt 0 view .LVU202
 646 0034 14329CE5 		ldr	r3, [ip, #532]
 647 0038 013583E3 		orr	r3, r3, #4194304
 648 003c 14328CE5 		str	r3, [ip, #532]
 649              	.LVL52:
 650              		.loc 1 267 15 view .LVU203
 651              	.LBE20:
 652              	.LBE21:
 653              		.loc 1 239 1 view .LVU204
 654 0040 04F09DE4 		ldr	pc, [sp], #4
 655              	.L98:
 656              		.align	2
 657              	.L97:
 658 0044 00402020 		.word	538984448
 659 0048 00B00020 		.word	536915968
 660              		.cfi_endproc
 661              	.LFE13:
 662              		.size	spi_lld_ignore, .-spi_lld_ignore
 663              		.section	.text.spi_lld_exchange,"ax",%progbits
 664              		.align	2
 665              		.global	spi_lld_exchange
 666              		.syntax unified
 667              		.arm
 668              		.fpu softvfp
 669              		.type	spi_lld_exchange, %function
 670              	spi_lld_exchange:
 671              	.LVL53:
 672              	.LFB14:
 673              		.loc 1 257 55 is_stmt 1 view -0
 674              		.cfi_startproc
 675              		@ args = 0, pretend = 0, frame = 0
 676              		@ frame_needed = 0, uses_anonymous_args = 0
 677              		.loc 1 259 3 view .LVU206
 678              		.loc 1 259 11 is_stmt 0 view .LVU207
 679 0000 38C09FE5 		ldr	ip, .L101
 680              		.loc 1 257 55 view .LVU208
 681 0004 10402DE9 		push	{r4, lr}
 682              		.cfi_def_cfa_offset 8
 683              		.cfi_offset 4, -8
 684              		.cfi_offset 14, -4
ARM GAS  /var/folders/l5/0x54b2c10074c8bt31ycjvl80000gp/T//cchcLbgS.s 			page 13


 685              		.loc 1 259 11 view .LVU209
 686 0008 00E09CE5 		ldr	lr, [ip]
 687              		.loc 1 267 15 view .LVU210
 688 000c 30409FE5 		ldr	r4, .L101+4
 689              		.loc 1 259 11 view .LVU211
 690 0010 30E08EE3 		orr	lr, lr, #48
 691 0014 00E08CE5 		str	lr, [ip]
 692              		.loc 1 261 3 is_stmt 1 view .LVU212
 693              		.loc 1 266 11 is_stmt 0 view .LVU213
 694 0018 00E09CE5 		ldr	lr, [ip]
 695              		.loc 1 263 15 view .LVU214
 696 001c 1C3080E5 		str	r3, [r0, #28]
 697              		.loc 1 266 11 view .LVU215
 698 0020 1AED8EE3 		orr	lr, lr, #1664
 699              		.loc 1 261 15 view .LVU216
 700 0024 202080E5 		str	r2, [r0, #32]
 701              		.loc 1 262 3 is_stmt 1 view .LVU217
 702              		.loc 1 262 15 is_stmt 0 view .LVU218
 703 0028 241080E5 		str	r1, [r0, #36]
 704              		.loc 1 263 3 is_stmt 1 view .LVU219
 705              		.loc 1 266 3 view .LVU220
 706              		.loc 1 266 11 is_stmt 0 view .LVU221
 707 002c 00E08CE5 		str	lr, [ip]
 708              		.loc 1 267 3 is_stmt 1 view .LVU222
 709              		.loc 1 267 15 is_stmt 0 view .LVU223
 710 0030 143294E5 		ldr	r3, [r4, #532]
 711              	.LVL54:
 712              		.loc 1 267 15 view .LVU224
 713 0034 013583E3 		orr	r3, r3, #4194304
 714 0038 143284E5 		str	r3, [r4, #532]
 715              		.loc 1 268 1 view .LVU225
 716 003c 1080BDE8 		pop	{r4, pc}
 717              	.L102:
 718              		.align	2
 719              	.L101:
 720 0040 00402020 		.word	538984448
 721 0044 00B00020 		.word	536915968
 722              		.cfi_endproc
 723              	.LFE14:
 724              		.size	spi_lld_exchange, .-spi_lld_exchange
 725              		.section	.text.spi_lld_send,"ax",%progbits
 726              		.align	2
 727              		.global	spi_lld_send
 728              		.syntax unified
 729              		.arm
 730              		.fpu softvfp
 731              		.type	spi_lld_send, %function
 732              	spi_lld_send:
 733              	.LVL55:
 734              	.LFB15:
 735              		.loc 1 283 65 is_stmt 1 view -0
 736              		.cfi_startproc
 737              		@ args = 0, pretend = 0, frame = 0
 738              		@ frame_needed = 0, uses_anonymous_args = 0
 739              		.loc 1 284 3 view .LVU227
 740              	.LBB22:
 741              	.LBI22:
ARM GAS  /var/folders/l5/0x54b2c10074c8bt31ycjvl80000gp/T//cchcLbgS.s 			page 14


 742              		.loc 1 256 6 view .LVU228
 743              	.LBB23:
 744              		.loc 1 259 3 view .LVU229
 745              	.LBE23:
 746              	.LBE22:
 747              		.loc 1 283 65 is_stmt 0 view .LVU230
 748 0000 04E02DE5 		str	lr, [sp, #-4]!
 749              		.cfi_def_cfa_offset 4
 750              		.cfi_offset 14, -4
 751              	.LBB25:
 752              	.LBB24:
 753              		.loc 1 263 15 view .LVU231
 754 0004 00E0A0E3 		mov	lr, #0
 755              		.loc 1 259 11 view .LVU232
 756 0008 34309FE5 		ldr	r3, .L105
 757 000c 00C093E5 		ldr	ip, [r3]
 758 0010 30C08CE3 		orr	ip, ip, #48
 759 0014 00C083E5 		str	ip, [r3]
 760              		.loc 1 261 3 is_stmt 1 view .LVU233
 761              		.loc 1 266 11 is_stmt 0 view .LVU234
 762 0018 00C093E5 		ldr	ip, [r3]
 763              		.loc 1 261 15 view .LVU235
 764 001c 202080E5 		str	r2, [r0, #32]
 765              		.loc 1 262 3 is_stmt 1 view .LVU236
 766              		.loc 1 266 11 is_stmt 0 view .LVU237
 767 0020 1ACD8CE3 		orr	ip, ip, #1664
 768              		.loc 1 267 15 view .LVU238
 769 0024 1C209FE5 		ldr	r2, .L105+4
 770              	.LVL56:
 771              		.loc 1 262 15 view .LVU239
 772 0028 241080E5 		str	r1, [r0, #36]
 773              		.loc 1 263 3 is_stmt 1 view .LVU240
 774              		.loc 1 263 15 is_stmt 0 view .LVU241
 775 002c 1CE080E5 		str	lr, [r0, #28]
 776              		.loc 1 266 3 is_stmt 1 view .LVU242
 777              		.loc 1 266 11 is_stmt 0 view .LVU243
 778 0030 00C083E5 		str	ip, [r3]
 779              		.loc 1 267 3 is_stmt 1 view .LVU244
 780              		.loc 1 267 15 is_stmt 0 view .LVU245
 781 0034 143292E5 		ldr	r3, [r2, #532]
 782 0038 013583E3 		orr	r3, r3, #4194304
 783 003c 143282E5 		str	r3, [r2, #532]
 784              	.LVL57:
 785              		.loc 1 267 15 view .LVU246
 786              	.LBE24:
 787              	.LBE25:
 788              		.loc 1 285 1 view .LVU247
 789 0040 04F09DE4 		ldr	pc, [sp], #4
 790              	.L106:
 791              		.align	2
 792              	.L105:
 793 0044 00402020 		.word	538984448
 794 0048 00B00020 		.word	536915968
 795              		.cfi_endproc
 796              	.LFE15:
 797              		.size	spi_lld_send, .-spi_lld_send
 798              		.section	.text.spi_lld_receive,"ax",%progbits
ARM GAS  /var/folders/l5/0x54b2c10074c8bt31ycjvl80000gp/T//cchcLbgS.s 			page 15


 799              		.align	2
 800              		.global	spi_lld_receive
 801              		.syntax unified
 802              		.arm
 803              		.fpu softvfp
 804              		.type	spi_lld_receive, %function
 805              	spi_lld_receive:
 806              	.LVL58:
 807              	.LFB16:
 808              		.loc 1 300 62 is_stmt 1 view -0
 809              		.cfi_startproc
 810              		@ args = 0, pretend = 0, frame = 0
 811              		@ frame_needed = 0, uses_anonymous_args = 0
 812              		.loc 1 301 3 view .LVU249
 813              	.LBB26:
 814              	.LBI26:
 815              		.loc 1 256 6 view .LVU250
 816              	.LBB27:
 817              		.loc 1 259 3 view .LVU251
 818              	.LBE27:
 819              	.LBE26:
 820              		.loc 1 300 62 is_stmt 0 view .LVU252
 821 0000 04E02DE5 		str	lr, [sp, #-4]!
 822              		.cfi_def_cfa_offset 4
 823              		.cfi_offset 14, -4
 824              	.LBB29:
 825              	.LBB28:
 826              		.loc 1 261 15 view .LVU253
 827 0004 00E0A0E3 		mov	lr, #0
 828              		.loc 1 259 11 view .LVU254
 829 0008 34309FE5 		ldr	r3, .L109
 830 000c 00C093E5 		ldr	ip, [r3]
 831 0010 30C08CE3 		orr	ip, ip, #48
 832 0014 00C083E5 		str	ip, [r3]
 833              		.loc 1 261 3 is_stmt 1 view .LVU255
 834              		.loc 1 266 11 is_stmt 0 view .LVU256
 835 0018 00C093E5 		ldr	ip, [r3]
 836              		.loc 1 262 15 view .LVU257
 837 001c 241080E5 		str	r1, [r0, #36]
 838              		.loc 1 266 11 view .LVU258
 839 0020 1ACD8CE3 		orr	ip, ip, #1664
 840              		.loc 1 267 15 view .LVU259
 841 0024 1C109FE5 		ldr	r1, .L109+4
 842              	.LVL59:
 843              		.loc 1 263 15 view .LVU260
 844 0028 1C2080E5 		str	r2, [r0, #28]
 845              		.loc 1 261 15 view .LVU261
 846 002c 20E080E5 		str	lr, [r0, #32]
 847              		.loc 1 262 3 is_stmt 1 view .LVU262
 848              		.loc 1 263 3 view .LVU263
 849              		.loc 1 266 3 view .LVU264
 850              		.loc 1 266 11 is_stmt 0 view .LVU265
 851 0030 00C083E5 		str	ip, [r3]
 852              		.loc 1 267 3 is_stmt 1 view .LVU266
 853              		.loc 1 267 15 is_stmt 0 view .LVU267
 854 0034 143291E5 		ldr	r3, [r1, #532]
 855 0038 013583E3 		orr	r3, r3, #4194304
ARM GAS  /var/folders/l5/0x54b2c10074c8bt31ycjvl80000gp/T//cchcLbgS.s 			page 16


 856 003c 143281E5 		str	r3, [r1, #532]
 857              	.LVL60:
 858              		.loc 1 267 15 view .LVU268
 859              	.LBE28:
 860              	.LBE29:
 861              		.loc 1 302 1 view .LVU269
 862 0040 04F09DE4 		ldr	pc, [sp], #4
 863              	.L110:
 864              		.align	2
 865              	.L109:
 866 0044 00402020 		.word	538984448
 867 0048 00B00020 		.word	536915968
 868              		.cfi_endproc
 869              	.LFE16:
 870              		.size	spi_lld_receive, .-spi_lld_receive
 871              		.section	.text.spi_lld_polled_exchange,"ax",%progbits
 872              		.align	2
 873              		.global	spi_lld_polled_exchange
 874              		.syntax unified
 875              		.arm
 876              		.fpu softvfp
 877              		.type	spi_lld_polled_exchange, %function
 878              	spi_lld_polled_exchange:
 879              	.LVL61:
 880              	.LFB17:
 881              		.loc 1 316 67 is_stmt 1 view -0
 882              		.cfi_startproc
 883              		@ args = 0, pretend = 0, frame = 0
 884              		@ frame_needed = 0, uses_anonymous_args = 0
 885              		@ link register save eliminated.
 886              		.loc 1 317 3 view .LVU271
 887              		.loc 1 320 3 view .LVU272
 888              		.loc 1 320 11 is_stmt 0 view .LVU273
 889 0000 44309FE5 		ldr	r3, .L118
 890              		.loc 1 323 12 view .LVU274
 891 0004 0300A0E1 		mov	r0, r3
 892              	.LVL62:
 893              		.loc 1 320 11 view .LVU275
 894 0008 002093E5 		ldr	r2, [r3]
 895 000c B02082E3 		orr	r2, r2, #176
 896 0010 002083E5 		str	r2, [r3]
 897              		.loc 1 323 3 is_stmt 1 view .LVU276
 898              	.L112:
 899              		.loc 1 323 34 discriminator 1 view .LVU277
 900              		.loc 1 323 12 is_stmt 0 discriminator 1 view .LVU278
 901 0014 003090E5 		ldr	r3, [r0]
 902              		.loc 1 323 9 discriminator 1 view .LVU279
 903 0018 010713E3 		tst	r3, #262144
 904 001c FCFFFF0A 		beq	.L112
 905              		.loc 1 326 3 is_stmt 1 view .LVU280
 906              		.loc 1 329 12 is_stmt 0 view .LVU281
 907 0020 24209FE5 		ldr	r2, .L118
 908              		.loc 1 326 13 view .LVU282
 909 0024 041080E5 		str	r1, [r0, #4]
 910              		.loc 1 329 3 is_stmt 1 view .LVU283
 911              	.L113:
 912              		.loc 1 329 35 discriminator 1 view .LVU284
ARM GAS  /var/folders/l5/0x54b2c10074c8bt31ycjvl80000gp/T//cchcLbgS.s 			page 17


 913              		.loc 1 329 12 is_stmt 0 discriminator 1 view .LVU285
 914 0028 003092E5 		ldr	r3, [r2]
 915              		.loc 1 329 9 discriminator 1 view .LVU286
 916 002c 010813E3 		tst	r3, #65536
 917 0030 FCFFFF0A 		beq	.L113
 918              		.loc 1 332 3 is_stmt 1 view .LVU287
 919              		.loc 1 332 21 is_stmt 0 view .LVU288
 920 0034 040092E5 		ldr	r0, [r2, #4]
 921              	.LVL63:
 922              		.loc 1 335 3 is_stmt 1 view .LVU289
 923              		.loc 1 335 11 is_stmt 0 view .LVU290
 924 0038 003092E5 		ldr	r3, [r2]
 925              		.loc 1 338 1 view .LVU291
 926 003c 7000FFE6 		uxth	r0, r0
 927              		.loc 1 335 11 view .LVU292
 928 0040 8030C3E3 		bic	r3, r3, #128
 929 0044 003082E5 		str	r3, [r2]
 930              		.loc 1 337 3 is_stmt 1 view .LVU293
 931              		.loc 1 338 1 is_stmt 0 view .LVU294
 932 0048 1EFF2FE1 		bx	lr
 933              	.L119:
 934              		.align	2
 935              	.L118:
 936 004c 00402020 		.word	538984448
 937              		.cfi_endproc
 938              	.LFE17:
 939              		.size	spi_lld_polled_exchange, .-spi_lld_polled_exchange
 940              		.comm	SPI0,40,4
 941              		.text
 942              	.Letext0:
 943              		.file 2 "/usr/local/Cellar/arm-gcc-bin/8-2019-q3-update/lib/gcc/arm-none-eabi/8.3.1/include/stddef
 944              		.file 3 "/usr/local/Cellar/arm-gcc-bin/8-2019-q3-update/arm-none-eabi/include/machine/_default_typ
 945              		.file 4 "/usr/local/Cellar/arm-gcc-bin/8-2019-q3-update/arm-none-eabi/include/sys/_stdint.h"
 946              		.file 5 "../../os/ports/GCC/ARM/chtypes.h"
 947              		.file 6 "../../os/kernel/include/chlists.h"
 948              		.file 7 "../../os/kernel/include/chthreads.h"
 949              		.file 8 "../../os/ports/GCC/ARM/chcore.h"
 950              		.file 9 "../../os/kernel/include/chvt.h"
 951              		.file 10 "../../os/kernel/include/chschd.h"
 952              		.file 11 "../../os/kernel/include/chmtx.h"
 953              		.file 12 "../../os/kernel/include/chevents.h"
 954              		.file 13 "../../os/kernel/include/chregistry.h"
 955              		.file 14 "../../os/kernel/include/chqueues.h"
 956              		.file 15 "../../os/kernel/include/ch.h"
 957              		.file 16 "../../os/hal/platforms/BCM2835/bcm2835.h"
 958              		.file 17 "../../os/hal/platforms/BCM2835/pal_lld.h"
 959              		.file 18 "../../os/hal/include/i2c.h"
 960              		.file 19 "../../os/hal/platforms/BCM2835/i2c_lld.h"
 961              		.file 20 "../../os/hal/include/serial.h"
 962              		.file 21 "../../os/hal/include/spi.h"
 963              		.file 22 "../../os/hal/platforms/BCM2835/spi_lld.h"
 964              		.file 23 "../../os/hal/platforms/BCM2835/serial_lld.h"