ARM GAS  /var/folders/l5/0x54b2c10074c8bt31ycjvl80000gp/T//cc0aQrPq.s 			page 1


   1              		.cpu arm1176jz-s
   2              		.eabi_attribute 20, 1
   3              		.eabi_attribute 21, 1
   4              		.eabi_attribute 23, 3
   5              		.eabi_attribute 24, 1
   6              		.eabi_attribute 25, 1
   7              		.eabi_attribute 26, 1
   8              		.eabi_attribute 30, 2
   9              		.eabi_attribute 34, 1
  10              		.eabi_attribute 18, 4
  11              		.file	"testevt.c"
  12              		.text
  13              	.Ltext0:
  14              		.cfi_sections	.debug_frame
  15              		.section	.text.evt1_execute,"ax",%progbits
  16              		.align	2
  17              		.arch armv6kz
  18              		.syntax unified
  19              		.arm
  20              		.fpu softvfp
  21              		.type	evt1_execute, %function
  22              	evt1_execute:
  23              	.LFB11:
  24              		.file 1 "../../test/testevt.c"
  25              		.loc 1 89 32 view -0
  26              		.cfi_startproc
  27              		@ args = 0, pretend = 0, frame = 32
  28              		@ frame_needed = 0, uses_anonymous_args = 0
  29              		.loc 1 90 3 view .LVU1
  30              		.loc 1 95 3 view .LVU2
  31              		.loc 1 89 32 is_stmt 0 view .LVU3
  32 0000 10402DE9 		push	{r4, lr}
  33              		.cfi_def_cfa_offset 8
  34              		.cfi_offset 4, -8
  35              		.cfi_offset 14, -4
  36              		.loc 1 95 3 view .LVU4
  37 0004 B8409FE5 		ldr	r4, .L8
  38              		.loc 1 89 32 view .LVU5
  39 0008 20D04DE2 		sub	sp, sp, #32
  40              		.cfi_def_cfa_offset 40
  41              		.loc 1 96 3 view .LVU6
  42 000c 0400A0E1 		mov	r0, r4
  43 0010 0D10A0E1 		mov	r1, sp
  44 0014 0120A0E3 		mov	r2, #1
  45              		.loc 1 95 3 view .LVU7
  46 0018 004084E5 		str	r4, [r4]
  47              		.loc 1 96 3 is_stmt 1 view .LVU8
  48 001c FEFFFFEB 		bl	chEvtRegisterMask
  49              	.LVL0:
  50              		.loc 1 97 3 view .LVU9
  51 0020 0400A0E1 		mov	r0, r4
  52 0024 10108DE2 		add	r1, sp, #16
  53 0028 0220A0E3 		mov	r2, #2
  54 002c FEFFFFEB 		bl	chEvtRegisterMask
  55              	.LVL1:
  56              		.loc 1 98 3 view .LVU10
  57 0030 001094E5 		ldr	r1, [r4]
ARM GAS  /var/folders/l5/0x54b2c10074c8bt31ycjvl80000gp/T//cc0aQrPq.s 			page 2


  58 0034 0100A0E3 		mov	r0, #1
  59 0038 041051E0 		subs	r1, r1, r4
  60 003c 0110A013 		movne	r1, #1
  61 0040 FEFFFFEB 		bl	_test_assert
  62              	.LVL2:
  63 0044 000050E3 		cmp	r0, #0
  64 0048 0100000A 		beq	.L7
  65              	.L1:
  66              		.loc 1 109 1 is_stmt 0 view .LVU11
  67 004c 20D08DE2 		add	sp, sp, #32
  68              		.cfi_remember_state
  69              		.cfi_def_cfa_offset 8
  70              		@ sp needed
  71 0050 1080BDE8 		pop	{r4, pc}
  72              	.L7:
  73              		.cfi_restore_state
  74              		.loc 1 98 57 is_stmt 1 discriminator 2 view .LVU12
  75              		.loc 1 99 3 discriminator 2 view .LVU13
  76 0054 0D10A0E1 		mov	r1, sp
  77 0058 0400A0E1 		mov	r0, r4
  78 005c FEFFFFEB 		bl	chEvtUnregister
  79              	.LVL3:
  80              		.loc 1 100 3 discriminator 2 view .LVU14
  81 0060 001094E5 		ldr	r1, [r4]
  82 0064 0200A0E3 		mov	r0, #2
  83 0068 041051E0 		subs	r1, r1, r4
  84 006c 0110A013 		movne	r1, #1
  85 0070 FEFFFFEB 		bl	_test_assert
  86              	.LVL4:
  87 0074 000050E3 		cmp	r0, #0
  88 0078 F3FFFF1A 		bne	.L1
  89              		.loc 1 100 57 discriminator 2 view .LVU15
  90              		.loc 1 101 3 discriminator 2 view .LVU16
  91 007c 10108DE2 		add	r1, sp, #16
  92 0080 0400A0E1 		mov	r0, r4
  93 0084 FEFFFFEB 		bl	chEvtUnregister
  94              	.LVL5:
  95              		.loc 1 102 3 discriminator 2 view .LVU17
  96 0088 001094E5 		ldr	r1, [r4]
  97 008c 0300A0E3 		mov	r0, #3
  98 0090 041041E0 		sub	r1, r1, r4
  99 0094 111F6FE1 		clz	r1, r1
 100 0098 A112A0E1 		lsr	r1, r1, #5
 101 009c FEFFFFEB 		bl	_test_assert
 102              	.LVL6:
 103 00a0 000050E3 		cmp	r0, #0
 104 00a4 E8FFFF1A 		bne	.L1
 105              		.loc 1 102 61 discriminator 2 view .LVU18
 106              		.loc 1 107 3 discriminator 2 view .LVU19
 107 00a8 0710A0E3 		mov	r1, #7
 108 00ac 14009FE5 		ldr	r0, .L8+4
 109 00b0 FEFFFFEB 		bl	chEvtDispatch
 110              	.LVL7:
 111              		.loc 1 108 3 discriminator 2 view .LVU20
 112 00b4 10109FE5 		ldr	r1, .L8+8
 113 00b8 0400A0E3 		mov	r0, #4
 114 00bc FEFFFFEB 		bl	_test_assert_sequence
ARM GAS  /var/folders/l5/0x54b2c10074c8bt31ycjvl80000gp/T//cc0aQrPq.s 			page 3


 115              	.LVL8:
 116              		.loc 1 108 3 discriminator 2 view .LVU21
 117 00c0 E1FFFFEA 		b	.L1
 118              	.L9:
 119              		.align	2
 120              	.L8:
 121 00c4 00000000 		.word	.LANCHOR0
 122 00c8 00000000 		.word	.LANCHOR1
 123 00cc 00000000 		.word	.LC0
 124              		.cfi_endproc
 125              	.LFE11:
 126              		.size	evt1_execute, .-evt1_execute
 127              		.section	.text.h3,"ax",%progbits
 128              		.align	2
 129              		.syntax unified
 130              		.arm
 131              		.fpu softvfp
 132              		.type	h3, %function
 133              	h3:
 134              	.LVL9:
 135              	.LFB10:
 136              		.loc 1 86 30 view -0
 137              		.cfi_startproc
 138              		@ args = 0, pretend = 0, frame = 0
 139              		@ frame_needed = 0, uses_anonymous_args = 0
 140              		@ link register save eliminated.
 141              		.loc 1 86 31 view .LVU23
 142              		.loc 1 86 40 view .LVU24
 143 0000 4300A0E3 		mov	r0, #67
 144              	.LVL10:
 145              		.loc 1 86 40 is_stmt 0 view .LVU25
 146 0004 FEFFFFEA 		b	test_emit_token
 147              	.LVL11:
 148              		.cfi_endproc
 149              	.LFE10:
 150              		.size	h3, .-h3
 151              		.section	.text.h2,"ax",%progbits
 152              		.align	2
 153              		.syntax unified
 154              		.arm
 155              		.fpu softvfp
 156              		.type	h2, %function
 157              	h2:
 158              	.LVL12:
 159              	.LFB9:
 160              		.loc 1 85 30 is_stmt 1 view -0
 161              		.cfi_startproc
 162              		@ args = 0, pretend = 0, frame = 0
 163              		@ frame_needed = 0, uses_anonymous_args = 0
 164              		@ link register save eliminated.
 165              		.loc 1 85 31 view .LVU27
 166              		.loc 1 85 40 view .LVU28
 167 0000 4200A0E3 		mov	r0, #66
 168              	.LVL13:
 169              		.loc 1 85 40 is_stmt 0 view .LVU29
 170 0004 FEFFFFEA 		b	test_emit_token
 171              	.LVL14:
ARM GAS  /var/folders/l5/0x54b2c10074c8bt31ycjvl80000gp/T//cc0aQrPq.s 			page 4


 172              		.cfi_endproc
 173              	.LFE9:
 174              		.size	h2, .-h2
 175              		.section	.text.h1,"ax",%progbits
 176              		.align	2
 177              		.syntax unified
 178              		.arm
 179              		.fpu softvfp
 180              		.type	h1, %function
 181              	h1:
 182              	.LVL15:
 183              	.LFB8:
 184              		.loc 1 84 30 is_stmt 1 view -0
 185              		.cfi_startproc
 186              		@ args = 0, pretend = 0, frame = 0
 187              		@ frame_needed = 0, uses_anonymous_args = 0
 188              		@ link register save eliminated.
 189              		.loc 1 84 31 view .LVU31
 190              		.loc 1 84 40 view .LVU32
 191 0000 4100A0E3 		mov	r0, #65
 192              	.LVL16:
 193              		.loc 1 84 40 is_stmt 0 view .LVU33
 194 0004 FEFFFFEA 		b	test_emit_token
 195              	.LVL17:
 196              		.cfi_endproc
 197              	.LFE8:
 198              		.size	h1, .-h1
 199              		.section	.text.evt1_setup,"ax",%progbits
 200              		.align	2
 201              		.syntax unified
 202              		.arm
 203              		.fpu softvfp
 204              		.type	evt1_setup, %function
 205              	evt1_setup:
 206              	.LFB7:
 207              		.loc 1 79 30 is_stmt 1 view -0
 208              		.cfi_startproc
 209              		@ args = 0, pretend = 0, frame = 0
 210              		@ frame_needed = 0, uses_anonymous_args = 0
 211              		@ link register save eliminated.
 212              		.loc 1 81 3 view .LVU35
 213 0000 0000E0E3 		mvn	r0, #0
 214 0004 FEFFFFEA 		b	chEvtGetAndClearEvents
 215              	.LVL18:
 216              		.cfi_endproc
 217              	.LFE7:
 218              		.size	evt1_setup, .-evt1_setup
 219              		.section	.text.evt2_setup,"ax",%progbits
 220              		.align	2
 221              		.syntax unified
 222              		.arm
 223              		.fpu softvfp
 224              		.type	evt2_setup, %function
 225              	evt2_setup:
 226              	.LFB21:
 227              		.cfi_startproc
 228              		@ args = 0, pretend = 0, frame = 0
ARM GAS  /var/folders/l5/0x54b2c10074c8bt31ycjvl80000gp/T//cc0aQrPq.s 			page 5


 229              		@ frame_needed = 0, uses_anonymous_args = 0
 230              		@ link register save eliminated.
 231 0000 FEFFFFEA 		b	evt1_setup
 232              		.cfi_endproc
 233              	.LFE21:
 234              		.size	evt2_setup, .-evt2_setup
 235              		.section	.text.evt3_setup,"ax",%progbits
 236              		.align	2
 237              		.syntax unified
 238              		.arm
 239              		.fpu softvfp
 240              		.type	evt3_setup, %function
 241              	evt3_setup:
 242              	.LFB23:
 243              		.cfi_startproc
 244              		@ args = 0, pretend = 0, frame = 0
 245              		@ frame_needed = 0, uses_anonymous_args = 0
 246              		@ link register save eliminated.
 247 0000 FEFFFFEA 		b	evt1_setup
 248              		.cfi_endproc
 249              	.LFE23:
 250              		.size	evt3_setup, .-evt3_setup
 251              		.section	.text.thread2,"ax",%progbits
 252              		.align	2
 253              		.syntax unified
 254              		.arm
 255              		.fpu softvfp
 256              		.type	thread2, %function
 257              	thread2:
 258              	.LVL19:
 259              	.LFB14:
 260              		.loc 1 144 31 view -0
 261              		.cfi_startproc
 262              		@ args = 0, pretend = 0, frame = 0
 263              		@ frame_needed = 0, uses_anonymous_args = 0
 264              		.loc 1 146 3 view .LVU37
 265              		.loc 1 147 3 view .LVU38
 266              		.loc 1 144 31 is_stmt 0 view .LVU39
 267 0000 10402DE9 		push	{r4, lr}
 268              		.cfi_def_cfa_offset 8
 269              		.cfi_offset 4, -8
 270              		.cfi_offset 14, -4
 271              		.loc 1 147 3 view .LVU40
 272 0004 0010A0E3 		mov	r1, #0
 273 0008 1C009FE5 		ldr	r0, .L18
 274              	.LVL20:
 275              		.loc 1 147 3 view .LVU41
 276 000c FEFFFFEB 		bl	chEvtBroadcastFlags
 277              	.LVL21:
 278              		.loc 1 148 3 is_stmt 1 view .LVU42
 279 0010 3200A0E3 		mov	r0, #50
 280 0014 FEFFFFEB 		bl	chThdSleep
 281              	.LVL22:
 282              		.loc 1 149 3 view .LVU43
 283 0018 0010A0E3 		mov	r1, #0
 284 001c 0C009FE5 		ldr	r0, .L18+4
 285 0020 FEFFFFEB 		bl	chEvtBroadcastFlags
ARM GAS  /var/folders/l5/0x54b2c10074c8bt31ycjvl80000gp/T//cc0aQrPq.s 			page 6


 286              	.LVL23:
 287              		.loc 1 150 3 view .LVU44
 288              		.loc 1 151 1 is_stmt 0 view .LVU45
 289 0024 0000A0E3 		mov	r0, #0
 290 0028 1080BDE8 		pop	{r4, pc}
 291              	.L19:
 292              		.align	2
 293              	.L18:
 294 002c 00000000 		.word	.LANCHOR0
 295 0030 00000000 		.word	.LANCHOR2
 296              		.cfi_endproc
 297              	.LFE14:
 298              		.size	thread2, .-thread2
 299              		.section	.text.thread1,"ax",%progbits
 300              		.align	2
 301              		.syntax unified
 302              		.arm
 303              		.fpu softvfp
 304              		.type	thread1, %function
 305              	thread1:
 306              	.LVL24:
 307              	.LFB13:
 308              		.loc 1 137 31 is_stmt 1 view -0
 309              		.cfi_startproc
 310              		@ args = 0, pretend = 0, frame = 0
 311              		@ frame_needed = 0, uses_anonymous_args = 0
 312              		.loc 1 139 3 view .LVU47
 313              		.loc 1 137 31 is_stmt 0 view .LVU48
 314 0000 10402DE9 		push	{r4, lr}
 315              		.cfi_def_cfa_offset 8
 316              		.cfi_offset 4, -8
 317              		.cfi_offset 14, -4
 318              		.loc 1 137 31 view .LVU49
 319 0004 0040A0E1 		mov	r4, r0
 320              		.loc 1 139 3 view .LVU50
 321 0008 3200A0E3 		mov	r0, #50
 322              	.LVL25:
 323              		.loc 1 139 3 view .LVU51
 324 000c FEFFFFEB 		bl	chThdSleep
 325              	.LVL26:
 326              		.loc 1 140 3 is_stmt 1 view .LVU52
 327 0010 0400A0E1 		mov	r0, r4
 328 0014 0110A0E3 		mov	r1, #1
 329 0018 FEFFFFEB 		bl	chEvtSignal
 330              	.LVL27:
 331              		.loc 1 141 3 view .LVU53
 332              		.loc 1 142 1 is_stmt 0 view .LVU54
 333 001c 0000A0E3 		mov	r0, #0
 334 0020 1080BDE8 		pop	{r4, pc}
 335              		.cfi_endproc
 336              	.LFE13:
 337              		.size	thread1, .-thread1
 338              		.section	.text.evt2_execute,"ax",%progbits
 339              		.align	2
 340              		.syntax unified
 341              		.arm
 342              		.fpu softvfp
ARM GAS  /var/folders/l5/0x54b2c10074c8bt31ycjvl80000gp/T//cc0aQrPq.s 			page 7


 343              		.type	evt2_execute, %function
 344              	evt2_execute:
 345              	.LFB15:
 346              		.loc 1 153 32 is_stmt 1 view -0
 347              		.cfi_startproc
 348              		@ args = 0, pretend = 0, frame = 32
 349              		@ frame_needed = 0, uses_anonymous_args = 0
 350              		.loc 1 154 3 view .LVU56
 351              		.loc 1 155 3 view .LVU57
 352              		.loc 1 156 3 view .LVU58
 353              		.loc 1 161 3 view .LVU59
 354              		.loc 1 153 32 is_stmt 0 view .LVU60
 355 0000 F0432DE9 		push	{r4, r5, r6, r7, r8, r9, lr}
 356              		.cfi_def_cfa_offset 28
 357              		.cfi_offset 4, -28
 358              		.cfi_offset 5, -24
 359              		.cfi_offset 6, -20
 360              		.cfi_offset 7, -16
 361              		.cfi_offset 8, -12
 362              		.cfi_offset 9, -8
 363              		.cfi_offset 14, -4
 364              		.loc 1 161 3 view .LVU61
 365 0004 0500A0E3 		mov	r0, #5
 366              		.loc 1 153 32 view .LVU62
 367 0008 2CD04DE2 		sub	sp, sp, #44
 368              		.cfi_def_cfa_offset 72
 369              		.loc 1 161 3 view .LVU63
 370 000c FEFFFFEB 		bl	chEvtAddEvents
 371              	.LVL28:
 372              		.loc 1 162 3 is_stmt 1 view .LVU64
 373              		.loc 1 162 7 is_stmt 0 view .LVU65
 374 0010 0000E0E3 		mvn	r0, #0
 375 0014 FEFFFFEB 		bl	chEvtWaitOne
 376              	.LVL29:
 377              		.loc 1 163 3 is_stmt 1 view .LVU66
 378 0018 011040E2 		sub	r1, r0, #1
 379 001c 111F6FE1 		clz	r1, r1
 380 0020 0100A0E3 		mov	r0, #1
 381              	.LVL30:
 382              		.loc 1 163 3 is_stmt 0 view .LVU67
 383 0024 A112A0E1 		lsr	r1, r1, #5
 384 0028 FEFFFFEB 		bl	_test_assert
 385              	.LVL31:
 386 002c 000050E3 		cmp	r0, #0
 387 0030 0100000A 		beq	.L30
 388              	.L22:
 389              		.loc 1 226 1 view .LVU68
 390 0034 2CD08DE2 		add	sp, sp, #44
 391              		.cfi_remember_state
 392              		.cfi_def_cfa_offset 28
 393              		@ sp needed
 394 0038 F083BDE8 		pop	{r4, r5, r6, r7, r8, r9, pc}
 395              	.L30:
 396              		.cfi_restore_state
 397              		.loc 1 163 47 is_stmt 1 discriminator 2 view .LVU69
 398              		.loc 1 164 3 discriminator 2 view .LVU70
 399              		.loc 1 164 7 is_stmt 0 discriminator 2 view .LVU71
ARM GAS  /var/folders/l5/0x54b2c10074c8bt31ycjvl80000gp/T//cc0aQrPq.s 			page 8


 400 003c 0000E0E3 		mvn	r0, #0
 401 0040 FEFFFFEB 		bl	chEvtWaitOne
 402              	.LVL32:
 403              		.loc 1 165 3 is_stmt 1 discriminator 2 view .LVU72
 404 0044 041040E2 		sub	r1, r0, #4
 405 0048 111F6FE1 		clz	r1, r1
 406 004c 0200A0E3 		mov	r0, #2
 407              	.LVL33:
 408              		.loc 1 165 3 is_stmt 0 discriminator 2 view .LVU73
 409 0050 A112A0E1 		lsr	r1, r1, #5
 410 0054 FEFFFFEB 		bl	_test_assert
 411              	.LVL34:
 412 0058 000050E3 		cmp	r0, #0
 413 005c F4FFFF1A 		bne	.L22
 414              		.loc 1 165 47 is_stmt 1 discriminator 2 view .LVU74
 415              		.loc 1 166 3 discriminator 2 view .LVU75
 416              		.loc 1 166 7 is_stmt 0 discriminator 2 view .LVU76
 417 0060 0000E0E3 		mvn	r0, #0
 418 0064 FEFFFFEB 		bl	chEvtGetAndClearEvents
 419              	.LVL35:
 420              		.loc 1 167 3 is_stmt 1 discriminator 2 view .LVU77
 421 0068 101F6FE1 		clz	r1, r0
 422 006c 0300A0E3 		mov	r0, #3
 423              	.LVL36:
 424              		.loc 1 167 3 is_stmt 0 discriminator 2 view .LVU78
 425 0070 A112A0E1 		lsr	r1, r1, #5
 426 0074 FEFFFFEB 		bl	_test_assert
 427              	.LVL37:
 428 0078 000050E3 		cmp	r0, #0
 429 007c ECFFFF1A 		bne	.L22
 430              	.LBB4:
 431              	.LBI4:
 432              		.loc 1 153 13 is_stmt 1 view .LVU79
 433              	.LBB5:
 434              		.loc 1 167 40 view .LVU80
 435              		.loc 1 172 3 view .LVU81
 436              		.loc 1 174 50 is_stmt 0 view .LVU82
 437 0080 70829FE5 		ldr	r8, .L31
 438              		.loc 1 172 3 view .LVU83
 439 0084 FEFFFFEB 		bl	test_wait_tick
 440              	.LVL38:
 441              		.loc 1 173 3 is_stmt 1 view .LVU84
 442              		.loc 1 174 50 is_stmt 0 view .LVU85
 443 0088 183098E5 		ldr	r3, [r8, #24]
 444              		.loc 1 174 16 view .LVU86
 445 008c 68129FE5 		ldr	r1, .L31+4
 446 0090 082093E5 		ldr	r2, [r3, #8]
 447 0094 007091E5 		ldr	r7, [r1]
 448              		.loc 1 173 17 view .LVU87
 449 0098 60629FE5 		ldr	r6, .L31+8
 450              		.loc 1 174 16 view .LVU88
 451 009c 012042E2 		sub	r2, r2, #1
 452 00a0 00308DE5 		str	r3, [sp]
 453 00a4 461FA0E3 		mov	r1, #280
 454 00a8 54329FE5 		ldr	r3, .L31+12
 455 00ac 0700A0E1 		mov	r0, r7
 456              		.loc 1 173 17 view .LVU89
ARM GAS  /var/folders/l5/0x54b2c10074c8bt31ycjvl80000gp/T//cc0aQrPq.s 			page 9


 457 00b0 0C4096E5 		ldr	r4, [r6, #12]
 458              	.LVL39:
 459              		.loc 1 174 3 is_stmt 1 view .LVU90
 460              		.loc 1 174 16 is_stmt 0 view .LVU91
 461 00b4 FEFFFFEB 		bl	chThdCreateStatic
 462              	.LVL40:
 463              		.loc 1 174 14 view .LVU92
 464 00b8 48529FE5 		ldr	r5, .L31+16
 465 00bc 000085E5 		str	r0, [r5]
 466              		.loc 1 176 3 is_stmt 1 view .LVU93
 467              		.loc 1 176 7 is_stmt 0 view .LVU94
 468 00c0 0000E0E3 		mvn	r0, #0
 469 00c4 FEFFFFEB 		bl	chEvtWaitOne
 470              	.LVL41:
 471              		.loc 1 177 3 view .LVU95
 472 00c8 372084E2 		add	r2, r4, #55
 473              		.loc 1 176 7 view .LVU96
 474 00cc 0090A0E1 		mov	r9, r0
 475              	.LVL42:
 476              		.loc 1 177 3 is_stmt 1 view .LVU97
 477 00d0 321084E2 		add	r1, r4, #50
 478              	.LVL43:
 479              		.loc 1 177 3 is_stmt 0 view .LVU98
 480 00d4 0400A0E3 		mov	r0, #4
 481              	.LVL44:
 482              		.loc 1 177 3 view .LVU99
 483 00d8 FEFFFFEB 		bl	_test_assert_time_window
 484              	.LVL45:
 485              		.loc 1 177 3 view .LVU100
 486 00dc 000050E3 		cmp	r0, #0
 487 00e0 D3FFFF1A 		bne	.L22
 488              		.loc 1 177 71 is_stmt 1 view .LVU101
 489              		.loc 1 178 3 view .LVU102
 490 00e4 011049E2 		sub	r1, r9, #1
 491 00e8 111F6FE1 		clz	r1, r1
 492 00ec 0500A0E3 		mov	r0, #5
 493 00f0 A112A0E1 		lsr	r1, r1, #5
 494 00f4 FEFFFFEB 		bl	_test_assert
 495              	.LVL46:
 496 00f8 000050E3 		cmp	r0, #0
 497 00fc CCFFFF1A 		bne	.L22
 498              		.loc 1 178 47 view .LVU103
 499              		.loc 1 179 3 view .LVU104
 500              		.loc 1 179 7 is_stmt 0 view .LVU105
 501 0100 0000E0E3 		mvn	r0, #0
 502 0104 FEFFFFEB 		bl	chEvtGetAndClearEvents
 503              	.LVL47:
 504              		.loc 1 180 3 is_stmt 1 view .LVU106
 505 0108 101F6FE1 		clz	r1, r0
 506 010c 0600A0E3 		mov	r0, #6
 507              	.LVL48:
 508              		.loc 1 180 3 is_stmt 0 view .LVU107
 509 0110 A112A0E1 		lsr	r1, r1, #5
 510 0114 FEFFFFEB 		bl	_test_assert
 511              	.LVL49:
 512 0118 000050E3 		cmp	r0, #0
 513 011c C4FFFF1A 		bne	.L22
ARM GAS  /var/folders/l5/0x54b2c10074c8bt31ycjvl80000gp/T//cc0aQrPq.s 			page 10


 514              		.loc 1 180 40 is_stmt 1 view .LVU108
 515              		.loc 1 181 3 view .LVU109
 516 0120 FEFFFFEB 		bl	test_wait_threads
 517              	.LVL50:
 518              		.loc 1 186 3 view .LVU110
 519 0124 0500A0E3 		mov	r0, #5
 520 0128 FEFFFFEB 		bl	chEvtAddEvents
 521              	.LVL51:
 522              		.loc 1 187 3 view .LVU111
 523              		.loc 1 187 7 is_stmt 0 view .LVU112
 524 012c 0000E0E3 		mvn	r0, #0
 525 0130 FEFFFFEB 		bl	chEvtWaitAny
 526              	.LVL52:
 527              		.loc 1 188 3 is_stmt 1 view .LVU113
 528 0134 051040E2 		sub	r1, r0, #5
 529 0138 111F6FE1 		clz	r1, r1
 530 013c 0700A0E3 		mov	r0, #7
 531              	.LVL53:
 532              		.loc 1 188 3 is_stmt 0 view .LVU114
 533 0140 A112A0E1 		lsr	r1, r1, #5
 534 0144 FEFFFFEB 		bl	_test_assert
 535              	.LVL54:
 536 0148 000050E3 		cmp	r0, #0
 537 014c B8FFFF1A 		bne	.L22
 538              		.loc 1 188 51 is_stmt 1 view .LVU115
 539              		.loc 1 189 3 view .LVU116
 540              		.loc 1 189 7 is_stmt 0 view .LVU117
 541 0150 0000E0E3 		mvn	r0, #0
 542 0154 FEFFFFEB 		bl	chEvtGetAndClearEvents
 543              	.LVL55:
 544              		.loc 1 190 3 is_stmt 1 view .LVU118
 545 0158 101F6FE1 		clz	r1, r0
 546 015c 0800A0E3 		mov	r0, #8
 547              	.LVL56:
 548              		.loc 1 190 3 is_stmt 0 view .LVU119
 549 0160 A112A0E1 		lsr	r1, r1, #5
 550 0164 FEFFFFEB 		bl	_test_assert
 551              	.LVL57:
 552 0168 000050E3 		cmp	r0, #0
 553 016c B0FFFF1A 		bne	.L22
 554              		.loc 1 190 40 is_stmt 1 view .LVU120
 555              		.loc 1 195 3 view .LVU121
 556 0170 FEFFFFEB 		bl	test_wait_tick
 557              	.LVL58:
 558              		.loc 1 196 3 view .LVU122
 559              		.loc 1 197 50 is_stmt 0 view .LVU123
 560 0174 180098E5 		ldr	r0, [r8, #24]
 561              		.loc 1 197 16 view .LVU124
 562 0178 84319FE5 		ldr	r3, .L31+12
 563 017c 082090E5 		ldr	r2, [r0, #8]
 564 0180 461FA0E3 		mov	r1, #280
 565 0184 012042E2 		sub	r2, r2, #1
 566 0188 00008DE5 		str	r0, [sp]
 567 018c 0700A0E1 		mov	r0, r7
 568              		.loc 1 196 17 view .LVU125
 569 0190 0C4096E5 		ldr	r4, [r6, #12]
 570              	.LVL59:
ARM GAS  /var/folders/l5/0x54b2c10074c8bt31ycjvl80000gp/T//cc0aQrPq.s 			page 11


 571              		.loc 1 197 3 is_stmt 1 view .LVU126
 572              		.loc 1 197 16 is_stmt 0 view .LVU127
 573 0194 FEFFFFEB 		bl	chThdCreateStatic
 574              	.LVL60:
 575              		.loc 1 197 14 view .LVU128
 576 0198 000085E5 		str	r0, [r5]
 577              		.loc 1 199 3 is_stmt 1 view .LVU129
 578              		.loc 1 199 7 is_stmt 0 view .LVU130
 579 019c 0000E0E3 		mvn	r0, #0
 580 01a0 FEFFFFEB 		bl	chEvtWaitAny
 581              	.LVL61:
 582              		.loc 1 200 3 view .LVU131
 583 01a4 372084E2 		add	r2, r4, #55
 584              		.loc 1 199 7 view .LVU132
 585 01a8 0090A0E1 		mov	r9, r0
 586              	.LVL62:
 587              		.loc 1 200 3 is_stmt 1 view .LVU133
 588 01ac 321084E2 		add	r1, r4, #50
 589              	.LVL63:
 590              		.loc 1 200 3 is_stmt 0 view .LVU134
 591 01b0 0900A0E3 		mov	r0, #9
 592              	.LVL64:
 593              		.loc 1 200 3 view .LVU135
 594 01b4 FEFFFFEB 		bl	_test_assert_time_window
 595              	.LVL65:
 596              		.loc 1 200 3 view .LVU136
 597 01b8 000050E3 		cmp	r0, #0
 598 01bc 9CFFFF1A 		bne	.L22
 599              		.loc 1 200 71 is_stmt 1 view .LVU137
 600              		.loc 1 201 3 view .LVU138
 601 01c0 011049E2 		sub	r1, r9, #1
 602 01c4 111F6FE1 		clz	r1, r1
 603 01c8 0A00A0E3 		mov	r0, #10
 604 01cc A112A0E1 		lsr	r1, r1, #5
 605 01d0 FEFFFFEB 		bl	_test_assert
 606              	.LVL66:
 607 01d4 000050E3 		cmp	r0, #0
 608 01d8 95FFFF1A 		bne	.L22
 609              		.loc 1 201 48 view .LVU139
 610              		.loc 1 202 3 view .LVU140
 611              		.loc 1 202 7 is_stmt 0 view .LVU141
 612 01dc 0000E0E3 		mvn	r0, #0
 613 01e0 FEFFFFEB 		bl	chEvtGetAndClearEvents
 614              	.LVL67:
 615              		.loc 1 203 3 is_stmt 1 view .LVU142
 616 01e4 101F6FE1 		clz	r1, r0
 617 01e8 0B00A0E3 		mov	r0, #11
 618              	.LVL68:
 619              		.loc 1 203 3 is_stmt 0 view .LVU143
 620 01ec A112A0E1 		lsr	r1, r1, #5
 621 01f0 FEFFFFEB 		bl	_test_assert
 622              	.LVL69:
 623 01f4 000050E3 		cmp	r0, #0
 624 01f8 8DFFFF1A 		bne	.L22
 625              		.loc 1 203 41 is_stmt 1 view .LVU144
 626              		.loc 1 204 3 view .LVU145
 627              		.loc 1 209 3 is_stmt 0 view .LVU146
ARM GAS  /var/folders/l5/0x54b2c10074c8bt31ycjvl80000gp/T//cc0aQrPq.s 			page 12


 628 01fc 08919FE5 		ldr	r9, .L31+20
 629              		.loc 1 210 3 view .LVU147
 630 0200 08419FE5 		ldr	r4, .L31+24
 631              	.LVL70:
 632              		.loc 1 204 3 view .LVU148
 633 0204 FEFFFFEB 		bl	test_wait_threads
 634              	.LVL71:
 635              		.loc 1 209 3 is_stmt 1 view .LVU149
 636              		.loc 1 211 3 is_stmt 0 view .LVU150
 637 0208 0900A0E1 		mov	r0, r9
 638 020c 08108DE2 		add	r1, sp, #8
 639 0210 0120A0E3 		mov	r2, #1
 640              		.loc 1 209 3 view .LVU151
 641 0214 009089E5 		str	r9, [r9]
 642              		.loc 1 210 3 is_stmt 1 view .LVU152
 643 0218 004084E5 		str	r4, [r4]
 644              		.loc 1 211 3 view .LVU153
 645 021c FEFFFFEB 		bl	chEvtRegisterMask
 646              	.LVL72:
 647              		.loc 1 212 3 view .LVU154
 648 0220 18108DE2 		add	r1, sp, #24
 649 0224 0420A0E3 		mov	r2, #4
 650 0228 0400A0E1 		mov	r0, r4
 651 022c FEFFFFEB 		bl	chEvtRegisterMask
 652              	.LVL73:
 653              		.loc 1 213 3 view .LVU155
 654 0230 FEFFFFEB 		bl	test_wait_tick
 655              	.LVL74:
 656              		.loc 1 214 3 view .LVU156
 657              		.loc 1 215 50 is_stmt 0 view .LVU157
 658 0234 182098E5 		ldr	r2, [r8, #24]
 659              		.loc 1 215 16 view .LVU158
 660 0238 D4309FE5 		ldr	r3, .L31+28
 661 023c 082092E5 		ldr	r2, [r2, #8]
 662 0240 461FA0E3 		mov	r1, #280
 663 0244 012042E2 		sub	r2, r2, #1
 664 0248 00308DE5 		str	r3, [sp]
 665 024c 0700A0E1 		mov	r0, r7
 666 0250 C0309FE5 		ldr	r3, .L31+32
 667              		.loc 1 214 17 view .LVU159
 668 0254 0C6096E5 		ldr	r6, [r6, #12]
 669              	.LVL75:
 670              		.loc 1 215 3 is_stmt 1 view .LVU160
 671              		.loc 1 215 16 is_stmt 0 view .LVU161
 672 0258 FEFFFFEB 		bl	chThdCreateStatic
 673              	.LVL76:
 674              		.loc 1 215 14 view .LVU162
 675 025c 000085E5 		str	r0, [r5]
 676              		.loc 1 217 3 is_stmt 1 view .LVU163
 677              		.loc 1 217 7 is_stmt 0 view .LVU164
 678 0260 0500A0E3 		mov	r0, #5
 679 0264 FEFFFFEB 		bl	chEvtWaitAll
 680              	.LVL77:
 681              		.loc 1 218 3 is_stmt 1 view .LVU165
 682 0268 372086E2 		add	r2, r6, #55
 683 026c 321086E2 		add	r1, r6, #50
 684              	.LVL78:
ARM GAS  /var/folders/l5/0x54b2c10074c8bt31ycjvl80000gp/T//cc0aQrPq.s 			page 13


 685              		.loc 1 218 3 is_stmt 0 view .LVU166
 686 0270 0C00A0E3 		mov	r0, #12
 687 0274 FEFFFFEB 		bl	_test_assert_time_window
 688              	.LVL79:
 689              		.loc 1 218 3 view .LVU167
 690 0278 000050E3 		cmp	r0, #0
 691 027c 6CFFFF1A 		bne	.L22
 692              		.loc 1 218 72 is_stmt 1 view .LVU168
 693              		.loc 1 219 3 view .LVU169
 694              		.loc 1 219 7 is_stmt 0 view .LVU170
 695 0280 0000E0E3 		mvn	r0, #0
 696 0284 FEFFFFEB 		bl	chEvtGetAndClearEvents
 697              	.LVL80:
 698              		.loc 1 220 3 is_stmt 1 view .LVU171
 699 0288 101F6FE1 		clz	r1, r0
 700 028c 0D00A0E3 		mov	r0, #13
 701              	.LVL81:
 702              		.loc 1 220 3 is_stmt 0 view .LVU172
 703 0290 A112A0E1 		lsr	r1, r1, #5
 704 0294 FEFFFFEB 		bl	_test_assert
 705              	.LVL82:
 706 0298 000050E3 		cmp	r0, #0
 707 029c 64FFFF1A 		bne	.L22
 708              		.loc 1 220 41 is_stmt 1 view .LVU173
 709              		.loc 1 221 3 view .LVU174
 710 02a0 FEFFFFEB 		bl	test_wait_threads
 711              	.LVL83:
 712              		.loc 1 222 3 view .LVU175
 713 02a4 08108DE2 		add	r1, sp, #8
 714 02a8 0900A0E1 		mov	r0, r9
 715 02ac FEFFFFEB 		bl	chEvtUnregister
 716              	.LVL84:
 717              		.loc 1 223 3 view .LVU176
 718 02b0 18108DE2 		add	r1, sp, #24
 719 02b4 0400A0E1 		mov	r0, r4
 720 02b8 FEFFFFEB 		bl	chEvtUnregister
 721              	.LVL85:
 722              		.loc 1 224 3 view .LVU177
 723 02bc 001099E5 		ldr	r1, [r9]
 724 02c0 0E00A0E3 		mov	r0, #14
 725 02c4 091041E0 		sub	r1, r1, r9
 726 02c8 111F6FE1 		clz	r1, r1
 727 02cc A112A0E1 		lsr	r1, r1, #5
 728 02d0 FEFFFFEB 		bl	_test_assert
 729              	.LVL86:
 730 02d4 000050E3 		cmp	r0, #0
 731 02d8 55FFFF1A 		bne	.L22
 732              		.loc 1 224 62 view .LVU178
 733              		.loc 1 225 3 view .LVU179
 734 02dc 001094E5 		ldr	r1, [r4]
 735 02e0 0F00A0E3 		mov	r0, #15
 736 02e4 041041E0 		sub	r1, r1, r4
 737 02e8 111F6FE1 		clz	r1, r1
 738 02ec A112A0E1 		lsr	r1, r1, #5
 739 02f0 FEFFFFEB 		bl	_test_assert
 740              	.LVL87:
 741              		.loc 1 225 3 view .LVU180
ARM GAS  /var/folders/l5/0x54b2c10074c8bt31ycjvl80000gp/T//cc0aQrPq.s 			page 14


 742 02f4 4EFFFFEA 		b	.L22
 743              	.L32:
 744              		.align	2
 745              	.L31:
 746 02f8 00000000 		.word	rlist
 747 02fc 00000000 		.word	wa
 748 0300 00000000 		.word	vtlist
 749 0304 00000000 		.word	thread1
 750 0308 00000000 		.word	threads
 751 030c 00000000 		.word	.LANCHOR0
 752 0310 00000000 		.word	.LANCHOR2
 753 0314 00000000 		.word	.LC1
 754 0318 00000000 		.word	thread2
 755              	.LBE5:
 756              	.LBE4:
 757              		.cfi_endproc
 758              	.LFE15:
 759              		.size	evt2_execute, .-evt2_execute
 760              		.section	.text.evt3_execute,"ax",%progbits
 761              		.align	2
 762              		.syntax unified
 763              		.arm
 764              		.fpu softvfp
 765              		.type	evt3_execute, %function
 766              	evt3_execute:
 767              	.LFB17:
 768              		.loc 1 256 32 view -0
 769              		.cfi_startproc
 770              		@ args = 0, pretend = 0, frame = 0
 771              		@ frame_needed = 0, uses_anonymous_args = 0
 772              		.loc 1 257 3 view .LVU182
 773              		.loc 1 262 3 view .LVU183
 774              		.loc 1 256 32 is_stmt 0 view .LVU184
 775 0000 10402DE9 		push	{r4, lr}
 776              		.cfi_def_cfa_offset 8
 777              		.cfi_offset 4, -8
 778              		.cfi_offset 14, -4
 779              		.loc 1 262 7 view .LVU185
 780 0004 0010A0E3 		mov	r1, #0
 781 0008 0000E0E3 		mvn	r0, #0
 782 000c FEFFFFEB 		bl	chEvtWaitOneTimeout
 783              	.LVL88:
 784              		.loc 1 263 3 is_stmt 1 view .LVU186
 785 0010 101F6FE1 		clz	r1, r0
 786 0014 0100A0E3 		mov	r0, #1
 787              	.LVL89:
 788              		.loc 1 263 3 is_stmt 0 view .LVU187
 789 0018 A112A0E1 		lsr	r1, r1, #5
 790 001c FEFFFFEB 		bl	_test_assert
 791              	.LVL90:
 792 0020 001050E2 		subs	r1, r0, #0
 793 0024 1080BD18 		popne	{r4, pc}
 794              		.loc 1 263 43 is_stmt 1 discriminator 2 view .LVU188
 795              		.loc 1 264 3 discriminator 2 view .LVU189
 796              		.loc 1 264 7 is_stmt 0 discriminator 2 view .LVU190
 797 0028 0000E0E3 		mvn	r0, #0
 798 002c FEFFFFEB 		bl	chEvtWaitAnyTimeout
ARM GAS  /var/folders/l5/0x54b2c10074c8bt31ycjvl80000gp/T//cc0aQrPq.s 			page 15


 799              	.LVL91:
 800              		.loc 1 265 3 is_stmt 1 discriminator 2 view .LVU191
 801 0030 101F6FE1 		clz	r1, r0
 802 0034 0200A0E3 		mov	r0, #2
 803              	.LVL92:
 804              		.loc 1 265 3 is_stmt 0 discriminator 2 view .LVU192
 805 0038 A112A0E1 		lsr	r1, r1, #5
 806 003c FEFFFFEB 		bl	_test_assert
 807              	.LVL93:
 808 0040 001050E2 		subs	r1, r0, #0
 809 0044 1080BD18 		popne	{r4, pc}
 810              		.loc 1 265 43 is_stmt 1 discriminator 2 view .LVU193
 811              		.loc 1 266 3 discriminator 2 view .LVU194
 812              		.loc 1 266 7 is_stmt 0 discriminator 2 view .LVU195
 813 0048 0000E0E3 		mvn	r0, #0
 814 004c FEFFFFEB 		bl	chEvtWaitAllTimeout
 815              	.LVL94:
 816              		.loc 1 267 3 is_stmt 1 discriminator 2 view .LVU196
 817 0050 101F6FE1 		clz	r1, r0
 818 0054 0300A0E3 		mov	r0, #3
 819              	.LVL95:
 820              		.loc 1 267 3 is_stmt 0 discriminator 2 view .LVU197
 821 0058 A112A0E1 		lsr	r1, r1, #5
 822 005c FEFFFFEB 		bl	_test_assert
 823              	.LVL96:
 824 0060 000050E3 		cmp	r0, #0
 825 0064 1080BD18 		popne	{r4, pc}
 826              	.LBB8:
 827              	.LBI8:
 828              		.loc 1 256 13 is_stmt 1 view .LVU198
 829              	.LBB9:
 830              		.loc 1 267 43 view .LVU199
 831              		.loc 1 268 3 view .LVU200
 832              		.loc 1 268 7 is_stmt 0 view .LVU201
 833 0068 0A10A0E3 		mov	r1, #10
 834 006c 0000E0E3 		mvn	r0, #0
 835 0070 FEFFFFEB 		bl	chEvtWaitOneTimeout
 836              	.LVL97:
 837              		.loc 1 269 3 is_stmt 1 view .LVU202
 838 0074 101F6FE1 		clz	r1, r0
 839 0078 0400A0E3 		mov	r0, #4
 840              	.LVL98:
 841              		.loc 1 269 3 is_stmt 0 view .LVU203
 842 007c A112A0E1 		lsr	r1, r1, #5
 843 0080 FEFFFFEB 		bl	_test_assert
 844              	.LVL99:
 845 0084 000050E3 		cmp	r0, #0
 846 0088 1080BD18 		popne	{r4, pc}
 847              		.loc 1 269 43 is_stmt 1 view .LVU204
 848              		.loc 1 270 3 view .LVU205
 849              		.loc 1 270 7 is_stmt 0 view .LVU206
 850 008c 0A10A0E3 		mov	r1, #10
 851 0090 0000E0E3 		mvn	r0, #0
 852 0094 FEFFFFEB 		bl	chEvtWaitAnyTimeout
 853              	.LVL100:
 854              		.loc 1 271 3 is_stmt 1 view .LVU207
 855 0098 101F6FE1 		clz	r1, r0
ARM GAS  /var/folders/l5/0x54b2c10074c8bt31ycjvl80000gp/T//cc0aQrPq.s 			page 16


 856 009c 0500A0E3 		mov	r0, #5
 857              	.LVL101:
 858              		.loc 1 271 3 is_stmt 0 view .LVU208
 859 00a0 3110A0E1 		lsr	r1, r1, r0
 860 00a4 FEFFFFEB 		bl	_test_assert
 861              	.LVL102:
 862 00a8 000050E3 		cmp	r0, #0
 863 00ac 1080BD18 		popne	{r4, pc}
 864              		.loc 1 271 43 is_stmt 1 view .LVU209
 865              		.loc 1 272 3 view .LVU210
 866              		.loc 1 272 7 is_stmt 0 view .LVU211
 867 00b0 0A10A0E3 		mov	r1, #10
 868 00b4 0000E0E3 		mvn	r0, #0
 869 00b8 FEFFFFEB 		bl	chEvtWaitAllTimeout
 870              	.LVL103:
 871              		.loc 1 273 3 is_stmt 1 view .LVU212
 872              	.LBE9:
 873              	.LBE8:
 874              		.loc 1 274 1 is_stmt 0 view .LVU213
 875 00bc 1040BDE8 		pop	{r4, lr}
 876              		.cfi_restore 14
 877              		.cfi_restore 4
 878              		.cfi_def_cfa_offset 0
 879              	.LBB11:
 880              	.LBB10:
 881              		.loc 1 273 3 view .LVU214
 882 00c0 101F6FE1 		clz	r1, r0
 883 00c4 0600A0E3 		mov	r0, #6
 884              	.LVL104:
 885              		.loc 1 273 3 view .LVU215
 886 00c8 A112A0E1 		lsr	r1, r1, #5
 887 00cc FEFFFFEA 		b	_test_assert
 888              	.LVL105:
 889              	.LBE10:
 890              	.LBE11:
 891              		.cfi_endproc
 892              	.LFE17:
 893              		.size	evt3_execute, .-evt3_execute
 894              		.global	patternevt
 895              		.global	testevt3
 896              		.global	testevt2
 897              		.global	testevt1
 898              		.section	.data.es1,"aw"
 899              		.align	2
 900              		.set	.LANCHOR0,. + 0
 901              		.type	es1, %object
 902              		.size	es1, 4
 903              	es1:
 904 0000 00000000 		.word	es1
 905              		.section	.data.es2,"aw"
 906              		.align	2
 907              		.set	.LANCHOR2,. + 0
 908              		.type	es2, %object
 909              		.size	es2, 4
 910              	es2:
 911 0000 00000000 		.word	es2
 912              		.section	.rodata.evhndl,"a"
ARM GAS  /var/folders/l5/0x54b2c10074c8bt31ycjvl80000gp/T//cc0aQrPq.s 			page 17


 913              		.align	2
 914              		.set	.LANCHOR1,. + 0
 915              		.type	evhndl, %object
 916              		.size	evhndl, 12
 917              	evhndl:
 918 0000 00000000 		.word	h1
 919 0004 00000000 		.word	h2
 920 0008 00000000 		.word	h3
 921              		.section	.rodata.evt1_execute.str1.4,"aMS",%progbits,1
 922              		.align	2
 923              	.LC0:
 924 0000 41424300 		.ascii	"ABC\000"
 925              		.section	.rodata.evt2_execute.str1.4,"aMS",%progbits,1
 926              		.align	2
 927              	.LC1:
 928 0000 4100     		.ascii	"A\000"
 929              		.section	.rodata.patternevt,"a"
 930              		.align	2
 931              		.type	patternevt, %object
 932              		.size	patternevt, 16
 933              	patternevt:
 934 0000 00000000 		.word	testevt1
 935 0004 00000000 		.word	testevt2
 936 0008 00000000 		.word	testevt3
 937 000c 00000000 		.word	0
 938              		.section	.rodata.str1.4,"aMS",%progbits,1
 939              		.align	2
 940              	.LC2:
 941 0000 4576656E 		.ascii	"Events, timeouts\000"
 941      74732C20 
 941      74696D65 
 941      6F757473 
 941      00
 942 0011 000000   		.space	3
 943              	.LC3:
 944 0014 4576656E 		.ascii	"Events, wait and broadcast\000"
 944      74732C20 
 944      77616974 
 944      20616E64 
 944      2062726F 
 945 002f 00       		.space	1
 946              	.LC4:
 947 0030 4576656E 		.ascii	"Events, registration and dispatch\000"
 947      74732C20 
 947      72656769 
 947      73747261 
 947      74696F6E 
 948              		.section	.rodata.testevt1,"a"
 949              		.align	2
 950              		.type	testevt1, %object
 951              		.size	testevt1, 16
 952              	testevt1:
 953 0000 30000000 		.word	.LC4
 954 0004 00000000 		.word	evt1_setup
 955 0008 00000000 		.word	0
 956 000c 00000000 		.word	evt1_execute
 957              		.section	.rodata.testevt2,"a"
ARM GAS  /var/folders/l5/0x54b2c10074c8bt31ycjvl80000gp/T//cc0aQrPq.s 			page 18


 958              		.align	2
 959              		.type	testevt2, %object
 960              		.size	testevt2, 16
 961              	testevt2:
 962 0000 14000000 		.word	.LC3
 963 0004 00000000 		.word	evt2_setup
 964 0008 00000000 		.word	0
 965 000c 00000000 		.word	evt2_execute
 966              		.section	.rodata.testevt3,"a"
 967              		.align	2
 968              		.type	testevt3, %object
 969              		.size	testevt3, 16
 970              	testevt3:
 971 0000 00000000 		.word	.LC2
 972 0004 00000000 		.word	evt3_setup
 973 0008 00000000 		.word	0
 974 000c 00000000 		.word	evt3_execute
 975              		.text
 976              	.Letext0:
 977              		.file 2 "/usr/local/Cellar/arm-gcc-bin/8-2019-q3-update/arm-none-eabi/include/machine/_default_typ
 978              		.file 3 "/usr/local/Cellar/arm-gcc-bin/8-2019-q3-update/arm-none-eabi/include/sys/_stdint.h"
 979              		.file 4 "../../os/ports/GCC/ARM/chtypes.h"
 980              		.file 5 "../../os/kernel/include/chlists.h"
 981              		.file 6 "../../os/kernel/include/chthreads.h"
 982              		.file 7 "../../os/ports/GCC/ARM/chcore.h"
 983              		.file 8 "../../os/kernel/include/chvt.h"
 984              		.file 9 "../../os/kernel/include/chschd.h"
 985              		.file 10 "../../os/kernel/include/chmtx.h"
 986              		.file 11 "../../os/kernel/include/chevents.h"
 987              		.file 12 "../../os/kernel/include/chregistry.h"
 988              		.file 13 "../../os/kernel/include/ch.h"
 989              		.file 14 "../../test/test.h"