ARM GAS  /var/folders/l5/0x54b2c10074c8bt31ycjvl80000gp/T//ccJpaUKa.s 			page 1


   1              		.cpu arm1176jz-s
   2              		.eabi_attribute 20, 1
   3              		.eabi_attribute 21, 1
   4              		.eabi_attribute 23, 3
   5              		.eabi_attribute 24, 1
   6              		.eabi_attribute 25, 1
   7              		.eabi_attribute 26, 1
   8              		.eabi_attribute 30, 2
   9              		.eabi_attribute 34, 1
  10              		.eabi_attribute 18, 4
  11              		.file	"testmsg.c"
  12              		.text
  13              	.Ltext0:
  14              		.cfi_sections	.debug_frame
  15              		.section	.text.msg1_execute,"ax",%progbits
  16              		.align	2
  17              		.arch armv6kz
  18              		.syntax unified
  19              		.arm
  20              		.fpu softvfp
  21              		.type	msg1_execute, %function
  22              	msg1_execute:
  23              	.LFB8:
  24              		.file 1 "../../test/testmsg.c"
  25              		.loc 1 71 32 view -0
  26              		.cfi_startproc
  27              		@ args = 0, pretend = 0, frame = 0
  28              		@ frame_needed = 0, uses_anonymous_args = 0
  29              		.loc 1 72 3 view .LVU1
  30              		.loc 1 73 3 view .LVU2
  31              		.loc 1 78 3 view .LVU3
  32              		.loc 1 71 32 is_stmt 0 view .LVU4
  33 0000 10402DE9 		push	{r4, lr}
  34              		.cfi_def_cfa_offset 8
  35              		.cfi_offset 4, -8
  36              		.cfi_offset 14, -4
  37              		.loc 1 78 50 view .LVU5
  38 0004 88209FE5 		ldr	r2, .L4
  39              		.loc 1 78 16 view .LVU6
  40 0008 88309FE5 		ldr	r3, .L4+4
  41              		.loc 1 78 50 view .LVU7
  42 000c 181092E5 		ldr	r1, [r2, #24]
  43              		.loc 1 71 32 view .LVU8
  44 0010 08D04DE2 		sub	sp, sp, #8
  45              		.cfi_def_cfa_offset 16
  46              		.loc 1 78 16 view .LVU9
  47 0014 082091E5 		ldr	r2, [r1, #8]
  48 0018 000093E5 		ldr	r0, [r3]
  49 001c 012082E2 		add	r2, r2, #1
  50 0020 00108DE5 		str	r1, [sp]
  51 0024 70309FE5 		ldr	r3, .L4+8
  52 0028 461FA0E3 		mov	r1, #280
  53 002c FEFFFFEB 		bl	chThdCreateStatic
  54              	.LVL0:
  55              		.loc 1 78 14 view .LVU10
  56 0030 68309FE5 		ldr	r3, .L4+12
  57 0034 000083E5 		str	r0, [r3]
ARM GAS  /var/folders/l5/0x54b2c10074c8bt31ycjvl80000gp/T//ccJpaUKa.s 			page 2


  58              		.loc 1 80 3 is_stmt 1 view .LVU11
  59              		.loc 1 80 8 is_stmt 0 view .LVU12
  60 0038 FEFFFFEB 		bl	chMsgWait
  61              	.LVL1:
  62              		.loc 1 81 3 is_stmt 1 view .LVU13
  63              		.loc 1 81 7 is_stmt 0 view .LVU14
  64 003c 344090E5 		ldr	r4, [r0, #52]
  65              	.LVL2:
  66              		.loc 1 82 3 is_stmt 1 view .LVU15
  67 0040 0410A0E1 		mov	r1, r4
  68 0044 FEFFFFEB 		bl	chMsgRelease
  69              	.LVL3:
  70              		.loc 1 83 3 view .LVU16
  71 0048 7400EFE6 		uxtb	r0, r4
  72 004c FEFFFFEB 		bl	test_emit_token
  73              	.LVL4:
  74              		.loc 1 84 3 view .LVU17
  75              		.loc 1 84 8 is_stmt 0 view .LVU18
  76 0050 FEFFFFEB 		bl	chMsgWait
  77              	.LVL5:
  78              		.loc 1 85 3 is_stmt 1 view .LVU19
  79              		.loc 1 85 7 is_stmt 0 view .LVU20
  80 0054 344090E5 		ldr	r4, [r0, #52]
  81              	.LVL6:
  82              		.loc 1 86 3 is_stmt 1 view .LVU21
  83 0058 0410A0E1 		mov	r1, r4
  84 005c FEFFFFEB 		bl	chMsgRelease
  85              	.LVL7:
  86              		.loc 1 87 3 view .LVU22
  87 0060 7400EFE6 		uxtb	r0, r4
  88 0064 FEFFFFEB 		bl	test_emit_token
  89              	.LVL8:
  90              		.loc 1 88 3 view .LVU23
  91              		.loc 1 88 8 is_stmt 0 view .LVU24
  92 0068 FEFFFFEB 		bl	chMsgWait
  93              	.LVL9:
  94              		.loc 1 89 3 is_stmt 1 view .LVU25
  95              		.loc 1 89 7 is_stmt 0 view .LVU26
  96 006c 344090E5 		ldr	r4, [r0, #52]
  97              	.LVL10:
  98              		.loc 1 90 3 is_stmt 1 view .LVU27
  99 0070 0410A0E1 		mov	r1, r4
 100 0074 FEFFFFEB 		bl	chMsgRelease
 101              	.LVL11:
 102              		.loc 1 91 3 view .LVU28
 103 0078 7400EFE6 		uxtb	r0, r4
 104 007c FEFFFFEB 		bl	test_emit_token
 105              	.LVL12:
 106              		.loc 1 92 3 view .LVU29
 107 0080 0100A0E3 		mov	r0, #1
 108 0084 18109FE5 		ldr	r1, .L4+16
 109              		.loc 1 93 1 is_stmt 0 view .LVU30
 110 0088 08D08DE2 		add	sp, sp, #8
 111              		.cfi_def_cfa_offset 8
 112              		@ sp needed
 113 008c 1040BDE8 		pop	{r4, lr}
 114              		.cfi_restore 14
ARM GAS  /var/folders/l5/0x54b2c10074c8bt31ycjvl80000gp/T//ccJpaUKa.s 			page 3


 115              		.cfi_restore 4
 116              		.cfi_def_cfa_offset 0
 117              	.LVL13:
 118              		.loc 1 92 3 view .LVU31
 119 0090 FEFFFFEA 		b	_test_assert_sequence
 120              	.LVL14:
 121              	.L5:
 122              		.align	2
 123              	.L4:
 124 0094 00000000 		.word	rlist
 125 0098 00000000 		.word	wa
 126 009c 00000000 		.word	thread
 127 00a0 00000000 		.word	threads
 128 00a4 00000000 		.word	.LC0
 129              		.cfi_endproc
 130              	.LFE8:
 131              		.size	msg1_execute, .-msg1_execute
 132              		.section	.text.thread,"ax",%progbits
 133              		.align	2
 134              		.syntax unified
 135              		.arm
 136              		.fpu softvfp
 137              		.type	thread, %function
 138              	thread:
 139              	.LVL15:
 140              	.LFB7:
 141              		.loc 1 63 30 is_stmt 1 view -0
 142              		.cfi_startproc
 143              		@ args = 0, pretend = 0, frame = 0
 144              		@ frame_needed = 0, uses_anonymous_args = 0
 145              		.loc 1 65 3 view .LVU33
 146              		.loc 1 63 30 is_stmt 0 view .LVU34
 147 0000 10402DE9 		push	{r4, lr}
 148              		.cfi_def_cfa_offset 8
 149              		.cfi_offset 4, -8
 150              		.cfi_offset 14, -4
 151              		.loc 1 63 30 view .LVU35
 152 0004 0040A0E1 		mov	r4, r0
 153              		.loc 1 65 3 view .LVU36
 154 0008 4110A0E3 		mov	r1, #65
 155 000c FEFFFFEB 		bl	chMsgSend
 156              	.LVL16:
 157              		.loc 1 66 3 is_stmt 1 view .LVU37
 158 0010 0400A0E1 		mov	r0, r4
 159 0014 4210A0E3 		mov	r1, #66
 160 0018 FEFFFFEB 		bl	chMsgSend
 161              	.LVL17:
 162              		.loc 1 67 3 view .LVU38
 163 001c 0400A0E1 		mov	r0, r4
 164 0020 4310A0E3 		mov	r1, #67
 165 0024 FEFFFFEB 		bl	chMsgSend
 166              	.LVL18:
 167              		.loc 1 68 3 view .LVU39
 168              		.loc 1 69 1 is_stmt 0 view .LVU40
 169 0028 0000A0E3 		mov	r0, #0
 170 002c 1080BDE8 		pop	{r4, pc}
 171              		.cfi_endproc
ARM GAS  /var/folders/l5/0x54b2c10074c8bt31ycjvl80000gp/T//ccJpaUKa.s 			page 4


 172              	.LFE7:
 173              		.size	thread, .-thread
 174              		.global	patternmsg
 175              		.global	testmsg1
 176              		.section	.rodata.msg1_execute.str1.4,"aMS",%progbits,1
 177              		.align	2
 178              	.LC0:
 179 0000 41424300 		.ascii	"ABC\000"
 180              		.section	.rodata.patternmsg,"a"
 181              		.align	2
 182              		.type	patternmsg, %object
 183              		.size	patternmsg, 8
 184              	patternmsg:
 185 0000 00000000 		.word	testmsg1
 186 0004 00000000 		.word	0
 187              		.section	.rodata.str1.4,"aMS",%progbits,1
 188              		.align	2
 189              	.LC1:
 190 0000 4D657373 		.ascii	"Messages, loop\000"
 190      61676573 
 190      2C206C6F 
 190      6F7000
 191              		.section	.rodata.testmsg1,"a"
 192              		.align	2
 193              		.type	testmsg1, %object
 194              		.size	testmsg1, 16
 195              	testmsg1:
 196 0000 00000000 		.word	.LC1
 197 0004 00000000 		.word	0
 198 0008 00000000 		.word	0
 199 000c 00000000 		.word	msg1_execute
 200              		.text
 201              	.Letext0:
 202              		.file 2 "/usr/local/Cellar/arm-gcc-bin/8-2019-q3-update/arm-none-eabi/include/machine/_default_typ
 203              		.file 3 "/usr/local/Cellar/arm-gcc-bin/8-2019-q3-update/arm-none-eabi/include/sys/_stdint.h"
 204              		.file 4 "../../os/ports/GCC/ARM/chtypes.h"
 205              		.file 5 "../../os/kernel/include/chlists.h"
 206              		.file 6 "../../os/kernel/include/chthreads.h"
 207              		.file 7 "../../os/ports/GCC/ARM/chcore.h"
 208              		.file 8 "../../os/kernel/include/chvt.h"
 209              		.file 9 "../../os/kernel/include/chschd.h"
 210              		.file 10 "../../os/kernel/include/chmtx.h"
 211              		.file 11 "../../os/kernel/include/chregistry.h"
 212              		.file 12 "../../os/kernel/include/ch.h"
 213              		.file 13 "../../test/test.h"
 214              		.file 14 "../../os/kernel/include/chmsg.h"