ARM GAS  /var/folders/l5/0x54b2c10074c8bt31ycjvl80000gp/T//ccBrkAPT.s 			page 1


   1              		.cpu arm1176jz-s
   2              		.eabi_attribute 20, 1
   3              		.eabi_attribute 21, 1
   4              		.eabi_attribute 23, 3
   5              		.eabi_attribute 24, 1
   6              		.eabi_attribute 25, 1
   7              		.eabi_attribute 26, 1
   8              		.eabi_attribute 30, 2
   9              		.eabi_attribute 34, 1
  10              		.eabi_attribute 18, 4
  11              		.file	"testthd.c"
  12              		.text
  13              	.Ltext0:
  14              		.cfi_sections	.debug_frame
  15              		.section	.text.thd1_execute,"ax",%progbits
  16              		.align	2
  17              		.arch armv6kz
  18              		.syntax unified
  19              		.arm
  20              		.fpu softvfp
  21              		.type	thd1_execute, %function
  22              	thd1_execute:
  23              	.LFB8:
  24              		.file 1 "../../test/testthd.c"
  25              		.loc 1 70 32 view -0
  26              		.cfi_startproc
  27              		@ args = 0, pretend = 0, frame = 0
  28              		@ frame_needed = 0, uses_anonymous_args = 0
  29              		.loc 1 72 3 view .LVU1
  30              		.loc 1 70 32 is_stmt 0 view .LVU2
  31 0000 F0402DE9 		push	{r4, r5, r6, r7, lr}
  32              		.cfi_def_cfa_offset 20
  33              		.cfi_offset 4, -20
  34              		.cfi_offset 5, -16
  35              		.cfi_offset 6, -12
  36              		.cfi_offset 7, -8
  37              		.cfi_offset 14, -4
  38              		.loc 1 72 50 view .LVU3
  39 0004 EC709FE5 		ldr	r7, .L4
  40              		.loc 1 72 16 view .LVU4
  41 0008 EC609FE5 		ldr	r6, .L4+4
  42              		.loc 1 72 50 view .LVU5
  43 000c 183097E5 		ldr	r3, [r7, #24]
  44              		.loc 1 72 16 view .LVU6
  45 0010 E8509FE5 		ldr	r5, .L4+8
  46 0014 082093E5 		ldr	r2, [r3, #8]
  47 0018 E4109FE5 		ldr	r1, .L4+12
  48              		.loc 1 70 32 view .LVU7
  49 001c 0CD04DE2 		sub	sp, sp, #12
  50              		.cfi_def_cfa_offset 32
  51              		.loc 1 72 16 view .LVU8
  52 0020 0630A0E1 		mov	r3, r6
  53 0024 00108DE5 		str	r1, [sp]
  54 0028 052042E2 		sub	r2, r2, #5
  55 002c 000095E5 		ldr	r0, [r5]
  56 0030 461FA0E3 		mov	r1, #280
  57 0034 FEFFFFEB 		bl	chThdCreateStatic
ARM GAS  /var/folders/l5/0x54b2c10074c8bt31ycjvl80000gp/T//ccBrkAPT.s 			page 2


  58              	.LVL0:
  59              		.loc 1 73 50 view .LVU9
  60 0038 183097E5 		ldr	r3, [r7, #24]
  61              		.loc 1 72 14 view .LVU10
  62 003c C4409FE5 		ldr	r4, .L4+16
  63              		.loc 1 73 16 view .LVU11
  64 0040 082093E5 		ldr	r2, [r3, #8]
  65 0044 C0109FE5 		ldr	r1, .L4+20
  66              		.loc 1 72 14 view .LVU12
  67 0048 000084E5 		str	r0, [r4]
  68              		.loc 1 73 3 is_stmt 1 view .LVU13
  69              		.loc 1 73 16 is_stmt 0 view .LVU14
  70 004c 0630A0E1 		mov	r3, r6
  71 0050 00108DE5 		str	r1, [sp]
  72 0054 042042E2 		sub	r2, r2, #4
  73 0058 040095E5 		ldr	r0, [r5, #4]
  74 005c 461FA0E3 		mov	r1, #280
  75 0060 FEFFFFEB 		bl	chThdCreateStatic
  76              	.LVL1:
  77              		.loc 1 74 50 view .LVU15
  78 0064 183097E5 		ldr	r3, [r7, #24]
  79              		.loc 1 74 16 view .LVU16
  80 0068 A0109FE5 		ldr	r1, .L4+24
  81 006c 082093E5 		ldr	r2, [r3, #8]
  82              		.loc 1 73 14 view .LVU17
  83 0070 040084E5 		str	r0, [r4, #4]
  84              		.loc 1 74 3 is_stmt 1 view .LVU18
  85              		.loc 1 74 16 is_stmt 0 view .LVU19
  86 0074 0630A0E1 		mov	r3, r6
  87 0078 00108DE5 		str	r1, [sp]
  88 007c 032042E2 		sub	r2, r2, #3
  89 0080 080095E5 		ldr	r0, [r5, #8]
  90 0084 461FA0E3 		mov	r1, #280
  91 0088 FEFFFFEB 		bl	chThdCreateStatic
  92              	.LVL2:
  93              		.loc 1 75 50 view .LVU20
  94 008c 183097E5 		ldr	r3, [r7, #24]
  95              		.loc 1 75 16 view .LVU21
  96 0090 7C109FE5 		ldr	r1, .L4+28
  97 0094 082093E5 		ldr	r2, [r3, #8]
  98              		.loc 1 74 14 view .LVU22
  99 0098 080084E5 		str	r0, [r4, #8]
 100              		.loc 1 75 3 is_stmt 1 view .LVU23
 101              		.loc 1 75 16 is_stmt 0 view .LVU24
 102 009c 0630A0E1 		mov	r3, r6
 103 00a0 00108DE5 		str	r1, [sp]
 104 00a4 022042E2 		sub	r2, r2, #2
 105 00a8 0C0095E5 		ldr	r0, [r5, #12]
 106 00ac 461FA0E3 		mov	r1, #280
 107 00b0 FEFFFFEB 		bl	chThdCreateStatic
 108              	.LVL3:
 109              		.loc 1 76 50 view .LVU25
 110 00b4 183097E5 		ldr	r3, [r7, #24]
 111              		.loc 1 76 16 view .LVU26
 112 00b8 58109FE5 		ldr	r1, .L4+32
 113 00bc 082093E5 		ldr	r2, [r3, #8]
 114              		.loc 1 75 14 view .LVU27
ARM GAS  /var/folders/l5/0x54b2c10074c8bt31ycjvl80000gp/T//ccBrkAPT.s 			page 3


 115 00c0 0C0084E5 		str	r0, [r4, #12]
 116              		.loc 1 76 3 is_stmt 1 view .LVU28
 117              		.loc 1 76 16 is_stmt 0 view .LVU29
 118 00c4 012042E2 		sub	r2, r2, #1
 119 00c8 0630A0E1 		mov	r3, r6
 120 00cc 00108DE5 		str	r1, [sp]
 121 00d0 100095E5 		ldr	r0, [r5, #16]
 122 00d4 461FA0E3 		mov	r1, #280
 123 00d8 FEFFFFEB 		bl	chThdCreateStatic
 124              	.LVL4:
 125              		.loc 1 76 14 view .LVU30
 126 00dc 100084E5 		str	r0, [r4, #16]
 127              		.loc 1 77 3 is_stmt 1 view .LVU31
 128 00e0 FEFFFFEB 		bl	test_wait_threads
 129              	.LVL5:
 130              		.loc 1 78 3 view .LVU32
 131 00e4 0100A0E3 		mov	r0, #1
 132 00e8 2C109FE5 		ldr	r1, .L4+36
 133              		.loc 1 79 1 is_stmt 0 view .LVU33
 134 00ec 0CD08DE2 		add	sp, sp, #12
 135              		.cfi_def_cfa_offset 20
 136              		@ sp needed
 137 00f0 F040BDE8 		pop	{r4, r5, r6, r7, lr}
 138              		.cfi_restore 14
 139              		.cfi_restore 7
 140              		.cfi_restore 6
 141              		.cfi_restore 5
 142              		.cfi_restore 4
 143              		.cfi_def_cfa_offset 0
 144              		.loc 1 78 3 view .LVU34
 145 00f4 FEFFFFEA 		b	_test_assert_sequence
 146              	.LVL6:
 147              	.L5:
 148              		.align	2
 149              	.L4:
 150 00f8 00000000 		.word	rlist
 151 00fc 00000000 		.word	thread
 152 0100 00000000 		.word	wa
 153 0104 00000000 		.word	.LC0
 154 0108 00000000 		.word	threads
 155 010c 04000000 		.word	.LC1
 156 0110 08000000 		.word	.LC2
 157 0114 0C000000 		.word	.LC3
 158 0118 10000000 		.word	.LC4
 159 011c 14000000 		.word	.LC5
 160              		.cfi_endproc
 161              	.LFE8:
 162              		.size	thd1_execute, .-thd1_execute
 163              		.section	.text.thread,"ax",%progbits
 164              		.align	2
 165              		.syntax unified
 166              		.arm
 167              		.fpu softvfp
 168              		.type	thread, %function
 169              	thread:
 170              	.LVL7:
 171              	.LFB7:
ARM GAS  /var/folders/l5/0x54b2c10074c8bt31ycjvl80000gp/T//ccBrkAPT.s 			page 4


 172              		.loc 1 64 30 is_stmt 1 view -0
 173              		.cfi_startproc
 174              		@ args = 0, pretend = 0, frame = 0
 175              		@ frame_needed = 0, uses_anonymous_args = 0
 176              		.loc 1 66 3 view .LVU36
 177              		.loc 1 64 30 is_stmt 0 view .LVU37
 178 0000 10402DE9 		push	{r4, lr}
 179              		.cfi_def_cfa_offset 8
 180              		.cfi_offset 4, -8
 181              		.cfi_offset 14, -4
 182              		.loc 1 66 3 view .LVU38
 183 0004 0000D0E5 		ldrb	r0, [r0]	@ zero_extendqisi2
 184              	.LVL8:
 185              		.loc 1 66 3 view .LVU39
 186 0008 FEFFFFEB 		bl	test_emit_token
 187              	.LVL9:
 188              		.loc 1 67 3 is_stmt 1 view .LVU40
 189              		.loc 1 68 1 is_stmt 0 view .LVU41
 190 000c 0000A0E3 		mov	r0, #0
 191 0010 1080BDE8 		pop	{r4, pc}
 192              		.cfi_endproc
 193              	.LFE7:
 194              		.size	thread, .-thread
 195              		.section	.text.thd2_execute,"ax",%progbits
 196              		.align	2
 197              		.syntax unified
 198              		.arm
 199              		.fpu softvfp
 200              		.type	thd2_execute, %function
 201              	thd2_execute:
 202              	.LFB9:
 203              		.loc 1 98 32 is_stmt 1 view -0
 204              		.cfi_startproc
 205              		@ args = 0, pretend = 0, frame = 0
 206              		@ frame_needed = 0, uses_anonymous_args = 0
 207              		.loc 1 100 3 view .LVU43
 208              		.loc 1 98 32 is_stmt 0 view .LVU44
 209 0000 F0402DE9 		push	{r4, r5, r6, r7, lr}
 210              		.cfi_def_cfa_offset 20
 211              		.cfi_offset 4, -20
 212              		.cfi_offset 5, -16
 213              		.cfi_offset 6, -12
 214              		.cfi_offset 7, -8
 215              		.cfi_offset 14, -4
 216              		.loc 1 100 50 view .LVU45
 217 0004 FC709FE5 		ldr	r7, .L10
 218              		.loc 1 100 16 view .LVU46
 219 0008 FC609FE5 		ldr	r6, .L10+4
 220              		.loc 1 100 50 view .LVU47
 221 000c 183097E5 		ldr	r3, [r7, #24]
 222              		.loc 1 100 16 view .LVU48
 223 0010 F8509FE5 		ldr	r5, .L10+8
 224 0014 082093E5 		ldr	r2, [r3, #8]
 225 0018 F4109FE5 		ldr	r1, .L10+12
 226              		.loc 1 98 32 view .LVU49
 227 001c 0CD04DE2 		sub	sp, sp, #12
 228              		.cfi_def_cfa_offset 32
ARM GAS  /var/folders/l5/0x54b2c10074c8bt31ycjvl80000gp/T//ccBrkAPT.s 			page 5


 229              		.loc 1 100 16 view .LVU50
 230 0020 0630A0E1 		mov	r3, r6
 231 0024 00108DE5 		str	r1, [sp]
 232 0028 042042E2 		sub	r2, r2, #4
 233 002c 040095E5 		ldr	r0, [r5, #4]
 234 0030 461FA0E3 		mov	r1, #280
 235 0034 FEFFFFEB 		bl	chThdCreateStatic
 236              	.LVL10:
 237              		.loc 1 101 50 view .LVU51
 238 0038 183097E5 		ldr	r3, [r7, #24]
 239              		.loc 1 100 14 view .LVU52
 240 003c D4409FE5 		ldr	r4, .L10+16
 241              		.loc 1 101 16 view .LVU53
 242 0040 082093E5 		ldr	r2, [r3, #8]
 243 0044 D0109FE5 		ldr	r1, .L10+20
 244              		.loc 1 100 14 view .LVU54
 245 0048 040084E5 		str	r0, [r4, #4]
 246              		.loc 1 101 3 is_stmt 1 view .LVU55
 247              		.loc 1 101 16 is_stmt 0 view .LVU56
 248 004c 0630A0E1 		mov	r3, r6
 249 0050 00108DE5 		str	r1, [sp]
 250 0054 052042E2 		sub	r2, r2, #5
 251 0058 000095E5 		ldr	r0, [r5]
 252 005c 461FA0E3 		mov	r1, #280
 253 0060 FEFFFFEB 		bl	chThdCreateStatic
 254              	.LVL11:
 255              		.loc 1 102 50 view .LVU57
 256 0064 183097E5 		ldr	r3, [r7, #24]
 257              		.loc 1 102 16 view .LVU58
 258 0068 B0109FE5 		ldr	r1, .L10+24
 259 006c 082093E5 		ldr	r2, [r3, #8]
 260              		.loc 1 101 14 view .LVU59
 261 0070 000084E5 		str	r0, [r4]
 262              		.loc 1 102 3 is_stmt 1 view .LVU60
 263              		.loc 1 102 16 is_stmt 0 view .LVU61
 264 0074 0630A0E1 		mov	r3, r6
 265 0078 00108DE5 		str	r1, [sp]
 266 007c 012042E2 		sub	r2, r2, #1
 267 0080 100095E5 		ldr	r0, [r5, #16]
 268 0084 461FA0E3 		mov	r1, #280
 269 0088 FEFFFFEB 		bl	chThdCreateStatic
 270              	.LVL12:
 271              		.loc 1 103 50 view .LVU62
 272 008c 183097E5 		ldr	r3, [r7, #24]
 273              		.loc 1 103 16 view .LVU63
 274 0090 8C109FE5 		ldr	r1, .L10+28
 275 0094 082093E5 		ldr	r2, [r3, #8]
 276              		.loc 1 102 14 view .LVU64
 277 0098 100084E5 		str	r0, [r4, #16]
 278              		.loc 1 103 3 is_stmt 1 view .LVU65
 279              		.loc 1 103 16 is_stmt 0 view .LVU66
 280 009c 00108DE5 		str	r1, [sp]
 281 00a0 022042E2 		sub	r2, r2, #2
 282 00a4 0630A0E1 		mov	r3, r6
 283 00a8 0C0095E5 		ldr	r0, [r5, #12]
 284 00ac 461FA0E3 		mov	r1, #280
 285 00b0 FEFFFFEB 		bl	chThdCreateStatic
ARM GAS  /var/folders/l5/0x54b2c10074c8bt31ycjvl80000gp/T//ccBrkAPT.s 			page 6


 286              	.LVL13:
 287              		.loc 1 103 14 view .LVU67
 288 00b4 0C0084E5 		str	r0, [r4, #12]
 289              		.loc 1 105 3 is_stmt 1 view .LVU68
 290              		.syntax divided
 291              	@ 105 "../../test/testthd.c" 1
 292 00b8 9FF021E3 		msr     CPSR_c, #0x9F
 293              	@ 0 "" 2
 294              		.loc 1 105 3 view .LVU69
 295              		.loc 1 105 14 view .LVU70
 296              		.loc 1 106 3 view .LVU71
 297              		.loc 1 106 45 is_stmt 0 view .LVU72
 298              		.arm
 299              		.syntax unified
 300 00bc 183097E5 		ldr	r3, [r7, #24]
 301              		.loc 1 106 16 view .LVU73
 302 00c0 60109FE5 		ldr	r1, .L10+32
 303 00c4 082093E5 		ldr	r2, [r3, #8]
 304 00c8 080095E5 		ldr	r0, [r5, #8]
 305 00cc 00108DE5 		str	r1, [sp]
 306 00d0 0630A0E1 		mov	r3, r6
 307 00d4 032042E2 		sub	r2, r2, #3
 308 00d8 461FA0E3 		mov	r1, #280
 309 00dc FEFFFFEB 		bl	chThdCreateI
 310              	.LVL14:
 311              		.loc 1 106 14 view .LVU74
 312 00e0 080084E5 		str	r0, [r4, #8]
 313              		.loc 1 107 3 is_stmt 1 view .LVU75
 314              		.loc 1 107 3 view .LVU76
 315              		.syntax divided
 316              	@ 107 "../../test/testthd.c" 1
 317 00e4 1FF021E3 		msr     CPSR_c, #0x1F
 318              	@ 0 "" 2
 319              		.loc 1 107 16 view .LVU77
 320              		.loc 1 108 3 view .LVU78
 321              		.arm
 322              		.syntax unified
 323 00e8 080094E5 		ldr	r0, [r4, #8]
 324 00ec FEFFFFEB 		bl	chThdResume
 325              	.LVL15:
 326              		.loc 1 109 3 view .LVU79
 327 00f0 FEFFFFEB 		bl	test_wait_threads
 328              	.LVL16:
 329              		.loc 1 110 3 view .LVU80
 330 00f4 0100A0E3 		mov	r0, #1
 331 00f8 2C109FE5 		ldr	r1, .L10+36
 332              		.loc 1 111 1 is_stmt 0 view .LVU81
 333 00fc 0CD08DE2 		add	sp, sp, #12
 334              		.cfi_def_cfa_offset 20
 335              		@ sp needed
 336 0100 F040BDE8 		pop	{r4, r5, r6, r7, lr}
 337              		.cfi_restore 14
 338              		.cfi_restore 7
 339              		.cfi_restore 6
 340              		.cfi_restore 5
 341              		.cfi_restore 4
 342              		.cfi_def_cfa_offset 0
ARM GAS  /var/folders/l5/0x54b2c10074c8bt31ycjvl80000gp/T//ccBrkAPT.s 			page 7


 343              		.loc 1 110 3 view .LVU82
 344 0104 FEFFFFEA 		b	_test_assert_sequence
 345              	.LVL17:
 346              	.L11:
 347              		.align	2
 348              	.L10:
 349 0108 00000000 		.word	rlist
 350 010c 00000000 		.word	thread
 351 0110 00000000 		.word	wa
 352 0114 04000000 		.word	.LC1
 353 0118 00000000 		.word	threads
 354 011c 00000000 		.word	.LC0
 355 0120 10000000 		.word	.LC4
 356 0124 0C000000 		.word	.LC3
 357 0128 08000000 		.word	.LC2
 358 012c 14000000 		.word	.LC5
 359              		.cfi_endproc
 360              	.LFE9:
 361              		.size	thd2_execute, .-thd2_execute
 362              		.section	.text.thd3_execute,"ax",%progbits
 363              		.align	2
 364              		.syntax unified
 365              		.arm
 366              		.fpu softvfp
 367              		.type	thd3_execute, %function
 368              	thd3_execute:
 369              	.LFB10:
 370              		.loc 1 130 32 is_stmt 1 view -0
 371              		.cfi_startproc
 372              		@ args = 0, pretend = 0, frame = 0
 373              		@ frame_needed = 0, uses_anonymous_args = 0
 374              		.loc 1 131 3 view .LVU84
 375              		.loc 1 133 3 view .LVU85
 376              		.loc 1 130 32 is_stmt 0 view .LVU86
 377 0000 F0412DE9 		push	{r4, r5, r6, r7, r8, lr}
 378              		.cfi_def_cfa_offset 24
 379              		.cfi_offset 4, -24
 380              		.cfi_offset 5, -20
 381              		.cfi_offset 6, -16
 382              		.cfi_offset 7, -12
 383              		.cfi_offset 8, -8
 384              		.cfi_offset 14, -4
 385              		.loc 1 133 10 view .LVU87
 386 0004 D0619FE5 		ldr	r6, .L17
 387              		.loc 1 133 8 view .LVU88
 388 0008 183096E5 		ldr	r3, [r6, #24]
 389 000c 084093E5 		ldr	r4, [r3, #8]
 390              	.LVL18:
 391              		.loc 1 134 3 is_stmt 1 view .LVU89
 392              		.loc 1 134 8 is_stmt 0 view .LVU90
 393 0010 015084E2 		add	r5, r4, #1
 394 0014 0500A0E1 		mov	r0, r5
 395 0018 FEFFFFEB 		bl	chThdSetPriority
 396              	.LVL19:
 397 001c 0070A0E1 		mov	r7, r0
 398              	.LVL20:
 399              		.loc 1 135 3 is_stmt 1 view .LVU91
ARM GAS  /var/folders/l5/0x54b2c10074c8bt31ycjvl80000gp/T//ccBrkAPT.s 			page 8


 400 0020 071044E0 		sub	r1, r4, r7
 401 0024 111F6FE1 		clz	r1, r1
 402 0028 0100A0E3 		mov	r0, #1
 403              	.LVL21:
 404              		.loc 1 135 3 is_stmt 0 view .LVU92
 405 002c A112A0E1 		lsr	r1, r1, #5
 406 0030 FEFFFFEB 		bl	_test_assert
 407              	.LVL22:
 408 0034 000050E3 		cmp	r0, #0
 409 0038 F081BD18 		popne	{r4, r5, r6, r7, r8, pc}
 410              		.loc 1 136 52 is_stmt 1 view .LVU93
 411              		.loc 1 137 3 view .LVU94
 412 003c 183096E5 		ldr	r3, [r6, #24]
 413 0040 0200A0E3 		mov	r0, #2
 414 0044 081093E5 		ldr	r1, [r3, #8]
 415 0048 051041E0 		sub	r1, r1, r5
 416 004c 111F6FE1 		clz	r1, r1
 417 0050 A112A0E1 		lsr	r1, r1, #5
 418 0054 FEFFFFEB 		bl	_test_assert
 419              	.LVL23:
 420 0058 000050E3 		cmp	r0, #0
 421 005c F081BD18 		popne	{r4, r5, r6, r7, r8, pc}
 422              		.loc 1 138 43 view .LVU95
 423              		.loc 1 139 3 view .LVU96
 424              		.loc 1 139 8 is_stmt 0 view .LVU97
 425 0060 0700A0E1 		mov	r0, r7
 426 0064 FEFFFFEB 		bl	chThdSetPriority
 427              	.LVL24:
 428              		.loc 1 140 3 is_stmt 1 view .LVU98
 429 0068 001045E0 		sub	r1, r5, r0
 430 006c 111F6FE1 		clz	r1, r1
 431 0070 0300A0E3 		mov	r0, #3
 432              	.LVL25:
 433              		.loc 1 140 3 is_stmt 0 view .LVU99
 434 0074 A112A0E1 		lsr	r1, r1, #5
 435 0078 FEFFFFEB 		bl	_test_assert
 436              	.LVL26:
 437 007c 000050E3 		cmp	r0, #0
 438 0080 F081BD18 		popne	{r4, r5, r6, r7, r8, pc}
 439              		.loc 1 141 52 is_stmt 1 view .LVU100
 440              		.loc 1 142 3 view .LVU101
 441 0084 183096E5 		ldr	r3, [r6, #24]
 442 0088 0400A0E3 		mov	r0, #4
 443 008c 081093E5 		ldr	r1, [r3, #8]
 444 0090 041041E0 		sub	r1, r1, r4
 445 0094 111F6FE1 		clz	r1, r1
 446 0098 A112A0E1 		lsr	r1, r1, #5
 447 009c FEFFFFEB 		bl	_test_assert
 448              	.LVL27:
 449 00a0 000050E3 		cmp	r0, #0
 450 00a4 F081BD18 		popne	{r4, r5, r6, r7, r8, pc}
 451              		.loc 1 143 43 view .LVU102
 452              		.loc 1 147 3 view .LVU103
 453              		.syntax divided
 454              	@ 147 "../../test/testthd.c" 1
 455 00a8 9FF021E3 		msr     CPSR_c, #0x9F
 456              	@ 0 "" 2
ARM GAS  /var/folders/l5/0x54b2c10074c8bt31ycjvl80000gp/T//ccBrkAPT.s 			page 9


 457              		.loc 1 147 3 view .LVU104
 458              		.loc 1 147 14 view .LVU105
 459              		.loc 1 148 3 view .LVU106
 460              		.arm
 461              		.syntax unified
 462 00ac 182096E5 		ldr	r2, [r6, #24]
 463              		.loc 1 148 23 is_stmt 0 view .LVU107
 464 00b0 083092E5 		ldr	r3, [r2, #8]
 465 00b4 023083E2 		add	r3, r3, #2
 466 00b8 083082E5 		str	r3, [r2, #8]
 467              		.loc 1 149 3 is_stmt 1 view .LVU108
 468              		.loc 1 149 3 view .LVU109
 469              		.syntax divided
 470              	@ 149 "../../test/testthd.c" 1
 471 00bc 1FF021E3 		msr     CPSR_c, #0x1F
 472              	@ 0 "" 2
 473              		.loc 1 149 16 view .LVU110
 474              		.loc 1 150 3 view .LVU111
 475              		.arm
 476              		.syntax unified
 477 00c0 183096E5 		ldr	r3, [r6, #24]
 478 00c4 027084E2 		add	r7, r4, #2
 479 00c8 081093E5 		ldr	r1, [r3, #8]
 480 00cc 0500A0E3 		mov	r0, #5
 481 00d0 071041E0 		sub	r1, r1, r7
 482 00d4 111F6FE1 		clz	r1, r1
 483 00d8 A112A0E1 		lsr	r1, r1, #5
 484 00dc FEFFFFEB 		bl	_test_assert
 485              	.LVL28:
 486 00e0 000050E3 		cmp	r0, #0
 487 00e4 F081BD18 		popne	{r4, r5, r6, r7, r8, pc}
 488              		.loc 1 151 43 view .LVU112
 489              		.loc 1 154 3 view .LVU113
 490              		.loc 1 154 8 is_stmt 0 view .LVU114
 491 00e8 0500A0E1 		mov	r0, r5
 492 00ec FEFFFFEB 		bl	chThdSetPriority
 493              	.LVL29:
 494              		.loc 1 155 3 is_stmt 1 view .LVU115
 495 00f0 001044E0 		sub	r1, r4, r0
 496 00f4 111F6FE1 		clz	r1, r1
 497 00f8 0600A0E3 		mov	r0, #6
 498              	.LVL30:
 499              		.loc 1 155 3 is_stmt 0 view .LVU116
 500 00fc A112A0E1 		lsr	r1, r1, #5
 501 0100 FEFFFFEB 		bl	_test_assert
 502              	.LVL31:
 503 0104 000050E3 		cmp	r0, #0
 504 0108 F081BD18 		popne	{r4, r5, r6, r7, r8, pc}
 505              		.loc 1 156 52 is_stmt 1 view .LVU117
 506              		.loc 1 157 3 view .LVU118
 507 010c 183096E5 		ldr	r3, [r6, #24]
 508 0110 0700A0E3 		mov	r0, #7
 509 0114 081093E5 		ldr	r1, [r3, #8]
 510 0118 071041E0 		sub	r1, r1, r7
 511 011c 111F6FE1 		clz	r1, r1
 512 0120 A112A0E1 		lsr	r1, r1, #5
 513 0124 FEFFFFEB 		bl	_test_assert
ARM GAS  /var/folders/l5/0x54b2c10074c8bt31ycjvl80000gp/T//ccBrkAPT.s 			page 10


 514              	.LVL32:
 515 0128 000050E3 		cmp	r0, #0
 516 012c F081BD18 		popne	{r4, r5, r6, r7, r8, pc}
 517              		.loc 1 158 43 view .LVU119
 518              		.loc 1 159 3 view .LVU120
 519 0130 183096E5 		ldr	r3, [r6, #24]
 520 0134 0800A0E3 		mov	r0, #8
 521 0138 401093E5 		ldr	r1, [r3, #64]
 522 013c 051041E0 		sub	r1, r1, r5
 523 0140 111F6FE1 		clz	r1, r1
 524 0144 A112A0E1 		lsr	r1, r1, #5
 525 0148 FEFFFFEB 		bl	_test_assert
 526              	.LVL33:
 527 014c 000050E3 		cmp	r0, #0
 528 0150 F081BD18 		popne	{r4, r5, r6, r7, r8, pc}
 529              		.loc 1 160 57 view .LVU121
 530              		.loc 1 163 3 view .LVU122
 531              		.loc 1 163 8 is_stmt 0 view .LVU123
 532 0154 037084E2 		add	r7, r4, #3
 533 0158 0700A0E1 		mov	r0, r7
 534 015c FEFFFFEB 		bl	chThdSetPriority
 535              	.LVL34:
 536              		.loc 1 164 3 is_stmt 1 view .LVU124
 537 0160 001045E0 		sub	r1, r5, r0
 538 0164 111F6FE1 		clz	r1, r1
 539 0168 0900A0E3 		mov	r0, #9
 540              	.LVL35:
 541              		.loc 1 164 3 is_stmt 0 view .LVU125
 542 016c A112A0E1 		lsr	r1, r1, #5
 543 0170 FEFFFFEB 		bl	_test_assert
 544              	.LVL36:
 545 0174 000050E3 		cmp	r0, #0
 546 0178 F081BD18 		popne	{r4, r5, r6, r7, r8, pc}
 547              		.loc 1 165 52 is_stmt 1 view .LVU126
 548              		.loc 1 166 3 view .LVU127
 549 017c 183096E5 		ldr	r3, [r6, #24]
 550 0180 0A00A0E3 		mov	r0, #10
 551 0184 081093E5 		ldr	r1, [r3, #8]
 552 0188 071041E0 		sub	r1, r1, r7
 553 018c 111F6FE1 		clz	r1, r1
 554 0190 A112A0E1 		lsr	r1, r1, #5
 555 0194 FEFFFFEB 		bl	_test_assert
 556              	.LVL37:
 557 0198 000050E3 		cmp	r0, #0
 558 019c F081BD18 		popne	{r4, r5, r6, r7, r8, pc}
 559              		.loc 1 167 43 view .LVU128
 560              		.loc 1 168 3 view .LVU129
 561 01a0 183096E5 		ldr	r3, [r6, #24]
 562 01a4 0B00A0E3 		mov	r0, #11
 563 01a8 401093E5 		ldr	r1, [r3, #64]
 564 01ac 071041E0 		sub	r1, r1, r7
 565 01b0 111F6FE1 		clz	r1, r1
 566 01b4 A112A0E1 		lsr	r1, r1, #5
 567 01b8 FEFFFFEB 		bl	_test_assert
 568              	.LVL38:
 569 01bc 000050E3 		cmp	r0, #0
 570 01c0 F081BD18 		popne	{r4, r5, r6, r7, r8, pc}
ARM GAS  /var/folders/l5/0x54b2c10074c8bt31ycjvl80000gp/T//ccBrkAPT.s 			page 11


 571              		.loc 1 169 48 view .LVU130
 572              		.loc 1 171 3 view .LVU131
 573              		.syntax divided
 574              	@ 171 "../../test/testthd.c" 1
 575 01c4 9FF021E3 		msr     CPSR_c, #0x9F
 576              	@ 0 "" 2
 577              		.loc 1 171 3 view .LVU132
 578              		.loc 1 171 14 view .LVU133
 579              		.loc 1 172 3 view .LVU134
 580              		.arm
 581              		.syntax unified
 582 01c8 183096E5 		ldr	r3, [r6, #24]
 583              		.loc 1 172 23 is_stmt 0 view .LVU135
 584 01cc 084083E5 		str	r4, [r3, #8]
 585              		.loc 1 173 3 is_stmt 1 view .LVU136
 586              		.loc 1 173 27 is_stmt 0 view .LVU137
 587 01d0 404083E5 		str	r4, [r3, #64]
 588              		.loc 1 174 3 is_stmt 1 view .LVU138
 589              		.loc 1 174 3 view .LVU139
 590              		.syntax divided
 591              	@ 174 "../../test/testthd.c" 1
 592 01d4 1FF021E3 		msr     CPSR_c, #0x1F
 593              	@ 0 "" 2
 594              		.loc 1 174 16 view .LVU140
 595              		.loc 1 176 1 is_stmt 0 view .LVU141
 596              		.arm
 597              		.syntax unified
 598 01d8 F081BDE8 		pop	{r4, r5, r6, r7, r8, pc}
 599              	.L18:
 600              		.align	2
 601              	.L17:
 602 01dc 00000000 		.word	rlist
 603              		.cfi_endproc
 604              	.LFE10:
 605              		.size	thd3_execute, .-thd3_execute
 606              		.section	.text.thd4_execute,"ax",%progbits
 607              		.align	2
 608              		.syntax unified
 609              		.arm
 610              		.fpu softvfp
 611              		.type	thd4_execute, %function
 612              	thd4_execute:
 613              	.LFB11:
 614              		.loc 1 193 32 is_stmt 1 view -0
 615              		.cfi_startproc
 616              		@ args = 0, pretend = 0, frame = 0
 617              		@ frame_needed = 0, uses_anonymous_args = 0
 618              		.loc 1 194 3 view .LVU143
 619              		.loc 1 196 3 view .LVU144
 620              		.loc 1 193 32 is_stmt 0 view .LVU145
 621 0000 70402DE9 		push	{r4, r5, r6, lr}
 622              		.cfi_def_cfa_offset 16
 623              		.cfi_offset 4, -16
 624              		.cfi_offset 5, -12
 625              		.cfi_offset 6, -8
 626              		.cfi_offset 14, -4
 627              		.loc 1 199 8 view .LVU146
ARM GAS  /var/folders/l5/0x54b2c10074c8bt31ycjvl80000gp/T//ccBrkAPT.s 			page 12


 628 0004 90509FE5 		ldr	r5, .L24
 629              		.loc 1 196 3 view .LVU147
 630 0008 FEFFFFEB 		bl	test_wait_tick
 631              	.LVL39:
 632              		.loc 1 199 3 is_stmt 1 view .LVU148
 633              		.loc 1 199 8 is_stmt 0 view .LVU149
 634 000c 0C4095E5 		ldr	r4, [r5, #12]
 635              	.LVL40:
 636              		.loc 1 200 3 is_stmt 1 view .LVU150
 637 0010 6400A0E3 		mov	r0, #100
 638 0014 FEFFFFEB 		bl	chThdSleep
 639              	.LVL41:
 640              		.loc 1 201 3 view .LVU151
 641 0018 652084E2 		add	r2, r4, #101
 642 001c 641084E2 		add	r1, r4, #100
 643 0020 0100A0E3 		mov	r0, #1
 644 0024 FEFFFFEB 		bl	_test_assert_time_window
 645              	.LVL42:
 646 0028 000050E3 		cmp	r0, #0
 647 002c 7080BD18 		popne	{r4, r5, r6, pc}
 648              		.loc 1 201 77 discriminator 2 view .LVU152
 649              		.loc 1 204 3 discriminator 2 view .LVU153
 650              		.loc 1 204 8 is_stmt 0 discriminator 2 view .LVU154
 651 0030 0C4095E5 		ldr	r4, [r5, #12]
 652              	.LVL43:
 653              		.loc 1 205 3 is_stmt 1 discriminator 2 view .LVU155
 654 0034 6400A0E3 		mov	r0, #100
 655 0038 FEFFFFEB 		bl	chThdSleep
 656              	.LVL44:
 657              		.loc 1 206 3 discriminator 2 view .LVU156
 658 003c 652084E2 		add	r2, r4, #101
 659 0040 641084E2 		add	r1, r4, #100
 660 0044 0200A0E3 		mov	r0, #2
 661 0048 FEFFFFEB 		bl	_test_assert_time_window
 662              	.LVL45:
 663 004c 000050E3 		cmp	r0, #0
 664 0050 7080BD18 		popne	{r4, r5, r6, pc}
 665              	.LBB4:
 666              	.LBI4:
 667              		.loc 1 193 13 view .LVU157
 668              	.LBB5:
 669              		.loc 1 206 71 view .LVU158
 670              		.loc 1 209 3 view .LVU159
 671              		.loc 1 209 8 is_stmt 0 view .LVU160
 672 0054 0C4095E5 		ldr	r4, [r5, #12]
 673              	.LVL46:
 674              		.loc 1 210 3 is_stmt 1 view .LVU161
 675 0058 FA0FA0E3 		mov	r0, #1000
 676 005c FEFFFFEB 		bl	chThdSleep
 677              	.LVL47:
 678              		.loc 1 211 3 view .LVU162
 679 0060 FA1F84E2 		add	r1, r4, #1000
 680 0064 012081E2 		add	r2, r1, #1
 681 0068 0300A0E3 		mov	r0, #3
 682 006c FEFFFFEB 		bl	_test_assert_time_window
 683              	.LVL48:
 684 0070 000050E3 		cmp	r0, #0
ARM GAS  /var/folders/l5/0x54b2c10074c8bt31ycjvl80000gp/T//ccBrkAPT.s 			page 13


 685 0074 7080BD18 		popne	{r4, r5, r6, pc}
 686              		.loc 1 211 65 view .LVU163
 687              		.loc 1 214 3 view .LVU164
 688              		.loc 1 214 10 is_stmt 0 view .LVU165
 689 0078 0C4095E5 		ldr	r4, [r5, #12]
 690              	.LVL49:
 691              		.loc 1 214 8 view .LVU166
 692 007c 645084E2 		add	r5, r4, #100
 693              	.LVL50:
 694              		.loc 1 215 3 is_stmt 1 view .LVU167
 695 0080 0500A0E1 		mov	r0, r5
 696 0084 FEFFFFEB 		bl	chThdSleepUntil
 697              	.LVL51:
 698              		.loc 1 216 3 view .LVU168
 699 0088 0510A0E1 		mov	r1, r5
 700 008c 652084E2 		add	r2, r4, #101
 701 0090 0400A0E3 		mov	r0, #4
 702              	.LBE5:
 703              	.LBE4:
 704              		.loc 1 217 1 is_stmt 0 view .LVU169
 705 0094 7040BDE8 		pop	{r4, r5, r6, lr}
 706              		.cfi_restore 14
 707              		.cfi_restore 6
 708              		.cfi_restore 5
 709              		.cfi_restore 4
 710              		.cfi_def_cfa_offset 0
 711              	.LVL52:
 712              	.LBB7:
 713              	.LBB6:
 714              		.loc 1 216 3 view .LVU170
 715 0098 FEFFFFEA 		b	_test_assert_time_window
 716              	.LVL53:
 717              	.L25:
 718              		.loc 1 216 3 view .LVU171
 719              		.align	2
 720              	.L24:
 721 009c 00000000 		.word	vtlist
 722              	.LBE6:
 723              	.LBE7:
 724              		.cfi_endproc
 725              	.LFE11:
 726              		.size	thd4_execute, .-thd4_execute
 727              		.global	patternthd
 728              		.global	testthd4
 729              		.global	testthd3
 730              		.global	testthd2
 731              		.global	testthd1
 732              		.section	.rodata.patternthd,"a"
 733              		.align	2
 734              		.type	patternthd, %object
 735              		.size	patternthd, 20
 736              	patternthd:
 737 0000 00000000 		.word	testthd1
 738 0004 00000000 		.word	testthd2
 739 0008 00000000 		.word	testthd3
 740 000c 00000000 		.word	testthd4
 741 0010 00000000 		.word	0
ARM GAS  /var/folders/l5/0x54b2c10074c8bt31ycjvl80000gp/T//ccBrkAPT.s 			page 14


 742              		.section	.rodata.str1.4,"aMS",%progbits,1
 743              		.align	2
 744              	.LC6:
 745 0000 54687265 		.ascii	"Threads, delays\000"
 745      6164732C 
 745      2064656C 
 745      61797300 
 746              	.LC7:
 747 0010 54687265 		.ascii	"Threads, priority change\000"
 747      6164732C 
 747      20707269 
 747      6F726974 
 747      79206368 
 748 0029 000000   		.space	3
 749              	.LC8:
 750 002c 54687265 		.ascii	"Threads, enqueuing test #2\000"
 750      6164732C 
 750      20656E71 
 750      75657569 
 750      6E672074 
 751 0047 00       		.space	1
 752              	.LC9:
 753 0048 54687265 		.ascii	"Threads, enqueuing test #1\000"
 753      6164732C 
 753      20656E71 
 753      75657569 
 753      6E672074 
 754              		.section	.rodata.testthd1,"a"
 755              		.align	2
 756              		.type	testthd1, %object
 757              		.size	testthd1, 16
 758              	testthd1:
 759 0000 48000000 		.word	.LC9
 760 0004 00000000 		.word	0
 761 0008 00000000 		.word	0
 762 000c 00000000 		.word	thd1_execute
 763              		.section	.rodata.testthd2,"a"
 764              		.align	2
 765              		.type	testthd2, %object
 766              		.size	testthd2, 16
 767              	testthd2:
 768 0000 2C000000 		.word	.LC8
 769 0004 00000000 		.word	0
 770 0008 00000000 		.word	0
 771 000c 00000000 		.word	thd2_execute
 772              		.section	.rodata.testthd3,"a"
 773              		.align	2
 774              		.type	testthd3, %object
 775              		.size	testthd3, 16
 776              	testthd3:
 777 0000 10000000 		.word	.LC7
 778 0004 00000000 		.word	0
 779 0008 00000000 		.word	0
 780 000c 00000000 		.word	thd3_execute
 781              		.section	.rodata.testthd4,"a"
 782              		.align	2
 783              		.type	testthd4, %object
ARM GAS  /var/folders/l5/0x54b2c10074c8bt31ycjvl80000gp/T//ccBrkAPT.s 			page 15


 784              		.size	testthd4, 16
 785              	testthd4:
 786 0000 00000000 		.word	.LC6
 787 0004 00000000 		.word	0
 788 0008 00000000 		.word	0
 789 000c 00000000 		.word	thd4_execute
 790              		.section	.rodata.thd1_execute.str1.4,"aMS",%progbits,1
 791              		.align	2
 792              	.LC0:
 793 0000 4500     		.ascii	"E\000"
 794 0002 0000     		.space	2
 795              	.LC1:
 796 0004 4400     		.ascii	"D\000"
 797 0006 0000     		.space	2
 798              	.LC2:
 799 0008 4300     		.ascii	"C\000"
 800 000a 0000     		.space	2
 801              	.LC3:
 802 000c 4200     		.ascii	"B\000"
 803 000e 0000     		.space	2
 804              	.LC4:
 805 0010 4100     		.ascii	"A\000"
 806 0012 0000     		.space	2
 807              	.LC5:
 808 0014 41424344 		.ascii	"ABCDE\000"
 808      4500
 809              		.text
 810              	.Letext0:
 811              		.file 2 "/usr/local/Cellar/arm-gcc-bin/8-2019-q3-update/arm-none-eabi/include/machine/_default_typ
 812              		.file 3 "/usr/local/Cellar/arm-gcc-bin/8-2019-q3-update/arm-none-eabi/include/sys/_stdint.h"
 813              		.file 4 "../../os/ports/GCC/ARM/chtypes.h"
 814              		.file 5 "../../os/kernel/include/chlists.h"
 815              		.file 6 "../../os/kernel/include/chthreads.h"
 816              		.file 7 "../../os/ports/GCC/ARM/chcore.h"
 817              		.file 8 "../../os/kernel/include/chvt.h"
 818              		.file 9 "../../os/kernel/include/chschd.h"
 819              		.file 10 "../../os/kernel/include/chmtx.h"
 820              		.file 11 "../../os/kernel/include/chregistry.h"
 821              		.file 12 "../../os/kernel/include/ch.h"
 822              		.file 13 "../../test/test.h"