ARM GAS  /var/folders/l5/0x54b2c10074c8bt31ycjvl80000gp/T//ccT1qQHo.s 			page 1


   1              		.cpu arm1176jz-s
   2              		.eabi_attribute 20, 1
   3              		.eabi_attribute 21, 1
   4              		.eabi_attribute 23, 3
   5              		.eabi_attribute 24, 1
   6              		.eabi_attribute 25, 1
   7              		.eabi_attribute 26, 1
   8              		.eabi_attribute 30, 2
   9              		.eabi_attribute 34, 1
  10              		.eabi_attribute 18, 4
  11              		.file	"testqueues.c"
  12              		.text
  13              	.Ltext0:
  14              		.cfi_sections	.debug_frame
  15              		.section	.text.notify,"ax",%progbits
  16              		.align	2
  17              		.arch armv6kz
  18              		.syntax unified
  19              		.arm
  20              		.fpu softvfp
  21              		.type	notify, %function
  22              	notify:
  23              	.LVL0:
  24              	.LFB7:
  25              		.file 1 "../../test/testqueues.c"
  26              		.loc 1 61 38 view -0
  27              		.cfi_startproc
  28              		@ args = 0, pretend = 0, frame = 0
  29              		@ frame_needed = 0, uses_anonymous_args = 0
  30              		@ link register save eliminated.
  31              		.loc 1 62 3 view .LVU1
  32              		.loc 1 63 1 is_stmt 0 view .LVU2
  33 0000 1EFF2FE1 		bx	lr
  34              		.cfi_endproc
  35              	.LFE7:
  36              		.size	notify, .-notify
  37              		.section	.text.thread1,"ax",%progbits
  38              		.align	2
  39              		.syntax unified
  40              		.arm
  41              		.fpu softvfp
  42              		.type	thread1, %function
  43              	thread1:
  44              	.LVL1:
  45              	.LFB9:
  46              		.loc 1 87 31 is_stmt 1 view -0
  47              		.cfi_startproc
  48              		@ args = 0, pretend = 0, frame = 0
  49              		@ frame_needed = 0, uses_anonymous_args = 0
  50              		.loc 1 89 3 view .LVU4
  51              		.loc 1 90 3 view .LVU5
  52              		.loc 1 87 31 is_stmt 0 view .LVU6
  53 0000 10402DE9 		push	{r4, lr}
  54              		.cfi_def_cfa_offset 8
  55              		.cfi_offset 4, -8
  56              		.cfi_offset 14, -4
  57              		.loc 1 90 3 view .LVU7
ARM GAS  /var/folders/l5/0x54b2c10074c8bt31ycjvl80000gp/T//ccT1qQHo.s 			page 2


  58 0004 C810A0E3 		mov	r1, #200
  59 0008 08009FE5 		ldr	r0, .L5
  60              	.LVL2:
  61              		.loc 1 90 3 view .LVU8
  62 000c FEFFFFEB 		bl	chIQGetTimeout
  63              	.LVL3:
  64              		.loc 1 91 3 is_stmt 1 view .LVU9
  65              		.loc 1 92 1 is_stmt 0 view .LVU10
  66 0010 0000A0E3 		mov	r0, #0
  67 0014 1080BDE8 		pop	{r4, pc}
  68              	.L6:
  69              		.align	2
  70              	.L5:
  71 0018 00000000 		.word	.LANCHOR0
  72              		.cfi_endproc
  73              	.LFE9:
  74              		.size	thread1, .-thread1
  75              		.section	.text.queues1_setup,"ax",%progbits
  76              		.align	2
  77              		.syntax unified
  78              		.arm
  79              		.fpu softvfp
  80              		.type	queues1_setup, %function
  81              	queues1_setup:
  82              	.LFB8:
  83              		.loc 1 82 33 is_stmt 1 view -0
  84              		.cfi_startproc
  85              		@ args = 0, pretend = 0, frame = 0
  86              		@ frame_needed = 0, uses_anonymous_args = 0
  87              		.loc 1 84 3 view .LVU12
  88 0000 0020A0E3 		mov	r2, #0
  89              		.loc 1 82 33 is_stmt 0 view .LVU13
  90 0004 04E02DE5 		str	lr, [sp, #-4]!
  91              		.cfi_def_cfa_offset 4
  92              		.cfi_offset 14, -4
  93              		.loc 1 84 19 view .LVU14
  94 0008 20309FE5 		ldr	r3, .L9
  95              		.loc 1 82 33 view .LVU15
  96 000c 0CD04DE2 		sub	sp, sp, #12
  97              		.cfi_def_cfa_offset 16
  98              		.loc 1 84 3 view .LVU16
  99 0010 00208DE5 		str	r2, [sp]
 100 0014 001093E5 		ldr	r1, [r3]
 101 0018 0420A0E3 		mov	r2, #4
 102 001c 10309FE5 		ldr	r3, .L9+4
 103 0020 10009FE5 		ldr	r0, .L9+8
 104 0024 FEFFFFEB 		bl	chIQInit
 105              	.LVL4:
 106              		.loc 1 85 1 view .LVU17
 107 0028 0CD08DE2 		add	sp, sp, #12
 108              		.cfi_def_cfa_offset 4
 109              		@ sp needed
 110 002c 04F09DE4 		ldr	pc, [sp], #4
 111              	.L10:
 112              		.align	2
 113              	.L9:
 114 0030 00000000 		.word	wa
ARM GAS  /var/folders/l5/0x54b2c10074c8bt31ycjvl80000gp/T//ccT1qQHo.s 			page 3


 115 0034 00000000 		.word	notify
 116 0038 00000000 		.word	.LANCHOR0
 117              		.cfi_endproc
 118              	.LFE8:
 119              		.size	queues1_setup, .-queues1_setup
 120              		.section	.text.thread2,"ax",%progbits
 121              		.align	2
 122              		.syntax unified
 123              		.arm
 124              		.fpu softvfp
 125              		.type	thread2, %function
 126              	thread2:
 127              	.LVL5:
 128              	.LFB12:
 129              		.loc 1 174 31 is_stmt 1 view -0
 130              		.cfi_startproc
 131              		@ args = 0, pretend = 0, frame = 0
 132              		@ frame_needed = 0, uses_anonymous_args = 0
 133              		.loc 1 176 3 view .LVU19
 134              		.loc 1 177 3 view .LVU20
 135              		.loc 1 174 31 is_stmt 0 view .LVU21
 136 0000 10402DE9 		push	{r4, lr}
 137              		.cfi_def_cfa_offset 8
 138              		.cfi_offset 4, -8
 139              		.cfi_offset 14, -4
 140              		.loc 1 177 3 view .LVU22
 141 0004 C820A0E3 		mov	r2, #200
 142 0008 0010A0E3 		mov	r1, #0
 143 000c 08009FE5 		ldr	r0, .L13
 144              	.LVL6:
 145              		.loc 1 177 3 view .LVU23
 146 0010 FEFFFFEB 		bl	chOQPutTimeout
 147              	.LVL7:
 148              		.loc 1 178 3 is_stmt 1 view .LVU24
 149              		.loc 1 179 1 is_stmt 0 view .LVU25
 150 0014 0000A0E3 		mov	r0, #0
 151 0018 1080BDE8 		pop	{r4, pc}
 152              	.L14:
 153              		.align	2
 154              	.L13:
 155 001c 00000000 		.word	.LANCHOR1
 156              		.cfi_endproc
 157              	.LFE12:
 158              		.size	thread2, .-thread2
 159              		.section	.text.queues2_setup,"ax",%progbits
 160              		.align	2
 161              		.syntax unified
 162              		.arm
 163              		.fpu softvfp
 164              		.type	queues2_setup, %function
 165              	queues2_setup:
 166              	.LFB11:
 167              		.loc 1 169 33 is_stmt 1 view -0
 168              		.cfi_startproc
 169              		@ args = 0, pretend = 0, frame = 0
 170              		@ frame_needed = 0, uses_anonymous_args = 0
 171              		.loc 1 171 3 view .LVU27
ARM GAS  /var/folders/l5/0x54b2c10074c8bt31ycjvl80000gp/T//ccT1qQHo.s 			page 4


 172 0000 0020A0E3 		mov	r2, #0
 173              		.loc 1 169 33 is_stmt 0 view .LVU28
 174 0004 04E02DE5 		str	lr, [sp, #-4]!
 175              		.cfi_def_cfa_offset 4
 176              		.cfi_offset 14, -4
 177              		.loc 1 171 19 view .LVU29
 178 0008 20309FE5 		ldr	r3, .L17
 179              		.loc 1 169 33 view .LVU30
 180 000c 0CD04DE2 		sub	sp, sp, #12
 181              		.cfi_def_cfa_offset 16
 182              		.loc 1 171 3 view .LVU31
 183 0010 00208DE5 		str	r2, [sp]
 184 0014 001093E5 		ldr	r1, [r3]
 185 0018 0420A0E3 		mov	r2, #4
 186 001c 10309FE5 		ldr	r3, .L17+4
 187 0020 10009FE5 		ldr	r0, .L17+8
 188 0024 FEFFFFEB 		bl	chOQInit
 189              	.LVL8:
 190              		.loc 1 172 1 view .LVU32
 191 0028 0CD08DE2 		add	sp, sp, #12
 192              		.cfi_def_cfa_offset 4
 193              		@ sp needed
 194 002c 04F09DE4 		ldr	pc, [sp], #4
 195              	.L18:
 196              		.align	2
 197              	.L17:
 198 0030 00000000 		.word	wa
 199 0034 00000000 		.word	notify
 200 0038 00000000 		.word	.LANCHOR1
 201              		.cfi_endproc
 202              	.LFE11:
 203              		.size	queues2_setup, .-queues2_setup
 204              		.section	.text.queues1_execute,"ax",%progbits
 205              		.align	2
 206              		.syntax unified
 207              		.arm
 208              		.fpu softvfp
 209              		.type	queues1_execute, %function
 210              	queues1_execute:
 211              	.LFB10:
 212              		.loc 1 94 35 is_stmt 1 view -0
 213              		.cfi_startproc
 214              		@ args = 0, pretend = 0, frame = 0
 215              		@ frame_needed = 0, uses_anonymous_args = 0
 216              		.loc 1 95 3 view .LVU34
 217              		.loc 1 96 3 view .LVU35
 218              		.loc 1 99 3 view .LVU36
 219              		.loc 1 94 35 is_stmt 0 view .LVU37
 220 0000 F0402DE9 		push	{r4, r5, r6, r7, lr}
 221              		.cfi_def_cfa_offset 20
 222              		.cfi_offset 4, -20
 223              		.cfi_offset 5, -16
 224              		.cfi_offset 6, -12
 225              		.cfi_offset 7, -8
 226              		.cfi_offset 14, -4
 227 0004 0CD04DE2 		sub	sp, sp, #12
 228              		.cfi_def_cfa_offset 32
ARM GAS  /var/folders/l5/0x54b2c10074c8bt31ycjvl80000gp/T//ccT1qQHo.s 			page 5


 229              		.loc 1 99 3 view .LVU38
 230              		.syntax divided
 231              	@ 99 "../../test/testqueues.c" 1
 232 0008 9FF021E3 		msr     CPSR_c, #0x9F
 233              	@ 0 "" 2
 234              		.loc 1 99 3 is_stmt 1 view .LVU39
 235              		.loc 1 99 3 view .LVU40
 236              		.loc 1 99 3 view .LVU41
 237              		.arm
 238              		.syntax unified
 239 000c 2C439FE5 		ldr	r4, .L37
 240 0010 0100A0E3 		mov	r0, #1
 241 0014 081094E5 		ldr	r1, [r4, #8]
 242 0018 111F6FE1 		clz	r1, r1
 243 001c A112A0E1 		lsr	r1, r1, #5
 244 0020 FEFFFFEB 		bl	_test_assert
 245              	.LVL9:
 246 0024 005050E2 		subs	r5, r0, #0
 247 0028 1700001A 		bne	.L35
 248              		.loc 1 99 3 discriminator 2 view .LVU42
 249              		.loc 1 99 3 discriminator 2 view .LVU43
 250              		.syntax divided
 251              	@ 99 "../../test/testqueues.c" 1
 252 002c 1FF021E3 		msr     CPSR_c, #0x1F
 253              	@ 0 "" 2
 254              		.loc 1 99 3 discriminator 2 view .LVU44
 255              		.loc 1 99 54 discriminator 2 view .LVU45
 256              		.loc 1 102 3 discriminator 2 view .LVU46
 257              	@ 102 "../../test/testqueues.c" 1
 258 0030 9FF021E3 		msr     CPSR_c, #0x9F
 259              	@ 0 "" 2
 260              		.loc 1 102 3 discriminator 2 view .LVU47
 261              		.loc 1 102 14 discriminator 2 view .LVU48
 262              		.loc 1 103 3 discriminator 2 view .LVU49
 263              	.LVL10:
 264              		.loc 1 104 5 discriminator 2 view .LVU50
 265              		.arm
 266              		.syntax unified
 267 0034 4110A0E3 		mov	r1, #65
 268 0038 0400A0E1 		mov	r0, r4
 269 003c FEFFFFEB 		bl	chIQPutI
 270              	.LVL11:
 271              		.loc 1 104 5 discriminator 2 view .LVU51
 272 0040 0400A0E1 		mov	r0, r4
 273 0044 4210A0E3 		mov	r1, #66
 274 0048 FEFFFFEB 		bl	chIQPutI
 275              	.LVL12:
 276              		.loc 1 104 5 discriminator 2 view .LVU52
 277 004c 0400A0E1 		mov	r0, r4
 278 0050 4310A0E3 		mov	r1, #67
 279 0054 FEFFFFEB 		bl	chIQPutI
 280              	.LVL13:
 281              		.loc 1 104 5 discriminator 2 view .LVU53
 282 0058 0400A0E1 		mov	r0, r4
 283 005c 4410A0E3 		mov	r1, #68
 284 0060 FEFFFFEB 		bl	chIQPutI
 285              	.LVL14:
ARM GAS  /var/folders/l5/0x54b2c10074c8bt31ycjvl80000gp/T//ccT1qQHo.s 			page 6


 286              		.loc 1 105 3 discriminator 2 view .LVU54
 287              		.loc 1 105 3 discriminator 2 view .LVU55
 288              		.syntax divided
 289              	@ 105 "../../test/testqueues.c" 1
 290 0064 1FF021E3 		msr     CPSR_c, #0x1F
 291              	@ 0 "" 2
 292              		.loc 1 105 16 discriminator 2 view .LVU56
 293              		.loc 1 106 3 discriminator 2 view .LVU57
 294              	@ 106 "../../test/testqueues.c" 1
 295 0068 9FF021E3 		msr     CPSR_c, #0x9F
 296              	@ 0 "" 2
 297              		.loc 1 106 3 discriminator 2 view .LVU58
 298              		.loc 1 106 3 discriminator 2 view .LVU59
 299              		.loc 1 106 3 discriminator 2 view .LVU60
 300              		.arm
 301              		.syntax unified
 302 006c D421C4E1 		ldrd	r2, [r4, #20]
 303 0070 030052E1 		cmp	r2, r3
 304 0074 AD00000A 		beq	.L36
 305              	.L22:
 306              		.loc 1 106 3 is_stmt 0 discriminator 6 view .LVU61
 307 0078 0510A0E1 		mov	r1, r5
 308 007c 0200A0E3 		mov	r0, #2
 309 0080 FEFFFFEB 		bl	_test_assert
 310              	.LVL15:
 311 0084 001050E2 		subs	r1, r0, #0
 312 0088 0200000A 		beq	.L23
 313              	.LVL16:
 314              	.L35:
 315              	.LBB5:
 316              	.LBB6:
 317              		.loc 1 146 3 is_stmt 1 view .LVU62
 318              		.loc 1 146 3 view .LVU63
 319              		.syntax divided
 320              	@ 146 "../../test/testqueues.c" 1
 321 008c 1FF021E3 		msr     CPSR_c, #0x1F
 322              	@ 0 "" 2
 323              		.loc 1 146 3 view .LVU64
 324              		.loc 1 146 3 view .LVU65
 325              		.arm
 326              		.syntax unified
 327              	.L19:
 328              	.LBE6:
 329              	.LBE5:
 330              		.loc 1 151 1 is_stmt 0 view .LVU66
 331 0090 0CD08DE2 		add	sp, sp, #12
 332              		.cfi_remember_state
 333              		.cfi_def_cfa_offset 20
 334              		@ sp needed
 335 0094 F080BDE8 		pop	{r4, r5, r6, r7, pc}
 336              	.LVL17:
 337              	.L23:
 338              		.cfi_restore_state
 339              	.LBB9:
 340              	.LBI5:
 341              		.loc 1 94 13 is_stmt 1 view .LVU67
 342              	.LBB7:
ARM GAS  /var/folders/l5/0x54b2c10074c8bt31ycjvl80000gp/T//ccT1qQHo.s 			page 7


 343              		.loc 1 106 3 view .LVU68
 344              		.loc 1 106 3 view .LVU69
 345              		.syntax divided
 346              	@ 106 "../../test/testqueues.c" 1
 347 0098 1FF021E3 		msr     CPSR_c, #0x1F
 348              	@ 0 "" 2
 349              		.loc 1 106 3 view .LVU70
 350              		.loc 1 106 59 view .LVU71
 351              		.loc 1 107 3 view .LVU72
 352              	@ 107 "../../test/testqueues.c" 1
 353 009c 9FF021E3 		msr     CPSR_c, #0x9F
 354              	@ 0 "" 2
 355              		.loc 1 107 3 view .LVU73
 356              		.loc 1 107 3 view .LVU74
 357              		.loc 1 107 3 view .LVU75
 358              		.arm
 359              		.syntax unified
 360 00a0 98029FE5 		ldr	r0, .L37
 361 00a4 FEFFFFEB 		bl	chIQPutI
 362              	.LVL18:
 363 00a8 040070E3 		cmn	r0, #4
 364 00ac 0010A013 		movne	r1, #0
 365 00b0 0110A003 		moveq	r1, #1
 366 00b4 0300A0E3 		mov	r0, #3
 367 00b8 FEFFFFEB 		bl	_test_assert
 368              	.LVL19:
 369 00bc 000050E3 		cmp	r0, #0
 370 00c0 F1FFFF1A 		bne	.L35
 371              		.loc 1 107 3 view .LVU76
 372              		.loc 1 107 3 view .LVU77
 373              		.syntax divided
 374              	@ 107 "../../test/testqueues.c" 1
 375 00c4 1FF021E3 		msr     CPSR_c, #0x1F
 376              	@ 0 "" 2
 377              		.loc 1 107 3 view .LVU78
 378              		.loc 1 107 77 view .LVU79
 379              		.loc 1 110 3 view .LVU80
 380              	.LVL20:
 381              		.loc 1 107 3 is_stmt 0 view .LVU81
 382              		.arm
 383              		.syntax unified
 384 00c8 0450A0E3 		mov	r5, #4
 385              		.loc 1 111 21 view .LVU82
 386 00cc 6C629FE5 		ldr	r6, .L37
 387              	.LVL21:
 388              	.L25:
 389              		.loc 1 111 5 is_stmt 1 view .LVU83
 390              		.loc 1 111 21 is_stmt 0 view .LVU84
 391 00d0 0010E0E3 		mvn	r1, #0
 392 00d4 0600A0E1 		mov	r0, r6
 393 00d8 FEFFFFEB 		bl	chIQGetTimeout
 394              	.LVL22:
 395              		.loc 1 111 5 view .LVU85
 396 00dc 7000EFE6 		uxtb	r0, r0
 397 00e0 FEFFFFEB 		bl	test_emit_token
 398              	.LVL23:
 399              		.loc 1 110 3 view .LVU86
ARM GAS  /var/folders/l5/0x54b2c10074c8bt31ycjvl80000gp/T//ccT1qQHo.s 			page 8


 400 00e4 015055E2 		subs	r5, r5, #1
 401              	.LVL24:
 402              		.loc 1 110 3 view .LVU87
 403 00e8 F8FFFF1A 		bne	.L25
 404              		.loc 1 112 3 is_stmt 1 view .LVU88
 405              		.syntax divided
 406              	@ 112 "../../test/testqueues.c" 1
 407 00ec 9FF021E3 		msr     CPSR_c, #0x9F
 408              	@ 0 "" 2
 409              		.loc 1 112 3 view .LVU89
 410              		.loc 1 112 3 view .LVU90
 411              		.loc 1 112 3 view .LVU91
 412              		.arm
 413              		.syntax unified
 414 00f0 081094E5 		ldr	r1, [r4, #8]
 415 00f4 0400A0E3 		mov	r0, #4
 416 00f8 111F6FE1 		clz	r1, r1
 417 00fc A112A0E1 		lsr	r1, r1, #5
 418 0100 FEFFFFEB 		bl	_test_assert
 419              	.LVL25:
 420 0104 000050E3 		cmp	r0, #0
 421 0108 DFFFFF1A 		bne	.L35
 422              		.loc 1 112 3 view .LVU92
 423              		.loc 1 112 3 view .LVU93
 424              		.syntax divided
 425              	@ 112 "../../test/testqueues.c" 1
 426 010c 1FF021E3 		msr     CPSR_c, #0x1F
 427              	@ 0 "" 2
 428              		.loc 1 112 3 view .LVU94
 429              		.loc 1 112 55 view .LVU95
 430              		.loc 1 113 3 view .LVU96
 431              		.arm
 432              		.syntax unified
 433 0110 2C129FE5 		ldr	r1, .L37+4
 434 0114 0500A0E3 		mov	r0, #5
 435 0118 FEFFFFEB 		bl	_test_assert_sequence
 436              	.LVL26:
 437 011c 000050E3 		cmp	r0, #0
 438 0120 DAFFFF1A 		bne	.L19
 439              		.loc 1 113 34 view .LVU97
 440              		.loc 1 116 3 view .LVU98
 441              		.syntax divided
 442              	@ 116 "../../test/testqueues.c" 1
 443 0124 9FF021E3 		msr     CPSR_c, #0x9F
 444              	@ 0 "" 2
 445              		.loc 1 116 3 view .LVU99
 446              		.loc 1 116 14 view .LVU100
 447              		.loc 1 117 3 view .LVU101
 448              	.LVL27:
 449              		.loc 1 118 5 view .LVU102
 450              		.arm
 451              		.syntax unified
 452 0128 4110A0E3 		mov	r1, #65
 453 012c 0C029FE5 		ldr	r0, .L37
 454 0130 FEFFFFEB 		bl	chIQPutI
 455              	.LVL28:
 456              		.loc 1 118 5 view .LVU103
ARM GAS  /var/folders/l5/0x54b2c10074c8bt31ycjvl80000gp/T//ccT1qQHo.s 			page 9


 457 0134 4210A0E3 		mov	r1, #66
 458 0138 00029FE5 		ldr	r0, .L37
 459 013c FEFFFFEB 		bl	chIQPutI
 460              	.LVL29:
 461              		.loc 1 118 5 view .LVU104
 462 0140 4310A0E3 		mov	r1, #67
 463 0144 F4019FE5 		ldr	r0, .L37
 464 0148 FEFFFFEB 		bl	chIQPutI
 465              	.LVL30:
 466              		.loc 1 118 5 view .LVU105
 467 014c 4410A0E3 		mov	r1, #68
 468 0150 E8019FE5 		ldr	r0, .L37
 469 0154 FEFFFFEB 		bl	chIQPutI
 470              	.LVL31:
 471              		.loc 1 119 3 view .LVU106
 472              		.loc 1 119 3 view .LVU107
 473              		.syntax divided
 474              	@ 119 "../../test/testqueues.c" 1
 475 0158 1FF021E3 		msr     CPSR_c, #0x1F
 476              	@ 0 "" 2
 477              		.loc 1 119 16 view .LVU108
 478              		.loc 1 122 3 view .LVU109
 479              		.loc 1 122 30 is_stmt 0 view .LVU110
 480              		.arm
 481              		.syntax unified
 482 015c E4719FE5 		ldr	r7, .L37+8
 483              		.loc 1 122 7 view .LVU111
 484 0160 0530A0E1 		mov	r3, r5
 485 0164 046097E5 		ldr	r6, [r7, #4]
 486 0168 0820A0E3 		mov	r2, #8
 487 016c 0610A0E1 		mov	r1, r6
 488 0170 C8019FE5 		ldr	r0, .L37
 489 0174 FEFFFFEB 		bl	chIQReadTimeout
 490              	.LVL32:
 491              		.loc 1 123 3 is_stmt 1 view .LVU112
 492 0178 041040E2 		sub	r1, r0, #4
 493 017c 111F6FE1 		clz	r1, r1
 494 0180 0600A0E3 		mov	r0, #6
 495              	.LVL33:
 496              		.loc 1 123 3 is_stmt 0 view .LVU113
 497 0184 A112A0E1 		lsr	r1, r1, #5
 498 0188 FEFFFFEB 		bl	_test_assert
 499              	.LVL34:
 500 018c 000050E3 		cmp	r0, #0
 501 0190 BEFFFF1A 		bne	.L19
 502              		.loc 1 123 63 is_stmt 1 view .LVU114
 503              		.loc 1 124 3 view .LVU115
 504              		.syntax divided
 505              	@ 124 "../../test/testqueues.c" 1
 506 0194 9FF021E3 		msr     CPSR_c, #0x9F
 507              	@ 0 "" 2
 508              		.loc 1 124 3 view .LVU116
 509              		.loc 1 124 3 view .LVU117
 510              		.loc 1 124 3 view .LVU118
 511              		.arm
 512              		.syntax unified
 513 0198 081094E5 		ldr	r1, [r4, #8]
ARM GAS  /var/folders/l5/0x54b2c10074c8bt31ycjvl80000gp/T//ccT1qQHo.s 			page 10


 514 019c 0700A0E3 		mov	r0, #7
 515 01a0 111F6FE1 		clz	r1, r1
 516 01a4 A112A0E1 		lsr	r1, r1, #5
 517 01a8 FEFFFFEB 		bl	_test_assert
 518              	.LVL35:
 519 01ac 000050E3 		cmp	r0, #0
 520 01b0 B5FFFF1A 		bne	.L35
 521              		.loc 1 124 3 view .LVU119
 522              		.loc 1 124 3 view .LVU120
 523              		.syntax divided
 524              	@ 124 "../../test/testqueues.c" 1
 525 01b4 1FF021E3 		msr     CPSR_c, #0x1F
 526              	@ 0 "" 2
 527              		.loc 1 124 3 view .LVU121
 528              		.loc 1 124 55 view .LVU122
 529              		.loc 1 127 3 view .LVU123
 530              	@ 127 "../../test/testqueues.c" 1
 531 01b8 9FF021E3 		msr     CPSR_c, #0x9F
 532              	@ 0 "" 2
 533              		.loc 1 127 3 view .LVU124
 534              		.loc 1 127 14 view .LVU125
 535              		.loc 1 128 3 view .LVU126
 536              	.LVL36:
 537              		.loc 1 129 5 view .LVU127
 538              		.arm
 539              		.syntax unified
 540 01bc 4110A0E3 		mov	r1, #65
 541 01c0 78019FE5 		ldr	r0, .L37
 542 01c4 FEFFFFEB 		bl	chIQPutI
 543              	.LVL37:
 544              		.loc 1 129 5 view .LVU128
 545 01c8 4210A0E3 		mov	r1, #66
 546 01cc 6C019FE5 		ldr	r0, .L37
 547 01d0 FEFFFFEB 		bl	chIQPutI
 548              	.LVL38:
 549              		.loc 1 129 5 view .LVU129
 550 01d4 4310A0E3 		mov	r1, #67
 551 01d8 60019FE5 		ldr	r0, .L37
 552 01dc FEFFFFEB 		bl	chIQPutI
 553              	.LVL39:
 554              		.loc 1 129 5 view .LVU130
 555 01e0 4410A0E3 		mov	r1, #68
 556 01e4 54019FE5 		ldr	r0, .L37
 557 01e8 FEFFFFEB 		bl	chIQPutI
 558              	.LVL40:
 559              		.loc 1 130 3 view .LVU131
 560              		.loc 1 130 3 view .LVU132
 561              		.syntax divided
 562              	@ 130 "../../test/testqueues.c" 1
 563 01ec 1FF021E3 		msr     CPSR_c, #0x1F
 564              	@ 0 "" 2
 565              		.loc 1 130 16 view .LVU133
 566              		.loc 1 133 3 view .LVU134
 567              		.loc 1 133 7 is_stmt 0 view .LVU135
 568              		.arm
 569              		.syntax unified
 570 01f0 0220A0E3 		mov	r2, #2
ARM GAS  /var/folders/l5/0x54b2c10074c8bt31ycjvl80000gp/T//ccT1qQHo.s 			page 11


 571 01f4 0530A0E1 		mov	r3, r5
 572 01f8 0610A0E1 		mov	r1, r6
 573 01fc 3C019FE5 		ldr	r0, .L37
 574 0200 FEFFFFEB 		bl	chIQReadTimeout
 575              	.LVL41:
 576              		.loc 1 134 3 is_stmt 1 view .LVU136
 577 0204 021040E2 		sub	r1, r0, #2
 578 0208 111F6FE1 		clz	r1, r1
 579 020c 0800A0E3 		mov	r0, #8
 580              	.LVL42:
 581              		.loc 1 134 3 is_stmt 0 view .LVU137
 582 0210 A112A0E1 		lsr	r1, r1, #5
 583 0214 FEFFFFEB 		bl	_test_assert
 584              	.LVL43:
 585 0218 000050E3 		cmp	r0, #0
 586 021c 9BFFFF1A 		bne	.L19
 587              		.loc 1 134 67 is_stmt 1 view .LVU138
 588              		.loc 1 135 3 view .LVU139
 589              		.loc 1 135 7 is_stmt 0 view .LVU140
 590 0220 0610A0E1 		mov	r1, r6
 591 0224 0530A0E1 		mov	r3, r5
 592 0228 0220A0E3 		mov	r2, #2
 593 022c 0C019FE5 		ldr	r0, .L37
 594 0230 FEFFFFEB 		bl	chIQReadTimeout
 595              	.LVL44:
 596              		.loc 1 136 3 is_stmt 1 view .LVU141
 597 0234 021040E2 		sub	r1, r0, #2
 598 0238 111F6FE1 		clz	r1, r1
 599 023c 0900A0E3 		mov	r0, #9
 600              	.LVL45:
 601              		.loc 1 136 3 is_stmt 0 view .LVU142
 602 0240 A112A0E1 		lsr	r1, r1, #5
 603 0244 FEFFFFEB 		bl	_test_assert
 604              	.LVL46:
 605 0248 000050E3 		cmp	r0, #0
 606 024c 8FFFFF1A 		bne	.L19
 607              		.loc 1 136 67 is_stmt 1 view .LVU143
 608              		.loc 1 137 3 view .LVU144
 609              		.syntax divided
 610              	@ 137 "../../test/testqueues.c" 1
 611 0250 9FF021E3 		msr     CPSR_c, #0x9F
 612              	@ 0 "" 2
 613              		.loc 1 137 3 view .LVU145
 614              		.loc 1 137 3 view .LVU146
 615              		.loc 1 137 3 view .LVU147
 616              		.arm
 617              		.syntax unified
 618 0254 081094E5 		ldr	r1, [r4, #8]
 619 0258 0A00A0E3 		mov	r0, #10
 620 025c 111F6FE1 		clz	r1, r1
 621 0260 A112A0E1 		lsr	r1, r1, #5
 622 0264 FEFFFFEB 		bl	_test_assert
 623              	.LVL47:
 624 0268 000050E3 		cmp	r0, #0
 625 026c 86FFFF1A 		bne	.L35
 626              		.loc 1 137 3 view .LVU148
 627              		.loc 1 137 3 view .LVU149
ARM GAS  /var/folders/l5/0x54b2c10074c8bt31ycjvl80000gp/T//ccT1qQHo.s 			page 12


 628              		.syntax divided
 629              	@ 137 "../../test/testqueues.c" 1
 630 0270 1FF021E3 		msr     CPSR_c, #0x1F
 631              	@ 0 "" 2
 632              		.loc 1 137 3 view .LVU150
 633              		.loc 1 137 56 view .LVU151
 634              		.loc 1 140 3 view .LVU152
 635              	@ 140 "../../test/testqueues.c" 1
 636 0274 9FF021E3 		msr     CPSR_c, #0x9F
 637              	@ 0 "" 2
 638              		.loc 1 140 3 view .LVU153
 639              		.loc 1 140 14 view .LVU154
 640              		.loc 1 141 3 view .LVU155
 641              		.arm
 642              		.syntax unified
 643 0278 C0009FE5 		ldr	r0, .L37
 644 027c 0510A0E1 		mov	r1, r5
 645 0280 FEFFFFEB 		bl	chIQPutI
 646              	.LVL48:
 647              		.loc 1 142 3 view .LVU156
 648 0284 B4009FE5 		ldr	r0, .L37
 649 0288 FEFFFFEB 		bl	chIQResetI
 650              	.LVL49:
 651              		.loc 1 143 3 view .LVU157
 652              		.loc 1 143 3 view .LVU158
 653              		.syntax divided
 654              	@ 143 "../../test/testqueues.c" 1
 655 028c 1FF021E3 		msr     CPSR_c, #0x1F
 656              	@ 0 "" 2
 657              		.loc 1 143 16 view .LVU159
 658              		.loc 1 144 3 view .LVU160
 659              	@ 144 "../../test/testqueues.c" 1
 660 0290 9FF021E3 		msr     CPSR_c, #0x9F
 661              	@ 0 "" 2
 662              		.loc 1 144 3 view .LVU161
 663              		.loc 1 144 3 view .LVU162
 664              		.loc 1 144 3 view .LVU163
 665              		.arm
 666              		.syntax unified
 667 0294 081094E5 		ldr	r1, [r4, #8]
 668 0298 0B00A0E3 		mov	r0, #11
 669 029c 111F6FE1 		clz	r1, r1
 670 02a0 A112A0E1 		lsr	r1, r1, #5
 671 02a4 FEFFFFEB 		bl	_test_assert
 672              	.LVL50:
 673 02a8 000050E3 		cmp	r0, #0
 674 02ac 76FFFF1A 		bne	.L35
 675              		.loc 1 144 3 view .LVU164
 676              		.loc 1 144 3 view .LVU165
 677              		.syntax divided
 678              	@ 144 "../../test/testqueues.c" 1
 679 02b0 1FF021E3 		msr     CPSR_c, #0x1F
 680              	@ 0 "" 2
 681              		.loc 1 144 3 view .LVU166
 682              		.loc 1 144 61 view .LVU167
 683              		.loc 1 145 3 view .LVU168
 684              		.loc 1 145 50 is_stmt 0 view .LVU169
ARM GAS  /var/folders/l5/0x54b2c10074c8bt31ycjvl80000gp/T//ccT1qQHo.s 			page 13


 685              		.arm
 686              		.syntax unified
 687 02b4 90309FE5 		ldr	r3, .L37+12
 688              		.loc 1 145 16 view .LVU170
 689 02b8 000097E5 		ldr	r0, [r7]
 690              		.loc 1 145 50 view .LVU171
 691 02bc 182093E5 		ldr	r2, [r3, #24]
 692              		.loc 1 145 16 view .LVU172
 693 02c0 461FA0E3 		mov	r1, #280
 694 02c4 082092E5 		ldr	r2, [r2, #8]
 695 02c8 80309FE5 		ldr	r3, .L37+16
 696 02cc 00508DE5 		str	r5, [sp]
 697 02d0 012082E2 		add	r2, r2, #1
 698 02d4 FEFFFFEB 		bl	chThdCreateStatic
 699              	.LVL51:
 700              		.loc 1 145 14 view .LVU173
 701 02d8 74309FE5 		ldr	r3, .L37+20
 702 02dc 000083E5 		str	r0, [r3]
 703              		.loc 1 146 3 is_stmt 1 view .LVU174
 704              		.syntax divided
 705              	@ 146 "../../test/testqueues.c" 1
 706 02e0 9FF021E3 		msr     CPSR_c, #0x9F
 707              	@ 0 "" 2
 708              		.loc 1 146 3 view .LVU175
 709              		.loc 1 146 3 view .LVU176
 710              		.loc 1 146 3 view .LVU177
 711              		.arm
 712              		.syntax unified
 713 02e4 081094E5 		ldr	r1, [r4, #8]
 714 02e8 0C00A0E3 		mov	r0, #12
 715 02ec 111F6FE1 		clz	r1, r1
 716 02f0 A112A0E1 		lsr	r1, r1, #5
 717 02f4 FEFFFFEB 		bl	_test_assert
 718              	.LVL52:
 719 02f8 000050E3 		cmp	r0, #0
 720 02fc 62FFFF1A 		bne	.L35
 721              		.loc 1 146 3 view .LVU178
 722              		.loc 1 146 3 view .LVU179
 723              		.syntax divided
 724              	@ 146 "../../test/testqueues.c" 1
 725 0300 1FF021E3 		msr     CPSR_c, #0x1F
 726              	@ 0 "" 2
 727              		.loc 1 146 3 view .LVU180
 728              		.loc 1 146 60 view .LVU181
 729              		.loc 1 147 3 view .LVU182
 730              		.arm
 731              		.syntax unified
 732 0304 FEFFFFEB 		bl	test_wait_threads
 733              	.LVL53:
 734              		.loc 1 150 3 view .LVU183
 735 0308 0A10A0E3 		mov	r1, #10
 736 030c 2C009FE5 		ldr	r0, .L37
 737 0310 FEFFFFEB 		bl	chIQGetTimeout
 738              	.LVL54:
 739 0314 010070E3 		cmn	r0, #1
 740 0318 0010A013 		movne	r1, #0
 741 031c 0110A003 		moveq	r1, #1
ARM GAS  /var/folders/l5/0x54b2c10074c8bt31ycjvl80000gp/T//ccT1qQHo.s 			page 14


 742 0320 0D00A0E3 		mov	r0, #13
 743              	.LBE7:
 744              	.LBE9:
 745              		.loc 1 151 1 is_stmt 0 view .LVU184
 746 0324 0CD08DE2 		add	sp, sp, #12
 747              		.cfi_remember_state
 748              		.cfi_def_cfa_offset 20
 749              		@ sp needed
 750 0328 F040BDE8 		pop	{r4, r5, r6, r7, lr}
 751              		.cfi_restore 14
 752              		.cfi_restore 7
 753              		.cfi_restore 6
 754              		.cfi_restore 5
 755              		.cfi_restore 4
 756              		.cfi_def_cfa_offset 0
 757              	.LBB10:
 758              	.LBB8:
 759              		.loc 1 150 3 view .LVU185
 760 032c FEFFFFEA 		b	_test_assert
 761              	.LVL55:
 762              	.L36:
 763              		.cfi_restore_state
 764              		.loc 1 150 3 view .LVU186
 765              	.LBE8:
 766              	.LBE10:
 767              		.loc 1 106 3 discriminator 1 view .LVU187
 768 0330 085094E5 		ldr	r5, [r4, #8]
 769 0334 005095E2 		adds	r5, r5, #0
 770 0338 0150A013 		movne	r5, #1
 771 033c 4DFFFFEA 		b	.L22
 772              	.L38:
 773              		.align	2
 774              	.L37:
 775 0340 00000000 		.word	.LANCHOR0
 776 0344 00000000 		.word	.LC0
 777 0348 00000000 		.word	wa
 778 034c 00000000 		.word	rlist
 779 0350 00000000 		.word	thread1
 780 0354 00000000 		.word	threads
 781              		.cfi_endproc
 782              	.LFE10:
 783              		.size	queues1_execute, .-queues1_execute
 784              		.section	.text.queues2_execute,"ax",%progbits
 785              		.align	2
 786              		.syntax unified
 787              		.arm
 788              		.fpu softvfp
 789              		.type	queues2_execute, %function
 790              	queues2_execute:
 791              	.LFB13:
 792              		.loc 1 181 35 is_stmt 1 view -0
 793              		.cfi_startproc
 794              		@ args = 0, pretend = 0, frame = 0
 795              		@ frame_needed = 0, uses_anonymous_args = 0
 796              		.loc 1 182 3 view .LVU189
 797              		.loc 1 183 3 view .LVU190
 798              		.loc 1 186 3 view .LVU191
ARM GAS  /var/folders/l5/0x54b2c10074c8bt31ycjvl80000gp/T//ccT1qQHo.s 			page 15


 799              		.loc 1 181 35 is_stmt 0 view .LVU192
 800 0000 F0402DE9 		push	{r4, r5, r6, r7, lr}
 801              		.cfi_def_cfa_offset 20
 802              		.cfi_offset 4, -20
 803              		.cfi_offset 5, -16
 804              		.cfi_offset 6, -12
 805              		.cfi_offset 7, -8
 806              		.cfi_offset 14, -4
 807 0004 0CD04DE2 		sub	sp, sp, #12
 808              		.cfi_def_cfa_offset 32
 809              		.loc 1 186 3 view .LVU193
 810              		.syntax divided
 811              	@ 186 "../../test/testqueues.c" 1
 812 0008 9FF021E3 		msr     CPSR_c, #0x9F
 813              	@ 0 "" 2
 814              		.loc 1 186 3 is_stmt 1 view .LVU194
 815              		.loc 1 186 3 view .LVU195
 816              		.loc 1 186 3 view .LVU196
 817              		.arm
 818              		.syntax unified
 819 000c D0529FE5 		ldr	r5, .L62
 820 0010 D421C5E1 		ldrd	r2, [r5, #20]
 821 0014 030052E1 		cmp	r2, r3
 822 0018 0010A013 		movne	r1, #0
 823 001c A800000A 		beq	.L60
 824              	.L40:
 825              		.loc 1 186 3 is_stmt 0 discriminator 6 view .LVU197
 826 0020 0100A0E3 		mov	r0, #1
 827 0024 FEFFFFEB 		bl	_test_assert
 828              	.LVL56:
 829 0028 000050E3 		cmp	r0, #0
 830 002c A100001A 		bne	.L59
 831              		.loc 1 186 3 is_stmt 1 discriminator 8 view .LVU198
 832              		.loc 1 186 3 discriminator 8 view .LVU199
 833              		.syntax divided
 834              	@ 186 "../../test/testqueues.c" 1
 835 0030 1FF021E3 		msr     CPSR_c, #0x1F
 836              	@ 0 "" 2
 837              		.loc 1 186 3 discriminator 8 view .LVU200
 838              		.loc 1 186 54 discriminator 8 view .LVU201
 839              		.loc 1 189 3 discriminator 8 view .LVU202
 840              	.LVL57:
 841              		.loc 1 186 3 is_stmt 0 discriminator 8 view .LVU203
 842              		.arm
 843              		.syntax unified
 844 0034 4140A0E3 		mov	r4, #65
 845              		.loc 1 190 5 discriminator 8 view .LVU204
 846 0038 A4629FE5 		ldr	r6, .L62
 847              	.LVL58:
 848              	.L43:
 849              		.loc 1 190 5 is_stmt 1 discriminator 3 view .LVU205
 850 003c 0410A0E1 		mov	r1, r4
 851 0040 014084E2 		add	r4, r4, #1
 852 0044 0020E0E3 		mvn	r2, #0
 853 0048 0600A0E1 		mov	r0, r6
 854 004c 7440EFE6 		uxtb	r4, r4
 855 0050 FEFFFFEB 		bl	chOQPutTimeout
ARM GAS  /var/folders/l5/0x54b2c10074c8bt31ycjvl80000gp/T//ccT1qQHo.s 			page 16


 856              	.LVL59:
 857              		.loc 1 189 3 is_stmt 0 discriminator 3 view .LVU206
 858 0054 450054E3 		cmp	r4, #69
 859 0058 F7FFFF1A 		bne	.L43
 860              		.loc 1 191 3 is_stmt 1 view .LVU207
 861              		.syntax divided
 862              	@ 191 "../../test/testqueues.c" 1
 863 005c 9FF021E3 		msr     CPSR_c, #0x9F
 864              	@ 0 "" 2
 865              		.loc 1 191 3 view .LVU208
 866              		.loc 1 191 3 view .LVU209
 867              		.loc 1 191 3 view .LVU210
 868              		.arm
 869              		.syntax unified
 870 0060 081095E5 		ldr	r1, [r5, #8]
 871 0064 0200A0E3 		mov	r0, #2
 872 0068 111F6FE1 		clz	r1, r1
 873 006c A112A0E1 		lsr	r1, r1, #5
 874 0070 FEFFFFEB 		bl	_test_assert
 875              	.LVL60:
 876 0074 007050E2 		subs	r7, r0, #0
 877 0078 8E00001A 		bne	.L59
 878              	.LBB14:
 879              	.LBI14:
 880              		.loc 1 181 13 view .LVU211
 881              	.LBB15:
 882              		.loc 1 191 3 view .LVU212
 883              		.loc 1 191 3 view .LVU213
 884              		.syntax divided
 885              	@ 191 "../../test/testqueues.c" 1
 886 007c 1FF021E3 		msr     CPSR_c, #0x1F
 887              	@ 0 "" 2
 888              		.loc 1 191 3 view .LVU214
 889              		.loc 1 191 59 view .LVU215
 890              		.loc 1 194 3 view .LVU216
 891              	.LVL61:
 892              		.loc 1 191 3 is_stmt 0 view .LVU217
 893              		.arm
 894              		.syntax unified
 895 0080 0440A0E3 		mov	r4, #4
 896              	.LBB16:
 897              		.loc 1 198 9 view .LVU218
 898 0084 58629FE5 		ldr	r6, .L62
 899              	.LVL62:
 900              	.L45:
 901              		.loc 1 195 5 is_stmt 1 view .LVU219
 902              		.loc 1 197 5 view .LVU220
 903              		.syntax divided
 904              	@ 197 "../../test/testqueues.c" 1
 905 0088 9FF021E3 		msr     CPSR_c, #0x9F
 906              	@ 0 "" 2
 907              		.loc 1 197 5 view .LVU221
 908              		.loc 1 197 16 view .LVU222
 909              		.loc 1 198 5 view .LVU223
 910              		.loc 1 198 9 is_stmt 0 view .LVU224
 911              		.arm
 912              		.syntax unified
ARM GAS  /var/folders/l5/0x54b2c10074c8bt31ycjvl80000gp/T//ccT1qQHo.s 			page 17


 913 008c 0600A0E1 		mov	r0, r6
 914 0090 FEFFFFEB 		bl	chOQGetI
 915              	.LVL63:
 916              		.loc 1 199 5 is_stmt 1 view .LVU225
 917              		.loc 1 199 5 view .LVU226
 918              		.syntax divided
 919              	@ 199 "../../test/testqueues.c" 1
 920 0094 1FF021E3 		msr     CPSR_c, #0x1F
 921              	@ 0 "" 2
 922              		.loc 1 199 18 view .LVU227
 923              		.loc 1 200 5 view .LVU228
 924              		.arm
 925              		.syntax unified
 926 0098 7000EFE6 		uxtb	r0, r0
 927              		.loc 1 200 5 is_stmt 0 view .LVU229
 928 009c FEFFFFEB 		bl	test_emit_token
 929              	.LVL64:
 930              		.loc 1 200 5 view .LVU230
 931              	.LBE16:
 932              		.loc 1 194 3 view .LVU231
 933 00a0 014054E2 		subs	r4, r4, #1
 934              	.LVL65:
 935              		.loc 1 194 3 view .LVU232
 936 00a4 F7FFFF1A 		bne	.L45
 937              		.loc 1 202 3 is_stmt 1 view .LVU233
 938              		.syntax divided
 939              	@ 202 "../../test/testqueues.c" 1
 940 00a8 9FF021E3 		msr     CPSR_c, #0x9F
 941              	@ 0 "" 2
 942              		.loc 1 202 3 view .LVU234
 943              		.loc 1 202 3 view .LVU235
 944              		.loc 1 202 3 view .LVU236
 945              		.arm
 946              		.syntax unified
 947 00ac D421C5E1 		ldrd	r2, [r5, #20]
 948 00b0 030052E1 		cmp	r2, r3
 949 00b4 8600000A 		beq	.L61
 950              	.L46:
 951 00b8 0710A0E1 		mov	r1, r7
 952 00bc 0300A0E3 		mov	r0, #3
 953 00c0 FEFFFFEB 		bl	_test_assert
 954              	.LVL66:
 955 00c4 000050E3 		cmp	r0, #0
 956 00c8 7A00001A 		bne	.L59
 957              		.loc 1 202 3 view .LVU237
 958              		.loc 1 202 3 view .LVU238
 959              		.syntax divided
 960              	@ 202 "../../test/testqueues.c" 1
 961 00cc 1FF021E3 		msr     CPSR_c, #0x1F
 962              	@ 0 "" 2
 963              		.loc 1 202 3 view .LVU239
 964              		.loc 1 202 55 view .LVU240
 965              		.loc 1 203 3 view .LVU241
 966              		.arm
 967              		.syntax unified
 968 00d0 10129FE5 		ldr	r1, .L62+4
 969 00d4 0400A0E3 		mov	r0, #4
ARM GAS  /var/folders/l5/0x54b2c10074c8bt31ycjvl80000gp/T//ccT1qQHo.s 			page 18


 970 00d8 FEFFFFEB 		bl	_test_assert_sequence
 971              	.LVL67:
 972 00dc 000050E3 		cmp	r0, #0
 973 00e0 7500001A 		bne	.L39
 974              		.loc 1 203 34 view .LVU242
 975              		.loc 1 204 3 view .LVU243
 976              		.syntax divided
 977              	@ 204 "../../test/testqueues.c" 1
 978 00e4 9FF021E3 		msr     CPSR_c, #0x9F
 979              	@ 0 "" 2
 980              		.loc 1 204 3 view .LVU244
 981              		.loc 1 204 3 view .LVU245
 982              		.loc 1 204 3 view .LVU246
 983              		.arm
 984              		.syntax unified
 985 00e8 F4019FE5 		ldr	r0, .L62
 986 00ec FEFFFFEB 		bl	chOQGetI
 987              	.LVL68:
 988 00f0 030070E3 		cmn	r0, #3
 989 00f4 0010A013 		movne	r1, #0
 990 00f8 0110A003 		moveq	r1, #1
 991 00fc 0500A0E3 		mov	r0, #5
 992 0100 FEFFFFEB 		bl	_test_assert
 993              	.LVL69:
 994 0104 003050E2 		subs	r3, r0, #0
 995 0108 6A00001A 		bne	.L59
 996              		.loc 1 204 3 view .LVU247
 997              		.loc 1 204 3 view .LVU248
 998              		.syntax divided
 999              	@ 204 "../../test/testqueues.c" 1
 1000 010c 1FF021E3 		msr     CPSR_c, #0x1F
 1001              	@ 0 "" 2
 1002              		.loc 1 204 3 view .LVU249
 1003              		.loc 1 204 76 view .LVU250
 1004              		.loc 1 207 3 view .LVU251
 1005              		.loc 1 207 31 is_stmt 0 view .LVU252
 1006              		.arm
 1007              		.syntax unified
 1008 0110 D4419FE5 		ldr	r4, .L62+8
 1009              	.LVL70:
 1010              		.loc 1 207 7 view .LVU253
 1011 0114 0820A0E3 		mov	r2, #8
 1012 0118 046094E5 		ldr	r6, [r4, #4]
 1013 011c C0019FE5 		ldr	r0, .L62
 1014 0120 0610A0E1 		mov	r1, r6
 1015 0124 FEFFFFEB 		bl	chOQWriteTimeout
 1016              	.LVL71:
 1017              		.loc 1 208 3 is_stmt 1 view .LVU254
 1018 0128 041040E2 		sub	r1, r0, #4
 1019 012c 111F6FE1 		clz	r1, r1
 1020 0130 0600A0E3 		mov	r0, #6
 1021              	.LVL72:
 1022              		.loc 1 208 3 is_stmt 0 view .LVU255
 1023 0134 A112A0E1 		lsr	r1, r1, #5
 1024 0138 FEFFFFEB 		bl	_test_assert
 1025              	.LVL73:
 1026 013c 000050E3 		cmp	r0, #0
ARM GAS  /var/folders/l5/0x54b2c10074c8bt31ycjvl80000gp/T//ccT1qQHo.s 			page 19


 1027 0140 5D00001A 		bne	.L39
 1028              		.loc 1 208 63 is_stmt 1 view .LVU256
 1029              		.loc 1 209 3 view .LVU257
 1030              		.syntax divided
 1031              	@ 209 "../../test/testqueues.c" 1
 1032 0144 9FF021E3 		msr     CPSR_c, #0x9F
 1033              	@ 0 "" 2
 1034              		.loc 1 209 3 view .LVU258
 1035              		.loc 1 209 3 view .LVU259
 1036              		.loc 1 209 3 view .LVU260
 1037              		.arm
 1038              		.syntax unified
 1039 0148 081095E5 		ldr	r1, [r5, #8]
 1040 014c 0700A0E3 		mov	r0, #7
 1041 0150 111F6FE1 		clz	r1, r1
 1042 0154 A112A0E1 		lsr	r1, r1, #5
 1043 0158 FEFFFFEB 		bl	_test_assert
 1044              	.LVL74:
 1045 015c 001050E2 		subs	r1, r0, #0
 1046 0160 5400001A 		bne	.L59
 1047              		.loc 1 209 3 view .LVU261
 1048              		.loc 1 209 3 view .LVU262
 1049              		.syntax divided
 1050              	@ 209 "../../test/testqueues.c" 1
 1051 0164 1FF021E3 		msr     CPSR_c, #0x1F
 1052              	@ 0 "" 2
 1053              		.loc 1 209 3 view .LVU263
 1054              		.loc 1 209 52 view .LVU264
 1055              		.loc 1 210 3 view .LVU265
 1056              		.loc 1 210 50 is_stmt 0 view .LVU266
 1057              		.arm
 1058              		.syntax unified
 1059 0168 80319FE5 		ldr	r3, .L62+12
 1060              		.loc 1 210 16 view .LVU267
 1061 016c 000094E5 		ldr	r0, [r4]
 1062              		.loc 1 210 50 view .LVU268
 1063 0170 182093E5 		ldr	r2, [r3, #24]
 1064              		.loc 1 210 16 view .LVU269
 1065 0174 78319FE5 		ldr	r3, .L62+16
 1066 0178 082092E5 		ldr	r2, [r2, #8]
 1067 017c 00108DE5 		str	r1, [sp]
 1068 0180 012082E2 		add	r2, r2, #1
 1069 0184 461FA0E3 		mov	r1, #280
 1070 0188 FEFFFFEB 		bl	chThdCreateStatic
 1071              	.LVL75:
 1072              		.loc 1 210 14 view .LVU270
 1073 018c 64319FE5 		ldr	r3, .L62+20
 1074 0190 000083E5 		str	r0, [r3]
 1075              		.loc 1 211 3 is_stmt 1 view .LVU271
 1076              		.syntax divided
 1077              	@ 211 "../../test/testqueues.c" 1
 1078 0194 9FF021E3 		msr     CPSR_c, #0x9F
 1079              	@ 0 "" 2
 1080              		.loc 1 211 3 view .LVU272
 1081              		.loc 1 211 3 view .LVU273
 1082              		.loc 1 211 3 view .LVU274
 1083              		.arm
ARM GAS  /var/folders/l5/0x54b2c10074c8bt31ycjvl80000gp/T//ccT1qQHo.s 			page 20


 1084              		.syntax unified
 1085 0198 101095E5 		ldr	r1, [r5, #16]
 1086 019c 0C2095E5 		ldr	r2, [r5, #12]
 1087 01a0 083095E5 		ldr	r3, [r5, #8]
 1088 01a4 021041E0 		sub	r1, r1, r2
 1089 01a8 031041E0 		sub	r1, r1, r3
 1090 01ac 041041E2 		sub	r1, r1, #4
 1091 01b0 111F6FE1 		clz	r1, r1
 1092 01b4 0800A0E3 		mov	r0, #8
 1093 01b8 A112A0E1 		lsr	r1, r1, #5
 1094 01bc FEFFFFEB 		bl	_test_assert
 1095              	.LVL76:
 1096 01c0 000050E3 		cmp	r0, #0
 1097 01c4 3B00001A 		bne	.L59
 1098              		.loc 1 211 3 view .LVU275
 1099              		.loc 1 211 3 view .LVU276
 1100              		.syntax divided
 1101              	@ 211 "../../test/testqueues.c" 1
 1102 01c8 1FF021E3 		msr     CPSR_c, #0x1F
 1103              	@ 0 "" 2
 1104              		.loc 1 211 3 view .LVU277
 1105              		.loc 1 211 74 view .LVU278
 1106              		.loc 1 212 3 view .LVU279
 1107              		.arm
 1108              		.syntax unified
 1109 01cc FEFFFFEB 		bl	test_wait_threads
 1110              	.LVL77:
 1111              		.loc 1 215 3 view .LVU280
 1112              		.syntax divided
 1113              	@ 215 "../../test/testqueues.c" 1
 1114 01d0 9FF021E3 		msr     CPSR_c, #0x9F
 1115              	@ 0 "" 2
 1116              		.loc 1 215 3 view .LVU281
 1117              		.loc 1 215 14 view .LVU282
 1118              		.loc 1 216 3 view .LVU283
 1119              		.arm
 1120              		.syntax unified
 1121 01d4 08019FE5 		ldr	r0, .L62
 1122 01d8 FEFFFFEB 		bl	chOQResetI
 1123              	.LVL78:
 1124              		.loc 1 217 3 view .LVU284
 1125              		.loc 1 217 3 view .LVU285
 1126              		.syntax divided
 1127              	@ 217 "../../test/testqueues.c" 1
 1128 01dc 1FF021E3 		msr     CPSR_c, #0x1F
 1129              	@ 0 "" 2
 1130              		.loc 1 217 16 view .LVU286
 1131              		.loc 1 218 3 view .LVU287
 1132              	@ 218 "../../test/testqueues.c" 1
 1133 01e0 9FF021E3 		msr     CPSR_c, #0x9F
 1134              	@ 0 "" 2
 1135              		.loc 1 218 3 view .LVU288
 1136              		.loc 1 218 3 view .LVU289
 1137              		.loc 1 218 3 view .LVU290
 1138              		.arm
 1139              		.syntax unified
 1140 01e4 DC20C5E1 		ldrd	r2, [r5, #12]
ARM GAS  /var/folders/l5/0x54b2c10074c8bt31ycjvl80000gp/T//ccT1qQHo.s 			page 21


 1141 01e8 081095E5 		ldr	r1, [r5, #8]
 1142 01ec 023043E0 		sub	r3, r3, r2
 1143 01f0 011043E0 		sub	r1, r3, r1
 1144 01f4 111F6FE1 		clz	r1, r1
 1145 01f8 0900A0E3 		mov	r0, #9
 1146 01fc A112A0E1 		lsr	r1, r1, #5
 1147 0200 FEFFFFEB 		bl	_test_assert
 1148              	.LVL79:
 1149 0204 003050E2 		subs	r3, r0, #0
 1150 0208 2A00001A 		bne	.L59
 1151              		.loc 1 218 3 view .LVU291
 1152              		.loc 1 218 3 view .LVU292
 1153              		.syntax divided
 1154              	@ 218 "../../test/testqueues.c" 1
 1155 020c 1FF021E3 		msr     CPSR_c, #0x1F
 1156              	@ 0 "" 2
 1157              		.loc 1 218 3 view .LVU293
 1158              		.loc 1 218 60 view .LVU294
 1159              		.loc 1 221 3 view .LVU295
 1160              		.loc 1 221 7 is_stmt 0 view .LVU296
 1161              		.arm
 1162              		.syntax unified
 1163 0210 0220A0E3 		mov	r2, #2
 1164 0214 0610A0E1 		mov	r1, r6
 1165 0218 C4009FE5 		ldr	r0, .L62
 1166 021c FEFFFFEB 		bl	chOQWriteTimeout
 1167              	.LVL80:
 1168              		.loc 1 222 3 is_stmt 1 view .LVU297
 1169 0220 021040E2 		sub	r1, r0, #2
 1170 0224 111F6FE1 		clz	r1, r1
 1171 0228 0A00A0E3 		mov	r0, #10
 1172              	.LVL81:
 1173              		.loc 1 222 3 is_stmt 0 view .LVU298
 1174 022c A112A0E1 		lsr	r1, r1, #5
 1175 0230 FEFFFFEB 		bl	_test_assert
 1176              	.LVL82:
 1177 0234 003050E2 		subs	r3, r0, #0
 1178 0238 1F00001A 		bne	.L39
 1179              		.loc 1 222 68 is_stmt 1 view .LVU299
 1180              		.loc 1 223 3 view .LVU300
 1181              		.loc 1 223 7 is_stmt 0 view .LVU301
 1182 023c 0610A0E1 		mov	r1, r6
 1183 0240 0220A0E3 		mov	r2, #2
 1184 0244 98009FE5 		ldr	r0, .L62
 1185 0248 FEFFFFEB 		bl	chOQWriteTimeout
 1186              	.LVL83:
 1187              		.loc 1 224 3 is_stmt 1 view .LVU302
 1188 024c 021040E2 		sub	r1, r0, #2
 1189 0250 111F6FE1 		clz	r1, r1
 1190 0254 0B00A0E3 		mov	r0, #11
 1191              	.LVL84:
 1192              		.loc 1 224 3 is_stmt 0 view .LVU303
 1193 0258 A112A0E1 		lsr	r1, r1, #5
 1194 025c FEFFFFEB 		bl	_test_assert
 1195              	.LVL85:
 1196 0260 000050E3 		cmp	r0, #0
 1197 0264 1400001A 		bne	.L39
ARM GAS  /var/folders/l5/0x54b2c10074c8bt31ycjvl80000gp/T//ccT1qQHo.s 			page 22


 1198              		.loc 1 224 68 is_stmt 1 view .LVU304
 1199              		.loc 1 225 3 view .LVU305
 1200              		.syntax divided
 1201              	@ 225 "../../test/testqueues.c" 1
 1202 0268 9FF021E3 		msr     CPSR_c, #0x9F
 1203              	@ 0 "" 2
 1204              		.loc 1 225 3 view .LVU306
 1205              		.loc 1 225 3 view .LVU307
 1206              		.loc 1 225 3 view .LVU308
 1207              		.arm
 1208              		.syntax unified
 1209 026c 081095E5 		ldr	r1, [r5, #8]
 1210 0270 0C00A0E3 		mov	r0, #12
 1211 0274 111F6FE1 		clz	r1, r1
 1212 0278 A112A0E1 		lsr	r1, r1, #5
 1213 027c FEFFFFEB 		bl	_test_assert
 1214              	.LVL86:
 1215 0280 000050E3 		cmp	r0, #0
 1216 0284 0B00001A 		bne	.L59
 1217              		.loc 1 225 3 view .LVU309
 1218              		.loc 1 225 3 view .LVU310
 1219              		.syntax divided
 1220              	@ 225 "../../test/testqueues.c" 1
 1221 0288 1FF021E3 		msr     CPSR_c, #0x1F
 1222              	@ 0 "" 2
 1223              		.loc 1 225 3 view .LVU311
 1224              		.loc 1 225 53 view .LVU312
 1225              		.loc 1 228 3 view .LVU313
 1226              		.arm
 1227              		.syntax unified
 1228 028c 0010A0E3 		mov	r1, #0
 1229 0290 0A20A0E3 		mov	r2, #10
 1230 0294 48009FE5 		ldr	r0, .L62
 1231 0298 FEFFFFEB 		bl	chOQPutTimeout
 1232              	.LVL87:
 1233 029c 010070E3 		cmn	r0, #1
 1234 02a0 0010A013 		movne	r1, #0
 1235 02a4 0110A003 		moveq	r1, #1
 1236 02a8 0D00A0E3 		mov	r0, #13
 1237              	.LBE15:
 1238              	.LBE14:
 1239              		.loc 1 229 1 is_stmt 0 view .LVU314
 1240 02ac 0CD08DE2 		add	sp, sp, #12
 1241              		.cfi_remember_state
 1242              		.cfi_def_cfa_offset 20
 1243              		@ sp needed
 1244 02b0 F040BDE8 		pop	{r4, r5, r6, r7, lr}
 1245              		.cfi_restore 14
 1246              		.cfi_restore 7
 1247              		.cfi_restore 6
 1248              		.cfi_restore 5
 1249              		.cfi_restore 4
 1250              		.cfi_def_cfa_offset 0
 1251              	.LBB19:
 1252              	.LBB17:
 1253              		.loc 1 228 3 view .LVU315
 1254 02b4 FEFFFFEA 		b	_test_assert
ARM GAS  /var/folders/l5/0x54b2c10074c8bt31ycjvl80000gp/T//ccT1qQHo.s 			page 23


 1255              	.LVL88:
 1256              	.L59:
 1257              		.cfi_restore_state
 1258              		.loc 1 225 3 is_stmt 1 view .LVU316
 1259              		.loc 1 225 3 view .LVU317
 1260              		.syntax divided
 1261              	@ 225 "../../test/testqueues.c" 1
 1262 02b8 1FF021E3 		msr     CPSR_c, #0x1F
 1263              	@ 0 "" 2
 1264              		.loc 1 225 3 view .LVU318
 1265              		.loc 1 225 3 view .LVU319
 1266              		.arm
 1267              		.syntax unified
 1268              	.L39:
 1269              	.LBE17:
 1270              	.LBE19:
 1271              		.loc 1 229 1 is_stmt 0 view .LVU320
 1272 02bc 0CD08DE2 		add	sp, sp, #12
 1273              		.cfi_remember_state
 1274              		.cfi_def_cfa_offset 20
 1275              		@ sp needed
 1276 02c0 F080BDE8 		pop	{r4, r5, r6, r7, pc}
 1277              	.L60:
 1278              		.cfi_restore_state
 1279              		.loc 1 186 3 discriminator 1 view .LVU321
 1280 02c4 081095E5 		ldr	r1, [r5, #8]
 1281 02c8 001091E2 		adds	r1, r1, #0
 1282 02cc 0110A013 		movne	r1, #1
 1283 02d0 52FFFFEA 		b	.L40
 1284              	.LVL89:
 1285              	.L61:
 1286              	.LBB20:
 1287              	.LBB18:
 1288              		.loc 1 202 3 view .LVU322
 1289 02d4 087095E5 		ldr	r7, [r5, #8]
 1290 02d8 007097E2 		adds	r7, r7, #0
 1291 02dc 0170A013 		movne	r7, #1
 1292 02e0 74FFFFEA 		b	.L46
 1293              	.L63:
 1294              		.align	2
 1295              	.L62:
 1296 02e4 00000000 		.word	.LANCHOR1
 1297 02e8 00000000 		.word	.LC0
 1298 02ec 00000000 		.word	wa
 1299 02f0 00000000 		.word	rlist
 1300 02f4 00000000 		.word	thread2
 1301 02f8 00000000 		.word	threads
 1302              	.LBE18:
 1303              	.LBE20:
 1304              		.cfi_endproc
 1305              	.LFE13:
 1306              		.size	queues2_execute, .-queues2_execute
 1307              		.global	patternqueues
 1308              		.global	testqueues2
 1309              		.global	testqueues1
 1310              		.section	.data.iq,"aw"
 1311              		.align	2
ARM GAS  /var/folders/l5/0x54b2c10074c8bt31ycjvl80000gp/T//ccT1qQHo.s 			page 24


 1312              		.set	.LANCHOR0,. + 0
 1313              		.type	iq, %object
 1314              		.size	iq, 36
 1315              	iq:
 1316 0000 00000000 		.word	iq
 1317 0004 00000000 		.word	iq
 1318 0008 00000000 		.word	0
 1319 000c 00000000 		.word	test
 1320 0010 04000000 		.word	test+4
 1321 0014 00000000 		.word	test
 1322 0018 00000000 		.word	test
 1323 001c 00000000 		.word	notify
 1324 0020 00000000 		.word	0
 1325              		.section	.data.oq,"aw"
 1326              		.align	2
 1327              		.set	.LANCHOR1,. + 0
 1328              		.type	oq, %object
 1329              		.size	oq, 36
 1330              	oq:
 1331 0000 00000000 		.word	oq
 1332 0004 00000000 		.word	oq
 1333 0008 04000000 		.word	4
 1334 000c 18010000 		.word	test+280
 1335 0010 1C010000 		.word	test+284
 1336 0014 18010000 		.word	test+280
 1337 0018 18010000 		.word	test+280
 1338 001c 00000000 		.word	notify
 1339 0020 00000000 		.word	0
 1340              		.section	.rodata.patternqueues,"a"
 1341              		.align	2
 1342              		.type	patternqueues, %object
 1343              		.size	patternqueues, 12
 1344              	patternqueues:
 1345 0000 00000000 		.word	testqueues1
 1346 0004 00000000 		.word	testqueues2
 1347 0008 00000000 		.word	0
 1348              		.section	.rodata.queues1_execute.str1.4,"aMS",%progbits,1
 1349              		.align	2
 1350              	.LC0:
 1351 0000 41424344 		.ascii	"ABCD\000"
 1351      00
 1352              		.section	.rodata.str1.4,"aMS",%progbits,1
 1353              		.align	2
 1354              	.LC1:
 1355 0000 51756575 		.ascii	"Queues, output queues\000"
 1355      65732C20 
 1355      6F757470 
 1355      75742071 
 1355      75657565 
 1356 0016 0000     		.space	2
 1357              	.LC2:
 1358 0018 51756575 		.ascii	"Queues, input queues\000"
 1358      65732C20 
 1358      696E7075 
 1358      74207175 
 1358      65756573 
 1359              		.section	.rodata.testqueues1,"a"
ARM GAS  /var/folders/l5/0x54b2c10074c8bt31ycjvl80000gp/T//ccT1qQHo.s 			page 25


 1360              		.align	2
 1361              		.type	testqueues1, %object
 1362              		.size	testqueues1, 16
 1363              	testqueues1:
 1364 0000 18000000 		.word	.LC2
 1365 0004 00000000 		.word	queues1_setup
 1366 0008 00000000 		.word	0
 1367 000c 00000000 		.word	queues1_execute
 1368              		.section	.rodata.testqueues2,"a"
 1369              		.align	2
 1370              		.type	testqueues2, %object
 1371              		.size	testqueues2, 16
 1372              	testqueues2:
 1373 0000 00000000 		.word	.LC1
 1374 0004 00000000 		.word	queues2_setup
 1375 0008 00000000 		.word	0
 1376 000c 00000000 		.word	queues2_execute
 1377              		.text
 1378              	.Letext0:
 1379              		.file 2 "/usr/local/Cellar/arm-gcc-bin/8-2019-q3-update/lib/gcc/arm-none-eabi/8.3.1/include/stddef
 1380              		.file 3 "/usr/local/Cellar/arm-gcc-bin/8-2019-q3-update/arm-none-eabi/include/machine/_default_typ
 1381              		.file 4 "/usr/local/Cellar/arm-gcc-bin/8-2019-q3-update/arm-none-eabi/include/sys/_stdint.h"
 1382              		.file 5 "../../os/ports/GCC/ARM/chtypes.h"
 1383              		.file 6 "../../os/kernel/include/chlists.h"
 1384              		.file 7 "../../os/kernel/include/chthreads.h"
 1385              		.file 8 "../../os/ports/GCC/ARM/chcore.h"
 1386              		.file 9 "../../os/kernel/include/chvt.h"
 1387              		.file 10 "../../os/kernel/include/chschd.h"
 1388              		.file 11 "../../os/kernel/include/chmtx.h"
 1389              		.file 12 "../../os/kernel/include/chregistry.h"
 1390              		.file 13 "../../os/kernel/include/chqueues.h"
 1391              		.file 14 "../../os/kernel/include/ch.h"
 1392              		.file 15 "../../test/test.h"