ARM GAS  /var/folders/l5/0x54b2c10074c8bt31ycjvl80000gp/T//ccko8bQz.s 			page 1


   1              		.cpu arm1176jz-s
   2              		.eabi_attribute 20, 1
   3              		.eabi_attribute 21, 1
   4              		.eabi_attribute 23, 3
   5              		.eabi_attribute 24, 1
   6              		.eabi_attribute 25, 1
   7              		.eabi_attribute 26, 1
   8              		.eabi_attribute 30, 2
   9              		.eabi_attribute 34, 1
  10              		.eabi_attribute 18, 4
  11              		.file	"testheap.c"
  12              		.text
  13              	.Ltext0:
  14              		.cfi_sections	.debug_frame
  15              		.section	.text.heap1_execute,"ax",%progbits
  16              		.align	2
  17              		.arch armv6kz
  18              		.syntax unified
  19              		.arm
  20              		.fpu softvfp
  21              		.type	heap1_execute, %function
  22              	heap1_execute:
  23              	.LFB8:
  24              		.file 1 "../../test/testheap.c"
  25              		.loc 1 73 33 view -0
  26              		.cfi_startproc
  27              		@ args = 0, pretend = 0, frame = 8
  28              		@ frame_needed = 0, uses_anonymous_args = 0
  29              		.loc 1 74 3 view .LVU1
  30              		.loc 1 75 3 view .LVU2
  31              		.loc 1 78 3 view .LVU3
  32              		.loc 1 73 33 is_stmt 0 view .LVU4
  33 0000 70402DE9 		push	{r4, r5, r6, lr}
  34              		.cfi_def_cfa_offset 16
  35              		.cfi_offset 4, -16
  36              		.cfi_offset 5, -12
  37              		.cfi_offset 6, -8
  38              		.cfi_offset 14, -4
  39 0004 08D04DE2 		sub	sp, sp, #8
  40              		.cfi_def_cfa_offset 24
  41              		.loc 1 78 9 view .LVU5
  42 0008 FEFFFFEB 		bl	chCoreStatus
  43              	.LVL0:
  44              		.loc 1 84 3 is_stmt 1 view .LVU6
  45              		.loc 1 84 9 is_stmt 0 view .LVU7
  46 000c 04108DE2 		add	r1, sp, #4
  47 0010 0000A0E3 		mov	r0, #0
  48 0014 FEFFFFEB 		bl	chHeapStatus
  49              	.LVL1:
  50              		.loc 1 85 3 is_stmt 1 view .LVU8
  51              		.loc 1 85 8 is_stmt 0 view .LVU9
  52 0018 1010A0E3 		mov	r1, #16
  53 001c 0000A0E3 		mov	r0, #0
  54 0020 FEFFFFEB 		bl	chHeapAlloc
  55              	.LVL2:
  56              		.loc 1 86 3 is_stmt 1 view .LVU10
  57 0024 001090E2 		adds	r1, r0, #0
ARM GAS  /var/folders/l5/0x54b2c10074c8bt31ycjvl80000gp/T//ccko8bQz.s 			page 2


  58 0028 0110A013 		movne	r1, #1
  59 002c 0040A0E1 		mov	r4, r0
  60 0030 0100A0E3 		mov	r0, #1
  61              	.LVL3:
  62              		.loc 1 86 3 is_stmt 0 view .LVU11
  63 0034 FEFFFFEB 		bl	_test_assert
  64              	.LVL4:
  65 0038 005050E2 		subs	r5, r0, #0
  66 003c 0100000A 		beq	.L9
  67              	.LVL5:
  68              	.L1:
  69              		.loc 1 144 1 view .LVU12
  70 0040 08D08DE2 		add	sp, sp, #8
  71              		.cfi_remember_state
  72              		.cfi_def_cfa_offset 16
  73              		@ sp needed
  74 0044 7080BDE8 		pop	{r4, r5, r6, pc}
  75              	.LVL6:
  76              	.L9:
  77              		.cfi_restore_state
  78              		.loc 1 86 50 is_stmt 1 discriminator 2 view .LVU13
  79              		.loc 1 87 3 discriminator 2 view .LVU14
  80 0048 0400A0E1 		mov	r0, r4
  81 004c FEFFFFEB 		bl	chHeapFree
  82              	.LVL7:
  83              		.loc 1 88 3 discriminator 2 view .LVU15
  84              		.loc 1 88 8 is_stmt 0 discriminator 2 view .LVU16
  85 0050 FF10E0E3 		mvn	r1, #255
  86 0054 0500A0E1 		mov	r0, r5
  87 0058 FEFFFFEB 		bl	chHeapAlloc
  88              	.LVL8:
  89              		.loc 1 89 3 is_stmt 1 discriminator 2 view .LVU17
  90 005c 101F6FE1 		clz	r1, r0
  91 0060 0200A0E3 		mov	r0, #2
  92              	.LVL9:
  93              		.loc 1 89 3 is_stmt 0 discriminator 2 view .LVU18
  94 0064 A112A0E1 		lsr	r1, r1, #5
  95 0068 FEFFFFEB 		bl	_test_assert
  96              	.LVL10:
  97 006c 000050E3 		cmp	r0, #0
  98 0070 F2FFFF1A 		bne	.L1
  99              		.loc 1 89 54 is_stmt 1 discriminator 2 view .LVU19
 100              		.loc 1 92 3 discriminator 2 view .LVU20
 101              		.loc 1 92 9 is_stmt 0 discriminator 2 view .LVU21
 102 0074 04108DE2 		add	r1, sp, #4
 103 0078 CC029FE5 		ldr	r0, .L10
 104 007c FEFFFFEB 		bl	chHeapStatus
 105              	.LVL11:
 106              		.loc 1 95 3 is_stmt 1 discriminator 2 view .LVU22
 107              		.loc 1 95 8 is_stmt 0 discriminator 2 view .LVU23
 108 0080 1010A0E3 		mov	r1, #16
 109 0084 C0029FE5 		ldr	r0, .L10
 110 0088 FEFFFFEB 		bl	chHeapAlloc
 111              	.LVL12:
 112              		.loc 1 96 8 discriminator 2 view .LVU24
 113 008c 1010A0E3 		mov	r1, #16
 114              		.loc 1 95 8 discriminator 2 view .LVU25
ARM GAS  /var/folders/l5/0x54b2c10074c8bt31ycjvl80000gp/T//ccko8bQz.s 			page 3


 115 0090 0060A0E1 		mov	r6, r0
 116              	.LVL13:
 117              		.loc 1 96 3 is_stmt 1 discriminator 2 view .LVU26
 118              		.loc 1 96 8 is_stmt 0 discriminator 2 view .LVU27
 119 0094 B0029FE5 		ldr	r0, .L10
 120              	.LVL14:
 121              		.loc 1 96 8 discriminator 2 view .LVU28
 122 0098 FEFFFFEB 		bl	chHeapAlloc
 123              	.LVL15:
 124              		.loc 1 97 8 discriminator 2 view .LVU29
 125 009c 1010A0E3 		mov	r1, #16
 126              		.loc 1 96 8 discriminator 2 view .LVU30
 127 00a0 0050A0E1 		mov	r5, r0
 128              	.LVL16:
 129              		.loc 1 97 3 is_stmt 1 discriminator 2 view .LVU31
 130              		.loc 1 97 8 is_stmt 0 discriminator 2 view .LVU32
 131 00a4 A0029FE5 		ldr	r0, .L10
 132              	.LVL17:
 133              		.loc 1 97 8 discriminator 2 view .LVU33
 134 00a8 FEFFFFEB 		bl	chHeapAlloc
 135              	.LVL18:
 136 00ac 0040A0E1 		mov	r4, r0
 137              	.LVL19:
 138              		.loc 1 98 3 is_stmt 1 discriminator 2 view .LVU34
 139 00b0 0600A0E1 		mov	r0, r6
 140              	.LVL20:
 141              		.loc 1 98 3 is_stmt 0 discriminator 2 view .LVU35
 142 00b4 FEFFFFEB 		bl	chHeapFree
 143              	.LVL21:
 144              		.loc 1 99 3 is_stmt 1 discriminator 2 view .LVU36
 145 00b8 0500A0E1 		mov	r0, r5
 146 00bc FEFFFFEB 		bl	chHeapFree
 147              	.LVL22:
 148              		.loc 1 100 3 discriminator 2 view .LVU37
 149 00c0 0400A0E1 		mov	r0, r4
 150 00c4 FEFFFFEB 		bl	chHeapFree
 151              	.LVL23:
 152              		.loc 1 101 3 discriminator 2 view .LVU38
 153 00c8 0D10A0E1 		mov	r1, sp
 154 00cc 78029FE5 		ldr	r0, .L10
 155 00d0 FEFFFFEB 		bl	chHeapStatus
 156              	.LVL24:
 157 00d4 011040E2 		sub	r1, r0, #1
 158 00d8 111F6FE1 		clz	r1, r1
 159 00dc 0300A0E3 		mov	r0, #3
 160 00e0 A112A0E1 		lsr	r1, r1, #5
 161 00e4 FEFFFFEB 		bl	_test_assert
 162              	.LVL25:
 163 00e8 000050E3 		cmp	r0, #0
 164 00ec D3FFFF1A 		bne	.L1
 165              		.loc 1 101 71 discriminator 2 view .LVU39
 166              		.loc 1 104 3 discriminator 2 view .LVU40
 167              		.loc 1 104 8 is_stmt 0 discriminator 2 view .LVU41
 168 00f0 1010A0E3 		mov	r1, #16
 169 00f4 50029FE5 		ldr	r0, .L10
 170 00f8 FEFFFFEB 		bl	chHeapAlloc
 171              	.LVL26:
ARM GAS  /var/folders/l5/0x54b2c10074c8bt31ycjvl80000gp/T//ccko8bQz.s 			page 4


 172              		.loc 1 105 8 discriminator 2 view .LVU42
 173 00fc 1010A0E3 		mov	r1, #16
 174              		.loc 1 104 8 discriminator 2 view .LVU43
 175 0100 0040A0E1 		mov	r4, r0
 176              	.LVL27:
 177              		.loc 1 105 3 is_stmt 1 discriminator 2 view .LVU44
 178              		.loc 1 105 8 is_stmt 0 discriminator 2 view .LVU45
 179 0104 40029FE5 		ldr	r0, .L10
 180              	.LVL28:
 181              		.loc 1 105 8 discriminator 2 view .LVU46
 182 0108 FEFFFFEB 		bl	chHeapAlloc
 183              	.LVL29:
 184 010c 0050A0E1 		mov	r5, r0
 185              	.LVL30:
 186              		.loc 1 106 3 is_stmt 1 discriminator 2 view .LVU47
 187              		.loc 1 106 8 is_stmt 0 discriminator 2 view .LVU48
 188 0110 1010A0E3 		mov	r1, #16
 189 0114 30029FE5 		ldr	r0, .L10
 190              	.LVL31:
 191              		.loc 1 106 8 discriminator 2 view .LVU49
 192 0118 FEFFFFEB 		bl	chHeapAlloc
 193              	.LVL32:
 194              		.loc 1 107 3 is_stmt 1 discriminator 2 view .LVU50
 195 011c FEFFFFEB 		bl	chHeapFree
 196              	.LVL33:
 197              		.loc 1 108 3 discriminator 2 view .LVU51
 198 0120 0500A0E1 		mov	r0, r5
 199 0124 FEFFFFEB 		bl	chHeapFree
 200              	.LVL34:
 201              		.loc 1 109 3 discriminator 2 view .LVU52
 202 0128 0400A0E1 		mov	r0, r4
 203 012c FEFFFFEB 		bl	chHeapFree
 204              	.LVL35:
 205              		.loc 1 110 3 discriminator 2 view .LVU53
 206 0130 0D10A0E1 		mov	r1, sp
 207 0134 10029FE5 		ldr	r0, .L10
 208 0138 FEFFFFEB 		bl	chHeapStatus
 209              	.LVL36:
 210 013c 011040E2 		sub	r1, r0, #1
 211 0140 111F6FE1 		clz	r1, r1
 212 0144 0400A0E3 		mov	r0, #4
 213 0148 A112A0E1 		lsr	r1, r1, #5
 214 014c FEFFFFEB 		bl	_test_assert
 215              	.LVL37:
 216 0150 000050E3 		cmp	r0, #0
 217 0154 B9FFFF1A 		bne	.L1
 218              		.loc 1 110 71 discriminator 2 view .LVU54
 219              		.loc 1 113 3 discriminator 2 view .LVU55
 220              		.loc 1 113 8 is_stmt 0 discriminator 2 view .LVU56
 221 0158 1110A0E3 		mov	r1, #17
 222 015c E8019FE5 		ldr	r0, .L10
 223 0160 FEFFFFEB 		bl	chHeapAlloc
 224              	.LVL38:
 225              		.loc 1 114 8 discriminator 2 view .LVU57
 226 0164 1010A0E3 		mov	r1, #16
 227              		.loc 1 113 8 discriminator 2 view .LVU58
 228 0168 0040A0E1 		mov	r4, r0
ARM GAS  /var/folders/l5/0x54b2c10074c8bt31ycjvl80000gp/T//ccko8bQz.s 			page 5


 229              	.LVL39:
 230              		.loc 1 114 3 is_stmt 1 discriminator 2 view .LVU59
 231              		.loc 1 114 8 is_stmt 0 discriminator 2 view .LVU60
 232 016c D8019FE5 		ldr	r0, .L10
 233              	.LVL40:
 234              		.loc 1 114 8 discriminator 2 view .LVU61
 235 0170 FEFFFFEB 		bl	chHeapAlloc
 236              	.LVL41:
 237 0174 0050A0E1 		mov	r5, r0
 238              	.LVL42:
 239              		.loc 1 115 3 is_stmt 1 discriminator 2 view .LVU62
 240 0178 0400A0E1 		mov	r0, r4
 241              	.LVL43:
 242              		.loc 1 115 3 is_stmt 0 discriminator 2 view .LVU63
 243 017c FEFFFFEB 		bl	chHeapFree
 244              	.LVL44:
 245              		.loc 1 116 3 is_stmt 1 discriminator 2 view .LVU64
 246 0180 0D10A0E1 		mov	r1, sp
 247 0184 C0019FE5 		ldr	r0, .L10
 248 0188 FEFFFFEB 		bl	chHeapStatus
 249              	.LVL45:
 250 018c 021040E2 		sub	r1, r0, #2
 251 0190 111F6FE1 		clz	r1, r1
 252 0194 0500A0E3 		mov	r0, #5
 253 0198 A112A0E1 		lsr	r1, r1, #5
 254 019c FEFFFFEB 		bl	_test_assert
 255              	.LVL46:
 256 01a0 000050E3 		cmp	r0, #0
 257 01a4 A5FFFF1A 		bne	.L1
 258              		.loc 1 116 69 discriminator 2 view .LVU65
 259              		.loc 1 117 3 discriminator 2 view .LVU66
 260              		.loc 1 117 8 is_stmt 0 discriminator 2 view .LVU67
 261 01a8 1010A0E3 		mov	r1, #16
 262 01ac 98019FE5 		ldr	r0, .L10
 263 01b0 FEFFFFEB 		bl	chHeapAlloc
 264              	.LVL47:
 265              		.loc 1 120 3 discriminator 2 view .LVU68
 266 01b4 0D10A0E1 		mov	r1, sp
 267              		.loc 1 117 8 discriminator 2 view .LVU69
 268 01b8 0040A0E1 		mov	r4, r0
 269              	.LVL48:
 270              		.loc 1 120 3 is_stmt 1 discriminator 2 view .LVU70
 271 01bc 88019FE5 		ldr	r0, .L10
 272              	.LVL49:
 273              		.loc 1 120 3 is_stmt 0 discriminator 2 view .LVU71
 274 01c0 FEFFFFEB 		bl	chHeapStatus
 275              	.LVL50:
 276 01c4 010050E3 		cmp	r0, #1
 277 01c8 0010A001 		moveq	r1, r0
 278 01cc 0500000A 		beq	.L5
 279 01d0 0D10A0E1 		mov	r1, sp
 280 01d4 70019FE5 		ldr	r0, .L10
 281 01d8 FEFFFFEB 		bl	chHeapStatus
 282              	.LVL51:
 283 01dc 021040E2 		sub	r1, r0, #2
 284 01e0 111F6FE1 		clz	r1, r1
 285 01e4 A112A0E1 		lsr	r1, r1, #5
ARM GAS  /var/folders/l5/0x54b2c10074c8bt31ycjvl80000gp/T//ccko8bQz.s 			page 6


 286              	.L5:
 287              		.loc 1 120 3 discriminator 6 view .LVU72
 288 01e8 0600A0E3 		mov	r0, #6
 289 01ec FEFFFFEB 		bl	_test_assert
 290              	.LVL52:
 291 01f0 000050E3 		cmp	r0, #0
 292 01f4 91FFFF1A 		bne	.L1
 293              		.loc 1 121 73 is_stmt 1 view .LVU73
 294              		.loc 1 122 3 view .LVU74
 295 01f8 0500A0E1 		mov	r0, r5
 296 01fc FEFFFFEB 		bl	chHeapFree
 297              	.LVL53:
 298              		.loc 1 123 3 view .LVU75
 299 0200 0400A0E1 		mov	r0, r4
 300 0204 FEFFFFEB 		bl	chHeapFree
 301              	.LVL54:
 302              		.loc 1 124 3 view .LVU76
 303 0208 0D10A0E1 		mov	r1, sp
 304 020c 38019FE5 		ldr	r0, .L10
 305 0210 FEFFFFEB 		bl	chHeapStatus
 306              	.LVL55:
 307 0214 011040E2 		sub	r1, r0, #1
 308 0218 111F6FE1 		clz	r1, r1
 309 021c 0700A0E3 		mov	r0, #7
 310 0220 A112A0E1 		lsr	r1, r1, #5
 311 0224 FEFFFFEB 		bl	_test_assert
 312              	.LVL56:
 313 0228 000050E3 		cmp	r0, #0
 314 022c 83FFFF1A 		bne	.L1
 315              		.loc 1 124 71 discriminator 2 view .LVU77
 316              		.loc 1 127 3 discriminator 2 view .LVU78
 317              		.loc 1 127 8 is_stmt 0 discriminator 2 view .LVU79
 318 0230 1010A0E3 		mov	r1, #16
 319 0234 10019FE5 		ldr	r0, .L10
 320 0238 FEFFFFEB 		bl	chHeapAlloc
 321              	.LVL57:
 322              		.loc 1 128 8 discriminator 2 view .LVU80
 323 023c 1010A0E3 		mov	r1, #16
 324              		.loc 1 127 8 discriminator 2 view .LVU81
 325 0240 0040A0E1 		mov	r4, r0
 326              	.LVL58:
 327              		.loc 1 128 3 is_stmt 1 discriminator 2 view .LVU82
 328              		.loc 1 128 8 is_stmt 0 discriminator 2 view .LVU83
 329 0244 00019FE5 		ldr	r0, .L10
 330              	.LVL59:
 331              		.loc 1 128 8 discriminator 2 view .LVU84
 332 0248 FEFFFFEB 		bl	chHeapAlloc
 333              	.LVL60:
 334 024c 0050A0E1 		mov	r5, r0
 335              	.LVL61:
 336              		.loc 1 129 3 is_stmt 1 discriminator 2 view .LVU85
 337 0250 0400A0E1 		mov	r0, r4
 338              	.LVL62:
 339              		.loc 1 129 3 is_stmt 0 discriminator 2 view .LVU86
 340 0254 FEFFFFEB 		bl	chHeapFree
 341              	.LVL63:
 342              		.loc 1 130 3 is_stmt 1 discriminator 2 view .LVU87
ARM GAS  /var/folders/l5/0x54b2c10074c8bt31ycjvl80000gp/T//ccko8bQz.s 			page 7


 343 0258 0D10A0E1 		mov	r1, sp
 344 025c E8009FE5 		ldr	r0, .L10
 345 0260 FEFFFFEB 		bl	chHeapStatus
 346              	.LVL64:
 347 0264 021040E2 		sub	r1, r0, #2
 348 0268 111F6FE1 		clz	r1, r1
 349 026c 0800A0E3 		mov	r0, #8
 350 0270 A112A0E1 		lsr	r1, r1, #5
 351 0274 FEFFFFEB 		bl	_test_assert
 352              	.LVL65:
 353 0278 000050E3 		cmp	r0, #0
 354 027c 6FFFFF1A 		bne	.L1
 355              		.loc 1 130 69 discriminator 2 view .LVU88
 356              		.loc 1 131 3 discriminator 2 view .LVU89
 357              		.loc 1 131 8 is_stmt 0 discriminator 2 view .LVU90
 358 0280 2010A0E3 		mov	r1, #32
 359 0284 C0009FE5 		ldr	r0, .L10
 360 0288 FEFFFFEB 		bl	chHeapAlloc
 361              	.LVL66:
 362              		.loc 1 132 3 is_stmt 1 discriminator 2 view .LVU91
 363 028c FEFFFFEB 		bl	chHeapFree
 364              	.LVL67:
 365              		.loc 1 133 3 discriminator 2 view .LVU92
 366 0290 0500A0E1 		mov	r0, r5
 367 0294 FEFFFFEB 		bl	chHeapFree
 368              	.LVL68:
 369              		.loc 1 134 3 discriminator 2 view .LVU93
 370 0298 0D10A0E1 		mov	r1, sp
 371 029c A8009FE5 		ldr	r0, .L10
 372 02a0 FEFFFFEB 		bl	chHeapStatus
 373              	.LVL69:
 374 02a4 011040E2 		sub	r1, r0, #1
 375 02a8 111F6FE1 		clz	r1, r1
 376 02ac 0900A0E3 		mov	r0, #9
 377 02b0 A112A0E1 		lsr	r1, r1, #5
 378 02b4 FEFFFFEB 		bl	_test_assert
 379              	.LVL70:
 380 02b8 000050E3 		cmp	r0, #0
 381 02bc 5FFFFF1A 		bne	.L1
 382              		.loc 1 134 71 discriminator 2 view .LVU94
 383              		.loc 1 137 3 discriminator 2 view .LVU95
 384              		.loc 1 137 9 is_stmt 0 discriminator 2 view .LVU96
 385 02c0 0D10A0E1 		mov	r1, sp
 386 02c4 80009FE5 		ldr	r0, .L10
 387 02c8 FEFFFFEB 		bl	chHeapStatus
 388              	.LVL71:
 389              		.loc 1 138 3 is_stmt 1 discriminator 2 view .LVU97
 390              		.loc 1 138 8 is_stmt 0 discriminator 2 view .LVU98
 391 02cc 00109DE5 		ldr	r1, [sp]
 392 02d0 74009FE5 		ldr	r0, .L10
 393 02d4 FEFFFFEB 		bl	chHeapAlloc
 394              	.LVL72:
 395              		.loc 1 139 3 discriminator 2 view .LVU99
 396 02d8 0D10A0E1 		mov	r1, sp
 397              		.loc 1 138 8 discriminator 2 view .LVU100
 398 02dc 0040A0E1 		mov	r4, r0
 399              	.LVL73:
ARM GAS  /var/folders/l5/0x54b2c10074c8bt31ycjvl80000gp/T//ccko8bQz.s 			page 8


 400              		.loc 1 139 3 is_stmt 1 discriminator 2 view .LVU101
 401 02e0 64009FE5 		ldr	r0, .L10
 402              	.LVL74:
 403              		.loc 1 139 3 is_stmt 0 discriminator 2 view .LVU102
 404 02e4 FEFFFFEB 		bl	chHeapStatus
 405              	.LVL75:
 406 02e8 101F6FE1 		clz	r1, r0
 407 02ec 0A00A0E3 		mov	r0, #10
 408 02f0 A112A0E1 		lsr	r1, r1, #5
 409 02f4 FEFFFFEB 		bl	_test_assert
 410              	.LVL76:
 411 02f8 000050E3 		cmp	r0, #0
 412 02fc 4FFFFF1A 		bne	.L1
 413              		.loc 1 139 66 is_stmt 1 discriminator 2 view .LVU103
 414              		.loc 1 140 3 discriminator 2 view .LVU104
 415 0300 0400A0E1 		mov	r0, r4
 416 0304 FEFFFFEB 		bl	chHeapFree
 417              	.LVL77:
 418              		.loc 1 142 3 discriminator 2 view .LVU105
 419 0308 0D10A0E1 		mov	r1, sp
 420 030c 38009FE5 		ldr	r0, .L10
 421 0310 FEFFFFEB 		bl	chHeapStatus
 422              	.LVL78:
 423 0314 011040E2 		sub	r1, r0, #1
 424 0318 111F6FE1 		clz	r1, r1
 425 031c 0B00A0E3 		mov	r0, #11
 426 0320 A112A0E1 		lsr	r1, r1, #5
 427 0324 FEFFFFEB 		bl	_test_assert
 428              	.LVL79:
 429 0328 000050E3 		cmp	r0, #0
 430 032c 43FFFF1A 		bne	.L1
 431              		.loc 1 142 72 discriminator 2 view .LVU106
 432              		.loc 1 143 3 discriminator 2 view .LVU107
 433 0330 0A009DE8 		ldm	sp, {r1, r3}
 434 0334 031041E0 		sub	r1, r1, r3
 435 0338 111F6FE1 		clz	r1, r1
 436 033c 0C00A0E3 		mov	r0, #12
 437 0340 A112A0E1 		lsr	r1, r1, #5
 438 0344 FEFFFFEB 		bl	_test_assert
 439              	.LVL80:
 440              		.loc 1 143 3 discriminator 2 view .LVU108
 441 0348 3CFFFFEA 		b	.L1
 442              	.L11:
 443              		.align	2
 444              	.L10:
 445 034c 00000000 		.word	.LANCHOR0
 446              		.cfi_endproc
 447              	.LFE8:
 448              		.size	heap1_execute, .-heap1_execute
 449              		.section	.text.heap1_setup,"ax",%progbits
 450              		.align	2
 451              		.syntax unified
 452              		.arm
 453              		.fpu softvfp
 454              		.type	heap1_setup, %function
 455              	heap1_setup:
 456              	.LFB7:
ARM GAS  /var/folders/l5/0x54b2c10074c8bt31ycjvl80000gp/T//ccko8bQz.s 			page 9


 457              		.loc 1 68 31 view -0
 458              		.cfi_startproc
 459              		@ args = 0, pretend = 0, frame = 0
 460              		@ frame_needed = 0, uses_anonymous_args = 0
 461              		@ link register save eliminated.
 462              		.loc 1 70 3 view .LVU110
 463 0000 08209FE5 		ldr	r2, .L13
 464 0004 08109FE5 		ldr	r1, .L13+4
 465 0008 08009FE5 		ldr	r0, .L13+8
 466 000c FEFFFFEA 		b	chHeapInit
 467              	.LVL81:
 468              	.L14:
 469              		.align	2
 470              	.L13:
 471 0010 78050000 		.word	1400
 472 0014 00000000 		.word	test
 473 0018 00000000 		.word	.LANCHOR0
 474              		.cfi_endproc
 475              	.LFE7:
 476              		.size	heap1_setup, .-heap1_setup
 477              		.global	patternheap
 478              		.global	testheap1
 479              		.section	.bss.test_heap,"aw",%nobits
 480              		.align	2
 481              		.set	.LANCHOR0,. + 0
 482              		.type	test_heap, %object
 483              		.size	test_heap, 28
 484              	test_heap:
 485 0000 00000000 		.space	28
 485      00000000 
 485      00000000 
 485      00000000 
 485      00000000 
 486              		.section	.rodata.patternheap,"a"
 487              		.align	2
 488              		.type	patternheap, %object
 489              		.size	patternheap, 8
 490              	patternheap:
 491 0000 00000000 		.word	testheap1
 492 0004 00000000 		.word	0
 493              		.section	.rodata.str1.4,"aMS",%progbits,1
 494              		.align	2
 495              	.LC0:
 496 0000 48656170 		.ascii	"Heap, allocation and fragmentation test\000"
 496      2C20616C 
 496      6C6F6361 
 496      74696F6E 
 496      20616E64 
 497              		.section	.rodata.testheap1,"a"
 498              		.align	2
 499              		.type	testheap1, %object
 500              		.size	testheap1, 16
 501              	testheap1:
 502 0000 00000000 		.word	.LC0
 503 0004 00000000 		.word	heap1_setup
 504 0008 00000000 		.word	0
 505 000c 00000000 		.word	heap1_execute
ARM GAS  /var/folders/l5/0x54b2c10074c8bt31ycjvl80000gp/T//ccko8bQz.s 			page 10


 506              		.text
 507              	.Letext0:
 508              		.file 2 "/usr/local/Cellar/arm-gcc-bin/8-2019-q3-update/lib/gcc/arm-none-eabi/8.3.1/include/stddef
 509              		.file 3 "/usr/local/Cellar/arm-gcc-bin/8-2019-q3-update/arm-none-eabi/include/machine/_default_typ
 510              		.file 4 "/usr/local/Cellar/arm-gcc-bin/8-2019-q3-update/arm-none-eabi/include/sys/_stdint.h"
 511              		.file 5 "../../os/ports/GCC/ARM/chtypes.h"
 512              		.file 6 "../../os/kernel/include/chlists.h"
 513              		.file 7 "../../os/kernel/include/chthreads.h"
 514              		.file 8 "../../os/ports/GCC/ARM/chcore.h"
 515              		.file 9 "../../os/kernel/include/chvt.h"
 516              		.file 10 "../../os/kernel/include/chschd.h"
 517              		.file 11 "../../os/kernel/include/chmtx.h"
 518              		.file 12 "../../os/kernel/include/chmemcore.h"
 519              		.file 13 "../../os/kernel/include/chheap.h"
 520              		.file 14 "../../os/kernel/include/chregistry.h"
 521              		.file 15 "../../os/kernel/include/ch.h"
 522              		.file 16 "../../test/test.h"