ARM GAS  /var/folders/l5/0x54b2c10074c8bt31ycjvl80000gp/T//ccBrkAPT.s 			page 1


   1              		.cpu arm1176jz-s
   2              		.eabi_attribute 20, 1
   3              		.eabi_attribute 21, 1
   4              		.eabi_attribute 23, 3
   5              		.eabi_attribute 24, 1
   6              		.eabi_attribute 25, 1
   7              		.eabi_attribute 26, 1
   8              		.eabi_attribute 30, 2
   9              		.eabi_attribute 34, 1
  10              		.eabi_attribute 18, 4
  11              		.file	"testthd.c"
  12              		.text
  13              	.Ltext0:
  14              		.cfi_sections	.debug_frame
  15              		.section	.text.thd1_execute,"ax",%progbits
  16              		.align	2
  17              		.arch armv6kz
  18              		.syntax unified
  19              		.arm
  20              		.fpu softvfp
  21              		.type	thd1_execute, %function
  22              	thd1_execute:
  23              	.LFB8:
  24              		.file 1 "../../test/testthd.c"
  25              		.loc 1 70 32 view -0
  26              		.cfi_startproc
  27              		@ args = 0, pretend = 0, frame = 0
  28              		@ frame_needed = 0, uses_anonymous_args = 0
  29              		.loc 1 72 3 view .LVU1
  30              		.loc 1 70 32 is_stmt 0 view .LVU2
  31 0000 F0402DE9 		push	{r4, r5, r6, r7, lr}
  32              		.cfi_def_cfa_offset 20
  33              		.cfi_offset 4, -20
  34              		.cfi_offset 5, -16
  35              		.cfi_offset 6, -12
  36              		.cfi_offset 7, -8
  37              		.cfi_offset 14, -4
  38              		.loc 1 72 50 view .LVU3
  39 0004 EC709FE5 		ldr	r7, .L4
  40              		.loc 1 72 16 view .LVU4
  41 0008 EC609FE5 		ldr	r6, .L4+4
  42              		.loc 1 72 50 view .LVU5
  43 000c 183097E5 		ldr	r3, [r7, #24]
  44              		.loc 1 72 16 view .LVU6
  45 0010 E8509FE5 		ldr	r5, .L4+8
  46 0014 082093E5 		ldr	r2, [r3, #8]
  47 0018 E4109FE5 		ldr	r1, .L4+12
  48              		.loc 1 70 32 view .LVU7
  49 001c 0CD04DE2 		sub	sp, sp, #12
  50              		.cfi_def_cfa_offset 32
  51              		.loc 1 72 16 view .LVU8
  52 0020 0630A0E1 		mov	r3, r6
  53 0024 00108DE5 		str	r1, [sp]
  54 0028 052042E2 		sub	r2, r2, #5
  55 002c 000095E5 		ldr	r0, [r5]
  56 0030 461FA0E3 		mov	r1, #280
  57 0034 FEFFFFEB 		bl	chThdCreateStatic
ARM GAS  /var/folders/l5/0x54b2c10074c8bt31ycjvl80000gp/T//ccBrkAPT.s 			page 2


  58              	.LVL0:
  59              		.loc 1 73 50 view .LVU9
  60 0038 183097E5 		ldr	r3, [r7, #24]
  61              		.loc 1 72 14 view .LVU10
  62 003c C4409FE5 		ldr	r4, .L4+16
  63              		.loc 1 73 16 view .LVU11
  64 0040 082093E5 		ldr	r2, [r3, #8]
  65 0044 C0109FE5 		ldr	r1, .L4+20
  66              		.loc 1 72 14 view .LVU12
  67 0048 000084E5 		str	r0, [r4]
  68              		.loc 1 73 3 is_stmt 1 view .LVU13
  69              		.loc 1 73 16 is_stmt 0 view .LVU14
  70 004c 0630A0E1 		mov	r3, r6
  71 0050 00108DE5 		str	r1, [sp]
  72 0054 042042E2 		sub	r2, r2, #4
  73 0058 040095E5 		ldr	r0, [r5, #4]
  74 005c 461FA0E3 		mov	r1, #280
  75 0060 FEFFFFEB 		bl	chThdCreateStatic
  76              	.LVL1:
  77              		.loc 1 74 50 view .LVU15
  78 0064 183097E5 		ldr	r3, [r7, #24]
  79              		.loc 1 74 16 view .LVU16
  80 0068 A0109FE5 		ldr	r1, .L4+24
  81 006c 082093E5 		ldr	r2, [r3, #8]
  82              		.loc 1 73 14 view .LVU17
  83 0070 040084E5 		str	r0, [r4, #4]
  84              		.loc 1 74 3 is_stmt 1 view .LVU18
  85              		.loc 1 74 16 is_stmt 0 view .LVU19
  86 0074 0630A0E1 		mov	r3, r6
  87 0078 00108DE5 		str	r1, [sp]
  88 007c 032042E2 		sub	r2, r2, #3
  89 0080 080095E5 		ldr	r0, [r5, #8]
  90 0084 461FA0E3 		mov	r1, #280
  91 0088 FEFFFFEB 		bl	chThdCreateStatic
  92              	.LVL2:
  93              		.loc 1 75 50 view .LVU20
  94 008c 183097E5 		ldr	r3, [r7, #24]
  95              		.loc 1 75 16 view .LVU21
  96 0090 7C109FE5 		ldr	r1, .L4+28
  97 0094 082093E5 		ldr	r2, [r3, #8]
  98              		.loc 1 74 14 view .LVU22
  99 0098 080084E5 		str	r0, [r4, #8]
 100              		.loc 1 75 3 is_stmt 1 view .LVU23
 101              		.loc 1 75 16 is_stmt 0 view .LVU24
 102 009c 0630A0E1 		mov	r3, r6
 103 00a0 00108DE5 		str	r1, [sp]
 104 00a4 022042E2 		sub	r2, r2, #2
 105 00a8 0C0095E5 		ldr	r0, [r5, #12]
 106 00ac 461FA0E3 		mov	r1, #280
 107 00b0 FEFFFFEB 		bl	chThdCreateStatic
 108              	.LVL3:
 109              		.loc 1 76 50 view .LVU25
 110 00b4 183097E5 		ldr	r3, [r7, #24]
 111              		.loc 1 76 16 view .LVU26
 112 00b8 58109FE5 		ldr	r1, .L4+32
 113 00bc 082093E5 		ldr	r2, [r3, #8]
 114              		.loc 1 75 14 view .LVU27
ARM GAS  /var/folders/l5/0x54b2c10074c8bt31ycjvl80000gp/T//ccBrkAPT.s 			page 3


 115 00c0 0C0084E5 		str	r0, [r4, #12]
 116              		.loc 1 76 3 is_stmt 1 view .LVU28
 117              		.loc 1 76 16 is_stmt 0 view .LVU29
 118 00c4 012042E2 		sub	r2, r2, #1
 119 00c8 0630A0E1 		mov	r3, r6
 120 00cc 00108DE5 		str	r1, [sp]
 121 00d0 100095E5 		ldr	r0, [r5, #16]
 122 00d4 461FA0E3 		mov	r1, #280
 123 00d8 FEFFFFEB 		bl	chThdCreateStatic
 124              	.LVL4:
 125              		.loc 1 76 14 view .LVU30
 126 00dc 100084E5 		str	r0, [r4, #16]
 127              		.loc 1 77 3 is_stmt 1 view .LVU31
 128 00e0 FEFFFFEB 		bl	test_wait_threads
 129              	.LVL5:
 130              		.loc 1 78 3 view .LVU32
 131 00e4 0100A0E3 		mov	r0, #1
 132 00e8 2C109FE5 		ldr	r1, .L4+36
 133              		.loc 1 79 1 is_stmt 0 view .LVU33
 134 00ec 0CD08DE2 		add	sp, sp, #12
 135              		.cfi_def_cfa_offset 20
 136              		@ sp needed
 137 00f0 F040BDE8 		pop	{r4, r5, r6, r7, lr}
 138              		.cfi_restore 14
 139              		.cfi_restore 7
 140              		.cfi_restore 6
 141              		.cfi_restore 5
 142              		.cfi_restore 4
 143              		.cfi_def_cfa_offset 0
 144              		.loc 1 78 3 view .LVU34
 145 00f4 FEFFFFEA 		b	_test_assert_sequence
 146              	.LVL6:
 147              	.L5:
 148              		.align	2
 149              	.L4:
 150 00f8 00000000 		.word	rlist
 151 00fc 00000000 		.word	thread
 152 0100 00000000 		.word	wa
 153 0104 00000000 		.word	.LC0
 154 0108 00000000 		.word	threads
 155 010c 04000000 		.word	.LC1
 156 0110 08000000 		.word	.LC2
 157 0114 0C000000 		.word	.LC3
 158 0118 10000000 		.word	.LC4
 159 011c 14000000 		.word	.LC5
 160              		.cfi_endproc
 161              	.LFE8:
 162              		.size	thd1_execute, .-thd1_execute
 163              		.section	.text.thread,"ax",%progbits
 164              		.align	2
 165              		.syntax unified
 166              		.arm
 167              		.fpu softvfp
 168              		.type	thread, %function
 169              	thread:
 170              	.LVL7:
 171              	.LFB7:
ARM GAS  /var/folders/l5/0x54b2c10074c8bt31ycjvl80000gp/T//ccBrkAPT.s 			page 4


 172              		.loc 1 64 30 is_stmt 1 view -0
 173              		.cfi_startproc
 174              		@ args = 0, pretend = 0, frame = 0
 175              		@ frame_needed = 0, uses_anonymous_args = 0
 176              		.loc 1 66 3 view .LVU36
 177              		.loc 1 64 30 is_stmt 0 view .LVU37
 178 0000 10402DE9 		push	{r4, lr}
 179              		.cfi_def_cfa_offset 8
 180              		.cfi_offset 4, -8
 181              		.cfi_offset 14, -4
 182              		.loc 1 66 3 view .LVU38
 183 0004 0000D0E5 		ldrb	r0, [r0]	@ zero_extendqisi2
 184              	.LVL8:
 185              		.loc 1 66 3 view .LVU39
 186 0008 FEFFFFEB 		bl	test_emit_token
 187              	.LVL9:
 188              		.loc 1 67 3 is_stmt 1 view .LVU40
 189              		.loc 1 68 1 is_stmt 0 view .LVU41
 190 000c 0000A0E3 		mov	r0, #0
 191 0010 1080BDE8 		pop	{r4, pc}
 192              		.cfi_endproc
 193              	.LFE7:
 194              		.size	thread, .-thread
 195              		.section	.text.thd2_execute,"ax",%progbits
 196              		.align	2
 197              		.syntax unified
 198              		.arm
 199              		.fpu softvfp
 200              		.type	thd2_execute, %function
 201              	thd2_execute:
 202              	.LFB9:
 203              		.loc 1 98 32 is_stmt 1 view -0
 204              		.cfi_startproc
 205              		@ args = 0, pretend = 0, frame = 0
 206              		@ frame_needed = 0, uses_anonymous_args = 0
 207              		.loc 1 100 3 view .LVU43
 208              		.loc 1 98 32 is_stmt 0 view .LVU44
 209 0000 F0402DE9 		push	{r4, r5, r6, r7, lr}
 210              		.cfi_def_cfa_offset 20
 211              		.cfi_offset 4, -20
 212              		.cfi_offset 5, -16
 213              		.cfi_offset 6, -12
 214              		.cfi_offset 7, -8
 215              		.cfi_offset 14, -4
 216              		.loc 1 100 50 view .LVU45
 217 0004 FC709FE5 		ldr	r7, .L10
 218              		.loc 1 100 16 view .LVU46
 219 0008 FC609FE5 		ldr	r6, .L10+4
 220              		.loc 1 100 50 view .LVU47
 221 000c 183097E5 		ldr	r3, [r7, #24]
 222              		.loc 1 100 16 view .LVU48
 223 0010 F8509FE5 		ldr	r5, .L10+8
 224 0014 082093E5 		ldr	r2, [r3, #8]
 225 0018 F4109FE5 		ldr	r1, .L10+12
 226              		.loc 1 98 32 view .LVU49
 227 001c 0CD04DE2 		sub	sp, sp, #12
 228              		.cfi_def_cfa_offset 32
ARM GAS  /var/folders/l5/0x54b2c10074c8bt31ycjvl80000gp/T//ccBrkAPT.s 			page 5


 229              		.loc 1 100 16 view .LVU50
 230 0020 0630A0E1 		mov	r3, r6
 231 0024 00108DE5 		str	r1, [sp]
 232 0028 042042E2 		sub	r2, r2, #4
 233 002c 040095E5 		ldr	r0, [r5, #4]
 234 0030 461FA0E3 		mov	r1, #280
 235 0034 FEFFFFEB 		bl	chThdCreateStatic
 236              	.LVL10:
 237              		.loc 1 101 50 view .LVU51
 238 0038 183097E5 		ldr	r3, [r7, #24]
 239              		.loc 1 100 14 view .LVU52
 240 003c D4409FE5 		ldr	r4, .L10+16
 241              		.loc 1 101 16 view .LVU53
 242 0040 082093E5 		ldr	r2, [r3, #8]
 243 0044 D0109FE5 		ldr	r1, .L10+20
 244              		.loc 1 100 14 view .LVU54
 245 0048 040084E5 		str	r0, [r4, #4]
 246              		.loc 1 101 3 is_stmt 1 view .LVU55
 247              		.loc 1 101 16 is_stmt 0 view .LVU56
 248 004c 0630A0E1 		mov	r3, r6
 249 0050 00108DE5 		str	r1, [sp]
 250 0054 052042E2 		sub	r2, r2, #5
 251 0058 000095E5 		ldr	r0, [r5]
 252 005c 461FA0E3 		mov	r1, #280
 253 0060 FEFFFFEB 		bl	chThdCreateStatic
 254              	.LVL11:
 255              		.loc 1 102 50 view .LVU57
 256 0064 183097E5 		ldr	r3, [r7, #24]
 257              		.loc 1 102 16 view .LVU58
 258 0068 B0109FE5 		ldr	r1, .L10+24
 259 006c 082093E5 		ldr	r2, [r3, #8]
 260              		.loc 1 101 14 view .LVU59
 261 0070 000084E5 		str	r0, [r4]
 262              		.loc 1 102 3 is_stmt 1 view .LVU60
 263              		.loc 1 102 16 is_stmt 0 view .LVU61
 264 0074 0630A0E1 		mov	r3, r6
 265 0078 00108DE5 		str	r1, [sp]
 266 007c 012042E2 		sub	r2, r2, #1
 267 0080 100095E5 		ldr	r0, [r5, #16]
 268 0084 461FA0E3 		mov	r1, #280
 269 0088 FEFFFFEB 		bl	chThdCreateStatic
 270              	.LVL12:
 271              		.loc 1 103 50 view .LVU62
 272 008c 183097E5 		ldr	r3, [r7, #24]
 273              		.loc 1 103 16 view .LVU63
 274 0090 8C109FE5 		ldr	r1, .L10+28
 275 0094 082093E5 		ldr	r2, [r3, #8]
 276              		.loc 1 102 14 view .LVU64
 277 0098 100084E5 		str	r0, [r4, #16]
 278              		.loc 1 103 3 is_stmt 1 view .LVU65
 279              		.loc 1 103 16 is_stmt 0 view .LVU66
 280 009c 00108DE5 		str	r1, [sp]
 281 00a0 022042E2 		sub	r2, r2, #2
 282 00a4 0630A0E1 		mov	r3, r6
 283 00a8 0C0095E5 		ldr	r0, [r5, #12]
 284 00ac 461FA0E3 		mov	r1, #280
 285 00b0 FEFFFFEB 		bl	chThdCreateStatic
ARM GAS  /var/folders/l5/0x54b2c10074c8bt31ycjvl80000gp/T//ccBrkAPT.s 			page 6


 286              	.LVL13:
 287              		.loc 1 103 14 view .LVU67
 288 00b4 0C0084E5 		str	r0, [r4, #12]
 289              		.loc 1 105 3 is_stmt 1 view .LVU68
 290              		.syntax divided
 291              	@ 105 "../../test/testthd.c" 1
 292 00b8 9FF021E3 		msr     CPSR_c, #0x9F
 293              	@ 0 "" 2
 294              		.loc 1 105 3 view .LVU69
 295              		.loc 1 105 14 view .LVU70
 296              		.loc 1 106 3 view .LVU71
 297              		.loc 1 106 45 is_stmt 0 view .LVU72
 298              		.arm
 299              		.syntax unified
 300 00bc 183097E5 		ldr	r3, [r7, #24]
 301              		.loc 1 106 16 view .LVU73
 302 00c0 60109FE5 		ldr	r1, .L10+32
 303 00c4 082093E5 		ldr	r2, [r3, #8]
 304 00c8 080095E5 		ldr	r0, [r5, #8]
 305 00cc 00108DE5 		str	r1, [sp]
 306 00d0 0630A0E1 		mov	r3, r6
 307 00d4 032042E2 		sub	r2, r2, #3
 308 00d8 461FA0E3 		mov	r1, #280
 309 00dc FEFFFFEB 		bl	chThdCreateI
 310              	.LVL14:
 311              		.loc 1 106 14 view .LVU74
 312 00e0 080084E5 		str	r0, [r4, #8]
 313              		.loc 1 107 3 is_stmt 1 view .LVU75
 314              		.loc 1 107 3 view .LVU76
 315              		.syntax divided
 316              	@ 107 "../../test/testthd.c" 1
 317 00e4 1FF021E3 		msr     CPSR_c, #0x1F
 318              	@ 0 "" 2
 319              		.loc 1 107 16 view .LVU77
 320              		.loc 1 108 3 view .LVU78
 321              		.arm
 322              		.syntax unified
 323 00e8 080094E5 		ldr	r0, [r4, #8]
 324 00ec FEFFFFEB 		bl	chThdResume
 325              	.LVL15:
 326              		.loc 1 109 3 view .LVU79
 327 00f0 FEFFFFEB 		bl	test_wait_threads
 328              	.LVL16:
 329              		.loc 1 110 3 view .LVU80
 330 00f4 0100A0E3 		mov	r0, #1
 331 00f8 2C109FE5 		ldr	r1, .L10+36
 332              		.loc 1 111 1 is_stmt 0 view .LVU81
 333 00fc 0CD08DE2 		add	sp, sp, #12
 334              		.cfi_def_cfa_offset 20
 335              		@ sp needed
 336 0100 F040BDE8 		pop	{r4, r5, r6, r7, lr}
 337              		.cfi_restore 14
 338              		.cfi_restore 7
 339              		.cfi_restore 6
 340              		.cfi_restore 5
 341              		.cfi_restore 4
 342              		.cfi_def_cfa_offset 0
ARM GAS  /var/folders/l5/0x54b2c10074c8bt31ycjvl80000gp/T//ccBrkAPT.s 			page 7


 343              		.loc 1 110 3 view .LVU82
 344 0104 FEFFFFEA 		b	_test_assert_sequence
 345              	.LVL17:
 346              	.L11:
 347              		.align	2
 348              	.L10:
 349 0108 00000000 		.word	rlist
 350 010c 00000000 		.word	thread
 351 0110 00000000 		.word	wa
 352 0114 04000000 		.word	.LC1
 353 0118 00000000 		.word	threads
 354 011c 00000000 		.word	.LC0
 355 0120 10000000 		.word	.LC4
 356 0124 0C000000 		.word	.LC3
 357 0128 08000000 		.word	.LC2
 358 012c 14000000 		.word	.LC5
 359              		.cfi_endproc
 360              	.LFE9:
 361              		.size	thd2_execute, .-thd2_execute
 362              		.section	.text.thd3_execute,"ax",%progbits
 363              		.align	2
 364              		.syntax unified
 365              		.arm
 366              		.fpu softvfp
 367              		.type	thd3_execute, %function
 368              	thd3_execute:
 369              	.LFB10:
 370              		.loc 1 130 32 is_stmt 1 view -0
 371              		.cfi_startproc
 372              		@ args = 0, pretend = 0, frame = 0
 373              		@ frame_needed = 0, uses_anonymous_args = 0
 374              		.loc 1 131 3 view .LVU84
 375              		.loc 1 133 3 view .LVU85
 376              		.loc 1 130 32 is_stmt 0 view .LVU86
 377 0000 F0412DE9 		push	{r4, r5, r6, r7, r8, lr}
 378              		.cfi_def_cfa_offset 24
 379              		.cfi_offset 4, -24
 380              		.cfi_offset 5, -20
 381              		.cfi_offset 6, -16
 382              		.cfi_offset 7, -12
 383              		.cfi_offset 8, -8
 384              		.cfi_offset 14, -4
 385              		.loc 1 133 10 view .LVU87
 386 0004 D0619FE5 		ldr	r6, .L17
 387              		.loc 1 133 8 view .LVU88
 388 0008 183096E5 		ldr	r3, [r6, #24]
 389 000c 084093E5 		ldr	r4, [r3, #8]
 390              	.LVL18:
 391              		.loc 1 134 3 is_stmt 1 view .LVU89
 392              		.loc 1 134 8 is_stmt 0 view .LVU90
 393 0010 015084E2 		add	r5, r4, #1
 394 0014 0500A0E1 		mov	r0, r5
 395 0018 FEFFFFEB 		bl	chThdSetPriority
 396              	.LVL19:
 397 001c 0070A0E1 		mov	r7, r0
 398              	.LVL20:
 399              		.loc 1 135 3 is_stmt 1 view .LVU91
ARM GAS  /var/folders/l5/0x54b2c10074c8bt31ycjvl80000gp/T//ccBrkAPT.s 			page 8


 400 0020 071044E0 		sub	r1, r4, r7
 401 0024 111F6FE1 		clz	r1, r1
 402 0028 0100A0E3 		mov	r0, #1
 403              	.LVL21:
 404              		.loc 1 135 3 is_stmt 0 view .LVU92
 405 002c A112A0E1 		lsr	r1, r1, #5
 406 0030 FEFFFFEB 		bl	_test_assert
 407              	.LVL22:
 408 0034 000050E3 		cmp	r0, #0
 409 0038 F081BD18 		popne	{r4, r5, r6, r7, r8, pc}
 410              		.loc 1 136 52 is_stmt 1 view .LVU93
 411              		.loc 1 137 3 view .LVU94
 412 003c 183096E5 		ldr	r3, [r6, #24]
 413 0040 0200A0E3 		mov	r0, #2
 414 0044 081093E5 		ldr	r1, [r3, #8]
 415 0048 051041E0 		sub	r1, r1, r5
 416 004c 111F6FE1 		clz	r1, r1
 417 0050 A112A0E1 		lsr	r1, r1, #5
 418 0054 FEFFFFEB 		bl	_test_assert
 419              	.LVL23:
 420 0058 000050E3 		cmp	r0, #0
 421 005c F081BD18 		popne	{r4, r5, r6, r7, r8, pc}
 422              		.loc 1 138 43 view .LVU95
 423              		.loc 1 139 3 view .LVU96
 424              		.loc 1 139 8 is_stmt 0 view .LVU97
 425 0060 0700A0E1 		mov	r0, r7
 426 0064 FEFFFFEB 		bl	chThdSetPriority
 427              	.LVL24:
 428              		.loc 1 140 3 is_stmt 1 view .LVU98
 429 0068 001045E0 		sub	r1, r5, r0
 430 006c 111F6FE1 		clz	r1, r1
 431 0070 0300A0E3 		mov	r0, #3
 432              	.LVL25:
 433              		.loc 1 140 3 is_stmt 0 view .LVU99
 434 0074 A112A0E1 		lsr	r1, r1, #5
 435 0078 FEFFFFEB 		bl	_test_assert
 436              	.LVL26:
 437 007c 000050E3 		cmp	r0, #0
 438 0080 F081BD18 		popne	{r4, r5, r6, r7, r8, pc}
 439              		.loc 1 141 52 is_stmt 1 view .LVU100
 440              		.loc 1 142 3 view .LVU101
 441 0084 183096E5 		ldr	r3, [r6, #24]
 442 0088 0400A0E3 		mov	r0, #4
 443 008c 081093E5 		ldr	r1, [r3, #8]
 444 0090 041041E0 		sub	r1, r1, r4
 445 0094 111F6FE1 		clz	r1, r1
 446 0098 A112A0E1 		lsr	r1, r1, #5
 447 009c FEFFFFEB 		bl	_test_assert
 448              	.LVL27:
 449 00a0 000050E3 		cmp	r0, #0
 450 00a4 F081BD18 		popne	{r4, r5, r6, r7, r8, pc}
 451              		.loc 1 143 43 view .LVU102
 452              		.loc 1 147 3 view .LVU103
 453              		.syntax divided
 454              	@ 147 "../../test/testthd.c" 1
 455 00a8 9FF021E3 		msr     CPSR_c, #0x9F
 456              	@ 0 "" 2
ARM GAS  /var/folders/l5/0x54b2c10074c8bt31ycjvl80000gp/T//ccBrkAPT.s 			page 9


 457              		.loc 1 147 3 view .LVU104
 458              		.loc 1 147 14 view .LVU105
 459              		.loc 1 148 3 view .LVU106
 460              		.arm
 461              		.syntax unified
 462 00ac 182096E5 		ldr	r2, [r6, #24]
 463              		.loc 1 148 23 is_stmt 0 view .LVU107
 464 00b0 083092E5 		ldr	r3, [r2, #8]
 465 00b4 023083E2 		add	r3, r3, #2
 466 00b8 083082E5 		str	r3, [r2, #8]
 467              		.loc 1 149 3 is_stmt 1 view .LVU108
 468              		.loc 1 149 3 view .LVU109
 469              		.syntax divided
 470              	@ 149 "../../test/testthd.c" 1
 471 00bc 1FF021E3 		msr     CPSR_c, #0x1F
 472              	@ 0 "" 2
 473              		.loc 1 149 16 view .LVU110
 474              		.loc 1 150 3 view .LVU111
 475              		.arm
 476              		.syntax unified
 477 00c0 183096E5 		ldr	r3, [r6, #24]
 478 00c4 027084E2 		add	r7, r4, #2
 479 00c8 081093E5 		ldr	r1, [r3, #8]
 480 00cc 0500A0E3 		mov	r0, #5
 481 00d0 071041E0 		sub	r1, r1, r7
 482 00d4 111F6FE1 		clz	r1, r1
 483 00d8 A112A0E1 		lsr	r1, r1, #5
 484 00dc FEFFFFEB 		bl	_test_assert
 485              	.LVL28:
 486 00e0 000050E3 		cmp	r0, #0
 487 00e4 F081BD18 		popne	{r4, r5, r6, r7, r8, pc}
 488              		.loc 1 151 43 view .LVU112
 489              		.loc 1 154 3 view .LVU113
 490              		.loc 1 154 8 is_stmt 0 view .LVU114
 491 00e8 0500A0E1 		mov	r0, r5
 492 00ec FEFFFFEB 		bl	chThdSetPriority
 493              	.LVL29:
 494              		.loc 1 155 3 is_stmt 1 view .LVU115
 495 00f0 001044E0 		sub	r1, r4, r0
 496 00f4 111F6FE1 		clz	r1, r1
 497 00f8 0600A0E3 		mov	r0, #6
 498              	.LVL30:
 499              		.loc 1 155 3 is_stmt 0 view .LVU116
 500 00fc A112A0E1 		lsr	r1, r1, #5
 501 0100 FEFFFFEB 		bl	_test_assert
 502              	.LVL31:
 503 0104 000050E3 		cmp	r0, #0
 504 0108 F081BD18 		popne	{r4, r5, r6, r7, r8, pc}
 505              		.loc 1 156 52 is_stmt 1 view .LVU117
 506              		.loc 1 157 3 view .LVU118
 507 010c 183096E5 		ldr	r3, [r6, #24]
 508 0110 0700A0E3 		mov	r0, #7
 509 0114 081093E5 		ldr	r1, [r3, #8]
 510 0118 071041E0 		sub	r1, r1, r7
 511 011c 111F6FE1 		clz	r1, r1
 512 0120 A112A0E1 		lsr	r1, r1, #5
 513 0124 FEFFFFEB 		bl	_test_assert
ARM GAS  /var/folders/l5/0x54b2c10074c8bt31ycjvl80000gp/T//ccBrkAPT.s 			page 10


 514              	.LVL32:
 515 0128 000050E3 		cmp	r0, #0
 516 012c F081BD18 		popne	{r4, r5, r6, r7, r8, pc}
 517              		.loc 1 158 43 view .LVU119
 518              		.loc 1 159 3 view .LVU120
 519 0130 183096E5 		ldr	r3, [r6, #24]
 520 0134 0800A0E3 		mov	r0, #8
 521 0138 401093E5 		ldr	r1, [r3, #64]
 522 013c 051041E0 		sub	r1, r1, r5
 523 0140 111F6FE1 		clz	r1, r1
 524 0144 A112A0E1 		lsr	r1, r1, #5
 525 0148 FEFFFFEB 		bl	_test_assert
 526              	.LVL33:
 527 014c 000050E3 		cmp	r0, #0
 528 0150 F081BD18 		popne	{r4, r5, r6, r7, r8, pc}
 529              		.loc 1 160 57 view .LVU121
 530              		.loc 1 163 3 view .LVU122
 531              		.loc 1 163 8 is_stmt 0 view .LVU123
 532 0154 037084E2 		add	r7, r4, #3
 533 0158 0700A0E1 		mov	r0, r7
 534 015c FEFFFFEB 		bl	chThdSetPriority
 535              	.LVL34:
 536              		.loc 1 164 3 is_stmt 1 view .LVU124
 537 0160 001045E0 		sub	r1, r5, r0
 538 0164 111F6FE1 		clz	r1, r1
 539 0168 0900A0E3 		mov	r0, #9
 540              	.LVL35:
 541              		.loc 1 164 3 is_stmt 0 view .LVU125
 542 016c A112A0E1 		lsr	r1, r1, #5
 543 0170 FEFFFFEB 		bl	_test_assert
 544              	.LVL36:
 545 0174 000050E3 		cmp	r0, #0
 546 0178 F081BD18 		popne	{r4, r5, r6, r7, r8, pc}
 547              		.loc 1 165 52 is_stmt 1 view .LVU126
 548              		.loc 1 166 3 view .LVU127
 549 017c 183096E5 		ldr	r3, [r6, #24]
 550 0180 0A00A0E3 		mov	r0, #10
 551 0184 081093E5 		ldr	r1, [r3, #8]
 552 0188 071041E0 		sub	r1, r1, r7
 553 018c 111F6FE1 		clz	r1, r1
 554 0190 A112A0E1 		lsr	r1, r1, #5
 555 0194 FEFFFFEB 		bl	_test_assert
 556              	.LVL37:
 557 0198 000050E3 		cmp	r0, #0
 558 019c F081BD18 		popne	{r4, r5, r6, r7, r8, pc}
 559              		.loc 1 167 43 view .LVU128
 560              		.loc 1 168 3 view .LVU129
 561 01a0 183096E5 		ldr	r3, [r6, #24]
 562 01a4 0B00A0E3 		mov	r0, #11
 563 01a8 401093E5 		ldr	r1, [r3, #64]
 564 01ac 071041E0 		sub	r1, r1, r7
 565 01b0 111F6FE1 		clz	r1, r1
 566 01b4 A112A0E1 		lsr	r1, r1, #5
 567 01b8 FEFFFFEB 		bl	_test_assert
 568              	.LVL38:
 569 01bc 000050E3 		cmp	r0, #0
 570 01c0 F081BD18 		popne	{r4, r5, r6, r7, r8, pc}
ARM GAS  /var/folders/l5/0x54b2c10074c8bt31ycjvl80000gp/T//ccBrkAPT.s 			page 11


 571              		.loc 1 169 48 view .LVU130
 572              		.loc 1 171 3 view .LVU131
 573              		.syntax divided
 574              	@ 171 "../../test/testthd.c" 1
 575 01c4 9FF021E3 		msr     CPSR_c, #0x9F
 576              	@ 0 "" 2
 577              		.loc 1 171 3 view .LVU132
 578              		.loc 1 171 14 view .LVU133
 579              		.loc 1 172 3 view .LVU134
 580              		.arm
 581              		.syntax unified
 582 01c8 183096E5 		ldr	r3, [r6, #24]
 583              		.loc 1 172 23 is_stmt 0 view .LVU135
 584 01cc 084083E5 		str	r4, [r3, #8]
 585              		.loc 1 173 3 is_stmt 1 view .LVU136
 586              		.loc 1 173 27 is_stmt 0 view .LVU137
 587 01d0 404083E5 		str	r4, [r3, #64]
 588              		.loc 1 174 3 is_stmt 1 view .LVU138
 589              		.loc 1 174 3 view .LVU139
 590              		.syntax divided
 591              	@ 174 "../../test/testthd.c" 1
 592 01d4 1FF021E3 		msr     CPSR_c, #0x1F
 593              	@ 0 "" 2
 594              		.loc 1 174 16 view .LVU140
 595              		.loc 1 176 1 is_stmt 0 view .LVU141
 596              		.arm
 597              		.syntax unified
 598 01d8 F081BDE8 		pop	{r4, r5, r6, r7, r8, pc}
 599              	.L18:
 600              		.align	2
 601              	.L17:
 602 01dc 00000000 		.word	rlist
 603              		.cfi_endproc
 604              	.LFE10:
 605              		.size	thd3_execute, .-thd3_execute
 606              		.section	.text.thd4_execute,"ax",%progbits
 607              		.align	2
 608              		.syntax unified
 609              		.arm
 610              		.fpu softvfp
 611              		.type	thd4_execute, %function
 612              	thd4_execute:
 613              	.LFB11:
 614              		.loc 1 193 32 is_stmt 1 view -0
 615              		.cfi_startproc
 616              		@ args = 0, pretend = 0, frame = 0
 617              		@ frame_needed = 0, uses_anonymous_args = 0
 618              		.loc 1 194 3 view .LVU143
 619              		.loc 1 196 3 view .LVU144
 620              		.loc 1 193 32 is_stmt 0 view .LVU145
 621 0000 70402DE9 		push	{r4, r5, r6, lr}
 622              		.cfi_def_cfa_offset 16
 623              		.cfi_offset 4, -16
 624              		.cfi_offset 5, -12
 625              		.cfi_offset 6, -8
 626              		.cfi_offset 14, -4
 627              		.loc 1 199 8 view .LVU146
ARM GAS  /var/folders/l5/0x54b2c10074c8bt31ycjvl80000gp/T//ccBrkAPT.s 			page 12


 628 0004 90509FE5 		ldr	r5, .L24
 629              		.loc 1 196 3 view .LVU147
 630 0008 FEFFFFEB 		bl	test_wait_tick
 631              	.LVL39:
 632              		.loc 1 199 3 is_stmt 1 view .LVU148
 633              		.loc 1 199 8 is_stmt 0 view .LVU149
 634 000c 0C4095E5 		ldr	r4, [r5, #12]
 635              	.LVL40:
 636              		.loc 1 200 3 is_stmt 1 view .LVU150
 637 0010 6400A0E3 		mov	r0, #100
 638 0014 FEFFFFEB 		bl	chThdSleep
 639              	.LVL41:
 640              		.loc 1 201 3 view .LVU151
 641 0018 652084E2 		add	r2, r4, #101
 642 001c 641084E2 		add	r1, r4, #100
 643 0020 0100A0E3 		mov	r0, #1
 644 0024 FEFFFFEB 		bl	_test_assert_time_window
 645              	.LVL42:
 646 0028 000050E3 		cmp	r0, #0
 647 002c 7080BD18 		popne	{r4, r5, r6, pc}
 648              		.loc 1 201 77 discriminator 2 view .LVU152
 649              		.loc 1 204 3 discriminator 2 view .LVU153
 650              		.loc 1 204 8 is_stmt 0 discriminator 2 view .LVU154
 651 0030 0C4095E5 		ldr	r4, [r5, #12]
 652              	.LVL43:
 653              		.loc 1 205 3 is_stmt 1 discriminator 2 view .LVU155
 654 0034 6400A0E3 		mov	r0, #100
 655 0038 FEFFFFEB 		bl	chThdSleep
 656              	.LVL44:
 657              		.loc 1 206 3 discriminator 2 view .LVU156
 658 003c 652084E2 		add	r2, r4, #101
 659 0040 641084E2 		add	r1, r4, #100
 660 0044 0200A0E3 		mov	r0, #2
 661 0048 FEFFFFEB 		bl	_test_assert_time_window
 662              	.LVL45:
 663 004c 000050E3 		cmp	r0, #0
 664 0050 7080BD18 		popne	{r4, r5, r6, pc}
 665              	.LBB4:
 666              	.LBI4:
 667              		.loc 1 193 13 view .LVU157
 668              	.LBB5:
 669              		.loc 1 206 71 view .LVU158
 670              		.loc 1 209 3 view .LVU159
 671              		.loc 1 209 8 is_stmt 0 view .LVU160
 672 0054 0C4095E5 		ldr	r4, [r5, #12]
 673              	.LVL46:
 674              		.loc 1 210 3 is_stmt 1 view .LVU161
 675 0058 FA0FA0E3 		mov	r0, #1000
 676 005c FEFFFFEB 		bl	chThdSleep
 677              	.LVL47:
 678              		.loc 1 211 3 view .LVU162
 679 0060 FA1F84E2 		add	r1, r4, #1000
 680 0064 012081E2 		add	r2, r1, #1
 681 0068 0300A0E3 		mov	r0, #3
 682 006c FEFFFFEB 		bl	_test_assert_time_window
 683              	.LVL48:
 684 0070 000050E3 		cmp	r0, #0
ARM GAS  /var/folders/l5/0x54b2c10074c8bt31ycjvl80000gp/T//ccBrkAPT.s 			page 13


 685 0074 7080BD18 		popne	{r4, r5, r6, pc}
 686              		.loc 1 211 65 view .LVU163
 687              		.loc 1 214 3 view .LVU164
 688              		.loc 1 214 10 is_stmt 0 view .LVU165
 689 0078 0C4095E5 		ldr	r4, [r5, #12]
 690              	.LVL49:
 691              		.loc 1 214 8 view .LVU166
 692 007c 645084E2 		add	r5, r4, #100
 693              	.LVL50:
 694              		.loc 1 215 3 is_stmt 1 view .LVU167
 695 0080 0500A0E1 		mov	r0, r5
 696 0084 FEFFFFEB 		bl	chThdSleepUntil
 697              	.LVL51:
 698              		.loc 1 216 3 view .LVU168
 699 0088 0510A0E1 		mov	r1, r5
 700 008c 652084E2 		add	r2, r4, #101
 701 0090 0400A0E3 		mov	r0, #4
 702              	.LBE5:
 703              	.LBE4:
 704              		.loc 1 217 1 is_stmt 0 view .LVU169
 705 0094 7040BDE8 		pop	{r4, r5, r6, lr}
 706              		.cfi_restore 14
 707              		.cfi_restore 6
 708              		.cfi_restore 5
 709              		.cfi_restore 4
 710              		.cfi_def_cfa_offset 0
 711              	.LVL52:
 712              	.LBB7:
 713              	.LBB6:
 714              		.loc 1 216 3 view .LVU170
 715 0098 FEFFFFEA 		b	_test_assert_time_window
 716              	.LVL53:
 717              	.L25:
 718              		.loc 1 216 3 view .LVU171
 719              		.align	2
 720              	.L24:
 721 009c 00000000 		.word	vtlist
 722              	.LBE6:
 723              	.LBE7:
 724              		.cfi_endproc
 725              	.LFE11:
 726              		.size	thd4_execute, .-thd4_execute
 727              		.global	patternthd
 728              		.global	testthd4
 729              		.global	testthd3
 730              		.global	testthd2
 731              		.global	testthd1
 732              		.section	.rodata.patternthd,"a"
 733              		.align	2
 734              		.type	patternthd, %object
 735              		.size	patternthd, 20
 736              	patternthd:
 737 0000 00000000 		.word	testthd1
 738 0004 00000000 		.word	testthd2
 739 0008 00000000 		.word	testthd3
 740 000c 00000000 		.word	testthd4
 741 0010 00000000 		.word	0
ARM GAS  /var/folders/l5/0x54b2c10074c8bt31ycjvl80000gp/T//ccBrkAPT.s 			page 14


 742              		.section	.rodata.str1.4,"aMS",%progbits,1
 743              		.align	2
 744              	.LC6:
 745 0000 54687265 		.ascii	"Threads, delays\000"
 745      6164732C 
 745      2064656C 
 745      61797300 
 746              	.LC7:
 747 0010 54687265 		.ascii	"Threads, priority change\000"
 747      6164732C 
 747      20707269 
 747      6F726974 
 747      79206368 
 748 0029 000000   		.space	3
 749              	.LC8:
 750 002c 54687265 		.ascii	"Threads, enqueuing test #2\000"
 750      6164732C 
 750      20656E71 
 750      75657569 
 750      6E672074 
 751 0047 00       		.space	1
 752              	.LC9:
 753 0048 54687265 		.ascii	"Threads, enqueuing test #1\000"
 753      6164732C 
 753      20656E71 
 753      75657569 
 753      6E672074 
 754              		.section	.rodata.testthd1,"a"
 755              		.align	2
 756              		.type	testthd1, %object
 757              		.size	testthd1, 16
 758              	testthd1:
 759 0000 48000000 		.word	.LC9
 760 0004 00000000 		.word	0
 761 0008 00000000 		.word	0
 762 000c 00000000 		.word	thd1_execute
 763              		.section	.rodata.testthd2,"a"
 764              		.align	2
 765              		.type	testthd2, %object
 766              		.size	testthd2, 16
 767              	testthd2:
 768 0000 2C000000 		.word	.LC8
 769 0004 00000000 		.word	0
 770 0008 00000000 		.word	0
 771 000c 00000000 		.word	thd2_execute
 772              		.section	.rodata.testthd3,"a"
 773              		.align	2
 774              		.type	testthd3, %object
 775              		.size	testthd3, 16
 776              	testthd3:
 777 0000 10000000 		.word	.LC7
 778 0004 00000000 		.word	0
 779 0008 00000000 		.word	0
 780 000c 00000000 		.word	thd3_execute
 781              		.section	.rodata.testthd4,"a"
 782              		.align	2
 783              		.type	testthd4, %object
ARM GAS  /var/folders/l5/0x54b2c10074c8bt31ycjvl80000gp/T//ccBrkAPT.s 			page 15


 784              		.size	testthd4, 16
 785              	testthd4:
 786 0000 00000000 		.word	.LC6
 787 0004 00000000 		.word	0
 788 0008 00000000 		.word	0
 789 000c 00000000 		.word	thd4_execute
 790              		.section	.rodata.thd1_execute.str1.4,"aMS",%progbits,1
 791              		.align	2
 792              	.LC0:
 793 0000 4500     		.ascii	"E\000"
 794 0002 0000     		.space	2
 795              	.LC1:
 796 0004 4400     		.ascii	"D\000"
 797 0006 0000     		.space	2
 798              	.LC2:
 799 0008 4300     		.ascii	"C\000"
 800 000a 0000     		.space	2
 801              	.LC3:
 802 000c 4200     		.ascii	"B\000"
 803 000e 0000     		.space	2
 804              	.LC4:
 805 0010 4100     		.ascii	"A\000"
 806 0012 0000     		.space	2
 807              	.LC5:
 808 0014 41424344 		.ascii	"ABCDE\000"
 808      4500
 809              		.text
 810              	.Letext0:
 811              		.file 2 "/usr/local/Cellar/arm-gcc-bin/8-2019-q3-update/arm-none-eabi/include/machine/_default_typ
 812              		.file 3 "/usr/local/Cellar/arm-gcc-bin/8-2019-q3-update/arm-none-eabi/include/sys/_stdint.h"
 813              		.file 4 "../../os/ports/GCC/ARM/chtypes.h"
 814              		.file 5 "../../os/kernel/include/chlists.h"
 815              		.file 6 "../../os/kernel/include/chthreads.h"
 816              		.file 7 "../../os/ports/GCC/ARM/chcore.h"
 817              		.file 8 "../../os/kernel/include/chvt.h"
 818              		.file 9 "../../os/kernel/include/chschd.h"
 819              		.file 10 "../../os/kernel/include/chmtx.h"
 820              		.file 11 "../../os/kernel/include/chregistry.h"
 821              		.file 12 "../../os/kernel/include/ch.h"
 822              		.file 13 "../../test/test.h"
 823              		.section	.debug_info,"",%progbits
 824              	.Ldebug_info0:
 825 0000 980D0000 		.4byte	0xd98
 826 0004 0400     		.2byte	0x4
 827 0006 00000000 		.4byte	.Ldebug_abbrev0
 828 000a 04       		.byte	0x4
 829 000b 01       		.uleb128 0x1
 830 000c 0C020000 		.4byte	.LASF127
 831 0010 0C       		.byte	0xc
 832 0011 0B040000 		.4byte	.LASF128
 833 0015 0A060000 		.4byte	.LASF129
 834 0019 18000000 		.4byte	.Ldebug_ranges0+0x18
 835 001d 00000000 		.4byte	0
 836 0021 00000000 		.4byte	.Ldebug_line0
 837 0025 02       		.uleb128 0x2
 838 0026 04       		.byte	0x4
 839 0027 05       		.byte	0x5
ARM GAS  /var/folders/l5/0x54b2c10074c8bt31ycjvl80000gp/T//ccBrkAPT.s 			page 16


 840 0028 696E7400 		.ascii	"int\000"
 841 002c 03       		.uleb128 0x3
 842 002d 04       		.byte	0x4
 843 002e 07       		.byte	0x7
 844 002f 88010000 		.4byte	.LASF0
 845 0033 03       		.uleb128 0x3
 846 0034 01       		.byte	0x1
 847 0035 06       		.byte	0x6
 848 0036 8E000000 		.4byte	.LASF1
 849 003a 04       		.uleb128 0x4
 850 003b 1F000000 		.4byte	.LASF4
 851 003f 02       		.byte	0x2
 852 0040 2B       		.byte	0x2b
 853 0041 18       		.byte	0x18
 854 0042 46000000 		.4byte	0x46
 855 0046 03       		.uleb128 0x3
 856 0047 01       		.byte	0x1
 857 0048 08       		.byte	0x8
 858 0049 66040000 		.4byte	.LASF2
 859 004d 03       		.uleb128 0x3
 860 004e 02       		.byte	0x2
 861 004f 05       		.byte	0x5
 862 0050 8D040000 		.4byte	.LASF3
 863 0054 04       		.uleb128 0x4
 864 0055 53050000 		.4byte	.LASF5
 865 0059 02       		.byte	0x2
 866 005a 39       		.byte	0x39
 867 005b 19       		.byte	0x19
 868 005c 60000000 		.4byte	0x60
 869 0060 03       		.uleb128 0x3
 870 0061 02       		.byte	0x2
 871 0062 07       		.byte	0x7
 872 0063 DE010000 		.4byte	.LASF6
 873 0067 04       		.uleb128 0x4
 874 0068 85050000 		.4byte	.LASF7
 875 006c 02       		.byte	0x2
 876 006d 4D       		.byte	0x4d
 877 006e 18       		.byte	0x18
 878 006f 73000000 		.4byte	0x73
 879 0073 03       		.uleb128 0x3
 880 0074 04       		.byte	0x4
 881 0075 05       		.byte	0x5
 882 0076 F1000000 		.4byte	.LASF8
 883 007a 04       		.uleb128 0x4
 884 007b 5F010000 		.4byte	.LASF9
 885 007f 02       		.byte	0x2
 886 0080 4F       		.byte	0x4f
 887 0081 19       		.byte	0x19
 888 0082 86000000 		.4byte	0x86
 889 0086 03       		.uleb128 0x3
 890 0087 04       		.byte	0x4
 891 0088 07       		.byte	0x7
 892 0089 9D010000 		.4byte	.LASF10
 893 008d 03       		.uleb128 0x3
 894 008e 08       		.byte	0x8
 895 008f 05       		.byte	0x5
 896 0090 80000000 		.4byte	.LASF11
ARM GAS  /var/folders/l5/0x54b2c10074c8bt31ycjvl80000gp/T//ccBrkAPT.s 			page 17


 897 0094 03       		.uleb128 0x3
 898 0095 08       		.byte	0x8
 899 0096 07       		.byte	0x7
 900 0097 30000000 		.4byte	.LASF12
 901 009b 04       		.uleb128 0x4
 902 009c D1050000 		.4byte	.LASF13
 903 00a0 03       		.byte	0x3
 904 00a1 18       		.byte	0x18
 905 00a2 13       		.byte	0x13
 906 00a3 3A000000 		.4byte	0x3a
 907 00a7 04       		.uleb128 0x4
 908 00a8 1C010000 		.4byte	.LASF14
 909 00ac 03       		.byte	0x3
 910 00ad 24       		.byte	0x24
 911 00ae 14       		.byte	0x14
 912 00af 54000000 		.4byte	0x54
 913 00b3 04       		.uleb128 0x4
 914 00b4 5E040000 		.4byte	.LASF15
 915 00b8 03       		.byte	0x3
 916 00b9 2C       		.byte	0x2c
 917 00ba 13       		.byte	0x13
 918 00bb 67000000 		.4byte	0x67
 919 00bf 04       		.uleb128 0x4
 920 00c0 0A050000 		.4byte	.LASF16
 921 00c4 03       		.byte	0x3
 922 00c5 30       		.byte	0x30
 923 00c6 14       		.byte	0x14
 924 00c7 7A000000 		.4byte	0x7a
 925 00cb 04       		.uleb128 0x4
 926 00cc B7000000 		.4byte	.LASF17
 927 00d0 04       		.byte	0x4
 928 00d1 29       		.byte	0x29
 929 00d2 19       		.byte	0x19
 930 00d3 B3000000 		.4byte	0xb3
 931 00d7 04       		.uleb128 0x4
 932 00d8 E4020000 		.4byte	.LASF18
 933 00dc 04       		.byte	0x4
 934 00dd 2A       		.byte	0x2a
 935 00de 19       		.byte	0x19
 936 00df 9B000000 		.4byte	0x9b
 937 00e3 04       		.uleb128 0x4
 938 00e4 FA000000 		.4byte	.LASF19
 939 00e8 04       		.byte	0x4
 940 00e9 2B       		.byte	0x2b
 941 00ea 19       		.byte	0x19
 942 00eb 9B000000 		.4byte	0x9b
 943 00ef 04       		.uleb128 0x4
 944 00f0 20040000 		.4byte	.LASF20
 945 00f4 04       		.byte	0x4
 946 00f5 2C       		.byte	0x2c
 947 00f6 19       		.byte	0x19
 948 00f7 9B000000 		.4byte	0x9b
 949 00fb 04       		.uleb128 0x4
 950 00fc 4F040000 		.4byte	.LASF21
 951 0100 04       		.byte	0x4
 952 0101 2E       		.byte	0x2e
 953 0102 19       		.byte	0x19
ARM GAS  /var/folders/l5/0x54b2c10074c8bt31ycjvl80000gp/T//ccBrkAPT.s 			page 18


 954 0103 BF000000 		.4byte	0xbf
 955 0107 04       		.uleb128 0x4
 956 0108 FE010000 		.4byte	.LASF22
 957 010c 04       		.byte	0x4
 958 010d 2F       		.byte	0x2f
 959 010e 19       		.byte	0x19
 960 010f B3000000 		.4byte	0xb3
 961 0113 04       		.uleb128 0x4
 962 0114 F8020000 		.4byte	.LASF23
 963 0118 04       		.byte	0x4
 964 0119 31       		.byte	0x31
 965 011a 19       		.byte	0x19
 966 011b BF000000 		.4byte	0xbf
 967 011f 04       		.uleb128 0x4
 968 0120 70050000 		.4byte	.LASF24
 969 0124 04       		.byte	0x4
 970 0125 33       		.byte	0x33
 971 0126 19       		.byte	0x19
 972 0127 BF000000 		.4byte	0xbf
 973 012b 05       		.uleb128 0x5
 974 012c 1F010000 		.4byte	0x11f
 975 0130 04       		.uleb128 0x4
 976 0131 D7040000 		.4byte	.LASF25
 977 0135 05       		.byte	0x5
 978 0136 23       		.byte	0x23
 979 0137 17       		.byte	0x17
 980 0138 3C010000 		.4byte	0x13c
 981 013c 06       		.uleb128 0x6
 982 013d D7040000 		.4byte	.LASF25
 983 0141 44       		.byte	0x44
 984 0142 06       		.byte	0x6
 985 0143 57       		.byte	0x57
 986 0144 08       		.byte	0x8
 987 0145 34020000 		.4byte	0x234
 988 0149 07       		.uleb128 0x7
 989 014a B9040000 		.4byte	.LASF26
 990 014e 06       		.byte	0x6
 991 014f 58       		.byte	0x58
 992 0150 1A       		.byte	0x1a
 993 0151 58020000 		.4byte	0x258
 994 0155 00       		.byte	0
 995 0156 07       		.uleb128 0x7
 996 0157 40040000 		.4byte	.LASF27
 997 015b 06       		.byte	0x6
 998 015c 5A       		.byte	0x5a
 999 015d 1A       		.byte	0x1a
 1000 015e 58020000 		.4byte	0x258
 1001 0162 04       		.byte	0x4
 1002 0163 07       		.uleb128 0x7
 1003 0164 63000000 		.4byte	.LASF28
 1004 0168 06       		.byte	0x6
 1005 0169 5C       		.byte	0x5c
 1006 016a 19       		.byte	0x19
 1007 016b FB000000 		.4byte	0xfb
 1008 016f 08       		.byte	0x8
 1009 0170 07       		.uleb128 0x7
 1010 0171 61060000 		.4byte	.LASF29
ARM GAS  /var/folders/l5/0x54b2c10074c8bt31ycjvl80000gp/T//ccBrkAPT.s 			page 19


 1011 0175 06       		.byte	0x6
 1012 0176 5D       		.byte	0x5d
 1013 0177 19       		.byte	0x19
 1014 0178 28030000 		.4byte	0x328
 1015 017c 0C       		.byte	0xc
 1016 017d 07       		.uleb128 0x7
 1017 017e 36010000 		.4byte	.LASF30
 1018 0182 06       		.byte	0x6
 1019 0183 5F       		.byte	0x5f
 1020 0184 1A       		.byte	0x1a
 1021 0185 58020000 		.4byte	0x258
 1022 0189 10       		.byte	0x10
 1023 018a 07       		.uleb128 0x7
 1024 018b A5030000 		.4byte	.LASF31
 1025 018f 06       		.byte	0x6
 1026 0190 60       		.byte	0x60
 1027 0191 1A       		.byte	0x1a
 1028 0192 58020000 		.4byte	0x258
 1029 0196 14       		.byte	0x14
 1030 0197 07       		.uleb128 0x7
 1031 0198 E0050000 		.4byte	.LASF32
 1032 019c 06       		.byte	0x6
 1033 019d 67       		.byte	0x67
 1034 019e 1A       		.byte	0x1a
 1035 019f 0E050000 		.4byte	0x50e
 1036 01a3 18       		.byte	0x18
 1037 01a4 07       		.uleb128 0x7
 1038 01a5 97040000 		.4byte	.LASF33
 1039 01a9 06       		.byte	0x6
 1040 01aa 72       		.byte	0x72
 1041 01ab 19       		.byte	0x19
 1042 01ac E3000000 		.4byte	0xe3
 1043 01b0 1C       		.byte	0x1c
 1044 01b1 07       		.uleb128 0x7
 1045 01b2 CF040000 		.4byte	.LASF34
 1046 01b6 06       		.byte	0x6
 1047 01b7 76       		.byte	0x76
 1048 01b8 19       		.byte	0x19
 1049 01b9 D7000000 		.4byte	0xd7
 1050 01bd 1D       		.byte	0x1d
 1051 01be 07       		.uleb128 0x7
 1052 01bf BA050000 		.4byte	.LASF35
 1053 01c3 06       		.byte	0x6
 1054 01c4 7B       		.byte	0x7b
 1055 01c5 19       		.byte	0x19
 1056 01c6 EF000000 		.4byte	0xef
 1057 01ca 1E       		.byte	0x1e
 1058 01cb 07       		.uleb128 0x7
 1059 01cc 8F050000 		.4byte	.LASF36
 1060 01d0 06       		.byte	0x6
 1061 01d1 88       		.byte	0x88
 1062 01d2 19       		.byte	0x19
 1063 01d3 2B010000 		.4byte	0x12b
 1064 01d7 20       		.byte	0x20
 1065 01d8 08       		.uleb128 0x8
 1066 01d9 705F7500 		.ascii	"p_u\000"
 1067 01dd 06       		.byte	0x6
ARM GAS  /var/folders/l5/0x54b2c10074c8bt31ycjvl80000gp/T//ccBrkAPT.s 			page 20


 1068 01de AD       		.byte	0xad
 1069 01df 19       		.byte	0x19
 1070 01e0 D4040000 		.4byte	0x4d4
 1071 01e4 24       		.byte	0x24
 1072 01e5 07       		.uleb128 0x7
 1073 01e6 67060000 		.4byte	.LASF37
 1074 01ea 06       		.byte	0x6
 1075 01eb B2       		.byte	0xb2
 1076 01ec 19       		.byte	0x19
 1077 01ed 81020000 		.4byte	0x281
 1078 01f1 28       		.byte	0x28
 1079 01f2 07       		.uleb128 0x7
 1080 01f3 9D050000 		.4byte	.LASF38
 1081 01f7 06       		.byte	0x6
 1082 01f8 B8       		.byte	0xb8
 1083 01f9 19       		.byte	0x19
 1084 01fa 5E020000 		.4byte	0x25e
 1085 01fe 2C       		.byte	0x2c
 1086 01ff 07       		.uleb128 0x7
 1087 0200 0D000000 		.4byte	.LASF39
 1088 0204 06       		.byte	0x6
 1089 0205 BC       		.byte	0xbc
 1090 0206 19       		.byte	0x19
 1091 0207 07010000 		.4byte	0x107
 1092 020b 34       		.byte	0x34
 1093 020c 07       		.uleb128 0x7
 1094 020d F4040000 		.4byte	.LASF40
 1095 0211 06       		.byte	0x6
 1096 0212 C2       		.byte	0xc2
 1097 0213 19       		.byte	0x19
 1098 0214 13010000 		.4byte	0x113
 1099 0218 38       		.byte	0x38
 1100 0219 07       		.uleb128 0x7
 1101 021a 83040000 		.4byte	.LASF41
 1102 021e 06       		.byte	0x6
 1103 021f C9       		.byte	0xc9
 1104 0220 1A       		.byte	0x1a
 1105 0221 20050000 		.4byte	0x520
 1106 0225 3C       		.byte	0x3c
 1107 0226 07       		.uleb128 0x7
 1108 0227 7A050000 		.4byte	.LASF42
 1109 022b 06       		.byte	0x6
 1110 022c CD       		.byte	0xcd
 1111 022d 19       		.byte	0x19
 1112 022e FB000000 		.4byte	0xfb
 1113 0232 40       		.byte	0x40
 1114 0233 00       		.byte	0
 1115 0234 09       		.uleb128 0x9
 1116 0235 08       		.byte	0x8
 1117 0236 05       		.byte	0x5
 1118 0237 5A       		.byte	0x5a
 1119 0238 09       		.byte	0x9
 1120 0239 58020000 		.4byte	0x258
 1121 023d 07       		.uleb128 0x7
 1122 023e B9040000 		.4byte	.LASF26
 1123 0242 05       		.byte	0x5
 1124 0243 5B       		.byte	0x5b
ARM GAS  /var/folders/l5/0x54b2c10074c8bt31ycjvl80000gp/T//ccBrkAPT.s 			page 21


 1125 0244 1A       		.byte	0x1a
 1126 0245 58020000 		.4byte	0x258
 1127 0249 00       		.byte	0
 1128 024a 07       		.uleb128 0x7
 1129 024b 40040000 		.4byte	.LASF27
 1130 024f 05       		.byte	0x5
 1131 0250 5D       		.byte	0x5d
 1132 0251 1A       		.byte	0x1a
 1133 0252 58020000 		.4byte	0x258
 1134 0256 04       		.byte	0x4
 1135 0257 00       		.byte	0
 1136 0258 0A       		.uleb128 0xa
 1137 0259 04       		.byte	0x4
 1138 025a 30010000 		.4byte	0x130
 1139 025e 04       		.uleb128 0x4
 1140 025f B3030000 		.4byte	.LASF43
 1141 0263 05       		.byte	0x5
 1142 0264 5F       		.byte	0x5f
 1143 0265 03       		.byte	0x3
 1144 0266 34020000 		.4byte	0x234
 1145 026a 09       		.uleb128 0x9
 1146 026b 04       		.byte	0x4
 1147 026c 05       		.byte	0x5
 1148 026d 64       		.byte	0x64
 1149 026e 09       		.byte	0x9
 1150 026f 81020000 		.4byte	0x281
 1151 0273 07       		.uleb128 0x7
 1152 0274 B9040000 		.4byte	.LASF26
 1153 0278 05       		.byte	0x5
 1154 0279 66       		.byte	0x66
 1155 027a 16       		.byte	0x16
 1156 027b 58020000 		.4byte	0x258
 1157 027f 00       		.byte	0
 1158 0280 00       		.byte	0
 1159 0281 04       		.uleb128 0x4
 1160 0282 EC020000 		.4byte	.LASF44
 1161 0286 05       		.byte	0x5
 1162 0287 69       		.byte	0x69
 1163 0288 03       		.byte	0x3
 1164 0289 6A020000 		.4byte	0x26a
 1165 028d 04       		.uleb128 0x4
 1166 028e 0A030000 		.4byte	.LASF45
 1167 0292 07       		.byte	0x7
 1168 0293 9D       		.byte	0x9d
 1169 0294 12       		.byte	0x12
 1170 0295 BF000000 		.4byte	0xbf
 1171 0299 04       		.uleb128 0x4
 1172 029a 6A010000 		.4byte	.LASF46
 1173 029e 07       		.byte	0x7
 1174 029f A2       		.byte	0xa2
 1175 02a0 0F       		.byte	0xf
 1176 02a1 A5020000 		.4byte	0x2a5
 1177 02a5 0B       		.uleb128 0xb
 1178 02a6 04       		.byte	0x4
 1179 02a7 0C       		.uleb128 0xc
 1180 02a8 A5020000 		.4byte	0x2a5
 1181 02ac 06       		.uleb128 0x6
ARM GAS  /var/folders/l5/0x54b2c10074c8bt31ycjvl80000gp/T//ccBrkAPT.s 			page 22


 1182 02ad 96050000 		.4byte	.LASF47
 1183 02b1 24       		.byte	0x24
 1184 02b2 07       		.byte	0x7
 1185 02b3 B9       		.byte	0xb9
 1186 02b4 08       		.byte	0x8
 1187 02b5 28030000 		.4byte	0x328
 1188 02b9 08       		.uleb128 0x8
 1189 02ba 723400   		.ascii	"r4\000"
 1190 02bd 07       		.byte	0x7
 1191 02be BA       		.byte	0xba
 1192 02bf 11       		.byte	0x11
 1193 02c0 99020000 		.4byte	0x299
 1194 02c4 00       		.byte	0
 1195 02c5 08       		.uleb128 0x8
 1196 02c6 723500   		.ascii	"r5\000"
 1197 02c9 07       		.byte	0x7
 1198 02ca BB       		.byte	0xbb
 1199 02cb 11       		.byte	0x11
 1200 02cc 99020000 		.4byte	0x299
 1201 02d0 04       		.byte	0x4
 1202 02d1 08       		.uleb128 0x8
 1203 02d2 723600   		.ascii	"r6\000"
 1204 02d5 07       		.byte	0x7
 1205 02d6 BC       		.byte	0xbc
 1206 02d7 11       		.byte	0x11
 1207 02d8 99020000 		.4byte	0x299
 1208 02dc 08       		.byte	0x8
 1209 02dd 08       		.uleb128 0x8
 1210 02de 723700   		.ascii	"r7\000"
 1211 02e1 07       		.byte	0x7
 1212 02e2 BD       		.byte	0xbd
 1213 02e3 11       		.byte	0x11
 1214 02e4 99020000 		.4byte	0x299
 1215 02e8 0C       		.byte	0xc
 1216 02e9 08       		.uleb128 0x8
 1217 02ea 723800   		.ascii	"r8\000"
 1218 02ed 07       		.byte	0x7
 1219 02ee BE       		.byte	0xbe
 1220 02ef 11       		.byte	0x11
 1221 02f0 99020000 		.4byte	0x299
 1222 02f4 10       		.byte	0x10
 1223 02f5 08       		.uleb128 0x8
 1224 02f6 723900   		.ascii	"r9\000"
 1225 02f9 07       		.byte	0x7
 1226 02fa BF       		.byte	0xbf
 1227 02fb 11       		.byte	0x11
 1228 02fc 99020000 		.4byte	0x299
 1229 0300 14       		.byte	0x14
 1230 0301 08       		.uleb128 0x8
 1231 0302 72313000 		.ascii	"r10\000"
 1232 0306 07       		.byte	0x7
 1233 0307 C0       		.byte	0xc0
 1234 0308 11       		.byte	0x11
 1235 0309 99020000 		.4byte	0x299
 1236 030d 18       		.byte	0x18
 1237 030e 08       		.uleb128 0x8
 1238 030f 72313100 		.ascii	"r11\000"
ARM GAS  /var/folders/l5/0x54b2c10074c8bt31ycjvl80000gp/T//ccBrkAPT.s 			page 23


 1239 0313 07       		.byte	0x7
 1240 0314 C1       		.byte	0xc1
 1241 0315 11       		.byte	0x11
 1242 0316 99020000 		.4byte	0x299
 1243 031a 1C       		.byte	0x1c
 1244 031b 08       		.uleb128 0x8
 1245 031c 6C7200   		.ascii	"lr\000"
 1246 031f 07       		.byte	0x7
 1247 0320 C2       		.byte	0xc2
 1248 0321 11       		.byte	0x11
 1249 0322 99020000 		.4byte	0x299
 1250 0326 20       		.byte	0x20
 1251 0327 00       		.byte	0
 1252 0328 06       		.uleb128 0x6
 1253 0329 D6010000 		.4byte	.LASF48
 1254 032d 04       		.byte	0x4
 1255 032e 07       		.byte	0x7
 1256 032f CA       		.byte	0xca
 1257 0330 08       		.byte	0x8
 1258 0331 43030000 		.4byte	0x343
 1259 0335 08       		.uleb128 0x8
 1260 0336 72313300 		.ascii	"r13\000"
 1261 033a 07       		.byte	0x7
 1262 033b CB       		.byte	0xcb
 1263 033c 12       		.byte	0x12
 1264 033d 43030000 		.4byte	0x343
 1265 0341 00       		.byte	0
 1266 0342 00       		.byte	0
 1267 0343 0A       		.uleb128 0xa
 1268 0344 04       		.byte	0x4
 1269 0345 AC020000 		.4byte	0x2ac
 1270 0349 04       		.uleb128 0x4
 1271 034a C8010000 		.4byte	.LASF49
 1272 034e 08       		.byte	0x8
 1273 034f 4E       		.byte	0x4e
 1274 0350 10       		.byte	0x10
 1275 0351 55030000 		.4byte	0x355
 1276 0355 0A       		.uleb128 0xa
 1277 0356 04       		.byte	0x4
 1278 0357 5B030000 		.4byte	0x35b
 1279 035b 0D       		.uleb128 0xd
 1280 035c 66030000 		.4byte	0x366
 1281 0360 0E       		.uleb128 0xe
 1282 0361 A5020000 		.4byte	0x2a5
 1283 0365 00       		.byte	0
 1284 0366 04       		.uleb128 0x4
 1285 0367 27050000 		.4byte	.LASF50
 1286 036b 08       		.byte	0x8
 1287 036c 53       		.byte	0x53
 1288 036d 1D       		.byte	0x1d
 1289 036e 72030000 		.4byte	0x372
 1290 0372 06       		.uleb128 0x6
 1291 0373 27050000 		.4byte	.LASF50
 1292 0377 14       		.byte	0x14
 1293 0378 08       		.byte	0x8
 1294 0379 5A       		.byte	0x5a
 1295 037a 08       		.byte	0x8
ARM GAS  /var/folders/l5/0x54b2c10074c8bt31ycjvl80000gp/T//ccBrkAPT.s 			page 24


 1296 037b C1030000 		.4byte	0x3c1
 1297 037f 07       		.uleb128 0x7
 1298 0380 95010000 		.4byte	.LASF51
 1299 0384 08       		.byte	0x8
 1300 0385 5B       		.byte	0x5b
 1301 0386 1A       		.byte	0x1a
 1302 0387 C1030000 		.4byte	0x3c1
 1303 038b 00       		.byte	0
 1304 038c 07       		.uleb128 0x7
 1305 038d 73010000 		.4byte	.LASF52
 1306 0391 08       		.byte	0x8
 1307 0392 5D       		.byte	0x5d
 1308 0393 1A       		.byte	0x1a
 1309 0394 C1030000 		.4byte	0x3c1
 1310 0398 04       		.byte	0x4
 1311 0399 07       		.uleb128 0x7
 1312 039a 3B030000 		.4byte	.LASF53
 1313 039e 08       		.byte	0x8
 1314 039f 5F       		.byte	0x5f
 1315 03a0 19       		.byte	0x19
 1316 03a1 1F010000 		.4byte	0x11f
 1317 03a5 08       		.byte	0x8
 1318 03a6 07       		.uleb128 0x7
 1319 03a7 67030000 		.4byte	.LASF54
 1320 03ab 08       		.byte	0x8
 1321 03ac 60       		.byte	0x60
 1322 03ad 19       		.byte	0x19
 1323 03ae 49030000 		.4byte	0x349
 1324 03b2 0C       		.byte	0xc
 1325 03b3 07       		.uleb128 0x7
 1326 03b4 A8050000 		.4byte	.LASF55
 1327 03b8 08       		.byte	0x8
 1328 03b9 62       		.byte	0x62
 1329 03ba 1A       		.byte	0x1a
 1330 03bb A5020000 		.4byte	0x2a5
 1331 03bf 10       		.byte	0x10
 1332 03c0 00       		.byte	0
 1333 03c1 0A       		.uleb128 0xa
 1334 03c2 04       		.byte	0x4
 1335 03c3 66030000 		.4byte	0x366
 1336 03c7 09       		.uleb128 0x9
 1337 03c8 10       		.byte	0x10
 1338 03c9 08       		.byte	0x8
 1339 03ca 6C       		.byte	0x6c
 1340 03cb 09       		.byte	0x9
 1341 03cc 05040000 		.4byte	0x405
 1342 03d0 07       		.uleb128 0x7
 1343 03d1 95010000 		.4byte	.LASF51
 1344 03d5 08       		.byte	0x8
 1345 03d6 6D       		.byte	0x6d
 1346 03d7 1A       		.byte	0x1a
 1347 03d8 C1030000 		.4byte	0x3c1
 1348 03dc 00       		.byte	0
 1349 03dd 07       		.uleb128 0x7
 1350 03de 73010000 		.4byte	.LASF52
 1351 03e2 08       		.byte	0x8
 1352 03e3 6F       		.byte	0x6f
ARM GAS  /var/folders/l5/0x54b2c10074c8bt31ycjvl80000gp/T//ccBrkAPT.s 			page 25


 1353 03e4 1A       		.byte	0x1a
 1354 03e5 C1030000 		.4byte	0x3c1
 1355 03e9 04       		.byte	0x4
 1356 03ea 07       		.uleb128 0x7
 1357 03eb 3B030000 		.4byte	.LASF53
 1358 03ef 08       		.byte	0x8
 1359 03f0 71       		.byte	0x71
 1360 03f1 19       		.byte	0x19
 1361 03f2 1F010000 		.4byte	0x11f
 1362 03f6 08       		.byte	0x8
 1363 03f7 07       		.uleb128 0x7
 1364 03f8 F4050000 		.4byte	.LASF56
 1365 03fc 08       		.byte	0x8
 1366 03fd 72       		.byte	0x72
 1367 03fe 19       		.byte	0x19
 1368 03ff 2B010000 		.4byte	0x12b
 1369 0403 0C       		.byte	0xc
 1370 0404 00       		.byte	0
 1371 0405 04       		.uleb128 0x4
 1372 0406 52060000 		.4byte	.LASF57
 1373 040a 08       		.byte	0x8
 1374 040b 73       		.byte	0x73
 1375 040c 03       		.byte	0x3
 1376 040d C7030000 		.4byte	0x3c7
 1377 0411 0F       		.uleb128 0xf
 1378 0412 29000000 		.4byte	.LASF65
 1379 0416 08       		.byte	0x8
 1380 0417 D1       		.byte	0xd1
 1381 0418 0F       		.byte	0xf
 1382 0419 05040000 		.4byte	0x405
 1383 041d 09       		.uleb128 0x9
 1384 041e 1C       		.byte	0x1c
 1385 041f 09       		.byte	0x9
 1386 0420 57       		.byte	0x57
 1387 0421 09       		.byte	0x9
 1388 0422 75040000 		.4byte	0x475
 1389 0426 07       		.uleb128 0x7
 1390 0427 1F050000 		.4byte	.LASF58
 1391 042b 09       		.byte	0x9
 1392 042c 58       		.byte	0x58
 1393 042d 19       		.byte	0x19
 1394 042e 5E020000 		.4byte	0x25e
 1395 0432 00       		.byte	0
 1396 0433 07       		.uleb128 0x7
 1397 0434 AB040000 		.4byte	.LASF59
 1398 0438 09       		.byte	0x9
 1399 0439 59       		.byte	0x59
 1400 043a 19       		.byte	0x19
 1401 043b FB000000 		.4byte	0xfb
 1402 043f 08       		.byte	0x8
 1403 0440 07       		.uleb128 0x7
 1404 0441 AD030000 		.4byte	.LASF60
 1405 0445 09       		.byte	0x9
 1406 0446 5B       		.byte	0x5b
 1407 0447 19       		.byte	0x19
 1408 0448 28030000 		.4byte	0x328
 1409 044c 0C       		.byte	0xc
ARM GAS  /var/folders/l5/0x54b2c10074c8bt31ycjvl80000gp/T//ccBrkAPT.s 			page 26


 1410 044d 07       		.uleb128 0x7
 1411 044e 04020000 		.4byte	.LASF61
 1412 0452 09       		.byte	0x9
 1413 0453 5E       		.byte	0x5e
 1414 0454 1A       		.byte	0x1a
 1415 0455 58020000 		.4byte	0x258
 1416 0459 10       		.byte	0x10
 1417 045a 07       		.uleb128 0x7
 1418 045b F3030000 		.4byte	.LASF62
 1419 045f 09       		.byte	0x9
 1420 0460 5F       		.byte	0x5f
 1421 0461 1A       		.byte	0x1a
 1422 0462 58020000 		.4byte	0x258
 1423 0466 14       		.byte	0x14
 1424 0467 07       		.uleb128 0x7
 1425 0468 E9030000 		.4byte	.LASF63
 1426 046c 09       		.byte	0x9
 1427 046d 62       		.byte	0x62
 1428 046e 1A       		.byte	0x1a
 1429 046f 58020000 		.4byte	0x258
 1430 0473 18       		.byte	0x18
 1431 0474 00       		.byte	0
 1432 0475 04       		.uleb128 0x4
 1433 0476 C1050000 		.4byte	.LASF64
 1434 047a 09       		.byte	0x9
 1435 047b 64       		.byte	0x64
 1436 047c 03       		.byte	0x3
 1437 047d 1D040000 		.4byte	0x41d
 1438 0481 0F       		.uleb128 0xf
 1439 0482 CB050000 		.4byte	.LASF66
 1440 0486 09       		.byte	0x9
 1441 0487 68       		.byte	0x68
 1442 0488 12       		.byte	0x12
 1443 0489 75040000 		.4byte	0x475
 1444 048d 06       		.uleb128 0x6
 1445 048e 04030000 		.4byte	.LASF67
 1446 0492 10       		.byte	0x10
 1447 0493 0A       		.byte	0xa
 1448 0494 25       		.byte	0x25
 1449 0495 10       		.byte	0x10
 1450 0496 C2040000 		.4byte	0x4c2
 1451 049a 07       		.uleb128 0x7
 1452 049b BE000000 		.4byte	.LASF68
 1453 049f 0A       		.byte	0xa
 1454 04a0 26       		.byte	0x26
 1455 04a1 19       		.byte	0x19
 1456 04a2 5E020000 		.4byte	0x25e
 1457 04a6 00       		.byte	0
 1458 04a7 07       		.uleb128 0x7
 1459 04a8 59060000 		.4byte	.LASF69
 1460 04ac 0A       		.byte	0xa
 1461 04ad 28       		.byte	0x28
 1462 04ae 1A       		.byte	0x1a
 1463 04af 58020000 		.4byte	0x258
 1464 04b3 08       		.byte	0x8
 1465 04b4 07       		.uleb128 0x7
 1466 04b5 69050000 		.4byte	.LASF70
ARM GAS  /var/folders/l5/0x54b2c10074c8bt31ycjvl80000gp/T//ccBrkAPT.s 			page 27


 1467 04b9 0A       		.byte	0xa
 1468 04ba 2A       		.byte	0x2a
 1469 04bb 1A       		.byte	0x1a
 1470 04bc C2040000 		.4byte	0x4c2
 1471 04c0 0C       		.byte	0xc
 1472 04c1 00       		.byte	0
 1473 04c2 0A       		.uleb128 0xa
 1474 04c3 04       		.byte	0x4
 1475 04c4 8D040000 		.4byte	0x48d
 1476 04c8 04       		.uleb128 0x4
 1477 04c9 04030000 		.4byte	.LASF67
 1478 04cd 0A       		.byte	0xa
 1479 04ce 2C       		.byte	0x2c
 1480 04cf 03       		.byte	0x3
 1481 04d0 8D040000 		.4byte	0x48d
 1482 04d4 10       		.uleb128 0x10
 1483 04d5 04       		.byte	0x4
 1484 04d6 06       		.byte	0x6
 1485 04d7 8F       		.byte	0x8f
 1486 04d8 03       		.byte	0x3
 1487 04d9 0E050000 		.4byte	0x50e
 1488 04dd 11       		.uleb128 0x11
 1489 04de 18000000 		.4byte	.LASF71
 1490 04e2 06       		.byte	0x6
 1491 04e3 96       		.byte	0x96
 1492 04e4 19       		.byte	0x19
 1493 04e5 07010000 		.4byte	0x107
 1494 04e9 11       		.uleb128 0x11
 1495 04ea 55000000 		.4byte	.LASF72
 1496 04ee 06       		.byte	0x6
 1497 04ef 9D       		.byte	0x9d
 1498 04f0 19       		.byte	0x19
 1499 04f1 07010000 		.4byte	0x107
 1500 04f5 11       		.uleb128 0x11
 1501 04f6 D9050000 		.4byte	.LASF73
 1502 04fa 06       		.byte	0x6
 1503 04fb A4       		.byte	0xa4
 1504 04fc 1A       		.byte	0x1a
 1505 04fd A5020000 		.4byte	0x2a5
 1506 0501 11       		.uleb128 0x11
 1507 0502 B2040000 		.4byte	.LASF74
 1508 0506 06       		.byte	0x6
 1509 0507 AB       		.byte	0xab
 1510 0508 19       		.byte	0x19
 1511 0509 13010000 		.4byte	0x113
 1512 050d 00       		.byte	0
 1513 050e 0A       		.uleb128 0xa
 1514 050f 04       		.byte	0x4
 1515 0510 1B050000 		.4byte	0x51b
 1516 0514 03       		.uleb128 0x3
 1517 0515 01       		.byte	0x1
 1518 0516 08       		.byte	0x8
 1519 0517 34050000 		.4byte	.LASF75
 1520 051b 0C       		.uleb128 0xc
 1521 051c 14050000 		.4byte	0x514
 1522 0520 0A       		.uleb128 0xa
 1523 0521 04       		.byte	0x4
ARM GAS  /var/folders/l5/0x54b2c10074c8bt31ycjvl80000gp/T//ccBrkAPT.s 			page 28


 1524 0522 C8040000 		.4byte	0x4c8
 1525 0526 09       		.uleb128 0x9
 1526 0527 16       		.byte	0x16
 1527 0528 0B       		.byte	0xb
 1528 0529 25       		.byte	0x25
 1529 052a 09       		.byte	0x9
 1530 052b 1A060000 		.4byte	0x61a
 1531 052f 07       		.uleb128 0x7
 1532 0530 D6000000 		.4byte	.LASF76
 1533 0534 0B       		.byte	0xb
 1534 0535 26       		.byte	0x26
 1535 0536 0D       		.byte	0xd
 1536 0537 1A060000 		.4byte	0x61a
 1537 053b 00       		.byte	0
 1538 053c 07       		.uleb128 0x7
 1539 053d 27030000 		.4byte	.LASF77
 1540 0541 0B       		.byte	0xb
 1541 0542 27       		.byte	0x27
 1542 0543 0D       		.byte	0xd
 1543 0544 9B000000 		.4byte	0x9b
 1544 0548 04       		.byte	0x4
 1545 0549 07       		.uleb128 0x7
 1546 054a C0030000 		.4byte	.LASF78
 1547 054e 0B       		.byte	0xb
 1548 054f 28       		.byte	0x28
 1549 0550 0D       		.byte	0xd
 1550 0551 9B000000 		.4byte	0x9b
 1551 0555 05       		.byte	0x5
 1552 0556 07       		.uleb128 0x7
 1553 0557 FF050000 		.4byte	.LASF79
 1554 055b 0B       		.byte	0xb
 1555 055c 29       		.byte	0x29
 1556 055d 0D       		.byte	0xd
 1557 055e A7000000 		.4byte	0xa7
 1558 0562 06       		.byte	0x6
 1559 0563 07       		.uleb128 0x7
 1560 0564 28040000 		.4byte	.LASF80
 1561 0568 0B       		.byte	0xb
 1562 0569 2A       		.byte	0x2a
 1563 056a 0D       		.byte	0xd
 1564 056b 9B000000 		.4byte	0x9b
 1565 056f 08       		.byte	0x8
 1566 0570 07       		.uleb128 0x7
 1567 0571 6F030000 		.4byte	.LASF81
 1568 0575 0B       		.byte	0xb
 1569 0576 2B       		.byte	0x2b
 1570 0577 0D       		.byte	0xd
 1571 0578 9B000000 		.4byte	0x9b
 1572 057c 09       		.byte	0x9
 1573 057d 07       		.uleb128 0x7
 1574 057e 47000000 		.4byte	.LASF82
 1575 0582 0B       		.byte	0xb
 1576 0583 2C       		.byte	0x2c
 1577 0584 0D       		.byte	0xd
 1578 0585 9B000000 		.4byte	0x9b
 1579 0589 0A       		.byte	0xa
 1580 058a 07       		.uleb128 0x7
ARM GAS  /var/folders/l5/0x54b2c10074c8bt31ycjvl80000gp/T//ccBrkAPT.s 			page 29


 1581 058b 13050000 		.4byte	.LASF83
 1582 058f 0B       		.byte	0xb
 1583 0590 2D       		.byte	0x2d
 1584 0591 0D       		.byte	0xd
 1585 0592 9B000000 		.4byte	0x9b
 1586 0596 0B       		.byte	0xb
 1587 0597 07       		.uleb128 0x7
 1588 0598 AF050000 		.4byte	.LASF84
 1589 059c 0B       		.byte	0xb
 1590 059d 2E       		.byte	0x2e
 1591 059e 0D       		.byte	0xd
 1592 059f 9B000000 		.4byte	0x9b
 1593 05a3 0C       		.byte	0xc
 1594 05a4 07       		.uleb128 0x7
 1595 05a5 DE040000 		.4byte	.LASF85
 1596 05a9 0B       		.byte	0xb
 1597 05aa 2F       		.byte	0x2f
 1598 05ab 0D       		.byte	0xd
 1599 05ac 9B000000 		.4byte	0x9b
 1600 05b0 0D       		.byte	0xd
 1601 05b1 07       		.uleb128 0x7
 1602 05b2 00000000 		.4byte	.LASF86
 1603 05b6 0B       		.byte	0xb
 1604 05b7 30       		.byte	0x30
 1605 05b8 0D       		.byte	0xd
 1606 05b9 9B000000 		.4byte	0x9b
 1607 05bd 0E       		.byte	0xe
 1608 05be 07       		.uleb128 0x7
 1609 05bf 87030000 		.4byte	.LASF87
 1610 05c3 0B       		.byte	0xb
 1611 05c4 31       		.byte	0x31
 1612 05c5 0D       		.byte	0xd
 1613 05c6 9B000000 		.4byte	0x9b
 1614 05ca 0F       		.byte	0xf
 1615 05cb 07       		.uleb128 0x7
 1616 05cc 9A000000 		.4byte	.LASF88
 1617 05d0 0B       		.byte	0xb
 1618 05d1 32       		.byte	0x32
 1619 05d2 0D       		.byte	0xd
 1620 05d3 9B000000 		.4byte	0x9b
 1621 05d7 10       		.byte	0x10
 1622 05d8 07       		.uleb128 0x7
 1623 05d9 6A000000 		.4byte	.LASF89
 1624 05dd 0B       		.byte	0xb
 1625 05de 34       		.byte	0x34
 1626 05df 0D       		.byte	0xd
 1627 05e0 9B000000 		.4byte	0x9b
 1628 05e4 11       		.byte	0x11
 1629 05e5 07       		.uleb128 0x7
 1630 05e6 AA000000 		.4byte	.LASF90
 1631 05ea 0B       		.byte	0xb
 1632 05eb 35       		.byte	0x35
 1633 05ec 0D       		.byte	0xd
 1634 05ed 9B000000 		.4byte	0x9b
 1635 05f1 12       		.byte	0x12
 1636 05f2 07       		.uleb128 0x7
 1637 05f3 2F030000 		.4byte	.LASF91
ARM GAS  /var/folders/l5/0x54b2c10074c8bt31ycjvl80000gp/T//ccBrkAPT.s 			page 30


 1638 05f7 0B       		.byte	0xb
 1639 05f8 36       		.byte	0x36
 1640 05f9 0D       		.byte	0xd
 1641 05fa 9B000000 		.4byte	0x9b
 1642 05fe 13       		.byte	0x13
 1643 05ff 07       		.uleb128 0x7
 1644 0600 C0040000 		.4byte	.LASF92
 1645 0604 0B       		.byte	0xb
 1646 0605 37       		.byte	0x37
 1647 0606 0D       		.byte	0xd
 1648 0607 9B000000 		.4byte	0x9b
 1649 060b 14       		.byte	0x14
 1650 060c 07       		.uleb128 0x7
 1651 060d 9F040000 		.4byte	.LASF93
 1652 0611 0B       		.byte	0xb
 1653 0612 39       		.byte	0x39
 1654 0613 0D       		.byte	0xd
 1655 0614 9B000000 		.4byte	0x9b
 1656 0618 15       		.byte	0x15
 1657 0619 00       		.byte	0
 1658 061a 12       		.uleb128 0x12
 1659 061b 14050000 		.4byte	0x514
 1660 061f 2A060000 		.4byte	0x62a
 1661 0623 13       		.uleb128 0x13
 1662 0624 2C000000 		.4byte	0x2c
 1663 0628 03       		.byte	0x3
 1664 0629 00       		.byte	0
 1665 062a 04       		.uleb128 0x4
 1666 062b 25010000 		.4byte	.LASF94
 1667 062f 0B       		.byte	0xb
 1668 0630 3A       		.byte	0x3a
 1669 0631 03       		.byte	0x3
 1670 0632 26050000 		.4byte	0x526
 1671 0636 0C       		.uleb128 0xc
 1672 0637 2A060000 		.4byte	0x62a
 1673 063b 0F       		.uleb128 0xf
 1674 063c AF010000 		.4byte	.LASF95
 1675 0640 0B       		.byte	0xb
 1676 0641 77       		.byte	0x77
 1677 0642 1D       		.byte	0x1d
 1678 0643 36060000 		.4byte	0x636
 1679 0647 12       		.uleb128 0x12
 1680 0648 8D020000 		.4byte	0x28d
 1681 064c 57060000 		.4byte	0x657
 1682 0650 13       		.uleb128 0x13
 1683 0651 2C000000 		.4byte	0x2c
 1684 0655 26       		.byte	0x26
 1685 0656 00       		.byte	0
 1686 0657 0F       		.uleb128 0xf
 1687 0658 3E010000 		.4byte	.LASF96
 1688 065c 0C       		.byte	0xc
 1689 065d 82       		.byte	0x82
 1690 065e 08       		.byte	0x8
 1691 065f 47060000 		.4byte	0x647
 1692 0663 06       		.uleb128 0x6
 1693 0664 EB040000 		.4byte	.LASF97
 1694 0668 10       		.byte	0x10
ARM GAS  /var/folders/l5/0x54b2c10074c8bt31ycjvl80000gp/T//ccBrkAPT.s 			page 31


 1695 0669 0D       		.byte	0xd
 1696 066a 3F       		.byte	0x3f
 1697 066b 08       		.byte	0x8
 1698 066c A5060000 		.4byte	0x6a5
 1699 0670 07       		.uleb128 0x7
 1700 0671 D1010000 		.4byte	.LASF98
 1701 0675 0D       		.byte	0xd
 1702 0676 40       		.byte	0x40
 1703 0677 0F       		.byte	0xf
 1704 0678 0E050000 		.4byte	0x50e
 1705 067c 00       		.byte	0
 1706 067d 07       		.uleb128 0x7
 1707 067e C8030000 		.4byte	.LASF99
 1708 0682 0D       		.byte	0xd
 1709 0683 41       		.byte	0x41
 1710 0684 0A       		.byte	0xa
 1711 0685 AB060000 		.4byte	0x6ab
 1712 0689 04       		.byte	0x4
 1713 068a 07       		.uleb128 0x7
 1714 068b 77000000 		.4byte	.LASF100
 1715 068f 0D       		.byte	0xd
 1716 0690 42       		.byte	0x42
 1717 0691 0A       		.byte	0xa
 1718 0692 AB060000 		.4byte	0x6ab
 1719 0696 08       		.byte	0x8
 1720 0697 07       		.uleb128 0x7
 1721 0698 47040000 		.4byte	.LASF101
 1722 069c 0D       		.byte	0xd
 1723 069d 43       		.byte	0x43
 1724 069e 0A       		.byte	0xa
 1725 069f AB060000 		.4byte	0x6ab
 1726 06a3 0C       		.byte	0xc
 1727 06a4 00       		.byte	0
 1728 06a5 0C       		.uleb128 0xc
 1729 06a6 63060000 		.4byte	0x663
 1730 06aa 14       		.uleb128 0x14
 1731 06ab 0A       		.uleb128 0xa
 1732 06ac 04       		.byte	0x4
 1733 06ad AA060000 		.4byte	0x6aa
 1734 06b1 15       		.uleb128 0x15
 1735 06b2 7805     		.2byte	0x578
 1736 06b4 0D       		.byte	0xd
 1737 06b5 48       		.byte	0x48
 1738 06b6 03       		.byte	0x3
 1739 06b7 FC060000 		.4byte	0x6fc
 1740 06bb 08       		.uleb128 0x8
 1741 06bc 543000   		.ascii	"T0\000"
 1742 06bf 0D       		.byte	0xd
 1743 06c0 49       		.byte	0x49
 1744 06c1 05       		.byte	0x5
 1745 06c2 FC060000 		.4byte	0x6fc
 1746 06c6 00       		.byte	0
 1747 06c7 16       		.uleb128 0x16
 1748 06c8 543100   		.ascii	"T1\000"
 1749 06cb 0D       		.byte	0xd
 1750 06cc 4A       		.byte	0x4a
 1751 06cd 05       		.byte	0x5
ARM GAS  /var/folders/l5/0x54b2c10074c8bt31ycjvl80000gp/T//ccBrkAPT.s 			page 32


 1752 06ce FC060000 		.4byte	0x6fc
 1753 06d2 1801     		.2byte	0x118
 1754 06d4 16       		.uleb128 0x16
 1755 06d5 543200   		.ascii	"T2\000"
 1756 06d8 0D       		.byte	0xd
 1757 06d9 4B       		.byte	0x4b
 1758 06da 05       		.byte	0x5
 1759 06db FC060000 		.4byte	0x6fc
 1760 06df 3002     		.2byte	0x230
 1761 06e1 16       		.uleb128 0x16
 1762 06e2 543300   		.ascii	"T3\000"
 1763 06e5 0D       		.byte	0xd
 1764 06e6 4C       		.byte	0x4c
 1765 06e7 05       		.byte	0x5
 1766 06e8 FC060000 		.4byte	0x6fc
 1767 06ec 4803     		.2byte	0x348
 1768 06ee 16       		.uleb128 0x16
 1769 06ef 543400   		.ascii	"T4\000"
 1770 06f2 0D       		.byte	0xd
 1771 06f3 4D       		.byte	0x4d
 1772 06f4 05       		.byte	0x5
 1773 06f5 FC060000 		.4byte	0x6fc
 1774 06f9 6004     		.2byte	0x460
 1775 06fb 00       		.byte	0
 1776 06fc 12       		.uleb128 0x12
 1777 06fd 8D020000 		.4byte	0x28d
 1778 0701 0C070000 		.4byte	0x70c
 1779 0705 13       		.uleb128 0x13
 1780 0706 2C000000 		.4byte	0x2c
 1781 070a 45       		.byte	0x45
 1782 070b 00       		.byte	0
 1783 070c 17       		.uleb128 0x17
 1784 070d 39050000 		.4byte	.LASF130
 1785 0711 7805     		.2byte	0x578
 1786 0713 0D       		.byte	0xd
 1787 0714 47       		.byte	0x47
 1788 0715 07       		.byte	0x7
 1789 0716 32070000 		.4byte	0x732
 1790 071a 18       		.uleb128 0x18
 1791 071b 776100   		.ascii	"wa\000"
 1792 071e 0D       		.byte	0xd
 1793 071f 4E       		.byte	0x4e
 1794 0720 05       		.byte	0x5
 1795 0721 B1060000 		.4byte	0x6b1
 1796 0725 11       		.uleb128 0x11
 1797 0726 2F010000 		.4byte	.LASF102
 1798 072a 0D       		.byte	0xd
 1799 072b 4F       		.byte	0x4f
 1800 072c 0B       		.byte	0xb
 1801 072d 32070000 		.4byte	0x732
 1802 0731 00       		.byte	0
 1803 0732 12       		.uleb128 0x12
 1804 0733 9B000000 		.4byte	0x9b
 1805 0737 43070000 		.4byte	0x743
 1806 073b 19       		.uleb128 0x19
 1807 073c 2C000000 		.4byte	0x2c
 1808 0740 7705     		.2byte	0x577
ARM GAS  /var/folders/l5/0x54b2c10074c8bt31ycjvl80000gp/T//ccBrkAPT.s 			page 33


 1809 0742 00       		.byte	0
 1810 0743 12       		.uleb128 0x12
 1811 0744 58020000 		.4byte	0x258
 1812 0748 53070000 		.4byte	0x753
 1813 074c 13       		.uleb128 0x13
 1814 074d 2C000000 		.4byte	0x2c
 1815 0751 04       		.byte	0x4
 1816 0752 00       		.byte	0
 1817 0753 0F       		.uleb128 0xf
 1818 0754 DC020000 		.4byte	.LASF103
 1819 0758 0D       		.byte	0xd
 1820 0759 A9       		.byte	0xa9
 1821 075a 10       		.byte	0x10
 1822 075b 43070000 		.4byte	0x743
 1823 075f 0F       		.uleb128 0xf
 1824 0760 5E000000 		.4byte	.LASF104
 1825 0764 0D       		.byte	0xd
 1826 0765 AA       		.byte	0xaa
 1827 0766 1B       		.byte	0x1b
 1828 0767 0C070000 		.4byte	0x70c
 1829 076b 12       		.uleb128 0x12
 1830 076c A7020000 		.4byte	0x2a7
 1831 0770 76070000 		.4byte	0x776
 1832 0774 1A       		.uleb128 0x1a
 1833 0775 00       		.byte	0
 1834 0776 0C       		.uleb128 0xc
 1835 0777 6B070000 		.4byte	0x76b
 1836 077b 1B       		.uleb128 0x1b
 1837 077c 776100   		.ascii	"wa\000"
 1838 077f 0D       		.byte	0xd
 1839 0780 AB       		.byte	0xab
 1840 0781 18       		.byte	0x18
 1841 0782 76070000 		.4byte	0x776
 1842 0786 0F       		.uleb128 0xf
 1843 0787 B8010000 		.4byte	.LASF105
 1844 078b 0D       		.byte	0xd
 1845 078c AC       		.byte	0xac
 1846 078d 0F       		.byte	0xf
 1847 078e CB000000 		.4byte	0xcb
 1848 0792 1C       		.uleb128 0x1c
 1849 0793 43030000 		.4byte	.LASF106
 1850 0797 01       		.byte	0x1
 1851 0798 51       		.byte	0x51
 1852 0799 1A       		.byte	0x1a
 1853 079a A5060000 		.4byte	0x6a5
 1854 079e 05       		.uleb128 0x5
 1855 079f 03       		.byte	0x3
 1856 07a0 00000000 		.4byte	testthd1
 1857 07a4 1C       		.uleb128 0x1c
 1858 07a5 4C030000 		.4byte	.LASF107
 1859 07a9 01       		.byte	0x1
 1860 07aa 71       		.byte	0x71
 1861 07ab 1A       		.byte	0x1a
 1862 07ac A5060000 		.4byte	0x6a5
 1863 07b0 05       		.uleb128 0x5
 1864 07b1 03       		.byte	0x3
 1865 07b2 00000000 		.4byte	testthd2
ARM GAS  /var/folders/l5/0x54b2c10074c8bt31ycjvl80000gp/T//ccBrkAPT.s 			page 34


 1866 07b6 1C       		.uleb128 0x1c
 1867 07b7 55030000 		.4byte	.LASF108
 1868 07bb 01       		.byte	0x1
 1869 07bc B2       		.byte	0xb2
 1870 07bd 1A       		.byte	0x1a
 1871 07be A5060000 		.4byte	0x6a5
 1872 07c2 05       		.uleb128 0x5
 1873 07c3 03       		.byte	0x3
 1874 07c4 00000000 		.4byte	testthd3
 1875 07c8 1C       		.uleb128 0x1c
 1876 07c9 5E030000 		.4byte	.LASF109
 1877 07cd 01       		.byte	0x1
 1878 07ce DB       		.byte	0xdb
 1879 07cf 1A       		.byte	0x1a
 1880 07d0 A5060000 		.4byte	0x6a5
 1881 07d4 05       		.uleb128 0x5
 1882 07d5 03       		.byte	0x3
 1883 07d6 00000000 		.4byte	testthd4
 1884 07da 12       		.uleb128 0x12
 1885 07db F5070000 		.4byte	0x7f5
 1886 07df EA070000 		.4byte	0x7ea
 1887 07e3 13       		.uleb128 0x13
 1888 07e4 2C000000 		.4byte	0x2c
 1889 07e8 04       		.byte	0x4
 1890 07e9 00       		.byte	0
 1891 07ea 0C       		.uleb128 0xc
 1892 07eb DA070000 		.4byte	0x7da
 1893 07ef 0A       		.uleb128 0xa
 1894 07f0 04       		.byte	0x4
 1895 07f1 A5060000 		.4byte	0x6a5
 1896 07f5 0C       		.uleb128 0xc
 1897 07f6 EF070000 		.4byte	0x7ef
 1898 07fa 1C       		.uleb128 0x1c
 1899 07fb 5E050000 		.4byte	.LASF110
 1900 07ff 01       		.byte	0x1
 1901 0800 E5       		.byte	0xe5
 1902 0801 25       		.byte	0x25
 1903 0802 EA070000 		.4byte	0x7ea
 1904 0806 05       		.uleb128 0x5
 1905 0807 03       		.byte	0x3
 1906 0808 00000000 		.4byte	patternthd
 1907 080c 1D       		.uleb128 0x1d
 1908 080d 46050000 		.4byte	.LASF131
 1909 0811 01       		.byte	0x1
 1910 0812 C1       		.byte	0xc1
 1911 0813 0D       		.byte	0xd
 1912 0814 01       		.byte	0x1
 1913 0815 26080000 		.4byte	0x826
 1914 0819 1E       		.uleb128 0x1e
 1915 081a E4030000 		.4byte	.LASF132
 1916 081e 01       		.byte	0x1
 1917 081f C2       		.byte	0xc2
 1918 0820 0D       		.byte	0xd
 1919 0821 1F010000 		.4byte	0x11f
 1920 0825 00       		.byte	0
 1921 0826 1F       		.uleb128 0x1f
 1922 0827 33040000 		.4byte	.LASF112
ARM GAS  /var/folders/l5/0x54b2c10074c8bt31ycjvl80000gp/T//ccBrkAPT.s 			page 35


 1923 082b 01       		.byte	0x1
 1924 082c 82       		.byte	0x82
 1925 082d 0D       		.byte	0xd
 1926 082e 00000000 		.4byte	.LFB10
 1927 0832 E0010000 		.4byte	.LFE10-.LFB10
 1928 0836 01       		.uleb128 0x1
 1929 0837 9C       		.byte	0x9c
 1930 0838 8C090000 		.4byte	0x98c
 1931 083c 20       		.uleb128 0x20
 1932 083d 13000000 		.4byte	.LASF111
 1933 0841 01       		.byte	0x1
 1934 0842 83       		.byte	0x83
 1935 0843 0B       		.byte	0xb
 1936 0844 FB000000 		.4byte	0xfb
 1937 0848 02000000 		.4byte	.LLST1
 1938 084c 00000000 		.4byte	.LVUS1
 1939 0850 21       		.uleb128 0x21
 1940 0851 703100   		.ascii	"p1\000"
 1941 0854 01       		.byte	0x1
 1942 0855 83       		.byte	0x83
 1943 0856 11       		.byte	0x11
 1944 0857 FB000000 		.4byte	0xfb
 1945 085b 1F000000 		.4byte	.LLST2
 1946 085f 15000000 		.4byte	.LVUS2
 1947 0863 22       		.uleb128 0x22
 1948 0864 1C000000 		.4byte	.LVL19
 1949 0868 050D0000 		.4byte	0xd05
 1950 086c 77080000 		.4byte	0x877
 1951 0870 23       		.uleb128 0x23
 1952 0871 01       		.uleb128 0x1
 1953 0872 50       		.byte	0x50
 1954 0873 02       		.uleb128 0x2
 1955 0874 75       		.byte	0x75
 1956 0875 00       		.sleb128 0
 1957 0876 00       		.byte	0
 1958 0877 22       		.uleb128 0x22
 1959 0878 34000000 		.4byte	.LVL22
 1960 087c 120D0000 		.4byte	0xd12
 1961 0880 95080000 		.4byte	0x895
 1962 0884 23       		.uleb128 0x23
 1963 0885 01       		.uleb128 0x1
 1964 0886 50       		.byte	0x50
 1965 0887 01       		.uleb128 0x1
 1966 0888 31       		.byte	0x31
 1967 0889 23       		.uleb128 0x23
 1968 088a 01       		.uleb128 0x1
 1969 088b 51       		.byte	0x51
 1970 088c 07       		.uleb128 0x7
 1971 088d 74       		.byte	0x74
 1972 088e 00       		.sleb128 0
 1973 088f 77       		.byte	0x77
 1974 0890 00       		.sleb128 0
 1975 0891 1C       		.byte	0x1c
 1976 0892 30       		.byte	0x30
 1977 0893 29       		.byte	0x29
 1978 0894 00       		.byte	0
 1979 0895 22       		.uleb128 0x22
ARM GAS  /var/folders/l5/0x54b2c10074c8bt31ycjvl80000gp/T//ccBrkAPT.s 			page 36


 1980 0896 58000000 		.4byte	.LVL23
 1981 089a 120D0000 		.4byte	0xd12
 1982 089e A8080000 		.4byte	0x8a8
 1983 08a2 23       		.uleb128 0x23
 1984 08a3 01       		.uleb128 0x1
 1985 08a4 50       		.byte	0x50
 1986 08a5 01       		.uleb128 0x1
 1987 08a6 32       		.byte	0x32
 1988 08a7 00       		.byte	0
 1989 08a8 22       		.uleb128 0x22
 1990 08a9 68000000 		.4byte	.LVL24
 1991 08ad 050D0000 		.4byte	0xd05
 1992 08b1 BC080000 		.4byte	0x8bc
 1993 08b5 23       		.uleb128 0x23
 1994 08b6 01       		.uleb128 0x1
 1995 08b7 50       		.byte	0x50
 1996 08b8 02       		.uleb128 0x2
 1997 08b9 77       		.byte	0x77
 1998 08ba 00       		.sleb128 0
 1999 08bb 00       		.byte	0
 2000 08bc 22       		.uleb128 0x22
 2001 08bd 7C000000 		.4byte	.LVL26
 2002 08c1 120D0000 		.4byte	0xd12
 2003 08c5 CF080000 		.4byte	0x8cf
 2004 08c9 23       		.uleb128 0x23
 2005 08ca 01       		.uleb128 0x1
 2006 08cb 50       		.byte	0x50
 2007 08cc 01       		.uleb128 0x1
 2008 08cd 33       		.byte	0x33
 2009 08ce 00       		.byte	0
 2010 08cf 22       		.uleb128 0x22
 2011 08d0 A0000000 		.4byte	.LVL27
 2012 08d4 120D0000 		.4byte	0xd12
 2013 08d8 E2080000 		.4byte	0x8e2
 2014 08dc 23       		.uleb128 0x23
 2015 08dd 01       		.uleb128 0x1
 2016 08de 50       		.byte	0x50
 2017 08df 01       		.uleb128 0x1
 2018 08e0 34       		.byte	0x34
 2019 08e1 00       		.byte	0
 2020 08e2 22       		.uleb128 0x22
 2021 08e3 E0000000 		.4byte	.LVL28
 2022 08e7 120D0000 		.4byte	0xd12
 2023 08eb F5080000 		.4byte	0x8f5
 2024 08ef 23       		.uleb128 0x23
 2025 08f0 01       		.uleb128 0x1
 2026 08f1 50       		.byte	0x50
 2027 08f2 01       		.uleb128 0x1
 2028 08f3 35       		.byte	0x35
 2029 08f4 00       		.byte	0
 2030 08f5 22       		.uleb128 0x22
 2031 08f6 F0000000 		.4byte	.LVL29
 2032 08fa 050D0000 		.4byte	0xd05
 2033 08fe 09090000 		.4byte	0x909
 2034 0902 23       		.uleb128 0x23
 2035 0903 01       		.uleb128 0x1
 2036 0904 50       		.byte	0x50
ARM GAS  /var/folders/l5/0x54b2c10074c8bt31ycjvl80000gp/T//ccBrkAPT.s 			page 37


 2037 0905 02       		.uleb128 0x2
 2038 0906 75       		.byte	0x75
 2039 0907 00       		.sleb128 0
 2040 0908 00       		.byte	0
 2041 0909 22       		.uleb128 0x22
 2042 090a 04010000 		.4byte	.LVL31
 2043 090e 120D0000 		.4byte	0xd12
 2044 0912 1C090000 		.4byte	0x91c
 2045 0916 23       		.uleb128 0x23
 2046 0917 01       		.uleb128 0x1
 2047 0918 50       		.byte	0x50
 2048 0919 01       		.uleb128 0x1
 2049 091a 36       		.byte	0x36
 2050 091b 00       		.byte	0
 2051 091c 22       		.uleb128 0x22
 2052 091d 28010000 		.4byte	.LVL32
 2053 0921 120D0000 		.4byte	0xd12
 2054 0925 2F090000 		.4byte	0x92f
 2055 0929 23       		.uleb128 0x23
 2056 092a 01       		.uleb128 0x1
 2057 092b 50       		.byte	0x50
 2058 092c 01       		.uleb128 0x1
 2059 092d 37       		.byte	0x37
 2060 092e 00       		.byte	0
 2061 092f 22       		.uleb128 0x22
 2062 0930 4C010000 		.4byte	.LVL33
 2063 0934 120D0000 		.4byte	0xd12
 2064 0938 42090000 		.4byte	0x942
 2065 093c 23       		.uleb128 0x23
 2066 093d 01       		.uleb128 0x1
 2067 093e 50       		.byte	0x50
 2068 093f 01       		.uleb128 0x1
 2069 0940 38       		.byte	0x38
 2070 0941 00       		.byte	0
 2071 0942 22       		.uleb128 0x22
 2072 0943 60010000 		.4byte	.LVL34
 2073 0947 050D0000 		.4byte	0xd05
 2074 094b 56090000 		.4byte	0x956
 2075 094f 23       		.uleb128 0x23
 2076 0950 01       		.uleb128 0x1
 2077 0951 50       		.byte	0x50
 2078 0952 02       		.uleb128 0x2
 2079 0953 77       		.byte	0x77
 2080 0954 00       		.sleb128 0
 2081 0955 00       		.byte	0
 2082 0956 22       		.uleb128 0x22
 2083 0957 74010000 		.4byte	.LVL36
 2084 095b 120D0000 		.4byte	0xd12
 2085 095f 69090000 		.4byte	0x969
 2086 0963 23       		.uleb128 0x23
 2087 0964 01       		.uleb128 0x1
 2088 0965 50       		.byte	0x50
 2089 0966 01       		.uleb128 0x1
 2090 0967 39       		.byte	0x39
 2091 0968 00       		.byte	0
 2092 0969 22       		.uleb128 0x22
 2093 096a 98010000 		.4byte	.LVL37
ARM GAS  /var/folders/l5/0x54b2c10074c8bt31ycjvl80000gp/T//ccBrkAPT.s 			page 38


 2094 096e 120D0000 		.4byte	0xd12
 2095 0972 7C090000 		.4byte	0x97c
 2096 0976 23       		.uleb128 0x23
 2097 0977 01       		.uleb128 0x1
 2098 0978 50       		.byte	0x50
 2099 0979 01       		.uleb128 0x1
 2100 097a 3A       		.byte	0x3a
 2101 097b 00       		.byte	0
 2102 097c 24       		.uleb128 0x24
 2103 097d BC010000 		.4byte	.LVL38
 2104 0981 120D0000 		.4byte	0xd12
 2105 0985 23       		.uleb128 0x23
 2106 0986 01       		.uleb128 0x1
 2107 0987 50       		.byte	0x50
 2108 0988 01       		.uleb128 0x1
 2109 0989 3B       		.byte	0x3b
 2110 098a 00       		.byte	0
 2111 098b 00       		.byte	0
 2112 098c 1F       		.uleb128 0x1f
 2113 098d F1010000 		.4byte	.LASF113
 2114 0991 01       		.byte	0x1
 2115 0992 62       		.byte	0x62
 2116 0993 0D       		.byte	0xd
 2117 0994 00000000 		.4byte	.LFB9
 2118 0998 30010000 		.4byte	.LFE9-.LFB9
 2119 099c 01       		.uleb128 0x1
 2120 099d 9C       		.byte	0x9c
 2121 099e A90A0000 		.4byte	0xaa9
 2122 09a2 22       		.uleb128 0x22
 2123 09a3 38000000 		.4byte	.LVL10
 2124 09a7 1E0D0000 		.4byte	0xd1e
 2125 09ab CE090000 		.4byte	0x9ce
 2126 09af 23       		.uleb128 0x23
 2127 09b0 01       		.uleb128 0x1
 2128 09b1 50       		.byte	0x50
 2129 09b2 03       		.uleb128 0x3
 2130 09b3 75       		.byte	0x75
 2131 09b4 04       		.sleb128 4
 2132 09b5 06       		.byte	0x6
 2133 09b6 23       		.uleb128 0x23
 2134 09b7 01       		.uleb128 0x1
 2135 09b8 51       		.byte	0x51
 2136 09b9 03       		.uleb128 0x3
 2137 09ba 0A       		.byte	0xa
 2138 09bb 1801     		.2byte	0x118
 2139 09bd 23       		.uleb128 0x23
 2140 09be 01       		.uleb128 0x1
 2141 09bf 53       		.byte	0x53
 2142 09c0 02       		.uleb128 0x2
 2143 09c1 76       		.byte	0x76
 2144 09c2 00       		.sleb128 0
 2145 09c3 23       		.uleb128 0x23
 2146 09c4 02       		.uleb128 0x2
 2147 09c5 7D       		.byte	0x7d
 2148 09c6 00       		.sleb128 0
 2149 09c7 05       		.uleb128 0x5
 2150 09c8 03       		.byte	0x3
ARM GAS  /var/folders/l5/0x54b2c10074c8bt31ycjvl80000gp/T//ccBrkAPT.s 			page 39


 2151 09c9 04000000 		.4byte	.LC1
 2152 09cd 00       		.byte	0
 2153 09ce 22       		.uleb128 0x22
 2154 09cf 64000000 		.4byte	.LVL11
 2155 09d3 1E0D0000 		.4byte	0xd1e
 2156 09d7 FA090000 		.4byte	0x9fa
 2157 09db 23       		.uleb128 0x23
 2158 09dc 01       		.uleb128 0x1
 2159 09dd 50       		.byte	0x50
 2160 09de 03       		.uleb128 0x3
 2161 09df 75       		.byte	0x75
 2162 09e0 00       		.sleb128 0
 2163 09e1 06       		.byte	0x6
 2164 09e2 23       		.uleb128 0x23
 2165 09e3 01       		.uleb128 0x1
 2166 09e4 51       		.byte	0x51
 2167 09e5 03       		.uleb128 0x3
 2168 09e6 0A       		.byte	0xa
 2169 09e7 1801     		.2byte	0x118
 2170 09e9 23       		.uleb128 0x23
 2171 09ea 01       		.uleb128 0x1
 2172 09eb 53       		.byte	0x53
 2173 09ec 02       		.uleb128 0x2
 2174 09ed 76       		.byte	0x76
 2175 09ee 00       		.sleb128 0
 2176 09ef 23       		.uleb128 0x23
 2177 09f0 02       		.uleb128 0x2
 2178 09f1 7D       		.byte	0x7d
 2179 09f2 00       		.sleb128 0
 2180 09f3 05       		.uleb128 0x5
 2181 09f4 03       		.byte	0x3
 2182 09f5 00000000 		.4byte	.LC0
 2183 09f9 00       		.byte	0
 2184 09fa 22       		.uleb128 0x22
 2185 09fb 8C000000 		.4byte	.LVL12
 2186 09ff 1E0D0000 		.4byte	0xd1e
 2187 0a03 260A0000 		.4byte	0xa26
 2188 0a07 23       		.uleb128 0x23
 2189 0a08 01       		.uleb128 0x1
 2190 0a09 50       		.byte	0x50
 2191 0a0a 03       		.uleb128 0x3
 2192 0a0b 75       		.byte	0x75
 2193 0a0c 10       		.sleb128 16
 2194 0a0d 06       		.byte	0x6
 2195 0a0e 23       		.uleb128 0x23
 2196 0a0f 01       		.uleb128 0x1
 2197 0a10 51       		.byte	0x51
 2198 0a11 03       		.uleb128 0x3
 2199 0a12 0A       		.byte	0xa
 2200 0a13 1801     		.2byte	0x118
 2201 0a15 23       		.uleb128 0x23
 2202 0a16 01       		.uleb128 0x1
 2203 0a17 53       		.byte	0x53
 2204 0a18 02       		.uleb128 0x2
 2205 0a19 76       		.byte	0x76
 2206 0a1a 00       		.sleb128 0
 2207 0a1b 23       		.uleb128 0x23
ARM GAS  /var/folders/l5/0x54b2c10074c8bt31ycjvl80000gp/T//ccBrkAPT.s 			page 40


 2208 0a1c 02       		.uleb128 0x2
 2209 0a1d 7D       		.byte	0x7d
 2210 0a1e 00       		.sleb128 0
 2211 0a1f 05       		.uleb128 0x5
 2212 0a20 03       		.byte	0x3
 2213 0a21 10000000 		.4byte	.LC4
 2214 0a25 00       		.byte	0
 2215 0a26 22       		.uleb128 0x22
 2216 0a27 B4000000 		.4byte	.LVL13
 2217 0a2b 1E0D0000 		.4byte	0xd1e
 2218 0a2f 520A0000 		.4byte	0xa52
 2219 0a33 23       		.uleb128 0x23
 2220 0a34 01       		.uleb128 0x1
 2221 0a35 50       		.byte	0x50
 2222 0a36 03       		.uleb128 0x3
 2223 0a37 75       		.byte	0x75
 2224 0a38 0C       		.sleb128 12
 2225 0a39 06       		.byte	0x6
 2226 0a3a 23       		.uleb128 0x23
 2227 0a3b 01       		.uleb128 0x1
 2228 0a3c 51       		.byte	0x51
 2229 0a3d 03       		.uleb128 0x3
 2230 0a3e 0A       		.byte	0xa
 2231 0a3f 1801     		.2byte	0x118
 2232 0a41 23       		.uleb128 0x23
 2233 0a42 01       		.uleb128 0x1
 2234 0a43 53       		.byte	0x53
 2235 0a44 02       		.uleb128 0x2
 2236 0a45 76       		.byte	0x76
 2237 0a46 00       		.sleb128 0
 2238 0a47 23       		.uleb128 0x23
 2239 0a48 02       		.uleb128 0x2
 2240 0a49 7D       		.byte	0x7d
 2241 0a4a 00       		.sleb128 0
 2242 0a4b 05       		.uleb128 0x5
 2243 0a4c 03       		.byte	0x3
 2244 0a4d 0C000000 		.4byte	.LC3
 2245 0a51 00       		.byte	0
 2246 0a52 22       		.uleb128 0x22
 2247 0a53 E0000000 		.4byte	.LVL14
 2248 0a57 2B0D0000 		.4byte	0xd2b
 2249 0a5b 7E0A0000 		.4byte	0xa7e
 2250 0a5f 23       		.uleb128 0x23
 2251 0a60 01       		.uleb128 0x1
 2252 0a61 50       		.byte	0x50
 2253 0a62 03       		.uleb128 0x3
 2254 0a63 75       		.byte	0x75
 2255 0a64 08       		.sleb128 8
 2256 0a65 06       		.byte	0x6
 2257 0a66 23       		.uleb128 0x23
 2258 0a67 01       		.uleb128 0x1
 2259 0a68 51       		.byte	0x51
 2260 0a69 03       		.uleb128 0x3
 2261 0a6a 0A       		.byte	0xa
 2262 0a6b 1801     		.2byte	0x118
 2263 0a6d 23       		.uleb128 0x23
 2264 0a6e 01       		.uleb128 0x1
ARM GAS  /var/folders/l5/0x54b2c10074c8bt31ycjvl80000gp/T//ccBrkAPT.s 			page 41


 2265 0a6f 53       		.byte	0x53
 2266 0a70 02       		.uleb128 0x2
 2267 0a71 76       		.byte	0x76
 2268 0a72 00       		.sleb128 0
 2269 0a73 23       		.uleb128 0x23
 2270 0a74 02       		.uleb128 0x2
 2271 0a75 7D       		.byte	0x7d
 2272 0a76 00       		.sleb128 0
 2273 0a77 05       		.uleb128 0x5
 2274 0a78 03       		.byte	0x3
 2275 0a79 08000000 		.4byte	.LC2
 2276 0a7d 00       		.byte	0
 2277 0a7e 25       		.uleb128 0x25
 2278 0a7f F0000000 		.4byte	.LVL15
 2279 0a83 380D0000 		.4byte	0xd38
 2280 0a87 25       		.uleb128 0x25
 2281 0a88 F4000000 		.4byte	.LVL16
 2282 0a8c 450D0000 		.4byte	0xd45
 2283 0a90 26       		.uleb128 0x26
 2284 0a91 08010000 		.4byte	.LVL17
 2285 0a95 510D0000 		.4byte	0xd51
 2286 0a99 23       		.uleb128 0x23
 2287 0a9a 01       		.uleb128 0x1
 2288 0a9b 50       		.byte	0x50
 2289 0a9c 01       		.uleb128 0x1
 2290 0a9d 31       		.byte	0x31
 2291 0a9e 23       		.uleb128 0x23
 2292 0a9f 01       		.uleb128 0x1
 2293 0aa0 51       		.byte	0x51
 2294 0aa1 05       		.uleb128 0x5
 2295 0aa2 03       		.byte	0x3
 2296 0aa3 14000000 		.4byte	.LC5
 2297 0aa7 00       		.byte	0
 2298 0aa8 00       		.byte	0
 2299 0aa9 1F       		.uleb128 0x1f
 2300 0aaa 7B010000 		.4byte	.LASF114
 2301 0aae 01       		.byte	0x1
 2302 0aaf 46       		.byte	0x46
 2303 0ab0 0D       		.byte	0xd
 2304 0ab1 00000000 		.4byte	.LFB8
 2305 0ab5 20010000 		.4byte	.LFE8-.LFB8
 2306 0ab9 01       		.uleb128 0x1
 2307 0aba 9C       		.byte	0x9c
 2308 0abb BD0B0000 		.4byte	0xbbd
 2309 0abf 22       		.uleb128 0x22
 2310 0ac0 38000000 		.4byte	.LVL0
 2311 0ac4 1E0D0000 		.4byte	0xd1e
 2312 0ac8 EB0A0000 		.4byte	0xaeb
 2313 0acc 23       		.uleb128 0x23
 2314 0acd 01       		.uleb128 0x1
 2315 0ace 50       		.byte	0x50
 2316 0acf 03       		.uleb128 0x3
 2317 0ad0 75       		.byte	0x75
 2318 0ad1 00       		.sleb128 0
 2319 0ad2 06       		.byte	0x6
 2320 0ad3 23       		.uleb128 0x23
 2321 0ad4 01       		.uleb128 0x1
ARM GAS  /var/folders/l5/0x54b2c10074c8bt31ycjvl80000gp/T//ccBrkAPT.s 			page 42


 2322 0ad5 51       		.byte	0x51
 2323 0ad6 03       		.uleb128 0x3
 2324 0ad7 0A       		.byte	0xa
 2325 0ad8 1801     		.2byte	0x118
 2326 0ada 23       		.uleb128 0x23
 2327 0adb 01       		.uleb128 0x1
 2328 0adc 53       		.byte	0x53
 2329 0add 02       		.uleb128 0x2
 2330 0ade 76       		.byte	0x76
 2331 0adf 00       		.sleb128 0
 2332 0ae0 23       		.uleb128 0x23
 2333 0ae1 02       		.uleb128 0x2
 2334 0ae2 7D       		.byte	0x7d
 2335 0ae3 00       		.sleb128 0
 2336 0ae4 05       		.uleb128 0x5
 2337 0ae5 03       		.byte	0x3
 2338 0ae6 00000000 		.4byte	.LC0
 2339 0aea 00       		.byte	0
 2340 0aeb 22       		.uleb128 0x22
 2341 0aec 64000000 		.4byte	.LVL1
 2342 0af0 1E0D0000 		.4byte	0xd1e
 2343 0af4 170B0000 		.4byte	0xb17
 2344 0af8 23       		.uleb128 0x23
 2345 0af9 01       		.uleb128 0x1
 2346 0afa 50       		.byte	0x50
 2347 0afb 03       		.uleb128 0x3
 2348 0afc 75       		.byte	0x75
 2349 0afd 04       		.sleb128 4
 2350 0afe 06       		.byte	0x6
 2351 0aff 23       		.uleb128 0x23
 2352 0b00 01       		.uleb128 0x1
 2353 0b01 51       		.byte	0x51
 2354 0b02 03       		.uleb128 0x3
 2355 0b03 0A       		.byte	0xa
 2356 0b04 1801     		.2byte	0x118
 2357 0b06 23       		.uleb128 0x23
 2358 0b07 01       		.uleb128 0x1
 2359 0b08 53       		.byte	0x53
 2360 0b09 02       		.uleb128 0x2
 2361 0b0a 76       		.byte	0x76
 2362 0b0b 00       		.sleb128 0
 2363 0b0c 23       		.uleb128 0x23
 2364 0b0d 02       		.uleb128 0x2
 2365 0b0e 7D       		.byte	0x7d
 2366 0b0f 00       		.sleb128 0
 2367 0b10 05       		.uleb128 0x5
 2368 0b11 03       		.byte	0x3
 2369 0b12 04000000 		.4byte	.LC1
 2370 0b16 00       		.byte	0
 2371 0b17 22       		.uleb128 0x22
 2372 0b18 8C000000 		.4byte	.LVL2
 2373 0b1c 1E0D0000 		.4byte	0xd1e
 2374 0b20 430B0000 		.4byte	0xb43
 2375 0b24 23       		.uleb128 0x23
 2376 0b25 01       		.uleb128 0x1
 2377 0b26 50       		.byte	0x50
 2378 0b27 03       		.uleb128 0x3
ARM GAS  /var/folders/l5/0x54b2c10074c8bt31ycjvl80000gp/T//ccBrkAPT.s 			page 43


 2379 0b28 75       		.byte	0x75
 2380 0b29 08       		.sleb128 8
 2381 0b2a 06       		.byte	0x6
 2382 0b2b 23       		.uleb128 0x23
 2383 0b2c 01       		.uleb128 0x1
 2384 0b2d 51       		.byte	0x51
 2385 0b2e 03       		.uleb128 0x3
 2386 0b2f 0A       		.byte	0xa
 2387 0b30 1801     		.2byte	0x118
 2388 0b32 23       		.uleb128 0x23
 2389 0b33 01       		.uleb128 0x1
 2390 0b34 53       		.byte	0x53
 2391 0b35 02       		.uleb128 0x2
 2392 0b36 76       		.byte	0x76
 2393 0b37 00       		.sleb128 0
 2394 0b38 23       		.uleb128 0x23
 2395 0b39 02       		.uleb128 0x2
 2396 0b3a 7D       		.byte	0x7d
 2397 0b3b 00       		.sleb128 0
 2398 0b3c 05       		.uleb128 0x5
 2399 0b3d 03       		.byte	0x3
 2400 0b3e 08000000 		.4byte	.LC2
 2401 0b42 00       		.byte	0
 2402 0b43 22       		.uleb128 0x22
 2403 0b44 B4000000 		.4byte	.LVL3
 2404 0b48 1E0D0000 		.4byte	0xd1e
 2405 0b4c 6F0B0000 		.4byte	0xb6f
 2406 0b50 23       		.uleb128 0x23
 2407 0b51 01       		.uleb128 0x1
 2408 0b52 50       		.byte	0x50
 2409 0b53 03       		.uleb128 0x3
 2410 0b54 75       		.byte	0x75
 2411 0b55 0C       		.sleb128 12
 2412 0b56 06       		.byte	0x6
 2413 0b57 23       		.uleb128 0x23
 2414 0b58 01       		.uleb128 0x1
 2415 0b59 51       		.byte	0x51
 2416 0b5a 03       		.uleb128 0x3
 2417 0b5b 0A       		.byte	0xa
 2418 0b5c 1801     		.2byte	0x118
 2419 0b5e 23       		.uleb128 0x23
 2420 0b5f 01       		.uleb128 0x1
 2421 0b60 53       		.byte	0x53
 2422 0b61 02       		.uleb128 0x2
 2423 0b62 76       		.byte	0x76
 2424 0b63 00       		.sleb128 0
 2425 0b64 23       		.uleb128 0x23
 2426 0b65 02       		.uleb128 0x2
 2427 0b66 7D       		.byte	0x7d
 2428 0b67 00       		.sleb128 0
 2429 0b68 05       		.uleb128 0x5
 2430 0b69 03       		.byte	0x3
 2431 0b6a 0C000000 		.4byte	.LC3
 2432 0b6e 00       		.byte	0
 2433 0b6f 22       		.uleb128 0x22
 2434 0b70 DC000000 		.4byte	.LVL4
 2435 0b74 1E0D0000 		.4byte	0xd1e
ARM GAS  /var/folders/l5/0x54b2c10074c8bt31ycjvl80000gp/T//ccBrkAPT.s 			page 44


 2436 0b78 9B0B0000 		.4byte	0xb9b
 2437 0b7c 23       		.uleb128 0x23
 2438 0b7d 01       		.uleb128 0x1
 2439 0b7e 50       		.byte	0x50
 2440 0b7f 03       		.uleb128 0x3
 2441 0b80 75       		.byte	0x75
 2442 0b81 10       		.sleb128 16
 2443 0b82 06       		.byte	0x6
 2444 0b83 23       		.uleb128 0x23
 2445 0b84 01       		.uleb128 0x1
 2446 0b85 51       		.byte	0x51
 2447 0b86 03       		.uleb128 0x3
 2448 0b87 0A       		.byte	0xa
 2449 0b88 1801     		.2byte	0x118
 2450 0b8a 23       		.uleb128 0x23
 2451 0b8b 01       		.uleb128 0x1
 2452 0b8c 53       		.byte	0x53
 2453 0b8d 02       		.uleb128 0x2
 2454 0b8e 76       		.byte	0x76
 2455 0b8f 00       		.sleb128 0
 2456 0b90 23       		.uleb128 0x23
 2457 0b91 02       		.uleb128 0x2
 2458 0b92 7D       		.byte	0x7d
 2459 0b93 00       		.sleb128 0
 2460 0b94 05       		.uleb128 0x5
 2461 0b95 03       		.byte	0x3
 2462 0b96 10000000 		.4byte	.LC4
 2463 0b9a 00       		.byte	0
 2464 0b9b 25       		.uleb128 0x25
 2465 0b9c E4000000 		.4byte	.LVL5
 2466 0ba0 450D0000 		.4byte	0xd45
 2467 0ba4 26       		.uleb128 0x26
 2468 0ba5 F8000000 		.4byte	.LVL6
 2469 0ba9 510D0000 		.4byte	0xd51
 2470 0bad 23       		.uleb128 0x23
 2471 0bae 01       		.uleb128 0x1
 2472 0baf 50       		.byte	0x50
 2473 0bb0 01       		.uleb128 0x1
 2474 0bb1 31       		.byte	0x31
 2475 0bb2 23       		.uleb128 0x23
 2476 0bb3 01       		.uleb128 0x1
 2477 0bb4 51       		.byte	0x51
 2478 0bb5 05       		.uleb128 0x5
 2479 0bb6 03       		.byte	0x3
 2480 0bb7 14000000 		.4byte	.LC5
 2481 0bbb 00       		.byte	0
 2482 0bbc 00       		.byte	0
 2483 0bbd 27       		.uleb128 0x27
 2484 0bbe 57040000 		.4byte	.LASF133
 2485 0bc2 01       		.byte	0x1
 2486 0bc3 40       		.byte	0x40
 2487 0bc4 0E       		.byte	0xe
 2488 0bc5 07010000 		.4byte	0x107
 2489 0bc9 00000000 		.4byte	.LFB7
 2490 0bcd 14000000 		.4byte	.LFE7-.LFB7
 2491 0bd1 01       		.uleb128 0x1
 2492 0bd2 9C       		.byte	0x9c
ARM GAS  /var/folders/l5/0x54b2c10074c8bt31ycjvl80000gp/T//ccBrkAPT.s 			page 45


 2493 0bd3 F30B0000 		.4byte	0xbf3
 2494 0bd7 28       		.uleb128 0x28
 2495 0bd8 7000     		.ascii	"p\000"
 2496 0bda 01       		.byte	0x1
 2497 0bdb 40       		.byte	0x40
 2498 0bdc 1B       		.byte	0x1b
 2499 0bdd A5020000 		.4byte	0x2a5
 2500 0be1 62000000 		.4byte	.LLST0
 2501 0be5 5E000000 		.4byte	.LVUS0
 2502 0be9 25       		.uleb128 0x25
 2503 0bea 0C000000 		.4byte	.LVL9
 2504 0bee 5D0D0000 		.4byte	0xd5d
 2505 0bf2 00       		.byte	0
 2506 0bf3 29       		.uleb128 0x29
 2507 0bf4 0C080000 		.4byte	0x80c
 2508 0bf8 00000000 		.4byte	.LFB11
 2509 0bfc A0000000 		.4byte	.LFE11-.LFB11
 2510 0c00 01       		.uleb128 0x1
 2511 0c01 9C       		.byte	0x9c
 2512 0c02 050D0000 		.4byte	0xd05
 2513 0c06 2A       		.uleb128 0x2a
 2514 0c07 19080000 		.4byte	0x819
 2515 0c0b 85000000 		.4byte	.LLST3
 2516 0c0f 83000000 		.4byte	.LVUS3
 2517 0c13 2B       		.uleb128 0x2b
 2518 0c14 0C080000 		.4byte	0x80c
 2519 0c18 54000000 		.4byte	.LBI4
 2520 0c1c 00       		.byte	.LVU157
 2521 0c1d 00000000 		.4byte	.Ldebug_ranges0+0
 2522 0c21 01       		.byte	0x1
 2523 0c22 C1       		.byte	0xc1
 2524 0c23 0D       		.byte	0xd
 2525 0c24 950C0000 		.4byte	0xc95
 2526 0c28 2C       		.uleb128 0x2c
 2527 0c29 00000000 		.4byte	.Ldebug_ranges0+0
 2528 0c2d 2A       		.uleb128 0x2a
 2529 0c2e 19080000 		.4byte	0x819
 2530 0c32 9E000000 		.4byte	.LLST4
 2531 0c36 98000000 		.4byte	.LVUS4
 2532 0c3a 22       		.uleb128 0x22
 2533 0c3b 60000000 		.4byte	.LVL47
 2534 0c3f 690D0000 		.4byte	0xd69
 2535 0c43 4F0C0000 		.4byte	0xc4f
 2536 0c47 23       		.uleb128 0x23
 2537 0c48 01       		.uleb128 0x1
 2538 0c49 50       		.byte	0x50
 2539 0c4a 03       		.uleb128 0x3
 2540 0c4b 0A       		.byte	0xa
 2541 0c4c E803     		.2byte	0x3e8
 2542 0c4e 00       		.byte	0
 2543 0c4f 22       		.uleb128 0x22
 2544 0c50 70000000 		.4byte	.LVL48
 2545 0c54 760D0000 		.4byte	0xd76
 2546 0c58 700C0000 		.4byte	0xc70
 2547 0c5c 23       		.uleb128 0x23
 2548 0c5d 01       		.uleb128 0x1
 2549 0c5e 50       		.byte	0x50
ARM GAS  /var/folders/l5/0x54b2c10074c8bt31ycjvl80000gp/T//ccBrkAPT.s 			page 46


 2550 0c5f 01       		.uleb128 0x1
 2551 0c60 33       		.byte	0x33
 2552 0c61 23       		.uleb128 0x23
 2553 0c62 01       		.uleb128 0x1
 2554 0c63 51       		.byte	0x51
 2555 0c64 03       		.uleb128 0x3
 2556 0c65 74       		.byte	0x74
 2557 0c66 E807     		.sleb128 1000
 2558 0c68 23       		.uleb128 0x23
 2559 0c69 01       		.uleb128 0x1
 2560 0c6a 52       		.byte	0x52
 2561 0c6b 03       		.uleb128 0x3
 2562 0c6c 74       		.byte	0x74
 2563 0c6d E907     		.sleb128 1001
 2564 0c6f 00       		.byte	0
 2565 0c70 22       		.uleb128 0x22
 2566 0c71 88000000 		.4byte	.LVL51
 2567 0c75 820D0000 		.4byte	0xd82
 2568 0c79 840C0000 		.4byte	0xc84
 2569 0c7d 23       		.uleb128 0x23
 2570 0c7e 01       		.uleb128 0x1
 2571 0c7f 50       		.byte	0x50
 2572 0c80 02       		.uleb128 0x2
 2573 0c81 75       		.byte	0x75
 2574 0c82 00       		.sleb128 0
 2575 0c83 00       		.byte	0
 2576 0c84 26       		.uleb128 0x26
 2577 0c85 9C000000 		.4byte	.LVL53
 2578 0c89 760D0000 		.4byte	0xd76
 2579 0c8d 23       		.uleb128 0x23
 2580 0c8e 01       		.uleb128 0x1
 2581 0c8f 50       		.byte	0x50
 2582 0c90 01       		.uleb128 0x1
 2583 0c91 34       		.byte	0x34
 2584 0c92 00       		.byte	0
 2585 0c93 00       		.byte	0
 2586 0c94 00       		.byte	0
 2587 0c95 25       		.uleb128 0x25
 2588 0c96 0C000000 		.4byte	.LVL39
 2589 0c9a 8F0D0000 		.4byte	0xd8f
 2590 0c9e 22       		.uleb128 0x22
 2591 0c9f 18000000 		.4byte	.LVL41
 2592 0ca3 690D0000 		.4byte	0xd69
 2593 0ca7 B20C0000 		.4byte	0xcb2
 2594 0cab 23       		.uleb128 0x23
 2595 0cac 01       		.uleb128 0x1
 2596 0cad 50       		.byte	0x50
 2597 0cae 02       		.uleb128 0x2
 2598 0caf 08       		.byte	0x8
 2599 0cb0 64       		.byte	0x64
 2600 0cb1 00       		.byte	0
 2601 0cb2 22       		.uleb128 0x22
 2602 0cb3 28000000 		.4byte	.LVL42
 2603 0cb7 760D0000 		.4byte	0xd76
 2604 0cbb D30C0000 		.4byte	0xcd3
 2605 0cbf 23       		.uleb128 0x23
 2606 0cc0 01       		.uleb128 0x1
ARM GAS  /var/folders/l5/0x54b2c10074c8bt31ycjvl80000gp/T//ccBrkAPT.s 			page 47


 2607 0cc1 50       		.byte	0x50
 2608 0cc2 01       		.uleb128 0x1
 2609 0cc3 31       		.byte	0x31
 2610 0cc4 23       		.uleb128 0x23
 2611 0cc5 01       		.uleb128 0x1
 2612 0cc6 51       		.byte	0x51
 2613 0cc7 03       		.uleb128 0x3
 2614 0cc8 74       		.byte	0x74
 2615 0cc9 E400     		.sleb128 100
 2616 0ccb 23       		.uleb128 0x23
 2617 0ccc 01       		.uleb128 0x1
 2618 0ccd 52       		.byte	0x52
 2619 0cce 03       		.uleb128 0x3
 2620 0ccf 74       		.byte	0x74
 2621 0cd0 E500     		.sleb128 101
 2622 0cd2 00       		.byte	0
 2623 0cd3 22       		.uleb128 0x22
 2624 0cd4 3C000000 		.4byte	.LVL44
 2625 0cd8 690D0000 		.4byte	0xd69
 2626 0cdc E70C0000 		.4byte	0xce7
 2627 0ce0 23       		.uleb128 0x23
 2628 0ce1 01       		.uleb128 0x1
 2629 0ce2 50       		.byte	0x50
 2630 0ce3 02       		.uleb128 0x2
 2631 0ce4 08       		.byte	0x8
 2632 0ce5 64       		.byte	0x64
 2633 0ce6 00       		.byte	0
 2634 0ce7 24       		.uleb128 0x24
 2635 0ce8 4C000000 		.4byte	.LVL45
 2636 0cec 760D0000 		.4byte	0xd76
 2637 0cf0 23       		.uleb128 0x23
 2638 0cf1 01       		.uleb128 0x1
 2639 0cf2 50       		.byte	0x50
 2640 0cf3 01       		.uleb128 0x1
 2641 0cf4 32       		.byte	0x32
 2642 0cf5 23       		.uleb128 0x23
 2643 0cf6 01       		.uleb128 0x1
 2644 0cf7 51       		.byte	0x51
 2645 0cf8 03       		.uleb128 0x3
 2646 0cf9 74       		.byte	0x74
 2647 0cfa E400     		.sleb128 100
 2648 0cfc 23       		.uleb128 0x23
 2649 0cfd 01       		.uleb128 0x1
 2650 0cfe 52       		.byte	0x52
 2651 0cff 03       		.uleb128 0x3
 2652 0d00 74       		.byte	0x74
 2653 0d01 E500     		.sleb128 101
 2654 0d03 00       		.byte	0
 2655 0d04 00       		.byte	0
 2656 0d05 2D       		.uleb128 0x2d
 2657 0d06 4E010000 		.4byte	.LASF115
 2658 0d0a 4E010000 		.4byte	.LASF115
 2659 0d0e 06       		.byte	0x6
 2660 0d0f 6601     		.2byte	0x166
 2661 0d11 0B       		.byte	0xb
 2662 0d12 2E       		.uleb128 0x2e
 2663 0d13 E7050000 		.4byte	.LASF116
ARM GAS  /var/folders/l5/0x54b2c10074c8bt31ycjvl80000gp/T//ccBrkAPT.s 			page 48


 2664 0d17 E7050000 		.4byte	.LASF116
 2665 0d1b 0D       		.byte	0xd
 2666 0d1c 5C       		.byte	0x5c
 2667 0d1d 0A       		.byte	0xa
 2668 0d1e 2D       		.uleb128 0x2d
 2669 0d1f 15030000 		.4byte	.LASF117
 2670 0d23 15030000 		.4byte	.LASF117
 2671 0d27 06       		.byte	0x6
 2672 0d28 6401     		.2byte	0x164
 2673 0d2a 0B       		.byte	0xb
 2674 0d2b 2D       		.uleb128 0x2d
 2675 0d2c E4000000 		.4byte	.LASF118
 2676 0d30 E4000000 		.4byte	.LASF118
 2677 0d34 06       		.byte	0x6
 2678 0d35 6201     		.2byte	0x162
 2679 0d37 0B       		.byte	0xb
 2680 0d38 2D       		.uleb128 0x2d
 2681 0d39 7B030000 		.4byte	.LASF119
 2682 0d3d 7B030000 		.4byte	.LASF119
 2683 0d41 06       		.byte	0x6
 2684 0d42 6701     		.2byte	0x167
 2685 0d44 0B       		.byte	0xb
 2686 0d45 2E       		.uleb128 0x2e
 2687 0d46 93030000 		.4byte	.LASF120
 2688 0d4a 93030000 		.4byte	.LASF120
 2689 0d4e 0D       		.byte	0xd
 2690 0d4f 60       		.byte	0x60
 2691 0d50 08       		.byte	0x8
 2692 0d51 2E       		.uleb128 0x2e
 2693 0d52 CE030000 		.4byte	.LASF121
 2694 0d56 CE030000 		.4byte	.LASF121
 2695 0d5a 0D       		.byte	0xd
 2696 0d5b 5D       		.byte	0x5d
 2697 0d5c 0A       		.byte	0xa
 2698 0d5d 2E       		.uleb128 0x2e
 2699 0d5e C6000000 		.4byte	.LASF122
 2700 0d62 C6000000 		.4byte	.LASF122
 2701 0d66 0D       		.byte	0xd
 2702 0d67 5A       		.byte	0x5a
 2703 0d68 08       		.byte	0x8
 2704 0d69 2D       		.uleb128 0x2d
 2705 0d6a FF040000 		.4byte	.LASF123
 2706 0d6e FF040000 		.4byte	.LASF123
 2707 0d72 06       		.byte	0x6
 2708 0d73 6901     		.2byte	0x169
 2709 0d75 08       		.byte	0x8
 2710 0d76 2E       		.uleb128 0x2e
 2711 0d77 03010000 		.4byte	.LASF124
 2712 0d7b 03010000 		.4byte	.LASF124
 2713 0d7f 0D       		.byte	0xd
 2714 0d80 5E       		.byte	0x5e
 2715 0d81 0A       		.byte	0xa
 2716 0d82 2D       		.uleb128 0x2d
 2717 0d83 FB030000 		.4byte	.LASF125
 2718 0d87 FB030000 		.4byte	.LASF125
 2719 0d8b 06       		.byte	0x6
 2720 0d8c 6A01     		.2byte	0x16a
ARM GAS  /var/folders/l5/0x54b2c10074c8bt31ycjvl80000gp/T//ccBrkAPT.s 			page 49


 2721 0d8e 08       		.byte	0x8
 2722 0d8f 2E       		.uleb128 0x2e
 2723 0d90 74040000 		.4byte	.LASF126
 2724 0d94 74040000 		.4byte	.LASF126
 2725 0d98 0D       		.byte	0xd
 2726 0d99 61       		.byte	0x61
 2727 0d9a 0D       		.byte	0xd
 2728 0d9b 00       		.byte	0
 2729              		.section	.debug_abbrev,"",%progbits
 2730              	.Ldebug_abbrev0:
 2731 0000 01       		.uleb128 0x1
 2732 0001 11       		.uleb128 0x11
 2733 0002 01       		.byte	0x1
 2734 0003 25       		.uleb128 0x25
 2735 0004 0E       		.uleb128 0xe
 2736 0005 13       		.uleb128 0x13
 2737 0006 0B       		.uleb128 0xb
 2738 0007 03       		.uleb128 0x3
 2739 0008 0E       		.uleb128 0xe
 2740 0009 1B       		.uleb128 0x1b
 2741 000a 0E       		.uleb128 0xe
 2742 000b 55       		.uleb128 0x55
 2743 000c 17       		.uleb128 0x17
 2744 000d 11       		.uleb128 0x11
 2745 000e 01       		.uleb128 0x1
 2746 000f 10       		.uleb128 0x10
 2747 0010 17       		.uleb128 0x17
 2748 0011 00       		.byte	0
 2749 0012 00       		.byte	0
 2750 0013 02       		.uleb128 0x2
 2751 0014 24       		.uleb128 0x24
 2752 0015 00       		.byte	0
 2753 0016 0B       		.uleb128 0xb
 2754 0017 0B       		.uleb128 0xb
 2755 0018 3E       		.uleb128 0x3e
 2756 0019 0B       		.uleb128 0xb
 2757 001a 03       		.uleb128 0x3
 2758 001b 08       		.uleb128 0x8
 2759 001c 00       		.byte	0
 2760 001d 00       		.byte	0
 2761 001e 03       		.uleb128 0x3
 2762 001f 24       		.uleb128 0x24
 2763 0020 00       		.byte	0
 2764 0021 0B       		.uleb128 0xb
 2765 0022 0B       		.uleb128 0xb
 2766 0023 3E       		.uleb128 0x3e
 2767 0024 0B       		.uleb128 0xb
 2768 0025 03       		.uleb128 0x3
 2769 0026 0E       		.uleb128 0xe
 2770 0027 00       		.byte	0
 2771 0028 00       		.byte	0
 2772 0029 04       		.uleb128 0x4
 2773 002a 16       		.uleb128 0x16
 2774 002b 00       		.byte	0
 2775 002c 03       		.uleb128 0x3
 2776 002d 0E       		.uleb128 0xe
 2777 002e 3A       		.uleb128 0x3a
ARM GAS  /var/folders/l5/0x54b2c10074c8bt31ycjvl80000gp/T//ccBrkAPT.s 			page 50


 2778 002f 0B       		.uleb128 0xb
 2779 0030 3B       		.uleb128 0x3b
 2780 0031 0B       		.uleb128 0xb
 2781 0032 39       		.uleb128 0x39
 2782 0033 0B       		.uleb128 0xb
 2783 0034 49       		.uleb128 0x49
 2784 0035 13       		.uleb128 0x13
 2785 0036 00       		.byte	0
 2786 0037 00       		.byte	0
 2787 0038 05       		.uleb128 0x5
 2788 0039 35       		.uleb128 0x35
 2789 003a 00       		.byte	0
 2790 003b 49       		.uleb128 0x49
 2791 003c 13       		.uleb128 0x13
 2792 003d 00       		.byte	0
 2793 003e 00       		.byte	0
 2794 003f 06       		.uleb128 0x6
 2795 0040 13       		.uleb128 0x13
 2796 0041 01       		.byte	0x1
 2797 0042 03       		.uleb128 0x3
 2798 0043 0E       		.uleb128 0xe
 2799 0044 0B       		.uleb128 0xb
 2800 0045 0B       		.uleb128 0xb
 2801 0046 3A       		.uleb128 0x3a
 2802 0047 0B       		.uleb128 0xb
 2803 0048 3B       		.uleb128 0x3b
 2804 0049 0B       		.uleb128 0xb
 2805 004a 39       		.uleb128 0x39
 2806 004b 0B       		.uleb128 0xb
 2807 004c 01       		.uleb128 0x1
 2808 004d 13       		.uleb128 0x13
 2809 004e 00       		.byte	0
 2810 004f 00       		.byte	0
 2811 0050 07       		.uleb128 0x7
 2812 0051 0D       		.uleb128 0xd
 2813 0052 00       		.byte	0
 2814 0053 03       		.uleb128 0x3
 2815 0054 0E       		.uleb128 0xe
 2816 0055 3A       		.uleb128 0x3a
 2817 0056 0B       		.uleb128 0xb
 2818 0057 3B       		.uleb128 0x3b
 2819 0058 0B       		.uleb128 0xb
 2820 0059 39       		.uleb128 0x39
 2821 005a 0B       		.uleb128 0xb
 2822 005b 49       		.uleb128 0x49
 2823 005c 13       		.uleb128 0x13
 2824 005d 38       		.uleb128 0x38
 2825 005e 0B       		.uleb128 0xb
 2826 005f 00       		.byte	0
 2827 0060 00       		.byte	0
 2828 0061 08       		.uleb128 0x8
 2829 0062 0D       		.uleb128 0xd
 2830 0063 00       		.byte	0
 2831 0064 03       		.uleb128 0x3
 2832 0065 08       		.uleb128 0x8
 2833 0066 3A       		.uleb128 0x3a
 2834 0067 0B       		.uleb128 0xb
ARM GAS  /var/folders/l5/0x54b2c10074c8bt31ycjvl80000gp/T//ccBrkAPT.s 			page 51


 2835 0068 3B       		.uleb128 0x3b
 2836 0069 0B       		.uleb128 0xb
 2837 006a 39       		.uleb128 0x39
 2838 006b 0B       		.uleb128 0xb
 2839 006c 49       		.uleb128 0x49
 2840 006d 13       		.uleb128 0x13
 2841 006e 38       		.uleb128 0x38
 2842 006f 0B       		.uleb128 0xb
 2843 0070 00       		.byte	0
 2844 0071 00       		.byte	0
 2845 0072 09       		.uleb128 0x9
 2846 0073 13       		.uleb128 0x13
 2847 0074 01       		.byte	0x1
 2848 0075 0B       		.uleb128 0xb
 2849 0076 0B       		.uleb128 0xb
 2850 0077 3A       		.uleb128 0x3a
 2851 0078 0B       		.uleb128 0xb
 2852 0079 3B       		.uleb128 0x3b
 2853 007a 0B       		.uleb128 0xb
 2854 007b 39       		.uleb128 0x39
 2855 007c 0B       		.uleb128 0xb
 2856 007d 01       		.uleb128 0x1
 2857 007e 13       		.uleb128 0x13
 2858 007f 00       		.byte	0
 2859 0080 00       		.byte	0
 2860 0081 0A       		.uleb128 0xa
 2861 0082 0F       		.uleb128 0xf
 2862 0083 00       		.byte	0
 2863 0084 0B       		.uleb128 0xb
 2864 0085 0B       		.uleb128 0xb
 2865 0086 49       		.uleb128 0x49
 2866 0087 13       		.uleb128 0x13
 2867 0088 00       		.byte	0
 2868 0089 00       		.byte	0
 2869 008a 0B       		.uleb128 0xb
 2870 008b 0F       		.uleb128 0xf
 2871 008c 00       		.byte	0
 2872 008d 0B       		.uleb128 0xb
 2873 008e 0B       		.uleb128 0xb
 2874 008f 00       		.byte	0
 2875 0090 00       		.byte	0
 2876 0091 0C       		.uleb128 0xc
 2877 0092 26       		.uleb128 0x26
 2878 0093 00       		.byte	0
 2879 0094 49       		.uleb128 0x49
 2880 0095 13       		.uleb128 0x13
 2881 0096 00       		.byte	0
 2882 0097 00       		.byte	0
 2883 0098 0D       		.uleb128 0xd
 2884 0099 15       		.uleb128 0x15
 2885 009a 01       		.byte	0x1
 2886 009b 27       		.uleb128 0x27
 2887 009c 19       		.uleb128 0x19
 2888 009d 01       		.uleb128 0x1
 2889 009e 13       		.uleb128 0x13
 2890 009f 00       		.byte	0
 2891 00a0 00       		.byte	0
ARM GAS  /var/folders/l5/0x54b2c10074c8bt31ycjvl80000gp/T//ccBrkAPT.s 			page 52


 2892 00a1 0E       		.uleb128 0xe
 2893 00a2 05       		.uleb128 0x5
 2894 00a3 00       		.byte	0
 2895 00a4 49       		.uleb128 0x49
 2896 00a5 13       		.uleb128 0x13
 2897 00a6 00       		.byte	0
 2898 00a7 00       		.byte	0
 2899 00a8 0F       		.uleb128 0xf
 2900 00a9 34       		.uleb128 0x34
 2901 00aa 00       		.byte	0
 2902 00ab 03       		.uleb128 0x3
 2903 00ac 0E       		.uleb128 0xe
 2904 00ad 3A       		.uleb128 0x3a
 2905 00ae 0B       		.uleb128 0xb
 2906 00af 3B       		.uleb128 0x3b
 2907 00b0 0B       		.uleb128 0xb
 2908 00b1 39       		.uleb128 0x39
 2909 00b2 0B       		.uleb128 0xb
 2910 00b3 49       		.uleb128 0x49
 2911 00b4 13       		.uleb128 0x13
 2912 00b5 3F       		.uleb128 0x3f
 2913 00b6 19       		.uleb128 0x19
 2914 00b7 3C       		.uleb128 0x3c
 2915 00b8 19       		.uleb128 0x19
 2916 00b9 00       		.byte	0
 2917 00ba 00       		.byte	0
 2918 00bb 10       		.uleb128 0x10
 2919 00bc 17       		.uleb128 0x17
 2920 00bd 01       		.byte	0x1
 2921 00be 0B       		.uleb128 0xb
 2922 00bf 0B       		.uleb128 0xb
 2923 00c0 3A       		.uleb128 0x3a
 2924 00c1 0B       		.uleb128 0xb
 2925 00c2 3B       		.uleb128 0x3b
 2926 00c3 0B       		.uleb128 0xb
 2927 00c4 39       		.uleb128 0x39
 2928 00c5 0B       		.uleb128 0xb
 2929 00c6 01       		.uleb128 0x1
 2930 00c7 13       		.uleb128 0x13
 2931 00c8 00       		.byte	0
 2932 00c9 00       		.byte	0
 2933 00ca 11       		.uleb128 0x11
 2934 00cb 0D       		.uleb128 0xd
 2935 00cc 00       		.byte	0
 2936 00cd 03       		.uleb128 0x3
 2937 00ce 0E       		.uleb128 0xe
 2938 00cf 3A       		.uleb128 0x3a
 2939 00d0 0B       		.uleb128 0xb
 2940 00d1 3B       		.uleb128 0x3b
 2941 00d2 0B       		.uleb128 0xb
 2942 00d3 39       		.uleb128 0x39
 2943 00d4 0B       		.uleb128 0xb
 2944 00d5 49       		.uleb128 0x49
 2945 00d6 13       		.uleb128 0x13
 2946 00d7 00       		.byte	0
 2947 00d8 00       		.byte	0
 2948 00d9 12       		.uleb128 0x12
ARM GAS  /var/folders/l5/0x54b2c10074c8bt31ycjvl80000gp/T//ccBrkAPT.s 			page 53


 2949 00da 01       		.uleb128 0x1
 2950 00db 01       		.byte	0x1
 2951 00dc 49       		.uleb128 0x49
 2952 00dd 13       		.uleb128 0x13
 2953 00de 01       		.uleb128 0x1
 2954 00df 13       		.uleb128 0x13
 2955 00e0 00       		.byte	0
 2956 00e1 00       		.byte	0
 2957 00e2 13       		.uleb128 0x13
 2958 00e3 21       		.uleb128 0x21
 2959 00e4 00       		.byte	0
 2960 00e5 49       		.uleb128 0x49
 2961 00e6 13       		.uleb128 0x13
 2962 00e7 2F       		.uleb128 0x2f
 2963 00e8 0B       		.uleb128 0xb
 2964 00e9 00       		.byte	0
 2965 00ea 00       		.byte	0
 2966 00eb 14       		.uleb128 0x14
 2967 00ec 15       		.uleb128 0x15
 2968 00ed 00       		.byte	0
 2969 00ee 27       		.uleb128 0x27
 2970 00ef 19       		.uleb128 0x19
 2971 00f0 00       		.byte	0
 2972 00f1 00       		.byte	0
 2973 00f2 15       		.uleb128 0x15
 2974 00f3 13       		.uleb128 0x13
 2975 00f4 01       		.byte	0x1
 2976 00f5 0B       		.uleb128 0xb
 2977 00f6 05       		.uleb128 0x5
 2978 00f7 3A       		.uleb128 0x3a
 2979 00f8 0B       		.uleb128 0xb
 2980 00f9 3B       		.uleb128 0x3b
 2981 00fa 0B       		.uleb128 0xb
 2982 00fb 39       		.uleb128 0x39
 2983 00fc 0B       		.uleb128 0xb
 2984 00fd 01       		.uleb128 0x1
 2985 00fe 13       		.uleb128 0x13
 2986 00ff 00       		.byte	0
 2987 0100 00       		.byte	0
 2988 0101 16       		.uleb128 0x16
 2989 0102 0D       		.uleb128 0xd
 2990 0103 00       		.byte	0
 2991 0104 03       		.uleb128 0x3
 2992 0105 08       		.uleb128 0x8
 2993 0106 3A       		.uleb128 0x3a
 2994 0107 0B       		.uleb128 0xb
 2995 0108 3B       		.uleb128 0x3b
 2996 0109 0B       		.uleb128 0xb
 2997 010a 39       		.uleb128 0x39
 2998 010b 0B       		.uleb128 0xb
 2999 010c 49       		.uleb128 0x49
 3000 010d 13       		.uleb128 0x13
 3001 010e 38       		.uleb128 0x38
 3002 010f 05       		.uleb128 0x5
 3003 0110 00       		.byte	0
 3004 0111 00       		.byte	0
 3005 0112 17       		.uleb128 0x17
ARM GAS  /var/folders/l5/0x54b2c10074c8bt31ycjvl80000gp/T//ccBrkAPT.s 			page 54


 3006 0113 17       		.uleb128 0x17
 3007 0114 01       		.byte	0x1
 3008 0115 03       		.uleb128 0x3
 3009 0116 0E       		.uleb128 0xe
 3010 0117 0B       		.uleb128 0xb
 3011 0118 05       		.uleb128 0x5
 3012 0119 3A       		.uleb128 0x3a
 3013 011a 0B       		.uleb128 0xb
 3014 011b 3B       		.uleb128 0x3b
 3015 011c 0B       		.uleb128 0xb
 3016 011d 39       		.uleb128 0x39
 3017 011e 0B       		.uleb128 0xb
 3018 011f 01       		.uleb128 0x1
 3019 0120 13       		.uleb128 0x13
 3020 0121 00       		.byte	0
 3021 0122 00       		.byte	0
 3022 0123 18       		.uleb128 0x18
 3023 0124 0D       		.uleb128 0xd
 3024 0125 00       		.byte	0
 3025 0126 03       		.uleb128 0x3
 3026 0127 08       		.uleb128 0x8
 3027 0128 3A       		.uleb128 0x3a
 3028 0129 0B       		.uleb128 0xb
 3029 012a 3B       		.uleb128 0x3b
 3030 012b 0B       		.uleb128 0xb
 3031 012c 39       		.uleb128 0x39
 3032 012d 0B       		.uleb128 0xb
 3033 012e 49       		.uleb128 0x49
 3034 012f 13       		.uleb128 0x13
 3035 0130 00       		.byte	0
 3036 0131 00       		.byte	0
 3037 0132 19       		.uleb128 0x19
 3038 0133 21       		.uleb128 0x21
 3039 0134 00       		.byte	0
 3040 0135 49       		.uleb128 0x49
 3041 0136 13       		.uleb128 0x13
 3042 0137 2F       		.uleb128 0x2f
 3043 0138 05       		.uleb128 0x5
 3044 0139 00       		.byte	0
 3045 013a 00       		.byte	0
 3046 013b 1A       		.uleb128 0x1a
 3047 013c 21       		.uleb128 0x21
 3048 013d 00       		.byte	0
 3049 013e 00       		.byte	0
 3050 013f 00       		.byte	0
 3051 0140 1B       		.uleb128 0x1b
 3052 0141 34       		.uleb128 0x34
 3053 0142 00       		.byte	0
 3054 0143 03       		.uleb128 0x3
 3055 0144 08       		.uleb128 0x8
 3056 0145 3A       		.uleb128 0x3a
 3057 0146 0B       		.uleb128 0xb
 3058 0147 3B       		.uleb128 0x3b
 3059 0148 0B       		.uleb128 0xb
 3060 0149 39       		.uleb128 0x39
 3061 014a 0B       		.uleb128 0xb
 3062 014b 49       		.uleb128 0x49
ARM GAS  /var/folders/l5/0x54b2c10074c8bt31ycjvl80000gp/T//ccBrkAPT.s 			page 55


 3063 014c 13       		.uleb128 0x13
 3064 014d 3F       		.uleb128 0x3f
 3065 014e 19       		.uleb128 0x19
 3066 014f 3C       		.uleb128 0x3c
 3067 0150 19       		.uleb128 0x19
 3068 0151 00       		.byte	0
 3069 0152 00       		.byte	0
 3070 0153 1C       		.uleb128 0x1c
 3071 0154 34       		.uleb128 0x34
 3072 0155 00       		.byte	0
 3073 0156 03       		.uleb128 0x3
 3074 0157 0E       		.uleb128 0xe
 3075 0158 3A       		.uleb128 0x3a
 3076 0159 0B       		.uleb128 0xb
 3077 015a 3B       		.uleb128 0x3b
 3078 015b 0B       		.uleb128 0xb
 3079 015c 39       		.uleb128 0x39
 3080 015d 0B       		.uleb128 0xb
 3081 015e 49       		.uleb128 0x49
 3082 015f 13       		.uleb128 0x13
 3083 0160 3F       		.uleb128 0x3f
 3084 0161 19       		.uleb128 0x19
 3085 0162 02       		.uleb128 0x2
 3086 0163 18       		.uleb128 0x18
 3087 0164 00       		.byte	0
 3088 0165 00       		.byte	0
 3089 0166 1D       		.uleb128 0x1d
 3090 0167 2E       		.uleb128 0x2e
 3091 0168 01       		.byte	0x1
 3092 0169 03       		.uleb128 0x3
 3093 016a 0E       		.uleb128 0xe
 3094 016b 3A       		.uleb128 0x3a
 3095 016c 0B       		.uleb128 0xb
 3096 016d 3B       		.uleb128 0x3b
 3097 016e 0B       		.uleb128 0xb
 3098 016f 39       		.uleb128 0x39
 3099 0170 0B       		.uleb128 0xb
 3100 0171 27       		.uleb128 0x27
 3101 0172 19       		.uleb128 0x19
 3102 0173 20       		.uleb128 0x20
 3103 0174 0B       		.uleb128 0xb
 3104 0175 01       		.uleb128 0x1
 3105 0176 13       		.uleb128 0x13
 3106 0177 00       		.byte	0
 3107 0178 00       		.byte	0
 3108 0179 1E       		.uleb128 0x1e
 3109 017a 34       		.uleb128 0x34
 3110 017b 00       		.byte	0
 3111 017c 03       		.uleb128 0x3
 3112 017d 0E       		.uleb128 0xe
 3113 017e 3A       		.uleb128 0x3a
 3114 017f 0B       		.uleb128 0xb
 3115 0180 3B       		.uleb128 0x3b
 3116 0181 0B       		.uleb128 0xb
 3117 0182 39       		.uleb128 0x39
 3118 0183 0B       		.uleb128 0xb
 3119 0184 49       		.uleb128 0x49
ARM GAS  /var/folders/l5/0x54b2c10074c8bt31ycjvl80000gp/T//ccBrkAPT.s 			page 56


 3120 0185 13       		.uleb128 0x13
 3121 0186 00       		.byte	0
 3122 0187 00       		.byte	0
 3123 0188 1F       		.uleb128 0x1f
 3124 0189 2E       		.uleb128 0x2e
 3125 018a 01       		.byte	0x1
 3126 018b 03       		.uleb128 0x3
 3127 018c 0E       		.uleb128 0xe
 3128 018d 3A       		.uleb128 0x3a
 3129 018e 0B       		.uleb128 0xb
 3130 018f 3B       		.uleb128 0x3b
 3131 0190 0B       		.uleb128 0xb
 3132 0191 39       		.uleb128 0x39
 3133 0192 0B       		.uleb128 0xb
 3134 0193 27       		.uleb128 0x27
 3135 0194 19       		.uleb128 0x19
 3136 0195 11       		.uleb128 0x11
 3137 0196 01       		.uleb128 0x1
 3138 0197 12       		.uleb128 0x12
 3139 0198 06       		.uleb128 0x6
 3140 0199 40       		.uleb128 0x40
 3141 019a 18       		.uleb128 0x18
 3142 019b 9742     		.uleb128 0x2117
 3143 019d 19       		.uleb128 0x19
 3144 019e 01       		.uleb128 0x1
 3145 019f 13       		.uleb128 0x13
 3146 01a0 00       		.byte	0
 3147 01a1 00       		.byte	0
 3148 01a2 20       		.uleb128 0x20
 3149 01a3 34       		.uleb128 0x34
 3150 01a4 00       		.byte	0
 3151 01a5 03       		.uleb128 0x3
 3152 01a6 0E       		.uleb128 0xe
 3153 01a7 3A       		.uleb128 0x3a
 3154 01a8 0B       		.uleb128 0xb
 3155 01a9 3B       		.uleb128 0x3b
 3156 01aa 0B       		.uleb128 0xb
 3157 01ab 39       		.uleb128 0x39
 3158 01ac 0B       		.uleb128 0xb
 3159 01ad 49       		.uleb128 0x49
 3160 01ae 13       		.uleb128 0x13
 3161 01af 02       		.uleb128 0x2
 3162 01b0 17       		.uleb128 0x17
 3163 01b1 B742     		.uleb128 0x2137
 3164 01b3 17       		.uleb128 0x17
 3165 01b4 00       		.byte	0
 3166 01b5 00       		.byte	0
 3167 01b6 21       		.uleb128 0x21
 3168 01b7 34       		.uleb128 0x34
 3169 01b8 00       		.byte	0
 3170 01b9 03       		.uleb128 0x3
 3171 01ba 08       		.uleb128 0x8
 3172 01bb 3A       		.uleb128 0x3a
 3173 01bc 0B       		.uleb128 0xb
 3174 01bd 3B       		.uleb128 0x3b
 3175 01be 0B       		.uleb128 0xb
 3176 01bf 39       		.uleb128 0x39
ARM GAS  /var/folders/l5/0x54b2c10074c8bt31ycjvl80000gp/T//ccBrkAPT.s 			page 57


 3177 01c0 0B       		.uleb128 0xb
 3178 01c1 49       		.uleb128 0x49
 3179 01c2 13       		.uleb128 0x13
 3180 01c3 02       		.uleb128 0x2
 3181 01c4 17       		.uleb128 0x17
 3182 01c5 B742     		.uleb128 0x2137
 3183 01c7 17       		.uleb128 0x17
 3184 01c8 00       		.byte	0
 3185 01c9 00       		.byte	0
 3186 01ca 22       		.uleb128 0x22
 3187 01cb 898201   		.uleb128 0x4109
 3188 01ce 01       		.byte	0x1
 3189 01cf 11       		.uleb128 0x11
 3190 01d0 01       		.uleb128 0x1
 3191 01d1 31       		.uleb128 0x31
 3192 01d2 13       		.uleb128 0x13
 3193 01d3 01       		.uleb128 0x1
 3194 01d4 13       		.uleb128 0x13
 3195 01d5 00       		.byte	0
 3196 01d6 00       		.byte	0
 3197 01d7 23       		.uleb128 0x23
 3198 01d8 8A8201   		.uleb128 0x410a
 3199 01db 00       		.byte	0
 3200 01dc 02       		.uleb128 0x2
 3201 01dd 18       		.uleb128 0x18
 3202 01de 9142     		.uleb128 0x2111
 3203 01e0 18       		.uleb128 0x18
 3204 01e1 00       		.byte	0
 3205 01e2 00       		.byte	0
 3206 01e3 24       		.uleb128 0x24
 3207 01e4 898201   		.uleb128 0x4109
 3208 01e7 01       		.byte	0x1
 3209 01e8 11       		.uleb128 0x11
 3210 01e9 01       		.uleb128 0x1
 3211 01ea 31       		.uleb128 0x31
 3212 01eb 13       		.uleb128 0x13
 3213 01ec 00       		.byte	0
 3214 01ed 00       		.byte	0
 3215 01ee 25       		.uleb128 0x25
 3216 01ef 898201   		.uleb128 0x4109
 3217 01f2 00       		.byte	0
 3218 01f3 11       		.uleb128 0x11
 3219 01f4 01       		.uleb128 0x1
 3220 01f5 31       		.uleb128 0x31
 3221 01f6 13       		.uleb128 0x13
 3222 01f7 00       		.byte	0
 3223 01f8 00       		.byte	0
 3224 01f9 26       		.uleb128 0x26
 3225 01fa 898201   		.uleb128 0x4109
 3226 01fd 01       		.byte	0x1
 3227 01fe 11       		.uleb128 0x11
 3228 01ff 01       		.uleb128 0x1
 3229 0200 9542     		.uleb128 0x2115
 3230 0202 19       		.uleb128 0x19
 3231 0203 31       		.uleb128 0x31
 3232 0204 13       		.uleb128 0x13
 3233 0205 00       		.byte	0
ARM GAS  /var/folders/l5/0x54b2c10074c8bt31ycjvl80000gp/T//ccBrkAPT.s 			page 58


 3234 0206 00       		.byte	0
 3235 0207 27       		.uleb128 0x27
 3236 0208 2E       		.uleb128 0x2e
 3237 0209 01       		.byte	0x1
 3238 020a 03       		.uleb128 0x3
 3239 020b 0E       		.uleb128 0xe
 3240 020c 3A       		.uleb128 0x3a
 3241 020d 0B       		.uleb128 0xb
 3242 020e 3B       		.uleb128 0x3b
 3243 020f 0B       		.uleb128 0xb
 3244 0210 39       		.uleb128 0x39
 3245 0211 0B       		.uleb128 0xb
 3246 0212 27       		.uleb128 0x27
 3247 0213 19       		.uleb128 0x19
 3248 0214 49       		.uleb128 0x49
 3249 0215 13       		.uleb128 0x13
 3250 0216 11       		.uleb128 0x11
 3251 0217 01       		.uleb128 0x1
 3252 0218 12       		.uleb128 0x12
 3253 0219 06       		.uleb128 0x6
 3254 021a 40       		.uleb128 0x40
 3255 021b 18       		.uleb128 0x18
 3256 021c 9742     		.uleb128 0x2117
 3257 021e 19       		.uleb128 0x19
 3258 021f 01       		.uleb128 0x1
 3259 0220 13       		.uleb128 0x13
 3260 0221 00       		.byte	0
 3261 0222 00       		.byte	0
 3262 0223 28       		.uleb128 0x28
 3263 0224 05       		.uleb128 0x5
 3264 0225 00       		.byte	0
 3265 0226 03       		.uleb128 0x3
 3266 0227 08       		.uleb128 0x8
 3267 0228 3A       		.uleb128 0x3a
 3268 0229 0B       		.uleb128 0xb
 3269 022a 3B       		.uleb128 0x3b
 3270 022b 0B       		.uleb128 0xb
 3271 022c 39       		.uleb128 0x39
 3272 022d 0B       		.uleb128 0xb
 3273 022e 49       		.uleb128 0x49
 3274 022f 13       		.uleb128 0x13
 3275 0230 02       		.uleb128 0x2
 3276 0231 17       		.uleb128 0x17
 3277 0232 B742     		.uleb128 0x2137
 3278 0234 17       		.uleb128 0x17
 3279 0235 00       		.byte	0
 3280 0236 00       		.byte	0
 3281 0237 29       		.uleb128 0x29
 3282 0238 2E       		.uleb128 0x2e
 3283 0239 01       		.byte	0x1
 3284 023a 31       		.uleb128 0x31
 3285 023b 13       		.uleb128 0x13
 3286 023c 11       		.uleb128 0x11
 3287 023d 01       		.uleb128 0x1
 3288 023e 12       		.uleb128 0x12
 3289 023f 06       		.uleb128 0x6
 3290 0240 40       		.uleb128 0x40
ARM GAS  /var/folders/l5/0x54b2c10074c8bt31ycjvl80000gp/T//ccBrkAPT.s 			page 59


 3291 0241 18       		.uleb128 0x18
 3292 0242 9742     		.uleb128 0x2117
 3293 0244 19       		.uleb128 0x19
 3294 0245 01       		.uleb128 0x1
 3295 0246 13       		.uleb128 0x13
 3296 0247 00       		.byte	0
 3297 0248 00       		.byte	0
 3298 0249 2A       		.uleb128 0x2a
 3299 024a 34       		.uleb128 0x34
 3300 024b 00       		.byte	0
 3301 024c 31       		.uleb128 0x31
 3302 024d 13       		.uleb128 0x13
 3303 024e 02       		.uleb128 0x2
 3304 024f 17       		.uleb128 0x17
 3305 0250 B742     		.uleb128 0x2137
 3306 0252 17       		.uleb128 0x17
 3307 0253 00       		.byte	0
 3308 0254 00       		.byte	0
 3309 0255 2B       		.uleb128 0x2b
 3310 0256 1D       		.uleb128 0x1d
 3311 0257 01       		.byte	0x1
 3312 0258 31       		.uleb128 0x31
 3313 0259 13       		.uleb128 0x13
 3314 025a 52       		.uleb128 0x52
 3315 025b 01       		.uleb128 0x1
 3316 025c B842     		.uleb128 0x2138
 3317 025e 0B       		.uleb128 0xb
 3318 025f 55       		.uleb128 0x55
 3319 0260 17       		.uleb128 0x17
 3320 0261 58       		.uleb128 0x58
 3321 0262 0B       		.uleb128 0xb
 3322 0263 59       		.uleb128 0x59
 3323 0264 0B       		.uleb128 0xb
 3324 0265 57       		.uleb128 0x57
 3325 0266 0B       		.uleb128 0xb
 3326 0267 01       		.uleb128 0x1
 3327 0268 13       		.uleb128 0x13
 3328 0269 00       		.byte	0
 3329 026a 00       		.byte	0
 3330 026b 2C       		.uleb128 0x2c
 3331 026c 0B       		.uleb128 0xb
 3332 026d 01       		.byte	0x1
 3333 026e 55       		.uleb128 0x55
 3334 026f 17       		.uleb128 0x17
 3335 0270 00       		.byte	0
 3336 0271 00       		.byte	0
 3337 0272 2D       		.uleb128 0x2d
 3338 0273 2E       		.uleb128 0x2e
 3339 0274 00       		.byte	0
 3340 0275 3F       		.uleb128 0x3f
 3341 0276 19       		.uleb128 0x19
 3342 0277 3C       		.uleb128 0x3c
 3343 0278 19       		.uleb128 0x19
 3344 0279 6E       		.uleb128 0x6e
 3345 027a 0E       		.uleb128 0xe
 3346 027b 03       		.uleb128 0x3
 3347 027c 0E       		.uleb128 0xe
ARM GAS  /var/folders/l5/0x54b2c10074c8bt31ycjvl80000gp/T//ccBrkAPT.s 			page 60


 3348 027d 3A       		.uleb128 0x3a
 3349 027e 0B       		.uleb128 0xb
 3350 027f 3B       		.uleb128 0x3b
 3351 0280 05       		.uleb128 0x5
 3352 0281 39       		.uleb128 0x39
 3353 0282 0B       		.uleb128 0xb
 3354 0283 00       		.byte	0
 3355 0284 00       		.byte	0
 3356 0285 2E       		.uleb128 0x2e
 3357 0286 2E       		.uleb128 0x2e
 3358 0287 00       		.byte	0
 3359 0288 3F       		.uleb128 0x3f
 3360 0289 19       		.uleb128 0x19
 3361 028a 3C       		.uleb128 0x3c
 3362 028b 19       		.uleb128 0x19
 3363 028c 6E       		.uleb128 0x6e
 3364 028d 0E       		.uleb128 0xe
 3365 028e 03       		.uleb128 0x3
 3366 028f 0E       		.uleb128 0xe
 3367 0290 3A       		.uleb128 0x3a
 3368 0291 0B       		.uleb128 0xb
 3369 0292 3B       		.uleb128 0x3b
 3370 0293 0B       		.uleb128 0xb
 3371 0294 39       		.uleb128 0x39
 3372 0295 0B       		.uleb128 0xb
 3373 0296 00       		.byte	0
 3374 0297 00       		.byte	0
 3375 0298 00       		.byte	0
 3376              		.section	.debug_loc,"",%progbits
 3377              	.Ldebug_loc0:
 3378              	.LVUS1:
 3379 0000 00       		.uleb128 .LVU89
 3380 0001 00       		.uleb128 0
 3381              	.LLST1:
 3382 0002 10000000 		.4byte	.LVL18
 3383 0006 E0010000 		.4byte	.LFE10
 3384 000a 0100     		.2byte	0x1
 3385 000c 54       		.byte	0x54
 3386 000d 00000000 		.4byte	0
 3387 0011 00000000 		.4byte	0
 3388              	.LVUS2:
 3389 0015 00       		.uleb128 .LVU91
 3390 0016 00       		.uleb128 .LVU92
 3391 0017 00       		.uleb128 .LVU92
 3392 0018 00       		.uleb128 .LVU98
 3393 0019 00       		.uleb128 .LVU98
 3394 001a 00       		.uleb128 .LVU99
 3395 001b 00       		.uleb128 .LVU115
 3396 001c 00       		.uleb128 .LVU116
 3397 001d 00       		.uleb128 .LVU124
 3398 001e 00       		.uleb128 .LVU125
 3399              	.LLST2:
 3400 001f 20000000 		.4byte	.LVL20
 3401 0023 2C000000 		.4byte	.LVL21
 3402 0027 0100     		.2byte	0x1
 3403 0029 50       		.byte	0x50
 3404 002a 2C000000 		.4byte	.LVL21
ARM GAS  /var/folders/l5/0x54b2c10074c8bt31ycjvl80000gp/T//ccBrkAPT.s 			page 61


 3405 002e 68000000 		.4byte	.LVL24
 3406 0032 0100     		.2byte	0x1
 3407 0034 57       		.byte	0x57
 3408 0035 68000000 		.4byte	.LVL24
 3409 0039 74000000 		.4byte	.LVL25
 3410 003d 0100     		.2byte	0x1
 3411 003f 50       		.byte	0x50
 3412 0040 F0000000 		.4byte	.LVL29
 3413 0044 FC000000 		.4byte	.LVL30
 3414 0048 0100     		.2byte	0x1
 3415 004a 50       		.byte	0x50
 3416 004b 60010000 		.4byte	.LVL34
 3417 004f 6C010000 		.4byte	.LVL35
 3418 0053 0100     		.2byte	0x1
 3419 0055 50       		.byte	0x50
 3420 0056 00000000 		.4byte	0
 3421 005a 00000000 		.4byte	0
 3422              	.LVUS0:
 3423 005e 00       		.uleb128 0
 3424 005f 00       		.uleb128 .LVU39
 3425 0060 00       		.uleb128 .LVU39
 3426 0061 00       		.uleb128 0
 3427              	.LLST0:
 3428 0062 00000000 		.4byte	.LVL7
 3429 0066 08000000 		.4byte	.LVL8
 3430 006a 0100     		.2byte	0x1
 3431 006c 50       		.byte	0x50
 3432 006d 08000000 		.4byte	.LVL8
 3433 0071 14000000 		.4byte	.LFE7
 3434 0075 0400     		.2byte	0x4
 3435 0077 F3       		.byte	0xf3
 3436 0078 01       		.uleb128 0x1
 3437 0079 50       		.byte	0x50
 3438 007a 9F       		.byte	0x9f
 3439 007b 00000000 		.4byte	0
 3440 007f 00000000 		.4byte	0
 3441              	.LVUS3:
 3442 0083 00       		.uleb128 .LVU150
 3443 0084 00       		.uleb128 .LVU161
 3444              	.LLST3:
 3445 0085 10000000 		.4byte	.LVL40
 3446 0089 58000000 		.4byte	.LVL46
 3447 008d 0100     		.2byte	0x1
 3448 008f 54       		.byte	0x54
 3449 0090 00000000 		.4byte	0
 3450 0094 00000000 		.4byte	0
 3451              	.LVUS4:
 3452 0098 00       		.uleb128 .LVU161
 3453 0099 00       		.uleb128 .LVU166
 3454 009a 00       		.uleb128 .LVU167
 3455 009b 00       		.uleb128 .LVU170
 3456 009c 00       		.uleb128 .LVU170
 3457 009d 00       		.uleb128 .LVU171
 3458              	.LLST4:
 3459 009e 58000000 		.4byte	.LVL46
 3460 00a2 7C000000 		.4byte	.LVL49
 3461 00a6 0100     		.2byte	0x1
ARM GAS  /var/folders/l5/0x54b2c10074c8bt31ycjvl80000gp/T//ccBrkAPT.s 			page 62


 3462 00a8 54       		.byte	0x54
 3463 00a9 80000000 		.4byte	.LVL50
 3464 00ad 98000000 		.4byte	.LVL52
 3465 00b1 0100     		.2byte	0x1
 3466 00b3 55       		.byte	0x55
 3467 00b4 98000000 		.4byte	.LVL52
 3468 00b8 9B000000 		.4byte	.LVL53-1
 3469 00bc 0100     		.2byte	0x1
 3470 00be 51       		.byte	0x51
 3471 00bf 00000000 		.4byte	0
 3472 00c3 00000000 		.4byte	0
 3473              		.section	.debug_aranges,"",%progbits
 3474 0000 3C000000 		.4byte	0x3c
 3475 0004 0200     		.2byte	0x2
 3476 0006 00000000 		.4byte	.Ldebug_info0
 3477 000a 04       		.byte	0x4
 3478 000b 00       		.byte	0
 3479 000c 0000     		.2byte	0
 3480 000e 0000     		.2byte	0
 3481 0010 00000000 		.4byte	.LFB8
 3482 0014 20010000 		.4byte	.LFE8-.LFB8
 3483 0018 00000000 		.4byte	.LFB7
 3484 001c 14000000 		.4byte	.LFE7-.LFB7
 3485 0020 00000000 		.4byte	.LFB9
 3486 0024 30010000 		.4byte	.LFE9-.LFB9
 3487 0028 00000000 		.4byte	.LFB10
 3488 002c E0010000 		.4byte	.LFE10-.LFB10
 3489 0030 00000000 		.4byte	.LFB11
 3490 0034 A0000000 		.4byte	.LFE11-.LFB11
 3491 0038 00000000 		.4byte	0
 3492 003c 00000000 		.4byte	0
 3493              		.section	.debug_ranges,"",%progbits
 3494              	.Ldebug_ranges0:
 3495 0000 54000000 		.4byte	.LBB4
 3496 0004 94000000 		.4byte	.LBE4
 3497 0008 98000000 		.4byte	.LBB7
 3498 000c A0000000 		.4byte	.LBE7
 3499 0010 00000000 		.4byte	0
 3500 0014 00000000 		.4byte	0
 3501 0018 00000000 		.4byte	.LFB8
 3502 001c 20010000 		.4byte	.LFE8
 3503 0020 00000000 		.4byte	.LFB7
 3504 0024 14000000 		.4byte	.LFE7
 3505 0028 00000000 		.4byte	.LFB9
 3506 002c 30010000 		.4byte	.LFE9
 3507 0030 00000000 		.4byte	.LFB10
 3508 0034 E0010000 		.4byte	.LFE10
 3509 0038 00000000 		.4byte	.LFB11
 3510 003c A0000000 		.4byte	.LFE11
 3511 0040 00000000 		.4byte	0
 3512 0044 00000000 		.4byte	0
 3513              		.section	.debug_line,"",%progbits
 3514              	.Ldebug_line0:
 3515 0000 0B040000 		.section	.debug_str,"MS",%progbits,1
 3515      03008901 
 3515      00000201 
 3515      FB0E0D00 
ARM GAS  /var/folders/l5/0x54b2c10074c8bt31ycjvl80000gp/T//ccBrkAPT.s 			page 63


 3515      01010101 
 3516              	.LASF86:
 3517 0000 63665F6F 		.ascii	"cf_off_older\000"
 3517      66665F6F 
 3517      6C646572 
 3517      00
 3518              	.LASF39:
 3519 000d 705F6D73 		.ascii	"p_msg\000"
 3519      6700
 3520              	.LASF111:
 3521 0013 7072696F 		.ascii	"prio\000"
 3521      00
 3522              	.LASF71:
 3523 0018 7264796D 		.ascii	"rdymsg\000"
 3523      736700
 3524              	.LASF4:
 3525 001f 5F5F7569 		.ascii	"__uint8_t\000"
 3525      6E74385F 
 3525      7400
 3526              	.LASF65:
 3527 0029 76746C69 		.ascii	"vtlist\000"
 3527      737400
 3528              	.LASF12:
 3529 0030 6C6F6E67 		.ascii	"long long unsigned int\000"
 3529      206C6F6E 
 3529      6720756E 
 3529      7369676E 
 3529      65642069 
 3530              	.LASF82:
 3531 0047 63685F74 		.ascii	"ch_threadsize\000"
 3531      68726561 
 3531      6473697A 
 3531      6500
 3532              	.LASF72:
 3533 0055 65786974 		.ascii	"exitcode\000"
 3533      636F6465 
 3533      00
 3534              	.LASF104:
 3535 005e 74657374 		.ascii	"test\000"
 3535      00
 3536              	.LASF28:
 3537 0063 705F7072 		.ascii	"p_prio\000"
 3537      696F00
 3538              	.LASF89:
 3539 006a 63665F6F 		.ascii	"cf_off_state\000"
 3539      66665F73 
 3539      74617465 
 3539      00
 3540              	.LASF100:
 3541 0077 74656172 		.ascii	"teardown\000"
 3541      646F776E 
 3541      00
 3542              	.LASF11:
 3543 0080 6C6F6E67 		.ascii	"long long int\000"
 3543      206C6F6E 
 3543      6720696E 
 3543      7400
ARM GAS  /var/folders/l5/0x54b2c10074c8bt31ycjvl80000gp/T//ccBrkAPT.s 			page 64


 3544              	.LASF1:
 3545 008e 7369676E 		.ascii	"signed char\000"
 3545      65642063 
 3545      68617200 
 3546              	.LASF88:
 3547 009a 63665F6F 		.ascii	"cf_off_stklimit\000"
 3547      66665F73 
 3547      746B6C69 
 3547      6D697400 
 3548              	.LASF90:
 3549 00aa 63665F6F 		.ascii	"cf_off_flags\000"
 3549      66665F66 
 3549      6C616773 
 3549      00
 3550              	.LASF17:
 3551 00b7 626F6F6C 		.ascii	"bool_t\000"
 3551      5F7400
 3552              	.LASF68:
 3553 00be 6D5F7175 		.ascii	"m_queue\000"
 3553      65756500 
 3554              	.LASF122:
 3555 00c6 74657374 		.ascii	"test_emit_token\000"
 3555      5F656D69 
 3555      745F746F 
 3555      6B656E00 
 3556              	.LASF76:
 3557 00d6 63685F69 		.ascii	"ch_identifier\000"
 3557      64656E74 
 3557      69666965 
 3557      7200
 3558              	.LASF118:
 3559 00e4 63685468 		.ascii	"chThdCreateI\000"
 3559      64437265 
 3559      61746549 
 3559      00
 3560              	.LASF8:
 3561 00f1 6C6F6E67 		.ascii	"long int\000"
 3561      20696E74 
 3561      00
 3562              	.LASF19:
 3563 00fa 74737461 		.ascii	"tstate_t\000"
 3563      74655F74 
 3563      00
 3564              	.LASF124:
 3565 0103 5F746573 		.ascii	"_test_assert_time_window\000"
 3565      745F6173 
 3565      73657274 
 3565      5F74696D 
 3565      655F7769 
 3566              	.LASF14:
 3567 011c 75696E74 		.ascii	"uint16_t\000"
 3567      31365F74 
 3567      00
 3568              	.LASF94:
 3569 0125 63686465 		.ascii	"chdebug_t\000"
 3569      6275675F 
 3569      7400
ARM GAS  /var/folders/l5/0x54b2c10074c8bt31ycjvl80000gp/T//ccBrkAPT.s 			page 65


 3570              	.LASF102:
 3571 012f 62756666 		.ascii	"buffer\000"
 3571      657200
 3572              	.LASF30:
 3573 0136 705F6E65 		.ascii	"p_newer\000"
 3573      77657200 
 3574              	.LASF96:
 3575 013e 5F69646C 		.ascii	"_idle_thread_wa\000"
 3575      655F7468 
 3575      72656164 
 3575      5F776100 
 3576              	.LASF115:
 3577 014e 63685468 		.ascii	"chThdSetPriority\000"
 3577      64536574 
 3577      5072696F 
 3577      72697479 
 3577      00
 3578              	.LASF9:
 3579 015f 5F5F7569 		.ascii	"__uint32_t\000"
 3579      6E743332 
 3579      5F7400
 3580              	.LASF46:
 3581 016a 72656761 		.ascii	"regarm_t\000"
 3581      726D5F74 
 3581      00
 3582              	.LASF52:
 3583 0173 76745F70 		.ascii	"vt_prev\000"
 3583      72657600 
 3584              	.LASF114:
 3585 017b 74686431 		.ascii	"thd1_execute\000"
 3585      5F657865 
 3585      63757465 
 3585      00
 3586              	.LASF0:
 3587 0188 756E7369 		.ascii	"unsigned int\000"
 3587      676E6564 
 3587      20696E74 
 3587      00
 3588              	.LASF51:
 3589 0195 76745F6E 		.ascii	"vt_next\000"
 3589      65787400 
 3590              	.LASF10:
 3591 019d 6C6F6E67 		.ascii	"long unsigned int\000"
 3591      20756E73 
 3591      69676E65 
 3591      6420696E 
 3591      7400
 3592              	.LASF95:
 3593 01af 63685F64 		.ascii	"ch_debug\000"
 3593      65627567 
 3593      00
 3594              	.LASF105:
 3595 01b8 74657374 		.ascii	"test_timer_done\000"
 3595      5F74696D 
 3595      65725F64 
 3595      6F6E6500 
 3596              	.LASF49:
ARM GAS  /var/folders/l5/0x54b2c10074c8bt31ycjvl80000gp/T//ccBrkAPT.s 			page 66


 3597 01c8 76746675 		.ascii	"vtfunc_t\000"
 3597      6E635F74 
 3597      00
 3598              	.LASF98:
 3599 01d1 6E616D65 		.ascii	"name\000"
 3599      00
 3600              	.LASF48:
 3601 01d6 636F6E74 		.ascii	"context\000"
 3601      65787400 
 3602              	.LASF6:
 3603 01de 73686F72 		.ascii	"short unsigned int\000"
 3603      7420756E 
 3603      7369676E 
 3603      65642069 
 3603      6E7400
 3604              	.LASF113:
 3605 01f1 74686432 		.ascii	"thd2_execute\000"
 3605      5F657865 
 3605      63757465 
 3605      00
 3606              	.LASF22:
 3607 01fe 6D73675F 		.ascii	"msg_t\000"
 3607      7400
 3608              	.LASF61:
 3609 0204 725F6E65 		.ascii	"r_newer\000"
 3609      77657200 
 3610              	.LASF127:
 3611 020c 474E5520 		.ascii	"GNU C17 8.3.1 20190703 (release) [gcc-8-branch revi"
 3611      43313720 
 3611      382E332E 
 3611      31203230 
 3611      31393037 
 3612 023f 73696F6E 		.ascii	"sion 273027] -mcpu=arm1176jz-s -mno-thumb-interwork"
 3612      20323733 
 3612      3032375D 
 3612      202D6D63 
 3612      70753D61 
 3613 0272 202D6D66 		.ascii	" -mfloat-abi=soft -marm -march=armv6kz -ggdb -O2 -f"
 3613      6C6F6174 
 3613      2D616269 
 3613      3D736F66 
 3613      74202D6D 
 3614 02a5 6F6D6974 		.ascii	"omit-frame-pointer -ffunction-sections -fdata-secti"
 3614      2D667261 
 3614      6D652D70 
 3614      6F696E74 
 3614      6572202D 
 3615 02d8 6F6E7300 		.ascii	"ons\000"
 3616              	.LASF103:
 3617 02dc 74687265 		.ascii	"threads\000"
 3617      61647300 
 3618              	.LASF18:
 3619 02e4 746D6F64 		.ascii	"tmode_t\000"
 3619      655F7400 
 3620              	.LASF44:
 3621 02ec 54687265 		.ascii	"ThreadsList\000"
 3621      6164734C 
ARM GAS  /var/folders/l5/0x54b2c10074c8bt31ycjvl80000gp/T//ccBrkAPT.s 			page 67


 3621      69737400 
 3622              	.LASF23:
 3623 02f8 6576656E 		.ascii	"eventmask_t\000"
 3623      746D6173 
 3623      6B5F7400 
 3624              	.LASF67:
 3625 0304 4D757465 		.ascii	"Mutex\000"
 3625      7800
 3626              	.LASF45:
 3627 030a 73746B61 		.ascii	"stkalign_t\000"
 3627      6C69676E 
 3627      5F7400
 3628              	.LASF117:
 3629 0315 63685468 		.ascii	"chThdCreateStatic\000"
 3629      64437265 
 3629      61746553 
 3629      74617469 
 3629      6300
 3630              	.LASF77:
 3631 0327 63685F7A 		.ascii	"ch_zero\000"
 3631      65726F00 
 3632              	.LASF91:
 3633 032f 63665F6F 		.ascii	"cf_off_refs\000"
 3633      66665F72 
 3633      65667300 
 3634              	.LASF53:
 3635 033b 76745F74 		.ascii	"vt_time\000"
 3635      696D6500 
 3636              	.LASF106:
 3637 0343 74657374 		.ascii	"testthd1\000"
 3637      74686431 
 3637      00
 3638              	.LASF107:
 3639 034c 74657374 		.ascii	"testthd2\000"
 3639      74686432 
 3639      00
 3640              	.LASF108:
 3641 0355 74657374 		.ascii	"testthd3\000"
 3641      74686433 
 3641      00
 3642              	.LASF109:
 3643 035e 74657374 		.ascii	"testthd4\000"
 3643      74686434 
 3643      00
 3644              	.LASF54:
 3645 0367 76745F66 		.ascii	"vt_func\000"
 3645      756E6300 
 3646              	.LASF81:
 3647 036f 63685F74 		.ascii	"ch_timesize\000"
 3647      696D6573 
 3647      697A6500 
 3648              	.LASF119:
 3649 037b 63685468 		.ascii	"chThdResume\000"
 3649      64526573 
 3649      756D6500 
 3650              	.LASF87:
 3651 0387 63665F6F 		.ascii	"cf_off_name\000"
ARM GAS  /var/folders/l5/0x54b2c10074c8bt31ycjvl80000gp/T//ccBrkAPT.s 			page 68


 3651      66665F6E 
 3651      616D6500 
 3652              	.LASF120:
 3653 0393 74657374 		.ascii	"test_wait_threads\000"
 3653      5F776169 
 3653      745F7468 
 3653      72656164 
 3653      7300
 3654              	.LASF31:
 3655 03a5 705F6F6C 		.ascii	"p_older\000"
 3655      64657200 
 3656              	.LASF60:
 3657 03ad 725F6374 		.ascii	"r_ctx\000"
 3657      7800
 3658              	.LASF43:
 3659 03b3 54687265 		.ascii	"ThreadsQueue\000"
 3659      61647351 
 3659      75657565 
 3659      00
 3660              	.LASF78:
 3661 03c0 63685F73 		.ascii	"ch_size\000"
 3661      697A6500 
 3662              	.LASF99:
 3663 03c8 73657475 		.ascii	"setup\000"
 3663      7000
 3664              	.LASF121:
 3665 03ce 5F746573 		.ascii	"_test_assert_sequence\000"
 3665      745F6173 
 3665      73657274 
 3665      5F736571 
 3665      75656E63 
 3666              	.LASF132:
 3667 03e4 74696D65 		.ascii	"time\000"
 3667      00
 3668              	.LASF63:
 3669 03e9 725F6375 		.ascii	"r_current\000"
 3669      7272656E 
 3669      7400
 3670              	.LASF62:
 3671 03f3 725F6F6C 		.ascii	"r_older\000"
 3671      64657200 
 3672              	.LASF125:
 3673 03fb 63685468 		.ascii	"chThdSleepUntil\000"
 3673      64536C65 
 3673      6570556E 
 3673      74696C00 
 3674              	.LASF128:
 3675 040b 2E2E2F2E 		.ascii	"../../test/testthd.c\000"
 3675      2E2F7465 
 3675      73742F74 
 3675      65737474 
 3675      68642E63 
 3676              	.LASF20:
 3677 0420 74726566 		.ascii	"trefs_t\000"
 3677      735F7400 
 3678              	.LASF80:
 3679 0428 63685F70 		.ascii	"ch_ptrsize\000"
ARM GAS  /var/folders/l5/0x54b2c10074c8bt31ycjvl80000gp/T//ccBrkAPT.s 			page 69


 3679      74727369 
 3679      7A6500
 3680              	.LASF112:
 3681 0433 74686433 		.ascii	"thd3_execute\000"
 3681      5F657865 
 3681      63757465 
 3681      00
 3682              	.LASF27:
 3683 0440 705F7072 		.ascii	"p_prev\000"
 3683      657600
 3684              	.LASF101:
 3685 0447 65786563 		.ascii	"execute\000"
 3685      75746500 
 3686              	.LASF21:
 3687 044f 74707269 		.ascii	"tprio_t\000"
 3687      6F5F7400 
 3688              	.LASF133:
 3689 0457 74687265 		.ascii	"thread\000"
 3689      616400
 3690              	.LASF15:
 3691 045e 696E7433 		.ascii	"int32_t\000"
 3691      325F7400 
 3692              	.LASF2:
 3693 0466 756E7369 		.ascii	"unsigned char\000"
 3693      676E6564 
 3693      20636861 
 3693      7200
 3694              	.LASF126:
 3695 0474 74657374 		.ascii	"test_wait_tick\000"
 3695      5F776169 
 3695      745F7469 
 3695      636B00
 3696              	.LASF41:
 3697 0483 705F6D74 		.ascii	"p_mtxlist\000"
 3697      786C6973 
 3697      7400
 3698              	.LASF3:
 3699 048d 73686F72 		.ascii	"short int\000"
 3699      7420696E 
 3699      7400
 3700              	.LASF33:
 3701 0497 705F7374 		.ascii	"p_state\000"
 3701      61746500 
 3702              	.LASF93:
 3703 049f 63665F6F 		.ascii	"cf_off_time\000"
 3703      66665F74 
 3703      696D6500 
 3704              	.LASF59:
 3705 04ab 725F7072 		.ascii	"r_prio\000"
 3705      696F00
 3706              	.LASF74:
 3707 04b2 65776D61 		.ascii	"ewmask\000"
 3707      736B00
 3708              	.LASF26:
 3709 04b9 705F6E65 		.ascii	"p_next\000"
 3709      787400
 3710              	.LASF92:
ARM GAS  /var/folders/l5/0x54b2c10074c8bt31ycjvl80000gp/T//ccBrkAPT.s 			page 70


 3711 04c0 63665F6F 		.ascii	"cf_off_preempt\000"
 3711      66665F70 
 3711      7265656D 
 3711      707400
 3712              	.LASF34:
 3713 04cf 705F666C 		.ascii	"p_flags\000"
 3713      61677300 
 3714              	.LASF25:
 3715 04d7 54687265 		.ascii	"Thread\000"
 3715      616400
 3716              	.LASF85:
 3717 04de 63665F6F 		.ascii	"cf_off_newer\000"
 3717      66665F6E 
 3717      65776572 
 3717      00
 3718              	.LASF97:
 3719 04eb 74657374 		.ascii	"testcase\000"
 3719      63617365 
 3719      00
 3720              	.LASF40:
 3721 04f4 705F6570 		.ascii	"p_epending\000"
 3721      656E6469 
 3721      6E6700
 3722              	.LASF123:
 3723 04ff 63685468 		.ascii	"chThdSleep\000"
 3723      64536C65 
 3723      657000
 3724              	.LASF16:
 3725 050a 75696E74 		.ascii	"uint32_t\000"
 3725      33325F74 
 3725      00
 3726              	.LASF83:
 3727 0513 63665F6F 		.ascii	"cf_off_prio\000"
 3727      66665F70 
 3727      72696F00 
 3728              	.LASF58:
 3729 051f 725F7175 		.ascii	"r_queue\000"
 3729      65756500 
 3730              	.LASF50:
 3731 0527 56697274 		.ascii	"VirtualTimer\000"
 3731      75616C54 
 3731      696D6572 
 3731      00
 3732              	.LASF75:
 3733 0534 63686172 		.ascii	"char\000"
 3733      00
 3734              	.LASF130:
 3735 0539 74657374 		.ascii	"test_buffers\000"
 3735      5F627566 
 3735      66657273 
 3735      00
 3736              	.LASF131:
 3737 0546 74686434 		.ascii	"thd4_execute\000"
 3737      5F657865 
 3737      63757465 
 3737      00
 3738              	.LASF5:
ARM GAS  /var/folders/l5/0x54b2c10074c8bt31ycjvl80000gp/T//ccBrkAPT.s 			page 71


 3739 0553 5F5F7569 		.ascii	"__uint16_t\000"
 3739      6E743136 
 3739      5F7400
 3740              	.LASF110:
 3741 055e 70617474 		.ascii	"patternthd\000"
 3741      65726E74 
 3741      686400
 3742              	.LASF70:
 3743 0569 6D5F6E65 		.ascii	"m_next\000"
 3743      787400
 3744              	.LASF24:
 3745 0570 73797374 		.ascii	"systime_t\000"
 3745      696D655F 
 3745      7400
 3746              	.LASF42:
 3747 057a 705F7265 		.ascii	"p_realprio\000"
 3747      616C7072 
 3747      696F00
 3748              	.LASF7:
 3749 0585 5F5F696E 		.ascii	"__int32_t\000"
 3749      7433325F 
 3749      7400
 3750              	.LASF36:
 3751 058f 705F7469 		.ascii	"p_time\000"
 3751      6D6500
 3752              	.LASF47:
 3753 0596 696E7463 		.ascii	"intctx\000"
 3753      747800
 3754              	.LASF38:
 3755 059d 705F6D73 		.ascii	"p_msgqueue\000"
 3755      67717565 
 3755      756500
 3756              	.LASF55:
 3757 05a8 76745F70 		.ascii	"vt_par\000"
 3757      617200
 3758              	.LASF84:
 3759 05af 63665F6F 		.ascii	"cf_off_ctx\000"
 3759      66665F63 
 3759      747800
 3760              	.LASF35:
 3761 05ba 705F7265 		.ascii	"p_refs\000"
 3761      667300
 3762              	.LASF64:
 3763 05c1 52656164 		.ascii	"ReadyList\000"
 3763      794C6973 
 3763      7400
 3764              	.LASF66:
 3765 05cb 726C6973 		.ascii	"rlist\000"
 3765      7400
 3766              	.LASF13:
 3767 05d1 75696E74 		.ascii	"uint8_t\000"
 3767      385F7400 
 3768              	.LASF73:
 3769 05d9 77746F62 		.ascii	"wtobjp\000"
 3769      6A7000
 3770              	.LASF32:
 3771 05e0 705F6E61 		.ascii	"p_name\000"
ARM GAS  /var/folders/l5/0x54b2c10074c8bt31ycjvl80000gp/T//ccBrkAPT.s 			page 72


 3771      6D6500
 3772              	.LASF116:
 3773 05e7 5F746573 		.ascii	"_test_assert\000"
 3773      745F6173 
 3773      73657274 
 3773      00
 3774              	.LASF56:
 3775 05f4 76745F73 		.ascii	"vt_systime\000"
 3775      79737469 
 3775      6D6500
 3776              	.LASF79:
 3777 05ff 63685F76 		.ascii	"ch_version\000"
 3777      65727369 
 3777      6F6E00
 3778              	.LASF129:
 3779 060a 2F557365 		.ascii	"/Users/fernandoguirado/eclipse-workspace/ChibiOS-RP"
 3779      72732F66 
 3779      65726E61 
 3779      6E646F67 
 3779      75697261 
 3780 063d 692D636F 		.ascii	"i-copia/demos/timers\000"
 3780      7069612F 
 3780      64656D6F 
 3780      732F7469 
 3780      6D657273 
 3781              	.LASF57:
 3782 0652 56544C69 		.ascii	"VTList\000"
 3782      737400
 3783              	.LASF69:
 3784 0659 6D5F6F77 		.ascii	"m_owner\000"
 3784      6E657200 
 3785              	.LASF29:
 3786 0661 705F6374 		.ascii	"p_ctx\000"
 3786      7800
 3787              	.LASF37:
 3788 0667 705F7761 		.ascii	"p_waiting\000"
 3788      6974696E 
 3788      6700
 3789              		.ident	"GCC: (GNU Tools for Arm Embedded Processors 8-2019-q3-update) 8.3.1 20190703 (release) [gc
ARM GAS  /var/folders/l5/0x54b2c10074c8bt31ycjvl80000gp/T//ccBrkAPT.s 			page 73


DEFINED SYMBOLS
                            *ABS*:0000000000000000 testthd.c
/var/folders/l5/0x54b2c10074c8bt31ycjvl80000gp/T//ccBrkAPT.s:16     .text.thd1_execute:0000000000000000 $a
/var/folders/l5/0x54b2c10074c8bt31ycjvl80000gp/T//ccBrkAPT.s:22     .text.thd1_execute:0000000000000000 thd1_execute
/var/folders/l5/0x54b2c10074c8bt31ycjvl80000gp/T//ccBrkAPT.s:150    .text.thd1_execute:00000000000000f8 $d
/var/folders/l5/0x54b2c10074c8bt31ycjvl80000gp/T//ccBrkAPT.s:169    .text.thread:0000000000000000 thread
/var/folders/l5/0x54b2c10074c8bt31ycjvl80000gp/T//ccBrkAPT.s:164    .text.thread:0000000000000000 $a
/var/folders/l5/0x54b2c10074c8bt31ycjvl80000gp/T//ccBrkAPT.s:196    .text.thd2_execute:0000000000000000 $a
/var/folders/l5/0x54b2c10074c8bt31ycjvl80000gp/T//ccBrkAPT.s:201    .text.thd2_execute:0000000000000000 thd2_execute
/var/folders/l5/0x54b2c10074c8bt31ycjvl80000gp/T//ccBrkAPT.s:349    .text.thd2_execute:0000000000000108 $d
/var/folders/l5/0x54b2c10074c8bt31ycjvl80000gp/T//ccBrkAPT.s:363    .text.thd3_execute:0000000000000000 $a
/var/folders/l5/0x54b2c10074c8bt31ycjvl80000gp/T//ccBrkAPT.s:368    .text.thd3_execute:0000000000000000 thd3_execute
/var/folders/l5/0x54b2c10074c8bt31ycjvl80000gp/T//ccBrkAPT.s:602    .text.thd3_execute:00000000000001dc $d
/var/folders/l5/0x54b2c10074c8bt31ycjvl80000gp/T//ccBrkAPT.s:607    .text.thd4_execute:0000000000000000 $a
/var/folders/l5/0x54b2c10074c8bt31ycjvl80000gp/T//ccBrkAPT.s:612    .text.thd4_execute:0000000000000000 thd4_execute
/var/folders/l5/0x54b2c10074c8bt31ycjvl80000gp/T//ccBrkAPT.s:721    .text.thd4_execute:000000000000009c $d
/var/folders/l5/0x54b2c10074c8bt31ycjvl80000gp/T//ccBrkAPT.s:736    .rodata.patternthd:0000000000000000 patternthd
/var/folders/l5/0x54b2c10074c8bt31ycjvl80000gp/T//ccBrkAPT.s:785    .rodata.testthd4:0000000000000000 testthd4
/var/folders/l5/0x54b2c10074c8bt31ycjvl80000gp/T//ccBrkAPT.s:776    .rodata.testthd3:0000000000000000 testthd3
/var/folders/l5/0x54b2c10074c8bt31ycjvl80000gp/T//ccBrkAPT.s:767    .rodata.testthd2:0000000000000000 testthd2
/var/folders/l5/0x54b2c10074c8bt31ycjvl80000gp/T//ccBrkAPT.s:758    .rodata.testthd1:0000000000000000 testthd1
/var/folders/l5/0x54b2c10074c8bt31ycjvl80000gp/T//ccBrkAPT.s:733    .rodata.patternthd:0000000000000000 $d
/var/folders/l5/0x54b2c10074c8bt31ycjvl80000gp/T//ccBrkAPT.s:743    .rodata.str1.4:0000000000000000 $d
/var/folders/l5/0x54b2c10074c8bt31ycjvl80000gp/T//ccBrkAPT.s:755    .rodata.testthd1:0000000000000000 $d
/var/folders/l5/0x54b2c10074c8bt31ycjvl80000gp/T//ccBrkAPT.s:764    .rodata.testthd2:0000000000000000 $d
/var/folders/l5/0x54b2c10074c8bt31ycjvl80000gp/T//ccBrkAPT.s:773    .rodata.testthd3:0000000000000000 $d
/var/folders/l5/0x54b2c10074c8bt31ycjvl80000gp/T//ccBrkAPT.s:782    .rodata.testthd4:0000000000000000 $d
/var/folders/l5/0x54b2c10074c8bt31ycjvl80000gp/T//ccBrkAPT.s:791    .rodata.thd1_execute.str1.4:0000000000000000 $d

UNDEFINED SYMBOLS
chThdCreateStatic
test_wait_threads
_test_assert_sequence
rlist
wa
threads
test_emit_token
chThdCreateI
chThdResume
chThdSetPriority
_test_assert
test_wait_tick
chThdSleep
_test_assert_time_window
chThdSleepUntil
vtlist
