ARM GAS  /var/folders/l5/0x54b2c10074c8bt31ycjvl80000gp/T//ccko8bQz.s 			page 1


   1              		.cpu arm1176jz-s
   2              		.eabi_attribute 20, 1
   3              		.eabi_attribute 21, 1
   4              		.eabi_attribute 23, 3
   5              		.eabi_attribute 24, 1
   6              		.eabi_attribute 25, 1
   7              		.eabi_attribute 26, 1
   8              		.eabi_attribute 30, 2
   9              		.eabi_attribute 34, 1
  10              		.eabi_attribute 18, 4
  11              		.file	"testheap.c"
  12              		.text
  13              	.Ltext0:
  14              		.cfi_sections	.debug_frame
  15              		.section	.text.heap1_execute,"ax",%progbits
  16              		.align	2
  17              		.arch armv6kz
  18              		.syntax unified
  19              		.arm
  20              		.fpu softvfp
  21              		.type	heap1_execute, %function
  22              	heap1_execute:
  23              	.LFB8:
  24              		.file 1 "../../test/testheap.c"
  25              		.loc 1 73 33 view -0
  26              		.cfi_startproc
  27              		@ args = 0, pretend = 0, frame = 8
  28              		@ frame_needed = 0, uses_anonymous_args = 0
  29              		.loc 1 74 3 view .LVU1
  30              		.loc 1 75 3 view .LVU2
  31              		.loc 1 78 3 view .LVU3
  32              		.loc 1 73 33 is_stmt 0 view .LVU4
  33 0000 70402DE9 		push	{r4, r5, r6, lr}
  34              		.cfi_def_cfa_offset 16
  35              		.cfi_offset 4, -16
  36              		.cfi_offset 5, -12
  37              		.cfi_offset 6, -8
  38              		.cfi_offset 14, -4
  39 0004 08D04DE2 		sub	sp, sp, #8
  40              		.cfi_def_cfa_offset 24
  41              		.loc 1 78 9 view .LVU5
  42 0008 FEFFFFEB 		bl	chCoreStatus
  43              	.LVL0:
  44              		.loc 1 84 3 is_stmt 1 view .LVU6
  45              		.loc 1 84 9 is_stmt 0 view .LVU7
  46 000c 04108DE2 		add	r1, sp, #4
  47 0010 0000A0E3 		mov	r0, #0
  48 0014 FEFFFFEB 		bl	chHeapStatus
  49              	.LVL1:
  50              		.loc 1 85 3 is_stmt 1 view .LVU8
  51              		.loc 1 85 8 is_stmt 0 view .LVU9
  52 0018 1010A0E3 		mov	r1, #16
  53 001c 0000A0E3 		mov	r0, #0
  54 0020 FEFFFFEB 		bl	chHeapAlloc
  55              	.LVL2:
  56              		.loc 1 86 3 is_stmt 1 view .LVU10
  57 0024 001090E2 		adds	r1, r0, #0
ARM GAS  /var/folders/l5/0x54b2c10074c8bt31ycjvl80000gp/T//ccko8bQz.s 			page 2


  58 0028 0110A013 		movne	r1, #1
  59 002c 0040A0E1 		mov	r4, r0
  60 0030 0100A0E3 		mov	r0, #1
  61              	.LVL3:
  62              		.loc 1 86 3 is_stmt 0 view .LVU11
  63 0034 FEFFFFEB 		bl	_test_assert
  64              	.LVL4:
  65 0038 005050E2 		subs	r5, r0, #0
  66 003c 0100000A 		beq	.L9
  67              	.LVL5:
  68              	.L1:
  69              		.loc 1 144 1 view .LVU12
  70 0040 08D08DE2 		add	sp, sp, #8
  71              		.cfi_remember_state
  72              		.cfi_def_cfa_offset 16
  73              		@ sp needed
  74 0044 7080BDE8 		pop	{r4, r5, r6, pc}
  75              	.LVL6:
  76              	.L9:
  77              		.cfi_restore_state
  78              		.loc 1 86 50 is_stmt 1 discriminator 2 view .LVU13
  79              		.loc 1 87 3 discriminator 2 view .LVU14
  80 0048 0400A0E1 		mov	r0, r4
  81 004c FEFFFFEB 		bl	chHeapFree
  82              	.LVL7:
  83              		.loc 1 88 3 discriminator 2 view .LVU15
  84              		.loc 1 88 8 is_stmt 0 discriminator 2 view .LVU16
  85 0050 FF10E0E3 		mvn	r1, #255
  86 0054 0500A0E1 		mov	r0, r5
  87 0058 FEFFFFEB 		bl	chHeapAlloc
  88              	.LVL8:
  89              		.loc 1 89 3 is_stmt 1 discriminator 2 view .LVU17
  90 005c 101F6FE1 		clz	r1, r0
  91 0060 0200A0E3 		mov	r0, #2
  92              	.LVL9:
  93              		.loc 1 89 3 is_stmt 0 discriminator 2 view .LVU18
  94 0064 A112A0E1 		lsr	r1, r1, #5
  95 0068 FEFFFFEB 		bl	_test_assert
  96              	.LVL10:
  97 006c 000050E3 		cmp	r0, #0
  98 0070 F2FFFF1A 		bne	.L1
  99              		.loc 1 89 54 is_stmt 1 discriminator 2 view .LVU19
 100              		.loc 1 92 3 discriminator 2 view .LVU20
 101              		.loc 1 92 9 is_stmt 0 discriminator 2 view .LVU21
 102 0074 04108DE2 		add	r1, sp, #4
 103 0078 CC029FE5 		ldr	r0, .L10
 104 007c FEFFFFEB 		bl	chHeapStatus
 105              	.LVL11:
 106              		.loc 1 95 3 is_stmt 1 discriminator 2 view .LVU22
 107              		.loc 1 95 8 is_stmt 0 discriminator 2 view .LVU23
 108 0080 1010A0E3 		mov	r1, #16
 109 0084 C0029FE5 		ldr	r0, .L10
 110 0088 FEFFFFEB 		bl	chHeapAlloc
 111              	.LVL12:
 112              		.loc 1 96 8 discriminator 2 view .LVU24
 113 008c 1010A0E3 		mov	r1, #16
 114              		.loc 1 95 8 discriminator 2 view .LVU25
ARM GAS  /var/folders/l5/0x54b2c10074c8bt31ycjvl80000gp/T//ccko8bQz.s 			page 3


 115 0090 0060A0E1 		mov	r6, r0
 116              	.LVL13:
 117              		.loc 1 96 3 is_stmt 1 discriminator 2 view .LVU26
 118              		.loc 1 96 8 is_stmt 0 discriminator 2 view .LVU27
 119 0094 B0029FE5 		ldr	r0, .L10
 120              	.LVL14:
 121              		.loc 1 96 8 discriminator 2 view .LVU28
 122 0098 FEFFFFEB 		bl	chHeapAlloc
 123              	.LVL15:
 124              		.loc 1 97 8 discriminator 2 view .LVU29
 125 009c 1010A0E3 		mov	r1, #16
 126              		.loc 1 96 8 discriminator 2 view .LVU30
 127 00a0 0050A0E1 		mov	r5, r0
 128              	.LVL16:
 129              		.loc 1 97 3 is_stmt 1 discriminator 2 view .LVU31
 130              		.loc 1 97 8 is_stmt 0 discriminator 2 view .LVU32
 131 00a4 A0029FE5 		ldr	r0, .L10
 132              	.LVL17:
 133              		.loc 1 97 8 discriminator 2 view .LVU33
 134 00a8 FEFFFFEB 		bl	chHeapAlloc
 135              	.LVL18:
 136 00ac 0040A0E1 		mov	r4, r0
 137              	.LVL19:
 138              		.loc 1 98 3 is_stmt 1 discriminator 2 view .LVU34
 139 00b0 0600A0E1 		mov	r0, r6
 140              	.LVL20:
 141              		.loc 1 98 3 is_stmt 0 discriminator 2 view .LVU35
 142 00b4 FEFFFFEB 		bl	chHeapFree
 143              	.LVL21:
 144              		.loc 1 99 3 is_stmt 1 discriminator 2 view .LVU36
 145 00b8 0500A0E1 		mov	r0, r5
 146 00bc FEFFFFEB 		bl	chHeapFree
 147              	.LVL22:
 148              		.loc 1 100 3 discriminator 2 view .LVU37
 149 00c0 0400A0E1 		mov	r0, r4
 150 00c4 FEFFFFEB 		bl	chHeapFree
 151              	.LVL23:
 152              		.loc 1 101 3 discriminator 2 view .LVU38
 153 00c8 0D10A0E1 		mov	r1, sp
 154 00cc 78029FE5 		ldr	r0, .L10
 155 00d0 FEFFFFEB 		bl	chHeapStatus
 156              	.LVL24:
 157 00d4 011040E2 		sub	r1, r0, #1
 158 00d8 111F6FE1 		clz	r1, r1
 159 00dc 0300A0E3 		mov	r0, #3
 160 00e0 A112A0E1 		lsr	r1, r1, #5
 161 00e4 FEFFFFEB 		bl	_test_assert
 162              	.LVL25:
 163 00e8 000050E3 		cmp	r0, #0
 164 00ec D3FFFF1A 		bne	.L1
 165              		.loc 1 101 71 discriminator 2 view .LVU39
 166              		.loc 1 104 3 discriminator 2 view .LVU40
 167              		.loc 1 104 8 is_stmt 0 discriminator 2 view .LVU41
 168 00f0 1010A0E3 		mov	r1, #16
 169 00f4 50029FE5 		ldr	r0, .L10
 170 00f8 FEFFFFEB 		bl	chHeapAlloc
 171              	.LVL26:
ARM GAS  /var/folders/l5/0x54b2c10074c8bt31ycjvl80000gp/T//ccko8bQz.s 			page 4


 172              		.loc 1 105 8 discriminator 2 view .LVU42
 173 00fc 1010A0E3 		mov	r1, #16
 174              		.loc 1 104 8 discriminator 2 view .LVU43
 175 0100 0040A0E1 		mov	r4, r0
 176              	.LVL27:
 177              		.loc 1 105 3 is_stmt 1 discriminator 2 view .LVU44
 178              		.loc 1 105 8 is_stmt 0 discriminator 2 view .LVU45
 179 0104 40029FE5 		ldr	r0, .L10
 180              	.LVL28:
 181              		.loc 1 105 8 discriminator 2 view .LVU46
 182 0108 FEFFFFEB 		bl	chHeapAlloc
 183              	.LVL29:
 184 010c 0050A0E1 		mov	r5, r0
 185              	.LVL30:
 186              		.loc 1 106 3 is_stmt 1 discriminator 2 view .LVU47
 187              		.loc 1 106 8 is_stmt 0 discriminator 2 view .LVU48
 188 0110 1010A0E3 		mov	r1, #16
 189 0114 30029FE5 		ldr	r0, .L10
 190              	.LVL31:
 191              		.loc 1 106 8 discriminator 2 view .LVU49
 192 0118 FEFFFFEB 		bl	chHeapAlloc
 193              	.LVL32:
 194              		.loc 1 107 3 is_stmt 1 discriminator 2 view .LVU50
 195 011c FEFFFFEB 		bl	chHeapFree
 196              	.LVL33:
 197              		.loc 1 108 3 discriminator 2 view .LVU51
 198 0120 0500A0E1 		mov	r0, r5
 199 0124 FEFFFFEB 		bl	chHeapFree
 200              	.LVL34:
 201              		.loc 1 109 3 discriminator 2 view .LVU52
 202 0128 0400A0E1 		mov	r0, r4
 203 012c FEFFFFEB 		bl	chHeapFree
 204              	.LVL35:
 205              		.loc 1 110 3 discriminator 2 view .LVU53
 206 0130 0D10A0E1 		mov	r1, sp
 207 0134 10029FE5 		ldr	r0, .L10
 208 0138 FEFFFFEB 		bl	chHeapStatus
 209              	.LVL36:
 210 013c 011040E2 		sub	r1, r0, #1
 211 0140 111F6FE1 		clz	r1, r1
 212 0144 0400A0E3 		mov	r0, #4
 213 0148 A112A0E1 		lsr	r1, r1, #5
 214 014c FEFFFFEB 		bl	_test_assert
 215              	.LVL37:
 216 0150 000050E3 		cmp	r0, #0
 217 0154 B9FFFF1A 		bne	.L1
 218              		.loc 1 110 71 discriminator 2 view .LVU54
 219              		.loc 1 113 3 discriminator 2 view .LVU55
 220              		.loc 1 113 8 is_stmt 0 discriminator 2 view .LVU56
 221 0158 1110A0E3 		mov	r1, #17
 222 015c E8019FE5 		ldr	r0, .L10
 223 0160 FEFFFFEB 		bl	chHeapAlloc
 224              	.LVL38:
 225              		.loc 1 114 8 discriminator 2 view .LVU57
 226 0164 1010A0E3 		mov	r1, #16
 227              		.loc 1 113 8 discriminator 2 view .LVU58
 228 0168 0040A0E1 		mov	r4, r0
ARM GAS  /var/folders/l5/0x54b2c10074c8bt31ycjvl80000gp/T//ccko8bQz.s 			page 5


 229              	.LVL39:
 230              		.loc 1 114 3 is_stmt 1 discriminator 2 view .LVU59
 231              		.loc 1 114 8 is_stmt 0 discriminator 2 view .LVU60
 232 016c D8019FE5 		ldr	r0, .L10
 233              	.LVL40:
 234              		.loc 1 114 8 discriminator 2 view .LVU61
 235 0170 FEFFFFEB 		bl	chHeapAlloc
 236              	.LVL41:
 237 0174 0050A0E1 		mov	r5, r0
 238              	.LVL42:
 239              		.loc 1 115 3 is_stmt 1 discriminator 2 view .LVU62
 240 0178 0400A0E1 		mov	r0, r4
 241              	.LVL43:
 242              		.loc 1 115 3 is_stmt 0 discriminator 2 view .LVU63
 243 017c FEFFFFEB 		bl	chHeapFree
 244              	.LVL44:
 245              		.loc 1 116 3 is_stmt 1 discriminator 2 view .LVU64
 246 0180 0D10A0E1 		mov	r1, sp
 247 0184 C0019FE5 		ldr	r0, .L10
 248 0188 FEFFFFEB 		bl	chHeapStatus
 249              	.LVL45:
 250 018c 021040E2 		sub	r1, r0, #2
 251 0190 111F6FE1 		clz	r1, r1
 252 0194 0500A0E3 		mov	r0, #5
 253 0198 A112A0E1 		lsr	r1, r1, #5
 254 019c FEFFFFEB 		bl	_test_assert
 255              	.LVL46:
 256 01a0 000050E3 		cmp	r0, #0
 257 01a4 A5FFFF1A 		bne	.L1
 258              		.loc 1 116 69 discriminator 2 view .LVU65
 259              		.loc 1 117 3 discriminator 2 view .LVU66
 260              		.loc 1 117 8 is_stmt 0 discriminator 2 view .LVU67
 261 01a8 1010A0E3 		mov	r1, #16
 262 01ac 98019FE5 		ldr	r0, .L10
 263 01b0 FEFFFFEB 		bl	chHeapAlloc
 264              	.LVL47:
 265              		.loc 1 120 3 discriminator 2 view .LVU68
 266 01b4 0D10A0E1 		mov	r1, sp
 267              		.loc 1 117 8 discriminator 2 view .LVU69
 268 01b8 0040A0E1 		mov	r4, r0
 269              	.LVL48:
 270              		.loc 1 120 3 is_stmt 1 discriminator 2 view .LVU70
 271 01bc 88019FE5 		ldr	r0, .L10
 272              	.LVL49:
 273              		.loc 1 120 3 is_stmt 0 discriminator 2 view .LVU71
 274 01c0 FEFFFFEB 		bl	chHeapStatus
 275              	.LVL50:
 276 01c4 010050E3 		cmp	r0, #1
 277 01c8 0010A001 		moveq	r1, r0
 278 01cc 0500000A 		beq	.L5
 279 01d0 0D10A0E1 		mov	r1, sp
 280 01d4 70019FE5 		ldr	r0, .L10
 281 01d8 FEFFFFEB 		bl	chHeapStatus
 282              	.LVL51:
 283 01dc 021040E2 		sub	r1, r0, #2
 284 01e0 111F6FE1 		clz	r1, r1
 285 01e4 A112A0E1 		lsr	r1, r1, #5
ARM GAS  /var/folders/l5/0x54b2c10074c8bt31ycjvl80000gp/T//ccko8bQz.s 			page 6


 286              	.L5:
 287              		.loc 1 120 3 discriminator 6 view .LVU72
 288 01e8 0600A0E3 		mov	r0, #6
 289 01ec FEFFFFEB 		bl	_test_assert
 290              	.LVL52:
 291 01f0 000050E3 		cmp	r0, #0
 292 01f4 91FFFF1A 		bne	.L1
 293              		.loc 1 121 73 is_stmt 1 view .LVU73
 294              		.loc 1 122 3 view .LVU74
 295 01f8 0500A0E1 		mov	r0, r5
 296 01fc FEFFFFEB 		bl	chHeapFree
 297              	.LVL53:
 298              		.loc 1 123 3 view .LVU75
 299 0200 0400A0E1 		mov	r0, r4
 300 0204 FEFFFFEB 		bl	chHeapFree
 301              	.LVL54:
 302              		.loc 1 124 3 view .LVU76
 303 0208 0D10A0E1 		mov	r1, sp
 304 020c 38019FE5 		ldr	r0, .L10
 305 0210 FEFFFFEB 		bl	chHeapStatus
 306              	.LVL55:
 307 0214 011040E2 		sub	r1, r0, #1
 308 0218 111F6FE1 		clz	r1, r1
 309 021c 0700A0E3 		mov	r0, #7
 310 0220 A112A0E1 		lsr	r1, r1, #5
 311 0224 FEFFFFEB 		bl	_test_assert
 312              	.LVL56:
 313 0228 000050E3 		cmp	r0, #0
 314 022c 83FFFF1A 		bne	.L1
 315              		.loc 1 124 71 discriminator 2 view .LVU77
 316              		.loc 1 127 3 discriminator 2 view .LVU78
 317              		.loc 1 127 8 is_stmt 0 discriminator 2 view .LVU79
 318 0230 1010A0E3 		mov	r1, #16
 319 0234 10019FE5 		ldr	r0, .L10
 320 0238 FEFFFFEB 		bl	chHeapAlloc
 321              	.LVL57:
 322              		.loc 1 128 8 discriminator 2 view .LVU80
 323 023c 1010A0E3 		mov	r1, #16
 324              		.loc 1 127 8 discriminator 2 view .LVU81
 325 0240 0040A0E1 		mov	r4, r0
 326              	.LVL58:
 327              		.loc 1 128 3 is_stmt 1 discriminator 2 view .LVU82
 328              		.loc 1 128 8 is_stmt 0 discriminator 2 view .LVU83
 329 0244 00019FE5 		ldr	r0, .L10
 330              	.LVL59:
 331              		.loc 1 128 8 discriminator 2 view .LVU84
 332 0248 FEFFFFEB 		bl	chHeapAlloc
 333              	.LVL60:
 334 024c 0050A0E1 		mov	r5, r0
 335              	.LVL61:
 336              		.loc 1 129 3 is_stmt 1 discriminator 2 view .LVU85
 337 0250 0400A0E1 		mov	r0, r4
 338              	.LVL62:
 339              		.loc 1 129 3 is_stmt 0 discriminator 2 view .LVU86
 340 0254 FEFFFFEB 		bl	chHeapFree
 341              	.LVL63:
 342              		.loc 1 130 3 is_stmt 1 discriminator 2 view .LVU87
ARM GAS  /var/folders/l5/0x54b2c10074c8bt31ycjvl80000gp/T//ccko8bQz.s 			page 7


 343 0258 0D10A0E1 		mov	r1, sp
 344 025c E8009FE5 		ldr	r0, .L10
 345 0260 FEFFFFEB 		bl	chHeapStatus
 346              	.LVL64:
 347 0264 021040E2 		sub	r1, r0, #2
 348 0268 111F6FE1 		clz	r1, r1
 349 026c 0800A0E3 		mov	r0, #8
 350 0270 A112A0E1 		lsr	r1, r1, #5
 351 0274 FEFFFFEB 		bl	_test_assert
 352              	.LVL65:
 353 0278 000050E3 		cmp	r0, #0
 354 027c 6FFFFF1A 		bne	.L1
 355              		.loc 1 130 69 discriminator 2 view .LVU88
 356              		.loc 1 131 3 discriminator 2 view .LVU89
 357              		.loc 1 131 8 is_stmt 0 discriminator 2 view .LVU90
 358 0280 2010A0E3 		mov	r1, #32
 359 0284 C0009FE5 		ldr	r0, .L10
 360 0288 FEFFFFEB 		bl	chHeapAlloc
 361              	.LVL66:
 362              		.loc 1 132 3 is_stmt 1 discriminator 2 view .LVU91
 363 028c FEFFFFEB 		bl	chHeapFree
 364              	.LVL67:
 365              		.loc 1 133 3 discriminator 2 view .LVU92
 366 0290 0500A0E1 		mov	r0, r5
 367 0294 FEFFFFEB 		bl	chHeapFree
 368              	.LVL68:
 369              		.loc 1 134 3 discriminator 2 view .LVU93
 370 0298 0D10A0E1 		mov	r1, sp
 371 029c A8009FE5 		ldr	r0, .L10
 372 02a0 FEFFFFEB 		bl	chHeapStatus
 373              	.LVL69:
 374 02a4 011040E2 		sub	r1, r0, #1
 375 02a8 111F6FE1 		clz	r1, r1
 376 02ac 0900A0E3 		mov	r0, #9
 377 02b0 A112A0E1 		lsr	r1, r1, #5
 378 02b4 FEFFFFEB 		bl	_test_assert
 379              	.LVL70:
 380 02b8 000050E3 		cmp	r0, #0
 381 02bc 5FFFFF1A 		bne	.L1
 382              		.loc 1 134 71 discriminator 2 view .LVU94
 383              		.loc 1 137 3 discriminator 2 view .LVU95
 384              		.loc 1 137 9 is_stmt 0 discriminator 2 view .LVU96
 385 02c0 0D10A0E1 		mov	r1, sp
 386 02c4 80009FE5 		ldr	r0, .L10
 387 02c8 FEFFFFEB 		bl	chHeapStatus
 388              	.LVL71:
 389              		.loc 1 138 3 is_stmt 1 discriminator 2 view .LVU97
 390              		.loc 1 138 8 is_stmt 0 discriminator 2 view .LVU98
 391 02cc 00109DE5 		ldr	r1, [sp]
 392 02d0 74009FE5 		ldr	r0, .L10
 393 02d4 FEFFFFEB 		bl	chHeapAlloc
 394              	.LVL72:
 395              		.loc 1 139 3 discriminator 2 view .LVU99
 396 02d8 0D10A0E1 		mov	r1, sp
 397              		.loc 1 138 8 discriminator 2 view .LVU100
 398 02dc 0040A0E1 		mov	r4, r0
 399              	.LVL73:
ARM GAS  /var/folders/l5/0x54b2c10074c8bt31ycjvl80000gp/T//ccko8bQz.s 			page 8


 400              		.loc 1 139 3 is_stmt 1 discriminator 2 view .LVU101
 401 02e0 64009FE5 		ldr	r0, .L10
 402              	.LVL74:
 403              		.loc 1 139 3 is_stmt 0 discriminator 2 view .LVU102
 404 02e4 FEFFFFEB 		bl	chHeapStatus
 405              	.LVL75:
 406 02e8 101F6FE1 		clz	r1, r0
 407 02ec 0A00A0E3 		mov	r0, #10
 408 02f0 A112A0E1 		lsr	r1, r1, #5
 409 02f4 FEFFFFEB 		bl	_test_assert
 410              	.LVL76:
 411 02f8 000050E3 		cmp	r0, #0
 412 02fc 4FFFFF1A 		bne	.L1
 413              		.loc 1 139 66 is_stmt 1 discriminator 2 view .LVU103
 414              		.loc 1 140 3 discriminator 2 view .LVU104
 415 0300 0400A0E1 		mov	r0, r4
 416 0304 FEFFFFEB 		bl	chHeapFree
 417              	.LVL77:
 418              		.loc 1 142 3 discriminator 2 view .LVU105
 419 0308 0D10A0E1 		mov	r1, sp
 420 030c 38009FE5 		ldr	r0, .L10
 421 0310 FEFFFFEB 		bl	chHeapStatus
 422              	.LVL78:
 423 0314 011040E2 		sub	r1, r0, #1
 424 0318 111F6FE1 		clz	r1, r1
 425 031c 0B00A0E3 		mov	r0, #11
 426 0320 A112A0E1 		lsr	r1, r1, #5
 427 0324 FEFFFFEB 		bl	_test_assert
 428              	.LVL79:
 429 0328 000050E3 		cmp	r0, #0
 430 032c 43FFFF1A 		bne	.L1
 431              		.loc 1 142 72 discriminator 2 view .LVU106
 432              		.loc 1 143 3 discriminator 2 view .LVU107
 433 0330 0A009DE8 		ldm	sp, {r1, r3}
 434 0334 031041E0 		sub	r1, r1, r3
 435 0338 111F6FE1 		clz	r1, r1
 436 033c 0C00A0E3 		mov	r0, #12
 437 0340 A112A0E1 		lsr	r1, r1, #5
 438 0344 FEFFFFEB 		bl	_test_assert
 439              	.LVL80:
 440              		.loc 1 143 3 discriminator 2 view .LVU108
 441 0348 3CFFFFEA 		b	.L1
 442              	.L11:
 443              		.align	2
 444              	.L10:
 445 034c 00000000 		.word	.LANCHOR0
 446              		.cfi_endproc
 447              	.LFE8:
 448              		.size	heap1_execute, .-heap1_execute
 449              		.section	.text.heap1_setup,"ax",%progbits
 450              		.align	2
 451              		.syntax unified
 452              		.arm
 453              		.fpu softvfp
 454              		.type	heap1_setup, %function
 455              	heap1_setup:
 456              	.LFB7:
ARM GAS  /var/folders/l5/0x54b2c10074c8bt31ycjvl80000gp/T//ccko8bQz.s 			page 9


 457              		.loc 1 68 31 view -0
 458              		.cfi_startproc
 459              		@ args = 0, pretend = 0, frame = 0
 460              		@ frame_needed = 0, uses_anonymous_args = 0
 461              		@ link register save eliminated.
 462              		.loc 1 70 3 view .LVU110
 463 0000 08209FE5 		ldr	r2, .L13
 464 0004 08109FE5 		ldr	r1, .L13+4
 465 0008 08009FE5 		ldr	r0, .L13+8
 466 000c FEFFFFEA 		b	chHeapInit
 467              	.LVL81:
 468              	.L14:
 469              		.align	2
 470              	.L13:
 471 0010 78050000 		.word	1400
 472 0014 00000000 		.word	test
 473 0018 00000000 		.word	.LANCHOR0
 474              		.cfi_endproc
 475              	.LFE7:
 476              		.size	heap1_setup, .-heap1_setup
 477              		.global	patternheap
 478              		.global	testheap1
 479              		.section	.bss.test_heap,"aw",%nobits
 480              		.align	2
 481              		.set	.LANCHOR0,. + 0
 482              		.type	test_heap, %object
 483              		.size	test_heap, 28
 484              	test_heap:
 485 0000 00000000 		.space	28
 485      00000000 
 485      00000000 
 485      00000000 
 485      00000000 
 486              		.section	.rodata.patternheap,"a"
 487              		.align	2
 488              		.type	patternheap, %object
 489              		.size	patternheap, 8
 490              	patternheap:
 491 0000 00000000 		.word	testheap1
 492 0004 00000000 		.word	0
 493              		.section	.rodata.str1.4,"aMS",%progbits,1
 494              		.align	2
 495              	.LC0:
 496 0000 48656170 		.ascii	"Heap, allocation and fragmentation test\000"
 496      2C20616C 
 496      6C6F6361 
 496      74696F6E 
 496      20616E64 
 497              		.section	.rodata.testheap1,"a"
 498              		.align	2
 499              		.type	testheap1, %object
 500              		.size	testheap1, 16
 501              	testheap1:
 502 0000 00000000 		.word	.LC0
 503 0004 00000000 		.word	heap1_setup
 504 0008 00000000 		.word	0
 505 000c 00000000 		.word	heap1_execute
ARM GAS  /var/folders/l5/0x54b2c10074c8bt31ycjvl80000gp/T//ccko8bQz.s 			page 10


 506              		.text
 507              	.Letext0:
 508              		.file 2 "/usr/local/Cellar/arm-gcc-bin/8-2019-q3-update/lib/gcc/arm-none-eabi/8.3.1/include/stddef
 509              		.file 3 "/usr/local/Cellar/arm-gcc-bin/8-2019-q3-update/arm-none-eabi/include/machine/_default_typ
 510              		.file 4 "/usr/local/Cellar/arm-gcc-bin/8-2019-q3-update/arm-none-eabi/include/sys/_stdint.h"
 511              		.file 5 "../../os/ports/GCC/ARM/chtypes.h"
 512              		.file 6 "../../os/kernel/include/chlists.h"
 513              		.file 7 "../../os/kernel/include/chthreads.h"
 514              		.file 8 "../../os/ports/GCC/ARM/chcore.h"
 515              		.file 9 "../../os/kernel/include/chvt.h"
 516              		.file 10 "../../os/kernel/include/chschd.h"
 517              		.file 11 "../../os/kernel/include/chmtx.h"
 518              		.file 12 "../../os/kernel/include/chmemcore.h"
 519              		.file 13 "../../os/kernel/include/chheap.h"
 520              		.file 14 "../../os/kernel/include/chregistry.h"
 521              		.file 15 "../../os/kernel/include/ch.h"
 522              		.file 16 "../../test/test.h"
 523              		.section	.debug_info,"",%progbits
 524              	.Ldebug_info0:
 525 0000 B60E0000 		.4byte	0xeb6
 526 0004 0400     		.2byte	0x4
 527 0006 00000000 		.4byte	.Ldebug_abbrev0
 528 000a 04       		.byte	0x4
 529 000b 01       		.uleb128 0x1
 530 000c 13020000 		.4byte	.LASF130
 531 0010 0C       		.byte	0xc
 532 0011 DF030000 		.4byte	.LASF131
 533 0015 AE050000 		.4byte	.LASF132
 534 0019 00000000 		.4byte	.Ldebug_ranges0+0
 535 001d 00000000 		.4byte	0
 536 0021 00000000 		.4byte	.Ldebug_line0
 537 0025 02       		.uleb128 0x2
 538 0026 04       		.byte	0x4
 539 0027 05       		.byte	0x5
 540 0028 696E7400 		.ascii	"int\000"
 541 002c 03       		.uleb128 0x3
 542 002d 06000000 		.4byte	.LASF2
 543 0031 02       		.byte	0x2
 544 0032 D8       		.byte	0xd8
 545 0033 17       		.byte	0x17
 546 0034 38000000 		.4byte	0x38
 547 0038 04       		.uleb128 0x4
 548 0039 04       		.byte	0x4
 549 003a 07       		.byte	0x7
 550 003b 8A010000 		.4byte	.LASF0
 551 003f 04       		.uleb128 0x4
 552 0040 01       		.byte	0x1
 553 0041 06       		.byte	0x6
 554 0042 B3000000 		.4byte	.LASF1
 555 0046 03       		.uleb128 0x3
 556 0047 14000000 		.4byte	.LASF3
 557 004b 03       		.byte	0x3
 558 004c 2B       		.byte	0x2b
 559 004d 18       		.byte	0x18
 560 004e 52000000 		.4byte	0x52
 561 0052 04       		.uleb128 0x4
 562 0053 01       		.byte	0x1
ARM GAS  /var/folders/l5/0x54b2c10074c8bt31ycjvl80000gp/T//ccko8bQz.s 			page 11


 563 0054 08       		.byte	0x8
 564 0055 FD030000 		.4byte	.LASF4
 565 0059 04       		.uleb128 0x4
 566 005a 02       		.byte	0x2
 567 005b 05       		.byte	0x5
 568 005c 20040000 		.4byte	.LASF5
 569 0060 03       		.uleb128 0x3
 570 0061 EB040000 		.4byte	.LASF6
 571 0065 03       		.byte	0x3
 572 0066 39       		.byte	0x39
 573 0067 19       		.byte	0x19
 574 0068 6C000000 		.4byte	0x6c
 575 006c 04       		.uleb128 0x4
 576 006d 02       		.byte	0x2
 577 006e 07       		.byte	0x7
 578 006f F2010000 		.4byte	.LASF7
 579 0073 03       		.uleb128 0x3
 580 0074 1F050000 		.4byte	.LASF8
 581 0078 03       		.byte	0x3
 582 0079 4D       		.byte	0x4d
 583 007a 18       		.byte	0x18
 584 007b 7F000000 		.4byte	0x7f
 585 007f 04       		.uleb128 0x4
 586 0080 04       		.byte	0x4
 587 0081 05       		.byte	0x5
 588 0082 16010000 		.4byte	.LASF9
 589 0086 03       		.uleb128 0x3
 590 0087 5A010000 		.4byte	.LASF10
 591 008b 03       		.byte	0x3
 592 008c 4F       		.byte	0x4f
 593 008d 19       		.byte	0x19
 594 008e 92000000 		.4byte	0x92
 595 0092 04       		.uleb128 0x4
 596 0093 04       		.byte	0x4
 597 0094 07       		.byte	0x7
 598 0095 AC010000 		.4byte	.LASF11
 599 0099 04       		.uleb128 0x4
 600 009a 08       		.byte	0x8
 601 009b 05       		.byte	0x5
 602 009c A5000000 		.4byte	.LASF12
 603 00a0 04       		.uleb128 0x4
 604 00a1 08       		.byte	0x8
 605 00a2 07       		.byte	0x7
 606 00a3 32000000 		.4byte	.LASF13
 607 00a7 03       		.uleb128 0x3
 608 00a8 6B050000 		.4byte	.LASF14
 609 00ac 04       		.byte	0x4
 610 00ad 18       		.byte	0x18
 611 00ae 13       		.byte	0x13
 612 00af 46000000 		.4byte	0x46
 613 00b3 03       		.uleb128 0x3
 614 00b4 28010000 		.4byte	.LASF15
 615 00b8 04       		.byte	0x4
 616 00b9 24       		.byte	0x24
 617 00ba 14       		.byte	0x14
 618 00bb 60000000 		.4byte	0x60
 619 00bf 03       		.uleb128 0x3
ARM GAS  /var/folders/l5/0x54b2c10074c8bt31ycjvl80000gp/T//ccko8bQz.s 			page 12


 620 00c0 F5030000 		.4byte	.LASF16
 621 00c4 04       		.byte	0x4
 622 00c5 2C       		.byte	0x2c
 623 00c6 13       		.byte	0x13
 624 00c7 73000000 		.4byte	0x73
 625 00cb 03       		.uleb128 0x3
 626 00cc AA040000 		.4byte	.LASF17
 627 00d0 04       		.byte	0x4
 628 00d1 30       		.byte	0x30
 629 00d2 14       		.byte	0x14
 630 00d3 86000000 		.4byte	0x86
 631 00d7 03       		.uleb128 0x3
 632 00d8 E2000000 		.4byte	.LASF18
 633 00dc 05       		.byte	0x5
 634 00dd 29       		.byte	0x29
 635 00de 19       		.byte	0x19
 636 00df BF000000 		.4byte	0xbf
 637 00e3 03       		.uleb128 0x3
 638 00e4 EB020000 		.4byte	.LASF19
 639 00e8 05       		.byte	0x5
 640 00e9 2A       		.byte	0x2a
 641 00ea 19       		.byte	0x19
 642 00eb A7000000 		.4byte	0xa7
 643 00ef 03       		.uleb128 0x3
 644 00f0 1F010000 		.4byte	.LASF20
 645 00f4 05       		.byte	0x5
 646 00f5 2B       		.byte	0x2b
 647 00f6 19       		.byte	0x19
 648 00f7 A7000000 		.4byte	0xa7
 649 00fb 03       		.uleb128 0x3
 650 00fc B5030000 		.4byte	.LASF21
 651 0100 05       		.byte	0x5
 652 0101 2C       		.byte	0x2c
 653 0102 19       		.byte	0x19
 654 0103 A7000000 		.4byte	0xa7
 655 0107 03       		.uleb128 0x3
 656 0108 D7030000 		.4byte	.LASF22
 657 010c 05       		.byte	0x5
 658 010d 2E       		.byte	0x2e
 659 010e 19       		.byte	0x19
 660 010f CB000000 		.4byte	0xcb
 661 0113 03       		.uleb128 0x3
 662 0114 05020000 		.4byte	.LASF23
 663 0118 05       		.byte	0x5
 664 0119 2F       		.byte	0x2f
 665 011a 19       		.byte	0x19
 666 011b BF000000 		.4byte	0xbf
 667 011f 03       		.uleb128 0x3
 668 0120 FF020000 		.4byte	.LASF24
 669 0124 05       		.byte	0x5
 670 0125 31       		.byte	0x31
 671 0126 19       		.byte	0x19
 672 0127 CB000000 		.4byte	0xcb
 673 012b 03       		.uleb128 0x3
 674 012c 0A050000 		.4byte	.LASF25
 675 0130 05       		.byte	0x5
 676 0131 33       		.byte	0x33
ARM GAS  /var/folders/l5/0x54b2c10074c8bt31ycjvl80000gp/T//ccko8bQz.s 			page 13


 677 0132 19       		.byte	0x19
 678 0133 CB000000 		.4byte	0xcb
 679 0137 05       		.uleb128 0x5
 680 0138 2B010000 		.4byte	0x12b
 681 013c 03       		.uleb128 0x3
 682 013d 76040000 		.4byte	.LASF26
 683 0141 06       		.byte	0x6
 684 0142 23       		.byte	0x23
 685 0143 17       		.byte	0x17
 686 0144 48010000 		.4byte	0x148
 687 0148 06       		.uleb128 0x6
 688 0149 76040000 		.4byte	.LASF26
 689 014d 44       		.byte	0x44
 690 014e 07       		.byte	0x7
 691 014f 57       		.byte	0x57
 692 0150 08       		.byte	0x8
 693 0151 40020000 		.4byte	0x240
 694 0155 07       		.uleb128 0x7
 695 0156 58040000 		.4byte	.LASF27
 696 015a 07       		.byte	0x7
 697 015b 58       		.byte	0x58
 698 015c 1A       		.byte	0x1a
 699 015d 64020000 		.4byte	0x264
 700 0161 00       		.byte	0
 701 0162 07       		.uleb128 0x7
 702 0163 C8030000 		.4byte	.LASF28
 703 0167 07       		.byte	0x7
 704 0168 5A       		.byte	0x5a
 705 0169 1A       		.byte	0x1a
 706 016a 64020000 		.4byte	0x264
 707 016e 04       		.byte	0x4
 708 016f 07       		.uleb128 0x7
 709 0170 7C000000 		.4byte	.LASF29
 710 0174 07       		.byte	0x7
 711 0175 5C       		.byte	0x5c
 712 0176 19       		.byte	0x19
 713 0177 07010000 		.4byte	0x107
 714 017b 08       		.byte	0x8
 715 017c 07       		.uleb128 0x7
 716 017d 05060000 		.4byte	.LASF30
 717 0181 07       		.byte	0x7
 718 0182 5D       		.byte	0x5d
 719 0183 19       		.byte	0x19
 720 0184 34030000 		.4byte	0x334
 721 0188 0C       		.byte	0xc
 722 0189 07       		.uleb128 0x7
 723 018a 42010000 		.4byte	.LASF31
 724 018e 07       		.byte	0x7
 725 018f 5F       		.byte	0x5f
 726 0190 1A       		.byte	0x1a
 727 0191 64020000 		.4byte	0x264
 728 0195 10       		.byte	0x10
 729 0196 07       		.uleb128 0x7
 730 0197 6F030000 		.4byte	.LASF32
 731 019b 07       		.byte	0x7
 732 019c 60       		.byte	0x60
 733 019d 1A       		.byte	0x1a
ARM GAS  /var/folders/l5/0x54b2c10074c8bt31ycjvl80000gp/T//ccko8bQz.s 			page 14


 734 019e 64020000 		.4byte	0x264
 735 01a2 14       		.byte	0x14
 736 01a3 07       		.uleb128 0x7
 737 01a4 84050000 		.4byte	.LASF33
 738 01a8 07       		.byte	0x7
 739 01a9 67       		.byte	0x67
 740 01aa 1A       		.byte	0x1a
 741 01ab F0050000 		.4byte	0x5f0
 742 01af 18       		.byte	0x18
 743 01b0 07       		.uleb128 0x7
 744 01b1 2A040000 		.4byte	.LASF34
 745 01b5 07       		.byte	0x7
 746 01b6 72       		.byte	0x72
 747 01b7 19       		.byte	0x19
 748 01b8 EF000000 		.4byte	0xef
 749 01bc 1C       		.byte	0x1c
 750 01bd 07       		.uleb128 0x7
 751 01be 6E040000 		.4byte	.LASF35
 752 01c2 07       		.byte	0x7
 753 01c3 76       		.byte	0x76
 754 01c4 19       		.byte	0x19
 755 01c5 E3000000 		.4byte	0xe3
 756 01c9 1D       		.byte	0x1d
 757 01ca 07       		.uleb128 0x7
 758 01cb 54050000 		.4byte	.LASF36
 759 01cf 07       		.byte	0x7
 760 01d0 7B       		.byte	0x7b
 761 01d1 19       		.byte	0x19
 762 01d2 FB000000 		.4byte	0xfb
 763 01d6 1E       		.byte	0x1e
 764 01d7 07       		.uleb128 0x7
 765 01d8 29050000 		.4byte	.LASF37
 766 01dc 07       		.byte	0x7
 767 01dd 88       		.byte	0x88
 768 01de 19       		.byte	0x19
 769 01df 37010000 		.4byte	0x137
 770 01e3 20       		.byte	0x20
 771 01e4 08       		.uleb128 0x8
 772 01e5 705F7500 		.ascii	"p_u\000"
 773 01e9 07       		.byte	0x7
 774 01ea AD       		.byte	0xad
 775 01eb 19       		.byte	0x19
 776 01ec B6050000 		.4byte	0x5b6
 777 01f0 24       		.byte	0x24
 778 01f1 07       		.uleb128 0x7
 779 01f2 0B060000 		.4byte	.LASF38
 780 01f6 07       		.byte	0x7
 781 01f7 B2       		.byte	0xb2
 782 01f8 19       		.byte	0x19
 783 01f9 8D020000 		.4byte	0x28d
 784 01fd 28       		.byte	0x28
 785 01fe 07       		.uleb128 0x7
 786 01ff 37050000 		.4byte	.LASF39
 787 0203 07       		.byte	0x7
 788 0204 B8       		.byte	0xb8
 789 0205 19       		.byte	0x19
 790 0206 6A020000 		.4byte	0x26a
ARM GAS  /var/folders/l5/0x54b2c10074c8bt31ycjvl80000gp/T//ccko8bQz.s 			page 15


 791 020a 2C       		.byte	0x2c
 792 020b 07       		.uleb128 0x7
 793 020c 00000000 		.4byte	.LASF40
 794 0210 07       		.byte	0x7
 795 0211 BC       		.byte	0xbc
 796 0212 19       		.byte	0x19
 797 0213 13010000 		.4byte	0x113
 798 0217 34       		.byte	0x34
 799 0218 07       		.uleb128 0x7
 800 0219 9F040000 		.4byte	.LASF41
 801 021d 07       		.byte	0x7
 802 021e C2       		.byte	0xc2
 803 021f 19       		.byte	0x19
 804 0220 1F010000 		.4byte	0x11f
 805 0224 38       		.byte	0x38
 806 0225 07       		.uleb128 0x7
 807 0226 16040000 		.4byte	.LASF42
 808 022a 07       		.byte	0x7
 809 022b C9       		.byte	0xc9
 810 022c 1A       		.byte	0x1a
 811 022d 02060000 		.4byte	0x602
 812 0231 3C       		.byte	0x3c
 813 0232 07       		.uleb128 0x7
 814 0233 14050000 		.4byte	.LASF43
 815 0237 07       		.byte	0x7
 816 0238 CD       		.byte	0xcd
 817 0239 19       		.byte	0x19
 818 023a 07010000 		.4byte	0x107
 819 023e 40       		.byte	0x40
 820 023f 00       		.byte	0
 821 0240 09       		.uleb128 0x9
 822 0241 08       		.byte	0x8
 823 0242 06       		.byte	0x6
 824 0243 5A       		.byte	0x5a
 825 0244 09       		.byte	0x9
 826 0245 64020000 		.4byte	0x264
 827 0249 07       		.uleb128 0x7
 828 024a 58040000 		.4byte	.LASF27
 829 024e 06       		.byte	0x6
 830 024f 5B       		.byte	0x5b
 831 0250 1A       		.byte	0x1a
 832 0251 64020000 		.4byte	0x264
 833 0255 00       		.byte	0
 834 0256 07       		.uleb128 0x7
 835 0257 C8030000 		.4byte	.LASF28
 836 025b 06       		.byte	0x6
 837 025c 5D       		.byte	0x5d
 838 025d 1A       		.byte	0x1a
 839 025e 64020000 		.4byte	0x264
 840 0262 04       		.byte	0x4
 841 0263 00       		.byte	0
 842 0264 0A       		.uleb128 0xa
 843 0265 04       		.byte	0x4
 844 0266 3C010000 		.4byte	0x13c
 845 026a 03       		.uleb128 0x3
 846 026b 7D030000 		.4byte	.LASF44
 847 026f 06       		.byte	0x6
ARM GAS  /var/folders/l5/0x54b2c10074c8bt31ycjvl80000gp/T//ccko8bQz.s 			page 16


 848 0270 5F       		.byte	0x5f
 849 0271 03       		.byte	0x3
 850 0272 40020000 		.4byte	0x240
 851 0276 09       		.uleb128 0x9
 852 0277 04       		.byte	0x4
 853 0278 06       		.byte	0x6
 854 0279 64       		.byte	0x64
 855 027a 09       		.byte	0x9
 856 027b 8D020000 		.4byte	0x28d
 857 027f 07       		.uleb128 0x7
 858 0280 58040000 		.4byte	.LASF27
 859 0284 06       		.byte	0x6
 860 0285 66       		.byte	0x66
 861 0286 16       		.byte	0x16
 862 0287 64020000 		.4byte	0x264
 863 028b 00       		.byte	0
 864 028c 00       		.byte	0
 865 028d 03       		.uleb128 0x3
 866 028e F3020000 		.4byte	.LASF45
 867 0292 06       		.byte	0x6
 868 0293 69       		.byte	0x69
 869 0294 03       		.byte	0x3
 870 0295 76020000 		.4byte	0x276
 871 0299 03       		.uleb128 0x3
 872 029a 11030000 		.4byte	.LASF46
 873 029e 08       		.byte	0x8
 874 029f 9D       		.byte	0x9d
 875 02a0 12       		.byte	0x12
 876 02a1 CB000000 		.4byte	0xcb
 877 02a5 03       		.uleb128 0x3
 878 02a6 65010000 		.4byte	.LASF47
 879 02aa 08       		.byte	0x8
 880 02ab A2       		.byte	0xa2
 881 02ac 0F       		.byte	0xf
 882 02ad B1020000 		.4byte	0x2b1
 883 02b1 0B       		.uleb128 0xb
 884 02b2 04       		.byte	0x4
 885 02b3 0C       		.uleb128 0xc
 886 02b4 B1020000 		.4byte	0x2b1
 887 02b8 06       		.uleb128 0x6
 888 02b9 30050000 		.4byte	.LASF48
 889 02bd 24       		.byte	0x24
 890 02be 08       		.byte	0x8
 891 02bf B9       		.byte	0xb9
 892 02c0 08       		.byte	0x8
 893 02c1 34030000 		.4byte	0x334
 894 02c5 08       		.uleb128 0x8
 895 02c6 723400   		.ascii	"r4\000"
 896 02c9 08       		.byte	0x8
 897 02ca BA       		.byte	0xba
 898 02cb 11       		.byte	0x11
 899 02cc A5020000 		.4byte	0x2a5
 900 02d0 00       		.byte	0
 901 02d1 08       		.uleb128 0x8
 902 02d2 723500   		.ascii	"r5\000"
 903 02d5 08       		.byte	0x8
 904 02d6 BB       		.byte	0xbb
ARM GAS  /var/folders/l5/0x54b2c10074c8bt31ycjvl80000gp/T//ccko8bQz.s 			page 17


 905 02d7 11       		.byte	0x11
 906 02d8 A5020000 		.4byte	0x2a5
 907 02dc 04       		.byte	0x4
 908 02dd 08       		.uleb128 0x8
 909 02de 723600   		.ascii	"r6\000"
 910 02e1 08       		.byte	0x8
 911 02e2 BC       		.byte	0xbc
 912 02e3 11       		.byte	0x11
 913 02e4 A5020000 		.4byte	0x2a5
 914 02e8 08       		.byte	0x8
 915 02e9 08       		.uleb128 0x8
 916 02ea 723700   		.ascii	"r7\000"
 917 02ed 08       		.byte	0x8
 918 02ee BD       		.byte	0xbd
 919 02ef 11       		.byte	0x11
 920 02f0 A5020000 		.4byte	0x2a5
 921 02f4 0C       		.byte	0xc
 922 02f5 08       		.uleb128 0x8
 923 02f6 723800   		.ascii	"r8\000"
 924 02f9 08       		.byte	0x8
 925 02fa BE       		.byte	0xbe
 926 02fb 11       		.byte	0x11
 927 02fc A5020000 		.4byte	0x2a5
 928 0300 10       		.byte	0x10
 929 0301 08       		.uleb128 0x8
 930 0302 723900   		.ascii	"r9\000"
 931 0305 08       		.byte	0x8
 932 0306 BF       		.byte	0xbf
 933 0307 11       		.byte	0x11
 934 0308 A5020000 		.4byte	0x2a5
 935 030c 14       		.byte	0x14
 936 030d 08       		.uleb128 0x8
 937 030e 72313000 		.ascii	"r10\000"
 938 0312 08       		.byte	0x8
 939 0313 C0       		.byte	0xc0
 940 0314 11       		.byte	0x11
 941 0315 A5020000 		.4byte	0x2a5
 942 0319 18       		.byte	0x18
 943 031a 08       		.uleb128 0x8
 944 031b 72313100 		.ascii	"r11\000"
 945 031f 08       		.byte	0x8
 946 0320 C1       		.byte	0xc1
 947 0321 11       		.byte	0x11
 948 0322 A5020000 		.4byte	0x2a5
 949 0326 1C       		.byte	0x1c
 950 0327 08       		.uleb128 0x8
 951 0328 6C7200   		.ascii	"lr\000"
 952 032b 08       		.byte	0x8
 953 032c C2       		.byte	0xc2
 954 032d 11       		.byte	0x11
 955 032e A5020000 		.4byte	0x2a5
 956 0332 20       		.byte	0x20
 957 0333 00       		.byte	0
 958 0334 06       		.uleb128 0x6
 959 0335 E5010000 		.4byte	.LASF49
 960 0339 04       		.byte	0x4
 961 033a 08       		.byte	0x8
ARM GAS  /var/folders/l5/0x54b2c10074c8bt31ycjvl80000gp/T//ccko8bQz.s 			page 18


 962 033b CA       		.byte	0xca
 963 033c 08       		.byte	0x8
 964 033d 4F030000 		.4byte	0x34f
 965 0341 08       		.uleb128 0x8
 966 0342 72313300 		.ascii	"r13\000"
 967 0346 08       		.byte	0x8
 968 0347 CB       		.byte	0xcb
 969 0348 12       		.byte	0x12
 970 0349 4F030000 		.4byte	0x34f
 971 034d 00       		.byte	0
 972 034e 00       		.byte	0
 973 034f 0A       		.uleb128 0xa
 974 0350 04       		.byte	0x4
 975 0351 B8020000 		.4byte	0x2b8
 976 0355 03       		.uleb128 0x3
 977 0356 D7010000 		.4byte	.LASF50
 978 035a 09       		.byte	0x9
 979 035b 4E       		.byte	0x4e
 980 035c 10       		.byte	0x10
 981 035d 61030000 		.4byte	0x361
 982 0361 0A       		.uleb128 0xa
 983 0362 04       		.byte	0x4
 984 0363 67030000 		.4byte	0x367
 985 0367 0D       		.uleb128 0xd
 986 0368 72030000 		.4byte	0x372
 987 036c 0E       		.uleb128 0xe
 988 036d B1020000 		.4byte	0x2b1
 989 0371 00       		.byte	0
 990 0372 03       		.uleb128 0x3
 991 0373 C7040000 		.4byte	.LASF51
 992 0377 09       		.byte	0x9
 993 0378 53       		.byte	0x53
 994 0379 1D       		.byte	0x1d
 995 037a 7E030000 		.4byte	0x37e
 996 037e 06       		.uleb128 0x6
 997 037f C7040000 		.4byte	.LASF51
 998 0383 14       		.byte	0x14
 999 0384 09       		.byte	0x9
 1000 0385 5A       		.byte	0x5a
 1001 0386 08       		.byte	0x8
 1002 0387 CD030000 		.4byte	0x3cd
 1003 038b 07       		.uleb128 0x7
 1004 038c 97010000 		.4byte	.LASF52
 1005 0390 09       		.byte	0x9
 1006 0391 5B       		.byte	0x5b
 1007 0392 1A       		.byte	0x1a
 1008 0393 CD030000 		.4byte	0x3cd
 1009 0397 00       		.byte	0
 1010 0398 07       		.uleb128 0x7
 1011 0399 6E010000 		.4byte	.LASF53
 1012 039d 09       		.byte	0x9
 1013 039e 5D       		.byte	0x5d
 1014 039f 1A       		.byte	0x1a
 1015 03a0 CD030000 		.4byte	0x3cd
 1016 03a4 04       		.byte	0x4
 1017 03a5 07       		.uleb128 0x7
 1018 03a6 3A030000 		.4byte	.LASF54
ARM GAS  /var/folders/l5/0x54b2c10074c8bt31ycjvl80000gp/T//ccko8bQz.s 			page 19


 1019 03aa 09       		.byte	0x9
 1020 03ab 5F       		.byte	0x5f
 1021 03ac 19       		.byte	0x19
 1022 03ad 2B010000 		.4byte	0x12b
 1023 03b1 08       		.byte	0x8
 1024 03b2 07       		.uleb128 0x7
 1025 03b3 42030000 		.4byte	.LASF55
 1026 03b7 09       		.byte	0x9
 1027 03b8 60       		.byte	0x60
 1028 03b9 19       		.byte	0x19
 1029 03ba 55030000 		.4byte	0x355
 1030 03be 0C       		.byte	0xc
 1031 03bf 07       		.uleb128 0x7
 1032 03c0 42050000 		.4byte	.LASF56
 1033 03c4 09       		.byte	0x9
 1034 03c5 62       		.byte	0x62
 1035 03c6 1A       		.byte	0x1a
 1036 03c7 B1020000 		.4byte	0x2b1
 1037 03cb 10       		.byte	0x10
 1038 03cc 00       		.byte	0
 1039 03cd 0A       		.uleb128 0xa
 1040 03ce 04       		.byte	0x4
 1041 03cf 72030000 		.4byte	0x372
 1042 03d3 09       		.uleb128 0x9
 1043 03d4 10       		.byte	0x10
 1044 03d5 09       		.byte	0x9
 1045 03d6 6C       		.byte	0x6c
 1046 03d7 09       		.byte	0x9
 1047 03d8 11040000 		.4byte	0x411
 1048 03dc 07       		.uleb128 0x7
 1049 03dd 97010000 		.4byte	.LASF52
 1050 03e1 09       		.byte	0x9
 1051 03e2 6D       		.byte	0x6d
 1052 03e3 1A       		.byte	0x1a
 1053 03e4 CD030000 		.4byte	0x3cd
 1054 03e8 00       		.byte	0
 1055 03e9 07       		.uleb128 0x7
 1056 03ea 6E010000 		.4byte	.LASF53
 1057 03ee 09       		.byte	0x9
 1058 03ef 6F       		.byte	0x6f
 1059 03f0 1A       		.byte	0x1a
 1060 03f1 CD030000 		.4byte	0x3cd
 1061 03f5 04       		.byte	0x4
 1062 03f6 07       		.uleb128 0x7
 1063 03f7 3A030000 		.4byte	.LASF54
 1064 03fb 09       		.byte	0x9
 1065 03fc 71       		.byte	0x71
 1066 03fd 19       		.byte	0x19
 1067 03fe 2B010000 		.4byte	0x12b
 1068 0402 08       		.byte	0x8
 1069 0403 07       		.uleb128 0x7
 1070 0404 98050000 		.4byte	.LASF57
 1071 0408 09       		.byte	0x9
 1072 0409 72       		.byte	0x72
 1073 040a 19       		.byte	0x19
 1074 040b 37010000 		.4byte	0x137
 1075 040f 0C       		.byte	0xc
ARM GAS  /var/folders/l5/0x54b2c10074c8bt31ycjvl80000gp/T//ccko8bQz.s 			page 20


 1076 0410 00       		.byte	0
 1077 0411 03       		.uleb128 0x3
 1078 0412 F6050000 		.4byte	.LASF58
 1079 0416 09       		.byte	0x9
 1080 0417 73       		.byte	0x73
 1081 0418 03       		.byte	0x3
 1082 0419 D3030000 		.4byte	0x3d3
 1083 041d 0F       		.uleb128 0xf
 1084 041e 1E000000 		.4byte	.LASF66
 1085 0422 09       		.byte	0x9
 1086 0423 D1       		.byte	0xd1
 1087 0424 0F       		.byte	0xf
 1088 0425 11040000 		.4byte	0x411
 1089 0429 09       		.uleb128 0x9
 1090 042a 1C       		.byte	0x1c
 1091 042b 0A       		.byte	0xa
 1092 042c 57       		.byte	0x57
 1093 042d 09       		.byte	0x9
 1094 042e 81040000 		.4byte	0x481
 1095 0432 07       		.uleb128 0x7
 1096 0433 BF040000 		.4byte	.LASF59
 1097 0437 0A       		.byte	0xa
 1098 0438 58       		.byte	0x58
 1099 0439 19       		.byte	0x19
 1100 043a 6A020000 		.4byte	0x26a
 1101 043e 00       		.byte	0
 1102 043f 07       		.uleb128 0x7
 1103 0440 3E040000 		.4byte	.LASF60
 1104 0444 0A       		.byte	0xa
 1105 0445 59       		.byte	0x59
 1106 0446 19       		.byte	0x19
 1107 0447 07010000 		.4byte	0x107
 1108 044b 08       		.byte	0x8
 1109 044c 07       		.uleb128 0x7
 1110 044d 77030000 		.4byte	.LASF61
 1111 0451 0A       		.byte	0xa
 1112 0452 5B       		.byte	0x5b
 1113 0453 19       		.byte	0x19
 1114 0454 34030000 		.4byte	0x334
 1115 0458 0C       		.byte	0xc
 1116 0459 07       		.uleb128 0x7
 1117 045a 0B020000 		.4byte	.LASF62
 1118 045e 0A       		.byte	0xa
 1119 045f 5E       		.byte	0x5e
 1120 0460 1A       		.byte	0x1a
 1121 0461 64020000 		.4byte	0x264
 1122 0465 10       		.byte	0x10
 1123 0466 07       		.uleb128 0x7
 1124 0467 A2030000 		.4byte	.LASF63
 1125 046b 0A       		.byte	0xa
 1126 046c 5F       		.byte	0x5f
 1127 046d 1A       		.byte	0x1a
 1128 046e 64020000 		.4byte	0x264
 1129 0472 14       		.byte	0x14
 1130 0473 07       		.uleb128 0x7
 1131 0474 98030000 		.4byte	.LASF64
 1132 0478 0A       		.byte	0xa
ARM GAS  /var/folders/l5/0x54b2c10074c8bt31ycjvl80000gp/T//ccko8bQz.s 			page 21


 1133 0479 62       		.byte	0x62
 1134 047a 1A       		.byte	0x1a
 1135 047b 64020000 		.4byte	0x264
 1136 047f 18       		.byte	0x18
 1137 0480 00       		.byte	0
 1138 0481 03       		.uleb128 0x3
 1139 0482 5B050000 		.4byte	.LASF65
 1140 0486 0A       		.byte	0xa
 1141 0487 64       		.byte	0x64
 1142 0488 03       		.byte	0x3
 1143 0489 29040000 		.4byte	0x429
 1144 048d 0F       		.uleb128 0xf
 1145 048e 65050000 		.4byte	.LASF67
 1146 0492 0A       		.byte	0xa
 1147 0493 68       		.byte	0x68
 1148 0494 12       		.byte	0x12
 1149 0495 81040000 		.4byte	0x481
 1150 0499 06       		.uleb128 0x6
 1151 049a 0B030000 		.4byte	.LASF68
 1152 049e 10       		.byte	0x10
 1153 049f 0B       		.byte	0xb
 1154 04a0 25       		.byte	0x25
 1155 04a1 10       		.byte	0x10
 1156 04a2 CE040000 		.4byte	0x4ce
 1157 04a6 07       		.uleb128 0x7
 1158 04a7 E9000000 		.4byte	.LASF69
 1159 04ab 0B       		.byte	0xb
 1160 04ac 26       		.byte	0x26
 1161 04ad 19       		.byte	0x19
 1162 04ae 6A020000 		.4byte	0x26a
 1163 04b2 00       		.byte	0
 1164 04b3 07       		.uleb128 0x7
 1165 04b4 FD050000 		.4byte	.LASF70
 1166 04b8 0B       		.byte	0xb
 1167 04b9 28       		.byte	0x28
 1168 04ba 1A       		.byte	0x1a
 1169 04bb 64020000 		.4byte	0x264
 1170 04bf 08       		.byte	0x8
 1171 04c0 07       		.uleb128 0x7
 1172 04c1 03050000 		.4byte	.LASF71
 1173 04c5 0B       		.byte	0xb
 1174 04c6 2A       		.byte	0x2a
 1175 04c7 1A       		.byte	0x1a
 1176 04c8 CE040000 		.4byte	0x4ce
 1177 04cc 0C       		.byte	0xc
 1178 04cd 00       		.byte	0
 1179 04ce 0A       		.uleb128 0xa
 1180 04cf 04       		.byte	0x4
 1181 04d0 99040000 		.4byte	0x499
 1182 04d4 03       		.uleb128 0x3
 1183 04d5 0B030000 		.4byte	.LASF68
 1184 04d9 0B       		.byte	0xb
 1185 04da 2C       		.byte	0x2c
 1186 04db 03       		.byte	0x3
 1187 04dc 99040000 		.4byte	0x499
 1188 04e0 03       		.uleb128 0x3
 1189 04e1 25000000 		.4byte	.LASF72
ARM GAS  /var/folders/l5/0x54b2c10074c8bt31ycjvl80000gp/T//ccko8bQz.s 			page 22


 1190 04e5 0C       		.byte	0xc
 1191 04e6 25       		.byte	0x25
 1192 04e7 11       		.byte	0x11
 1193 04e8 EC040000 		.4byte	0x4ec
 1194 04ec 0A       		.uleb128 0xa
 1195 04ed 04       		.byte	0x4
 1196 04ee F2040000 		.4byte	0x4f2
 1197 04f2 10       		.uleb128 0x10
 1198 04f3 B1020000 		.4byte	0x2b1
 1199 04f7 01050000 		.4byte	0x501
 1200 04fb 0E       		.uleb128 0xe
 1201 04fc 2C000000 		.4byte	0x2c
 1202 0500 00       		.byte	0
 1203 0501 03       		.uleb128 0x3
 1204 0502 AA030000 		.4byte	.LASF73
 1205 0506 0D       		.byte	0xd
 1206 0507 2D       		.byte	0x2d
 1207 0508 1C       		.byte	0x1c
 1208 0509 0D050000 		.4byte	0x50d
 1209 050d 06       		.uleb128 0x6
 1210 050e 15060000 		.4byte	.LASF74
 1211 0512 1C       		.byte	0x1c
 1212 0513 0D       		.byte	0xd
 1213 0514 40       		.byte	0x40
 1214 0515 08       		.byte	0x8
 1215 0516 42050000 		.4byte	0x542
 1216 051a 07       		.uleb128 0x7
 1217 051b 0B040000 		.4byte	.LASF75
 1218 051f 0D       		.byte	0xd
 1219 0520 41       		.byte	0x41
 1220 0521 19       		.byte	0x19
 1221 0522 E0040000 		.4byte	0x4e0
 1222 0526 00       		.byte	0
 1223 0527 07       		.uleb128 0x7
 1224 0528 60000000 		.4byte	.LASF76
 1225 052c 0D       		.byte	0xd
 1226 052d 43       		.byte	0x43
 1227 052e 19       		.byte	0x19
 1228 052f 64050000 		.4byte	0x564
 1229 0533 04       		.byte	0x4
 1230 0534 07       		.uleb128 0x7
 1231 0535 BF000000 		.4byte	.LASF77
 1232 0539 0D       		.byte	0xd
 1233 053a 45       		.byte	0x45
 1234 053b 19       		.byte	0x19
 1235 053c D4040000 		.4byte	0x4d4
 1236 0540 0C       		.byte	0xc
 1237 0541 00       		.byte	0
 1238 0542 11       		.uleb128 0x11
 1239 0543 04       		.byte	0x4
 1240 0544 0D       		.byte	0xd
 1241 0545 35       		.byte	0x35
 1242 0546 05       		.byte	0x5
 1243 0547 64050000 		.4byte	0x564
 1244 054b 12       		.uleb128 0x12
 1245 054c 77000000 		.4byte	.LASF78
 1246 0550 0D       		.byte	0xd
ARM GAS  /var/folders/l5/0x54b2c10074c8bt31ycjvl80000gp/T//ccko8bQz.s 			page 23


 1247 0551 36       		.byte	0x36
 1248 0552 1A       		.byte	0x1a
 1249 0553 88050000 		.4byte	0x588
 1250 0557 12       		.uleb128 0x12
 1251 0558 D4040000 		.4byte	.LASF79
 1252 055c 0D       		.byte	0xd
 1253 055d 37       		.byte	0x37
 1254 055e 1A       		.byte	0x1a
 1255 055f 8E050000 		.4byte	0x58e
 1256 0563 00       		.byte	0
 1257 0564 13       		.uleb128 0x13
 1258 0565 45040000 		.4byte	.LASF113
 1259 0569 08       		.byte	0x8
 1260 056a 0D       		.byte	0xd
 1261 056b 32       		.byte	0x32
 1262 056c 07       		.byte	0x7
 1263 056d 88050000 		.4byte	0x588
 1264 0571 12       		.uleb128 0x12
 1265 0572 84010000 		.4byte	.LASF80
 1266 0576 0D       		.byte	0xd
 1267 0577 33       		.byte	0x33
 1268 0578 0E       		.byte	0xe
 1269 0579 99020000 		.4byte	0x299
 1270 057d 14       		.uleb128 0x14
 1271 057e 6800     		.ascii	"h\000"
 1272 0580 0D       		.byte	0xd
 1273 0581 3A       		.byte	0x3a
 1274 0582 05       		.byte	0x5
 1275 0583 94050000 		.4byte	0x594
 1276 0587 00       		.byte	0
 1277 0588 0A       		.uleb128 0xa
 1278 0589 04       		.byte	0x4
 1279 058a 64050000 		.4byte	0x564
 1280 058e 0A       		.uleb128 0xa
 1281 058f 04       		.byte	0x4
 1282 0590 01050000 		.4byte	0x501
 1283 0594 09       		.uleb128 0x9
 1284 0595 08       		.byte	0x8
 1285 0596 0D       		.byte	0xd
 1286 0597 34       		.byte	0x34
 1287 0598 03       		.byte	0x3
 1288 0599 B6050000 		.4byte	0x5b6
 1289 059d 08       		.uleb128 0x8
 1290 059e 7500     		.ascii	"u\000"
 1291 05a0 0D       		.byte	0xd
 1292 05a1 38       		.byte	0x38
 1293 05a2 07       		.byte	0x7
 1294 05a3 42050000 		.4byte	0x542
 1295 05a7 00       		.byte	0
 1296 05a8 07       		.uleb128 0x7
 1297 05a9 ED010000 		.4byte	.LASF81
 1298 05ad 0D       		.byte	0xd
 1299 05ae 39       		.byte	0x39
 1300 05af 19       		.byte	0x19
 1301 05b0 2C000000 		.4byte	0x2c
 1302 05b4 04       		.byte	0x4
 1303 05b5 00       		.byte	0
ARM GAS  /var/folders/l5/0x54b2c10074c8bt31ycjvl80000gp/T//ccko8bQz.s 			page 24


 1304 05b6 11       		.uleb128 0x11
 1305 05b7 04       		.byte	0x4
 1306 05b8 07       		.byte	0x7
 1307 05b9 8F       		.byte	0x8f
 1308 05ba 03       		.byte	0x3
 1309 05bb F0050000 		.4byte	0x5f0
 1310 05bf 12       		.uleb128 0x12
 1311 05c0 0D000000 		.4byte	.LASF82
 1312 05c4 07       		.byte	0x7
 1313 05c5 96       		.byte	0x96
 1314 05c6 19       		.byte	0x19
 1315 05c7 13010000 		.4byte	0x113
 1316 05cb 12       		.uleb128 0x12
 1317 05cc 57000000 		.4byte	.LASF83
 1318 05d0 07       		.byte	0x7
 1319 05d1 9D       		.byte	0x9d
 1320 05d2 19       		.byte	0x19
 1321 05d3 13010000 		.4byte	0x113
 1322 05d7 12       		.uleb128 0x12
 1323 05d8 7D050000 		.4byte	.LASF84
 1324 05dc 07       		.byte	0x7
 1325 05dd A4       		.byte	0xa4
 1326 05de 1A       		.byte	0x1a
 1327 05df B1020000 		.4byte	0x2b1
 1328 05e3 12       		.uleb128 0x12
 1329 05e4 51040000 		.4byte	.LASF85
 1330 05e8 07       		.byte	0x7
 1331 05e9 AB       		.byte	0xab
 1332 05ea 19       		.byte	0x19
 1333 05eb 1F010000 		.4byte	0x11f
 1334 05ef 00       		.byte	0
 1335 05f0 0A       		.uleb128 0xa
 1336 05f1 04       		.byte	0x4
 1337 05f2 FD050000 		.4byte	0x5fd
 1338 05f6 04       		.uleb128 0x4
 1339 05f7 01       		.byte	0x1
 1340 05f8 08       		.byte	0x8
 1341 05f9 D9040000 		.4byte	.LASF86
 1342 05fd 0C       		.uleb128 0xc
 1343 05fe F6050000 		.4byte	0x5f6
 1344 0602 0A       		.uleb128 0xa
 1345 0603 04       		.byte	0x4
 1346 0604 D4040000 		.4byte	0x4d4
 1347 0608 09       		.uleb128 0x9
 1348 0609 16       		.byte	0x16
 1349 060a 0E       		.byte	0xe
 1350 060b 25       		.byte	0x25
 1351 060c 09       		.byte	0x9
 1352 060d FC060000 		.4byte	0x6fc
 1353 0611 07       		.uleb128 0x7
 1354 0612 08010000 		.4byte	.LASF87
 1355 0616 0E       		.byte	0xe
 1356 0617 26       		.byte	0x26
 1357 0618 0D       		.byte	0xd
 1358 0619 FC060000 		.4byte	0x6fc
 1359 061d 00       		.byte	0
 1360 061e 07       		.uleb128 0x7
ARM GAS  /var/folders/l5/0x54b2c10074c8bt31ycjvl80000gp/T//ccko8bQz.s 			page 25


 1361 061f 26030000 		.4byte	.LASF88
 1362 0623 0E       		.byte	0xe
 1363 0624 27       		.byte	0x27
 1364 0625 0D       		.byte	0xd
 1365 0626 A7000000 		.4byte	0xa7
 1366 062a 04       		.byte	0x4
 1367 062b 07       		.uleb128 0x7
 1368 062c 8A030000 		.4byte	.LASF89
 1369 0630 0E       		.byte	0xe
 1370 0631 28       		.byte	0x28
 1371 0632 0D       		.byte	0xd
 1372 0633 A7000000 		.4byte	0xa7
 1373 0637 05       		.byte	0x5
 1374 0638 07       		.uleb128 0x7
 1375 0639 A3050000 		.4byte	.LASF90
 1376 063d 0E       		.byte	0xe
 1377 063e 29       		.byte	0x29
 1378 063f 0D       		.byte	0xd
 1379 0640 B3000000 		.4byte	0xb3
 1380 0644 06       		.byte	0x6
 1381 0645 07       		.uleb128 0x7
 1382 0646 BD030000 		.4byte	.LASF91
 1383 064a 0E       		.byte	0xe
 1384 064b 2A       		.byte	0x2a
 1385 064c 0D       		.byte	0xd
 1386 064d A7000000 		.4byte	0xa7
 1387 0651 08       		.byte	0x8
 1388 0652 07       		.uleb128 0x7
 1389 0653 4A030000 		.4byte	.LASF92
 1390 0657 0E       		.byte	0xe
 1391 0658 2B       		.byte	0x2b
 1392 0659 0D       		.byte	0xd
 1393 065a A7000000 		.4byte	0xa7
 1394 065e 09       		.byte	0x9
 1395 065f 07       		.uleb128 0x7
 1396 0660 49000000 		.4byte	.LASF93
 1397 0664 0E       		.byte	0xe
 1398 0665 2C       		.byte	0x2c
 1399 0666 0D       		.byte	0xd
 1400 0667 A7000000 		.4byte	0xa7
 1401 066b 0A       		.byte	0xa
 1402 066c 07       		.uleb128 0x7
 1403 066d B3040000 		.4byte	.LASF94
 1404 0671 0E       		.byte	0xe
 1405 0672 2D       		.byte	0x2d
 1406 0673 0D       		.byte	0xd
 1407 0674 A7000000 		.4byte	0xa7
 1408 0678 0B       		.byte	0xb
 1409 0679 07       		.uleb128 0x7
 1410 067a 49050000 		.4byte	.LASF95
 1411 067e 0E       		.byte	0xe
 1412 067f 2E       		.byte	0x2e
 1413 0680 0D       		.byte	0xd
 1414 0681 A7000000 		.4byte	0xa7
 1415 0685 0C       		.byte	0xc
 1416 0686 07       		.uleb128 0x7
 1417 0687 89040000 		.4byte	.LASF96
ARM GAS  /var/folders/l5/0x54b2c10074c8bt31ycjvl80000gp/T//ccko8bQz.s 			page 26


 1418 068b 0E       		.byte	0xe
 1419 068c 2F       		.byte	0x2f
 1420 068d 0D       		.byte	0xd
 1421 068e A7000000 		.4byte	0xa7
 1422 0692 0D       		.byte	0xd
 1423 0693 07       		.uleb128 0x7
 1424 0694 9F010000 		.4byte	.LASF97
 1425 0698 0E       		.byte	0xe
 1426 0699 30       		.byte	0x30
 1427 069a 0D       		.byte	0xd
 1428 069b A7000000 		.4byte	0xa7
 1429 069f 0E       		.byte	0xe
 1430 06a0 07       		.uleb128 0x7
 1431 06a1 63030000 		.4byte	.LASF98
 1432 06a5 0E       		.byte	0xe
 1433 06a6 31       		.byte	0x31
 1434 06a7 0D       		.byte	0xd
 1435 06a8 A7000000 		.4byte	0xa7
 1436 06ac 0F       		.byte	0xf
 1437 06ad 07       		.uleb128 0x7
 1438 06ae C5000000 		.4byte	.LASF99
 1439 06b2 0E       		.byte	0xe
 1440 06b3 32       		.byte	0x32
 1441 06b4 0D       		.byte	0xd
 1442 06b5 A7000000 		.4byte	0xa7
 1443 06b9 10       		.byte	0x10
 1444 06ba 07       		.uleb128 0x7
 1445 06bb 83000000 		.4byte	.LASF100
 1446 06bf 0E       		.byte	0xe
 1447 06c0 34       		.byte	0x34
 1448 06c1 0D       		.byte	0xd
 1449 06c2 A7000000 		.4byte	0xa7
 1450 06c6 11       		.byte	0x11
 1451 06c7 07       		.uleb128 0x7
 1452 06c8 D5000000 		.4byte	.LASF101
 1453 06cc 0E       		.byte	0xe
 1454 06cd 35       		.byte	0x35
 1455 06ce 0D       		.byte	0xd
 1456 06cf A7000000 		.4byte	0xa7
 1457 06d3 12       		.byte	0x12
 1458 06d4 07       		.uleb128 0x7
 1459 06d5 2E030000 		.4byte	.LASF102
 1460 06d9 0E       		.byte	0xe
 1461 06da 36       		.byte	0x36
 1462 06db 0D       		.byte	0xd
 1463 06dc A7000000 		.4byte	0xa7
 1464 06e0 13       		.byte	0x13
 1465 06e1 07       		.uleb128 0x7
 1466 06e2 5F040000 		.4byte	.LASF103
 1467 06e6 0E       		.byte	0xe
 1468 06e7 37       		.byte	0x37
 1469 06e8 0D       		.byte	0xd
 1470 06e9 A7000000 		.4byte	0xa7
 1471 06ed 14       		.byte	0x14
 1472 06ee 07       		.uleb128 0x7
 1473 06ef 32040000 		.4byte	.LASF104
 1474 06f3 0E       		.byte	0xe
ARM GAS  /var/folders/l5/0x54b2c10074c8bt31ycjvl80000gp/T//ccko8bQz.s 			page 27


 1475 06f4 39       		.byte	0x39
 1476 06f5 0D       		.byte	0xd
 1477 06f6 A7000000 		.4byte	0xa7
 1478 06fa 15       		.byte	0x15
 1479 06fb 00       		.byte	0
 1480 06fc 15       		.uleb128 0x15
 1481 06fd F6050000 		.4byte	0x5f6
 1482 0701 0C070000 		.4byte	0x70c
 1483 0705 16       		.uleb128 0x16
 1484 0706 38000000 		.4byte	0x38
 1485 070a 03       		.byte	0x3
 1486 070b 00       		.byte	0
 1487 070c 03       		.uleb128 0x3
 1488 070d 31010000 		.4byte	.LASF105
 1489 0711 0E       		.byte	0xe
 1490 0712 3A       		.byte	0x3a
 1491 0713 03       		.byte	0x3
 1492 0714 08060000 		.4byte	0x608
 1493 0718 0C       		.uleb128 0xc
 1494 0719 0C070000 		.4byte	0x70c
 1495 071d 0F       		.uleb128 0xf
 1496 071e BE010000 		.4byte	.LASF106
 1497 0722 0E       		.byte	0xe
 1498 0723 77       		.byte	0x77
 1499 0724 1D       		.byte	0x1d
 1500 0725 18070000 		.4byte	0x718
 1501 0729 15       		.uleb128 0x15
 1502 072a 99020000 		.4byte	0x299
 1503 072e 39070000 		.4byte	0x739
 1504 0732 16       		.uleb128 0x16
 1505 0733 38000000 		.4byte	0x38
 1506 0737 26       		.byte	0x26
 1507 0738 00       		.byte	0
 1508 0739 0F       		.uleb128 0xf
 1509 073a 4A010000 		.4byte	.LASF107
 1510 073e 0F       		.byte	0xf
 1511 073f 82       		.byte	0x82
 1512 0740 08       		.byte	0x8
 1513 0741 29070000 		.4byte	0x729
 1514 0745 06       		.uleb128 0x6
 1515 0746 96040000 		.4byte	.LASF108
 1516 074a 10       		.byte	0x10
 1517 074b 10       		.byte	0x10
 1518 074c 3F       		.byte	0x3f
 1519 074d 08       		.byte	0x8
 1520 074e 87070000 		.4byte	0x787
 1521 0752 07       		.uleb128 0x7
 1522 0753 E0010000 		.4byte	.LASF109
 1523 0757 10       		.byte	0x10
 1524 0758 40       		.byte	0x40
 1525 0759 0F       		.byte	0xf
 1526 075a F0050000 		.4byte	0x5f0
 1527 075e 00       		.byte	0
 1528 075f 07       		.uleb128 0x7
 1529 0760 92030000 		.4byte	.LASF110
 1530 0764 10       		.byte	0x10
 1531 0765 41       		.byte	0x41
ARM GAS  /var/folders/l5/0x54b2c10074c8bt31ycjvl80000gp/T//ccko8bQz.s 			page 28


 1532 0766 0A       		.byte	0xa
 1533 0767 8D070000 		.4byte	0x78d
 1534 076b 04       		.byte	0x4
 1535 076c 07       		.uleb128 0x7
 1536 076d 90000000 		.4byte	.LASF111
 1537 0771 10       		.byte	0x10
 1538 0772 42       		.byte	0x42
 1539 0773 0A       		.byte	0xa
 1540 0774 8D070000 		.4byte	0x78d
 1541 0778 08       		.byte	0x8
 1542 0779 07       		.uleb128 0x7
 1543 077a CF030000 		.4byte	.LASF112
 1544 077e 10       		.byte	0x10
 1545 077f 43       		.byte	0x43
 1546 0780 0A       		.byte	0xa
 1547 0781 8D070000 		.4byte	0x78d
 1548 0785 0C       		.byte	0xc
 1549 0786 00       		.byte	0
 1550 0787 0C       		.uleb128 0xc
 1551 0788 45070000 		.4byte	0x745
 1552 078c 17       		.uleb128 0x17
 1553 078d 0A       		.uleb128 0xa
 1554 078e 04       		.byte	0x4
 1555 078f 8C070000 		.4byte	0x78c
 1556 0793 18       		.uleb128 0x18
 1557 0794 7805     		.2byte	0x578
 1558 0796 10       		.byte	0x10
 1559 0797 48       		.byte	0x48
 1560 0798 03       		.byte	0x3
 1561 0799 DE070000 		.4byte	0x7de
 1562 079d 08       		.uleb128 0x8
 1563 079e 543000   		.ascii	"T0\000"
 1564 07a1 10       		.byte	0x10
 1565 07a2 49       		.byte	0x49
 1566 07a3 05       		.byte	0x5
 1567 07a4 DE070000 		.4byte	0x7de
 1568 07a8 00       		.byte	0
 1569 07a9 19       		.uleb128 0x19
 1570 07aa 543100   		.ascii	"T1\000"
 1571 07ad 10       		.byte	0x10
 1572 07ae 4A       		.byte	0x4a
 1573 07af 05       		.byte	0x5
 1574 07b0 DE070000 		.4byte	0x7de
 1575 07b4 1801     		.2byte	0x118
 1576 07b6 19       		.uleb128 0x19
 1577 07b7 543200   		.ascii	"T2\000"
 1578 07ba 10       		.byte	0x10
 1579 07bb 4B       		.byte	0x4b
 1580 07bc 05       		.byte	0x5
 1581 07bd DE070000 		.4byte	0x7de
 1582 07c1 3002     		.2byte	0x230
 1583 07c3 19       		.uleb128 0x19
 1584 07c4 543300   		.ascii	"T3\000"
 1585 07c7 10       		.byte	0x10
 1586 07c8 4C       		.byte	0x4c
 1587 07c9 05       		.byte	0x5
 1588 07ca DE070000 		.4byte	0x7de
ARM GAS  /var/folders/l5/0x54b2c10074c8bt31ycjvl80000gp/T//ccko8bQz.s 			page 29


 1589 07ce 4803     		.2byte	0x348
 1590 07d0 19       		.uleb128 0x19
 1591 07d1 543400   		.ascii	"T4\000"
 1592 07d4 10       		.byte	0x10
 1593 07d5 4D       		.byte	0x4d
 1594 07d6 05       		.byte	0x5
 1595 07d7 DE070000 		.4byte	0x7de
 1596 07db 6004     		.2byte	0x460
 1597 07dd 00       		.byte	0
 1598 07de 15       		.uleb128 0x15
 1599 07df 99020000 		.4byte	0x299
 1600 07e3 EE070000 		.4byte	0x7ee
 1601 07e7 16       		.uleb128 0x16
 1602 07e8 38000000 		.4byte	0x38
 1603 07ec 45       		.byte	0x45
 1604 07ed 00       		.byte	0
 1605 07ee 1A       		.uleb128 0x1a
 1606 07ef DE040000 		.4byte	.LASF114
 1607 07f3 7805     		.2byte	0x578
 1608 07f5 10       		.byte	0x10
 1609 07f6 47       		.byte	0x47
 1610 07f7 07       		.byte	0x7
 1611 07f8 14080000 		.4byte	0x814
 1612 07fc 14       		.uleb128 0x14
 1613 07fd 776100   		.ascii	"wa\000"
 1614 0800 10       		.byte	0x10
 1615 0801 4E       		.byte	0x4e
 1616 0802 05       		.byte	0x5
 1617 0803 93070000 		.4byte	0x793
 1618 0807 12       		.uleb128 0x12
 1619 0808 3B010000 		.4byte	.LASF115
 1620 080c 10       		.byte	0x10
 1621 080d 4F       		.byte	0x4f
 1622 080e 0B       		.byte	0xb
 1623 080f 14080000 		.4byte	0x814
 1624 0813 00       		.byte	0
 1625 0814 15       		.uleb128 0x15
 1626 0815 A7000000 		.4byte	0xa7
 1627 0819 25080000 		.4byte	0x825
 1628 081d 1B       		.uleb128 0x1b
 1629 081e 38000000 		.4byte	0x38
 1630 0822 7705     		.2byte	0x577
 1631 0824 00       		.byte	0
 1632 0825 15       		.uleb128 0x15
 1633 0826 64020000 		.4byte	0x264
 1634 082a 35080000 		.4byte	0x835
 1635 082e 16       		.uleb128 0x16
 1636 082f 38000000 		.4byte	0x38
 1637 0833 04       		.byte	0x4
 1638 0834 00       		.byte	0
 1639 0835 0F       		.uleb128 0xf
 1640 0836 E3020000 		.4byte	.LASF116
 1641 083a 10       		.byte	0x10
 1642 083b A9       		.byte	0xa9
 1643 083c 10       		.byte	0x10
 1644 083d 25080000 		.4byte	0x825
 1645 0841 0F       		.uleb128 0xf
ARM GAS  /var/folders/l5/0x54b2c10074c8bt31ycjvl80000gp/T//ccko8bQz.s 			page 30


 1646 0842 67000000 		.4byte	.LASF117
 1647 0846 10       		.byte	0x10
 1648 0847 AA       		.byte	0xaa
 1649 0848 1B       		.byte	0x1b
 1650 0849 EE070000 		.4byte	0x7ee
 1651 084d 15       		.uleb128 0x15
 1652 084e B3020000 		.4byte	0x2b3
 1653 0852 58080000 		.4byte	0x858
 1654 0856 1C       		.uleb128 0x1c
 1655 0857 00       		.byte	0
 1656 0858 0C       		.uleb128 0xc
 1657 0859 4D080000 		.4byte	0x84d
 1658 085d 1D       		.uleb128 0x1d
 1659 085e 776100   		.ascii	"wa\000"
 1660 0861 10       		.byte	0x10
 1661 0862 AB       		.byte	0xab
 1662 0863 18       		.byte	0x18
 1663 0864 58080000 		.4byte	0x858
 1664 0868 0F       		.uleb128 0xf
 1665 0869 C7010000 		.4byte	.LASF118
 1666 086d 10       		.byte	0x10
 1667 086e AC       		.byte	0xac
 1668 086f 0F       		.byte	0xf
 1669 0870 D7000000 		.4byte	0xd7
 1670 0874 1E       		.uleb128 0x1e
 1671 0875 73050000 		.4byte	.LASF121
 1672 0879 01       		.byte	0x1
 1673 087a 37       		.byte	0x37
 1674 087b 13       		.byte	0x13
 1675 087c 01050000 		.4byte	0x501
 1676 0880 05       		.uleb128 0x5
 1677 0881 03       		.byte	0x3
 1678 0882 00000000 		.4byte	test_heap
 1679 0886 1F       		.uleb128 0x1f
 1680 0887 1C030000 		.4byte	.LASF119
 1681 088b 01       		.byte	0x1
 1682 088c 92       		.byte	0x92
 1683 088d 1A       		.byte	0x1a
 1684 088e 87070000 		.4byte	0x787
 1685 0892 05       		.uleb128 0x5
 1686 0893 03       		.byte	0x3
 1687 0894 00000000 		.4byte	testheap1
 1688 0898 15       		.uleb128 0x15
 1689 0899 B3080000 		.4byte	0x8b3
 1690 089d A8080000 		.4byte	0x8a8
 1691 08a1 16       		.uleb128 0x16
 1692 08a2 38000000 		.4byte	0x38
 1693 08a6 01       		.byte	0x1
 1694 08a7 00       		.byte	0
 1695 08a8 0C       		.uleb128 0xc
 1696 08a9 98080000 		.4byte	0x898
 1697 08ad 0A       		.uleb128 0xa
 1698 08ae 04       		.byte	0x4
 1699 08af 87070000 		.4byte	0x787
 1700 08b3 0C       		.uleb128 0xc
 1701 08b4 AD080000 		.4byte	0x8ad
 1702 08b8 1F       		.uleb128 0x1f
ARM GAS  /var/folders/l5/0x54b2c10074c8bt31ycjvl80000gp/T//ccko8bQz.s 			page 31


 1703 08b9 99000000 		.4byte	.LASF120
 1704 08bd 01       		.byte	0x1
 1705 08be 9E       		.byte	0x9e
 1706 08bf 25       		.byte	0x25
 1707 08c0 A8080000 		.4byte	0x8a8
 1708 08c4 05       		.uleb128 0x5
 1709 08c5 03       		.byte	0x3
 1710 08c6 00000000 		.4byte	patternheap
 1711 08ca 20       		.uleb128 0x20
 1712 08cb 76010000 		.4byte	.LASF122
 1713 08cf 01       		.byte	0x1
 1714 08d0 49       		.byte	0x49
 1715 08d1 0D       		.byte	0xd
 1716 08d2 00000000 		.4byte	.LFB8
 1717 08d6 50030000 		.4byte	.LFE8-.LFB8
 1718 08da 01       		.uleb128 0x1
 1719 08db 9C       		.byte	0x9c
 1720 08dc 400E0000 		.4byte	0xe40
 1721 08e0 21       		.uleb128 0x21
 1722 08e1 703100   		.ascii	"p1\000"
 1723 08e4 01       		.byte	0x1
 1724 08e5 4A       		.byte	0x4a
 1725 08e6 09       		.byte	0x9
 1726 08e7 B1020000 		.4byte	0x2b1
 1727 08eb 22000000 		.4byte	.LLST0
 1728 08ef 00000000 		.4byte	.LVUS0
 1729 08f3 21       		.uleb128 0x21
 1730 08f4 703200   		.ascii	"p2\000"
 1731 08f7 01       		.byte	0x1
 1732 08f8 4A       		.byte	0x4a
 1733 08f9 0E       		.byte	0xe
 1734 08fa B1020000 		.4byte	0x2b1
 1735 08fe F5000000 		.4byte	.LLST1
 1736 0902 E5000000 		.4byte	.LVUS1
 1737 0906 21       		.uleb128 0x21
 1738 0907 703300   		.ascii	"p3\000"
 1739 090a 01       		.byte	0x1
 1740 090b 4A       		.byte	0x4a
 1741 090c 13       		.byte	0x13
 1742 090d B1020000 		.4byte	0x2b1
 1743 0911 5B010000 		.4byte	.LLST2
 1744 0915 55010000 		.4byte	.LVUS2
 1745 0919 22       		.uleb128 0x22
 1746 091a 6E00     		.ascii	"n\000"
 1747 091c 01       		.byte	0x1
 1748 091d 4B       		.byte	0x4b
 1749 091e 0A       		.byte	0xa
 1750 091f 2C000000 		.4byte	0x2c
 1751 0923 02       		.uleb128 0x2
 1752 0924 91       		.byte	0x91
 1753 0925 68       		.sleb128 -24
 1754 0926 22       		.uleb128 0x22
 1755 0927 737A00   		.ascii	"sz\000"
 1756 092a 01       		.byte	0x1
 1757 092b 4B       		.byte	0x4b
 1758 092c 0D       		.byte	0xd
 1759 092d 2C000000 		.4byte	0x2c
ARM GAS  /var/folders/l5/0x54b2c10074c8bt31ycjvl80000gp/T//ccko8bQz.s 			page 32


 1760 0931 02       		.uleb128 0x2
 1761 0932 91       		.byte	0x91
 1762 0933 6C       		.sleb128 -20
 1763 0934 23       		.uleb128 0x23
 1764 0935 0C000000 		.4byte	.LVL0
 1765 0939 710E0000 		.4byte	0xe71
 1766 093d 24       		.uleb128 0x24
 1767 093e 18000000 		.4byte	.LVL1
 1768 0942 7D0E0000 		.4byte	0xe7d
 1769 0946 56090000 		.4byte	0x956
 1770 094a 25       		.uleb128 0x25
 1771 094b 01       		.uleb128 0x1
 1772 094c 50       		.byte	0x50
 1773 094d 01       		.uleb128 0x1
 1774 094e 30       		.byte	0x30
 1775 094f 25       		.uleb128 0x25
 1776 0950 01       		.uleb128 0x1
 1777 0951 51       		.byte	0x51
 1778 0952 02       		.uleb128 0x2
 1779 0953 91       		.byte	0x91
 1780 0954 64       		.sleb128 -28
 1781 0955 00       		.byte	0
 1782 0956 24       		.uleb128 0x24
 1783 0957 24000000 		.4byte	.LVL2
 1784 095b 890E0000 		.4byte	0xe89
 1785 095f 6E090000 		.4byte	0x96e
 1786 0963 25       		.uleb128 0x25
 1787 0964 01       		.uleb128 0x1
 1788 0965 50       		.byte	0x50
 1789 0966 01       		.uleb128 0x1
 1790 0967 30       		.byte	0x30
 1791 0968 25       		.uleb128 0x25
 1792 0969 01       		.uleb128 0x1
 1793 096a 51       		.byte	0x51
 1794 096b 01       		.uleb128 0x1
 1795 096c 40       		.byte	0x40
 1796 096d 00       		.byte	0
 1797 096e 24       		.uleb128 0x24
 1798 096f 38000000 		.4byte	.LVL4
 1799 0973 950E0000 		.4byte	0xe95
 1800 0977 91090000 		.4byte	0x991
 1801 097b 25       		.uleb128 0x25
 1802 097c 01       		.uleb128 0x1
 1803 097d 50       		.byte	0x50
 1804 097e 01       		.uleb128 0x1
 1805 097f 31       		.byte	0x31
 1806 0980 25       		.uleb128 0x25
 1807 0981 01       		.uleb128 0x1
 1808 0982 51       		.byte	0x51
 1809 0983 0C       		.uleb128 0xc
 1810 0984 31       		.byte	0x31
 1811 0985 74       		.byte	0x74
 1812 0986 00       		.sleb128 0
 1813 0987 74       		.byte	0x74
 1814 0988 00       		.sleb128 0
 1815 0989 30       		.byte	0x30
 1816 098a 2E       		.byte	0x2e
ARM GAS  /var/folders/l5/0x54b2c10074c8bt31ycjvl80000gp/T//ccko8bQz.s 			page 33


 1817 098b 28       		.byte	0x28
 1818 098c 0100     		.2byte	0x1
 1819 098e 16       		.byte	0x16
 1820 098f 13       		.byte	0x13
 1821 0990 00       		.byte	0
 1822 0991 24       		.uleb128 0x24
 1823 0992 50000000 		.4byte	.LVL7
 1824 0996 A10E0000 		.4byte	0xea1
 1825 099a A5090000 		.4byte	0x9a5
 1826 099e 25       		.uleb128 0x25
 1827 099f 01       		.uleb128 0x1
 1828 09a0 50       		.byte	0x50
 1829 09a1 02       		.uleb128 0x2
 1830 09a2 74       		.byte	0x74
 1831 09a3 00       		.sleb128 0
 1832 09a4 00       		.byte	0
 1833 09a5 24       		.uleb128 0x24
 1834 09a6 5C000000 		.4byte	.LVL8
 1835 09aa 890E0000 		.4byte	0xe89
 1836 09ae C0090000 		.4byte	0x9c0
 1837 09b2 25       		.uleb128 0x25
 1838 09b3 01       		.uleb128 0x1
 1839 09b4 50       		.byte	0x50
 1840 09b5 02       		.uleb128 0x2
 1841 09b6 75       		.byte	0x75
 1842 09b7 00       		.sleb128 0
 1843 09b8 25       		.uleb128 0x25
 1844 09b9 01       		.uleb128 0x1
 1845 09ba 51       		.byte	0x51
 1846 09bb 03       		.uleb128 0x3
 1847 09bc 0B       		.byte	0xb
 1848 09bd 00FF     		.2byte	0xff00
 1849 09bf 00       		.byte	0
 1850 09c0 24       		.uleb128 0x24
 1851 09c1 6C000000 		.4byte	.LVL10
 1852 09c5 950E0000 		.4byte	0xe95
 1853 09c9 D3090000 		.4byte	0x9d3
 1854 09cd 25       		.uleb128 0x25
 1855 09ce 01       		.uleb128 0x1
 1856 09cf 50       		.byte	0x50
 1857 09d0 01       		.uleb128 0x1
 1858 09d1 32       		.byte	0x32
 1859 09d2 00       		.byte	0
 1860 09d3 24       		.uleb128 0x24
 1861 09d4 80000000 		.4byte	.LVL11
 1862 09d8 7D0E0000 		.4byte	0xe7d
 1863 09dc F0090000 		.4byte	0x9f0
 1864 09e0 25       		.uleb128 0x25
 1865 09e1 01       		.uleb128 0x1
 1866 09e2 50       		.byte	0x50
 1867 09e3 05       		.uleb128 0x5
 1868 09e4 03       		.byte	0x3
 1869 09e5 00000000 		.4byte	.LANCHOR0
 1870 09e9 25       		.uleb128 0x25
 1871 09ea 01       		.uleb128 0x1
 1872 09eb 51       		.byte	0x51
 1873 09ec 02       		.uleb128 0x2
ARM GAS  /var/folders/l5/0x54b2c10074c8bt31ycjvl80000gp/T//ccko8bQz.s 			page 34


 1874 09ed 91       		.byte	0x91
 1875 09ee 64       		.sleb128 -28
 1876 09ef 00       		.byte	0
 1877 09f0 24       		.uleb128 0x24
 1878 09f1 8C000000 		.4byte	.LVL12
 1879 09f5 890E0000 		.4byte	0xe89
 1880 09f9 0C0A0000 		.4byte	0xa0c
 1881 09fd 25       		.uleb128 0x25
 1882 09fe 01       		.uleb128 0x1
 1883 09ff 50       		.byte	0x50
 1884 0a00 05       		.uleb128 0x5
 1885 0a01 03       		.byte	0x3
 1886 0a02 00000000 		.4byte	.LANCHOR0
 1887 0a06 25       		.uleb128 0x25
 1888 0a07 01       		.uleb128 0x1
 1889 0a08 51       		.byte	0x51
 1890 0a09 01       		.uleb128 0x1
 1891 0a0a 40       		.byte	0x40
 1892 0a0b 00       		.byte	0
 1893 0a0c 24       		.uleb128 0x24
 1894 0a0d 9C000000 		.4byte	.LVL15
 1895 0a11 890E0000 		.4byte	0xe89
 1896 0a15 280A0000 		.4byte	0xa28
 1897 0a19 25       		.uleb128 0x25
 1898 0a1a 01       		.uleb128 0x1
 1899 0a1b 50       		.byte	0x50
 1900 0a1c 05       		.uleb128 0x5
 1901 0a1d 03       		.byte	0x3
 1902 0a1e 00000000 		.4byte	.LANCHOR0
 1903 0a22 25       		.uleb128 0x25
 1904 0a23 01       		.uleb128 0x1
 1905 0a24 51       		.byte	0x51
 1906 0a25 01       		.uleb128 0x1
 1907 0a26 40       		.byte	0x40
 1908 0a27 00       		.byte	0
 1909 0a28 24       		.uleb128 0x24
 1910 0a29 AC000000 		.4byte	.LVL18
 1911 0a2d 890E0000 		.4byte	0xe89
 1912 0a31 440A0000 		.4byte	0xa44
 1913 0a35 25       		.uleb128 0x25
 1914 0a36 01       		.uleb128 0x1
 1915 0a37 50       		.byte	0x50
 1916 0a38 05       		.uleb128 0x5
 1917 0a39 03       		.byte	0x3
 1918 0a3a 00000000 		.4byte	.LANCHOR0
 1919 0a3e 25       		.uleb128 0x25
 1920 0a3f 01       		.uleb128 0x1
 1921 0a40 51       		.byte	0x51
 1922 0a41 01       		.uleb128 0x1
 1923 0a42 40       		.byte	0x40
 1924 0a43 00       		.byte	0
 1925 0a44 24       		.uleb128 0x24
 1926 0a45 B8000000 		.4byte	.LVL21
 1927 0a49 A10E0000 		.4byte	0xea1
 1928 0a4d 580A0000 		.4byte	0xa58
 1929 0a51 25       		.uleb128 0x25
 1930 0a52 01       		.uleb128 0x1
ARM GAS  /var/folders/l5/0x54b2c10074c8bt31ycjvl80000gp/T//ccko8bQz.s 			page 35


 1931 0a53 50       		.byte	0x50
 1932 0a54 02       		.uleb128 0x2
 1933 0a55 76       		.byte	0x76
 1934 0a56 00       		.sleb128 0
 1935 0a57 00       		.byte	0
 1936 0a58 24       		.uleb128 0x24
 1937 0a59 C0000000 		.4byte	.LVL22
 1938 0a5d A10E0000 		.4byte	0xea1
 1939 0a61 6C0A0000 		.4byte	0xa6c
 1940 0a65 25       		.uleb128 0x25
 1941 0a66 01       		.uleb128 0x1
 1942 0a67 50       		.byte	0x50
 1943 0a68 02       		.uleb128 0x2
 1944 0a69 75       		.byte	0x75
 1945 0a6a 00       		.sleb128 0
 1946 0a6b 00       		.byte	0
 1947 0a6c 24       		.uleb128 0x24
 1948 0a6d C8000000 		.4byte	.LVL23
 1949 0a71 A10E0000 		.4byte	0xea1
 1950 0a75 800A0000 		.4byte	0xa80
 1951 0a79 25       		.uleb128 0x25
 1952 0a7a 01       		.uleb128 0x1
 1953 0a7b 50       		.byte	0x50
 1954 0a7c 02       		.uleb128 0x2
 1955 0a7d 74       		.byte	0x74
 1956 0a7e 00       		.sleb128 0
 1957 0a7f 00       		.byte	0
 1958 0a80 24       		.uleb128 0x24
 1959 0a81 D4000000 		.4byte	.LVL24
 1960 0a85 7D0E0000 		.4byte	0xe7d
 1961 0a89 9D0A0000 		.4byte	0xa9d
 1962 0a8d 25       		.uleb128 0x25
 1963 0a8e 01       		.uleb128 0x1
 1964 0a8f 50       		.byte	0x50
 1965 0a90 05       		.uleb128 0x5
 1966 0a91 03       		.byte	0x3
 1967 0a92 00000000 		.4byte	.LANCHOR0
 1968 0a96 25       		.uleb128 0x25
 1969 0a97 01       		.uleb128 0x1
 1970 0a98 51       		.byte	0x51
 1971 0a99 02       		.uleb128 0x2
 1972 0a9a 7D       		.byte	0x7d
 1973 0a9b 00       		.sleb128 0
 1974 0a9c 00       		.byte	0
 1975 0a9d 24       		.uleb128 0x24
 1976 0a9e E8000000 		.4byte	.LVL25
 1977 0aa2 950E0000 		.4byte	0xe95
 1978 0aa6 B00A0000 		.4byte	0xab0
 1979 0aaa 25       		.uleb128 0x25
 1980 0aab 01       		.uleb128 0x1
 1981 0aac 50       		.byte	0x50
 1982 0aad 01       		.uleb128 0x1
 1983 0aae 33       		.byte	0x33
 1984 0aaf 00       		.byte	0
 1985 0ab0 24       		.uleb128 0x24
 1986 0ab1 FC000000 		.4byte	.LVL26
 1987 0ab5 890E0000 		.4byte	0xe89
ARM GAS  /var/folders/l5/0x54b2c10074c8bt31ycjvl80000gp/T//ccko8bQz.s 			page 36


 1988 0ab9 CC0A0000 		.4byte	0xacc
 1989 0abd 25       		.uleb128 0x25
 1990 0abe 01       		.uleb128 0x1
 1991 0abf 50       		.byte	0x50
 1992 0ac0 05       		.uleb128 0x5
 1993 0ac1 03       		.byte	0x3
 1994 0ac2 00000000 		.4byte	.LANCHOR0
 1995 0ac6 25       		.uleb128 0x25
 1996 0ac7 01       		.uleb128 0x1
 1997 0ac8 51       		.byte	0x51
 1998 0ac9 01       		.uleb128 0x1
 1999 0aca 40       		.byte	0x40
 2000 0acb 00       		.byte	0
 2001 0acc 24       		.uleb128 0x24
 2002 0acd 0C010000 		.4byte	.LVL29
 2003 0ad1 890E0000 		.4byte	0xe89
 2004 0ad5 E80A0000 		.4byte	0xae8
 2005 0ad9 25       		.uleb128 0x25
 2006 0ada 01       		.uleb128 0x1
 2007 0adb 50       		.byte	0x50
 2008 0adc 05       		.uleb128 0x5
 2009 0add 03       		.byte	0x3
 2010 0ade 00000000 		.4byte	.LANCHOR0
 2011 0ae2 25       		.uleb128 0x25
 2012 0ae3 01       		.uleb128 0x1
 2013 0ae4 51       		.byte	0x51
 2014 0ae5 01       		.uleb128 0x1
 2015 0ae6 40       		.byte	0x40
 2016 0ae7 00       		.byte	0
 2017 0ae8 24       		.uleb128 0x24
 2018 0ae9 1C010000 		.4byte	.LVL32
 2019 0aed 890E0000 		.4byte	0xe89
 2020 0af1 040B0000 		.4byte	0xb04
 2021 0af5 25       		.uleb128 0x25
 2022 0af6 01       		.uleb128 0x1
 2023 0af7 50       		.byte	0x50
 2024 0af8 05       		.uleb128 0x5
 2025 0af9 03       		.byte	0x3
 2026 0afa 00000000 		.4byte	.LANCHOR0
 2027 0afe 25       		.uleb128 0x25
 2028 0aff 01       		.uleb128 0x1
 2029 0b00 51       		.byte	0x51
 2030 0b01 01       		.uleb128 0x1
 2031 0b02 40       		.byte	0x40
 2032 0b03 00       		.byte	0
 2033 0b04 23       		.uleb128 0x23
 2034 0b05 20010000 		.4byte	.LVL33
 2035 0b09 A10E0000 		.4byte	0xea1
 2036 0b0d 24       		.uleb128 0x24
 2037 0b0e 28010000 		.4byte	.LVL34
 2038 0b12 A10E0000 		.4byte	0xea1
 2039 0b16 210B0000 		.4byte	0xb21
 2040 0b1a 25       		.uleb128 0x25
 2041 0b1b 01       		.uleb128 0x1
 2042 0b1c 50       		.byte	0x50
 2043 0b1d 02       		.uleb128 0x2
 2044 0b1e 75       		.byte	0x75
ARM GAS  /var/folders/l5/0x54b2c10074c8bt31ycjvl80000gp/T//ccko8bQz.s 			page 37


 2045 0b1f 00       		.sleb128 0
 2046 0b20 00       		.byte	0
 2047 0b21 24       		.uleb128 0x24
 2048 0b22 30010000 		.4byte	.LVL35
 2049 0b26 A10E0000 		.4byte	0xea1
 2050 0b2a 350B0000 		.4byte	0xb35
 2051 0b2e 25       		.uleb128 0x25
 2052 0b2f 01       		.uleb128 0x1
 2053 0b30 50       		.byte	0x50
 2054 0b31 02       		.uleb128 0x2
 2055 0b32 74       		.byte	0x74
 2056 0b33 00       		.sleb128 0
 2057 0b34 00       		.byte	0
 2058 0b35 24       		.uleb128 0x24
 2059 0b36 3C010000 		.4byte	.LVL36
 2060 0b3a 7D0E0000 		.4byte	0xe7d
 2061 0b3e 520B0000 		.4byte	0xb52
 2062 0b42 25       		.uleb128 0x25
 2063 0b43 01       		.uleb128 0x1
 2064 0b44 50       		.byte	0x50
 2065 0b45 05       		.uleb128 0x5
 2066 0b46 03       		.byte	0x3
 2067 0b47 00000000 		.4byte	.LANCHOR0
 2068 0b4b 25       		.uleb128 0x25
 2069 0b4c 01       		.uleb128 0x1
 2070 0b4d 51       		.byte	0x51
 2071 0b4e 02       		.uleb128 0x2
 2072 0b4f 7D       		.byte	0x7d
 2073 0b50 00       		.sleb128 0
 2074 0b51 00       		.byte	0
 2075 0b52 24       		.uleb128 0x24
 2076 0b53 50010000 		.4byte	.LVL37
 2077 0b57 950E0000 		.4byte	0xe95
 2078 0b5b 650B0000 		.4byte	0xb65
 2079 0b5f 25       		.uleb128 0x25
 2080 0b60 01       		.uleb128 0x1
 2081 0b61 50       		.byte	0x50
 2082 0b62 01       		.uleb128 0x1
 2083 0b63 34       		.byte	0x34
 2084 0b64 00       		.byte	0
 2085 0b65 24       		.uleb128 0x24
 2086 0b66 64010000 		.4byte	.LVL38
 2087 0b6a 890E0000 		.4byte	0xe89
 2088 0b6e 810B0000 		.4byte	0xb81
 2089 0b72 25       		.uleb128 0x25
 2090 0b73 01       		.uleb128 0x1
 2091 0b74 50       		.byte	0x50
 2092 0b75 05       		.uleb128 0x5
 2093 0b76 03       		.byte	0x3
 2094 0b77 00000000 		.4byte	.LANCHOR0
 2095 0b7b 25       		.uleb128 0x25
 2096 0b7c 01       		.uleb128 0x1
 2097 0b7d 51       		.byte	0x51
 2098 0b7e 01       		.uleb128 0x1
 2099 0b7f 41       		.byte	0x41
 2100 0b80 00       		.byte	0
 2101 0b81 24       		.uleb128 0x24
ARM GAS  /var/folders/l5/0x54b2c10074c8bt31ycjvl80000gp/T//ccko8bQz.s 			page 38


 2102 0b82 74010000 		.4byte	.LVL41
 2103 0b86 890E0000 		.4byte	0xe89
 2104 0b8a 9D0B0000 		.4byte	0xb9d
 2105 0b8e 25       		.uleb128 0x25
 2106 0b8f 01       		.uleb128 0x1
 2107 0b90 50       		.byte	0x50
 2108 0b91 05       		.uleb128 0x5
 2109 0b92 03       		.byte	0x3
 2110 0b93 00000000 		.4byte	.LANCHOR0
 2111 0b97 25       		.uleb128 0x25
 2112 0b98 01       		.uleb128 0x1
 2113 0b99 51       		.byte	0x51
 2114 0b9a 01       		.uleb128 0x1
 2115 0b9b 40       		.byte	0x40
 2116 0b9c 00       		.byte	0
 2117 0b9d 24       		.uleb128 0x24
 2118 0b9e 80010000 		.4byte	.LVL44
 2119 0ba2 A10E0000 		.4byte	0xea1
 2120 0ba6 B10B0000 		.4byte	0xbb1
 2121 0baa 25       		.uleb128 0x25
 2122 0bab 01       		.uleb128 0x1
 2123 0bac 50       		.byte	0x50
 2124 0bad 02       		.uleb128 0x2
 2125 0bae 74       		.byte	0x74
 2126 0baf 00       		.sleb128 0
 2127 0bb0 00       		.byte	0
 2128 0bb1 24       		.uleb128 0x24
 2129 0bb2 8C010000 		.4byte	.LVL45
 2130 0bb6 7D0E0000 		.4byte	0xe7d
 2131 0bba CE0B0000 		.4byte	0xbce
 2132 0bbe 25       		.uleb128 0x25
 2133 0bbf 01       		.uleb128 0x1
 2134 0bc0 50       		.byte	0x50
 2135 0bc1 05       		.uleb128 0x5
 2136 0bc2 03       		.byte	0x3
 2137 0bc3 00000000 		.4byte	.LANCHOR0
 2138 0bc7 25       		.uleb128 0x25
 2139 0bc8 01       		.uleb128 0x1
 2140 0bc9 51       		.byte	0x51
 2141 0bca 02       		.uleb128 0x2
 2142 0bcb 7D       		.byte	0x7d
 2143 0bcc 00       		.sleb128 0
 2144 0bcd 00       		.byte	0
 2145 0bce 24       		.uleb128 0x24
 2146 0bcf A0010000 		.4byte	.LVL46
 2147 0bd3 950E0000 		.4byte	0xe95
 2148 0bd7 E10B0000 		.4byte	0xbe1
 2149 0bdb 25       		.uleb128 0x25
 2150 0bdc 01       		.uleb128 0x1
 2151 0bdd 50       		.byte	0x50
 2152 0bde 01       		.uleb128 0x1
 2153 0bdf 35       		.byte	0x35
 2154 0be0 00       		.byte	0
 2155 0be1 24       		.uleb128 0x24
 2156 0be2 B4010000 		.4byte	.LVL47
 2157 0be6 890E0000 		.4byte	0xe89
 2158 0bea FD0B0000 		.4byte	0xbfd
ARM GAS  /var/folders/l5/0x54b2c10074c8bt31ycjvl80000gp/T//ccko8bQz.s 			page 39


 2159 0bee 25       		.uleb128 0x25
 2160 0bef 01       		.uleb128 0x1
 2161 0bf0 50       		.byte	0x50
 2162 0bf1 05       		.uleb128 0x5
 2163 0bf2 03       		.byte	0x3
 2164 0bf3 00000000 		.4byte	.LANCHOR0
 2165 0bf7 25       		.uleb128 0x25
 2166 0bf8 01       		.uleb128 0x1
 2167 0bf9 51       		.byte	0x51
 2168 0bfa 01       		.uleb128 0x1
 2169 0bfb 40       		.byte	0x40
 2170 0bfc 00       		.byte	0
 2171 0bfd 24       		.uleb128 0x24
 2172 0bfe C4010000 		.4byte	.LVL50
 2173 0c02 7D0E0000 		.4byte	0xe7d
 2174 0c06 1A0C0000 		.4byte	0xc1a
 2175 0c0a 25       		.uleb128 0x25
 2176 0c0b 01       		.uleb128 0x1
 2177 0c0c 50       		.byte	0x50
 2178 0c0d 05       		.uleb128 0x5
 2179 0c0e 03       		.byte	0x3
 2180 0c0f 00000000 		.4byte	.LANCHOR0
 2181 0c13 25       		.uleb128 0x25
 2182 0c14 01       		.uleb128 0x1
 2183 0c15 51       		.byte	0x51
 2184 0c16 02       		.uleb128 0x2
 2185 0c17 7D       		.byte	0x7d
 2186 0c18 00       		.sleb128 0
 2187 0c19 00       		.byte	0
 2188 0c1a 24       		.uleb128 0x24
 2189 0c1b DC010000 		.4byte	.LVL51
 2190 0c1f 7D0E0000 		.4byte	0xe7d
 2191 0c23 370C0000 		.4byte	0xc37
 2192 0c27 25       		.uleb128 0x25
 2193 0c28 01       		.uleb128 0x1
 2194 0c29 50       		.byte	0x50
 2195 0c2a 05       		.uleb128 0x5
 2196 0c2b 03       		.byte	0x3
 2197 0c2c 00000000 		.4byte	.LANCHOR0
 2198 0c30 25       		.uleb128 0x25
 2199 0c31 01       		.uleb128 0x1
 2200 0c32 51       		.byte	0x51
 2201 0c33 02       		.uleb128 0x2
 2202 0c34 7D       		.byte	0x7d
 2203 0c35 00       		.sleb128 0
 2204 0c36 00       		.byte	0
 2205 0c37 24       		.uleb128 0x24
 2206 0c38 F0010000 		.4byte	.LVL52
 2207 0c3c 950E0000 		.4byte	0xe95
 2208 0c40 4A0C0000 		.4byte	0xc4a
 2209 0c44 25       		.uleb128 0x25
 2210 0c45 01       		.uleb128 0x1
 2211 0c46 50       		.byte	0x50
 2212 0c47 01       		.uleb128 0x1
 2213 0c48 36       		.byte	0x36
 2214 0c49 00       		.byte	0
 2215 0c4a 24       		.uleb128 0x24
ARM GAS  /var/folders/l5/0x54b2c10074c8bt31ycjvl80000gp/T//ccko8bQz.s 			page 40


 2216 0c4b 00020000 		.4byte	.LVL53
 2217 0c4f A10E0000 		.4byte	0xea1
 2218 0c53 5E0C0000 		.4byte	0xc5e
 2219 0c57 25       		.uleb128 0x25
 2220 0c58 01       		.uleb128 0x1
 2221 0c59 50       		.byte	0x50
 2222 0c5a 02       		.uleb128 0x2
 2223 0c5b 75       		.byte	0x75
 2224 0c5c 00       		.sleb128 0
 2225 0c5d 00       		.byte	0
 2226 0c5e 24       		.uleb128 0x24
 2227 0c5f 08020000 		.4byte	.LVL54
 2228 0c63 A10E0000 		.4byte	0xea1
 2229 0c67 720C0000 		.4byte	0xc72
 2230 0c6b 25       		.uleb128 0x25
 2231 0c6c 01       		.uleb128 0x1
 2232 0c6d 50       		.byte	0x50
 2233 0c6e 02       		.uleb128 0x2
 2234 0c6f 74       		.byte	0x74
 2235 0c70 00       		.sleb128 0
 2236 0c71 00       		.byte	0
 2237 0c72 24       		.uleb128 0x24
 2238 0c73 14020000 		.4byte	.LVL55
 2239 0c77 7D0E0000 		.4byte	0xe7d
 2240 0c7b 8F0C0000 		.4byte	0xc8f
 2241 0c7f 25       		.uleb128 0x25
 2242 0c80 01       		.uleb128 0x1
 2243 0c81 50       		.byte	0x50
 2244 0c82 05       		.uleb128 0x5
 2245 0c83 03       		.byte	0x3
 2246 0c84 00000000 		.4byte	.LANCHOR0
 2247 0c88 25       		.uleb128 0x25
 2248 0c89 01       		.uleb128 0x1
 2249 0c8a 51       		.byte	0x51
 2250 0c8b 02       		.uleb128 0x2
 2251 0c8c 7D       		.byte	0x7d
 2252 0c8d 00       		.sleb128 0
 2253 0c8e 00       		.byte	0
 2254 0c8f 24       		.uleb128 0x24
 2255 0c90 28020000 		.4byte	.LVL56
 2256 0c94 950E0000 		.4byte	0xe95
 2257 0c98 A20C0000 		.4byte	0xca2
 2258 0c9c 25       		.uleb128 0x25
 2259 0c9d 01       		.uleb128 0x1
 2260 0c9e 50       		.byte	0x50
 2261 0c9f 01       		.uleb128 0x1
 2262 0ca0 37       		.byte	0x37
 2263 0ca1 00       		.byte	0
 2264 0ca2 24       		.uleb128 0x24
 2265 0ca3 3C020000 		.4byte	.LVL57
 2266 0ca7 890E0000 		.4byte	0xe89
 2267 0cab BE0C0000 		.4byte	0xcbe
 2268 0caf 25       		.uleb128 0x25
 2269 0cb0 01       		.uleb128 0x1
 2270 0cb1 50       		.byte	0x50
 2271 0cb2 05       		.uleb128 0x5
 2272 0cb3 03       		.byte	0x3
ARM GAS  /var/folders/l5/0x54b2c10074c8bt31ycjvl80000gp/T//ccko8bQz.s 			page 41


 2273 0cb4 00000000 		.4byte	.LANCHOR0
 2274 0cb8 25       		.uleb128 0x25
 2275 0cb9 01       		.uleb128 0x1
 2276 0cba 51       		.byte	0x51
 2277 0cbb 01       		.uleb128 0x1
 2278 0cbc 40       		.byte	0x40
 2279 0cbd 00       		.byte	0
 2280 0cbe 24       		.uleb128 0x24
 2281 0cbf 4C020000 		.4byte	.LVL60
 2282 0cc3 890E0000 		.4byte	0xe89
 2283 0cc7 DA0C0000 		.4byte	0xcda
 2284 0ccb 25       		.uleb128 0x25
 2285 0ccc 01       		.uleb128 0x1
 2286 0ccd 50       		.byte	0x50
 2287 0cce 05       		.uleb128 0x5
 2288 0ccf 03       		.byte	0x3
 2289 0cd0 00000000 		.4byte	.LANCHOR0
 2290 0cd4 25       		.uleb128 0x25
 2291 0cd5 01       		.uleb128 0x1
 2292 0cd6 51       		.byte	0x51
 2293 0cd7 01       		.uleb128 0x1
 2294 0cd8 40       		.byte	0x40
 2295 0cd9 00       		.byte	0
 2296 0cda 24       		.uleb128 0x24
 2297 0cdb 58020000 		.4byte	.LVL63
 2298 0cdf A10E0000 		.4byte	0xea1
 2299 0ce3 EE0C0000 		.4byte	0xcee
 2300 0ce7 25       		.uleb128 0x25
 2301 0ce8 01       		.uleb128 0x1
 2302 0ce9 50       		.byte	0x50
 2303 0cea 02       		.uleb128 0x2
 2304 0ceb 74       		.byte	0x74
 2305 0cec 00       		.sleb128 0
 2306 0ced 00       		.byte	0
 2307 0cee 24       		.uleb128 0x24
 2308 0cef 64020000 		.4byte	.LVL64
 2309 0cf3 7D0E0000 		.4byte	0xe7d
 2310 0cf7 0B0D0000 		.4byte	0xd0b
 2311 0cfb 25       		.uleb128 0x25
 2312 0cfc 01       		.uleb128 0x1
 2313 0cfd 50       		.byte	0x50
 2314 0cfe 05       		.uleb128 0x5
 2315 0cff 03       		.byte	0x3
 2316 0d00 00000000 		.4byte	.LANCHOR0
 2317 0d04 25       		.uleb128 0x25
 2318 0d05 01       		.uleb128 0x1
 2319 0d06 51       		.byte	0x51
 2320 0d07 02       		.uleb128 0x2
 2321 0d08 7D       		.byte	0x7d
 2322 0d09 00       		.sleb128 0
 2323 0d0a 00       		.byte	0
 2324 0d0b 24       		.uleb128 0x24
 2325 0d0c 78020000 		.4byte	.LVL65
 2326 0d10 950E0000 		.4byte	0xe95
 2327 0d14 1E0D0000 		.4byte	0xd1e
 2328 0d18 25       		.uleb128 0x25
 2329 0d19 01       		.uleb128 0x1
ARM GAS  /var/folders/l5/0x54b2c10074c8bt31ycjvl80000gp/T//ccko8bQz.s 			page 42


 2330 0d1a 50       		.byte	0x50
 2331 0d1b 01       		.uleb128 0x1
 2332 0d1c 38       		.byte	0x38
 2333 0d1d 00       		.byte	0
 2334 0d1e 24       		.uleb128 0x24
 2335 0d1f 8C020000 		.4byte	.LVL66
 2336 0d23 890E0000 		.4byte	0xe89
 2337 0d27 3B0D0000 		.4byte	0xd3b
 2338 0d2b 25       		.uleb128 0x25
 2339 0d2c 01       		.uleb128 0x1
 2340 0d2d 50       		.byte	0x50
 2341 0d2e 05       		.uleb128 0x5
 2342 0d2f 03       		.byte	0x3
 2343 0d30 00000000 		.4byte	.LANCHOR0
 2344 0d34 25       		.uleb128 0x25
 2345 0d35 01       		.uleb128 0x1
 2346 0d36 51       		.byte	0x51
 2347 0d37 02       		.uleb128 0x2
 2348 0d38 08       		.byte	0x8
 2349 0d39 20       		.byte	0x20
 2350 0d3a 00       		.byte	0
 2351 0d3b 23       		.uleb128 0x23
 2352 0d3c 90020000 		.4byte	.LVL67
 2353 0d40 A10E0000 		.4byte	0xea1
 2354 0d44 24       		.uleb128 0x24
 2355 0d45 98020000 		.4byte	.LVL68
 2356 0d49 A10E0000 		.4byte	0xea1
 2357 0d4d 580D0000 		.4byte	0xd58
 2358 0d51 25       		.uleb128 0x25
 2359 0d52 01       		.uleb128 0x1
 2360 0d53 50       		.byte	0x50
 2361 0d54 02       		.uleb128 0x2
 2362 0d55 75       		.byte	0x75
 2363 0d56 00       		.sleb128 0
 2364 0d57 00       		.byte	0
 2365 0d58 24       		.uleb128 0x24
 2366 0d59 A4020000 		.4byte	.LVL69
 2367 0d5d 7D0E0000 		.4byte	0xe7d
 2368 0d61 750D0000 		.4byte	0xd75
 2369 0d65 25       		.uleb128 0x25
 2370 0d66 01       		.uleb128 0x1
 2371 0d67 50       		.byte	0x50
 2372 0d68 05       		.uleb128 0x5
 2373 0d69 03       		.byte	0x3
 2374 0d6a 00000000 		.4byte	.LANCHOR0
 2375 0d6e 25       		.uleb128 0x25
 2376 0d6f 01       		.uleb128 0x1
 2377 0d70 51       		.byte	0x51
 2378 0d71 02       		.uleb128 0x2
 2379 0d72 7D       		.byte	0x7d
 2380 0d73 00       		.sleb128 0
 2381 0d74 00       		.byte	0
 2382 0d75 24       		.uleb128 0x24
 2383 0d76 B8020000 		.4byte	.LVL70
 2384 0d7a 950E0000 		.4byte	0xe95
 2385 0d7e 880D0000 		.4byte	0xd88
 2386 0d82 25       		.uleb128 0x25
ARM GAS  /var/folders/l5/0x54b2c10074c8bt31ycjvl80000gp/T//ccko8bQz.s 			page 43


 2387 0d83 01       		.uleb128 0x1
 2388 0d84 50       		.byte	0x50
 2389 0d85 01       		.uleb128 0x1
 2390 0d86 39       		.byte	0x39
 2391 0d87 00       		.byte	0
 2392 0d88 24       		.uleb128 0x24
 2393 0d89 CC020000 		.4byte	.LVL71
 2394 0d8d 7D0E0000 		.4byte	0xe7d
 2395 0d91 A50D0000 		.4byte	0xda5
 2396 0d95 25       		.uleb128 0x25
 2397 0d96 01       		.uleb128 0x1
 2398 0d97 50       		.byte	0x50
 2399 0d98 05       		.uleb128 0x5
 2400 0d99 03       		.byte	0x3
 2401 0d9a 00000000 		.4byte	.LANCHOR0
 2402 0d9e 25       		.uleb128 0x25
 2403 0d9f 01       		.uleb128 0x1
 2404 0da0 51       		.byte	0x51
 2405 0da1 02       		.uleb128 0x2
 2406 0da2 7D       		.byte	0x7d
 2407 0da3 00       		.sleb128 0
 2408 0da4 00       		.byte	0
 2409 0da5 24       		.uleb128 0x24
 2410 0da6 D8020000 		.4byte	.LVL72
 2411 0daa 890E0000 		.4byte	0xe89
 2412 0dae BC0D0000 		.4byte	0xdbc
 2413 0db2 25       		.uleb128 0x25
 2414 0db3 01       		.uleb128 0x1
 2415 0db4 50       		.byte	0x50
 2416 0db5 05       		.uleb128 0x5
 2417 0db6 03       		.byte	0x3
 2418 0db7 00000000 		.4byte	.LANCHOR0
 2419 0dbb 00       		.byte	0
 2420 0dbc 24       		.uleb128 0x24
 2421 0dbd E8020000 		.4byte	.LVL75
 2422 0dc1 7D0E0000 		.4byte	0xe7d
 2423 0dc5 D90D0000 		.4byte	0xdd9
 2424 0dc9 25       		.uleb128 0x25
 2425 0dca 01       		.uleb128 0x1
 2426 0dcb 50       		.byte	0x50
 2427 0dcc 05       		.uleb128 0x5
 2428 0dcd 03       		.byte	0x3
 2429 0dce 00000000 		.4byte	.LANCHOR0
 2430 0dd2 25       		.uleb128 0x25
 2431 0dd3 01       		.uleb128 0x1
 2432 0dd4 51       		.byte	0x51
 2433 0dd5 02       		.uleb128 0x2
 2434 0dd6 7D       		.byte	0x7d
 2435 0dd7 00       		.sleb128 0
 2436 0dd8 00       		.byte	0
 2437 0dd9 24       		.uleb128 0x24
 2438 0dda F8020000 		.4byte	.LVL76
 2439 0dde 950E0000 		.4byte	0xe95
 2440 0de2 EC0D0000 		.4byte	0xdec
 2441 0de6 25       		.uleb128 0x25
 2442 0de7 01       		.uleb128 0x1
 2443 0de8 50       		.byte	0x50
ARM GAS  /var/folders/l5/0x54b2c10074c8bt31ycjvl80000gp/T//ccko8bQz.s 			page 44


 2444 0de9 01       		.uleb128 0x1
 2445 0dea 3A       		.byte	0x3a
 2446 0deb 00       		.byte	0
 2447 0dec 24       		.uleb128 0x24
 2448 0ded 08030000 		.4byte	.LVL77
 2449 0df1 A10E0000 		.4byte	0xea1
 2450 0df5 000E0000 		.4byte	0xe00
 2451 0df9 25       		.uleb128 0x25
 2452 0dfa 01       		.uleb128 0x1
 2453 0dfb 50       		.byte	0x50
 2454 0dfc 02       		.uleb128 0x2
 2455 0dfd 74       		.byte	0x74
 2456 0dfe 00       		.sleb128 0
 2457 0dff 00       		.byte	0
 2458 0e00 24       		.uleb128 0x24
 2459 0e01 14030000 		.4byte	.LVL78
 2460 0e05 7D0E0000 		.4byte	0xe7d
 2461 0e09 1D0E0000 		.4byte	0xe1d
 2462 0e0d 25       		.uleb128 0x25
 2463 0e0e 01       		.uleb128 0x1
 2464 0e0f 50       		.byte	0x50
 2465 0e10 05       		.uleb128 0x5
 2466 0e11 03       		.byte	0x3
 2467 0e12 00000000 		.4byte	.LANCHOR0
 2468 0e16 25       		.uleb128 0x25
 2469 0e17 01       		.uleb128 0x1
 2470 0e18 51       		.byte	0x51
 2471 0e19 02       		.uleb128 0x2
 2472 0e1a 7D       		.byte	0x7d
 2473 0e1b 00       		.sleb128 0
 2474 0e1c 00       		.byte	0
 2475 0e1d 24       		.uleb128 0x24
 2476 0e1e 28030000 		.4byte	.LVL79
 2477 0e22 950E0000 		.4byte	0xe95
 2478 0e26 300E0000 		.4byte	0xe30
 2479 0e2a 25       		.uleb128 0x25
 2480 0e2b 01       		.uleb128 0x1
 2481 0e2c 50       		.byte	0x50
 2482 0e2d 01       		.uleb128 0x1
 2483 0e2e 3B       		.byte	0x3b
 2484 0e2f 00       		.byte	0
 2485 0e30 26       		.uleb128 0x26
 2486 0e31 48030000 		.4byte	.LVL80
 2487 0e35 950E0000 		.4byte	0xe95
 2488 0e39 25       		.uleb128 0x25
 2489 0e3a 01       		.uleb128 0x1
 2490 0e3b 50       		.byte	0x50
 2491 0e3c 01       		.uleb128 0x1
 2492 0e3d 3C       		.byte	0x3c
 2493 0e3e 00       		.byte	0
 2494 0e3f 00       		.byte	0
 2495 0e40 20       		.uleb128 0x20
 2496 0e41 FC000000 		.4byte	.LASF123
 2497 0e45 01       		.byte	0x1
 2498 0e46 44       		.byte	0x44
 2499 0e47 0D       		.byte	0xd
 2500 0e48 00000000 		.4byte	.LFB7
ARM GAS  /var/folders/l5/0x54b2c10074c8bt31ycjvl80000gp/T//ccko8bQz.s 			page 45


 2501 0e4c 1C000000 		.4byte	.LFE7-.LFB7
 2502 0e50 01       		.uleb128 0x1
 2503 0e51 9C       		.byte	0x9c
 2504 0e52 710E0000 		.4byte	0xe71
 2505 0e56 27       		.uleb128 0x27
 2506 0e57 10000000 		.4byte	.LVL81
 2507 0e5b AD0E0000 		.4byte	0xead
 2508 0e5f 25       		.uleb128 0x25
 2509 0e60 01       		.uleb128 0x1
 2510 0e61 50       		.byte	0x50
 2511 0e62 05       		.uleb128 0x5
 2512 0e63 03       		.byte	0x3
 2513 0e64 00000000 		.4byte	.LANCHOR0
 2514 0e68 25       		.uleb128 0x25
 2515 0e69 01       		.uleb128 0x1
 2516 0e6a 52       		.byte	0x52
 2517 0e6b 03       		.uleb128 0x3
 2518 0e6c 0A       		.byte	0xa
 2519 0e6d 7805     		.2byte	0x578
 2520 0e6f 00       		.byte	0
 2521 0e70 00       		.byte	0
 2522 0e71 28       		.uleb128 0x28
 2523 0e72 56030000 		.4byte	.LASF124
 2524 0e76 56030000 		.4byte	.LASF124
 2525 0e7a 0C       		.byte	0xc
 2526 0e7b 4D       		.byte	0x4d
 2527 0e7c 0A       		.byte	0xa
 2528 0e7d 28       		.uleb128 0x28
 2529 0e7e F6040000 		.4byte	.LASF125
 2530 0e82 F6040000 		.4byte	.LASF125
 2531 0e86 0D       		.byte	0xd
 2532 0e87 54       		.byte	0x54
 2533 0e88 0A       		.byte	0xa
 2534 0e89 28       		.uleb128 0x28
 2535 0e8a 7D040000 		.4byte	.LASF126
 2536 0e8e 7D040000 		.4byte	.LASF126
 2537 0e92 0D       		.byte	0xd
 2538 0e93 52       		.byte	0x52
 2539 0e94 09       		.byte	0x9
 2540 0e95 28       		.uleb128 0x28
 2541 0e96 8B050000 		.4byte	.LASF127
 2542 0e9a 8B050000 		.4byte	.LASF127
 2543 0e9e 10       		.byte	0x10
 2544 0e9f 5C       		.byte	0x5c
 2545 0ea0 0A       		.byte	0xa
 2546 0ea1 28       		.uleb128 0x28
 2547 0ea2 F1000000 		.4byte	.LASF128
 2548 0ea6 F1000000 		.4byte	.LASF128
 2549 0eaa 0D       		.byte	0xd
 2550 0eab 53       		.byte	0x53
 2551 0eac 08       		.byte	0x8
 2552 0ead 28       		.uleb128 0x28
 2553 0eae 6C000000 		.4byte	.LASF129
 2554 0eb2 6C000000 		.4byte	.LASF129
 2555 0eb6 0D       		.byte	0xd
 2556 0eb7 50       		.byte	0x50
 2557 0eb8 08       		.byte	0x8
ARM GAS  /var/folders/l5/0x54b2c10074c8bt31ycjvl80000gp/T//ccko8bQz.s 			page 46


 2558 0eb9 00       		.byte	0
 2559              		.section	.debug_abbrev,"",%progbits
 2560              	.Ldebug_abbrev0:
 2561 0000 01       		.uleb128 0x1
 2562 0001 11       		.uleb128 0x11
 2563 0002 01       		.byte	0x1
 2564 0003 25       		.uleb128 0x25
 2565 0004 0E       		.uleb128 0xe
 2566 0005 13       		.uleb128 0x13
 2567 0006 0B       		.uleb128 0xb
 2568 0007 03       		.uleb128 0x3
 2569 0008 0E       		.uleb128 0xe
 2570 0009 1B       		.uleb128 0x1b
 2571 000a 0E       		.uleb128 0xe
 2572 000b 55       		.uleb128 0x55
 2573 000c 17       		.uleb128 0x17
 2574 000d 11       		.uleb128 0x11
 2575 000e 01       		.uleb128 0x1
 2576 000f 10       		.uleb128 0x10
 2577 0010 17       		.uleb128 0x17
 2578 0011 00       		.byte	0
 2579 0012 00       		.byte	0
 2580 0013 02       		.uleb128 0x2
 2581 0014 24       		.uleb128 0x24
 2582 0015 00       		.byte	0
 2583 0016 0B       		.uleb128 0xb
 2584 0017 0B       		.uleb128 0xb
 2585 0018 3E       		.uleb128 0x3e
 2586 0019 0B       		.uleb128 0xb
 2587 001a 03       		.uleb128 0x3
 2588 001b 08       		.uleb128 0x8
 2589 001c 00       		.byte	0
 2590 001d 00       		.byte	0
 2591 001e 03       		.uleb128 0x3
 2592 001f 16       		.uleb128 0x16
 2593 0020 00       		.byte	0
 2594 0021 03       		.uleb128 0x3
 2595 0022 0E       		.uleb128 0xe
 2596 0023 3A       		.uleb128 0x3a
 2597 0024 0B       		.uleb128 0xb
 2598 0025 3B       		.uleb128 0x3b
 2599 0026 0B       		.uleb128 0xb
 2600 0027 39       		.uleb128 0x39
 2601 0028 0B       		.uleb128 0xb
 2602 0029 49       		.uleb128 0x49
 2603 002a 13       		.uleb128 0x13
 2604 002b 00       		.byte	0
 2605 002c 00       		.byte	0
 2606 002d 04       		.uleb128 0x4
 2607 002e 24       		.uleb128 0x24
 2608 002f 00       		.byte	0
 2609 0030 0B       		.uleb128 0xb
 2610 0031 0B       		.uleb128 0xb
 2611 0032 3E       		.uleb128 0x3e
 2612 0033 0B       		.uleb128 0xb
 2613 0034 03       		.uleb128 0x3
 2614 0035 0E       		.uleb128 0xe
ARM GAS  /var/folders/l5/0x54b2c10074c8bt31ycjvl80000gp/T//ccko8bQz.s 			page 47


 2615 0036 00       		.byte	0
 2616 0037 00       		.byte	0
 2617 0038 05       		.uleb128 0x5
 2618 0039 35       		.uleb128 0x35
 2619 003a 00       		.byte	0
 2620 003b 49       		.uleb128 0x49
 2621 003c 13       		.uleb128 0x13
 2622 003d 00       		.byte	0
 2623 003e 00       		.byte	0
 2624 003f 06       		.uleb128 0x6
 2625 0040 13       		.uleb128 0x13
 2626 0041 01       		.byte	0x1
 2627 0042 03       		.uleb128 0x3
 2628 0043 0E       		.uleb128 0xe
 2629 0044 0B       		.uleb128 0xb
 2630 0045 0B       		.uleb128 0xb
 2631 0046 3A       		.uleb128 0x3a
 2632 0047 0B       		.uleb128 0xb
 2633 0048 3B       		.uleb128 0x3b
 2634 0049 0B       		.uleb128 0xb
 2635 004a 39       		.uleb128 0x39
 2636 004b 0B       		.uleb128 0xb
 2637 004c 01       		.uleb128 0x1
 2638 004d 13       		.uleb128 0x13
 2639 004e 00       		.byte	0
 2640 004f 00       		.byte	0
 2641 0050 07       		.uleb128 0x7
 2642 0051 0D       		.uleb128 0xd
 2643 0052 00       		.byte	0
 2644 0053 03       		.uleb128 0x3
 2645 0054 0E       		.uleb128 0xe
 2646 0055 3A       		.uleb128 0x3a
 2647 0056 0B       		.uleb128 0xb
 2648 0057 3B       		.uleb128 0x3b
 2649 0058 0B       		.uleb128 0xb
 2650 0059 39       		.uleb128 0x39
 2651 005a 0B       		.uleb128 0xb
 2652 005b 49       		.uleb128 0x49
 2653 005c 13       		.uleb128 0x13
 2654 005d 38       		.uleb128 0x38
 2655 005e 0B       		.uleb128 0xb
 2656 005f 00       		.byte	0
 2657 0060 00       		.byte	0
 2658 0061 08       		.uleb128 0x8
 2659 0062 0D       		.uleb128 0xd
 2660 0063 00       		.byte	0
 2661 0064 03       		.uleb128 0x3
 2662 0065 08       		.uleb128 0x8
 2663 0066 3A       		.uleb128 0x3a
 2664 0067 0B       		.uleb128 0xb
 2665 0068 3B       		.uleb128 0x3b
 2666 0069 0B       		.uleb128 0xb
 2667 006a 39       		.uleb128 0x39
 2668 006b 0B       		.uleb128 0xb
 2669 006c 49       		.uleb128 0x49
 2670 006d 13       		.uleb128 0x13
 2671 006e 38       		.uleb128 0x38
ARM GAS  /var/folders/l5/0x54b2c10074c8bt31ycjvl80000gp/T//ccko8bQz.s 			page 48


 2672 006f 0B       		.uleb128 0xb
 2673 0070 00       		.byte	0
 2674 0071 00       		.byte	0
 2675 0072 09       		.uleb128 0x9
 2676 0073 13       		.uleb128 0x13
 2677 0074 01       		.byte	0x1
 2678 0075 0B       		.uleb128 0xb
 2679 0076 0B       		.uleb128 0xb
 2680 0077 3A       		.uleb128 0x3a
 2681 0078 0B       		.uleb128 0xb
 2682 0079 3B       		.uleb128 0x3b
 2683 007a 0B       		.uleb128 0xb
 2684 007b 39       		.uleb128 0x39
 2685 007c 0B       		.uleb128 0xb
 2686 007d 01       		.uleb128 0x1
 2687 007e 13       		.uleb128 0x13
 2688 007f 00       		.byte	0
 2689 0080 00       		.byte	0
 2690 0081 0A       		.uleb128 0xa
 2691 0082 0F       		.uleb128 0xf
 2692 0083 00       		.byte	0
 2693 0084 0B       		.uleb128 0xb
 2694 0085 0B       		.uleb128 0xb
 2695 0086 49       		.uleb128 0x49
 2696 0087 13       		.uleb128 0x13
 2697 0088 00       		.byte	0
 2698 0089 00       		.byte	0
 2699 008a 0B       		.uleb128 0xb
 2700 008b 0F       		.uleb128 0xf
 2701 008c 00       		.byte	0
 2702 008d 0B       		.uleb128 0xb
 2703 008e 0B       		.uleb128 0xb
 2704 008f 00       		.byte	0
 2705 0090 00       		.byte	0
 2706 0091 0C       		.uleb128 0xc
 2707 0092 26       		.uleb128 0x26
 2708 0093 00       		.byte	0
 2709 0094 49       		.uleb128 0x49
 2710 0095 13       		.uleb128 0x13
 2711 0096 00       		.byte	0
 2712 0097 00       		.byte	0
 2713 0098 0D       		.uleb128 0xd
 2714 0099 15       		.uleb128 0x15
 2715 009a 01       		.byte	0x1
 2716 009b 27       		.uleb128 0x27
 2717 009c 19       		.uleb128 0x19
 2718 009d 01       		.uleb128 0x1
 2719 009e 13       		.uleb128 0x13
 2720 009f 00       		.byte	0
 2721 00a0 00       		.byte	0
 2722 00a1 0E       		.uleb128 0xe
 2723 00a2 05       		.uleb128 0x5
 2724 00a3 00       		.byte	0
 2725 00a4 49       		.uleb128 0x49
 2726 00a5 13       		.uleb128 0x13
 2727 00a6 00       		.byte	0
 2728 00a7 00       		.byte	0
ARM GAS  /var/folders/l5/0x54b2c10074c8bt31ycjvl80000gp/T//ccko8bQz.s 			page 49


 2729 00a8 0F       		.uleb128 0xf
 2730 00a9 34       		.uleb128 0x34
 2731 00aa 00       		.byte	0
 2732 00ab 03       		.uleb128 0x3
 2733 00ac 0E       		.uleb128 0xe
 2734 00ad 3A       		.uleb128 0x3a
 2735 00ae 0B       		.uleb128 0xb
 2736 00af 3B       		.uleb128 0x3b
 2737 00b0 0B       		.uleb128 0xb
 2738 00b1 39       		.uleb128 0x39
 2739 00b2 0B       		.uleb128 0xb
 2740 00b3 49       		.uleb128 0x49
 2741 00b4 13       		.uleb128 0x13
 2742 00b5 3F       		.uleb128 0x3f
 2743 00b6 19       		.uleb128 0x19
 2744 00b7 3C       		.uleb128 0x3c
 2745 00b8 19       		.uleb128 0x19
 2746 00b9 00       		.byte	0
 2747 00ba 00       		.byte	0
 2748 00bb 10       		.uleb128 0x10
 2749 00bc 15       		.uleb128 0x15
 2750 00bd 01       		.byte	0x1
 2751 00be 27       		.uleb128 0x27
 2752 00bf 19       		.uleb128 0x19
 2753 00c0 49       		.uleb128 0x49
 2754 00c1 13       		.uleb128 0x13
 2755 00c2 01       		.uleb128 0x1
 2756 00c3 13       		.uleb128 0x13
 2757 00c4 00       		.byte	0
 2758 00c5 00       		.byte	0
 2759 00c6 11       		.uleb128 0x11
 2760 00c7 17       		.uleb128 0x17
 2761 00c8 01       		.byte	0x1
 2762 00c9 0B       		.uleb128 0xb
 2763 00ca 0B       		.uleb128 0xb
 2764 00cb 3A       		.uleb128 0x3a
 2765 00cc 0B       		.uleb128 0xb
 2766 00cd 3B       		.uleb128 0x3b
 2767 00ce 0B       		.uleb128 0xb
 2768 00cf 39       		.uleb128 0x39
 2769 00d0 0B       		.uleb128 0xb
 2770 00d1 01       		.uleb128 0x1
 2771 00d2 13       		.uleb128 0x13
 2772 00d3 00       		.byte	0
 2773 00d4 00       		.byte	0
 2774 00d5 12       		.uleb128 0x12
 2775 00d6 0D       		.uleb128 0xd
 2776 00d7 00       		.byte	0
 2777 00d8 03       		.uleb128 0x3
 2778 00d9 0E       		.uleb128 0xe
 2779 00da 3A       		.uleb128 0x3a
 2780 00db 0B       		.uleb128 0xb
 2781 00dc 3B       		.uleb128 0x3b
 2782 00dd 0B       		.uleb128 0xb
 2783 00de 39       		.uleb128 0x39
 2784 00df 0B       		.uleb128 0xb
 2785 00e0 49       		.uleb128 0x49
ARM GAS  /var/folders/l5/0x54b2c10074c8bt31ycjvl80000gp/T//ccko8bQz.s 			page 50


 2786 00e1 13       		.uleb128 0x13
 2787 00e2 00       		.byte	0
 2788 00e3 00       		.byte	0
 2789 00e4 13       		.uleb128 0x13
 2790 00e5 17       		.uleb128 0x17
 2791 00e6 01       		.byte	0x1
 2792 00e7 03       		.uleb128 0x3
 2793 00e8 0E       		.uleb128 0xe
 2794 00e9 0B       		.uleb128 0xb
 2795 00ea 0B       		.uleb128 0xb
 2796 00eb 3A       		.uleb128 0x3a
 2797 00ec 0B       		.uleb128 0xb
 2798 00ed 3B       		.uleb128 0x3b
 2799 00ee 0B       		.uleb128 0xb
 2800 00ef 39       		.uleb128 0x39
 2801 00f0 0B       		.uleb128 0xb
 2802 00f1 01       		.uleb128 0x1
 2803 00f2 13       		.uleb128 0x13
 2804 00f3 00       		.byte	0
 2805 00f4 00       		.byte	0
 2806 00f5 14       		.uleb128 0x14
 2807 00f6 0D       		.uleb128 0xd
 2808 00f7 00       		.byte	0
 2809 00f8 03       		.uleb128 0x3
 2810 00f9 08       		.uleb128 0x8
 2811 00fa 3A       		.uleb128 0x3a
 2812 00fb 0B       		.uleb128 0xb
 2813 00fc 3B       		.uleb128 0x3b
 2814 00fd 0B       		.uleb128 0xb
 2815 00fe 39       		.uleb128 0x39
 2816 00ff 0B       		.uleb128 0xb
 2817 0100 49       		.uleb128 0x49
 2818 0101 13       		.uleb128 0x13
 2819 0102 00       		.byte	0
 2820 0103 00       		.byte	0
 2821 0104 15       		.uleb128 0x15
 2822 0105 01       		.uleb128 0x1
 2823 0106 01       		.byte	0x1
 2824 0107 49       		.uleb128 0x49
 2825 0108 13       		.uleb128 0x13
 2826 0109 01       		.uleb128 0x1
 2827 010a 13       		.uleb128 0x13
 2828 010b 00       		.byte	0
 2829 010c 00       		.byte	0
 2830 010d 16       		.uleb128 0x16
 2831 010e 21       		.uleb128 0x21
 2832 010f 00       		.byte	0
 2833 0110 49       		.uleb128 0x49
 2834 0111 13       		.uleb128 0x13
 2835 0112 2F       		.uleb128 0x2f
 2836 0113 0B       		.uleb128 0xb
 2837 0114 00       		.byte	0
 2838 0115 00       		.byte	0
 2839 0116 17       		.uleb128 0x17
 2840 0117 15       		.uleb128 0x15
 2841 0118 00       		.byte	0
 2842 0119 27       		.uleb128 0x27
ARM GAS  /var/folders/l5/0x54b2c10074c8bt31ycjvl80000gp/T//ccko8bQz.s 			page 51


 2843 011a 19       		.uleb128 0x19
 2844 011b 00       		.byte	0
 2845 011c 00       		.byte	0
 2846 011d 18       		.uleb128 0x18
 2847 011e 13       		.uleb128 0x13
 2848 011f 01       		.byte	0x1
 2849 0120 0B       		.uleb128 0xb
 2850 0121 05       		.uleb128 0x5
 2851 0122 3A       		.uleb128 0x3a
 2852 0123 0B       		.uleb128 0xb
 2853 0124 3B       		.uleb128 0x3b
 2854 0125 0B       		.uleb128 0xb
 2855 0126 39       		.uleb128 0x39
 2856 0127 0B       		.uleb128 0xb
 2857 0128 01       		.uleb128 0x1
 2858 0129 13       		.uleb128 0x13
 2859 012a 00       		.byte	0
 2860 012b 00       		.byte	0
 2861 012c 19       		.uleb128 0x19
 2862 012d 0D       		.uleb128 0xd
 2863 012e 00       		.byte	0
 2864 012f 03       		.uleb128 0x3
 2865 0130 08       		.uleb128 0x8
 2866 0131 3A       		.uleb128 0x3a
 2867 0132 0B       		.uleb128 0xb
 2868 0133 3B       		.uleb128 0x3b
 2869 0134 0B       		.uleb128 0xb
 2870 0135 39       		.uleb128 0x39
 2871 0136 0B       		.uleb128 0xb
 2872 0137 49       		.uleb128 0x49
 2873 0138 13       		.uleb128 0x13
 2874 0139 38       		.uleb128 0x38
 2875 013a 05       		.uleb128 0x5
 2876 013b 00       		.byte	0
 2877 013c 00       		.byte	0
 2878 013d 1A       		.uleb128 0x1a
 2879 013e 17       		.uleb128 0x17
 2880 013f 01       		.byte	0x1
 2881 0140 03       		.uleb128 0x3
 2882 0141 0E       		.uleb128 0xe
 2883 0142 0B       		.uleb128 0xb
 2884 0143 05       		.uleb128 0x5
 2885 0144 3A       		.uleb128 0x3a
 2886 0145 0B       		.uleb128 0xb
 2887 0146 3B       		.uleb128 0x3b
 2888 0147 0B       		.uleb128 0xb
 2889 0148 39       		.uleb128 0x39
 2890 0149 0B       		.uleb128 0xb
 2891 014a 01       		.uleb128 0x1
 2892 014b 13       		.uleb128 0x13
 2893 014c 00       		.byte	0
 2894 014d 00       		.byte	0
 2895 014e 1B       		.uleb128 0x1b
 2896 014f 21       		.uleb128 0x21
 2897 0150 00       		.byte	0
 2898 0151 49       		.uleb128 0x49
 2899 0152 13       		.uleb128 0x13
ARM GAS  /var/folders/l5/0x54b2c10074c8bt31ycjvl80000gp/T//ccko8bQz.s 			page 52


 2900 0153 2F       		.uleb128 0x2f
 2901 0154 05       		.uleb128 0x5
 2902 0155 00       		.byte	0
 2903 0156 00       		.byte	0
 2904 0157 1C       		.uleb128 0x1c
 2905 0158 21       		.uleb128 0x21
 2906 0159 00       		.byte	0
 2907 015a 00       		.byte	0
 2908 015b 00       		.byte	0
 2909 015c 1D       		.uleb128 0x1d
 2910 015d 34       		.uleb128 0x34
 2911 015e 00       		.byte	0
 2912 015f 03       		.uleb128 0x3
 2913 0160 08       		.uleb128 0x8
 2914 0161 3A       		.uleb128 0x3a
 2915 0162 0B       		.uleb128 0xb
 2916 0163 3B       		.uleb128 0x3b
 2917 0164 0B       		.uleb128 0xb
 2918 0165 39       		.uleb128 0x39
 2919 0166 0B       		.uleb128 0xb
 2920 0167 49       		.uleb128 0x49
 2921 0168 13       		.uleb128 0x13
 2922 0169 3F       		.uleb128 0x3f
 2923 016a 19       		.uleb128 0x19
 2924 016b 3C       		.uleb128 0x3c
 2925 016c 19       		.uleb128 0x19
 2926 016d 00       		.byte	0
 2927 016e 00       		.byte	0
 2928 016f 1E       		.uleb128 0x1e
 2929 0170 34       		.uleb128 0x34
 2930 0171 00       		.byte	0
 2931 0172 03       		.uleb128 0x3
 2932 0173 0E       		.uleb128 0xe
 2933 0174 3A       		.uleb128 0x3a
 2934 0175 0B       		.uleb128 0xb
 2935 0176 3B       		.uleb128 0x3b
 2936 0177 0B       		.uleb128 0xb
 2937 0178 39       		.uleb128 0x39
 2938 0179 0B       		.uleb128 0xb
 2939 017a 49       		.uleb128 0x49
 2940 017b 13       		.uleb128 0x13
 2941 017c 02       		.uleb128 0x2
 2942 017d 18       		.uleb128 0x18
 2943 017e 00       		.byte	0
 2944 017f 00       		.byte	0
 2945 0180 1F       		.uleb128 0x1f
 2946 0181 34       		.uleb128 0x34
 2947 0182 00       		.byte	0
 2948 0183 03       		.uleb128 0x3
 2949 0184 0E       		.uleb128 0xe
 2950 0185 3A       		.uleb128 0x3a
 2951 0186 0B       		.uleb128 0xb
 2952 0187 3B       		.uleb128 0x3b
 2953 0188 0B       		.uleb128 0xb
 2954 0189 39       		.uleb128 0x39
 2955 018a 0B       		.uleb128 0xb
 2956 018b 49       		.uleb128 0x49
ARM GAS  /var/folders/l5/0x54b2c10074c8bt31ycjvl80000gp/T//ccko8bQz.s 			page 53


 2957 018c 13       		.uleb128 0x13
 2958 018d 3F       		.uleb128 0x3f
 2959 018e 19       		.uleb128 0x19
 2960 018f 02       		.uleb128 0x2
 2961 0190 18       		.uleb128 0x18
 2962 0191 00       		.byte	0
 2963 0192 00       		.byte	0
 2964 0193 20       		.uleb128 0x20
 2965 0194 2E       		.uleb128 0x2e
 2966 0195 01       		.byte	0x1
 2967 0196 03       		.uleb128 0x3
 2968 0197 0E       		.uleb128 0xe
 2969 0198 3A       		.uleb128 0x3a
 2970 0199 0B       		.uleb128 0xb
 2971 019a 3B       		.uleb128 0x3b
 2972 019b 0B       		.uleb128 0xb
 2973 019c 39       		.uleb128 0x39
 2974 019d 0B       		.uleb128 0xb
 2975 019e 27       		.uleb128 0x27
 2976 019f 19       		.uleb128 0x19
 2977 01a0 11       		.uleb128 0x11
 2978 01a1 01       		.uleb128 0x1
 2979 01a2 12       		.uleb128 0x12
 2980 01a3 06       		.uleb128 0x6
 2981 01a4 40       		.uleb128 0x40
 2982 01a5 18       		.uleb128 0x18
 2983 01a6 9742     		.uleb128 0x2117
 2984 01a8 19       		.uleb128 0x19
 2985 01a9 01       		.uleb128 0x1
 2986 01aa 13       		.uleb128 0x13
 2987 01ab 00       		.byte	0
 2988 01ac 00       		.byte	0
 2989 01ad 21       		.uleb128 0x21
 2990 01ae 34       		.uleb128 0x34
 2991 01af 00       		.byte	0
 2992 01b0 03       		.uleb128 0x3
 2993 01b1 08       		.uleb128 0x8
 2994 01b2 3A       		.uleb128 0x3a
 2995 01b3 0B       		.uleb128 0xb
 2996 01b4 3B       		.uleb128 0x3b
 2997 01b5 0B       		.uleb128 0xb
 2998 01b6 39       		.uleb128 0x39
 2999 01b7 0B       		.uleb128 0xb
 3000 01b8 49       		.uleb128 0x49
 3001 01b9 13       		.uleb128 0x13
 3002 01ba 02       		.uleb128 0x2
 3003 01bb 17       		.uleb128 0x17
 3004 01bc B742     		.uleb128 0x2137
 3005 01be 17       		.uleb128 0x17
 3006 01bf 00       		.byte	0
 3007 01c0 00       		.byte	0
 3008 01c1 22       		.uleb128 0x22
 3009 01c2 34       		.uleb128 0x34
 3010 01c3 00       		.byte	0
 3011 01c4 03       		.uleb128 0x3
 3012 01c5 08       		.uleb128 0x8
 3013 01c6 3A       		.uleb128 0x3a
ARM GAS  /var/folders/l5/0x54b2c10074c8bt31ycjvl80000gp/T//ccko8bQz.s 			page 54


 3014 01c7 0B       		.uleb128 0xb
 3015 01c8 3B       		.uleb128 0x3b
 3016 01c9 0B       		.uleb128 0xb
 3017 01ca 39       		.uleb128 0x39
 3018 01cb 0B       		.uleb128 0xb
 3019 01cc 49       		.uleb128 0x49
 3020 01cd 13       		.uleb128 0x13
 3021 01ce 02       		.uleb128 0x2
 3022 01cf 18       		.uleb128 0x18
 3023 01d0 00       		.byte	0
 3024 01d1 00       		.byte	0
 3025 01d2 23       		.uleb128 0x23
 3026 01d3 898201   		.uleb128 0x4109
 3027 01d6 00       		.byte	0
 3028 01d7 11       		.uleb128 0x11
 3029 01d8 01       		.uleb128 0x1
 3030 01d9 31       		.uleb128 0x31
 3031 01da 13       		.uleb128 0x13
 3032 01db 00       		.byte	0
 3033 01dc 00       		.byte	0
 3034 01dd 24       		.uleb128 0x24
 3035 01de 898201   		.uleb128 0x4109
 3036 01e1 01       		.byte	0x1
 3037 01e2 11       		.uleb128 0x11
 3038 01e3 01       		.uleb128 0x1
 3039 01e4 31       		.uleb128 0x31
 3040 01e5 13       		.uleb128 0x13
 3041 01e6 01       		.uleb128 0x1
 3042 01e7 13       		.uleb128 0x13
 3043 01e8 00       		.byte	0
 3044 01e9 00       		.byte	0
 3045 01ea 25       		.uleb128 0x25
 3046 01eb 8A8201   		.uleb128 0x410a
 3047 01ee 00       		.byte	0
 3048 01ef 02       		.uleb128 0x2
 3049 01f0 18       		.uleb128 0x18
 3050 01f1 9142     		.uleb128 0x2111
 3051 01f3 18       		.uleb128 0x18
 3052 01f4 00       		.byte	0
 3053 01f5 00       		.byte	0
 3054 01f6 26       		.uleb128 0x26
 3055 01f7 898201   		.uleb128 0x4109
 3056 01fa 01       		.byte	0x1
 3057 01fb 11       		.uleb128 0x11
 3058 01fc 01       		.uleb128 0x1
 3059 01fd 31       		.uleb128 0x31
 3060 01fe 13       		.uleb128 0x13
 3061 01ff 00       		.byte	0
 3062 0200 00       		.byte	0
 3063 0201 27       		.uleb128 0x27
 3064 0202 898201   		.uleb128 0x4109
 3065 0205 01       		.byte	0x1
 3066 0206 11       		.uleb128 0x11
 3067 0207 01       		.uleb128 0x1
 3068 0208 9542     		.uleb128 0x2115
 3069 020a 19       		.uleb128 0x19
 3070 020b 31       		.uleb128 0x31
ARM GAS  /var/folders/l5/0x54b2c10074c8bt31ycjvl80000gp/T//ccko8bQz.s 			page 55


 3071 020c 13       		.uleb128 0x13
 3072 020d 00       		.byte	0
 3073 020e 00       		.byte	0
 3074 020f 28       		.uleb128 0x28
 3075 0210 2E       		.uleb128 0x2e
 3076 0211 00       		.byte	0
 3077 0212 3F       		.uleb128 0x3f
 3078 0213 19       		.uleb128 0x19
 3079 0214 3C       		.uleb128 0x3c
 3080 0215 19       		.uleb128 0x19
 3081 0216 6E       		.uleb128 0x6e
 3082 0217 0E       		.uleb128 0xe
 3083 0218 03       		.uleb128 0x3
 3084 0219 0E       		.uleb128 0xe
 3085 021a 3A       		.uleb128 0x3a
 3086 021b 0B       		.uleb128 0xb
 3087 021c 3B       		.uleb128 0x3b
 3088 021d 0B       		.uleb128 0xb
 3089 021e 39       		.uleb128 0x39
 3090 021f 0B       		.uleb128 0xb
 3091 0220 00       		.byte	0
 3092 0221 00       		.byte	0
 3093 0222 00       		.byte	0
 3094              		.section	.debug_loc,"",%progbits
 3095              	.Ldebug_loc0:
 3096              	.LVUS0:
 3097 0000 00       		.uleb128 .LVU10
 3098 0001 00       		.uleb128 .LVU11
 3099 0002 00       		.uleb128 .LVU11
 3100 0003 00       		.uleb128 .LVU12
 3101 0004 00       		.uleb128 .LVU13
 3102 0005 00       		.uleb128 .LVU17
 3103 0006 00       		.uleb128 .LVU17
 3104 0007 00       		.uleb128 .LVU18
 3105 0008 00       		.uleb128 .LVU26
 3106 0009 00       		.uleb128 .LVU28
 3107 000a 00       		.uleb128 .LVU28
 3108 000b 00       		.uleb128 .LVU44
 3109 000c 00       		.uleb128 .LVU44
 3110 000d 00       		.uleb128 .LVU46
 3111 000e 00       		.uleb128 .LVU46
 3112 000f 00       		.uleb128 .LVU59
 3113 0010 00       		.uleb128 .LVU59
 3114 0011 00       		.uleb128 .LVU61
 3115 0012 00       		.uleb128 .LVU61
 3116 0013 00       		.uleb128 .LVU70
 3117 0014 00       		.uleb128 .LVU70
 3118 0015 00       		.uleb128 .LVU71
 3119 0016 00       		.uleb128 .LVU71
 3120 0017 00       		.uleb128 .LVU82
 3121 0018 00       		.uleb128 .LVU82
 3122 0019 00       		.uleb128 .LVU84
 3123 001a 00       		.uleb128 .LVU84
 3124 001b 00       		.uleb128 .LVU91
 3125 001c 00       		.uleb128 .LVU91
 3126 001d 00       		.uleb128 .LVU92
 3127 001e 00       		.uleb128 .LVU101
ARM GAS  /var/folders/l5/0x54b2c10074c8bt31ycjvl80000gp/T//ccko8bQz.s 			page 56


 3128 001f 00       		.uleb128 .LVU102
 3129 0020 00       		.uleb128 .LVU102
 3130 0021 00       		.uleb128 0
 3131              	.LLST0:
 3132 0022 24000000 		.4byte	.LVL2
 3133 0026 34000000 		.4byte	.LVL3
 3134 002a 0100     		.2byte	0x1
 3135 002c 50       		.byte	0x50
 3136 002d 34000000 		.4byte	.LVL3
 3137 0031 40000000 		.4byte	.LVL5
 3138 0035 0100     		.2byte	0x1
 3139 0037 54       		.byte	0x54
 3140 0038 48000000 		.4byte	.LVL6
 3141 003c 5C000000 		.4byte	.LVL8
 3142 0040 0100     		.2byte	0x1
 3143 0042 54       		.byte	0x54
 3144 0043 5C000000 		.4byte	.LVL8
 3145 0047 64000000 		.4byte	.LVL9
 3146 004b 0100     		.2byte	0x1
 3147 004d 50       		.byte	0x50
 3148 004e 94000000 		.4byte	.LVL13
 3149 0052 98000000 		.4byte	.LVL14
 3150 0056 0100     		.2byte	0x1
 3151 0058 50       		.byte	0x50
 3152 0059 98000000 		.4byte	.LVL14
 3153 005d 04010000 		.4byte	.LVL27
 3154 0061 0100     		.2byte	0x1
 3155 0063 56       		.byte	0x56
 3156 0064 04010000 		.4byte	.LVL27
 3157 0068 08010000 		.4byte	.LVL28
 3158 006c 0100     		.2byte	0x1
 3159 006e 50       		.byte	0x50
 3160 006f 08010000 		.4byte	.LVL28
 3161 0073 6C010000 		.4byte	.LVL39
 3162 0077 0100     		.2byte	0x1
 3163 0079 54       		.byte	0x54
 3164 007a 6C010000 		.4byte	.LVL39
 3165 007e 70010000 		.4byte	.LVL40
 3166 0082 0100     		.2byte	0x1
 3167 0084 50       		.byte	0x50
 3168 0085 70010000 		.4byte	.LVL40
 3169 0089 BC010000 		.4byte	.LVL48
 3170 008d 0100     		.2byte	0x1
 3171 008f 54       		.byte	0x54
 3172 0090 BC010000 		.4byte	.LVL48
 3173 0094 C0010000 		.4byte	.LVL49
 3174 0098 0100     		.2byte	0x1
 3175 009a 50       		.byte	0x50
 3176 009b C0010000 		.4byte	.LVL49
 3177 009f 44020000 		.4byte	.LVL58
 3178 00a3 0100     		.2byte	0x1
 3179 00a5 54       		.byte	0x54
 3180 00a6 44020000 		.4byte	.LVL58
 3181 00aa 48020000 		.4byte	.LVL59
 3182 00ae 0100     		.2byte	0x1
 3183 00b0 50       		.byte	0x50
 3184 00b1 48020000 		.4byte	.LVL59
ARM GAS  /var/folders/l5/0x54b2c10074c8bt31ycjvl80000gp/T//ccko8bQz.s 			page 57


 3185 00b5 8C020000 		.4byte	.LVL66
 3186 00b9 0100     		.2byte	0x1
 3187 00bb 54       		.byte	0x54
 3188 00bc 8C020000 		.4byte	.LVL66
 3189 00c0 8F020000 		.4byte	.LVL67-1
 3190 00c4 0100     		.2byte	0x1
 3191 00c6 50       		.byte	0x50
 3192 00c7 E0020000 		.4byte	.LVL73
 3193 00cb E4020000 		.4byte	.LVL74
 3194 00cf 0100     		.2byte	0x1
 3195 00d1 50       		.byte	0x50
 3196 00d2 E4020000 		.4byte	.LVL74
 3197 00d6 50030000 		.4byte	.LFE8
 3198 00da 0100     		.2byte	0x1
 3199 00dc 54       		.byte	0x54
 3200 00dd 00000000 		.4byte	0
 3201 00e1 00000000 		.4byte	0
 3202              	.LVUS1:
 3203 00e5 00       		.uleb128 .LVU31
 3204 00e6 00       		.uleb128 .LVU33
 3205 00e7 00       		.uleb128 .LVU33
 3206 00e8 00       		.uleb128 .LVU47
 3207 00e9 00       		.uleb128 .LVU47
 3208 00ea 00       		.uleb128 .LVU49
 3209 00eb 00       		.uleb128 .LVU49
 3210 00ec 00       		.uleb128 .LVU62
 3211 00ed 00       		.uleb128 .LVU62
 3212 00ee 00       		.uleb128 .LVU63
 3213 00ef 00       		.uleb128 .LVU63
 3214 00f0 00       		.uleb128 .LVU85
 3215 00f1 00       		.uleb128 .LVU85
 3216 00f2 00       		.uleb128 .LVU86
 3217 00f3 00       		.uleb128 .LVU86
 3218 00f4 00       		.uleb128 0
 3219              	.LLST1:
 3220 00f5 A4000000 		.4byte	.LVL16
 3221 00f9 A8000000 		.4byte	.LVL17
 3222 00fd 0100     		.2byte	0x1
 3223 00ff 50       		.byte	0x50
 3224 0100 A8000000 		.4byte	.LVL17
 3225 0104 10010000 		.4byte	.LVL30
 3226 0108 0100     		.2byte	0x1
 3227 010a 55       		.byte	0x55
 3228 010b 10010000 		.4byte	.LVL30
 3229 010f 18010000 		.4byte	.LVL31
 3230 0113 0100     		.2byte	0x1
 3231 0115 50       		.byte	0x50
 3232 0116 18010000 		.4byte	.LVL31
 3233 011a 78010000 		.4byte	.LVL42
 3234 011e 0100     		.2byte	0x1
 3235 0120 55       		.byte	0x55
 3236 0121 78010000 		.4byte	.LVL42
 3237 0125 7C010000 		.4byte	.LVL43
 3238 0129 0100     		.2byte	0x1
 3239 012b 50       		.byte	0x50
 3240 012c 7C010000 		.4byte	.LVL43
 3241 0130 50020000 		.4byte	.LVL61
ARM GAS  /var/folders/l5/0x54b2c10074c8bt31ycjvl80000gp/T//ccko8bQz.s 			page 58


 3242 0134 0100     		.2byte	0x1
 3243 0136 55       		.byte	0x55
 3244 0137 50020000 		.4byte	.LVL61
 3245 013b 54020000 		.4byte	.LVL62
 3246 013f 0100     		.2byte	0x1
 3247 0141 50       		.byte	0x50
 3248 0142 54020000 		.4byte	.LVL62
 3249 0146 50030000 		.4byte	.LFE8
 3250 014a 0100     		.2byte	0x1
 3251 014c 55       		.byte	0x55
 3252 014d 00000000 		.4byte	0
 3253 0151 00000000 		.4byte	0
 3254              	.LVUS2:
 3255 0155 00       		.uleb128 .LVU34
 3256 0156 00       		.uleb128 .LVU35
 3257 0157 00       		.uleb128 .LVU35
 3258 0158 00       		.uleb128 .LVU44
 3259 0159 00       		.uleb128 .LVU50
 3260 015a 00       		.uleb128 .LVU51
 3261              	.LLST2:
 3262 015b B0000000 		.4byte	.LVL19
 3263 015f B4000000 		.4byte	.LVL20
 3264 0163 0100     		.2byte	0x1
 3265 0165 50       		.byte	0x50
 3266 0166 B4000000 		.4byte	.LVL20
 3267 016a 04010000 		.4byte	.LVL27
 3268 016e 0100     		.2byte	0x1
 3269 0170 54       		.byte	0x54
 3270 0171 1C010000 		.4byte	.LVL32
 3271 0175 1F010000 		.4byte	.LVL33-1
 3272 0179 0100     		.2byte	0x1
 3273 017b 50       		.byte	0x50
 3274 017c 00000000 		.4byte	0
 3275 0180 00000000 		.4byte	0
 3276              		.section	.debug_aranges,"",%progbits
 3277 0000 24000000 		.4byte	0x24
 3278 0004 0200     		.2byte	0x2
 3279 0006 00000000 		.4byte	.Ldebug_info0
 3280 000a 04       		.byte	0x4
 3281 000b 00       		.byte	0
 3282 000c 0000     		.2byte	0
 3283 000e 0000     		.2byte	0
 3284 0010 00000000 		.4byte	.LFB8
 3285 0014 50030000 		.4byte	.LFE8-.LFB8
 3286 0018 00000000 		.4byte	.LFB7
 3287 001c 1C000000 		.4byte	.LFE7-.LFB7
 3288 0020 00000000 		.4byte	0
 3289 0024 00000000 		.4byte	0
 3290              		.section	.debug_ranges,"",%progbits
 3291              	.Ldebug_ranges0:
 3292 0000 00000000 		.4byte	.LFB8
 3293 0004 50030000 		.4byte	.LFE8
 3294 0008 00000000 		.4byte	.LFB7
 3295 000c 1C000000 		.4byte	.LFE7
 3296 0010 00000000 		.4byte	0
 3297 0014 00000000 		.4byte	0
 3298              		.section	.debug_line,"",%progbits
ARM GAS  /var/folders/l5/0x54b2c10074c8bt31ycjvl80000gp/T//ccko8bQz.s 			page 59


 3299              	.Ldebug_line0:
 3300 0000 D3040000 		.section	.debug_str,"MS",%progbits,1
 3300      03000402 
 3300      00000201 
 3300      FB0E0D00 
 3300      01010101 
 3301              	.LASF40:
 3302 0000 705F6D73 		.ascii	"p_msg\000"
 3302      6700
 3303              	.LASF2:
 3304 0006 73697A65 		.ascii	"size_t\000"
 3304      5F7400
 3305              	.LASF82:
 3306 000d 7264796D 		.ascii	"rdymsg\000"
 3306      736700
 3307              	.LASF3:
 3308 0014 5F5F7569 		.ascii	"__uint8_t\000"
 3308      6E74385F 
 3308      7400
 3309              	.LASF66:
 3310 001e 76746C69 		.ascii	"vtlist\000"
 3310      737400
 3311              	.LASF72:
 3312 0025 6D656D67 		.ascii	"memgetfunc_t\000"
 3312      65746675 
 3312      6E635F74 
 3312      00
 3313              	.LASF13:
 3314 0032 6C6F6E67 		.ascii	"long long unsigned int\000"
 3314      206C6F6E 
 3314      6720756E 
 3314      7369676E 
 3314      65642069 
 3315              	.LASF93:
 3316 0049 63685F74 		.ascii	"ch_threadsize\000"
 3316      68726561 
 3316      6473697A 
 3316      6500
 3317              	.LASF83:
 3318 0057 65786974 		.ascii	"exitcode\000"
 3318      636F6465 
 3318      00
 3319              	.LASF76:
 3320 0060 685F6672 		.ascii	"h_free\000"
 3320      656500
 3321              	.LASF117:
 3322 0067 74657374 		.ascii	"test\000"
 3322      00
 3323              	.LASF129:
 3324 006c 63684865 		.ascii	"chHeapInit\000"
 3324      6170496E 
 3324      697400
 3325              	.LASF78:
 3326 0077 6E657874 		.ascii	"next\000"
 3326      00
 3327              	.LASF29:
 3328 007c 705F7072 		.ascii	"p_prio\000"
ARM GAS  /var/folders/l5/0x54b2c10074c8bt31ycjvl80000gp/T//ccko8bQz.s 			page 60


 3328      696F00
 3329              	.LASF100:
 3330 0083 63665F6F 		.ascii	"cf_off_state\000"
 3330      66665F73 
 3330      74617465 
 3330      00
 3331              	.LASF111:
 3332 0090 74656172 		.ascii	"teardown\000"
 3332      646F776E 
 3332      00
 3333              	.LASF120:
 3334 0099 70617474 		.ascii	"patternheap\000"
 3334      65726E68 
 3334      65617000 
 3335              	.LASF12:
 3336 00a5 6C6F6E67 		.ascii	"long long int\000"
 3336      206C6F6E 
 3336      6720696E 
 3336      7400
 3337              	.LASF1:
 3338 00b3 7369676E 		.ascii	"signed char\000"
 3338      65642063 
 3338      68617200 
 3339              	.LASF77:
 3340 00bf 685F6D74 		.ascii	"h_mtx\000"
 3340      7800
 3341              	.LASF99:
 3342 00c5 63665F6F 		.ascii	"cf_off_stklimit\000"
 3342      66665F73 
 3342      746B6C69 
 3342      6D697400 
 3343              	.LASF101:
 3344 00d5 63665F6F 		.ascii	"cf_off_flags\000"
 3344      66665F66 
 3344      6C616773 
 3344      00
 3345              	.LASF18:
 3346 00e2 626F6F6C 		.ascii	"bool_t\000"
 3346      5F7400
 3347              	.LASF69:
 3348 00e9 6D5F7175 		.ascii	"m_queue\000"
 3348      65756500 
 3349              	.LASF128:
 3350 00f1 63684865 		.ascii	"chHeapFree\000"
 3350      61704672 
 3350      656500
 3351              	.LASF123:
 3352 00fc 68656170 		.ascii	"heap1_setup\000"
 3352      315F7365 
 3352      74757000 
 3353              	.LASF87:
 3354 0108 63685F69 		.ascii	"ch_identifier\000"
 3354      64656E74 
 3354      69666965 
 3354      7200
 3355              	.LASF9:
 3356 0116 6C6F6E67 		.ascii	"long int\000"
ARM GAS  /var/folders/l5/0x54b2c10074c8bt31ycjvl80000gp/T//ccko8bQz.s 			page 61


 3356      20696E74 
 3356      00
 3357              	.LASF20:
 3358 011f 74737461 		.ascii	"tstate_t\000"
 3358      74655F74 
 3358      00
 3359              	.LASF15:
 3360 0128 75696E74 		.ascii	"uint16_t\000"
 3360      31365F74 
 3360      00
 3361              	.LASF105:
 3362 0131 63686465 		.ascii	"chdebug_t\000"
 3362      6275675F 
 3362      7400
 3363              	.LASF115:
 3364 013b 62756666 		.ascii	"buffer\000"
 3364      657200
 3365              	.LASF31:
 3366 0142 705F6E65 		.ascii	"p_newer\000"
 3366      77657200 
 3367              	.LASF107:
 3368 014a 5F69646C 		.ascii	"_idle_thread_wa\000"
 3368      655F7468 
 3368      72656164 
 3368      5F776100 
 3369              	.LASF10:
 3370 015a 5F5F7569 		.ascii	"__uint32_t\000"
 3370      6E743332 
 3370      5F7400
 3371              	.LASF47:
 3372 0165 72656761 		.ascii	"regarm_t\000"
 3372      726D5F74 
 3372      00
 3373              	.LASF53:
 3374 016e 76745F70 		.ascii	"vt_prev\000"
 3374      72657600 
 3375              	.LASF122:
 3376 0176 68656170 		.ascii	"heap1_execute\000"
 3376      315F6578 
 3376      65637574 
 3376      6500
 3377              	.LASF80:
 3378 0184 616C6967 		.ascii	"align\000"
 3378      6E00
 3379              	.LASF0:
 3380 018a 756E7369 		.ascii	"unsigned int\000"
 3380      676E6564 
 3380      20696E74 
 3380      00
 3381              	.LASF52:
 3382 0197 76745F6E 		.ascii	"vt_next\000"
 3382      65787400 
 3383              	.LASF97:
 3384 019f 63665F6F 		.ascii	"cf_off_older\000"
 3384      66665F6F 
 3384      6C646572 
 3384      00
ARM GAS  /var/folders/l5/0x54b2c10074c8bt31ycjvl80000gp/T//ccko8bQz.s 			page 62


 3385              	.LASF11:
 3386 01ac 6C6F6E67 		.ascii	"long unsigned int\000"
 3386      20756E73 
 3386      69676E65 
 3386      6420696E 
 3386      7400
 3387              	.LASF106:
 3388 01be 63685F64 		.ascii	"ch_debug\000"
 3388      65627567 
 3388      00
 3389              	.LASF118:
 3390 01c7 74657374 		.ascii	"test_timer_done\000"
 3390      5F74696D 
 3390      65725F64 
 3390      6F6E6500 
 3391              	.LASF50:
 3392 01d7 76746675 		.ascii	"vtfunc_t\000"
 3392      6E635F74 
 3392      00
 3393              	.LASF109:
 3394 01e0 6E616D65 		.ascii	"name\000"
 3394      00
 3395              	.LASF49:
 3396 01e5 636F6E74 		.ascii	"context\000"
 3396      65787400 
 3397              	.LASF81:
 3398 01ed 73697A65 		.ascii	"size\000"
 3398      00
 3399              	.LASF7:
 3400 01f2 73686F72 		.ascii	"short unsigned int\000"
 3400      7420756E 
 3400      7369676E 
 3400      65642069 
 3400      6E7400
 3401              	.LASF23:
 3402 0205 6D73675F 		.ascii	"msg_t\000"
 3402      7400
 3403              	.LASF62:
 3404 020b 725F6E65 		.ascii	"r_newer\000"
 3404      77657200 
 3405              	.LASF130:
 3406 0213 474E5520 		.ascii	"GNU C17 8.3.1 20190703 (release) [gcc-8-branch revi"
 3406      43313720 
 3406      382E332E 
 3406      31203230 
 3406      31393037 
 3407 0246 73696F6E 		.ascii	"sion 273027] -mcpu=arm1176jz-s -mno-thumb-interwork"
 3407      20323733 
 3407      3032375D 
 3407      202D6D63 
 3407      70753D61 
 3408 0279 202D6D66 		.ascii	" -mfloat-abi=soft -marm -march=armv6kz -ggdb -O2 -f"
 3408      6C6F6174 
 3408      2D616269 
 3408      3D736F66 
 3408      74202D6D 
 3409 02ac 6F6D6974 		.ascii	"omit-frame-pointer -ffunction-sections -fdata-secti"
ARM GAS  /var/folders/l5/0x54b2c10074c8bt31ycjvl80000gp/T//ccko8bQz.s 			page 63


 3409      2D667261 
 3409      6D652D70 
 3409      6F696E74 
 3409      6572202D 
 3410 02df 6F6E7300 		.ascii	"ons\000"
 3411              	.LASF116:
 3412 02e3 74687265 		.ascii	"threads\000"
 3412      61647300 
 3413              	.LASF19:
 3414 02eb 746D6F64 		.ascii	"tmode_t\000"
 3414      655F7400 
 3415              	.LASF45:
 3416 02f3 54687265 		.ascii	"ThreadsList\000"
 3416      6164734C 
 3416      69737400 
 3417              	.LASF24:
 3418 02ff 6576656E 		.ascii	"eventmask_t\000"
 3418      746D6173 
 3418      6B5F7400 
 3419              	.LASF68:
 3420 030b 4D757465 		.ascii	"Mutex\000"
 3420      7800
 3421              	.LASF46:
 3422 0311 73746B61 		.ascii	"stkalign_t\000"
 3422      6C69676E 
 3422      5F7400
 3423              	.LASF119:
 3424 031c 74657374 		.ascii	"testheap1\000"
 3424      68656170 
 3424      3100
 3425              	.LASF88:
 3426 0326 63685F7A 		.ascii	"ch_zero\000"
 3426      65726F00 
 3427              	.LASF102:
 3428 032e 63665F6F 		.ascii	"cf_off_refs\000"
 3428      66665F72 
 3428      65667300 
 3429              	.LASF54:
 3430 033a 76745F74 		.ascii	"vt_time\000"
 3430      696D6500 
 3431              	.LASF55:
 3432 0342 76745F66 		.ascii	"vt_func\000"
 3432      756E6300 
 3433              	.LASF92:
 3434 034a 63685F74 		.ascii	"ch_timesize\000"
 3434      696D6573 
 3434      697A6500 
 3435              	.LASF124:
 3436 0356 6368436F 		.ascii	"chCoreStatus\000"
 3436      72655374 
 3436      61747573 
 3436      00
 3437              	.LASF98:
 3438 0363 63665F6F 		.ascii	"cf_off_name\000"
 3438      66665F6E 
 3438      616D6500 
 3439              	.LASF32:
ARM GAS  /var/folders/l5/0x54b2c10074c8bt31ycjvl80000gp/T//ccko8bQz.s 			page 64


 3440 036f 705F6F6C 		.ascii	"p_older\000"
 3440      64657200 
 3441              	.LASF61:
 3442 0377 725F6374 		.ascii	"r_ctx\000"
 3442      7800
 3443              	.LASF44:
 3444 037d 54687265 		.ascii	"ThreadsQueue\000"
 3444      61647351 
 3444      75657565 
 3444      00
 3445              	.LASF89:
 3446 038a 63685F73 		.ascii	"ch_size\000"
 3446      697A6500 
 3447              	.LASF110:
 3448 0392 73657475 		.ascii	"setup\000"
 3448      7000
 3449              	.LASF64:
 3450 0398 725F6375 		.ascii	"r_current\000"
 3450      7272656E 
 3450      7400
 3451              	.LASF63:
 3452 03a2 725F6F6C 		.ascii	"r_older\000"
 3452      64657200 
 3453              	.LASF73:
 3454 03aa 4D656D6F 		.ascii	"MemoryHeap\000"
 3454      72794865 
 3454      617000
 3455              	.LASF21:
 3456 03b5 74726566 		.ascii	"trefs_t\000"
 3456      735F7400 
 3457              	.LASF91:
 3458 03bd 63685F70 		.ascii	"ch_ptrsize\000"
 3458      74727369 
 3458      7A6500
 3459              	.LASF28:
 3460 03c8 705F7072 		.ascii	"p_prev\000"
 3460      657600
 3461              	.LASF112:
 3462 03cf 65786563 		.ascii	"execute\000"
 3462      75746500 
 3463              	.LASF22:
 3464 03d7 74707269 		.ascii	"tprio_t\000"
 3464      6F5F7400 
 3465              	.LASF131:
 3466 03df 2E2E2F2E 		.ascii	"../../test/testheap.c\000"
 3466      2E2F7465 
 3466      73742F74 
 3466      65737468 
 3466      6561702E 
 3467              	.LASF16:
 3468 03f5 696E7433 		.ascii	"int32_t\000"
 3468      325F7400 
 3469              	.LASF4:
 3470 03fd 756E7369 		.ascii	"unsigned char\000"
 3470      676E6564 
 3470      20636861 
 3470      7200
ARM GAS  /var/folders/l5/0x54b2c10074c8bt31ycjvl80000gp/T//ccko8bQz.s 			page 65


 3471              	.LASF75:
 3472 040b 685F7072 		.ascii	"h_provider\000"
 3472      6F766964 
 3472      657200
 3473              	.LASF42:
 3474 0416 705F6D74 		.ascii	"p_mtxlist\000"
 3474      786C6973 
 3474      7400
 3475              	.LASF5:
 3476 0420 73686F72 		.ascii	"short int\000"
 3476      7420696E 
 3476      7400
 3477              	.LASF34:
 3478 042a 705F7374 		.ascii	"p_state\000"
 3478      61746500 
 3479              	.LASF104:
 3480 0432 63665F6F 		.ascii	"cf_off_time\000"
 3480      66665F74 
 3480      696D6500 
 3481              	.LASF60:
 3482 043e 725F7072 		.ascii	"r_prio\000"
 3482      696F00
 3483              	.LASF113:
 3484 0445 68656170 		.ascii	"heap_header\000"
 3484      5F686561 
 3484      64657200 
 3485              	.LASF85:
 3486 0451 65776D61 		.ascii	"ewmask\000"
 3486      736B00
 3487              	.LASF27:
 3488 0458 705F6E65 		.ascii	"p_next\000"
 3488      787400
 3489              	.LASF103:
 3490 045f 63665F6F 		.ascii	"cf_off_preempt\000"
 3490      66665F70 
 3490      7265656D 
 3490      707400
 3491              	.LASF35:
 3492 046e 705F666C 		.ascii	"p_flags\000"
 3492      61677300 
 3493              	.LASF26:
 3494 0476 54687265 		.ascii	"Thread\000"
 3494      616400
 3495              	.LASF126:
 3496 047d 63684865 		.ascii	"chHeapAlloc\000"
 3496      6170416C 
 3496      6C6F6300 
 3497              	.LASF96:
 3498 0489 63665F6F 		.ascii	"cf_off_newer\000"
 3498      66665F6E 
 3498      65776572 
 3498      00
 3499              	.LASF108:
 3500 0496 74657374 		.ascii	"testcase\000"
 3500      63617365 
 3500      00
 3501              	.LASF41:
ARM GAS  /var/folders/l5/0x54b2c10074c8bt31ycjvl80000gp/T//ccko8bQz.s 			page 66


 3502 049f 705F6570 		.ascii	"p_epending\000"
 3502      656E6469 
 3502      6E6700
 3503              	.LASF17:
 3504 04aa 75696E74 		.ascii	"uint32_t\000"
 3504      33325F74 
 3504      00
 3505              	.LASF94:
 3506 04b3 63665F6F 		.ascii	"cf_off_prio\000"
 3506      66665F70 
 3506      72696F00 
 3507              	.LASF59:
 3508 04bf 725F7175 		.ascii	"r_queue\000"
 3508      65756500 
 3509              	.LASF51:
 3510 04c7 56697274 		.ascii	"VirtualTimer\000"
 3510      75616C54 
 3510      696D6572 
 3510      00
 3511              	.LASF79:
 3512 04d4 68656170 		.ascii	"heap\000"
 3512      00
 3513              	.LASF86:
 3514 04d9 63686172 		.ascii	"char\000"
 3514      00
 3515              	.LASF114:
 3516 04de 74657374 		.ascii	"test_buffers\000"
 3516      5F627566 
 3516      66657273 
 3516      00
 3517              	.LASF6:
 3518 04eb 5F5F7569 		.ascii	"__uint16_t\000"
 3518      6E743136 
 3518      5F7400
 3519              	.LASF125:
 3520 04f6 63684865 		.ascii	"chHeapStatus\000"
 3520      61705374 
 3520      61747573 
 3520      00
 3521              	.LASF71:
 3522 0503 6D5F6E65 		.ascii	"m_next\000"
 3522      787400
 3523              	.LASF25:
 3524 050a 73797374 		.ascii	"systime_t\000"
 3524      696D655F 
 3524      7400
 3525              	.LASF43:
 3526 0514 705F7265 		.ascii	"p_realprio\000"
 3526      616C7072 
 3526      696F00
 3527              	.LASF8:
 3528 051f 5F5F696E 		.ascii	"__int32_t\000"
 3528      7433325F 
 3528      7400
 3529              	.LASF37:
 3530 0529 705F7469 		.ascii	"p_time\000"
 3530      6D6500
ARM GAS  /var/folders/l5/0x54b2c10074c8bt31ycjvl80000gp/T//ccko8bQz.s 			page 67


 3531              	.LASF48:
 3532 0530 696E7463 		.ascii	"intctx\000"
 3532      747800
 3533              	.LASF39:
 3534 0537 705F6D73 		.ascii	"p_msgqueue\000"
 3534      67717565 
 3534      756500
 3535              	.LASF56:
 3536 0542 76745F70 		.ascii	"vt_par\000"
 3536      617200
 3537              	.LASF95:
 3538 0549 63665F6F 		.ascii	"cf_off_ctx\000"
 3538      66665F63 
 3538      747800
 3539              	.LASF36:
 3540 0554 705F7265 		.ascii	"p_refs\000"
 3540      667300
 3541              	.LASF65:
 3542 055b 52656164 		.ascii	"ReadyList\000"
 3542      794C6973 
 3542      7400
 3543              	.LASF67:
 3544 0565 726C6973 		.ascii	"rlist\000"
 3544      7400
 3545              	.LASF14:
 3546 056b 75696E74 		.ascii	"uint8_t\000"
 3546      385F7400 
 3547              	.LASF121:
 3548 0573 74657374 		.ascii	"test_heap\000"
 3548      5F686561 
 3548      7000
 3549              	.LASF84:
 3550 057d 77746F62 		.ascii	"wtobjp\000"
 3550      6A7000
 3551              	.LASF33:
 3552 0584 705F6E61 		.ascii	"p_name\000"
 3552      6D6500
 3553              	.LASF127:
 3554 058b 5F746573 		.ascii	"_test_assert\000"
 3554      745F6173 
 3554      73657274 
 3554      00
 3555              	.LASF57:
 3556 0598 76745F73 		.ascii	"vt_systime\000"
 3556      79737469 
 3556      6D6500
 3557              	.LASF90:
 3558 05a3 63685F76 		.ascii	"ch_version\000"
 3558      65727369 
 3558      6F6E00
 3559              	.LASF132:
 3560 05ae 2F557365 		.ascii	"/Users/fernandoguirado/eclipse-workspace/ChibiOS-RP"
 3560      72732F66 
 3560      65726E61 
 3560      6E646F67 
 3560      75697261 
 3561 05e1 692D636F 		.ascii	"i-copia/demos/timers\000"
ARM GAS  /var/folders/l5/0x54b2c10074c8bt31ycjvl80000gp/T//ccko8bQz.s 			page 68


 3561      7069612F 
 3561      64656D6F 
 3561      732F7469 
 3561      6D657273 
 3562              	.LASF58:
 3563 05f6 56544C69 		.ascii	"VTList\000"
 3563      737400
 3564              	.LASF70:
 3565 05fd 6D5F6F77 		.ascii	"m_owner\000"
 3565      6E657200 
 3566              	.LASF30:
 3567 0605 705F6374 		.ascii	"p_ctx\000"
 3567      7800
 3568              	.LASF38:
 3569 060b 705F7761 		.ascii	"p_waiting\000"
 3569      6974696E 
 3569      6700
 3570              	.LASF74:
 3571 0615 6D656D6F 		.ascii	"memory_heap\000"
 3571      72795F68 
 3571      65617000 
 3572              		.ident	"GCC: (GNU Tools for Arm Embedded Processors 8-2019-q3-update) 8.3.1 20190703 (release) [gc
ARM GAS  /var/folders/l5/0x54b2c10074c8bt31ycjvl80000gp/T//ccko8bQz.s 			page 69


DEFINED SYMBOLS
                            *ABS*:0000000000000000 testheap.c
/var/folders/l5/0x54b2c10074c8bt31ycjvl80000gp/T//ccko8bQz.s:16     .text.heap1_execute:0000000000000000 $a
/var/folders/l5/0x54b2c10074c8bt31ycjvl80000gp/T//ccko8bQz.s:22     .text.heap1_execute:0000000000000000 heap1_execute
/var/folders/l5/0x54b2c10074c8bt31ycjvl80000gp/T//ccko8bQz.s:445    .text.heap1_execute:000000000000034c $d
/var/folders/l5/0x54b2c10074c8bt31ycjvl80000gp/T//ccko8bQz.s:450    .text.heap1_setup:0000000000000000 $a
/var/folders/l5/0x54b2c10074c8bt31ycjvl80000gp/T//ccko8bQz.s:455    .text.heap1_setup:0000000000000000 heap1_setup
/var/folders/l5/0x54b2c10074c8bt31ycjvl80000gp/T//ccko8bQz.s:471    .text.heap1_setup:0000000000000010 $d
/var/folders/l5/0x54b2c10074c8bt31ycjvl80000gp/T//ccko8bQz.s:490    .rodata.patternheap:0000000000000000 patternheap
/var/folders/l5/0x54b2c10074c8bt31ycjvl80000gp/T//ccko8bQz.s:501    .rodata.testheap1:0000000000000000 testheap1
/var/folders/l5/0x54b2c10074c8bt31ycjvl80000gp/T//ccko8bQz.s:480    .bss.test_heap:0000000000000000 $d
/var/folders/l5/0x54b2c10074c8bt31ycjvl80000gp/T//ccko8bQz.s:484    .bss.test_heap:0000000000000000 test_heap
/var/folders/l5/0x54b2c10074c8bt31ycjvl80000gp/T//ccko8bQz.s:487    .rodata.patternheap:0000000000000000 $d
/var/folders/l5/0x54b2c10074c8bt31ycjvl80000gp/T//ccko8bQz.s:494    .rodata.str1.4:0000000000000000 $d
/var/folders/l5/0x54b2c10074c8bt31ycjvl80000gp/T//ccko8bQz.s:498    .rodata.testheap1:0000000000000000 $d

UNDEFINED SYMBOLS
chCoreStatus
chHeapStatus
chHeapAlloc
_test_assert
chHeapFree
chHeapInit
test
