ARM GAS  /var/folders/l5/0x54b2c10074c8bt31ycjvl80000gp/T//cc0aQrPq.s 			page 1


   1              		.cpu arm1176jz-s
   2              		.eabi_attribute 20, 1
   3              		.eabi_attribute 21, 1
   4              		.eabi_attribute 23, 3
   5              		.eabi_attribute 24, 1
   6              		.eabi_attribute 25, 1
   7              		.eabi_attribute 26, 1
   8              		.eabi_attribute 30, 2
   9              		.eabi_attribute 34, 1
  10              		.eabi_attribute 18, 4
  11              		.file	"testevt.c"
  12              		.text
  13              	.Ltext0:
  14              		.cfi_sections	.debug_frame
  15              		.section	.text.evt1_execute,"ax",%progbits
  16              		.align	2
  17              		.arch armv6kz
  18              		.syntax unified
  19              		.arm
  20              		.fpu softvfp
  21              		.type	evt1_execute, %function
  22              	evt1_execute:
  23              	.LFB11:
  24              		.file 1 "../../test/testevt.c"
  25              		.loc 1 89 32 view -0
  26              		.cfi_startproc
  27              		@ args = 0, pretend = 0, frame = 32
  28              		@ frame_needed = 0, uses_anonymous_args = 0
  29              		.loc 1 90 3 view .LVU1
  30              		.loc 1 95 3 view .LVU2
  31              		.loc 1 89 32 is_stmt 0 view .LVU3
  32 0000 10402DE9 		push	{r4, lr}
  33              		.cfi_def_cfa_offset 8
  34              		.cfi_offset 4, -8
  35              		.cfi_offset 14, -4
  36              		.loc 1 95 3 view .LVU4
  37 0004 B8409FE5 		ldr	r4, .L8
  38              		.loc 1 89 32 view .LVU5
  39 0008 20D04DE2 		sub	sp, sp, #32
  40              		.cfi_def_cfa_offset 40
  41              		.loc 1 96 3 view .LVU6
  42 000c 0400A0E1 		mov	r0, r4
  43 0010 0D10A0E1 		mov	r1, sp
  44 0014 0120A0E3 		mov	r2, #1
  45              		.loc 1 95 3 view .LVU7
  46 0018 004084E5 		str	r4, [r4]
  47              		.loc 1 96 3 is_stmt 1 view .LVU8
  48 001c FEFFFFEB 		bl	chEvtRegisterMask
  49              	.LVL0:
  50              		.loc 1 97 3 view .LVU9
  51 0020 0400A0E1 		mov	r0, r4
  52 0024 10108DE2 		add	r1, sp, #16
  53 0028 0220A0E3 		mov	r2, #2
  54 002c FEFFFFEB 		bl	chEvtRegisterMask
  55              	.LVL1:
  56              		.loc 1 98 3 view .LVU10
  57 0030 001094E5 		ldr	r1, [r4]
ARM GAS  /var/folders/l5/0x54b2c10074c8bt31ycjvl80000gp/T//cc0aQrPq.s 			page 2


  58 0034 0100A0E3 		mov	r0, #1
  59 0038 041051E0 		subs	r1, r1, r4
  60 003c 0110A013 		movne	r1, #1
  61 0040 FEFFFFEB 		bl	_test_assert
  62              	.LVL2:
  63 0044 000050E3 		cmp	r0, #0
  64 0048 0100000A 		beq	.L7
  65              	.L1:
  66              		.loc 1 109 1 is_stmt 0 view .LVU11
  67 004c 20D08DE2 		add	sp, sp, #32
  68              		.cfi_remember_state
  69              		.cfi_def_cfa_offset 8
  70              		@ sp needed
  71 0050 1080BDE8 		pop	{r4, pc}
  72              	.L7:
  73              		.cfi_restore_state
  74              		.loc 1 98 57 is_stmt 1 discriminator 2 view .LVU12
  75              		.loc 1 99 3 discriminator 2 view .LVU13
  76 0054 0D10A0E1 		mov	r1, sp
  77 0058 0400A0E1 		mov	r0, r4
  78 005c FEFFFFEB 		bl	chEvtUnregister
  79              	.LVL3:
  80              		.loc 1 100 3 discriminator 2 view .LVU14
  81 0060 001094E5 		ldr	r1, [r4]
  82 0064 0200A0E3 		mov	r0, #2
  83 0068 041051E0 		subs	r1, r1, r4
  84 006c 0110A013 		movne	r1, #1
  85 0070 FEFFFFEB 		bl	_test_assert
  86              	.LVL4:
  87 0074 000050E3 		cmp	r0, #0
  88 0078 F3FFFF1A 		bne	.L1
  89              		.loc 1 100 57 discriminator 2 view .LVU15
  90              		.loc 1 101 3 discriminator 2 view .LVU16
  91 007c 10108DE2 		add	r1, sp, #16
  92 0080 0400A0E1 		mov	r0, r4
  93 0084 FEFFFFEB 		bl	chEvtUnregister
  94              	.LVL5:
  95              		.loc 1 102 3 discriminator 2 view .LVU17
  96 0088 001094E5 		ldr	r1, [r4]
  97 008c 0300A0E3 		mov	r0, #3
  98 0090 041041E0 		sub	r1, r1, r4
  99 0094 111F6FE1 		clz	r1, r1
 100 0098 A112A0E1 		lsr	r1, r1, #5
 101 009c FEFFFFEB 		bl	_test_assert
 102              	.LVL6:
 103 00a0 000050E3 		cmp	r0, #0
 104 00a4 E8FFFF1A 		bne	.L1
 105              		.loc 1 102 61 discriminator 2 view .LVU18
 106              		.loc 1 107 3 discriminator 2 view .LVU19
 107 00a8 0710A0E3 		mov	r1, #7
 108 00ac 14009FE5 		ldr	r0, .L8+4
 109 00b0 FEFFFFEB 		bl	chEvtDispatch
 110              	.LVL7:
 111              		.loc 1 108 3 discriminator 2 view .LVU20
 112 00b4 10109FE5 		ldr	r1, .L8+8
 113 00b8 0400A0E3 		mov	r0, #4
 114 00bc FEFFFFEB 		bl	_test_assert_sequence
ARM GAS  /var/folders/l5/0x54b2c10074c8bt31ycjvl80000gp/T//cc0aQrPq.s 			page 3


 115              	.LVL8:
 116              		.loc 1 108 3 discriminator 2 view .LVU21
 117 00c0 E1FFFFEA 		b	.L1
 118              	.L9:
 119              		.align	2
 120              	.L8:
 121 00c4 00000000 		.word	.LANCHOR0
 122 00c8 00000000 		.word	.LANCHOR1
 123 00cc 00000000 		.word	.LC0
 124              		.cfi_endproc
 125              	.LFE11:
 126              		.size	evt1_execute, .-evt1_execute
 127              		.section	.text.h3,"ax",%progbits
 128              		.align	2
 129              		.syntax unified
 130              		.arm
 131              		.fpu softvfp
 132              		.type	h3, %function
 133              	h3:
 134              	.LVL9:
 135              	.LFB10:
 136              		.loc 1 86 30 view -0
 137              		.cfi_startproc
 138              		@ args = 0, pretend = 0, frame = 0
 139              		@ frame_needed = 0, uses_anonymous_args = 0
 140              		@ link register save eliminated.
 141              		.loc 1 86 31 view .LVU23
 142              		.loc 1 86 40 view .LVU24
 143 0000 4300A0E3 		mov	r0, #67
 144              	.LVL10:
 145              		.loc 1 86 40 is_stmt 0 view .LVU25
 146 0004 FEFFFFEA 		b	test_emit_token
 147              	.LVL11:
 148              		.cfi_endproc
 149              	.LFE10:
 150              		.size	h3, .-h3
 151              		.section	.text.h2,"ax",%progbits
 152              		.align	2
 153              		.syntax unified
 154              		.arm
 155              		.fpu softvfp
 156              		.type	h2, %function
 157              	h2:
 158              	.LVL12:
 159              	.LFB9:
 160              		.loc 1 85 30 is_stmt 1 view -0
 161              		.cfi_startproc
 162              		@ args = 0, pretend = 0, frame = 0
 163              		@ frame_needed = 0, uses_anonymous_args = 0
 164              		@ link register save eliminated.
 165              		.loc 1 85 31 view .LVU27
 166              		.loc 1 85 40 view .LVU28
 167 0000 4200A0E3 		mov	r0, #66
 168              	.LVL13:
 169              		.loc 1 85 40 is_stmt 0 view .LVU29
 170 0004 FEFFFFEA 		b	test_emit_token
 171              	.LVL14:
ARM GAS  /var/folders/l5/0x54b2c10074c8bt31ycjvl80000gp/T//cc0aQrPq.s 			page 4


 172              		.cfi_endproc
 173              	.LFE9:
 174              		.size	h2, .-h2
 175              		.section	.text.h1,"ax",%progbits
 176              		.align	2
 177              		.syntax unified
 178              		.arm
 179              		.fpu softvfp
 180              		.type	h1, %function
 181              	h1:
 182              	.LVL15:
 183              	.LFB8:
 184              		.loc 1 84 30 is_stmt 1 view -0
 185              		.cfi_startproc
 186              		@ args = 0, pretend = 0, frame = 0
 187              		@ frame_needed = 0, uses_anonymous_args = 0
 188              		@ link register save eliminated.
 189              		.loc 1 84 31 view .LVU31
 190              		.loc 1 84 40 view .LVU32
 191 0000 4100A0E3 		mov	r0, #65
 192              	.LVL16:
 193              		.loc 1 84 40 is_stmt 0 view .LVU33
 194 0004 FEFFFFEA 		b	test_emit_token
 195              	.LVL17:
 196              		.cfi_endproc
 197              	.LFE8:
 198              		.size	h1, .-h1
 199              		.section	.text.evt1_setup,"ax",%progbits
 200              		.align	2
 201              		.syntax unified
 202              		.arm
 203              		.fpu softvfp
 204              		.type	evt1_setup, %function
 205              	evt1_setup:
 206              	.LFB7:
 207              		.loc 1 79 30 is_stmt 1 view -0
 208              		.cfi_startproc
 209              		@ args = 0, pretend = 0, frame = 0
 210              		@ frame_needed = 0, uses_anonymous_args = 0
 211              		@ link register save eliminated.
 212              		.loc 1 81 3 view .LVU35
 213 0000 0000E0E3 		mvn	r0, #0
 214 0004 FEFFFFEA 		b	chEvtGetAndClearEvents
 215              	.LVL18:
 216              		.cfi_endproc
 217              	.LFE7:
 218              		.size	evt1_setup, .-evt1_setup
 219              		.section	.text.evt2_setup,"ax",%progbits
 220              		.align	2
 221              		.syntax unified
 222              		.arm
 223              		.fpu softvfp
 224              		.type	evt2_setup, %function
 225              	evt2_setup:
 226              	.LFB21:
 227              		.cfi_startproc
 228              		@ args = 0, pretend = 0, frame = 0
ARM GAS  /var/folders/l5/0x54b2c10074c8bt31ycjvl80000gp/T//cc0aQrPq.s 			page 5


 229              		@ frame_needed = 0, uses_anonymous_args = 0
 230              		@ link register save eliminated.
 231 0000 FEFFFFEA 		b	evt1_setup
 232              		.cfi_endproc
 233              	.LFE21:
 234              		.size	evt2_setup, .-evt2_setup
 235              		.section	.text.evt3_setup,"ax",%progbits
 236              		.align	2
 237              		.syntax unified
 238              		.arm
 239              		.fpu softvfp
 240              		.type	evt3_setup, %function
 241              	evt3_setup:
 242              	.LFB23:
 243              		.cfi_startproc
 244              		@ args = 0, pretend = 0, frame = 0
 245              		@ frame_needed = 0, uses_anonymous_args = 0
 246              		@ link register save eliminated.
 247 0000 FEFFFFEA 		b	evt1_setup
 248              		.cfi_endproc
 249              	.LFE23:
 250              		.size	evt3_setup, .-evt3_setup
 251              		.section	.text.thread2,"ax",%progbits
 252              		.align	2
 253              		.syntax unified
 254              		.arm
 255              		.fpu softvfp
 256              		.type	thread2, %function
 257              	thread2:
 258              	.LVL19:
 259              	.LFB14:
 260              		.loc 1 144 31 view -0
 261              		.cfi_startproc
 262              		@ args = 0, pretend = 0, frame = 0
 263              		@ frame_needed = 0, uses_anonymous_args = 0
 264              		.loc 1 146 3 view .LVU37
 265              		.loc 1 147 3 view .LVU38
 266              		.loc 1 144 31 is_stmt 0 view .LVU39
 267 0000 10402DE9 		push	{r4, lr}
 268              		.cfi_def_cfa_offset 8
 269              		.cfi_offset 4, -8
 270              		.cfi_offset 14, -4
 271              		.loc 1 147 3 view .LVU40
 272 0004 0010A0E3 		mov	r1, #0
 273 0008 1C009FE5 		ldr	r0, .L18
 274              	.LVL20:
 275              		.loc 1 147 3 view .LVU41
 276 000c FEFFFFEB 		bl	chEvtBroadcastFlags
 277              	.LVL21:
 278              		.loc 1 148 3 is_stmt 1 view .LVU42
 279 0010 3200A0E3 		mov	r0, #50
 280 0014 FEFFFFEB 		bl	chThdSleep
 281              	.LVL22:
 282              		.loc 1 149 3 view .LVU43
 283 0018 0010A0E3 		mov	r1, #0
 284 001c 0C009FE5 		ldr	r0, .L18+4
 285 0020 FEFFFFEB 		bl	chEvtBroadcastFlags
ARM GAS  /var/folders/l5/0x54b2c10074c8bt31ycjvl80000gp/T//cc0aQrPq.s 			page 6


 286              	.LVL23:
 287              		.loc 1 150 3 view .LVU44
 288              		.loc 1 151 1 is_stmt 0 view .LVU45
 289 0024 0000A0E3 		mov	r0, #0
 290 0028 1080BDE8 		pop	{r4, pc}
 291              	.L19:
 292              		.align	2
 293              	.L18:
 294 002c 00000000 		.word	.LANCHOR0
 295 0030 00000000 		.word	.LANCHOR2
 296              		.cfi_endproc
 297              	.LFE14:
 298              		.size	thread2, .-thread2
 299              		.section	.text.thread1,"ax",%progbits
 300              		.align	2
 301              		.syntax unified
 302              		.arm
 303              		.fpu softvfp
 304              		.type	thread1, %function
 305              	thread1:
 306              	.LVL24:
 307              	.LFB13:
 308              		.loc 1 137 31 is_stmt 1 view -0
 309              		.cfi_startproc
 310              		@ args = 0, pretend = 0, frame = 0
 311              		@ frame_needed = 0, uses_anonymous_args = 0
 312              		.loc 1 139 3 view .LVU47
 313              		.loc 1 137 31 is_stmt 0 view .LVU48
 314 0000 10402DE9 		push	{r4, lr}
 315              		.cfi_def_cfa_offset 8
 316              		.cfi_offset 4, -8
 317              		.cfi_offset 14, -4
 318              		.loc 1 137 31 view .LVU49
 319 0004 0040A0E1 		mov	r4, r0
 320              		.loc 1 139 3 view .LVU50
 321 0008 3200A0E3 		mov	r0, #50
 322              	.LVL25:
 323              		.loc 1 139 3 view .LVU51
 324 000c FEFFFFEB 		bl	chThdSleep
 325              	.LVL26:
 326              		.loc 1 140 3 is_stmt 1 view .LVU52
 327 0010 0400A0E1 		mov	r0, r4
 328 0014 0110A0E3 		mov	r1, #1
 329 0018 FEFFFFEB 		bl	chEvtSignal
 330              	.LVL27:
 331              		.loc 1 141 3 view .LVU53
 332              		.loc 1 142 1 is_stmt 0 view .LVU54
 333 001c 0000A0E3 		mov	r0, #0
 334 0020 1080BDE8 		pop	{r4, pc}
 335              		.cfi_endproc
 336              	.LFE13:
 337              		.size	thread1, .-thread1
 338              		.section	.text.evt2_execute,"ax",%progbits
 339              		.align	2
 340              		.syntax unified
 341              		.arm
 342              		.fpu softvfp
ARM GAS  /var/folders/l5/0x54b2c10074c8bt31ycjvl80000gp/T//cc0aQrPq.s 			page 7


 343              		.type	evt2_execute, %function
 344              	evt2_execute:
 345              	.LFB15:
 346              		.loc 1 153 32 is_stmt 1 view -0
 347              		.cfi_startproc
 348              		@ args = 0, pretend = 0, frame = 32
 349              		@ frame_needed = 0, uses_anonymous_args = 0
 350              		.loc 1 154 3 view .LVU56
 351              		.loc 1 155 3 view .LVU57
 352              		.loc 1 156 3 view .LVU58
 353              		.loc 1 161 3 view .LVU59
 354              		.loc 1 153 32 is_stmt 0 view .LVU60
 355 0000 F0432DE9 		push	{r4, r5, r6, r7, r8, r9, lr}
 356              		.cfi_def_cfa_offset 28
 357              		.cfi_offset 4, -28
 358              		.cfi_offset 5, -24
 359              		.cfi_offset 6, -20
 360              		.cfi_offset 7, -16
 361              		.cfi_offset 8, -12
 362              		.cfi_offset 9, -8
 363              		.cfi_offset 14, -4
 364              		.loc 1 161 3 view .LVU61
 365 0004 0500A0E3 		mov	r0, #5
 366              		.loc 1 153 32 view .LVU62
 367 0008 2CD04DE2 		sub	sp, sp, #44
 368              		.cfi_def_cfa_offset 72
 369              		.loc 1 161 3 view .LVU63
 370 000c FEFFFFEB 		bl	chEvtAddEvents
 371              	.LVL28:
 372              		.loc 1 162 3 is_stmt 1 view .LVU64
 373              		.loc 1 162 7 is_stmt 0 view .LVU65
 374 0010 0000E0E3 		mvn	r0, #0
 375 0014 FEFFFFEB 		bl	chEvtWaitOne
 376              	.LVL29:
 377              		.loc 1 163 3 is_stmt 1 view .LVU66
 378 0018 011040E2 		sub	r1, r0, #1
 379 001c 111F6FE1 		clz	r1, r1
 380 0020 0100A0E3 		mov	r0, #1
 381              	.LVL30:
 382              		.loc 1 163 3 is_stmt 0 view .LVU67
 383 0024 A112A0E1 		lsr	r1, r1, #5
 384 0028 FEFFFFEB 		bl	_test_assert
 385              	.LVL31:
 386 002c 000050E3 		cmp	r0, #0
 387 0030 0100000A 		beq	.L30
 388              	.L22:
 389              		.loc 1 226 1 view .LVU68
 390 0034 2CD08DE2 		add	sp, sp, #44
 391              		.cfi_remember_state
 392              		.cfi_def_cfa_offset 28
 393              		@ sp needed
 394 0038 F083BDE8 		pop	{r4, r5, r6, r7, r8, r9, pc}
 395              	.L30:
 396              		.cfi_restore_state
 397              		.loc 1 163 47 is_stmt 1 discriminator 2 view .LVU69
 398              		.loc 1 164 3 discriminator 2 view .LVU70
 399              		.loc 1 164 7 is_stmt 0 discriminator 2 view .LVU71
ARM GAS  /var/folders/l5/0x54b2c10074c8bt31ycjvl80000gp/T//cc0aQrPq.s 			page 8


 400 003c 0000E0E3 		mvn	r0, #0
 401 0040 FEFFFFEB 		bl	chEvtWaitOne
 402              	.LVL32:
 403              		.loc 1 165 3 is_stmt 1 discriminator 2 view .LVU72
 404 0044 041040E2 		sub	r1, r0, #4
 405 0048 111F6FE1 		clz	r1, r1
 406 004c 0200A0E3 		mov	r0, #2
 407              	.LVL33:
 408              		.loc 1 165 3 is_stmt 0 discriminator 2 view .LVU73
 409 0050 A112A0E1 		lsr	r1, r1, #5
 410 0054 FEFFFFEB 		bl	_test_assert
 411              	.LVL34:
 412 0058 000050E3 		cmp	r0, #0
 413 005c F4FFFF1A 		bne	.L22
 414              		.loc 1 165 47 is_stmt 1 discriminator 2 view .LVU74
 415              		.loc 1 166 3 discriminator 2 view .LVU75
 416              		.loc 1 166 7 is_stmt 0 discriminator 2 view .LVU76
 417 0060 0000E0E3 		mvn	r0, #0
 418 0064 FEFFFFEB 		bl	chEvtGetAndClearEvents
 419              	.LVL35:
 420              		.loc 1 167 3 is_stmt 1 discriminator 2 view .LVU77
 421 0068 101F6FE1 		clz	r1, r0
 422 006c 0300A0E3 		mov	r0, #3
 423              	.LVL36:
 424              		.loc 1 167 3 is_stmt 0 discriminator 2 view .LVU78
 425 0070 A112A0E1 		lsr	r1, r1, #5
 426 0074 FEFFFFEB 		bl	_test_assert
 427              	.LVL37:
 428 0078 000050E3 		cmp	r0, #0
 429 007c ECFFFF1A 		bne	.L22
 430              	.LBB4:
 431              	.LBI4:
 432              		.loc 1 153 13 is_stmt 1 view .LVU79
 433              	.LBB5:
 434              		.loc 1 167 40 view .LVU80
 435              		.loc 1 172 3 view .LVU81
 436              		.loc 1 174 50 is_stmt 0 view .LVU82
 437 0080 70829FE5 		ldr	r8, .L31
 438              		.loc 1 172 3 view .LVU83
 439 0084 FEFFFFEB 		bl	test_wait_tick
 440              	.LVL38:
 441              		.loc 1 173 3 is_stmt 1 view .LVU84
 442              		.loc 1 174 50 is_stmt 0 view .LVU85
 443 0088 183098E5 		ldr	r3, [r8, #24]
 444              		.loc 1 174 16 view .LVU86
 445 008c 68129FE5 		ldr	r1, .L31+4
 446 0090 082093E5 		ldr	r2, [r3, #8]
 447 0094 007091E5 		ldr	r7, [r1]
 448              		.loc 1 173 17 view .LVU87
 449 0098 60629FE5 		ldr	r6, .L31+8
 450              		.loc 1 174 16 view .LVU88
 451 009c 012042E2 		sub	r2, r2, #1
 452 00a0 00308DE5 		str	r3, [sp]
 453 00a4 461FA0E3 		mov	r1, #280
 454 00a8 54329FE5 		ldr	r3, .L31+12
 455 00ac 0700A0E1 		mov	r0, r7
 456              		.loc 1 173 17 view .LVU89
ARM GAS  /var/folders/l5/0x54b2c10074c8bt31ycjvl80000gp/T//cc0aQrPq.s 			page 9


 457 00b0 0C4096E5 		ldr	r4, [r6, #12]
 458              	.LVL39:
 459              		.loc 1 174 3 is_stmt 1 view .LVU90
 460              		.loc 1 174 16 is_stmt 0 view .LVU91
 461 00b4 FEFFFFEB 		bl	chThdCreateStatic
 462              	.LVL40:
 463              		.loc 1 174 14 view .LVU92
 464 00b8 48529FE5 		ldr	r5, .L31+16
 465 00bc 000085E5 		str	r0, [r5]
 466              		.loc 1 176 3 is_stmt 1 view .LVU93
 467              		.loc 1 176 7 is_stmt 0 view .LVU94
 468 00c0 0000E0E3 		mvn	r0, #0
 469 00c4 FEFFFFEB 		bl	chEvtWaitOne
 470              	.LVL41:
 471              		.loc 1 177 3 view .LVU95
 472 00c8 372084E2 		add	r2, r4, #55
 473              		.loc 1 176 7 view .LVU96
 474 00cc 0090A0E1 		mov	r9, r0
 475              	.LVL42:
 476              		.loc 1 177 3 is_stmt 1 view .LVU97
 477 00d0 321084E2 		add	r1, r4, #50
 478              	.LVL43:
 479              		.loc 1 177 3 is_stmt 0 view .LVU98
 480 00d4 0400A0E3 		mov	r0, #4
 481              	.LVL44:
 482              		.loc 1 177 3 view .LVU99
 483 00d8 FEFFFFEB 		bl	_test_assert_time_window
 484              	.LVL45:
 485              		.loc 1 177 3 view .LVU100
 486 00dc 000050E3 		cmp	r0, #0
 487 00e0 D3FFFF1A 		bne	.L22
 488              		.loc 1 177 71 is_stmt 1 view .LVU101
 489              		.loc 1 178 3 view .LVU102
 490 00e4 011049E2 		sub	r1, r9, #1
 491 00e8 111F6FE1 		clz	r1, r1
 492 00ec 0500A0E3 		mov	r0, #5
 493 00f0 A112A0E1 		lsr	r1, r1, #5
 494 00f4 FEFFFFEB 		bl	_test_assert
 495              	.LVL46:
 496 00f8 000050E3 		cmp	r0, #0
 497 00fc CCFFFF1A 		bne	.L22
 498              		.loc 1 178 47 view .LVU103
 499              		.loc 1 179 3 view .LVU104
 500              		.loc 1 179 7 is_stmt 0 view .LVU105
 501 0100 0000E0E3 		mvn	r0, #0
 502 0104 FEFFFFEB 		bl	chEvtGetAndClearEvents
 503              	.LVL47:
 504              		.loc 1 180 3 is_stmt 1 view .LVU106
 505 0108 101F6FE1 		clz	r1, r0
 506 010c 0600A0E3 		mov	r0, #6
 507              	.LVL48:
 508              		.loc 1 180 3 is_stmt 0 view .LVU107
 509 0110 A112A0E1 		lsr	r1, r1, #5
 510 0114 FEFFFFEB 		bl	_test_assert
 511              	.LVL49:
 512 0118 000050E3 		cmp	r0, #0
 513 011c C4FFFF1A 		bne	.L22
ARM GAS  /var/folders/l5/0x54b2c10074c8bt31ycjvl80000gp/T//cc0aQrPq.s 			page 10


 514              		.loc 1 180 40 is_stmt 1 view .LVU108
 515              		.loc 1 181 3 view .LVU109
 516 0120 FEFFFFEB 		bl	test_wait_threads
 517              	.LVL50:
 518              		.loc 1 186 3 view .LVU110
 519 0124 0500A0E3 		mov	r0, #5
 520 0128 FEFFFFEB 		bl	chEvtAddEvents
 521              	.LVL51:
 522              		.loc 1 187 3 view .LVU111
 523              		.loc 1 187 7 is_stmt 0 view .LVU112
 524 012c 0000E0E3 		mvn	r0, #0
 525 0130 FEFFFFEB 		bl	chEvtWaitAny
 526              	.LVL52:
 527              		.loc 1 188 3 is_stmt 1 view .LVU113
 528 0134 051040E2 		sub	r1, r0, #5
 529 0138 111F6FE1 		clz	r1, r1
 530 013c 0700A0E3 		mov	r0, #7
 531              	.LVL53:
 532              		.loc 1 188 3 is_stmt 0 view .LVU114
 533 0140 A112A0E1 		lsr	r1, r1, #5
 534 0144 FEFFFFEB 		bl	_test_assert
 535              	.LVL54:
 536 0148 000050E3 		cmp	r0, #0
 537 014c B8FFFF1A 		bne	.L22
 538              		.loc 1 188 51 is_stmt 1 view .LVU115
 539              		.loc 1 189 3 view .LVU116
 540              		.loc 1 189 7 is_stmt 0 view .LVU117
 541 0150 0000E0E3 		mvn	r0, #0
 542 0154 FEFFFFEB 		bl	chEvtGetAndClearEvents
 543              	.LVL55:
 544              		.loc 1 190 3 is_stmt 1 view .LVU118
 545 0158 101F6FE1 		clz	r1, r0
 546 015c 0800A0E3 		mov	r0, #8
 547              	.LVL56:
 548              		.loc 1 190 3 is_stmt 0 view .LVU119
 549 0160 A112A0E1 		lsr	r1, r1, #5
 550 0164 FEFFFFEB 		bl	_test_assert
 551              	.LVL57:
 552 0168 000050E3 		cmp	r0, #0
 553 016c B0FFFF1A 		bne	.L22
 554              		.loc 1 190 40 is_stmt 1 view .LVU120
 555              		.loc 1 195 3 view .LVU121
 556 0170 FEFFFFEB 		bl	test_wait_tick
 557              	.LVL58:
 558              		.loc 1 196 3 view .LVU122
 559              		.loc 1 197 50 is_stmt 0 view .LVU123
 560 0174 180098E5 		ldr	r0, [r8, #24]
 561              		.loc 1 197 16 view .LVU124
 562 0178 84319FE5 		ldr	r3, .L31+12
 563 017c 082090E5 		ldr	r2, [r0, #8]
 564 0180 461FA0E3 		mov	r1, #280
 565 0184 012042E2 		sub	r2, r2, #1
 566 0188 00008DE5 		str	r0, [sp]
 567 018c 0700A0E1 		mov	r0, r7
 568              		.loc 1 196 17 view .LVU125
 569 0190 0C4096E5 		ldr	r4, [r6, #12]
 570              	.LVL59:
ARM GAS  /var/folders/l5/0x54b2c10074c8bt31ycjvl80000gp/T//cc0aQrPq.s 			page 11


 571              		.loc 1 197 3 is_stmt 1 view .LVU126
 572              		.loc 1 197 16 is_stmt 0 view .LVU127
 573 0194 FEFFFFEB 		bl	chThdCreateStatic
 574              	.LVL60:
 575              		.loc 1 197 14 view .LVU128
 576 0198 000085E5 		str	r0, [r5]
 577              		.loc 1 199 3 is_stmt 1 view .LVU129
 578              		.loc 1 199 7 is_stmt 0 view .LVU130
 579 019c 0000E0E3 		mvn	r0, #0
 580 01a0 FEFFFFEB 		bl	chEvtWaitAny
 581              	.LVL61:
 582              		.loc 1 200 3 view .LVU131
 583 01a4 372084E2 		add	r2, r4, #55
 584              		.loc 1 199 7 view .LVU132
 585 01a8 0090A0E1 		mov	r9, r0
 586              	.LVL62:
 587              		.loc 1 200 3 is_stmt 1 view .LVU133
 588 01ac 321084E2 		add	r1, r4, #50
 589              	.LVL63:
 590              		.loc 1 200 3 is_stmt 0 view .LVU134
 591 01b0 0900A0E3 		mov	r0, #9
 592              	.LVL64:
 593              		.loc 1 200 3 view .LVU135
 594 01b4 FEFFFFEB 		bl	_test_assert_time_window
 595              	.LVL65:
 596              		.loc 1 200 3 view .LVU136
 597 01b8 000050E3 		cmp	r0, #0
 598 01bc 9CFFFF1A 		bne	.L22
 599              		.loc 1 200 71 is_stmt 1 view .LVU137
 600              		.loc 1 201 3 view .LVU138
 601 01c0 011049E2 		sub	r1, r9, #1
 602 01c4 111F6FE1 		clz	r1, r1
 603 01c8 0A00A0E3 		mov	r0, #10
 604 01cc A112A0E1 		lsr	r1, r1, #5
 605 01d0 FEFFFFEB 		bl	_test_assert
 606              	.LVL66:
 607 01d4 000050E3 		cmp	r0, #0
 608 01d8 95FFFF1A 		bne	.L22
 609              		.loc 1 201 48 view .LVU139
 610              		.loc 1 202 3 view .LVU140
 611              		.loc 1 202 7 is_stmt 0 view .LVU141
 612 01dc 0000E0E3 		mvn	r0, #0
 613 01e0 FEFFFFEB 		bl	chEvtGetAndClearEvents
 614              	.LVL67:
 615              		.loc 1 203 3 is_stmt 1 view .LVU142
 616 01e4 101F6FE1 		clz	r1, r0
 617 01e8 0B00A0E3 		mov	r0, #11
 618              	.LVL68:
 619              		.loc 1 203 3 is_stmt 0 view .LVU143
 620 01ec A112A0E1 		lsr	r1, r1, #5
 621 01f0 FEFFFFEB 		bl	_test_assert
 622              	.LVL69:
 623 01f4 000050E3 		cmp	r0, #0
 624 01f8 8DFFFF1A 		bne	.L22
 625              		.loc 1 203 41 is_stmt 1 view .LVU144
 626              		.loc 1 204 3 view .LVU145
 627              		.loc 1 209 3 is_stmt 0 view .LVU146
ARM GAS  /var/folders/l5/0x54b2c10074c8bt31ycjvl80000gp/T//cc0aQrPq.s 			page 12


 628 01fc 08919FE5 		ldr	r9, .L31+20
 629              		.loc 1 210 3 view .LVU147
 630 0200 08419FE5 		ldr	r4, .L31+24
 631              	.LVL70:
 632              		.loc 1 204 3 view .LVU148
 633 0204 FEFFFFEB 		bl	test_wait_threads
 634              	.LVL71:
 635              		.loc 1 209 3 is_stmt 1 view .LVU149
 636              		.loc 1 211 3 is_stmt 0 view .LVU150
 637 0208 0900A0E1 		mov	r0, r9
 638 020c 08108DE2 		add	r1, sp, #8
 639 0210 0120A0E3 		mov	r2, #1
 640              		.loc 1 209 3 view .LVU151
 641 0214 009089E5 		str	r9, [r9]
 642              		.loc 1 210 3 is_stmt 1 view .LVU152
 643 0218 004084E5 		str	r4, [r4]
 644              		.loc 1 211 3 view .LVU153
 645 021c FEFFFFEB 		bl	chEvtRegisterMask
 646              	.LVL72:
 647              		.loc 1 212 3 view .LVU154
 648 0220 18108DE2 		add	r1, sp, #24
 649 0224 0420A0E3 		mov	r2, #4
 650 0228 0400A0E1 		mov	r0, r4
 651 022c FEFFFFEB 		bl	chEvtRegisterMask
 652              	.LVL73:
 653              		.loc 1 213 3 view .LVU155
 654 0230 FEFFFFEB 		bl	test_wait_tick
 655              	.LVL74:
 656              		.loc 1 214 3 view .LVU156
 657              		.loc 1 215 50 is_stmt 0 view .LVU157
 658 0234 182098E5 		ldr	r2, [r8, #24]
 659              		.loc 1 215 16 view .LVU158
 660 0238 D4309FE5 		ldr	r3, .L31+28
 661 023c 082092E5 		ldr	r2, [r2, #8]
 662 0240 461FA0E3 		mov	r1, #280
 663 0244 012042E2 		sub	r2, r2, #1
 664 0248 00308DE5 		str	r3, [sp]
 665 024c 0700A0E1 		mov	r0, r7
 666 0250 C0309FE5 		ldr	r3, .L31+32
 667              		.loc 1 214 17 view .LVU159
 668 0254 0C6096E5 		ldr	r6, [r6, #12]
 669              	.LVL75:
 670              		.loc 1 215 3 is_stmt 1 view .LVU160
 671              		.loc 1 215 16 is_stmt 0 view .LVU161
 672 0258 FEFFFFEB 		bl	chThdCreateStatic
 673              	.LVL76:
 674              		.loc 1 215 14 view .LVU162
 675 025c 000085E5 		str	r0, [r5]
 676              		.loc 1 217 3 is_stmt 1 view .LVU163
 677              		.loc 1 217 7 is_stmt 0 view .LVU164
 678 0260 0500A0E3 		mov	r0, #5
 679 0264 FEFFFFEB 		bl	chEvtWaitAll
 680              	.LVL77:
 681              		.loc 1 218 3 is_stmt 1 view .LVU165
 682 0268 372086E2 		add	r2, r6, #55
 683 026c 321086E2 		add	r1, r6, #50
 684              	.LVL78:
ARM GAS  /var/folders/l5/0x54b2c10074c8bt31ycjvl80000gp/T//cc0aQrPq.s 			page 13


 685              		.loc 1 218 3 is_stmt 0 view .LVU166
 686 0270 0C00A0E3 		mov	r0, #12
 687 0274 FEFFFFEB 		bl	_test_assert_time_window
 688              	.LVL79:
 689              		.loc 1 218 3 view .LVU167
 690 0278 000050E3 		cmp	r0, #0
 691 027c 6CFFFF1A 		bne	.L22
 692              		.loc 1 218 72 is_stmt 1 view .LVU168
 693              		.loc 1 219 3 view .LVU169
 694              		.loc 1 219 7 is_stmt 0 view .LVU170
 695 0280 0000E0E3 		mvn	r0, #0
 696 0284 FEFFFFEB 		bl	chEvtGetAndClearEvents
 697              	.LVL80:
 698              		.loc 1 220 3 is_stmt 1 view .LVU171
 699 0288 101F6FE1 		clz	r1, r0
 700 028c 0D00A0E3 		mov	r0, #13
 701              	.LVL81:
 702              		.loc 1 220 3 is_stmt 0 view .LVU172
 703 0290 A112A0E1 		lsr	r1, r1, #5
 704 0294 FEFFFFEB 		bl	_test_assert
 705              	.LVL82:
 706 0298 000050E3 		cmp	r0, #0
 707 029c 64FFFF1A 		bne	.L22
 708              		.loc 1 220 41 is_stmt 1 view .LVU173
 709              		.loc 1 221 3 view .LVU174
 710 02a0 FEFFFFEB 		bl	test_wait_threads
 711              	.LVL83:
 712              		.loc 1 222 3 view .LVU175
 713 02a4 08108DE2 		add	r1, sp, #8
 714 02a8 0900A0E1 		mov	r0, r9
 715 02ac FEFFFFEB 		bl	chEvtUnregister
 716              	.LVL84:
 717              		.loc 1 223 3 view .LVU176
 718 02b0 18108DE2 		add	r1, sp, #24
 719 02b4 0400A0E1 		mov	r0, r4
 720 02b8 FEFFFFEB 		bl	chEvtUnregister
 721              	.LVL85:
 722              		.loc 1 224 3 view .LVU177
 723 02bc 001099E5 		ldr	r1, [r9]
 724 02c0 0E00A0E3 		mov	r0, #14
 725 02c4 091041E0 		sub	r1, r1, r9
 726 02c8 111F6FE1 		clz	r1, r1
 727 02cc A112A0E1 		lsr	r1, r1, #5
 728 02d0 FEFFFFEB 		bl	_test_assert
 729              	.LVL86:
 730 02d4 000050E3 		cmp	r0, #0
 731 02d8 55FFFF1A 		bne	.L22
 732              		.loc 1 224 62 view .LVU178
 733              		.loc 1 225 3 view .LVU179
 734 02dc 001094E5 		ldr	r1, [r4]
 735 02e0 0F00A0E3 		mov	r0, #15
 736 02e4 041041E0 		sub	r1, r1, r4
 737 02e8 111F6FE1 		clz	r1, r1
 738 02ec A112A0E1 		lsr	r1, r1, #5
 739 02f0 FEFFFFEB 		bl	_test_assert
 740              	.LVL87:
 741              		.loc 1 225 3 view .LVU180
ARM GAS  /var/folders/l5/0x54b2c10074c8bt31ycjvl80000gp/T//cc0aQrPq.s 			page 14


 742 02f4 4EFFFFEA 		b	.L22
 743              	.L32:
 744              		.align	2
 745              	.L31:
 746 02f8 00000000 		.word	rlist
 747 02fc 00000000 		.word	wa
 748 0300 00000000 		.word	vtlist
 749 0304 00000000 		.word	thread1
 750 0308 00000000 		.word	threads
 751 030c 00000000 		.word	.LANCHOR0
 752 0310 00000000 		.word	.LANCHOR2
 753 0314 00000000 		.word	.LC1
 754 0318 00000000 		.word	thread2
 755              	.LBE5:
 756              	.LBE4:
 757              		.cfi_endproc
 758              	.LFE15:
 759              		.size	evt2_execute, .-evt2_execute
 760              		.section	.text.evt3_execute,"ax",%progbits
 761              		.align	2
 762              		.syntax unified
 763              		.arm
 764              		.fpu softvfp
 765              		.type	evt3_execute, %function
 766              	evt3_execute:
 767              	.LFB17:
 768              		.loc 1 256 32 view -0
 769              		.cfi_startproc
 770              		@ args = 0, pretend = 0, frame = 0
 771              		@ frame_needed = 0, uses_anonymous_args = 0
 772              		.loc 1 257 3 view .LVU182
 773              		.loc 1 262 3 view .LVU183
 774              		.loc 1 256 32 is_stmt 0 view .LVU184
 775 0000 10402DE9 		push	{r4, lr}
 776              		.cfi_def_cfa_offset 8
 777              		.cfi_offset 4, -8
 778              		.cfi_offset 14, -4
 779              		.loc 1 262 7 view .LVU185
 780 0004 0010A0E3 		mov	r1, #0
 781 0008 0000E0E3 		mvn	r0, #0
 782 000c FEFFFFEB 		bl	chEvtWaitOneTimeout
 783              	.LVL88:
 784              		.loc 1 263 3 is_stmt 1 view .LVU186
 785 0010 101F6FE1 		clz	r1, r0
 786 0014 0100A0E3 		mov	r0, #1
 787              	.LVL89:
 788              		.loc 1 263 3 is_stmt 0 view .LVU187
 789 0018 A112A0E1 		lsr	r1, r1, #5
 790 001c FEFFFFEB 		bl	_test_assert
 791              	.LVL90:
 792 0020 001050E2 		subs	r1, r0, #0
 793 0024 1080BD18 		popne	{r4, pc}
 794              		.loc 1 263 43 is_stmt 1 discriminator 2 view .LVU188
 795              		.loc 1 264 3 discriminator 2 view .LVU189
 796              		.loc 1 264 7 is_stmt 0 discriminator 2 view .LVU190
 797 0028 0000E0E3 		mvn	r0, #0
 798 002c FEFFFFEB 		bl	chEvtWaitAnyTimeout
ARM GAS  /var/folders/l5/0x54b2c10074c8bt31ycjvl80000gp/T//cc0aQrPq.s 			page 15


 799              	.LVL91:
 800              		.loc 1 265 3 is_stmt 1 discriminator 2 view .LVU191
 801 0030 101F6FE1 		clz	r1, r0
 802 0034 0200A0E3 		mov	r0, #2
 803              	.LVL92:
 804              		.loc 1 265 3 is_stmt 0 discriminator 2 view .LVU192
 805 0038 A112A0E1 		lsr	r1, r1, #5
 806 003c FEFFFFEB 		bl	_test_assert
 807              	.LVL93:
 808 0040 001050E2 		subs	r1, r0, #0
 809 0044 1080BD18 		popne	{r4, pc}
 810              		.loc 1 265 43 is_stmt 1 discriminator 2 view .LVU193
 811              		.loc 1 266 3 discriminator 2 view .LVU194
 812              		.loc 1 266 7 is_stmt 0 discriminator 2 view .LVU195
 813 0048 0000E0E3 		mvn	r0, #0
 814 004c FEFFFFEB 		bl	chEvtWaitAllTimeout
 815              	.LVL94:
 816              		.loc 1 267 3 is_stmt 1 discriminator 2 view .LVU196
 817 0050 101F6FE1 		clz	r1, r0
 818 0054 0300A0E3 		mov	r0, #3
 819              	.LVL95:
 820              		.loc 1 267 3 is_stmt 0 discriminator 2 view .LVU197
 821 0058 A112A0E1 		lsr	r1, r1, #5
 822 005c FEFFFFEB 		bl	_test_assert
 823              	.LVL96:
 824 0060 000050E3 		cmp	r0, #0
 825 0064 1080BD18 		popne	{r4, pc}
 826              	.LBB8:
 827              	.LBI8:
 828              		.loc 1 256 13 is_stmt 1 view .LVU198
 829              	.LBB9:
 830              		.loc 1 267 43 view .LVU199
 831              		.loc 1 268 3 view .LVU200
 832              		.loc 1 268 7 is_stmt 0 view .LVU201
 833 0068 0A10A0E3 		mov	r1, #10
 834 006c 0000E0E3 		mvn	r0, #0
 835 0070 FEFFFFEB 		bl	chEvtWaitOneTimeout
 836              	.LVL97:
 837              		.loc 1 269 3 is_stmt 1 view .LVU202
 838 0074 101F6FE1 		clz	r1, r0
 839 0078 0400A0E3 		mov	r0, #4
 840              	.LVL98:
 841              		.loc 1 269 3 is_stmt 0 view .LVU203
 842 007c A112A0E1 		lsr	r1, r1, #5
 843 0080 FEFFFFEB 		bl	_test_assert
 844              	.LVL99:
 845 0084 000050E3 		cmp	r0, #0
 846 0088 1080BD18 		popne	{r4, pc}
 847              		.loc 1 269 43 is_stmt 1 view .LVU204
 848              		.loc 1 270 3 view .LVU205
 849              		.loc 1 270 7 is_stmt 0 view .LVU206
 850 008c 0A10A0E3 		mov	r1, #10
 851 0090 0000E0E3 		mvn	r0, #0
 852 0094 FEFFFFEB 		bl	chEvtWaitAnyTimeout
 853              	.LVL100:
 854              		.loc 1 271 3 is_stmt 1 view .LVU207
 855 0098 101F6FE1 		clz	r1, r0
ARM GAS  /var/folders/l5/0x54b2c10074c8bt31ycjvl80000gp/T//cc0aQrPq.s 			page 16


 856 009c 0500A0E3 		mov	r0, #5
 857              	.LVL101:
 858              		.loc 1 271 3 is_stmt 0 view .LVU208
 859 00a0 3110A0E1 		lsr	r1, r1, r0
 860 00a4 FEFFFFEB 		bl	_test_assert
 861              	.LVL102:
 862 00a8 000050E3 		cmp	r0, #0
 863 00ac 1080BD18 		popne	{r4, pc}
 864              		.loc 1 271 43 is_stmt 1 view .LVU209
 865              		.loc 1 272 3 view .LVU210
 866              		.loc 1 272 7 is_stmt 0 view .LVU211
 867 00b0 0A10A0E3 		mov	r1, #10
 868 00b4 0000E0E3 		mvn	r0, #0
 869 00b8 FEFFFFEB 		bl	chEvtWaitAllTimeout
 870              	.LVL103:
 871              		.loc 1 273 3 is_stmt 1 view .LVU212
 872              	.LBE9:
 873              	.LBE8:
 874              		.loc 1 274 1 is_stmt 0 view .LVU213
 875 00bc 1040BDE8 		pop	{r4, lr}
 876              		.cfi_restore 14
 877              		.cfi_restore 4
 878              		.cfi_def_cfa_offset 0
 879              	.LBB11:
 880              	.LBB10:
 881              		.loc 1 273 3 view .LVU214
 882 00c0 101F6FE1 		clz	r1, r0
 883 00c4 0600A0E3 		mov	r0, #6
 884              	.LVL104:
 885              		.loc 1 273 3 view .LVU215
 886 00c8 A112A0E1 		lsr	r1, r1, #5
 887 00cc FEFFFFEA 		b	_test_assert
 888              	.LVL105:
 889              	.LBE10:
 890              	.LBE11:
 891              		.cfi_endproc
 892              	.LFE17:
 893              		.size	evt3_execute, .-evt3_execute
 894              		.global	patternevt
 895              		.global	testevt3
 896              		.global	testevt2
 897              		.global	testevt1
 898              		.section	.data.es1,"aw"
 899              		.align	2
 900              		.set	.LANCHOR0,. + 0
 901              		.type	es1, %object
 902              		.size	es1, 4
 903              	es1:
 904 0000 00000000 		.word	es1
 905              		.section	.data.es2,"aw"
 906              		.align	2
 907              		.set	.LANCHOR2,. + 0
 908              		.type	es2, %object
 909              		.size	es2, 4
 910              	es2:
 911 0000 00000000 		.word	es2
 912              		.section	.rodata.evhndl,"a"
ARM GAS  /var/folders/l5/0x54b2c10074c8bt31ycjvl80000gp/T//cc0aQrPq.s 			page 17


 913              		.align	2
 914              		.set	.LANCHOR1,. + 0
 915              		.type	evhndl, %object
 916              		.size	evhndl, 12
 917              	evhndl:
 918 0000 00000000 		.word	h1
 919 0004 00000000 		.word	h2
 920 0008 00000000 		.word	h3
 921              		.section	.rodata.evt1_execute.str1.4,"aMS",%progbits,1
 922              		.align	2
 923              	.LC0:
 924 0000 41424300 		.ascii	"ABC\000"
 925              		.section	.rodata.evt2_execute.str1.4,"aMS",%progbits,1
 926              		.align	2
 927              	.LC1:
 928 0000 4100     		.ascii	"A\000"
 929              		.section	.rodata.patternevt,"a"
 930              		.align	2
 931              		.type	patternevt, %object
 932              		.size	patternevt, 16
 933              	patternevt:
 934 0000 00000000 		.word	testevt1
 935 0004 00000000 		.word	testevt2
 936 0008 00000000 		.word	testevt3
 937 000c 00000000 		.word	0
 938              		.section	.rodata.str1.4,"aMS",%progbits,1
 939              		.align	2
 940              	.LC2:
 941 0000 4576656E 		.ascii	"Events, timeouts\000"
 941      74732C20 
 941      74696D65 
 941      6F757473 
 941      00
 942 0011 000000   		.space	3
 943              	.LC3:
 944 0014 4576656E 		.ascii	"Events, wait and broadcast\000"
 944      74732C20 
 944      77616974 
 944      20616E64 
 944      2062726F 
 945 002f 00       		.space	1
 946              	.LC4:
 947 0030 4576656E 		.ascii	"Events, registration and dispatch\000"
 947      74732C20 
 947      72656769 
 947      73747261 
 947      74696F6E 
 948              		.section	.rodata.testevt1,"a"
 949              		.align	2
 950              		.type	testevt1, %object
 951              		.size	testevt1, 16
 952              	testevt1:
 953 0000 30000000 		.word	.LC4
 954 0004 00000000 		.word	evt1_setup
 955 0008 00000000 		.word	0
 956 000c 00000000 		.word	evt1_execute
 957              		.section	.rodata.testevt2,"a"
ARM GAS  /var/folders/l5/0x54b2c10074c8bt31ycjvl80000gp/T//cc0aQrPq.s 			page 18


 958              		.align	2
 959              		.type	testevt2, %object
 960              		.size	testevt2, 16
 961              	testevt2:
 962 0000 14000000 		.word	.LC3
 963 0004 00000000 		.word	evt2_setup
 964 0008 00000000 		.word	0
 965 000c 00000000 		.word	evt2_execute
 966              		.section	.rodata.testevt3,"a"
 967              		.align	2
 968              		.type	testevt3, %object
 969              		.size	testevt3, 16
 970              	testevt3:
 971 0000 00000000 		.word	.LC2
 972 0004 00000000 		.word	evt3_setup
 973 0008 00000000 		.word	0
 974 000c 00000000 		.word	evt3_execute
 975              		.text
 976              	.Letext0:
 977              		.file 2 "/usr/local/Cellar/arm-gcc-bin/8-2019-q3-update/arm-none-eabi/include/machine/_default_typ
 978              		.file 3 "/usr/local/Cellar/arm-gcc-bin/8-2019-q3-update/arm-none-eabi/include/sys/_stdint.h"
 979              		.file 4 "../../os/ports/GCC/ARM/chtypes.h"
 980              		.file 5 "../../os/kernel/include/chlists.h"
 981              		.file 6 "../../os/kernel/include/chthreads.h"
 982              		.file 7 "../../os/ports/GCC/ARM/chcore.h"
 983              		.file 8 "../../os/kernel/include/chvt.h"
 984              		.file 9 "../../os/kernel/include/chschd.h"
 985              		.file 10 "../../os/kernel/include/chmtx.h"
 986              		.file 11 "../../os/kernel/include/chevents.h"
 987              		.file 12 "../../os/kernel/include/chregistry.h"
 988              		.file 13 "../../os/kernel/include/ch.h"
 989              		.file 14 "../../test/test.h"
 990              		.section	.debug_info,"",%progbits
 991              	.Ldebug_info0:
 992 0000 37120000 		.4byte	0x1237
 993 0004 0400     		.2byte	0x4
 994 0006 00000000 		.4byte	.Ldebug_abbrev0
 995 000a 04       		.byte	0x4
 996 000b 01       		.uleb128 0x1
 997 000c BF020000 		.4byte	.LASF151
 998 0010 0C       		.byte	0xc
 999 0011 C8050000 		.4byte	.LASF152
 1000 0015 13070000 		.4byte	.LASF153
 1001 0019 18000000 		.4byte	.Ldebug_ranges0+0x18
 1002 001d 00000000 		.4byte	0
 1003 0021 00000000 		.4byte	.Ldebug_line0
 1004 0025 02       		.uleb128 0x2
 1005 0026 04       		.byte	0x4
 1006 0027 05       		.byte	0x5
 1007 0028 696E7400 		.ascii	"int\000"
 1008 002c 03       		.uleb128 0x3
 1009 002d 04       		.byte	0x4
 1010 002e 07       		.byte	0x7
 1011 002f 0C020000 		.4byte	.LASF0
 1012 0033 03       		.uleb128 0x3
 1013 0034 01       		.byte	0x1
 1014 0035 06       		.byte	0x6
ARM GAS  /var/folders/l5/0x54b2c10074c8bt31ycjvl80000gp/T//cc0aQrPq.s 			page 19


 1015 0036 B8000000 		.4byte	.LASF1
 1016 003a 04       		.uleb128 0x4
 1017 003b 1A000000 		.4byte	.LASF4
 1018 003f 02       		.byte	0x2
 1019 0040 2B       		.byte	0x2b
 1020 0041 18       		.byte	0x18
 1021 0042 46000000 		.4byte	0x46
 1022 0046 03       		.uleb128 0x3
 1023 0047 01       		.byte	0x1
 1024 0048 08       		.byte	0x8
 1025 0049 04050000 		.4byte	.LASF2
 1026 004d 03       		.uleb128 0x3
 1027 004e 02       		.byte	0x2
 1028 004f 05       		.byte	0x5
 1029 0050 4B050000 		.4byte	.LASF3
 1030 0054 04       		.uleb128 0x4
 1031 0055 29060000 		.4byte	.LASF5
 1032 0059 02       		.byte	0x2
 1033 005a 39       		.byte	0x39
 1034 005b 19       		.byte	0x19
 1035 005c 60000000 		.4byte	0x60
 1036 0060 03       		.uleb128 0x3
 1037 0061 02       		.byte	0x2
 1038 0062 07       		.byte	0x7
 1039 0063 84020000 		.4byte	.LASF6
 1040 0067 04       		.uleb128 0x4
 1041 0068 58060000 		.4byte	.LASF7
 1042 006c 02       		.byte	0x2
 1043 006d 4D       		.byte	0x4d
 1044 006e 18       		.byte	0x18
 1045 006f 73000000 		.4byte	0x73
 1046 0073 03       		.uleb128 0x3
 1047 0074 04       		.byte	0x4
 1048 0075 05       		.byte	0x5
 1049 0076 32010000 		.4byte	.LASF8
 1050 007a 04       		.uleb128 0x4
 1051 007b BA010000 		.4byte	.LASF9
 1052 007f 02       		.byte	0x2
 1053 0080 4F       		.byte	0x4f
 1054 0081 19       		.byte	0x19
 1055 0082 86000000 		.4byte	0x86
 1056 0086 03       		.uleb128 0x3
 1057 0087 04       		.byte	0x4
 1058 0088 07       		.byte	0x7
 1059 0089 21020000 		.4byte	.LASF10
 1060 008d 03       		.uleb128 0x3
 1061 008e 08       		.byte	0x8
 1062 008f 05       		.byte	0x5
 1063 0090 AA000000 		.4byte	.LASF11
 1064 0094 03       		.uleb128 0x3
 1065 0095 08       		.byte	0x8
 1066 0096 07       		.byte	0x7
 1067 0097 37000000 		.4byte	.LASF12
 1068 009b 04       		.uleb128 0x4
 1069 009c B0060000 		.4byte	.LASF13
 1070 00a0 03       		.byte	0x3
 1071 00a1 18       		.byte	0x18
ARM GAS  /var/folders/l5/0x54b2c10074c8bt31ycjvl80000gp/T//cc0aQrPq.s 			page 20


 1072 00a2 13       		.byte	0x13
 1073 00a3 3A000000 		.4byte	0x3a
 1074 00a7 04       		.uleb128 0x4
 1075 00a8 88010000 		.4byte	.LASF14
 1076 00ac 03       		.byte	0x3
 1077 00ad 24       		.byte	0x24
 1078 00ae 14       		.byte	0x14
 1079 00af 54000000 		.4byte	0x54
 1080 00b3 04       		.uleb128 0x4
 1081 00b4 FC040000 		.4byte	.LASF15
 1082 00b8 03       		.byte	0x3
 1083 00b9 2C       		.byte	0x2c
 1084 00ba 13       		.byte	0x13
 1085 00bb 67000000 		.4byte	0x67
 1086 00bf 04       		.uleb128 0x4
 1087 00c0 ED050000 		.4byte	.LASF16
 1088 00c4 03       		.byte	0x3
 1089 00c5 30       		.byte	0x30
 1090 00c6 14       		.byte	0x14
 1091 00c7 7A000000 		.4byte	0x7a
 1092 00cb 04       		.uleb128 0x4
 1093 00cc F5000000 		.4byte	.LASF17
 1094 00d0 04       		.byte	0x4
 1095 00d1 29       		.byte	0x29
 1096 00d2 19       		.byte	0x19
 1097 00d3 B3000000 		.4byte	0xb3
 1098 00d7 04       		.uleb128 0x4
 1099 00d8 97030000 		.4byte	.LASF18
 1100 00dc 04       		.byte	0x4
 1101 00dd 2A       		.byte	0x2a
 1102 00de 19       		.byte	0x19
 1103 00df 9B000000 		.4byte	0x9b
 1104 00e3 04       		.uleb128 0x4
 1105 00e4 47010000 		.4byte	.LASF19
 1106 00e8 04       		.byte	0x4
 1107 00e9 2B       		.byte	0x2b
 1108 00ea 19       		.byte	0x19
 1109 00eb 9B000000 		.4byte	0x9b
 1110 00ef 04       		.uleb128 0x4
 1111 00f0 D2040000 		.4byte	.LASF20
 1112 00f4 04       		.byte	0x4
 1113 00f5 2C       		.byte	0x2c
 1114 00f6 19       		.byte	0x19
 1115 00f7 9B000000 		.4byte	0x9b
 1116 00fb 04       		.uleb128 0x4
 1117 00fc F4040000 		.4byte	.LASF21
 1118 0100 04       		.byte	0x4
 1119 0101 2E       		.byte	0x2e
 1120 0102 19       		.byte	0x19
 1121 0103 BF000000 		.4byte	0xbf
 1122 0107 04       		.uleb128 0x4
 1123 0108 A9020000 		.4byte	.LASF22
 1124 010c 04       		.byte	0x4
 1125 010d 2F       		.byte	0x2f
 1126 010e 19       		.byte	0x19
 1127 010f B3000000 		.4byte	0xb3
 1128 0113 04       		.uleb128 0x4
ARM GAS  /var/folders/l5/0x54b2c10074c8bt31ycjvl80000gp/T//cc0aQrPq.s 			page 21


 1129 0114 EA010000 		.4byte	.LASF23
 1130 0118 04       		.byte	0x4
 1131 0119 30       		.byte	0x30
 1132 011a 19       		.byte	0x19
 1133 011b B3000000 		.4byte	0xb3
 1134 011f 04       		.uleb128 0x4
 1135 0120 AB030000 		.4byte	.LASF24
 1136 0124 04       		.byte	0x4
 1137 0125 31       		.byte	0x31
 1138 0126 19       		.byte	0x19
 1139 0127 BF000000 		.4byte	0xbf
 1140 012b 04       		.uleb128 0x4
 1141 012c 82060000 		.4byte	.LASF25
 1142 0130 04       		.byte	0x4
 1143 0131 32       		.byte	0x32
 1144 0132 19       		.byte	0x19
 1145 0133 BF000000 		.4byte	0xbf
 1146 0137 04       		.uleb128 0x4
 1147 0138 43060000 		.4byte	.LASF26
 1148 013c 04       		.byte	0x4
 1149 013d 33       		.byte	0x33
 1150 013e 19       		.byte	0x19
 1151 013f BF000000 		.4byte	0xbf
 1152 0143 05       		.uleb128 0x5
 1153 0144 37010000 		.4byte	0x137
 1154 0148 04       		.uleb128 0x4
 1155 0149 95050000 		.4byte	.LASF27
 1156 014d 05       		.byte	0x5
 1157 014e 23       		.byte	0x23
 1158 014f 17       		.byte	0x17
 1159 0150 54010000 		.4byte	0x154
 1160 0154 06       		.uleb128 0x6
 1161 0155 95050000 		.4byte	.LASF27
 1162 0159 44       		.byte	0x44
 1163 015a 06       		.byte	0x6
 1164 015b 57       		.byte	0x57
 1165 015c 08       		.byte	0x8
 1166 015d 4C020000 		.4byte	0x24c
 1167 0161 07       		.uleb128 0x7
 1168 0162 77050000 		.4byte	.LASF28
 1169 0166 06       		.byte	0x6
 1170 0167 58       		.byte	0x58
 1171 0168 1A       		.byte	0x1a
 1172 0169 70020000 		.4byte	0x270
 1173 016d 00       		.byte	0
 1174 016e 07       		.uleb128 0x7
 1175 016f E5040000 		.4byte	.LASF29
 1176 0173 06       		.byte	0x6
 1177 0174 5A       		.byte	0x5a
 1178 0175 1A       		.byte	0x1a
 1179 0176 70020000 		.4byte	0x270
 1180 017a 04       		.byte	0x4
 1181 017b 07       		.uleb128 0x7
 1182 017c 8D000000 		.4byte	.LASF30
 1183 0180 06       		.byte	0x6
 1184 0181 5C       		.byte	0x5c
 1185 0182 19       		.byte	0x19
ARM GAS  /var/folders/l5/0x54b2c10074c8bt31ycjvl80000gp/T//cc0aQrPq.s 			page 22


 1186 0183 FB000000 		.4byte	0xfb
 1187 0187 08       		.byte	0x8
 1188 0188 07       		.uleb128 0x7
 1189 0189 86070000 		.4byte	.LASF31
 1190 018d 06       		.byte	0x6
 1191 018e 5D       		.byte	0x5d
 1192 018f 19       		.byte	0x19
 1193 0190 40030000 		.4byte	0x340
 1194 0194 0C       		.byte	0xc
 1195 0195 07       		.uleb128 0x7
 1196 0196 A2010000 		.4byte	.LASF32
 1197 019a 06       		.byte	0x6
 1198 019b 5F       		.byte	0x5f
 1199 019c 1A       		.byte	0x1a
 1200 019d 70020000 		.4byte	0x270
 1201 01a1 10       		.byte	0x10
 1202 01a2 07       		.uleb128 0x7
 1203 01a3 4C040000 		.4byte	.LASF33
 1204 01a7 06       		.byte	0x6
 1205 01a8 60       		.byte	0x60
 1206 01a9 1A       		.byte	0x1a
 1207 01aa 70020000 		.4byte	0x270
 1208 01ae 14       		.byte	0x14
 1209 01af 07       		.uleb128 0x7
 1210 01b0 E1060000 		.4byte	.LASF34
 1211 01b4 06       		.byte	0x6
 1212 01b5 67       		.byte	0x67
 1213 01b6 1A       		.byte	0x1a
 1214 01b7 C3050000 		.4byte	0x5c3
 1215 01bb 18       		.byte	0x18
 1216 01bc 07       		.uleb128 0x7
 1217 01bd 55050000 		.4byte	.LASF35
 1218 01c1 06       		.byte	0x6
 1219 01c2 72       		.byte	0x72
 1220 01c3 19       		.byte	0x19
 1221 01c4 E3000000 		.4byte	0xe3
 1222 01c8 1C       		.byte	0x1c
 1223 01c9 07       		.uleb128 0x7
 1224 01ca 8D050000 		.4byte	.LASF36
 1225 01ce 06       		.byte	0x6
 1226 01cf 76       		.byte	0x76
 1227 01d0 19       		.byte	0x19
 1228 01d1 D7000000 		.4byte	0xd7
 1229 01d5 1D       		.byte	0x1d
 1230 01d6 07       		.uleb128 0x7
 1231 01d7 99060000 		.4byte	.LASF37
 1232 01db 06       		.byte	0x6
 1233 01dc 7B       		.byte	0x7b
 1234 01dd 19       		.byte	0x19
 1235 01de EF000000 		.4byte	0xef
 1236 01e2 1E       		.byte	0x1e
 1237 01e3 07       		.uleb128 0x7
 1238 01e4 62060000 		.4byte	.LASF38
 1239 01e8 06       		.byte	0x6
 1240 01e9 88       		.byte	0x88
 1241 01ea 19       		.byte	0x19
 1242 01eb 43010000 		.4byte	0x143
ARM GAS  /var/folders/l5/0x54b2c10074c8bt31ycjvl80000gp/T//cc0aQrPq.s 			page 23


 1243 01ef 20       		.byte	0x20
 1244 01f0 08       		.uleb128 0x8
 1245 01f1 705F7500 		.ascii	"p_u\000"
 1246 01f5 06       		.byte	0x6
 1247 01f6 AD       		.byte	0xad
 1248 01f7 19       		.byte	0x19
 1249 01f8 89050000 		.4byte	0x589
 1250 01fc 24       		.byte	0x24
 1251 01fd 07       		.uleb128 0x7
 1252 01fe 8C070000 		.4byte	.LASF39
 1253 0202 06       		.byte	0x6
 1254 0203 B2       		.byte	0xb2
 1255 0204 19       		.byte	0x19
 1256 0205 99020000 		.4byte	0x299
 1257 0209 28       		.byte	0x28
 1258 020a 07       		.uleb128 0x7
 1259 020b 70060000 		.4byte	.LASF40
 1260 020f 06       		.byte	0x6
 1261 0210 B8       		.byte	0xb8
 1262 0211 19       		.byte	0x19
 1263 0212 76020000 		.4byte	0x276
 1264 0216 2C       		.byte	0x2c
 1265 0217 07       		.uleb128 0x7
 1266 0218 0D000000 		.4byte	.LASF41
 1267 021c 06       		.byte	0x6
 1268 021d BC       		.byte	0xbc
 1269 021e 19       		.byte	0x19
 1270 021f 07010000 		.4byte	0x107
 1271 0223 34       		.byte	0x34
 1272 0224 07       		.uleb128 0x7
 1273 0225 B2050000 		.4byte	.LASF42
 1274 0229 06       		.byte	0x6
 1275 022a C2       		.byte	0xc2
 1276 022b 19       		.byte	0x19
 1277 022c 1F010000 		.4byte	0x11f
 1278 0230 38       		.byte	0x38
 1279 0231 07       		.uleb128 0x7
 1280 0232 41050000 		.4byte	.LASF43
 1281 0236 06       		.byte	0x6
 1282 0237 C9       		.byte	0xc9
 1283 0238 1A       		.byte	0x1a
 1284 0239 D5050000 		.4byte	0x5d5
 1285 023d 3C       		.byte	0x3c
 1286 023e 07       		.uleb128 0x7
 1287 023f 4D060000 		.4byte	.LASF44
 1288 0243 06       		.byte	0x6
 1289 0244 CD       		.byte	0xcd
 1290 0245 19       		.byte	0x19
 1291 0246 FB000000 		.4byte	0xfb
 1292 024a 40       		.byte	0x40
 1293 024b 00       		.byte	0
 1294 024c 09       		.uleb128 0x9
 1295 024d 08       		.byte	0x8
 1296 024e 05       		.byte	0x5
 1297 024f 5A       		.byte	0x5a
 1298 0250 09       		.byte	0x9
 1299 0251 70020000 		.4byte	0x270
ARM GAS  /var/folders/l5/0x54b2c10074c8bt31ycjvl80000gp/T//cc0aQrPq.s 			page 24


 1300 0255 07       		.uleb128 0x7
 1301 0256 77050000 		.4byte	.LASF28
 1302 025a 05       		.byte	0x5
 1303 025b 5B       		.byte	0x5b
 1304 025c 1A       		.byte	0x1a
 1305 025d 70020000 		.4byte	0x270
 1306 0261 00       		.byte	0
 1307 0262 07       		.uleb128 0x7
 1308 0263 E5040000 		.4byte	.LASF29
 1309 0267 05       		.byte	0x5
 1310 0268 5D       		.byte	0x5d
 1311 0269 1A       		.byte	0x1a
 1312 026a 70020000 		.4byte	0x270
 1313 026e 04       		.byte	0x4
 1314 026f 00       		.byte	0
 1315 0270 0A       		.uleb128 0xa
 1316 0271 04       		.byte	0x4
 1317 0272 48010000 		.4byte	0x148
 1318 0276 04       		.uleb128 0x4
 1319 0277 6F040000 		.4byte	.LASF45
 1320 027b 05       		.byte	0x5
 1321 027c 5F       		.byte	0x5f
 1322 027d 03       		.byte	0x3
 1323 027e 4C020000 		.4byte	0x24c
 1324 0282 09       		.uleb128 0x9
 1325 0283 04       		.byte	0x4
 1326 0284 05       		.byte	0x5
 1327 0285 64       		.byte	0x64
 1328 0286 09       		.byte	0x9
 1329 0287 99020000 		.4byte	0x299
 1330 028b 07       		.uleb128 0x7
 1331 028c 77050000 		.4byte	.LASF28
 1332 0290 05       		.byte	0x5
 1333 0291 66       		.byte	0x66
 1334 0292 16       		.byte	0x16
 1335 0293 70020000 		.4byte	0x270
 1336 0297 00       		.byte	0
 1337 0298 00       		.byte	0
 1338 0299 04       		.uleb128 0x4
 1339 029a 9F030000 		.4byte	.LASF46
 1340 029e 05       		.byte	0x5
 1341 029f 69       		.byte	0x69
 1342 02a0 03       		.byte	0x3
 1343 02a1 82020000 		.4byte	0x282
 1344 02a5 04       		.uleb128 0x4
 1345 02a6 BD030000 		.4byte	.LASF47
 1346 02aa 07       		.byte	0x7
 1347 02ab 9D       		.byte	0x9d
 1348 02ac 12       		.byte	0x12
 1349 02ad BF000000 		.4byte	0xbf
 1350 02b1 04       		.uleb128 0x4
 1351 02b2 C5010000 		.4byte	.LASF48
 1352 02b6 07       		.byte	0x7
 1353 02b7 A2       		.byte	0xa2
 1354 02b8 0F       		.byte	0xf
 1355 02b9 BD020000 		.4byte	0x2bd
 1356 02bd 0B       		.uleb128 0xb
ARM GAS  /var/folders/l5/0x54b2c10074c8bt31ycjvl80000gp/T//cc0aQrPq.s 			page 25


 1357 02be 04       		.byte	0x4
 1358 02bf 0C       		.uleb128 0xc
 1359 02c0 BD020000 		.4byte	0x2bd
 1360 02c4 06       		.uleb128 0x6
 1361 02c5 69060000 		.4byte	.LASF49
 1362 02c9 24       		.byte	0x24
 1363 02ca 07       		.byte	0x7
 1364 02cb B9       		.byte	0xb9
 1365 02cc 08       		.byte	0x8
 1366 02cd 40030000 		.4byte	0x340
 1367 02d1 08       		.uleb128 0x8
 1368 02d2 723400   		.ascii	"r4\000"
 1369 02d5 07       		.byte	0x7
 1370 02d6 BA       		.byte	0xba
 1371 02d7 11       		.byte	0x11
 1372 02d8 B1020000 		.4byte	0x2b1
 1373 02dc 00       		.byte	0
 1374 02dd 08       		.uleb128 0x8
 1375 02de 723500   		.ascii	"r5\000"
 1376 02e1 07       		.byte	0x7
 1377 02e2 BB       		.byte	0xbb
 1378 02e3 11       		.byte	0x11
 1379 02e4 B1020000 		.4byte	0x2b1
 1380 02e8 04       		.byte	0x4
 1381 02e9 08       		.uleb128 0x8
 1382 02ea 723600   		.ascii	"r6\000"
 1383 02ed 07       		.byte	0x7
 1384 02ee BC       		.byte	0xbc
 1385 02ef 11       		.byte	0x11
 1386 02f0 B1020000 		.4byte	0x2b1
 1387 02f4 08       		.byte	0x8
 1388 02f5 08       		.uleb128 0x8
 1389 02f6 723700   		.ascii	"r7\000"
 1390 02f9 07       		.byte	0x7
 1391 02fa BD       		.byte	0xbd
 1392 02fb 11       		.byte	0x11
 1393 02fc B1020000 		.4byte	0x2b1
 1394 0300 0C       		.byte	0xc
 1395 0301 08       		.uleb128 0x8
 1396 0302 723800   		.ascii	"r8\000"
 1397 0305 07       		.byte	0x7
 1398 0306 BE       		.byte	0xbe
 1399 0307 11       		.byte	0x11
 1400 0308 B1020000 		.4byte	0x2b1
 1401 030c 10       		.byte	0x10
 1402 030d 08       		.uleb128 0x8
 1403 030e 723900   		.ascii	"r9\000"
 1404 0311 07       		.byte	0x7
 1405 0312 BF       		.byte	0xbf
 1406 0313 11       		.byte	0x11
 1407 0314 B1020000 		.4byte	0x2b1
 1408 0318 14       		.byte	0x14
 1409 0319 08       		.uleb128 0x8
 1410 031a 72313000 		.ascii	"r10\000"
 1411 031e 07       		.byte	0x7
 1412 031f C0       		.byte	0xc0
 1413 0320 11       		.byte	0x11
ARM GAS  /var/folders/l5/0x54b2c10074c8bt31ycjvl80000gp/T//cc0aQrPq.s 			page 26


 1414 0321 B1020000 		.4byte	0x2b1
 1415 0325 18       		.byte	0x18
 1416 0326 08       		.uleb128 0x8
 1417 0327 72313100 		.ascii	"r11\000"
 1418 032b 07       		.byte	0x7
 1419 032c C1       		.byte	0xc1
 1420 032d 11       		.byte	0x11
 1421 032e B1020000 		.4byte	0x2b1
 1422 0332 1C       		.byte	0x1c
 1423 0333 08       		.uleb128 0x8
 1424 0334 6C7200   		.ascii	"lr\000"
 1425 0337 07       		.byte	0x7
 1426 0338 C2       		.byte	0xc2
 1427 0339 11       		.byte	0x11
 1428 033a B1020000 		.4byte	0x2b1
 1429 033e 20       		.byte	0x20
 1430 033f 00       		.byte	0
 1431 0340 06       		.uleb128 0x6
 1432 0341 7C020000 		.4byte	.LASF50
 1433 0345 04       		.byte	0x4
 1434 0346 07       		.byte	0x7
 1435 0347 CA       		.byte	0xca
 1436 0348 08       		.byte	0x8
 1437 0349 5B030000 		.4byte	0x35b
 1438 034d 08       		.uleb128 0x8
 1439 034e 72313300 		.ascii	"r13\000"
 1440 0352 07       		.byte	0x7
 1441 0353 CB       		.byte	0xcb
 1442 0354 12       		.byte	0x12
 1443 0355 5B030000 		.4byte	0x35b
 1444 0359 00       		.byte	0
 1445 035a 00       		.byte	0
 1446 035b 0A       		.uleb128 0xa
 1447 035c 04       		.byte	0x4
 1448 035d C4020000 		.4byte	0x2c4
 1449 0361 04       		.uleb128 0x4
 1450 0362 6E020000 		.4byte	.LASF51
 1451 0366 08       		.byte	0x8
 1452 0367 4E       		.byte	0x4e
 1453 0368 10       		.byte	0x10
 1454 0369 6D030000 		.4byte	0x36d
 1455 036d 0A       		.uleb128 0xa
 1456 036e 04       		.byte	0x4
 1457 036f 73030000 		.4byte	0x373
 1458 0373 0D       		.uleb128 0xd
 1459 0374 7E030000 		.4byte	0x37e
 1460 0378 0E       		.uleb128 0xe
 1461 0379 BD020000 		.4byte	0x2bd
 1462 037d 00       		.byte	0
 1463 037e 04       		.uleb128 0x4
 1464 037f 0A060000 		.4byte	.LASF52
 1465 0383 08       		.byte	0x8
 1466 0384 53       		.byte	0x53
 1467 0385 1D       		.byte	0x1d
 1468 0386 8A030000 		.4byte	0x38a
 1469 038a 06       		.uleb128 0x6
 1470 038b 0A060000 		.4byte	.LASF52
ARM GAS  /var/folders/l5/0x54b2c10074c8bt31ycjvl80000gp/T//cc0aQrPq.s 			page 27


 1471 038f 14       		.byte	0x14
 1472 0390 08       		.byte	0x8
 1473 0391 5A       		.byte	0x5a
 1474 0392 08       		.byte	0x8
 1475 0393 D9030000 		.4byte	0x3d9
 1476 0397 07       		.uleb128 0x7
 1477 0398 19020000 		.4byte	.LASF53
 1478 039c 08       		.byte	0x8
 1479 039d 5B       		.byte	0x5b
 1480 039e 1A       		.byte	0x1a
 1481 039f D9030000 		.4byte	0x3d9
 1482 03a3 00       		.byte	0
 1483 03a4 07       		.uleb128 0x7
 1484 03a5 CE010000 		.4byte	.LASF54
 1485 03a9 08       		.byte	0x8
 1486 03aa 5D       		.byte	0x5d
 1487 03ab 1A       		.byte	0x1a
 1488 03ac D9030000 		.4byte	0x3d9
 1489 03b0 04       		.byte	0x4
 1490 03b1 07       		.uleb128 0x7
 1491 03b2 EE030000 		.4byte	.LASF55
 1492 03b6 08       		.byte	0x8
 1493 03b7 5F       		.byte	0x5f
 1494 03b8 19       		.byte	0x19
 1495 03b9 37010000 		.4byte	0x137
 1496 03bd 08       		.byte	0x8
 1497 03be 07       		.uleb128 0x7
 1498 03bf 01040000 		.4byte	.LASF56
 1499 03c3 08       		.byte	0x8
 1500 03c4 60       		.byte	0x60
 1501 03c5 19       		.byte	0x19
 1502 03c6 61030000 		.4byte	0x361
 1503 03ca 0C       		.byte	0xc
 1504 03cb 07       		.uleb128 0x7
 1505 03cc 7B060000 		.4byte	.LASF57
 1506 03d0 08       		.byte	0x8
 1507 03d1 62       		.byte	0x62
 1508 03d2 1A       		.byte	0x1a
 1509 03d3 BD020000 		.4byte	0x2bd
 1510 03d7 10       		.byte	0x10
 1511 03d8 00       		.byte	0
 1512 03d9 0A       		.uleb128 0xa
 1513 03da 04       		.byte	0x4
 1514 03db 7E030000 		.4byte	0x37e
 1515 03df 09       		.uleb128 0x9
 1516 03e0 10       		.byte	0x10
 1517 03e1 08       		.byte	0x8
 1518 03e2 6C       		.byte	0x6c
 1519 03e3 09       		.byte	0x9
 1520 03e4 1D040000 		.4byte	0x41d
 1521 03e8 07       		.uleb128 0x7
 1522 03e9 19020000 		.4byte	.LASF53
 1523 03ed 08       		.byte	0x8
 1524 03ee 6D       		.byte	0x6d
 1525 03ef 1A       		.byte	0x1a
 1526 03f0 D9030000 		.4byte	0x3d9
 1527 03f4 00       		.byte	0
ARM GAS  /var/folders/l5/0x54b2c10074c8bt31ycjvl80000gp/T//cc0aQrPq.s 			page 28


 1528 03f5 07       		.uleb128 0x7
 1529 03f6 CE010000 		.4byte	.LASF54
 1530 03fa 08       		.byte	0x8
 1531 03fb 6F       		.byte	0x6f
 1532 03fc 1A       		.byte	0x1a
 1533 03fd D9030000 		.4byte	0x3d9
 1534 0401 04       		.byte	0x4
 1535 0402 07       		.uleb128 0x7
 1536 0403 EE030000 		.4byte	.LASF55
 1537 0407 08       		.byte	0x8
 1538 0408 71       		.byte	0x71
 1539 0409 19       		.byte	0x19
 1540 040a 37010000 		.4byte	0x137
 1541 040e 08       		.byte	0x8
 1542 040f 07       		.uleb128 0x7
 1543 0410 F5060000 		.4byte	.LASF58
 1544 0414 08       		.byte	0x8
 1545 0415 72       		.byte	0x72
 1546 0416 19       		.byte	0x19
 1547 0417 43010000 		.4byte	0x143
 1548 041b 0C       		.byte	0xc
 1549 041c 00       		.byte	0
 1550 041d 04       		.uleb128 0x4
 1551 041e 5B070000 		.4byte	.LASF59
 1552 0422 08       		.byte	0x8
 1553 0423 73       		.byte	0x73
 1554 0424 03       		.byte	0x3
 1555 0425 DF030000 		.4byte	0x3df
 1556 0429 0F       		.uleb128 0xf
 1557 042a 24000000 		.4byte	.LASF67
 1558 042e 08       		.byte	0x8
 1559 042f D1       		.byte	0xd1
 1560 0430 0F       		.byte	0xf
 1561 0431 1D040000 		.4byte	0x41d
 1562 0435 09       		.uleb128 0x9
 1563 0436 1C       		.byte	0x1c
 1564 0437 09       		.byte	0x9
 1565 0438 57       		.byte	0x57
 1566 0439 09       		.byte	0x9
 1567 043a 8D040000 		.4byte	0x48d
 1568 043e 07       		.uleb128 0x7
 1569 043f 02060000 		.4byte	.LASF60
 1570 0443 09       		.byte	0x9
 1571 0444 58       		.byte	0x58
 1572 0445 19       		.byte	0x19
 1573 0446 76020000 		.4byte	0x276
 1574 044a 00       		.byte	0
 1575 044b 07       		.uleb128 0x7
 1576 044c 69050000 		.4byte	.LASF61
 1577 0450 09       		.byte	0x9
 1578 0451 59       		.byte	0x59
 1579 0452 19       		.byte	0x19
 1580 0453 FB000000 		.4byte	0xfb
 1581 0457 08       		.byte	0x8
 1582 0458 07       		.uleb128 0x7
 1583 0459 69040000 		.4byte	.LASF62
 1584 045d 09       		.byte	0x9
ARM GAS  /var/folders/l5/0x54b2c10074c8bt31ycjvl80000gp/T//cc0aQrPq.s 			page 29


 1585 045e 5B       		.byte	0x5b
 1586 045f 19       		.byte	0x19
 1587 0460 40030000 		.4byte	0x340
 1588 0464 0C       		.byte	0xc
 1589 0465 07       		.uleb128 0x7
 1590 0466 AF020000 		.4byte	.LASF63
 1591 046a 09       		.byte	0x9
 1592 046b 5E       		.byte	0x5e
 1593 046c 1A       		.byte	0x1a
 1594 046d 70020000 		.4byte	0x270
 1595 0471 10       		.byte	0x10
 1596 0472 07       		.uleb128 0x7
 1597 0473 B7040000 		.4byte	.LASF64
 1598 0477 09       		.byte	0x9
 1599 0478 5F       		.byte	0x5f
 1600 0479 1A       		.byte	0x1a
 1601 047a 70020000 		.4byte	0x270
 1602 047e 14       		.byte	0x14
 1603 047f 07       		.uleb128 0x7
 1604 0480 AD040000 		.4byte	.LASF65
 1605 0484 09       		.byte	0x9
 1606 0485 62       		.byte	0x62
 1607 0486 1A       		.byte	0x1a
 1608 0487 70020000 		.4byte	0x270
 1609 048b 18       		.byte	0x18
 1610 048c 00       		.byte	0
 1611 048d 04       		.uleb128 0x4
 1612 048e A0060000 		.4byte	.LASF66
 1613 0492 09       		.byte	0x9
 1614 0493 64       		.byte	0x64
 1615 0494 03       		.byte	0x3
 1616 0495 35040000 		.4byte	0x435
 1617 0499 0F       		.uleb128 0xf
 1618 049a AA060000 		.4byte	.LASF68
 1619 049e 09       		.byte	0x9
 1620 049f 68       		.byte	0x68
 1621 04a0 12       		.byte	0x12
 1622 04a1 8D040000 		.4byte	0x48d
 1623 04a5 06       		.uleb128 0x6
 1624 04a6 B7030000 		.4byte	.LASF69
 1625 04aa 10       		.byte	0x10
 1626 04ab 0A       		.byte	0xa
 1627 04ac 25       		.byte	0x25
 1628 04ad 10       		.byte	0x10
 1629 04ae DA040000 		.4byte	0x4da
 1630 04b2 07       		.uleb128 0x7
 1631 04b3 FC000000 		.4byte	.LASF70
 1632 04b7 0A       		.byte	0xa
 1633 04b8 26       		.byte	0x26
 1634 04b9 19       		.byte	0x19
 1635 04ba 76020000 		.4byte	0x276
 1636 04be 00       		.byte	0
 1637 04bf 07       		.uleb128 0x7
 1638 04c0 62070000 		.4byte	.LASF71
 1639 04c4 0A       		.byte	0xa
 1640 04c5 28       		.byte	0x28
 1641 04c6 1A       		.byte	0x1a
ARM GAS  /var/folders/l5/0x54b2c10074c8bt31ycjvl80000gp/T//cc0aQrPq.s 			page 30


 1642 04c7 70020000 		.4byte	0x270
 1643 04cb 08       		.byte	0x8
 1644 04cc 07       		.uleb128 0x7
 1645 04cd 3C060000 		.4byte	.LASF72
 1646 04d1 0A       		.byte	0xa
 1647 04d2 2A       		.byte	0x2a
 1648 04d3 1A       		.byte	0x1a
 1649 04d4 DA040000 		.4byte	0x4da
 1650 04d8 0C       		.byte	0xc
 1651 04d9 00       		.byte	0
 1652 04da 0A       		.uleb128 0xa
 1653 04db 04       		.byte	0x4
 1654 04dc A5040000 		.4byte	0x4a5
 1655 04e0 04       		.uleb128 0x4
 1656 04e1 B7030000 		.4byte	.LASF69
 1657 04e5 0A       		.byte	0xa
 1658 04e6 2C       		.byte	0x2c
 1659 04e7 03       		.byte	0x3
 1660 04e8 A5040000 		.4byte	0x4a5
 1661 04ec 04       		.uleb128 0x4
 1662 04ed B8060000 		.4byte	.LASF73
 1663 04f1 0B       		.byte	0xb
 1664 04f2 25       		.byte	0x25
 1665 04f3 1E       		.byte	0x1e
 1666 04f4 F8040000 		.4byte	0x4f8
 1667 04f8 06       		.uleb128 0x6
 1668 04f9 B8060000 		.4byte	.LASF73
 1669 04fd 10       		.byte	0x10
 1670 04fe 0B       		.byte	0xb
 1671 04ff 2A       		.byte	0x2a
 1672 0500 08       		.byte	0x8
 1673 0501 3A050000 		.4byte	0x53a
 1674 0505 07       		.uleb128 0x7
 1675 0506 B7020000 		.4byte	.LASF74
 1676 050a 0B       		.byte	0xb
 1677 050b 2B       		.byte	0x2b
 1678 050c 1A       		.byte	0x1a
 1679 050d 3A050000 		.4byte	0x53a
 1680 0511 00       		.byte	0
 1681 0512 07       		.uleb128 0x7
 1682 0513 1F050000 		.4byte	.LASF75
 1683 0517 0B       		.byte	0xb
 1684 0518 2E       		.byte	0x2e
 1685 0519 1A       		.byte	0x1a
 1686 051a 70020000 		.4byte	0x270
 1687 051e 04       		.byte	0x4
 1688 051f 07       		.uleb128 0x7
 1689 0520 BF040000 		.4byte	.LASF76
 1690 0524 0B       		.byte	0xb
 1691 0525 30       		.byte	0x30
 1692 0526 19       		.byte	0x19
 1693 0527 1F010000 		.4byte	0x11f
 1694 052b 08       		.byte	0x8
 1695 052c 07       		.uleb128 0x7
 1696 052d 38050000 		.4byte	.LASF77
 1697 0531 0B       		.byte	0xb
 1698 0532 33       		.byte	0x33
ARM GAS  /var/folders/l5/0x54b2c10074c8bt31ycjvl80000gp/T//cc0aQrPq.s 			page 31


 1699 0533 19       		.byte	0x19
 1700 0534 2B010000 		.4byte	0x12b
 1701 0538 0C       		.byte	0xc
 1702 0539 00       		.byte	0
 1703 053a 0A       		.uleb128 0xa
 1704 053b 04       		.byte	0x4
 1705 053c EC040000 		.4byte	0x4ec
 1706 0540 06       		.uleb128 0x6
 1707 0541 F4010000 		.4byte	.LASF78
 1708 0545 04       		.byte	0x4
 1709 0546 0B       		.byte	0xb
 1710 0547 3A       		.byte	0x3a
 1711 0548 10       		.byte	0x10
 1712 0549 5B050000 		.4byte	0x55b
 1713 054d 07       		.uleb128 0x7
 1714 054e 00070000 		.4byte	.LASF79
 1715 0552 0B       		.byte	0xb
 1716 0553 3B       		.byte	0x3b
 1717 0554 1A       		.byte	0x1a
 1718 0555 3A050000 		.4byte	0x53a
 1719 0559 00       		.byte	0
 1720 055a 00       		.byte	0
 1721 055b 04       		.uleb128 0x4
 1722 055c F4010000 		.4byte	.LASF78
 1723 0560 0B       		.byte	0xb
 1724 0561 3E       		.byte	0x3e
 1725 0562 03       		.byte	0x3
 1726 0563 40050000 		.4byte	0x540
 1727 0567 04       		.uleb128 0x4
 1728 0568 00020000 		.4byte	.LASF80
 1729 056c 0B       		.byte	0xb
 1730 056d 43       		.byte	0x43
 1731 056e 10       		.byte	0x10
 1732 056f 78050000 		.4byte	0x578
 1733 0573 0C       		.uleb128 0xc
 1734 0574 67050000 		.4byte	0x567
 1735 0578 0A       		.uleb128 0xa
 1736 0579 04       		.byte	0x4
 1737 057a 7E050000 		.4byte	0x57e
 1738 057e 0D       		.uleb128 0xd
 1739 057f 89050000 		.4byte	0x589
 1740 0583 0E       		.uleb128 0xe
 1741 0584 13010000 		.4byte	0x113
 1742 0588 00       		.byte	0
 1743 0589 10       		.uleb128 0x10
 1744 058a 04       		.byte	0x4
 1745 058b 06       		.byte	0x6
 1746 058c 8F       		.byte	0x8f
 1747 058d 03       		.byte	0x3
 1748 058e C3050000 		.4byte	0x5c3
 1749 0592 11       		.uleb128 0x11
 1750 0593 13000000 		.4byte	.LASF81
 1751 0597 06       		.byte	0x6
 1752 0598 96       		.byte	0x96
 1753 0599 19       		.byte	0x19
 1754 059a 07010000 		.4byte	0x107
 1755 059e 11       		.uleb128 0x11
ARM GAS  /var/folders/l5/0x54b2c10074c8bt31ycjvl80000gp/T//cc0aQrPq.s 			page 32


 1756 059f 6B000000 		.4byte	.LASF82
 1757 05a3 06       		.byte	0x6
 1758 05a4 9D       		.byte	0x9d
 1759 05a5 19       		.byte	0x19
 1760 05a6 07010000 		.4byte	0x107
 1761 05aa 11       		.uleb128 0x11
 1762 05ab DA060000 		.4byte	.LASF83
 1763 05af 06       		.byte	0x6
 1764 05b0 A4       		.byte	0xa4
 1765 05b1 1A       		.byte	0x1a
 1766 05b2 BD020000 		.4byte	0x2bd
 1767 05b6 11       		.uleb128 0x11
 1768 05b7 70050000 		.4byte	.LASF84
 1769 05bb 06       		.byte	0x6
 1770 05bc AB       		.byte	0xab
 1771 05bd 19       		.byte	0x19
 1772 05be 1F010000 		.4byte	0x11f
 1773 05c2 00       		.byte	0
 1774 05c3 0A       		.uleb128 0xa
 1775 05c4 04       		.byte	0x4
 1776 05c5 D0050000 		.4byte	0x5d0
 1777 05c9 03       		.uleb128 0x3
 1778 05ca 01       		.byte	0x1
 1779 05cb 08       		.byte	0x8
 1780 05cc 17060000 		.4byte	.LASF85
 1781 05d0 0C       		.uleb128 0xc
 1782 05d1 C9050000 		.4byte	0x5c9
 1783 05d5 0A       		.uleb128 0xa
 1784 05d6 04       		.byte	0x4
 1785 05d7 E0040000 		.4byte	0x4e0
 1786 05db 09       		.uleb128 0x9
 1787 05dc 16       		.byte	0x16
 1788 05dd 0C       		.byte	0xc
 1789 05de 25       		.byte	0x25
 1790 05df 09       		.byte	0x9
 1791 05e0 CF060000 		.4byte	0x6cf
 1792 05e4 07       		.uleb128 0x7
 1793 05e5 14010000 		.4byte	.LASF86
 1794 05e9 0C       		.byte	0xc
 1795 05ea 26       		.byte	0x26
 1796 05eb 0D       		.byte	0xd
 1797 05ec CF060000 		.4byte	0x6cf
 1798 05f0 00       		.byte	0
 1799 05f1 07       		.uleb128 0x7
 1800 05f2 DA030000 		.4byte	.LASF87
 1801 05f6 0C       		.byte	0xc
 1802 05f7 27       		.byte	0x27
 1803 05f8 0D       		.byte	0xd
 1804 05f9 9B000000 		.4byte	0x9b
 1805 05fd 04       		.byte	0x4
 1806 05fe 07       		.uleb128 0x7
 1807 05ff 7C040000 		.4byte	.LASF88
 1808 0603 0C       		.byte	0xc
 1809 0604 28       		.byte	0x28
 1810 0605 0D       		.byte	0xd
 1811 0606 9B000000 		.4byte	0x9b
 1812 060a 05       		.byte	0x5
ARM GAS  /var/folders/l5/0x54b2c10074c8bt31ycjvl80000gp/T//cc0aQrPq.s 			page 33


 1813 060b 07       		.uleb128 0x7
 1814 060c 08070000 		.4byte	.LASF89
 1815 0610 0C       		.byte	0xc
 1816 0611 29       		.byte	0x29
 1817 0612 0D       		.byte	0xd
 1818 0613 A7000000 		.4byte	0xa7
 1819 0617 06       		.byte	0x6
 1820 0618 07       		.uleb128 0x7
 1821 0619 DA040000 		.4byte	.LASF90
 1822 061d 0C       		.byte	0xc
 1823 061e 2A       		.byte	0x2a
 1824 061f 0D       		.byte	0xd
 1825 0620 9B000000 		.4byte	0x9b
 1826 0624 08       		.byte	0x8
 1827 0625 07       		.uleb128 0x7
 1828 0626 17040000 		.4byte	.LASF91
 1829 062a 0C       		.byte	0xc
 1830 062b 2B       		.byte	0x2b
 1831 062c 0D       		.byte	0xd
 1832 062d 9B000000 		.4byte	0x9b
 1833 0631 09       		.byte	0x9
 1834 0632 07       		.uleb128 0x7
 1835 0633 5D000000 		.4byte	.LASF92
 1836 0637 0C       		.byte	0xc
 1837 0638 2C       		.byte	0x2c
 1838 0639 0D       		.byte	0xd
 1839 063a 9B000000 		.4byte	0x9b
 1840 063e 0A       		.byte	0xa
 1841 063f 07       		.uleb128 0x7
 1842 0640 F6050000 		.4byte	.LASF93
 1843 0644 0C       		.byte	0xc
 1844 0645 2D       		.byte	0x2d
 1845 0646 0D       		.byte	0xd
 1846 0647 9B000000 		.4byte	0x9b
 1847 064b 0B       		.byte	0xb
 1848 064c 07       		.uleb128 0x7
 1849 064d 8E060000 		.4byte	.LASF94
 1850 0651 0C       		.byte	0xc
 1851 0652 2E       		.byte	0x2e
 1852 0653 0D       		.byte	0xd
 1853 0654 9B000000 		.4byte	0x9b
 1854 0658 0C       		.byte	0xc
 1855 0659 07       		.uleb128 0x7
 1856 065a 9C050000 		.4byte	.LASF95
 1857 065e 0C       		.byte	0xc
 1858 065f 2F       		.byte	0x2f
 1859 0660 0D       		.byte	0xd
 1860 0661 9B000000 		.4byte	0x9b
 1861 0665 0D       		.byte	0xd
 1862 0666 07       		.uleb128 0x7
 1863 0667 00000000 		.4byte	.LASF96
 1864 066b 0C       		.byte	0xc
 1865 066c 30       		.byte	0x30
 1866 066d 0D       		.byte	0xd
 1867 066e 9B000000 		.4byte	0x9b
 1868 0672 0E       		.byte	0xe
 1869 0673 07       		.uleb128 0x7
ARM GAS  /var/folders/l5/0x54b2c10074c8bt31ycjvl80000gp/T//cc0aQrPq.s 			page 34


 1870 0674 2E040000 		.4byte	.LASF97
 1871 0678 0C       		.byte	0xc
 1872 0679 31       		.byte	0x31
 1873 067a 0D       		.byte	0xd
 1874 067b 9B000000 		.4byte	0x9b
 1875 067f 0F       		.byte	0xf
 1876 0680 07       		.uleb128 0x7
 1877 0681 C4000000 		.4byte	.LASF98
 1878 0685 0C       		.byte	0xc
 1879 0686 32       		.byte	0x32
 1880 0687 0D       		.byte	0xd
 1881 0688 9B000000 		.4byte	0x9b
 1882 068c 10       		.byte	0x10
 1883 068d 07       		.uleb128 0x7
 1884 068e 94000000 		.4byte	.LASF99
 1885 0692 0C       		.byte	0xc
 1886 0693 34       		.byte	0x34
 1887 0694 0D       		.byte	0xd
 1888 0695 9B000000 		.4byte	0x9b
 1889 0699 11       		.byte	0x11
 1890 069a 07       		.uleb128 0x7
 1891 069b E8000000 		.4byte	.LASF100
 1892 069f 0C       		.byte	0xc
 1893 06a0 35       		.byte	0x35
 1894 06a1 0D       		.byte	0xd
 1895 06a2 9B000000 		.4byte	0x9b
 1896 06a6 12       		.byte	0x12
 1897 06a7 07       		.uleb128 0x7
 1898 06a8 E2030000 		.4byte	.LASF101
 1899 06ac 0C       		.byte	0xc
 1900 06ad 36       		.byte	0x36
 1901 06ae 0D       		.byte	0xd
 1902 06af 9B000000 		.4byte	0x9b
 1903 06b3 13       		.byte	0x13
 1904 06b4 07       		.uleb128 0x7
 1905 06b5 7E050000 		.4byte	.LASF102
 1906 06b9 0C       		.byte	0xc
 1907 06ba 37       		.byte	0x37
 1908 06bb 0D       		.byte	0xd
 1909 06bc 9B000000 		.4byte	0x9b
 1910 06c0 14       		.byte	0x14
 1911 06c1 07       		.uleb128 0x7
 1912 06c2 5D050000 		.4byte	.LASF103
 1913 06c6 0C       		.byte	0xc
 1914 06c7 39       		.byte	0x39
 1915 06c8 0D       		.byte	0xd
 1916 06c9 9B000000 		.4byte	0x9b
 1917 06cd 15       		.byte	0x15
 1918 06ce 00       		.byte	0
 1919 06cf 12       		.uleb128 0x12
 1920 06d0 C9050000 		.4byte	0x5c9
 1921 06d4 DF060000 		.4byte	0x6df
 1922 06d8 13       		.uleb128 0x13
 1923 06d9 2C000000 		.4byte	0x2c
 1924 06dd 03       		.byte	0x3
 1925 06de 00       		.byte	0
 1926 06df 04       		.uleb128 0x4
ARM GAS  /var/folders/l5/0x54b2c10074c8bt31ycjvl80000gp/T//cc0aQrPq.s 			page 35


 1927 06e0 91010000 		.4byte	.LASF104
 1928 06e4 0C       		.byte	0xc
 1929 06e5 3A       		.byte	0x3a
 1930 06e6 03       		.byte	0x3
 1931 06e7 DB050000 		.4byte	0x5db
 1932 06eb 0C       		.uleb128 0xc
 1933 06ec DF060000 		.4byte	0x6df
 1934 06f0 0F       		.uleb128 0xf
 1935 06f1 4A020000 		.4byte	.LASF105
 1936 06f5 0C       		.byte	0xc
 1937 06f6 77       		.byte	0x77
 1938 06f7 1D       		.byte	0x1d
 1939 06f8 EB060000 		.4byte	0x6eb
 1940 06fc 12       		.uleb128 0x12
 1941 06fd A5020000 		.4byte	0x2a5
 1942 0701 0C070000 		.4byte	0x70c
 1943 0705 13       		.uleb128 0x13
 1944 0706 2C000000 		.4byte	0x2c
 1945 070a 26       		.byte	0x26
 1946 070b 00       		.byte	0
 1947 070c 0F       		.uleb128 0xf
 1948 070d AA010000 		.4byte	.LASF106
 1949 0711 0D       		.byte	0xd
 1950 0712 82       		.byte	0x82
 1951 0713 08       		.byte	0x8
 1952 0714 FC060000 		.4byte	0x6fc
 1953 0718 06       		.uleb128 0x6
 1954 0719 A9050000 		.4byte	.LASF107
 1955 071d 10       		.byte	0x10
 1956 071e 0E       		.byte	0xe
 1957 071f 3F       		.byte	0x3f
 1958 0720 08       		.byte	0x8
 1959 0721 5A070000 		.4byte	0x75a
 1960 0725 07       		.uleb128 0x7
 1961 0726 77020000 		.4byte	.LASF108
 1962 072a 0E       		.byte	0xe
 1963 072b 40       		.byte	0x40
 1964 072c 0F       		.byte	0xf
 1965 072d C3050000 		.4byte	0x5c3
 1966 0731 00       		.byte	0
 1967 0732 07       		.uleb128 0x7
 1968 0733 84040000 		.4byte	.LASF109
 1969 0737 0E       		.byte	0xe
 1970 0738 41       		.byte	0x41
 1971 0739 0A       		.byte	0xa
 1972 073a 60070000 		.4byte	0x760
 1973 073e 04       		.byte	0x4
 1974 073f 07       		.uleb128 0x7
 1975 0740 A1000000 		.4byte	.LASF110
 1976 0744 0E       		.byte	0xe
 1977 0745 42       		.byte	0x42
 1978 0746 0A       		.byte	0xa
 1979 0747 60070000 		.4byte	0x760
 1980 074b 08       		.byte	0x8
 1981 074c 07       		.uleb128 0x7
 1982 074d EC040000 		.4byte	.LASF111
 1983 0751 0E       		.byte	0xe
ARM GAS  /var/folders/l5/0x54b2c10074c8bt31ycjvl80000gp/T//cc0aQrPq.s 			page 36


 1984 0752 43       		.byte	0x43
 1985 0753 0A       		.byte	0xa
 1986 0754 60070000 		.4byte	0x760
 1987 0758 0C       		.byte	0xc
 1988 0759 00       		.byte	0
 1989 075a 0C       		.uleb128 0xc
 1990 075b 18070000 		.4byte	0x718
 1991 075f 14       		.uleb128 0x14
 1992 0760 0A       		.uleb128 0xa
 1993 0761 04       		.byte	0x4
 1994 0762 5F070000 		.4byte	0x75f
 1995 0766 15       		.uleb128 0x15
 1996 0767 7805     		.2byte	0x578
 1997 0769 0E       		.byte	0xe
 1998 076a 48       		.byte	0x48
 1999 076b 03       		.byte	0x3
 2000 076c B1070000 		.4byte	0x7b1
 2001 0770 08       		.uleb128 0x8
 2002 0771 543000   		.ascii	"T0\000"
 2003 0774 0E       		.byte	0xe
 2004 0775 49       		.byte	0x49
 2005 0776 05       		.byte	0x5
 2006 0777 B1070000 		.4byte	0x7b1
 2007 077b 00       		.byte	0
 2008 077c 16       		.uleb128 0x16
 2009 077d 543100   		.ascii	"T1\000"
 2010 0780 0E       		.byte	0xe
 2011 0781 4A       		.byte	0x4a
 2012 0782 05       		.byte	0x5
 2013 0783 B1070000 		.4byte	0x7b1
 2014 0787 1801     		.2byte	0x118
 2015 0789 16       		.uleb128 0x16
 2016 078a 543200   		.ascii	"T2\000"
 2017 078d 0E       		.byte	0xe
 2018 078e 4B       		.byte	0x4b
 2019 078f 05       		.byte	0x5
 2020 0790 B1070000 		.4byte	0x7b1
 2021 0794 3002     		.2byte	0x230
 2022 0796 16       		.uleb128 0x16
 2023 0797 543300   		.ascii	"T3\000"
 2024 079a 0E       		.byte	0xe
 2025 079b 4C       		.byte	0x4c
 2026 079c 05       		.byte	0x5
 2027 079d B1070000 		.4byte	0x7b1
 2028 07a1 4803     		.2byte	0x348
 2029 07a3 16       		.uleb128 0x16
 2030 07a4 543400   		.ascii	"T4\000"
 2031 07a7 0E       		.byte	0xe
 2032 07a8 4D       		.byte	0x4d
 2033 07a9 05       		.byte	0x5
 2034 07aa B1070000 		.4byte	0x7b1
 2035 07ae 6004     		.2byte	0x460
 2036 07b0 00       		.byte	0
 2037 07b1 12       		.uleb128 0x12
 2038 07b2 A5020000 		.4byte	0x2a5
 2039 07b6 C1070000 		.4byte	0x7c1
 2040 07ba 13       		.uleb128 0x13
ARM GAS  /var/folders/l5/0x54b2c10074c8bt31ycjvl80000gp/T//cc0aQrPq.s 			page 37


 2041 07bb 2C000000 		.4byte	0x2c
 2042 07bf 45       		.byte	0x45
 2043 07c0 00       		.byte	0
 2044 07c1 17       		.uleb128 0x17
 2045 07c2 1C060000 		.4byte	.LASF154
 2046 07c6 7805     		.2byte	0x578
 2047 07c8 0E       		.byte	0xe
 2048 07c9 47       		.byte	0x47
 2049 07ca 07       		.byte	0x7
 2050 07cb E7070000 		.4byte	0x7e7
 2051 07cf 18       		.uleb128 0x18
 2052 07d0 776100   		.ascii	"wa\000"
 2053 07d3 0E       		.byte	0xe
 2054 07d4 4E       		.byte	0x4e
 2055 07d5 05       		.byte	0x5
 2056 07d6 66070000 		.4byte	0x766
 2057 07da 11       		.uleb128 0x11
 2058 07db 9B010000 		.4byte	.LASF112
 2059 07df 0E       		.byte	0xe
 2060 07e0 4F       		.byte	0x4f
 2061 07e1 0B       		.byte	0xb
 2062 07e2 E7070000 		.4byte	0x7e7
 2063 07e6 00       		.byte	0
 2064 07e7 12       		.uleb128 0x12
 2065 07e8 9B000000 		.4byte	0x9b
 2066 07ec F8070000 		.4byte	0x7f8
 2067 07f0 19       		.uleb128 0x19
 2068 07f1 2C000000 		.4byte	0x2c
 2069 07f5 7705     		.2byte	0x577
 2070 07f7 00       		.byte	0
 2071 07f8 12       		.uleb128 0x12
 2072 07f9 70020000 		.4byte	0x270
 2073 07fd 08080000 		.4byte	0x808
 2074 0801 13       		.uleb128 0x13
 2075 0802 2C000000 		.4byte	0x2c
 2076 0806 04       		.byte	0x4
 2077 0807 00       		.byte	0
 2078 0808 0F       		.uleb128 0xf
 2079 0809 8F030000 		.4byte	.LASF113
 2080 080d 0E       		.byte	0xe
 2081 080e A9       		.byte	0xa9
 2082 080f 10       		.byte	0x10
 2083 0810 F8070000 		.4byte	0x7f8
 2084 0814 0F       		.uleb128 0xf
 2085 0815 74000000 		.4byte	.LASF114
 2086 0819 0E       		.byte	0xe
 2087 081a AA       		.byte	0xaa
 2088 081b 1B       		.byte	0x1b
 2089 081c C1070000 		.4byte	0x7c1
 2090 0820 12       		.uleb128 0x12
 2091 0821 BF020000 		.4byte	0x2bf
 2092 0825 2B080000 		.4byte	0x82b
 2093 0829 1A       		.uleb128 0x1a
 2094 082a 00       		.byte	0
 2095 082b 0C       		.uleb128 0xc
 2096 082c 20080000 		.4byte	0x820
 2097 0830 1B       		.uleb128 0x1b
ARM GAS  /var/folders/l5/0x54b2c10074c8bt31ycjvl80000gp/T//cc0aQrPq.s 			page 38


 2098 0831 776100   		.ascii	"wa\000"
 2099 0834 0E       		.byte	0xe
 2100 0835 AB       		.byte	0xab
 2101 0836 18       		.byte	0x18
 2102 0837 2B080000 		.4byte	0x82b
 2103 083b 0F       		.uleb128 0xf
 2104 083c 53020000 		.4byte	.LASF115
 2105 0840 0E       		.byte	0xe
 2106 0841 AC       		.byte	0xac
 2107 0842 0F       		.byte	0xf
 2108 0843 CB000000 		.4byte	0xcb
 2109 0847 1C       		.uleb128 0x1c
 2110 0848 65733100 		.ascii	"es1\000"
 2111 084c 01       		.byte	0x1
 2112 084d 3F       		.byte	0x3f
 2113 084e 08       		.byte	0x8
 2114 084f 5B050000 		.4byte	0x55b
 2115 0853 05       		.uleb128 0x5
 2116 0854 03       		.byte	0x3
 2117 0855 00000000 		.4byte	es1
 2118 0859 1C       		.uleb128 0x1c
 2119 085a 65733200 		.ascii	"es2\000"
 2120 085e 01       		.byte	0x1
 2121 085f 40       		.byte	0x40
 2122 0860 08       		.byte	0x8
 2123 0861 5B050000 		.4byte	0x55b
 2124 0865 05       		.uleb128 0x5
 2125 0866 03       		.byte	0x3
 2126 0867 00000000 		.4byte	es2
 2127 086b 12       		.uleb128 0x12
 2128 086c 73050000 		.4byte	0x573
 2129 0870 7B080000 		.4byte	0x87b
 2130 0874 13       		.uleb128 0x13
 2131 0875 2C000000 		.4byte	0x2c
 2132 0879 02       		.byte	0x2
 2133 087a 00       		.byte	0
 2134 087b 0C       		.uleb128 0xc
 2135 087c 6B080000 		.4byte	0x86b
 2136 0880 1D       		.uleb128 0x1d
 2137 0881 E6050000 		.4byte	.LASF116
 2138 0885 01       		.byte	0x1
 2139 0886 57       		.byte	0x57
 2140 0887 1D       		.byte	0x1d
 2141 0888 7B080000 		.4byte	0x87b
 2142 088c 05       		.uleb128 0x5
 2143 088d 03       		.byte	0x3
 2144 088e 00000000 		.4byte	evhndl
 2145 0892 1E       		.uleb128 0x1e
 2146 0893 DD050000 		.4byte	.LASF117
 2147 0897 01       		.byte	0x1
 2148 0898 6F       		.byte	0x6f
 2149 0899 1A       		.byte	0x1a
 2150 089a 5A070000 		.4byte	0x75a
 2151 089e 05       		.uleb128 0x5
 2152 089f 03       		.byte	0x3
 2153 08a0 00000000 		.4byte	testevt1
 2154 08a4 1E       		.uleb128 0x1e
ARM GAS  /var/folders/l5/0x54b2c10074c8bt31ycjvl80000gp/T//cc0aQrPq.s 			page 39


 2155 08a5 69010000 		.4byte	.LASF118
 2156 08a9 01       		.byte	0x1
 2157 08aa E4       		.byte	0xe4
 2158 08ab 1A       		.byte	0x1a
 2159 08ac 5A070000 		.4byte	0x75a
 2160 08b0 05       		.uleb128 0x5
 2161 08b1 03       		.byte	0x3
 2162 08b2 00000000 		.4byte	testevt2
 2163 08b6 1F       		.uleb128 0x1f
 2164 08b7 7F010000 		.4byte	.LASF119
 2165 08bb 01       		.byte	0x1
 2166 08bc 1401     		.2byte	0x114
 2167 08be 1A       		.byte	0x1a
 2168 08bf 5A070000 		.4byte	0x75a
 2169 08c3 05       		.uleb128 0x5
 2170 08c4 03       		.byte	0x3
 2171 08c5 00000000 		.4byte	testevt3
 2172 08c9 12       		.uleb128 0x12
 2173 08ca E4080000 		.4byte	0x8e4
 2174 08ce D9080000 		.4byte	0x8d9
 2175 08d2 13       		.uleb128 0x13
 2176 08d3 2C000000 		.4byte	0x2c
 2177 08d7 03       		.byte	0x3
 2178 08d8 00       		.byte	0
 2179 08d9 0C       		.uleb128 0xc
 2180 08da C9080000 		.4byte	0x8c9
 2181 08de 0A       		.uleb128 0xa
 2182 08df 04       		.byte	0x4
 2183 08e0 5A070000 		.4byte	0x75a
 2184 08e4 0C       		.uleb128 0xc
 2185 08e5 DE080000 		.4byte	0x8de
 2186 08e9 1F       		.uleb128 0x1f
 2187 08ea 63020000 		.4byte	.LASF120
 2188 08ee 01       		.byte	0x1
 2189 08ef 1F01     		.2byte	0x11f
 2190 08f1 25       		.byte	0x25
 2191 08f2 D9080000 		.4byte	0x8d9
 2192 08f6 05       		.uleb128 0x5
 2193 08f7 03       		.byte	0x3
 2194 08f8 00000000 		.4byte	patternevt
 2195 08fc 20       		.uleb128 0x20
 2196 08fd 2B050000 		.4byte	.LASF121
 2197 0901 01       		.byte	0x1
 2198 0902 0001     		.2byte	0x100
 2199 0904 0D       		.byte	0xd
 2200 0905 01       		.byte	0x1
 2201 0906 16090000 		.4byte	0x916
 2202 090a 21       		.uleb128 0x21
 2203 090b 6D00     		.ascii	"m\000"
 2204 090d 01       		.byte	0x1
 2205 090e 0101     		.2byte	0x101
 2206 0910 0F       		.byte	0xf
 2207 0911 1F010000 		.4byte	0x11f
 2208 0915 00       		.byte	0
 2209 0916 22       		.uleb128 0x22
 2210 0917 23040000 		.4byte	.LASF126
 2211 091b 01       		.byte	0x1
ARM GAS  /var/folders/l5/0x54b2c10074c8bt31ycjvl80000gp/T//cc0aQrPq.s 			page 40


 2212 091c FB       		.byte	0xfb
 2213 091d 0D       		.byte	0xd
 2214 091e 23       		.uleb128 0x23
 2215 091f 5C040000 		.4byte	.LASF122
 2216 0923 01       		.byte	0x1
 2217 0924 99       		.byte	0x99
 2218 0925 0D       		.byte	0xd
 2219 0926 01       		.byte	0x1
 2220 0927 5A090000 		.4byte	0x95a
 2221 092b 24       		.uleb128 0x24
 2222 092c 6D00     		.ascii	"m\000"
 2223 092e 01       		.byte	0x1
 2224 092f 9A       		.byte	0x9a
 2225 0930 0F       		.byte	0xf
 2226 0931 1F010000 		.4byte	0x11f
 2227 0935 24       		.uleb128 0x24
 2228 0936 656C3100 		.ascii	"el1\000"
 2229 093a 01       		.byte	0x1
 2230 093b 9B       		.byte	0x9b
 2231 093c 11       		.byte	0x11
 2232 093d EC040000 		.4byte	0x4ec
 2233 0941 24       		.uleb128 0x24
 2234 0942 656C3200 		.ascii	"el2\000"
 2235 0946 01       		.byte	0x1
 2236 0947 9B       		.byte	0x9b
 2237 0948 16       		.byte	0x16
 2238 0949 EC040000 		.4byte	0x4ec
 2239 094d 25       		.uleb128 0x25
 2240 094e 3B010000 		.4byte	.LASF123
 2241 0952 01       		.byte	0x1
 2242 0953 9C       		.byte	0x9c
 2243 0954 0D       		.byte	0xd
 2244 0955 37010000 		.4byte	0x137
 2245 0959 00       		.byte	0
 2246 095a 26       		.uleb128 0x26
 2247 095b 34060000 		.4byte	.LASF124
 2248 095f 01       		.byte	0x1
 2249 0960 90       		.byte	0x90
 2250 0961 0E       		.byte	0xe
 2251 0962 07010000 		.4byte	0x107
 2252 0966 00000000 		.4byte	.LFB14
 2253 096a 34000000 		.4byte	.LFE14-.LFB14
 2254 096e 01       		.uleb128 0x1
 2255 096f 9C       		.byte	0x9c
 2256 0970 CF090000 		.4byte	0x9cf
 2257 0974 27       		.uleb128 0x27
 2258 0975 7000     		.ascii	"p\000"
 2259 0977 01       		.byte	0x1
 2260 0978 90       		.byte	0x90
 2261 0979 1C       		.byte	0x1c
 2262 097a BD020000 		.4byte	0x2bd
 2263 097e 04000000 		.4byte	.LLST3
 2264 0982 00000000 		.4byte	.LVUS3
 2265 0986 28       		.uleb128 0x28
 2266 0987 10000000 		.4byte	.LVL21
 2267 098b 3C110000 		.4byte	0x113c
 2268 098f A2090000 		.4byte	0x9a2
ARM GAS  /var/folders/l5/0x54b2c10074c8bt31ycjvl80000gp/T//cc0aQrPq.s 			page 41


 2269 0993 29       		.uleb128 0x29
 2270 0994 01       		.uleb128 0x1
 2271 0995 50       		.byte	0x50
 2272 0996 05       		.uleb128 0x5
 2273 0997 03       		.byte	0x3
 2274 0998 00000000 		.4byte	.LANCHOR0
 2275 099c 29       		.uleb128 0x29
 2276 099d 01       		.uleb128 0x1
 2277 099e 51       		.byte	0x51
 2278 099f 01       		.uleb128 0x1
 2279 09a0 30       		.byte	0x30
 2280 09a1 00       		.byte	0
 2281 09a2 28       		.uleb128 0x28
 2282 09a3 18000000 		.4byte	.LVL22
 2283 09a7 48110000 		.4byte	0x1148
 2284 09ab B6090000 		.4byte	0x9b6
 2285 09af 29       		.uleb128 0x29
 2286 09b0 01       		.uleb128 0x1
 2287 09b1 50       		.byte	0x50
 2288 09b2 02       		.uleb128 0x2
 2289 09b3 08       		.byte	0x8
 2290 09b4 32       		.byte	0x32
 2291 09b5 00       		.byte	0
 2292 09b6 2A       		.uleb128 0x2a
 2293 09b7 24000000 		.4byte	.LVL23
 2294 09bb 3C110000 		.4byte	0x113c
 2295 09bf 29       		.uleb128 0x29
 2296 09c0 01       		.uleb128 0x1
 2297 09c1 50       		.byte	0x50
 2298 09c2 05       		.uleb128 0x5
 2299 09c3 03       		.byte	0x3
 2300 09c4 00000000 		.4byte	.LANCHOR2
 2301 09c8 29       		.uleb128 0x29
 2302 09c9 01       		.uleb128 0x1
 2303 09ca 51       		.byte	0x51
 2304 09cb 01       		.uleb128 0x1
 2305 09cc 30       		.byte	0x30
 2306 09cd 00       		.byte	0
 2307 09ce 00       		.byte	0
 2308 09cf 26       		.uleb128 0x26
 2309 09d0 54040000 		.4byte	.LASF125
 2310 09d4 01       		.byte	0x1
 2311 09d5 89       		.byte	0x89
 2312 09d6 0E       		.byte	0xe
 2313 09d7 07010000 		.4byte	0x107
 2314 09db 00000000 		.4byte	.LFB13
 2315 09df 24000000 		.4byte	.LFE13-.LFB13
 2316 09e3 01       		.uleb128 0x1
 2317 09e4 9C       		.byte	0x9c
 2318 09e5 250A0000 		.4byte	0xa25
 2319 09e9 27       		.uleb128 0x27
 2320 09ea 7000     		.ascii	"p\000"
 2321 09ec 01       		.byte	0x1
 2322 09ed 89       		.byte	0x89
 2323 09ee 1C       		.byte	0x1c
 2324 09ef BD020000 		.4byte	0x2bd
 2325 09f3 29000000 		.4byte	.LLST4
ARM GAS  /var/folders/l5/0x54b2c10074c8bt31ycjvl80000gp/T//cc0aQrPq.s 			page 42


 2326 09f7 25000000 		.4byte	.LVUS4
 2327 09fb 28       		.uleb128 0x28
 2328 09fc 10000000 		.4byte	.LVL26
 2329 0a00 48110000 		.4byte	0x1148
 2330 0a04 0F0A0000 		.4byte	0xa0f
 2331 0a08 29       		.uleb128 0x29
 2332 0a09 01       		.uleb128 0x1
 2333 0a0a 50       		.byte	0x50
 2334 0a0b 02       		.uleb128 0x2
 2335 0a0c 08       		.byte	0x8
 2336 0a0d 32       		.byte	0x32
 2337 0a0e 00       		.byte	0
 2338 0a0f 2A       		.uleb128 0x2a
 2339 0a10 1C000000 		.4byte	.LVL27
 2340 0a14 55110000 		.4byte	0x1155
 2341 0a18 29       		.uleb128 0x29
 2342 0a19 01       		.uleb128 0x1
 2343 0a1a 50       		.byte	0x50
 2344 0a1b 02       		.uleb128 0x2
 2345 0a1c 74       		.byte	0x74
 2346 0a1d 00       		.sleb128 0
 2347 0a1e 29       		.uleb128 0x29
 2348 0a1f 01       		.uleb128 0x1
 2349 0a20 51       		.byte	0x51
 2350 0a21 01       		.uleb128 0x1
 2351 0a22 31       		.byte	0x31
 2352 0a23 00       		.byte	0
 2353 0a24 00       		.byte	0
 2354 0a25 22       		.uleb128 0x22
 2355 0a26 C7040000 		.4byte	.LASF127
 2356 0a2a 01       		.byte	0x1
 2357 0a2b 84       		.byte	0x84
 2358 0a2c 0D       		.byte	0xd
 2359 0a2d 2B       		.uleb128 0x2b
 2360 0a2e 79070000 		.4byte	.LASF128
 2361 0a32 01       		.byte	0x1
 2362 0a33 59       		.byte	0x59
 2363 0a34 0D       		.byte	0xd
 2364 0a35 00000000 		.4byte	.LFB11
 2365 0a39 D0000000 		.4byte	.LFE11-.LFB11
 2366 0a3d 01       		.uleb128 0x1
 2367 0a3e 9C       		.byte	0x9c
 2368 0a3f 410B0000 		.4byte	0xb41
 2369 0a43 1C       		.uleb128 0x1c
 2370 0a44 656C3100 		.ascii	"el1\000"
 2371 0a48 01       		.byte	0x1
 2372 0a49 5A       		.byte	0x5a
 2373 0a4a 11       		.byte	0x11
 2374 0a4b EC040000 		.4byte	0x4ec
 2375 0a4f 02       		.uleb128 0x2
 2376 0a50 91       		.byte	0x91
 2377 0a51 58       		.sleb128 -40
 2378 0a52 1C       		.uleb128 0x1c
 2379 0a53 656C3200 		.ascii	"el2\000"
 2380 0a57 01       		.byte	0x1
 2381 0a58 5A       		.byte	0x5a
 2382 0a59 16       		.byte	0x16
ARM GAS  /var/folders/l5/0x54b2c10074c8bt31ycjvl80000gp/T//cc0aQrPq.s 			page 43


 2383 0a5a EC040000 		.4byte	0x4ec
 2384 0a5e 02       		.uleb128 0x2
 2385 0a5f 91       		.byte	0x91
 2386 0a60 68       		.sleb128 -24
 2387 0a61 28       		.uleb128 0x28
 2388 0a62 20000000 		.4byte	.LVL0
 2389 0a66 61110000 		.4byte	0x1161
 2390 0a6a 800A0000 		.4byte	0xa80
 2391 0a6e 29       		.uleb128 0x29
 2392 0a6f 01       		.uleb128 0x1
 2393 0a70 50       		.byte	0x50
 2394 0a71 02       		.uleb128 0x2
 2395 0a72 74       		.byte	0x74
 2396 0a73 00       		.sleb128 0
 2397 0a74 29       		.uleb128 0x29
 2398 0a75 01       		.uleb128 0x1
 2399 0a76 51       		.byte	0x51
 2400 0a77 02       		.uleb128 0x2
 2401 0a78 7D       		.byte	0x7d
 2402 0a79 00       		.sleb128 0
 2403 0a7a 29       		.uleb128 0x29
 2404 0a7b 01       		.uleb128 0x1
 2405 0a7c 52       		.byte	0x52
 2406 0a7d 01       		.uleb128 0x1
 2407 0a7e 31       		.byte	0x31
 2408 0a7f 00       		.byte	0
 2409 0a80 28       		.uleb128 0x28
 2410 0a81 30000000 		.4byte	.LVL1
 2411 0a85 61110000 		.4byte	0x1161
 2412 0a89 9F0A0000 		.4byte	0xa9f
 2413 0a8d 29       		.uleb128 0x29
 2414 0a8e 01       		.uleb128 0x1
 2415 0a8f 50       		.byte	0x50
 2416 0a90 02       		.uleb128 0x2
 2417 0a91 74       		.byte	0x74
 2418 0a92 00       		.sleb128 0
 2419 0a93 29       		.uleb128 0x29
 2420 0a94 01       		.uleb128 0x1
 2421 0a95 51       		.byte	0x51
 2422 0a96 02       		.uleb128 0x2
 2423 0a97 91       		.byte	0x91
 2424 0a98 60       		.sleb128 -32
 2425 0a99 29       		.uleb128 0x29
 2426 0a9a 01       		.uleb128 0x1
 2427 0a9b 52       		.byte	0x52
 2428 0a9c 01       		.uleb128 0x1
 2429 0a9d 32       		.byte	0x32
 2430 0a9e 00       		.byte	0
 2431 0a9f 28       		.uleb128 0x28
 2432 0aa0 44000000 		.4byte	.LVL2
 2433 0aa4 6D110000 		.4byte	0x116d
 2434 0aa8 B20A0000 		.4byte	0xab2
 2435 0aac 29       		.uleb128 0x29
 2436 0aad 01       		.uleb128 0x1
 2437 0aae 50       		.byte	0x50
 2438 0aaf 01       		.uleb128 0x1
 2439 0ab0 31       		.byte	0x31
ARM GAS  /var/folders/l5/0x54b2c10074c8bt31ycjvl80000gp/T//cc0aQrPq.s 			page 44


 2440 0ab1 00       		.byte	0
 2441 0ab2 28       		.uleb128 0x28
 2442 0ab3 60000000 		.4byte	.LVL3
 2443 0ab7 79110000 		.4byte	0x1179
 2444 0abb CC0A0000 		.4byte	0xacc
 2445 0abf 29       		.uleb128 0x29
 2446 0ac0 01       		.uleb128 0x1
 2447 0ac1 50       		.byte	0x50
 2448 0ac2 02       		.uleb128 0x2
 2449 0ac3 74       		.byte	0x74
 2450 0ac4 00       		.sleb128 0
 2451 0ac5 29       		.uleb128 0x29
 2452 0ac6 01       		.uleb128 0x1
 2453 0ac7 51       		.byte	0x51
 2454 0ac8 02       		.uleb128 0x2
 2455 0ac9 7D       		.byte	0x7d
 2456 0aca 00       		.sleb128 0
 2457 0acb 00       		.byte	0
 2458 0acc 28       		.uleb128 0x28
 2459 0acd 74000000 		.4byte	.LVL4
 2460 0ad1 6D110000 		.4byte	0x116d
 2461 0ad5 DF0A0000 		.4byte	0xadf
 2462 0ad9 29       		.uleb128 0x29
 2463 0ada 01       		.uleb128 0x1
 2464 0adb 50       		.byte	0x50
 2465 0adc 01       		.uleb128 0x1
 2466 0add 32       		.byte	0x32
 2467 0ade 00       		.byte	0
 2468 0adf 28       		.uleb128 0x28
 2469 0ae0 88000000 		.4byte	.LVL5
 2470 0ae4 79110000 		.4byte	0x1179
 2471 0ae8 F90A0000 		.4byte	0xaf9
 2472 0aec 29       		.uleb128 0x29
 2473 0aed 01       		.uleb128 0x1
 2474 0aee 50       		.byte	0x50
 2475 0aef 02       		.uleb128 0x2
 2476 0af0 74       		.byte	0x74
 2477 0af1 00       		.sleb128 0
 2478 0af2 29       		.uleb128 0x29
 2479 0af3 01       		.uleb128 0x1
 2480 0af4 51       		.byte	0x51
 2481 0af5 02       		.uleb128 0x2
 2482 0af6 91       		.byte	0x91
 2483 0af7 60       		.sleb128 -32
 2484 0af8 00       		.byte	0
 2485 0af9 28       		.uleb128 0x28
 2486 0afa A0000000 		.4byte	.LVL6
 2487 0afe 6D110000 		.4byte	0x116d
 2488 0b02 0C0B0000 		.4byte	0xb0c
 2489 0b06 29       		.uleb128 0x29
 2490 0b07 01       		.uleb128 0x1
 2491 0b08 50       		.byte	0x50
 2492 0b09 01       		.uleb128 0x1
 2493 0b0a 33       		.byte	0x33
 2494 0b0b 00       		.byte	0
 2495 0b0c 28       		.uleb128 0x28
 2496 0b0d B4000000 		.4byte	.LVL7
ARM GAS  /var/folders/l5/0x54b2c10074c8bt31ycjvl80000gp/T//cc0aQrPq.s 			page 45


 2497 0b11 85110000 		.4byte	0x1185
 2498 0b15 280B0000 		.4byte	0xb28
 2499 0b19 29       		.uleb128 0x29
 2500 0b1a 01       		.uleb128 0x1
 2501 0b1b 50       		.byte	0x50
 2502 0b1c 05       		.uleb128 0x5
 2503 0b1d 03       		.byte	0x3
 2504 0b1e 00000000 		.4byte	.LANCHOR1
 2505 0b22 29       		.uleb128 0x29
 2506 0b23 01       		.uleb128 0x1
 2507 0b24 51       		.byte	0x51
 2508 0b25 01       		.uleb128 0x1
 2509 0b26 37       		.byte	0x37
 2510 0b27 00       		.byte	0
 2511 0b28 2A       		.uleb128 0x2a
 2512 0b29 C0000000 		.4byte	.LVL8
 2513 0b2d 91110000 		.4byte	0x1191
 2514 0b31 29       		.uleb128 0x29
 2515 0b32 01       		.uleb128 0x1
 2516 0b33 50       		.byte	0x50
 2517 0b34 01       		.uleb128 0x1
 2518 0b35 34       		.byte	0x34
 2519 0b36 29       		.uleb128 0x29
 2520 0b37 01       		.uleb128 0x1
 2521 0b38 51       		.byte	0x51
 2522 0b39 05       		.uleb128 0x5
 2523 0b3a 03       		.byte	0x3
 2524 0b3b 00000000 		.4byte	.LC0
 2525 0b3f 00       		.byte	0
 2526 0b40 00       		.byte	0
 2527 0b41 2C       		.uleb128 0x2c
 2528 0b42 683300   		.ascii	"h3\000"
 2529 0b45 01       		.byte	0x1
 2530 0b46 56       		.byte	0x56
 2531 0b47 0D       		.byte	0xd
 2532 0b48 00000000 		.4byte	.LFB10
 2533 0b4c 08000000 		.4byte	.LFE10-.LFB10
 2534 0b50 01       		.uleb128 0x1
 2535 0b51 9C       		.byte	0x9c
 2536 0b52 7A0B0000 		.4byte	0xb7a
 2537 0b56 27       		.uleb128 0x27
 2538 0b57 696400   		.ascii	"id\000"
 2539 0b5a 01       		.byte	0x1
 2540 0b5b 56       		.byte	0x56
 2541 0b5c 1A       		.byte	0x1a
 2542 0b5d 13010000 		.4byte	0x113
 2543 0b61 4B000000 		.4byte	.LLST0
 2544 0b65 47000000 		.4byte	.LVUS0
 2545 0b69 2D       		.uleb128 0x2d
 2546 0b6a 08000000 		.4byte	.LVL11
 2547 0b6e 9D110000 		.4byte	0x119d
 2548 0b72 29       		.uleb128 0x29
 2549 0b73 01       		.uleb128 0x1
 2550 0b74 50       		.byte	0x50
 2551 0b75 02       		.uleb128 0x2
 2552 0b76 08       		.byte	0x8
 2553 0b77 43       		.byte	0x43
ARM GAS  /var/folders/l5/0x54b2c10074c8bt31ycjvl80000gp/T//cc0aQrPq.s 			page 46


 2554 0b78 00       		.byte	0
 2555 0b79 00       		.byte	0
 2556 0b7a 2C       		.uleb128 0x2c
 2557 0b7b 683200   		.ascii	"h2\000"
 2558 0b7e 01       		.byte	0x1
 2559 0b7f 55       		.byte	0x55
 2560 0b80 0D       		.byte	0xd
 2561 0b81 00000000 		.4byte	.LFB9
 2562 0b85 08000000 		.4byte	.LFE9-.LFB9
 2563 0b89 01       		.uleb128 0x1
 2564 0b8a 9C       		.byte	0x9c
 2565 0b8b B30B0000 		.4byte	0xbb3
 2566 0b8f 27       		.uleb128 0x27
 2567 0b90 696400   		.ascii	"id\000"
 2568 0b93 01       		.byte	0x1
 2569 0b94 55       		.byte	0x55
 2570 0b95 1A       		.byte	0x1a
 2571 0b96 13010000 		.4byte	0x113
 2572 0b9a 70000000 		.4byte	.LLST1
 2573 0b9e 6C000000 		.4byte	.LVUS1
 2574 0ba2 2D       		.uleb128 0x2d
 2575 0ba3 08000000 		.4byte	.LVL14
 2576 0ba7 9D110000 		.4byte	0x119d
 2577 0bab 29       		.uleb128 0x29
 2578 0bac 01       		.uleb128 0x1
 2579 0bad 50       		.byte	0x50
 2580 0bae 02       		.uleb128 0x2
 2581 0baf 08       		.byte	0x8
 2582 0bb0 42       		.byte	0x42
 2583 0bb1 00       		.byte	0
 2584 0bb2 00       		.byte	0
 2585 0bb3 2C       		.uleb128 0x2c
 2586 0bb4 683100   		.ascii	"h1\000"
 2587 0bb7 01       		.byte	0x1
 2588 0bb8 54       		.byte	0x54
 2589 0bb9 0D       		.byte	0xd
 2590 0bba 00000000 		.4byte	.LFB8
 2591 0bbe 08000000 		.4byte	.LFE8-.LFB8
 2592 0bc2 01       		.uleb128 0x1
 2593 0bc3 9C       		.byte	0x9c
 2594 0bc4 EC0B0000 		.4byte	0xbec
 2595 0bc8 27       		.uleb128 0x27
 2596 0bc9 696400   		.ascii	"id\000"
 2597 0bcc 01       		.byte	0x1
 2598 0bcd 54       		.byte	0x54
 2599 0bce 1A       		.byte	0x1a
 2600 0bcf 13010000 		.4byte	0x113
 2601 0bd3 95000000 		.4byte	.LLST2
 2602 0bd7 91000000 		.4byte	.LVUS2
 2603 0bdb 2D       		.uleb128 0x2d
 2604 0bdc 08000000 		.4byte	.LVL17
 2605 0be0 9D110000 		.4byte	0x119d
 2606 0be4 29       		.uleb128 0x29
 2607 0be5 01       		.uleb128 0x1
 2608 0be6 50       		.byte	0x50
 2609 0be7 02       		.uleb128 0x2
 2610 0be8 08       		.byte	0x8
ARM GAS  /var/folders/l5/0x54b2c10074c8bt31ycjvl80000gp/T//cc0aQrPq.s 			page 47


 2611 0be9 41       		.byte	0x41
 2612 0bea 00       		.byte	0
 2613 0beb 00       		.byte	0
 2614 0bec 2B       		.uleb128 0x2b
 2615 0bed F6030000 		.4byte	.LASF129
 2616 0bf1 01       		.byte	0x1
 2617 0bf2 4F       		.byte	0x4f
 2618 0bf3 0D       		.byte	0xd
 2619 0bf4 00000000 		.4byte	.LFB7
 2620 0bf8 08000000 		.4byte	.LFE7-.LFB7
 2621 0bfc 01       		.uleb128 0x1
 2622 0bfd 9C       		.byte	0x9c
 2623 0bfe 130C0000 		.4byte	0xc13
 2624 0c02 2D       		.uleb128 0x2d
 2625 0c03 08000000 		.4byte	.LVL18
 2626 0c07 A9110000 		.4byte	0x11a9
 2627 0c0b 29       		.uleb128 0x29
 2628 0c0c 01       		.uleb128 0x1
 2629 0c0d 50       		.byte	0x50
 2630 0c0e 02       		.uleb128 0x2
 2631 0c0f 09       		.byte	0x9
 2632 0c10 FF       		.byte	0xff
 2633 0c11 00       		.byte	0
 2634 0c12 00       		.byte	0
 2635 0c13 2E       		.uleb128 0x2e
 2636 0c14 1E090000 		.4byte	0x91e
 2637 0c18 00000000 		.4byte	.LFB15
 2638 0c1c 1C030000 		.4byte	.LFE15-.LFB15
 2639 0c20 01       		.uleb128 0x1
 2640 0c21 9C       		.byte	0x9c
 2641 0c22 FB0F0000 		.4byte	0xffb
 2642 0c26 2F       		.uleb128 0x2f
 2643 0c27 2B090000 		.4byte	0x92b
 2644 0c2b BC000000 		.4byte	.LLST5
 2645 0c2f B6000000 		.4byte	.LVUS5
 2646 0c33 30       		.uleb128 0x30
 2647 0c34 35090000 		.4byte	0x935
 2648 0c38 30       		.uleb128 0x30
 2649 0c39 41090000 		.4byte	0x941
 2650 0c3d 30       		.uleb128 0x30
 2651 0c3e 4D090000 		.4byte	0x94d
 2652 0c42 31       		.uleb128 0x31
 2653 0c43 1E090000 		.4byte	0x91e
 2654 0c47 80000000 		.4byte	.LBI4
 2655 0c4b 00       		.byte	.LVU79
 2656 0c4c 80000000 		.4byte	.LBB4
 2657 0c50 9C020000 		.4byte	.LBE4-.LBB4
 2658 0c54 01       		.byte	0x1
 2659 0c55 99       		.byte	0x99
 2660 0c56 0D       		.byte	0xd
 2661 0c57 760F0000 		.4byte	0xf76
 2662 0c5b 32       		.uleb128 0x32
 2663 0c5c 80000000 		.4byte	.LBB5
 2664 0c60 9C020000 		.4byte	.LBE5-.LBB5
 2665 0c64 2F       		.uleb128 0x2f
 2666 0c65 2B090000 		.4byte	0x92b
 2667 0c69 F7000000 		.4byte	.LLST6
ARM GAS  /var/folders/l5/0x54b2c10074c8bt31ycjvl80000gp/T//cc0aQrPq.s 			page 48


 2668 0c6d E5000000 		.4byte	.LVUS6
 2669 0c71 33       		.uleb128 0x33
 2670 0c72 35090000 		.4byte	0x935
 2671 0c76 02       		.uleb128 0x2
 2672 0c77 91       		.byte	0x91
 2673 0c78 40       		.sleb128 -64
 2674 0c79 33       		.uleb128 0x33
 2675 0c7a 41090000 		.4byte	0x941
 2676 0c7e 02       		.uleb128 0x2
 2677 0c7f 91       		.byte	0x91
 2678 0c80 50       		.sleb128 -48
 2679 0c81 2F       		.uleb128 0x2f
 2680 0c82 4D090000 		.4byte	0x94d
 2681 0c86 72010000 		.4byte	.LLST7
 2682 0c8a 62010000 		.4byte	.LVUS7
 2683 0c8e 34       		.uleb128 0x34
 2684 0c8f 88000000 		.4byte	.LVL38
 2685 0c93 B5110000 		.4byte	0x11b5
 2686 0c97 28       		.uleb128 0x28
 2687 0c98 B8000000 		.4byte	.LVL40
 2688 0c9c C1110000 		.4byte	0x11c1
 2689 0ca0 BB0C0000 		.4byte	0xcbb
 2690 0ca4 29       		.uleb128 0x29
 2691 0ca5 01       		.uleb128 0x1
 2692 0ca6 50       		.byte	0x50
 2693 0ca7 02       		.uleb128 0x2
 2694 0ca8 77       		.byte	0x77
 2695 0ca9 00       		.sleb128 0
 2696 0caa 29       		.uleb128 0x29
 2697 0cab 01       		.uleb128 0x1
 2698 0cac 51       		.byte	0x51
 2699 0cad 03       		.uleb128 0x3
 2700 0cae 0A       		.byte	0xa
 2701 0caf 1801     		.2byte	0x118
 2702 0cb1 29       		.uleb128 0x29
 2703 0cb2 01       		.uleb128 0x1
 2704 0cb3 53       		.byte	0x53
 2705 0cb4 05       		.uleb128 0x5
 2706 0cb5 03       		.byte	0x3
 2707 0cb6 00000000 		.4byte	thread1
 2708 0cba 00       		.byte	0
 2709 0cbb 28       		.uleb128 0x28
 2710 0cbc C8000000 		.4byte	.LVL41
 2711 0cc0 CE110000 		.4byte	0x11ce
 2712 0cc4 CF0C0000 		.4byte	0xccf
 2713 0cc8 29       		.uleb128 0x29
 2714 0cc9 01       		.uleb128 0x1
 2715 0cca 50       		.byte	0x50
 2716 0ccb 02       		.uleb128 0x2
 2717 0ccc 09       		.byte	0x9
 2718 0ccd FF       		.byte	0xff
 2719 0cce 00       		.byte	0
 2720 0ccf 28       		.uleb128 0x28
 2721 0cd0 DC000000 		.4byte	.LVL45
 2722 0cd4 DA110000 		.4byte	0x11da
 2723 0cd8 EE0C0000 		.4byte	0xcee
 2724 0cdc 29       		.uleb128 0x29
ARM GAS  /var/folders/l5/0x54b2c10074c8bt31ycjvl80000gp/T//cc0aQrPq.s 			page 49


 2725 0cdd 01       		.uleb128 0x1
 2726 0cde 50       		.byte	0x50
 2727 0cdf 01       		.uleb128 0x1
 2728 0ce0 34       		.byte	0x34
 2729 0ce1 29       		.uleb128 0x29
 2730 0ce2 01       		.uleb128 0x1
 2731 0ce3 51       		.byte	0x51
 2732 0ce4 02       		.uleb128 0x2
 2733 0ce5 74       		.byte	0x74
 2734 0ce6 32       		.sleb128 50
 2735 0ce7 29       		.uleb128 0x29
 2736 0ce8 01       		.uleb128 0x1
 2737 0ce9 52       		.byte	0x52
 2738 0cea 02       		.uleb128 0x2
 2739 0ceb 74       		.byte	0x74
 2740 0cec 37       		.sleb128 55
 2741 0ced 00       		.byte	0
 2742 0cee 28       		.uleb128 0x28
 2743 0cef F8000000 		.4byte	.LVL46
 2744 0cf3 6D110000 		.4byte	0x116d
 2745 0cf7 090D0000 		.4byte	0xd09
 2746 0cfb 29       		.uleb128 0x29
 2747 0cfc 01       		.uleb128 0x1
 2748 0cfd 50       		.byte	0x50
 2749 0cfe 01       		.uleb128 0x1
 2750 0cff 35       		.byte	0x35
 2751 0d00 29       		.uleb128 0x29
 2752 0d01 01       		.uleb128 0x1
 2753 0d02 51       		.byte	0x51
 2754 0d03 04       		.uleb128 0x4
 2755 0d04 79       		.byte	0x79
 2756 0d05 00       		.sleb128 0
 2757 0d06 31       		.byte	0x31
 2758 0d07 29       		.byte	0x29
 2759 0d08 00       		.byte	0
 2760 0d09 28       		.uleb128 0x28
 2761 0d0a 08010000 		.4byte	.LVL47
 2762 0d0e A9110000 		.4byte	0x11a9
 2763 0d12 1D0D0000 		.4byte	0xd1d
 2764 0d16 29       		.uleb128 0x29
 2765 0d17 01       		.uleb128 0x1
 2766 0d18 50       		.byte	0x50
 2767 0d19 02       		.uleb128 0x2
 2768 0d1a 09       		.byte	0x9
 2769 0d1b FF       		.byte	0xff
 2770 0d1c 00       		.byte	0
 2771 0d1d 28       		.uleb128 0x28
 2772 0d1e 18010000 		.4byte	.LVL49
 2773 0d22 6D110000 		.4byte	0x116d
 2774 0d26 300D0000 		.4byte	0xd30
 2775 0d2a 29       		.uleb128 0x29
 2776 0d2b 01       		.uleb128 0x1
 2777 0d2c 50       		.byte	0x50
 2778 0d2d 01       		.uleb128 0x1
 2779 0d2e 36       		.byte	0x36
 2780 0d2f 00       		.byte	0
 2781 0d30 34       		.uleb128 0x34
ARM GAS  /var/folders/l5/0x54b2c10074c8bt31ycjvl80000gp/T//cc0aQrPq.s 			page 50


 2782 0d31 24010000 		.4byte	.LVL50
 2783 0d35 E6110000 		.4byte	0x11e6
 2784 0d39 28       		.uleb128 0x28
 2785 0d3a 2C010000 		.4byte	.LVL51
 2786 0d3e F2110000 		.4byte	0x11f2
 2787 0d42 4C0D0000 		.4byte	0xd4c
 2788 0d46 29       		.uleb128 0x29
 2789 0d47 01       		.uleb128 0x1
 2790 0d48 50       		.byte	0x50
 2791 0d49 01       		.uleb128 0x1
 2792 0d4a 35       		.byte	0x35
 2793 0d4b 00       		.byte	0
 2794 0d4c 28       		.uleb128 0x28
 2795 0d4d 34010000 		.4byte	.LVL52
 2796 0d51 FE110000 		.4byte	0x11fe
 2797 0d55 600D0000 		.4byte	0xd60
 2798 0d59 29       		.uleb128 0x29
 2799 0d5a 01       		.uleb128 0x1
 2800 0d5b 50       		.byte	0x50
 2801 0d5c 02       		.uleb128 0x2
 2802 0d5d 09       		.byte	0x9
 2803 0d5e FF       		.byte	0xff
 2804 0d5f 00       		.byte	0
 2805 0d60 28       		.uleb128 0x28
 2806 0d61 48010000 		.4byte	.LVL54
 2807 0d65 6D110000 		.4byte	0x116d
 2808 0d69 730D0000 		.4byte	0xd73
 2809 0d6d 29       		.uleb128 0x29
 2810 0d6e 01       		.uleb128 0x1
 2811 0d6f 50       		.byte	0x50
 2812 0d70 01       		.uleb128 0x1
 2813 0d71 37       		.byte	0x37
 2814 0d72 00       		.byte	0
 2815 0d73 28       		.uleb128 0x28
 2816 0d74 58010000 		.4byte	.LVL55
 2817 0d78 A9110000 		.4byte	0x11a9
 2818 0d7c 870D0000 		.4byte	0xd87
 2819 0d80 29       		.uleb128 0x29
 2820 0d81 01       		.uleb128 0x1
 2821 0d82 50       		.byte	0x50
 2822 0d83 02       		.uleb128 0x2
 2823 0d84 09       		.byte	0x9
 2824 0d85 FF       		.byte	0xff
 2825 0d86 00       		.byte	0
 2826 0d87 28       		.uleb128 0x28
 2827 0d88 68010000 		.4byte	.LVL57
 2828 0d8c 6D110000 		.4byte	0x116d
 2829 0d90 9A0D0000 		.4byte	0xd9a
 2830 0d94 29       		.uleb128 0x29
 2831 0d95 01       		.uleb128 0x1
 2832 0d96 50       		.byte	0x50
 2833 0d97 01       		.uleb128 0x1
 2834 0d98 38       		.byte	0x38
 2835 0d99 00       		.byte	0
 2836 0d9a 34       		.uleb128 0x34
 2837 0d9b 74010000 		.4byte	.LVL58
 2838 0d9f B5110000 		.4byte	0x11b5
ARM GAS  /var/folders/l5/0x54b2c10074c8bt31ycjvl80000gp/T//cc0aQrPq.s 			page 51


 2839 0da3 28       		.uleb128 0x28
 2840 0da4 98010000 		.4byte	.LVL60
 2841 0da8 C1110000 		.4byte	0x11c1
 2842 0dac C70D0000 		.4byte	0xdc7
 2843 0db0 29       		.uleb128 0x29
 2844 0db1 01       		.uleb128 0x1
 2845 0db2 50       		.byte	0x50
 2846 0db3 02       		.uleb128 0x2
 2847 0db4 77       		.byte	0x77
 2848 0db5 00       		.sleb128 0
 2849 0db6 29       		.uleb128 0x29
 2850 0db7 01       		.uleb128 0x1
 2851 0db8 51       		.byte	0x51
 2852 0db9 03       		.uleb128 0x3
 2853 0dba 0A       		.byte	0xa
 2854 0dbb 1801     		.2byte	0x118
 2855 0dbd 29       		.uleb128 0x29
 2856 0dbe 01       		.uleb128 0x1
 2857 0dbf 53       		.byte	0x53
 2858 0dc0 05       		.uleb128 0x5
 2859 0dc1 03       		.byte	0x3
 2860 0dc2 00000000 		.4byte	thread1
 2861 0dc6 00       		.byte	0
 2862 0dc7 28       		.uleb128 0x28
 2863 0dc8 A4010000 		.4byte	.LVL61
 2864 0dcc FE110000 		.4byte	0x11fe
 2865 0dd0 DB0D0000 		.4byte	0xddb
 2866 0dd4 29       		.uleb128 0x29
 2867 0dd5 01       		.uleb128 0x1
 2868 0dd6 50       		.byte	0x50
 2869 0dd7 02       		.uleb128 0x2
 2870 0dd8 09       		.byte	0x9
 2871 0dd9 FF       		.byte	0xff
 2872 0dda 00       		.byte	0
 2873 0ddb 28       		.uleb128 0x28
 2874 0ddc B8010000 		.4byte	.LVL65
 2875 0de0 DA110000 		.4byte	0x11da
 2876 0de4 FA0D0000 		.4byte	0xdfa
 2877 0de8 29       		.uleb128 0x29
 2878 0de9 01       		.uleb128 0x1
 2879 0dea 50       		.byte	0x50
 2880 0deb 01       		.uleb128 0x1
 2881 0dec 39       		.byte	0x39
 2882 0ded 29       		.uleb128 0x29
 2883 0dee 01       		.uleb128 0x1
 2884 0def 51       		.byte	0x51
 2885 0df0 02       		.uleb128 0x2
 2886 0df1 74       		.byte	0x74
 2887 0df2 32       		.sleb128 50
 2888 0df3 29       		.uleb128 0x29
 2889 0df4 01       		.uleb128 0x1
 2890 0df5 52       		.byte	0x52
 2891 0df6 02       		.uleb128 0x2
 2892 0df7 74       		.byte	0x74
 2893 0df8 37       		.sleb128 55
 2894 0df9 00       		.byte	0
 2895 0dfa 28       		.uleb128 0x28
ARM GAS  /var/folders/l5/0x54b2c10074c8bt31ycjvl80000gp/T//cc0aQrPq.s 			page 52


 2896 0dfb D4010000 		.4byte	.LVL66
 2897 0dff 6D110000 		.4byte	0x116d
 2898 0e03 150E0000 		.4byte	0xe15
 2899 0e07 29       		.uleb128 0x29
 2900 0e08 01       		.uleb128 0x1
 2901 0e09 50       		.byte	0x50
 2902 0e0a 01       		.uleb128 0x1
 2903 0e0b 3A       		.byte	0x3a
 2904 0e0c 29       		.uleb128 0x29
 2905 0e0d 01       		.uleb128 0x1
 2906 0e0e 51       		.byte	0x51
 2907 0e0f 04       		.uleb128 0x4
 2908 0e10 79       		.byte	0x79
 2909 0e11 00       		.sleb128 0
 2910 0e12 31       		.byte	0x31
 2911 0e13 29       		.byte	0x29
 2912 0e14 00       		.byte	0
 2913 0e15 28       		.uleb128 0x28
 2914 0e16 E4010000 		.4byte	.LVL67
 2915 0e1a A9110000 		.4byte	0x11a9
 2916 0e1e 290E0000 		.4byte	0xe29
 2917 0e22 29       		.uleb128 0x29
 2918 0e23 01       		.uleb128 0x1
 2919 0e24 50       		.byte	0x50
 2920 0e25 02       		.uleb128 0x2
 2921 0e26 09       		.byte	0x9
 2922 0e27 FF       		.byte	0xff
 2923 0e28 00       		.byte	0
 2924 0e29 28       		.uleb128 0x28
 2925 0e2a F4010000 		.4byte	.LVL69
 2926 0e2e 6D110000 		.4byte	0x116d
 2927 0e32 3C0E0000 		.4byte	0xe3c
 2928 0e36 29       		.uleb128 0x29
 2929 0e37 01       		.uleb128 0x1
 2930 0e38 50       		.byte	0x50
 2931 0e39 01       		.uleb128 0x1
 2932 0e3a 3B       		.byte	0x3b
 2933 0e3b 00       		.byte	0
 2934 0e3c 34       		.uleb128 0x34
 2935 0e3d 08020000 		.4byte	.LVL71
 2936 0e41 E6110000 		.4byte	0x11e6
 2937 0e45 28       		.uleb128 0x28
 2938 0e46 20020000 		.4byte	.LVL72
 2939 0e4a 61110000 		.4byte	0x1161
 2940 0e4e 650E0000 		.4byte	0xe65
 2941 0e52 29       		.uleb128 0x29
 2942 0e53 01       		.uleb128 0x1
 2943 0e54 50       		.byte	0x50
 2944 0e55 02       		.uleb128 0x2
 2945 0e56 79       		.byte	0x79
 2946 0e57 00       		.sleb128 0
 2947 0e58 29       		.uleb128 0x29
 2948 0e59 01       		.uleb128 0x1
 2949 0e5a 51       		.byte	0x51
 2950 0e5b 03       		.uleb128 0x3
 2951 0e5c 91       		.byte	0x91
 2952 0e5d B87F     		.sleb128 -72
ARM GAS  /var/folders/l5/0x54b2c10074c8bt31ycjvl80000gp/T//cc0aQrPq.s 			page 53


 2953 0e5f 29       		.uleb128 0x29
 2954 0e60 01       		.uleb128 0x1
 2955 0e61 52       		.byte	0x52
 2956 0e62 01       		.uleb128 0x1
 2957 0e63 31       		.byte	0x31
 2958 0e64 00       		.byte	0
 2959 0e65 28       		.uleb128 0x28
 2960 0e66 30020000 		.4byte	.LVL73
 2961 0e6a 61110000 		.4byte	0x1161
 2962 0e6e 840E0000 		.4byte	0xe84
 2963 0e72 29       		.uleb128 0x29
 2964 0e73 01       		.uleb128 0x1
 2965 0e74 50       		.byte	0x50
 2966 0e75 02       		.uleb128 0x2
 2967 0e76 74       		.byte	0x74
 2968 0e77 00       		.sleb128 0
 2969 0e78 29       		.uleb128 0x29
 2970 0e79 01       		.uleb128 0x1
 2971 0e7a 51       		.byte	0x51
 2972 0e7b 02       		.uleb128 0x2
 2973 0e7c 91       		.byte	0x91
 2974 0e7d 48       		.sleb128 -56
 2975 0e7e 29       		.uleb128 0x29
 2976 0e7f 01       		.uleb128 0x1
 2977 0e80 52       		.byte	0x52
 2978 0e81 01       		.uleb128 0x1
 2979 0e82 34       		.byte	0x34
 2980 0e83 00       		.byte	0
 2981 0e84 34       		.uleb128 0x34
 2982 0e85 34020000 		.4byte	.LVL74
 2983 0e89 B5110000 		.4byte	0x11b5
 2984 0e8d 28       		.uleb128 0x28
 2985 0e8e 5C020000 		.4byte	.LVL76
 2986 0e92 C1110000 		.4byte	0x11c1
 2987 0e96 BB0E0000 		.4byte	0xebb
 2988 0e9a 29       		.uleb128 0x29
 2989 0e9b 01       		.uleb128 0x1
 2990 0e9c 50       		.byte	0x50
 2991 0e9d 02       		.uleb128 0x2
 2992 0e9e 77       		.byte	0x77
 2993 0e9f 00       		.sleb128 0
 2994 0ea0 29       		.uleb128 0x29
 2995 0ea1 01       		.uleb128 0x1
 2996 0ea2 51       		.byte	0x51
 2997 0ea3 03       		.uleb128 0x3
 2998 0ea4 0A       		.byte	0xa
 2999 0ea5 1801     		.2byte	0x118
 3000 0ea7 29       		.uleb128 0x29
 3001 0ea8 01       		.uleb128 0x1
 3002 0ea9 53       		.byte	0x53
 3003 0eaa 05       		.uleb128 0x5
 3004 0eab 03       		.byte	0x3
 3005 0eac 00000000 		.4byte	thread2
 3006 0eb0 29       		.uleb128 0x29
 3007 0eb1 02       		.uleb128 0x2
 3008 0eb2 7D       		.byte	0x7d
 3009 0eb3 00       		.sleb128 0
ARM GAS  /var/folders/l5/0x54b2c10074c8bt31ycjvl80000gp/T//cc0aQrPq.s 			page 54


 3010 0eb4 05       		.uleb128 0x5
 3011 0eb5 03       		.byte	0x3
 3012 0eb6 00000000 		.4byte	.LC1
 3013 0eba 00       		.byte	0
 3014 0ebb 28       		.uleb128 0x28
 3015 0ebc 68020000 		.4byte	.LVL77
 3016 0ec0 0A120000 		.4byte	0x120a
 3017 0ec4 CE0E0000 		.4byte	0xece
 3018 0ec8 29       		.uleb128 0x29
 3019 0ec9 01       		.uleb128 0x1
 3020 0eca 50       		.byte	0x50
 3021 0ecb 01       		.uleb128 0x1
 3022 0ecc 35       		.byte	0x35
 3023 0ecd 00       		.byte	0
 3024 0ece 28       		.uleb128 0x28
 3025 0ecf 78020000 		.4byte	.LVL79
 3026 0ed3 DA110000 		.4byte	0x11da
 3027 0ed7 ED0E0000 		.4byte	0xeed
 3028 0edb 29       		.uleb128 0x29
 3029 0edc 01       		.uleb128 0x1
 3030 0edd 50       		.byte	0x50
 3031 0ede 01       		.uleb128 0x1
 3032 0edf 3C       		.byte	0x3c
 3033 0ee0 29       		.uleb128 0x29
 3034 0ee1 01       		.uleb128 0x1
 3035 0ee2 51       		.byte	0x51
 3036 0ee3 02       		.uleb128 0x2
 3037 0ee4 76       		.byte	0x76
 3038 0ee5 32       		.sleb128 50
 3039 0ee6 29       		.uleb128 0x29
 3040 0ee7 01       		.uleb128 0x1
 3041 0ee8 52       		.byte	0x52
 3042 0ee9 02       		.uleb128 0x2
 3043 0eea 76       		.byte	0x76
 3044 0eeb 37       		.sleb128 55
 3045 0eec 00       		.byte	0
 3046 0eed 28       		.uleb128 0x28
 3047 0eee 88020000 		.4byte	.LVL80
 3048 0ef2 A9110000 		.4byte	0x11a9
 3049 0ef6 010F0000 		.4byte	0xf01
 3050 0efa 29       		.uleb128 0x29
 3051 0efb 01       		.uleb128 0x1
 3052 0efc 50       		.byte	0x50
 3053 0efd 02       		.uleb128 0x2
 3054 0efe 09       		.byte	0x9
 3055 0eff FF       		.byte	0xff
 3056 0f00 00       		.byte	0
 3057 0f01 28       		.uleb128 0x28
 3058 0f02 98020000 		.4byte	.LVL82
 3059 0f06 6D110000 		.4byte	0x116d
 3060 0f0a 140F0000 		.4byte	0xf14
 3061 0f0e 29       		.uleb128 0x29
 3062 0f0f 01       		.uleb128 0x1
 3063 0f10 50       		.byte	0x50
 3064 0f11 01       		.uleb128 0x1
 3065 0f12 3D       		.byte	0x3d
 3066 0f13 00       		.byte	0
ARM GAS  /var/folders/l5/0x54b2c10074c8bt31ycjvl80000gp/T//cc0aQrPq.s 			page 55


 3067 0f14 34       		.uleb128 0x34
 3068 0f15 A4020000 		.4byte	.LVL83
 3069 0f19 E6110000 		.4byte	0x11e6
 3070 0f1d 28       		.uleb128 0x28
 3071 0f1e B0020000 		.4byte	.LVL84
 3072 0f22 79110000 		.4byte	0x1179
 3073 0f26 380F0000 		.4byte	0xf38
 3074 0f2a 29       		.uleb128 0x29
 3075 0f2b 01       		.uleb128 0x1
 3076 0f2c 50       		.byte	0x50
 3077 0f2d 02       		.uleb128 0x2
 3078 0f2e 79       		.byte	0x79
 3079 0f2f 00       		.sleb128 0
 3080 0f30 29       		.uleb128 0x29
 3081 0f31 01       		.uleb128 0x1
 3082 0f32 51       		.byte	0x51
 3083 0f33 03       		.uleb128 0x3
 3084 0f34 91       		.byte	0x91
 3085 0f35 B87F     		.sleb128 -72
 3086 0f37 00       		.byte	0
 3087 0f38 28       		.uleb128 0x28
 3088 0f39 BC020000 		.4byte	.LVL85
 3089 0f3d 79110000 		.4byte	0x1179
 3090 0f41 520F0000 		.4byte	0xf52
 3091 0f45 29       		.uleb128 0x29
 3092 0f46 01       		.uleb128 0x1
 3093 0f47 50       		.byte	0x50
 3094 0f48 02       		.uleb128 0x2
 3095 0f49 74       		.byte	0x74
 3096 0f4a 00       		.sleb128 0
 3097 0f4b 29       		.uleb128 0x29
 3098 0f4c 01       		.uleb128 0x1
 3099 0f4d 51       		.byte	0x51
 3100 0f4e 02       		.uleb128 0x2
 3101 0f4f 91       		.byte	0x91
 3102 0f50 48       		.sleb128 -56
 3103 0f51 00       		.byte	0
 3104 0f52 28       		.uleb128 0x28
 3105 0f53 D4020000 		.4byte	.LVL86
 3106 0f57 6D110000 		.4byte	0x116d
 3107 0f5b 650F0000 		.4byte	0xf65
 3108 0f5f 29       		.uleb128 0x29
 3109 0f60 01       		.uleb128 0x1
 3110 0f61 50       		.byte	0x50
 3111 0f62 01       		.uleb128 0x1
 3112 0f63 3E       		.byte	0x3e
 3113 0f64 00       		.byte	0
 3114 0f65 2A       		.uleb128 0x2a
 3115 0f66 F4020000 		.4byte	.LVL87
 3116 0f6a 6D110000 		.4byte	0x116d
 3117 0f6e 29       		.uleb128 0x29
 3118 0f6f 01       		.uleb128 0x1
 3119 0f70 50       		.byte	0x50
 3120 0f71 01       		.uleb128 0x1
 3121 0f72 3F       		.byte	0x3f
 3122 0f73 00       		.byte	0
 3123 0f74 00       		.byte	0
ARM GAS  /var/folders/l5/0x54b2c10074c8bt31ycjvl80000gp/T//cc0aQrPq.s 			page 56


 3124 0f75 00       		.byte	0
 3125 0f76 28       		.uleb128 0x28
 3126 0f77 10000000 		.4byte	.LVL28
 3127 0f7b F2110000 		.4byte	0x11f2
 3128 0f7f 890F0000 		.4byte	0xf89
 3129 0f83 29       		.uleb128 0x29
 3130 0f84 01       		.uleb128 0x1
 3131 0f85 50       		.byte	0x50
 3132 0f86 01       		.uleb128 0x1
 3133 0f87 35       		.byte	0x35
 3134 0f88 00       		.byte	0
 3135 0f89 28       		.uleb128 0x28
 3136 0f8a 18000000 		.4byte	.LVL29
 3137 0f8e CE110000 		.4byte	0x11ce
 3138 0f92 9D0F0000 		.4byte	0xf9d
 3139 0f96 29       		.uleb128 0x29
 3140 0f97 01       		.uleb128 0x1
 3141 0f98 50       		.byte	0x50
 3142 0f99 02       		.uleb128 0x2
 3143 0f9a 09       		.byte	0x9
 3144 0f9b FF       		.byte	0xff
 3145 0f9c 00       		.byte	0
 3146 0f9d 28       		.uleb128 0x28
 3147 0f9e 2C000000 		.4byte	.LVL31
 3148 0fa2 6D110000 		.4byte	0x116d
 3149 0fa6 B00F0000 		.4byte	0xfb0
 3150 0faa 29       		.uleb128 0x29
 3151 0fab 01       		.uleb128 0x1
 3152 0fac 50       		.byte	0x50
 3153 0fad 01       		.uleb128 0x1
 3154 0fae 31       		.byte	0x31
 3155 0faf 00       		.byte	0
 3156 0fb0 28       		.uleb128 0x28
 3157 0fb1 44000000 		.4byte	.LVL32
 3158 0fb5 CE110000 		.4byte	0x11ce
 3159 0fb9 C40F0000 		.4byte	0xfc4
 3160 0fbd 29       		.uleb128 0x29
 3161 0fbe 01       		.uleb128 0x1
 3162 0fbf 50       		.byte	0x50
 3163 0fc0 02       		.uleb128 0x2
 3164 0fc1 09       		.byte	0x9
 3165 0fc2 FF       		.byte	0xff
 3166 0fc3 00       		.byte	0
 3167 0fc4 28       		.uleb128 0x28
 3168 0fc5 58000000 		.4byte	.LVL34
 3169 0fc9 6D110000 		.4byte	0x116d
 3170 0fcd D70F0000 		.4byte	0xfd7
 3171 0fd1 29       		.uleb128 0x29
 3172 0fd2 01       		.uleb128 0x1
 3173 0fd3 50       		.byte	0x50
 3174 0fd4 01       		.uleb128 0x1
 3175 0fd5 32       		.byte	0x32
 3176 0fd6 00       		.byte	0
 3177 0fd7 28       		.uleb128 0x28
 3178 0fd8 68000000 		.4byte	.LVL35
 3179 0fdc A9110000 		.4byte	0x11a9
 3180 0fe0 EB0F0000 		.4byte	0xfeb
ARM GAS  /var/folders/l5/0x54b2c10074c8bt31ycjvl80000gp/T//cc0aQrPq.s 			page 57


 3181 0fe4 29       		.uleb128 0x29
 3182 0fe5 01       		.uleb128 0x1
 3183 0fe6 50       		.byte	0x50
 3184 0fe7 02       		.uleb128 0x2
 3185 0fe8 09       		.byte	0x9
 3186 0fe9 FF       		.byte	0xff
 3187 0fea 00       		.byte	0
 3188 0feb 2A       		.uleb128 0x2a
 3189 0fec 78000000 		.4byte	.LVL37
 3190 0ff0 6D110000 		.4byte	0x116d
 3191 0ff4 29       		.uleb128 0x29
 3192 0ff5 01       		.uleb128 0x1
 3193 0ff6 50       		.byte	0x50
 3194 0ff7 01       		.uleb128 0x1
 3195 0ff8 33       		.byte	0x33
 3196 0ff9 00       		.byte	0
 3197 0ffa 00       		.byte	0
 3198 0ffb 2E       		.uleb128 0x2e
 3199 0ffc FC080000 		.4byte	0x8fc
 3200 1000 00000000 		.4byte	.LFB17
 3201 1004 D0000000 		.4byte	.LFE17-.LFB17
 3202 1008 01       		.uleb128 0x1
 3203 1009 9C       		.byte	0x9c
 3204 100a 3C110000 		.4byte	0x113c
 3205 100e 2F       		.uleb128 0x2f
 3206 100f 0A090000 		.4byte	0x90a
 3207 1013 E2010000 		.4byte	.LLST8
 3208 1017 DC010000 		.4byte	.LVUS8
 3209 101b 35       		.uleb128 0x35
 3210 101c FC080000 		.4byte	0x8fc
 3211 1020 68000000 		.4byte	.LBI8
 3212 1024 00       		.byte	.LVU198
 3213 1025 00000000 		.4byte	.Ldebug_ranges0+0
 3214 1029 01       		.byte	0x1
 3215 102a 0001     		.2byte	0x100
 3216 102c 0D       		.byte	0xd
 3217 102d C5100000 		.4byte	0x10c5
 3218 1031 36       		.uleb128 0x36
 3219 1032 00000000 		.4byte	.Ldebug_ranges0+0
 3220 1036 2F       		.uleb128 0x2f
 3221 1037 0A090000 		.4byte	0x90a
 3222 103b 11020000 		.4byte	.LLST9
 3223 103f 0B020000 		.4byte	.LVUS9
 3224 1043 28       		.uleb128 0x28
 3225 1044 74000000 		.4byte	.LVL97
 3226 1048 16120000 		.4byte	0x1216
 3227 104c 5C100000 		.4byte	0x105c
 3228 1050 29       		.uleb128 0x29
 3229 1051 01       		.uleb128 0x1
 3230 1052 50       		.byte	0x50
 3231 1053 02       		.uleb128 0x2
 3232 1054 09       		.byte	0x9
 3233 1055 FF       		.byte	0xff
 3234 1056 29       		.uleb128 0x29
 3235 1057 01       		.uleb128 0x1
 3236 1058 51       		.byte	0x51
 3237 1059 01       		.uleb128 0x1
ARM GAS  /var/folders/l5/0x54b2c10074c8bt31ycjvl80000gp/T//cc0aQrPq.s 			page 58


 3238 105a 3A       		.byte	0x3a
 3239 105b 00       		.byte	0
 3240 105c 28       		.uleb128 0x28
 3241 105d 84000000 		.4byte	.LVL99
 3242 1061 6D110000 		.4byte	0x116d
 3243 1065 6F100000 		.4byte	0x106f
 3244 1069 29       		.uleb128 0x29
 3245 106a 01       		.uleb128 0x1
 3246 106b 50       		.byte	0x50
 3247 106c 01       		.uleb128 0x1
 3248 106d 34       		.byte	0x34
 3249 106e 00       		.byte	0
 3250 106f 28       		.uleb128 0x28
 3251 1070 98000000 		.4byte	.LVL100
 3252 1074 22120000 		.4byte	0x1222
 3253 1078 88100000 		.4byte	0x1088
 3254 107c 29       		.uleb128 0x29
 3255 107d 01       		.uleb128 0x1
 3256 107e 50       		.byte	0x50
 3257 107f 02       		.uleb128 0x2
 3258 1080 09       		.byte	0x9
 3259 1081 FF       		.byte	0xff
 3260 1082 29       		.uleb128 0x29
 3261 1083 01       		.uleb128 0x1
 3262 1084 51       		.byte	0x51
 3263 1085 01       		.uleb128 0x1
 3264 1086 3A       		.byte	0x3a
 3265 1087 00       		.byte	0
 3266 1088 28       		.uleb128 0x28
 3267 1089 A8000000 		.4byte	.LVL102
 3268 108d 6D110000 		.4byte	0x116d
 3269 1091 9B100000 		.4byte	0x109b
 3270 1095 29       		.uleb128 0x29
 3271 1096 01       		.uleb128 0x1
 3272 1097 50       		.byte	0x50
 3273 1098 01       		.uleb128 0x1
 3274 1099 35       		.byte	0x35
 3275 109a 00       		.byte	0
 3276 109b 28       		.uleb128 0x28
 3277 109c BC000000 		.4byte	.LVL103
 3278 10a0 2E120000 		.4byte	0x122e
 3279 10a4 B4100000 		.4byte	0x10b4
 3280 10a8 29       		.uleb128 0x29
 3281 10a9 01       		.uleb128 0x1
 3282 10aa 50       		.byte	0x50
 3283 10ab 02       		.uleb128 0x2
 3284 10ac 09       		.byte	0x9
 3285 10ad FF       		.byte	0xff
 3286 10ae 29       		.uleb128 0x29
 3287 10af 01       		.uleb128 0x1
 3288 10b0 51       		.byte	0x51
 3289 10b1 01       		.uleb128 0x1
 3290 10b2 3A       		.byte	0x3a
 3291 10b3 00       		.byte	0
 3292 10b4 2D       		.uleb128 0x2d
 3293 10b5 D0000000 		.4byte	.LVL105
 3294 10b9 6D110000 		.4byte	0x116d
ARM GAS  /var/folders/l5/0x54b2c10074c8bt31ycjvl80000gp/T//cc0aQrPq.s 			page 59


 3295 10bd 29       		.uleb128 0x29
 3296 10be 01       		.uleb128 0x1
 3297 10bf 50       		.byte	0x50
 3298 10c0 01       		.uleb128 0x1
 3299 10c1 36       		.byte	0x36
 3300 10c2 00       		.byte	0
 3301 10c3 00       		.byte	0
 3302 10c4 00       		.byte	0
 3303 10c5 28       		.uleb128 0x28
 3304 10c6 10000000 		.4byte	.LVL88
 3305 10ca 16120000 		.4byte	0x1216
 3306 10ce DE100000 		.4byte	0x10de
 3307 10d2 29       		.uleb128 0x29
 3308 10d3 01       		.uleb128 0x1
 3309 10d4 50       		.byte	0x50
 3310 10d5 02       		.uleb128 0x2
 3311 10d6 09       		.byte	0x9
 3312 10d7 FF       		.byte	0xff
 3313 10d8 29       		.uleb128 0x29
 3314 10d9 01       		.uleb128 0x1
 3315 10da 51       		.byte	0x51
 3316 10db 01       		.uleb128 0x1
 3317 10dc 30       		.byte	0x30
 3318 10dd 00       		.byte	0
 3319 10de 28       		.uleb128 0x28
 3320 10df 20000000 		.4byte	.LVL90
 3321 10e3 6D110000 		.4byte	0x116d
 3322 10e7 F1100000 		.4byte	0x10f1
 3323 10eb 29       		.uleb128 0x29
 3324 10ec 01       		.uleb128 0x1
 3325 10ed 50       		.byte	0x50
 3326 10ee 01       		.uleb128 0x1
 3327 10ef 31       		.byte	0x31
 3328 10f0 00       		.byte	0
 3329 10f1 28       		.uleb128 0x28
 3330 10f2 30000000 		.4byte	.LVL91
 3331 10f6 22120000 		.4byte	0x1222
 3332 10fa 05110000 		.4byte	0x1105
 3333 10fe 29       		.uleb128 0x29
 3334 10ff 01       		.uleb128 0x1
 3335 1100 50       		.byte	0x50
 3336 1101 02       		.uleb128 0x2
 3337 1102 09       		.byte	0x9
 3338 1103 FF       		.byte	0xff
 3339 1104 00       		.byte	0
 3340 1105 28       		.uleb128 0x28
 3341 1106 40000000 		.4byte	.LVL93
 3342 110a 6D110000 		.4byte	0x116d
 3343 110e 18110000 		.4byte	0x1118
 3344 1112 29       		.uleb128 0x29
 3345 1113 01       		.uleb128 0x1
 3346 1114 50       		.byte	0x50
 3347 1115 01       		.uleb128 0x1
 3348 1116 32       		.byte	0x32
 3349 1117 00       		.byte	0
 3350 1118 28       		.uleb128 0x28
 3351 1119 50000000 		.4byte	.LVL94
ARM GAS  /var/folders/l5/0x54b2c10074c8bt31ycjvl80000gp/T//cc0aQrPq.s 			page 60


 3352 111d 2E120000 		.4byte	0x122e
 3353 1121 2C110000 		.4byte	0x112c
 3354 1125 29       		.uleb128 0x29
 3355 1126 01       		.uleb128 0x1
 3356 1127 50       		.byte	0x50
 3357 1128 02       		.uleb128 0x2
 3358 1129 09       		.byte	0x9
 3359 112a FF       		.byte	0xff
 3360 112b 00       		.byte	0
 3361 112c 2A       		.uleb128 0x2a
 3362 112d 60000000 		.4byte	.LVL96
 3363 1131 6D110000 		.4byte	0x116d
 3364 1135 29       		.uleb128 0x29
 3365 1136 01       		.uleb128 0x1
 3366 1137 50       		.byte	0x50
 3367 1138 01       		.uleb128 0x1
 3368 1139 33       		.byte	0x33
 3369 113a 00       		.byte	0
 3370 113b 00       		.byte	0
 3371 113c 37       		.uleb128 0x37
 3372 113d D6010000 		.4byte	.LASF130
 3373 1141 D6010000 		.4byte	.LASF130
 3374 1145 0B       		.byte	0xb
 3375 1146 B2       		.byte	0xb2
 3376 1147 08       		.byte	0x8
 3377 1148 38       		.uleb128 0x38
 3378 1149 BD050000 		.4byte	.LASF131
 3379 114d BD050000 		.4byte	.LASF131
 3380 1151 06       		.byte	0x6
 3381 1152 6901     		.2byte	0x169
 3382 1154 08       		.byte	0x8
 3383 1155 37       		.uleb128 0x37
 3384 1156 2B000000 		.4byte	.LASF132
 3385 115a 2B000000 		.4byte	.LASF132
 3386 115e 0B       		.byte	0xb
 3387 115f B0       		.byte	0xb0
 3388 1160 08       		.byte	0x8
 3389 1161 37       		.uleb128 0x37
 3390 1162 97020000 		.4byte	.LASF133
 3391 1166 97020000 		.4byte	.LASF133
 3392 116a 0B       		.byte	0xb
 3393 116b A8       		.byte	0xa8
 3394 116c 08       		.byte	0x8
 3395 116d 37       		.uleb128 0x37
 3396 116e E8060000 		.4byte	.LASF134
 3397 1172 E8060000 		.4byte	.LASF134
 3398 1176 0E       		.byte	0xe
 3399 1177 5C       		.byte	0x5c
 3400 1178 0A       		.byte	0xa
 3401 1179 37       		.uleb128 0x37
 3402 117a 22010000 		.4byte	.LASF135
 3403 117e 22010000 		.4byte	.LASF135
 3404 1182 0B       		.byte	0xb
 3405 1183 AB       		.byte	0xab
 3406 1184 08       		.byte	0x8
 3407 1185 37       		.uleb128 0x37
 3408 1186 09040000 		.4byte	.LASF136
ARM GAS  /var/folders/l5/0x54b2c10074c8bt31ycjvl80000gp/T//cc0aQrPq.s 			page 61


 3409 118a 09040000 		.4byte	.LASF136
 3410 118e 0B       		.byte	0xb
 3411 118f B4       		.byte	0xb4
 3412 1190 08       		.byte	0x8
 3413 1191 37       		.uleb128 0x37
 3414 1192 8A040000 		.4byte	.LASF137
 3415 1196 8A040000 		.4byte	.LASF137
 3416 119a 0E       		.byte	0xe
 3417 119b 5D       		.byte	0x5d
 3418 119c 0A       		.byte	0xa
 3419 119d 37       		.uleb128 0x37
 3420 119e 04010000 		.4byte	.LASF138
 3421 11a2 04010000 		.4byte	.LASF138
 3422 11a6 0E       		.byte	0xe
 3423 11a7 5A       		.byte	0x5a
 3424 11a8 08       		.byte	0x8
 3425 11a9 37       		.uleb128 0x37
 3426 11aa 33020000 		.4byte	.LASF139
 3427 11ae 33020000 		.4byte	.LASF139
 3428 11b2 0B       		.byte	0xb
 3429 11b3 AC       		.byte	0xac
 3430 11b4 0F       		.byte	0xf
 3431 11b5 37       		.uleb128 0x37
 3432 11b6 6A070000 		.4byte	.LASF140
 3433 11ba 6A070000 		.4byte	.LASF140
 3434 11be 0E       		.byte	0xe
 3435 11bf 61       		.byte	0x61
 3436 11c0 0D       		.byte	0xd
 3437 11c1 38       		.uleb128 0x38
 3438 11c2 C8030000 		.4byte	.LASF141
 3439 11c6 C8030000 		.4byte	.LASF141
 3440 11ca 06       		.byte	0x6
 3441 11cb 6401     		.2byte	0x164
 3442 11cd 0B       		.byte	0xb
 3443 11ce 37       		.uleb128 0x37
 3444 11cf 12050000 		.4byte	.LASF142
 3445 11d3 12050000 		.4byte	.LASF142
 3446 11d7 0B       		.byte	0xb
 3447 11d8 B6       		.byte	0xb6
 3448 11d9 0F       		.byte	0xf
 3449 11da 37       		.uleb128 0x37
 3450 11db 50010000 		.4byte	.LASF143
 3451 11df 50010000 		.4byte	.LASF143
 3452 11e3 0E       		.byte	0xe
 3453 11e4 5E       		.byte	0x5e
 3454 11e5 0A       		.byte	0xa
 3455 11e6 37       		.uleb128 0x37
 3456 11e7 3A040000 		.4byte	.LASF144
 3457 11eb 3A040000 		.4byte	.LASF144
 3458 11ef 0E       		.byte	0xe
 3459 11f0 60       		.byte	0x60
 3460 11f1 08       		.byte	0x8
 3461 11f2 37       		.uleb128 0x37
 3462 11f3 4E000000 		.4byte	.LASF145
 3463 11f7 4E000000 		.4byte	.LASF145
 3464 11fb 0B       		.byte	0xb
 3465 11fc AD       		.byte	0xad
ARM GAS  /var/folders/l5/0x54b2c10074c8bt31ycjvl80000gp/T//cc0aQrPq.s 			page 62


 3466 11fd 0F       		.byte	0xf
 3467 11fe 37       		.uleb128 0x37
 3468 11ff 72010000 		.4byte	.LASF146
 3469 1203 72010000 		.4byte	.LASF146
 3470 1207 0B       		.byte	0xb
 3471 1208 B7       		.byte	0xb7
 3472 1209 0F       		.byte	0xf
 3473 120a 37       		.uleb128 0x37
 3474 120b A0040000 		.4byte	.LASF147
 3475 120f A0040000 		.4byte	.LASF147
 3476 1213 0B       		.byte	0xb
 3477 1214 B8       		.byte	0xb8
 3478 1215 0F       		.byte	0xf
 3479 1216 37       		.uleb128 0x37
 3480 1217 C6060000 		.4byte	.LASF148
 3481 121b C6060000 		.4byte	.LASF148
 3482 121f 0B       		.byte	0xb
 3483 1220 BB       		.byte	0xbb
 3484 1221 0F       		.byte	0xf
 3485 1222 37       		.uleb128 0x37
 3486 1223 79000000 		.4byte	.LASF149
 3487 1227 79000000 		.4byte	.LASF149
 3488 122b 0B       		.byte	0xb
 3489 122c BC       		.byte	0xbc
 3490 122d 0F       		.byte	0xf
 3491 122e 37       		.uleb128 0x37
 3492 122f D4000000 		.4byte	.LASF150
 3493 1233 D4000000 		.4byte	.LASF150
 3494 1237 0B       		.byte	0xb
 3495 1238 BD       		.byte	0xbd
 3496 1239 0F       		.byte	0xf
 3497 123a 00       		.byte	0
 3498              		.section	.debug_abbrev,"",%progbits
 3499              	.Ldebug_abbrev0:
 3500 0000 01       		.uleb128 0x1
 3501 0001 11       		.uleb128 0x11
 3502 0002 01       		.byte	0x1
 3503 0003 25       		.uleb128 0x25
 3504 0004 0E       		.uleb128 0xe
 3505 0005 13       		.uleb128 0x13
 3506 0006 0B       		.uleb128 0xb
 3507 0007 03       		.uleb128 0x3
 3508 0008 0E       		.uleb128 0xe
 3509 0009 1B       		.uleb128 0x1b
 3510 000a 0E       		.uleb128 0xe
 3511 000b 55       		.uleb128 0x55
 3512 000c 17       		.uleb128 0x17
 3513 000d 11       		.uleb128 0x11
 3514 000e 01       		.uleb128 0x1
 3515 000f 10       		.uleb128 0x10
 3516 0010 17       		.uleb128 0x17
 3517 0011 00       		.byte	0
 3518 0012 00       		.byte	0
 3519 0013 02       		.uleb128 0x2
 3520 0014 24       		.uleb128 0x24
 3521 0015 00       		.byte	0
 3522 0016 0B       		.uleb128 0xb
ARM GAS  /var/folders/l5/0x54b2c10074c8bt31ycjvl80000gp/T//cc0aQrPq.s 			page 63


 3523 0017 0B       		.uleb128 0xb
 3524 0018 3E       		.uleb128 0x3e
 3525 0019 0B       		.uleb128 0xb
 3526 001a 03       		.uleb128 0x3
 3527 001b 08       		.uleb128 0x8
 3528 001c 00       		.byte	0
 3529 001d 00       		.byte	0
 3530 001e 03       		.uleb128 0x3
 3531 001f 24       		.uleb128 0x24
 3532 0020 00       		.byte	0
 3533 0021 0B       		.uleb128 0xb
 3534 0022 0B       		.uleb128 0xb
 3535 0023 3E       		.uleb128 0x3e
 3536 0024 0B       		.uleb128 0xb
 3537 0025 03       		.uleb128 0x3
 3538 0026 0E       		.uleb128 0xe
 3539 0027 00       		.byte	0
 3540 0028 00       		.byte	0
 3541 0029 04       		.uleb128 0x4
 3542 002a 16       		.uleb128 0x16
 3543 002b 00       		.byte	0
 3544 002c 03       		.uleb128 0x3
 3545 002d 0E       		.uleb128 0xe
 3546 002e 3A       		.uleb128 0x3a
 3547 002f 0B       		.uleb128 0xb
 3548 0030 3B       		.uleb128 0x3b
 3549 0031 0B       		.uleb128 0xb
 3550 0032 39       		.uleb128 0x39
 3551 0033 0B       		.uleb128 0xb
 3552 0034 49       		.uleb128 0x49
 3553 0035 13       		.uleb128 0x13
 3554 0036 00       		.byte	0
 3555 0037 00       		.byte	0
 3556 0038 05       		.uleb128 0x5
 3557 0039 35       		.uleb128 0x35
 3558 003a 00       		.byte	0
 3559 003b 49       		.uleb128 0x49
 3560 003c 13       		.uleb128 0x13
 3561 003d 00       		.byte	0
 3562 003e 00       		.byte	0
 3563 003f 06       		.uleb128 0x6
 3564 0040 13       		.uleb128 0x13
 3565 0041 01       		.byte	0x1
 3566 0042 03       		.uleb128 0x3
 3567 0043 0E       		.uleb128 0xe
 3568 0044 0B       		.uleb128 0xb
 3569 0045 0B       		.uleb128 0xb
 3570 0046 3A       		.uleb128 0x3a
 3571 0047 0B       		.uleb128 0xb
 3572 0048 3B       		.uleb128 0x3b
 3573 0049 0B       		.uleb128 0xb
 3574 004a 39       		.uleb128 0x39
 3575 004b 0B       		.uleb128 0xb
 3576 004c 01       		.uleb128 0x1
 3577 004d 13       		.uleb128 0x13
 3578 004e 00       		.byte	0
 3579 004f 00       		.byte	0
ARM GAS  /var/folders/l5/0x54b2c10074c8bt31ycjvl80000gp/T//cc0aQrPq.s 			page 64


 3580 0050 07       		.uleb128 0x7
 3581 0051 0D       		.uleb128 0xd
 3582 0052 00       		.byte	0
 3583 0053 03       		.uleb128 0x3
 3584 0054 0E       		.uleb128 0xe
 3585 0055 3A       		.uleb128 0x3a
 3586 0056 0B       		.uleb128 0xb
 3587 0057 3B       		.uleb128 0x3b
 3588 0058 0B       		.uleb128 0xb
 3589 0059 39       		.uleb128 0x39
 3590 005a 0B       		.uleb128 0xb
 3591 005b 49       		.uleb128 0x49
 3592 005c 13       		.uleb128 0x13
 3593 005d 38       		.uleb128 0x38
 3594 005e 0B       		.uleb128 0xb
 3595 005f 00       		.byte	0
 3596 0060 00       		.byte	0
 3597 0061 08       		.uleb128 0x8
 3598 0062 0D       		.uleb128 0xd
 3599 0063 00       		.byte	0
 3600 0064 03       		.uleb128 0x3
 3601 0065 08       		.uleb128 0x8
 3602 0066 3A       		.uleb128 0x3a
 3603 0067 0B       		.uleb128 0xb
 3604 0068 3B       		.uleb128 0x3b
 3605 0069 0B       		.uleb128 0xb
 3606 006a 39       		.uleb128 0x39
 3607 006b 0B       		.uleb128 0xb
 3608 006c 49       		.uleb128 0x49
 3609 006d 13       		.uleb128 0x13
 3610 006e 38       		.uleb128 0x38
 3611 006f 0B       		.uleb128 0xb
 3612 0070 00       		.byte	0
 3613 0071 00       		.byte	0
 3614 0072 09       		.uleb128 0x9
 3615 0073 13       		.uleb128 0x13
 3616 0074 01       		.byte	0x1
 3617 0075 0B       		.uleb128 0xb
 3618 0076 0B       		.uleb128 0xb
 3619 0077 3A       		.uleb128 0x3a
 3620 0078 0B       		.uleb128 0xb
 3621 0079 3B       		.uleb128 0x3b
 3622 007a 0B       		.uleb128 0xb
 3623 007b 39       		.uleb128 0x39
 3624 007c 0B       		.uleb128 0xb
 3625 007d 01       		.uleb128 0x1
 3626 007e 13       		.uleb128 0x13
 3627 007f 00       		.byte	0
 3628 0080 00       		.byte	0
 3629 0081 0A       		.uleb128 0xa
 3630 0082 0F       		.uleb128 0xf
 3631 0083 00       		.byte	0
 3632 0084 0B       		.uleb128 0xb
 3633 0085 0B       		.uleb128 0xb
 3634 0086 49       		.uleb128 0x49
 3635 0087 13       		.uleb128 0x13
 3636 0088 00       		.byte	0
ARM GAS  /var/folders/l5/0x54b2c10074c8bt31ycjvl80000gp/T//cc0aQrPq.s 			page 65


 3637 0089 00       		.byte	0
 3638 008a 0B       		.uleb128 0xb
 3639 008b 0F       		.uleb128 0xf
 3640 008c 00       		.byte	0
 3641 008d 0B       		.uleb128 0xb
 3642 008e 0B       		.uleb128 0xb
 3643 008f 00       		.byte	0
 3644 0090 00       		.byte	0
 3645 0091 0C       		.uleb128 0xc
 3646 0092 26       		.uleb128 0x26
 3647 0093 00       		.byte	0
 3648 0094 49       		.uleb128 0x49
 3649 0095 13       		.uleb128 0x13
 3650 0096 00       		.byte	0
 3651 0097 00       		.byte	0
 3652 0098 0D       		.uleb128 0xd
 3653 0099 15       		.uleb128 0x15
 3654 009a 01       		.byte	0x1
 3655 009b 27       		.uleb128 0x27
 3656 009c 19       		.uleb128 0x19
 3657 009d 01       		.uleb128 0x1
 3658 009e 13       		.uleb128 0x13
 3659 009f 00       		.byte	0
 3660 00a0 00       		.byte	0
 3661 00a1 0E       		.uleb128 0xe
 3662 00a2 05       		.uleb128 0x5
 3663 00a3 00       		.byte	0
 3664 00a4 49       		.uleb128 0x49
 3665 00a5 13       		.uleb128 0x13
 3666 00a6 00       		.byte	0
 3667 00a7 00       		.byte	0
 3668 00a8 0F       		.uleb128 0xf
 3669 00a9 34       		.uleb128 0x34
 3670 00aa 00       		.byte	0
 3671 00ab 03       		.uleb128 0x3
 3672 00ac 0E       		.uleb128 0xe
 3673 00ad 3A       		.uleb128 0x3a
 3674 00ae 0B       		.uleb128 0xb
 3675 00af 3B       		.uleb128 0x3b
 3676 00b0 0B       		.uleb128 0xb
 3677 00b1 39       		.uleb128 0x39
 3678 00b2 0B       		.uleb128 0xb
 3679 00b3 49       		.uleb128 0x49
 3680 00b4 13       		.uleb128 0x13
 3681 00b5 3F       		.uleb128 0x3f
 3682 00b6 19       		.uleb128 0x19
 3683 00b7 3C       		.uleb128 0x3c
 3684 00b8 19       		.uleb128 0x19
 3685 00b9 00       		.byte	0
 3686 00ba 00       		.byte	0
 3687 00bb 10       		.uleb128 0x10
 3688 00bc 17       		.uleb128 0x17
 3689 00bd 01       		.byte	0x1
 3690 00be 0B       		.uleb128 0xb
 3691 00bf 0B       		.uleb128 0xb
 3692 00c0 3A       		.uleb128 0x3a
 3693 00c1 0B       		.uleb128 0xb
ARM GAS  /var/folders/l5/0x54b2c10074c8bt31ycjvl80000gp/T//cc0aQrPq.s 			page 66


 3694 00c2 3B       		.uleb128 0x3b
 3695 00c3 0B       		.uleb128 0xb
 3696 00c4 39       		.uleb128 0x39
 3697 00c5 0B       		.uleb128 0xb
 3698 00c6 01       		.uleb128 0x1
 3699 00c7 13       		.uleb128 0x13
 3700 00c8 00       		.byte	0
 3701 00c9 00       		.byte	0
 3702 00ca 11       		.uleb128 0x11
 3703 00cb 0D       		.uleb128 0xd
 3704 00cc 00       		.byte	0
 3705 00cd 03       		.uleb128 0x3
 3706 00ce 0E       		.uleb128 0xe
 3707 00cf 3A       		.uleb128 0x3a
 3708 00d0 0B       		.uleb128 0xb
 3709 00d1 3B       		.uleb128 0x3b
 3710 00d2 0B       		.uleb128 0xb
 3711 00d3 39       		.uleb128 0x39
 3712 00d4 0B       		.uleb128 0xb
 3713 00d5 49       		.uleb128 0x49
 3714 00d6 13       		.uleb128 0x13
 3715 00d7 00       		.byte	0
 3716 00d8 00       		.byte	0
 3717 00d9 12       		.uleb128 0x12
 3718 00da 01       		.uleb128 0x1
 3719 00db 01       		.byte	0x1
 3720 00dc 49       		.uleb128 0x49
 3721 00dd 13       		.uleb128 0x13
 3722 00de 01       		.uleb128 0x1
 3723 00df 13       		.uleb128 0x13
 3724 00e0 00       		.byte	0
 3725 00e1 00       		.byte	0
 3726 00e2 13       		.uleb128 0x13
 3727 00e3 21       		.uleb128 0x21
 3728 00e4 00       		.byte	0
 3729 00e5 49       		.uleb128 0x49
 3730 00e6 13       		.uleb128 0x13
 3731 00e7 2F       		.uleb128 0x2f
 3732 00e8 0B       		.uleb128 0xb
 3733 00e9 00       		.byte	0
 3734 00ea 00       		.byte	0
 3735 00eb 14       		.uleb128 0x14
 3736 00ec 15       		.uleb128 0x15
 3737 00ed 00       		.byte	0
 3738 00ee 27       		.uleb128 0x27
 3739 00ef 19       		.uleb128 0x19
 3740 00f0 00       		.byte	0
 3741 00f1 00       		.byte	0
 3742 00f2 15       		.uleb128 0x15
 3743 00f3 13       		.uleb128 0x13
 3744 00f4 01       		.byte	0x1
 3745 00f5 0B       		.uleb128 0xb
 3746 00f6 05       		.uleb128 0x5
 3747 00f7 3A       		.uleb128 0x3a
 3748 00f8 0B       		.uleb128 0xb
 3749 00f9 3B       		.uleb128 0x3b
 3750 00fa 0B       		.uleb128 0xb
ARM GAS  /var/folders/l5/0x54b2c10074c8bt31ycjvl80000gp/T//cc0aQrPq.s 			page 67


 3751 00fb 39       		.uleb128 0x39
 3752 00fc 0B       		.uleb128 0xb
 3753 00fd 01       		.uleb128 0x1
 3754 00fe 13       		.uleb128 0x13
 3755 00ff 00       		.byte	0
 3756 0100 00       		.byte	0
 3757 0101 16       		.uleb128 0x16
 3758 0102 0D       		.uleb128 0xd
 3759 0103 00       		.byte	0
 3760 0104 03       		.uleb128 0x3
 3761 0105 08       		.uleb128 0x8
 3762 0106 3A       		.uleb128 0x3a
 3763 0107 0B       		.uleb128 0xb
 3764 0108 3B       		.uleb128 0x3b
 3765 0109 0B       		.uleb128 0xb
 3766 010a 39       		.uleb128 0x39
 3767 010b 0B       		.uleb128 0xb
 3768 010c 49       		.uleb128 0x49
 3769 010d 13       		.uleb128 0x13
 3770 010e 38       		.uleb128 0x38
 3771 010f 05       		.uleb128 0x5
 3772 0110 00       		.byte	0
 3773 0111 00       		.byte	0
 3774 0112 17       		.uleb128 0x17
 3775 0113 17       		.uleb128 0x17
 3776 0114 01       		.byte	0x1
 3777 0115 03       		.uleb128 0x3
 3778 0116 0E       		.uleb128 0xe
 3779 0117 0B       		.uleb128 0xb
 3780 0118 05       		.uleb128 0x5
 3781 0119 3A       		.uleb128 0x3a
 3782 011a 0B       		.uleb128 0xb
 3783 011b 3B       		.uleb128 0x3b
 3784 011c 0B       		.uleb128 0xb
 3785 011d 39       		.uleb128 0x39
 3786 011e 0B       		.uleb128 0xb
 3787 011f 01       		.uleb128 0x1
 3788 0120 13       		.uleb128 0x13
 3789 0121 00       		.byte	0
 3790 0122 00       		.byte	0
 3791 0123 18       		.uleb128 0x18
 3792 0124 0D       		.uleb128 0xd
 3793 0125 00       		.byte	0
 3794 0126 03       		.uleb128 0x3
 3795 0127 08       		.uleb128 0x8
 3796 0128 3A       		.uleb128 0x3a
 3797 0129 0B       		.uleb128 0xb
 3798 012a 3B       		.uleb128 0x3b
 3799 012b 0B       		.uleb128 0xb
 3800 012c 39       		.uleb128 0x39
 3801 012d 0B       		.uleb128 0xb
 3802 012e 49       		.uleb128 0x49
 3803 012f 13       		.uleb128 0x13
 3804 0130 00       		.byte	0
 3805 0131 00       		.byte	0
 3806 0132 19       		.uleb128 0x19
 3807 0133 21       		.uleb128 0x21
ARM GAS  /var/folders/l5/0x54b2c10074c8bt31ycjvl80000gp/T//cc0aQrPq.s 			page 68


 3808 0134 00       		.byte	0
 3809 0135 49       		.uleb128 0x49
 3810 0136 13       		.uleb128 0x13
 3811 0137 2F       		.uleb128 0x2f
 3812 0138 05       		.uleb128 0x5
 3813 0139 00       		.byte	0
 3814 013a 00       		.byte	0
 3815 013b 1A       		.uleb128 0x1a
 3816 013c 21       		.uleb128 0x21
 3817 013d 00       		.byte	0
 3818 013e 00       		.byte	0
 3819 013f 00       		.byte	0
 3820 0140 1B       		.uleb128 0x1b
 3821 0141 34       		.uleb128 0x34
 3822 0142 00       		.byte	0
 3823 0143 03       		.uleb128 0x3
 3824 0144 08       		.uleb128 0x8
 3825 0145 3A       		.uleb128 0x3a
 3826 0146 0B       		.uleb128 0xb
 3827 0147 3B       		.uleb128 0x3b
 3828 0148 0B       		.uleb128 0xb
 3829 0149 39       		.uleb128 0x39
 3830 014a 0B       		.uleb128 0xb
 3831 014b 49       		.uleb128 0x49
 3832 014c 13       		.uleb128 0x13
 3833 014d 3F       		.uleb128 0x3f
 3834 014e 19       		.uleb128 0x19
 3835 014f 3C       		.uleb128 0x3c
 3836 0150 19       		.uleb128 0x19
 3837 0151 00       		.byte	0
 3838 0152 00       		.byte	0
 3839 0153 1C       		.uleb128 0x1c
 3840 0154 34       		.uleb128 0x34
 3841 0155 00       		.byte	0
 3842 0156 03       		.uleb128 0x3
 3843 0157 08       		.uleb128 0x8
 3844 0158 3A       		.uleb128 0x3a
 3845 0159 0B       		.uleb128 0xb
 3846 015a 3B       		.uleb128 0x3b
 3847 015b 0B       		.uleb128 0xb
 3848 015c 39       		.uleb128 0x39
 3849 015d 0B       		.uleb128 0xb
 3850 015e 49       		.uleb128 0x49
 3851 015f 13       		.uleb128 0x13
 3852 0160 02       		.uleb128 0x2
 3853 0161 18       		.uleb128 0x18
 3854 0162 00       		.byte	0
 3855 0163 00       		.byte	0
 3856 0164 1D       		.uleb128 0x1d
 3857 0165 34       		.uleb128 0x34
 3858 0166 00       		.byte	0
 3859 0167 03       		.uleb128 0x3
 3860 0168 0E       		.uleb128 0xe
 3861 0169 3A       		.uleb128 0x3a
 3862 016a 0B       		.uleb128 0xb
 3863 016b 3B       		.uleb128 0x3b
 3864 016c 0B       		.uleb128 0xb
ARM GAS  /var/folders/l5/0x54b2c10074c8bt31ycjvl80000gp/T//cc0aQrPq.s 			page 69


 3865 016d 39       		.uleb128 0x39
 3866 016e 0B       		.uleb128 0xb
 3867 016f 49       		.uleb128 0x49
 3868 0170 13       		.uleb128 0x13
 3869 0171 02       		.uleb128 0x2
 3870 0172 18       		.uleb128 0x18
 3871 0173 00       		.byte	0
 3872 0174 00       		.byte	0
 3873 0175 1E       		.uleb128 0x1e
 3874 0176 34       		.uleb128 0x34
 3875 0177 00       		.byte	0
 3876 0178 03       		.uleb128 0x3
 3877 0179 0E       		.uleb128 0xe
 3878 017a 3A       		.uleb128 0x3a
 3879 017b 0B       		.uleb128 0xb
 3880 017c 3B       		.uleb128 0x3b
 3881 017d 0B       		.uleb128 0xb
 3882 017e 39       		.uleb128 0x39
 3883 017f 0B       		.uleb128 0xb
 3884 0180 49       		.uleb128 0x49
 3885 0181 13       		.uleb128 0x13
 3886 0182 3F       		.uleb128 0x3f
 3887 0183 19       		.uleb128 0x19
 3888 0184 02       		.uleb128 0x2
 3889 0185 18       		.uleb128 0x18
 3890 0186 00       		.byte	0
 3891 0187 00       		.byte	0
 3892 0188 1F       		.uleb128 0x1f
 3893 0189 34       		.uleb128 0x34
 3894 018a 00       		.byte	0
 3895 018b 03       		.uleb128 0x3
 3896 018c 0E       		.uleb128 0xe
 3897 018d 3A       		.uleb128 0x3a
 3898 018e 0B       		.uleb128 0xb
 3899 018f 3B       		.uleb128 0x3b
 3900 0190 05       		.uleb128 0x5
 3901 0191 39       		.uleb128 0x39
 3902 0192 0B       		.uleb128 0xb
 3903 0193 49       		.uleb128 0x49
 3904 0194 13       		.uleb128 0x13
 3905 0195 3F       		.uleb128 0x3f
 3906 0196 19       		.uleb128 0x19
 3907 0197 02       		.uleb128 0x2
 3908 0198 18       		.uleb128 0x18
 3909 0199 00       		.byte	0
 3910 019a 00       		.byte	0
 3911 019b 20       		.uleb128 0x20
 3912 019c 2E       		.uleb128 0x2e
 3913 019d 01       		.byte	0x1
 3914 019e 03       		.uleb128 0x3
 3915 019f 0E       		.uleb128 0xe
 3916 01a0 3A       		.uleb128 0x3a
 3917 01a1 0B       		.uleb128 0xb
 3918 01a2 3B       		.uleb128 0x3b
 3919 01a3 05       		.uleb128 0x5
 3920 01a4 39       		.uleb128 0x39
 3921 01a5 0B       		.uleb128 0xb
ARM GAS  /var/folders/l5/0x54b2c10074c8bt31ycjvl80000gp/T//cc0aQrPq.s 			page 70


 3922 01a6 27       		.uleb128 0x27
 3923 01a7 19       		.uleb128 0x19
 3924 01a8 20       		.uleb128 0x20
 3925 01a9 0B       		.uleb128 0xb
 3926 01aa 01       		.uleb128 0x1
 3927 01ab 13       		.uleb128 0x13
 3928 01ac 00       		.byte	0
 3929 01ad 00       		.byte	0
 3930 01ae 21       		.uleb128 0x21
 3931 01af 34       		.uleb128 0x34
 3932 01b0 00       		.byte	0
 3933 01b1 03       		.uleb128 0x3
 3934 01b2 08       		.uleb128 0x8
 3935 01b3 3A       		.uleb128 0x3a
 3936 01b4 0B       		.uleb128 0xb
 3937 01b5 3B       		.uleb128 0x3b
 3938 01b6 05       		.uleb128 0x5
 3939 01b7 39       		.uleb128 0x39
 3940 01b8 0B       		.uleb128 0xb
 3941 01b9 49       		.uleb128 0x49
 3942 01ba 13       		.uleb128 0x13
 3943 01bb 00       		.byte	0
 3944 01bc 00       		.byte	0
 3945 01bd 22       		.uleb128 0x22
 3946 01be 2E       		.uleb128 0x2e
 3947 01bf 00       		.byte	0
 3948 01c0 03       		.uleb128 0x3
 3949 01c1 0E       		.uleb128 0xe
 3950 01c2 3A       		.uleb128 0x3a
 3951 01c3 0B       		.uleb128 0xb
 3952 01c4 3B       		.uleb128 0x3b
 3953 01c5 0B       		.uleb128 0xb
 3954 01c6 39       		.uleb128 0x39
 3955 01c7 0B       		.uleb128 0xb
 3956 01c8 27       		.uleb128 0x27
 3957 01c9 19       		.uleb128 0x19
 3958 01ca 00       		.byte	0
 3959 01cb 00       		.byte	0
 3960 01cc 23       		.uleb128 0x23
 3961 01cd 2E       		.uleb128 0x2e
 3962 01ce 01       		.byte	0x1
 3963 01cf 03       		.uleb128 0x3
 3964 01d0 0E       		.uleb128 0xe
 3965 01d1 3A       		.uleb128 0x3a
 3966 01d2 0B       		.uleb128 0xb
 3967 01d3 3B       		.uleb128 0x3b
 3968 01d4 0B       		.uleb128 0xb
 3969 01d5 39       		.uleb128 0x39
 3970 01d6 0B       		.uleb128 0xb
 3971 01d7 27       		.uleb128 0x27
 3972 01d8 19       		.uleb128 0x19
 3973 01d9 20       		.uleb128 0x20
 3974 01da 0B       		.uleb128 0xb
 3975 01db 01       		.uleb128 0x1
 3976 01dc 13       		.uleb128 0x13
 3977 01dd 00       		.byte	0
 3978 01de 00       		.byte	0
ARM GAS  /var/folders/l5/0x54b2c10074c8bt31ycjvl80000gp/T//cc0aQrPq.s 			page 71


 3979 01df 24       		.uleb128 0x24
 3980 01e0 34       		.uleb128 0x34
 3981 01e1 00       		.byte	0
 3982 01e2 03       		.uleb128 0x3
 3983 01e3 08       		.uleb128 0x8
 3984 01e4 3A       		.uleb128 0x3a
 3985 01e5 0B       		.uleb128 0xb
 3986 01e6 3B       		.uleb128 0x3b
 3987 01e7 0B       		.uleb128 0xb
 3988 01e8 39       		.uleb128 0x39
 3989 01e9 0B       		.uleb128 0xb
 3990 01ea 49       		.uleb128 0x49
 3991 01eb 13       		.uleb128 0x13
 3992 01ec 00       		.byte	0
 3993 01ed 00       		.byte	0
 3994 01ee 25       		.uleb128 0x25
 3995 01ef 34       		.uleb128 0x34
 3996 01f0 00       		.byte	0
 3997 01f1 03       		.uleb128 0x3
 3998 01f2 0E       		.uleb128 0xe
 3999 01f3 3A       		.uleb128 0x3a
 4000 01f4 0B       		.uleb128 0xb
 4001 01f5 3B       		.uleb128 0x3b
 4002 01f6 0B       		.uleb128 0xb
 4003 01f7 39       		.uleb128 0x39
 4004 01f8 0B       		.uleb128 0xb
 4005 01f9 49       		.uleb128 0x49
 4006 01fa 13       		.uleb128 0x13
 4007 01fb 00       		.byte	0
 4008 01fc 00       		.byte	0
 4009 01fd 26       		.uleb128 0x26
 4010 01fe 2E       		.uleb128 0x2e
 4011 01ff 01       		.byte	0x1
 4012 0200 03       		.uleb128 0x3
 4013 0201 0E       		.uleb128 0xe
 4014 0202 3A       		.uleb128 0x3a
 4015 0203 0B       		.uleb128 0xb
 4016 0204 3B       		.uleb128 0x3b
 4017 0205 0B       		.uleb128 0xb
 4018 0206 39       		.uleb128 0x39
 4019 0207 0B       		.uleb128 0xb
 4020 0208 27       		.uleb128 0x27
 4021 0209 19       		.uleb128 0x19
 4022 020a 49       		.uleb128 0x49
 4023 020b 13       		.uleb128 0x13
 4024 020c 11       		.uleb128 0x11
 4025 020d 01       		.uleb128 0x1
 4026 020e 12       		.uleb128 0x12
 4027 020f 06       		.uleb128 0x6
 4028 0210 40       		.uleb128 0x40
 4029 0211 18       		.uleb128 0x18
 4030 0212 9742     		.uleb128 0x2117
 4031 0214 19       		.uleb128 0x19
 4032 0215 01       		.uleb128 0x1
 4033 0216 13       		.uleb128 0x13
 4034 0217 00       		.byte	0
 4035 0218 00       		.byte	0
ARM GAS  /var/folders/l5/0x54b2c10074c8bt31ycjvl80000gp/T//cc0aQrPq.s 			page 72


 4036 0219 27       		.uleb128 0x27
 4037 021a 05       		.uleb128 0x5
 4038 021b 00       		.byte	0
 4039 021c 03       		.uleb128 0x3
 4040 021d 08       		.uleb128 0x8
 4041 021e 3A       		.uleb128 0x3a
 4042 021f 0B       		.uleb128 0xb
 4043 0220 3B       		.uleb128 0x3b
 4044 0221 0B       		.uleb128 0xb
 4045 0222 39       		.uleb128 0x39
 4046 0223 0B       		.uleb128 0xb
 4047 0224 49       		.uleb128 0x49
 4048 0225 13       		.uleb128 0x13
 4049 0226 02       		.uleb128 0x2
 4050 0227 17       		.uleb128 0x17
 4051 0228 B742     		.uleb128 0x2137
 4052 022a 17       		.uleb128 0x17
 4053 022b 00       		.byte	0
 4054 022c 00       		.byte	0
 4055 022d 28       		.uleb128 0x28
 4056 022e 898201   		.uleb128 0x4109
 4057 0231 01       		.byte	0x1
 4058 0232 11       		.uleb128 0x11
 4059 0233 01       		.uleb128 0x1
 4060 0234 31       		.uleb128 0x31
 4061 0235 13       		.uleb128 0x13
 4062 0236 01       		.uleb128 0x1
 4063 0237 13       		.uleb128 0x13
 4064 0238 00       		.byte	0
 4065 0239 00       		.byte	0
 4066 023a 29       		.uleb128 0x29
 4067 023b 8A8201   		.uleb128 0x410a
 4068 023e 00       		.byte	0
 4069 023f 02       		.uleb128 0x2
 4070 0240 18       		.uleb128 0x18
 4071 0241 9142     		.uleb128 0x2111
 4072 0243 18       		.uleb128 0x18
 4073 0244 00       		.byte	0
 4074 0245 00       		.byte	0
 4075 0246 2A       		.uleb128 0x2a
 4076 0247 898201   		.uleb128 0x4109
 4077 024a 01       		.byte	0x1
 4078 024b 11       		.uleb128 0x11
 4079 024c 01       		.uleb128 0x1
 4080 024d 31       		.uleb128 0x31
 4081 024e 13       		.uleb128 0x13
 4082 024f 00       		.byte	0
 4083 0250 00       		.byte	0
 4084 0251 2B       		.uleb128 0x2b
 4085 0252 2E       		.uleb128 0x2e
 4086 0253 01       		.byte	0x1
 4087 0254 03       		.uleb128 0x3
 4088 0255 0E       		.uleb128 0xe
 4089 0256 3A       		.uleb128 0x3a
 4090 0257 0B       		.uleb128 0xb
 4091 0258 3B       		.uleb128 0x3b
 4092 0259 0B       		.uleb128 0xb
ARM GAS  /var/folders/l5/0x54b2c10074c8bt31ycjvl80000gp/T//cc0aQrPq.s 			page 73


 4093 025a 39       		.uleb128 0x39
 4094 025b 0B       		.uleb128 0xb
 4095 025c 27       		.uleb128 0x27
 4096 025d 19       		.uleb128 0x19
 4097 025e 11       		.uleb128 0x11
 4098 025f 01       		.uleb128 0x1
 4099 0260 12       		.uleb128 0x12
 4100 0261 06       		.uleb128 0x6
 4101 0262 40       		.uleb128 0x40
 4102 0263 18       		.uleb128 0x18
 4103 0264 9742     		.uleb128 0x2117
 4104 0266 19       		.uleb128 0x19
 4105 0267 01       		.uleb128 0x1
 4106 0268 13       		.uleb128 0x13
 4107 0269 00       		.byte	0
 4108 026a 00       		.byte	0
 4109 026b 2C       		.uleb128 0x2c
 4110 026c 2E       		.uleb128 0x2e
 4111 026d 01       		.byte	0x1
 4112 026e 03       		.uleb128 0x3
 4113 026f 08       		.uleb128 0x8
 4114 0270 3A       		.uleb128 0x3a
 4115 0271 0B       		.uleb128 0xb
 4116 0272 3B       		.uleb128 0x3b
 4117 0273 0B       		.uleb128 0xb
 4118 0274 39       		.uleb128 0x39
 4119 0275 0B       		.uleb128 0xb
 4120 0276 27       		.uleb128 0x27
 4121 0277 19       		.uleb128 0x19
 4122 0278 11       		.uleb128 0x11
 4123 0279 01       		.uleb128 0x1
 4124 027a 12       		.uleb128 0x12
 4125 027b 06       		.uleb128 0x6
 4126 027c 40       		.uleb128 0x40
 4127 027d 18       		.uleb128 0x18
 4128 027e 9742     		.uleb128 0x2117
 4129 0280 19       		.uleb128 0x19
 4130 0281 01       		.uleb128 0x1
 4131 0282 13       		.uleb128 0x13
 4132 0283 00       		.byte	0
 4133 0284 00       		.byte	0
 4134 0285 2D       		.uleb128 0x2d
 4135 0286 898201   		.uleb128 0x4109
 4136 0289 01       		.byte	0x1
 4137 028a 11       		.uleb128 0x11
 4138 028b 01       		.uleb128 0x1
 4139 028c 9542     		.uleb128 0x2115
 4140 028e 19       		.uleb128 0x19
 4141 028f 31       		.uleb128 0x31
 4142 0290 13       		.uleb128 0x13
 4143 0291 00       		.byte	0
 4144 0292 00       		.byte	0
 4145 0293 2E       		.uleb128 0x2e
 4146 0294 2E       		.uleb128 0x2e
 4147 0295 01       		.byte	0x1
 4148 0296 31       		.uleb128 0x31
 4149 0297 13       		.uleb128 0x13
ARM GAS  /var/folders/l5/0x54b2c10074c8bt31ycjvl80000gp/T//cc0aQrPq.s 			page 74


 4150 0298 11       		.uleb128 0x11
 4151 0299 01       		.uleb128 0x1
 4152 029a 12       		.uleb128 0x12
 4153 029b 06       		.uleb128 0x6
 4154 029c 40       		.uleb128 0x40
 4155 029d 18       		.uleb128 0x18
 4156 029e 9742     		.uleb128 0x2117
 4157 02a0 19       		.uleb128 0x19
 4158 02a1 01       		.uleb128 0x1
 4159 02a2 13       		.uleb128 0x13
 4160 02a3 00       		.byte	0
 4161 02a4 00       		.byte	0
 4162 02a5 2F       		.uleb128 0x2f
 4163 02a6 34       		.uleb128 0x34
 4164 02a7 00       		.byte	0
 4165 02a8 31       		.uleb128 0x31
 4166 02a9 13       		.uleb128 0x13
 4167 02aa 02       		.uleb128 0x2
 4168 02ab 17       		.uleb128 0x17
 4169 02ac B742     		.uleb128 0x2137
 4170 02ae 17       		.uleb128 0x17
 4171 02af 00       		.byte	0
 4172 02b0 00       		.byte	0
 4173 02b1 30       		.uleb128 0x30
 4174 02b2 34       		.uleb128 0x34
 4175 02b3 00       		.byte	0
 4176 02b4 31       		.uleb128 0x31
 4177 02b5 13       		.uleb128 0x13
 4178 02b6 00       		.byte	0
 4179 02b7 00       		.byte	0
 4180 02b8 31       		.uleb128 0x31
 4181 02b9 1D       		.uleb128 0x1d
 4182 02ba 01       		.byte	0x1
 4183 02bb 31       		.uleb128 0x31
 4184 02bc 13       		.uleb128 0x13
 4185 02bd 52       		.uleb128 0x52
 4186 02be 01       		.uleb128 0x1
 4187 02bf B842     		.uleb128 0x2138
 4188 02c1 0B       		.uleb128 0xb
 4189 02c2 11       		.uleb128 0x11
 4190 02c3 01       		.uleb128 0x1
 4191 02c4 12       		.uleb128 0x12
 4192 02c5 06       		.uleb128 0x6
 4193 02c6 58       		.uleb128 0x58
 4194 02c7 0B       		.uleb128 0xb
 4195 02c8 59       		.uleb128 0x59
 4196 02c9 0B       		.uleb128 0xb
 4197 02ca 57       		.uleb128 0x57
 4198 02cb 0B       		.uleb128 0xb
 4199 02cc 01       		.uleb128 0x1
 4200 02cd 13       		.uleb128 0x13
 4201 02ce 00       		.byte	0
 4202 02cf 00       		.byte	0
 4203 02d0 32       		.uleb128 0x32
 4204 02d1 0B       		.uleb128 0xb
 4205 02d2 01       		.byte	0x1
 4206 02d3 11       		.uleb128 0x11
ARM GAS  /var/folders/l5/0x54b2c10074c8bt31ycjvl80000gp/T//cc0aQrPq.s 			page 75


 4207 02d4 01       		.uleb128 0x1
 4208 02d5 12       		.uleb128 0x12
 4209 02d6 06       		.uleb128 0x6
 4210 02d7 00       		.byte	0
 4211 02d8 00       		.byte	0
 4212 02d9 33       		.uleb128 0x33
 4213 02da 34       		.uleb128 0x34
 4214 02db 00       		.byte	0
 4215 02dc 31       		.uleb128 0x31
 4216 02dd 13       		.uleb128 0x13
 4217 02de 02       		.uleb128 0x2
 4218 02df 18       		.uleb128 0x18
 4219 02e0 00       		.byte	0
 4220 02e1 00       		.byte	0
 4221 02e2 34       		.uleb128 0x34
 4222 02e3 898201   		.uleb128 0x4109
 4223 02e6 00       		.byte	0
 4224 02e7 11       		.uleb128 0x11
 4225 02e8 01       		.uleb128 0x1
 4226 02e9 31       		.uleb128 0x31
 4227 02ea 13       		.uleb128 0x13
 4228 02eb 00       		.byte	0
 4229 02ec 00       		.byte	0
 4230 02ed 35       		.uleb128 0x35
 4231 02ee 1D       		.uleb128 0x1d
 4232 02ef 01       		.byte	0x1
 4233 02f0 31       		.uleb128 0x31
 4234 02f1 13       		.uleb128 0x13
 4235 02f2 52       		.uleb128 0x52
 4236 02f3 01       		.uleb128 0x1
 4237 02f4 B842     		.uleb128 0x2138
 4238 02f6 0B       		.uleb128 0xb
 4239 02f7 55       		.uleb128 0x55
 4240 02f8 17       		.uleb128 0x17
 4241 02f9 58       		.uleb128 0x58
 4242 02fa 0B       		.uleb128 0xb
 4243 02fb 59       		.uleb128 0x59
 4244 02fc 05       		.uleb128 0x5
 4245 02fd 57       		.uleb128 0x57
 4246 02fe 0B       		.uleb128 0xb
 4247 02ff 01       		.uleb128 0x1
 4248 0300 13       		.uleb128 0x13
 4249 0301 00       		.byte	0
 4250 0302 00       		.byte	0
 4251 0303 36       		.uleb128 0x36
 4252 0304 0B       		.uleb128 0xb
 4253 0305 01       		.byte	0x1
 4254 0306 55       		.uleb128 0x55
 4255 0307 17       		.uleb128 0x17
 4256 0308 00       		.byte	0
 4257 0309 00       		.byte	0
 4258 030a 37       		.uleb128 0x37
 4259 030b 2E       		.uleb128 0x2e
 4260 030c 00       		.byte	0
 4261 030d 3F       		.uleb128 0x3f
 4262 030e 19       		.uleb128 0x19
 4263 030f 3C       		.uleb128 0x3c
ARM GAS  /var/folders/l5/0x54b2c10074c8bt31ycjvl80000gp/T//cc0aQrPq.s 			page 76


 4264 0310 19       		.uleb128 0x19
 4265 0311 6E       		.uleb128 0x6e
 4266 0312 0E       		.uleb128 0xe
 4267 0313 03       		.uleb128 0x3
 4268 0314 0E       		.uleb128 0xe
 4269 0315 3A       		.uleb128 0x3a
 4270 0316 0B       		.uleb128 0xb
 4271 0317 3B       		.uleb128 0x3b
 4272 0318 0B       		.uleb128 0xb
 4273 0319 39       		.uleb128 0x39
 4274 031a 0B       		.uleb128 0xb
 4275 031b 00       		.byte	0
 4276 031c 00       		.byte	0
 4277 031d 38       		.uleb128 0x38
 4278 031e 2E       		.uleb128 0x2e
 4279 031f 00       		.byte	0
 4280 0320 3F       		.uleb128 0x3f
 4281 0321 19       		.uleb128 0x19
 4282 0322 3C       		.uleb128 0x3c
 4283 0323 19       		.uleb128 0x19
 4284 0324 6E       		.uleb128 0x6e
 4285 0325 0E       		.uleb128 0xe
 4286 0326 03       		.uleb128 0x3
 4287 0327 0E       		.uleb128 0xe
 4288 0328 3A       		.uleb128 0x3a
 4289 0329 0B       		.uleb128 0xb
 4290 032a 3B       		.uleb128 0x3b
 4291 032b 05       		.uleb128 0x5
 4292 032c 39       		.uleb128 0x39
 4293 032d 0B       		.uleb128 0xb
 4294 032e 00       		.byte	0
 4295 032f 00       		.byte	0
 4296 0330 00       		.byte	0
 4297              		.section	.debug_loc,"",%progbits
 4298              	.Ldebug_loc0:
 4299              	.LVUS3:
 4300 0000 00       		.uleb128 0
 4301 0001 00       		.uleb128 .LVU41
 4302 0002 00       		.uleb128 .LVU41
 4303 0003 00       		.uleb128 0
 4304              	.LLST3:
 4305 0004 00000000 		.4byte	.LVL19
 4306 0008 0C000000 		.4byte	.LVL20
 4307 000c 0100     		.2byte	0x1
 4308 000e 50       		.byte	0x50
 4309 000f 0C000000 		.4byte	.LVL20
 4310 0013 34000000 		.4byte	.LFE14
 4311 0017 0400     		.2byte	0x4
 4312 0019 F3       		.byte	0xf3
 4313 001a 01       		.uleb128 0x1
 4314 001b 50       		.byte	0x50
 4315 001c 9F       		.byte	0x9f
 4316 001d 00000000 		.4byte	0
 4317 0021 00000000 		.4byte	0
 4318              	.LVUS4:
 4319 0025 00       		.uleb128 0
 4320 0026 00       		.uleb128 .LVU51
ARM GAS  /var/folders/l5/0x54b2c10074c8bt31ycjvl80000gp/T//cc0aQrPq.s 			page 77


 4321 0027 00       		.uleb128 .LVU51
 4322 0028 00       		.uleb128 0
 4323              	.LLST4:
 4324 0029 00000000 		.4byte	.LVL24
 4325 002d 0C000000 		.4byte	.LVL25
 4326 0031 0100     		.2byte	0x1
 4327 0033 50       		.byte	0x50
 4328 0034 0C000000 		.4byte	.LVL25
 4329 0038 24000000 		.4byte	.LFE13
 4330 003c 0100     		.2byte	0x1
 4331 003e 54       		.byte	0x54
 4332 003f 00000000 		.4byte	0
 4333 0043 00000000 		.4byte	0
 4334              	.LVUS0:
 4335 0047 00       		.uleb128 0
 4336 0048 00       		.uleb128 .LVU25
 4337 0049 00       		.uleb128 .LVU25
 4338 004a 00       		.uleb128 0
 4339              	.LLST0:
 4340 004b 00000000 		.4byte	.LVL9
 4341 004f 04000000 		.4byte	.LVL10
 4342 0053 0100     		.2byte	0x1
 4343 0055 50       		.byte	0x50
 4344 0056 04000000 		.4byte	.LVL10
 4345 005a 08000000 		.4byte	.LFE10
 4346 005e 0400     		.2byte	0x4
 4347 0060 F3       		.byte	0xf3
 4348 0061 01       		.uleb128 0x1
 4349 0062 50       		.byte	0x50
 4350 0063 9F       		.byte	0x9f
 4351 0064 00000000 		.4byte	0
 4352 0068 00000000 		.4byte	0
 4353              	.LVUS1:
 4354 006c 00       		.uleb128 0
 4355 006d 00       		.uleb128 .LVU29
 4356 006e 00       		.uleb128 .LVU29
 4357 006f 00       		.uleb128 0
 4358              	.LLST1:
 4359 0070 00000000 		.4byte	.LVL12
 4360 0074 04000000 		.4byte	.LVL13
 4361 0078 0100     		.2byte	0x1
 4362 007a 50       		.byte	0x50
 4363 007b 04000000 		.4byte	.LVL13
 4364 007f 08000000 		.4byte	.LFE9
 4365 0083 0400     		.2byte	0x4
 4366 0085 F3       		.byte	0xf3
 4367 0086 01       		.uleb128 0x1
 4368 0087 50       		.byte	0x50
 4369 0088 9F       		.byte	0x9f
 4370 0089 00000000 		.4byte	0
 4371 008d 00000000 		.4byte	0
 4372              	.LVUS2:
 4373 0091 00       		.uleb128 0
 4374 0092 00       		.uleb128 .LVU33
 4375 0093 00       		.uleb128 .LVU33
 4376 0094 00       		.uleb128 0
 4377              	.LLST2:
ARM GAS  /var/folders/l5/0x54b2c10074c8bt31ycjvl80000gp/T//cc0aQrPq.s 			page 78


 4378 0095 00000000 		.4byte	.LVL15
 4379 0099 04000000 		.4byte	.LVL16
 4380 009d 0100     		.2byte	0x1
 4381 009f 50       		.byte	0x50
 4382 00a0 04000000 		.4byte	.LVL16
 4383 00a4 08000000 		.4byte	.LFE8
 4384 00a8 0400     		.2byte	0x4
 4385 00aa F3       		.byte	0xf3
 4386 00ab 01       		.uleb128 0x1
 4387 00ac 50       		.byte	0x50
 4388 00ad 9F       		.byte	0x9f
 4389 00ae 00000000 		.4byte	0
 4390 00b2 00000000 		.4byte	0
 4391              	.LVUS5:
 4392 00b6 00       		.uleb128 .LVU66
 4393 00b7 00       		.uleb128 .LVU67
 4394 00b8 00       		.uleb128 .LVU72
 4395 00b9 00       		.uleb128 .LVU73
 4396 00ba 00       		.uleb128 .LVU77
 4397 00bb 00       		.uleb128 .LVU78
 4398              	.LLST5:
 4399 00bc 18000000 		.4byte	.LVL29
 4400 00c0 24000000 		.4byte	.LVL30
 4401 00c4 0100     		.2byte	0x1
 4402 00c6 50       		.byte	0x50
 4403 00c7 44000000 		.4byte	.LVL32
 4404 00cb 50000000 		.4byte	.LVL33
 4405 00cf 0100     		.2byte	0x1
 4406 00d1 50       		.byte	0x50
 4407 00d2 68000000 		.4byte	.LVL35
 4408 00d6 70000000 		.4byte	.LVL36
 4409 00da 0100     		.2byte	0x1
 4410 00dc 50       		.byte	0x50
 4411 00dd 00000000 		.4byte	0
 4412 00e1 00000000 		.4byte	0
 4413              	.LVUS6:
 4414 00e5 00       		.uleb128 .LVU97
 4415 00e6 00       		.uleb128 .LVU99
 4416 00e7 00       		.uleb128 .LVU99
 4417 00e8 00       		.uleb128 .LVU106
 4418 00e9 00       		.uleb128 .LVU106
 4419 00ea 00       		.uleb128 .LVU107
 4420 00eb 00       		.uleb128 .LVU113
 4421 00ec 00       		.uleb128 .LVU114
 4422 00ed 00       		.uleb128 .LVU118
 4423 00ee 00       		.uleb128 .LVU119
 4424 00ef 00       		.uleb128 .LVU133
 4425 00f0 00       		.uleb128 .LVU135
 4426 00f1 00       		.uleb128 .LVU135
 4427 00f2 00       		.uleb128 .LVU142
 4428 00f3 00       		.uleb128 .LVU142
 4429 00f4 00       		.uleb128 .LVU143
 4430 00f5 00       		.uleb128 .LVU171
 4431 00f6 00       		.uleb128 .LVU172
 4432              	.LLST6:
 4433 00f7 D0000000 		.4byte	.LVL42
 4434 00fb D8000000 		.4byte	.LVL44
ARM GAS  /var/folders/l5/0x54b2c10074c8bt31ycjvl80000gp/T//cc0aQrPq.s 			page 79


 4435 00ff 0100     		.2byte	0x1
 4436 0101 50       		.byte	0x50
 4437 0102 D8000000 		.4byte	.LVL44
 4438 0106 08010000 		.4byte	.LVL47
 4439 010a 0100     		.2byte	0x1
 4440 010c 59       		.byte	0x59
 4441 010d 08010000 		.4byte	.LVL47
 4442 0111 10010000 		.4byte	.LVL48
 4443 0115 0100     		.2byte	0x1
 4444 0117 50       		.byte	0x50
 4445 0118 34010000 		.4byte	.LVL52
 4446 011c 40010000 		.4byte	.LVL53
 4447 0120 0100     		.2byte	0x1
 4448 0122 50       		.byte	0x50
 4449 0123 58010000 		.4byte	.LVL55
 4450 0127 60010000 		.4byte	.LVL56
 4451 012b 0100     		.2byte	0x1
 4452 012d 50       		.byte	0x50
 4453 012e AC010000 		.4byte	.LVL62
 4454 0132 B4010000 		.4byte	.LVL64
 4455 0136 0100     		.2byte	0x1
 4456 0138 50       		.byte	0x50
 4457 0139 B4010000 		.4byte	.LVL64
 4458 013d E4010000 		.4byte	.LVL67
 4459 0141 0100     		.2byte	0x1
 4460 0143 59       		.byte	0x59
 4461 0144 E4010000 		.4byte	.LVL67
 4462 0148 EC010000 		.4byte	.LVL68
 4463 014c 0100     		.2byte	0x1
 4464 014e 50       		.byte	0x50
 4465 014f 88020000 		.4byte	.LVL80
 4466 0153 90020000 		.4byte	.LVL81
 4467 0157 0100     		.2byte	0x1
 4468 0159 50       		.byte	0x50
 4469 015a 00000000 		.4byte	0
 4470 015e 00000000 		.4byte	0
 4471              	.LVUS7:
 4472 0162 00       		.uleb128 .LVU90
 4473 0163 00       		.uleb128 .LVU98
 4474 0164 00       		.uleb128 .LVU98
 4475 0165 00       		.uleb128 .LVU100
 4476 0166 00       		.uleb128 .LVU100
 4477 0167 00       		.uleb128 .LVU134
 4478 0168 00       		.uleb128 .LVU134
 4479 0169 00       		.uleb128 .LVU136
 4480 016a 00       		.uleb128 .LVU136
 4481 016b 00       		.uleb128 .LVU148
 4482 016c 00       		.uleb128 .LVU160
 4483 016d 00       		.uleb128 .LVU166
 4484 016e 00       		.uleb128 .LVU166
 4485 016f 00       		.uleb128 .LVU167
 4486 0170 00       		.uleb128 .LVU167
 4487 0171 00       		.uleb128 0
 4488              	.LLST7:
 4489 0172 B4000000 		.4byte	.LVL39
 4490 0176 D4000000 		.4byte	.LVL43
 4491 017a 0300     		.2byte	0x3
ARM GAS  /var/folders/l5/0x54b2c10074c8bt31ycjvl80000gp/T//cc0aQrPq.s 			page 80


 4492 017c 74       		.byte	0x74
 4493 017d 32       		.sleb128 50
 4494 017e 9F       		.byte	0x9f
 4495 017f D4000000 		.4byte	.LVL43
 4496 0183 DB000000 		.4byte	.LVL45-1
 4497 0187 0100     		.2byte	0x1
 4498 0189 51       		.byte	0x51
 4499 018a DB000000 		.4byte	.LVL45-1
 4500 018e B0010000 		.4byte	.LVL63
 4501 0192 0300     		.2byte	0x3
 4502 0194 74       		.byte	0x74
 4503 0195 32       		.sleb128 50
 4504 0196 9F       		.byte	0x9f
 4505 0197 B0010000 		.4byte	.LVL63
 4506 019b B7010000 		.4byte	.LVL65-1
 4507 019f 0100     		.2byte	0x1
 4508 01a1 51       		.byte	0x51
 4509 01a2 B7010000 		.4byte	.LVL65-1
 4510 01a6 04020000 		.4byte	.LVL70
 4511 01aa 0300     		.2byte	0x3
 4512 01ac 74       		.byte	0x74
 4513 01ad 32       		.sleb128 50
 4514 01ae 9F       		.byte	0x9f
 4515 01af 58020000 		.4byte	.LVL75
 4516 01b3 70020000 		.4byte	.LVL78
 4517 01b7 0300     		.2byte	0x3
 4518 01b9 76       		.byte	0x76
 4519 01ba 32       		.sleb128 50
 4520 01bb 9F       		.byte	0x9f
 4521 01bc 70020000 		.4byte	.LVL78
 4522 01c0 77020000 		.4byte	.LVL79-1
 4523 01c4 0100     		.2byte	0x1
 4524 01c6 51       		.byte	0x51
 4525 01c7 77020000 		.4byte	.LVL79-1
 4526 01cb 1C030000 		.4byte	.LFE15
 4527 01cf 0300     		.2byte	0x3
 4528 01d1 76       		.byte	0x76
 4529 01d2 32       		.sleb128 50
 4530 01d3 9F       		.byte	0x9f
 4531 01d4 00000000 		.4byte	0
 4532 01d8 00000000 		.4byte	0
 4533              	.LVUS8:
 4534 01dc 00       		.uleb128 .LVU186
 4535 01dd 00       		.uleb128 .LVU187
 4536 01de 00       		.uleb128 .LVU191
 4537 01df 00       		.uleb128 .LVU192
 4538 01e0 00       		.uleb128 .LVU196
 4539 01e1 00       		.uleb128 .LVU197
 4540              	.LLST8:
 4541 01e2 10000000 		.4byte	.LVL88
 4542 01e6 18000000 		.4byte	.LVL89
 4543 01ea 0100     		.2byte	0x1
 4544 01ec 50       		.byte	0x50
 4545 01ed 30000000 		.4byte	.LVL91
 4546 01f1 38000000 		.4byte	.LVL92
 4547 01f5 0100     		.2byte	0x1
 4548 01f7 50       		.byte	0x50
ARM GAS  /var/folders/l5/0x54b2c10074c8bt31ycjvl80000gp/T//cc0aQrPq.s 			page 81


 4549 01f8 50000000 		.4byte	.LVL94
 4550 01fc 58000000 		.4byte	.LVL95
 4551 0200 0100     		.2byte	0x1
 4552 0202 50       		.byte	0x50
 4553 0203 00000000 		.4byte	0
 4554 0207 00000000 		.4byte	0
 4555              	.LVUS9:
 4556 020b 00       		.uleb128 .LVU202
 4557 020c 00       		.uleb128 .LVU203
 4558 020d 00       		.uleb128 .LVU207
 4559 020e 00       		.uleb128 .LVU208
 4560 020f 00       		.uleb128 .LVU212
 4561 0210 00       		.uleb128 .LVU215
 4562              	.LLST9:
 4563 0211 74000000 		.4byte	.LVL97
 4564 0215 7C000000 		.4byte	.LVL98
 4565 0219 0100     		.2byte	0x1
 4566 021b 50       		.byte	0x50
 4567 021c 98000000 		.4byte	.LVL100
 4568 0220 A0000000 		.4byte	.LVL101
 4569 0224 0100     		.2byte	0x1
 4570 0226 50       		.byte	0x50
 4571 0227 BC000000 		.4byte	.LVL103
 4572 022b C8000000 		.4byte	.LVL104
 4573 022f 0100     		.2byte	0x1
 4574 0231 50       		.byte	0x50
 4575 0232 00000000 		.4byte	0
 4576 0236 00000000 		.4byte	0
 4577              		.section	.debug_aranges,"",%progbits
 4578 0000 5C000000 		.4byte	0x5c
 4579 0004 0200     		.2byte	0x2
 4580 0006 00000000 		.4byte	.Ldebug_info0
 4581 000a 04       		.byte	0x4
 4582 000b 00       		.byte	0
 4583 000c 0000     		.2byte	0
 4584 000e 0000     		.2byte	0
 4585 0010 00000000 		.4byte	.LFB11
 4586 0014 D0000000 		.4byte	.LFE11-.LFB11
 4587 0018 00000000 		.4byte	.LFB10
 4588 001c 08000000 		.4byte	.LFE10-.LFB10
 4589 0020 00000000 		.4byte	.LFB9
 4590 0024 08000000 		.4byte	.LFE9-.LFB9
 4591 0028 00000000 		.4byte	.LFB8
 4592 002c 08000000 		.4byte	.LFE8-.LFB8
 4593 0030 00000000 		.4byte	.LFB7
 4594 0034 08000000 		.4byte	.LFE7-.LFB7
 4595 0038 00000000 		.4byte	.LFB14
 4596 003c 34000000 		.4byte	.LFE14-.LFB14
 4597 0040 00000000 		.4byte	.LFB13
 4598 0044 24000000 		.4byte	.LFE13-.LFB13
 4599 0048 00000000 		.4byte	.LFB15
 4600 004c 1C030000 		.4byte	.LFE15-.LFB15
 4601 0050 00000000 		.4byte	.LFB17
 4602 0054 D0000000 		.4byte	.LFE17-.LFB17
 4603 0058 00000000 		.4byte	0
 4604 005c 00000000 		.4byte	0
 4605              		.section	.debug_ranges,"",%progbits
ARM GAS  /var/folders/l5/0x54b2c10074c8bt31ycjvl80000gp/T//cc0aQrPq.s 			page 82


 4606              	.Ldebug_ranges0:
 4607 0000 68000000 		.4byte	.LBB8
 4608 0004 BC000000 		.4byte	.LBE8
 4609 0008 C0000000 		.4byte	.LBB11
 4610 000c D0000000 		.4byte	.LBE11
 4611 0010 00000000 		.4byte	0
 4612 0014 00000000 		.4byte	0
 4613 0018 00000000 		.4byte	.LFB11
 4614 001c D0000000 		.4byte	.LFE11
 4615 0020 00000000 		.4byte	.LFB10
 4616 0024 08000000 		.4byte	.LFE10
 4617 0028 00000000 		.4byte	.LFB9
 4618 002c 08000000 		.4byte	.LFE9
 4619 0030 00000000 		.4byte	.LFB8
 4620 0034 08000000 		.4byte	.LFE8
 4621 0038 00000000 		.4byte	.LFB7
 4622 003c 08000000 		.4byte	.LFE7
 4623 0040 00000000 		.4byte	.LFB14
 4624 0044 34000000 		.4byte	.LFE14
 4625 0048 00000000 		.4byte	.LFB13
 4626 004c 24000000 		.4byte	.LFE13
 4627 0050 00000000 		.4byte	.LFB15
 4628 0054 1C030000 		.4byte	.LFE15
 4629 0058 00000000 		.4byte	.LFB17
 4630 005c D0000000 		.4byte	.LFE17
 4631 0060 00000000 		.4byte	0
 4632 0064 00000000 		.4byte	0
 4633              		.section	.debug_line,"",%progbits
 4634              	.Ldebug_line0:
 4635 0000 1E050000 		.section	.debug_str,"MS",%progbits,1
 4635      03009701 
 4635      00000201 
 4635      FB0E0D00 
 4635      01010101 
 4636              	.LASF96:
 4637 0000 63665F6F 		.ascii	"cf_off_older\000"
 4637      66665F6F 
 4637      6C646572 
 4637      00
 4638              	.LASF41:
 4639 000d 705F6D73 		.ascii	"p_msg\000"
 4639      6700
 4640              	.LASF81:
 4641 0013 7264796D 		.ascii	"rdymsg\000"
 4641      736700
 4642              	.LASF4:
 4643 001a 5F5F7569 		.ascii	"__uint8_t\000"
 4643      6E74385F 
 4643      7400
 4644              	.LASF67:
 4645 0024 76746C69 		.ascii	"vtlist\000"
 4645      737400
 4646              	.LASF132:
 4647 002b 63684576 		.ascii	"chEvtSignal\000"
 4647      74536967 
 4647      6E616C00 
 4648              	.LASF12:
ARM GAS  /var/folders/l5/0x54b2c10074c8bt31ycjvl80000gp/T//cc0aQrPq.s 			page 83


 4649 0037 6C6F6E67 		.ascii	"long long unsigned int\000"
 4649      206C6F6E 
 4649      6720756E 
 4649      7369676E 
 4649      65642069 
 4650              	.LASF145:
 4651 004e 63684576 		.ascii	"chEvtAddEvents\000"
 4651      74416464 
 4651      4576656E 
 4651      747300
 4652              	.LASF92:
 4653 005d 63685F74 		.ascii	"ch_threadsize\000"
 4653      68726561 
 4653      6473697A 
 4653      6500
 4654              	.LASF82:
 4655 006b 65786974 		.ascii	"exitcode\000"
 4655      636F6465 
 4655      00
 4656              	.LASF114:
 4657 0074 74657374 		.ascii	"test\000"
 4657      00
 4658              	.LASF149:
 4659 0079 63684576 		.ascii	"chEvtWaitAnyTimeout\000"
 4659      74576169 
 4659      74416E79 
 4659      54696D65 
 4659      6F757400 
 4660              	.LASF30:
 4661 008d 705F7072 		.ascii	"p_prio\000"
 4661      696F00
 4662              	.LASF99:
 4663 0094 63665F6F 		.ascii	"cf_off_state\000"
 4663      66665F73 
 4663      74617465 
 4663      00
 4664              	.LASF110:
 4665 00a1 74656172 		.ascii	"teardown\000"
 4665      646F776E 
 4665      00
 4666              	.LASF11:
 4667 00aa 6C6F6E67 		.ascii	"long long int\000"
 4667      206C6F6E 
 4667      6720696E 
 4667      7400
 4668              	.LASF1:
 4669 00b8 7369676E 		.ascii	"signed char\000"
 4669      65642063 
 4669      68617200 
 4670              	.LASF98:
 4671 00c4 63665F6F 		.ascii	"cf_off_stklimit\000"
 4671      66665F73 
 4671      746B6C69 
 4671      6D697400 
 4672              	.LASF150:
 4673 00d4 63684576 		.ascii	"chEvtWaitAllTimeout\000"
 4673      74576169 
ARM GAS  /var/folders/l5/0x54b2c10074c8bt31ycjvl80000gp/T//cc0aQrPq.s 			page 84


 4673      74416C6C 
 4673      54696D65 
 4673      6F757400 
 4674              	.LASF100:
 4675 00e8 63665F6F 		.ascii	"cf_off_flags\000"
 4675      66665F66 
 4675      6C616773 
 4675      00
 4676              	.LASF17:
 4677 00f5 626F6F6C 		.ascii	"bool_t\000"
 4677      5F7400
 4678              	.LASF70:
 4679 00fc 6D5F7175 		.ascii	"m_queue\000"
 4679      65756500 
 4680              	.LASF138:
 4681 0104 74657374 		.ascii	"test_emit_token\000"
 4681      5F656D69 
 4681      745F746F 
 4681      6B656E00 
 4682              	.LASF86:
 4683 0114 63685F69 		.ascii	"ch_identifier\000"
 4683      64656E74 
 4683      69666965 
 4683      7200
 4684              	.LASF135:
 4685 0122 63684576 		.ascii	"chEvtUnregister\000"
 4685      74556E72 
 4685      65676973 
 4685      74657200 
 4686              	.LASF8:
 4687 0132 6C6F6E67 		.ascii	"long int\000"
 4687      20696E74 
 4687      00
 4688              	.LASF123:
 4689 013b 74617267 		.ascii	"target_time\000"
 4689      65745F74 
 4689      696D6500 
 4690              	.LASF19:
 4691 0147 74737461 		.ascii	"tstate_t\000"
 4691      74655F74 
 4691      00
 4692              	.LASF143:
 4693 0150 5F746573 		.ascii	"_test_assert_time_window\000"
 4693      745F6173 
 4693      73657274 
 4693      5F74696D 
 4693      655F7769 
 4694              	.LASF118:
 4695 0169 74657374 		.ascii	"testevt2\000"
 4695      65767432 
 4695      00
 4696              	.LASF146:
 4697 0172 63684576 		.ascii	"chEvtWaitAny\000"
 4697      74576169 
 4697      74416E79 
 4697      00
 4698              	.LASF119:
ARM GAS  /var/folders/l5/0x54b2c10074c8bt31ycjvl80000gp/T//cc0aQrPq.s 			page 85


 4699 017f 74657374 		.ascii	"testevt3\000"
 4699      65767433 
 4699      00
 4700              	.LASF14:
 4701 0188 75696E74 		.ascii	"uint16_t\000"
 4701      31365F74 
 4701      00
 4702              	.LASF104:
 4703 0191 63686465 		.ascii	"chdebug_t\000"
 4703      6275675F 
 4703      7400
 4704              	.LASF112:
 4705 019b 62756666 		.ascii	"buffer\000"
 4705      657200
 4706              	.LASF32:
 4707 01a2 705F6E65 		.ascii	"p_newer\000"
 4707      77657200 
 4708              	.LASF106:
 4709 01aa 5F69646C 		.ascii	"_idle_thread_wa\000"
 4709      655F7468 
 4709      72656164 
 4709      5F776100 
 4710              	.LASF9:
 4711 01ba 5F5F7569 		.ascii	"__uint32_t\000"
 4711      6E743332 
 4711      5F7400
 4712              	.LASF48:
 4713 01c5 72656761 		.ascii	"regarm_t\000"
 4713      726D5F74 
 4713      00
 4714              	.LASF54:
 4715 01ce 76745F70 		.ascii	"vt_prev\000"
 4715      72657600 
 4716              	.LASF130:
 4717 01d6 63684576 		.ascii	"chEvtBroadcastFlags\000"
 4717      7442726F 
 4717      61646361 
 4717      7374466C 
 4717      61677300 
 4718              	.LASF23:
 4719 01ea 6576656E 		.ascii	"eventid_t\000"
 4719      7469645F 
 4719      7400
 4720              	.LASF78:
 4721 01f4 4576656E 		.ascii	"EventSource\000"
 4721      74536F75 
 4721      72636500 
 4722              	.LASF80:
 4723 0200 65766861 		.ascii	"evhandler_t\000"
 4723      6E646C65 
 4723      725F7400 
 4724              	.LASF0:
 4725 020c 756E7369 		.ascii	"unsigned int\000"
 4725      676E6564 
 4725      20696E74 
 4725      00
 4726              	.LASF53:
ARM GAS  /var/folders/l5/0x54b2c10074c8bt31ycjvl80000gp/T//cc0aQrPq.s 			page 86


 4727 0219 76745F6E 		.ascii	"vt_next\000"
 4727      65787400 
 4728              	.LASF10:
 4729 0221 6C6F6E67 		.ascii	"long unsigned int\000"
 4729      20756E73 
 4729      69676E65 
 4729      6420696E 
 4729      7400
 4730              	.LASF139:
 4731 0233 63684576 		.ascii	"chEvtGetAndClearEvents\000"
 4731      74476574 
 4731      416E6443 
 4731      6C656172 
 4731      4576656E 
 4732              	.LASF105:
 4733 024a 63685F64 		.ascii	"ch_debug\000"
 4733      65627567 
 4733      00
 4734              	.LASF115:
 4735 0253 74657374 		.ascii	"test_timer_done\000"
 4735      5F74696D 
 4735      65725F64 
 4735      6F6E6500 
 4736              	.LASF120:
 4737 0263 70617474 		.ascii	"patternevt\000"
 4737      65726E65 
 4737      767400
 4738              	.LASF51:
 4739 026e 76746675 		.ascii	"vtfunc_t\000"
 4739      6E635F74 
 4739      00
 4740              	.LASF108:
 4741 0277 6E616D65 		.ascii	"name\000"
 4741      00
 4742              	.LASF50:
 4743 027c 636F6E74 		.ascii	"context\000"
 4743      65787400 
 4744              	.LASF6:
 4745 0284 73686F72 		.ascii	"short unsigned int\000"
 4745      7420756E 
 4745      7369676E 
 4745      65642069 
 4745      6E7400
 4746              	.LASF133:
 4747 0297 63684576 		.ascii	"chEvtRegisterMask\000"
 4747      74526567 
 4747      69737465 
 4747      724D6173 
 4747      6B00
 4748              	.LASF22:
 4749 02a9 6D73675F 		.ascii	"msg_t\000"
 4749      7400
 4750              	.LASF63:
 4751 02af 725F6E65 		.ascii	"r_newer\000"
 4751      77657200 
 4752              	.LASF74:
 4753 02b7 656C5F6E 		.ascii	"el_next\000"
ARM GAS  /var/folders/l5/0x54b2c10074c8bt31ycjvl80000gp/T//cc0aQrPq.s 			page 87


 4753      65787400 
 4754              	.LASF151:
 4755 02bf 474E5520 		.ascii	"GNU C17 8.3.1 20190703 (release) [gcc-8-branch revi"
 4755      43313720 
 4755      382E332E 
 4755      31203230 
 4755      31393037 
 4756 02f2 73696F6E 		.ascii	"sion 273027] -mcpu=arm1176jz-s -mno-thumb-interwork"
 4756      20323733 
 4756      3032375D 
 4756      202D6D63 
 4756      70753D61 
 4757 0325 202D6D66 		.ascii	" -mfloat-abi=soft -marm -march=armv6kz -ggdb -O2 -f"
 4757      6C6F6174 
 4757      2D616269 
 4757      3D736F66 
 4757      74202D6D 
 4758 0358 6F6D6974 		.ascii	"omit-frame-pointer -ffunction-sections -fdata-secti"
 4758      2D667261 
 4758      6D652D70 
 4758      6F696E74 
 4758      6572202D 
 4759 038b 6F6E7300 		.ascii	"ons\000"
 4760              	.LASF113:
 4761 038f 74687265 		.ascii	"threads\000"
 4761      61647300 
 4762              	.LASF18:
 4763 0397 746D6F64 		.ascii	"tmode_t\000"
 4763      655F7400 
 4764              	.LASF46:
 4765 039f 54687265 		.ascii	"ThreadsList\000"
 4765      6164734C 
 4765      69737400 
 4766              	.LASF24:
 4767 03ab 6576656E 		.ascii	"eventmask_t\000"
 4767      746D6173 
 4767      6B5F7400 
 4768              	.LASF69:
 4769 03b7 4D757465 		.ascii	"Mutex\000"
 4769      7800
 4770              	.LASF47:
 4771 03bd 73746B61 		.ascii	"stkalign_t\000"
 4771      6C69676E 
 4771      5F7400
 4772              	.LASF141:
 4773 03c8 63685468 		.ascii	"chThdCreateStatic\000"
 4773      64437265 
 4773      61746553 
 4773      74617469 
 4773      6300
 4774              	.LASF87:
 4775 03da 63685F7A 		.ascii	"ch_zero\000"
 4775      65726F00 
 4776              	.LASF101:
 4777 03e2 63665F6F 		.ascii	"cf_off_refs\000"
 4777      66665F72 
 4777      65667300 
ARM GAS  /var/folders/l5/0x54b2c10074c8bt31ycjvl80000gp/T//cc0aQrPq.s 			page 88


 4778              	.LASF55:
 4779 03ee 76745F74 		.ascii	"vt_time\000"
 4779      696D6500 
 4780              	.LASF129:
 4781 03f6 65767431 		.ascii	"evt1_setup\000"
 4781      5F736574 
 4781      757000
 4782              	.LASF56:
 4783 0401 76745F66 		.ascii	"vt_func\000"
 4783      756E6300 
 4784              	.LASF136:
 4785 0409 63684576 		.ascii	"chEvtDispatch\000"
 4785      74446973 
 4785      70617463 
 4785      6800
 4786              	.LASF91:
 4787 0417 63685F74 		.ascii	"ch_timesize\000"
 4787      696D6573 
 4787      697A6500 
 4788              	.LASF126:
 4789 0423 65767433 		.ascii	"evt3_setup\000"
 4789      5F736574 
 4789      757000
 4790              	.LASF97:
 4791 042e 63665F6F 		.ascii	"cf_off_name\000"
 4791      66665F6E 
 4791      616D6500 
 4792              	.LASF144:
 4793 043a 74657374 		.ascii	"test_wait_threads\000"
 4793      5F776169 
 4793      745F7468 
 4793      72656164 
 4793      7300
 4794              	.LASF33:
 4795 044c 705F6F6C 		.ascii	"p_older\000"
 4795      64657200 
 4796              	.LASF125:
 4797 0454 74687265 		.ascii	"thread1\000"
 4797      61643100 
 4798              	.LASF122:
 4799 045c 65767432 		.ascii	"evt2_execute\000"
 4799      5F657865 
 4799      63757465 
 4799      00
 4800              	.LASF62:
 4801 0469 725F6374 		.ascii	"r_ctx\000"
 4801      7800
 4802              	.LASF45:
 4803 046f 54687265 		.ascii	"ThreadsQueue\000"
 4803      61647351 
 4803      75657565 
 4803      00
 4804              	.LASF88:
 4805 047c 63685F73 		.ascii	"ch_size\000"
 4805      697A6500 
 4806              	.LASF109:
 4807 0484 73657475 		.ascii	"setup\000"
ARM GAS  /var/folders/l5/0x54b2c10074c8bt31ycjvl80000gp/T//cc0aQrPq.s 			page 89


 4807      7000
 4808              	.LASF137:
 4809 048a 5F746573 		.ascii	"_test_assert_sequence\000"
 4809      745F6173 
 4809      73657274 
 4809      5F736571 
 4809      75656E63 
 4810              	.LASF147:
 4811 04a0 63684576 		.ascii	"chEvtWaitAll\000"
 4811      74576169 
 4811      74416C6C 
 4811      00
 4812              	.LASF65:
 4813 04ad 725F6375 		.ascii	"r_current\000"
 4813      7272656E 
 4813      7400
 4814              	.LASF64:
 4815 04b7 725F6F6C 		.ascii	"r_older\000"
 4815      64657200 
 4816              	.LASF76:
 4817 04bf 656C5F6D 		.ascii	"el_mask\000"
 4817      61736B00 
 4818              	.LASF127:
 4819 04c7 65767432 		.ascii	"evt2_setup\000"
 4819      5F736574 
 4819      757000
 4820              	.LASF20:
 4821 04d2 74726566 		.ascii	"trefs_t\000"
 4821      735F7400 
 4822              	.LASF90:
 4823 04da 63685F70 		.ascii	"ch_ptrsize\000"
 4823      74727369 
 4823      7A6500
 4824              	.LASF29:
 4825 04e5 705F7072 		.ascii	"p_prev\000"
 4825      657600
 4826              	.LASF111:
 4827 04ec 65786563 		.ascii	"execute\000"
 4827      75746500 
 4828              	.LASF21:
 4829 04f4 74707269 		.ascii	"tprio_t\000"
 4829      6F5F7400 
 4830              	.LASF15:
 4831 04fc 696E7433 		.ascii	"int32_t\000"
 4831      325F7400 
 4832              	.LASF2:
 4833 0504 756E7369 		.ascii	"unsigned char\000"
 4833      676E6564 
 4833      20636861 
 4833      7200
 4834              	.LASF142:
 4835 0512 63684576 		.ascii	"chEvtWaitOne\000"
 4835      74576169 
 4835      744F6E65 
 4835      00
 4836              	.LASF75:
 4837 051f 656C5F6C 		.ascii	"el_listener\000"
ARM GAS  /var/folders/l5/0x54b2c10074c8bt31ycjvl80000gp/T//cc0aQrPq.s 			page 90


 4837      69737465 
 4837      6E657200 
 4838              	.LASF121:
 4839 052b 65767433 		.ascii	"evt3_execute\000"
 4839      5F657865 
 4839      63757465 
 4839      00
 4840              	.LASF77:
 4841 0538 656C5F66 		.ascii	"el_flags\000"
 4841      6C616773 
 4841      00
 4842              	.LASF43:
 4843 0541 705F6D74 		.ascii	"p_mtxlist\000"
 4843      786C6973 
 4843      7400
 4844              	.LASF3:
 4845 054b 73686F72 		.ascii	"short int\000"
 4845      7420696E 
 4845      7400
 4846              	.LASF35:
 4847 0555 705F7374 		.ascii	"p_state\000"
 4847      61746500 
 4848              	.LASF103:
 4849 055d 63665F6F 		.ascii	"cf_off_time\000"
 4849      66665F74 
 4849      696D6500 
 4850              	.LASF61:
 4851 0569 725F7072 		.ascii	"r_prio\000"
 4851      696F00
 4852              	.LASF84:
 4853 0570 65776D61 		.ascii	"ewmask\000"
 4853      736B00
 4854              	.LASF28:
 4855 0577 705F6E65 		.ascii	"p_next\000"
 4855      787400
 4856              	.LASF102:
 4857 057e 63665F6F 		.ascii	"cf_off_preempt\000"
 4857      66665F70 
 4857      7265656D 
 4857      707400
 4858              	.LASF36:
 4859 058d 705F666C 		.ascii	"p_flags\000"
 4859      61677300 
 4860              	.LASF27:
 4861 0595 54687265 		.ascii	"Thread\000"
 4861      616400
 4862              	.LASF95:
 4863 059c 63665F6F 		.ascii	"cf_off_newer\000"
 4863      66665F6E 
 4863      65776572 
 4863      00
 4864              	.LASF107:
 4865 05a9 74657374 		.ascii	"testcase\000"
 4865      63617365 
 4865      00
 4866              	.LASF42:
 4867 05b2 705F6570 		.ascii	"p_epending\000"
ARM GAS  /var/folders/l5/0x54b2c10074c8bt31ycjvl80000gp/T//cc0aQrPq.s 			page 91


 4867      656E6469 
 4867      6E6700
 4868              	.LASF131:
 4869 05bd 63685468 		.ascii	"chThdSleep\000"
 4869      64536C65 
 4869      657000
 4870              	.LASF152:
 4871 05c8 2E2E2F2E 		.ascii	"../../test/testevt.c\000"
 4871      2E2F7465 
 4871      73742F74 
 4871      65737465 
 4871      76742E63 
 4872              	.LASF117:
 4873 05dd 74657374 		.ascii	"testevt1\000"
 4873      65767431 
 4873      00
 4874              	.LASF116:
 4875 05e6 6576686E 		.ascii	"evhndl\000"
 4875      646C00
 4876              	.LASF16:
 4877 05ed 75696E74 		.ascii	"uint32_t\000"
 4877      33325F74 
 4877      00
 4878              	.LASF93:
 4879 05f6 63665F6F 		.ascii	"cf_off_prio\000"
 4879      66665F70 
 4879      72696F00 
 4880              	.LASF60:
 4881 0602 725F7175 		.ascii	"r_queue\000"
 4881      65756500 
 4882              	.LASF52:
 4883 060a 56697274 		.ascii	"VirtualTimer\000"
 4883      75616C54 
 4883      696D6572 
 4883      00
 4884              	.LASF85:
 4885 0617 63686172 		.ascii	"char\000"
 4885      00
 4886              	.LASF154:
 4887 061c 74657374 		.ascii	"test_buffers\000"
 4887      5F627566 
 4887      66657273 
 4887      00
 4888              	.LASF5:
 4889 0629 5F5F7569 		.ascii	"__uint16_t\000"
 4889      6E743136 
 4889      5F7400
 4890              	.LASF124:
 4891 0634 74687265 		.ascii	"thread2\000"
 4891      61643200 
 4892              	.LASF72:
 4893 063c 6D5F6E65 		.ascii	"m_next\000"
 4893      787400
 4894              	.LASF26:
 4895 0643 73797374 		.ascii	"systime_t\000"
 4895      696D655F 
 4895      7400
ARM GAS  /var/folders/l5/0x54b2c10074c8bt31ycjvl80000gp/T//cc0aQrPq.s 			page 92


 4896              	.LASF44:
 4897 064d 705F7265 		.ascii	"p_realprio\000"
 4897      616C7072 
 4897      696F00
 4898              	.LASF7:
 4899 0658 5F5F696E 		.ascii	"__int32_t\000"
 4899      7433325F 
 4899      7400
 4900              	.LASF38:
 4901 0662 705F7469 		.ascii	"p_time\000"
 4901      6D6500
 4902              	.LASF49:
 4903 0669 696E7463 		.ascii	"intctx\000"
 4903      747800
 4904              	.LASF40:
 4905 0670 705F6D73 		.ascii	"p_msgqueue\000"
 4905      67717565 
 4905      756500
 4906              	.LASF57:
 4907 067b 76745F70 		.ascii	"vt_par\000"
 4907      617200
 4908              	.LASF25:
 4909 0682 666C6167 		.ascii	"flagsmask_t\000"
 4909      736D6173 
 4909      6B5F7400 
 4910              	.LASF94:
 4911 068e 63665F6F 		.ascii	"cf_off_ctx\000"
 4911      66665F63 
 4911      747800
 4912              	.LASF37:
 4913 0699 705F7265 		.ascii	"p_refs\000"
 4913      667300
 4914              	.LASF66:
 4915 06a0 52656164 		.ascii	"ReadyList\000"
 4915      794C6973 
 4915      7400
 4916              	.LASF68:
 4917 06aa 726C6973 		.ascii	"rlist\000"
 4917      7400
 4918              	.LASF13:
 4919 06b0 75696E74 		.ascii	"uint8_t\000"
 4919      385F7400 
 4920              	.LASF73:
 4921 06b8 4576656E 		.ascii	"EventListener\000"
 4921      744C6973 
 4921      74656E65 
 4921      7200
 4922              	.LASF148:
 4923 06c6 63684576 		.ascii	"chEvtWaitOneTimeout\000"
 4923      74576169 
 4923      744F6E65 
 4923      54696D65 
 4923      6F757400 
 4924              	.LASF83:
 4925 06da 77746F62 		.ascii	"wtobjp\000"
 4925      6A7000
 4926              	.LASF34:
ARM GAS  /var/folders/l5/0x54b2c10074c8bt31ycjvl80000gp/T//cc0aQrPq.s 			page 93


 4927 06e1 705F6E61 		.ascii	"p_name\000"
 4927      6D6500
 4928              	.LASF134:
 4929 06e8 5F746573 		.ascii	"_test_assert\000"
 4929      745F6173 
 4929      73657274 
 4929      00
 4930              	.LASF58:
 4931 06f5 76745F73 		.ascii	"vt_systime\000"
 4931      79737469 
 4931      6D6500
 4932              	.LASF79:
 4933 0700 65735F6E 		.ascii	"es_next\000"
 4933      65787400 
 4934              	.LASF89:
 4935 0708 63685F76 		.ascii	"ch_version\000"
 4935      65727369 
 4935      6F6E00
 4936              	.LASF153:
 4937 0713 2F557365 		.ascii	"/Users/fernandoguirado/eclipse-workspace/ChibiOS-RP"
 4937      72732F66 
 4937      65726E61 
 4937      6E646F67 
 4937      75697261 
 4938 0746 692D636F 		.ascii	"i-copia/demos/timers\000"
 4938      7069612F 
 4938      64656D6F 
 4938      732F7469 
 4938      6D657273 
 4939              	.LASF59:
 4940 075b 56544C69 		.ascii	"VTList\000"
 4940      737400
 4941              	.LASF71:
 4942 0762 6D5F6F77 		.ascii	"m_owner\000"
 4942      6E657200 
 4943              	.LASF140:
 4944 076a 74657374 		.ascii	"test_wait_tick\000"
 4944      5F776169 
 4944      745F7469 
 4944      636B00
 4945              	.LASF128:
 4946 0779 65767431 		.ascii	"evt1_execute\000"
 4946      5F657865 
 4946      63757465 
 4946      00
 4947              	.LASF31:
 4948 0786 705F6374 		.ascii	"p_ctx\000"
 4948      7800
 4949              	.LASF39:
 4950 078c 705F7761 		.ascii	"p_waiting\000"
 4950      6974696E 
 4950      6700
 4951              		.ident	"GCC: (GNU Tools for Arm Embedded Processors 8-2019-q3-update) 8.3.1 20190703 (release) [gc
ARM GAS  /var/folders/l5/0x54b2c10074c8bt31ycjvl80000gp/T//cc0aQrPq.s 			page 94


DEFINED SYMBOLS
                            *ABS*:0000000000000000 testevt.c
/var/folders/l5/0x54b2c10074c8bt31ycjvl80000gp/T//cc0aQrPq.s:16     .text.evt1_execute:0000000000000000 $a
/var/folders/l5/0x54b2c10074c8bt31ycjvl80000gp/T//cc0aQrPq.s:22     .text.evt1_execute:0000000000000000 evt1_execute
/var/folders/l5/0x54b2c10074c8bt31ycjvl80000gp/T//cc0aQrPq.s:121    .text.evt1_execute:00000000000000c4 $d
/var/folders/l5/0x54b2c10074c8bt31ycjvl80000gp/T//cc0aQrPq.s:128    .text.h3:0000000000000000 $a
/var/folders/l5/0x54b2c10074c8bt31ycjvl80000gp/T//cc0aQrPq.s:133    .text.h3:0000000000000000 h3
/var/folders/l5/0x54b2c10074c8bt31ycjvl80000gp/T//cc0aQrPq.s:152    .text.h2:0000000000000000 $a
/var/folders/l5/0x54b2c10074c8bt31ycjvl80000gp/T//cc0aQrPq.s:157    .text.h2:0000000000000000 h2
/var/folders/l5/0x54b2c10074c8bt31ycjvl80000gp/T//cc0aQrPq.s:176    .text.h1:0000000000000000 $a
/var/folders/l5/0x54b2c10074c8bt31ycjvl80000gp/T//cc0aQrPq.s:181    .text.h1:0000000000000000 h1
/var/folders/l5/0x54b2c10074c8bt31ycjvl80000gp/T//cc0aQrPq.s:200    .text.evt1_setup:0000000000000000 $a
/var/folders/l5/0x54b2c10074c8bt31ycjvl80000gp/T//cc0aQrPq.s:205    .text.evt1_setup:0000000000000000 evt1_setup
/var/folders/l5/0x54b2c10074c8bt31ycjvl80000gp/T//cc0aQrPq.s:220    .text.evt2_setup:0000000000000000 $a
/var/folders/l5/0x54b2c10074c8bt31ycjvl80000gp/T//cc0aQrPq.s:225    .text.evt2_setup:0000000000000000 evt2_setup
/var/folders/l5/0x54b2c10074c8bt31ycjvl80000gp/T//cc0aQrPq.s:236    .text.evt3_setup:0000000000000000 $a
/var/folders/l5/0x54b2c10074c8bt31ycjvl80000gp/T//cc0aQrPq.s:241    .text.evt3_setup:0000000000000000 evt3_setup
/var/folders/l5/0x54b2c10074c8bt31ycjvl80000gp/T//cc0aQrPq.s:252    .text.thread2:0000000000000000 $a
/var/folders/l5/0x54b2c10074c8bt31ycjvl80000gp/T//cc0aQrPq.s:257    .text.thread2:0000000000000000 thread2
/var/folders/l5/0x54b2c10074c8bt31ycjvl80000gp/T//cc0aQrPq.s:294    .text.thread2:000000000000002c $d
/var/folders/l5/0x54b2c10074c8bt31ycjvl80000gp/T//cc0aQrPq.s:300    .text.thread1:0000000000000000 $a
/var/folders/l5/0x54b2c10074c8bt31ycjvl80000gp/T//cc0aQrPq.s:305    .text.thread1:0000000000000000 thread1
/var/folders/l5/0x54b2c10074c8bt31ycjvl80000gp/T//cc0aQrPq.s:339    .text.evt2_execute:0000000000000000 $a
/var/folders/l5/0x54b2c10074c8bt31ycjvl80000gp/T//cc0aQrPq.s:344    .text.evt2_execute:0000000000000000 evt2_execute
/var/folders/l5/0x54b2c10074c8bt31ycjvl80000gp/T//cc0aQrPq.s:746    .text.evt2_execute:00000000000002f8 $d
/var/folders/l5/0x54b2c10074c8bt31ycjvl80000gp/T//cc0aQrPq.s:761    .text.evt3_execute:0000000000000000 $a
/var/folders/l5/0x54b2c10074c8bt31ycjvl80000gp/T//cc0aQrPq.s:766    .text.evt3_execute:0000000000000000 evt3_execute
/var/folders/l5/0x54b2c10074c8bt31ycjvl80000gp/T//cc0aQrPq.s:933    .rodata.patternevt:0000000000000000 patternevt
/var/folders/l5/0x54b2c10074c8bt31ycjvl80000gp/T//cc0aQrPq.s:970    .rodata.testevt3:0000000000000000 testevt3
/var/folders/l5/0x54b2c10074c8bt31ycjvl80000gp/T//cc0aQrPq.s:961    .rodata.testevt2:0000000000000000 testevt2
/var/folders/l5/0x54b2c10074c8bt31ycjvl80000gp/T//cc0aQrPq.s:952    .rodata.testevt1:0000000000000000 testevt1
/var/folders/l5/0x54b2c10074c8bt31ycjvl80000gp/T//cc0aQrPq.s:899    .data.es1:0000000000000000 $d
/var/folders/l5/0x54b2c10074c8bt31ycjvl80000gp/T//cc0aQrPq.s:903    .data.es1:0000000000000000 es1
/var/folders/l5/0x54b2c10074c8bt31ycjvl80000gp/T//cc0aQrPq.s:906    .data.es2:0000000000000000 $d
/var/folders/l5/0x54b2c10074c8bt31ycjvl80000gp/T//cc0aQrPq.s:910    .data.es2:0000000000000000 es2
/var/folders/l5/0x54b2c10074c8bt31ycjvl80000gp/T//cc0aQrPq.s:913    .rodata.evhndl:0000000000000000 $d
/var/folders/l5/0x54b2c10074c8bt31ycjvl80000gp/T//cc0aQrPq.s:917    .rodata.evhndl:0000000000000000 evhndl
/var/folders/l5/0x54b2c10074c8bt31ycjvl80000gp/T//cc0aQrPq.s:922    .rodata.evt1_execute.str1.4:0000000000000000 $d
/var/folders/l5/0x54b2c10074c8bt31ycjvl80000gp/T//cc0aQrPq.s:926    .rodata.evt2_execute.str1.4:0000000000000000 $d
/var/folders/l5/0x54b2c10074c8bt31ycjvl80000gp/T//cc0aQrPq.s:930    .rodata.patternevt:0000000000000000 $d
/var/folders/l5/0x54b2c10074c8bt31ycjvl80000gp/T//cc0aQrPq.s:939    .rodata.str1.4:0000000000000000 $d
/var/folders/l5/0x54b2c10074c8bt31ycjvl80000gp/T//cc0aQrPq.s:949    .rodata.testevt1:0000000000000000 $d
/var/folders/l5/0x54b2c10074c8bt31ycjvl80000gp/T//cc0aQrPq.s:958    .rodata.testevt2:0000000000000000 $d
/var/folders/l5/0x54b2c10074c8bt31ycjvl80000gp/T//cc0aQrPq.s:967    .rodata.testevt3:0000000000000000 $d

UNDEFINED SYMBOLS
chEvtRegisterMask
_test_assert
chEvtUnregister
chEvtDispatch
_test_assert_sequence
test_emit_token
chEvtGetAndClearEvents
chEvtBroadcastFlags
chThdSleep
chEvtSignal
chEvtAddEvents
ARM GAS  /var/folders/l5/0x54b2c10074c8bt31ycjvl80000gp/T//cc0aQrPq.s 			page 95


chEvtWaitOne
test_wait_tick
chThdCreateStatic
_test_assert_time_window
test_wait_threads
chEvtWaitAny
chEvtWaitAll
rlist
wa
vtlist
threads
chEvtWaitOneTimeout
chEvtWaitAnyTimeout
chEvtWaitAllTimeout
