ARM GAS  /var/folders/l5/0x54b2c10074c8bt31ycjvl80000gp/T//ccnDt0u1.s 			page 1


   1              		.cpu arm1176jz-s
   2              		.eabi_attribute 20, 1
   3              		.eabi_attribute 21, 1
   4              		.eabi_attribute 23, 3
   5              		.eabi_attribute 24, 1
   6              		.eabi_attribute 25, 1
   7              		.eabi_attribute 26, 1
   8              		.eabi_attribute 30, 2
   9              		.eabi_attribute 34, 1
  10              		.eabi_attribute 18, 4
  11              		.file	"test.c"
  12              		.text
  13              	.Ltext0:
  14              		.cfi_sections	.debug_frame
  15              		.section	.text.tmr,"ax",%progbits
  16              		.align	2
  17              		.arch armv6kz
  18              		.syntax unified
  19              		.arm
  20              		.fpu softvfp
  21              		.type	tmr, %function
  22              	tmr:
  23              	.LVL0:
  24              	.LFB21:
  25              		.file 1 "../../test/test.c"
  26              		.loc 1 265 26 view -0
  27              		.cfi_startproc
  28              		@ args = 0, pretend = 0, frame = 0
  29              		@ frame_needed = 0, uses_anonymous_args = 0
  30              		@ link register save eliminated.
  31              		.loc 1 266 3 view .LVU1
  32              		.loc 1 268 3 view .LVU2
  33              		.loc 1 268 19 is_stmt 0 view .LVU3
  34 0000 0120A0E3 		mov	r2, #1
  35 0004 04309FE5 		ldr	r3, .L3
  36 0008 002083E5 		str	r2, [r3]
  37              		.loc 1 269 1 view .LVU4
  38 000c 1EFF2FE1 		bx	lr
  39              	.L4:
  40              		.align	2
  41              	.L3:
  42 0010 00000000 		.word	test_timer_done
  43              		.cfi_endproc
  44              	.LFE21:
  45              		.size	tmr, .-tmr
  46              		.section	.text.print_line,"ax",%progbits
  47              		.align	2
  48              		.syntax unified
  49              		.arm
  50              		.fpu softvfp
  51              		.type	print_line, %function
  52              	print_line:
  53              	.LFB24:
  54              		.loc 1 304 30 is_stmt 1 view -0
  55              		.cfi_startproc
  56              		@ args = 0, pretend = 0, frame = 0
  57              		@ frame_needed = 0, uses_anonymous_args = 0
ARM GAS  /var/folders/l5/0x54b2c10074c8bt31ycjvl80000gp/T//ccnDt0u1.s 			page 2


  58              		.loc 1 305 3 view .LVU6
  59              		.loc 1 307 3 view .LVU7
  60              	.LVL1:
  61              		.loc 1 304 30 is_stmt 0 view .LVU8
  62 0000 70402DE9 		push	{r4, r5, r6, lr}
  63              		.cfi_def_cfa_offset 16
  64              		.cfi_offset 4, -16
  65              		.cfi_offset 5, -12
  66              		.cfi_offset 6, -8
  67              		.cfi_offset 14, -4
  68              		.loc 1 304 30 view .LVU9
  69 0004 4C40A0E3 		mov	r4, #76
  70 0008 34509FE5 		ldr	r5, .L9
  71              	.LVL2:
  72              	.L6:
  73              		.loc 1 308 5 is_stmt 1 discriminator 3 view .LVU10
  74 000c 000095E5 		ldr	r0, [r5]
  75 0010 2D10A0E3 		mov	r1, #45
  76 0014 003090E5 		ldr	r3, [r0]
  77 0018 083093E5 		ldr	r3, [r3, #8]
  78 001c 33FF2FE1 		blx	r3
  79              	.LVL3:
  80              		.loc 1 307 3 is_stmt 0 discriminator 3 view .LVU11
  81 0020 014054E2 		subs	r4, r4, #1
  82              	.LVL4:
  83              		.loc 1 307 3 discriminator 3 view .LVU12
  84 0024 F8FFFF1A 		bne	.L6
  85              		.loc 1 309 3 is_stmt 1 view .LVU13
  86 0028 000095E5 		ldr	r0, [r5]
  87 002c 0220A0E3 		mov	r2, #2
  88              		.loc 1 310 1 is_stmt 0 view .LVU14
  89 0030 7040BDE8 		pop	{r4, r5, r6, lr}
  90              		.cfi_restore 14
  91              		.cfi_restore 6
  92              		.cfi_restore 5
  93              		.cfi_restore 4
  94              		.cfi_def_cfa_offset 0
  95              	.LVL5:
  96              		.loc 1 309 3 view .LVU15
  97 0034 003090E5 		ldr	r3, [r0]
  98 0038 08109FE5 		ldr	r1, .L9+4
  99 003c 003093E5 		ldr	r3, [r3]
 100 0040 13FF2FE1 		bx	r3
 101              	.LVL6:
 102              	.L10:
 103              		.align	2
 104              	.L9:
 105 0044 00000000 		.word	.LANCHOR0
 106 0048 00000000 		.word	.LC0
 107              		.cfi_endproc
 108              	.LFE24:
 109              		.size	print_line, .-print_line
 110              		.section	.text.test_printn,"ax",%progbits
 111              		.align	2
 112              		.global	test_printn
 113              		.syntax unified
 114              		.arm
ARM GAS  /var/folders/l5/0x54b2c10074c8bt31ycjvl80000gp/T//ccnDt0u1.s 			page 3


 115              		.fpu softvfp
 116              		.type	test_printn, %function
 117              	test_printn:
 118              	.LVL7:
 119              	.LFB7:
 120              		.loc 1 95 30 is_stmt 1 view -0
 121              		.cfi_startproc
 122              		@ args = 0, pretend = 0, frame = 16
 123              		@ frame_needed = 0, uses_anonymous_args = 0
 124              		.loc 1 96 3 view .LVU17
 125              		.loc 1 98 3 view .LVU18
 126              		.loc 1 98 6 is_stmt 0 view .LVU19
 127 0000 000050E3 		cmp	r0, #0
 128              		.loc 1 98 6 view .LVU20
 129 0004 0500001A 		bne	.L15
 130              		.loc 1 99 5 is_stmt 1 view .LVU21
 131 0008 8C309FE5 		ldr	r3, .L20
 132 000c 3010A0E3 		mov	r1, #48
 133 0010 000093E5 		ldr	r0, [r3]
 134              	.LVL8:
 135              		.loc 1 99 5 is_stmt 0 view .LVU22
 136 0014 003090E5 		ldr	r3, [r0]
 137 0018 083093E5 		ldr	r3, [r3, #8]
 138 001c 13FF2FE1 		bx	r3
 139              	.LVL9:
 140              	.L15:
 141              		.loc 1 95 30 view .LVU23
 142 0020 70402DE9 		push	{r4, r5, r6, lr}
 143              		.cfi_def_cfa_offset 16
 144              		.cfi_offset 4, -16
 145              		.cfi_offset 5, -12
 146              		.cfi_offset 6, -8
 147              		.cfi_offset 14, -4
 148 0024 10D04DE2 		sub	sp, sp, #16
 149              		.cfi_def_cfa_offset 32
 150              	.LBB50:
 151              	.LBB51:
 152              		.loc 1 101 7 view .LVU24
 153 0028 0D50A0E1 		mov	r5, sp
 154              		.loc 1 103 17 view .LVU25
 155 002c 6CC09FE5 		ldr	ip, .L20+4
 156              		.loc 1 101 7 view .LVU26
 157 0030 0540A0E1 		mov	r4, r5
 158 0034 010000EA 		b	.L12
 159              	.LVL10:
 160              	.L16:
 161              		.loc 1 102 11 view .LVU27
 162 0038 0240A0E1 		mov	r4, r2
 163              		.loc 1 103 32 view .LVU28
 164 003c 0300A0E1 		mov	r0, r3
 165              	.LVL11:
 166              	.L12:
 167              		.loc 1 103 7 is_stmt 1 view .LVU29
 168              		.loc 1 103 9 is_stmt 0 view .LVU30
 169 0040 0420A0E1 		mov	r2, r4
 170              	.LVL12:
 171              		.loc 1 103 17 view .LVU31
ARM GAS  /var/folders/l5/0x54b2c10074c8bt31ycjvl80000gp/T//ccnDt0u1.s 			page 4


 172 0044 9C1083E0 		umull	r1, r3, ip, r0
 173 0048 A331A0E1 		lsr	r3, r3, #3
 174 004c 031183E0 		add	r1, r3, r3, lsl #2
 175 0050 811040E0 		sub	r1, r0, r1, lsl #1
 176              		.loc 1 103 23 view .LVU32
 177 0054 301081E2 		add	r1, r1, #48
 178 0058 7110EFE6 		uxtb	r1, r1
 179              		.loc 1 102 11 view .LVU33
 180 005c 090050E3 		cmp	r0, #9
 181              		.loc 1 103 12 view .LVU34
 182 0060 0110C2E4 		strb	r1, [r2], #1
 183              	.LVL13:
 184              		.loc 1 102 11 view .LVU35
 185 0064 F3FFFF8A 		bhi	.L16
 186              		.loc 1 104 11 view .LVU36
 187 0068 050052E1 		cmp	r2, r5
 188 006c 0800009A 		bls	.L11
 189              		.loc 1 104 11 view .LVU37
 190 0070 24609FE5 		ldr	r6, .L20
 191 0074 000000EA 		b	.L14
 192              	.LVL14:
 193              	.L19:
 194              		.loc 1 104 11 view .LVU38
 195 0078 011074E5 		ldrb	r1, [r4, #-1]!	@ zero_extendqisi2
 196              	.LVL15:
 197              	.L14:
 198              		.loc 1 105 7 is_stmt 1 view .LVU39
 199 007c 000096E5 		ldr	r0, [r6]
 200              	.LVL16:
 201              		.loc 1 105 7 is_stmt 0 view .LVU40
 202 0080 003090E5 		ldr	r3, [r0]
 203 0084 083093E5 		ldr	r3, [r3, #8]
 204 0088 33FF2FE1 		blx	r3
 205              	.LVL17:
 206              		.loc 1 104 11 view .LVU41
 207 008c 040055E1 		cmp	r5, r4
 208 0090 F8FFFF1A 		bne	.L19
 209              	.LVL18:
 210              	.L11:
 211              		.loc 1 104 11 view .LVU42
 212              	.LBE51:
 213              	.LBE50:
 214              		.loc 1 107 1 view .LVU43
 215 0094 10D08DE2 		add	sp, sp, #16
 216              		.cfi_def_cfa_offset 16
 217              		@ sp needed
 218 0098 7080BDE8 		pop	{r4, r5, r6, pc}
 219              	.L21:
 220              		.align	2
 221              	.L20:
 222 009c 00000000 		.word	.LANCHOR0
 223 00a0 CDCCCCCC 		.word	-858993459
 224              		.cfi_endproc
 225              	.LFE7:
 226              		.size	test_printn, .-test_printn
 227              		.section	.text.test_print,"ax",%progbits
 228              		.align	2
ARM GAS  /var/folders/l5/0x54b2c10074c8bt31ycjvl80000gp/T//ccnDt0u1.s 			page 5


 229              		.global	test_print
 230              		.syntax unified
 231              		.arm
 232              		.fpu softvfp
 233              		.type	test_print, %function
 234              	test_print:
 235              	.LVL19:
 236              	.LFB8:
 237              		.loc 1 114 35 is_stmt 1 view -0
 238              		.cfi_startproc
 239              		@ args = 0, pretend = 0, frame = 0
 240              		@ frame_needed = 0, uses_anonymous_args = 0
 241              		.loc 1 116 3 view .LVU45
 242              		.loc 1 116 10 is_stmt 0 view .LVU46
 243 0000 0010D0E5 		ldrb	r1, [r0]	@ zero_extendqisi2
 244              		.loc 1 116 9 view .LVU47
 245 0004 000051E3 		cmp	r1, #0
 246 0008 1EFF2F01 		bxeq	lr
 247              		.loc 1 114 35 view .LVU48
 248 000c 70402DE9 		push	{r4, r5, r6, lr}
 249              		.cfi_def_cfa_offset 16
 250              		.cfi_offset 4, -16
 251              		.cfi_offset 5, -12
 252              		.cfi_offset 6, -8
 253              		.cfi_offset 14, -4
 254 0010 0040A0E1 		mov	r4, r0
 255 0014 1C509FE5 		ldr	r5, .L33
 256              	.LVL20:
 257              	.L24:
 258              		.loc 1 117 5 is_stmt 1 view .LVU49
 259 0018 000095E5 		ldr	r0, [r5]
 260              		.loc 1 117 5 is_stmt 0 view .LVU50
 261 001c 003090E5 		ldr	r3, [r0]
 262 0020 083093E5 		ldr	r3, [r3, #8]
 263 0024 33FF2FE1 		blx	r3
 264              	.LVL21:
 265              		.loc 1 116 10 view .LVU51
 266 0028 0110F4E5 		ldrb	r1, [r4, #1]!	@ zero_extendqisi2
 267              	.LVL22:
 268              		.loc 1 116 9 view .LVU52
 269 002c 000051E3 		cmp	r1, #0
 270 0030 F8FFFF1A 		bne	.L24
 271 0034 7080BDE8 		pop	{r4, r5, r6, pc}
 272              	.L34:
 273              		.align	2
 274              	.L33:
 275 0038 00000000 		.word	.LANCHOR0
 276              		.cfi_endproc
 277              	.LFE8:
 278              		.size	test_print, .-test_print
 279              		.section	.text.test_println,"ax",%progbits
 280              		.align	2
 281              		.global	test_println
 282              		.syntax unified
 283              		.arm
 284              		.fpu softvfp
 285              		.type	test_println, %function
ARM GAS  /var/folders/l5/0x54b2c10074c8bt31ycjvl80000gp/T//ccnDt0u1.s 			page 6


 286              	test_println:
 287              	.LVL23:
 288              	.LFB9:
 289              		.loc 1 125 37 is_stmt 1 view -0
 290              		.cfi_startproc
 291              		@ args = 0, pretend = 0, frame = 0
 292              		@ frame_needed = 0, uses_anonymous_args = 0
 293              		.loc 1 127 3 view .LVU54
 294              	.LBB52:
 295              	.LBI52:
 296              		.loc 1 114 6 view .LVU55
 297              	.LBB53:
 298              		.loc 1 116 3 view .LVU56
 299              		.loc 1 116 3 is_stmt 0 view .LVU57
 300              	.LBE53:
 301              	.LBE52:
 302              		.loc 1 125 37 view .LVU58
 303 0000 70402DE9 		push	{r4, r5, r6, lr}
 304              		.cfi_def_cfa_offset 16
 305              		.cfi_offset 4, -16
 306              		.cfi_offset 5, -12
 307              		.cfi_offset 6, -8
 308              		.cfi_offset 14, -4
 309              	.LBB55:
 310              	.LBB54:
 311              		.loc 1 116 10 view .LVU59
 312 0004 0010D0E5 		ldrb	r1, [r0]	@ zero_extendqisi2
 313              		.loc 1 116 9 view .LVU60
 314 0008 000051E3 		cmp	r1, #0
 315 000c 40509F05 		ldreq	r5, .L43
 316 0010 0800000A 		beq	.L36
 317 0014 0040A0E1 		mov	r4, r0
 318 0018 34509FE5 		ldr	r5, .L43
 319              	.LVL24:
 320              	.L37:
 321              		.loc 1 117 5 is_stmt 1 view .LVU61
 322 001c 000095E5 		ldr	r0, [r5]
 323              		.loc 1 117 5 is_stmt 0 view .LVU62
 324 0020 003090E5 		ldr	r3, [r0]
 325 0024 083093E5 		ldr	r3, [r3, #8]
 326 0028 33FF2FE1 		blx	r3
 327              	.LVL25:
 328              		.loc 1 116 10 view .LVU63
 329 002c 0110F4E5 		ldrb	r1, [r4, #1]!	@ zero_extendqisi2
 330              	.LVL26:
 331              		.loc 1 116 9 view .LVU64
 332 0030 000051E3 		cmp	r1, #0
 333 0034 F8FFFF1A 		bne	.L37
 334              	.LVL27:
 335              	.L36:
 336              		.loc 1 116 9 view .LVU65
 337              	.LBE54:
 338              	.LBE55:
 339              		.loc 1 128 3 is_stmt 1 view .LVU66
 340 0038 000095E5 		ldr	r0, [r5]
 341 003c 0220A0E3 		mov	r2, #2
 342              		.loc 1 129 1 is_stmt 0 view .LVU67
ARM GAS  /var/folders/l5/0x54b2c10074c8bt31ycjvl80000gp/T//ccnDt0u1.s 			page 7


 343 0040 7040BDE8 		pop	{r4, r5, r6, lr}
 344              		.cfi_restore 14
 345              		.cfi_restore 6
 346              		.cfi_restore 5
 347              		.cfi_restore 4
 348              		.cfi_def_cfa_offset 0
 349              		.loc 1 128 3 view .LVU68
 350 0044 003090E5 		ldr	r3, [r0]
 351 0048 08109FE5 		ldr	r1, .L43+4
 352 004c 003093E5 		ldr	r3, [r3]
 353 0050 13FF2FE1 		bx	r3
 354              	.LVL28:
 355              	.L44:
 356              		.align	2
 357              	.L43:
 358 0054 00000000 		.word	.LANCHOR0
 359 0058 00000000 		.word	.LC0
 360              		.cfi_endproc
 361              	.LFE9:
 362              		.size	test_println, .-test_println
 363              		.section	.text.test_emit_token,"ax",%progbits
 364              		.align	2
 365              		.global	test_emit_token
 366              		.syntax unified
 367              		.arm
 368              		.fpu softvfp
 369              		.type	test_emit_token, %function
 370              	test_emit_token:
 371              	.LVL29:
 372              	.LFB12:
 373              		.loc 1 151 34 is_stmt 1 view -0
 374              		.cfi_startproc
 375              		@ args = 0, pretend = 0, frame = 0
 376              		@ frame_needed = 0, uses_anonymous_args = 0
 377              		@ link register save eliminated.
 378              		.loc 1 153 3 view .LVU70
 379              		.syntax divided
 380              	@ 153 "../../test/test.c" 1
 381 0000 9FF021E3 		msr     CPSR_c, #0x9F
 382              	@ 0 "" 2
 383              		.loc 1 153 3 view .LVU71
 384              		.loc 1 153 14 view .LVU72
 385              		.loc 1 154 3 view .LVU73
 386              		.loc 1 154 8 is_stmt 0 view .LVU74
 387              		.arm
 388              		.syntax unified
 389 0004 14309FE5 		ldr	r3, .L46
 390 0008 002093E5 		ldr	r2, [r3]
 391 000c 011082E2 		add	r1, r2, #1
 392              		.loc 1 154 11 view .LVU75
 393 0010 0000C2E5 		strb	r0, [r2]
 394              		.loc 1 155 3 is_stmt 1 view .LVU76
 395              		.loc 1 155 3 view .LVU77
 396              		.loc 1 154 8 is_stmt 0 view .LVU78
 397 0014 001083E5 		str	r1, [r3]
 398              		.loc 1 155 3 view .LVU79
 399              		.syntax divided
ARM GAS  /var/folders/l5/0x54b2c10074c8bt31ycjvl80000gp/T//ccnDt0u1.s 			page 8


 400              	@ 155 "../../test/test.c" 1
 401 0018 1FF021E3 		msr     CPSR_c, #0x1F
 402              	@ 0 "" 2
 403              		.loc 1 155 16 is_stmt 1 view .LVU80
 404              		.loc 1 156 1 is_stmt 0 view .LVU81
 405              		.arm
 406              		.syntax unified
 407 001c 1EFF2FE1 		bx	lr
 408              	.L47:
 409              		.align	2
 410              	.L46:
 411 0020 00000000 		.word	.LANCHOR1
 412              		.cfi_endproc
 413              	.LFE12:
 414              		.size	test_emit_token, .-test_emit_token
 415              		.section	.text._test_fail,"ax",%progbits
 416              		.align	2
 417              		.global	_test_fail
 418              		.syntax unified
 419              		.arm
 420              		.fpu softvfp
 421              		.type	_test_fail, %function
 422              	_test_fail:
 423              	.LVL30:
 424              	.LFB13:
 425              		.loc 1 161 35 is_stmt 1 view -0
 426              		.cfi_startproc
 427              		@ args = 0, pretend = 0, frame = 0
 428              		@ frame_needed = 0, uses_anonymous_args = 0
 429              		@ link register save eliminated.
 430              		.loc 1 163 3 view .LVU83
 431              		.loc 1 163 14 is_stmt 0 view .LVU84
 432 0000 0130A0E3 		mov	r3, #1
 433              		.loc 1 165 13 view .LVU85
 434 0004 18C09FE5 		ldr	ip, .L49
 435              		.loc 1 163 14 view .LVU86
 436 0008 18109FE5 		ldr	r1, .L49+4
 437              		.loc 1 164 15 view .LVU87
 438 000c 18209FE5 		ldr	r2, .L49+8
 439              		.loc 1 165 13 view .LVU88
 440 0010 00008CE5 		str	r0, [ip]
 441              		.loc 1 163 14 view .LVU89
 442 0014 003081E5 		str	r3, [r1]
 443              		.loc 1 164 3 is_stmt 1 view .LVU90
 444              		.loc 1 164 15 is_stmt 0 view .LVU91
 445 0018 003082E5 		str	r3, [r2]
 446              		.loc 1 165 3 is_stmt 1 view .LVU92
 447              		.loc 1 166 3 view .LVU93
 448              		.loc 1 167 1 is_stmt 0 view .LVU94
 449 001c 0300A0E1 		mov	r0, r3
 450              	.LVL31:
 451              		.loc 1 167 1 view .LVU95
 452 0020 1EFF2FE1 		bx	lr
 453              	.L50:
 454              		.align	2
 455              	.L49:
 456 0024 00000000 		.word	.LANCHOR4
ARM GAS  /var/folders/l5/0x54b2c10074c8bt31ycjvl80000gp/T//ccnDt0u1.s 			page 9


 457 0028 00000000 		.word	.LANCHOR2
 458 002c 00000000 		.word	.LANCHOR3
 459              		.cfi_endproc
 460              	.LFE13:
 461              		.size	_test_fail, .-_test_fail
 462              		.section	.text._test_assert,"ax",%progbits
 463              		.align	2
 464              		.global	_test_assert
 465              		.syntax unified
 466              		.arm
 467              		.fpu softvfp
 468              		.type	_test_assert, %function
 469              	_test_assert:
 470              	.LVL32:
 471              	.LFB14:
 472              		.loc 1 169 55 is_stmt 1 view -0
 473              		.cfi_startproc
 474              		@ args = 0, pretend = 0, frame = 0
 475              		@ frame_needed = 0, uses_anonymous_args = 0
 476              		@ link register save eliminated.
 477              		.loc 1 171 3 view .LVU97
 478              		.loc 1 171 6 is_stmt 0 view .LVU98
 479 0000 000051E3 		cmp	r1, #0
 480              		.loc 1 169 55 view .LVU99
 481 0004 0020A0E1 		mov	r2, r0
 482              		.loc 1 172 5 is_stmt 1 view .LVU100
 483              	.LVL33:
 484              	.LBB56:
 485              	.LBI56:
 486              		.loc 1 161 8 view .LVU101
 487              	.LBB57:
 488              		.loc 1 163 3 view .LVU102
 489              		.loc 1 163 14 is_stmt 0 view .LVU103
 490 0008 0130A003 		moveq	r3, #1
 491              		.loc 1 164 15 view .LVU104
 492 000c 1C009F05 		ldreq	r0, .L54
 493              	.LVL34:
 494              		.loc 1 163 14 view .LVU105
 495 0010 1CC09F05 		ldreq	ip, .L54+4
 496              		.loc 1 165 13 view .LVU106
 497 0014 1C109F05 		ldreq	r1, .L54+8
 498              	.LVL35:
 499              		.loc 1 164 15 view .LVU107
 500 0018 00308005 		streq	r3, [r0]
 501              		.loc 1 163 14 view .LVU108
 502 001c 00308C05 		streq	r3, [ip]
 503              		.loc 1 164 3 is_stmt 1 view .LVU109
 504              		.loc 1 165 3 view .LVU110
 505              	.LBE57:
 506              	.LBE56:
 507              		.loc 1 172 12 is_stmt 0 view .LVU111
 508 0020 0300A001 		moveq	r0, r3
 509              	.LBB59:
 510              	.LBB58:
 511              		.loc 1 165 13 view .LVU112
 512 0024 00208105 		streq	r2, [r1]
 513              		.loc 1 166 3 is_stmt 1 view .LVU113
ARM GAS  /var/folders/l5/0x54b2c10074c8bt31ycjvl80000gp/T//ccnDt0u1.s 			page 10


 514              	.LVL36:
 515              		.loc 1 166 3 is_stmt 0 view .LVU114
 516              	.LBE58:
 517              	.LBE59:
 518              		.loc 1 173 10 view .LVU115
 519 0028 0000A013 		movne	r0, #0
 520              		.loc 1 174 1 view .LVU116
 521 002c 1EFF2FE1 		bx	lr
 522              	.L55:
 523              		.align	2
 524              	.L54:
 525 0030 00000000 		.word	.LANCHOR3
 526 0034 00000000 		.word	.LANCHOR2
 527 0038 00000000 		.word	.LANCHOR4
 528              		.cfi_endproc
 529              	.LFE14:
 530              		.size	_test_assert, .-_test_assert
 531              		.section	.text._test_assert_sequence,"ax",%progbits
 532              		.align	2
 533              		.global	_test_assert_sequence
 534              		.syntax unified
 535              		.arm
 536              		.fpu softvfp
 537              		.type	_test_assert_sequence, %function
 538              	_test_assert_sequence:
 539              	.LVL37:
 540              	.LFB15:
 541              		.loc 1 176 62 is_stmt 1 view -0
 542              		.cfi_startproc
 543              		@ args = 0, pretend = 0, frame = 0
 544              		@ frame_needed = 0, uses_anonymous_args = 0
 545              		.loc 1 177 3 view .LVU118
 546              		.loc 1 178 3 view .LVU119
 547              		.loc 1 176 62 is_stmt 0 view .LVU120
 548 0000 30402DE9 		push	{r4, r5, lr}
 549              		.cfi_def_cfa_offset 12
 550              		.cfi_offset 4, -12
 551              		.cfi_offset 5, -8
 552              		.cfi_offset 14, -4
 553              		.loc 1 178 13 view .LVU121
 554 0004 60409FE5 		ldr	r4, .L63
 555              		.loc 1 177 9 view .LVU122
 556 0008 60509FE5 		ldr	r5, .L63+4
 557 000c 011041E2 		sub	r1, r1, #1
 558              	.LVL38:
 559              		.loc 1 178 13 view .LVU123
 560 0010 00E094E5 		ldr	lr, [r4]
 561              		.loc 1 177 9 view .LVU124
 562 0014 0530A0E1 		mov	r3, r5
 563              		.loc 1 178 9 view .LVU125
 564 0018 020000EA 		b	.L57
 565              	.LVL39:
 566              	.L59:
 567              		.loc 1 179 8 view .LVU126
 568 001c 01C0D3E4 		ldrb	ip, [r3], #1	@ zero_extendqisi2
 569              	.LVL40:
 570              		.loc 1 179 8 view .LVU127
ARM GAS  /var/folders/l5/0x54b2c10074c8bt31ycjvl80000gp/T//ccnDt0u1.s 			page 11


 571 0020 02005CE1 		cmp	ip, r2
 572 0024 0700001A 		bne	.L60
 573              	.LVL41:
 574              	.L57:
 575              		.loc 1 179 5 is_stmt 1 view .LVU128
 576              		.loc 1 178 9 is_stmt 0 view .LVU129
 577 0028 03005EE1 		cmp	lr, r3
 578 002c 0120F1E5 		ldrb	r2, [r1, #1]!	@ zero_extendqisi2
 579              	.LVL42:
 580              		.loc 1 178 9 view .LVU130
 581 0030 F9FFFF8A 		bhi	.L59
 582              		.loc 1 182 3 is_stmt 1 view .LVU131
 583              		.loc 1 182 6 is_stmt 0 view .LVU132
 584 0034 000052E3 		cmp	r2, #0
 585 0038 0200001A 		bne	.L60
 586              		.loc 1 184 3 is_stmt 1 view .LVU133
 587              	.LBB60:
 588              	.LBI60:
 589              		.loc 1 134 13 view .LVU134
 590              	.LBB61:
 591              		.loc 1 136 3 view .LVU135
 592              		.loc 1 136 8 is_stmt 0 view .LVU136
 593 003c 005084E5 		str	r5, [r4]
 594              	.LBE61:
 595              	.LBE60:
 596              		.loc 1 185 3 is_stmt 1 view .LVU137
 597              		.loc 1 186 1 is_stmt 0 view .LVU138
 598 0040 0200A0E1 		mov	r0, r2
 599              	.LVL43:
 600              		.loc 1 186 1 view .LVU139
 601 0044 3080BDE8 		pop	{r4, r5, pc}
 602              	.LVL44:
 603              	.L60:
 604              		.loc 1 180 6 is_stmt 1 view .LVU140
 605              	.LBB62:
 606              	.LBI62:
 607              		.loc 1 161 8 view .LVU141
 608              	.LBB63:
 609              		.loc 1 163 3 view .LVU142
 610              		.loc 1 163 14 is_stmt 0 view .LVU143
 611 0048 0120A0E3 		mov	r2, #1
 612 004c 20C09FE5 		ldr	ip, .L63+8
 613              		.loc 1 164 15 view .LVU144
 614 0050 20109FE5 		ldr	r1, .L63+12
 615              	.LVL45:
 616              		.loc 1 165 13 view .LVU145
 617 0054 20309FE5 		ldr	r3, .L63+16
 618              		.loc 1 163 14 view .LVU146
 619 0058 00208CE5 		str	r2, [ip]
 620              		.loc 1 164 3 is_stmt 1 view .LVU147
 621              		.loc 1 165 13 is_stmt 0 view .LVU148
 622 005c 000083E5 		str	r0, [r3]
 623              		.loc 1 164 15 view .LVU149
 624 0060 002081E5 		str	r2, [r1]
 625              		.loc 1 165 3 is_stmt 1 view .LVU150
 626              		.loc 1 166 3 view .LVU151
 627              	.LVL46:
ARM GAS  /var/folders/l5/0x54b2c10074c8bt31ycjvl80000gp/T//ccnDt0u1.s 			page 12


 628              		.loc 1 166 3 is_stmt 0 view .LVU152
 629              	.LBE63:
 630              	.LBE62:
 631              		.loc 1 186 1 view .LVU153
 632 0064 0200A0E1 		mov	r0, r2
 633              	.LVL47:
 634              		.loc 1 186 1 view .LVU154
 635 0068 3080BDE8 		pop	{r4, r5, pc}
 636              	.L64:
 637              		.align	2
 638              	.L63:
 639 006c 00000000 		.word	.LANCHOR1
 640 0070 00000000 		.word	.LANCHOR5
 641 0074 00000000 		.word	.LANCHOR2
 642 0078 00000000 		.word	.LANCHOR3
 643 007c 00000000 		.word	.LANCHOR4
 644              		.cfi_endproc
 645              	.LFE15:
 646              		.size	_test_assert_sequence, .-_test_assert_sequence
 647              		.section	.text._test_assert_time_window,"ax",%progbits
 648              		.align	2
 649              		.global	_test_assert_time_window
 650              		.syntax unified
 651              		.arm
 652              		.fpu softvfp
 653              		.type	_test_assert_time_window, %function
 654              	_test_assert_time_window:
 655              	.LVL48:
 656              	.LFB16:
 657              		.loc 1 188 81 is_stmt 1 view -0
 658              		.cfi_startproc
 659              		@ args = 0, pretend = 0, frame = 0
 660              		@ frame_needed = 0, uses_anonymous_args = 0
 661              		.loc 1 190 3 view .LVU156
 662              		.loc 1 188 81 is_stmt 0 view .LVU157
 663 0000 0130A0E1 		mov	r3, r1
 664 0004 10402DE9 		push	{r4, lr}
 665              		.cfi_def_cfa_offset 8
 666              		.cfi_offset 4, -8
 667              		.cfi_offset 14, -4
 668              		.loc 1 190 10 view .LVU158
 669 0008 0210A0E1 		mov	r1, r2
 670              	.LVL49:
 671              		.loc 1 188 81 view .LVU159
 672 000c 0040A0E1 		mov	r4, r0
 673              		.loc 1 190 10 view .LVU160
 674 0010 0300A0E1 		mov	r0, r3
 675              	.LVL50:
 676              		.loc 1 190 10 view .LVU161
 677 0014 FEFFFFEB 		bl	chTimeIsWithin
 678              	.LVL51:
 679              	.LBB64:
 680              	.LBI64:
 681              		.loc 1 169 8 is_stmt 1 view .LVU162
 682              	.LBB65:
 683              		.loc 1 171 3 view .LVU163
 684              		.loc 1 171 6 is_stmt 0 view .LVU164
ARM GAS  /var/folders/l5/0x54b2c10074c8bt31ycjvl80000gp/T//ccnDt0u1.s 			page 13


 685 0018 000050E3 		cmp	r0, #0
 686              		.loc 1 172 5 is_stmt 1 view .LVU165
 687              	.LVL52:
 688              	.LBB66:
 689              	.LBI66:
 690              		.loc 1 161 8 view .LVU166
 691              	.LBB67:
 692              		.loc 1 163 3 view .LVU167
 693              		.loc 1 163 14 is_stmt 0 view .LVU168
 694 001c 0100A003 		moveq	r0, #1
 695              	.LVL53:
 696              		.loc 1 163 14 view .LVU169
 697 0020 18109F05 		ldreq	r1, .L69
 698              		.loc 1 164 15 view .LVU170
 699 0024 18209F05 		ldreq	r2, .L69+4
 700              		.loc 1 165 13 view .LVU171
 701 0028 18309F05 		ldreq	r3, .L69+8
 702              		.loc 1 163 14 view .LVU172
 703 002c 00008105 		streq	r0, [r1]
 704              		.loc 1 164 3 is_stmt 1 view .LVU173
 705              		.loc 1 164 15 is_stmt 0 view .LVU174
 706 0030 00008205 		streq	r0, [r2]
 707              		.loc 1 165 3 is_stmt 1 view .LVU175
 708              		.loc 1 165 13 is_stmt 0 view .LVU176
 709 0034 00408305 		streq	r4, [r3]
 710              		.loc 1 166 3 is_stmt 1 view .LVU177
 711              	.LVL54:
 712              		.loc 1 166 3 is_stmt 0 view .LVU178
 713              	.LBE67:
 714              	.LBE66:
 715              		.loc 1 173 10 view .LVU179
 716 0038 0000A013 		movne	r0, #0
 717              	.LVL55:
 718              		.loc 1 173 10 view .LVU180
 719              	.LBE65:
 720              	.LBE64:
 721              		.loc 1 191 1 view .LVU181
 722 003c 1080BDE8 		pop	{r4, pc}
 723              	.L70:
 724              		.align	2
 725              	.L69:
 726 0040 00000000 		.word	.LANCHOR2
 727 0044 00000000 		.word	.LANCHOR3
 728 0048 00000000 		.word	.LANCHOR4
 729              		.cfi_endproc
 730              	.LFE16:
 731              		.size	_test_assert_time_window, .-_test_assert_time_window
 732              		.section	.text.test_terminate_threads,"ax",%progbits
 733              		.align	2
 734              		.global	test_terminate_threads
 735              		.syntax unified
 736              		.arm
 737              		.fpu softvfp
 738              		.type	test_terminate_threads, %function
 739              	test_terminate_threads:
 740              	.LFB17:
 741              		.loc 1 200 35 is_stmt 1 view -0
ARM GAS  /var/folders/l5/0x54b2c10074c8bt31ycjvl80000gp/T//ccnDt0u1.s 			page 14


 742              		.cfi_startproc
 743              		@ args = 0, pretend = 0, frame = 0
 744              		@ frame_needed = 0, uses_anonymous_args = 0
 745              		.loc 1 201 3 view .LVU183
 746              		.loc 1 203 3 view .LVU184
 747              	.LVL56:
 748              		.loc 1 200 35 is_stmt 0 view .LVU185
 749 0000 70402DE9 		push	{r4, r5, r6, lr}
 750              		.cfi_def_cfa_offset 16
 751              		.cfi_offset 4, -16
 752              		.cfi_offset 5, -12
 753              		.cfi_offset 6, -8
 754              		.cfi_offset 14, -4
 755 0004 1C409FE5 		ldr	r4, .L80
 756 0008 145084E2 		add	r5, r4, #20
 757              	.LVL57:
 758              	.L73:
 759              		.loc 1 204 5 is_stmt 1 view .LVU186
 760              		.loc 1 205 7 view .LVU187
 761              		.loc 1 204 16 is_stmt 0 view .LVU188
 762 000c 040094E4 		ldr	r0, [r4], #4
 763              		.loc 1 204 8 view .LVU189
 764 0010 000050E3 		cmp	r0, #0
 765 0014 0000000A 		beq	.L72
 766              		.loc 1 205 7 view .LVU190
 767 0018 FEFFFFEB 		bl	chThdTerminate
 768              	.LVL58:
 769              	.L72:
 770              		.loc 1 203 3 discriminator 2 view .LVU191
 771 001c 050054E1 		cmp	r4, r5
 772 0020 F9FFFF1A 		bne	.L73
 773 0024 7080BDE8 		pop	{r4, r5, r6, pc}
 774              	.L81:
 775              		.align	2
 776              	.L80:
 777 0028 00000000 		.word	threads
 778              		.cfi_endproc
 779              	.LFE17:
 780              		.size	test_terminate_threads, .-test_terminate_threads
 781              		.section	.text.test_wait_threads,"ax",%progbits
 782              		.align	2
 783              		.global	test_wait_threads
 784              		.syntax unified
 785              		.arm
 786              		.fpu softvfp
 787              		.type	test_wait_threads, %function
 788              	test_wait_threads:
 789              	.LFB18:
 790              		.loc 1 211 30 is_stmt 1 view -0
 791              		.cfi_startproc
 792              		@ args = 0, pretend = 0, frame = 0
 793              		@ frame_needed = 0, uses_anonymous_args = 0
 794              		.loc 1 212 3 view .LVU193
 795              		.loc 1 214 3 view .LVU194
 796              	.LVL59:
 797              		.loc 1 211 30 is_stmt 0 view .LVU195
 798 0000 70402DE9 		push	{r4, r5, r6, lr}
ARM GAS  /var/folders/l5/0x54b2c10074c8bt31ycjvl80000gp/T//ccnDt0u1.s 			page 15


 799              		.cfi_def_cfa_offset 16
 800              		.cfi_offset 4, -16
 801              		.cfi_offset 5, -12
 802              		.cfi_offset 6, -8
 803              		.cfi_offset 14, -4
 804              		.loc 1 217 18 view .LVU196
 805 0004 0060A0E3 		mov	r6, #0
 806 0008 20409FE5 		ldr	r4, .L91
 807 000c 145084E2 		add	r5, r4, #20
 808              	.LVL60:
 809              	.L84:
 810              		.loc 1 215 5 is_stmt 1 view .LVU197
 811              		.loc 1 216 7 view .LVU198
 812              		.loc 1 215 16 is_stmt 0 view .LVU199
 813 0010 040094E4 		ldr	r0, [r4], #4
 814              		.loc 1 215 8 view .LVU200
 815 0014 000050E3 		cmp	r0, #0
 816 0018 0100000A 		beq	.L83
 817              		.loc 1 216 7 view .LVU201
 818 001c FEFFFFEB 		bl	chThdWait
 819              	.LVL61:
 820              		.loc 1 217 7 is_stmt 1 view .LVU202
 821              		.loc 1 217 18 is_stmt 0 view .LVU203
 822 0020 046004E5 		str	r6, [r4, #-4]
 823              	.L83:
 824              		.loc 1 214 3 discriminator 2 view .LVU204
 825 0024 050054E1 		cmp	r4, r5
 826 0028 F8FFFF1A 		bne	.L84
 827 002c 7080BDE8 		pop	{r4, r5, r6, pc}
 828              	.L92:
 829              		.align	2
 830              	.L91:
 831 0030 00000000 		.word	threads
 832              		.cfi_endproc
 833              	.LFE18:
 834              		.size	test_wait_threads, .-test_wait_threads
 835              		.section	.text.test_cpu_pulse,"ax",%progbits
 836              		.align	2
 837              		.global	test_cpu_pulse
 838              		.syntax unified
 839              		.arm
 840              		.fpu softvfp
 841              		.type	test_cpu_pulse, %function
 842              	test_cpu_pulse:
 843              	.LVL62:
 844              	.LFB19:
 845              		.loc 1 228 40 is_stmt 1 view -0
 846              		.cfi_startproc
 847              		@ args = 0, pretend = 0, frame = 0
 848              		@ frame_needed = 0, uses_anonymous_args = 0
 849              		@ link register save eliminated.
 850              		.loc 1 229 3 view .LVU206
 851              		.loc 1 231 3 view .LVU207
 852              		.loc 1 232 17 is_stmt 0 view .LVU208
 853 0000 803260E0 		rsb	r3, r0, r0, lsl #5
 854 0004 033180E0 		add	r3, r0, r3, lsl #2
 855              		.loc 1 231 11 view .LVU209
ARM GAS  /var/folders/l5/0x54b2c10074c8bt31ycjvl80000gp/T//ccnDt0u1.s 			page 16


 856 0008 68009FE5 		ldr	r0, .L100
 857              	.LVL63:
 858              		.loc 1 232 17 view .LVU210
 859 000c 8331A0E1 		lsl	r3, r3, #3
 860 0010 64209FE5 		ldr	r2, .L100+4
 861 0014 FA1F43E2 		sub	r1, r3, #1000
 862              		.loc 1 231 11 view .LVU211
 863 0018 18C090E5 		ldr	ip, [r0, #24]
 864              		.loc 1 232 17 view .LVU212
 865 001c 922183E0 		umull	r2, r3, r2, r1
 866              		.loc 1 231 9 view .LVU213
 867 0020 20009CE5 		ldr	r0, [ip, #32]
 868              	.LVL64:
 869              		.loc 1 232 3 is_stmt 1 view .LVU214
 870              		.loc 1 232 7 is_stmt 0 view .LVU215
 871 0024 011080E2 		add	r1, r0, #1
 872 0028 231381E0 		add	r1, r1, r3, lsr #6
 873              	.LVL65:
 874              		.loc 1 232 7 view .LVU216
 875 002c 060000EA 		b	.L96
 876              	.LVL66:
 877              	.L99:
 878              		.loc 1 239 39 discriminator 1 view .LVU217
 879 0030 020050E1 		cmp	r0, r2
 880 0034 0130A093 		movls	r3, #1
 881 0038 0030A083 		movhi	r3, #0
 882 003c 020051E1 		cmp	r1, r2
 883 0040 0030A093 		movls	r3, #0
 884              		.loc 1 240 24 discriminator 1 view .LVU218
 885 0044 000053E3 		cmp	r3, #0
 886 0048 1EFF2F01 		bxeq	lr
 887              	.LVL67:
 888              	.L96:
 889              		.loc 1 233 3 is_stmt 1 view .LVU219
 890              		.loc 1 234 5 view .LVU220
 891              		.loc 1 239 10 is_stmt 0 view .LVU221
 892 004c 010050E1 		cmp	r0, r1
 893              		.loc 1 234 9 view .LVU222
 894 0050 20209CE5 		ldr	r2, [ip, #32]
 895              	.LVL68:
 896              		.loc 1 239 10 view .LVU223
 897 0054 F5FFFF3A 		bcc	.L99
 898              		.loc 1 240 47 discriminator 2 view .LVU224
 899 0058 020051E1 		cmp	r1, r2
 900 005c 0030A093 		movls	r3, #0
 901 0060 0130A083 		movhi	r3, #1
 902              		.loc 1 240 39 discriminator 2 view .LVU225
 903 0064 020050E1 		cmp	r0, r2
 904 0068 01308393 		orrls	r3, r3, #1
 905              		.loc 1 240 24 discriminator 2 view .LVU226
 906 006c 000053E3 		cmp	r3, #0
 907 0070 F5FFFF1A 		bne	.L96
 908 0074 1EFF2FE1 		bx	lr
 909              	.L101:
 910              		.align	2
 911              	.L100:
 912 0078 00000000 		.word	rlist
ARM GAS  /var/folders/l5/0x54b2c10074c8bt31ycjvl80000gp/T//ccnDt0u1.s 			page 17


 913 007c D34D6210 		.word	274877907
 914              		.cfi_endproc
 915              	.LFE19:
 916              		.size	test_cpu_pulse, .-test_cpu_pulse
 917              		.section	.text.test_wait_tick,"ax",%progbits
 918              		.align	2
 919              		.global	test_wait_tick
 920              		.syntax unified
 921              		.arm
 922              		.fpu softvfp
 923              		.type	test_wait_tick, %function
 924              	test_wait_tick:
 925              	.LFB20:
 926              		.loc 1 249 32 is_stmt 1 view -0
 927              		.cfi_startproc
 928              		@ args = 0, pretend = 0, frame = 0
 929              		@ frame_needed = 0, uses_anonymous_args = 0
 930              		.loc 1 251 3 view .LVU228
 931              		.loc 1 249 32 is_stmt 0 view .LVU229
 932 0000 10402DE9 		push	{r4, lr}
 933              		.cfi_def_cfa_offset 8
 934              		.cfi_offset 4, -8
 935              		.cfi_offset 14, -4
 936              		.loc 1 251 3 view .LVU230
 937 0004 0100A0E3 		mov	r0, #1
 938 0008 FEFFFFEB 		bl	chThdSleep
 939              	.LVL69:
 940              		.loc 1 252 3 is_stmt 1 view .LVU231
 941              		.loc 1 252 10 is_stmt 0 view .LVU232
 942 000c 04309FE5 		ldr	r3, .L104
 943 0010 0C0093E5 		ldr	r0, [r3, #12]
 944              		.loc 1 253 1 view .LVU233
 945 0014 1080BDE8 		pop	{r4, pc}
 946              	.L105:
 947              		.align	2
 948              	.L104:
 949 0018 00000000 		.word	vtlist
 950              		.cfi_endproc
 951              	.LFE20:
 952              		.size	test_wait_tick, .-test_wait_tick
 953              		.section	.text.test_start_timer,"ax",%progbits
 954              		.align	2
 955              		.global	test_start_timer
 956              		.syntax unified
 957              		.arm
 958              		.fpu softvfp
 959              		.type	test_start_timer, %function
 960              	test_start_timer:
 961              	.LVL70:
 962              	.LFB22:
 963              		.loc 1 276 36 is_stmt 1 view -0
 964              		.cfi_startproc
 965              		@ args = 0, pretend = 0, frame = 0
 966              		@ frame_needed = 0, uses_anonymous_args = 0
 967              		.loc 1 278 3 view .LVU235
 968              		.loc 1 279 19 is_stmt 0 view .LVU236
 969 0000 0030A0E3 		mov	r3, #0
ARM GAS  /var/folders/l5/0x54b2c10074c8bt31ycjvl80000gp/T//ccnDt0u1.s 			page 18


 970 0004 3C209FE5 		ldr	r2, .L108
 971              	.LVL71:
 972              		.loc 1 279 3 is_stmt 1 view .LVU237
 973              		.loc 1 276 36 is_stmt 0 view .LVU238
 974 0008 10402DE9 		push	{r4, lr}
 975              		.cfi_def_cfa_offset 8
 976              		.cfi_offset 4, -8
 977              		.cfi_offset 14, -4
 978              		.loc 1 279 19 view .LVU239
 979 000c 003082E5 		str	r3, [r2]
 980              		.loc 1 280 3 is_stmt 1 view .LVU240
 981              		.syntax divided
 982              	@ 280 "../../test/test.c" 1
 983 0010 9FF021E3 		msr     CPSR_c, #0x9F
 984              	@ 0 "" 2
 985              		.loc 1 280 3 view .LVU241
 986              		.loc 1 280 3 view .LVU242
 987              		.loc 1 280 3 view .LVU243
 988              		.loc 1 278 24 is_stmt 0 view .LVU244
 989              		.arm
 990              		.syntax unified
 991 0014 801260E0 		rsb	r1, r0, r0, lsl #5
 992 0018 011180E0 		add	r1, r0, r1, lsl #2
 993 001c 8111A0E1 		lsl	r1, r1, #3
 994 0020 24009FE5 		ldr	r0, .L108+4
 995              	.LVL72:
 996              		.loc 1 278 24 view .LVU245
 997 0024 FA1F41E2 		sub	r1, r1, #1000
 998 0028 902181E0 		umull	r2, r1, r0, r1
 999 002c 2113A0E1 		lsr	r1, r1, #6
 1000              		.loc 1 280 3 view .LVU246
 1001 0030 011081E2 		add	r1, r1, #1
 1002 0034 14209FE5 		ldr	r2, .L108+8
 1003 0038 14009FE5 		ldr	r0, .L108+12
 1004 003c FEFFFFEB 		bl	chVTSetI
 1005              	.LVL73:
 1006              		.loc 1 280 3 is_stmt 1 view .LVU247
 1007              		.loc 1 280 3 view .LVU248
 1008              		.syntax divided
 1009              	@ 280 "../../test/test.c" 1
 1010 0040 1FF021E3 		msr     CPSR_c, #0x1F
 1011              	@ 0 "" 2
 1012              		.loc 1 280 3 view .LVU249
 1013              		.loc 1 280 36 view .LVU250
 1014              		.loc 1 281 1 is_stmt 0 view .LVU251
 1015              		.arm
 1016              		.syntax unified
 1017 0044 1080BDE8 		pop	{r4, pc}
 1018              	.L109:
 1019              		.align	2
 1020              	.L108:
 1021 0048 00000000 		.word	test_timer_done
 1022 004c D34D6210 		.word	274877907
 1023 0050 00000000 		.word	tmr
 1024 0054 00000000 		.word	.LANCHOR6
 1025              		.cfi_endproc
 1026              	.LFE22:
ARM GAS  /var/folders/l5/0x54b2c10074c8bt31ycjvl80000gp/T//ccnDt0u1.s 			page 19


 1027              		.size	test_start_timer, .-test_start_timer
 1028              		.section	.text.TestThread,"ax",%progbits
 1029              		.align	2
 1030              		.global	TestThread
 1031              		.syntax unified
 1032              		.arm
 1033              		.fpu softvfp
 1034              		.type	TestThread, %function
 1035              	TestThread:
 1036              	.LVL74:
 1037              	.LFB25:
 1038              		.loc 1 318 27 is_stmt 1 view -0
 1039              		.cfi_startproc
 1040              		@ args = 0, pretend = 0, frame = 16
 1041              		@ frame_needed = 0, uses_anonymous_args = 0
 1042              		.loc 1 319 3 view .LVU253
 1043              		.loc 1 321 3 view .LVU254
 1044              		.loc 1 318 27 is_stmt 0 view .LVU255
 1045 0000 F04F2DE9 		push	{r4, r5, r6, r7, r8, r9, r10, fp, lr}
 1046              		.cfi_def_cfa_offset 36
 1047              		.cfi_offset 4, -36
 1048              		.cfi_offset 5, -32
 1049              		.cfi_offset 6, -28
 1050              		.cfi_offset 7, -24
 1051              		.cfi_offset 8, -20
 1052              		.cfi_offset 9, -16
 1053              		.cfi_offset 10, -12
 1054              		.cfi_offset 11, -8
 1055              		.cfi_offset 14, -4
 1056              		.loc 1 324 3 view .LVU256
 1057 0004 2A50A0E3 		mov	r5, #42
 1058              		.loc 1 321 7 view .LVU257
 1059 0008 60449FE5 		ldr	r4, .L173
 1060              		.loc 1 318 27 view .LVU258
 1061 000c 14D04DE2 		sub	sp, sp, #20
 1062              		.cfi_def_cfa_offset 56
 1063              		.loc 1 321 7 view .LVU259
 1064 0010 000084E5 		str	r0, [r4]
 1065              		.loc 1 322 3 is_stmt 1 view .LVU260
 1066 0014 58049FE5 		ldr	r0, .L173+4
 1067              	.LVL75:
 1068              		.loc 1 322 3 is_stmt 0 view .LVU261
 1069 0018 FEFFFFEB 		bl	test_println
 1070              	.LVL76:
 1071              		.loc 1 323 3 is_stmt 1 view .LVU262
 1072 001c 54049FE5 		ldr	r0, .L173+8
 1073 0020 FEFFFFEB 		bl	test_println
 1074              	.LVL77:
 1075              		.loc 1 324 3 view .LVU263
 1076 0024 50049FE5 		ldr	r0, .L173+12
 1077 0028 FEFFFFEB 		bl	test_println
 1078              	.LVL78:
 1079              		.loc 1 325 3 view .LVU264
 1080              	.LBB102:
 1081              	.LBI102:
 1082              		.loc 1 114 6 view .LVU265
 1083              	.LBB103:
ARM GAS  /var/folders/l5/0x54b2c10074c8bt31ycjvl80000gp/T//ccnDt0u1.s 			page 20


 1084              		.loc 1 116 3 view .LVU266
 1085              		.loc 1 116 3 is_stmt 0 view .LVU267
 1086 002c 4C649FE5 		ldr	r6, .L173+16
 1087              		.loc 1 116 10 view .LVU268
 1088 0030 0510A0E1 		mov	r1, r5
 1089 0034 010000EA 		b	.L112
 1090              	.LVL79:
 1091              	.L159:
 1092              		.loc 1 116 10 view .LVU269
 1093 0038 0510A0E1 		mov	r1, r5
 1094              		.loc 1 116 9 view .LVU270
 1095 003c 0150F6E5 		ldrb	r5, [r6, #1]!	@ zero_extendqisi2
 1096              	.LVL80:
 1097              	.L112:
 1098              		.loc 1 117 5 is_stmt 1 view .LVU271
 1099 0040 000094E5 		ldr	r0, [r4]
 1100              	.LVL81:
 1101              		.loc 1 117 5 is_stmt 0 view .LVU272
 1102 0044 003090E5 		ldr	r3, [r0]
 1103 0048 083093E5 		ldr	r3, [r3, #8]
 1104 004c 33FF2FE1 		blx	r3
 1105              	.LVL82:
 1106              		.loc 1 116 9 view .LVU273
 1107 0050 000055E3 		cmp	r5, #0
 1108 0054 F7FFFF1A 		bne	.L159
 1109              	.LVL83:
 1110              		.loc 1 116 9 view .LVU274
 1111              	.LBE103:
 1112              	.LBE102:
 1113              		.loc 1 326 3 is_stmt 1 view .LVU275
 1114 0058 2A50A0E3 		mov	r5, #42
 1115 005c 20049FE5 		ldr	r0, .L173+20
 1116 0060 FEFFFFEB 		bl	test_println
 1117              	.LVL84:
 1118              		.loc 1 327 3 view .LVU276
 1119              	.LBB104:
 1120              	.LBI104:
 1121              		.loc 1 114 6 view .LVU277
 1122              		.loc 1 114 6 is_stmt 0 view .LVU278
 1123 0064 1C649FE5 		ldr	r6, .L173+24
 1124              	.LBB105:
 1125              		.loc 1 116 10 view .LVU279
 1126 0068 0510A0E1 		mov	r1, r5
 1127 006c 010000EA 		b	.L114
 1128              	.LVL85:
 1129              	.L160:
 1130              		.loc 1 116 10 view .LVU280
 1131 0070 0510A0E1 		mov	r1, r5
 1132              		.loc 1 116 9 view .LVU281
 1133 0074 0150F6E5 		ldrb	r5, [r6, #1]!	@ zero_extendqisi2
 1134              	.LVL86:
 1135              	.L114:
 1136              		.loc 1 117 5 is_stmt 1 view .LVU282
 1137 0078 000094E5 		ldr	r0, [r4]
 1138              	.LVL87:
 1139              		.loc 1 117 5 is_stmt 0 view .LVU283
 1140 007c 003090E5 		ldr	r3, [r0]
ARM GAS  /var/folders/l5/0x54b2c10074c8bt31ycjvl80000gp/T//ccnDt0u1.s 			page 21


 1141 0080 083093E5 		ldr	r3, [r3, #8]
 1142 0084 33FF2FE1 		blx	r3
 1143              	.LVL88:
 1144              		.loc 1 116 9 view .LVU284
 1145 0088 000055E3 		cmp	r5, #0
 1146 008c F7FFFF1A 		bne	.L160
 1147              	.LVL89:
 1148              		.loc 1 116 9 view .LVU285
 1149              	.LBE105:
 1150              	.LBE104:
 1151              		.loc 1 328 3 is_stmt 1 view .LVU286
 1152 0090 2A50A0E3 		mov	r5, #42
 1153 0094 F0039FE5 		ldr	r0, .L173+28
 1154 0098 FEFFFFEB 		bl	test_println
 1155              	.LVL90:
 1156              		.loc 1 330 3 view .LVU287
 1157              	.LBB106:
 1158              	.LBI106:
 1159              		.loc 1 114 6 view .LVU288
 1160              		.loc 1 114 6 is_stmt 0 view .LVU289
 1161 009c EC639FE5 		ldr	r6, .L173+32
 1162              	.LBB107:
 1163              		.loc 1 116 10 view .LVU290
 1164 00a0 0510A0E1 		mov	r1, r5
 1165 00a4 010000EA 		b	.L116
 1166              	.LVL91:
 1167              	.L161:
 1168              		.loc 1 116 10 view .LVU291
 1169 00a8 0510A0E1 		mov	r1, r5
 1170              		.loc 1 116 9 view .LVU292
 1171 00ac 0150F6E5 		ldrb	r5, [r6, #1]!	@ zero_extendqisi2
 1172              	.LVL92:
 1173              	.L116:
 1174              		.loc 1 117 5 is_stmt 1 view .LVU293
 1175 00b0 000094E5 		ldr	r0, [r4]
 1176              	.LVL93:
 1177              		.loc 1 117 5 is_stmt 0 view .LVU294
 1178 00b4 003090E5 		ldr	r3, [r0]
 1179 00b8 083093E5 		ldr	r3, [r3, #8]
 1180 00bc 33FF2FE1 		blx	r3
 1181              	.LVL94:
 1182              		.loc 1 116 9 view .LVU295
 1183 00c0 000055E3 		cmp	r5, #0
 1184 00c4 F7FFFF1A 		bne	.L161
 1185              	.LVL95:
 1186              		.loc 1 116 9 view .LVU296
 1187              	.LBE107:
 1188              	.LBE106:
 1189              		.loc 1 331 3 is_stmt 1 view .LVU297
 1190 00c8 2A50A0E3 		mov	r5, #42
 1191 00cc C0039FE5 		ldr	r0, .L173+36
 1192 00d0 FEFFFFEB 		bl	test_println
 1193              	.LVL96:
 1194              		.loc 1 333 3 view .LVU298
 1195              	.LBB108:
 1196              	.LBI108:
 1197              		.loc 1 114 6 view .LVU299
ARM GAS  /var/folders/l5/0x54b2c10074c8bt31ycjvl80000gp/T//ccnDt0u1.s 			page 22


 1198              		.loc 1 114 6 is_stmt 0 view .LVU300
 1199 00d4 BC639FE5 		ldr	r6, .L173+40
 1200              	.LBB109:
 1201              		.loc 1 116 10 view .LVU301
 1202 00d8 0510A0E1 		mov	r1, r5
 1203 00dc 010000EA 		b	.L118
 1204              	.LVL97:
 1205              	.L162:
 1206              		.loc 1 116 10 view .LVU302
 1207 00e0 0510A0E1 		mov	r1, r5
 1208              		.loc 1 116 9 view .LVU303
 1209 00e4 0150F6E5 		ldrb	r5, [r6, #1]!	@ zero_extendqisi2
 1210              	.LVL98:
 1211              	.L118:
 1212              		.loc 1 117 5 is_stmt 1 view .LVU304
 1213 00e8 000094E5 		ldr	r0, [r4]
 1214              	.LVL99:
 1215              		.loc 1 117 5 is_stmt 0 view .LVU305
 1216 00ec 003090E5 		ldr	r3, [r0]
 1217 00f0 083093E5 		ldr	r3, [r3, #8]
 1218 00f4 33FF2FE1 		blx	r3
 1219              	.LVL100:
 1220              		.loc 1 116 9 view .LVU306
 1221 00f8 000055E3 		cmp	r5, #0
 1222 00fc F7FFFF1A 		bne	.L162
 1223              	.LVL101:
 1224              		.loc 1 116 9 view .LVU307
 1225              	.LBE109:
 1226              	.LBE108:
 1227              		.loc 1 334 3 is_stmt 1 view .LVU308
 1228 0100 2A50A0E3 		mov	r5, #42
 1229 0104 90039FE5 		ldr	r0, .L173+44
 1230 0108 FEFFFFEB 		bl	test_println
 1231              	.LVL102:
 1232              		.loc 1 336 3 view .LVU309
 1233              	.LBB110:
 1234              	.LBI110:
 1235              		.loc 1 114 6 view .LVU310
 1236              		.loc 1 114 6 is_stmt 0 view .LVU311
 1237 010c 8C639FE5 		ldr	r6, .L173+48
 1238              	.LBB111:
 1239              		.loc 1 116 10 view .LVU312
 1240 0110 0510A0E1 		mov	r1, r5
 1241 0114 010000EA 		b	.L120
 1242              	.LVL103:
 1243              	.L163:
 1244              		.loc 1 116 10 view .LVU313
 1245 0118 0510A0E1 		mov	r1, r5
 1246              		.loc 1 116 9 view .LVU314
 1247 011c 0150F6E5 		ldrb	r5, [r6, #1]!	@ zero_extendqisi2
 1248              	.LVL104:
 1249              	.L120:
 1250              		.loc 1 117 5 is_stmt 1 view .LVU315
 1251 0120 000094E5 		ldr	r0, [r4]
 1252              	.LVL105:
 1253              		.loc 1 117 5 is_stmt 0 view .LVU316
 1254 0124 003090E5 		ldr	r3, [r0]
ARM GAS  /var/folders/l5/0x54b2c10074c8bt31ycjvl80000gp/T//ccnDt0u1.s 			page 23


 1255 0128 083093E5 		ldr	r3, [r3, #8]
 1256 012c 33FF2FE1 		blx	r3
 1257              	.LVL106:
 1258              		.loc 1 116 9 view .LVU317
 1259 0130 000055E3 		cmp	r5, #0
 1260 0134 F7FFFF1A 		bne	.L163
 1261              	.LVL107:
 1262              		.loc 1 116 9 view .LVU318
 1263              	.LBE111:
 1264              	.LBE110:
 1265              		.loc 1 337 3 is_stmt 1 view .LVU319
 1266 0138 2A50A0E3 		mov	r5, #42
 1267 013c 60039FE5 		ldr	r0, .L173+52
 1268 0140 FEFFFFEB 		bl	test_println
 1269              	.LVL108:
 1270              		.loc 1 340 3 view .LVU320
 1271              	.LBB112:
 1272              	.LBI112:
 1273              		.loc 1 114 6 view .LVU321
 1274              		.loc 1 114 6 is_stmt 0 view .LVU322
 1275 0144 5C639FE5 		ldr	r6, .L173+56
 1276              	.LBB113:
 1277              		.loc 1 116 10 view .LVU323
 1278 0148 0510A0E1 		mov	r1, r5
 1279 014c 010000EA 		b	.L122
 1280              	.LVL109:
 1281              	.L164:
 1282              		.loc 1 116 10 view .LVU324
 1283 0150 0510A0E1 		mov	r1, r5
 1284              		.loc 1 116 9 view .LVU325
 1285 0154 0150F6E5 		ldrb	r5, [r6, #1]!	@ zero_extendqisi2
 1286              	.LVL110:
 1287              	.L122:
 1288              		.loc 1 117 5 is_stmt 1 view .LVU326
 1289 0158 000094E5 		ldr	r0, [r4]
 1290              	.LVL111:
 1291              		.loc 1 117 5 is_stmt 0 view .LVU327
 1292 015c 003090E5 		ldr	r3, [r0]
 1293 0160 083093E5 		ldr	r3, [r3, #8]
 1294 0164 33FF2FE1 		blx	r3
 1295              	.LVL112:
 1296              		.loc 1 116 9 view .LVU328
 1297 0168 000055E3 		cmp	r5, #0
 1298 016c F7FFFF1A 		bne	.L164
 1299              	.LVL113:
 1300              		.loc 1 116 9 view .LVU329
 1301              	.LBE113:
 1302              	.LBE112:
 1303              		.loc 1 341 3 is_stmt 1 view .LVU330
 1304 0170 2A50A0E3 		mov	r5, #42
 1305 0174 30039FE5 		ldr	r0, .L173+60
 1306 0178 FEFFFFEB 		bl	test_println
 1307              	.LVL114:
 1308              		.loc 1 344 3 view .LVU331
 1309              	.LBB114:
 1310              	.LBI114:
 1311              		.loc 1 114 6 view .LVU332
ARM GAS  /var/folders/l5/0x54b2c10074c8bt31ycjvl80000gp/T//ccnDt0u1.s 			page 24


 1312              		.loc 1 114 6 is_stmt 0 view .LVU333
 1313 017c 2C639FE5 		ldr	r6, .L173+64
 1314              	.LBB115:
 1315              		.loc 1 116 10 view .LVU334
 1316 0180 0510A0E1 		mov	r1, r5
 1317 0184 010000EA 		b	.L124
 1318              	.LVL115:
 1319              	.L165:
 1320              		.loc 1 116 10 view .LVU335
 1321 0188 0510A0E1 		mov	r1, r5
 1322              		.loc 1 116 9 view .LVU336
 1323 018c 0150F6E5 		ldrb	r5, [r6, #1]!	@ zero_extendqisi2
 1324              	.LVL116:
 1325              	.L124:
 1326              		.loc 1 117 5 is_stmt 1 view .LVU337
 1327 0190 000094E5 		ldr	r0, [r4]
 1328              	.LVL117:
 1329              		.loc 1 117 5 is_stmt 0 view .LVU338
 1330 0194 003090E5 		ldr	r3, [r0]
 1331 0198 083093E5 		ldr	r3, [r3, #8]
 1332 019c 33FF2FE1 		blx	r3
 1333              	.LVL118:
 1334              		.loc 1 116 9 view .LVU339
 1335 01a0 000055E3 		cmp	r5, #0
 1336 01a4 F7FFFF1A 		bne	.L165
 1337              	.LVL119:
 1338              		.loc 1 116 9 view .LVU340
 1339              	.LBE115:
 1340              	.LBE114:
 1341              		.loc 1 345 3 is_stmt 1 view .LVU341
 1342 01a8 04039FE5 		ldr	r0, .L173+68
 1343 01ac FEFFFFEB 		bl	test_println
 1344              	.LVL120:
 1345              		.loc 1 351 3 view .LVU342
 1346 01b0 BC029FE5 		ldr	r0, .L173+4
 1347 01b4 FEFFFFEB 		bl	test_println
 1348              	.LVL121:
 1349              		.loc 1 353 3 view .LVU343
 1350              		.loc 1 353 15 is_stmt 0 view .LVU344
 1351 01b8 F8329FE5 		ldr	r3, .L173+72
 1352              		.loc 1 355 18 view .LVU345
 1353 01bc F8829FE5 		ldr	r8, .L173+76
 1354              		.loc 1 353 15 view .LVU346
 1355 01c0 005083E5 		str	r5, [r3]
 1356              		.loc 1 354 3 is_stmt 1 view .LVU347
 1357              	.LVL122:
 1358              		.loc 1 355 3 view .LVU348
 1359              		.loc 1 355 3 is_stmt 0 view .LVU349
 1360 01c4 F4329FE5 		ldr	r3, .L173+80
 1361              	.LBB116:
 1362              	.LBB117:
 1363              	.LBB118:
 1364              	.LBB119:
 1365              		.loc 1 136 8 view .LVU350
 1366 01c8 F4729FE5 		ldr	r7, .L173+84
 1367 01cc 0C308DE5 		str	r3, [sp, #12]
 1368              	.LBE119:
ARM GAS  /var/folders/l5/0x54b2c10074c8bt31ycjvl80000gp/T//ccnDt0u1.s 			page 25


 1369              	.LBE118:
 1370              	.LBE117:
 1371              	.LBE116:
 1372              		.loc 1 353 15 view .LVU351
 1373 01d0 F0329FE5 		ldr	r3, .L173+88
 1374              	.LBB128:
 1375              	.LBB124:
 1376              		.loc 1 291 14 view .LVU352
 1377 01d4 F0A29FE5 		ldr	r10, .L173+92
 1378              	.LBE124:
 1379              	.LBE128:
 1380              		.loc 1 354 5 view .LVU353
 1381 01d8 04508DE5 		str	r5, [sp, #4]
 1382              		.loc 1 353 15 view .LVU354
 1383 01dc 08308DE5 		str	r3, [sp, #8]
 1384              	.LVL123:
 1385              	.L125:
 1386              		.loc 1 356 7 view .LVU355
 1387 01e0 0090A0E3 		mov	r9, #0
 1388 01e4 04309DE5 		ldr	r3, [sp, #4]
 1389              	.LBB129:
 1390              	.LBB125:
 1391              		.loc 1 293 16 view .LVU356
 1392 01e8 E0629FE5 		ldr	r6, .L173+96
 1393 01ec 013083E2 		add	r3, r3, #1
 1394 01f0 04308DE5 		str	r3, [sp, #4]
 1395              	.LVL124:
 1396              		.loc 1 293 16 view .LVU357
 1397 01f4 048048E2 		sub	r8, r8, #4
 1398              	.LVL125:
 1399              	.L145:
 1400              		.loc 1 293 16 view .LVU358
 1401              	.LBE125:
 1402              	.LBE129:
 1403              		.loc 1 357 11 view .LVU359
 1404 01f8 0430B8E5 		ldr	r3, [r8, #4]!
 1405 01fc 000053E3 		cmp	r3, #0
 1406 0200 4F00000A 		beq	.L166
 1407              	.L143:
 1408              		.loc 1 358 7 is_stmt 1 view .LVU360
 1409 0204 2D50A0E3 		mov	r5, #45
 1410 0208 FEFFFFEB 		bl	print_line
 1411              	.LVL126:
 1412              		.loc 1 359 7 view .LVU361
 1413              	.LBB130:
 1414              	.LBI130:
 1415              		.loc 1 114 6 view .LVU362
 1416              	.LBB131:
 1417              		.loc 1 116 3 view .LVU363
 1418              		.loc 1 116 3 is_stmt 0 view .LVU364
 1419 020c C0B29FE5 		ldr	fp, .L173+100
 1420              		.loc 1 116 10 view .LVU365
 1421 0210 0510A0E1 		mov	r1, r5
 1422 0214 010000EA 		b	.L127
 1423              	.LVL127:
 1424              	.L167:
 1425              		.loc 1 116 10 view .LVU366
ARM GAS  /var/folders/l5/0x54b2c10074c8bt31ycjvl80000gp/T//ccnDt0u1.s 			page 26


 1426 0218 0510A0E1 		mov	r1, r5
 1427              		.loc 1 116 9 view .LVU367
 1428 021c 0150FBE5 		ldrb	r5, [fp, #1]!	@ zero_extendqisi2
 1429              	.LVL128:
 1430              	.L127:
 1431              		.loc 1 117 5 is_stmt 1 view .LVU368
 1432 0220 000094E5 		ldr	r0, [r4]
 1433              	.LVL129:
 1434              		.loc 1 117 5 is_stmt 0 view .LVU369
 1435 0224 003090E5 		ldr	r3, [r0]
 1436 0228 083093E5 		ldr	r3, [r3, #8]
 1437 022c 33FF2FE1 		blx	r3
 1438              	.LVL130:
 1439              		.loc 1 116 9 view .LVU370
 1440 0230 000055E3 		cmp	r5, #0
 1441 0234 F7FFFF1A 		bne	.L167
 1442              	.LVL131:
 1443              		.loc 1 116 9 view .LVU371
 1444              	.LBE131:
 1445              	.LBE130:
 1446              		.loc 1 360 7 is_stmt 1 view .LVU372
 1447 0238 04009DE5 		ldr	r0, [sp, #4]
 1448 023c FEFFFFEB 		bl	test_printn
 1449              	.LVL132:
 1450              		.loc 1 361 7 view .LVU373
 1451              	.LBB132:
 1452              	.LBI132:
 1453              		.loc 1 114 6 view .LVU374
 1454              	.LBB133:
 1455              		.loc 1 117 5 view .LVU375
 1456 0240 000094E5 		ldr	r0, [r4]
 1457              	.LVL133:
 1458              		.loc 1 117 5 is_stmt 0 view .LVU376
 1459 0244 2E10A0E3 		mov	r1, #46
 1460 0248 003090E5 		ldr	r3, [r0]
 1461              	.LBE133:
 1462              	.LBE132:
 1463              		.loc 1 362 21 view .LVU377
 1464 024c 019089E2 		add	r9, r9, #1
 1465              	.LVL134:
 1466              	.LBB135:
 1467              	.LBB134:
 1468              		.loc 1 117 5 view .LVU378
 1469 0250 083093E5 		ldr	r3, [r3, #8]
 1470 0254 33FF2FE1 		blx	r3
 1471              	.LVL135:
 1472              		.loc 1 117 5 view .LVU379
 1473              	.LBE134:
 1474              	.LBE135:
 1475              		.loc 1 362 7 is_stmt 1 view .LVU380
 1476 0258 0900A0E1 		mov	r0, r9
 1477 025c FEFFFFEB 		bl	test_printn
 1478              	.LVL136:
 1479              		.loc 1 363 7 view .LVU381
 1480              	.LBB136:
 1481              	.LBI136:
 1482              		.loc 1 114 6 view .LVU382
ARM GAS  /var/folders/l5/0x54b2c10074c8bt31ycjvl80000gp/T//ccnDt0u1.s 			page 27


 1483              		.loc 1 114 6 is_stmt 0 view .LVU383
 1484              	.LBE136:
 1485              		.loc 1 362 7 view .LVU384
 1486 0260 28B0A0E3 		mov	fp, #40
 1487              	.LBB138:
 1488              	.LBB137:
 1489              		.loc 1 116 10 view .LVU385
 1490 0264 2010A0E3 		mov	r1, #32
 1491 0268 68529FE5 		ldr	r5, .L173+104
 1492 026c 010000EA 		b	.L129
 1493              	.LVL137:
 1494              	.L168:
 1495              		.loc 1 116 10 view .LVU386
 1496 0270 0B10A0E1 		mov	r1, fp
 1497              		.loc 1 116 9 view .LVU387
 1498 0274 01B0F5E5 		ldrb	fp, [r5, #1]!	@ zero_extendqisi2
 1499              	.LVL138:
 1500              	.L129:
 1501              		.loc 1 117 5 is_stmt 1 view .LVU388
 1502 0278 000094E5 		ldr	r0, [r4]
 1503              	.LVL139:
 1504              		.loc 1 117 5 is_stmt 0 view .LVU389
 1505 027c 003090E5 		ldr	r3, [r0]
 1506 0280 083093E5 		ldr	r3, [r3, #8]
 1507 0284 33FF2FE1 		blx	r3
 1508              	.LVL140:
 1509              		.loc 1 116 9 view .LVU390
 1510 0288 00005BE3 		cmp	fp, #0
 1511 028c F7FFFF1A 		bne	.L168
 1512              	.LVL141:
 1513              		.loc 1 116 9 view .LVU391
 1514              	.LBE137:
 1515              	.LBE138:
 1516              		.loc 1 364 7 is_stmt 1 view .LVU392
 1517 0290 003098E5 		ldr	r3, [r8]
 1518 0294 005093E5 		ldr	r5, [r3]
 1519              	.LVL142:
 1520              	.LBB139:
 1521              	.LBI139:
 1522              		.loc 1 114 6 view .LVU393
 1523              	.LBB140:
 1524              		.loc 1 116 10 is_stmt 0 view .LVU394
 1525 0298 0010D5E5 		ldrb	r1, [r5]	@ zero_extendqisi2
 1526              		.loc 1 116 9 view .LVU395
 1527 029c 000051E3 		cmp	r1, #0
 1528 02a0 0600000A 		beq	.L133
 1529              	.LVL143:
 1530              	.L130:
 1531              		.loc 1 117 5 is_stmt 1 view .LVU396
 1532 02a4 000094E5 		ldr	r0, [r4]
 1533              		.loc 1 117 5 is_stmt 0 view .LVU397
 1534 02a8 003090E5 		ldr	r3, [r0]
 1535 02ac 083093E5 		ldr	r3, [r3, #8]
 1536 02b0 33FF2FE1 		blx	r3
 1537              	.LVL144:
 1538              		.loc 1 116 10 view .LVU398
 1539 02b4 0110F5E5 		ldrb	r1, [r5, #1]!	@ zero_extendqisi2
ARM GAS  /var/folders/l5/0x54b2c10074c8bt31ycjvl80000gp/T//ccnDt0u1.s 			page 28


 1540              	.LVL145:
 1541              		.loc 1 116 9 view .LVU399
 1542 02b8 000051E3 		cmp	r1, #0
 1543 02bc F8FFFF1A 		bne	.L130
 1544              	.LVL146:
 1545              	.L133:
 1546              		.loc 1 116 9 view .LVU400
 1547              	.LBE140:
 1548              	.LBE139:
 1549              		.loc 1 365 7 is_stmt 1 view .LVU401
 1550 02c0 14029FE5 		ldr	r0, .L173+108
 1551 02c4 FEFFFFEB 		bl	test_println
 1552              	.LVL147:
 1553              		.loc 1 367 7 view .LVU402
 1554 02c8 C800A0E3 		mov	r0, #200
 1555 02cc FEFFFFEB 		bl	chThdSleep
 1556              	.LVL148:
 1557              		.loc 1 369 7 view .LVU403
 1558              	.LBB141:
 1559              	.LBB126:
 1560              		.loc 1 291 14 is_stmt 0 view .LVU404
 1561 02d0 0030A0E3 		mov	r3, #0
 1562              	.LBE126:
 1563              	.LBE141:
 1564              		.loc 1 369 7 view .LVU405
 1565 02d4 005098E5 		ldr	r5, [r8]
 1566              	.LVL149:
 1567              	.LBB142:
 1568              	.LBI116:
 1569              		.loc 1 286 13 is_stmt 1 view .LVU406
 1570              	.LBB127:
 1571              		.loc 1 287 3 view .LVU407
 1572              		.loc 1 290 3 view .LVU408
 1573              	.LBB122:
 1574              	.LBI118:
 1575              		.loc 1 134 13 view .LVU409
 1576              	.LBB120:
 1577              		.loc 1 136 3 view .LVU410
 1578              		.loc 1 136 8 is_stmt 0 view .LVU411
 1579 02d8 00229FE5 		ldr	r2, .L173+112
 1580              	.LBE120:
 1581              	.LBE122:
 1582              		.loc 1 291 14 view .LVU412
 1583 02dc 00308AE5 		str	r3, [r10]
 1584              	.LBB123:
 1585              	.LBB121:
 1586              		.loc 1 136 8 view .LVU413
 1587 02e0 002087E5 		str	r2, [r7]
 1588              	.LBE121:
 1589              	.LBE123:
 1590              		.loc 1 291 3 is_stmt 1 view .LVU414
 1591              		.loc 1 292 3 view .LVU415
 1592              	.LVL150:
 1593              		.loc 1 293 5 view .LVU416
 1594              		.loc 1 295 10 is_stmt 0 view .LVU417
 1595 02e4 042095E5 		ldr	r2, [r5, #4]
 1596              		.loc 1 293 16 view .LVU418
ARM GAS  /var/folders/l5/0x54b2c10074c8bt31ycjvl80000gp/T//ccnDt0u1.s 			page 29


 1597 02e8 003086E5 		str	r3, [r6]
 1598              	.LVL151:
 1599              		.loc 1 293 5 is_stmt 1 view .LVU419
 1600              		.loc 1 295 6 is_stmt 0 view .LVU420
 1601 02ec 030052E1 		cmp	r2, r3
 1602              		.loc 1 293 16 view .LVU421
 1603 02f0 043086E5 		str	r3, [r6, #4]
 1604              	.LVL152:
 1605              		.loc 1 293 5 is_stmt 1 view .LVU422
 1606              		.loc 1 293 16 is_stmt 0 view .LVU423
 1607 02f4 083086E5 		str	r3, [r6, #8]
 1608              	.LVL153:
 1609              		.loc 1 293 5 is_stmt 1 view .LVU424
 1610              		.loc 1 293 16 is_stmt 0 view .LVU425
 1611 02f8 0C3086E5 		str	r3, [r6, #12]
 1612              	.LVL154:
 1613              		.loc 1 293 5 is_stmt 1 view .LVU426
 1614              		.loc 1 293 16 is_stmt 0 view .LVU427
 1615 02fc 103086E5 		str	r3, [r6, #16]
 1616              	.LVL155:
 1617              		.loc 1 295 3 is_stmt 1 view .LVU428
 1618              		.loc 1 295 6 is_stmt 0 view .LVU429
 1619 0300 0000000A 		beq	.L132
 1620              		.loc 1 296 5 is_stmt 1 view .LVU430
 1621 0304 32FF2FE1 		blx	r2
 1622              	.LVL156:
 1623              	.L132:
 1624              		.loc 1 297 3 view .LVU431
 1625 0308 0C3095E5 		ldr	r3, [r5, #12]
 1626 030c 33FF2FE1 		blx	r3
 1627              	.LVL157:
 1628              		.loc 1 298 3 view .LVU432
 1629              		.loc 1 298 10 is_stmt 0 view .LVU433
 1630 0310 083095E5 		ldr	r3, [r5, #8]
 1631              		.loc 1 298 6 view .LVU434
 1632 0314 000053E3 		cmp	r3, #0
 1633 0318 0000000A 		beq	.L134
 1634              		.loc 1 299 5 is_stmt 1 view .LVU435
 1635 031c 33FF2FE1 		blx	r3
 1636              	.LVL158:
 1637              	.L134:
 1638              		.loc 1 301 3 view .LVU436
 1639 0320 FEFFFFEB 		bl	test_wait_threads
 1640              	.LVL159:
 1641              		.loc 1 301 3 is_stmt 0 view .LVU437
 1642              	.LBE127:
 1643              	.LBE142:
 1644              		.loc 1 370 7 is_stmt 1 view .LVU438
 1645              		.loc 1 370 10 is_stmt 0 view .LVU439
 1646 0324 00309AE5 		ldr	r3, [r10]
 1647 0328 000053E3 		cmp	r3, #0
 1648 032c 0B00001A 		bne	.L169
 1649              		.loc 1 378 9 is_stmt 1 view .LVU440
 1650 0330 AC019FE5 		ldr	r0, .L173+116
 1651 0334 FEFFFFEB 		bl	test_println
 1652              	.LVL160:
 1653              		.loc 1 357 11 is_stmt 0 view .LVU441
ARM GAS  /var/folders/l5/0x54b2c10074c8bt31ycjvl80000gp/T//ccnDt0u1.s 			page 30


 1654 0338 0430B8E5 		ldr	r3, [r8, #4]!
 1655 033c 000053E3 		cmp	r3, #0
 1656 0340 AFFFFF1A 		bne	.L143
 1657              	.L166:
 1658              		.loc 1 381 5 is_stmt 1 view .LVU442
 1659              	.LVL161:
 1660              		.loc 1 355 9 is_stmt 0 view .LVU443
 1661 0344 08809DE5 		ldr	r8, [sp, #8]
 1662 0348 000058E3 		cmp	r8, #0
 1663 034c 2E00000A 		beq	.L144
 1664              		.loc 1 381 6 view .LVU444
 1665 0350 0C309DE5 		ldr	r3, [sp, #12]
 1666 0354 042093E4 		ldr	r2, [r3], #4
 1667 0358 F820CDE1 		strd	r2, [sp, #8]
 1668 035c 9FFFFFEA 		b	.L125
 1669              	.LVL162:
 1670              	.L169:
 1671              		.loc 1 370 10 view .LVU445
 1672 0360 2D50A0E3 		mov	r5, #45
 1673 0364 7CB19FE5 		ldr	fp, .L173+120
 1674              	.LBB143:
 1675              	.LBB144:
 1676              		.loc 1 116 10 view .LVU446
 1677 0368 0510A0E1 		mov	r1, r5
 1678 036c 010000EA 		b	.L137
 1679              	.LVL163:
 1680              	.L170:
 1681              		.loc 1 116 10 view .LVU447
 1682 0370 0510A0E1 		mov	r1, r5
 1683              		.loc 1 116 9 view .LVU448
 1684 0374 0150FBE5 		ldrb	r5, [fp, #1]!	@ zero_extendqisi2
 1685              	.LVL164:
 1686              	.L137:
 1687              		.loc 1 117 5 is_stmt 1 view .LVU449
 1688 0378 000094E5 		ldr	r0, [r4]
 1689              	.LVL165:
 1690              		.loc 1 117 5 is_stmt 0 view .LVU450
 1691 037c 003090E5 		ldr	r3, [r0]
 1692 0380 083093E5 		ldr	r3, [r3, #8]
 1693 0384 33FF2FE1 		blx	r3
 1694              	.LVL166:
 1695              		.loc 1 116 9 view .LVU451
 1696 0388 000055E3 		cmp	r5, #0
 1697 038c F7FFFF1A 		bne	.L170
 1698              	.LVL167:
 1699              		.loc 1 116 9 view .LVU452
 1700              	.LBE144:
 1701              	.LBE143:
 1702              		.loc 1 372 9 is_stmt 1 view .LVU453
 1703 0390 54319FE5 		ldr	r3, .L173+124
 1704 0394 5BB0A0E3 		mov	fp, #91
 1705 0398 000093E5 		ldr	r0, [r3]
 1706 039c FEFFFFEB 		bl	test_printn
 1707              	.LVL168:
 1708              		.loc 1 373 9 view .LVU454
 1709              	.LBB145:
 1710              	.LBI145:
ARM GAS  /var/folders/l5/0x54b2c10074c8bt31ycjvl80000gp/T//ccnDt0u1.s 			page 31


 1711              		.loc 1 114 6 view .LVU455
 1712              		.loc 1 114 6 is_stmt 0 view .LVU456
 1713 03a0 48519FE5 		ldr	r5, .L173+128
 1714              	.LBB146:
 1715              		.loc 1 116 10 view .LVU457
 1716 03a4 2010A0E3 		mov	r1, #32
 1717 03a8 010000EA 		b	.L139
 1718              	.LVL169:
 1719              	.L171:
 1720              		.loc 1 116 10 view .LVU458
 1721 03ac 0B10A0E1 		mov	r1, fp
 1722              		.loc 1 116 9 view .LVU459
 1723 03b0 01B0F5E5 		ldrb	fp, [r5, #1]!	@ zero_extendqisi2
 1724              	.LVL170:
 1725              	.L139:
 1726              		.loc 1 117 5 is_stmt 1 view .LVU460
 1727 03b4 000094E5 		ldr	r0, [r4]
 1728              	.LVL171:
 1729              		.loc 1 117 5 is_stmt 0 view .LVU461
 1730 03b8 003090E5 		ldr	r3, [r0]
 1731 03bc 083093E5 		ldr	r3, [r3, #8]
 1732 03c0 33FF2FE1 		blx	r3
 1733              	.LVL172:
 1734              		.loc 1 116 9 view .LVU462
 1735 03c4 00005BE3 		cmp	fp, #0
 1736 03c8 F7FFFF1A 		bne	.L171
 1737              	.LVL173:
 1738              		.loc 1 116 9 view .LVU463
 1739              	.LBE146:
 1740              	.LBE145:
 1741              	.LBB147:
 1742              	.LBB148:
 1743              		.loc 1 142 9 view .LVU464
 1744 03cc 003097E5 		ldr	r3, [r7]
 1745 03d0 08219FE5 		ldr	r2, .L173+112
 1746 03d4 020053E1 		cmp	r3, r2
 1747              		.loc 1 140 9 view .LVU465
 1748 03d8 00519F85 		ldrhi	r5, .L173+112
 1749              	.LVL174:
 1750              		.loc 1 142 9 view .LVU466
 1751 03dc 0700009A 		bls	.L142
 1752              	.LVL175:
 1753              	.L140:
 1754              		.loc 1 143 5 is_stmt 1 view .LVU467
 1755 03e0 000094E5 		ldr	r0, [r4]
 1756              		.loc 1 143 5 is_stmt 0 view .LVU468
 1757 03e4 0110D5E4 		ldrb	r1, [r5], #1	@ zero_extendqisi2
 1758              	.LVL176:
 1759              		.loc 1 143 5 view .LVU469
 1760 03e8 003090E5 		ldr	r3, [r0]
 1761 03ec 083093E5 		ldr	r3, [r3, #8]
 1762 03f0 33FF2FE1 		blx	r3
 1763              	.LVL177:
 1764              		.loc 1 142 9 view .LVU470
 1765 03f4 003097E5 		ldr	r3, [r7]
 1766 03f8 030055E1 		cmp	r5, r3
 1767 03fc F7FFFF3A 		bcc	.L140
ARM GAS  /var/folders/l5/0x54b2c10074c8bt31ycjvl80000gp/T//ccnDt0u1.s 			page 32


 1768              	.LVL178:
 1769              	.L142:
 1770              		.loc 1 142 9 view .LVU471
 1771              	.LBE148:
 1772              	.LBE147:
 1773              		.loc 1 375 9 is_stmt 1 view .LVU472
 1774 0400 EC009FE5 		ldr	r0, .L173+132
 1775 0404 FEFFFFEB 		bl	test_println
 1776              	.LVL179:
 1777 0408 7AFFFFEA 		b	.L145
 1778              	.LVL180:
 1779              	.L144:
 1780              		.loc 1 383 3 view .LVU473
 1781 040c FEFFFFEB 		bl	print_line
 1782              	.LVL181:
 1783              		.loc 1 384 3 view .LVU474
 1784 0410 5C009FE5 		ldr	r0, .L173+4
 1785 0414 FEFFFFEB 		bl	test_println
 1786              	.LVL182:
 1787              		.loc 1 385 3 view .LVU475
 1788              	.LBB149:
 1789              	.LBI149:
 1790              		.loc 1 114 6 view .LVU476
 1791              	.LBB150:
 1792              		.loc 1 116 3 view .LVU477
 1793              		.loc 1 116 3 is_stmt 0 view .LVU478
 1794              	.LBE150:
 1795              	.LBE149:
 1796              		.loc 1 384 3 view .LVU479
 1797 0418 6950A0E3 		mov	r5, #105
 1798              	.LBB152:
 1799              	.LBB151:
 1800              		.loc 1 116 10 view .LVU480
 1801 041c 4610A0E3 		mov	r1, #70
 1802 0420 D0609FE5 		ldr	r6, .L173+136
 1803 0424 010000EA 		b	.L147
 1804              	.LVL183:
 1805              	.L172:
 1806              		.loc 1 116 10 view .LVU481
 1807 0428 0510A0E1 		mov	r1, r5
 1808              		.loc 1 116 9 view .LVU482
 1809 042c 0150F6E5 		ldrb	r5, [r6, #1]!	@ zero_extendqisi2
 1810              	.LVL184:
 1811              	.L147:
 1812              		.loc 1 117 5 is_stmt 1 view .LVU483
 1813 0430 000094E5 		ldr	r0, [r4]
 1814              	.LVL185:
 1815              		.loc 1 117 5 is_stmt 0 view .LVU484
 1816 0434 003090E5 		ldr	r3, [r0]
 1817 0438 083093E5 		ldr	r3, [r3, #8]
 1818 043c 33FF2FE1 		blx	r3
 1819              	.LVL186:
 1820              		.loc 1 116 9 view .LVU485
 1821 0440 000055E3 		cmp	r5, #0
 1822 0444 F7FFFF1A 		bne	.L172
 1823              	.LVL187:
 1824              		.loc 1 116 9 view .LVU486
ARM GAS  /var/folders/l5/0x54b2c10074c8bt31ycjvl80000gp/T//ccnDt0u1.s 			page 33


 1825              	.LBE151:
 1826              	.LBE152:
 1827              		.loc 1 386 3 is_stmt 1 view .LVU487
 1828              		.loc 1 386 6 is_stmt 0 view .LVU488
 1829 0448 68309FE5 		ldr	r3, .L173+72
 1830 044c 003093E5 		ldr	r3, [r3]
 1831 0450 000053E3 		cmp	r3, #0
 1832              		.loc 1 387 5 is_stmt 1 view .LVU489
 1833 0454 A0009F15 		ldrne	r0, .L173+140
 1834              		.loc 1 389 5 view .LVU490
 1835 0458 A0009F05 		ldreq	r0, .L173+144
 1836 045c FEFFFFEB 		bl	test_println
 1837              	.LVL188:
 1838              		.loc 1 391 3 view .LVU491
 1839              		.loc 1 392 1 is_stmt 0 view .LVU492
 1840 0460 50309FE5 		ldr	r3, .L173+72
 1841 0464 000093E5 		ldr	r0, [r3]
 1842 0468 14D08DE2 		add	sp, sp, #20
 1843              		.cfi_def_cfa_offset 36
 1844              		@ sp needed
 1845 046c F08FBDE8 		pop	{r4, r5, r6, r7, r8, r9, r10, fp, pc}
 1846              	.LVL189:
 1847              	.L174:
 1848              		.loc 1 392 1 view .LVU493
 1849              		.align	2
 1850              	.L173:
 1851 0470 00000000 		.word	.LANCHOR0
 1852 0474 00000000 		.word	.LC1
 1853 0478 04000000 		.word	.LC2
 1854 047c 20000000 		.word	.LC3
 1855 0480 01000000 		.word	.LC4+1
 1856 0484 38000000 		.word	.LC5
 1857 0488 01000000 		.word	.LC6+1
 1858 048c 5C000000 		.word	.LC7
 1859 0490 01000000 		.word	.LC8+1
 1860 0494 88000000 		.word	.LC9
 1861 0498 01000000 		.word	.LC10+1
 1862 049c D8000000 		.word	.LC11
 1863 04a0 01000000 		.word	.LC12+1
 1864 04a4 F4000000 		.word	.LC13
 1865 04a8 01000000 		.word	.LC14+1
 1866 04ac 18010000 		.word	.LC15
 1867 04b0 01000000 		.word	.LC16+1
 1868 04b4 3C010000 		.word	.LC17
 1869 04b8 00000000 		.word	.LANCHOR3
 1870 04bc 00000000 		.word	patternthd
 1871 04c0 08000000 		.word	.LANCHOR7+8
 1872 04c4 00000000 		.word	.LANCHOR1
 1873 04c8 00000000 		.word	patternsem
 1874 04cc 00000000 		.word	.LANCHOR2
 1875 04d0 00000000 		.word	threads
 1876 04d4 01000000 		.word	.LC18+1
 1877 04d8 01000000 		.word	.LC19+1
 1878 04dc 58010000 		.word	.LC20
 1879 04e0 00000000 		.word	.LANCHOR5
 1880 04e4 7C010000 		.word	.LC24
 1881 04e8 01000000 		.word	.LC21+1
ARM GAS  /var/folders/l5/0x54b2c10074c8bt31ycjvl80000gp/T//ccnDt0u1.s 			page 34


 1882 04ec 00000000 		.word	.LANCHOR4
 1883 04f0 01000000 		.word	.LC22+1
 1884 04f4 78010000 		.word	.LC23
 1885 04f8 01000000 		.word	.LC25+1
 1886 04fc A0010000 		.word	.LC26
 1887 0500 A8010000 		.word	.LC27
 1888              		.cfi_endproc
 1889              	.LFE25:
 1890              		.size	TestThread, .-TestThread
 1891              		.comm	test_timer_done,4,4
 1892              		.global	wa
 1893              		.comm	threads,20,4
 1894              		.comm	test,1400,4
 1895              		.section	.bss.chp,"aw",%nobits
 1896              		.align	2
 1897              		.set	.LANCHOR0,. + 0
 1898              		.type	chp, %object
 1899              		.size	chp, 4
 1900              	chp:
 1901 0000 00000000 		.space	4
 1902              		.section	.bss.failpoint,"aw",%nobits
 1903              		.align	2
 1904              		.set	.LANCHOR4,. + 0
 1905              		.type	failpoint, %object
 1906              		.size	failpoint, 4
 1907              	failpoint:
 1908 0000 00000000 		.space	4
 1909              		.section	.bss.global_fail,"aw",%nobits
 1910              		.align	2
 1911              		.set	.LANCHOR3,. + 0
 1912              		.type	global_fail, %object
 1913              		.size	global_fail, 4
 1914              	global_fail:
 1915 0000 00000000 		.space	4
 1916              		.section	.bss.local_fail,"aw",%nobits
 1917              		.align	2
 1918              		.set	.LANCHOR2,. + 0
 1919              		.type	local_fail, %object
 1920              		.size	local_fail, 4
 1921              	local_fail:
 1922 0000 00000000 		.space	4
 1923              		.section	.bss.tokens_buffer,"aw",%nobits
 1924              		.align	2
 1925              		.set	.LANCHOR5,. + 0
 1926              		.type	tokens_buffer, %object
 1927              		.size	tokens_buffer, 16
 1928              	tokens_buffer:
 1929 0000 00000000 		.space	16
 1929      00000000 
 1929      00000000 
 1929      00000000 
 1930              		.section	.bss.tokp,"aw",%nobits
 1931              		.align	2
 1932              		.set	.LANCHOR1,. + 0
 1933              		.type	tokp, %object
 1934              		.size	tokp, 4
 1935              	tokp:
ARM GAS  /var/folders/l5/0x54b2c10074c8bt31ycjvl80000gp/T//ccnDt0u1.s 			page 35


 1936 0000 00000000 		.space	4
 1937              		.section	.bss.vt,"aw",%nobits
 1938              		.align	2
 1939              		.set	.LANCHOR6,. + 0
 1940              		.type	vt, %object
 1941              		.size	vt, 20
 1942              	vt:
 1943 0000 00000000 		.space	20
 1943      00000000 
 1943      00000000 
 1943      00000000 
 1943      00000000 
 1944              		.section	.rodata.TestThread.str1.4,"aMS",%progbits,1
 1945              		.align	2
 1946              	.LC1:
 1947 0000 00       		.ascii	"\000"
 1948 0001 000000   		.space	3
 1949              	.LC2:
 1950 0004 2A2A2A20 		.ascii	"*** ChibiOS/RT test suite\000"
 1950      43686962 
 1950      694F532F 
 1950      52542074 
 1950      65737420 
 1951 001e 0000     		.space	2
 1952              	.LC3:
 1953 0020 2A2A2A00 		.ascii	"***\000"
 1954              	.LC4:
 1955 0024 2A2A2A20 		.ascii	"*** Kernel:       \000"
 1955      4B65726E 
 1955      656C3A20 
 1955      20202020 
 1955      202000
 1956 0037 00       		.space	1
 1957              	.LC5:
 1958 0038 322E352E 		.ascii	"2.5.1unstable\000"
 1958      31756E73 
 1958      7461626C 
 1958      6500
 1959 0046 0000     		.space	2
 1960              	.LC6:
 1961 0048 2A2A2A20 		.ascii	"*** Compiled:     \000"
 1961      436F6D70 
 1961      696C6564 
 1961      3A202020 
 1961      202000
 1962 005b 00       		.space	1
 1963              	.LC7:
 1964 005c 4E6F7620 		.ascii	"Nov 19 2019 - 09:57:40\000"
 1964      31392032 
 1964      30313920 
 1964      2D203039 
 1964      3A35373A 
 1965 0073 00       		.space	1
 1966              	.LC8:
 1967 0074 2A2A2A20 		.ascii	"*** Compiler:     \000"
 1967      436F6D70 
 1967      696C6572 
ARM GAS  /var/folders/l5/0x54b2c10074c8bt31ycjvl80000gp/T//ccnDt0u1.s 			page 36


 1967      3A202020 
 1967      202000
 1968 0087 00       		.space	1
 1969              	.LC9:
 1970 0088 47434320 		.ascii	"GCC 8.3.1 20190703 (release) [gcc-8-branch revision"
 1970      382E332E 
 1970      31203230 
 1970      31393037 
 1970      30332028 
 1971 00bb 20323733 		.ascii	" 273027]\000"
 1971      3032375D 
 1971      00
 1972              	.LC10:
 1973 00c4 2A2A2A20 		.ascii	"*** Architecture: \000"
 1973      41726368 
 1973      69746563 
 1973      74757265 
 1973      3A2000
 1974 00d7 00       		.space	1
 1975              	.LC11:
 1976 00d8 41524D31 		.ascii	"ARM11\000"
 1976      3100
 1977 00de 0000     		.space	2
 1978              	.LC12:
 1979 00e0 2A2A2A20 		.ascii	"*** Core Variant: \000"
 1979      436F7265 
 1979      20566172 
 1979      69616E74 
 1979      3A2000
 1980 00f3 00       		.space	1
 1981              	.LC13:
 1982 00f4 41524D31 		.ascii	"ARM1176JZF-S\000"
 1982      3137364A 
 1982      5A462D53 
 1982      00
 1983 0101 000000   		.space	3
 1984              	.LC14:
 1985 0104 2A2A2A20 		.ascii	"*** Port Info:    \000"
 1985      506F7274 
 1985      20496E66 
 1985      6F3A2020 
 1985      202000
 1986 0117 00       		.space	1
 1987              	.LC15:
 1988 0118 50757265 		.ascii	"Pure ARM mode\000"
 1988      2041524D 
 1988      206D6F64 
 1988      6500
 1989 0126 0000     		.space	2
 1990              	.LC16:
 1991 0128 2A2A2A20 		.ascii	"*** Platform:     \000"
 1991      506C6174 
 1991      666F726D 
 1991      3A202020 
 1991      202000
 1992 013b 00       		.space	1
 1993              	.LC17:
ARM GAS  /var/folders/l5/0x54b2c10074c8bt31ycjvl80000gp/T//ccnDt0u1.s 			page 37


 1994 013c 42434D32 		.ascii	"BCM2835\000"
 1994      38333500 
 1995              	.LC18:
 1996 0144 2D2D2D20 		.ascii	"--- Test Case \000"
 1996      54657374 
 1996      20436173 
 1996      652000
 1997 0153 00       		.space	1
 1998              	.LC19:
 1999 0154 202800   		.ascii	" (\000"
 2000 0157 00       		.space	1
 2001              	.LC20:
 2002 0158 2900     		.ascii	")\000"
 2003 015a 0000     		.space	2
 2004              	.LC21:
 2005 015c 2D2D2D20 		.ascii	"--- Result: FAILURE (#\000"
 2005      52657375 
 2005      6C743A20 
 2005      4641494C 
 2005      55524520 
 2006 0173 00       		.space	1
 2007              	.LC22:
 2008 0174 205B00   		.ascii	" [\000"
 2009 0177 00       		.space	1
 2010              	.LC23:
 2011 0178 5D2900   		.ascii	"])\000"
 2012 017b 00       		.space	1
 2013              	.LC24:
 2014 017c 2D2D2D20 		.ascii	"--- Result: SUCCESS\000"
 2014      52657375 
 2014      6C743A20 
 2014      53554343 
 2014      45535300 
 2015              	.LC25:
 2016 0190 46696E61 		.ascii	"Final result: \000"
 2016      6C207265 
 2016      73756C74 
 2016      3A2000
 2017 019f 00       		.space	1
 2018              	.LC26:
 2019 01a0 4641494C 		.ascii	"FAILURE\000"
 2019      55524500 
 2020              	.LC27:
 2021 01a8 53554343 		.ascii	"SUCCESS\000"
 2021      45535300 
 2022              		.section	.rodata.patterns,"a"
 2023              		.align	2
 2024              		.set	.LANCHOR7,. + 0
 2025              		.type	patterns, %object
 2026              		.size	patterns, 48
 2027              	patterns:
 2028 0000 00000000 		.word	patternthd
 2029 0004 00000000 		.word	patternsem
 2030 0008 00000000 		.word	patternmtx
 2031 000c 00000000 		.word	patternmsg
 2032 0010 00000000 		.word	patternmbox
 2033 0014 00000000 		.word	patternevt
ARM GAS  /var/folders/l5/0x54b2c10074c8bt31ycjvl80000gp/T//ccnDt0u1.s 			page 38


 2034 0018 00000000 		.word	patternheap
 2035 001c 00000000 		.word	patternpools
 2036 0020 00000000 		.word	patterndyn
 2037 0024 00000000 		.word	patternqueues
 2038 0028 00000000 		.word	patternbmk
 2039 002c 00000000 		.word	0
 2040              		.section	.rodata.print_line.str1.4,"aMS",%progbits,1
 2041              		.align	2
 2042              	.LC0:
 2043 0000 0D0A00   		.ascii	"\015\012\000"
 2044              		.section	.rodata.wa,"a"
 2045              		.align	2
 2046              		.type	wa, %object
 2047              		.size	wa, 20
 2048              	wa:
 2049 0000 00000000 		.word	test
 2050 0004 18010000 		.word	test+280
 2051 0008 30020000 		.word	test+560
 2052 000c 48030000 		.word	test+840
 2053 0010 60040000 		.word	test+1120
 2054              		.text
 2055              	.Letext0:
 2056              		.file 2 "/usr/local/Cellar/arm-gcc-bin/8-2019-q3-update/lib/gcc/arm-none-eabi/8.3.1/include/stddef
 2057              		.file 3 "/usr/local/Cellar/arm-gcc-bin/8-2019-q3-update/arm-none-eabi/include/machine/_default_typ
 2058              		.file 4 "/usr/local/Cellar/arm-gcc-bin/8-2019-q3-update/arm-none-eabi/include/sys/_stdint.h"
 2059              		.file 5 "../../os/ports/GCC/ARM/chtypes.h"
 2060              		.file 6 "../../os/kernel/include/chlists.h"
 2061              		.file 7 "../../os/kernel/include/chthreads.h"
 2062              		.file 8 "../../os/ports/GCC/ARM/chcore.h"
 2063              		.file 9 "../../os/kernel/include/chvt.h"
 2064              		.file 10 "../../os/kernel/include/chschd.h"
 2065              		.file 11 "../../os/kernel/include/chmtx.h"
 2066              		.file 12 "../../os/kernel/include/chevents.h"
 2067              		.file 13 "../../os/kernel/include/chregistry.h"
 2068              		.file 14 "../../os/kernel/include/chqueues.h"
 2069              		.file 15 "../../os/kernel/include/chstreams.h"
 2070              		.file 16 "../../os/kernel/include/ch.h"
 2071              		.file 17 "../../os/hal/platforms/BCM2835/bcm2835.h"
 2072              		.file 18 "../../os/hal/platforms/BCM2835/pal_lld.h"
 2073              		.file 19 "../../os/hal/include/i2c.h"
 2074              		.file 20 "../../os/hal/platforms/BCM2835/i2c_lld.h"
 2075              		.file 21 "../../os/hal/include/serial.h"
 2076              		.file 22 "../../os/hal/include/spi.h"
 2077              		.file 23 "../../os/hal/platforms/BCM2835/spi_lld.h"
 2078              		.file 24 "../../test/test.h"
 2079              		.file 25 "../../os/hal/platforms/BCM2835/serial_lld.h"
 2080              		.file 26 "../../test/testthd.h"
 2081              		.file 27 "../../test/testsem.h"
 2082              		.file 28 "../../test/testmtx.h"
 2083              		.file 29 "../../test/testmsg.h"
 2084              		.file 30 "../../test/testmbox.h"
 2085              		.file 31 "../../test/testevt.h"
 2086              		.file 32 "../../test/testheap.h"
 2087              		.file 33 "../../test/testpools.h"
 2088              		.file 34 "../../test/testdyn.h"
 2089              		.file 35 "../../test/testqueues.h"
 2090              		.file 36 "../../test/testbmk.h"
ARM GAS  /var/folders/l5/0x54b2c10074c8bt31ycjvl80000gp/T//ccnDt0u1.s 			page 39

