ARM GAS  /var/folders/l5/0x54b2c10074c8bt31ycjvl80000gp/T//ccUNC6Ac.s 			page 1


   1              		.cpu arm1176jz-s
   2              		.eabi_attribute 20, 1
   3              		.eabi_attribute 21, 1
   4              		.eabi_attribute 23, 3
   5              		.eabi_attribute 24, 1
   6              		.eabi_attribute 25, 1
   7              		.eabi_attribute 26, 1
   8              		.eabi_attribute 30, 2
   9              		.eabi_attribute 34, 1
  10              		.eabi_attribute 18, 4
  11              		.file	"testmbox.c"
  12              		.text
  13              	.Ltext0:
  14              		.cfi_sections	.debug_frame
  15              		.section	.text.mbox1_execute,"ax",%progbits
  16              		.align	2
  17              		.arch armv6kz
  18              		.syntax unified
  19              		.arm
  20              		.fpu softvfp
  21              		.type	mbox1_execute, %function
  22              	mbox1_execute:
  23              	.LFB8:
  24              		.file 1 "../../test/testmbox.c"
  25              		.loc 1 80 33 view -0
  26              		.cfi_startproc
  27              		@ args = 0, pretend = 0, frame = 8
  28              		@ frame_needed = 0, uses_anonymous_args = 0
  29              		.loc 1 81 3 view .LVU1
  30              		.loc 1 82 3 view .LVU2
  31              		.loc 1 87 3 view .LVU3
  32              		.loc 1 80 33 is_stmt 0 view .LVU4
  33 0000 70402DE9 		push	{r4, r5, r6, lr}
  34              		.cfi_def_cfa_offset 16
  35              		.cfi_offset 4, -16
  36              		.cfi_offset 5, -12
  37              		.cfi_offset 6, -8
  38              		.cfi_offset 14, -4
  39              		.loc 1 87 3 view .LVU5
  40 0004 80679FE5 		ldr	r6, .L30
  41              		.loc 1 80 33 view .LVU6
  42 0008 08D04DE2 		sub	sp, sp, #8
  43              		.cfi_def_cfa_offset 24
  44              		.loc 1 87 3 view .LVU7
  45 000c 241096E5 		ldr	r1, [r6, #36]
  46 0010 0100A0E3 		mov	r0, #1
  47 0014 051041E2 		sub	r1, r1, #5
  48 0018 111F6FE1 		clz	r1, r1
  49 001c A112A0E1 		lsr	r1, r1, #5
  50 0020 FEFFFFEB 		bl	_test_assert
  51              	.LVL0:
  52 0024 000050E3 		cmp	r0, #0
  53 0028 1800001A 		bne	.L1
  54 002c 4240A0E3 		mov	r4, #66
  55              		.loc 1 93 12 view .LVU8
  56 0030 0650A0E1 		mov	r5, r6
  57              	.L3:
ARM GAS  /var/folders/l5/0x54b2c10074c8bt31ycjvl80000gp/T//ccUNC6Ac.s 			page 2


  58              	.LVL1:
  59              		.loc 1 93 5 is_stmt 1 view .LVU9
  60              		.loc 1 93 12 is_stmt 0 view .LVU10
  61 0034 0410A0E1 		mov	r1, r4
  62 0038 0020E0E3 		mvn	r2, #0
  63 003c 0500A0E1 		mov	r0, r5
  64 0040 FEFFFFEB 		bl	chMBPost
  65              	.LVL2:
  66              		.loc 1 94 5 is_stmt 1 view .LVU11
  67 0044 101F6FE1 		clz	r1, r0
  68 0048 0200A0E3 		mov	r0, #2
  69              	.LVL3:
  70              		.loc 1 94 5 is_stmt 0 view .LVU12
  71 004c A112A0E1 		lsr	r1, r1, #5
  72 0050 FEFFFFEB 		bl	_test_assert
  73              	.LVL4:
  74              		.loc 1 94 60 is_stmt 1 view .LVU13
  75              		.loc 1 94 5 is_stmt 0 view .LVU14
  76 0054 000050E3 		cmp	r0, #0
  77 0058 014084E2 		add	r4, r4, #1
  78              	.LVL5:
  79              		.loc 1 94 5 view .LVU15
  80 005c 0B00001A 		bne	.L1
  81              		.loc 1 92 3 discriminator 2 view .LVU16
  82 0060 460054E3 		cmp	r4, #70
  83 0064 F2FFFF1A 		bne	.L3
  84              		.loc 1 96 3 is_stmt 1 view .LVU17
  85              		.loc 1 96 10 is_stmt 0 view .LVU18
  86 0068 0020E0E3 		mvn	r2, #0
  87 006c 4110A0E3 		mov	r1, #65
  88 0070 14079FE5 		ldr	r0, .L30
  89 0074 FEFFFFEB 		bl	chMBPostAhead
  90              	.LVL6:
  91              		.loc 1 97 3 is_stmt 1 view .LVU19
  92 0078 101F6FE1 		clz	r1, r0
  93 007c 0300A0E3 		mov	r0, #3
  94              	.LVL7:
  95              		.loc 1 97 3 is_stmt 0 view .LVU20
  96 0080 A112A0E1 		lsr	r1, r1, #5
  97 0084 FEFFFFEB 		bl	_test_assert
  98              	.LVL8:
  99 0088 000050E3 		cmp	r0, #0
 100 008c 0100000A 		beq	.L29
 101              	.LVL9:
 102              	.L1:
 103              		.loc 1 224 1 view .LVU21
 104 0090 08D08DE2 		add	sp, sp, #8
 105              		.cfi_remember_state
 106              		.cfi_def_cfa_offset 16
 107              		@ sp needed
 108 0094 7080BDE8 		pop	{r4, r5, r6, pc}
 109              	.LVL10:
 110              	.L29:
 111              		.cfi_restore_state
 112              		.loc 1 97 58 is_stmt 1 discriminator 2 view .LVU22
 113              		.loc 1 102 3 discriminator 2 view .LVU23
 114              		.loc 1 102 10 is_stmt 0 discriminator 2 view .LVU24
ARM GAS  /var/folders/l5/0x54b2c10074c8bt31ycjvl80000gp/T//ccUNC6Ac.s 			page 3


 115 0098 5810A0E3 		mov	r1, #88
 116 009c 0120A0E3 		mov	r2, #1
 117 00a0 E4069FE5 		ldr	r0, .L30
 118 00a4 FEFFFFEB 		bl	chMBPost
 119              	.LVL11:
 120              		.loc 1 103 3 is_stmt 1 discriminator 2 view .LVU25
 121 00a8 010070E3 		cmn	r0, #1
 122 00ac 0010A013 		movne	r1, #0
 123 00b0 0110A003 		moveq	r1, #1
 124 00b4 0400A0E3 		mov	r0, #4
 125              	.LVL12:
 126              		.loc 1 103 3 is_stmt 0 discriminator 2 view .LVU26
 127 00b8 FEFFFFEB 		bl	_test_assert
 128              	.LVL13:
 129 00bc 000050E3 		cmp	r0, #0
 130 00c0 F2FFFF1A 		bne	.L1
 131              		.loc 1 103 63 is_stmt 1 discriminator 2 view .LVU27
 132              		.loc 1 104 3 discriminator 2 view .LVU28
 133              		.syntax divided
 134              	@ 104 "../../test/testmbox.c" 1
 135 00c4 9FF021E3 		msr     CPSR_c, #0x9F
 136              	@ 0 "" 2
 137              		.loc 1 104 3 discriminator 2 view .LVU29
 138              		.loc 1 104 14 discriminator 2 view .LVU30
 139              		.loc 1 105 3 discriminator 2 view .LVU31
 140              		.loc 1 105 10 is_stmt 0 discriminator 2 view .LVU32
 141              		.arm
 142              		.syntax unified
 143 00c8 5810A0E3 		mov	r1, #88
 144 00cc B8069FE5 		ldr	r0, .L30
 145 00d0 FEFFFFEB 		bl	chMBPostI
 146              	.LVL14:
 147 00d4 0010A0E1 		mov	r1, r0
 148              	.LVL15:
 149              		.loc 1 106 3 is_stmt 1 discriminator 2 view .LVU33
 150              		.loc 1 106 3 discriminator 2 view .LVU34
 151              		.syntax divided
 152              	@ 106 "../../test/testmbox.c" 1
 153 00d8 1FF021E3 		msr     CPSR_c, #0x1F
 154              	@ 0 "" 2
 155              		.loc 1 106 16 discriminator 2 view .LVU35
 156              		.loc 1 107 3 discriminator 2 view .LVU36
 157              		.arm
 158              		.syntax unified
 159 00dc 010071E3 		cmn	r1, #1
 160 00e0 0010A013 		movne	r1, #0
 161 00e4 0110A003 		moveq	r1, #1
 162 00e8 0500A0E3 		mov	r0, #5
 163              	.LVL16:
 164              		.loc 1 107 3 is_stmt 0 discriminator 2 view .LVU37
 165 00ec FEFFFFEB 		bl	_test_assert
 166              	.LVL17:
 167 00f0 000050E3 		cmp	r0, #0
 168 00f4 E5FFFF1A 		bne	.L1
 169              		.loc 1 107 63 is_stmt 1 discriminator 2 view .LVU38
 170              		.loc 1 108 3 discriminator 2 view .LVU39
 171              		.loc 1 108 10 is_stmt 0 discriminator 2 view .LVU40
ARM GAS  /var/folders/l5/0x54b2c10074c8bt31ycjvl80000gp/T//ccUNC6Ac.s 			page 4


 172 00f8 5810A0E3 		mov	r1, #88
 173 00fc 0120A0E3 		mov	r2, #1
 174 0100 84069FE5 		ldr	r0, .L30
 175 0104 FEFFFFEB 		bl	chMBPostAhead
 176              	.LVL18:
 177              		.loc 1 109 3 is_stmt 1 discriminator 2 view .LVU41
 178 0108 010070E3 		cmn	r0, #1
 179 010c 0010A013 		movne	r1, #0
 180 0110 0110A003 		moveq	r1, #1
 181 0114 0600A0E3 		mov	r0, #6
 182              	.LVL19:
 183              		.loc 1 109 3 is_stmt 0 discriminator 2 view .LVU42
 184 0118 FEFFFFEB 		bl	_test_assert
 185              	.LVL20:
 186 011c 000050E3 		cmp	r0, #0
 187 0120 DAFFFF1A 		bne	.L1
 188              		.loc 1 109 63 is_stmt 1 discriminator 2 view .LVU43
 189              		.loc 1 110 3 discriminator 2 view .LVU44
 190              		.syntax divided
 191              	@ 110 "../../test/testmbox.c" 1
 192 0124 9FF021E3 		msr     CPSR_c, #0x9F
 193              	@ 0 "" 2
 194              		.loc 1 110 3 discriminator 2 view .LVU45
 195              		.loc 1 110 14 discriminator 2 view .LVU46
 196              		.loc 1 111 3 discriminator 2 view .LVU47
 197              		.loc 1 111 10 is_stmt 0 discriminator 2 view .LVU48
 198              		.arm
 199              		.syntax unified
 200 0128 5810A0E3 		mov	r1, #88
 201 012c 58069FE5 		ldr	r0, .L30
 202 0130 FEFFFFEB 		bl	chMBPostAheadI
 203              	.LVL21:
 204 0134 0010A0E1 		mov	r1, r0
 205              	.LVL22:
 206              		.loc 1 112 3 is_stmt 1 discriminator 2 view .LVU49
 207              		.loc 1 112 3 discriminator 2 view .LVU50
 208              		.syntax divided
 209              	@ 112 "../../test/testmbox.c" 1
 210 0138 1FF021E3 		msr     CPSR_c, #0x1F
 211              	@ 0 "" 2
 212              		.loc 1 112 16 discriminator 2 view .LVU51
 213              		.loc 1 113 3 discriminator 2 view .LVU52
 214              		.arm
 215              		.syntax unified
 216 013c 010071E3 		cmn	r1, #1
 217 0140 0010A013 		movne	r1, #0
 218 0144 0110A003 		moveq	r1, #1
 219 0148 0700A0E3 		mov	r0, #7
 220              	.LVL23:
 221              		.loc 1 113 3 is_stmt 0 discriminator 2 view .LVU53
 222 014c FEFFFFEB 		bl	_test_assert
 223              	.LVL24:
 224 0150 000050E3 		cmp	r0, #0
 225 0154 CDFFFF1A 		bne	.L1
 226              		.loc 1 113 63 is_stmt 1 discriminator 2 view .LVU54
 227              		.loc 1 118 3 discriminator 2 view .LVU55
 228              		.syntax divided
ARM GAS  /var/folders/l5/0x54b2c10074c8bt31ycjvl80000gp/T//ccUNC6Ac.s 			page 5


 229              	@ 118 "../../test/testmbox.c" 1
 230 0158 9FF021E3 		msr     CPSR_c, #0x9F
 231              	@ 0 "" 2
 232              		.loc 1 118 3 discriminator 2 view .LVU56
 233              		.loc 1 118 3 discriminator 2 view .LVU57
 234              		.loc 1 118 3 discriminator 2 view .LVU58
 235              		.arm
 236              		.syntax unified
 237 015c 241096E5 		ldr	r1, [r6, #36]
 238 0160 0800A0E3 		mov	r0, #8
 239 0164 111F6FE1 		clz	r1, r1
 240 0168 A112A0E1 		lsr	r1, r1, #5
 241 016c FEFFFFEB 		bl	_test_assert
 242              	.LVL25:
 243 0170 000050E3 		cmp	r0, #0
 244 0174 8201001A 		bne	.L21
 245              		.loc 1 118 3 discriminator 2 view .LVU59
 246              		.loc 1 118 3 discriminator 2 view .LVU60
 247              		.syntax divided
 248              	@ 118 "../../test/testmbox.c" 1
 249 0178 1FF021E3 		msr     CPSR_c, #0x1F
 250              	@ 0 "" 2
 251              		.loc 1 118 3 discriminator 2 view .LVU61
 252              		.loc 1 118 67 discriminator 2 view .LVU62
 253              		.loc 1 119 3 discriminator 2 view .LVU63
 254              	@ 119 "../../test/testmbox.c" 1
 255 017c 9FF021E3 		msr     CPSR_c, #0x9F
 256              	@ 0 "" 2
 257              		.loc 1 119 3 discriminator 2 view .LVU64
 258              		.loc 1 119 3 discriminator 2 view .LVU65
 259              		.loc 1 119 3 discriminator 2 view .LVU66
 260              		.arm
 261              		.syntax unified
 262 0180 181096E5 		ldr	r1, [r6, #24]
 263 0184 0900A0E3 		mov	r0, #9
 264 0188 051041E2 		sub	r1, r1, #5
 265 018c 111F6FE1 		clz	r1, r1
 266 0190 A112A0E1 		lsr	r1, r1, #5
 267 0194 FEFFFFEB 		bl	_test_assert
 268              	.LVL26:
 269 0198 000050E3 		cmp	r0, #0
 270 019c 7801001A 		bne	.L21
 271              		.loc 1 119 3 discriminator 2 view .LVU67
 272              		.loc 1 119 3 discriminator 2 view .LVU68
 273              		.syntax divided
 274              	@ 119 "../../test/testmbox.c" 1
 275 01a0 1FF021E3 		msr     CPSR_c, #0x1F
 276              	@ 0 "" 2
 277              		.loc 1 119 3 discriminator 2 view .LVU69
 278              		.loc 1 119 70 discriminator 2 view .LVU70
 279              		.loc 1 120 3 discriminator 2 view .LVU71
 280              	@ 120 "../../test/testmbox.c" 1
 281 01a4 9FF021E3 		msr     CPSR_c, #0x9F
 282              	@ 0 "" 2
 283              		.loc 1 120 3 discriminator 2 view .LVU72
 284              		.loc 1 120 3 discriminator 2 view .LVU73
 285              		.loc 1 120 3 discriminator 2 view .LVU74
ARM GAS  /var/folders/l5/0x54b2c10074c8bt31ycjvl80000gp/T//ccUNC6Ac.s 			page 6


 286              		.arm
 287              		.syntax unified
 288 01a8 0C1096E5 		ldr	r1, [r6, #12]
 289 01ac 083096E5 		ldr	r3, [r6, #8]
 290 01b0 0A00A0E3 		mov	r0, #10
 291 01b4 031041E0 		sub	r1, r1, r3
 292 01b8 111F6FE1 		clz	r1, r1
 293 01bc A112A0E1 		lsr	r1, r1, #5
 294 01c0 FEFFFFEB 		bl	_test_assert
 295              	.LVL27:
 296 01c4 000050E3 		cmp	r0, #0
 297 01c8 6D01001A 		bne	.L21
 298              		.loc 1 120 3 discriminator 2 view .LVU75
 299              		.loc 1 120 3 discriminator 2 view .LVU76
 300              		.syntax divided
 301              	@ 120 "../../test/testmbox.c" 1
 302 01cc 1FF021E3 		msr     CPSR_c, #0x1F
 303              	@ 0 "" 2
 304              		.loc 1 120 3 discriminator 2 view .LVU77
 305              		.loc 1 120 77 discriminator 2 view .LVU78
 306              		.loc 1 125 3 discriminator 2 view .LVU79
 307              	.LVL28:
 308              		.loc 1 120 3 is_stmt 0 discriminator 2 view .LVU80
 309              		.arm
 310              		.syntax unified
 311 01d0 0540A0E3 		mov	r4, #5
 312              		.loc 1 126 12 discriminator 2 view .LVU81
 313 01d4 B0559FE5 		ldr	r5, .L30
 314              	.LVL29:
 315              	.L8:
 316              		.loc 1 126 5 is_stmt 1 view .LVU82
 317              		.loc 1 126 12 is_stmt 0 view .LVU83
 318 01d8 0020E0E3 		mvn	r2, #0
 319 01dc 04108DE2 		add	r1, sp, #4
 320 01e0 0500A0E1 		mov	r0, r5
 321 01e4 FEFFFFEB 		bl	chMBFetch
 322              	.LVL30:
 323              		.loc 1 127 5 is_stmt 1 view .LVU84
 324 01e8 101F6FE1 		clz	r1, r0
 325 01ec 0B00A0E3 		mov	r0, #11
 326              	.LVL31:
 327              		.loc 1 127 5 is_stmt 0 view .LVU85
 328 01f0 A112A0E1 		lsr	r1, r1, #5
 329 01f4 FEFFFFEB 		bl	_test_assert
 330              	.LVL32:
 331              		.loc 1 127 61 is_stmt 1 view .LVU86
 332              		.loc 1 128 5 view .LVU87
 333              		.loc 1 127 5 is_stmt 0 view .LVU88
 334 01f8 000050E3 		cmp	r0, #0
 335 01fc A3FFFF1A 		bne	.L1
 336              		.loc 1 128 5 discriminator 2 view .LVU89
 337 0200 0400DDE5 		ldrb	r0, [sp, #4]	@ zero_extendqisi2
 338 0204 FEFFFFEB 		bl	test_emit_token
 339              	.LVL33:
 340              		.loc 1 125 3 discriminator 2 view .LVU90
 341 0208 014054E2 		subs	r4, r4, #1
 342              	.LVL34:
ARM GAS  /var/folders/l5/0x54b2c10074c8bt31ycjvl80000gp/T//ccUNC6Ac.s 			page 7


 343              		.loc 1 125 3 discriminator 2 view .LVU91
 344 020c F1FFFF1A 		bne	.L8
 345              		.loc 1 130 3 is_stmt 1 view .LVU92
 346 0210 78159FE5 		ldr	r1, .L30+4
 347 0214 0C00A0E3 		mov	r0, #12
 348 0218 FEFFFFEB 		bl	_test_assert_sequence
 349              	.LVL35:
 350 021c 000050E3 		cmp	r0, #0
 351 0220 9AFFFF1A 		bne	.L1
 352              		.loc 1 130 36 discriminator 2 view .LVU93
 353              		.loc 1 135 3 discriminator 2 view .LVU94
 354              		.loc 1 135 10 is_stmt 0 discriminator 2 view .LVU95
 355 0224 0020E0E3 		mvn	r2, #0
 356 0228 4710A0E3 		mov	r1, #71
 357 022c 58059FE5 		ldr	r0, .L30
 358 0230 FEFFFFEB 		bl	chMBPost
 359              	.LVL36:
 360              		.loc 1 136 3 is_stmt 1 discriminator 2 view .LVU96
 361 0234 101F6FE1 		clz	r1, r0
 362 0238 0D00A0E3 		mov	r0, #13
 363              	.LVL37:
 364              		.loc 1 136 3 is_stmt 0 discriminator 2 view .LVU97
 365 023c A112A0E1 		lsr	r1, r1, #5
 366 0240 FEFFFFEB 		bl	_test_assert
 367              	.LVL38:
 368 0244 000050E3 		cmp	r0, #0
 369 0248 90FFFF1A 		bne	.L1
 370              		.loc 1 136 59 is_stmt 1 discriminator 2 view .LVU98
 371              		.loc 1 137 3 discriminator 2 view .LVU99
 372              		.loc 1 137 10 is_stmt 0 discriminator 2 view .LVU100
 373 024c 0020E0E3 		mvn	r2, #0
 374 0250 04108DE2 		add	r1, sp, #4
 375 0254 30059FE5 		ldr	r0, .L30
 376 0258 FEFFFFEB 		bl	chMBFetch
 377              	.LVL39:
 378              		.loc 1 138 3 is_stmt 1 discriminator 2 view .LVU101
 379 025c 101F6FE1 		clz	r1, r0
 380 0260 0E00A0E3 		mov	r0, #14
 381              	.LVL40:
 382              		.loc 1 138 3 is_stmt 0 discriminator 2 view .LVU102
 383 0264 A112A0E1 		lsr	r1, r1, #5
 384 0268 FEFFFFEB 		bl	_test_assert
 385              	.LVL41:
 386 026c 000050E3 		cmp	r0, #0
 387 0270 86FFFF1A 		bne	.L1
 388              		.loc 1 138 59 is_stmt 1 discriminator 2 view .LVU103
 389              		.loc 1 139 3 discriminator 2 view .LVU104
 390 0274 001096E5 		ldr	r1, [r6]
 391 0278 083096E5 		ldr	r3, [r6, #8]
 392 027c 0F00A0E3 		mov	r0, #15
 393 0280 031041E0 		sub	r1, r1, r3
 394 0284 111F6FE1 		clz	r1, r1
 395 0288 A112A0E1 		lsr	r1, r1, #5
 396 028c FEFFFFEB 		bl	_test_assert
 397              	.LVL42:
 398 0290 000050E3 		cmp	r0, #0
 399 0294 7DFFFF1A 		bne	.L1
ARM GAS  /var/folders/l5/0x54b2c10074c8bt31ycjvl80000gp/T//ccUNC6Ac.s 			page 8


 400              		.loc 1 139 86 discriminator 2 view .LVU105
 401              		.loc 1 140 3 discriminator 2 view .LVU106
 402 0298 001096E5 		ldr	r1, [r6]
 403 029c 0C3096E5 		ldr	r3, [r6, #12]
 404 02a0 1000A0E3 		mov	r0, #16
 405 02a4 031041E0 		sub	r1, r1, r3
 406 02a8 111F6FE1 		clz	r1, r1
 407 02ac A112A0E1 		lsr	r1, r1, #5
 408 02b0 FEFFFFEB 		bl	_test_assert
 409              	.LVL43:
 410 02b4 000050E3 		cmp	r0, #0
 411 02b8 74FFFF1A 		bne	.L1
 412              		.loc 1 140 85 discriminator 2 view .LVU107
 413              		.loc 1 145 3 discriminator 2 view .LVU108
 414              		.loc 1 145 10 is_stmt 0 discriminator 2 view .LVU109
 415 02bc 04108DE2 		add	r1, sp, #4
 416 02c0 0120A0E3 		mov	r2, #1
 417 02c4 C0049FE5 		ldr	r0, .L30
 418 02c8 FEFFFFEB 		bl	chMBFetch
 419              	.LVL44:
 420              		.loc 1 146 3 is_stmt 1 discriminator 2 view .LVU110
 421 02cc 010070E3 		cmn	r0, #1
 422 02d0 0010A013 		movne	r1, #0
 423 02d4 0110A003 		moveq	r1, #1
 424 02d8 1100A0E3 		mov	r0, #17
 425              	.LVL45:
 426              		.loc 1 146 3 is_stmt 0 discriminator 2 view .LVU111
 427 02dc FEFFFFEB 		bl	_test_assert
 428              	.LVL46:
 429 02e0 000050E3 		cmp	r0, #0
 430 02e4 69FFFF1A 		bne	.L1
 431              		.loc 1 146 64 is_stmt 1 discriminator 2 view .LVU112
 432              		.loc 1 147 3 discriminator 2 view .LVU113
 433              		.syntax divided
 434              	@ 147 "../../test/testmbox.c" 1
 435 02e8 9FF021E3 		msr     CPSR_c, #0x9F
 436              	@ 0 "" 2
 437              		.loc 1 147 3 discriminator 2 view .LVU114
 438              		.loc 1 147 14 discriminator 2 view .LVU115
 439              		.loc 1 148 3 discriminator 2 view .LVU116
 440              		.loc 1 148 10 is_stmt 0 discriminator 2 view .LVU117
 441              		.arm
 442              		.syntax unified
 443 02ec 98049FE5 		ldr	r0, .L30
 444 02f0 04108DE2 		add	r1, sp, #4
 445 02f4 FEFFFFEB 		bl	chMBFetchI
 446              	.LVL47:
 447 02f8 0010A0E1 		mov	r1, r0
 448              	.LVL48:
 449              		.loc 1 149 3 is_stmt 1 discriminator 2 view .LVU118
 450              		.loc 1 149 3 discriminator 2 view .LVU119
 451              		.syntax divided
 452              	@ 149 "../../test/testmbox.c" 1
 453 02fc 1FF021E3 		msr     CPSR_c, #0x1F
 454              	@ 0 "" 2
 455              		.loc 1 149 16 discriminator 2 view .LVU120
 456              		.loc 1 150 3 discriminator 2 view .LVU121
ARM GAS  /var/folders/l5/0x54b2c10074c8bt31ycjvl80000gp/T//ccUNC6Ac.s 			page 9


 457              		.arm
 458              		.syntax unified
 459 0300 010071E3 		cmn	r1, #1
 460 0304 0010A013 		movne	r1, #0
 461 0308 0110A003 		moveq	r1, #1
 462 030c 1200A0E3 		mov	r0, #18
 463              	.LVL49:
 464              		.loc 1 150 3 is_stmt 0 discriminator 2 view .LVU122
 465 0310 FEFFFFEB 		bl	_test_assert
 466              	.LVL50:
 467 0314 000050E3 		cmp	r0, #0
 468 0318 5CFFFF1A 		bne	.L1
 469              		.loc 1 150 64 is_stmt 1 discriminator 2 view .LVU123
 470              		.loc 1 155 3 discriminator 2 view .LVU124
 471              		.syntax divided
 472              	@ 155 "../../test/testmbox.c" 1
 473 031c 9FF021E3 		msr     CPSR_c, #0x9F
 474              	@ 0 "" 2
 475              		.loc 1 155 3 discriminator 2 view .LVU125
 476              		.loc 1 155 3 discriminator 2 view .LVU126
 477              		.loc 1 155 3 discriminator 2 view .LVU127
 478              		.arm
 479              		.syntax unified
 480 0320 241096E5 		ldr	r1, [r6, #36]
 481 0324 1300A0E3 		mov	r0, #19
 482 0328 051041E2 		sub	r1, r1, #5
 483 032c 111F6FE1 		clz	r1, r1
 484 0330 A112A0E1 		lsr	r1, r1, #5
 485 0334 FEFFFFEB 		bl	_test_assert
 486              	.LVL51:
 487 0338 000050E3 		cmp	r0, #0
 488 033c 1001001A 		bne	.L21
 489              		.loc 1 155 3 discriminator 2 view .LVU128
 490              		.loc 1 155 3 discriminator 2 view .LVU129
 491              		.syntax divided
 492              	@ 155 "../../test/testmbox.c" 1
 493 0340 1FF021E3 		msr     CPSR_c, #0x1F
 494              	@ 0 "" 2
 495              		.loc 1 155 3 discriminator 2 view .LVU130
 496              		.loc 1 155 72 discriminator 2 view .LVU131
 497              		.loc 1 156 3 discriminator 2 view .LVU132
 498              	@ 156 "../../test/testmbox.c" 1
 499 0344 9FF021E3 		msr     CPSR_c, #0x9F
 500              	@ 0 "" 2
 501              		.loc 1 156 3 discriminator 2 view .LVU133
 502              		.loc 1 156 3 discriminator 2 view .LVU134
 503              		.loc 1 156 3 discriminator 2 view .LVU135
 504              		.arm
 505              		.syntax unified
 506 0348 181096E5 		ldr	r1, [r6, #24]
 507 034c 1400A0E3 		mov	r0, #20
 508 0350 111F6FE1 		clz	r1, r1
 509 0354 A112A0E1 		lsr	r1, r1, #5
 510 0358 FEFFFFEB 		bl	_test_assert
 511              	.LVL52:
 512 035c 000050E3 		cmp	r0, #0
 513 0360 0701001A 		bne	.L21
ARM GAS  /var/folders/l5/0x54b2c10074c8bt31ycjvl80000gp/T//ccUNC6Ac.s 			page 10


 514              		.loc 1 156 3 discriminator 2 view .LVU136
 515              		.loc 1 156 3 discriminator 2 view .LVU137
 516              		.syntax divided
 517              	@ 156 "../../test/testmbox.c" 1
 518 0364 1FF021E3 		msr     CPSR_c, #0x1F
 519              	@ 0 "" 2
 520              		.loc 1 156 3 discriminator 2 view .LVU138
 521              		.loc 1 156 67 discriminator 2 view .LVU139
 522              		.loc 1 157 3 discriminator 2 view .LVU140
 523              	@ 157 "../../test/testmbox.c" 1
 524 0368 9FF021E3 		msr     CPSR_c, #0x9F
 525              	@ 0 "" 2
 526              		.loc 1 157 3 discriminator 2 view .LVU141
 527              		.loc 1 157 3 discriminator 2 view .LVU142
 528              		.loc 1 157 3 discriminator 2 view .LVU143
 529              		.arm
 530              		.syntax unified
 531 036c 0C1096E5 		ldr	r1, [r6, #12]
 532 0370 083096E5 		ldr	r3, [r6, #8]
 533 0374 1500A0E3 		mov	r0, #21
 534 0378 031041E0 		sub	r1, r1, r3
 535 037c 111F6FE1 		clz	r1, r1
 536 0380 A112A0E1 		lsr	r1, r1, #5
 537 0384 FEFFFFEB 		bl	_test_assert
 538              	.LVL53:
 539 0388 000050E3 		cmp	r0, #0
 540 038c FC00001A 		bne	.L21
 541              		.loc 1 157 3 discriminator 2 view .LVU144
 542              		.loc 1 157 3 discriminator 2 view .LVU145
 543              		.syntax divided
 544              	@ 157 "../../test/testmbox.c" 1
 545 0390 1FF021E3 		msr     CPSR_c, #0x1F
 546              	@ 0 "" 2
 547              		.loc 1 157 3 discriminator 2 view .LVU146
 548              		.loc 1 157 77 discriminator 2 view .LVU147
 549              		.loc 1 162 3 discriminator 2 view .LVU148
 550              	@ 162 "../../test/testmbox.c" 1
 551 0394 9FF021E3 		msr     CPSR_c, #0x9F
 552              	@ 0 "" 2
 553              		.loc 1 162 3 discriminator 2 view .LVU149
 554              		.loc 1 163 3 discriminator 2 view .LVU150
 555              		.loc 1 163 10 is_stmt 0 discriminator 2 view .LVU151
 556              		.arm
 557              		.syntax unified
 558 0398 4110A0E3 		mov	r1, #65
 559 039c E8039FE5 		ldr	r0, .L30
 560 03a0 FEFFFFEB 		bl	chMBPostI
 561              	.LVL54:
 562              		.loc 1 164 3 is_stmt 1 discriminator 2 view .LVU152
 563 03a4 101F6FE1 		clz	r1, r0
 564 03a8 1600A0E3 		mov	r0, #22
 565              	.LVL55:
 566              		.loc 1 164 3 is_stmt 0 discriminator 2 view .LVU153
 567 03ac A112A0E1 		lsr	r1, r1, #5
 568 03b0 FEFFFFEB 		bl	_test_assert
 569              	.LVL56:
 570 03b4 000050E3 		cmp	r0, #0
ARM GAS  /var/folders/l5/0x54b2c10074c8bt31ycjvl80000gp/T//ccUNC6Ac.s 			page 11


 571 03b8 34FFFF1A 		bne	.L1
 572              		.loc 1 164 59 is_stmt 1 discriminator 2 view .LVU154
 573              		.loc 1 165 3 discriminator 2 view .LVU155
 574              		.loc 1 165 10 is_stmt 0 discriminator 2 view .LVU156
 575 03bc 4210A0E3 		mov	r1, #66
 576 03c0 C4039FE5 		ldr	r0, .L30
 577 03c4 FEFFFFEB 		bl	chMBPostI
 578              	.LVL57:
 579              		.loc 1 166 3 is_stmt 1 discriminator 2 view .LVU157
 580 03c8 101F6FE1 		clz	r1, r0
 581 03cc 1700A0E3 		mov	r0, #23
 582              	.LVL58:
 583              		.loc 1 166 3 is_stmt 0 discriminator 2 view .LVU158
 584 03d0 A112A0E1 		lsr	r1, r1, #5
 585 03d4 FEFFFFEB 		bl	_test_assert
 586              	.LVL59:
 587 03d8 000050E3 		cmp	r0, #0
 588 03dc 2BFFFF1A 		bne	.L1
 589              		.loc 1 166 59 is_stmt 1 discriminator 2 view .LVU159
 590              		.loc 1 167 3 discriminator 2 view .LVU160
 591              		.loc 1 167 10 is_stmt 0 discriminator 2 view .LVU161
 592 03e0 4310A0E3 		mov	r1, #67
 593 03e4 A0039FE5 		ldr	r0, .L30
 594 03e8 FEFFFFEB 		bl	chMBPostI
 595              	.LVL60:
 596              		.loc 1 168 3 is_stmt 1 discriminator 2 view .LVU162
 597 03ec 101F6FE1 		clz	r1, r0
 598 03f0 1800A0E3 		mov	r0, #24
 599              	.LVL61:
 600              		.loc 1 168 3 is_stmt 0 discriminator 2 view .LVU163
 601 03f4 A112A0E1 		lsr	r1, r1, #5
 602 03f8 FEFFFFEB 		bl	_test_assert
 603              	.LVL62:
 604 03fc 000050E3 		cmp	r0, #0
 605 0400 22FFFF1A 		bne	.L1
 606              		.loc 1 168 59 is_stmt 1 discriminator 2 view .LVU164
 607              		.loc 1 169 3 discriminator 2 view .LVU165
 608              		.loc 1 169 10 is_stmt 0 discriminator 2 view .LVU166
 609 0404 4410A0E3 		mov	r1, #68
 610 0408 7C039FE5 		ldr	r0, .L30
 611 040c FEFFFFEB 		bl	chMBPostI
 612              	.LVL63:
 613              		.loc 1 170 3 is_stmt 1 discriminator 2 view .LVU167
 614 0410 101F6FE1 		clz	r1, r0
 615 0414 1900A0E3 		mov	r0, #25
 616              	.LVL64:
 617              		.loc 1 170 3 is_stmt 0 discriminator 2 view .LVU168
 618 0418 A112A0E1 		lsr	r1, r1, #5
 619 041c FEFFFFEB 		bl	_test_assert
 620              	.LVL65:
 621 0420 000050E3 		cmp	r0, #0
 622 0424 19FFFF1A 		bne	.L1
 623              		.loc 1 170 59 is_stmt 1 discriminator 2 view .LVU169
 624              		.loc 1 171 3 discriminator 2 view .LVU170
 625              		.loc 1 171 10 is_stmt 0 discriminator 2 view .LVU171
 626 0428 4510A0E3 		mov	r1, #69
 627 042c 58039FE5 		ldr	r0, .L30
ARM GAS  /var/folders/l5/0x54b2c10074c8bt31ycjvl80000gp/T//ccUNC6Ac.s 			page 12


 628 0430 FEFFFFEB 		bl	chMBPostI
 629              	.LVL66:
 630              		.loc 1 172 3 is_stmt 1 discriminator 2 view .LVU172
 631              		.loc 1 172 3 discriminator 2 view .LVU173
 632              		.syntax divided
 633              	@ 172 "../../test/testmbox.c" 1
 634 0434 1FF021E3 		msr     CPSR_c, #0x1F
 635              	@ 0 "" 2
 636              		.loc 1 173 3 discriminator 2 view .LVU174
 637              		.arm
 638              		.syntax unified
 639 0438 101F6FE1 		clz	r1, r0
 640 043c 1A00A0E3 		mov	r0, #26
 641              	.LVL67:
 642              		.loc 1 173 3 is_stmt 0 discriminator 2 view .LVU175
 643 0440 A112A0E1 		lsr	r1, r1, #5
 644 0444 FEFFFFEB 		bl	_test_assert
 645              	.LVL68:
 646 0448 000050E3 		cmp	r0, #0
 647 044c 0FFFFF1A 		bne	.L1
 648              		.loc 1 173 59 is_stmt 1 discriminator 2 view .LVU176
 649              		.loc 1 174 3 discriminator 2 view .LVU177
 650 0450 0C1096E5 		ldr	r1, [r6, #12]
 651 0454 083096E5 		ldr	r3, [r6, #8]
 652 0458 1B00A0E3 		mov	r0, #27
 653 045c 031041E0 		sub	r1, r1, r3
 654 0460 111F6FE1 		clz	r1, r1
 655 0464 A112A0E1 		lsr	r1, r1, #5
 656 0468 FEFFFFEB 		bl	_test_assert
 657              	.LVL69:
 658 046c 000050E3 		cmp	r0, #0
 659 0470 06FFFF1A 		bne	.L1
 660 0474 0540A0E3 		mov	r4, #5
 661              	.LVL70:
 662              		.loc 1 177 12 is_stmt 0 view .LVU178
 663 0478 0C539FE5 		ldr	r5, .L30
 664              	.L12:
 665              	.LVL71:
 666              		.loc 1 176 5 is_stmt 1 view .LVU179
 667              		.syntax divided
 668              	@ 176 "../../test/testmbox.c" 1
 669 047c 9FF021E3 		msr     CPSR_c, #0x9F
 670              	@ 0 "" 2
 671              		.loc 1 176 5 view .LVU180
 672              		.loc 1 176 16 view .LVU181
 673              		.loc 1 177 5 view .LVU182
 674              		.loc 1 177 12 is_stmt 0 view .LVU183
 675              		.arm
 676              		.syntax unified
 677 0480 04108DE2 		add	r1, sp, #4
 678 0484 0500A0E1 		mov	r0, r5
 679 0488 FEFFFFEB 		bl	chMBFetchI
 680              	.LVL72:
 681              		.loc 1 178 5 is_stmt 1 view .LVU184
 682              		.loc 1 178 5 view .LVU185
 683              		.syntax divided
 684              	@ 178 "../../test/testmbox.c" 1
ARM GAS  /var/folders/l5/0x54b2c10074c8bt31ycjvl80000gp/T//ccUNC6Ac.s 			page 13


 685 048c 1FF021E3 		msr     CPSR_c, #0x1F
 686              	@ 0 "" 2
 687              		.loc 1 178 18 view .LVU186
 688              		.loc 1 179 5 view .LVU187
 689              		.arm
 690              		.syntax unified
 691 0490 101F6FE1 		clz	r1, r0
 692 0494 1C00A0E3 		mov	r0, #28
 693              	.LVL73:
 694              		.loc 1 179 5 is_stmt 0 view .LVU188
 695 0498 A112A0E1 		lsr	r1, r1, #5
 696 049c FEFFFFEB 		bl	_test_assert
 697              	.LVL74:
 698              		.loc 1 179 61 is_stmt 1 view .LVU189
 699              		.loc 1 180 5 view .LVU190
 700              		.loc 1 179 5 is_stmt 0 view .LVU191
 701 04a0 000050E3 		cmp	r0, #0
 702 04a4 F9FEFF1A 		bne	.L1
 703              		.loc 1 180 5 discriminator 2 view .LVU192
 704 04a8 0400DDE5 		ldrb	r0, [sp, #4]	@ zero_extendqisi2
 705 04ac FEFFFFEB 		bl	test_emit_token
 706              	.LVL75:
 707              		.loc 1 175 3 discriminator 2 view .LVU193
 708 04b0 014054E2 		subs	r4, r4, #1
 709              	.LVL76:
 710              		.loc 1 175 3 discriminator 2 view .LVU194
 711 04b4 F0FFFF1A 		bne	.L12
 712              		.loc 1 182 3 is_stmt 1 view .LVU195
 713 04b8 D0129FE5 		ldr	r1, .L30+4
 714 04bc 1D00A0E3 		mov	r0, #29
 715 04c0 FEFFFFEB 		bl	_test_assert_sequence
 716              	.LVL77:
 717 04c4 000050E3 		cmp	r0, #0
 718 04c8 F0FEFF1A 		bne	.L1
 719              		.loc 1 182 36 discriminator 2 view .LVU196
 720              		.loc 1 183 3 discriminator 2 view .LVU197
 721              		.syntax divided
 722              	@ 183 "../../test/testmbox.c" 1
 723 04cc 9FF021E3 		msr     CPSR_c, #0x9F
 724              	@ 0 "" 2
 725              		.loc 1 183 3 discriminator 2 view .LVU198
 726              		.loc 1 183 3 discriminator 2 view .LVU199
 727              		.loc 1 183 3 discriminator 2 view .LVU200
 728              		.arm
 729              		.syntax unified
 730 04d0 241096E5 		ldr	r1, [r6, #36]
 731 04d4 1E00A0E3 		mov	r0, #30
 732 04d8 051041E2 		sub	r1, r1, #5
 733 04dc 111F6FE1 		clz	r1, r1
 734 04e0 A112A0E1 		lsr	r1, r1, #5
 735 04e4 FEFFFFEB 		bl	_test_assert
 736              	.LVL78:
 737 04e8 000050E3 		cmp	r0, #0
 738 04ec A400001A 		bne	.L21
 739              		.loc 1 183 3 discriminator 2 view .LVU201
 740              		.loc 1 183 3 discriminator 2 view .LVU202
 741              		.syntax divided
ARM GAS  /var/folders/l5/0x54b2c10074c8bt31ycjvl80000gp/T//ccUNC6Ac.s 			page 14


 742              	@ 183 "../../test/testmbox.c" 1
 743 04f0 1FF021E3 		msr     CPSR_c, #0x1F
 744              	@ 0 "" 2
 745              		.loc 1 183 3 discriminator 2 view .LVU203
 746              		.loc 1 183 72 discriminator 2 view .LVU204
 747              		.loc 1 184 3 discriminator 2 view .LVU205
 748              	@ 184 "../../test/testmbox.c" 1
 749 04f4 9FF021E3 		msr     CPSR_c, #0x9F
 750              	@ 0 "" 2
 751              		.loc 1 184 3 discriminator 2 view .LVU206
 752              		.loc 1 184 3 discriminator 2 view .LVU207
 753              		.loc 1 184 3 discriminator 2 view .LVU208
 754              		.arm
 755              		.syntax unified
 756 04f8 181096E5 		ldr	r1, [r6, #24]
 757 04fc 1F00A0E3 		mov	r0, #31
 758 0500 111F6FE1 		clz	r1, r1
 759 0504 A112A0E1 		lsr	r1, r1, #5
 760 0508 FEFFFFEB 		bl	_test_assert
 761              	.LVL79:
 762 050c 000050E3 		cmp	r0, #0
 763 0510 9B00001A 		bne	.L21
 764              		.loc 1 184 3 discriminator 2 view .LVU209
 765              		.loc 1 184 3 discriminator 2 view .LVU210
 766              		.syntax divided
 767              	@ 184 "../../test/testmbox.c" 1
 768 0514 1FF021E3 		msr     CPSR_c, #0x1F
 769              	@ 0 "" 2
 770              		.loc 1 184 3 discriminator 2 view .LVU211
 771              		.loc 1 184 67 discriminator 2 view .LVU212
 772              		.loc 1 185 3 discriminator 2 view .LVU213
 773              		.arm
 774              		.syntax unified
 775 0518 0C1096E5 		ldr	r1, [r6, #12]
 776 051c 083096E5 		ldr	r3, [r6, #8]
 777 0520 2000A0E3 		mov	r0, #32
 778 0524 031041E0 		sub	r1, r1, r3
 779 0528 111F6FE1 		clz	r1, r1
 780 052c A112A0E1 		lsr	r1, r1, #5
 781 0530 FEFFFFEB 		bl	_test_assert
 782              	.LVL80:
 783 0534 000050E3 		cmp	r0, #0
 784 0538 D4FEFF1A 		bne	.L1
 785              		.loc 1 185 72 discriminator 2 view .LVU214
 786              		.loc 1 187 3 discriminator 2 view .LVU215
 787              		.syntax divided
 788              	@ 187 "../../test/testmbox.c" 1
 789 053c 9FF021E3 		msr     CPSR_c, #0x9F
 790              	@ 0 "" 2
 791              		.loc 1 187 3 discriminator 2 view .LVU216
 792              		.loc 1 187 14 discriminator 2 view .LVU217
 793              		.loc 1 188 3 discriminator 2 view .LVU218
 794              		.loc 1 188 10 is_stmt 0 discriminator 2 view .LVU219
 795              		.arm
 796              		.syntax unified
 797 0540 4510A0E3 		mov	r1, #69
 798 0544 40029FE5 		ldr	r0, .L30
ARM GAS  /var/folders/l5/0x54b2c10074c8bt31ycjvl80000gp/T//ccUNC6Ac.s 			page 15


 799 0548 FEFFFFEB 		bl	chMBPostAheadI
 800              	.LVL81:
 801              		.loc 1 189 3 is_stmt 1 discriminator 2 view .LVU220
 802 054c 101F6FE1 		clz	r1, r0
 803 0550 2100A0E3 		mov	r0, #33
 804              	.LVL82:
 805              		.loc 1 189 3 is_stmt 0 discriminator 2 view .LVU221
 806 0554 A112A0E1 		lsr	r1, r1, #5
 807 0558 FEFFFFEB 		bl	_test_assert
 808              	.LVL83:
 809 055c 000050E3 		cmp	r0, #0
 810 0560 CAFEFF1A 		bne	.L1
 811              		.loc 1 189 59 is_stmt 1 discriminator 2 view .LVU222
 812              		.loc 1 190 3 discriminator 2 view .LVU223
 813              		.loc 1 190 10 is_stmt 0 discriminator 2 view .LVU224
 814 0564 4410A0E3 		mov	r1, #68
 815 0568 1C029FE5 		ldr	r0, .L30
 816 056c FEFFFFEB 		bl	chMBPostAheadI
 817              	.LVL84:
 818              		.loc 1 191 3 is_stmt 1 discriminator 2 view .LVU225
 819 0570 101F6FE1 		clz	r1, r0
 820 0574 2200A0E3 		mov	r0, #34
 821              	.LVL85:
 822              		.loc 1 191 3 is_stmt 0 discriminator 2 view .LVU226
 823 0578 A112A0E1 		lsr	r1, r1, #5
 824 057c FEFFFFEB 		bl	_test_assert
 825              	.LVL86:
 826 0580 000050E3 		cmp	r0, #0
 827 0584 C1FEFF1A 		bne	.L1
 828              		.loc 1 191 59 is_stmt 1 discriminator 2 view .LVU227
 829              		.loc 1 192 3 discriminator 2 view .LVU228
 830              		.loc 1 192 10 is_stmt 0 discriminator 2 view .LVU229
 831 0588 4310A0E3 		mov	r1, #67
 832 058c F8019FE5 		ldr	r0, .L30
 833 0590 FEFFFFEB 		bl	chMBPostAheadI
 834              	.LVL87:
 835              		.loc 1 193 3 is_stmt 1 discriminator 2 view .LVU230
 836 0594 101F6FE1 		clz	r1, r0
 837 0598 2300A0E3 		mov	r0, #35
 838              	.LVL88:
 839              		.loc 1 193 3 is_stmt 0 discriminator 2 view .LVU231
 840 059c A112A0E1 		lsr	r1, r1, #5
 841 05a0 FEFFFFEB 		bl	_test_assert
 842              	.LVL89:
 843 05a4 000050E3 		cmp	r0, #0
 844 05a8 B8FEFF1A 		bne	.L1
 845              		.loc 1 193 59 is_stmt 1 discriminator 2 view .LVU232
 846              		.loc 1 194 3 discriminator 2 view .LVU233
 847              		.loc 1 194 10 is_stmt 0 discriminator 2 view .LVU234
 848 05ac 4210A0E3 		mov	r1, #66
 849 05b0 D4019FE5 		ldr	r0, .L30
 850 05b4 FEFFFFEB 		bl	chMBPostAheadI
 851              	.LVL90:
 852              		.loc 1 195 3 is_stmt 1 discriminator 2 view .LVU235
 853 05b8 101F6FE1 		clz	r1, r0
 854 05bc 2400A0E3 		mov	r0, #36
 855              	.LVL91:
ARM GAS  /var/folders/l5/0x54b2c10074c8bt31ycjvl80000gp/T//ccUNC6Ac.s 			page 16


 856              		.loc 1 195 3 is_stmt 0 discriminator 2 view .LVU236
 857 05c0 A112A0E1 		lsr	r1, r1, #5
 858 05c4 FEFFFFEB 		bl	_test_assert
 859              	.LVL92:
 860 05c8 000050E3 		cmp	r0, #0
 861 05cc AFFEFF1A 		bne	.L1
 862              		.loc 1 195 59 is_stmt 1 discriminator 2 view .LVU237
 863              		.loc 1 196 3 discriminator 2 view .LVU238
 864              		.loc 1 196 10 is_stmt 0 discriminator 2 view .LVU239
 865 05d0 4110A0E3 		mov	r1, #65
 866 05d4 B0019FE5 		ldr	r0, .L30
 867 05d8 FEFFFFEB 		bl	chMBPostAheadI
 868              	.LVL93:
 869              		.loc 1 197 3 is_stmt 1 discriminator 2 view .LVU240
 870              		.loc 1 197 3 discriminator 2 view .LVU241
 871              		.syntax divided
 872              	@ 197 "../../test/testmbox.c" 1
 873 05dc 1FF021E3 		msr     CPSR_c, #0x1F
 874              	@ 0 "" 2
 875              		.loc 1 197 16 discriminator 2 view .LVU242
 876              		.loc 1 198 3 discriminator 2 view .LVU243
 877              		.arm
 878              		.syntax unified
 879 05e0 101F6FE1 		clz	r1, r0
 880 05e4 2500A0E3 		mov	r0, #37
 881              	.LVL94:
 882              		.loc 1 198 3 is_stmt 0 discriminator 2 view .LVU244
 883 05e8 A112A0E1 		lsr	r1, r1, #5
 884 05ec FEFFFFEB 		bl	_test_assert
 885              	.LVL95:
 886 05f0 000050E3 		cmp	r0, #0
 887 05f4 A5FEFF1A 		bne	.L1
 888              		.loc 1 198 59 is_stmt 1 discriminator 2 view .LVU245
 889              		.loc 1 199 3 discriminator 2 view .LVU246
 890 05f8 0C1096E5 		ldr	r1, [r6, #12]
 891 05fc 083096E5 		ldr	r3, [r6, #8]
 892 0600 2600A0E3 		mov	r0, #38
 893 0604 031041E0 		sub	r1, r1, r3
 894 0608 111F6FE1 		clz	r1, r1
 895 060c A112A0E1 		lsr	r1, r1, #5
 896 0610 FEFFFFEB 		bl	_test_assert
 897              	.LVL96:
 898 0614 000050E3 		cmp	r0, #0
 899 0618 9CFEFF1A 		bne	.L1
 900 061c 0540A0E3 		mov	r4, #5
 901              	.LVL97:
 902              		.loc 1 202 12 is_stmt 0 view .LVU247
 903 0620 64519FE5 		ldr	r5, .L30
 904              	.L15:
 905              	.LVL98:
 906              		.loc 1 201 5 is_stmt 1 view .LVU248
 907              		.syntax divided
 908              	@ 201 "../../test/testmbox.c" 1
 909 0624 9FF021E3 		msr     CPSR_c, #0x9F
 910              	@ 0 "" 2
 911              		.loc 1 201 5 view .LVU249
 912              		.loc 1 201 16 view .LVU250
ARM GAS  /var/folders/l5/0x54b2c10074c8bt31ycjvl80000gp/T//ccUNC6Ac.s 			page 17


 913              		.loc 1 202 5 view .LVU251
 914              		.loc 1 202 12 is_stmt 0 view .LVU252
 915              		.arm
 916              		.syntax unified
 917 0628 04108DE2 		add	r1, sp, #4
 918 062c 0500A0E1 		mov	r0, r5
 919 0630 FEFFFFEB 		bl	chMBFetchI
 920              	.LVL99:
 921              		.loc 1 203 5 is_stmt 1 view .LVU253
 922              		.loc 1 203 5 view .LVU254
 923              		.syntax divided
 924              	@ 203 "../../test/testmbox.c" 1
 925 0634 1FF021E3 		msr     CPSR_c, #0x1F
 926              	@ 0 "" 2
 927              		.loc 1 203 18 view .LVU255
 928              		.loc 1 204 5 view .LVU256
 929              		.arm
 930              		.syntax unified
 931 0638 101F6FE1 		clz	r1, r0
 932 063c 2700A0E3 		mov	r0, #39
 933              	.LVL100:
 934              		.loc 1 204 5 is_stmt 0 view .LVU257
 935 0640 A112A0E1 		lsr	r1, r1, #5
 936 0644 FEFFFFEB 		bl	_test_assert
 937              	.LVL101:
 938              		.loc 1 204 61 is_stmt 1 view .LVU258
 939              		.loc 1 205 5 view .LVU259
 940              		.loc 1 204 5 is_stmt 0 view .LVU260
 941 0648 000050E3 		cmp	r0, #0
 942 064c 8FFEFF1A 		bne	.L1
 943              		.loc 1 205 5 discriminator 2 view .LVU261
 944 0650 0400DDE5 		ldrb	r0, [sp, #4]	@ zero_extendqisi2
 945 0654 FEFFFFEB 		bl	test_emit_token
 946              	.LVL102:
 947              		.loc 1 200 3 discriminator 2 view .LVU262
 948 0658 014054E2 		subs	r4, r4, #1
 949              	.LVL103:
 950              		.loc 1 200 3 discriminator 2 view .LVU263
 951 065c F0FFFF1A 		bne	.L15
 952              		.loc 1 207 3 is_stmt 1 view .LVU264
 953 0660 28119FE5 		ldr	r1, .L30+4
 954 0664 2800A0E3 		mov	r0, #40
 955 0668 FEFFFFEB 		bl	_test_assert_sequence
 956              	.LVL104:
 957 066c 000050E3 		cmp	r0, #0
 958 0670 86FEFF1A 		bne	.L1
 959              		.loc 1 207 36 discriminator 2 view .LVU265
 960              		.loc 1 208 3 discriminator 2 view .LVU266
 961              		.syntax divided
 962              	@ 208 "../../test/testmbox.c" 1
 963 0674 9FF021E3 		msr     CPSR_c, #0x9F
 964              	@ 0 "" 2
 965              		.loc 1 208 3 discriminator 2 view .LVU267
 966              		.loc 1 208 3 discriminator 2 view .LVU268
 967              		.loc 1 208 3 discriminator 2 view .LVU269
 968              		.arm
 969              		.syntax unified
ARM GAS  /var/folders/l5/0x54b2c10074c8bt31ycjvl80000gp/T//ccUNC6Ac.s 			page 18


 970 0678 241096E5 		ldr	r1, [r6, #36]
 971 067c 2900A0E3 		mov	r0, #41
 972 0680 051041E2 		sub	r1, r1, #5
 973 0684 111F6FE1 		clz	r1, r1
 974 0688 A112A0E1 		lsr	r1, r1, #5
 975 068c FEFFFFEB 		bl	_test_assert
 976              	.LVL105:
 977 0690 000050E3 		cmp	r0, #0
 978 0694 3A00001A 		bne	.L21
 979              		.loc 1 208 3 discriminator 2 view .LVU270
 980              		.loc 1 208 3 discriminator 2 view .LVU271
 981              		.syntax divided
 982              	@ 208 "../../test/testmbox.c" 1
 983 0698 1FF021E3 		msr     CPSR_c, #0x1F
 984              	@ 0 "" 2
 985              		.loc 1 208 3 discriminator 2 view .LVU272
 986              		.loc 1 208 72 discriminator 2 view .LVU273
 987              		.loc 1 209 3 discriminator 2 view .LVU274
 988              	@ 209 "../../test/testmbox.c" 1
 989 069c 9FF021E3 		msr     CPSR_c, #0x9F
 990              	@ 0 "" 2
 991              		.loc 1 209 3 discriminator 2 view .LVU275
 992              		.loc 1 209 3 discriminator 2 view .LVU276
 993              		.loc 1 209 3 discriminator 2 view .LVU277
 994              		.arm
 995              		.syntax unified
 996 06a0 181096E5 		ldr	r1, [r6, #24]
 997 06a4 2A00A0E3 		mov	r0, #42
 998 06a8 111F6FE1 		clz	r1, r1
 999 06ac A112A0E1 		lsr	r1, r1, #5
 1000 06b0 FEFFFFEB 		bl	_test_assert
 1001              	.LVL106:
 1002 06b4 000050E3 		cmp	r0, #0
 1003 06b8 3100001A 		bne	.L21
 1004              		.loc 1 209 3 discriminator 2 view .LVU278
 1005              		.loc 1 209 3 discriminator 2 view .LVU279
 1006              		.syntax divided
 1007              	@ 209 "../../test/testmbox.c" 1
 1008 06bc 1FF021E3 		msr     CPSR_c, #0x1F
 1009              	@ 0 "" 2
 1010              		.loc 1 209 3 discriminator 2 view .LVU280
 1011              		.loc 1 209 67 discriminator 2 view .LVU281
 1012              		.loc 1 210 3 discriminator 2 view .LVU282
 1013              		.arm
 1014              		.syntax unified
 1015 06c0 0C1096E5 		ldr	r1, [r6, #12]
 1016 06c4 083096E5 		ldr	r3, [r6, #8]
 1017 06c8 2B00A0E3 		mov	r0, #43
 1018 06cc 031041E0 		sub	r1, r1, r3
 1019 06d0 111F6FE1 		clz	r1, r1
 1020 06d4 A112A0E1 		lsr	r1, r1, #5
 1021 06d8 FEFFFFEB 		bl	_test_assert
 1022              	.LVL107:
 1023 06dc 000050E3 		cmp	r0, #0
 1024 06e0 6AFEFF1A 		bne	.L1
 1025              		.loc 1 210 72 discriminator 2 view .LVU283
 1026              		.loc 1 215 3 discriminator 2 view .LVU284
ARM GAS  /var/folders/l5/0x54b2c10074c8bt31ycjvl80000gp/T//ccUNC6Ac.s 			page 19


 1027 06e4 A0009FE5 		ldr	r0, .L30
 1028 06e8 FEFFFFEB 		bl	chMBReset
 1029              	.LVL108:
 1030              		.loc 1 220 3 discriminator 2 view .LVU285
 1031              		.syntax divided
 1032              	@ 220 "../../test/testmbox.c" 1
 1033 06ec 9FF021E3 		msr     CPSR_c, #0x9F
 1034              	@ 0 "" 2
 1035              		.loc 1 220 3 discriminator 2 view .LVU286
 1036              		.loc 1 220 3 discriminator 2 view .LVU287
 1037              		.loc 1 220 3 discriminator 2 view .LVU288
 1038              		.arm
 1039              		.syntax unified
 1040 06f0 241096E5 		ldr	r1, [r6, #36]
 1041 06f4 2C00A0E3 		mov	r0, #44
 1042 06f8 051041E2 		sub	r1, r1, #5
 1043 06fc 111F6FE1 		clz	r1, r1
 1044 0700 A112A0E1 		lsr	r1, r1, #5
 1045 0704 FEFFFFEB 		bl	_test_assert
 1046              	.LVL109:
 1047 0708 000050E3 		cmp	r0, #0
 1048 070c 1C00001A 		bne	.L21
 1049              		.loc 1 220 3 discriminator 2 view .LVU289
 1050              		.loc 1 220 3 discriminator 2 view .LVU290
 1051              		.syntax divided
 1052              	@ 220 "../../test/testmbox.c" 1
 1053 0710 1FF021E3 		msr     CPSR_c, #0x1F
 1054              	@ 0 "" 2
 1055              		.loc 1 220 3 discriminator 2 view .LVU291
 1056              		.loc 1 220 72 discriminator 2 view .LVU292
 1057              		.loc 1 221 3 discriminator 2 view .LVU293
 1058              	@ 221 "../../test/testmbox.c" 1
 1059 0714 9FF021E3 		msr     CPSR_c, #0x9F
 1060              	@ 0 "" 2
 1061              		.loc 1 221 3 discriminator 2 view .LVU294
 1062              		.loc 1 221 3 discriminator 2 view .LVU295
 1063              		.loc 1 221 3 discriminator 2 view .LVU296
 1064              		.arm
 1065              		.syntax unified
 1066 0718 181096E5 		ldr	r1, [r6, #24]
 1067 071c 2D00A0E3 		mov	r0, #45
 1068 0720 111F6FE1 		clz	r1, r1
 1069 0724 A112A0E1 		lsr	r1, r1, #5
 1070 0728 FEFFFFEB 		bl	_test_assert
 1071              	.LVL110:
 1072 072c 000050E3 		cmp	r0, #0
 1073 0730 1300001A 		bne	.L21
 1074              		.loc 1 221 3 discriminator 2 view .LVU297
 1075              		.loc 1 221 3 discriminator 2 view .LVU298
 1076              		.syntax divided
 1077              	@ 221 "../../test/testmbox.c" 1
 1078 0734 1FF021E3 		msr     CPSR_c, #0x1F
 1079              	@ 0 "" 2
 1080              		.loc 1 221 3 discriminator 2 view .LVU299
 1081              		.loc 1 221 67 discriminator 2 view .LVU300
 1082              		.loc 1 222 3 discriminator 2 view .LVU301
 1083              	@ 222 "../../test/testmbox.c" 1
ARM GAS  /var/folders/l5/0x54b2c10074c8bt31ycjvl80000gp/T//ccUNC6Ac.s 			page 20


 1084 0738 9FF021E3 		msr     CPSR_c, #0x9F
 1085              	@ 0 "" 2
 1086              		.loc 1 222 3 discriminator 2 view .LVU302
 1087              		.loc 1 222 3 discriminator 2 view .LVU303
 1088              		.loc 1 222 3 discriminator 2 view .LVU304
 1089              		.arm
 1090              		.syntax unified
 1091 073c 001096E5 		ldr	r1, [r6]
 1092 0740 083096E5 		ldr	r3, [r6, #8]
 1093 0744 2E00A0E3 		mov	r0, #46
 1094 0748 031041E0 		sub	r1, r1, r3
 1095 074c 111F6FE1 		clz	r1, r1
 1096 0750 A112A0E1 		lsr	r1, r1, #5
 1097 0754 FEFFFFEB 		bl	_test_assert
 1098              	.LVL111:
 1099 0758 000050E3 		cmp	r0, #0
 1100 075c 0800001A 		bne	.L21
 1101              		.loc 1 222 3 discriminator 2 view .LVU305
 1102              		.loc 1 222 3 discriminator 2 view .LVU306
 1103              		.syntax divided
 1104              	@ 222 "../../test/testmbox.c" 1
 1105 0760 1FF021E3 		msr     CPSR_c, #0x1F
 1106              	@ 0 "" 2
 1107              		.loc 1 222 3 discriminator 2 view .LVU307
 1108              		.loc 1 222 91 discriminator 2 view .LVU308
 1109              		.loc 1 223 3 discriminator 2 view .LVU309
 1110              	@ 223 "../../test/testmbox.c" 1
 1111 0764 9FF021E3 		msr     CPSR_c, #0x9F
 1112              	@ 0 "" 2
 1113              		.loc 1 223 3 discriminator 2 view .LVU310
 1114              		.loc 1 223 3 discriminator 2 view .LVU311
 1115              		.loc 1 223 3 discriminator 2 view .LVU312
 1116              		.arm
 1117              		.syntax unified
 1118 0768 001096E5 		ldr	r1, [r6]
 1119 076c 0C3096E5 		ldr	r3, [r6, #12]
 1120 0770 2F00A0E3 		mov	r0, #47
 1121 0774 031041E0 		sub	r1, r1, r3
 1122 0778 111F6FE1 		clz	r1, r1
 1123 077c A112A0E1 		lsr	r1, r1, #5
 1124 0780 FEFFFFEB 		bl	_test_assert
 1125              	.LVL112:
 1126              	.L21:
 1127              		.loc 1 223 3 discriminator 2 view .LVU313
 1128              		.loc 1 223 3 discriminator 2 view .LVU314
 1129              		.syntax divided
 1130              	@ 223 "../../test/testmbox.c" 1
 1131 0784 1FF021E3 		msr     CPSR_c, #0x1F
 1132              	@ 0 "" 2
 1133              		.loc 1 223 3 discriminator 2 view .LVU315
 1134              		.loc 1 223 90 discriminator 2 view .LVU316
 1135              		.arm
 1136              		.syntax unified
 1137 0788 40FEFFEA 		b	.L1
 1138              	.L31:
 1139              		.align	2
 1140              	.L30:
ARM GAS  /var/folders/l5/0x54b2c10074c8bt31ycjvl80000gp/T//ccUNC6Ac.s 			page 21


 1141 078c 00000000 		.word	.LANCHOR0
 1142 0790 00000000 		.word	.LC0
 1143              		.cfi_endproc
 1144              	.LFE8:
 1145              		.size	mbox1_execute, .-mbox1_execute
 1146              		.section	.text.mbox1_setup,"ax",%progbits
 1147              		.align	2
 1148              		.syntax unified
 1149              		.arm
 1150              		.fpu softvfp
 1151              		.type	mbox1_setup, %function
 1152              	mbox1_setup:
 1153              	.LFB7:
 1154              		.loc 1 75 31 view -0
 1155              		.cfi_startproc
 1156              		@ args = 0, pretend = 0, frame = 0
 1157              		@ frame_needed = 0, uses_anonymous_args = 0
 1158              		@ link register save eliminated.
 1159              		.loc 1 77 3 view .LVU318
 1160 0000 0520A0E3 		mov	r2, #5
 1161 0004 04109FE5 		ldr	r1, .L33
 1162 0008 04009FE5 		ldr	r0, .L33+4
 1163 000c FEFFFFEA 		b	chMBInit
 1164              	.LVL113:
 1165              	.L34:
 1166              		.align	2
 1167              	.L33:
 1168 0010 00000000 		.word	test
 1169 0014 00000000 		.word	.LANCHOR0
 1170              		.cfi_endproc
 1171              	.LFE7:
 1172              		.size	mbox1_setup, .-mbox1_setup
 1173              		.global	patternmbox
 1174              		.global	testmbox1
 1175              		.section	.data.mb1,"aw"
 1176              		.align	2
 1177              		.set	.LANCHOR0,. + 0
 1178              		.type	mb1, %object
 1179              		.size	mb1, 40
 1180              	mb1:
 1181 0000 00000000 		.word	test
 1182 0004 14000000 		.word	test+20
 1183 0008 00000000 		.word	test
 1184 000c 00000000 		.word	test
 1185 0010 10000000 		.word	mb1+16
 1186 0014 10000000 		.word	mb1+16
 1187 0018 00000000 		.word	0
 1188 001c 1C000000 		.word	mb1+28
 1189 0020 1C000000 		.word	mb1+28
 1190 0024 05000000 		.word	5
 1191              		.section	.rodata.mbox1_execute.str1.4,"aMS",%progbits,1
 1192              		.align	2
 1193              	.LC0:
 1194 0000 41424344 		.ascii	"ABCDE\000"
 1194      4500
 1195              		.section	.rodata.patternmbox,"a"
 1196              		.align	2
ARM GAS  /var/folders/l5/0x54b2c10074c8bt31ycjvl80000gp/T//ccUNC6Ac.s 			page 22


 1197              		.type	patternmbox, %object
 1198              		.size	patternmbox, 8
 1199              	patternmbox:
 1200 0000 00000000 		.word	testmbox1
 1201 0004 00000000 		.word	0
 1202              		.section	.rodata.str1.4,"aMS",%progbits,1
 1203              		.align	2
 1204              	.LC1:
 1205 0000 4D61696C 		.ascii	"Mailboxes, queuing and timeouts\000"
 1205      626F7865 
 1205      732C2071 
 1205      75657569 
 1205      6E672061 
 1206              		.section	.rodata.testmbox1,"a"
 1207              		.align	2
 1208              		.type	testmbox1, %object
 1209              		.size	testmbox1, 16
 1210              	testmbox1:
 1211 0000 00000000 		.word	.LC1
 1212 0004 00000000 		.word	mbox1_setup
 1213 0008 00000000 		.word	0
 1214 000c 00000000 		.word	mbox1_execute
 1215              		.text
 1216              	.Letext0:
 1217              		.file 2 "/usr/local/Cellar/arm-gcc-bin/8-2019-q3-update/arm-none-eabi/include/machine/_default_typ
 1218              		.file 3 "/usr/local/Cellar/arm-gcc-bin/8-2019-q3-update/arm-none-eabi/include/sys/_stdint.h"
 1219              		.file 4 "../../os/ports/GCC/ARM/chtypes.h"
 1220              		.file 5 "../../os/kernel/include/chlists.h"
 1221              		.file 6 "../../os/kernel/include/chthreads.h"
 1222              		.file 7 "../../os/ports/GCC/ARM/chcore.h"
 1223              		.file 8 "../../os/kernel/include/chvt.h"
 1224              		.file 9 "../../os/kernel/include/chschd.h"
 1225              		.file 10 "../../os/kernel/include/chsem.h"
 1226              		.file 11 "../../os/kernel/include/chmtx.h"
 1227              		.file 12 "../../os/kernel/include/chmboxes.h"
 1228              		.file 13 "../../os/kernel/include/chregistry.h"
 1229              		.file 14 "../../os/kernel/include/ch.h"
 1230              		.file 15 "../../test/test.h"