ARM GAS  /var/folders/l5/0x54b2c10074c8bt31ycjvl80000gp/T//ccUNC6Ac.s 			page 1


   1              		.cpu arm1176jz-s
   2              		.eabi_attribute 20, 1
   3              		.eabi_attribute 21, 1
   4              		.eabi_attribute 23, 3
   5              		.eabi_attribute 24, 1
   6              		.eabi_attribute 25, 1
   7              		.eabi_attribute 26, 1
   8              		.eabi_attribute 30, 2
   9              		.eabi_attribute 34, 1
  10              		.eabi_attribute 18, 4
  11              		.file	"testmbox.c"
  12              		.text
  13              	.Ltext0:
  14              		.cfi_sections	.debug_frame
  15              		.section	.text.mbox1_execute,"ax",%progbits
  16              		.align	2
  17              		.arch armv6kz
  18              		.syntax unified
  19              		.arm
  20              		.fpu softvfp
  21              		.type	mbox1_execute, %function
  22              	mbox1_execute:
  23              	.LFB8:
  24              		.file 1 "../../test/testmbox.c"
  25              		.loc 1 80 33 view -0
  26              		.cfi_startproc
  27              		@ args = 0, pretend = 0, frame = 8
  28              		@ frame_needed = 0, uses_anonymous_args = 0
  29              		.loc 1 81 3 view .LVU1
  30              		.loc 1 82 3 view .LVU2
  31              		.loc 1 87 3 view .LVU3
  32              		.loc 1 80 33 is_stmt 0 view .LVU4
  33 0000 70402DE9 		push	{r4, r5, r6, lr}
  34              		.cfi_def_cfa_offset 16
  35              		.cfi_offset 4, -16
  36              		.cfi_offset 5, -12
  37              		.cfi_offset 6, -8
  38              		.cfi_offset 14, -4
  39              		.loc 1 87 3 view .LVU5
  40 0004 80679FE5 		ldr	r6, .L30
  41              		.loc 1 80 33 view .LVU6
  42 0008 08D04DE2 		sub	sp, sp, #8
  43              		.cfi_def_cfa_offset 24
  44              		.loc 1 87 3 view .LVU7
  45 000c 241096E5 		ldr	r1, [r6, #36]
  46 0010 0100A0E3 		mov	r0, #1
  47 0014 051041E2 		sub	r1, r1, #5
  48 0018 111F6FE1 		clz	r1, r1
  49 001c A112A0E1 		lsr	r1, r1, #5
  50 0020 FEFFFFEB 		bl	_test_assert
  51              	.LVL0:
  52 0024 000050E3 		cmp	r0, #0
  53 0028 1800001A 		bne	.L1
  54 002c 4240A0E3 		mov	r4, #66
  55              		.loc 1 93 12 view .LVU8
  56 0030 0650A0E1 		mov	r5, r6
  57              	.L3:
ARM GAS  /var/folders/l5/0x54b2c10074c8bt31ycjvl80000gp/T//ccUNC6Ac.s 			page 2


  58              	.LVL1:
  59              		.loc 1 93 5 is_stmt 1 view .LVU9
  60              		.loc 1 93 12 is_stmt 0 view .LVU10
  61 0034 0410A0E1 		mov	r1, r4
  62 0038 0020E0E3 		mvn	r2, #0
  63 003c 0500A0E1 		mov	r0, r5
  64 0040 FEFFFFEB 		bl	chMBPost
  65              	.LVL2:
  66              		.loc 1 94 5 is_stmt 1 view .LVU11
  67 0044 101F6FE1 		clz	r1, r0
  68 0048 0200A0E3 		mov	r0, #2
  69              	.LVL3:
  70              		.loc 1 94 5 is_stmt 0 view .LVU12
  71 004c A112A0E1 		lsr	r1, r1, #5
  72 0050 FEFFFFEB 		bl	_test_assert
  73              	.LVL4:
  74              		.loc 1 94 60 is_stmt 1 view .LVU13
  75              		.loc 1 94 5 is_stmt 0 view .LVU14
  76 0054 000050E3 		cmp	r0, #0
  77 0058 014084E2 		add	r4, r4, #1
  78              	.LVL5:
  79              		.loc 1 94 5 view .LVU15
  80 005c 0B00001A 		bne	.L1
  81              		.loc 1 92 3 discriminator 2 view .LVU16
  82 0060 460054E3 		cmp	r4, #70
  83 0064 F2FFFF1A 		bne	.L3
  84              		.loc 1 96 3 is_stmt 1 view .LVU17
  85              		.loc 1 96 10 is_stmt 0 view .LVU18
  86 0068 0020E0E3 		mvn	r2, #0
  87 006c 4110A0E3 		mov	r1, #65
  88 0070 14079FE5 		ldr	r0, .L30
  89 0074 FEFFFFEB 		bl	chMBPostAhead
  90              	.LVL6:
  91              		.loc 1 97 3 is_stmt 1 view .LVU19
  92 0078 101F6FE1 		clz	r1, r0
  93 007c 0300A0E3 		mov	r0, #3
  94              	.LVL7:
  95              		.loc 1 97 3 is_stmt 0 view .LVU20
  96 0080 A112A0E1 		lsr	r1, r1, #5
  97 0084 FEFFFFEB 		bl	_test_assert
  98              	.LVL8:
  99 0088 000050E3 		cmp	r0, #0
 100 008c 0100000A 		beq	.L29
 101              	.LVL9:
 102              	.L1:
 103              		.loc 1 224 1 view .LVU21
 104 0090 08D08DE2 		add	sp, sp, #8
 105              		.cfi_remember_state
 106              		.cfi_def_cfa_offset 16
 107              		@ sp needed
 108 0094 7080BDE8 		pop	{r4, r5, r6, pc}
 109              	.LVL10:
 110              	.L29:
 111              		.cfi_restore_state
 112              		.loc 1 97 58 is_stmt 1 discriminator 2 view .LVU22
 113              		.loc 1 102 3 discriminator 2 view .LVU23
 114              		.loc 1 102 10 is_stmt 0 discriminator 2 view .LVU24
ARM GAS  /var/folders/l5/0x54b2c10074c8bt31ycjvl80000gp/T//ccUNC6Ac.s 			page 3


 115 0098 5810A0E3 		mov	r1, #88
 116 009c 0120A0E3 		mov	r2, #1
 117 00a0 E4069FE5 		ldr	r0, .L30
 118 00a4 FEFFFFEB 		bl	chMBPost
 119              	.LVL11:
 120              		.loc 1 103 3 is_stmt 1 discriminator 2 view .LVU25
 121 00a8 010070E3 		cmn	r0, #1
 122 00ac 0010A013 		movne	r1, #0
 123 00b0 0110A003 		moveq	r1, #1
 124 00b4 0400A0E3 		mov	r0, #4
 125              	.LVL12:
 126              		.loc 1 103 3 is_stmt 0 discriminator 2 view .LVU26
 127 00b8 FEFFFFEB 		bl	_test_assert
 128              	.LVL13:
 129 00bc 000050E3 		cmp	r0, #0
 130 00c0 F2FFFF1A 		bne	.L1
 131              		.loc 1 103 63 is_stmt 1 discriminator 2 view .LVU27
 132              		.loc 1 104 3 discriminator 2 view .LVU28
 133              		.syntax divided
 134              	@ 104 "../../test/testmbox.c" 1
 135 00c4 9FF021E3 		msr     CPSR_c, #0x9F
 136              	@ 0 "" 2
 137              		.loc 1 104 3 discriminator 2 view .LVU29
 138              		.loc 1 104 14 discriminator 2 view .LVU30
 139              		.loc 1 105 3 discriminator 2 view .LVU31
 140              		.loc 1 105 10 is_stmt 0 discriminator 2 view .LVU32
 141              		.arm
 142              		.syntax unified
 143 00c8 5810A0E3 		mov	r1, #88
 144 00cc B8069FE5 		ldr	r0, .L30
 145 00d0 FEFFFFEB 		bl	chMBPostI
 146              	.LVL14:
 147 00d4 0010A0E1 		mov	r1, r0
 148              	.LVL15:
 149              		.loc 1 106 3 is_stmt 1 discriminator 2 view .LVU33
 150              		.loc 1 106 3 discriminator 2 view .LVU34
 151              		.syntax divided
 152              	@ 106 "../../test/testmbox.c" 1
 153 00d8 1FF021E3 		msr     CPSR_c, #0x1F
 154              	@ 0 "" 2
 155              		.loc 1 106 16 discriminator 2 view .LVU35
 156              		.loc 1 107 3 discriminator 2 view .LVU36
 157              		.arm
 158              		.syntax unified
 159 00dc 010071E3 		cmn	r1, #1
 160 00e0 0010A013 		movne	r1, #0
 161 00e4 0110A003 		moveq	r1, #1
 162 00e8 0500A0E3 		mov	r0, #5
 163              	.LVL16:
 164              		.loc 1 107 3 is_stmt 0 discriminator 2 view .LVU37
 165 00ec FEFFFFEB 		bl	_test_assert
 166              	.LVL17:
 167 00f0 000050E3 		cmp	r0, #0
 168 00f4 E5FFFF1A 		bne	.L1
 169              		.loc 1 107 63 is_stmt 1 discriminator 2 view .LVU38
 170              		.loc 1 108 3 discriminator 2 view .LVU39
 171              		.loc 1 108 10 is_stmt 0 discriminator 2 view .LVU40
ARM GAS  /var/folders/l5/0x54b2c10074c8bt31ycjvl80000gp/T//ccUNC6Ac.s 			page 4


 172 00f8 5810A0E3 		mov	r1, #88
 173 00fc 0120A0E3 		mov	r2, #1
 174 0100 84069FE5 		ldr	r0, .L30
 175 0104 FEFFFFEB 		bl	chMBPostAhead
 176              	.LVL18:
 177              		.loc 1 109 3 is_stmt 1 discriminator 2 view .LVU41
 178 0108 010070E3 		cmn	r0, #1
 179 010c 0010A013 		movne	r1, #0
 180 0110 0110A003 		moveq	r1, #1
 181 0114 0600A0E3 		mov	r0, #6
 182              	.LVL19:
 183              		.loc 1 109 3 is_stmt 0 discriminator 2 view .LVU42
 184 0118 FEFFFFEB 		bl	_test_assert
 185              	.LVL20:
 186 011c 000050E3 		cmp	r0, #0
 187 0120 DAFFFF1A 		bne	.L1
 188              		.loc 1 109 63 is_stmt 1 discriminator 2 view .LVU43
 189              		.loc 1 110 3 discriminator 2 view .LVU44
 190              		.syntax divided
 191              	@ 110 "../../test/testmbox.c" 1
 192 0124 9FF021E3 		msr     CPSR_c, #0x9F
 193              	@ 0 "" 2
 194              		.loc 1 110 3 discriminator 2 view .LVU45
 195              		.loc 1 110 14 discriminator 2 view .LVU46
 196              		.loc 1 111 3 discriminator 2 view .LVU47
 197              		.loc 1 111 10 is_stmt 0 discriminator 2 view .LVU48
 198              		.arm
 199              		.syntax unified
 200 0128 5810A0E3 		mov	r1, #88
 201 012c 58069FE5 		ldr	r0, .L30
 202 0130 FEFFFFEB 		bl	chMBPostAheadI
 203              	.LVL21:
 204 0134 0010A0E1 		mov	r1, r0
 205              	.LVL22:
 206              		.loc 1 112 3 is_stmt 1 discriminator 2 view .LVU49
 207              		.loc 1 112 3 discriminator 2 view .LVU50
 208              		.syntax divided
 209              	@ 112 "../../test/testmbox.c" 1
 210 0138 1FF021E3 		msr     CPSR_c, #0x1F
 211              	@ 0 "" 2
 212              		.loc 1 112 16 discriminator 2 view .LVU51
 213              		.loc 1 113 3 discriminator 2 view .LVU52
 214              		.arm
 215              		.syntax unified
 216 013c 010071E3 		cmn	r1, #1
 217 0140 0010A013 		movne	r1, #0
 218 0144 0110A003 		moveq	r1, #1
 219 0148 0700A0E3 		mov	r0, #7
 220              	.LVL23:
 221              		.loc 1 113 3 is_stmt 0 discriminator 2 view .LVU53
 222 014c FEFFFFEB 		bl	_test_assert
 223              	.LVL24:
 224 0150 000050E3 		cmp	r0, #0
 225 0154 CDFFFF1A 		bne	.L1
 226              		.loc 1 113 63 is_stmt 1 discriminator 2 view .LVU54
 227              		.loc 1 118 3 discriminator 2 view .LVU55
 228              		.syntax divided
ARM GAS  /var/folders/l5/0x54b2c10074c8bt31ycjvl80000gp/T//ccUNC6Ac.s 			page 5


 229              	@ 118 "../../test/testmbox.c" 1
 230 0158 9FF021E3 		msr     CPSR_c, #0x9F
 231              	@ 0 "" 2
 232              		.loc 1 118 3 discriminator 2 view .LVU56
 233              		.loc 1 118 3 discriminator 2 view .LVU57
 234              		.loc 1 118 3 discriminator 2 view .LVU58
 235              		.arm
 236              		.syntax unified
 237 015c 241096E5 		ldr	r1, [r6, #36]
 238 0160 0800A0E3 		mov	r0, #8
 239 0164 111F6FE1 		clz	r1, r1
 240 0168 A112A0E1 		lsr	r1, r1, #5
 241 016c FEFFFFEB 		bl	_test_assert
 242              	.LVL25:
 243 0170 000050E3 		cmp	r0, #0
 244 0174 8201001A 		bne	.L21
 245              		.loc 1 118 3 discriminator 2 view .LVU59
 246              		.loc 1 118 3 discriminator 2 view .LVU60
 247              		.syntax divided
 248              	@ 118 "../../test/testmbox.c" 1
 249 0178 1FF021E3 		msr     CPSR_c, #0x1F
 250              	@ 0 "" 2
 251              		.loc 1 118 3 discriminator 2 view .LVU61
 252              		.loc 1 118 67 discriminator 2 view .LVU62
 253              		.loc 1 119 3 discriminator 2 view .LVU63
 254              	@ 119 "../../test/testmbox.c" 1
 255 017c 9FF021E3 		msr     CPSR_c, #0x9F
 256              	@ 0 "" 2
 257              		.loc 1 119 3 discriminator 2 view .LVU64
 258              		.loc 1 119 3 discriminator 2 view .LVU65
 259              		.loc 1 119 3 discriminator 2 view .LVU66
 260              		.arm
 261              		.syntax unified
 262 0180 181096E5 		ldr	r1, [r6, #24]
 263 0184 0900A0E3 		mov	r0, #9
 264 0188 051041E2 		sub	r1, r1, #5
 265 018c 111F6FE1 		clz	r1, r1
 266 0190 A112A0E1 		lsr	r1, r1, #5
 267 0194 FEFFFFEB 		bl	_test_assert
 268              	.LVL26:
 269 0198 000050E3 		cmp	r0, #0
 270 019c 7801001A 		bne	.L21
 271              		.loc 1 119 3 discriminator 2 view .LVU67
 272              		.loc 1 119 3 discriminator 2 view .LVU68
 273              		.syntax divided
 274              	@ 119 "../../test/testmbox.c" 1
 275 01a0 1FF021E3 		msr     CPSR_c, #0x1F
 276              	@ 0 "" 2
 277              		.loc 1 119 3 discriminator 2 view .LVU69
 278              		.loc 1 119 70 discriminator 2 view .LVU70
 279              		.loc 1 120 3 discriminator 2 view .LVU71
 280              	@ 120 "../../test/testmbox.c" 1
 281 01a4 9FF021E3 		msr     CPSR_c, #0x9F
 282              	@ 0 "" 2
 283              		.loc 1 120 3 discriminator 2 view .LVU72
 284              		.loc 1 120 3 discriminator 2 view .LVU73
 285              		.loc 1 120 3 discriminator 2 view .LVU74
ARM GAS  /var/folders/l5/0x54b2c10074c8bt31ycjvl80000gp/T//ccUNC6Ac.s 			page 6


 286              		.arm
 287              		.syntax unified
 288 01a8 0C1096E5 		ldr	r1, [r6, #12]
 289 01ac 083096E5 		ldr	r3, [r6, #8]
 290 01b0 0A00A0E3 		mov	r0, #10
 291 01b4 031041E0 		sub	r1, r1, r3
 292 01b8 111F6FE1 		clz	r1, r1
 293 01bc A112A0E1 		lsr	r1, r1, #5
 294 01c0 FEFFFFEB 		bl	_test_assert
 295              	.LVL27:
 296 01c4 000050E3 		cmp	r0, #0
 297 01c8 6D01001A 		bne	.L21
 298              		.loc 1 120 3 discriminator 2 view .LVU75
 299              		.loc 1 120 3 discriminator 2 view .LVU76
 300              		.syntax divided
 301              	@ 120 "../../test/testmbox.c" 1
 302 01cc 1FF021E3 		msr     CPSR_c, #0x1F
 303              	@ 0 "" 2
 304              		.loc 1 120 3 discriminator 2 view .LVU77
 305              		.loc 1 120 77 discriminator 2 view .LVU78
 306              		.loc 1 125 3 discriminator 2 view .LVU79
 307              	.LVL28:
 308              		.loc 1 120 3 is_stmt 0 discriminator 2 view .LVU80
 309              		.arm
 310              		.syntax unified
 311 01d0 0540A0E3 		mov	r4, #5
 312              		.loc 1 126 12 discriminator 2 view .LVU81
 313 01d4 B0559FE5 		ldr	r5, .L30
 314              	.LVL29:
 315              	.L8:
 316              		.loc 1 126 5 is_stmt 1 view .LVU82
 317              		.loc 1 126 12 is_stmt 0 view .LVU83
 318 01d8 0020E0E3 		mvn	r2, #0
 319 01dc 04108DE2 		add	r1, sp, #4
 320 01e0 0500A0E1 		mov	r0, r5
 321 01e4 FEFFFFEB 		bl	chMBFetch
 322              	.LVL30:
 323              		.loc 1 127 5 is_stmt 1 view .LVU84
 324 01e8 101F6FE1 		clz	r1, r0
 325 01ec 0B00A0E3 		mov	r0, #11
 326              	.LVL31:
 327              		.loc 1 127 5 is_stmt 0 view .LVU85
 328 01f0 A112A0E1 		lsr	r1, r1, #5
 329 01f4 FEFFFFEB 		bl	_test_assert
 330              	.LVL32:
 331              		.loc 1 127 61 is_stmt 1 view .LVU86
 332              		.loc 1 128 5 view .LVU87
 333              		.loc 1 127 5 is_stmt 0 view .LVU88
 334 01f8 000050E3 		cmp	r0, #0
 335 01fc A3FFFF1A 		bne	.L1
 336              		.loc 1 128 5 discriminator 2 view .LVU89
 337 0200 0400DDE5 		ldrb	r0, [sp, #4]	@ zero_extendqisi2
 338 0204 FEFFFFEB 		bl	test_emit_token
 339              	.LVL33:
 340              		.loc 1 125 3 discriminator 2 view .LVU90
 341 0208 014054E2 		subs	r4, r4, #1
 342              	.LVL34:
ARM GAS  /var/folders/l5/0x54b2c10074c8bt31ycjvl80000gp/T//ccUNC6Ac.s 			page 7


 343              		.loc 1 125 3 discriminator 2 view .LVU91
 344 020c F1FFFF1A 		bne	.L8
 345              		.loc 1 130 3 is_stmt 1 view .LVU92
 346 0210 78159FE5 		ldr	r1, .L30+4
 347 0214 0C00A0E3 		mov	r0, #12
 348 0218 FEFFFFEB 		bl	_test_assert_sequence
 349              	.LVL35:
 350 021c 000050E3 		cmp	r0, #0
 351 0220 9AFFFF1A 		bne	.L1
 352              		.loc 1 130 36 discriminator 2 view .LVU93
 353              		.loc 1 135 3 discriminator 2 view .LVU94
 354              		.loc 1 135 10 is_stmt 0 discriminator 2 view .LVU95
 355 0224 0020E0E3 		mvn	r2, #0
 356 0228 4710A0E3 		mov	r1, #71
 357 022c 58059FE5 		ldr	r0, .L30
 358 0230 FEFFFFEB 		bl	chMBPost
 359              	.LVL36:
 360              		.loc 1 136 3 is_stmt 1 discriminator 2 view .LVU96
 361 0234 101F6FE1 		clz	r1, r0
 362 0238 0D00A0E3 		mov	r0, #13
 363              	.LVL37:
 364              		.loc 1 136 3 is_stmt 0 discriminator 2 view .LVU97
 365 023c A112A0E1 		lsr	r1, r1, #5
 366 0240 FEFFFFEB 		bl	_test_assert
 367              	.LVL38:
 368 0244 000050E3 		cmp	r0, #0
 369 0248 90FFFF1A 		bne	.L1
 370              		.loc 1 136 59 is_stmt 1 discriminator 2 view .LVU98
 371              		.loc 1 137 3 discriminator 2 view .LVU99
 372              		.loc 1 137 10 is_stmt 0 discriminator 2 view .LVU100
 373 024c 0020E0E3 		mvn	r2, #0
 374 0250 04108DE2 		add	r1, sp, #4
 375 0254 30059FE5 		ldr	r0, .L30
 376 0258 FEFFFFEB 		bl	chMBFetch
 377              	.LVL39:
 378              		.loc 1 138 3 is_stmt 1 discriminator 2 view .LVU101
 379 025c 101F6FE1 		clz	r1, r0
 380 0260 0E00A0E3 		mov	r0, #14
 381              	.LVL40:
 382              		.loc 1 138 3 is_stmt 0 discriminator 2 view .LVU102
 383 0264 A112A0E1 		lsr	r1, r1, #5
 384 0268 FEFFFFEB 		bl	_test_assert
 385              	.LVL41:
 386 026c 000050E3 		cmp	r0, #0
 387 0270 86FFFF1A 		bne	.L1
 388              		.loc 1 138 59 is_stmt 1 discriminator 2 view .LVU103
 389              		.loc 1 139 3 discriminator 2 view .LVU104
 390 0274 001096E5 		ldr	r1, [r6]
 391 0278 083096E5 		ldr	r3, [r6, #8]
 392 027c 0F00A0E3 		mov	r0, #15
 393 0280 031041E0 		sub	r1, r1, r3
 394 0284 111F6FE1 		clz	r1, r1
 395 0288 A112A0E1 		lsr	r1, r1, #5
 396 028c FEFFFFEB 		bl	_test_assert
 397              	.LVL42:
 398 0290 000050E3 		cmp	r0, #0
 399 0294 7DFFFF1A 		bne	.L1
ARM GAS  /var/folders/l5/0x54b2c10074c8bt31ycjvl80000gp/T//ccUNC6Ac.s 			page 8


 400              		.loc 1 139 86 discriminator 2 view .LVU105
 401              		.loc 1 140 3 discriminator 2 view .LVU106
 402 0298 001096E5 		ldr	r1, [r6]
 403 029c 0C3096E5 		ldr	r3, [r6, #12]
 404 02a0 1000A0E3 		mov	r0, #16
 405 02a4 031041E0 		sub	r1, r1, r3
 406 02a8 111F6FE1 		clz	r1, r1
 407 02ac A112A0E1 		lsr	r1, r1, #5
 408 02b0 FEFFFFEB 		bl	_test_assert
 409              	.LVL43:
 410 02b4 000050E3 		cmp	r0, #0
 411 02b8 74FFFF1A 		bne	.L1
 412              		.loc 1 140 85 discriminator 2 view .LVU107
 413              		.loc 1 145 3 discriminator 2 view .LVU108
 414              		.loc 1 145 10 is_stmt 0 discriminator 2 view .LVU109
 415 02bc 04108DE2 		add	r1, sp, #4
 416 02c0 0120A0E3 		mov	r2, #1
 417 02c4 C0049FE5 		ldr	r0, .L30
 418 02c8 FEFFFFEB 		bl	chMBFetch
 419              	.LVL44:
 420              		.loc 1 146 3 is_stmt 1 discriminator 2 view .LVU110
 421 02cc 010070E3 		cmn	r0, #1
 422 02d0 0010A013 		movne	r1, #0
 423 02d4 0110A003 		moveq	r1, #1
 424 02d8 1100A0E3 		mov	r0, #17
 425              	.LVL45:
 426              		.loc 1 146 3 is_stmt 0 discriminator 2 view .LVU111
 427 02dc FEFFFFEB 		bl	_test_assert
 428              	.LVL46:
 429 02e0 000050E3 		cmp	r0, #0
 430 02e4 69FFFF1A 		bne	.L1
 431              		.loc 1 146 64 is_stmt 1 discriminator 2 view .LVU112
 432              		.loc 1 147 3 discriminator 2 view .LVU113
 433              		.syntax divided
 434              	@ 147 "../../test/testmbox.c" 1
 435 02e8 9FF021E3 		msr     CPSR_c, #0x9F
 436              	@ 0 "" 2
 437              		.loc 1 147 3 discriminator 2 view .LVU114
 438              		.loc 1 147 14 discriminator 2 view .LVU115
 439              		.loc 1 148 3 discriminator 2 view .LVU116
 440              		.loc 1 148 10 is_stmt 0 discriminator 2 view .LVU117
 441              		.arm
 442              		.syntax unified
 443 02ec 98049FE5 		ldr	r0, .L30
 444 02f0 04108DE2 		add	r1, sp, #4
 445 02f4 FEFFFFEB 		bl	chMBFetchI
 446              	.LVL47:
 447 02f8 0010A0E1 		mov	r1, r0
 448              	.LVL48:
 449              		.loc 1 149 3 is_stmt 1 discriminator 2 view .LVU118
 450              		.loc 1 149 3 discriminator 2 view .LVU119
 451              		.syntax divided
 452              	@ 149 "../../test/testmbox.c" 1
 453 02fc 1FF021E3 		msr     CPSR_c, #0x1F
 454              	@ 0 "" 2
 455              		.loc 1 149 16 discriminator 2 view .LVU120
 456              		.loc 1 150 3 discriminator 2 view .LVU121
ARM GAS  /var/folders/l5/0x54b2c10074c8bt31ycjvl80000gp/T//ccUNC6Ac.s 			page 9


 457              		.arm
 458              		.syntax unified
 459 0300 010071E3 		cmn	r1, #1
 460 0304 0010A013 		movne	r1, #0
 461 0308 0110A003 		moveq	r1, #1
 462 030c 1200A0E3 		mov	r0, #18
 463              	.LVL49:
 464              		.loc 1 150 3 is_stmt 0 discriminator 2 view .LVU122
 465 0310 FEFFFFEB 		bl	_test_assert
 466              	.LVL50:
 467 0314 000050E3 		cmp	r0, #0
 468 0318 5CFFFF1A 		bne	.L1
 469              		.loc 1 150 64 is_stmt 1 discriminator 2 view .LVU123
 470              		.loc 1 155 3 discriminator 2 view .LVU124
 471              		.syntax divided
 472              	@ 155 "../../test/testmbox.c" 1
 473 031c 9FF021E3 		msr     CPSR_c, #0x9F
 474              	@ 0 "" 2
 475              		.loc 1 155 3 discriminator 2 view .LVU125
 476              		.loc 1 155 3 discriminator 2 view .LVU126
 477              		.loc 1 155 3 discriminator 2 view .LVU127
 478              		.arm
 479              		.syntax unified
 480 0320 241096E5 		ldr	r1, [r6, #36]
 481 0324 1300A0E3 		mov	r0, #19
 482 0328 051041E2 		sub	r1, r1, #5
 483 032c 111F6FE1 		clz	r1, r1
 484 0330 A112A0E1 		lsr	r1, r1, #5
 485 0334 FEFFFFEB 		bl	_test_assert
 486              	.LVL51:
 487 0338 000050E3 		cmp	r0, #0
 488 033c 1001001A 		bne	.L21
 489              		.loc 1 155 3 discriminator 2 view .LVU128
 490              		.loc 1 155 3 discriminator 2 view .LVU129
 491              		.syntax divided
 492              	@ 155 "../../test/testmbox.c" 1
 493 0340 1FF021E3 		msr     CPSR_c, #0x1F
 494              	@ 0 "" 2
 495              		.loc 1 155 3 discriminator 2 view .LVU130
 496              		.loc 1 155 72 discriminator 2 view .LVU131
 497              		.loc 1 156 3 discriminator 2 view .LVU132
 498              	@ 156 "../../test/testmbox.c" 1
 499 0344 9FF021E3 		msr     CPSR_c, #0x9F
 500              	@ 0 "" 2
 501              		.loc 1 156 3 discriminator 2 view .LVU133
 502              		.loc 1 156 3 discriminator 2 view .LVU134
 503              		.loc 1 156 3 discriminator 2 view .LVU135
 504              		.arm
 505              		.syntax unified
 506 0348 181096E5 		ldr	r1, [r6, #24]
 507 034c 1400A0E3 		mov	r0, #20
 508 0350 111F6FE1 		clz	r1, r1
 509 0354 A112A0E1 		lsr	r1, r1, #5
 510 0358 FEFFFFEB 		bl	_test_assert
 511              	.LVL52:
 512 035c 000050E3 		cmp	r0, #0
 513 0360 0701001A 		bne	.L21
ARM GAS  /var/folders/l5/0x54b2c10074c8bt31ycjvl80000gp/T//ccUNC6Ac.s 			page 10


 514              		.loc 1 156 3 discriminator 2 view .LVU136
 515              		.loc 1 156 3 discriminator 2 view .LVU137
 516              		.syntax divided
 517              	@ 156 "../../test/testmbox.c" 1
 518 0364 1FF021E3 		msr     CPSR_c, #0x1F
 519              	@ 0 "" 2
 520              		.loc 1 156 3 discriminator 2 view .LVU138
 521              		.loc 1 156 67 discriminator 2 view .LVU139
 522              		.loc 1 157 3 discriminator 2 view .LVU140
 523              	@ 157 "../../test/testmbox.c" 1
 524 0368 9FF021E3 		msr     CPSR_c, #0x9F
 525              	@ 0 "" 2
 526              		.loc 1 157 3 discriminator 2 view .LVU141
 527              		.loc 1 157 3 discriminator 2 view .LVU142
 528              		.loc 1 157 3 discriminator 2 view .LVU143
 529              		.arm
 530              		.syntax unified
 531 036c 0C1096E5 		ldr	r1, [r6, #12]
 532 0370 083096E5 		ldr	r3, [r6, #8]
 533 0374 1500A0E3 		mov	r0, #21
 534 0378 031041E0 		sub	r1, r1, r3
 535 037c 111F6FE1 		clz	r1, r1
 536 0380 A112A0E1 		lsr	r1, r1, #5
 537 0384 FEFFFFEB 		bl	_test_assert
 538              	.LVL53:
 539 0388 000050E3 		cmp	r0, #0
 540 038c FC00001A 		bne	.L21
 541              		.loc 1 157 3 discriminator 2 view .LVU144
 542              		.loc 1 157 3 discriminator 2 view .LVU145
 543              		.syntax divided
 544              	@ 157 "../../test/testmbox.c" 1
 545 0390 1FF021E3 		msr     CPSR_c, #0x1F
 546              	@ 0 "" 2
 547              		.loc 1 157 3 discriminator 2 view .LVU146
 548              		.loc 1 157 77 discriminator 2 view .LVU147
 549              		.loc 1 162 3 discriminator 2 view .LVU148
 550              	@ 162 "../../test/testmbox.c" 1
 551 0394 9FF021E3 		msr     CPSR_c, #0x9F
 552              	@ 0 "" 2
 553              		.loc 1 162 3 discriminator 2 view .LVU149
 554              		.loc 1 163 3 discriminator 2 view .LVU150
 555              		.loc 1 163 10 is_stmt 0 discriminator 2 view .LVU151
 556              		.arm
 557              		.syntax unified
 558 0398 4110A0E3 		mov	r1, #65
 559 039c E8039FE5 		ldr	r0, .L30
 560 03a0 FEFFFFEB 		bl	chMBPostI
 561              	.LVL54:
 562              		.loc 1 164 3 is_stmt 1 discriminator 2 view .LVU152
 563 03a4 101F6FE1 		clz	r1, r0
 564 03a8 1600A0E3 		mov	r0, #22
 565              	.LVL55:
 566              		.loc 1 164 3 is_stmt 0 discriminator 2 view .LVU153
 567 03ac A112A0E1 		lsr	r1, r1, #5
 568 03b0 FEFFFFEB 		bl	_test_assert
 569              	.LVL56:
 570 03b4 000050E3 		cmp	r0, #0
ARM GAS  /var/folders/l5/0x54b2c10074c8bt31ycjvl80000gp/T//ccUNC6Ac.s 			page 11


 571 03b8 34FFFF1A 		bne	.L1
 572              		.loc 1 164 59 is_stmt 1 discriminator 2 view .LVU154
 573              		.loc 1 165 3 discriminator 2 view .LVU155
 574              		.loc 1 165 10 is_stmt 0 discriminator 2 view .LVU156
 575 03bc 4210A0E3 		mov	r1, #66
 576 03c0 C4039FE5 		ldr	r0, .L30
 577 03c4 FEFFFFEB 		bl	chMBPostI
 578              	.LVL57:
 579              		.loc 1 166 3 is_stmt 1 discriminator 2 view .LVU157
 580 03c8 101F6FE1 		clz	r1, r0
 581 03cc 1700A0E3 		mov	r0, #23
 582              	.LVL58:
 583              		.loc 1 166 3 is_stmt 0 discriminator 2 view .LVU158
 584 03d0 A112A0E1 		lsr	r1, r1, #5
 585 03d4 FEFFFFEB 		bl	_test_assert
 586              	.LVL59:
 587 03d8 000050E3 		cmp	r0, #0
 588 03dc 2BFFFF1A 		bne	.L1
 589              		.loc 1 166 59 is_stmt 1 discriminator 2 view .LVU159
 590              		.loc 1 167 3 discriminator 2 view .LVU160
 591              		.loc 1 167 10 is_stmt 0 discriminator 2 view .LVU161
 592 03e0 4310A0E3 		mov	r1, #67
 593 03e4 A0039FE5 		ldr	r0, .L30
 594 03e8 FEFFFFEB 		bl	chMBPostI
 595              	.LVL60:
 596              		.loc 1 168 3 is_stmt 1 discriminator 2 view .LVU162
 597 03ec 101F6FE1 		clz	r1, r0
 598 03f0 1800A0E3 		mov	r0, #24
 599              	.LVL61:
 600              		.loc 1 168 3 is_stmt 0 discriminator 2 view .LVU163
 601 03f4 A112A0E1 		lsr	r1, r1, #5
 602 03f8 FEFFFFEB 		bl	_test_assert
 603              	.LVL62:
 604 03fc 000050E3 		cmp	r0, #0
 605 0400 22FFFF1A 		bne	.L1
 606              		.loc 1 168 59 is_stmt 1 discriminator 2 view .LVU164
 607              		.loc 1 169 3 discriminator 2 view .LVU165
 608              		.loc 1 169 10 is_stmt 0 discriminator 2 view .LVU166
 609 0404 4410A0E3 		mov	r1, #68
 610 0408 7C039FE5 		ldr	r0, .L30
 611 040c FEFFFFEB 		bl	chMBPostI
 612              	.LVL63:
 613              		.loc 1 170 3 is_stmt 1 discriminator 2 view .LVU167
 614 0410 101F6FE1 		clz	r1, r0
 615 0414 1900A0E3 		mov	r0, #25
 616              	.LVL64:
 617              		.loc 1 170 3 is_stmt 0 discriminator 2 view .LVU168
 618 0418 A112A0E1 		lsr	r1, r1, #5
 619 041c FEFFFFEB 		bl	_test_assert
 620              	.LVL65:
 621 0420 000050E3 		cmp	r0, #0
 622 0424 19FFFF1A 		bne	.L1
 623              		.loc 1 170 59 is_stmt 1 discriminator 2 view .LVU169
 624              		.loc 1 171 3 discriminator 2 view .LVU170
 625              		.loc 1 171 10 is_stmt 0 discriminator 2 view .LVU171
 626 0428 4510A0E3 		mov	r1, #69
 627 042c 58039FE5 		ldr	r0, .L30
ARM GAS  /var/folders/l5/0x54b2c10074c8bt31ycjvl80000gp/T//ccUNC6Ac.s 			page 12


 628 0430 FEFFFFEB 		bl	chMBPostI
 629              	.LVL66:
 630              		.loc 1 172 3 is_stmt 1 discriminator 2 view .LVU172
 631              		.loc 1 172 3 discriminator 2 view .LVU173
 632              		.syntax divided
 633              	@ 172 "../../test/testmbox.c" 1
 634 0434 1FF021E3 		msr     CPSR_c, #0x1F
 635              	@ 0 "" 2
 636              		.loc 1 173 3 discriminator 2 view .LVU174
 637              		.arm
 638              		.syntax unified
 639 0438 101F6FE1 		clz	r1, r0
 640 043c 1A00A0E3 		mov	r0, #26
 641              	.LVL67:
 642              		.loc 1 173 3 is_stmt 0 discriminator 2 view .LVU175
 643 0440 A112A0E1 		lsr	r1, r1, #5
 644 0444 FEFFFFEB 		bl	_test_assert
 645              	.LVL68:
 646 0448 000050E3 		cmp	r0, #0
 647 044c 0FFFFF1A 		bne	.L1
 648              		.loc 1 173 59 is_stmt 1 discriminator 2 view .LVU176
 649              		.loc 1 174 3 discriminator 2 view .LVU177
 650 0450 0C1096E5 		ldr	r1, [r6, #12]
 651 0454 083096E5 		ldr	r3, [r6, #8]
 652 0458 1B00A0E3 		mov	r0, #27
 653 045c 031041E0 		sub	r1, r1, r3
 654 0460 111F6FE1 		clz	r1, r1
 655 0464 A112A0E1 		lsr	r1, r1, #5
 656 0468 FEFFFFEB 		bl	_test_assert
 657              	.LVL69:
 658 046c 000050E3 		cmp	r0, #0
 659 0470 06FFFF1A 		bne	.L1
 660 0474 0540A0E3 		mov	r4, #5
 661              	.LVL70:
 662              		.loc 1 177 12 is_stmt 0 view .LVU178
 663 0478 0C539FE5 		ldr	r5, .L30
 664              	.L12:
 665              	.LVL71:
 666              		.loc 1 176 5 is_stmt 1 view .LVU179
 667              		.syntax divided
 668              	@ 176 "../../test/testmbox.c" 1
 669 047c 9FF021E3 		msr     CPSR_c, #0x9F
 670              	@ 0 "" 2
 671              		.loc 1 176 5 view .LVU180
 672              		.loc 1 176 16 view .LVU181
 673              		.loc 1 177 5 view .LVU182
 674              		.loc 1 177 12 is_stmt 0 view .LVU183
 675              		.arm
 676              		.syntax unified
 677 0480 04108DE2 		add	r1, sp, #4
 678 0484 0500A0E1 		mov	r0, r5
 679 0488 FEFFFFEB 		bl	chMBFetchI
 680              	.LVL72:
 681              		.loc 1 178 5 is_stmt 1 view .LVU184
 682              		.loc 1 178 5 view .LVU185
 683              		.syntax divided
 684              	@ 178 "../../test/testmbox.c" 1
ARM GAS  /var/folders/l5/0x54b2c10074c8bt31ycjvl80000gp/T//ccUNC6Ac.s 			page 13


 685 048c 1FF021E3 		msr     CPSR_c, #0x1F
 686              	@ 0 "" 2
 687              		.loc 1 178 18 view .LVU186
 688              		.loc 1 179 5 view .LVU187
 689              		.arm
 690              		.syntax unified
 691 0490 101F6FE1 		clz	r1, r0
 692 0494 1C00A0E3 		mov	r0, #28
 693              	.LVL73:
 694              		.loc 1 179 5 is_stmt 0 view .LVU188
 695 0498 A112A0E1 		lsr	r1, r1, #5
 696 049c FEFFFFEB 		bl	_test_assert
 697              	.LVL74:
 698              		.loc 1 179 61 is_stmt 1 view .LVU189
 699              		.loc 1 180 5 view .LVU190
 700              		.loc 1 179 5 is_stmt 0 view .LVU191
 701 04a0 000050E3 		cmp	r0, #0
 702 04a4 F9FEFF1A 		bne	.L1
 703              		.loc 1 180 5 discriminator 2 view .LVU192
 704 04a8 0400DDE5 		ldrb	r0, [sp, #4]	@ zero_extendqisi2
 705 04ac FEFFFFEB 		bl	test_emit_token
 706              	.LVL75:
 707              		.loc 1 175 3 discriminator 2 view .LVU193
 708 04b0 014054E2 		subs	r4, r4, #1
 709              	.LVL76:
 710              		.loc 1 175 3 discriminator 2 view .LVU194
 711 04b4 F0FFFF1A 		bne	.L12
 712              		.loc 1 182 3 is_stmt 1 view .LVU195
 713 04b8 D0129FE5 		ldr	r1, .L30+4
 714 04bc 1D00A0E3 		mov	r0, #29
 715 04c0 FEFFFFEB 		bl	_test_assert_sequence
 716              	.LVL77:
 717 04c4 000050E3 		cmp	r0, #0
 718 04c8 F0FEFF1A 		bne	.L1
 719              		.loc 1 182 36 discriminator 2 view .LVU196
 720              		.loc 1 183 3 discriminator 2 view .LVU197
 721              		.syntax divided
 722              	@ 183 "../../test/testmbox.c" 1
 723 04cc 9FF021E3 		msr     CPSR_c, #0x9F
 724              	@ 0 "" 2
 725              		.loc 1 183 3 discriminator 2 view .LVU198
 726              		.loc 1 183 3 discriminator 2 view .LVU199
 727              		.loc 1 183 3 discriminator 2 view .LVU200
 728              		.arm
 729              		.syntax unified
 730 04d0 241096E5 		ldr	r1, [r6, #36]
 731 04d4 1E00A0E3 		mov	r0, #30
 732 04d8 051041E2 		sub	r1, r1, #5
 733 04dc 111F6FE1 		clz	r1, r1
 734 04e0 A112A0E1 		lsr	r1, r1, #5
 735 04e4 FEFFFFEB 		bl	_test_assert
 736              	.LVL78:
 737 04e8 000050E3 		cmp	r0, #0
 738 04ec A400001A 		bne	.L21
 739              		.loc 1 183 3 discriminator 2 view .LVU201
 740              		.loc 1 183 3 discriminator 2 view .LVU202
 741              		.syntax divided
ARM GAS  /var/folders/l5/0x54b2c10074c8bt31ycjvl80000gp/T//ccUNC6Ac.s 			page 14


 742              	@ 183 "../../test/testmbox.c" 1
 743 04f0 1FF021E3 		msr     CPSR_c, #0x1F
 744              	@ 0 "" 2
 745              		.loc 1 183 3 discriminator 2 view .LVU203
 746              		.loc 1 183 72 discriminator 2 view .LVU204
 747              		.loc 1 184 3 discriminator 2 view .LVU205
 748              	@ 184 "../../test/testmbox.c" 1
 749 04f4 9FF021E3 		msr     CPSR_c, #0x9F
 750              	@ 0 "" 2
 751              		.loc 1 184 3 discriminator 2 view .LVU206
 752              		.loc 1 184 3 discriminator 2 view .LVU207
 753              		.loc 1 184 3 discriminator 2 view .LVU208
 754              		.arm
 755              		.syntax unified
 756 04f8 181096E5 		ldr	r1, [r6, #24]
 757 04fc 1F00A0E3 		mov	r0, #31
 758 0500 111F6FE1 		clz	r1, r1
 759 0504 A112A0E1 		lsr	r1, r1, #5
 760 0508 FEFFFFEB 		bl	_test_assert
 761              	.LVL79:
 762 050c 000050E3 		cmp	r0, #0
 763 0510 9B00001A 		bne	.L21
 764              		.loc 1 184 3 discriminator 2 view .LVU209
 765              		.loc 1 184 3 discriminator 2 view .LVU210
 766              		.syntax divided
 767              	@ 184 "../../test/testmbox.c" 1
 768 0514 1FF021E3 		msr     CPSR_c, #0x1F
 769              	@ 0 "" 2
 770              		.loc 1 184 3 discriminator 2 view .LVU211
 771              		.loc 1 184 67 discriminator 2 view .LVU212
 772              		.loc 1 185 3 discriminator 2 view .LVU213
 773              		.arm
 774              		.syntax unified
 775 0518 0C1096E5 		ldr	r1, [r6, #12]
 776 051c 083096E5 		ldr	r3, [r6, #8]
 777 0520 2000A0E3 		mov	r0, #32
 778 0524 031041E0 		sub	r1, r1, r3
 779 0528 111F6FE1 		clz	r1, r1
 780 052c A112A0E1 		lsr	r1, r1, #5
 781 0530 FEFFFFEB 		bl	_test_assert
 782              	.LVL80:
 783 0534 000050E3 		cmp	r0, #0
 784 0538 D4FEFF1A 		bne	.L1
 785              		.loc 1 185 72 discriminator 2 view .LVU214
 786              		.loc 1 187 3 discriminator 2 view .LVU215
 787              		.syntax divided
 788              	@ 187 "../../test/testmbox.c" 1
 789 053c 9FF021E3 		msr     CPSR_c, #0x9F
 790              	@ 0 "" 2
 791              		.loc 1 187 3 discriminator 2 view .LVU216
 792              		.loc 1 187 14 discriminator 2 view .LVU217
 793              		.loc 1 188 3 discriminator 2 view .LVU218
 794              		.loc 1 188 10 is_stmt 0 discriminator 2 view .LVU219
 795              		.arm
 796              		.syntax unified
 797 0540 4510A0E3 		mov	r1, #69
 798 0544 40029FE5 		ldr	r0, .L30
ARM GAS  /var/folders/l5/0x54b2c10074c8bt31ycjvl80000gp/T//ccUNC6Ac.s 			page 15


 799 0548 FEFFFFEB 		bl	chMBPostAheadI
 800              	.LVL81:
 801              		.loc 1 189 3 is_stmt 1 discriminator 2 view .LVU220
 802 054c 101F6FE1 		clz	r1, r0
 803 0550 2100A0E3 		mov	r0, #33
 804              	.LVL82:
 805              		.loc 1 189 3 is_stmt 0 discriminator 2 view .LVU221
 806 0554 A112A0E1 		lsr	r1, r1, #5
 807 0558 FEFFFFEB 		bl	_test_assert
 808              	.LVL83:
 809 055c 000050E3 		cmp	r0, #0
 810 0560 CAFEFF1A 		bne	.L1
 811              		.loc 1 189 59 is_stmt 1 discriminator 2 view .LVU222
 812              		.loc 1 190 3 discriminator 2 view .LVU223
 813              		.loc 1 190 10 is_stmt 0 discriminator 2 view .LVU224
 814 0564 4410A0E3 		mov	r1, #68
 815 0568 1C029FE5 		ldr	r0, .L30
 816 056c FEFFFFEB 		bl	chMBPostAheadI
 817              	.LVL84:
 818              		.loc 1 191 3 is_stmt 1 discriminator 2 view .LVU225
 819 0570 101F6FE1 		clz	r1, r0
 820 0574 2200A0E3 		mov	r0, #34
 821              	.LVL85:
 822              		.loc 1 191 3 is_stmt 0 discriminator 2 view .LVU226
 823 0578 A112A0E1 		lsr	r1, r1, #5
 824 057c FEFFFFEB 		bl	_test_assert
 825              	.LVL86:
 826 0580 000050E3 		cmp	r0, #0
 827 0584 C1FEFF1A 		bne	.L1
 828              		.loc 1 191 59 is_stmt 1 discriminator 2 view .LVU227
 829              		.loc 1 192 3 discriminator 2 view .LVU228
 830              		.loc 1 192 10 is_stmt 0 discriminator 2 view .LVU229
 831 0588 4310A0E3 		mov	r1, #67
 832 058c F8019FE5 		ldr	r0, .L30
 833 0590 FEFFFFEB 		bl	chMBPostAheadI
 834              	.LVL87:
 835              		.loc 1 193 3 is_stmt 1 discriminator 2 view .LVU230
 836 0594 101F6FE1 		clz	r1, r0
 837 0598 2300A0E3 		mov	r0, #35
 838              	.LVL88:
 839              		.loc 1 193 3 is_stmt 0 discriminator 2 view .LVU231
 840 059c A112A0E1 		lsr	r1, r1, #5
 841 05a0 FEFFFFEB 		bl	_test_assert
 842              	.LVL89:
 843 05a4 000050E3 		cmp	r0, #0
 844 05a8 B8FEFF1A 		bne	.L1
 845              		.loc 1 193 59 is_stmt 1 discriminator 2 view .LVU232
 846              		.loc 1 194 3 discriminator 2 view .LVU233
 847              		.loc 1 194 10 is_stmt 0 discriminator 2 view .LVU234
 848 05ac 4210A0E3 		mov	r1, #66
 849 05b0 D4019FE5 		ldr	r0, .L30
 850 05b4 FEFFFFEB 		bl	chMBPostAheadI
 851              	.LVL90:
 852              		.loc 1 195 3 is_stmt 1 discriminator 2 view .LVU235
 853 05b8 101F6FE1 		clz	r1, r0
 854 05bc 2400A0E3 		mov	r0, #36
 855              	.LVL91:
ARM GAS  /var/folders/l5/0x54b2c10074c8bt31ycjvl80000gp/T//ccUNC6Ac.s 			page 16


 856              		.loc 1 195 3 is_stmt 0 discriminator 2 view .LVU236
 857 05c0 A112A0E1 		lsr	r1, r1, #5
 858 05c4 FEFFFFEB 		bl	_test_assert
 859              	.LVL92:
 860 05c8 000050E3 		cmp	r0, #0
 861 05cc AFFEFF1A 		bne	.L1
 862              		.loc 1 195 59 is_stmt 1 discriminator 2 view .LVU237
 863              		.loc 1 196 3 discriminator 2 view .LVU238
 864              		.loc 1 196 10 is_stmt 0 discriminator 2 view .LVU239
 865 05d0 4110A0E3 		mov	r1, #65
 866 05d4 B0019FE5 		ldr	r0, .L30
 867 05d8 FEFFFFEB 		bl	chMBPostAheadI
 868              	.LVL93:
 869              		.loc 1 197 3 is_stmt 1 discriminator 2 view .LVU240
 870              		.loc 1 197 3 discriminator 2 view .LVU241
 871              		.syntax divided
 872              	@ 197 "../../test/testmbox.c" 1
 873 05dc 1FF021E3 		msr     CPSR_c, #0x1F
 874              	@ 0 "" 2
 875              		.loc 1 197 16 discriminator 2 view .LVU242
 876              		.loc 1 198 3 discriminator 2 view .LVU243
 877              		.arm
 878              		.syntax unified
 879 05e0 101F6FE1 		clz	r1, r0
 880 05e4 2500A0E3 		mov	r0, #37
 881              	.LVL94:
 882              		.loc 1 198 3 is_stmt 0 discriminator 2 view .LVU244
 883 05e8 A112A0E1 		lsr	r1, r1, #5
 884 05ec FEFFFFEB 		bl	_test_assert
 885              	.LVL95:
 886 05f0 000050E3 		cmp	r0, #0
 887 05f4 A5FEFF1A 		bne	.L1
 888              		.loc 1 198 59 is_stmt 1 discriminator 2 view .LVU245
 889              		.loc 1 199 3 discriminator 2 view .LVU246
 890 05f8 0C1096E5 		ldr	r1, [r6, #12]
 891 05fc 083096E5 		ldr	r3, [r6, #8]
 892 0600 2600A0E3 		mov	r0, #38
 893 0604 031041E0 		sub	r1, r1, r3
 894 0608 111F6FE1 		clz	r1, r1
 895 060c A112A0E1 		lsr	r1, r1, #5
 896 0610 FEFFFFEB 		bl	_test_assert
 897              	.LVL96:
 898 0614 000050E3 		cmp	r0, #0
 899 0618 9CFEFF1A 		bne	.L1
 900 061c 0540A0E3 		mov	r4, #5
 901              	.LVL97:
 902              		.loc 1 202 12 is_stmt 0 view .LVU247
 903 0620 64519FE5 		ldr	r5, .L30
 904              	.L15:
 905              	.LVL98:
 906              		.loc 1 201 5 is_stmt 1 view .LVU248
 907              		.syntax divided
 908              	@ 201 "../../test/testmbox.c" 1
 909 0624 9FF021E3 		msr     CPSR_c, #0x9F
 910              	@ 0 "" 2
 911              		.loc 1 201 5 view .LVU249
 912              		.loc 1 201 16 view .LVU250
ARM GAS  /var/folders/l5/0x54b2c10074c8bt31ycjvl80000gp/T//ccUNC6Ac.s 			page 17


 913              		.loc 1 202 5 view .LVU251
 914              		.loc 1 202 12 is_stmt 0 view .LVU252
 915              		.arm
 916              		.syntax unified
 917 0628 04108DE2 		add	r1, sp, #4
 918 062c 0500A0E1 		mov	r0, r5
 919 0630 FEFFFFEB 		bl	chMBFetchI
 920              	.LVL99:
 921              		.loc 1 203 5 is_stmt 1 view .LVU253
 922              		.loc 1 203 5 view .LVU254
 923              		.syntax divided
 924              	@ 203 "../../test/testmbox.c" 1
 925 0634 1FF021E3 		msr     CPSR_c, #0x1F
 926              	@ 0 "" 2
 927              		.loc 1 203 18 view .LVU255
 928              		.loc 1 204 5 view .LVU256
 929              		.arm
 930              		.syntax unified
 931 0638 101F6FE1 		clz	r1, r0
 932 063c 2700A0E3 		mov	r0, #39
 933              	.LVL100:
 934              		.loc 1 204 5 is_stmt 0 view .LVU257
 935 0640 A112A0E1 		lsr	r1, r1, #5
 936 0644 FEFFFFEB 		bl	_test_assert
 937              	.LVL101:
 938              		.loc 1 204 61 is_stmt 1 view .LVU258
 939              		.loc 1 205 5 view .LVU259
 940              		.loc 1 204 5 is_stmt 0 view .LVU260
 941 0648 000050E3 		cmp	r0, #0
 942 064c 8FFEFF1A 		bne	.L1
 943              		.loc 1 205 5 discriminator 2 view .LVU261
 944 0650 0400DDE5 		ldrb	r0, [sp, #4]	@ zero_extendqisi2
 945 0654 FEFFFFEB 		bl	test_emit_token
 946              	.LVL102:
 947              		.loc 1 200 3 discriminator 2 view .LVU262
 948 0658 014054E2 		subs	r4, r4, #1
 949              	.LVL103:
 950              		.loc 1 200 3 discriminator 2 view .LVU263
 951 065c F0FFFF1A 		bne	.L15
 952              		.loc 1 207 3 is_stmt 1 view .LVU264
 953 0660 28119FE5 		ldr	r1, .L30+4
 954 0664 2800A0E3 		mov	r0, #40
 955 0668 FEFFFFEB 		bl	_test_assert_sequence
 956              	.LVL104:
 957 066c 000050E3 		cmp	r0, #0
 958 0670 86FEFF1A 		bne	.L1
 959              		.loc 1 207 36 discriminator 2 view .LVU265
 960              		.loc 1 208 3 discriminator 2 view .LVU266
 961              		.syntax divided
 962              	@ 208 "../../test/testmbox.c" 1
 963 0674 9FF021E3 		msr     CPSR_c, #0x9F
 964              	@ 0 "" 2
 965              		.loc 1 208 3 discriminator 2 view .LVU267
 966              		.loc 1 208 3 discriminator 2 view .LVU268
 967              		.loc 1 208 3 discriminator 2 view .LVU269
 968              		.arm
 969              		.syntax unified
ARM GAS  /var/folders/l5/0x54b2c10074c8bt31ycjvl80000gp/T//ccUNC6Ac.s 			page 18


 970 0678 241096E5 		ldr	r1, [r6, #36]
 971 067c 2900A0E3 		mov	r0, #41
 972 0680 051041E2 		sub	r1, r1, #5
 973 0684 111F6FE1 		clz	r1, r1
 974 0688 A112A0E1 		lsr	r1, r1, #5
 975 068c FEFFFFEB 		bl	_test_assert
 976              	.LVL105:
 977 0690 000050E3 		cmp	r0, #0
 978 0694 3A00001A 		bne	.L21
 979              		.loc 1 208 3 discriminator 2 view .LVU270
 980              		.loc 1 208 3 discriminator 2 view .LVU271
 981              		.syntax divided
 982              	@ 208 "../../test/testmbox.c" 1
 983 0698 1FF021E3 		msr     CPSR_c, #0x1F
 984              	@ 0 "" 2
 985              		.loc 1 208 3 discriminator 2 view .LVU272
 986              		.loc 1 208 72 discriminator 2 view .LVU273
 987              		.loc 1 209 3 discriminator 2 view .LVU274
 988              	@ 209 "../../test/testmbox.c" 1
 989 069c 9FF021E3 		msr     CPSR_c, #0x9F
 990              	@ 0 "" 2
 991              		.loc 1 209 3 discriminator 2 view .LVU275
 992              		.loc 1 209 3 discriminator 2 view .LVU276
 993              		.loc 1 209 3 discriminator 2 view .LVU277
 994              		.arm
 995              		.syntax unified
 996 06a0 181096E5 		ldr	r1, [r6, #24]
 997 06a4 2A00A0E3 		mov	r0, #42
 998 06a8 111F6FE1 		clz	r1, r1
 999 06ac A112A0E1 		lsr	r1, r1, #5
 1000 06b0 FEFFFFEB 		bl	_test_assert
 1001              	.LVL106:
 1002 06b4 000050E3 		cmp	r0, #0
 1003 06b8 3100001A 		bne	.L21
 1004              		.loc 1 209 3 discriminator 2 view .LVU278
 1005              		.loc 1 209 3 discriminator 2 view .LVU279
 1006              		.syntax divided
 1007              	@ 209 "../../test/testmbox.c" 1
 1008 06bc 1FF021E3 		msr     CPSR_c, #0x1F
 1009              	@ 0 "" 2
 1010              		.loc 1 209 3 discriminator 2 view .LVU280
 1011              		.loc 1 209 67 discriminator 2 view .LVU281
 1012              		.loc 1 210 3 discriminator 2 view .LVU282
 1013              		.arm
 1014              		.syntax unified
 1015 06c0 0C1096E5 		ldr	r1, [r6, #12]
 1016 06c4 083096E5 		ldr	r3, [r6, #8]
 1017 06c8 2B00A0E3 		mov	r0, #43
 1018 06cc 031041E0 		sub	r1, r1, r3
 1019 06d0 111F6FE1 		clz	r1, r1
 1020 06d4 A112A0E1 		lsr	r1, r1, #5
 1021 06d8 FEFFFFEB 		bl	_test_assert
 1022              	.LVL107:
 1023 06dc 000050E3 		cmp	r0, #0
 1024 06e0 6AFEFF1A 		bne	.L1
 1025              		.loc 1 210 72 discriminator 2 view .LVU283
 1026              		.loc 1 215 3 discriminator 2 view .LVU284
ARM GAS  /var/folders/l5/0x54b2c10074c8bt31ycjvl80000gp/T//ccUNC6Ac.s 			page 19


 1027 06e4 A0009FE5 		ldr	r0, .L30
 1028 06e8 FEFFFFEB 		bl	chMBReset
 1029              	.LVL108:
 1030              		.loc 1 220 3 discriminator 2 view .LVU285
 1031              		.syntax divided
 1032              	@ 220 "../../test/testmbox.c" 1
 1033 06ec 9FF021E3 		msr     CPSR_c, #0x9F
 1034              	@ 0 "" 2
 1035              		.loc 1 220 3 discriminator 2 view .LVU286
 1036              		.loc 1 220 3 discriminator 2 view .LVU287
 1037              		.loc 1 220 3 discriminator 2 view .LVU288
 1038              		.arm
 1039              		.syntax unified
 1040 06f0 241096E5 		ldr	r1, [r6, #36]
 1041 06f4 2C00A0E3 		mov	r0, #44
 1042 06f8 051041E2 		sub	r1, r1, #5
 1043 06fc 111F6FE1 		clz	r1, r1
 1044 0700 A112A0E1 		lsr	r1, r1, #5
 1045 0704 FEFFFFEB 		bl	_test_assert
 1046              	.LVL109:
 1047 0708 000050E3 		cmp	r0, #0
 1048 070c 1C00001A 		bne	.L21
 1049              		.loc 1 220 3 discriminator 2 view .LVU289
 1050              		.loc 1 220 3 discriminator 2 view .LVU290
 1051              		.syntax divided
 1052              	@ 220 "../../test/testmbox.c" 1
 1053 0710 1FF021E3 		msr     CPSR_c, #0x1F
 1054              	@ 0 "" 2
 1055              		.loc 1 220 3 discriminator 2 view .LVU291
 1056              		.loc 1 220 72 discriminator 2 view .LVU292
 1057              		.loc 1 221 3 discriminator 2 view .LVU293
 1058              	@ 221 "../../test/testmbox.c" 1
 1059 0714 9FF021E3 		msr     CPSR_c, #0x9F
 1060              	@ 0 "" 2
 1061              		.loc 1 221 3 discriminator 2 view .LVU294
 1062              		.loc 1 221 3 discriminator 2 view .LVU295
 1063              		.loc 1 221 3 discriminator 2 view .LVU296
 1064              		.arm
 1065              		.syntax unified
 1066 0718 181096E5 		ldr	r1, [r6, #24]
 1067 071c 2D00A0E3 		mov	r0, #45
 1068 0720 111F6FE1 		clz	r1, r1
 1069 0724 A112A0E1 		lsr	r1, r1, #5
 1070 0728 FEFFFFEB 		bl	_test_assert
 1071              	.LVL110:
 1072 072c 000050E3 		cmp	r0, #0
 1073 0730 1300001A 		bne	.L21
 1074              		.loc 1 221 3 discriminator 2 view .LVU297
 1075              		.loc 1 221 3 discriminator 2 view .LVU298
 1076              		.syntax divided
 1077              	@ 221 "../../test/testmbox.c" 1
 1078 0734 1FF021E3 		msr     CPSR_c, #0x1F
 1079              	@ 0 "" 2
 1080              		.loc 1 221 3 discriminator 2 view .LVU299
 1081              		.loc 1 221 67 discriminator 2 view .LVU300
 1082              		.loc 1 222 3 discriminator 2 view .LVU301
 1083              	@ 222 "../../test/testmbox.c" 1
ARM GAS  /var/folders/l5/0x54b2c10074c8bt31ycjvl80000gp/T//ccUNC6Ac.s 			page 20


 1084 0738 9FF021E3 		msr     CPSR_c, #0x9F
 1085              	@ 0 "" 2
 1086              		.loc 1 222 3 discriminator 2 view .LVU302
 1087              		.loc 1 222 3 discriminator 2 view .LVU303
 1088              		.loc 1 222 3 discriminator 2 view .LVU304
 1089              		.arm
 1090              		.syntax unified
 1091 073c 001096E5 		ldr	r1, [r6]
 1092 0740 083096E5 		ldr	r3, [r6, #8]
 1093 0744 2E00A0E3 		mov	r0, #46
 1094 0748 031041E0 		sub	r1, r1, r3
 1095 074c 111F6FE1 		clz	r1, r1
 1096 0750 A112A0E1 		lsr	r1, r1, #5
 1097 0754 FEFFFFEB 		bl	_test_assert
 1098              	.LVL111:
 1099 0758 000050E3 		cmp	r0, #0
 1100 075c 0800001A 		bne	.L21
 1101              		.loc 1 222 3 discriminator 2 view .LVU305
 1102              		.loc 1 222 3 discriminator 2 view .LVU306
 1103              		.syntax divided
 1104              	@ 222 "../../test/testmbox.c" 1
 1105 0760 1FF021E3 		msr     CPSR_c, #0x1F
 1106              	@ 0 "" 2
 1107              		.loc 1 222 3 discriminator 2 view .LVU307
 1108              		.loc 1 222 91 discriminator 2 view .LVU308
 1109              		.loc 1 223 3 discriminator 2 view .LVU309
 1110              	@ 223 "../../test/testmbox.c" 1
 1111 0764 9FF021E3 		msr     CPSR_c, #0x9F
 1112              	@ 0 "" 2
 1113              		.loc 1 223 3 discriminator 2 view .LVU310
 1114              		.loc 1 223 3 discriminator 2 view .LVU311
 1115              		.loc 1 223 3 discriminator 2 view .LVU312
 1116              		.arm
 1117              		.syntax unified
 1118 0768 001096E5 		ldr	r1, [r6]
 1119 076c 0C3096E5 		ldr	r3, [r6, #12]
 1120 0770 2F00A0E3 		mov	r0, #47
 1121 0774 031041E0 		sub	r1, r1, r3
 1122 0778 111F6FE1 		clz	r1, r1
 1123 077c A112A0E1 		lsr	r1, r1, #5
 1124 0780 FEFFFFEB 		bl	_test_assert
 1125              	.LVL112:
 1126              	.L21:
 1127              		.loc 1 223 3 discriminator 2 view .LVU313
 1128              		.loc 1 223 3 discriminator 2 view .LVU314
 1129              		.syntax divided
 1130              	@ 223 "../../test/testmbox.c" 1
 1131 0784 1FF021E3 		msr     CPSR_c, #0x1F
 1132              	@ 0 "" 2
 1133              		.loc 1 223 3 discriminator 2 view .LVU315
 1134              		.loc 1 223 90 discriminator 2 view .LVU316
 1135              		.arm
 1136              		.syntax unified
 1137 0788 40FEFFEA 		b	.L1
 1138              	.L31:
 1139              		.align	2
 1140              	.L30:
ARM GAS  /var/folders/l5/0x54b2c10074c8bt31ycjvl80000gp/T//ccUNC6Ac.s 			page 21


 1141 078c 00000000 		.word	.LANCHOR0
 1142 0790 00000000 		.word	.LC0
 1143              		.cfi_endproc
 1144              	.LFE8:
 1145              		.size	mbox1_execute, .-mbox1_execute
 1146              		.section	.text.mbox1_setup,"ax",%progbits
 1147              		.align	2
 1148              		.syntax unified
 1149              		.arm
 1150              		.fpu softvfp
 1151              		.type	mbox1_setup, %function
 1152              	mbox1_setup:
 1153              	.LFB7:
 1154              		.loc 1 75 31 view -0
 1155              		.cfi_startproc
 1156              		@ args = 0, pretend = 0, frame = 0
 1157              		@ frame_needed = 0, uses_anonymous_args = 0
 1158              		@ link register save eliminated.
 1159              		.loc 1 77 3 view .LVU318
 1160 0000 0520A0E3 		mov	r2, #5
 1161 0004 04109FE5 		ldr	r1, .L33
 1162 0008 04009FE5 		ldr	r0, .L33+4
 1163 000c FEFFFFEA 		b	chMBInit
 1164              	.LVL113:
 1165              	.L34:
 1166              		.align	2
 1167              	.L33:
 1168 0010 00000000 		.word	test
 1169 0014 00000000 		.word	.LANCHOR0
 1170              		.cfi_endproc
 1171              	.LFE7:
 1172              		.size	mbox1_setup, .-mbox1_setup
 1173              		.global	patternmbox
 1174              		.global	testmbox1
 1175              		.section	.data.mb1,"aw"
 1176              		.align	2
 1177              		.set	.LANCHOR0,. + 0
 1178              		.type	mb1, %object
 1179              		.size	mb1, 40
 1180              	mb1:
 1181 0000 00000000 		.word	test
 1182 0004 14000000 		.word	test+20
 1183 0008 00000000 		.word	test
 1184 000c 00000000 		.word	test
 1185 0010 10000000 		.word	mb1+16
 1186 0014 10000000 		.word	mb1+16
 1187 0018 00000000 		.word	0
 1188 001c 1C000000 		.word	mb1+28
 1189 0020 1C000000 		.word	mb1+28
 1190 0024 05000000 		.word	5
 1191              		.section	.rodata.mbox1_execute.str1.4,"aMS",%progbits,1
 1192              		.align	2
 1193              	.LC0:
 1194 0000 41424344 		.ascii	"ABCDE\000"
 1194      4500
 1195              		.section	.rodata.patternmbox,"a"
 1196              		.align	2
ARM GAS  /var/folders/l5/0x54b2c10074c8bt31ycjvl80000gp/T//ccUNC6Ac.s 			page 22


 1197              		.type	patternmbox, %object
 1198              		.size	patternmbox, 8
 1199              	patternmbox:
 1200 0000 00000000 		.word	testmbox1
 1201 0004 00000000 		.word	0
 1202              		.section	.rodata.str1.4,"aMS",%progbits,1
 1203              		.align	2
 1204              	.LC1:
 1205 0000 4D61696C 		.ascii	"Mailboxes, queuing and timeouts\000"
 1205      626F7865 
 1205      732C2071 
 1205      75657569 
 1205      6E672061 
 1206              		.section	.rodata.testmbox1,"a"
 1207              		.align	2
 1208              		.type	testmbox1, %object
 1209              		.size	testmbox1, 16
 1210              	testmbox1:
 1211 0000 00000000 		.word	.LC1
 1212 0004 00000000 		.word	mbox1_setup
 1213 0008 00000000 		.word	0
 1214 000c 00000000 		.word	mbox1_execute
 1215              		.text
 1216              	.Letext0:
 1217              		.file 2 "/usr/local/Cellar/arm-gcc-bin/8-2019-q3-update/arm-none-eabi/include/machine/_default_typ
 1218              		.file 3 "/usr/local/Cellar/arm-gcc-bin/8-2019-q3-update/arm-none-eabi/include/sys/_stdint.h"
 1219              		.file 4 "../../os/ports/GCC/ARM/chtypes.h"
 1220              		.file 5 "../../os/kernel/include/chlists.h"
 1221              		.file 6 "../../os/kernel/include/chthreads.h"
 1222              		.file 7 "../../os/ports/GCC/ARM/chcore.h"
 1223              		.file 8 "../../os/kernel/include/chvt.h"
 1224              		.file 9 "../../os/kernel/include/chschd.h"
 1225              		.file 10 "../../os/kernel/include/chsem.h"
 1226              		.file 11 "../../os/kernel/include/chmtx.h"
 1227              		.file 12 "../../os/kernel/include/chmboxes.h"
 1228              		.file 13 "../../os/kernel/include/chregistry.h"
 1229              		.file 14 "../../os/kernel/include/ch.h"
 1230              		.file 15 "../../test/test.h"
 1231              		.section	.debug_info,"",%progbits
 1232              	.Ldebug_info0:
 1233 0000 E40F0000 		.4byte	0xfe4
 1234 0004 0400     		.2byte	0x4
 1235 0006 00000000 		.4byte	.Ldebug_abbrev0
 1236 000a 04       		.byte	0x4
 1237 000b 01       		.uleb128 0x1
 1238 000c 3C020000 		.4byte	.LASF134
 1239 0010 0C       		.byte	0xc
 1240 0011 6D040000 		.4byte	.LASF135
 1241 0015 F8050000 		.4byte	.LASF136
 1242 0019 00000000 		.4byte	.Ldebug_ranges0+0
 1243 001d 00000000 		.4byte	0
 1244 0021 00000000 		.4byte	.Ldebug_line0
 1245 0025 02       		.uleb128 0x2
 1246 0026 04       		.byte	0x4
 1247 0027 05       		.byte	0x5
 1248 0028 696E7400 		.ascii	"int\000"
 1249 002c 03       		.uleb128 0x3
ARM GAS  /var/folders/l5/0x54b2c10074c8bt31ycjvl80000gp/T//ccUNC6Ac.s 			page 23


 1250 002d 04       		.byte	0x4
 1251 002e 07       		.byte	0x7
 1252 002f 9E010000 		.4byte	.LASF0
 1253 0033 03       		.uleb128 0x3
 1254 0034 01       		.byte	0x1
 1255 0035 06       		.byte	0x6
 1256 0036 D1000000 		.4byte	.LASF1
 1257 003a 04       		.uleb128 0x4
 1258 003b 23000000 		.4byte	.LASF4
 1259 003f 02       		.byte	0x2
 1260 0040 2B       		.byte	0x2b
 1261 0041 18       		.byte	0x18
 1262 0042 46000000 		.4byte	0x46
 1263 0046 03       		.uleb128 0x3
 1264 0047 01       		.byte	0x1
 1265 0048 08       		.byte	0x8
 1266 0049 3C040000 		.4byte	.LASF2
 1267 004d 03       		.uleb128 0x3
 1268 004e 02       		.byte	0x2
 1269 004f 05       		.byte	0x5
 1270 0050 63040000 		.4byte	.LASF3
 1271 0054 04       		.uleb128 0x4
 1272 0055 1F050000 		.4byte	.LASF5
 1273 0059 02       		.byte	0x2
 1274 005a 39       		.byte	0x39
 1275 005b 19       		.byte	0x19
 1276 005c 60000000 		.4byte	0x60
 1277 0060 03       		.uleb128 0x3
 1278 0061 02       		.byte	0x2
 1279 0062 07       		.byte	0x7
 1280 0063 10020000 		.4byte	.LASF6
 1281 0067 04       		.uleb128 0x4
 1282 0068 46050000 		.4byte	.LASF7
 1283 006c 02       		.byte	0x2
 1284 006d 4D       		.byte	0x4d
 1285 006e 18       		.byte	0x18
 1286 006f 73000000 		.4byte	0x73
 1287 0073 03       		.uleb128 0x3
 1288 0074 04       		.byte	0x4
 1289 0075 05       		.byte	0x5
 1290 0076 30010000 		.4byte	.LASF8
 1291 007a 04       		.uleb128 0x4
 1292 007b 7C010000 		.4byte	.LASF9
 1293 007f 02       		.byte	0x2
 1294 0080 4F       		.byte	0x4f
 1295 0081 19       		.byte	0x19
 1296 0082 86000000 		.4byte	0x86
 1297 0086 03       		.uleb128 0x3
 1298 0087 04       		.byte	0x4
 1299 0088 07       		.byte	0x7
 1300 0089 BD010000 		.4byte	.LASF10
 1301 008d 03       		.uleb128 0x3
 1302 008e 08       		.byte	0x8
 1303 008f 05       		.byte	0x5
 1304 0090 C3000000 		.4byte	.LASF11
 1305 0094 03       		.uleb128 0x3
 1306 0095 08       		.byte	0x8
ARM GAS  /var/folders/l5/0x54b2c10074c8bt31ycjvl80000gp/T//ccUNC6Ac.s 			page 24


 1307 0096 07       		.byte	0x7
 1308 0097 55000000 		.4byte	.LASF12
 1309 009b 04       		.uleb128 0x4
 1310 009c BF050000 		.4byte	.LASF13
 1311 00a0 03       		.byte	0x3
 1312 00a1 18       		.byte	0x18
 1313 00a2 13       		.byte	0x13
 1314 00a3 3A000000 		.4byte	0x3a
 1315 00a7 04       		.uleb128 0x4
 1316 00a8 42010000 		.4byte	.LASF14
 1317 00ac 03       		.byte	0x3
 1318 00ad 24       		.byte	0x24
 1319 00ae 14       		.byte	0x14
 1320 00af 54000000 		.4byte	0x54
 1321 00b3 04       		.uleb128 0x4
 1322 00b4 34040000 		.4byte	.LASF15
 1323 00b8 03       		.byte	0x3
 1324 00b9 2C       		.byte	0x2c
 1325 00ba 13       		.byte	0x13
 1326 00bb 67000000 		.4byte	0x67
 1327 00bf 04       		.uleb128 0x4
 1328 00c0 E3040000 		.4byte	.LASF16
 1329 00c4 03       		.byte	0x3
 1330 00c5 30       		.byte	0x30
 1331 00c6 14       		.byte	0x14
 1332 00c7 7A000000 		.4byte	0x7a
 1333 00cb 04       		.uleb128 0x4
 1334 00cc FA000000 		.4byte	.LASF17
 1335 00d0 04       		.byte	0x4
 1336 00d1 29       		.byte	0x29
 1337 00d2 19       		.byte	0x19
 1338 00d3 B3000000 		.4byte	0xb3
 1339 00d7 04       		.uleb128 0x4
 1340 00d8 14030000 		.4byte	.LASF18
 1341 00dc 04       		.byte	0x4
 1342 00dd 2A       		.byte	0x2a
 1343 00de 19       		.byte	0x19
 1344 00df 9B000000 		.4byte	0x9b
 1345 00e3 04       		.uleb128 0x4
 1346 00e4 39010000 		.4byte	.LASF19
 1347 00e8 04       		.byte	0x4
 1348 00e9 2B       		.byte	0x2b
 1349 00ea 19       		.byte	0x19
 1350 00eb 9B000000 		.4byte	0x9b
 1351 00ef 04       		.uleb128 0x4
 1352 00f0 0A040000 		.4byte	.LASF20
 1353 00f4 04       		.byte	0x4
 1354 00f5 2C       		.byte	0x2c
 1355 00f6 19       		.byte	0x19
 1356 00f7 9B000000 		.4byte	0x9b
 1357 00fb 04       		.uleb128 0x4
 1358 00fc 2C040000 		.4byte	.LASF21
 1359 0100 04       		.byte	0x4
 1360 0101 2E       		.byte	0x2e
 1361 0102 19       		.byte	0x19
 1362 0103 BF000000 		.4byte	0xbf
 1363 0107 04       		.uleb128 0x4
ARM GAS  /var/folders/l5/0x54b2c10074c8bt31ycjvl80000gp/T//ccUNC6Ac.s 			page 25


 1364 0108 2E020000 		.4byte	.LASF22
 1365 010c 04       		.byte	0x4
 1366 010d 2F       		.byte	0x2f
 1367 010e 19       		.byte	0x19
 1368 010f B3000000 		.4byte	0xb3
 1369 0113 04       		.uleb128 0x4
 1370 0114 34030000 		.4byte	.LASF23
 1371 0118 04       		.byte	0x4
 1372 0119 31       		.byte	0x31
 1373 011a 19       		.byte	0x19
 1374 011b BF000000 		.4byte	0xbf
 1375 011f 04       		.uleb128 0x4
 1376 0120 31050000 		.4byte	.LASF24
 1377 0124 04       		.byte	0x4
 1378 0125 33       		.byte	0x33
 1379 0126 19       		.byte	0x19
 1380 0127 BF000000 		.4byte	0xbf
 1381 012b 05       		.uleb128 0x5
 1382 012c 1F010000 		.4byte	0x11f
 1383 0130 04       		.uleb128 0x4
 1384 0131 98010000 		.4byte	.LASF25
 1385 0135 04       		.byte	0x4
 1386 0136 34       		.byte	0x34
 1387 0137 19       		.byte	0x19
 1388 0138 B3000000 		.4byte	0xb3
 1389 013c 04       		.uleb128 0x4
 1390 013d BB040000 		.4byte	.LASF26
 1391 0141 05       		.byte	0x5
 1392 0142 23       		.byte	0x23
 1393 0143 17       		.byte	0x17
 1394 0144 48010000 		.4byte	0x148
 1395 0148 06       		.uleb128 0x6
 1396 0149 BB040000 		.4byte	.LASF26
 1397 014d 44       		.byte	0x44
 1398 014e 06       		.byte	0x6
 1399 014f 57       		.byte	0x57
 1400 0150 08       		.byte	0x8
 1401 0151 40020000 		.4byte	0x240
 1402 0155 07       		.uleb128 0x7
 1403 0156 9D040000 		.4byte	.LASF27
 1404 015a 06       		.byte	0x6
 1405 015b 58       		.byte	0x58
 1406 015c 1A       		.byte	0x1a
 1407 015d 64020000 		.4byte	0x264
 1408 0161 00       		.byte	0
 1409 0162 07       		.uleb128 0x7
 1410 0163 1D040000 		.4byte	.LASF28
 1411 0167 06       		.byte	0x6
 1412 0168 5A       		.byte	0x5a
 1413 0169 1A       		.byte	0x1a
 1414 016a 64020000 		.4byte	0x264
 1415 016e 04       		.byte	0x4
 1416 016f 07       		.uleb128 0x7
 1417 0170 A6000000 		.4byte	.LASF29
 1418 0174 06       		.byte	0x6
 1419 0175 5C       		.byte	0x5c
 1420 0176 19       		.byte	0x19
ARM GAS  /var/folders/l5/0x54b2c10074c8bt31ycjvl80000gp/T//ccUNC6Ac.s 			page 26


 1421 0177 FB000000 		.4byte	0xfb
 1422 017b 08       		.byte	0x8
 1423 017c 07       		.uleb128 0x7
 1424 017d 4F060000 		.4byte	.LASF30
 1425 0181 06       		.byte	0x6
 1426 0182 5D       		.byte	0x5d
 1427 0183 19       		.byte	0x19
 1428 0184 34030000 		.4byte	0x334
 1429 0188 0C       		.byte	0xc
 1430 0189 07       		.uleb128 0x7
 1431 018a 5C010000 		.4byte	.LASF31
 1432 018e 06       		.byte	0x6
 1433 018f 5F       		.byte	0x5f
 1434 0190 1A       		.byte	0x1a
 1435 0191 64020000 		.4byte	0x264
 1436 0195 10       		.byte	0x10
 1437 0196 07       		.uleb128 0x7
 1438 0197 A1030000 		.4byte	.LASF32
 1439 019b 06       		.byte	0x6
 1440 019c 60       		.byte	0x60
 1441 019d 1A       		.byte	0x1a
 1442 019e 64020000 		.4byte	0x264
 1443 01a2 14       		.byte	0x14
 1444 01a3 07       		.uleb128 0x7
 1445 01a4 CE050000 		.4byte	.LASF33
 1446 01a8 06       		.byte	0x6
 1447 01a9 67       		.byte	0x67
 1448 01aa 1A       		.byte	0x1a
 1449 01ab B8050000 		.4byte	0x5b8
 1450 01af 18       		.byte	0x18
 1451 01b0 07       		.uleb128 0x7
 1452 01b1 01010000 		.4byte	.LASF34
 1453 01b5 06       		.byte	0x6
 1454 01b6 72       		.byte	0x72
 1455 01b7 19       		.byte	0x19
 1456 01b8 E3000000 		.4byte	0xe3
 1457 01bc 1C       		.byte	0x1c
 1458 01bd 07       		.uleb128 0x7
 1459 01be B3040000 		.4byte	.LASF35
 1460 01c2 06       		.byte	0x6
 1461 01c3 76       		.byte	0x76
 1462 01c4 19       		.byte	0x19
 1463 01c5 D7000000 		.4byte	0xd7
 1464 01c9 1D       		.byte	0x1d
 1465 01ca 07       		.uleb128 0x7
 1466 01cb A8050000 		.4byte	.LASF36
 1467 01cf 06       		.byte	0x6
 1468 01d0 7B       		.byte	0x7b
 1469 01d1 19       		.byte	0x19
 1470 01d2 EF000000 		.4byte	0xef
 1471 01d6 1E       		.byte	0x1e
 1472 01d7 07       		.uleb128 0x7
 1473 01d8 50050000 		.4byte	.LASF37
 1474 01dc 06       		.byte	0x6
 1475 01dd 88       		.byte	0x88
 1476 01de 19       		.byte	0x19
 1477 01df 2B010000 		.4byte	0x12b
ARM GAS  /var/folders/l5/0x54b2c10074c8bt31ycjvl80000gp/T//ccUNC6Ac.s 			page 27


 1478 01e3 20       		.byte	0x20
 1479 01e4 08       		.uleb128 0x8
 1480 01e5 705F7500 		.ascii	"p_u\000"
 1481 01e9 06       		.byte	0x6
 1482 01ea AD       		.byte	0xad
 1483 01eb 19       		.byte	0x19
 1484 01ec 7E050000 		.4byte	0x57e
 1485 01f0 24       		.byte	0x24
 1486 01f1 07       		.uleb128 0x7
 1487 01f2 55060000 		.4byte	.LASF38
 1488 01f6 06       		.byte	0x6
 1489 01f7 B2       		.byte	0xb2
 1490 01f8 19       		.byte	0x19
 1491 01f9 8D020000 		.4byte	0x28d
 1492 01fd 28       		.byte	0x28
 1493 01fe 07       		.uleb128 0x7
 1494 01ff 6C050000 		.4byte	.LASF39
 1495 0203 06       		.byte	0x6
 1496 0204 B8       		.byte	0xb8
 1497 0205 19       		.byte	0x19
 1498 0206 6A020000 		.4byte	0x26a
 1499 020a 2C       		.byte	0x2c
 1500 020b 07       		.uleb128 0x7
 1501 020c 0D000000 		.4byte	.LASF40
 1502 0210 06       		.byte	0x6
 1503 0211 BC       		.byte	0xbc
 1504 0212 19       		.byte	0x19
 1505 0213 07010000 		.4byte	0x107
 1506 0217 34       		.byte	0x34
 1507 0218 07       		.uleb128 0x7
 1508 0219 D8040000 		.4byte	.LASF41
 1509 021d 06       		.byte	0x6
 1510 021e C2       		.byte	0xc2
 1511 021f 19       		.byte	0x19
 1512 0220 13010000 		.4byte	0x113
 1513 0224 38       		.byte	0x38
 1514 0225 07       		.uleb128 0x7
 1515 0226 59040000 		.4byte	.LASF42
 1516 022a 06       		.byte	0x6
 1517 022b C9       		.byte	0xc9
 1518 022c 1A       		.byte	0x1a
 1519 022d CA050000 		.4byte	0x5ca
 1520 0231 3C       		.byte	0x3c
 1521 0232 07       		.uleb128 0x7
 1522 0233 3B050000 		.4byte	.LASF43
 1523 0237 06       		.byte	0x6
 1524 0238 CD       		.byte	0xcd
 1525 0239 19       		.byte	0x19
 1526 023a FB000000 		.4byte	0xfb
 1527 023e 40       		.byte	0x40
 1528 023f 00       		.byte	0
 1529 0240 09       		.uleb128 0x9
 1530 0241 08       		.byte	0x8
 1531 0242 05       		.byte	0x5
 1532 0243 5A       		.byte	0x5a
 1533 0244 09       		.byte	0x9
 1534 0245 64020000 		.4byte	0x264
ARM GAS  /var/folders/l5/0x54b2c10074c8bt31ycjvl80000gp/T//ccUNC6Ac.s 			page 28


 1535 0249 07       		.uleb128 0x7
 1536 024a 9D040000 		.4byte	.LASF27
 1537 024e 05       		.byte	0x5
 1538 024f 5B       		.byte	0x5b
 1539 0250 1A       		.byte	0x1a
 1540 0251 64020000 		.4byte	0x264
 1541 0255 00       		.byte	0
 1542 0256 07       		.uleb128 0x7
 1543 0257 1D040000 		.4byte	.LASF28
 1544 025b 05       		.byte	0x5
 1545 025c 5D       		.byte	0x5d
 1546 025d 1A       		.byte	0x1a
 1547 025e 64020000 		.4byte	0x264
 1548 0262 04       		.byte	0x4
 1549 0263 00       		.byte	0
 1550 0264 0A       		.uleb128 0xa
 1551 0265 04       		.byte	0x4
 1552 0266 3C010000 		.4byte	0x13c
 1553 026a 04       		.uleb128 0x4
 1554 026b AF030000 		.4byte	.LASF44
 1555 026f 05       		.byte	0x5
 1556 0270 5F       		.byte	0x5f
 1557 0271 03       		.byte	0x3
 1558 0272 40020000 		.4byte	0x240
 1559 0276 09       		.uleb128 0x9
 1560 0277 04       		.byte	0x4
 1561 0278 05       		.byte	0x5
 1562 0279 64       		.byte	0x64
 1563 027a 09       		.byte	0x9
 1564 027b 8D020000 		.4byte	0x28d
 1565 027f 07       		.uleb128 0x7
 1566 0280 9D040000 		.4byte	.LASF27
 1567 0284 05       		.byte	0x5
 1568 0285 66       		.byte	0x66
 1569 0286 16       		.byte	0x16
 1570 0287 64020000 		.4byte	0x264
 1571 028b 00       		.byte	0
 1572 028c 00       		.byte	0
 1573 028d 04       		.uleb128 0x4
 1574 028e 28030000 		.4byte	.LASF45
 1575 0292 05       		.byte	0x5
 1576 0293 69       		.byte	0x69
 1577 0294 03       		.byte	0x3
 1578 0295 76020000 		.4byte	0x276
 1579 0299 04       		.uleb128 0x4
 1580 029a 50030000 		.4byte	.LASF46
 1581 029e 07       		.byte	0x7
 1582 029f 9D       		.byte	0x9d
 1583 02a0 12       		.byte	0x12
 1584 02a1 BF000000 		.4byte	0xbf
 1585 02a5 04       		.uleb128 0x4
 1586 02a6 87010000 		.4byte	.LASF47
 1587 02aa 07       		.byte	0x7
 1588 02ab A2       		.byte	0xa2
 1589 02ac 0F       		.byte	0xf
 1590 02ad B1020000 		.4byte	0x2b1
 1591 02b1 0B       		.uleb128 0xb
ARM GAS  /var/folders/l5/0x54b2c10074c8bt31ycjvl80000gp/T//ccUNC6Ac.s 			page 29


 1592 02b2 04       		.byte	0x4
 1593 02b3 0C       		.uleb128 0xc
 1594 02b4 B1020000 		.4byte	0x2b1
 1595 02b8 06       		.uleb128 0x6
 1596 02b9 65050000 		.4byte	.LASF48
 1597 02bd 24       		.byte	0x24
 1598 02be 07       		.byte	0x7
 1599 02bf B9       		.byte	0xb9
 1600 02c0 08       		.byte	0x8
 1601 02c1 34030000 		.4byte	0x334
 1602 02c5 08       		.uleb128 0x8
 1603 02c6 723400   		.ascii	"r4\000"
 1604 02c9 07       		.byte	0x7
 1605 02ca BA       		.byte	0xba
 1606 02cb 11       		.byte	0x11
 1607 02cc A5020000 		.4byte	0x2a5
 1608 02d0 00       		.byte	0
 1609 02d1 08       		.uleb128 0x8
 1610 02d2 723500   		.ascii	"r5\000"
 1611 02d5 07       		.byte	0x7
 1612 02d6 BB       		.byte	0xbb
 1613 02d7 11       		.byte	0x11
 1614 02d8 A5020000 		.4byte	0x2a5
 1615 02dc 04       		.byte	0x4
 1616 02dd 08       		.uleb128 0x8
 1617 02de 723600   		.ascii	"r6\000"
 1618 02e1 07       		.byte	0x7
 1619 02e2 BC       		.byte	0xbc
 1620 02e3 11       		.byte	0x11
 1621 02e4 A5020000 		.4byte	0x2a5
 1622 02e8 08       		.byte	0x8
 1623 02e9 08       		.uleb128 0x8
 1624 02ea 723700   		.ascii	"r7\000"
 1625 02ed 07       		.byte	0x7
 1626 02ee BD       		.byte	0xbd
 1627 02ef 11       		.byte	0x11
 1628 02f0 A5020000 		.4byte	0x2a5
 1629 02f4 0C       		.byte	0xc
 1630 02f5 08       		.uleb128 0x8
 1631 02f6 723800   		.ascii	"r8\000"
 1632 02f9 07       		.byte	0x7
 1633 02fa BE       		.byte	0xbe
 1634 02fb 11       		.byte	0x11
 1635 02fc A5020000 		.4byte	0x2a5
 1636 0300 10       		.byte	0x10
 1637 0301 08       		.uleb128 0x8
 1638 0302 723900   		.ascii	"r9\000"
 1639 0305 07       		.byte	0x7
 1640 0306 BF       		.byte	0xbf
 1641 0307 11       		.byte	0x11
 1642 0308 A5020000 		.4byte	0x2a5
 1643 030c 14       		.byte	0x14
 1644 030d 08       		.uleb128 0x8
 1645 030e 72313000 		.ascii	"r10\000"
 1646 0312 07       		.byte	0x7
 1647 0313 C0       		.byte	0xc0
 1648 0314 11       		.byte	0x11
ARM GAS  /var/folders/l5/0x54b2c10074c8bt31ycjvl80000gp/T//ccUNC6Ac.s 			page 30


 1649 0315 A5020000 		.4byte	0x2a5
 1650 0319 18       		.byte	0x18
 1651 031a 08       		.uleb128 0x8
 1652 031b 72313100 		.ascii	"r11\000"
 1653 031f 07       		.byte	0x7
 1654 0320 C1       		.byte	0xc1
 1655 0321 11       		.byte	0x11
 1656 0322 A5020000 		.4byte	0x2a5
 1657 0326 1C       		.byte	0x1c
 1658 0327 08       		.uleb128 0x8
 1659 0328 6C7200   		.ascii	"lr\000"
 1660 032b 07       		.byte	0x7
 1661 032c C2       		.byte	0xc2
 1662 032d 11       		.byte	0x11
 1663 032e A5020000 		.4byte	0x2a5
 1664 0332 20       		.byte	0x20
 1665 0333 00       		.byte	0
 1666 0334 06       		.uleb128 0x6
 1667 0335 08020000 		.4byte	.LASF49
 1668 0339 04       		.byte	0x4
 1669 033a 07       		.byte	0x7
 1670 033b CA       		.byte	0xca
 1671 033c 08       		.byte	0x8
 1672 033d 4F030000 		.4byte	0x34f
 1673 0341 08       		.uleb128 0x8
 1674 0342 72313300 		.ascii	"r13\000"
 1675 0346 07       		.byte	0x7
 1676 0347 CB       		.byte	0xcb
 1677 0348 12       		.byte	0x12
 1678 0349 4F030000 		.4byte	0x34f
 1679 034d 00       		.byte	0
 1680 034e 00       		.byte	0
 1681 034f 0A       		.uleb128 0xa
 1682 0350 04       		.byte	0x4
 1683 0351 B8020000 		.4byte	0x2b8
 1684 0355 04       		.uleb128 0x4
 1685 0356 F4010000 		.4byte	.LASF50
 1686 035a 08       		.byte	0x8
 1687 035b 4E       		.byte	0x4e
 1688 035c 10       		.byte	0x10
 1689 035d 61030000 		.4byte	0x361
 1690 0361 0A       		.uleb128 0xa
 1691 0362 04       		.byte	0x4
 1692 0363 67030000 		.4byte	0x367
 1693 0367 0D       		.uleb128 0xd
 1694 0368 72030000 		.4byte	0x372
 1695 036c 0E       		.uleb128 0xe
 1696 036d B1020000 		.4byte	0x2b1
 1697 0371 00       		.byte	0
 1698 0372 04       		.uleb128 0x4
 1699 0373 00050000 		.4byte	.LASF51
 1700 0377 08       		.byte	0x8
 1701 0378 53       		.byte	0x53
 1702 0379 1D       		.byte	0x1d
 1703 037a 7E030000 		.4byte	0x37e
 1704 037e 06       		.uleb128 0x6
 1705 037f 00050000 		.4byte	.LASF51
ARM GAS  /var/folders/l5/0x54b2c10074c8bt31ycjvl80000gp/T//ccUNC6Ac.s 			page 31


 1706 0383 14       		.byte	0x14
 1707 0384 08       		.byte	0x8
 1708 0385 5A       		.byte	0x5a
 1709 0386 08       		.byte	0x8
 1710 0387 CD030000 		.4byte	0x3cd
 1711 038b 07       		.uleb128 0x7
 1712 038c AB010000 		.4byte	.LASF52
 1713 0390 08       		.byte	0x8
 1714 0391 5B       		.byte	0x5b
 1715 0392 1A       		.byte	0x1a
 1716 0393 CD030000 		.4byte	0x3cd
 1717 0397 00       		.byte	0
 1718 0398 07       		.uleb128 0x7
 1719 0399 90010000 		.4byte	.LASF53
 1720 039d 08       		.byte	0x8
 1721 039e 5D       		.byte	0x5d
 1722 039f 1A       		.byte	0x1a
 1723 03a0 CD030000 		.4byte	0x3cd
 1724 03a4 04       		.byte	0x4
 1725 03a5 07       		.uleb128 0x7
 1726 03a6 6F030000 		.4byte	.LASF54
 1727 03aa 08       		.byte	0x8
 1728 03ab 5F       		.byte	0x5f
 1729 03ac 19       		.byte	0x19
 1730 03ad 1F010000 		.4byte	0x11f
 1731 03b1 08       		.byte	0x8
 1732 03b2 07       		.uleb128 0x7
 1733 03b3 77030000 		.4byte	.LASF55
 1734 03b7 08       		.byte	0x8
 1735 03b8 60       		.byte	0x60
 1736 03b9 19       		.byte	0x19
 1737 03ba 55030000 		.4byte	0x355
 1738 03be 0C       		.byte	0xc
 1739 03bf 07       		.uleb128 0x7
 1740 03c0 81050000 		.4byte	.LASF56
 1741 03c4 08       		.byte	0x8
 1742 03c5 62       		.byte	0x62
 1743 03c6 1A       		.byte	0x1a
 1744 03c7 B1020000 		.4byte	0x2b1
 1745 03cb 10       		.byte	0x10
 1746 03cc 00       		.byte	0
 1747 03cd 0A       		.uleb128 0xa
 1748 03ce 04       		.byte	0x4
 1749 03cf 72030000 		.4byte	0x372
 1750 03d3 09       		.uleb128 0x9
 1751 03d4 10       		.byte	0x10
 1752 03d5 08       		.byte	0x8
 1753 03d6 6C       		.byte	0x6c
 1754 03d7 09       		.byte	0x9
 1755 03d8 11040000 		.4byte	0x411
 1756 03dc 07       		.uleb128 0x7
 1757 03dd AB010000 		.4byte	.LASF52
 1758 03e1 08       		.byte	0x8
 1759 03e2 6D       		.byte	0x6d
 1760 03e3 1A       		.byte	0x1a
 1761 03e4 CD030000 		.4byte	0x3cd
 1762 03e8 00       		.byte	0
ARM GAS  /var/folders/l5/0x54b2c10074c8bt31ycjvl80000gp/T//ccUNC6Ac.s 			page 32


 1763 03e9 07       		.uleb128 0x7
 1764 03ea 90010000 		.4byte	.LASF53
 1765 03ee 08       		.byte	0x8
 1766 03ef 6F       		.byte	0x6f
 1767 03f0 1A       		.byte	0x1a
 1768 03f1 CD030000 		.4byte	0x3cd
 1769 03f5 04       		.byte	0x4
 1770 03f6 07       		.uleb128 0x7
 1771 03f7 6F030000 		.4byte	.LASF54
 1772 03fb 08       		.byte	0x8
 1773 03fc 71       		.byte	0x71
 1774 03fd 19       		.byte	0x19
 1775 03fe 1F010000 		.4byte	0x11f
 1776 0402 08       		.byte	0x8
 1777 0403 07       		.uleb128 0x7
 1778 0404 E2050000 		.4byte	.LASF57
 1779 0408 08       		.byte	0x8
 1780 0409 72       		.byte	0x72
 1781 040a 19       		.byte	0x19
 1782 040b 2B010000 		.4byte	0x12b
 1783 040f 0C       		.byte	0xc
 1784 0410 00       		.byte	0
 1785 0411 04       		.uleb128 0x4
 1786 0412 40060000 		.4byte	.LASF58
 1787 0416 08       		.byte	0x8
 1788 0417 73       		.byte	0x73
 1789 0418 03       		.byte	0x3
 1790 0419 D3030000 		.4byte	0x3d3
 1791 041d 0F       		.uleb128 0xf
 1792 041e 37000000 		.4byte	.LASF66
 1793 0422 08       		.byte	0x8
 1794 0423 D1       		.byte	0xd1
 1795 0424 0F       		.byte	0xf
 1796 0425 11040000 		.4byte	0x411
 1797 0429 09       		.uleb128 0x9
 1798 042a 1C       		.byte	0x1c
 1799 042b 09       		.byte	0x9
 1800 042c 57       		.byte	0x57
 1801 042d 09       		.byte	0x9
 1802 042e 81040000 		.4byte	0x481
 1803 0432 07       		.uleb128 0x7
 1804 0433 F8040000 		.4byte	.LASF59
 1805 0437 09       		.byte	0x9
 1806 0438 58       		.byte	0x58
 1807 0439 19       		.byte	0x19
 1808 043a 6A020000 		.4byte	0x26a
 1809 043e 00       		.byte	0
 1810 043f 07       		.uleb128 0x7
 1811 0440 8F040000 		.4byte	.LASF60
 1812 0444 09       		.byte	0x9
 1813 0445 59       		.byte	0x59
 1814 0446 19       		.byte	0x19
 1815 0447 FB000000 		.4byte	0xfb
 1816 044b 08       		.byte	0x8
 1817 044c 07       		.uleb128 0x7
 1818 044d A9030000 		.4byte	.LASF61
 1819 0451 09       		.byte	0x9
ARM GAS  /var/folders/l5/0x54b2c10074c8bt31ycjvl80000gp/T//ccUNC6Ac.s 			page 33


 1820 0452 5B       		.byte	0x5b
 1821 0453 19       		.byte	0x19
 1822 0454 34030000 		.4byte	0x334
 1823 0458 0C       		.byte	0xc
 1824 0459 07       		.uleb128 0x7
 1825 045a 34020000 		.4byte	.LASF62
 1826 045e 09       		.byte	0x9
 1827 045f 5E       		.byte	0x5e
 1828 0460 1A       		.byte	0x1a
 1829 0461 64020000 		.4byte	0x264
 1830 0465 10       		.byte	0x10
 1831 0466 07       		.uleb128 0x7
 1832 0467 02040000 		.4byte	.LASF63
 1833 046b 09       		.byte	0x9
 1834 046c 5F       		.byte	0x5f
 1835 046d 1A       		.byte	0x1a
 1836 046e 64020000 		.4byte	0x264
 1837 0472 14       		.byte	0x14
 1838 0473 07       		.uleb128 0x7
 1839 0474 F8030000 		.4byte	.LASF64
 1840 0478 09       		.byte	0x9
 1841 0479 62       		.byte	0x62
 1842 047a 1A       		.byte	0x1a
 1843 047b 64020000 		.4byte	0x264
 1844 047f 18       		.byte	0x18
 1845 0480 00       		.byte	0
 1846 0481 04       		.uleb128 0x4
 1847 0482 AF050000 		.4byte	.LASF65
 1848 0486 09       		.byte	0x9
 1849 0487 64       		.byte	0x64
 1850 0488 03       		.byte	0x3
 1851 0489 29040000 		.4byte	0x429
 1852 048d 0F       		.uleb128 0xf
 1853 048e B9050000 		.4byte	.LASF67
 1854 0492 09       		.byte	0x9
 1855 0493 68       		.byte	0x68
 1856 0494 12       		.byte	0x12
 1857 0495 81040000 		.4byte	0x481
 1858 0499 06       		.uleb128 0x6
 1859 049a 88050000 		.4byte	.LASF68
 1860 049e 0C       		.byte	0xc
 1861 049f 0A       		.byte	0xa
 1862 04a0 25       		.byte	0x25
 1863 04a1 10       		.byte	0x10
 1864 04a2 C1040000 		.4byte	0x4c1
 1865 04a6 07       		.uleb128 0x7
 1866 04a7 74010000 		.4byte	.LASF69
 1867 04ab 0A       		.byte	0xa
 1868 04ac 26       		.byte	0x26
 1869 04ad 19       		.byte	0x19
 1870 04ae 6A020000 		.4byte	0x26a
 1871 04b2 00       		.byte	0
 1872 04b3 07       		.uleb128 0x7
 1873 04b4 FD010000 		.4byte	.LASF70
 1874 04b8 0A       		.byte	0xa
 1875 04b9 28       		.byte	0x28
 1876 04ba 19       		.byte	0x19
ARM GAS  /var/folders/l5/0x54b2c10074c8bt31ycjvl80000gp/T//ccUNC6Ac.s 			page 34


 1877 04bb 30010000 		.4byte	0x130
 1878 04bf 08       		.byte	0x8
 1879 04c0 00       		.byte	0
 1880 04c1 04       		.uleb128 0x4
 1881 04c2 88050000 		.4byte	.LASF68
 1882 04c6 0A       		.byte	0xa
 1883 04c7 29       		.byte	0x29
 1884 04c8 03       		.byte	0x3
 1885 04c9 99040000 		.4byte	0x499
 1886 04cd 06       		.uleb128 0x6
 1887 04ce 40030000 		.4byte	.LASF71
 1888 04d2 10       		.byte	0x10
 1889 04d3 0B       		.byte	0xb
 1890 04d4 25       		.byte	0x25
 1891 04d5 10       		.byte	0x10
 1892 04d6 02050000 		.4byte	0x502
 1893 04da 07       		.uleb128 0x7
 1894 04db 4A040000 		.4byte	.LASF72
 1895 04df 0B       		.byte	0xb
 1896 04e0 26       		.byte	0x26
 1897 04e1 19       		.byte	0x19
 1898 04e2 6A020000 		.4byte	0x26a
 1899 04e6 00       		.byte	0
 1900 04e7 07       		.uleb128 0x7
 1901 04e8 47060000 		.4byte	.LASF73
 1902 04ec 0B       		.byte	0xb
 1903 04ed 28       		.byte	0x28
 1904 04ee 1A       		.byte	0x1a
 1905 04ef 64020000 		.4byte	0x264
 1906 04f3 08       		.byte	0x8
 1907 04f4 07       		.uleb128 0x7
 1908 04f5 2A050000 		.4byte	.LASF74
 1909 04f9 0B       		.byte	0xb
 1910 04fa 2A       		.byte	0x2a
 1911 04fb 1A       		.byte	0x1a
 1912 04fc 02050000 		.4byte	0x502
 1913 0500 0C       		.byte	0xc
 1914 0501 00       		.byte	0
 1915 0502 0A       		.uleb128 0xa
 1916 0503 04       		.byte	0x4
 1917 0504 CD040000 		.4byte	0x4cd
 1918 0508 04       		.uleb128 0x4
 1919 0509 40030000 		.4byte	.LASF71
 1920 050d 0B       		.byte	0xb
 1921 050e 2C       		.byte	0x2c
 1922 050f 03       		.byte	0x3
 1923 0510 CD040000 		.4byte	0x4cd
 1924 0514 09       		.uleb128 0x9
 1925 0515 28       		.byte	0x28
 1926 0516 0C       		.byte	0xc
 1927 0517 2C       		.byte	0x2c
 1928 0518 09       		.byte	0x9
 1929 0519 6C050000 		.4byte	0x56c
 1930 051d 07       		.uleb128 0x7
 1931 051e E0030000 		.4byte	.LASF75
 1932 0522 0C       		.byte	0xc
 1933 0523 2D       		.byte	0x2d
ARM GAS  /var/folders/l5/0x54b2c10074c8bt31ycjvl80000gp/T//ccUNC6Ac.s 			page 35


 1934 0524 1A       		.byte	0x1a
 1935 0525 6C050000 		.4byte	0x56c
 1936 0529 00       		.byte	0
 1937 052a 07       		.uleb128 0x7
 1938 052b 52040000 		.4byte	.LASF76
 1939 052f 0C       		.byte	0xc
 1940 0530 2F       		.byte	0x2f
 1941 0531 1A       		.byte	0x1a
 1942 0532 6C050000 		.4byte	0x56c
 1943 0536 04       		.byte	0x4
 1944 0537 07       		.uleb128 0x7
 1945 0538 9D000000 		.4byte	.LASF77
 1946 053c 0C       		.byte	0xc
 1947 053d 31       		.byte	0x31
 1948 053e 1A       		.byte	0x1a
 1949 053f 6C050000 		.4byte	0x56c
 1950 0543 08       		.byte	0x8
 1951 0544 07       		.uleb128 0x7
 1952 0545 1A000000 		.4byte	.LASF78
 1953 0549 0C       		.byte	0xc
 1954 054a 32       		.byte	0x32
 1955 054b 1A       		.byte	0x1a
 1956 054c 6C050000 		.4byte	0x56c
 1957 0550 0C       		.byte	0xc
 1958 0551 07       		.uleb128 0x7
 1959 0552 92050000 		.4byte	.LASF79
 1960 0556 0C       		.byte	0xc
 1961 0557 33       		.byte	0x33
 1962 0558 19       		.byte	0x19
 1963 0559 C1040000 		.4byte	0x4c1
 1964 055d 10       		.byte	0x10
 1965 055e 07       		.uleb128 0x7
 1966 055f E8010000 		.4byte	.LASF80
 1967 0563 0C       		.byte	0xc
 1968 0564 35       		.byte	0x35
 1969 0565 19       		.byte	0x19
 1970 0566 C1040000 		.4byte	0x4c1
 1971 056a 1C       		.byte	0x1c
 1972 056b 00       		.byte	0
 1973 056c 0A       		.uleb128 0xa
 1974 056d 04       		.byte	0x4
 1975 056e 07010000 		.4byte	0x107
 1976 0572 04       		.uleb128 0x4
 1977 0573 3E000000 		.4byte	.LASF81
 1978 0577 0C       		.byte	0xc
 1979 0578 37       		.byte	0x37
 1980 0579 03       		.byte	0x3
 1981 057a 14050000 		.4byte	0x514
 1982 057e 10       		.uleb128 0x10
 1983 057f 04       		.byte	0x4
 1984 0580 06       		.byte	0x6
 1985 0581 8F       		.byte	0x8f
 1986 0582 03       		.byte	0x3
 1987 0583 B8050000 		.4byte	0x5b8
 1988 0587 11       		.uleb128 0x11
 1989 0588 13000000 		.4byte	.LASF82
 1990 058c 06       		.byte	0x6
ARM GAS  /var/folders/l5/0x54b2c10074c8bt31ycjvl80000gp/T//ccUNC6Ac.s 			page 36


 1991 058d 96       		.byte	0x96
 1992 058e 19       		.byte	0x19
 1993 058f 07010000 		.4byte	0x107
 1994 0593 11       		.uleb128 0x11
 1995 0594 86000000 		.4byte	.LASF83
 1996 0598 06       		.byte	0x6
 1997 0599 9D       		.byte	0x9d
 1998 059a 19       		.byte	0x19
 1999 059b 07010000 		.4byte	0x107
 2000 059f 11       		.uleb128 0x11
 2001 05a0 C7050000 		.4byte	.LASF84
 2002 05a4 06       		.byte	0x6
 2003 05a5 A4       		.byte	0xa4
 2004 05a6 1A       		.byte	0x1a
 2005 05a7 B1020000 		.4byte	0x2b1
 2006 05ab 11       		.uleb128 0x11
 2007 05ac 96040000 		.4byte	.LASF85
 2008 05b0 06       		.byte	0x6
 2009 05b1 AB       		.byte	0xab
 2010 05b2 19       		.byte	0x19
 2011 05b3 13010000 		.4byte	0x113
 2012 05b7 00       		.byte	0
 2013 05b8 0A       		.uleb128 0xa
 2014 05b9 04       		.byte	0x4
 2015 05ba C5050000 		.4byte	0x5c5
 2016 05be 03       		.uleb128 0x3
 2017 05bf 01       		.byte	0x1
 2018 05c0 08       		.byte	0x8
 2019 05c1 0D050000 		.4byte	.LASF86
 2020 05c5 0C       		.uleb128 0xc
 2021 05c6 BE050000 		.4byte	0x5be
 2022 05ca 0A       		.uleb128 0xa
 2023 05cb 04       		.byte	0x4
 2024 05cc 08050000 		.4byte	0x508
 2025 05d0 09       		.uleb128 0x9
 2026 05d1 16       		.byte	0x16
 2027 05d2 0D       		.byte	0xd
 2028 05d3 25       		.byte	0x25
 2029 05d4 09       		.byte	0x9
 2030 05d5 C4060000 		.4byte	0x6c4
 2031 05d9 07       		.uleb128 0x7
 2032 05da 19010000 		.4byte	.LASF87
 2033 05de 0D       		.byte	0xd
 2034 05df 26       		.byte	0x26
 2035 05e0 0D       		.byte	0xd
 2036 05e1 C4060000 		.4byte	0x6c4
 2037 05e5 00       		.byte	0
 2038 05e6 07       		.uleb128 0x7
 2039 05e7 5B030000 		.4byte	.LASF88
 2040 05eb 0D       		.byte	0xd
 2041 05ec 27       		.byte	0x27
 2042 05ed 0D       		.byte	0xd
 2043 05ee 9B000000 		.4byte	0x9b
 2044 05f2 04       		.byte	0x4
 2045 05f3 07       		.uleb128 0x7
 2046 05f4 BC030000 		.4byte	.LASF89
 2047 05f8 0D       		.byte	0xd
ARM GAS  /var/folders/l5/0x54b2c10074c8bt31ycjvl80000gp/T//ccUNC6Ac.s 			page 37


 2048 05f9 28       		.byte	0x28
 2049 05fa 0D       		.byte	0xd
 2050 05fb 9B000000 		.4byte	0x9b
 2051 05ff 05       		.byte	0x5
 2052 0600 07       		.uleb128 0x7
 2053 0601 ED050000 		.4byte	.LASF90
 2054 0605 0D       		.byte	0xd
 2055 0606 29       		.byte	0x29
 2056 0607 0D       		.byte	0xd
 2057 0608 A7000000 		.4byte	0xa7
 2058 060c 06       		.byte	0x6
 2059 060d 07       		.uleb128 0x7
 2060 060e 12040000 		.4byte	.LASF91
 2061 0612 0D       		.byte	0xd
 2062 0613 2A       		.byte	0x2a
 2063 0614 0D       		.byte	0xd
 2064 0615 9B000000 		.4byte	0x9b
 2065 0619 08       		.byte	0x8
 2066 061a 07       		.uleb128 0x7
 2067 061b 7F030000 		.4byte	.LASF92
 2068 061f 0D       		.byte	0xd
 2069 0620 2B       		.byte	0x2b
 2070 0621 0D       		.byte	0xd
 2071 0622 9B000000 		.4byte	0x9b
 2072 0626 09       		.byte	0x9
 2073 0627 07       		.uleb128 0x7
 2074 0628 78000000 		.4byte	.LASF93
 2075 062c 0D       		.byte	0xd
 2076 062d 2C       		.byte	0x2c
 2077 062e 0D       		.byte	0xd
 2078 062f 9B000000 		.4byte	0x9b
 2079 0633 0A       		.byte	0xa
 2080 0634 07       		.uleb128 0x7
 2081 0635 EC040000 		.4byte	.LASF94
 2082 0639 0D       		.byte	0xd
 2083 063a 2D       		.byte	0x2d
 2084 063b 0D       		.byte	0xd
 2085 063c 9B000000 		.4byte	0x9b
 2086 0640 0B       		.byte	0xb
 2087 0641 07       		.uleb128 0x7
 2088 0642 9D050000 		.4byte	.LASF95
 2089 0646 0D       		.byte	0xd
 2090 0647 2E       		.byte	0x2e
 2091 0648 0D       		.byte	0xd
 2092 0649 9B000000 		.4byte	0x9b
 2093 064d 0C       		.byte	0xc
 2094 064e 07       		.uleb128 0x7
 2095 064f C2040000 		.4byte	.LASF96
 2096 0653 0D       		.byte	0xd
 2097 0654 2F       		.byte	0x2f
 2098 0655 0D       		.byte	0xd
 2099 0656 9B000000 		.4byte	0x9b
 2100 065a 0D       		.byte	0xd
 2101 065b 07       		.uleb128 0x7
 2102 065c 00000000 		.4byte	.LASF97
 2103 0660 0D       		.byte	0xd
 2104 0661 30       		.byte	0x30
ARM GAS  /var/folders/l5/0x54b2c10074c8bt31ycjvl80000gp/T//ccUNC6Ac.s 			page 38


 2105 0662 0D       		.byte	0xd
 2106 0663 9B000000 		.4byte	0x9b
 2107 0667 0E       		.byte	0xe
 2108 0668 07       		.uleb128 0x7
 2109 0669 95030000 		.4byte	.LASF98
 2110 066d 0D       		.byte	0xd
 2111 066e 31       		.byte	0x31
 2112 066f 0D       		.byte	0xd
 2113 0670 9B000000 		.4byte	0x9b
 2114 0674 0F       		.byte	0xf
 2115 0675 07       		.uleb128 0x7
 2116 0676 DD000000 		.4byte	.LASF99
 2117 067a 0D       		.byte	0xd
 2118 067b 32       		.byte	0x32
 2119 067c 0D       		.byte	0xd
 2120 067d 9B000000 		.4byte	0x9b
 2121 0681 10       		.byte	0x10
 2122 0682 07       		.uleb128 0x7
 2123 0683 AD000000 		.4byte	.LASF100
 2124 0687 0D       		.byte	0xd
 2125 0688 34       		.byte	0x34
 2126 0689 0D       		.byte	0xd
 2127 068a 9B000000 		.4byte	0x9b
 2128 068e 11       		.byte	0x11
 2129 068f 07       		.uleb128 0x7
 2130 0690 ED000000 		.4byte	.LASF101
 2131 0694 0D       		.byte	0xd
 2132 0695 35       		.byte	0x35
 2133 0696 0D       		.byte	0xd
 2134 0697 9B000000 		.4byte	0x9b
 2135 069b 12       		.byte	0x12
 2136 069c 07       		.uleb128 0x7
 2137 069d 63030000 		.4byte	.LASF102
 2138 06a1 0D       		.byte	0xd
 2139 06a2 36       		.byte	0x36
 2140 06a3 0D       		.byte	0xd
 2141 06a4 9B000000 		.4byte	0x9b
 2142 06a8 13       		.byte	0x13
 2143 06a9 07       		.uleb128 0x7
 2144 06aa A4040000 		.4byte	.LASF103
 2145 06ae 0D       		.byte	0xd
 2146 06af 37       		.byte	0x37
 2147 06b0 0D       		.byte	0xd
 2148 06b1 9B000000 		.4byte	0x9b
 2149 06b5 14       		.byte	0x14
 2150 06b6 07       		.uleb128 0x7
 2151 06b7 83040000 		.4byte	.LASF104
 2152 06bb 0D       		.byte	0xd
 2153 06bc 39       		.byte	0x39
 2154 06bd 0D       		.byte	0xd
 2155 06be 9B000000 		.4byte	0x9b
 2156 06c2 15       		.byte	0x15
 2157 06c3 00       		.byte	0
 2158 06c4 12       		.uleb128 0x12
 2159 06c5 BE050000 		.4byte	0x5be
 2160 06c9 D4060000 		.4byte	0x6d4
 2161 06cd 13       		.uleb128 0x13
ARM GAS  /var/folders/l5/0x54b2c10074c8bt31ycjvl80000gp/T//ccUNC6Ac.s 			page 39


 2162 06ce 2C000000 		.4byte	0x2c
 2163 06d2 03       		.byte	0x3
 2164 06d3 00       		.byte	0
 2165 06d4 04       		.uleb128 0x4
 2166 06d5 4B010000 		.4byte	.LASF105
 2167 06d9 0D       		.byte	0xd
 2168 06da 3A       		.byte	0x3a
 2169 06db 03       		.byte	0x3
 2170 06dc D0050000 		.4byte	0x5d0
 2171 06e0 0C       		.uleb128 0xc
 2172 06e1 D4060000 		.4byte	0x6d4
 2173 06e5 0F       		.uleb128 0xf
 2174 06e6 CF010000 		.4byte	.LASF106
 2175 06ea 0D       		.byte	0xd
 2176 06eb 77       		.byte	0x77
 2177 06ec 1D       		.byte	0x1d
 2178 06ed E0060000 		.4byte	0x6e0
 2179 06f1 12       		.uleb128 0x12
 2180 06f2 99020000 		.4byte	0x299
 2181 06f6 01070000 		.4byte	0x701
 2182 06fa 13       		.uleb128 0x13
 2183 06fb 2C000000 		.4byte	0x2c
 2184 06ff 26       		.byte	0x26
 2185 0700 00       		.byte	0
 2186 0701 0F       		.uleb128 0xf
 2187 0702 64010000 		.4byte	.LASF107
 2188 0706 0E       		.byte	0xe
 2189 0707 82       		.byte	0x82
 2190 0708 08       		.byte	0x8
 2191 0709 F1060000 		.4byte	0x6f1
 2192 070d 06       		.uleb128 0x6
 2193 070e CF040000 		.4byte	.LASF108
 2194 0712 10       		.byte	0x10
 2195 0713 0F       		.byte	0xf
 2196 0714 3F       		.byte	0x3f
 2197 0715 08       		.byte	0x8
 2198 0716 4F070000 		.4byte	0x74f
 2199 071a 07       		.uleb128 0x7
 2200 071b 03020000 		.4byte	.LASF109
 2201 071f 0F       		.byte	0xf
 2202 0720 40       		.byte	0x40
 2203 0721 0F       		.byte	0xf
 2204 0722 B8050000 		.4byte	0x5b8
 2205 0726 00       		.byte	0
 2206 0727 07       		.uleb128 0x7
 2207 0728 C4030000 		.4byte	.LASF110
 2208 072c 0F       		.byte	0xf
 2209 072d 41       		.byte	0x41
 2210 072e 0A       		.byte	0xa
 2211 072f 55070000 		.4byte	0x755
 2212 0733 04       		.byte	0x4
 2213 0734 07       		.uleb128 0x7
 2214 0735 BA000000 		.4byte	.LASF111
 2215 0739 0F       		.byte	0xf
 2216 073a 42       		.byte	0x42
 2217 073b 0A       		.byte	0xa
 2218 073c 55070000 		.4byte	0x755
ARM GAS  /var/folders/l5/0x54b2c10074c8bt31ycjvl80000gp/T//ccUNC6Ac.s 			page 40


 2219 0740 08       		.byte	0x8
 2220 0741 07       		.uleb128 0x7
 2221 0742 24040000 		.4byte	.LASF112
 2222 0746 0F       		.byte	0xf
 2223 0747 43       		.byte	0x43
 2224 0748 0A       		.byte	0xa
 2225 0749 55070000 		.4byte	0x755
 2226 074d 0C       		.byte	0xc
 2227 074e 00       		.byte	0
 2228 074f 0C       		.uleb128 0xc
 2229 0750 0D070000 		.4byte	0x70d
 2230 0754 14       		.uleb128 0x14
 2231 0755 0A       		.uleb128 0xa
 2232 0756 04       		.byte	0x4
 2233 0757 54070000 		.4byte	0x754
 2234 075b 15       		.uleb128 0x15
 2235 075c 7805     		.2byte	0x578
 2236 075e 0F       		.byte	0xf
 2237 075f 48       		.byte	0x48
 2238 0760 03       		.byte	0x3
 2239 0761 A6070000 		.4byte	0x7a6
 2240 0765 08       		.uleb128 0x8
 2241 0766 543000   		.ascii	"T0\000"
 2242 0769 0F       		.byte	0xf
 2243 076a 49       		.byte	0x49
 2244 076b 05       		.byte	0x5
 2245 076c A6070000 		.4byte	0x7a6
 2246 0770 00       		.byte	0
 2247 0771 16       		.uleb128 0x16
 2248 0772 543100   		.ascii	"T1\000"
 2249 0775 0F       		.byte	0xf
 2250 0776 4A       		.byte	0x4a
 2251 0777 05       		.byte	0x5
 2252 0778 A6070000 		.4byte	0x7a6
 2253 077c 1801     		.2byte	0x118
 2254 077e 16       		.uleb128 0x16
 2255 077f 543200   		.ascii	"T2\000"
 2256 0782 0F       		.byte	0xf
 2257 0783 4B       		.byte	0x4b
 2258 0784 05       		.byte	0x5
 2259 0785 A6070000 		.4byte	0x7a6
 2260 0789 3002     		.2byte	0x230
 2261 078b 16       		.uleb128 0x16
 2262 078c 543300   		.ascii	"T3\000"
 2263 078f 0F       		.byte	0xf
 2264 0790 4C       		.byte	0x4c
 2265 0791 05       		.byte	0x5
 2266 0792 A6070000 		.4byte	0x7a6
 2267 0796 4803     		.2byte	0x348
 2268 0798 16       		.uleb128 0x16
 2269 0799 543400   		.ascii	"T4\000"
 2270 079c 0F       		.byte	0xf
 2271 079d 4D       		.byte	0x4d
 2272 079e 05       		.byte	0x5
 2273 079f A6070000 		.4byte	0x7a6
 2274 07a3 6004     		.2byte	0x460
 2275 07a5 00       		.byte	0
ARM GAS  /var/folders/l5/0x54b2c10074c8bt31ycjvl80000gp/T//ccUNC6Ac.s 			page 41


 2276 07a6 12       		.uleb128 0x12
 2277 07a7 99020000 		.4byte	0x299
 2278 07ab B6070000 		.4byte	0x7b6
 2279 07af 13       		.uleb128 0x13
 2280 07b0 2C000000 		.4byte	0x2c
 2281 07b4 45       		.byte	0x45
 2282 07b5 00       		.byte	0
 2283 07b6 17       		.uleb128 0x17
 2284 07b7 12050000 		.4byte	.LASF137
 2285 07bb 7805     		.2byte	0x578
 2286 07bd 0F       		.byte	0xf
 2287 07be 47       		.byte	0x47
 2288 07bf 07       		.byte	0x7
 2289 07c0 DC070000 		.4byte	0x7dc
 2290 07c4 18       		.uleb128 0x18
 2291 07c5 776100   		.ascii	"wa\000"
 2292 07c8 0F       		.byte	0xf
 2293 07c9 4E       		.byte	0x4e
 2294 07ca 05       		.byte	0x5
 2295 07cb 5B070000 		.4byte	0x75b
 2296 07cf 11       		.uleb128 0x11
 2297 07d0 55010000 		.4byte	.LASF113
 2298 07d4 0F       		.byte	0xf
 2299 07d5 4F       		.byte	0x4f
 2300 07d6 0B       		.byte	0xb
 2301 07d7 DC070000 		.4byte	0x7dc
 2302 07db 00       		.byte	0
 2303 07dc 12       		.uleb128 0x12
 2304 07dd 9B000000 		.4byte	0x9b
 2305 07e1 ED070000 		.4byte	0x7ed
 2306 07e5 19       		.uleb128 0x19
 2307 07e6 2C000000 		.4byte	0x2c
 2308 07ea 7705     		.2byte	0x577
 2309 07ec 00       		.byte	0
 2310 07ed 12       		.uleb128 0x12
 2311 07ee 64020000 		.4byte	0x264
 2312 07f2 FD070000 		.4byte	0x7fd
 2313 07f6 13       		.uleb128 0x13
 2314 07f7 2C000000 		.4byte	0x2c
 2315 07fb 04       		.byte	0x4
 2316 07fc 00       		.byte	0
 2317 07fd 0F       		.uleb128 0xf
 2318 07fe 0C030000 		.4byte	.LASF114
 2319 0802 0F       		.byte	0xf
 2320 0803 A9       		.byte	0xa9
 2321 0804 10       		.byte	0x10
 2322 0805 ED070000 		.4byte	0x7ed
 2323 0809 0F       		.uleb128 0xf
 2324 080a 98000000 		.4byte	.LASF115
 2325 080e 0F       		.byte	0xf
 2326 080f AA       		.byte	0xaa
 2327 0810 1B       		.byte	0x1b
 2328 0811 B6070000 		.4byte	0x7b6
 2329 0815 12       		.uleb128 0x12
 2330 0816 B3020000 		.4byte	0x2b3
 2331 081a 20080000 		.4byte	0x820
 2332 081e 1A       		.uleb128 0x1a
ARM GAS  /var/folders/l5/0x54b2c10074c8bt31ycjvl80000gp/T//ccUNC6Ac.s 			page 42


 2333 081f 00       		.byte	0
 2334 0820 0C       		.uleb128 0xc
 2335 0821 15080000 		.4byte	0x815
 2336 0825 1B       		.uleb128 0x1b
 2337 0826 776100   		.ascii	"wa\000"
 2338 0829 0F       		.byte	0xf
 2339 082a AB       		.byte	0xab
 2340 082b 18       		.byte	0x18
 2341 082c 20080000 		.4byte	0x820
 2342 0830 0F       		.uleb128 0xf
 2343 0831 D8010000 		.4byte	.LASF116
 2344 0835 0F       		.byte	0xf
 2345 0836 AC       		.byte	0xac
 2346 0837 0F       		.byte	0xf
 2347 0838 CB000000 		.4byte	0xcb
 2348 083c 1C       		.uleb128 0x1c
 2349 083d 6D623100 		.ascii	"mb1\000"
 2350 0841 01       		.byte	0x1
 2351 0842 40       		.byte	0x40
 2352 0843 08       		.byte	0x8
 2353 0844 72050000 		.4byte	0x572
 2354 0848 05       		.uleb128 0x5
 2355 0849 03       		.byte	0x3
 2356 084a 00000000 		.4byte	mb1
 2357 084e 1D       		.uleb128 0x1d
 2358 084f 46030000 		.4byte	.LASF117
 2359 0853 01       		.byte	0x1
 2360 0854 E2       		.byte	0xe2
 2361 0855 1A       		.byte	0x1a
 2362 0856 4F070000 		.4byte	0x74f
 2363 085a 05       		.uleb128 0x5
 2364 085b 03       		.byte	0x3
 2365 085c 00000000 		.4byte	testmbox1
 2366 0860 12       		.uleb128 0x12
 2367 0861 7B080000 		.4byte	0x87b
 2368 0865 70080000 		.4byte	0x870
 2369 0869 13       		.uleb128 0x13
 2370 086a 2C000000 		.4byte	0x2c
 2371 086e 01       		.byte	0x1
 2372 086f 00       		.byte	0
 2373 0870 0C       		.uleb128 0xc
 2374 0871 60080000 		.4byte	0x860
 2375 0875 0A       		.uleb128 0xa
 2376 0876 04       		.byte	0x4
 2377 0877 4F070000 		.4byte	0x74f
 2378 087b 0C       		.uleb128 0xc
 2379 087c 75080000 		.4byte	0x875
 2380 0880 1D       		.uleb128 0x1d
 2381 0881 6C000000 		.4byte	.LASF118
 2382 0885 01       		.byte	0x1
 2383 0886 EE       		.byte	0xee
 2384 0887 25       		.byte	0x25
 2385 0888 70080000 		.4byte	0x870
 2386 088c 05       		.uleb128 0x5
 2387 088d 03       		.byte	0x3
 2388 088e 00000000 		.4byte	patternmbox
 2389 0892 1E       		.uleb128 0x1e
ARM GAS  /var/folders/l5/0x54b2c10074c8bt31ycjvl80000gp/T//ccUNC6Ac.s 			page 43


 2390 0893 EA030000 		.4byte	.LASF121
 2391 0897 01       		.byte	0x1
 2392 0898 50       		.byte	0x50
 2393 0899 0D       		.byte	0xd
 2394 089a 00000000 		.4byte	.LFB8
 2395 089e 94070000 		.4byte	.LFE8-.LFB8
 2396 08a2 01       		.uleb128 0x1
 2397 08a3 9C       		.byte	0x9c
 2398 08a4 340F0000 		.4byte	0xf34
 2399 08a8 1F       		.uleb128 0x1f
 2400 08a9 B3010000 		.4byte	.LASF119
 2401 08ad 01       		.byte	0x1
 2402 08ae 51       		.byte	0x51
 2403 08af 09       		.byte	0x9
 2404 08b0 07010000 		.4byte	0x107
 2405 08b4 2E000000 		.4byte	.LLST0
 2406 08b8 00000000 		.4byte	.LVUS0
 2407 08bc 20       		.uleb128 0x20
 2408 08bd B8010000 		.4byte	.LASF120
 2409 08c1 01       		.byte	0x1
 2410 08c2 51       		.byte	0x51
 2411 08c3 0F       		.byte	0xf
 2412 08c4 07010000 		.4byte	0x107
 2413 08c8 02       		.uleb128 0x2
 2414 08c9 91       		.byte	0x91
 2415 08ca 6C       		.sleb128 -20
 2416 08cb 21       		.uleb128 0x21
 2417 08cc 6900     		.ascii	"i\000"
 2418 08ce 01       		.byte	0x1
 2419 08cf 52       		.byte	0x52
 2420 08d0 0C       		.byte	0xc
 2421 08d1 2C000000 		.4byte	0x2c
 2422 08d5 4F010000 		.4byte	.LLST1
 2423 08d9 33010000 		.4byte	.LVUS1
 2424 08dd 22       		.uleb128 0x22
 2425 08de 24000000 		.4byte	.LVL0
 2426 08e2 630F0000 		.4byte	0xf63
 2427 08e6 F0080000 		.4byte	0x8f0
 2428 08ea 23       		.uleb128 0x23
 2429 08eb 01       		.uleb128 0x1
 2430 08ec 50       		.byte	0x50
 2431 08ed 01       		.uleb128 0x1
 2432 08ee 31       		.byte	0x31
 2433 08ef 00       		.byte	0
 2434 08f0 22       		.uleb128 0x22
 2435 08f1 44000000 		.4byte	.LVL2
 2436 08f5 6F0F0000 		.4byte	0xf6f
 2437 08f9 10090000 		.4byte	0x910
 2438 08fd 23       		.uleb128 0x23
 2439 08fe 01       		.uleb128 0x1
 2440 08ff 50       		.byte	0x50
 2441 0900 02       		.uleb128 0x2
 2442 0901 75       		.byte	0x75
 2443 0902 00       		.sleb128 0
 2444 0903 23       		.uleb128 0x23
 2445 0904 01       		.uleb128 0x1
 2446 0905 51       		.byte	0x51
ARM GAS  /var/folders/l5/0x54b2c10074c8bt31ycjvl80000gp/T//ccUNC6Ac.s 			page 44


 2447 0906 02       		.uleb128 0x2
 2448 0907 74       		.byte	0x74
 2449 0908 00       		.sleb128 0
 2450 0909 23       		.uleb128 0x23
 2451 090a 01       		.uleb128 0x1
 2452 090b 52       		.byte	0x52
 2453 090c 02       		.uleb128 0x2
 2454 090d 09       		.byte	0x9
 2455 090e FF       		.byte	0xff
 2456 090f 00       		.byte	0
 2457 0910 22       		.uleb128 0x22
 2458 0911 54000000 		.4byte	.LVL4
 2459 0915 630F0000 		.4byte	0xf63
 2460 0919 23090000 		.4byte	0x923
 2461 091d 23       		.uleb128 0x23
 2462 091e 01       		.uleb128 0x1
 2463 091f 50       		.byte	0x50
 2464 0920 01       		.uleb128 0x1
 2465 0921 32       		.byte	0x32
 2466 0922 00       		.byte	0
 2467 0923 22       		.uleb128 0x22
 2468 0924 78000000 		.4byte	.LVL6
 2469 0928 7B0F0000 		.4byte	0xf7b
 2470 092c 43090000 		.4byte	0x943
 2471 0930 23       		.uleb128 0x23
 2472 0931 01       		.uleb128 0x1
 2473 0932 50       		.byte	0x50
 2474 0933 02       		.uleb128 0x2
 2475 0934 75       		.byte	0x75
 2476 0935 00       		.sleb128 0
 2477 0936 23       		.uleb128 0x23
 2478 0937 01       		.uleb128 0x1
 2479 0938 51       		.byte	0x51
 2480 0939 02       		.uleb128 0x2
 2481 093a 08       		.byte	0x8
 2482 093b 41       		.byte	0x41
 2483 093c 23       		.uleb128 0x23
 2484 093d 01       		.uleb128 0x1
 2485 093e 52       		.byte	0x52
 2486 093f 02       		.uleb128 0x2
 2487 0940 09       		.byte	0x9
 2488 0941 FF       		.byte	0xff
 2489 0942 00       		.byte	0
 2490 0943 22       		.uleb128 0x22
 2491 0944 88000000 		.4byte	.LVL8
 2492 0948 630F0000 		.4byte	0xf63
 2493 094c 56090000 		.4byte	0x956
 2494 0950 23       		.uleb128 0x23
 2495 0951 01       		.uleb128 0x1
 2496 0952 50       		.byte	0x50
 2497 0953 01       		.uleb128 0x1
 2498 0954 33       		.byte	0x33
 2499 0955 00       		.byte	0
 2500 0956 22       		.uleb128 0x22
 2501 0957 A8000000 		.4byte	.LVL11
 2502 095b 6F0F0000 		.4byte	0xf6f
 2503 095f 75090000 		.4byte	0x975
ARM GAS  /var/folders/l5/0x54b2c10074c8bt31ycjvl80000gp/T//ccUNC6Ac.s 			page 45


 2504 0963 23       		.uleb128 0x23
 2505 0964 01       		.uleb128 0x1
 2506 0965 50       		.byte	0x50
 2507 0966 02       		.uleb128 0x2
 2508 0967 75       		.byte	0x75
 2509 0968 00       		.sleb128 0
 2510 0969 23       		.uleb128 0x23
 2511 096a 01       		.uleb128 0x1
 2512 096b 51       		.byte	0x51
 2513 096c 02       		.uleb128 0x2
 2514 096d 08       		.byte	0x8
 2515 096e 58       		.byte	0x58
 2516 096f 23       		.uleb128 0x23
 2517 0970 01       		.uleb128 0x1
 2518 0971 52       		.byte	0x52
 2519 0972 01       		.uleb128 0x1
 2520 0973 31       		.byte	0x31
 2521 0974 00       		.byte	0
 2522 0975 22       		.uleb128 0x22
 2523 0976 BC000000 		.4byte	.LVL13
 2524 097a 630F0000 		.4byte	0xf63
 2525 097e 88090000 		.4byte	0x988
 2526 0982 23       		.uleb128 0x23
 2527 0983 01       		.uleb128 0x1
 2528 0984 50       		.byte	0x50
 2529 0985 01       		.uleb128 0x1
 2530 0986 34       		.byte	0x34
 2531 0987 00       		.byte	0
 2532 0988 22       		.uleb128 0x22
 2533 0989 D4000000 		.4byte	.LVL14
 2534 098d 870F0000 		.4byte	0xf87
 2535 0991 A2090000 		.4byte	0x9a2
 2536 0995 23       		.uleb128 0x23
 2537 0996 01       		.uleb128 0x1
 2538 0997 50       		.byte	0x50
 2539 0998 02       		.uleb128 0x2
 2540 0999 75       		.byte	0x75
 2541 099a 00       		.sleb128 0
 2542 099b 23       		.uleb128 0x23
 2543 099c 01       		.uleb128 0x1
 2544 099d 51       		.byte	0x51
 2545 099e 02       		.uleb128 0x2
 2546 099f 08       		.byte	0x8
 2547 09a0 58       		.byte	0x58
 2548 09a1 00       		.byte	0
 2549 09a2 22       		.uleb128 0x22
 2550 09a3 F0000000 		.4byte	.LVL17
 2551 09a7 630F0000 		.4byte	0xf63
 2552 09ab B5090000 		.4byte	0x9b5
 2553 09af 23       		.uleb128 0x23
 2554 09b0 01       		.uleb128 0x1
 2555 09b1 50       		.byte	0x50
 2556 09b2 01       		.uleb128 0x1
 2557 09b3 35       		.byte	0x35
 2558 09b4 00       		.byte	0
 2559 09b5 22       		.uleb128 0x22
 2560 09b6 08010000 		.4byte	.LVL18
ARM GAS  /var/folders/l5/0x54b2c10074c8bt31ycjvl80000gp/T//ccUNC6Ac.s 			page 46


 2561 09ba 7B0F0000 		.4byte	0xf7b
 2562 09be D4090000 		.4byte	0x9d4
 2563 09c2 23       		.uleb128 0x23
 2564 09c3 01       		.uleb128 0x1
 2565 09c4 50       		.byte	0x50
 2566 09c5 02       		.uleb128 0x2
 2567 09c6 75       		.byte	0x75
 2568 09c7 00       		.sleb128 0
 2569 09c8 23       		.uleb128 0x23
 2570 09c9 01       		.uleb128 0x1
 2571 09ca 51       		.byte	0x51
 2572 09cb 02       		.uleb128 0x2
 2573 09cc 08       		.byte	0x8
 2574 09cd 58       		.byte	0x58
 2575 09ce 23       		.uleb128 0x23
 2576 09cf 01       		.uleb128 0x1
 2577 09d0 52       		.byte	0x52
 2578 09d1 01       		.uleb128 0x1
 2579 09d2 31       		.byte	0x31
 2580 09d3 00       		.byte	0
 2581 09d4 22       		.uleb128 0x22
 2582 09d5 1C010000 		.4byte	.LVL20
 2583 09d9 630F0000 		.4byte	0xf63
 2584 09dd E7090000 		.4byte	0x9e7
 2585 09e1 23       		.uleb128 0x23
 2586 09e2 01       		.uleb128 0x1
 2587 09e3 50       		.byte	0x50
 2588 09e4 01       		.uleb128 0x1
 2589 09e5 36       		.byte	0x36
 2590 09e6 00       		.byte	0
 2591 09e7 22       		.uleb128 0x22
 2592 09e8 34010000 		.4byte	.LVL21
 2593 09ec 930F0000 		.4byte	0xf93
 2594 09f0 010A0000 		.4byte	0xa01
 2595 09f4 23       		.uleb128 0x23
 2596 09f5 01       		.uleb128 0x1
 2597 09f6 50       		.byte	0x50
 2598 09f7 02       		.uleb128 0x2
 2599 09f8 75       		.byte	0x75
 2600 09f9 00       		.sleb128 0
 2601 09fa 23       		.uleb128 0x23
 2602 09fb 01       		.uleb128 0x1
 2603 09fc 51       		.byte	0x51
 2604 09fd 02       		.uleb128 0x2
 2605 09fe 08       		.byte	0x8
 2606 09ff 58       		.byte	0x58
 2607 0a00 00       		.byte	0
 2608 0a01 22       		.uleb128 0x22
 2609 0a02 50010000 		.4byte	.LVL24
 2610 0a06 630F0000 		.4byte	0xf63
 2611 0a0a 140A0000 		.4byte	0xa14
 2612 0a0e 23       		.uleb128 0x23
 2613 0a0f 01       		.uleb128 0x1
 2614 0a10 50       		.byte	0x50
 2615 0a11 01       		.uleb128 0x1
 2616 0a12 37       		.byte	0x37
 2617 0a13 00       		.byte	0
ARM GAS  /var/folders/l5/0x54b2c10074c8bt31ycjvl80000gp/T//ccUNC6Ac.s 			page 47


 2618 0a14 22       		.uleb128 0x22
 2619 0a15 70010000 		.4byte	.LVL25
 2620 0a19 630F0000 		.4byte	0xf63
 2621 0a1d 270A0000 		.4byte	0xa27
 2622 0a21 23       		.uleb128 0x23
 2623 0a22 01       		.uleb128 0x1
 2624 0a23 50       		.byte	0x50
 2625 0a24 01       		.uleb128 0x1
 2626 0a25 38       		.byte	0x38
 2627 0a26 00       		.byte	0
 2628 0a27 22       		.uleb128 0x22
 2629 0a28 98010000 		.4byte	.LVL26
 2630 0a2c 630F0000 		.4byte	0xf63
 2631 0a30 3A0A0000 		.4byte	0xa3a
 2632 0a34 23       		.uleb128 0x23
 2633 0a35 01       		.uleb128 0x1
 2634 0a36 50       		.byte	0x50
 2635 0a37 01       		.uleb128 0x1
 2636 0a38 39       		.byte	0x39
 2637 0a39 00       		.byte	0
 2638 0a3a 22       		.uleb128 0x22
 2639 0a3b C4010000 		.4byte	.LVL27
 2640 0a3f 630F0000 		.4byte	0xf63
 2641 0a43 4D0A0000 		.4byte	0xa4d
 2642 0a47 23       		.uleb128 0x23
 2643 0a48 01       		.uleb128 0x1
 2644 0a49 50       		.byte	0x50
 2645 0a4a 01       		.uleb128 0x1
 2646 0a4b 3A       		.byte	0x3a
 2647 0a4c 00       		.byte	0
 2648 0a4d 22       		.uleb128 0x22
 2649 0a4e E8010000 		.4byte	.LVL30
 2650 0a52 9F0F0000 		.4byte	0xf9f
 2651 0a56 6D0A0000 		.4byte	0xa6d
 2652 0a5a 23       		.uleb128 0x23
 2653 0a5b 01       		.uleb128 0x1
 2654 0a5c 50       		.byte	0x50
 2655 0a5d 02       		.uleb128 0x2
 2656 0a5e 75       		.byte	0x75
 2657 0a5f 00       		.sleb128 0
 2658 0a60 23       		.uleb128 0x23
 2659 0a61 01       		.uleb128 0x1
 2660 0a62 51       		.byte	0x51
 2661 0a63 02       		.uleb128 0x2
 2662 0a64 91       		.byte	0x91
 2663 0a65 64       		.sleb128 -28
 2664 0a66 23       		.uleb128 0x23
 2665 0a67 01       		.uleb128 0x1
 2666 0a68 52       		.byte	0x52
 2667 0a69 02       		.uleb128 0x2
 2668 0a6a 09       		.byte	0x9
 2669 0a6b FF       		.byte	0xff
 2670 0a6c 00       		.byte	0
 2671 0a6d 22       		.uleb128 0x22
 2672 0a6e F8010000 		.4byte	.LVL32
 2673 0a72 630F0000 		.4byte	0xf63
 2674 0a76 800A0000 		.4byte	0xa80
ARM GAS  /var/folders/l5/0x54b2c10074c8bt31ycjvl80000gp/T//ccUNC6Ac.s 			page 48


 2675 0a7a 23       		.uleb128 0x23
 2676 0a7b 01       		.uleb128 0x1
 2677 0a7c 50       		.byte	0x50
 2678 0a7d 01       		.uleb128 0x1
 2679 0a7e 3B       		.byte	0x3b
 2680 0a7f 00       		.byte	0
 2681 0a80 24       		.uleb128 0x24
 2682 0a81 08020000 		.4byte	.LVL33
 2683 0a85 AB0F0000 		.4byte	0xfab
 2684 0a89 22       		.uleb128 0x22
 2685 0a8a 1C020000 		.4byte	.LVL35
 2686 0a8e B70F0000 		.4byte	0xfb7
 2687 0a92 A50A0000 		.4byte	0xaa5
 2688 0a96 23       		.uleb128 0x23
 2689 0a97 01       		.uleb128 0x1
 2690 0a98 50       		.byte	0x50
 2691 0a99 01       		.uleb128 0x1
 2692 0a9a 3C       		.byte	0x3c
 2693 0a9b 23       		.uleb128 0x23
 2694 0a9c 01       		.uleb128 0x1
 2695 0a9d 51       		.byte	0x51
 2696 0a9e 05       		.uleb128 0x5
 2697 0a9f 03       		.byte	0x3
 2698 0aa0 00000000 		.4byte	.LC0
 2699 0aa4 00       		.byte	0
 2700 0aa5 22       		.uleb128 0x22
 2701 0aa6 34020000 		.4byte	.LVL36
 2702 0aaa 6F0F0000 		.4byte	0xf6f
 2703 0aae C50A0000 		.4byte	0xac5
 2704 0ab2 23       		.uleb128 0x23
 2705 0ab3 01       		.uleb128 0x1
 2706 0ab4 50       		.byte	0x50
 2707 0ab5 02       		.uleb128 0x2
 2708 0ab6 75       		.byte	0x75
 2709 0ab7 00       		.sleb128 0
 2710 0ab8 23       		.uleb128 0x23
 2711 0ab9 01       		.uleb128 0x1
 2712 0aba 51       		.byte	0x51
 2713 0abb 02       		.uleb128 0x2
 2714 0abc 08       		.byte	0x8
 2715 0abd 47       		.byte	0x47
 2716 0abe 23       		.uleb128 0x23
 2717 0abf 01       		.uleb128 0x1
 2718 0ac0 52       		.byte	0x52
 2719 0ac1 02       		.uleb128 0x2
 2720 0ac2 09       		.byte	0x9
 2721 0ac3 FF       		.byte	0xff
 2722 0ac4 00       		.byte	0
 2723 0ac5 22       		.uleb128 0x22
 2724 0ac6 44020000 		.4byte	.LVL38
 2725 0aca 630F0000 		.4byte	0xf63
 2726 0ace D80A0000 		.4byte	0xad8
 2727 0ad2 23       		.uleb128 0x23
 2728 0ad3 01       		.uleb128 0x1
 2729 0ad4 50       		.byte	0x50
 2730 0ad5 01       		.uleb128 0x1
 2731 0ad6 3D       		.byte	0x3d
ARM GAS  /var/folders/l5/0x54b2c10074c8bt31ycjvl80000gp/T//ccUNC6Ac.s 			page 49


 2732 0ad7 00       		.byte	0
 2733 0ad8 22       		.uleb128 0x22
 2734 0ad9 5C020000 		.4byte	.LVL39
 2735 0add 9F0F0000 		.4byte	0xf9f
 2736 0ae1 F80A0000 		.4byte	0xaf8
 2737 0ae5 23       		.uleb128 0x23
 2738 0ae6 01       		.uleb128 0x1
 2739 0ae7 50       		.byte	0x50
 2740 0ae8 02       		.uleb128 0x2
 2741 0ae9 75       		.byte	0x75
 2742 0aea 00       		.sleb128 0
 2743 0aeb 23       		.uleb128 0x23
 2744 0aec 01       		.uleb128 0x1
 2745 0aed 51       		.byte	0x51
 2746 0aee 02       		.uleb128 0x2
 2747 0aef 91       		.byte	0x91
 2748 0af0 64       		.sleb128 -28
 2749 0af1 23       		.uleb128 0x23
 2750 0af2 01       		.uleb128 0x1
 2751 0af3 52       		.byte	0x52
 2752 0af4 02       		.uleb128 0x2
 2753 0af5 09       		.byte	0x9
 2754 0af6 FF       		.byte	0xff
 2755 0af7 00       		.byte	0
 2756 0af8 22       		.uleb128 0x22
 2757 0af9 6C020000 		.4byte	.LVL41
 2758 0afd 630F0000 		.4byte	0xf63
 2759 0b01 0B0B0000 		.4byte	0xb0b
 2760 0b05 23       		.uleb128 0x23
 2761 0b06 01       		.uleb128 0x1
 2762 0b07 50       		.byte	0x50
 2763 0b08 01       		.uleb128 0x1
 2764 0b09 3E       		.byte	0x3e
 2765 0b0a 00       		.byte	0
 2766 0b0b 22       		.uleb128 0x22
 2767 0b0c 90020000 		.4byte	.LVL42
 2768 0b10 630F0000 		.4byte	0xf63
 2769 0b14 1E0B0000 		.4byte	0xb1e
 2770 0b18 23       		.uleb128 0x23
 2771 0b19 01       		.uleb128 0x1
 2772 0b1a 50       		.byte	0x50
 2773 0b1b 01       		.uleb128 0x1
 2774 0b1c 3F       		.byte	0x3f
 2775 0b1d 00       		.byte	0
 2776 0b1e 22       		.uleb128 0x22
 2777 0b1f B4020000 		.4byte	.LVL43
 2778 0b23 630F0000 		.4byte	0xf63
 2779 0b27 310B0000 		.4byte	0xb31
 2780 0b2b 23       		.uleb128 0x23
 2781 0b2c 01       		.uleb128 0x1
 2782 0b2d 50       		.byte	0x50
 2783 0b2e 01       		.uleb128 0x1
 2784 0b2f 40       		.byte	0x40
 2785 0b30 00       		.byte	0
 2786 0b31 22       		.uleb128 0x22
 2787 0b32 CC020000 		.4byte	.LVL44
 2788 0b36 9F0F0000 		.4byte	0xf9f
ARM GAS  /var/folders/l5/0x54b2c10074c8bt31ycjvl80000gp/T//ccUNC6Ac.s 			page 50


 2789 0b3a 500B0000 		.4byte	0xb50
 2790 0b3e 23       		.uleb128 0x23
 2791 0b3f 01       		.uleb128 0x1
 2792 0b40 50       		.byte	0x50
 2793 0b41 02       		.uleb128 0x2
 2794 0b42 75       		.byte	0x75
 2795 0b43 00       		.sleb128 0
 2796 0b44 23       		.uleb128 0x23
 2797 0b45 01       		.uleb128 0x1
 2798 0b46 51       		.byte	0x51
 2799 0b47 02       		.uleb128 0x2
 2800 0b48 91       		.byte	0x91
 2801 0b49 64       		.sleb128 -28
 2802 0b4a 23       		.uleb128 0x23
 2803 0b4b 01       		.uleb128 0x1
 2804 0b4c 52       		.byte	0x52
 2805 0b4d 01       		.uleb128 0x1
 2806 0b4e 31       		.byte	0x31
 2807 0b4f 00       		.byte	0
 2808 0b50 22       		.uleb128 0x22
 2809 0b51 E0020000 		.4byte	.LVL46
 2810 0b55 630F0000 		.4byte	0xf63
 2811 0b59 630B0000 		.4byte	0xb63
 2812 0b5d 23       		.uleb128 0x23
 2813 0b5e 01       		.uleb128 0x1
 2814 0b5f 50       		.byte	0x50
 2815 0b60 01       		.uleb128 0x1
 2816 0b61 41       		.byte	0x41
 2817 0b62 00       		.byte	0
 2818 0b63 22       		.uleb128 0x22
 2819 0b64 F8020000 		.4byte	.LVL47
 2820 0b68 C30F0000 		.4byte	0xfc3
 2821 0b6c 7D0B0000 		.4byte	0xb7d
 2822 0b70 23       		.uleb128 0x23
 2823 0b71 01       		.uleb128 0x1
 2824 0b72 50       		.byte	0x50
 2825 0b73 02       		.uleb128 0x2
 2826 0b74 75       		.byte	0x75
 2827 0b75 00       		.sleb128 0
 2828 0b76 23       		.uleb128 0x23
 2829 0b77 01       		.uleb128 0x1
 2830 0b78 51       		.byte	0x51
 2831 0b79 02       		.uleb128 0x2
 2832 0b7a 91       		.byte	0x91
 2833 0b7b 64       		.sleb128 -28
 2834 0b7c 00       		.byte	0
 2835 0b7d 22       		.uleb128 0x22
 2836 0b7e 14030000 		.4byte	.LVL50
 2837 0b82 630F0000 		.4byte	0xf63
 2838 0b86 900B0000 		.4byte	0xb90
 2839 0b8a 23       		.uleb128 0x23
 2840 0b8b 01       		.uleb128 0x1
 2841 0b8c 50       		.byte	0x50
 2842 0b8d 01       		.uleb128 0x1
 2843 0b8e 42       		.byte	0x42
 2844 0b8f 00       		.byte	0
 2845 0b90 22       		.uleb128 0x22
ARM GAS  /var/folders/l5/0x54b2c10074c8bt31ycjvl80000gp/T//ccUNC6Ac.s 			page 51


 2846 0b91 38030000 		.4byte	.LVL51
 2847 0b95 630F0000 		.4byte	0xf63
 2848 0b99 A30B0000 		.4byte	0xba3
 2849 0b9d 23       		.uleb128 0x23
 2850 0b9e 01       		.uleb128 0x1
 2851 0b9f 50       		.byte	0x50
 2852 0ba0 01       		.uleb128 0x1
 2853 0ba1 43       		.byte	0x43
 2854 0ba2 00       		.byte	0
 2855 0ba3 22       		.uleb128 0x22
 2856 0ba4 5C030000 		.4byte	.LVL52
 2857 0ba8 630F0000 		.4byte	0xf63
 2858 0bac B60B0000 		.4byte	0xbb6
 2859 0bb0 23       		.uleb128 0x23
 2860 0bb1 01       		.uleb128 0x1
 2861 0bb2 50       		.byte	0x50
 2862 0bb3 01       		.uleb128 0x1
 2863 0bb4 44       		.byte	0x44
 2864 0bb5 00       		.byte	0
 2865 0bb6 22       		.uleb128 0x22
 2866 0bb7 88030000 		.4byte	.LVL53
 2867 0bbb 630F0000 		.4byte	0xf63
 2868 0bbf C90B0000 		.4byte	0xbc9
 2869 0bc3 23       		.uleb128 0x23
 2870 0bc4 01       		.uleb128 0x1
 2871 0bc5 50       		.byte	0x50
 2872 0bc6 01       		.uleb128 0x1
 2873 0bc7 45       		.byte	0x45
 2874 0bc8 00       		.byte	0
 2875 0bc9 22       		.uleb128 0x22
 2876 0bca A4030000 		.4byte	.LVL54
 2877 0bce 870F0000 		.4byte	0xf87
 2878 0bd2 E30B0000 		.4byte	0xbe3
 2879 0bd6 23       		.uleb128 0x23
 2880 0bd7 01       		.uleb128 0x1
 2881 0bd8 50       		.byte	0x50
 2882 0bd9 02       		.uleb128 0x2
 2883 0bda 75       		.byte	0x75
 2884 0bdb 00       		.sleb128 0
 2885 0bdc 23       		.uleb128 0x23
 2886 0bdd 01       		.uleb128 0x1
 2887 0bde 51       		.byte	0x51
 2888 0bdf 02       		.uleb128 0x2
 2889 0be0 08       		.byte	0x8
 2890 0be1 41       		.byte	0x41
 2891 0be2 00       		.byte	0
 2892 0be3 22       		.uleb128 0x22
 2893 0be4 B4030000 		.4byte	.LVL56
 2894 0be8 630F0000 		.4byte	0xf63
 2895 0bec F60B0000 		.4byte	0xbf6
 2896 0bf0 23       		.uleb128 0x23
 2897 0bf1 01       		.uleb128 0x1
 2898 0bf2 50       		.byte	0x50
 2899 0bf3 01       		.uleb128 0x1
 2900 0bf4 46       		.byte	0x46
 2901 0bf5 00       		.byte	0
 2902 0bf6 22       		.uleb128 0x22
ARM GAS  /var/folders/l5/0x54b2c10074c8bt31ycjvl80000gp/T//ccUNC6Ac.s 			page 52


 2903 0bf7 C8030000 		.4byte	.LVL57
 2904 0bfb 870F0000 		.4byte	0xf87
 2905 0bff 100C0000 		.4byte	0xc10
 2906 0c03 23       		.uleb128 0x23
 2907 0c04 01       		.uleb128 0x1
 2908 0c05 50       		.byte	0x50
 2909 0c06 02       		.uleb128 0x2
 2910 0c07 75       		.byte	0x75
 2911 0c08 00       		.sleb128 0
 2912 0c09 23       		.uleb128 0x23
 2913 0c0a 01       		.uleb128 0x1
 2914 0c0b 51       		.byte	0x51
 2915 0c0c 02       		.uleb128 0x2
 2916 0c0d 08       		.byte	0x8
 2917 0c0e 42       		.byte	0x42
 2918 0c0f 00       		.byte	0
 2919 0c10 22       		.uleb128 0x22
 2920 0c11 D8030000 		.4byte	.LVL59
 2921 0c15 630F0000 		.4byte	0xf63
 2922 0c19 230C0000 		.4byte	0xc23
 2923 0c1d 23       		.uleb128 0x23
 2924 0c1e 01       		.uleb128 0x1
 2925 0c1f 50       		.byte	0x50
 2926 0c20 01       		.uleb128 0x1
 2927 0c21 47       		.byte	0x47
 2928 0c22 00       		.byte	0
 2929 0c23 22       		.uleb128 0x22
 2930 0c24 EC030000 		.4byte	.LVL60
 2931 0c28 870F0000 		.4byte	0xf87
 2932 0c2c 3D0C0000 		.4byte	0xc3d
 2933 0c30 23       		.uleb128 0x23
 2934 0c31 01       		.uleb128 0x1
 2935 0c32 50       		.byte	0x50
 2936 0c33 02       		.uleb128 0x2
 2937 0c34 75       		.byte	0x75
 2938 0c35 00       		.sleb128 0
 2939 0c36 23       		.uleb128 0x23
 2940 0c37 01       		.uleb128 0x1
 2941 0c38 51       		.byte	0x51
 2942 0c39 02       		.uleb128 0x2
 2943 0c3a 08       		.byte	0x8
 2944 0c3b 43       		.byte	0x43
 2945 0c3c 00       		.byte	0
 2946 0c3d 22       		.uleb128 0x22
 2947 0c3e FC030000 		.4byte	.LVL62
 2948 0c42 630F0000 		.4byte	0xf63
 2949 0c46 500C0000 		.4byte	0xc50
 2950 0c4a 23       		.uleb128 0x23
 2951 0c4b 01       		.uleb128 0x1
 2952 0c4c 50       		.byte	0x50
 2953 0c4d 01       		.uleb128 0x1
 2954 0c4e 48       		.byte	0x48
 2955 0c4f 00       		.byte	0
 2956 0c50 22       		.uleb128 0x22
 2957 0c51 10040000 		.4byte	.LVL63
 2958 0c55 870F0000 		.4byte	0xf87
 2959 0c59 6A0C0000 		.4byte	0xc6a
ARM GAS  /var/folders/l5/0x54b2c10074c8bt31ycjvl80000gp/T//ccUNC6Ac.s 			page 53


 2960 0c5d 23       		.uleb128 0x23
 2961 0c5e 01       		.uleb128 0x1
 2962 0c5f 50       		.byte	0x50
 2963 0c60 02       		.uleb128 0x2
 2964 0c61 75       		.byte	0x75
 2965 0c62 00       		.sleb128 0
 2966 0c63 23       		.uleb128 0x23
 2967 0c64 01       		.uleb128 0x1
 2968 0c65 51       		.byte	0x51
 2969 0c66 02       		.uleb128 0x2
 2970 0c67 08       		.byte	0x8
 2971 0c68 44       		.byte	0x44
 2972 0c69 00       		.byte	0
 2973 0c6a 22       		.uleb128 0x22
 2974 0c6b 20040000 		.4byte	.LVL65
 2975 0c6f 630F0000 		.4byte	0xf63
 2976 0c73 7D0C0000 		.4byte	0xc7d
 2977 0c77 23       		.uleb128 0x23
 2978 0c78 01       		.uleb128 0x1
 2979 0c79 50       		.byte	0x50
 2980 0c7a 01       		.uleb128 0x1
 2981 0c7b 49       		.byte	0x49
 2982 0c7c 00       		.byte	0
 2983 0c7d 22       		.uleb128 0x22
 2984 0c7e 34040000 		.4byte	.LVL66
 2985 0c82 870F0000 		.4byte	0xf87
 2986 0c86 970C0000 		.4byte	0xc97
 2987 0c8a 23       		.uleb128 0x23
 2988 0c8b 01       		.uleb128 0x1
 2989 0c8c 50       		.byte	0x50
 2990 0c8d 02       		.uleb128 0x2
 2991 0c8e 75       		.byte	0x75
 2992 0c8f 00       		.sleb128 0
 2993 0c90 23       		.uleb128 0x23
 2994 0c91 01       		.uleb128 0x1
 2995 0c92 51       		.byte	0x51
 2996 0c93 02       		.uleb128 0x2
 2997 0c94 08       		.byte	0x8
 2998 0c95 45       		.byte	0x45
 2999 0c96 00       		.byte	0
 3000 0c97 22       		.uleb128 0x22
 3001 0c98 48040000 		.4byte	.LVL68
 3002 0c9c 630F0000 		.4byte	0xf63
 3003 0ca0 AA0C0000 		.4byte	0xcaa
 3004 0ca4 23       		.uleb128 0x23
 3005 0ca5 01       		.uleb128 0x1
 3006 0ca6 50       		.byte	0x50
 3007 0ca7 01       		.uleb128 0x1
 3008 0ca8 4A       		.byte	0x4a
 3009 0ca9 00       		.byte	0
 3010 0caa 22       		.uleb128 0x22
 3011 0cab 6C040000 		.4byte	.LVL69
 3012 0caf 630F0000 		.4byte	0xf63
 3013 0cb3 BD0C0000 		.4byte	0xcbd
 3014 0cb7 23       		.uleb128 0x23
 3015 0cb8 01       		.uleb128 0x1
 3016 0cb9 50       		.byte	0x50
ARM GAS  /var/folders/l5/0x54b2c10074c8bt31ycjvl80000gp/T//ccUNC6Ac.s 			page 54


 3017 0cba 01       		.uleb128 0x1
 3018 0cbb 4B       		.byte	0x4b
 3019 0cbc 00       		.byte	0
 3020 0cbd 22       		.uleb128 0x22
 3021 0cbe 8C040000 		.4byte	.LVL72
 3022 0cc2 C30F0000 		.4byte	0xfc3
 3023 0cc6 D70C0000 		.4byte	0xcd7
 3024 0cca 23       		.uleb128 0x23
 3025 0ccb 01       		.uleb128 0x1
 3026 0ccc 50       		.byte	0x50
 3027 0ccd 02       		.uleb128 0x2
 3028 0cce 75       		.byte	0x75
 3029 0ccf 00       		.sleb128 0
 3030 0cd0 23       		.uleb128 0x23
 3031 0cd1 01       		.uleb128 0x1
 3032 0cd2 51       		.byte	0x51
 3033 0cd3 02       		.uleb128 0x2
 3034 0cd4 91       		.byte	0x91
 3035 0cd5 64       		.sleb128 -28
 3036 0cd6 00       		.byte	0
 3037 0cd7 22       		.uleb128 0x22
 3038 0cd8 A0040000 		.4byte	.LVL74
 3039 0cdc 630F0000 		.4byte	0xf63
 3040 0ce0 EA0C0000 		.4byte	0xcea
 3041 0ce4 23       		.uleb128 0x23
 3042 0ce5 01       		.uleb128 0x1
 3043 0ce6 50       		.byte	0x50
 3044 0ce7 01       		.uleb128 0x1
 3045 0ce8 4C       		.byte	0x4c
 3046 0ce9 00       		.byte	0
 3047 0cea 24       		.uleb128 0x24
 3048 0ceb B0040000 		.4byte	.LVL75
 3049 0cef AB0F0000 		.4byte	0xfab
 3050 0cf3 22       		.uleb128 0x22
 3051 0cf4 C4040000 		.4byte	.LVL77
 3052 0cf8 B70F0000 		.4byte	0xfb7
 3053 0cfc 0F0D0000 		.4byte	0xd0f
 3054 0d00 23       		.uleb128 0x23
 3055 0d01 01       		.uleb128 0x1
 3056 0d02 50       		.byte	0x50
 3057 0d03 01       		.uleb128 0x1
 3058 0d04 4D       		.byte	0x4d
 3059 0d05 23       		.uleb128 0x23
 3060 0d06 01       		.uleb128 0x1
 3061 0d07 51       		.byte	0x51
 3062 0d08 05       		.uleb128 0x5
 3063 0d09 03       		.byte	0x3
 3064 0d0a 00000000 		.4byte	.LC0
 3065 0d0e 00       		.byte	0
 3066 0d0f 22       		.uleb128 0x22
 3067 0d10 E8040000 		.4byte	.LVL78
 3068 0d14 630F0000 		.4byte	0xf63
 3069 0d18 220D0000 		.4byte	0xd22
 3070 0d1c 23       		.uleb128 0x23
 3071 0d1d 01       		.uleb128 0x1
 3072 0d1e 50       		.byte	0x50
 3073 0d1f 01       		.uleb128 0x1
ARM GAS  /var/folders/l5/0x54b2c10074c8bt31ycjvl80000gp/T//ccUNC6Ac.s 			page 55


 3074 0d20 4E       		.byte	0x4e
 3075 0d21 00       		.byte	0
 3076 0d22 22       		.uleb128 0x22
 3077 0d23 0C050000 		.4byte	.LVL79
 3078 0d27 630F0000 		.4byte	0xf63
 3079 0d2b 350D0000 		.4byte	0xd35
 3080 0d2f 23       		.uleb128 0x23
 3081 0d30 01       		.uleb128 0x1
 3082 0d31 50       		.byte	0x50
 3083 0d32 01       		.uleb128 0x1
 3084 0d33 4F       		.byte	0x4f
 3085 0d34 00       		.byte	0
 3086 0d35 22       		.uleb128 0x22
 3087 0d36 34050000 		.4byte	.LVL80
 3088 0d3a 630F0000 		.4byte	0xf63
 3089 0d3e 490D0000 		.4byte	0xd49
 3090 0d42 23       		.uleb128 0x23
 3091 0d43 01       		.uleb128 0x1
 3092 0d44 50       		.byte	0x50
 3093 0d45 02       		.uleb128 0x2
 3094 0d46 08       		.byte	0x8
 3095 0d47 20       		.byte	0x20
 3096 0d48 00       		.byte	0
 3097 0d49 22       		.uleb128 0x22
 3098 0d4a 4C050000 		.4byte	.LVL81
 3099 0d4e 930F0000 		.4byte	0xf93
 3100 0d52 630D0000 		.4byte	0xd63
 3101 0d56 23       		.uleb128 0x23
 3102 0d57 01       		.uleb128 0x1
 3103 0d58 50       		.byte	0x50
 3104 0d59 02       		.uleb128 0x2
 3105 0d5a 75       		.byte	0x75
 3106 0d5b 00       		.sleb128 0
 3107 0d5c 23       		.uleb128 0x23
 3108 0d5d 01       		.uleb128 0x1
 3109 0d5e 51       		.byte	0x51
 3110 0d5f 02       		.uleb128 0x2
 3111 0d60 08       		.byte	0x8
 3112 0d61 45       		.byte	0x45
 3113 0d62 00       		.byte	0
 3114 0d63 22       		.uleb128 0x22
 3115 0d64 5C050000 		.4byte	.LVL83
 3116 0d68 630F0000 		.4byte	0xf63
 3117 0d6c 770D0000 		.4byte	0xd77
 3118 0d70 23       		.uleb128 0x23
 3119 0d71 01       		.uleb128 0x1
 3120 0d72 50       		.byte	0x50
 3121 0d73 02       		.uleb128 0x2
 3122 0d74 08       		.byte	0x8
 3123 0d75 21       		.byte	0x21
 3124 0d76 00       		.byte	0
 3125 0d77 22       		.uleb128 0x22
 3126 0d78 70050000 		.4byte	.LVL84
 3127 0d7c 930F0000 		.4byte	0xf93
 3128 0d80 910D0000 		.4byte	0xd91
 3129 0d84 23       		.uleb128 0x23
 3130 0d85 01       		.uleb128 0x1
ARM GAS  /var/folders/l5/0x54b2c10074c8bt31ycjvl80000gp/T//ccUNC6Ac.s 			page 56


 3131 0d86 50       		.byte	0x50
 3132 0d87 02       		.uleb128 0x2
 3133 0d88 75       		.byte	0x75
 3134 0d89 00       		.sleb128 0
 3135 0d8a 23       		.uleb128 0x23
 3136 0d8b 01       		.uleb128 0x1
 3137 0d8c 51       		.byte	0x51
 3138 0d8d 02       		.uleb128 0x2
 3139 0d8e 08       		.byte	0x8
 3140 0d8f 44       		.byte	0x44
 3141 0d90 00       		.byte	0
 3142 0d91 22       		.uleb128 0x22
 3143 0d92 80050000 		.4byte	.LVL86
 3144 0d96 630F0000 		.4byte	0xf63
 3145 0d9a A50D0000 		.4byte	0xda5
 3146 0d9e 23       		.uleb128 0x23
 3147 0d9f 01       		.uleb128 0x1
 3148 0da0 50       		.byte	0x50
 3149 0da1 02       		.uleb128 0x2
 3150 0da2 08       		.byte	0x8
 3151 0da3 22       		.byte	0x22
 3152 0da4 00       		.byte	0
 3153 0da5 22       		.uleb128 0x22
 3154 0da6 94050000 		.4byte	.LVL87
 3155 0daa 930F0000 		.4byte	0xf93
 3156 0dae BF0D0000 		.4byte	0xdbf
 3157 0db2 23       		.uleb128 0x23
 3158 0db3 01       		.uleb128 0x1
 3159 0db4 50       		.byte	0x50
 3160 0db5 02       		.uleb128 0x2
 3161 0db6 75       		.byte	0x75
 3162 0db7 00       		.sleb128 0
 3163 0db8 23       		.uleb128 0x23
 3164 0db9 01       		.uleb128 0x1
 3165 0dba 51       		.byte	0x51
 3166 0dbb 02       		.uleb128 0x2
 3167 0dbc 08       		.byte	0x8
 3168 0dbd 43       		.byte	0x43
 3169 0dbe 00       		.byte	0
 3170 0dbf 22       		.uleb128 0x22
 3171 0dc0 A4050000 		.4byte	.LVL89
 3172 0dc4 630F0000 		.4byte	0xf63
 3173 0dc8 D30D0000 		.4byte	0xdd3
 3174 0dcc 23       		.uleb128 0x23
 3175 0dcd 01       		.uleb128 0x1
 3176 0dce 50       		.byte	0x50
 3177 0dcf 02       		.uleb128 0x2
 3178 0dd0 08       		.byte	0x8
 3179 0dd1 23       		.byte	0x23
 3180 0dd2 00       		.byte	0
 3181 0dd3 22       		.uleb128 0x22
 3182 0dd4 B8050000 		.4byte	.LVL90
 3183 0dd8 930F0000 		.4byte	0xf93
 3184 0ddc ED0D0000 		.4byte	0xded
 3185 0de0 23       		.uleb128 0x23
 3186 0de1 01       		.uleb128 0x1
 3187 0de2 50       		.byte	0x50
ARM GAS  /var/folders/l5/0x54b2c10074c8bt31ycjvl80000gp/T//ccUNC6Ac.s 			page 57


 3188 0de3 02       		.uleb128 0x2
 3189 0de4 75       		.byte	0x75
 3190 0de5 00       		.sleb128 0
 3191 0de6 23       		.uleb128 0x23
 3192 0de7 01       		.uleb128 0x1
 3193 0de8 51       		.byte	0x51
 3194 0de9 02       		.uleb128 0x2
 3195 0dea 08       		.byte	0x8
 3196 0deb 42       		.byte	0x42
 3197 0dec 00       		.byte	0
 3198 0ded 22       		.uleb128 0x22
 3199 0dee C8050000 		.4byte	.LVL92
 3200 0df2 630F0000 		.4byte	0xf63
 3201 0df6 010E0000 		.4byte	0xe01
 3202 0dfa 23       		.uleb128 0x23
 3203 0dfb 01       		.uleb128 0x1
 3204 0dfc 50       		.byte	0x50
 3205 0dfd 02       		.uleb128 0x2
 3206 0dfe 08       		.byte	0x8
 3207 0dff 24       		.byte	0x24
 3208 0e00 00       		.byte	0
 3209 0e01 22       		.uleb128 0x22
 3210 0e02 DC050000 		.4byte	.LVL93
 3211 0e06 930F0000 		.4byte	0xf93
 3212 0e0a 1B0E0000 		.4byte	0xe1b
 3213 0e0e 23       		.uleb128 0x23
 3214 0e0f 01       		.uleb128 0x1
 3215 0e10 50       		.byte	0x50
 3216 0e11 02       		.uleb128 0x2
 3217 0e12 75       		.byte	0x75
 3218 0e13 00       		.sleb128 0
 3219 0e14 23       		.uleb128 0x23
 3220 0e15 01       		.uleb128 0x1
 3221 0e16 51       		.byte	0x51
 3222 0e17 02       		.uleb128 0x2
 3223 0e18 08       		.byte	0x8
 3224 0e19 41       		.byte	0x41
 3225 0e1a 00       		.byte	0
 3226 0e1b 22       		.uleb128 0x22
 3227 0e1c F0050000 		.4byte	.LVL95
 3228 0e20 630F0000 		.4byte	0xf63
 3229 0e24 2F0E0000 		.4byte	0xe2f
 3230 0e28 23       		.uleb128 0x23
 3231 0e29 01       		.uleb128 0x1
 3232 0e2a 50       		.byte	0x50
 3233 0e2b 02       		.uleb128 0x2
 3234 0e2c 08       		.byte	0x8
 3235 0e2d 25       		.byte	0x25
 3236 0e2e 00       		.byte	0
 3237 0e2f 22       		.uleb128 0x22
 3238 0e30 14060000 		.4byte	.LVL96
 3239 0e34 630F0000 		.4byte	0xf63
 3240 0e38 430E0000 		.4byte	0xe43
 3241 0e3c 23       		.uleb128 0x23
 3242 0e3d 01       		.uleb128 0x1
 3243 0e3e 50       		.byte	0x50
 3244 0e3f 02       		.uleb128 0x2
ARM GAS  /var/folders/l5/0x54b2c10074c8bt31ycjvl80000gp/T//ccUNC6Ac.s 			page 58


 3245 0e40 08       		.byte	0x8
 3246 0e41 26       		.byte	0x26
 3247 0e42 00       		.byte	0
 3248 0e43 22       		.uleb128 0x22
 3249 0e44 34060000 		.4byte	.LVL99
 3250 0e48 C30F0000 		.4byte	0xfc3
 3251 0e4c 5D0E0000 		.4byte	0xe5d
 3252 0e50 23       		.uleb128 0x23
 3253 0e51 01       		.uleb128 0x1
 3254 0e52 50       		.byte	0x50
 3255 0e53 02       		.uleb128 0x2
 3256 0e54 75       		.byte	0x75
 3257 0e55 00       		.sleb128 0
 3258 0e56 23       		.uleb128 0x23
 3259 0e57 01       		.uleb128 0x1
 3260 0e58 51       		.byte	0x51
 3261 0e59 02       		.uleb128 0x2
 3262 0e5a 91       		.byte	0x91
 3263 0e5b 64       		.sleb128 -28
 3264 0e5c 00       		.byte	0
 3265 0e5d 22       		.uleb128 0x22
 3266 0e5e 48060000 		.4byte	.LVL101
 3267 0e62 630F0000 		.4byte	0xf63
 3268 0e66 710E0000 		.4byte	0xe71
 3269 0e6a 23       		.uleb128 0x23
 3270 0e6b 01       		.uleb128 0x1
 3271 0e6c 50       		.byte	0x50
 3272 0e6d 02       		.uleb128 0x2
 3273 0e6e 08       		.byte	0x8
 3274 0e6f 27       		.byte	0x27
 3275 0e70 00       		.byte	0
 3276 0e71 24       		.uleb128 0x24
 3277 0e72 58060000 		.4byte	.LVL102
 3278 0e76 AB0F0000 		.4byte	0xfab
 3279 0e7a 22       		.uleb128 0x22
 3280 0e7b 6C060000 		.4byte	.LVL104
 3281 0e7f B70F0000 		.4byte	0xfb7
 3282 0e83 970E0000 		.4byte	0xe97
 3283 0e87 23       		.uleb128 0x23
 3284 0e88 01       		.uleb128 0x1
 3285 0e89 50       		.byte	0x50
 3286 0e8a 02       		.uleb128 0x2
 3287 0e8b 08       		.byte	0x8
 3288 0e8c 28       		.byte	0x28
 3289 0e8d 23       		.uleb128 0x23
 3290 0e8e 01       		.uleb128 0x1
 3291 0e8f 51       		.byte	0x51
 3292 0e90 05       		.uleb128 0x5
 3293 0e91 03       		.byte	0x3
 3294 0e92 00000000 		.4byte	.LC0
 3295 0e96 00       		.byte	0
 3296 0e97 22       		.uleb128 0x22
 3297 0e98 90060000 		.4byte	.LVL105
 3298 0e9c 630F0000 		.4byte	0xf63
 3299 0ea0 AB0E0000 		.4byte	0xeab
 3300 0ea4 23       		.uleb128 0x23
 3301 0ea5 01       		.uleb128 0x1
ARM GAS  /var/folders/l5/0x54b2c10074c8bt31ycjvl80000gp/T//ccUNC6Ac.s 			page 59


 3302 0ea6 50       		.byte	0x50
 3303 0ea7 02       		.uleb128 0x2
 3304 0ea8 08       		.byte	0x8
 3305 0ea9 29       		.byte	0x29
 3306 0eaa 00       		.byte	0
 3307 0eab 22       		.uleb128 0x22
 3308 0eac B4060000 		.4byte	.LVL106
 3309 0eb0 630F0000 		.4byte	0xf63
 3310 0eb4 BF0E0000 		.4byte	0xebf
 3311 0eb8 23       		.uleb128 0x23
 3312 0eb9 01       		.uleb128 0x1
 3313 0eba 50       		.byte	0x50
 3314 0ebb 02       		.uleb128 0x2
 3315 0ebc 08       		.byte	0x8
 3316 0ebd 2A       		.byte	0x2a
 3317 0ebe 00       		.byte	0
 3318 0ebf 22       		.uleb128 0x22
 3319 0ec0 DC060000 		.4byte	.LVL107
 3320 0ec4 630F0000 		.4byte	0xf63
 3321 0ec8 D30E0000 		.4byte	0xed3
 3322 0ecc 23       		.uleb128 0x23
 3323 0ecd 01       		.uleb128 0x1
 3324 0ece 50       		.byte	0x50
 3325 0ecf 02       		.uleb128 0x2
 3326 0ed0 08       		.byte	0x8
 3327 0ed1 2B       		.byte	0x2b
 3328 0ed2 00       		.byte	0
 3329 0ed3 22       		.uleb128 0x22
 3330 0ed4 EC060000 		.4byte	.LVL108
 3331 0ed8 CF0F0000 		.4byte	0xfcf
 3332 0edc E70E0000 		.4byte	0xee7
 3333 0ee0 23       		.uleb128 0x23
 3334 0ee1 01       		.uleb128 0x1
 3335 0ee2 50       		.byte	0x50
 3336 0ee3 02       		.uleb128 0x2
 3337 0ee4 75       		.byte	0x75
 3338 0ee5 00       		.sleb128 0
 3339 0ee6 00       		.byte	0
 3340 0ee7 22       		.uleb128 0x22
 3341 0ee8 08070000 		.4byte	.LVL109
 3342 0eec 630F0000 		.4byte	0xf63
 3343 0ef0 FB0E0000 		.4byte	0xefb
 3344 0ef4 23       		.uleb128 0x23
 3345 0ef5 01       		.uleb128 0x1
 3346 0ef6 50       		.byte	0x50
 3347 0ef7 02       		.uleb128 0x2
 3348 0ef8 08       		.byte	0x8
 3349 0ef9 2C       		.byte	0x2c
 3350 0efa 00       		.byte	0
 3351 0efb 22       		.uleb128 0x22
 3352 0efc 2C070000 		.4byte	.LVL110
 3353 0f00 630F0000 		.4byte	0xf63
 3354 0f04 0F0F0000 		.4byte	0xf0f
 3355 0f08 23       		.uleb128 0x23
 3356 0f09 01       		.uleb128 0x1
 3357 0f0a 50       		.byte	0x50
 3358 0f0b 02       		.uleb128 0x2
ARM GAS  /var/folders/l5/0x54b2c10074c8bt31ycjvl80000gp/T//ccUNC6Ac.s 			page 60


 3359 0f0c 08       		.byte	0x8
 3360 0f0d 2D       		.byte	0x2d
 3361 0f0e 00       		.byte	0
 3362 0f0f 22       		.uleb128 0x22
 3363 0f10 58070000 		.4byte	.LVL111
 3364 0f14 630F0000 		.4byte	0xf63
 3365 0f18 230F0000 		.4byte	0xf23
 3366 0f1c 23       		.uleb128 0x23
 3367 0f1d 01       		.uleb128 0x1
 3368 0f1e 50       		.byte	0x50
 3369 0f1f 02       		.uleb128 0x2
 3370 0f20 08       		.byte	0x8
 3371 0f21 2E       		.byte	0x2e
 3372 0f22 00       		.byte	0
 3373 0f23 25       		.uleb128 0x25
 3374 0f24 84070000 		.4byte	.LVL112
 3375 0f28 630F0000 		.4byte	0xf63
 3376 0f2c 23       		.uleb128 0x23
 3377 0f2d 01       		.uleb128 0x1
 3378 0f2e 50       		.byte	0x50
 3379 0f2f 02       		.uleb128 0x2
 3380 0f30 08       		.byte	0x8
 3381 0f31 2F       		.byte	0x2f
 3382 0f32 00       		.byte	0
 3383 0f33 00       		.byte	0
 3384 0f34 1E       		.uleb128 0x1e
 3385 0f35 1C030000 		.4byte	.LASF122
 3386 0f39 01       		.byte	0x1
 3387 0f3a 4B       		.byte	0x4b
 3388 0f3b 0D       		.byte	0xd
 3389 0f3c 00000000 		.4byte	.LFB7
 3390 0f40 18000000 		.4byte	.LFE7-.LFB7
 3391 0f44 01       		.uleb128 0x1
 3392 0f45 9C       		.byte	0x9c
 3393 0f46 630F0000 		.4byte	0xf63
 3394 0f4a 26       		.uleb128 0x26
 3395 0f4b 10000000 		.4byte	.LVL113
 3396 0f4f DB0F0000 		.4byte	0xfdb
 3397 0f53 23       		.uleb128 0x23
 3398 0f54 01       		.uleb128 0x1
 3399 0f55 50       		.byte	0x50
 3400 0f56 05       		.uleb128 0x5
 3401 0f57 03       		.byte	0x3
 3402 0f58 00000000 		.4byte	.LANCHOR0
 3403 0f5c 23       		.uleb128 0x23
 3404 0f5d 01       		.uleb128 0x1
 3405 0f5e 52       		.byte	0x52
 3406 0f5f 01       		.uleb128 0x1
 3407 0f60 35       		.byte	0x35
 3408 0f61 00       		.byte	0
 3409 0f62 00       		.byte	0
 3410 0f63 27       		.uleb128 0x27
 3411 0f64 D5050000 		.4byte	.LASF123
 3412 0f68 D5050000 		.4byte	.LASF123
 3413 0f6c 0F       		.byte	0xf
 3414 0f6d 5C       		.byte	0x5c
 3415 0f6e 0A       		.byte	0xa
ARM GAS  /var/folders/l5/0x54b2c10074c8bt31ycjvl80000gp/T//ccUNC6Ac.s 			page 61


 3416 0f6f 27       		.uleb128 0x27
 3417 0f70 27010000 		.4byte	.LASF124
 3418 0f74 27010000 		.4byte	.LASF124
 3419 0f78 0C       		.byte	0xc
 3420 0f79 3E       		.byte	0x3e
 3421 0f7a 09       		.byte	0x9
 3422 0f7b 27       		.uleb128 0x27
 3423 0f7c 57050000 		.4byte	.LASF125
 3424 0f80 57050000 		.4byte	.LASF125
 3425 0f84 0C       		.byte	0xc
 3426 0f85 41       		.byte	0x41
 3427 0f86 09       		.byte	0x9
 3428 0f87 27       		.uleb128 0x27
 3429 0f88 2D000000 		.4byte	.LASF126
 3430 0f8c 2D000000 		.4byte	.LASF126
 3431 0f90 0C       		.byte	0xc
 3432 0f91 40       		.byte	0x40
 3433 0f92 09       		.byte	0x9
 3434 0f93 27       		.uleb128 0x27
 3435 0f94 46000000 		.4byte	.LASF127
 3436 0f98 46000000 		.4byte	.LASF127
 3437 0f9c 0C       		.byte	0xc
 3438 0f9d 43       		.byte	0x43
 3439 0f9e 09       		.byte	0x9
 3440 0f9f 27       		.uleb128 0x27
 3441 0fa0 77050000 		.4byte	.LASF128
 3442 0fa4 77050000 		.4byte	.LASF128
 3443 0fa8 0C       		.byte	0xc
 3444 0fa9 44       		.byte	0x44
 3445 0faa 09       		.byte	0x9
 3446 0fab 27       		.uleb128 0x27
 3447 0fac 09010000 		.4byte	.LASF129
 3448 0fb0 09010000 		.4byte	.LASF129
 3449 0fb4 0F       		.byte	0xf
 3450 0fb5 5A       		.byte	0x5a
 3451 0fb6 08       		.byte	0x8
 3452 0fb7 27       		.uleb128 0x27
 3453 0fb8 CA030000 		.4byte	.LASF130
 3454 0fbc CA030000 		.4byte	.LASF130
 3455 0fc0 0F       		.byte	0xf
 3456 0fc1 5D       		.byte	0x5d
 3457 0fc2 0A       		.byte	0xa
 3458 0fc3 27       		.uleb128 0x27
 3459 0fc4 23020000 		.4byte	.LASF131
 3460 0fc8 23020000 		.4byte	.LASF131
 3461 0fcc 0C       		.byte	0xc
 3462 0fcd 46       		.byte	0x46
 3463 0fce 09       		.byte	0x9
 3464 0fcf 27       		.uleb128 0x27
 3465 0fd0 8B030000 		.4byte	.LASF132
 3466 0fd4 8B030000 		.4byte	.LASF132
 3467 0fd8 0C       		.byte	0xc
 3468 0fd9 3D       		.byte	0x3d
 3469 0fda 08       		.byte	0x8
 3470 0fdb 27       		.uleb128 0x27
 3471 0fdc 8F000000 		.4byte	.LASF133
 3472 0fe0 8F000000 		.4byte	.LASF133
ARM GAS  /var/folders/l5/0x54b2c10074c8bt31ycjvl80000gp/T//ccUNC6Ac.s 			page 62


 3473 0fe4 0C       		.byte	0xc
 3474 0fe5 3C       		.byte	0x3c
 3475 0fe6 08       		.byte	0x8
 3476 0fe7 00       		.byte	0
 3477              		.section	.debug_abbrev,"",%progbits
 3478              	.Ldebug_abbrev0:
 3479 0000 01       		.uleb128 0x1
 3480 0001 11       		.uleb128 0x11
 3481 0002 01       		.byte	0x1
 3482 0003 25       		.uleb128 0x25
 3483 0004 0E       		.uleb128 0xe
 3484 0005 13       		.uleb128 0x13
 3485 0006 0B       		.uleb128 0xb
 3486 0007 03       		.uleb128 0x3
 3487 0008 0E       		.uleb128 0xe
 3488 0009 1B       		.uleb128 0x1b
 3489 000a 0E       		.uleb128 0xe
 3490 000b 55       		.uleb128 0x55
 3491 000c 17       		.uleb128 0x17
 3492 000d 11       		.uleb128 0x11
 3493 000e 01       		.uleb128 0x1
 3494 000f 10       		.uleb128 0x10
 3495 0010 17       		.uleb128 0x17
 3496 0011 00       		.byte	0
 3497 0012 00       		.byte	0
 3498 0013 02       		.uleb128 0x2
 3499 0014 24       		.uleb128 0x24
 3500 0015 00       		.byte	0
 3501 0016 0B       		.uleb128 0xb
 3502 0017 0B       		.uleb128 0xb
 3503 0018 3E       		.uleb128 0x3e
 3504 0019 0B       		.uleb128 0xb
 3505 001a 03       		.uleb128 0x3
 3506 001b 08       		.uleb128 0x8
 3507 001c 00       		.byte	0
 3508 001d 00       		.byte	0
 3509 001e 03       		.uleb128 0x3
 3510 001f 24       		.uleb128 0x24
 3511 0020 00       		.byte	0
 3512 0021 0B       		.uleb128 0xb
 3513 0022 0B       		.uleb128 0xb
 3514 0023 3E       		.uleb128 0x3e
 3515 0024 0B       		.uleb128 0xb
 3516 0025 03       		.uleb128 0x3
 3517 0026 0E       		.uleb128 0xe
 3518 0027 00       		.byte	0
 3519 0028 00       		.byte	0
 3520 0029 04       		.uleb128 0x4
 3521 002a 16       		.uleb128 0x16
 3522 002b 00       		.byte	0
 3523 002c 03       		.uleb128 0x3
 3524 002d 0E       		.uleb128 0xe
 3525 002e 3A       		.uleb128 0x3a
 3526 002f 0B       		.uleb128 0xb
 3527 0030 3B       		.uleb128 0x3b
 3528 0031 0B       		.uleb128 0xb
 3529 0032 39       		.uleb128 0x39
ARM GAS  /var/folders/l5/0x54b2c10074c8bt31ycjvl80000gp/T//ccUNC6Ac.s 			page 63


 3530 0033 0B       		.uleb128 0xb
 3531 0034 49       		.uleb128 0x49
 3532 0035 13       		.uleb128 0x13
 3533 0036 00       		.byte	0
 3534 0037 00       		.byte	0
 3535 0038 05       		.uleb128 0x5
 3536 0039 35       		.uleb128 0x35
 3537 003a 00       		.byte	0
 3538 003b 49       		.uleb128 0x49
 3539 003c 13       		.uleb128 0x13
 3540 003d 00       		.byte	0
 3541 003e 00       		.byte	0
 3542 003f 06       		.uleb128 0x6
 3543 0040 13       		.uleb128 0x13
 3544 0041 01       		.byte	0x1
 3545 0042 03       		.uleb128 0x3
 3546 0043 0E       		.uleb128 0xe
 3547 0044 0B       		.uleb128 0xb
 3548 0045 0B       		.uleb128 0xb
 3549 0046 3A       		.uleb128 0x3a
 3550 0047 0B       		.uleb128 0xb
 3551 0048 3B       		.uleb128 0x3b
 3552 0049 0B       		.uleb128 0xb
 3553 004a 39       		.uleb128 0x39
 3554 004b 0B       		.uleb128 0xb
 3555 004c 01       		.uleb128 0x1
 3556 004d 13       		.uleb128 0x13
 3557 004e 00       		.byte	0
 3558 004f 00       		.byte	0
 3559 0050 07       		.uleb128 0x7
 3560 0051 0D       		.uleb128 0xd
 3561 0052 00       		.byte	0
 3562 0053 03       		.uleb128 0x3
 3563 0054 0E       		.uleb128 0xe
 3564 0055 3A       		.uleb128 0x3a
 3565 0056 0B       		.uleb128 0xb
 3566 0057 3B       		.uleb128 0x3b
 3567 0058 0B       		.uleb128 0xb
 3568 0059 39       		.uleb128 0x39
 3569 005a 0B       		.uleb128 0xb
 3570 005b 49       		.uleb128 0x49
 3571 005c 13       		.uleb128 0x13
 3572 005d 38       		.uleb128 0x38
 3573 005e 0B       		.uleb128 0xb
 3574 005f 00       		.byte	0
 3575 0060 00       		.byte	0
 3576 0061 08       		.uleb128 0x8
 3577 0062 0D       		.uleb128 0xd
 3578 0063 00       		.byte	0
 3579 0064 03       		.uleb128 0x3
 3580 0065 08       		.uleb128 0x8
 3581 0066 3A       		.uleb128 0x3a
 3582 0067 0B       		.uleb128 0xb
 3583 0068 3B       		.uleb128 0x3b
 3584 0069 0B       		.uleb128 0xb
 3585 006a 39       		.uleb128 0x39
 3586 006b 0B       		.uleb128 0xb
ARM GAS  /var/folders/l5/0x54b2c10074c8bt31ycjvl80000gp/T//ccUNC6Ac.s 			page 64


 3587 006c 49       		.uleb128 0x49
 3588 006d 13       		.uleb128 0x13
 3589 006e 38       		.uleb128 0x38
 3590 006f 0B       		.uleb128 0xb
 3591 0070 00       		.byte	0
 3592 0071 00       		.byte	0
 3593 0072 09       		.uleb128 0x9
 3594 0073 13       		.uleb128 0x13
 3595 0074 01       		.byte	0x1
 3596 0075 0B       		.uleb128 0xb
 3597 0076 0B       		.uleb128 0xb
 3598 0077 3A       		.uleb128 0x3a
 3599 0078 0B       		.uleb128 0xb
 3600 0079 3B       		.uleb128 0x3b
 3601 007a 0B       		.uleb128 0xb
 3602 007b 39       		.uleb128 0x39
 3603 007c 0B       		.uleb128 0xb
 3604 007d 01       		.uleb128 0x1
 3605 007e 13       		.uleb128 0x13
 3606 007f 00       		.byte	0
 3607 0080 00       		.byte	0
 3608 0081 0A       		.uleb128 0xa
 3609 0082 0F       		.uleb128 0xf
 3610 0083 00       		.byte	0
 3611 0084 0B       		.uleb128 0xb
 3612 0085 0B       		.uleb128 0xb
 3613 0086 49       		.uleb128 0x49
 3614 0087 13       		.uleb128 0x13
 3615 0088 00       		.byte	0
 3616 0089 00       		.byte	0
 3617 008a 0B       		.uleb128 0xb
 3618 008b 0F       		.uleb128 0xf
 3619 008c 00       		.byte	0
 3620 008d 0B       		.uleb128 0xb
 3621 008e 0B       		.uleb128 0xb
 3622 008f 00       		.byte	0
 3623 0090 00       		.byte	0
 3624 0091 0C       		.uleb128 0xc
 3625 0092 26       		.uleb128 0x26
 3626 0093 00       		.byte	0
 3627 0094 49       		.uleb128 0x49
 3628 0095 13       		.uleb128 0x13
 3629 0096 00       		.byte	0
 3630 0097 00       		.byte	0
 3631 0098 0D       		.uleb128 0xd
 3632 0099 15       		.uleb128 0x15
 3633 009a 01       		.byte	0x1
 3634 009b 27       		.uleb128 0x27
 3635 009c 19       		.uleb128 0x19
 3636 009d 01       		.uleb128 0x1
 3637 009e 13       		.uleb128 0x13
 3638 009f 00       		.byte	0
 3639 00a0 00       		.byte	0
 3640 00a1 0E       		.uleb128 0xe
 3641 00a2 05       		.uleb128 0x5
 3642 00a3 00       		.byte	0
 3643 00a4 49       		.uleb128 0x49
ARM GAS  /var/folders/l5/0x54b2c10074c8bt31ycjvl80000gp/T//ccUNC6Ac.s 			page 65


 3644 00a5 13       		.uleb128 0x13
 3645 00a6 00       		.byte	0
 3646 00a7 00       		.byte	0
 3647 00a8 0F       		.uleb128 0xf
 3648 00a9 34       		.uleb128 0x34
 3649 00aa 00       		.byte	0
 3650 00ab 03       		.uleb128 0x3
 3651 00ac 0E       		.uleb128 0xe
 3652 00ad 3A       		.uleb128 0x3a
 3653 00ae 0B       		.uleb128 0xb
 3654 00af 3B       		.uleb128 0x3b
 3655 00b0 0B       		.uleb128 0xb
 3656 00b1 39       		.uleb128 0x39
 3657 00b2 0B       		.uleb128 0xb
 3658 00b3 49       		.uleb128 0x49
 3659 00b4 13       		.uleb128 0x13
 3660 00b5 3F       		.uleb128 0x3f
 3661 00b6 19       		.uleb128 0x19
 3662 00b7 3C       		.uleb128 0x3c
 3663 00b8 19       		.uleb128 0x19
 3664 00b9 00       		.byte	0
 3665 00ba 00       		.byte	0
 3666 00bb 10       		.uleb128 0x10
 3667 00bc 17       		.uleb128 0x17
 3668 00bd 01       		.byte	0x1
 3669 00be 0B       		.uleb128 0xb
 3670 00bf 0B       		.uleb128 0xb
 3671 00c0 3A       		.uleb128 0x3a
 3672 00c1 0B       		.uleb128 0xb
 3673 00c2 3B       		.uleb128 0x3b
 3674 00c3 0B       		.uleb128 0xb
 3675 00c4 39       		.uleb128 0x39
 3676 00c5 0B       		.uleb128 0xb
 3677 00c6 01       		.uleb128 0x1
 3678 00c7 13       		.uleb128 0x13
 3679 00c8 00       		.byte	0
 3680 00c9 00       		.byte	0
 3681 00ca 11       		.uleb128 0x11
 3682 00cb 0D       		.uleb128 0xd
 3683 00cc 00       		.byte	0
 3684 00cd 03       		.uleb128 0x3
 3685 00ce 0E       		.uleb128 0xe
 3686 00cf 3A       		.uleb128 0x3a
 3687 00d0 0B       		.uleb128 0xb
 3688 00d1 3B       		.uleb128 0x3b
 3689 00d2 0B       		.uleb128 0xb
 3690 00d3 39       		.uleb128 0x39
 3691 00d4 0B       		.uleb128 0xb
 3692 00d5 49       		.uleb128 0x49
 3693 00d6 13       		.uleb128 0x13
 3694 00d7 00       		.byte	0
 3695 00d8 00       		.byte	0
 3696 00d9 12       		.uleb128 0x12
 3697 00da 01       		.uleb128 0x1
 3698 00db 01       		.byte	0x1
 3699 00dc 49       		.uleb128 0x49
 3700 00dd 13       		.uleb128 0x13
ARM GAS  /var/folders/l5/0x54b2c10074c8bt31ycjvl80000gp/T//ccUNC6Ac.s 			page 66


 3701 00de 01       		.uleb128 0x1
 3702 00df 13       		.uleb128 0x13
 3703 00e0 00       		.byte	0
 3704 00e1 00       		.byte	0
 3705 00e2 13       		.uleb128 0x13
 3706 00e3 21       		.uleb128 0x21
 3707 00e4 00       		.byte	0
 3708 00e5 49       		.uleb128 0x49
 3709 00e6 13       		.uleb128 0x13
 3710 00e7 2F       		.uleb128 0x2f
 3711 00e8 0B       		.uleb128 0xb
 3712 00e9 00       		.byte	0
 3713 00ea 00       		.byte	0
 3714 00eb 14       		.uleb128 0x14
 3715 00ec 15       		.uleb128 0x15
 3716 00ed 00       		.byte	0
 3717 00ee 27       		.uleb128 0x27
 3718 00ef 19       		.uleb128 0x19
 3719 00f0 00       		.byte	0
 3720 00f1 00       		.byte	0
 3721 00f2 15       		.uleb128 0x15
 3722 00f3 13       		.uleb128 0x13
 3723 00f4 01       		.byte	0x1
 3724 00f5 0B       		.uleb128 0xb
 3725 00f6 05       		.uleb128 0x5
 3726 00f7 3A       		.uleb128 0x3a
 3727 00f8 0B       		.uleb128 0xb
 3728 00f9 3B       		.uleb128 0x3b
 3729 00fa 0B       		.uleb128 0xb
 3730 00fb 39       		.uleb128 0x39
 3731 00fc 0B       		.uleb128 0xb
 3732 00fd 01       		.uleb128 0x1
 3733 00fe 13       		.uleb128 0x13
 3734 00ff 00       		.byte	0
 3735 0100 00       		.byte	0
 3736 0101 16       		.uleb128 0x16
 3737 0102 0D       		.uleb128 0xd
 3738 0103 00       		.byte	0
 3739 0104 03       		.uleb128 0x3
 3740 0105 08       		.uleb128 0x8
 3741 0106 3A       		.uleb128 0x3a
 3742 0107 0B       		.uleb128 0xb
 3743 0108 3B       		.uleb128 0x3b
 3744 0109 0B       		.uleb128 0xb
 3745 010a 39       		.uleb128 0x39
 3746 010b 0B       		.uleb128 0xb
 3747 010c 49       		.uleb128 0x49
 3748 010d 13       		.uleb128 0x13
 3749 010e 38       		.uleb128 0x38
 3750 010f 05       		.uleb128 0x5
 3751 0110 00       		.byte	0
 3752 0111 00       		.byte	0
 3753 0112 17       		.uleb128 0x17
 3754 0113 17       		.uleb128 0x17
 3755 0114 01       		.byte	0x1
 3756 0115 03       		.uleb128 0x3
 3757 0116 0E       		.uleb128 0xe
ARM GAS  /var/folders/l5/0x54b2c10074c8bt31ycjvl80000gp/T//ccUNC6Ac.s 			page 67


 3758 0117 0B       		.uleb128 0xb
 3759 0118 05       		.uleb128 0x5
 3760 0119 3A       		.uleb128 0x3a
 3761 011a 0B       		.uleb128 0xb
 3762 011b 3B       		.uleb128 0x3b
 3763 011c 0B       		.uleb128 0xb
 3764 011d 39       		.uleb128 0x39
 3765 011e 0B       		.uleb128 0xb
 3766 011f 01       		.uleb128 0x1
 3767 0120 13       		.uleb128 0x13
 3768 0121 00       		.byte	0
 3769 0122 00       		.byte	0
 3770 0123 18       		.uleb128 0x18
 3771 0124 0D       		.uleb128 0xd
 3772 0125 00       		.byte	0
 3773 0126 03       		.uleb128 0x3
 3774 0127 08       		.uleb128 0x8
 3775 0128 3A       		.uleb128 0x3a
 3776 0129 0B       		.uleb128 0xb
 3777 012a 3B       		.uleb128 0x3b
 3778 012b 0B       		.uleb128 0xb
 3779 012c 39       		.uleb128 0x39
 3780 012d 0B       		.uleb128 0xb
 3781 012e 49       		.uleb128 0x49
 3782 012f 13       		.uleb128 0x13
 3783 0130 00       		.byte	0
 3784 0131 00       		.byte	0
 3785 0132 19       		.uleb128 0x19
 3786 0133 21       		.uleb128 0x21
 3787 0134 00       		.byte	0
 3788 0135 49       		.uleb128 0x49
 3789 0136 13       		.uleb128 0x13
 3790 0137 2F       		.uleb128 0x2f
 3791 0138 05       		.uleb128 0x5
 3792 0139 00       		.byte	0
 3793 013a 00       		.byte	0
 3794 013b 1A       		.uleb128 0x1a
 3795 013c 21       		.uleb128 0x21
 3796 013d 00       		.byte	0
 3797 013e 00       		.byte	0
 3798 013f 00       		.byte	0
 3799 0140 1B       		.uleb128 0x1b
 3800 0141 34       		.uleb128 0x34
 3801 0142 00       		.byte	0
 3802 0143 03       		.uleb128 0x3
 3803 0144 08       		.uleb128 0x8
 3804 0145 3A       		.uleb128 0x3a
 3805 0146 0B       		.uleb128 0xb
 3806 0147 3B       		.uleb128 0x3b
 3807 0148 0B       		.uleb128 0xb
 3808 0149 39       		.uleb128 0x39
 3809 014a 0B       		.uleb128 0xb
 3810 014b 49       		.uleb128 0x49
 3811 014c 13       		.uleb128 0x13
 3812 014d 3F       		.uleb128 0x3f
 3813 014e 19       		.uleb128 0x19
 3814 014f 3C       		.uleb128 0x3c
ARM GAS  /var/folders/l5/0x54b2c10074c8bt31ycjvl80000gp/T//ccUNC6Ac.s 			page 68


 3815 0150 19       		.uleb128 0x19
 3816 0151 00       		.byte	0
 3817 0152 00       		.byte	0
 3818 0153 1C       		.uleb128 0x1c
 3819 0154 34       		.uleb128 0x34
 3820 0155 00       		.byte	0
 3821 0156 03       		.uleb128 0x3
 3822 0157 08       		.uleb128 0x8
 3823 0158 3A       		.uleb128 0x3a
 3824 0159 0B       		.uleb128 0xb
 3825 015a 3B       		.uleb128 0x3b
 3826 015b 0B       		.uleb128 0xb
 3827 015c 39       		.uleb128 0x39
 3828 015d 0B       		.uleb128 0xb
 3829 015e 49       		.uleb128 0x49
 3830 015f 13       		.uleb128 0x13
 3831 0160 02       		.uleb128 0x2
 3832 0161 18       		.uleb128 0x18
 3833 0162 00       		.byte	0
 3834 0163 00       		.byte	0
 3835 0164 1D       		.uleb128 0x1d
 3836 0165 34       		.uleb128 0x34
 3837 0166 00       		.byte	0
 3838 0167 03       		.uleb128 0x3
 3839 0168 0E       		.uleb128 0xe
 3840 0169 3A       		.uleb128 0x3a
 3841 016a 0B       		.uleb128 0xb
 3842 016b 3B       		.uleb128 0x3b
 3843 016c 0B       		.uleb128 0xb
 3844 016d 39       		.uleb128 0x39
 3845 016e 0B       		.uleb128 0xb
 3846 016f 49       		.uleb128 0x49
 3847 0170 13       		.uleb128 0x13
 3848 0171 3F       		.uleb128 0x3f
 3849 0172 19       		.uleb128 0x19
 3850 0173 02       		.uleb128 0x2
 3851 0174 18       		.uleb128 0x18
 3852 0175 00       		.byte	0
 3853 0176 00       		.byte	0
 3854 0177 1E       		.uleb128 0x1e
 3855 0178 2E       		.uleb128 0x2e
 3856 0179 01       		.byte	0x1
 3857 017a 03       		.uleb128 0x3
 3858 017b 0E       		.uleb128 0xe
 3859 017c 3A       		.uleb128 0x3a
 3860 017d 0B       		.uleb128 0xb
 3861 017e 3B       		.uleb128 0x3b
 3862 017f 0B       		.uleb128 0xb
 3863 0180 39       		.uleb128 0x39
 3864 0181 0B       		.uleb128 0xb
 3865 0182 27       		.uleb128 0x27
 3866 0183 19       		.uleb128 0x19
 3867 0184 11       		.uleb128 0x11
 3868 0185 01       		.uleb128 0x1
 3869 0186 12       		.uleb128 0x12
 3870 0187 06       		.uleb128 0x6
 3871 0188 40       		.uleb128 0x40
ARM GAS  /var/folders/l5/0x54b2c10074c8bt31ycjvl80000gp/T//ccUNC6Ac.s 			page 69


 3872 0189 18       		.uleb128 0x18
 3873 018a 9742     		.uleb128 0x2117
 3874 018c 19       		.uleb128 0x19
 3875 018d 01       		.uleb128 0x1
 3876 018e 13       		.uleb128 0x13
 3877 018f 00       		.byte	0
 3878 0190 00       		.byte	0
 3879 0191 1F       		.uleb128 0x1f
 3880 0192 34       		.uleb128 0x34
 3881 0193 00       		.byte	0
 3882 0194 03       		.uleb128 0x3
 3883 0195 0E       		.uleb128 0xe
 3884 0196 3A       		.uleb128 0x3a
 3885 0197 0B       		.uleb128 0xb
 3886 0198 3B       		.uleb128 0x3b
 3887 0199 0B       		.uleb128 0xb
 3888 019a 39       		.uleb128 0x39
 3889 019b 0B       		.uleb128 0xb
 3890 019c 49       		.uleb128 0x49
 3891 019d 13       		.uleb128 0x13
 3892 019e 02       		.uleb128 0x2
 3893 019f 17       		.uleb128 0x17
 3894 01a0 B742     		.uleb128 0x2137
 3895 01a2 17       		.uleb128 0x17
 3896 01a3 00       		.byte	0
 3897 01a4 00       		.byte	0
 3898 01a5 20       		.uleb128 0x20
 3899 01a6 34       		.uleb128 0x34
 3900 01a7 00       		.byte	0
 3901 01a8 03       		.uleb128 0x3
 3902 01a9 0E       		.uleb128 0xe
 3903 01aa 3A       		.uleb128 0x3a
 3904 01ab 0B       		.uleb128 0xb
 3905 01ac 3B       		.uleb128 0x3b
 3906 01ad 0B       		.uleb128 0xb
 3907 01ae 39       		.uleb128 0x39
 3908 01af 0B       		.uleb128 0xb
 3909 01b0 49       		.uleb128 0x49
 3910 01b1 13       		.uleb128 0x13
 3911 01b2 02       		.uleb128 0x2
 3912 01b3 18       		.uleb128 0x18
 3913 01b4 00       		.byte	0
 3914 01b5 00       		.byte	0
 3915 01b6 21       		.uleb128 0x21
 3916 01b7 34       		.uleb128 0x34
 3917 01b8 00       		.byte	0
 3918 01b9 03       		.uleb128 0x3
 3919 01ba 08       		.uleb128 0x8
 3920 01bb 3A       		.uleb128 0x3a
 3921 01bc 0B       		.uleb128 0xb
 3922 01bd 3B       		.uleb128 0x3b
 3923 01be 0B       		.uleb128 0xb
 3924 01bf 39       		.uleb128 0x39
 3925 01c0 0B       		.uleb128 0xb
 3926 01c1 49       		.uleb128 0x49
 3927 01c2 13       		.uleb128 0x13
 3928 01c3 02       		.uleb128 0x2
ARM GAS  /var/folders/l5/0x54b2c10074c8bt31ycjvl80000gp/T//ccUNC6Ac.s 			page 70


 3929 01c4 17       		.uleb128 0x17
 3930 01c5 B742     		.uleb128 0x2137
 3931 01c7 17       		.uleb128 0x17
 3932 01c8 00       		.byte	0
 3933 01c9 00       		.byte	0
 3934 01ca 22       		.uleb128 0x22
 3935 01cb 898201   		.uleb128 0x4109
 3936 01ce 01       		.byte	0x1
 3937 01cf 11       		.uleb128 0x11
 3938 01d0 01       		.uleb128 0x1
 3939 01d1 31       		.uleb128 0x31
 3940 01d2 13       		.uleb128 0x13
 3941 01d3 01       		.uleb128 0x1
 3942 01d4 13       		.uleb128 0x13
 3943 01d5 00       		.byte	0
 3944 01d6 00       		.byte	0
 3945 01d7 23       		.uleb128 0x23
 3946 01d8 8A8201   		.uleb128 0x410a
 3947 01db 00       		.byte	0
 3948 01dc 02       		.uleb128 0x2
 3949 01dd 18       		.uleb128 0x18
 3950 01de 9142     		.uleb128 0x2111
 3951 01e0 18       		.uleb128 0x18
 3952 01e1 00       		.byte	0
 3953 01e2 00       		.byte	0
 3954 01e3 24       		.uleb128 0x24
 3955 01e4 898201   		.uleb128 0x4109
 3956 01e7 00       		.byte	0
 3957 01e8 11       		.uleb128 0x11
 3958 01e9 01       		.uleb128 0x1
 3959 01ea 31       		.uleb128 0x31
 3960 01eb 13       		.uleb128 0x13
 3961 01ec 00       		.byte	0
 3962 01ed 00       		.byte	0
 3963 01ee 25       		.uleb128 0x25
 3964 01ef 898201   		.uleb128 0x4109
 3965 01f2 01       		.byte	0x1
 3966 01f3 11       		.uleb128 0x11
 3967 01f4 01       		.uleb128 0x1
 3968 01f5 31       		.uleb128 0x31
 3969 01f6 13       		.uleb128 0x13
 3970 01f7 00       		.byte	0
 3971 01f8 00       		.byte	0
 3972 01f9 26       		.uleb128 0x26
 3973 01fa 898201   		.uleb128 0x4109
 3974 01fd 01       		.byte	0x1
 3975 01fe 11       		.uleb128 0x11
 3976 01ff 01       		.uleb128 0x1
 3977 0200 9542     		.uleb128 0x2115
 3978 0202 19       		.uleb128 0x19
 3979 0203 31       		.uleb128 0x31
 3980 0204 13       		.uleb128 0x13
 3981 0205 00       		.byte	0
 3982 0206 00       		.byte	0
 3983 0207 27       		.uleb128 0x27
 3984 0208 2E       		.uleb128 0x2e
 3985 0209 00       		.byte	0
ARM GAS  /var/folders/l5/0x54b2c10074c8bt31ycjvl80000gp/T//ccUNC6Ac.s 			page 71


 3986 020a 3F       		.uleb128 0x3f
 3987 020b 19       		.uleb128 0x19
 3988 020c 3C       		.uleb128 0x3c
 3989 020d 19       		.uleb128 0x19
 3990 020e 6E       		.uleb128 0x6e
 3991 020f 0E       		.uleb128 0xe
 3992 0210 03       		.uleb128 0x3
 3993 0211 0E       		.uleb128 0xe
 3994 0212 3A       		.uleb128 0x3a
 3995 0213 0B       		.uleb128 0xb
 3996 0214 3B       		.uleb128 0x3b
 3997 0215 0B       		.uleb128 0xb
 3998 0216 39       		.uleb128 0x39
 3999 0217 0B       		.uleb128 0xb
 4000 0218 00       		.byte	0
 4001 0219 00       		.byte	0
 4002 021a 00       		.byte	0
 4003              		.section	.debug_loc,"",%progbits
 4004              	.Ldebug_loc0:
 4005              	.LVUS0:
 4006 0000 00       		.uleb128 .LVU11
 4007 0001 00       		.uleb128 .LVU12
 4008 0002 00       		.uleb128 .LVU19
 4009 0003 00       		.uleb128 .LVU20
 4010 0004 00       		.uleb128 .LVU25
 4011 0005 00       		.uleb128 .LVU26
 4012 0006 00       		.uleb128 .LVU33
 4013 0007 00       		.uleb128 .LVU37
 4014 0008 00       		.uleb128 .LVU41
 4015 0009 00       		.uleb128 .LVU42
 4016 000a 00       		.uleb128 .LVU49
 4017 000b 00       		.uleb128 .LVU53
 4018 000c 00       		.uleb128 .LVU84
 4019 000d 00       		.uleb128 .LVU85
 4020 000e 00       		.uleb128 .LVU96
 4021 000f 00       		.uleb128 .LVU97
 4022 0010 00       		.uleb128 .LVU101
 4023 0011 00       		.uleb128 .LVU102
 4024 0012 00       		.uleb128 .LVU110
 4025 0013 00       		.uleb128 .LVU111
 4026 0014 00       		.uleb128 .LVU118
 4027 0015 00       		.uleb128 .LVU122
 4028 0016 00       		.uleb128 .LVU152
 4029 0017 00       		.uleb128 .LVU153
 4030 0018 00       		.uleb128 .LVU157
 4031 0019 00       		.uleb128 .LVU158
 4032 001a 00       		.uleb128 .LVU162
 4033 001b 00       		.uleb128 .LVU163
 4034 001c 00       		.uleb128 .LVU167
 4035 001d 00       		.uleb128 .LVU168
 4036 001e 00       		.uleb128 .LVU172
 4037 001f 00       		.uleb128 .LVU175
 4038 0020 00       		.uleb128 .LVU184
 4039 0021 00       		.uleb128 .LVU188
 4040 0022 00       		.uleb128 .LVU220
 4041 0023 00       		.uleb128 .LVU221
 4042 0024 00       		.uleb128 .LVU225
ARM GAS  /var/folders/l5/0x54b2c10074c8bt31ycjvl80000gp/T//ccUNC6Ac.s 			page 72


 4043 0025 00       		.uleb128 .LVU226
 4044 0026 00       		.uleb128 .LVU230
 4045 0027 00       		.uleb128 .LVU231
 4046 0028 00       		.uleb128 .LVU235
 4047 0029 00       		.uleb128 .LVU236
 4048 002a 00       		.uleb128 .LVU240
 4049 002b 00       		.uleb128 .LVU244
 4050 002c 00       		.uleb128 .LVU253
 4051 002d 00       		.uleb128 .LVU257
 4052              	.LLST0:
 4053 002e 44000000 		.4byte	.LVL2
 4054 0032 4C000000 		.4byte	.LVL3
 4055 0036 0100     		.2byte	0x1
 4056 0038 50       		.byte	0x50
 4057 0039 78000000 		.4byte	.LVL6
 4058 003d 80000000 		.4byte	.LVL7
 4059 0041 0100     		.2byte	0x1
 4060 0043 50       		.byte	0x50
 4061 0044 A8000000 		.4byte	.LVL11
 4062 0048 B8000000 		.4byte	.LVL12
 4063 004c 0100     		.2byte	0x1
 4064 004e 50       		.byte	0x50
 4065 004f D8000000 		.4byte	.LVL15
 4066 0053 EC000000 		.4byte	.LVL16
 4067 0057 0100     		.2byte	0x1
 4068 0059 50       		.byte	0x50
 4069 005a 08010000 		.4byte	.LVL18
 4070 005e 18010000 		.4byte	.LVL19
 4071 0062 0100     		.2byte	0x1
 4072 0064 50       		.byte	0x50
 4073 0065 38010000 		.4byte	.LVL22
 4074 0069 4C010000 		.4byte	.LVL23
 4075 006d 0100     		.2byte	0x1
 4076 006f 50       		.byte	0x50
 4077 0070 E8010000 		.4byte	.LVL30
 4078 0074 F0010000 		.4byte	.LVL31
 4079 0078 0100     		.2byte	0x1
 4080 007a 50       		.byte	0x50
 4081 007b 34020000 		.4byte	.LVL36
 4082 007f 3C020000 		.4byte	.LVL37
 4083 0083 0100     		.2byte	0x1
 4084 0085 50       		.byte	0x50
 4085 0086 5C020000 		.4byte	.LVL39
 4086 008a 64020000 		.4byte	.LVL40
 4087 008e 0100     		.2byte	0x1
 4088 0090 50       		.byte	0x50
 4089 0091 CC020000 		.4byte	.LVL44
 4090 0095 DC020000 		.4byte	.LVL45
 4091 0099 0100     		.2byte	0x1
 4092 009b 50       		.byte	0x50
 4093 009c FC020000 		.4byte	.LVL48
 4094 00a0 10030000 		.4byte	.LVL49
 4095 00a4 0100     		.2byte	0x1
 4096 00a6 50       		.byte	0x50
 4097 00a7 A4030000 		.4byte	.LVL54
 4098 00ab AC030000 		.4byte	.LVL55
 4099 00af 0100     		.2byte	0x1
ARM GAS  /var/folders/l5/0x54b2c10074c8bt31ycjvl80000gp/T//ccUNC6Ac.s 			page 73


 4100 00b1 50       		.byte	0x50
 4101 00b2 C8030000 		.4byte	.LVL57
 4102 00b6 D0030000 		.4byte	.LVL58
 4103 00ba 0100     		.2byte	0x1
 4104 00bc 50       		.byte	0x50
 4105 00bd EC030000 		.4byte	.LVL60
 4106 00c1 F4030000 		.4byte	.LVL61
 4107 00c5 0100     		.2byte	0x1
 4108 00c7 50       		.byte	0x50
 4109 00c8 10040000 		.4byte	.LVL63
 4110 00cc 18040000 		.4byte	.LVL64
 4111 00d0 0100     		.2byte	0x1
 4112 00d2 50       		.byte	0x50
 4113 00d3 34040000 		.4byte	.LVL66
 4114 00d7 40040000 		.4byte	.LVL67
 4115 00db 0100     		.2byte	0x1
 4116 00dd 50       		.byte	0x50
 4117 00de 8C040000 		.4byte	.LVL72
 4118 00e2 98040000 		.4byte	.LVL73
 4119 00e6 0100     		.2byte	0x1
 4120 00e8 50       		.byte	0x50
 4121 00e9 4C050000 		.4byte	.LVL81
 4122 00ed 54050000 		.4byte	.LVL82
 4123 00f1 0100     		.2byte	0x1
 4124 00f3 50       		.byte	0x50
 4125 00f4 70050000 		.4byte	.LVL84
 4126 00f8 78050000 		.4byte	.LVL85
 4127 00fc 0100     		.2byte	0x1
 4128 00fe 50       		.byte	0x50
 4129 00ff 94050000 		.4byte	.LVL87
 4130 0103 9C050000 		.4byte	.LVL88
 4131 0107 0100     		.2byte	0x1
 4132 0109 50       		.byte	0x50
 4133 010a B8050000 		.4byte	.LVL90
 4134 010e C0050000 		.4byte	.LVL91
 4135 0112 0100     		.2byte	0x1
 4136 0114 50       		.byte	0x50
 4137 0115 DC050000 		.4byte	.LVL93
 4138 0119 E8050000 		.4byte	.LVL94
 4139 011d 0100     		.2byte	0x1
 4140 011f 50       		.byte	0x50
 4141 0120 34060000 		.4byte	.LVL99
 4142 0124 40060000 		.4byte	.LVL100
 4143 0128 0100     		.2byte	0x1
 4144 012a 50       		.byte	0x50
 4145 012b 00000000 		.4byte	0
 4146 012f 00000000 		.4byte	0
 4147              	.LVUS1:
 4148 0133 00       		.uleb128 .LVU9
 4149 0134 01       		.uleb128 .LVU14
 4150 0135 01       		.uleb128 .LVU14
 4151 0136 00       		.uleb128 .LVU15
 4152 0137 00       		.uleb128 .LVU15
 4153 0138 00       		.uleb128 .LVU21
 4154 0139 00       		.uleb128 .LVU22
 4155 013a 03       		.uleb128 .LVU80
 4156 013b 03       		.uleb128 .LVU80
ARM GAS  /var/folders/l5/0x54b2c10074c8bt31ycjvl80000gp/T//ccUNC6Ac.s 			page 74


 4157 013c 00       		.uleb128 .LVU82
 4158 013d 00       		.uleb128 .LVU82
 4159 013e 00       		.uleb128 .LVU90
 4160 013f 00       		.uleb128 .LVU90
 4161 0140 00       		.uleb128 .LVU91
 4162 0141 00       		.uleb128 .LVU91
 4163 0142 00       		.uleb128 .LVU178
 4164 0143 00       		.uleb128 .LVU179
 4165 0144 00       		.uleb128 .LVU193
 4166 0145 00       		.uleb128 .LVU193
 4167 0146 00       		.uleb128 .LVU194
 4168 0147 00       		.uleb128 .LVU194
 4169 0148 00       		.uleb128 .LVU247
 4170 0149 00       		.uleb128 .LVU248
 4171 014a 00       		.uleb128 .LVU262
 4172 014b 00       		.uleb128 .LVU262
 4173 014c 00       		.uleb128 .LVU263
 4174 014d 00       		.uleb128 .LVU263
 4175 014e 00       		.uleb128 .LVU313
 4176              	.LLST1:
 4177 014f 34000000 		.4byte	.LVL1
 4178 0153 54000000 		.4byte	.LVL4
 4179 0157 0400     		.2byte	0x4
 4180 0159 74       		.byte	0x74
 4181 015a BE7F     		.sleb128 -66
 4182 015c 9F       		.byte	0x9f
 4183 015d 54000000 		.4byte	.LVL4
 4184 0161 5C000000 		.4byte	.LVL5
 4185 0165 0400     		.2byte	0x4
 4186 0167 74       		.byte	0x74
 4187 0168 BF7F     		.sleb128 -65
 4188 016a 9F       		.byte	0x9f
 4189 016b 5C000000 		.4byte	.LVL5
 4190 016f 90000000 		.4byte	.LVL9
 4191 0173 0400     		.2byte	0x4
 4192 0175 74       		.byte	0x74
 4193 0176 BE7F     		.sleb128 -66
 4194 0178 9F       		.byte	0x9f
 4195 0179 98000000 		.4byte	.LVL10
 4196 017d D0010000 		.4byte	.LVL28
 4197 0181 0400     		.2byte	0x4
 4198 0183 74       		.byte	0x74
 4199 0184 BE7F     		.sleb128 -66
 4200 0186 9F       		.byte	0x9f
 4201 0187 D0010000 		.4byte	.LVL28
 4202 018b D8010000 		.4byte	.LVL29
 4203 018f 0200     		.2byte	0x2
 4204 0191 30       		.byte	0x30
 4205 0192 9F       		.byte	0x9f
 4206 0193 D8010000 		.4byte	.LVL29
 4207 0197 08020000 		.4byte	.LVL33
 4208 019b 0500     		.2byte	0x5
 4209 019d 35       		.byte	0x35
 4210 019e 74       		.byte	0x74
 4211 019f 00       		.sleb128 0
 4212 01a0 1C       		.byte	0x1c
 4213 01a1 9F       		.byte	0x9f
ARM GAS  /var/folders/l5/0x54b2c10074c8bt31ycjvl80000gp/T//ccUNC6Ac.s 			page 75


 4214 01a2 08020000 		.4byte	.LVL33
 4215 01a6 0C020000 		.4byte	.LVL34
 4216 01aa 0500     		.2byte	0x5
 4217 01ac 36       		.byte	0x36
 4218 01ad 74       		.byte	0x74
 4219 01ae 00       		.sleb128 0
 4220 01af 1C       		.byte	0x1c
 4221 01b0 9F       		.byte	0x9f
 4222 01b1 0C020000 		.4byte	.LVL34
 4223 01b5 78040000 		.4byte	.LVL70
 4224 01b9 0500     		.2byte	0x5
 4225 01bb 35       		.byte	0x35
 4226 01bc 74       		.byte	0x74
 4227 01bd 00       		.sleb128 0
 4228 01be 1C       		.byte	0x1c
 4229 01bf 9F       		.byte	0x9f
 4230 01c0 7C040000 		.4byte	.LVL71
 4231 01c4 B0040000 		.4byte	.LVL75
 4232 01c8 0500     		.2byte	0x5
 4233 01ca 35       		.byte	0x35
 4234 01cb 74       		.byte	0x74
 4235 01cc 00       		.sleb128 0
 4236 01cd 1C       		.byte	0x1c
 4237 01ce 9F       		.byte	0x9f
 4238 01cf B0040000 		.4byte	.LVL75
 4239 01d3 B4040000 		.4byte	.LVL76
 4240 01d7 0500     		.2byte	0x5
 4241 01d9 36       		.byte	0x36
 4242 01da 74       		.byte	0x74
 4243 01db 00       		.sleb128 0
 4244 01dc 1C       		.byte	0x1c
 4245 01dd 9F       		.byte	0x9f
 4246 01de B4040000 		.4byte	.LVL76
 4247 01e2 20060000 		.4byte	.LVL97
 4248 01e6 0500     		.2byte	0x5
 4249 01e8 35       		.byte	0x35
 4250 01e9 74       		.byte	0x74
 4251 01ea 00       		.sleb128 0
 4252 01eb 1C       		.byte	0x1c
 4253 01ec 9F       		.byte	0x9f
 4254 01ed 24060000 		.4byte	.LVL98
 4255 01f1 58060000 		.4byte	.LVL102
 4256 01f5 0500     		.2byte	0x5
 4257 01f7 35       		.byte	0x35
 4258 01f8 74       		.byte	0x74
 4259 01f9 00       		.sleb128 0
 4260 01fa 1C       		.byte	0x1c
 4261 01fb 9F       		.byte	0x9f
 4262 01fc 58060000 		.4byte	.LVL102
 4263 0200 5C060000 		.4byte	.LVL103
 4264 0204 0500     		.2byte	0x5
 4265 0206 36       		.byte	0x36
 4266 0207 74       		.byte	0x74
 4267 0208 00       		.sleb128 0
 4268 0209 1C       		.byte	0x1c
 4269 020a 9F       		.byte	0x9f
 4270 020b 5C060000 		.4byte	.LVL103
ARM GAS  /var/folders/l5/0x54b2c10074c8bt31ycjvl80000gp/T//ccUNC6Ac.s 			page 76


 4271 020f 84070000 		.4byte	.LVL112
 4272 0213 0500     		.2byte	0x5
 4273 0215 35       		.byte	0x35
 4274 0216 74       		.byte	0x74
 4275 0217 00       		.sleb128 0
 4276 0218 1C       		.byte	0x1c
 4277 0219 9F       		.byte	0x9f
 4278 021a 00000000 		.4byte	0
 4279 021e 00000000 		.4byte	0
 4280              		.section	.debug_aranges,"",%progbits
 4281 0000 24000000 		.4byte	0x24
 4282 0004 0200     		.2byte	0x2
 4283 0006 00000000 		.4byte	.Ldebug_info0
 4284 000a 04       		.byte	0x4
 4285 000b 00       		.byte	0
 4286 000c 0000     		.2byte	0
 4287 000e 0000     		.2byte	0
 4288 0010 00000000 		.4byte	.LFB8
 4289 0014 94070000 		.4byte	.LFE8-.LFB8
 4290 0018 00000000 		.4byte	.LFB7
 4291 001c 18000000 		.4byte	.LFE7-.LFB7
 4292 0020 00000000 		.4byte	0
 4293 0024 00000000 		.4byte	0
 4294              		.section	.debug_ranges,"",%progbits
 4295              	.Ldebug_ranges0:
 4296 0000 00000000 		.4byte	.LFB8
 4297 0004 94070000 		.4byte	.LFE8
 4298 0008 00000000 		.4byte	.LFB7
 4299 000c 18000000 		.4byte	.LFE7
 4300 0010 00000000 		.4byte	0
 4301 0014 00000000 		.4byte	0
 4302              		.section	.debug_line,"",%progbits
 4303              	.Ldebug_line0:
 4304 0000 F2080000 		.section	.debug_str,"MS",%progbits,1
 4304      0300A301 
 4304      00000201 
 4304      FB0E0D00 
 4304      01010101 
 4305              	.LASF97:
 4306 0000 63665F6F 		.ascii	"cf_off_older\000"
 4306      66665F6F 
 4306      6C646572 
 4306      00
 4307              	.LASF40:
 4308 000d 705F6D73 		.ascii	"p_msg\000"
 4308      6700
 4309              	.LASF82:
 4310 0013 7264796D 		.ascii	"rdymsg\000"
 4310      736700
 4311              	.LASF78:
 4312 001a 6D625F72 		.ascii	"mb_rdptr\000"
 4312      64707472 
 4312      00
 4313              	.LASF4:
 4314 0023 5F5F7569 		.ascii	"__uint8_t\000"
 4314      6E74385F 
 4314      7400
ARM GAS  /var/folders/l5/0x54b2c10074c8bt31ycjvl80000gp/T//ccUNC6Ac.s 			page 77


 4315              	.LASF126:
 4316 002d 63684D42 		.ascii	"chMBPostI\000"
 4316      506F7374 
 4316      4900
 4317              	.LASF66:
 4318 0037 76746C69 		.ascii	"vtlist\000"
 4318      737400
 4319              	.LASF81:
 4320 003e 4D61696C 		.ascii	"Mailbox\000"
 4320      626F7800 
 4321              	.LASF127:
 4322 0046 63684D42 		.ascii	"chMBPostAheadI\000"
 4322      506F7374 
 4322      41686561 
 4322      644900
 4323              	.LASF12:
 4324 0055 6C6F6E67 		.ascii	"long long unsigned int\000"
 4324      206C6F6E 
 4324      6720756E 
 4324      7369676E 
 4324      65642069 
 4325              	.LASF118:
 4326 006c 70617474 		.ascii	"patternmbox\000"
 4326      65726E6D 
 4326      626F7800 
 4327              	.LASF93:
 4328 0078 63685F74 		.ascii	"ch_threadsize\000"
 4328      68726561 
 4328      6473697A 
 4328      6500
 4329              	.LASF83:
 4330 0086 65786974 		.ascii	"exitcode\000"
 4330      636F6465 
 4330      00
 4331              	.LASF133:
 4332 008f 63684D42 		.ascii	"chMBInit\000"
 4332      496E6974 
 4332      00
 4333              	.LASF115:
 4334 0098 74657374 		.ascii	"test\000"
 4334      00
 4335              	.LASF77:
 4336 009d 6D625F77 		.ascii	"mb_wrptr\000"
 4336      72707472 
 4336      00
 4337              	.LASF29:
 4338 00a6 705F7072 		.ascii	"p_prio\000"
 4338      696F00
 4339              	.LASF100:
 4340 00ad 63665F6F 		.ascii	"cf_off_state\000"
 4340      66665F73 
 4340      74617465 
 4340      00
 4341              	.LASF111:
 4342 00ba 74656172 		.ascii	"teardown\000"
 4342      646F776E 
 4342      00
ARM GAS  /var/folders/l5/0x54b2c10074c8bt31ycjvl80000gp/T//ccUNC6Ac.s 			page 78


 4343              	.LASF11:
 4344 00c3 6C6F6E67 		.ascii	"long long int\000"
 4344      206C6F6E 
 4344      6720696E 
 4344      7400
 4345              	.LASF1:
 4346 00d1 7369676E 		.ascii	"signed char\000"
 4346      65642063 
 4346      68617200 
 4347              	.LASF99:
 4348 00dd 63665F6F 		.ascii	"cf_off_stklimit\000"
 4348      66665F73 
 4348      746B6C69 
 4348      6D697400 
 4349              	.LASF101:
 4350 00ed 63665F6F 		.ascii	"cf_off_flags\000"
 4350      66665F66 
 4350      6C616773 
 4350      00
 4351              	.LASF17:
 4352 00fa 626F6F6C 		.ascii	"bool_t\000"
 4352      5F7400
 4353              	.LASF34:
 4354 0101 705F7374 		.ascii	"p_state\000"
 4354      61746500 
 4355              	.LASF129:
 4356 0109 74657374 		.ascii	"test_emit_token\000"
 4356      5F656D69 
 4356      745F746F 
 4356      6B656E00 
 4357              	.LASF87:
 4358 0119 63685F69 		.ascii	"ch_identifier\000"
 4358      64656E74 
 4358      69666965 
 4358      7200
 4359              	.LASF124:
 4360 0127 63684D42 		.ascii	"chMBPost\000"
 4360      506F7374 
 4360      00
 4361              	.LASF8:
 4362 0130 6C6F6E67 		.ascii	"long int\000"
 4362      20696E74 
 4362      00
 4363              	.LASF19:
 4364 0139 74737461 		.ascii	"tstate_t\000"
 4364      74655F74 
 4364      00
 4365              	.LASF14:
 4366 0142 75696E74 		.ascii	"uint16_t\000"
 4366      31365F74 
 4366      00
 4367              	.LASF105:
 4368 014b 63686465 		.ascii	"chdebug_t\000"
 4368      6275675F 
 4368      7400
 4369              	.LASF113:
 4370 0155 62756666 		.ascii	"buffer\000"
ARM GAS  /var/folders/l5/0x54b2c10074c8bt31ycjvl80000gp/T//ccUNC6Ac.s 			page 79


 4370      657200
 4371              	.LASF31:
 4372 015c 705F6E65 		.ascii	"p_newer\000"
 4372      77657200 
 4373              	.LASF107:
 4374 0164 5F69646C 		.ascii	"_idle_thread_wa\000"
 4374      655F7468 
 4374      72656164 
 4374      5F776100 
 4375              	.LASF69:
 4376 0174 735F7175 		.ascii	"s_queue\000"
 4376      65756500 
 4377              	.LASF9:
 4378 017c 5F5F7569 		.ascii	"__uint32_t\000"
 4378      6E743332 
 4378      5F7400
 4379              	.LASF47:
 4380 0187 72656761 		.ascii	"regarm_t\000"
 4380      726D5F74 
 4380      00
 4381              	.LASF53:
 4382 0190 76745F70 		.ascii	"vt_prev\000"
 4382      72657600 
 4383              	.LASF25:
 4384 0198 636E745F 		.ascii	"cnt_t\000"
 4384      7400
 4385              	.LASF0:
 4386 019e 756E7369 		.ascii	"unsigned int\000"
 4386      676E6564 
 4386      20696E74 
 4386      00
 4387              	.LASF52:
 4388 01ab 76745F6E 		.ascii	"vt_next\000"
 4388      65787400 
 4389              	.LASF119:
 4390 01b3 6D736731 		.ascii	"msg1\000"
 4390      00
 4391              	.LASF120:
 4392 01b8 6D736732 		.ascii	"msg2\000"
 4392      00
 4393              	.LASF10:
 4394 01bd 6C6F6E67 		.ascii	"long unsigned int\000"
 4394      20756E73 
 4394      69676E65 
 4394      6420696E 
 4394      7400
 4395              	.LASF106:
 4396 01cf 63685F64 		.ascii	"ch_debug\000"
 4396      65627567 
 4396      00
 4397              	.LASF116:
 4398 01d8 74657374 		.ascii	"test_timer_done\000"
 4398      5F74696D 
 4398      65725F64 
 4398      6F6E6500 
 4399              	.LASF80:
 4400 01e8 6D625F65 		.ascii	"mb_emptysem\000"
ARM GAS  /var/folders/l5/0x54b2c10074c8bt31ycjvl80000gp/T//ccUNC6Ac.s 			page 80


 4400      6D707479 
 4400      73656D00 
 4401              	.LASF50:
 4402 01f4 76746675 		.ascii	"vtfunc_t\000"
 4402      6E635F74 
 4402      00
 4403              	.LASF70:
 4404 01fd 735F636E 		.ascii	"s_cnt\000"
 4404      7400
 4405              	.LASF109:
 4406 0203 6E616D65 		.ascii	"name\000"
 4406      00
 4407              	.LASF49:
 4408 0208 636F6E74 		.ascii	"context\000"
 4408      65787400 
 4409              	.LASF6:
 4410 0210 73686F72 		.ascii	"short unsigned int\000"
 4410      7420756E 
 4410      7369676E 
 4410      65642069 
 4410      6E7400
 4411              	.LASF131:
 4412 0223 63684D42 		.ascii	"chMBFetchI\000"
 4412      46657463 
 4412      684900
 4413              	.LASF22:
 4414 022e 6D73675F 		.ascii	"msg_t\000"
 4414      7400
 4415              	.LASF62:
 4416 0234 725F6E65 		.ascii	"r_newer\000"
 4416      77657200 
 4417              	.LASF134:
 4418 023c 474E5520 		.ascii	"GNU C17 8.3.1 20190703 (release) [gcc-8-branch revi"
 4418      43313720 
 4418      382E332E 
 4418      31203230 
 4418      31393037 
 4419 026f 73696F6E 		.ascii	"sion 273027] -mcpu=arm1176jz-s -mno-thumb-interwork"
 4419      20323733 
 4419      3032375D 
 4419      202D6D63 
 4419      70753D61 
 4420 02a2 202D6D66 		.ascii	" -mfloat-abi=soft -marm -march=armv6kz -ggdb -O2 -f"
 4420      6C6F6174 
 4420      2D616269 
 4420      3D736F66 
 4420      74202D6D 
 4421 02d5 6F6D6974 		.ascii	"omit-frame-pointer -ffunction-sections -fdata-secti"
 4421      2D667261 
 4421      6D652D70 
 4421      6F696E74 
 4421      6572202D 
 4422 0308 6F6E7300 		.ascii	"ons\000"
 4423              	.LASF114:
 4424 030c 74687265 		.ascii	"threads\000"
 4424      61647300 
 4425              	.LASF18:
ARM GAS  /var/folders/l5/0x54b2c10074c8bt31ycjvl80000gp/T//ccUNC6Ac.s 			page 81


 4426 0314 746D6F64 		.ascii	"tmode_t\000"
 4426      655F7400 
 4427              	.LASF122:
 4428 031c 6D626F78 		.ascii	"mbox1_setup\000"
 4428      315F7365 
 4428      74757000 
 4429              	.LASF45:
 4430 0328 54687265 		.ascii	"ThreadsList\000"
 4430      6164734C 
 4430      69737400 
 4431              	.LASF23:
 4432 0334 6576656E 		.ascii	"eventmask_t\000"
 4432      746D6173 
 4432      6B5F7400 
 4433              	.LASF71:
 4434 0340 4D757465 		.ascii	"Mutex\000"
 4434      7800
 4435              	.LASF117:
 4436 0346 74657374 		.ascii	"testmbox1\000"
 4436      6D626F78 
 4436      3100
 4437              	.LASF46:
 4438 0350 73746B61 		.ascii	"stkalign_t\000"
 4438      6C69676E 
 4438      5F7400
 4439              	.LASF88:
 4440 035b 63685F7A 		.ascii	"ch_zero\000"
 4440      65726F00 
 4441              	.LASF102:
 4442 0363 63665F6F 		.ascii	"cf_off_refs\000"
 4442      66665F72 
 4442      65667300 
 4443              	.LASF54:
 4444 036f 76745F74 		.ascii	"vt_time\000"
 4444      696D6500 
 4445              	.LASF55:
 4446 0377 76745F66 		.ascii	"vt_func\000"
 4446      756E6300 
 4447              	.LASF92:
 4448 037f 63685F74 		.ascii	"ch_timesize\000"
 4448      696D6573 
 4448      697A6500 
 4449              	.LASF132:
 4450 038b 63684D42 		.ascii	"chMBReset\000"
 4450      52657365 
 4450      7400
 4451              	.LASF98:
 4452 0395 63665F6F 		.ascii	"cf_off_name\000"
 4452      66665F6E 
 4452      616D6500 
 4453              	.LASF32:
 4454 03a1 705F6F6C 		.ascii	"p_older\000"
 4454      64657200 
 4455              	.LASF61:
 4456 03a9 725F6374 		.ascii	"r_ctx\000"
 4456      7800
 4457              	.LASF44:
ARM GAS  /var/folders/l5/0x54b2c10074c8bt31ycjvl80000gp/T//ccUNC6Ac.s 			page 82


 4458 03af 54687265 		.ascii	"ThreadsQueue\000"
 4458      61647351 
 4458      75657565 
 4458      00
 4459              	.LASF89:
 4460 03bc 63685F73 		.ascii	"ch_size\000"
 4460      697A6500 
 4461              	.LASF110:
 4462 03c4 73657475 		.ascii	"setup\000"
 4462      7000
 4463              	.LASF130:
 4464 03ca 5F746573 		.ascii	"_test_assert_sequence\000"
 4464      745F6173 
 4464      73657274 
 4464      5F736571 
 4464      75656E63 
 4465              	.LASF75:
 4466 03e0 6D625F62 		.ascii	"mb_buffer\000"
 4466      75666665 
 4466      7200
 4467              	.LASF121:
 4468 03ea 6D626F78 		.ascii	"mbox1_execute\000"
 4468      315F6578 
 4468      65637574 
 4468      6500
 4469              	.LASF64:
 4470 03f8 725F6375 		.ascii	"r_current\000"
 4470      7272656E 
 4470      7400
 4471              	.LASF63:
 4472 0402 725F6F6C 		.ascii	"r_older\000"
 4472      64657200 
 4473              	.LASF20:
 4474 040a 74726566 		.ascii	"trefs_t\000"
 4474      735F7400 
 4475              	.LASF91:
 4476 0412 63685F70 		.ascii	"ch_ptrsize\000"
 4476      74727369 
 4476      7A6500
 4477              	.LASF28:
 4478 041d 705F7072 		.ascii	"p_prev\000"
 4478      657600
 4479              	.LASF112:
 4480 0424 65786563 		.ascii	"execute\000"
 4480      75746500 
 4481              	.LASF21:
 4482 042c 74707269 		.ascii	"tprio_t\000"
 4482      6F5F7400 
 4483              	.LASF15:
 4484 0434 696E7433 		.ascii	"int32_t\000"
 4484      325F7400 
 4485              	.LASF2:
 4486 043c 756E7369 		.ascii	"unsigned char\000"
 4486      676E6564 
 4486      20636861 
 4486      7200
 4487              	.LASF72:
ARM GAS  /var/folders/l5/0x54b2c10074c8bt31ycjvl80000gp/T//ccUNC6Ac.s 			page 83


 4488 044a 6D5F7175 		.ascii	"m_queue\000"
 4488      65756500 
 4489              	.LASF76:
 4490 0452 6D625F74 		.ascii	"mb_top\000"
 4490      6F7000
 4491              	.LASF42:
 4492 0459 705F6D74 		.ascii	"p_mtxlist\000"
 4492      786C6973 
 4492      7400
 4493              	.LASF3:
 4494 0463 73686F72 		.ascii	"short int\000"
 4494      7420696E 
 4494      7400
 4495              	.LASF135:
 4496 046d 2E2E2F2E 		.ascii	"../../test/testmbox.c\000"
 4496      2E2F7465 
 4496      73742F74 
 4496      6573746D 
 4496      626F782E 
 4497              	.LASF104:
 4498 0483 63665F6F 		.ascii	"cf_off_time\000"
 4498      66665F74 
 4498      696D6500 
 4499              	.LASF60:
 4500 048f 725F7072 		.ascii	"r_prio\000"
 4500      696F00
 4501              	.LASF85:
 4502 0496 65776D61 		.ascii	"ewmask\000"
 4502      736B00
 4503              	.LASF27:
 4504 049d 705F6E65 		.ascii	"p_next\000"
 4504      787400
 4505              	.LASF103:
 4506 04a4 63665F6F 		.ascii	"cf_off_preempt\000"
 4506      66665F70 
 4506      7265656D 
 4506      707400
 4507              	.LASF35:
 4508 04b3 705F666C 		.ascii	"p_flags\000"
 4508      61677300 
 4509              	.LASF26:
 4510 04bb 54687265 		.ascii	"Thread\000"
 4510      616400
 4511              	.LASF96:
 4512 04c2 63665F6F 		.ascii	"cf_off_newer\000"
 4512      66665F6E 
 4512      65776572 
 4512      00
 4513              	.LASF108:
 4514 04cf 74657374 		.ascii	"testcase\000"
 4514      63617365 
 4514      00
 4515              	.LASF41:
 4516 04d8 705F6570 		.ascii	"p_epending\000"
 4516      656E6469 
 4516      6E6700
 4517              	.LASF16:
ARM GAS  /var/folders/l5/0x54b2c10074c8bt31ycjvl80000gp/T//ccUNC6Ac.s 			page 84


 4518 04e3 75696E74 		.ascii	"uint32_t\000"
 4518      33325F74 
 4518      00
 4519              	.LASF94:
 4520 04ec 63665F6F 		.ascii	"cf_off_prio\000"
 4520      66665F70 
 4520      72696F00 
 4521              	.LASF59:
 4522 04f8 725F7175 		.ascii	"r_queue\000"
 4522      65756500 
 4523              	.LASF51:
 4524 0500 56697274 		.ascii	"VirtualTimer\000"
 4524      75616C54 
 4524      696D6572 
 4524      00
 4525              	.LASF86:
 4526 050d 63686172 		.ascii	"char\000"
 4526      00
 4527              	.LASF137:
 4528 0512 74657374 		.ascii	"test_buffers\000"
 4528      5F627566 
 4528      66657273 
 4528      00
 4529              	.LASF5:
 4530 051f 5F5F7569 		.ascii	"__uint16_t\000"
 4530      6E743136 
 4530      5F7400
 4531              	.LASF74:
 4532 052a 6D5F6E65 		.ascii	"m_next\000"
 4532      787400
 4533              	.LASF24:
 4534 0531 73797374 		.ascii	"systime_t\000"
 4534      696D655F 
 4534      7400
 4535              	.LASF43:
 4536 053b 705F7265 		.ascii	"p_realprio\000"
 4536      616C7072 
 4536      696F00
 4537              	.LASF7:
 4538 0546 5F5F696E 		.ascii	"__int32_t\000"
 4538      7433325F 
 4538      7400
 4539              	.LASF37:
 4540 0550 705F7469 		.ascii	"p_time\000"
 4540      6D6500
 4541              	.LASF125:
 4542 0557 63684D42 		.ascii	"chMBPostAhead\000"
 4542      506F7374 
 4542      41686561 
 4542      6400
 4543              	.LASF48:
 4544 0565 696E7463 		.ascii	"intctx\000"
 4544      747800
 4545              	.LASF39:
 4546 056c 705F6D73 		.ascii	"p_msgqueue\000"
 4546      67717565 
 4546      756500
ARM GAS  /var/folders/l5/0x54b2c10074c8bt31ycjvl80000gp/T//ccUNC6Ac.s 			page 85


 4547              	.LASF128:
 4548 0577 63684D42 		.ascii	"chMBFetch\000"
 4548      46657463 
 4548      6800
 4549              	.LASF56:
 4550 0581 76745F70 		.ascii	"vt_par\000"
 4550      617200
 4551              	.LASF68:
 4552 0588 53656D61 		.ascii	"Semaphore\000"
 4552      70686F72 
 4552      6500
 4553              	.LASF79:
 4554 0592 6D625F66 		.ascii	"mb_fullsem\000"
 4554      756C6C73 
 4554      656D00
 4555              	.LASF95:
 4556 059d 63665F6F 		.ascii	"cf_off_ctx\000"
 4556      66665F63 
 4556      747800
 4557              	.LASF36:
 4558 05a8 705F7265 		.ascii	"p_refs\000"
 4558      667300
 4559              	.LASF65:
 4560 05af 52656164 		.ascii	"ReadyList\000"
 4560      794C6973 
 4560      7400
 4561              	.LASF67:
 4562 05b9 726C6973 		.ascii	"rlist\000"
 4562      7400
 4563              	.LASF13:
 4564 05bf 75696E74 		.ascii	"uint8_t\000"
 4564      385F7400 
 4565              	.LASF84:
 4566 05c7 77746F62 		.ascii	"wtobjp\000"
 4566      6A7000
 4567              	.LASF33:
 4568 05ce 705F6E61 		.ascii	"p_name\000"
 4568      6D6500
 4569              	.LASF123:
 4570 05d5 5F746573 		.ascii	"_test_assert\000"
 4570      745F6173 
 4570      73657274 
 4570      00
 4571              	.LASF57:
 4572 05e2 76745F73 		.ascii	"vt_systime\000"
 4572      79737469 
 4572      6D6500
 4573              	.LASF90:
 4574 05ed 63685F76 		.ascii	"ch_version\000"
 4574      65727369 
 4574      6F6E00
 4575              	.LASF136:
 4576 05f8 2F557365 		.ascii	"/Users/fernandoguirado/eclipse-workspace/ChibiOS-RP"
 4576      72732F66 
 4576      65726E61 
 4576      6E646F67 
 4576      75697261 
ARM GAS  /var/folders/l5/0x54b2c10074c8bt31ycjvl80000gp/T//ccUNC6Ac.s 			page 86


 4577 062b 692D636F 		.ascii	"i-copia/demos/timers\000"
 4577      7069612F 
 4577      64656D6F 
 4577      732F7469 
 4577      6D657273 
 4578              	.LASF58:
 4579 0640 56544C69 		.ascii	"VTList\000"
 4579      737400
 4580              	.LASF73:
 4581 0647 6D5F6F77 		.ascii	"m_owner\000"
 4581      6E657200 
 4582              	.LASF30:
 4583 064f 705F6374 		.ascii	"p_ctx\000"
 4583      7800
 4584              	.LASF38:
 4585 0655 705F7761 		.ascii	"p_waiting\000"
 4585      6974696E 
 4585      6700
 4586              		.ident	"GCC: (GNU Tools for Arm Embedded Processors 8-2019-q3-update) 8.3.1 20190703 (release) [gc
ARM GAS  /var/folders/l5/0x54b2c10074c8bt31ycjvl80000gp/T//ccUNC6Ac.s 			page 87


DEFINED SYMBOLS
                            *ABS*:0000000000000000 testmbox.c
/var/folders/l5/0x54b2c10074c8bt31ycjvl80000gp/T//ccUNC6Ac.s:16     .text.mbox1_execute:0000000000000000 $a
/var/folders/l5/0x54b2c10074c8bt31ycjvl80000gp/T//ccUNC6Ac.s:22     .text.mbox1_execute:0000000000000000 mbox1_execute
/var/folders/l5/0x54b2c10074c8bt31ycjvl80000gp/T//ccUNC6Ac.s:1141   .text.mbox1_execute:000000000000078c $d
/var/folders/l5/0x54b2c10074c8bt31ycjvl80000gp/T//ccUNC6Ac.s:1147   .text.mbox1_setup:0000000000000000 $a
/var/folders/l5/0x54b2c10074c8bt31ycjvl80000gp/T//ccUNC6Ac.s:1152   .text.mbox1_setup:0000000000000000 mbox1_setup
/var/folders/l5/0x54b2c10074c8bt31ycjvl80000gp/T//ccUNC6Ac.s:1168   .text.mbox1_setup:0000000000000010 $d
/var/folders/l5/0x54b2c10074c8bt31ycjvl80000gp/T//ccUNC6Ac.s:1199   .rodata.patternmbox:0000000000000000 patternmbox
/var/folders/l5/0x54b2c10074c8bt31ycjvl80000gp/T//ccUNC6Ac.s:1210   .rodata.testmbox1:0000000000000000 testmbox1
/var/folders/l5/0x54b2c10074c8bt31ycjvl80000gp/T//ccUNC6Ac.s:1176   .data.mb1:0000000000000000 $d
/var/folders/l5/0x54b2c10074c8bt31ycjvl80000gp/T//ccUNC6Ac.s:1180   .data.mb1:0000000000000000 mb1
/var/folders/l5/0x54b2c10074c8bt31ycjvl80000gp/T//ccUNC6Ac.s:1192   .rodata.mbox1_execute.str1.4:0000000000000000 $d
/var/folders/l5/0x54b2c10074c8bt31ycjvl80000gp/T//ccUNC6Ac.s:1196   .rodata.patternmbox:0000000000000000 $d
/var/folders/l5/0x54b2c10074c8bt31ycjvl80000gp/T//ccUNC6Ac.s:1203   .rodata.str1.4:0000000000000000 $d
/var/folders/l5/0x54b2c10074c8bt31ycjvl80000gp/T//ccUNC6Ac.s:1207   .rodata.testmbox1:0000000000000000 $d

UNDEFINED SYMBOLS
_test_assert
chMBPost
chMBPostAhead
chMBPostI
chMBPostAheadI
chMBFetch
test_emit_token
_test_assert_sequence
chMBFetchI
chMBReset
chMBInit
test
