ARM GAS  /var/folders/l5/0x54b2c10074c8bt31ycjvl80000gp/T//ccT1qQHo.s 			page 1


   1              		.cpu arm1176jz-s
   2              		.eabi_attribute 20, 1
   3              		.eabi_attribute 21, 1
   4              		.eabi_attribute 23, 3
   5              		.eabi_attribute 24, 1
   6              		.eabi_attribute 25, 1
   7              		.eabi_attribute 26, 1
   8              		.eabi_attribute 30, 2
   9              		.eabi_attribute 34, 1
  10              		.eabi_attribute 18, 4
  11              		.file	"testqueues.c"
  12              		.text
  13              	.Ltext0:
  14              		.cfi_sections	.debug_frame
  15              		.section	.text.notify,"ax",%progbits
  16              		.align	2
  17              		.arch armv6kz
  18              		.syntax unified
  19              		.arm
  20              		.fpu softvfp
  21              		.type	notify, %function
  22              	notify:
  23              	.LVL0:
  24              	.LFB7:
  25              		.file 1 "../../test/testqueues.c"
  26              		.loc 1 61 38 view -0
  27              		.cfi_startproc
  28              		@ args = 0, pretend = 0, frame = 0
  29              		@ frame_needed = 0, uses_anonymous_args = 0
  30              		@ link register save eliminated.
  31              		.loc 1 62 3 view .LVU1
  32              		.loc 1 63 1 is_stmt 0 view .LVU2
  33 0000 1EFF2FE1 		bx	lr
  34              		.cfi_endproc
  35              	.LFE7:
  36              		.size	notify, .-notify
  37              		.section	.text.thread1,"ax",%progbits
  38              		.align	2
  39              		.syntax unified
  40              		.arm
  41              		.fpu softvfp
  42              		.type	thread1, %function
  43              	thread1:
  44              	.LVL1:
  45              	.LFB9:
  46              		.loc 1 87 31 is_stmt 1 view -0
  47              		.cfi_startproc
  48              		@ args = 0, pretend = 0, frame = 0
  49              		@ frame_needed = 0, uses_anonymous_args = 0
  50              		.loc 1 89 3 view .LVU4
  51              		.loc 1 90 3 view .LVU5
  52              		.loc 1 87 31 is_stmt 0 view .LVU6
  53 0000 10402DE9 		push	{r4, lr}
  54              		.cfi_def_cfa_offset 8
  55              		.cfi_offset 4, -8
  56              		.cfi_offset 14, -4
  57              		.loc 1 90 3 view .LVU7
ARM GAS  /var/folders/l5/0x54b2c10074c8bt31ycjvl80000gp/T//ccT1qQHo.s 			page 2


  58 0004 C810A0E3 		mov	r1, #200
  59 0008 08009FE5 		ldr	r0, .L5
  60              	.LVL2:
  61              		.loc 1 90 3 view .LVU8
  62 000c FEFFFFEB 		bl	chIQGetTimeout
  63              	.LVL3:
  64              		.loc 1 91 3 is_stmt 1 view .LVU9
  65              		.loc 1 92 1 is_stmt 0 view .LVU10
  66 0010 0000A0E3 		mov	r0, #0
  67 0014 1080BDE8 		pop	{r4, pc}
  68              	.L6:
  69              		.align	2
  70              	.L5:
  71 0018 00000000 		.word	.LANCHOR0
  72              		.cfi_endproc
  73              	.LFE9:
  74              		.size	thread1, .-thread1
  75              		.section	.text.queues1_setup,"ax",%progbits
  76              		.align	2
  77              		.syntax unified
  78              		.arm
  79              		.fpu softvfp
  80              		.type	queues1_setup, %function
  81              	queues1_setup:
  82              	.LFB8:
  83              		.loc 1 82 33 is_stmt 1 view -0
  84              		.cfi_startproc
  85              		@ args = 0, pretend = 0, frame = 0
  86              		@ frame_needed = 0, uses_anonymous_args = 0
  87              		.loc 1 84 3 view .LVU12
  88 0000 0020A0E3 		mov	r2, #0
  89              		.loc 1 82 33 is_stmt 0 view .LVU13
  90 0004 04E02DE5 		str	lr, [sp, #-4]!
  91              		.cfi_def_cfa_offset 4
  92              		.cfi_offset 14, -4
  93              		.loc 1 84 19 view .LVU14
  94 0008 20309FE5 		ldr	r3, .L9
  95              		.loc 1 82 33 view .LVU15
  96 000c 0CD04DE2 		sub	sp, sp, #12
  97              		.cfi_def_cfa_offset 16
  98              		.loc 1 84 3 view .LVU16
  99 0010 00208DE5 		str	r2, [sp]
 100 0014 001093E5 		ldr	r1, [r3]
 101 0018 0420A0E3 		mov	r2, #4
 102 001c 10309FE5 		ldr	r3, .L9+4
 103 0020 10009FE5 		ldr	r0, .L9+8
 104 0024 FEFFFFEB 		bl	chIQInit
 105              	.LVL4:
 106              		.loc 1 85 1 view .LVU17
 107 0028 0CD08DE2 		add	sp, sp, #12
 108              		.cfi_def_cfa_offset 4
 109              		@ sp needed
 110 002c 04F09DE4 		ldr	pc, [sp], #4
 111              	.L10:
 112              		.align	2
 113              	.L9:
 114 0030 00000000 		.word	wa
ARM GAS  /var/folders/l5/0x54b2c10074c8bt31ycjvl80000gp/T//ccT1qQHo.s 			page 3


 115 0034 00000000 		.word	notify
 116 0038 00000000 		.word	.LANCHOR0
 117              		.cfi_endproc
 118              	.LFE8:
 119              		.size	queues1_setup, .-queues1_setup
 120              		.section	.text.thread2,"ax",%progbits
 121              		.align	2
 122              		.syntax unified
 123              		.arm
 124              		.fpu softvfp
 125              		.type	thread2, %function
 126              	thread2:
 127              	.LVL5:
 128              	.LFB12:
 129              		.loc 1 174 31 is_stmt 1 view -0
 130              		.cfi_startproc
 131              		@ args = 0, pretend = 0, frame = 0
 132              		@ frame_needed = 0, uses_anonymous_args = 0
 133              		.loc 1 176 3 view .LVU19
 134              		.loc 1 177 3 view .LVU20
 135              		.loc 1 174 31 is_stmt 0 view .LVU21
 136 0000 10402DE9 		push	{r4, lr}
 137              		.cfi_def_cfa_offset 8
 138              		.cfi_offset 4, -8
 139              		.cfi_offset 14, -4
 140              		.loc 1 177 3 view .LVU22
 141 0004 C820A0E3 		mov	r2, #200
 142 0008 0010A0E3 		mov	r1, #0
 143 000c 08009FE5 		ldr	r0, .L13
 144              	.LVL6:
 145              		.loc 1 177 3 view .LVU23
 146 0010 FEFFFFEB 		bl	chOQPutTimeout
 147              	.LVL7:
 148              		.loc 1 178 3 is_stmt 1 view .LVU24
 149              		.loc 1 179 1 is_stmt 0 view .LVU25
 150 0014 0000A0E3 		mov	r0, #0
 151 0018 1080BDE8 		pop	{r4, pc}
 152              	.L14:
 153              		.align	2
 154              	.L13:
 155 001c 00000000 		.word	.LANCHOR1
 156              		.cfi_endproc
 157              	.LFE12:
 158              		.size	thread2, .-thread2
 159              		.section	.text.queues2_setup,"ax",%progbits
 160              		.align	2
 161              		.syntax unified
 162              		.arm
 163              		.fpu softvfp
 164              		.type	queues2_setup, %function
 165              	queues2_setup:
 166              	.LFB11:
 167              		.loc 1 169 33 is_stmt 1 view -0
 168              		.cfi_startproc
 169              		@ args = 0, pretend = 0, frame = 0
 170              		@ frame_needed = 0, uses_anonymous_args = 0
 171              		.loc 1 171 3 view .LVU27
ARM GAS  /var/folders/l5/0x54b2c10074c8bt31ycjvl80000gp/T//ccT1qQHo.s 			page 4


 172 0000 0020A0E3 		mov	r2, #0
 173              		.loc 1 169 33 is_stmt 0 view .LVU28
 174 0004 04E02DE5 		str	lr, [sp, #-4]!
 175              		.cfi_def_cfa_offset 4
 176              		.cfi_offset 14, -4
 177              		.loc 1 171 19 view .LVU29
 178 0008 20309FE5 		ldr	r3, .L17
 179              		.loc 1 169 33 view .LVU30
 180 000c 0CD04DE2 		sub	sp, sp, #12
 181              		.cfi_def_cfa_offset 16
 182              		.loc 1 171 3 view .LVU31
 183 0010 00208DE5 		str	r2, [sp]
 184 0014 001093E5 		ldr	r1, [r3]
 185 0018 0420A0E3 		mov	r2, #4
 186 001c 10309FE5 		ldr	r3, .L17+4
 187 0020 10009FE5 		ldr	r0, .L17+8
 188 0024 FEFFFFEB 		bl	chOQInit
 189              	.LVL8:
 190              		.loc 1 172 1 view .LVU32
 191 0028 0CD08DE2 		add	sp, sp, #12
 192              		.cfi_def_cfa_offset 4
 193              		@ sp needed
 194 002c 04F09DE4 		ldr	pc, [sp], #4
 195              	.L18:
 196              		.align	2
 197              	.L17:
 198 0030 00000000 		.word	wa
 199 0034 00000000 		.word	notify
 200 0038 00000000 		.word	.LANCHOR1
 201              		.cfi_endproc
 202              	.LFE11:
 203              		.size	queues2_setup, .-queues2_setup
 204              		.section	.text.queues1_execute,"ax",%progbits
 205              		.align	2
 206              		.syntax unified
 207              		.arm
 208              		.fpu softvfp
 209              		.type	queues1_execute, %function
 210              	queues1_execute:
 211              	.LFB10:
 212              		.loc 1 94 35 is_stmt 1 view -0
 213              		.cfi_startproc
 214              		@ args = 0, pretend = 0, frame = 0
 215              		@ frame_needed = 0, uses_anonymous_args = 0
 216              		.loc 1 95 3 view .LVU34
 217              		.loc 1 96 3 view .LVU35
 218              		.loc 1 99 3 view .LVU36
 219              		.loc 1 94 35 is_stmt 0 view .LVU37
 220 0000 F0402DE9 		push	{r4, r5, r6, r7, lr}
 221              		.cfi_def_cfa_offset 20
 222              		.cfi_offset 4, -20
 223              		.cfi_offset 5, -16
 224              		.cfi_offset 6, -12
 225              		.cfi_offset 7, -8
 226              		.cfi_offset 14, -4
 227 0004 0CD04DE2 		sub	sp, sp, #12
 228              		.cfi_def_cfa_offset 32
ARM GAS  /var/folders/l5/0x54b2c10074c8bt31ycjvl80000gp/T//ccT1qQHo.s 			page 5


 229              		.loc 1 99 3 view .LVU38
 230              		.syntax divided
 231              	@ 99 "../../test/testqueues.c" 1
 232 0008 9FF021E3 		msr     CPSR_c, #0x9F
 233              	@ 0 "" 2
 234              		.loc 1 99 3 is_stmt 1 view .LVU39
 235              		.loc 1 99 3 view .LVU40
 236              		.loc 1 99 3 view .LVU41
 237              		.arm
 238              		.syntax unified
 239 000c 2C439FE5 		ldr	r4, .L37
 240 0010 0100A0E3 		mov	r0, #1
 241 0014 081094E5 		ldr	r1, [r4, #8]
 242 0018 111F6FE1 		clz	r1, r1
 243 001c A112A0E1 		lsr	r1, r1, #5
 244 0020 FEFFFFEB 		bl	_test_assert
 245              	.LVL9:
 246 0024 005050E2 		subs	r5, r0, #0
 247 0028 1700001A 		bne	.L35
 248              		.loc 1 99 3 discriminator 2 view .LVU42
 249              		.loc 1 99 3 discriminator 2 view .LVU43
 250              		.syntax divided
 251              	@ 99 "../../test/testqueues.c" 1
 252 002c 1FF021E3 		msr     CPSR_c, #0x1F
 253              	@ 0 "" 2
 254              		.loc 1 99 3 discriminator 2 view .LVU44
 255              		.loc 1 99 54 discriminator 2 view .LVU45
 256              		.loc 1 102 3 discriminator 2 view .LVU46
 257              	@ 102 "../../test/testqueues.c" 1
 258 0030 9FF021E3 		msr     CPSR_c, #0x9F
 259              	@ 0 "" 2
 260              		.loc 1 102 3 discriminator 2 view .LVU47
 261              		.loc 1 102 14 discriminator 2 view .LVU48
 262              		.loc 1 103 3 discriminator 2 view .LVU49
 263              	.LVL10:
 264              		.loc 1 104 5 discriminator 2 view .LVU50
 265              		.arm
 266              		.syntax unified
 267 0034 4110A0E3 		mov	r1, #65
 268 0038 0400A0E1 		mov	r0, r4
 269 003c FEFFFFEB 		bl	chIQPutI
 270              	.LVL11:
 271              		.loc 1 104 5 discriminator 2 view .LVU51
 272 0040 0400A0E1 		mov	r0, r4
 273 0044 4210A0E3 		mov	r1, #66
 274 0048 FEFFFFEB 		bl	chIQPutI
 275              	.LVL12:
 276              		.loc 1 104 5 discriminator 2 view .LVU52
 277 004c 0400A0E1 		mov	r0, r4
 278 0050 4310A0E3 		mov	r1, #67
 279 0054 FEFFFFEB 		bl	chIQPutI
 280              	.LVL13:
 281              		.loc 1 104 5 discriminator 2 view .LVU53
 282 0058 0400A0E1 		mov	r0, r4
 283 005c 4410A0E3 		mov	r1, #68
 284 0060 FEFFFFEB 		bl	chIQPutI
 285              	.LVL14:
ARM GAS  /var/folders/l5/0x54b2c10074c8bt31ycjvl80000gp/T//ccT1qQHo.s 			page 6


 286              		.loc 1 105 3 discriminator 2 view .LVU54
 287              		.loc 1 105 3 discriminator 2 view .LVU55
 288              		.syntax divided
 289              	@ 105 "../../test/testqueues.c" 1
 290 0064 1FF021E3 		msr     CPSR_c, #0x1F
 291              	@ 0 "" 2
 292              		.loc 1 105 16 discriminator 2 view .LVU56
 293              		.loc 1 106 3 discriminator 2 view .LVU57
 294              	@ 106 "../../test/testqueues.c" 1
 295 0068 9FF021E3 		msr     CPSR_c, #0x9F
 296              	@ 0 "" 2
 297              		.loc 1 106 3 discriminator 2 view .LVU58
 298              		.loc 1 106 3 discriminator 2 view .LVU59
 299              		.loc 1 106 3 discriminator 2 view .LVU60
 300              		.arm
 301              		.syntax unified
 302 006c D421C4E1 		ldrd	r2, [r4, #20]
 303 0070 030052E1 		cmp	r2, r3
 304 0074 AD00000A 		beq	.L36
 305              	.L22:
 306              		.loc 1 106 3 is_stmt 0 discriminator 6 view .LVU61
 307 0078 0510A0E1 		mov	r1, r5
 308 007c 0200A0E3 		mov	r0, #2
 309 0080 FEFFFFEB 		bl	_test_assert
 310              	.LVL15:
 311 0084 001050E2 		subs	r1, r0, #0
 312 0088 0200000A 		beq	.L23
 313              	.LVL16:
 314              	.L35:
 315              	.LBB5:
 316              	.LBB6:
 317              		.loc 1 146 3 is_stmt 1 view .LVU62
 318              		.loc 1 146 3 view .LVU63
 319              		.syntax divided
 320              	@ 146 "../../test/testqueues.c" 1
 321 008c 1FF021E3 		msr     CPSR_c, #0x1F
 322              	@ 0 "" 2
 323              		.loc 1 146 3 view .LVU64
 324              		.loc 1 146 3 view .LVU65
 325              		.arm
 326              		.syntax unified
 327              	.L19:
 328              	.LBE6:
 329              	.LBE5:
 330              		.loc 1 151 1 is_stmt 0 view .LVU66
 331 0090 0CD08DE2 		add	sp, sp, #12
 332              		.cfi_remember_state
 333              		.cfi_def_cfa_offset 20
 334              		@ sp needed
 335 0094 F080BDE8 		pop	{r4, r5, r6, r7, pc}
 336              	.LVL17:
 337              	.L23:
 338              		.cfi_restore_state
 339              	.LBB9:
 340              	.LBI5:
 341              		.loc 1 94 13 is_stmt 1 view .LVU67
 342              	.LBB7:
ARM GAS  /var/folders/l5/0x54b2c10074c8bt31ycjvl80000gp/T//ccT1qQHo.s 			page 7


 343              		.loc 1 106 3 view .LVU68
 344              		.loc 1 106 3 view .LVU69
 345              		.syntax divided
 346              	@ 106 "../../test/testqueues.c" 1
 347 0098 1FF021E3 		msr     CPSR_c, #0x1F
 348              	@ 0 "" 2
 349              		.loc 1 106 3 view .LVU70
 350              		.loc 1 106 59 view .LVU71
 351              		.loc 1 107 3 view .LVU72
 352              	@ 107 "../../test/testqueues.c" 1
 353 009c 9FF021E3 		msr     CPSR_c, #0x9F
 354              	@ 0 "" 2
 355              		.loc 1 107 3 view .LVU73
 356              		.loc 1 107 3 view .LVU74
 357              		.loc 1 107 3 view .LVU75
 358              		.arm
 359              		.syntax unified
 360 00a0 98029FE5 		ldr	r0, .L37
 361 00a4 FEFFFFEB 		bl	chIQPutI
 362              	.LVL18:
 363 00a8 040070E3 		cmn	r0, #4
 364 00ac 0010A013 		movne	r1, #0
 365 00b0 0110A003 		moveq	r1, #1
 366 00b4 0300A0E3 		mov	r0, #3
 367 00b8 FEFFFFEB 		bl	_test_assert
 368              	.LVL19:
 369 00bc 000050E3 		cmp	r0, #0
 370 00c0 F1FFFF1A 		bne	.L35
 371              		.loc 1 107 3 view .LVU76
 372              		.loc 1 107 3 view .LVU77
 373              		.syntax divided
 374              	@ 107 "../../test/testqueues.c" 1
 375 00c4 1FF021E3 		msr     CPSR_c, #0x1F
 376              	@ 0 "" 2
 377              		.loc 1 107 3 view .LVU78
 378              		.loc 1 107 77 view .LVU79
 379              		.loc 1 110 3 view .LVU80
 380              	.LVL20:
 381              		.loc 1 107 3 is_stmt 0 view .LVU81
 382              		.arm
 383              		.syntax unified
 384 00c8 0450A0E3 		mov	r5, #4
 385              		.loc 1 111 21 view .LVU82
 386 00cc 6C629FE5 		ldr	r6, .L37
 387              	.LVL21:
 388              	.L25:
 389              		.loc 1 111 5 is_stmt 1 view .LVU83
 390              		.loc 1 111 21 is_stmt 0 view .LVU84
 391 00d0 0010E0E3 		mvn	r1, #0
 392 00d4 0600A0E1 		mov	r0, r6
 393 00d8 FEFFFFEB 		bl	chIQGetTimeout
 394              	.LVL22:
 395              		.loc 1 111 5 view .LVU85
 396 00dc 7000EFE6 		uxtb	r0, r0
 397 00e0 FEFFFFEB 		bl	test_emit_token
 398              	.LVL23:
 399              		.loc 1 110 3 view .LVU86
ARM GAS  /var/folders/l5/0x54b2c10074c8bt31ycjvl80000gp/T//ccT1qQHo.s 			page 8


 400 00e4 015055E2 		subs	r5, r5, #1
 401              	.LVL24:
 402              		.loc 1 110 3 view .LVU87
 403 00e8 F8FFFF1A 		bne	.L25
 404              		.loc 1 112 3 is_stmt 1 view .LVU88
 405              		.syntax divided
 406              	@ 112 "../../test/testqueues.c" 1
 407 00ec 9FF021E3 		msr     CPSR_c, #0x9F
 408              	@ 0 "" 2
 409              		.loc 1 112 3 view .LVU89
 410              		.loc 1 112 3 view .LVU90
 411              		.loc 1 112 3 view .LVU91
 412              		.arm
 413              		.syntax unified
 414 00f0 081094E5 		ldr	r1, [r4, #8]
 415 00f4 0400A0E3 		mov	r0, #4
 416 00f8 111F6FE1 		clz	r1, r1
 417 00fc A112A0E1 		lsr	r1, r1, #5
 418 0100 FEFFFFEB 		bl	_test_assert
 419              	.LVL25:
 420 0104 000050E3 		cmp	r0, #0
 421 0108 DFFFFF1A 		bne	.L35
 422              		.loc 1 112 3 view .LVU92
 423              		.loc 1 112 3 view .LVU93
 424              		.syntax divided
 425              	@ 112 "../../test/testqueues.c" 1
 426 010c 1FF021E3 		msr     CPSR_c, #0x1F
 427              	@ 0 "" 2
 428              		.loc 1 112 3 view .LVU94
 429              		.loc 1 112 55 view .LVU95
 430              		.loc 1 113 3 view .LVU96
 431              		.arm
 432              		.syntax unified
 433 0110 2C129FE5 		ldr	r1, .L37+4
 434 0114 0500A0E3 		mov	r0, #5
 435 0118 FEFFFFEB 		bl	_test_assert_sequence
 436              	.LVL26:
 437 011c 000050E3 		cmp	r0, #0
 438 0120 DAFFFF1A 		bne	.L19
 439              		.loc 1 113 34 view .LVU97
 440              		.loc 1 116 3 view .LVU98
 441              		.syntax divided
 442              	@ 116 "../../test/testqueues.c" 1
 443 0124 9FF021E3 		msr     CPSR_c, #0x9F
 444              	@ 0 "" 2
 445              		.loc 1 116 3 view .LVU99
 446              		.loc 1 116 14 view .LVU100
 447              		.loc 1 117 3 view .LVU101
 448              	.LVL27:
 449              		.loc 1 118 5 view .LVU102
 450              		.arm
 451              		.syntax unified
 452 0128 4110A0E3 		mov	r1, #65
 453 012c 0C029FE5 		ldr	r0, .L37
 454 0130 FEFFFFEB 		bl	chIQPutI
 455              	.LVL28:
 456              		.loc 1 118 5 view .LVU103
ARM GAS  /var/folders/l5/0x54b2c10074c8bt31ycjvl80000gp/T//ccT1qQHo.s 			page 9


 457 0134 4210A0E3 		mov	r1, #66
 458 0138 00029FE5 		ldr	r0, .L37
 459 013c FEFFFFEB 		bl	chIQPutI
 460              	.LVL29:
 461              		.loc 1 118 5 view .LVU104
 462 0140 4310A0E3 		mov	r1, #67
 463 0144 F4019FE5 		ldr	r0, .L37
 464 0148 FEFFFFEB 		bl	chIQPutI
 465              	.LVL30:
 466              		.loc 1 118 5 view .LVU105
 467 014c 4410A0E3 		mov	r1, #68
 468 0150 E8019FE5 		ldr	r0, .L37
 469 0154 FEFFFFEB 		bl	chIQPutI
 470              	.LVL31:
 471              		.loc 1 119 3 view .LVU106
 472              		.loc 1 119 3 view .LVU107
 473              		.syntax divided
 474              	@ 119 "../../test/testqueues.c" 1
 475 0158 1FF021E3 		msr     CPSR_c, #0x1F
 476              	@ 0 "" 2
 477              		.loc 1 119 16 view .LVU108
 478              		.loc 1 122 3 view .LVU109
 479              		.loc 1 122 30 is_stmt 0 view .LVU110
 480              		.arm
 481              		.syntax unified
 482 015c E4719FE5 		ldr	r7, .L37+8
 483              		.loc 1 122 7 view .LVU111
 484 0160 0530A0E1 		mov	r3, r5
 485 0164 046097E5 		ldr	r6, [r7, #4]
 486 0168 0820A0E3 		mov	r2, #8
 487 016c 0610A0E1 		mov	r1, r6
 488 0170 C8019FE5 		ldr	r0, .L37
 489 0174 FEFFFFEB 		bl	chIQReadTimeout
 490              	.LVL32:
 491              		.loc 1 123 3 is_stmt 1 view .LVU112
 492 0178 041040E2 		sub	r1, r0, #4
 493 017c 111F6FE1 		clz	r1, r1
 494 0180 0600A0E3 		mov	r0, #6
 495              	.LVL33:
 496              		.loc 1 123 3 is_stmt 0 view .LVU113
 497 0184 A112A0E1 		lsr	r1, r1, #5
 498 0188 FEFFFFEB 		bl	_test_assert
 499              	.LVL34:
 500 018c 000050E3 		cmp	r0, #0
 501 0190 BEFFFF1A 		bne	.L19
 502              		.loc 1 123 63 is_stmt 1 view .LVU114
 503              		.loc 1 124 3 view .LVU115
 504              		.syntax divided
 505              	@ 124 "../../test/testqueues.c" 1
 506 0194 9FF021E3 		msr     CPSR_c, #0x9F
 507              	@ 0 "" 2
 508              		.loc 1 124 3 view .LVU116
 509              		.loc 1 124 3 view .LVU117
 510              		.loc 1 124 3 view .LVU118
 511              		.arm
 512              		.syntax unified
 513 0198 081094E5 		ldr	r1, [r4, #8]
ARM GAS  /var/folders/l5/0x54b2c10074c8bt31ycjvl80000gp/T//ccT1qQHo.s 			page 10


 514 019c 0700A0E3 		mov	r0, #7
 515 01a0 111F6FE1 		clz	r1, r1
 516 01a4 A112A0E1 		lsr	r1, r1, #5
 517 01a8 FEFFFFEB 		bl	_test_assert
 518              	.LVL35:
 519 01ac 000050E3 		cmp	r0, #0
 520 01b0 B5FFFF1A 		bne	.L35
 521              		.loc 1 124 3 view .LVU119
 522              		.loc 1 124 3 view .LVU120
 523              		.syntax divided
 524              	@ 124 "../../test/testqueues.c" 1
 525 01b4 1FF021E3 		msr     CPSR_c, #0x1F
 526              	@ 0 "" 2
 527              		.loc 1 124 3 view .LVU121
 528              		.loc 1 124 55 view .LVU122
 529              		.loc 1 127 3 view .LVU123
 530              	@ 127 "../../test/testqueues.c" 1
 531 01b8 9FF021E3 		msr     CPSR_c, #0x9F
 532              	@ 0 "" 2
 533              		.loc 1 127 3 view .LVU124
 534              		.loc 1 127 14 view .LVU125
 535              		.loc 1 128 3 view .LVU126
 536              	.LVL36:
 537              		.loc 1 129 5 view .LVU127
 538              		.arm
 539              		.syntax unified
 540 01bc 4110A0E3 		mov	r1, #65
 541 01c0 78019FE5 		ldr	r0, .L37
 542 01c4 FEFFFFEB 		bl	chIQPutI
 543              	.LVL37:
 544              		.loc 1 129 5 view .LVU128
 545 01c8 4210A0E3 		mov	r1, #66
 546 01cc 6C019FE5 		ldr	r0, .L37
 547 01d0 FEFFFFEB 		bl	chIQPutI
 548              	.LVL38:
 549              		.loc 1 129 5 view .LVU129
 550 01d4 4310A0E3 		mov	r1, #67
 551 01d8 60019FE5 		ldr	r0, .L37
 552 01dc FEFFFFEB 		bl	chIQPutI
 553              	.LVL39:
 554              		.loc 1 129 5 view .LVU130
 555 01e0 4410A0E3 		mov	r1, #68
 556 01e4 54019FE5 		ldr	r0, .L37
 557 01e8 FEFFFFEB 		bl	chIQPutI
 558              	.LVL40:
 559              		.loc 1 130 3 view .LVU131
 560              		.loc 1 130 3 view .LVU132
 561              		.syntax divided
 562              	@ 130 "../../test/testqueues.c" 1
 563 01ec 1FF021E3 		msr     CPSR_c, #0x1F
 564              	@ 0 "" 2
 565              		.loc 1 130 16 view .LVU133
 566              		.loc 1 133 3 view .LVU134
 567              		.loc 1 133 7 is_stmt 0 view .LVU135
 568              		.arm
 569              		.syntax unified
 570 01f0 0220A0E3 		mov	r2, #2
ARM GAS  /var/folders/l5/0x54b2c10074c8bt31ycjvl80000gp/T//ccT1qQHo.s 			page 11


 571 01f4 0530A0E1 		mov	r3, r5
 572 01f8 0610A0E1 		mov	r1, r6
 573 01fc 3C019FE5 		ldr	r0, .L37
 574 0200 FEFFFFEB 		bl	chIQReadTimeout
 575              	.LVL41:
 576              		.loc 1 134 3 is_stmt 1 view .LVU136
 577 0204 021040E2 		sub	r1, r0, #2
 578 0208 111F6FE1 		clz	r1, r1
 579 020c 0800A0E3 		mov	r0, #8
 580              	.LVL42:
 581              		.loc 1 134 3 is_stmt 0 view .LVU137
 582 0210 A112A0E1 		lsr	r1, r1, #5
 583 0214 FEFFFFEB 		bl	_test_assert
 584              	.LVL43:
 585 0218 000050E3 		cmp	r0, #0
 586 021c 9BFFFF1A 		bne	.L19
 587              		.loc 1 134 67 is_stmt 1 view .LVU138
 588              		.loc 1 135 3 view .LVU139
 589              		.loc 1 135 7 is_stmt 0 view .LVU140
 590 0220 0610A0E1 		mov	r1, r6
 591 0224 0530A0E1 		mov	r3, r5
 592 0228 0220A0E3 		mov	r2, #2
 593 022c 0C019FE5 		ldr	r0, .L37
 594 0230 FEFFFFEB 		bl	chIQReadTimeout
 595              	.LVL44:
 596              		.loc 1 136 3 is_stmt 1 view .LVU141
 597 0234 021040E2 		sub	r1, r0, #2
 598 0238 111F6FE1 		clz	r1, r1
 599 023c 0900A0E3 		mov	r0, #9
 600              	.LVL45:
 601              		.loc 1 136 3 is_stmt 0 view .LVU142
 602 0240 A112A0E1 		lsr	r1, r1, #5
 603 0244 FEFFFFEB 		bl	_test_assert
 604              	.LVL46:
 605 0248 000050E3 		cmp	r0, #0
 606 024c 8FFFFF1A 		bne	.L19
 607              		.loc 1 136 67 is_stmt 1 view .LVU143
 608              		.loc 1 137 3 view .LVU144
 609              		.syntax divided
 610              	@ 137 "../../test/testqueues.c" 1
 611 0250 9FF021E3 		msr     CPSR_c, #0x9F
 612              	@ 0 "" 2
 613              		.loc 1 137 3 view .LVU145
 614              		.loc 1 137 3 view .LVU146
 615              		.loc 1 137 3 view .LVU147
 616              		.arm
 617              		.syntax unified
 618 0254 081094E5 		ldr	r1, [r4, #8]
 619 0258 0A00A0E3 		mov	r0, #10
 620 025c 111F6FE1 		clz	r1, r1
 621 0260 A112A0E1 		lsr	r1, r1, #5
 622 0264 FEFFFFEB 		bl	_test_assert
 623              	.LVL47:
 624 0268 000050E3 		cmp	r0, #0
 625 026c 86FFFF1A 		bne	.L35
 626              		.loc 1 137 3 view .LVU148
 627              		.loc 1 137 3 view .LVU149
ARM GAS  /var/folders/l5/0x54b2c10074c8bt31ycjvl80000gp/T//ccT1qQHo.s 			page 12


 628              		.syntax divided
 629              	@ 137 "../../test/testqueues.c" 1
 630 0270 1FF021E3 		msr     CPSR_c, #0x1F
 631              	@ 0 "" 2
 632              		.loc 1 137 3 view .LVU150
 633              		.loc 1 137 56 view .LVU151
 634              		.loc 1 140 3 view .LVU152
 635              	@ 140 "../../test/testqueues.c" 1
 636 0274 9FF021E3 		msr     CPSR_c, #0x9F
 637              	@ 0 "" 2
 638              		.loc 1 140 3 view .LVU153
 639              		.loc 1 140 14 view .LVU154
 640              		.loc 1 141 3 view .LVU155
 641              		.arm
 642              		.syntax unified
 643 0278 C0009FE5 		ldr	r0, .L37
 644 027c 0510A0E1 		mov	r1, r5
 645 0280 FEFFFFEB 		bl	chIQPutI
 646              	.LVL48:
 647              		.loc 1 142 3 view .LVU156
 648 0284 B4009FE5 		ldr	r0, .L37
 649 0288 FEFFFFEB 		bl	chIQResetI
 650              	.LVL49:
 651              		.loc 1 143 3 view .LVU157
 652              		.loc 1 143 3 view .LVU158
 653              		.syntax divided
 654              	@ 143 "../../test/testqueues.c" 1
 655 028c 1FF021E3 		msr     CPSR_c, #0x1F
 656              	@ 0 "" 2
 657              		.loc 1 143 16 view .LVU159
 658              		.loc 1 144 3 view .LVU160
 659              	@ 144 "../../test/testqueues.c" 1
 660 0290 9FF021E3 		msr     CPSR_c, #0x9F
 661              	@ 0 "" 2
 662              		.loc 1 144 3 view .LVU161
 663              		.loc 1 144 3 view .LVU162
 664              		.loc 1 144 3 view .LVU163
 665              		.arm
 666              		.syntax unified
 667 0294 081094E5 		ldr	r1, [r4, #8]
 668 0298 0B00A0E3 		mov	r0, #11
 669 029c 111F6FE1 		clz	r1, r1
 670 02a0 A112A0E1 		lsr	r1, r1, #5
 671 02a4 FEFFFFEB 		bl	_test_assert
 672              	.LVL50:
 673 02a8 000050E3 		cmp	r0, #0
 674 02ac 76FFFF1A 		bne	.L35
 675              		.loc 1 144 3 view .LVU164
 676              		.loc 1 144 3 view .LVU165
 677              		.syntax divided
 678              	@ 144 "../../test/testqueues.c" 1
 679 02b0 1FF021E3 		msr     CPSR_c, #0x1F
 680              	@ 0 "" 2
 681              		.loc 1 144 3 view .LVU166
 682              		.loc 1 144 61 view .LVU167
 683              		.loc 1 145 3 view .LVU168
 684              		.loc 1 145 50 is_stmt 0 view .LVU169
ARM GAS  /var/folders/l5/0x54b2c10074c8bt31ycjvl80000gp/T//ccT1qQHo.s 			page 13


 685              		.arm
 686              		.syntax unified
 687 02b4 90309FE5 		ldr	r3, .L37+12
 688              		.loc 1 145 16 view .LVU170
 689 02b8 000097E5 		ldr	r0, [r7]
 690              		.loc 1 145 50 view .LVU171
 691 02bc 182093E5 		ldr	r2, [r3, #24]
 692              		.loc 1 145 16 view .LVU172
 693 02c0 461FA0E3 		mov	r1, #280
 694 02c4 082092E5 		ldr	r2, [r2, #8]
 695 02c8 80309FE5 		ldr	r3, .L37+16
 696 02cc 00508DE5 		str	r5, [sp]
 697 02d0 012082E2 		add	r2, r2, #1
 698 02d4 FEFFFFEB 		bl	chThdCreateStatic
 699              	.LVL51:
 700              		.loc 1 145 14 view .LVU173
 701 02d8 74309FE5 		ldr	r3, .L37+20
 702 02dc 000083E5 		str	r0, [r3]
 703              		.loc 1 146 3 is_stmt 1 view .LVU174
 704              		.syntax divided
 705              	@ 146 "../../test/testqueues.c" 1
 706 02e0 9FF021E3 		msr     CPSR_c, #0x9F
 707              	@ 0 "" 2
 708              		.loc 1 146 3 view .LVU175
 709              		.loc 1 146 3 view .LVU176
 710              		.loc 1 146 3 view .LVU177
 711              		.arm
 712              		.syntax unified
 713 02e4 081094E5 		ldr	r1, [r4, #8]
 714 02e8 0C00A0E3 		mov	r0, #12
 715 02ec 111F6FE1 		clz	r1, r1
 716 02f0 A112A0E1 		lsr	r1, r1, #5
 717 02f4 FEFFFFEB 		bl	_test_assert
 718              	.LVL52:
 719 02f8 000050E3 		cmp	r0, #0
 720 02fc 62FFFF1A 		bne	.L35
 721              		.loc 1 146 3 view .LVU178
 722              		.loc 1 146 3 view .LVU179
 723              		.syntax divided
 724              	@ 146 "../../test/testqueues.c" 1
 725 0300 1FF021E3 		msr     CPSR_c, #0x1F
 726              	@ 0 "" 2
 727              		.loc 1 146 3 view .LVU180
 728              		.loc 1 146 60 view .LVU181
 729              		.loc 1 147 3 view .LVU182
 730              		.arm
 731              		.syntax unified
 732 0304 FEFFFFEB 		bl	test_wait_threads
 733              	.LVL53:
 734              		.loc 1 150 3 view .LVU183
 735 0308 0A10A0E3 		mov	r1, #10
 736 030c 2C009FE5 		ldr	r0, .L37
 737 0310 FEFFFFEB 		bl	chIQGetTimeout
 738              	.LVL54:
 739 0314 010070E3 		cmn	r0, #1
 740 0318 0010A013 		movne	r1, #0
 741 031c 0110A003 		moveq	r1, #1
ARM GAS  /var/folders/l5/0x54b2c10074c8bt31ycjvl80000gp/T//ccT1qQHo.s 			page 14


 742 0320 0D00A0E3 		mov	r0, #13
 743              	.LBE7:
 744              	.LBE9:
 745              		.loc 1 151 1 is_stmt 0 view .LVU184
 746 0324 0CD08DE2 		add	sp, sp, #12
 747              		.cfi_remember_state
 748              		.cfi_def_cfa_offset 20
 749              		@ sp needed
 750 0328 F040BDE8 		pop	{r4, r5, r6, r7, lr}
 751              		.cfi_restore 14
 752              		.cfi_restore 7
 753              		.cfi_restore 6
 754              		.cfi_restore 5
 755              		.cfi_restore 4
 756              		.cfi_def_cfa_offset 0
 757              	.LBB10:
 758              	.LBB8:
 759              		.loc 1 150 3 view .LVU185
 760 032c FEFFFFEA 		b	_test_assert
 761              	.LVL55:
 762              	.L36:
 763              		.cfi_restore_state
 764              		.loc 1 150 3 view .LVU186
 765              	.LBE8:
 766              	.LBE10:
 767              		.loc 1 106 3 discriminator 1 view .LVU187
 768 0330 085094E5 		ldr	r5, [r4, #8]
 769 0334 005095E2 		adds	r5, r5, #0
 770 0338 0150A013 		movne	r5, #1
 771 033c 4DFFFFEA 		b	.L22
 772              	.L38:
 773              		.align	2
 774              	.L37:
 775 0340 00000000 		.word	.LANCHOR0
 776 0344 00000000 		.word	.LC0
 777 0348 00000000 		.word	wa
 778 034c 00000000 		.word	rlist
 779 0350 00000000 		.word	thread1
 780 0354 00000000 		.word	threads
 781              		.cfi_endproc
 782              	.LFE10:
 783              		.size	queues1_execute, .-queues1_execute
 784              		.section	.text.queues2_execute,"ax",%progbits
 785              		.align	2
 786              		.syntax unified
 787              		.arm
 788              		.fpu softvfp
 789              		.type	queues2_execute, %function
 790              	queues2_execute:
 791              	.LFB13:
 792              		.loc 1 181 35 is_stmt 1 view -0
 793              		.cfi_startproc
 794              		@ args = 0, pretend = 0, frame = 0
 795              		@ frame_needed = 0, uses_anonymous_args = 0
 796              		.loc 1 182 3 view .LVU189
 797              		.loc 1 183 3 view .LVU190
 798              		.loc 1 186 3 view .LVU191
ARM GAS  /var/folders/l5/0x54b2c10074c8bt31ycjvl80000gp/T//ccT1qQHo.s 			page 15


 799              		.loc 1 181 35 is_stmt 0 view .LVU192
 800 0000 F0402DE9 		push	{r4, r5, r6, r7, lr}
 801              		.cfi_def_cfa_offset 20
 802              		.cfi_offset 4, -20
 803              		.cfi_offset 5, -16
 804              		.cfi_offset 6, -12
 805              		.cfi_offset 7, -8
 806              		.cfi_offset 14, -4
 807 0004 0CD04DE2 		sub	sp, sp, #12
 808              		.cfi_def_cfa_offset 32
 809              		.loc 1 186 3 view .LVU193
 810              		.syntax divided
 811              	@ 186 "../../test/testqueues.c" 1
 812 0008 9FF021E3 		msr     CPSR_c, #0x9F
 813              	@ 0 "" 2
 814              		.loc 1 186 3 is_stmt 1 view .LVU194
 815              		.loc 1 186 3 view .LVU195
 816              		.loc 1 186 3 view .LVU196
 817              		.arm
 818              		.syntax unified
 819 000c D0529FE5 		ldr	r5, .L62
 820 0010 D421C5E1 		ldrd	r2, [r5, #20]
 821 0014 030052E1 		cmp	r2, r3
 822 0018 0010A013 		movne	r1, #0
 823 001c A800000A 		beq	.L60
 824              	.L40:
 825              		.loc 1 186 3 is_stmt 0 discriminator 6 view .LVU197
 826 0020 0100A0E3 		mov	r0, #1
 827 0024 FEFFFFEB 		bl	_test_assert
 828              	.LVL56:
 829 0028 000050E3 		cmp	r0, #0
 830 002c A100001A 		bne	.L59
 831              		.loc 1 186 3 is_stmt 1 discriminator 8 view .LVU198
 832              		.loc 1 186 3 discriminator 8 view .LVU199
 833              		.syntax divided
 834              	@ 186 "../../test/testqueues.c" 1
 835 0030 1FF021E3 		msr     CPSR_c, #0x1F
 836              	@ 0 "" 2
 837              		.loc 1 186 3 discriminator 8 view .LVU200
 838              		.loc 1 186 54 discriminator 8 view .LVU201
 839              		.loc 1 189 3 discriminator 8 view .LVU202
 840              	.LVL57:
 841              		.loc 1 186 3 is_stmt 0 discriminator 8 view .LVU203
 842              		.arm
 843              		.syntax unified
 844 0034 4140A0E3 		mov	r4, #65
 845              		.loc 1 190 5 discriminator 8 view .LVU204
 846 0038 A4629FE5 		ldr	r6, .L62
 847              	.LVL58:
 848              	.L43:
 849              		.loc 1 190 5 is_stmt 1 discriminator 3 view .LVU205
 850 003c 0410A0E1 		mov	r1, r4
 851 0040 014084E2 		add	r4, r4, #1
 852 0044 0020E0E3 		mvn	r2, #0
 853 0048 0600A0E1 		mov	r0, r6
 854 004c 7440EFE6 		uxtb	r4, r4
 855 0050 FEFFFFEB 		bl	chOQPutTimeout
ARM GAS  /var/folders/l5/0x54b2c10074c8bt31ycjvl80000gp/T//ccT1qQHo.s 			page 16


 856              	.LVL59:
 857              		.loc 1 189 3 is_stmt 0 discriminator 3 view .LVU206
 858 0054 450054E3 		cmp	r4, #69
 859 0058 F7FFFF1A 		bne	.L43
 860              		.loc 1 191 3 is_stmt 1 view .LVU207
 861              		.syntax divided
 862              	@ 191 "../../test/testqueues.c" 1
 863 005c 9FF021E3 		msr     CPSR_c, #0x9F
 864              	@ 0 "" 2
 865              		.loc 1 191 3 view .LVU208
 866              		.loc 1 191 3 view .LVU209
 867              		.loc 1 191 3 view .LVU210
 868              		.arm
 869              		.syntax unified
 870 0060 081095E5 		ldr	r1, [r5, #8]
 871 0064 0200A0E3 		mov	r0, #2
 872 0068 111F6FE1 		clz	r1, r1
 873 006c A112A0E1 		lsr	r1, r1, #5
 874 0070 FEFFFFEB 		bl	_test_assert
 875              	.LVL60:
 876 0074 007050E2 		subs	r7, r0, #0
 877 0078 8E00001A 		bne	.L59
 878              	.LBB14:
 879              	.LBI14:
 880              		.loc 1 181 13 view .LVU211
 881              	.LBB15:
 882              		.loc 1 191 3 view .LVU212
 883              		.loc 1 191 3 view .LVU213
 884              		.syntax divided
 885              	@ 191 "../../test/testqueues.c" 1
 886 007c 1FF021E3 		msr     CPSR_c, #0x1F
 887              	@ 0 "" 2
 888              		.loc 1 191 3 view .LVU214
 889              		.loc 1 191 59 view .LVU215
 890              		.loc 1 194 3 view .LVU216
 891              	.LVL61:
 892              		.loc 1 191 3 is_stmt 0 view .LVU217
 893              		.arm
 894              		.syntax unified
 895 0080 0440A0E3 		mov	r4, #4
 896              	.LBB16:
 897              		.loc 1 198 9 view .LVU218
 898 0084 58629FE5 		ldr	r6, .L62
 899              	.LVL62:
 900              	.L45:
 901              		.loc 1 195 5 is_stmt 1 view .LVU219
 902              		.loc 1 197 5 view .LVU220
 903              		.syntax divided
 904              	@ 197 "../../test/testqueues.c" 1
 905 0088 9FF021E3 		msr     CPSR_c, #0x9F
 906              	@ 0 "" 2
 907              		.loc 1 197 5 view .LVU221
 908              		.loc 1 197 16 view .LVU222
 909              		.loc 1 198 5 view .LVU223
 910              		.loc 1 198 9 is_stmt 0 view .LVU224
 911              		.arm
 912              		.syntax unified
ARM GAS  /var/folders/l5/0x54b2c10074c8bt31ycjvl80000gp/T//ccT1qQHo.s 			page 17


 913 008c 0600A0E1 		mov	r0, r6
 914 0090 FEFFFFEB 		bl	chOQGetI
 915              	.LVL63:
 916              		.loc 1 199 5 is_stmt 1 view .LVU225
 917              		.loc 1 199 5 view .LVU226
 918              		.syntax divided
 919              	@ 199 "../../test/testqueues.c" 1
 920 0094 1FF021E3 		msr     CPSR_c, #0x1F
 921              	@ 0 "" 2
 922              		.loc 1 199 18 view .LVU227
 923              		.loc 1 200 5 view .LVU228
 924              		.arm
 925              		.syntax unified
 926 0098 7000EFE6 		uxtb	r0, r0
 927              		.loc 1 200 5 is_stmt 0 view .LVU229
 928 009c FEFFFFEB 		bl	test_emit_token
 929              	.LVL64:
 930              		.loc 1 200 5 view .LVU230
 931              	.LBE16:
 932              		.loc 1 194 3 view .LVU231
 933 00a0 014054E2 		subs	r4, r4, #1
 934              	.LVL65:
 935              		.loc 1 194 3 view .LVU232
 936 00a4 F7FFFF1A 		bne	.L45
 937              		.loc 1 202 3 is_stmt 1 view .LVU233
 938              		.syntax divided
 939              	@ 202 "../../test/testqueues.c" 1
 940 00a8 9FF021E3 		msr     CPSR_c, #0x9F
 941              	@ 0 "" 2
 942              		.loc 1 202 3 view .LVU234
 943              		.loc 1 202 3 view .LVU235
 944              		.loc 1 202 3 view .LVU236
 945              		.arm
 946              		.syntax unified
 947 00ac D421C5E1 		ldrd	r2, [r5, #20]
 948 00b0 030052E1 		cmp	r2, r3
 949 00b4 8600000A 		beq	.L61
 950              	.L46:
 951 00b8 0710A0E1 		mov	r1, r7
 952 00bc 0300A0E3 		mov	r0, #3
 953 00c0 FEFFFFEB 		bl	_test_assert
 954              	.LVL66:
 955 00c4 000050E3 		cmp	r0, #0
 956 00c8 7A00001A 		bne	.L59
 957              		.loc 1 202 3 view .LVU237
 958              		.loc 1 202 3 view .LVU238
 959              		.syntax divided
 960              	@ 202 "../../test/testqueues.c" 1
 961 00cc 1FF021E3 		msr     CPSR_c, #0x1F
 962              	@ 0 "" 2
 963              		.loc 1 202 3 view .LVU239
 964              		.loc 1 202 55 view .LVU240
 965              		.loc 1 203 3 view .LVU241
 966              		.arm
 967              		.syntax unified
 968 00d0 10129FE5 		ldr	r1, .L62+4
 969 00d4 0400A0E3 		mov	r0, #4
ARM GAS  /var/folders/l5/0x54b2c10074c8bt31ycjvl80000gp/T//ccT1qQHo.s 			page 18


 970 00d8 FEFFFFEB 		bl	_test_assert_sequence
 971              	.LVL67:
 972 00dc 000050E3 		cmp	r0, #0
 973 00e0 7500001A 		bne	.L39
 974              		.loc 1 203 34 view .LVU242
 975              		.loc 1 204 3 view .LVU243
 976              		.syntax divided
 977              	@ 204 "../../test/testqueues.c" 1
 978 00e4 9FF021E3 		msr     CPSR_c, #0x9F
 979              	@ 0 "" 2
 980              		.loc 1 204 3 view .LVU244
 981              		.loc 1 204 3 view .LVU245
 982              		.loc 1 204 3 view .LVU246
 983              		.arm
 984              		.syntax unified
 985 00e8 F4019FE5 		ldr	r0, .L62
 986 00ec FEFFFFEB 		bl	chOQGetI
 987              	.LVL68:
 988 00f0 030070E3 		cmn	r0, #3
 989 00f4 0010A013 		movne	r1, #0
 990 00f8 0110A003 		moveq	r1, #1
 991 00fc 0500A0E3 		mov	r0, #5
 992 0100 FEFFFFEB 		bl	_test_assert
 993              	.LVL69:
 994 0104 003050E2 		subs	r3, r0, #0
 995 0108 6A00001A 		bne	.L59
 996              		.loc 1 204 3 view .LVU247
 997              		.loc 1 204 3 view .LVU248
 998              		.syntax divided
 999              	@ 204 "../../test/testqueues.c" 1
 1000 010c 1FF021E3 		msr     CPSR_c, #0x1F
 1001              	@ 0 "" 2
 1002              		.loc 1 204 3 view .LVU249
 1003              		.loc 1 204 76 view .LVU250
 1004              		.loc 1 207 3 view .LVU251
 1005              		.loc 1 207 31 is_stmt 0 view .LVU252
 1006              		.arm
 1007              		.syntax unified
 1008 0110 D4419FE5 		ldr	r4, .L62+8
 1009              	.LVL70:
 1010              		.loc 1 207 7 view .LVU253
 1011 0114 0820A0E3 		mov	r2, #8
 1012 0118 046094E5 		ldr	r6, [r4, #4]
 1013 011c C0019FE5 		ldr	r0, .L62
 1014 0120 0610A0E1 		mov	r1, r6
 1015 0124 FEFFFFEB 		bl	chOQWriteTimeout
 1016              	.LVL71:
 1017              		.loc 1 208 3 is_stmt 1 view .LVU254
 1018 0128 041040E2 		sub	r1, r0, #4
 1019 012c 111F6FE1 		clz	r1, r1
 1020 0130 0600A0E3 		mov	r0, #6
 1021              	.LVL72:
 1022              		.loc 1 208 3 is_stmt 0 view .LVU255
 1023 0134 A112A0E1 		lsr	r1, r1, #5
 1024 0138 FEFFFFEB 		bl	_test_assert
 1025              	.LVL73:
 1026 013c 000050E3 		cmp	r0, #0
ARM GAS  /var/folders/l5/0x54b2c10074c8bt31ycjvl80000gp/T//ccT1qQHo.s 			page 19


 1027 0140 5D00001A 		bne	.L39
 1028              		.loc 1 208 63 is_stmt 1 view .LVU256
 1029              		.loc 1 209 3 view .LVU257
 1030              		.syntax divided
 1031              	@ 209 "../../test/testqueues.c" 1
 1032 0144 9FF021E3 		msr     CPSR_c, #0x9F
 1033              	@ 0 "" 2
 1034              		.loc 1 209 3 view .LVU258
 1035              		.loc 1 209 3 view .LVU259
 1036              		.loc 1 209 3 view .LVU260
 1037              		.arm
 1038              		.syntax unified
 1039 0148 081095E5 		ldr	r1, [r5, #8]
 1040 014c 0700A0E3 		mov	r0, #7
 1041 0150 111F6FE1 		clz	r1, r1
 1042 0154 A112A0E1 		lsr	r1, r1, #5
 1043 0158 FEFFFFEB 		bl	_test_assert
 1044              	.LVL74:
 1045 015c 001050E2 		subs	r1, r0, #0
 1046 0160 5400001A 		bne	.L59
 1047              		.loc 1 209 3 view .LVU261
 1048              		.loc 1 209 3 view .LVU262
 1049              		.syntax divided
 1050              	@ 209 "../../test/testqueues.c" 1
 1051 0164 1FF021E3 		msr     CPSR_c, #0x1F
 1052              	@ 0 "" 2
 1053              		.loc 1 209 3 view .LVU263
 1054              		.loc 1 209 52 view .LVU264
 1055              		.loc 1 210 3 view .LVU265
 1056              		.loc 1 210 50 is_stmt 0 view .LVU266
 1057              		.arm
 1058              		.syntax unified
 1059 0168 80319FE5 		ldr	r3, .L62+12
 1060              		.loc 1 210 16 view .LVU267
 1061 016c 000094E5 		ldr	r0, [r4]
 1062              		.loc 1 210 50 view .LVU268
 1063 0170 182093E5 		ldr	r2, [r3, #24]
 1064              		.loc 1 210 16 view .LVU269
 1065 0174 78319FE5 		ldr	r3, .L62+16
 1066 0178 082092E5 		ldr	r2, [r2, #8]
 1067 017c 00108DE5 		str	r1, [sp]
 1068 0180 012082E2 		add	r2, r2, #1
 1069 0184 461FA0E3 		mov	r1, #280
 1070 0188 FEFFFFEB 		bl	chThdCreateStatic
 1071              	.LVL75:
 1072              		.loc 1 210 14 view .LVU270
 1073 018c 64319FE5 		ldr	r3, .L62+20
 1074 0190 000083E5 		str	r0, [r3]
 1075              		.loc 1 211 3 is_stmt 1 view .LVU271
 1076              		.syntax divided
 1077              	@ 211 "../../test/testqueues.c" 1
 1078 0194 9FF021E3 		msr     CPSR_c, #0x9F
 1079              	@ 0 "" 2
 1080              		.loc 1 211 3 view .LVU272
 1081              		.loc 1 211 3 view .LVU273
 1082              		.loc 1 211 3 view .LVU274
 1083              		.arm
ARM GAS  /var/folders/l5/0x54b2c10074c8bt31ycjvl80000gp/T//ccT1qQHo.s 			page 20


 1084              		.syntax unified
 1085 0198 101095E5 		ldr	r1, [r5, #16]
 1086 019c 0C2095E5 		ldr	r2, [r5, #12]
 1087 01a0 083095E5 		ldr	r3, [r5, #8]
 1088 01a4 021041E0 		sub	r1, r1, r2
 1089 01a8 031041E0 		sub	r1, r1, r3
 1090 01ac 041041E2 		sub	r1, r1, #4
 1091 01b0 111F6FE1 		clz	r1, r1
 1092 01b4 0800A0E3 		mov	r0, #8
 1093 01b8 A112A0E1 		lsr	r1, r1, #5
 1094 01bc FEFFFFEB 		bl	_test_assert
 1095              	.LVL76:
 1096 01c0 000050E3 		cmp	r0, #0
 1097 01c4 3B00001A 		bne	.L59
 1098              		.loc 1 211 3 view .LVU275
 1099              		.loc 1 211 3 view .LVU276
 1100              		.syntax divided
 1101              	@ 211 "../../test/testqueues.c" 1
 1102 01c8 1FF021E3 		msr     CPSR_c, #0x1F
 1103              	@ 0 "" 2
 1104              		.loc 1 211 3 view .LVU277
 1105              		.loc 1 211 74 view .LVU278
 1106              		.loc 1 212 3 view .LVU279
 1107              		.arm
 1108              		.syntax unified
 1109 01cc FEFFFFEB 		bl	test_wait_threads
 1110              	.LVL77:
 1111              		.loc 1 215 3 view .LVU280
 1112              		.syntax divided
 1113              	@ 215 "../../test/testqueues.c" 1
 1114 01d0 9FF021E3 		msr     CPSR_c, #0x9F
 1115              	@ 0 "" 2
 1116              		.loc 1 215 3 view .LVU281
 1117              		.loc 1 215 14 view .LVU282
 1118              		.loc 1 216 3 view .LVU283
 1119              		.arm
 1120              		.syntax unified
 1121 01d4 08019FE5 		ldr	r0, .L62
 1122 01d8 FEFFFFEB 		bl	chOQResetI
 1123              	.LVL78:
 1124              		.loc 1 217 3 view .LVU284
 1125              		.loc 1 217 3 view .LVU285
 1126              		.syntax divided
 1127              	@ 217 "../../test/testqueues.c" 1
 1128 01dc 1FF021E3 		msr     CPSR_c, #0x1F
 1129              	@ 0 "" 2
 1130              		.loc 1 217 16 view .LVU286
 1131              		.loc 1 218 3 view .LVU287
 1132              	@ 218 "../../test/testqueues.c" 1
 1133 01e0 9FF021E3 		msr     CPSR_c, #0x9F
 1134              	@ 0 "" 2
 1135              		.loc 1 218 3 view .LVU288
 1136              		.loc 1 218 3 view .LVU289
 1137              		.loc 1 218 3 view .LVU290
 1138              		.arm
 1139              		.syntax unified
 1140 01e4 DC20C5E1 		ldrd	r2, [r5, #12]
ARM GAS  /var/folders/l5/0x54b2c10074c8bt31ycjvl80000gp/T//ccT1qQHo.s 			page 21


 1141 01e8 081095E5 		ldr	r1, [r5, #8]
 1142 01ec 023043E0 		sub	r3, r3, r2
 1143 01f0 011043E0 		sub	r1, r3, r1
 1144 01f4 111F6FE1 		clz	r1, r1
 1145 01f8 0900A0E3 		mov	r0, #9
 1146 01fc A112A0E1 		lsr	r1, r1, #5
 1147 0200 FEFFFFEB 		bl	_test_assert
 1148              	.LVL79:
 1149 0204 003050E2 		subs	r3, r0, #0
 1150 0208 2A00001A 		bne	.L59
 1151              		.loc 1 218 3 view .LVU291
 1152              		.loc 1 218 3 view .LVU292
 1153              		.syntax divided
 1154              	@ 218 "../../test/testqueues.c" 1
 1155 020c 1FF021E3 		msr     CPSR_c, #0x1F
 1156              	@ 0 "" 2
 1157              		.loc 1 218 3 view .LVU293
 1158              		.loc 1 218 60 view .LVU294
 1159              		.loc 1 221 3 view .LVU295
 1160              		.loc 1 221 7 is_stmt 0 view .LVU296
 1161              		.arm
 1162              		.syntax unified
 1163 0210 0220A0E3 		mov	r2, #2
 1164 0214 0610A0E1 		mov	r1, r6
 1165 0218 C4009FE5 		ldr	r0, .L62
 1166 021c FEFFFFEB 		bl	chOQWriteTimeout
 1167              	.LVL80:
 1168              		.loc 1 222 3 is_stmt 1 view .LVU297
 1169 0220 021040E2 		sub	r1, r0, #2
 1170 0224 111F6FE1 		clz	r1, r1
 1171 0228 0A00A0E3 		mov	r0, #10
 1172              	.LVL81:
 1173              		.loc 1 222 3 is_stmt 0 view .LVU298
 1174 022c A112A0E1 		lsr	r1, r1, #5
 1175 0230 FEFFFFEB 		bl	_test_assert
 1176              	.LVL82:
 1177 0234 003050E2 		subs	r3, r0, #0
 1178 0238 1F00001A 		bne	.L39
 1179              		.loc 1 222 68 is_stmt 1 view .LVU299
 1180              		.loc 1 223 3 view .LVU300
 1181              		.loc 1 223 7 is_stmt 0 view .LVU301
 1182 023c 0610A0E1 		mov	r1, r6
 1183 0240 0220A0E3 		mov	r2, #2
 1184 0244 98009FE5 		ldr	r0, .L62
 1185 0248 FEFFFFEB 		bl	chOQWriteTimeout
 1186              	.LVL83:
 1187              		.loc 1 224 3 is_stmt 1 view .LVU302
 1188 024c 021040E2 		sub	r1, r0, #2
 1189 0250 111F6FE1 		clz	r1, r1
 1190 0254 0B00A0E3 		mov	r0, #11
 1191              	.LVL84:
 1192              		.loc 1 224 3 is_stmt 0 view .LVU303
 1193 0258 A112A0E1 		lsr	r1, r1, #5
 1194 025c FEFFFFEB 		bl	_test_assert
 1195              	.LVL85:
 1196 0260 000050E3 		cmp	r0, #0
 1197 0264 1400001A 		bne	.L39
ARM GAS  /var/folders/l5/0x54b2c10074c8bt31ycjvl80000gp/T//ccT1qQHo.s 			page 22


 1198              		.loc 1 224 68 is_stmt 1 view .LVU304
 1199              		.loc 1 225 3 view .LVU305
 1200              		.syntax divided
 1201              	@ 225 "../../test/testqueues.c" 1
 1202 0268 9FF021E3 		msr     CPSR_c, #0x9F
 1203              	@ 0 "" 2
 1204              		.loc 1 225 3 view .LVU306
 1205              		.loc 1 225 3 view .LVU307
 1206              		.loc 1 225 3 view .LVU308
 1207              		.arm
 1208              		.syntax unified
 1209 026c 081095E5 		ldr	r1, [r5, #8]
 1210 0270 0C00A0E3 		mov	r0, #12
 1211 0274 111F6FE1 		clz	r1, r1
 1212 0278 A112A0E1 		lsr	r1, r1, #5
 1213 027c FEFFFFEB 		bl	_test_assert
 1214              	.LVL86:
 1215 0280 000050E3 		cmp	r0, #0
 1216 0284 0B00001A 		bne	.L59
 1217              		.loc 1 225 3 view .LVU309
 1218              		.loc 1 225 3 view .LVU310
 1219              		.syntax divided
 1220              	@ 225 "../../test/testqueues.c" 1
 1221 0288 1FF021E3 		msr     CPSR_c, #0x1F
 1222              	@ 0 "" 2
 1223              		.loc 1 225 3 view .LVU311
 1224              		.loc 1 225 53 view .LVU312
 1225              		.loc 1 228 3 view .LVU313
 1226              		.arm
 1227              		.syntax unified
 1228 028c 0010A0E3 		mov	r1, #0
 1229 0290 0A20A0E3 		mov	r2, #10
 1230 0294 48009FE5 		ldr	r0, .L62
 1231 0298 FEFFFFEB 		bl	chOQPutTimeout
 1232              	.LVL87:
 1233 029c 010070E3 		cmn	r0, #1
 1234 02a0 0010A013 		movne	r1, #0
 1235 02a4 0110A003 		moveq	r1, #1
 1236 02a8 0D00A0E3 		mov	r0, #13
 1237              	.LBE15:
 1238              	.LBE14:
 1239              		.loc 1 229 1 is_stmt 0 view .LVU314
 1240 02ac 0CD08DE2 		add	sp, sp, #12
 1241              		.cfi_remember_state
 1242              		.cfi_def_cfa_offset 20
 1243              		@ sp needed
 1244 02b0 F040BDE8 		pop	{r4, r5, r6, r7, lr}
 1245              		.cfi_restore 14
 1246              		.cfi_restore 7
 1247              		.cfi_restore 6
 1248              		.cfi_restore 5
 1249              		.cfi_restore 4
 1250              		.cfi_def_cfa_offset 0
 1251              	.LBB19:
 1252              	.LBB17:
 1253              		.loc 1 228 3 view .LVU315
 1254 02b4 FEFFFFEA 		b	_test_assert
ARM GAS  /var/folders/l5/0x54b2c10074c8bt31ycjvl80000gp/T//ccT1qQHo.s 			page 23


 1255              	.LVL88:
 1256              	.L59:
 1257              		.cfi_restore_state
 1258              		.loc 1 225 3 is_stmt 1 view .LVU316
 1259              		.loc 1 225 3 view .LVU317
 1260              		.syntax divided
 1261              	@ 225 "../../test/testqueues.c" 1
 1262 02b8 1FF021E3 		msr     CPSR_c, #0x1F
 1263              	@ 0 "" 2
 1264              		.loc 1 225 3 view .LVU318
 1265              		.loc 1 225 3 view .LVU319
 1266              		.arm
 1267              		.syntax unified
 1268              	.L39:
 1269              	.LBE17:
 1270              	.LBE19:
 1271              		.loc 1 229 1 is_stmt 0 view .LVU320
 1272 02bc 0CD08DE2 		add	sp, sp, #12
 1273              		.cfi_remember_state
 1274              		.cfi_def_cfa_offset 20
 1275              		@ sp needed
 1276 02c0 F080BDE8 		pop	{r4, r5, r6, r7, pc}
 1277              	.L60:
 1278              		.cfi_restore_state
 1279              		.loc 1 186 3 discriminator 1 view .LVU321
 1280 02c4 081095E5 		ldr	r1, [r5, #8]
 1281 02c8 001091E2 		adds	r1, r1, #0
 1282 02cc 0110A013 		movne	r1, #1
 1283 02d0 52FFFFEA 		b	.L40
 1284              	.LVL89:
 1285              	.L61:
 1286              	.LBB20:
 1287              	.LBB18:
 1288              		.loc 1 202 3 view .LVU322
 1289 02d4 087095E5 		ldr	r7, [r5, #8]
 1290 02d8 007097E2 		adds	r7, r7, #0
 1291 02dc 0170A013 		movne	r7, #1
 1292 02e0 74FFFFEA 		b	.L46
 1293              	.L63:
 1294              		.align	2
 1295              	.L62:
 1296 02e4 00000000 		.word	.LANCHOR1
 1297 02e8 00000000 		.word	.LC0
 1298 02ec 00000000 		.word	wa
 1299 02f0 00000000 		.word	rlist
 1300 02f4 00000000 		.word	thread2
 1301 02f8 00000000 		.word	threads
 1302              	.LBE18:
 1303              	.LBE20:
 1304              		.cfi_endproc
 1305              	.LFE13:
 1306              		.size	queues2_execute, .-queues2_execute
 1307              		.global	patternqueues
 1308              		.global	testqueues2
 1309              		.global	testqueues1
 1310              		.section	.data.iq,"aw"
 1311              		.align	2
ARM GAS  /var/folders/l5/0x54b2c10074c8bt31ycjvl80000gp/T//ccT1qQHo.s 			page 24


 1312              		.set	.LANCHOR0,. + 0
 1313              		.type	iq, %object
 1314              		.size	iq, 36
 1315              	iq:
 1316 0000 00000000 		.word	iq
 1317 0004 00000000 		.word	iq
 1318 0008 00000000 		.word	0
 1319 000c 00000000 		.word	test
 1320 0010 04000000 		.word	test+4
 1321 0014 00000000 		.word	test
 1322 0018 00000000 		.word	test
 1323 001c 00000000 		.word	notify
 1324 0020 00000000 		.word	0
 1325              		.section	.data.oq,"aw"
 1326              		.align	2
 1327              		.set	.LANCHOR1,. + 0
 1328              		.type	oq, %object
 1329              		.size	oq, 36
 1330              	oq:
 1331 0000 00000000 		.word	oq
 1332 0004 00000000 		.word	oq
 1333 0008 04000000 		.word	4
 1334 000c 18010000 		.word	test+280
 1335 0010 1C010000 		.word	test+284
 1336 0014 18010000 		.word	test+280
 1337 0018 18010000 		.word	test+280
 1338 001c 00000000 		.word	notify
 1339 0020 00000000 		.word	0
 1340              		.section	.rodata.patternqueues,"a"
 1341              		.align	2
 1342              		.type	patternqueues, %object
 1343              		.size	patternqueues, 12
 1344              	patternqueues:
 1345 0000 00000000 		.word	testqueues1
 1346 0004 00000000 		.word	testqueues2
 1347 0008 00000000 		.word	0
 1348              		.section	.rodata.queues1_execute.str1.4,"aMS",%progbits,1
 1349              		.align	2
 1350              	.LC0:
 1351 0000 41424344 		.ascii	"ABCD\000"
 1351      00
 1352              		.section	.rodata.str1.4,"aMS",%progbits,1
 1353              		.align	2
 1354              	.LC1:
 1355 0000 51756575 		.ascii	"Queues, output queues\000"
 1355      65732C20 
 1355      6F757470 
 1355      75742071 
 1355      75657565 
 1356 0016 0000     		.space	2
 1357              	.LC2:
 1358 0018 51756575 		.ascii	"Queues, input queues\000"
 1358      65732C20 
 1358      696E7075 
 1358      74207175 
 1358      65756573 
 1359              		.section	.rodata.testqueues1,"a"
ARM GAS  /var/folders/l5/0x54b2c10074c8bt31ycjvl80000gp/T//ccT1qQHo.s 			page 25


 1360              		.align	2
 1361              		.type	testqueues1, %object
 1362              		.size	testqueues1, 16
 1363              	testqueues1:
 1364 0000 18000000 		.word	.LC2
 1365 0004 00000000 		.word	queues1_setup
 1366 0008 00000000 		.word	0
 1367 000c 00000000 		.word	queues1_execute
 1368              		.section	.rodata.testqueues2,"a"
 1369              		.align	2
 1370              		.type	testqueues2, %object
 1371              		.size	testqueues2, 16
 1372              	testqueues2:
 1373 0000 00000000 		.word	.LC1
 1374 0004 00000000 		.word	queues2_setup
 1375 0008 00000000 		.word	0
 1376 000c 00000000 		.word	queues2_execute
 1377              		.text
 1378              	.Letext0:
 1379              		.file 2 "/usr/local/Cellar/arm-gcc-bin/8-2019-q3-update/lib/gcc/arm-none-eabi/8.3.1/include/stddef
 1380              		.file 3 "/usr/local/Cellar/arm-gcc-bin/8-2019-q3-update/arm-none-eabi/include/machine/_default_typ
 1381              		.file 4 "/usr/local/Cellar/arm-gcc-bin/8-2019-q3-update/arm-none-eabi/include/sys/_stdint.h"
 1382              		.file 5 "../../os/ports/GCC/ARM/chtypes.h"
 1383              		.file 6 "../../os/kernel/include/chlists.h"
 1384              		.file 7 "../../os/kernel/include/chthreads.h"
 1385              		.file 8 "../../os/ports/GCC/ARM/chcore.h"
 1386              		.file 9 "../../os/kernel/include/chvt.h"
 1387              		.file 10 "../../os/kernel/include/chschd.h"
 1388              		.file 11 "../../os/kernel/include/chmtx.h"
 1389              		.file 12 "../../os/kernel/include/chregistry.h"
 1390              		.file 13 "../../os/kernel/include/chqueues.h"
 1391              		.file 14 "../../os/kernel/include/ch.h"
 1392              		.file 15 "../../test/test.h"
 1393              		.section	.debug_info,"",%progbits
 1394              	.Ldebug_info0:
 1395 0000 4B110000 		.4byte	0x114b
 1396 0004 0400     		.2byte	0x4
 1397 0006 00000000 		.4byte	.Ldebug_abbrev0
 1398 000a 04       		.byte	0x4
 1399 000b 01       		.uleb128 0x1
 1400 000c 80020000 		.4byte	.LASF144
 1401 0010 0C       		.byte	0xc
 1402 0011 E8040000 		.4byte	.LASF145
 1403 0015 80060000 		.4byte	.LASF146
 1404 0019 40000000 		.4byte	.Ldebug_ranges0+0x40
 1405 001d 00000000 		.4byte	0
 1406 0021 00000000 		.4byte	.Ldebug_line0
 1407 0025 02       		.uleb128 0x2
 1408 0026 04       		.byte	0x4
 1409 0027 05       		.byte	0x5
 1410 0028 696E7400 		.ascii	"int\000"
 1411 002c 03       		.uleb128 0x3
 1412 002d 22000000 		.4byte	.LASF2
 1413 0031 02       		.byte	0x2
 1414 0032 D8       		.byte	0xd8
 1415 0033 17       		.byte	0x17
 1416 0034 38000000 		.4byte	0x38
ARM GAS  /var/folders/l5/0x54b2c10074c8bt31ycjvl80000gp/T//ccT1qQHo.s 			page 26


 1417 0038 04       		.uleb128 0x4
 1418 0039 04       		.byte	0x4
 1419 003a 07       		.byte	0x7
 1420 003b E2010000 		.4byte	.LASF0
 1421 003f 04       		.uleb128 0x4
 1422 0040 01       		.byte	0x1
 1423 0041 06       		.byte	0x6
 1424 0042 01010000 		.4byte	.LASF1
 1425 0046 03       		.uleb128 0x3
 1426 0047 45000000 		.4byte	.LASF3
 1427 004b 03       		.byte	0x3
 1428 004c 2B       		.byte	0x2b
 1429 004d 18       		.byte	0x18
 1430 004e 52000000 		.4byte	0x52
 1431 0052 04       		.uleb128 0x4
 1432 0053 01       		.byte	0x1
 1433 0054 08       		.byte	0x8
 1434 0055 DA040000 		.4byte	.LASF4
 1435 0059 04       		.uleb128 0x4
 1436 005a 02       		.byte	0x2
 1437 005b 05       		.byte	0x5
 1438 005c 0A050000 		.4byte	.LASF5
 1439 0060 03       		.uleb128 0x3
 1440 0061 B8050000 		.4byte	.LASF6
 1441 0065 03       		.byte	0x3
 1442 0066 39       		.byte	0x39
 1443 0067 19       		.byte	0x19
 1444 0068 6C000000 		.4byte	0x6c
 1445 006c 04       		.uleb128 0x4
 1446 006d 02       		.byte	0x2
 1447 006e 07       		.byte	0x7
 1448 006f 43020000 		.4byte	.LASF7
 1449 0073 03       		.uleb128 0x3
 1450 0074 E7050000 		.4byte	.LASF8
 1451 0078 03       		.byte	0x3
 1452 0079 4D       		.byte	0x4d
 1453 007a 18       		.byte	0x18
 1454 007b 7F000000 		.4byte	0x7f
 1455 007f 04       		.uleb128 0x4
 1456 0080 04       		.byte	0x4
 1457 0081 05       		.byte	0x5
 1458 0082 60010000 		.4byte	.LASF9
 1459 0086 03       		.uleb128 0x3
 1460 0087 BD010000 		.4byte	.LASF10
 1461 008b 03       		.byte	0x3
 1462 008c 4F       		.byte	0x4f
 1463 008d 19       		.byte	0x19
 1464 008e 92000000 		.4byte	0x92
 1465 0092 04       		.uleb128 0x4
 1466 0093 04       		.byte	0x4
 1467 0094 07       		.byte	0x7
 1468 0095 02020000 		.4byte	.LASF11
 1469 0099 04       		.uleb128 0x4
 1470 009a 08       		.byte	0x8
 1471 009b 05       		.byte	0x5
 1472 009c F3000000 		.4byte	.LASF12
 1473 00a0 04       		.uleb128 0x4
ARM GAS  /var/folders/l5/0x54b2c10074c8bt31ycjvl80000gp/T//ccT1qQHo.s 			page 27


 1474 00a1 08       		.byte	0x8
 1475 00a2 07       		.byte	0x7
 1476 00a3 7A000000 		.4byte	.LASF13
 1477 00a7 03       		.uleb128 0x3
 1478 00a8 47060000 		.4byte	.LASF14
 1479 00ac 04       		.byte	0x4
 1480 00ad 18       		.byte	0x18
 1481 00ae 13       		.byte	0x13
 1482 00af 46000000 		.4byte	0x46
 1483 00b3 03       		.uleb128 0x3
 1484 00b4 8B010000 		.4byte	.LASF15
 1485 00b8 04       		.byte	0x4
 1486 00b9 24       		.byte	0x24
 1487 00ba 14       		.byte	0x14
 1488 00bb 60000000 		.4byte	0x60
 1489 00bf 03       		.uleb128 0x3
 1490 00c0 D2040000 		.4byte	.LASF16
 1491 00c4 04       		.byte	0x4
 1492 00c5 2C       		.byte	0x2c
 1493 00c6 13       		.byte	0x13
 1494 00c7 73000000 		.4byte	0x73
 1495 00cb 03       		.uleb128 0x3
 1496 00cc 7C050000 		.4byte	.LASF17
 1497 00d0 04       		.byte	0x4
 1498 00d1 30       		.byte	0x30
 1499 00d2 14       		.byte	0x14
 1500 00d3 86000000 		.4byte	0x86
 1501 00d7 03       		.uleb128 0x3
 1502 00d8 2A010000 		.4byte	.LASF18
 1503 00dc 05       		.byte	0x5
 1504 00dd 29       		.byte	0x29
 1505 00de 19       		.byte	0x19
 1506 00df BF000000 		.4byte	0xbf
 1507 00e3 03       		.uleb128 0x3
 1508 00e4 58030000 		.4byte	.LASF19
 1509 00e8 05       		.byte	0x5
 1510 00e9 2A       		.byte	0x2a
 1511 00ea 19       		.byte	0x19
 1512 00eb A7000000 		.4byte	0xa7
 1513 00ef 03       		.uleb128 0x3
 1514 00f0 70010000 		.4byte	.LASF20
 1515 00f4 05       		.byte	0x5
 1516 00f5 2B       		.byte	0x2b
 1517 00f6 19       		.byte	0x19
 1518 00f7 A7000000 		.4byte	0xa7
 1519 00fb 03       		.uleb128 0x3
 1520 00fc 96040000 		.4byte	.LASF21
 1521 0100 05       		.byte	0x5
 1522 0101 2C       		.byte	0x2c
 1523 0102 19       		.byte	0x19
 1524 0103 A7000000 		.4byte	0xa7
 1525 0107 03       		.uleb128 0x3
 1526 0108 C2040000 		.4byte	.LASF22
 1527 010c 05       		.byte	0x5
 1528 010d 2E       		.byte	0x2e
 1529 010e 19       		.byte	0x19
 1530 010f CB000000 		.4byte	0xcb
ARM GAS  /var/folders/l5/0x54b2c10074c8bt31ycjvl80000gp/T//ccT1qQHo.s 			page 28


 1531 0113 03       		.uleb128 0x3
 1532 0114 72020000 		.4byte	.LASF23
 1533 0118 05       		.byte	0x5
 1534 0119 2F       		.byte	0x2f
 1535 011a 19       		.byte	0x19
 1536 011b BF000000 		.4byte	0xbf
 1537 011f 03       		.uleb128 0x3
 1538 0120 6C030000 		.4byte	.LASF24
 1539 0124 05       		.byte	0x5
 1540 0125 31       		.byte	0x31
 1541 0126 19       		.byte	0x19
 1542 0127 CB000000 		.4byte	0xcb
 1543 012b 03       		.uleb128 0x3
 1544 012c D2050000 		.4byte	.LASF25
 1545 0130 05       		.byte	0x5
 1546 0131 33       		.byte	0x33
 1547 0132 19       		.byte	0x19
 1548 0133 CB000000 		.4byte	0xcb
 1549 0137 05       		.uleb128 0x5
 1550 0138 2B010000 		.4byte	0x12b
 1551 013c 03       		.uleb128 0x3
 1552 013d 54050000 		.4byte	.LASF26
 1553 0141 06       		.byte	0x6
 1554 0142 23       		.byte	0x23
 1555 0143 17       		.byte	0x17
 1556 0144 48010000 		.4byte	0x148
 1557 0148 06       		.uleb128 0x6
 1558 0149 54050000 		.4byte	.LASF26
 1559 014d 44       		.byte	0x44
 1560 014e 07       		.byte	0x7
 1561 014f 57       		.byte	0x57
 1562 0150 08       		.byte	0x8
 1563 0151 40020000 		.4byte	0x240
 1564 0155 07       		.uleb128 0x7
 1565 0156 36050000 		.4byte	.LASF27
 1566 015a 07       		.byte	0x7
 1567 015b 58       		.byte	0x58
 1568 015c 1A       		.byte	0x1a
 1569 015d 64020000 		.4byte	0x264
 1570 0161 00       		.byte	0
 1571 0162 07       		.uleb128 0x7
 1572 0163 B3040000 		.4byte	.LASF28
 1573 0167 07       		.byte	0x7
 1574 0168 5A       		.byte	0x5a
 1575 0169 1A       		.byte	0x1a
 1576 016a 64020000 		.4byte	0x264
 1577 016e 04       		.byte	0x4
 1578 016f 07       		.uleb128 0x7
 1579 0170 CC000000 		.4byte	.LASF29
 1580 0174 07       		.byte	0x7
 1581 0175 5C       		.byte	0x5c
 1582 0176 19       		.byte	0x19
 1583 0177 07010000 		.4byte	0x107
 1584 017b 08       		.byte	0x8
 1585 017c 07       		.uleb128 0x7
 1586 017d DE060000 		.4byte	.LASF30
 1587 0181 07       		.byte	0x7
ARM GAS  /var/folders/l5/0x54b2c10074c8bt31ycjvl80000gp/T//ccT1qQHo.s 			page 29


 1588 0182 5D       		.byte	0x5d
 1589 0183 19       		.byte	0x19
 1590 0184 34030000 		.4byte	0x334
 1591 0188 0C       		.byte	0xc
 1592 0189 07       		.uleb128 0x7
 1593 018a A5010000 		.4byte	.LASF31
 1594 018e 07       		.byte	0x7
 1595 018f 5F       		.byte	0x5f
 1596 0190 1A       		.byte	0x1a
 1597 0191 64020000 		.4byte	0x264
 1598 0195 10       		.byte	0x10
 1599 0196 07       		.uleb128 0x7
 1600 0197 27040000 		.4byte	.LASF32
 1601 019b 07       		.byte	0x7
 1602 019c 60       		.byte	0x60
 1603 019d 1A       		.byte	0x1a
 1604 019e 64020000 		.4byte	0x264
 1605 01a2 14       		.byte	0x14
 1606 01a3 07       		.uleb128 0x7
 1607 01a4 56060000 		.4byte	.LASF33
 1608 01a8 07       		.byte	0x7
 1609 01a9 67       		.byte	0x67
 1610 01aa 1A       		.byte	0x1a
 1611 01ab 1A050000 		.4byte	0x51a
 1612 01af 18       		.byte	0x18
 1613 01b0 07       		.uleb128 0x7
 1614 01b1 14050000 		.4byte	.LASF34
 1615 01b5 07       		.byte	0x7
 1616 01b6 72       		.byte	0x72
 1617 01b7 19       		.byte	0x19
 1618 01b8 EF000000 		.4byte	0xef
 1619 01bc 1C       		.byte	0x1c
 1620 01bd 07       		.uleb128 0x7
 1621 01be 4C050000 		.4byte	.LASF35
 1622 01c2 07       		.byte	0x7
 1623 01c3 76       		.byte	0x76
 1624 01c4 19       		.byte	0x19
 1625 01c5 E3000000 		.4byte	0xe3
 1626 01c9 1D       		.byte	0x1d
 1627 01ca 07       		.uleb128 0x7
 1628 01cb 27060000 		.4byte	.LASF36
 1629 01cf 07       		.byte	0x7
 1630 01d0 7B       		.byte	0x7b
 1631 01d1 19       		.byte	0x19
 1632 01d2 FB000000 		.4byte	0xfb
 1633 01d6 1E       		.byte	0x1e
 1634 01d7 07       		.uleb128 0x7
 1635 01d8 FC050000 		.4byte	.LASF37
 1636 01dc 07       		.byte	0x7
 1637 01dd 88       		.byte	0x88
 1638 01de 19       		.byte	0x19
 1639 01df 37010000 		.4byte	0x137
 1640 01e3 20       		.byte	0x20
 1641 01e4 08       		.uleb128 0x8
 1642 01e5 705F7500 		.ascii	"p_u\000"
 1643 01e9 07       		.byte	0x7
 1644 01ea AD       		.byte	0xad
ARM GAS  /var/folders/l5/0x54b2c10074c8bt31ycjvl80000gp/T//ccT1qQHo.s 			page 30


 1645 01eb 19       		.byte	0x19
 1646 01ec E0040000 		.4byte	0x4e0
 1647 01f0 24       		.byte	0x24
 1648 01f1 07       		.uleb128 0x7
 1649 01f2 E4060000 		.4byte	.LASF38
 1650 01f6 07       		.byte	0x7
 1651 01f7 B2       		.byte	0xb2
 1652 01f8 19       		.byte	0x19
 1653 01f9 8D020000 		.4byte	0x28d
 1654 01fd 28       		.byte	0x28
 1655 01fe 07       		.uleb128 0x7
 1656 01ff 0A060000 		.4byte	.LASF39
 1657 0203 07       		.byte	0x7
 1658 0204 B8       		.byte	0xb8
 1659 0205 19       		.byte	0x19
 1660 0206 6A020000 		.4byte	0x26a
 1661 020a 2C       		.byte	0x2c
 1662 020b 07       		.uleb128 0x7
 1663 020c 1C000000 		.4byte	.LASF40
 1664 0210 07       		.byte	0x7
 1665 0211 BC       		.byte	0xbc
 1666 0212 19       		.byte	0x19
 1667 0213 13010000 		.4byte	0x113
 1668 0217 34       		.byte	0x34
 1669 0218 07       		.uleb128 0x7
 1670 0219 71050000 		.4byte	.LASF41
 1671 021d 07       		.byte	0x7
 1672 021e C2       		.byte	0xc2
 1673 021f 19       		.byte	0x19
 1674 0220 1F010000 		.4byte	0x11f
 1675 0224 38       		.byte	0x38
 1676 0225 07       		.uleb128 0x7
 1677 0226 00050000 		.4byte	.LASF42
 1678 022a 07       		.byte	0x7
 1679 022b C9       		.byte	0xc9
 1680 022c 1A       		.byte	0x1a
 1681 022d 2C050000 		.4byte	0x52c
 1682 0231 3C       		.byte	0x3c
 1683 0232 07       		.uleb128 0x7
 1684 0233 DC050000 		.4byte	.LASF43
 1685 0237 07       		.byte	0x7
 1686 0238 CD       		.byte	0xcd
 1687 0239 19       		.byte	0x19
 1688 023a 07010000 		.4byte	0x107
 1689 023e 40       		.byte	0x40
 1690 023f 00       		.byte	0
 1691 0240 09       		.uleb128 0x9
 1692 0241 08       		.byte	0x8
 1693 0242 06       		.byte	0x6
 1694 0243 5A       		.byte	0x5a
 1695 0244 09       		.byte	0x9
 1696 0245 64020000 		.4byte	0x264
 1697 0249 07       		.uleb128 0x7
 1698 024a 36050000 		.4byte	.LASF27
 1699 024e 06       		.byte	0x6
 1700 024f 5B       		.byte	0x5b
 1701 0250 1A       		.byte	0x1a
ARM GAS  /var/folders/l5/0x54b2c10074c8bt31ycjvl80000gp/T//ccT1qQHo.s 			page 31


 1702 0251 64020000 		.4byte	0x264
 1703 0255 00       		.byte	0
 1704 0256 07       		.uleb128 0x7
 1705 0257 B3040000 		.4byte	.LASF28
 1706 025b 06       		.byte	0x6
 1707 025c 5D       		.byte	0x5d
 1708 025d 1A       		.byte	0x1a
 1709 025e 64020000 		.4byte	0x264
 1710 0262 04       		.byte	0x4
 1711 0263 00       		.byte	0
 1712 0264 0A       		.uleb128 0xa
 1713 0265 04       		.byte	0x4
 1714 0266 3C010000 		.4byte	0x13c
 1715 026a 03       		.uleb128 0x3
 1716 026b 45040000 		.4byte	.LASF44
 1717 026f 06       		.byte	0x6
 1718 0270 5F       		.byte	0x5f
 1719 0271 03       		.byte	0x3
 1720 0272 40020000 		.4byte	0x240
 1721 0276 09       		.uleb128 0x9
 1722 0277 04       		.byte	0x4
 1723 0278 06       		.byte	0x6
 1724 0279 64       		.byte	0x64
 1725 027a 09       		.byte	0x9
 1726 027b 8D020000 		.4byte	0x28d
 1727 027f 07       		.uleb128 0x7
 1728 0280 36050000 		.4byte	.LASF27
 1729 0284 06       		.byte	0x6
 1730 0285 66       		.byte	0x66
 1731 0286 16       		.byte	0x16
 1732 0287 64020000 		.4byte	0x264
 1733 028b 00       		.byte	0
 1734 028c 00       		.byte	0
 1735 028d 03       		.uleb128 0x3
 1736 028e 60030000 		.4byte	.LASF45
 1737 0292 06       		.byte	0x6
 1738 0293 69       		.byte	0x69
 1739 0294 03       		.byte	0x3
 1740 0295 76020000 		.4byte	0x276
 1741 0299 03       		.uleb128 0x3
 1742 029a 96030000 		.4byte	.LASF46
 1743 029e 08       		.byte	0x8
 1744 029f 9D       		.byte	0x9d
 1745 02a0 12       		.byte	0x12
 1746 02a1 CB000000 		.4byte	0xcb
 1747 02a5 03       		.uleb128 0x3
 1748 02a6 C8010000 		.4byte	.LASF47
 1749 02aa 08       		.byte	0x8
 1750 02ab A2       		.byte	0xa2
 1751 02ac 0F       		.byte	0xf
 1752 02ad B1020000 		.4byte	0x2b1
 1753 02b1 0B       		.uleb128 0xb
 1754 02b2 04       		.byte	0x4
 1755 02b3 0C       		.uleb128 0xc
 1756 02b4 B1020000 		.4byte	0x2b1
 1757 02b8 06       		.uleb128 0x6
 1758 02b9 03060000 		.4byte	.LASF48
ARM GAS  /var/folders/l5/0x54b2c10074c8bt31ycjvl80000gp/T//ccT1qQHo.s 			page 32


 1759 02bd 24       		.byte	0x24
 1760 02be 08       		.byte	0x8
 1761 02bf B9       		.byte	0xb9
 1762 02c0 08       		.byte	0x8
 1763 02c1 34030000 		.4byte	0x334
 1764 02c5 08       		.uleb128 0x8
 1765 02c6 723400   		.ascii	"r4\000"
 1766 02c9 08       		.byte	0x8
 1767 02ca BA       		.byte	0xba
 1768 02cb 11       		.byte	0x11
 1769 02cc A5020000 		.4byte	0x2a5
 1770 02d0 00       		.byte	0
 1771 02d1 08       		.uleb128 0x8
 1772 02d2 723500   		.ascii	"r5\000"
 1773 02d5 08       		.byte	0x8
 1774 02d6 BB       		.byte	0xbb
 1775 02d7 11       		.byte	0x11
 1776 02d8 A5020000 		.4byte	0x2a5
 1777 02dc 04       		.byte	0x4
 1778 02dd 08       		.uleb128 0x8
 1779 02de 723600   		.ascii	"r6\000"
 1780 02e1 08       		.byte	0x8
 1781 02e2 BC       		.byte	0xbc
 1782 02e3 11       		.byte	0x11
 1783 02e4 A5020000 		.4byte	0x2a5
 1784 02e8 08       		.byte	0x8
 1785 02e9 08       		.uleb128 0x8
 1786 02ea 723700   		.ascii	"r7\000"
 1787 02ed 08       		.byte	0x8
 1788 02ee BD       		.byte	0xbd
 1789 02ef 11       		.byte	0x11
 1790 02f0 A5020000 		.4byte	0x2a5
 1791 02f4 0C       		.byte	0xc
 1792 02f5 08       		.uleb128 0x8
 1793 02f6 723800   		.ascii	"r8\000"
 1794 02f9 08       		.byte	0x8
 1795 02fa BE       		.byte	0xbe
 1796 02fb 11       		.byte	0x11
 1797 02fc A5020000 		.4byte	0x2a5
 1798 0300 10       		.byte	0x10
 1799 0301 08       		.uleb128 0x8
 1800 0302 723900   		.ascii	"r9\000"
 1801 0305 08       		.byte	0x8
 1802 0306 BF       		.byte	0xbf
 1803 0307 11       		.byte	0x11
 1804 0308 A5020000 		.4byte	0x2a5
 1805 030c 14       		.byte	0x14
 1806 030d 08       		.uleb128 0x8
 1807 030e 72313000 		.ascii	"r10\000"
 1808 0312 08       		.byte	0x8
 1809 0313 C0       		.byte	0xc0
 1810 0314 11       		.byte	0x11
 1811 0315 A5020000 		.4byte	0x2a5
 1812 0319 18       		.byte	0x18
 1813 031a 08       		.uleb128 0x8
 1814 031b 72313100 		.ascii	"r11\000"
 1815 031f 08       		.byte	0x8
ARM GAS  /var/folders/l5/0x54b2c10074c8bt31ycjvl80000gp/T//ccT1qQHo.s 			page 33


 1816 0320 C1       		.byte	0xc1
 1817 0321 11       		.byte	0x11
 1818 0322 A5020000 		.4byte	0x2a5
 1819 0326 1C       		.byte	0x1c
 1820 0327 08       		.uleb128 0x8
 1821 0328 6C7200   		.ascii	"lr\000"
 1822 032b 08       		.byte	0x8
 1823 032c C2       		.byte	0xc2
 1824 032d 11       		.byte	0x11
 1825 032e A5020000 		.4byte	0x2a5
 1826 0332 20       		.byte	0x20
 1827 0333 00       		.byte	0
 1828 0334 06       		.uleb128 0x6
 1829 0335 3B020000 		.4byte	.LASF49
 1830 0339 04       		.byte	0x4
 1831 033a 08       		.byte	0x8
 1832 033b CA       		.byte	0xca
 1833 033c 08       		.byte	0x8
 1834 033d 4F030000 		.4byte	0x34f
 1835 0341 08       		.uleb128 0x8
 1836 0342 72313300 		.ascii	"r13\000"
 1837 0346 08       		.byte	0x8
 1838 0347 CB       		.byte	0xcb
 1839 0348 12       		.byte	0x12
 1840 0349 4F030000 		.4byte	0x34f
 1841 034d 00       		.byte	0
 1842 034e 00       		.byte	0
 1843 034f 0A       		.uleb128 0xa
 1844 0350 04       		.byte	0x4
 1845 0351 B8020000 		.4byte	0x2b8
 1846 0355 03       		.uleb128 0x3
 1847 0356 2D020000 		.4byte	.LASF50
 1848 035a 09       		.byte	0x9
 1849 035b 4E       		.byte	0x4e
 1850 035c 10       		.byte	0x10
 1851 035d 61030000 		.4byte	0x361
 1852 0361 0A       		.uleb128 0xa
 1853 0362 04       		.byte	0x4
 1854 0363 67030000 		.4byte	0x367
 1855 0367 0D       		.uleb128 0xd
 1856 0368 72030000 		.4byte	0x372
 1857 036c 0E       		.uleb128 0xe
 1858 036d B1020000 		.4byte	0x2b1
 1859 0371 00       		.byte	0
 1860 0372 03       		.uleb128 0x3
 1861 0373 99050000 		.4byte	.LASF51
 1862 0377 09       		.byte	0x9
 1863 0378 53       		.byte	0x53
 1864 0379 1D       		.byte	0x1d
 1865 037a 7E030000 		.4byte	0x37e
 1866 037e 06       		.uleb128 0x6
 1867 037f 99050000 		.4byte	.LASF51
 1868 0383 14       		.byte	0x14
 1869 0384 09       		.byte	0x9
 1870 0385 5A       		.byte	0x5a
 1871 0386 08       		.byte	0x8
 1872 0387 CD030000 		.4byte	0x3cd
ARM GAS  /var/folders/l5/0x54b2c10074c8bt31ycjvl80000gp/T//ccT1qQHo.s 			page 34


 1873 038b 07       		.uleb128 0x7
 1874 038c EF010000 		.4byte	.LASF52
 1875 0390 09       		.byte	0x9
 1876 0391 5B       		.byte	0x5b
 1877 0392 1A       		.byte	0x1a
 1878 0393 CD030000 		.4byte	0x3cd
 1879 0397 00       		.byte	0
 1880 0398 07       		.uleb128 0x7
 1881 0399 D1010000 		.4byte	.LASF53
 1882 039d 09       		.byte	0x9
 1883 039e 5D       		.byte	0x5d
 1884 039f 1A       		.byte	0x1a
 1885 03a0 CD030000 		.4byte	0x3cd
 1886 03a4 04       		.byte	0x4
 1887 03a5 07       		.uleb128 0x7
 1888 03a6 C7030000 		.4byte	.LASF54
 1889 03aa 09       		.byte	0x9
 1890 03ab 5F       		.byte	0x5f
 1891 03ac 19       		.byte	0x19
 1892 03ad 2B010000 		.4byte	0x12b
 1893 03b1 08       		.byte	0x8
 1894 03b2 07       		.uleb128 0x7
 1895 03b3 E9030000 		.4byte	.LASF55
 1896 03b7 09       		.byte	0x9
 1897 03b8 60       		.byte	0x60
 1898 03b9 19       		.byte	0x19
 1899 03ba 55030000 		.4byte	0x355
 1900 03be 0C       		.byte	0xc
 1901 03bf 07       		.uleb128 0x7
 1902 03c0 15060000 		.4byte	.LASF56
 1903 03c4 09       		.byte	0x9
 1904 03c5 62       		.byte	0x62
 1905 03c6 1A       		.byte	0x1a
 1906 03c7 B1020000 		.4byte	0x2b1
 1907 03cb 10       		.byte	0x10
 1908 03cc 00       		.byte	0
 1909 03cd 0A       		.uleb128 0xa
 1910 03ce 04       		.byte	0x4
 1911 03cf 72030000 		.4byte	0x372
 1912 03d3 09       		.uleb128 0x9
 1913 03d4 10       		.byte	0x10
 1914 03d5 09       		.byte	0x9
 1915 03d6 6C       		.byte	0x6c
 1916 03d7 09       		.byte	0x9
 1917 03d8 11040000 		.4byte	0x411
 1918 03dc 07       		.uleb128 0x7
 1919 03dd EF010000 		.4byte	.LASF52
 1920 03e1 09       		.byte	0x9
 1921 03e2 6D       		.byte	0x6d
 1922 03e3 1A       		.byte	0x1a
 1923 03e4 CD030000 		.4byte	0x3cd
 1924 03e8 00       		.byte	0
 1925 03e9 07       		.uleb128 0x7
 1926 03ea D1010000 		.4byte	.LASF53
 1927 03ee 09       		.byte	0x9
 1928 03ef 6F       		.byte	0x6f
 1929 03f0 1A       		.byte	0x1a
ARM GAS  /var/folders/l5/0x54b2c10074c8bt31ycjvl80000gp/T//ccT1qQHo.s 			page 35


 1930 03f1 CD030000 		.4byte	0x3cd
 1931 03f5 04       		.byte	0x4
 1932 03f6 07       		.uleb128 0x7
 1933 03f7 C7030000 		.4byte	.LASF54
 1934 03fb 09       		.byte	0x9
 1935 03fc 71       		.byte	0x71
 1936 03fd 19       		.byte	0x19
 1937 03fe 2B010000 		.4byte	0x12b
 1938 0402 08       		.byte	0x8
 1939 0403 07       		.uleb128 0x7
 1940 0404 6A060000 		.4byte	.LASF57
 1941 0408 09       		.byte	0x9
 1942 0409 72       		.byte	0x72
 1943 040a 19       		.byte	0x19
 1944 040b 37010000 		.4byte	0x137
 1945 040f 0C       		.byte	0xc
 1946 0410 00       		.byte	0
 1947 0411 03       		.uleb128 0x3
 1948 0412 C8060000 		.4byte	.LASF58
 1949 0416 09       		.byte	0x9
 1950 0417 73       		.byte	0x73
 1951 0418 03       		.byte	0x3
 1952 0419 D3030000 		.4byte	0x3d3
 1953 041d 0F       		.uleb128 0xf
 1954 041e 4F000000 		.4byte	.LASF66
 1955 0422 09       		.byte	0x9
 1956 0423 D1       		.byte	0xd1
 1957 0424 0F       		.byte	0xf
 1958 0425 11040000 		.4byte	0x411
 1959 0429 09       		.uleb128 0x9
 1960 042a 1C       		.byte	0x1c
 1961 042b 0A       		.byte	0xa
 1962 042c 57       		.byte	0x57
 1963 042d 09       		.byte	0x9
 1964 042e 81040000 		.4byte	0x481
 1965 0432 07       		.uleb128 0x7
 1966 0433 91050000 		.4byte	.LASF59
 1967 0437 0A       		.byte	0xa
 1968 0438 58       		.byte	0x58
 1969 0439 19       		.byte	0x19
 1970 043a 6A020000 		.4byte	0x26a
 1971 043e 00       		.byte	0
 1972 043f 07       		.uleb128 0x7
 1973 0440 28050000 		.4byte	.LASF60
 1974 0444 0A       		.byte	0xa
 1975 0445 59       		.byte	0x59
 1976 0446 19       		.byte	0x19
 1977 0447 07010000 		.4byte	0x107
 1978 044b 08       		.byte	0x8
 1979 044c 07       		.uleb128 0x7
 1980 044d 3F040000 		.4byte	.LASF61
 1981 0451 0A       		.byte	0xa
 1982 0452 5B       		.byte	0x5b
 1983 0453 19       		.byte	0x19
 1984 0454 34030000 		.4byte	0x334
 1985 0458 0C       		.byte	0xc
 1986 0459 07       		.uleb128 0x7
ARM GAS  /var/folders/l5/0x54b2c10074c8bt31ycjvl80000gp/T//ccT1qQHo.s 			page 36


 1987 045a 78020000 		.4byte	.LASF62
 1988 045e 0A       		.byte	0xa
 1989 045f 5E       		.byte	0x5e
 1990 0460 1A       		.byte	0x1a
 1991 0461 64020000 		.4byte	0x264
 1992 0465 10       		.byte	0x10
 1993 0466 07       		.uleb128 0x7
 1994 0467 80040000 		.4byte	.LASF63
 1995 046b 0A       		.byte	0xa
 1996 046c 5F       		.byte	0x5f
 1997 046d 1A       		.byte	0x1a
 1998 046e 64020000 		.4byte	0x264
 1999 0472 14       		.byte	0x14
 2000 0473 07       		.uleb128 0x7
 2001 0474 76040000 		.4byte	.LASF64
 2002 0478 0A       		.byte	0xa
 2003 0479 62       		.byte	0x62
 2004 047a 1A       		.byte	0x1a
 2005 047b 64020000 		.4byte	0x264
 2006 047f 18       		.byte	0x18
 2007 0480 00       		.byte	0
 2008 0481 03       		.uleb128 0x3
 2009 0482 2E060000 		.4byte	.LASF65
 2010 0486 0A       		.byte	0xa
 2011 0487 64       		.byte	0x64
 2012 0488 03       		.byte	0x3
 2013 0489 29040000 		.4byte	0x429
 2014 048d 0F       		.uleb128 0xf
 2015 048e 41060000 		.4byte	.LASF67
 2016 0492 0A       		.byte	0xa
 2017 0493 68       		.byte	0x68
 2018 0494 12       		.byte	0x12
 2019 0495 81040000 		.4byte	0x481
 2020 0499 06       		.uleb128 0x6
 2021 049a 83030000 		.4byte	.LASF68
 2022 049e 10       		.byte	0x10
 2023 049f 0B       		.byte	0xb
 2024 04a0 25       		.byte	0x25
 2025 04a1 10       		.byte	0x10
 2026 04a2 CE040000 		.4byte	0x4ce
 2027 04a6 07       		.uleb128 0x7
 2028 04a7 31010000 		.4byte	.LASF69
 2029 04ab 0B       		.byte	0xb
 2030 04ac 26       		.byte	0x26
 2031 04ad 19       		.byte	0x19
 2032 04ae 6A020000 		.4byte	0x26a
 2033 04b2 00       		.byte	0
 2034 04b3 07       		.uleb128 0x7
 2035 04b4 D6060000 		.4byte	.LASF70
 2036 04b8 0B       		.byte	0xb
 2037 04b9 28       		.byte	0x28
 2038 04ba 1A       		.byte	0x1a
 2039 04bb 64020000 		.4byte	0x264
 2040 04bf 08       		.byte	0x8
 2041 04c0 07       		.uleb128 0x7
 2042 04c1 CB050000 		.4byte	.LASF71
 2043 04c5 0B       		.byte	0xb
ARM GAS  /var/folders/l5/0x54b2c10074c8bt31ycjvl80000gp/T//ccT1qQHo.s 			page 37


 2044 04c6 2A       		.byte	0x2a
 2045 04c7 1A       		.byte	0x1a
 2046 04c8 CE040000 		.4byte	0x4ce
 2047 04cc 0C       		.byte	0xc
 2048 04cd 00       		.byte	0
 2049 04ce 0A       		.uleb128 0xa
 2050 04cf 04       		.byte	0x4
 2051 04d0 99040000 		.4byte	0x499
 2052 04d4 03       		.uleb128 0x3
 2053 04d5 83030000 		.4byte	.LASF68
 2054 04d9 0B       		.byte	0xb
 2055 04da 2C       		.byte	0x2c
 2056 04db 03       		.byte	0x3
 2057 04dc 99040000 		.4byte	0x499
 2058 04e0 10       		.uleb128 0x10
 2059 04e1 04       		.byte	0x4
 2060 04e2 07       		.byte	0x7
 2061 04e3 8F       		.byte	0x8f
 2062 04e4 03       		.byte	0x3
 2063 04e5 1A050000 		.4byte	0x51a
 2064 04e9 11       		.uleb128 0x11
 2065 04ea 29000000 		.4byte	.LASF72
 2066 04ee 07       		.byte	0x7
 2067 04ef 96       		.byte	0x96
 2068 04f0 19       		.byte	0x19
 2069 04f1 13010000 		.4byte	0x113
 2070 04f5 11       		.uleb128 0x11
 2071 04f6 B0000000 		.4byte	.LASF73
 2072 04fa 07       		.byte	0x7
 2073 04fb 9D       		.byte	0x9d
 2074 04fc 19       		.byte	0x19
 2075 04fd 13010000 		.4byte	0x113
 2076 0501 11       		.uleb128 0x11
 2077 0502 4F060000 		.4byte	.LASF74
 2078 0506 07       		.byte	0x7
 2079 0507 A4       		.byte	0xa4
 2080 0508 1A       		.byte	0x1a
 2081 0509 B1020000 		.4byte	0x2b1
 2082 050d 11       		.uleb128 0x11
 2083 050e 2F050000 		.4byte	.LASF75
 2084 0512 07       		.byte	0x7
 2085 0513 AB       		.byte	0xab
 2086 0514 19       		.byte	0x19
 2087 0515 1F010000 		.4byte	0x11f
 2088 0519 00       		.byte	0
 2089 051a 0A       		.uleb128 0xa
 2090 051b 04       		.byte	0x4
 2091 051c 27050000 		.4byte	0x527
 2092 0520 04       		.uleb128 0x4
 2093 0521 01       		.byte	0x1
 2094 0522 08       		.byte	0x8
 2095 0523 A6050000 		.4byte	.LASF76
 2096 0527 0C       		.uleb128 0xc
 2097 0528 20050000 		.4byte	0x520
 2098 052c 0A       		.uleb128 0xa
 2099 052d 04       		.byte	0x4
 2100 052e D4040000 		.4byte	0x4d4
ARM GAS  /var/folders/l5/0x54b2c10074c8bt31ycjvl80000gp/T//ccT1qQHo.s 			page 38


 2101 0532 09       		.uleb128 0x9
 2102 0533 16       		.byte	0x16
 2103 0534 0C       		.byte	0xc
 2104 0535 25       		.byte	0x25
 2105 0536 09       		.byte	0x9
 2106 0537 26060000 		.4byte	0x626
 2107 053b 07       		.uleb128 0x7
 2108 053c 49010000 		.4byte	.LASF77
 2109 0540 0C       		.byte	0xc
 2110 0541 26       		.byte	0x26
 2111 0542 0D       		.byte	0xd
 2112 0543 26060000 		.4byte	0x626
 2113 0547 00       		.byte	0
 2114 0548 07       		.uleb128 0x7
 2115 0549 B3030000 		.4byte	.LASF78
 2116 054d 0C       		.byte	0xc
 2117 054e 27       		.byte	0x27
 2118 054f 0D       		.byte	0xd
 2119 0550 A7000000 		.4byte	0xa7
 2120 0554 04       		.byte	0x4
 2121 0555 07       		.uleb128 0x7
 2122 0556 52040000 		.4byte	.LASF79
 2123 055a 0C       		.byte	0xc
 2124 055b 28       		.byte	0x28
 2125 055c 0D       		.byte	0xd
 2126 055d A7000000 		.4byte	0xa7
 2127 0561 05       		.byte	0x5
 2128 0562 07       		.uleb128 0x7
 2129 0563 75060000 		.4byte	.LASF80
 2130 0567 0C       		.byte	0xc
 2131 0568 29       		.byte	0x29
 2132 0569 0D       		.byte	0xd
 2133 056a B3000000 		.4byte	0xb3
 2134 056e 06       		.byte	0x6
 2135 056f 07       		.uleb128 0x7
 2136 0570 9E040000 		.4byte	.LASF81
 2137 0574 0C       		.byte	0xc
 2138 0575 2A       		.byte	0x2a
 2139 0576 0D       		.byte	0xd
 2140 0577 A7000000 		.4byte	0xa7
 2141 057b 08       		.byte	0x8
 2142 057c 07       		.uleb128 0x7
 2143 057d F1030000 		.4byte	.LASF82
 2144 0581 0C       		.byte	0xc
 2145 0582 2B       		.byte	0x2b
 2146 0583 0D       		.byte	0xd
 2147 0584 A7000000 		.4byte	0xa7
 2148 0588 09       		.byte	0x9
 2149 0589 07       		.uleb128 0x7
 2150 058a A2000000 		.4byte	.LASF83
 2151 058e 0C       		.byte	0xc
 2152 058f 2C       		.byte	0x2c
 2153 0590 0D       		.byte	0xd
 2154 0591 A7000000 		.4byte	0xa7
 2155 0595 0A       		.byte	0xa
 2156 0596 07       		.uleb128 0x7
 2157 0597 85050000 		.4byte	.LASF84
ARM GAS  /var/folders/l5/0x54b2c10074c8bt31ycjvl80000gp/T//ccT1qQHo.s 			page 39


 2158 059b 0C       		.byte	0xc
 2159 059c 2D       		.byte	0x2d
 2160 059d 0D       		.byte	0xd
 2161 059e A7000000 		.4byte	0xa7
 2162 05a2 0B       		.byte	0xb
 2163 05a3 07       		.uleb128 0x7
 2164 05a4 1C060000 		.4byte	.LASF85
 2165 05a8 0C       		.byte	0xc
 2166 05a9 2E       		.byte	0x2e
 2167 05aa 0D       		.byte	0xd
 2168 05ab A7000000 		.4byte	0xa7
 2169 05af 0C       		.byte	0xc
 2170 05b0 07       		.uleb128 0x7
 2171 05b1 5B050000 		.4byte	.LASF86
 2172 05b5 0C       		.byte	0xc
 2173 05b6 2F       		.byte	0x2f
 2174 05b7 0D       		.byte	0xd
 2175 05b8 A7000000 		.4byte	0xa7
 2176 05bc 0D       		.byte	0xd
 2177 05bd 07       		.uleb128 0x7
 2178 05be 0F000000 		.4byte	.LASF87
 2179 05c2 0C       		.byte	0xc
 2180 05c3 30       		.byte	0x30
 2181 05c4 0D       		.byte	0xd
 2182 05c5 A7000000 		.4byte	0xa7
 2183 05c9 0E       		.byte	0xe
 2184 05ca 07       		.uleb128 0x7
 2185 05cb FD030000 		.4byte	.LASF88
 2186 05cf 0C       		.byte	0xc
 2187 05d0 31       		.byte	0x31
 2188 05d1 0D       		.byte	0xd
 2189 05d2 A7000000 		.4byte	0xa7
 2190 05d6 0F       		.byte	0xf
 2191 05d7 07       		.uleb128 0x7
 2192 05d8 0D010000 		.4byte	.LASF89
 2193 05dc 0C       		.byte	0xc
 2194 05dd 32       		.byte	0x32
 2195 05de 0D       		.byte	0xd
 2196 05df A7000000 		.4byte	0xa7
 2197 05e3 10       		.byte	0x10
 2198 05e4 07       		.uleb128 0x7
 2199 05e5 D3000000 		.4byte	.LASF90
 2200 05e9 0C       		.byte	0xc
 2201 05ea 34       		.byte	0x34
 2202 05eb 0D       		.byte	0xd
 2203 05ec A7000000 		.4byte	0xa7
 2204 05f0 11       		.byte	0x11
 2205 05f1 07       		.uleb128 0x7
 2206 05f2 1D010000 		.4byte	.LASF91
 2207 05f6 0C       		.byte	0xc
 2208 05f7 35       		.byte	0x35
 2209 05f8 0D       		.byte	0xd
 2210 05f9 A7000000 		.4byte	0xa7
 2211 05fd 12       		.byte	0x12
 2212 05fe 07       		.uleb128 0x7
 2213 05ff BB030000 		.4byte	.LASF92
 2214 0603 0C       		.byte	0xc
ARM GAS  /var/folders/l5/0x54b2c10074c8bt31ycjvl80000gp/T//ccT1qQHo.s 			page 40


 2215 0604 36       		.byte	0x36
 2216 0605 0D       		.byte	0xd
 2217 0606 A7000000 		.4byte	0xa7
 2218 060a 13       		.byte	0x13
 2219 060b 07       		.uleb128 0x7
 2220 060c 3D050000 		.4byte	.LASF93
 2221 0610 0C       		.byte	0xc
 2222 0611 37       		.byte	0x37
 2223 0612 0D       		.byte	0xd
 2224 0613 A7000000 		.4byte	0xa7
 2225 0617 14       		.byte	0x14
 2226 0618 07       		.uleb128 0x7
 2227 0619 1C050000 		.4byte	.LASF94
 2228 061d 0C       		.byte	0xc
 2229 061e 39       		.byte	0x39
 2230 061f 0D       		.byte	0xd
 2231 0620 A7000000 		.4byte	0xa7
 2232 0624 15       		.byte	0x15
 2233 0625 00       		.byte	0
 2234 0626 12       		.uleb128 0x12
 2235 0627 20050000 		.4byte	0x520
 2236 062b 36060000 		.4byte	0x636
 2237 062f 13       		.uleb128 0x13
 2238 0630 38000000 		.4byte	0x38
 2239 0634 03       		.byte	0x3
 2240 0635 00       		.byte	0
 2241 0636 03       		.uleb128 0x3
 2242 0637 94010000 		.4byte	.LASF95
 2243 063b 0C       		.byte	0xc
 2244 063c 3A       		.byte	0x3a
 2245 063d 03       		.byte	0x3
 2246 063e 32050000 		.4byte	0x532
 2247 0642 0C       		.uleb128 0xc
 2248 0643 36060000 		.4byte	0x636
 2249 0647 0F       		.uleb128 0xf
 2250 0648 14020000 		.4byte	.LASF96
 2251 064c 0C       		.byte	0xc
 2252 064d 77       		.byte	0x77
 2253 064e 1D       		.byte	0x1d
 2254 064f 42060000 		.4byte	0x642
 2255 0653 03       		.uleb128 0x3
 2256 0654 89030000 		.4byte	.LASF97
 2257 0658 0D       		.byte	0xd
 2258 0659 30       		.byte	0x30
 2259 065a 1D       		.byte	0x1d
 2260 065b 5F060000 		.4byte	0x65f
 2261 065f 06       		.uleb128 0x6
 2262 0660 89030000 		.4byte	.LASF97
 2263 0664 24       		.byte	0x24
 2264 0665 0D       		.byte	0xd
 2265 0666 3E       		.byte	0x3e
 2266 0667 08       		.byte	0x8
 2267 0668 D5060000 		.4byte	0x6d5
 2268 066c 07       		.uleb128 0x7
 2269 066d E9000000 		.4byte	.LASF98
 2270 0671 0D       		.byte	0xd
 2271 0672 3F       		.byte	0x3f
ARM GAS  /var/folders/l5/0x54b2c10074c8bt31ycjvl80000gp/T//ccT1qQHo.s 			page 41


 2272 0673 19       		.byte	0x19
 2273 0674 6A020000 		.4byte	0x26a
 2274 0678 00       		.byte	0
 2275 0679 07       		.uleb128 0x7
 2276 067a DF030000 		.4byte	.LASF99
 2277 067e 0D       		.byte	0xd
 2278 067f 40       		.byte	0x40
 2279 0680 19       		.byte	0x19
 2280 0681 2C000000 		.4byte	0x2c
 2281 0685 08       		.byte	0x8
 2282 0686 07       		.uleb128 0x7
 2283 0687 82010000 		.4byte	.LASF100
 2284 068b 0D       		.byte	0xd
 2285 068c 41       		.byte	0x41
 2286 068d 1A       		.byte	0x1a
 2287 068e F8060000 		.4byte	0x6f8
 2288 0692 0C       		.byte	0xc
 2289 0693 07       		.uleb128 0x7
 2290 0694 74000000 		.4byte	.LASF101
 2291 0698 0D       		.byte	0xd
 2292 0699 42       		.byte	0x42
 2293 069a 1A       		.byte	0x1a
 2294 069b F8060000 		.4byte	0x6f8
 2295 069f 10       		.byte	0x10
 2296 06a0 07       		.uleb128 0x7
 2297 06a1 37040000 		.4byte	.LASF102
 2298 06a5 0D       		.byte	0xd
 2299 06a6 44       		.byte	0x44
 2300 06a7 1A       		.byte	0x1a
 2301 06a8 F8060000 		.4byte	0x6f8
 2302 06ac 14       		.byte	0x14
 2303 06ad 07       		.uleb128 0x7
 2304 06ae CA040000 		.4byte	.LASF103
 2305 06b2 0D       		.byte	0xd
 2306 06b3 45       		.byte	0x45
 2307 06b4 1A       		.byte	0x1a
 2308 06b5 F8060000 		.4byte	0x6f8
 2309 06b9 18       		.byte	0x18
 2310 06ba 07       		.uleb128 0x7
 2311 06bb 38060000 		.4byte	.LASF104
 2312 06bf 0D       		.byte	0xd
 2313 06c0 46       		.byte	0x46
 2314 06c1 19       		.byte	0x19
 2315 06c2 D5060000 		.4byte	0x6d5
 2316 06c6 1C       		.byte	0x1c
 2317 06c7 07       		.uleb128 0x7
 2318 06c8 CF060000 		.4byte	.LASF105
 2319 06cc 0D       		.byte	0xd
 2320 06cd 47       		.byte	0x47
 2321 06ce 1A       		.byte	0x1a
 2322 06cf B1020000 		.4byte	0x2b1
 2323 06d3 20       		.byte	0x20
 2324 06d4 00       		.byte	0
 2325 06d5 03       		.uleb128 0x3
 2326 06d6 A9040000 		.4byte	.LASF106
 2327 06da 0D       		.byte	0xd
 2328 06db 33       		.byte	0x33
ARM GAS  /var/folders/l5/0x54b2c10074c8bt31ycjvl80000gp/T//ccT1qQHo.s 			page 42


 2329 06dc 10       		.byte	0x10
 2330 06dd E1060000 		.4byte	0x6e1
 2331 06e1 0A       		.uleb128 0xa
 2332 06e2 04       		.byte	0x4
 2333 06e3 E7060000 		.4byte	0x6e7
 2334 06e7 0D       		.uleb128 0xd
 2335 06e8 F2060000 		.4byte	0x6f2
 2336 06ec 0E       		.uleb128 0xe
 2337 06ed F2060000 		.4byte	0x6f2
 2338 06f1 00       		.byte	0
 2339 06f2 0A       		.uleb128 0xa
 2340 06f3 04       		.byte	0x4
 2341 06f4 53060000 		.4byte	0x653
 2342 06f8 0A       		.uleb128 0xa
 2343 06f9 04       		.byte	0x4
 2344 06fa A7000000 		.4byte	0xa7
 2345 06fe 03       		.uleb128 0x3
 2346 06ff 78030000 		.4byte	.LASF107
 2347 0703 0D       		.byte	0xd
 2348 0704 7B       		.byte	0x7b
 2349 0705 16       		.byte	0x16
 2350 0706 53060000 		.4byte	0x653
 2351 070a 03       		.uleb128 0x3
 2352 070b 39000000 		.4byte	.LASF108
 2353 070f 0D       		.byte	0xd
 2354 0710 EE       		.byte	0xee
 2355 0711 16       		.byte	0x16
 2356 0712 53060000 		.4byte	0x653
 2357 0716 12       		.uleb128 0x12
 2358 0717 99020000 		.4byte	0x299
 2359 071b 26070000 		.4byte	0x726
 2360 071f 13       		.uleb128 0x13
 2361 0720 38000000 		.4byte	0x38
 2362 0724 26       		.byte	0x26
 2363 0725 00       		.byte	0
 2364 0726 0F       		.uleb128 0xf
 2365 0727 AD010000 		.4byte	.LASF109
 2366 072b 0E       		.byte	0xe
 2367 072c 82       		.byte	0x82
 2368 072d 08       		.byte	0x8
 2369 072e 16070000 		.4byte	0x716
 2370 0732 06       		.uleb128 0x6
 2371 0733 68050000 		.4byte	.LASF110
 2372 0737 10       		.byte	0x10
 2373 0738 0F       		.byte	0xf
 2374 0739 3F       		.byte	0x3f
 2375 073a 08       		.byte	0x8
 2376 073b 74070000 		.4byte	0x774
 2377 073f 07       		.uleb128 0x7
 2378 0740 36020000 		.4byte	.LASF111
 2379 0744 0F       		.byte	0xf
 2380 0745 40       		.byte	0x40
 2381 0746 0F       		.byte	0xf
 2382 0747 1A050000 		.4byte	0x51a
 2383 074b 00       		.byte	0
 2384 074c 07       		.uleb128 0x7
 2385 074d 5A040000 		.4byte	.LASF112
ARM GAS  /var/folders/l5/0x54b2c10074c8bt31ycjvl80000gp/T//ccT1qQHo.s 			page 43


 2386 0751 0F       		.byte	0xf
 2387 0752 41       		.byte	0x41
 2388 0753 0A       		.byte	0xa
 2389 0754 7A070000 		.4byte	0x77a
 2390 0758 04       		.byte	0x4
 2391 0759 07       		.uleb128 0x7
 2392 075a E0000000 		.4byte	.LASF113
 2393 075e 0F       		.byte	0xf
 2394 075f 42       		.byte	0x42
 2395 0760 0A       		.byte	0xa
 2396 0761 7A070000 		.4byte	0x77a
 2397 0765 08       		.byte	0x8
 2398 0766 07       		.uleb128 0x7
 2399 0767 BA040000 		.4byte	.LASF114
 2400 076b 0F       		.byte	0xf
 2401 076c 43       		.byte	0x43
 2402 076d 0A       		.byte	0xa
 2403 076e 7A070000 		.4byte	0x77a
 2404 0772 0C       		.byte	0xc
 2405 0773 00       		.byte	0
 2406 0774 0C       		.uleb128 0xc
 2407 0775 32070000 		.4byte	0x732
 2408 0779 14       		.uleb128 0x14
 2409 077a 0A       		.uleb128 0xa
 2410 077b 04       		.byte	0x4
 2411 077c 79070000 		.4byte	0x779
 2412 0780 15       		.uleb128 0x15
 2413 0781 7805     		.2byte	0x578
 2414 0783 0F       		.byte	0xf
 2415 0784 48       		.byte	0x48
 2416 0785 03       		.byte	0x3
 2417 0786 CB070000 		.4byte	0x7cb
 2418 078a 08       		.uleb128 0x8
 2419 078b 543000   		.ascii	"T0\000"
 2420 078e 0F       		.byte	0xf
 2421 078f 49       		.byte	0x49
 2422 0790 05       		.byte	0x5
 2423 0791 CB070000 		.4byte	0x7cb
 2424 0795 00       		.byte	0
 2425 0796 16       		.uleb128 0x16
 2426 0797 543100   		.ascii	"T1\000"
 2427 079a 0F       		.byte	0xf
 2428 079b 4A       		.byte	0x4a
 2429 079c 05       		.byte	0x5
 2430 079d CB070000 		.4byte	0x7cb
 2431 07a1 1801     		.2byte	0x118
 2432 07a3 16       		.uleb128 0x16
 2433 07a4 543200   		.ascii	"T2\000"
 2434 07a7 0F       		.byte	0xf
 2435 07a8 4B       		.byte	0x4b
 2436 07a9 05       		.byte	0x5
 2437 07aa CB070000 		.4byte	0x7cb
 2438 07ae 3002     		.2byte	0x230
 2439 07b0 16       		.uleb128 0x16
 2440 07b1 543300   		.ascii	"T3\000"
 2441 07b4 0F       		.byte	0xf
 2442 07b5 4C       		.byte	0x4c
ARM GAS  /var/folders/l5/0x54b2c10074c8bt31ycjvl80000gp/T//ccT1qQHo.s 			page 44


 2443 07b6 05       		.byte	0x5
 2444 07b7 CB070000 		.4byte	0x7cb
 2445 07bb 4803     		.2byte	0x348
 2446 07bd 16       		.uleb128 0x16
 2447 07be 543400   		.ascii	"T4\000"
 2448 07c1 0F       		.byte	0xf
 2449 07c2 4D       		.byte	0x4d
 2450 07c3 05       		.byte	0x5
 2451 07c4 CB070000 		.4byte	0x7cb
 2452 07c8 6004     		.2byte	0x460
 2453 07ca 00       		.byte	0
 2454 07cb 12       		.uleb128 0x12
 2455 07cc 99020000 		.4byte	0x299
 2456 07d0 DB070000 		.4byte	0x7db
 2457 07d4 13       		.uleb128 0x13
 2458 07d5 38000000 		.4byte	0x38
 2459 07d9 45       		.byte	0x45
 2460 07da 00       		.byte	0
 2461 07db 17       		.uleb128 0x17
 2462 07dc AB050000 		.4byte	.LASF147
 2463 07e0 7805     		.2byte	0x578
 2464 07e2 0F       		.byte	0xf
 2465 07e3 47       		.byte	0x47
 2466 07e4 07       		.byte	0x7
 2467 07e5 01080000 		.4byte	0x801
 2468 07e9 18       		.uleb128 0x18
 2469 07ea 776100   		.ascii	"wa\000"
 2470 07ed 0F       		.byte	0xf
 2471 07ee 4E       		.byte	0x4e
 2472 07ef 05       		.byte	0x5
 2473 07f0 80070000 		.4byte	0x780
 2474 07f4 11       		.uleb128 0x11
 2475 07f5 9E010000 		.4byte	.LASF115
 2476 07f9 0F       		.byte	0xf
 2477 07fa 4F       		.byte	0x4f
 2478 07fb 0B       		.byte	0xb
 2479 07fc 01080000 		.4byte	0x801
 2480 0800 00       		.byte	0
 2481 0801 12       		.uleb128 0x12
 2482 0802 A7000000 		.4byte	0xa7
 2483 0806 12080000 		.4byte	0x812
 2484 080a 19       		.uleb128 0x19
 2485 080b 38000000 		.4byte	0x38
 2486 080f 7705     		.2byte	0x577
 2487 0811 00       		.byte	0
 2488 0812 12       		.uleb128 0x12
 2489 0813 64020000 		.4byte	0x264
 2490 0817 22080000 		.4byte	0x822
 2491 081b 13       		.uleb128 0x13
 2492 081c 38000000 		.4byte	0x38
 2493 0820 04       		.byte	0x4
 2494 0821 00       		.byte	0
 2495 0822 0F       		.uleb128 0xf
 2496 0823 50030000 		.4byte	.LASF116
 2497 0827 0F       		.byte	0xf
 2498 0828 A9       		.byte	0xa9
 2499 0829 10       		.byte	0x10
ARM GAS  /var/folders/l5/0x54b2c10074c8bt31ycjvl80000gp/T//ccT1qQHo.s 			page 45


 2500 082a 12080000 		.4byte	0x812
 2501 082e 0F       		.uleb128 0xf
 2502 082f C7000000 		.4byte	.LASF117
 2503 0833 0F       		.byte	0xf
 2504 0834 AA       		.byte	0xaa
 2505 0835 1B       		.byte	0x1b
 2506 0836 DB070000 		.4byte	0x7db
 2507 083a 12       		.uleb128 0x12
 2508 083b B3020000 		.4byte	0x2b3
 2509 083f 45080000 		.4byte	0x845
 2510 0843 1A       		.uleb128 0x1a
 2511 0844 00       		.byte	0
 2512 0845 0C       		.uleb128 0xc
 2513 0846 3A080000 		.4byte	0x83a
 2514 084a 1B       		.uleb128 0x1b
 2515 084b 776100   		.ascii	"wa\000"
 2516 084e 0F       		.byte	0xf
 2517 084f AB       		.byte	0xab
 2518 0850 18       		.byte	0x18
 2519 0851 45080000 		.4byte	0x845
 2520 0855 0F       		.uleb128 0xf
 2521 0856 1D020000 		.4byte	.LASF118
 2522 085a 0F       		.byte	0xf
 2523 085b AC       		.byte	0xac
 2524 085c 0F       		.byte	0xf
 2525 085d D7000000 		.4byte	0xd7
 2526 0861 1C       		.uleb128 0x1c
 2527 0862 697100   		.ascii	"iq\000"
 2528 0865 01       		.byte	0x1
 2529 0866 46       		.byte	0x46
 2530 0867 08       		.byte	0x8
 2531 0868 FE060000 		.4byte	0x6fe
 2532 086c 05       		.uleb128 0x5
 2533 086d 03       		.byte	0x3
 2534 086e 00000000 		.4byte	iq
 2535 0872 1C       		.uleb128 0x1c
 2536 0873 6F7100   		.ascii	"oq\000"
 2537 0876 01       		.byte	0x1
 2538 0877 47       		.byte	0x47
 2539 0878 08       		.byte	0x8
 2540 0879 0A070000 		.4byte	0x70a
 2541 087d 05       		.uleb128 0x5
 2542 087e 03       		.byte	0x3
 2543 087f 00000000 		.4byte	oq
 2544 0883 1D       		.uleb128 0x1d
 2545 0884 66020000 		.4byte	.LASF119
 2546 0888 01       		.byte	0x1
 2547 0889 99       		.byte	0x99
 2548 088a 1A       		.byte	0x1a
 2549 088b 74070000 		.4byte	0x774
 2550 088f 05       		.uleb128 0x5
 2551 0890 03       		.byte	0x3
 2552 0891 00000000 		.4byte	testqueues1
 2553 0895 1D       		.uleb128 0x1d
 2554 0896 09040000 		.4byte	.LASF120
 2555 089a 01       		.byte	0x1
 2556 089b E7       		.byte	0xe7
ARM GAS  /var/folders/l5/0x54b2c10074c8bt31ycjvl80000gp/T//ccT1qQHo.s 			page 46


 2557 089c 1A       		.byte	0x1a
 2558 089d 74070000 		.4byte	0x774
 2559 08a1 05       		.uleb128 0x5
 2560 08a2 03       		.byte	0x3
 2561 08a3 00000000 		.4byte	testqueues2
 2562 08a7 12       		.uleb128 0x12
 2563 08a8 C2080000 		.4byte	0x8c2
 2564 08ac B7080000 		.4byte	0x8b7
 2565 08b0 13       		.uleb128 0x13
 2566 08b1 38000000 		.4byte	0x38
 2567 08b5 02       		.byte	0x2
 2568 08b6 00       		.byte	0
 2569 08b7 0C       		.uleb128 0xc
 2570 08b8 A7080000 		.4byte	0x8a7
 2571 08bc 0A       		.uleb128 0xa
 2572 08bd 04       		.byte	0x4
 2573 08be 74070000 		.4byte	0x774
 2574 08c2 0C       		.uleb128 0xc
 2575 08c3 BC080000 		.4byte	0x8bc
 2576 08c7 1D       		.uleb128 0x1d
 2577 08c8 66000000 		.4byte	.LASF121
 2578 08cc 01       		.byte	0x1
 2579 08cd F2       		.byte	0xf2
 2580 08ce 25       		.byte	0x25
 2581 08cf B7080000 		.4byte	0x8b7
 2582 08d3 05       		.uleb128 0x5
 2583 08d4 03       		.byte	0x3
 2584 08d5 00000000 		.4byte	patternqueues
 2585 08d9 1E       		.uleb128 0x1e
 2586 08da CF030000 		.4byte	.LASF122
 2587 08de 01       		.byte	0x1
 2588 08df B5       		.byte	0xb5
 2589 08e0 0D       		.byte	0xd
 2590 08e1 01       		.byte	0x1
 2591 08e2 07090000 		.4byte	0x907
 2592 08e6 1F       		.uleb128 0x1f
 2593 08e7 6900     		.ascii	"i\000"
 2594 08e9 01       		.byte	0x1
 2595 08ea B6       		.byte	0xb6
 2596 08eb 0C       		.byte	0xc
 2597 08ec 38000000 		.4byte	0x38
 2598 08f0 1F       		.uleb128 0x1f
 2599 08f1 6E00     		.ascii	"n\000"
 2600 08f3 01       		.byte	0x1
 2601 08f4 B7       		.byte	0xb7
 2602 08f5 0A       		.byte	0xa
 2603 08f6 2C000000 		.4byte	0x2c
 2604 08fa 20       		.uleb128 0x20
 2605 08fb 1F       		.uleb128 0x1f
 2606 08fc 6300     		.ascii	"c\000"
 2607 08fe 01       		.byte	0x1
 2608 08ff C3       		.byte	0xc3
 2609 0900 0A       		.byte	0xa
 2610 0901 20050000 		.4byte	0x520
 2611 0905 00       		.byte	0
 2612 0906 00       		.byte	0
 2613 0907 21       		.uleb128 0x21
ARM GAS  /var/folders/l5/0x54b2c10074c8bt31ycjvl80000gp/T//ccT1qQHo.s 			page 47


 2614 0908 C3050000 		.4byte	.LASF124
 2615 090c 01       		.byte	0x1
 2616 090d AE       		.byte	0xae
 2617 090e 0E       		.byte	0xe
 2618 090f 13010000 		.4byte	0x113
 2619 0913 00000000 		.4byte	.LFB12
 2620 0917 20000000 		.4byte	.LFE12-.LFB12
 2621 091b 01       		.uleb128 0x1
 2622 091c 9C       		.byte	0x9c
 2623 091d 52090000 		.4byte	0x952
 2624 0921 22       		.uleb128 0x22
 2625 0922 7000     		.ascii	"p\000"
 2626 0924 01       		.byte	0x1
 2627 0925 AE       		.byte	0xae
 2628 0926 1C       		.byte	0x1c
 2629 0927 B1020000 		.4byte	0x2b1
 2630 092b 04000000 		.4byte	.LLST1
 2631 092f 00000000 		.4byte	.LVUS1
 2632 0933 23       		.uleb128 0x23
 2633 0934 14000000 		.4byte	.LVL7
 2634 0938 8F100000 		.4byte	0x108f
 2635 093c 24       		.uleb128 0x24
 2636 093d 01       		.uleb128 0x1
 2637 093e 50       		.byte	0x50
 2638 093f 05       		.uleb128 0x5
 2639 0940 03       		.byte	0x3
 2640 0941 00000000 		.4byte	.LANCHOR1
 2641 0945 24       		.uleb128 0x24
 2642 0946 01       		.uleb128 0x1
 2643 0947 51       		.byte	0x51
 2644 0948 01       		.uleb128 0x1
 2645 0949 30       		.byte	0x30
 2646 094a 24       		.uleb128 0x24
 2647 094b 01       		.uleb128 0x1
 2648 094c 52       		.byte	0x52
 2649 094d 02       		.uleb128 0x2
 2650 094e 08       		.byte	0x8
 2651 094f C8       		.byte	0xc8
 2652 0950 00       		.byte	0
 2653 0951 00       		.byte	0
 2654 0952 25       		.uleb128 0x25
 2655 0953 B9000000 		.4byte	.LASF126
 2656 0957 01       		.byte	0x1
 2657 0958 A9       		.byte	0xa9
 2658 0959 0D       		.byte	0xd
 2659 095a 00000000 		.4byte	.LFB11
 2660 095e 3C000000 		.4byte	.LFE11-.LFB11
 2661 0962 01       		.uleb128 0x1
 2662 0963 9C       		.byte	0x9c
 2663 0964 90090000 		.4byte	0x990
 2664 0968 23       		.uleb128 0x23
 2665 0969 28000000 		.4byte	.LVL8
 2666 096d 9C100000 		.4byte	0x109c
 2667 0971 24       		.uleb128 0x24
 2668 0972 01       		.uleb128 0x1
 2669 0973 50       		.byte	0x50
 2670 0974 05       		.uleb128 0x5
ARM GAS  /var/folders/l5/0x54b2c10074c8bt31ycjvl80000gp/T//ccT1qQHo.s 			page 48


 2671 0975 03       		.byte	0x3
 2672 0976 00000000 		.4byte	.LANCHOR1
 2673 097a 24       		.uleb128 0x24
 2674 097b 01       		.uleb128 0x1
 2675 097c 52       		.byte	0x52
 2676 097d 01       		.uleb128 0x1
 2677 097e 34       		.byte	0x34
 2678 097f 24       		.uleb128 0x24
 2679 0980 01       		.uleb128 0x1
 2680 0981 53       		.byte	0x53
 2681 0982 05       		.uleb128 0x5
 2682 0983 03       		.byte	0x3
 2683 0984 00000000 		.4byte	notify
 2684 0988 24       		.uleb128 0x24
 2685 0989 02       		.uleb128 0x2
 2686 098a 7D       		.byte	0x7d
 2687 098b 00       		.sleb128 0
 2688 098c 01       		.uleb128 0x1
 2689 098d 30       		.byte	0x30
 2690 098e 00       		.byte	0
 2691 098f 00       		.byte	0
 2692 0990 1E       		.uleb128 0x1e
 2693 0991 56020000 		.4byte	.LASF123
 2694 0995 01       		.byte	0x1
 2695 0996 5E       		.byte	0x5e
 2696 0997 0D       		.byte	0xd
 2697 0998 01       		.byte	0x1
 2698 0999 B2090000 		.4byte	0x9b2
 2699 099d 1F       		.uleb128 0x1f
 2700 099e 6900     		.ascii	"i\000"
 2701 09a0 01       		.byte	0x1
 2702 09a1 5F       		.byte	0x5f
 2703 09a2 0C       		.byte	0xc
 2704 09a3 38000000 		.4byte	0x38
 2705 09a7 1F       		.uleb128 0x1f
 2706 09a8 6E00     		.ascii	"n\000"
 2707 09aa 01       		.byte	0x1
 2708 09ab 60       		.byte	0x60
 2709 09ac 0A       		.byte	0xa
 2710 09ad 2C000000 		.4byte	0x2c
 2711 09b1 00       		.byte	0
 2712 09b2 21       		.uleb128 0x21
 2713 09b3 2F040000 		.4byte	.LASF125
 2714 09b7 01       		.byte	0x1
 2715 09b8 57       		.byte	0x57
 2716 09b9 0E       		.byte	0xe
 2717 09ba 13010000 		.4byte	0x113
 2718 09be 00000000 		.4byte	.LFB9
 2719 09c2 1C000000 		.4byte	.LFE9-.LFB9
 2720 09c6 01       		.uleb128 0x1
 2721 09c7 9C       		.byte	0x9c
 2722 09c8 F8090000 		.4byte	0x9f8
 2723 09cc 22       		.uleb128 0x22
 2724 09cd 7000     		.ascii	"p\000"
 2725 09cf 01       		.byte	0x1
 2726 09d0 57       		.byte	0x57
 2727 09d1 1C       		.byte	0x1c
ARM GAS  /var/folders/l5/0x54b2c10074c8bt31ycjvl80000gp/T//ccT1qQHo.s 			page 49


 2728 09d2 B1020000 		.4byte	0x2b1
 2729 09d6 29000000 		.4byte	.LLST0
 2730 09da 25000000 		.4byte	.LVUS0
 2731 09de 23       		.uleb128 0x23
 2732 09df 10000000 		.4byte	.LVL3
 2733 09e3 A9100000 		.4byte	0x10a9
 2734 09e7 24       		.uleb128 0x24
 2735 09e8 01       		.uleb128 0x1
 2736 09e9 50       		.byte	0x50
 2737 09ea 05       		.uleb128 0x5
 2738 09eb 03       		.byte	0x3
 2739 09ec 00000000 		.4byte	.LANCHOR0
 2740 09f0 24       		.uleb128 0x24
 2741 09f1 01       		.uleb128 0x1
 2742 09f2 51       		.byte	0x51
 2743 09f3 02       		.uleb128 0x2
 2744 09f4 08       		.byte	0x8
 2745 09f5 C8       		.byte	0xc8
 2746 09f6 00       		.byte	0
 2747 09f7 00       		.byte	0
 2748 09f8 25       		.uleb128 0x25
 2749 09f9 88040000 		.4byte	.LASF127
 2750 09fd 01       		.byte	0x1
 2751 09fe 52       		.byte	0x52
 2752 09ff 0D       		.byte	0xd
 2753 0a00 00000000 		.4byte	.LFB8
 2754 0a04 3C000000 		.4byte	.LFE8-.LFB8
 2755 0a08 01       		.uleb128 0x1
 2756 0a09 9C       		.byte	0x9c
 2757 0a0a 360A0000 		.4byte	0xa36
 2758 0a0e 23       		.uleb128 0x23
 2759 0a0f 28000000 		.4byte	.LVL4
 2760 0a13 B6100000 		.4byte	0x10b6
 2761 0a17 24       		.uleb128 0x24
 2762 0a18 01       		.uleb128 0x1
 2763 0a19 50       		.byte	0x50
 2764 0a1a 05       		.uleb128 0x5
 2765 0a1b 03       		.byte	0x3
 2766 0a1c 00000000 		.4byte	.LANCHOR0
 2767 0a20 24       		.uleb128 0x24
 2768 0a21 01       		.uleb128 0x1
 2769 0a22 52       		.byte	0x52
 2770 0a23 01       		.uleb128 0x1
 2771 0a24 34       		.byte	0x34
 2772 0a25 24       		.uleb128 0x24
 2773 0a26 01       		.uleb128 0x1
 2774 0a27 53       		.byte	0x53
 2775 0a28 05       		.uleb128 0x5
 2776 0a29 03       		.byte	0x3
 2777 0a2a 00000000 		.4byte	notify
 2778 0a2e 24       		.uleb128 0x24
 2779 0a2f 02       		.uleb128 0x2
 2780 0a30 7D       		.byte	0x7d
 2781 0a31 00       		.sleb128 0
 2782 0a32 01       		.uleb128 0x1
 2783 0a33 30       		.byte	0x30
 2784 0a34 00       		.byte	0
ARM GAS  /var/folders/l5/0x54b2c10074c8bt31ycjvl80000gp/T//ccT1qQHo.s 			page 50


 2785 0a35 00       		.byte	0
 2786 0a36 25       		.uleb128 0x25
 2787 0a37 69010000 		.4byte	.LASF128
 2788 0a3b 01       		.byte	0x1
 2789 0a3c 3D       		.byte	0x3d
 2790 0a3d 0D       		.byte	0xd
 2791 0a3e 00000000 		.4byte	.LFB7
 2792 0a42 04000000 		.4byte	.LFE7-.LFB7
 2793 0a46 01       		.uleb128 0x1
 2794 0a47 9C       		.byte	0x9c
 2795 0a48 5A0A0000 		.4byte	0xa5a
 2796 0a4c 26       		.uleb128 0x26
 2797 0a4d 717000   		.ascii	"qp\000"
 2798 0a50 01       		.byte	0x1
 2799 0a51 3D       		.byte	0x3d
 2800 0a52 22       		.byte	0x22
 2801 0a53 F2060000 		.4byte	0x6f2
 2802 0a57 01       		.uleb128 0x1
 2803 0a58 50       		.byte	0x50
 2804 0a59 00       		.byte	0
 2805 0a5a 27       		.uleb128 0x27
 2806 0a5b 90090000 		.4byte	0x990
 2807 0a5f 00000000 		.4byte	.LFB10
 2808 0a63 58030000 		.4byte	.LFE10-.LFB10
 2809 0a67 01       		.uleb128 0x1
 2810 0a68 9C       		.byte	0x9c
 2811 0a69 0E0E0000 		.4byte	0xe0e
 2812 0a6d 28       		.uleb128 0x28
 2813 0a6e 9D090000 		.4byte	0x99d
 2814 0a72 56000000 		.4byte	.LLST2
 2815 0a76 4A000000 		.4byte	.LVUS2
 2816 0a7a 29       		.uleb128 0x29
 2817 0a7b A7090000 		.4byte	0x9a7
 2818 0a7f 2A       		.uleb128 0x2a
 2819 0a80 90090000 		.4byte	0x990
 2820 0a84 98000000 		.4byte	.LBI5
 2821 0a88 00       		.byte	.LVU67
 2822 0a89 00000000 		.4byte	.Ldebug_ranges0+0
 2823 0a8d 01       		.byte	0x1
 2824 0a8e 5E       		.byte	0x5e
 2825 0a8f 0D       		.byte	0xd
 2826 0a90 7D0D0000 		.4byte	0xd7d
 2827 0a94 2B       		.uleb128 0x2b
 2828 0a95 00000000 		.4byte	.Ldebug_ranges0+0
 2829 0a99 28       		.uleb128 0x28
 2830 0a9a 9D090000 		.4byte	0x99d
 2831 0a9e C2000000 		.4byte	.LLST3
 2832 0aa2 A6000000 		.4byte	.LVUS3
 2833 0aa6 28       		.uleb128 0x28
 2834 0aa7 A7090000 		.4byte	0x9a7
 2835 0aab 81010000 		.4byte	.LLST4
 2836 0aaf 7B010000 		.4byte	.LVUS4
 2837 0ab3 2C       		.uleb128 0x2c
 2838 0ab4 A8000000 		.4byte	.LVL18
 2839 0ab8 C3100000 		.4byte	0x10c3
 2840 0abc C70A0000 		.4byte	0xac7
 2841 0ac0 24       		.uleb128 0x24
ARM GAS  /var/folders/l5/0x54b2c10074c8bt31ycjvl80000gp/T//ccT1qQHo.s 			page 51


 2842 0ac1 01       		.uleb128 0x1
 2843 0ac2 50       		.byte	0x50
 2844 0ac3 02       		.uleb128 0x2
 2845 0ac4 74       		.byte	0x74
 2846 0ac5 00       		.sleb128 0
 2847 0ac6 00       		.byte	0
 2848 0ac7 2C       		.uleb128 0x2c
 2849 0ac8 BC000000 		.4byte	.LVL19
 2850 0acc D0100000 		.4byte	0x10d0
 2851 0ad0 DA0A0000 		.4byte	0xada
 2852 0ad4 24       		.uleb128 0x24
 2853 0ad5 01       		.uleb128 0x1
 2854 0ad6 50       		.byte	0x50
 2855 0ad7 01       		.uleb128 0x1
 2856 0ad8 33       		.byte	0x33
 2857 0ad9 00       		.byte	0
 2858 0ada 2C       		.uleb128 0x2c
 2859 0adb DC000000 		.4byte	.LVL22
 2860 0adf A9100000 		.4byte	0x10a9
 2861 0ae3 F40A0000 		.4byte	0xaf4
 2862 0ae7 24       		.uleb128 0x24
 2863 0ae8 01       		.uleb128 0x1
 2864 0ae9 50       		.byte	0x50
 2865 0aea 02       		.uleb128 0x2
 2866 0aeb 74       		.byte	0x74
 2867 0aec 00       		.sleb128 0
 2868 0aed 24       		.uleb128 0x24
 2869 0aee 01       		.uleb128 0x1
 2870 0aef 51       		.byte	0x51
 2871 0af0 02       		.uleb128 0x2
 2872 0af1 09       		.byte	0x9
 2873 0af2 FF       		.byte	0xff
 2874 0af3 00       		.byte	0
 2875 0af4 2D       		.uleb128 0x2d
 2876 0af5 E4000000 		.4byte	.LVL23
 2877 0af9 DC100000 		.4byte	0x10dc
 2878 0afd 2C       		.uleb128 0x2c
 2879 0afe 04010000 		.4byte	.LVL25
 2880 0b02 D0100000 		.4byte	0x10d0
 2881 0b06 100B0000 		.4byte	0xb10
 2882 0b0a 24       		.uleb128 0x24
 2883 0b0b 01       		.uleb128 0x1
 2884 0b0c 50       		.byte	0x50
 2885 0b0d 01       		.uleb128 0x1
 2886 0b0e 34       		.byte	0x34
 2887 0b0f 00       		.byte	0
 2888 0b10 2C       		.uleb128 0x2c
 2889 0b11 1C010000 		.4byte	.LVL26
 2890 0b15 E8100000 		.4byte	0x10e8
 2891 0b19 2C0B0000 		.4byte	0xb2c
 2892 0b1d 24       		.uleb128 0x24
 2893 0b1e 01       		.uleb128 0x1
 2894 0b1f 50       		.byte	0x50
 2895 0b20 01       		.uleb128 0x1
 2896 0b21 35       		.byte	0x35
 2897 0b22 24       		.uleb128 0x24
 2898 0b23 01       		.uleb128 0x1
ARM GAS  /var/folders/l5/0x54b2c10074c8bt31ycjvl80000gp/T//ccT1qQHo.s 			page 52


 2899 0b24 51       		.byte	0x51
 2900 0b25 05       		.uleb128 0x5
 2901 0b26 03       		.byte	0x3
 2902 0b27 00000000 		.4byte	.LC0
 2903 0b2b 00       		.byte	0
 2904 0b2c 2C       		.uleb128 0x2c
 2905 0b2d 34010000 		.4byte	.LVL28
 2906 0b31 C3100000 		.4byte	0x10c3
 2907 0b35 460B0000 		.4byte	0xb46
 2908 0b39 24       		.uleb128 0x24
 2909 0b3a 01       		.uleb128 0x1
 2910 0b3b 50       		.byte	0x50
 2911 0b3c 02       		.uleb128 0x2
 2912 0b3d 74       		.byte	0x74
 2913 0b3e 00       		.sleb128 0
 2914 0b3f 24       		.uleb128 0x24
 2915 0b40 01       		.uleb128 0x1
 2916 0b41 51       		.byte	0x51
 2917 0b42 02       		.uleb128 0x2
 2918 0b43 08       		.byte	0x8
 2919 0b44 41       		.byte	0x41
 2920 0b45 00       		.byte	0
 2921 0b46 2C       		.uleb128 0x2c
 2922 0b47 40010000 		.4byte	.LVL29
 2923 0b4b C3100000 		.4byte	0x10c3
 2924 0b4f 600B0000 		.4byte	0xb60
 2925 0b53 24       		.uleb128 0x24
 2926 0b54 01       		.uleb128 0x1
 2927 0b55 50       		.byte	0x50
 2928 0b56 02       		.uleb128 0x2
 2929 0b57 74       		.byte	0x74
 2930 0b58 00       		.sleb128 0
 2931 0b59 24       		.uleb128 0x24
 2932 0b5a 01       		.uleb128 0x1
 2933 0b5b 51       		.byte	0x51
 2934 0b5c 02       		.uleb128 0x2
 2935 0b5d 08       		.byte	0x8
 2936 0b5e 42       		.byte	0x42
 2937 0b5f 00       		.byte	0
 2938 0b60 2C       		.uleb128 0x2c
 2939 0b61 4C010000 		.4byte	.LVL30
 2940 0b65 C3100000 		.4byte	0x10c3
 2941 0b69 7A0B0000 		.4byte	0xb7a
 2942 0b6d 24       		.uleb128 0x24
 2943 0b6e 01       		.uleb128 0x1
 2944 0b6f 50       		.byte	0x50
 2945 0b70 02       		.uleb128 0x2
 2946 0b71 74       		.byte	0x74
 2947 0b72 00       		.sleb128 0
 2948 0b73 24       		.uleb128 0x24
 2949 0b74 01       		.uleb128 0x1
 2950 0b75 51       		.byte	0x51
 2951 0b76 02       		.uleb128 0x2
 2952 0b77 08       		.byte	0x8
 2953 0b78 43       		.byte	0x43
 2954 0b79 00       		.byte	0
 2955 0b7a 2C       		.uleb128 0x2c
ARM GAS  /var/folders/l5/0x54b2c10074c8bt31ycjvl80000gp/T//ccT1qQHo.s 			page 53


 2956 0b7b 58010000 		.4byte	.LVL31
 2957 0b7f C3100000 		.4byte	0x10c3
 2958 0b83 940B0000 		.4byte	0xb94
 2959 0b87 24       		.uleb128 0x24
 2960 0b88 01       		.uleb128 0x1
 2961 0b89 50       		.byte	0x50
 2962 0b8a 02       		.uleb128 0x2
 2963 0b8b 74       		.byte	0x74
 2964 0b8c 00       		.sleb128 0
 2965 0b8d 24       		.uleb128 0x24
 2966 0b8e 01       		.uleb128 0x1
 2967 0b8f 51       		.byte	0x51
 2968 0b90 02       		.uleb128 0x2
 2969 0b91 08       		.byte	0x8
 2970 0b92 44       		.byte	0x44
 2971 0b93 00       		.byte	0
 2972 0b94 2C       		.uleb128 0x2c
 2973 0b95 78010000 		.4byte	.LVL32
 2974 0b99 F4100000 		.4byte	0x10f4
 2975 0b9d B90B0000 		.4byte	0xbb9
 2976 0ba1 24       		.uleb128 0x24
 2977 0ba2 01       		.uleb128 0x1
 2978 0ba3 50       		.byte	0x50
 2979 0ba4 02       		.uleb128 0x2
 2980 0ba5 74       		.byte	0x74
 2981 0ba6 00       		.sleb128 0
 2982 0ba7 24       		.uleb128 0x24
 2983 0ba8 01       		.uleb128 0x1
 2984 0ba9 51       		.byte	0x51
 2985 0baa 02       		.uleb128 0x2
 2986 0bab 76       		.byte	0x76
 2987 0bac 00       		.sleb128 0
 2988 0bad 24       		.uleb128 0x24
 2989 0bae 01       		.uleb128 0x1
 2990 0baf 52       		.byte	0x52
 2991 0bb0 01       		.uleb128 0x1
 2992 0bb1 38       		.byte	0x38
 2993 0bb2 24       		.uleb128 0x24
 2994 0bb3 01       		.uleb128 0x1
 2995 0bb4 53       		.byte	0x53
 2996 0bb5 02       		.uleb128 0x2
 2997 0bb6 75       		.byte	0x75
 2998 0bb7 00       		.sleb128 0
 2999 0bb8 00       		.byte	0
 3000 0bb9 2C       		.uleb128 0x2c
 3001 0bba 8C010000 		.4byte	.LVL34
 3002 0bbe D0100000 		.4byte	0x10d0
 3003 0bc2 CC0B0000 		.4byte	0xbcc
 3004 0bc6 24       		.uleb128 0x24
 3005 0bc7 01       		.uleb128 0x1
 3006 0bc8 50       		.byte	0x50
 3007 0bc9 01       		.uleb128 0x1
 3008 0bca 36       		.byte	0x36
 3009 0bcb 00       		.byte	0
 3010 0bcc 2C       		.uleb128 0x2c
 3011 0bcd AC010000 		.4byte	.LVL35
 3012 0bd1 D0100000 		.4byte	0x10d0
ARM GAS  /var/folders/l5/0x54b2c10074c8bt31ycjvl80000gp/T//ccT1qQHo.s 			page 54


 3013 0bd5 DF0B0000 		.4byte	0xbdf
 3014 0bd9 24       		.uleb128 0x24
 3015 0bda 01       		.uleb128 0x1
 3016 0bdb 50       		.byte	0x50
 3017 0bdc 01       		.uleb128 0x1
 3018 0bdd 37       		.byte	0x37
 3019 0bde 00       		.byte	0
 3020 0bdf 2C       		.uleb128 0x2c
 3021 0be0 C8010000 		.4byte	.LVL37
 3022 0be4 C3100000 		.4byte	0x10c3
 3023 0be8 F90B0000 		.4byte	0xbf9
 3024 0bec 24       		.uleb128 0x24
 3025 0bed 01       		.uleb128 0x1
 3026 0bee 50       		.byte	0x50
 3027 0bef 02       		.uleb128 0x2
 3028 0bf0 74       		.byte	0x74
 3029 0bf1 00       		.sleb128 0
 3030 0bf2 24       		.uleb128 0x24
 3031 0bf3 01       		.uleb128 0x1
 3032 0bf4 51       		.byte	0x51
 3033 0bf5 02       		.uleb128 0x2
 3034 0bf6 08       		.byte	0x8
 3035 0bf7 41       		.byte	0x41
 3036 0bf8 00       		.byte	0
 3037 0bf9 2C       		.uleb128 0x2c
 3038 0bfa D4010000 		.4byte	.LVL38
 3039 0bfe C3100000 		.4byte	0x10c3
 3040 0c02 130C0000 		.4byte	0xc13
 3041 0c06 24       		.uleb128 0x24
 3042 0c07 01       		.uleb128 0x1
 3043 0c08 50       		.byte	0x50
 3044 0c09 02       		.uleb128 0x2
 3045 0c0a 74       		.byte	0x74
 3046 0c0b 00       		.sleb128 0
 3047 0c0c 24       		.uleb128 0x24
 3048 0c0d 01       		.uleb128 0x1
 3049 0c0e 51       		.byte	0x51
 3050 0c0f 02       		.uleb128 0x2
 3051 0c10 08       		.byte	0x8
 3052 0c11 42       		.byte	0x42
 3053 0c12 00       		.byte	0
 3054 0c13 2C       		.uleb128 0x2c
 3055 0c14 E0010000 		.4byte	.LVL39
 3056 0c18 C3100000 		.4byte	0x10c3
 3057 0c1c 2D0C0000 		.4byte	0xc2d
 3058 0c20 24       		.uleb128 0x24
 3059 0c21 01       		.uleb128 0x1
 3060 0c22 50       		.byte	0x50
 3061 0c23 02       		.uleb128 0x2
 3062 0c24 74       		.byte	0x74
 3063 0c25 00       		.sleb128 0
 3064 0c26 24       		.uleb128 0x24
 3065 0c27 01       		.uleb128 0x1
 3066 0c28 51       		.byte	0x51
 3067 0c29 02       		.uleb128 0x2
 3068 0c2a 08       		.byte	0x8
 3069 0c2b 43       		.byte	0x43
ARM GAS  /var/folders/l5/0x54b2c10074c8bt31ycjvl80000gp/T//ccT1qQHo.s 			page 55


 3070 0c2c 00       		.byte	0
 3071 0c2d 2C       		.uleb128 0x2c
 3072 0c2e EC010000 		.4byte	.LVL40
 3073 0c32 C3100000 		.4byte	0x10c3
 3074 0c36 470C0000 		.4byte	0xc47
 3075 0c3a 24       		.uleb128 0x24
 3076 0c3b 01       		.uleb128 0x1
 3077 0c3c 50       		.byte	0x50
 3078 0c3d 02       		.uleb128 0x2
 3079 0c3e 74       		.byte	0x74
 3080 0c3f 00       		.sleb128 0
 3081 0c40 24       		.uleb128 0x24
 3082 0c41 01       		.uleb128 0x1
 3083 0c42 51       		.byte	0x51
 3084 0c43 02       		.uleb128 0x2
 3085 0c44 08       		.byte	0x8
 3086 0c45 44       		.byte	0x44
 3087 0c46 00       		.byte	0
 3088 0c47 2C       		.uleb128 0x2c
 3089 0c48 04020000 		.4byte	.LVL41
 3090 0c4c F4100000 		.4byte	0x10f4
 3091 0c50 6C0C0000 		.4byte	0xc6c
 3092 0c54 24       		.uleb128 0x24
 3093 0c55 01       		.uleb128 0x1
 3094 0c56 50       		.byte	0x50
 3095 0c57 02       		.uleb128 0x2
 3096 0c58 74       		.byte	0x74
 3097 0c59 00       		.sleb128 0
 3098 0c5a 24       		.uleb128 0x24
 3099 0c5b 01       		.uleb128 0x1
 3100 0c5c 51       		.byte	0x51
 3101 0c5d 02       		.uleb128 0x2
 3102 0c5e 76       		.byte	0x76
 3103 0c5f 00       		.sleb128 0
 3104 0c60 24       		.uleb128 0x24
 3105 0c61 01       		.uleb128 0x1
 3106 0c62 52       		.byte	0x52
 3107 0c63 01       		.uleb128 0x1
 3108 0c64 32       		.byte	0x32
 3109 0c65 24       		.uleb128 0x24
 3110 0c66 01       		.uleb128 0x1
 3111 0c67 53       		.byte	0x53
 3112 0c68 02       		.uleb128 0x2
 3113 0c69 75       		.byte	0x75
 3114 0c6a 00       		.sleb128 0
 3115 0c6b 00       		.byte	0
 3116 0c6c 2C       		.uleb128 0x2c
 3117 0c6d 18020000 		.4byte	.LVL43
 3118 0c71 D0100000 		.4byte	0x10d0
 3119 0c75 7F0C0000 		.4byte	0xc7f
 3120 0c79 24       		.uleb128 0x24
 3121 0c7a 01       		.uleb128 0x1
 3122 0c7b 50       		.byte	0x50
 3123 0c7c 01       		.uleb128 0x1
 3124 0c7d 38       		.byte	0x38
 3125 0c7e 00       		.byte	0
 3126 0c7f 2C       		.uleb128 0x2c
ARM GAS  /var/folders/l5/0x54b2c10074c8bt31ycjvl80000gp/T//ccT1qQHo.s 			page 56


 3127 0c80 34020000 		.4byte	.LVL44
 3128 0c84 F4100000 		.4byte	0x10f4
 3129 0c88 A40C0000 		.4byte	0xca4
 3130 0c8c 24       		.uleb128 0x24
 3131 0c8d 01       		.uleb128 0x1
 3132 0c8e 50       		.byte	0x50
 3133 0c8f 02       		.uleb128 0x2
 3134 0c90 74       		.byte	0x74
 3135 0c91 00       		.sleb128 0
 3136 0c92 24       		.uleb128 0x24
 3137 0c93 01       		.uleb128 0x1
 3138 0c94 51       		.byte	0x51
 3139 0c95 02       		.uleb128 0x2
 3140 0c96 76       		.byte	0x76
 3141 0c97 00       		.sleb128 0
 3142 0c98 24       		.uleb128 0x24
 3143 0c99 01       		.uleb128 0x1
 3144 0c9a 52       		.byte	0x52
 3145 0c9b 01       		.uleb128 0x1
 3146 0c9c 32       		.byte	0x32
 3147 0c9d 24       		.uleb128 0x24
 3148 0c9e 01       		.uleb128 0x1
 3149 0c9f 53       		.byte	0x53
 3150 0ca0 02       		.uleb128 0x2
 3151 0ca1 75       		.byte	0x75
 3152 0ca2 00       		.sleb128 0
 3153 0ca3 00       		.byte	0
 3154 0ca4 2C       		.uleb128 0x2c
 3155 0ca5 48020000 		.4byte	.LVL46
 3156 0ca9 D0100000 		.4byte	0x10d0
 3157 0cad B70C0000 		.4byte	0xcb7
 3158 0cb1 24       		.uleb128 0x24
 3159 0cb2 01       		.uleb128 0x1
 3160 0cb3 50       		.byte	0x50
 3161 0cb4 01       		.uleb128 0x1
 3162 0cb5 39       		.byte	0x39
 3163 0cb6 00       		.byte	0
 3164 0cb7 2C       		.uleb128 0x2c
 3165 0cb8 68020000 		.4byte	.LVL47
 3166 0cbc D0100000 		.4byte	0x10d0
 3167 0cc0 CA0C0000 		.4byte	0xcca
 3168 0cc4 24       		.uleb128 0x24
 3169 0cc5 01       		.uleb128 0x1
 3170 0cc6 50       		.byte	0x50
 3171 0cc7 01       		.uleb128 0x1
 3172 0cc8 3A       		.byte	0x3a
 3173 0cc9 00       		.byte	0
 3174 0cca 2C       		.uleb128 0x2c
 3175 0ccb 84020000 		.4byte	.LVL48
 3176 0ccf C3100000 		.4byte	0x10c3
 3177 0cd3 E40C0000 		.4byte	0xce4
 3178 0cd7 24       		.uleb128 0x24
 3179 0cd8 01       		.uleb128 0x1
 3180 0cd9 50       		.byte	0x50
 3181 0cda 02       		.uleb128 0x2
 3182 0cdb 74       		.byte	0x74
 3183 0cdc 00       		.sleb128 0
ARM GAS  /var/folders/l5/0x54b2c10074c8bt31ycjvl80000gp/T//ccT1qQHo.s 			page 57


 3184 0cdd 24       		.uleb128 0x24
 3185 0cde 01       		.uleb128 0x1
 3186 0cdf 51       		.byte	0x51
 3187 0ce0 02       		.uleb128 0x2
 3188 0ce1 75       		.byte	0x75
 3189 0ce2 00       		.sleb128 0
 3190 0ce3 00       		.byte	0
 3191 0ce4 2C       		.uleb128 0x2c
 3192 0ce5 8C020000 		.4byte	.LVL49
 3193 0ce9 01110000 		.4byte	0x1101
 3194 0ced F80C0000 		.4byte	0xcf8
 3195 0cf1 24       		.uleb128 0x24
 3196 0cf2 01       		.uleb128 0x1
 3197 0cf3 50       		.byte	0x50
 3198 0cf4 02       		.uleb128 0x2
 3199 0cf5 74       		.byte	0x74
 3200 0cf6 00       		.sleb128 0
 3201 0cf7 00       		.byte	0
 3202 0cf8 2C       		.uleb128 0x2c
 3203 0cf9 A8020000 		.4byte	.LVL50
 3204 0cfd D0100000 		.4byte	0x10d0
 3205 0d01 0B0D0000 		.4byte	0xd0b
 3206 0d05 24       		.uleb128 0x24
 3207 0d06 01       		.uleb128 0x1
 3208 0d07 50       		.byte	0x50
 3209 0d08 01       		.uleb128 0x1
 3210 0d09 3B       		.byte	0x3b
 3211 0d0a 00       		.byte	0
 3212 0d0b 2C       		.uleb128 0x2c
 3213 0d0c D8020000 		.4byte	.LVL51
 3214 0d10 0E110000 		.4byte	0x110e
 3215 0d14 370D0000 		.4byte	0xd37
 3216 0d18 24       		.uleb128 0x24
 3217 0d19 01       		.uleb128 0x1
 3218 0d1a 50       		.byte	0x50
 3219 0d1b 03       		.uleb128 0x3
 3220 0d1c 77       		.byte	0x77
 3221 0d1d 00       		.sleb128 0
 3222 0d1e 06       		.byte	0x6
 3223 0d1f 24       		.uleb128 0x24
 3224 0d20 01       		.uleb128 0x1
 3225 0d21 51       		.byte	0x51
 3226 0d22 03       		.uleb128 0x3
 3227 0d23 0A       		.byte	0xa
 3228 0d24 1801     		.2byte	0x118
 3229 0d26 24       		.uleb128 0x24
 3230 0d27 01       		.uleb128 0x1
 3231 0d28 53       		.byte	0x53
 3232 0d29 05       		.uleb128 0x5
 3233 0d2a 03       		.byte	0x3
 3234 0d2b 00000000 		.4byte	thread1
 3235 0d2f 24       		.uleb128 0x24
 3236 0d30 02       		.uleb128 0x2
 3237 0d31 7D       		.byte	0x7d
 3238 0d32 00       		.sleb128 0
 3239 0d33 02       		.uleb128 0x2
 3240 0d34 75       		.byte	0x75
ARM GAS  /var/folders/l5/0x54b2c10074c8bt31ycjvl80000gp/T//ccT1qQHo.s 			page 58


 3241 0d35 00       		.sleb128 0
 3242 0d36 00       		.byte	0
 3243 0d37 2C       		.uleb128 0x2c
 3244 0d38 F8020000 		.4byte	.LVL52
 3245 0d3c D0100000 		.4byte	0x10d0
 3246 0d40 4A0D0000 		.4byte	0xd4a
 3247 0d44 24       		.uleb128 0x24
 3248 0d45 01       		.uleb128 0x1
 3249 0d46 50       		.byte	0x50
 3250 0d47 01       		.uleb128 0x1
 3251 0d48 3C       		.byte	0x3c
 3252 0d49 00       		.byte	0
 3253 0d4a 2D       		.uleb128 0x2d
 3254 0d4b 08030000 		.4byte	.LVL53
 3255 0d4f 1B110000 		.4byte	0x111b
 3256 0d53 2C       		.uleb128 0x2c
 3257 0d54 14030000 		.4byte	.LVL54
 3258 0d58 A9100000 		.4byte	0x10a9
 3259 0d5c 6C0D0000 		.4byte	0xd6c
 3260 0d60 24       		.uleb128 0x24
 3261 0d61 01       		.uleb128 0x1
 3262 0d62 50       		.byte	0x50
 3263 0d63 02       		.uleb128 0x2
 3264 0d64 74       		.byte	0x74
 3265 0d65 00       		.sleb128 0
 3266 0d66 24       		.uleb128 0x24
 3267 0d67 01       		.uleb128 0x1
 3268 0d68 51       		.byte	0x51
 3269 0d69 01       		.uleb128 0x1
 3270 0d6a 3A       		.byte	0x3a
 3271 0d6b 00       		.byte	0
 3272 0d6c 2E       		.uleb128 0x2e
 3273 0d6d 30030000 		.4byte	.LVL55
 3274 0d71 D0100000 		.4byte	0x10d0
 3275 0d75 24       		.uleb128 0x24
 3276 0d76 01       		.uleb128 0x1
 3277 0d77 50       		.byte	0x50
 3278 0d78 01       		.uleb128 0x1
 3279 0d79 3D       		.byte	0x3d
 3280 0d7a 00       		.byte	0
 3281 0d7b 00       		.byte	0
 3282 0d7c 00       		.byte	0
 3283 0d7d 2C       		.uleb128 0x2c
 3284 0d7e 24000000 		.4byte	.LVL9
 3285 0d82 D0100000 		.4byte	0x10d0
 3286 0d86 900D0000 		.4byte	0xd90
 3287 0d8a 24       		.uleb128 0x24
 3288 0d8b 01       		.uleb128 0x1
 3289 0d8c 50       		.byte	0x50
 3290 0d8d 01       		.uleb128 0x1
 3291 0d8e 31       		.byte	0x31
 3292 0d8f 00       		.byte	0
 3293 0d90 2C       		.uleb128 0x2c
 3294 0d91 40000000 		.4byte	.LVL11
 3295 0d95 C3100000 		.4byte	0x10c3
 3296 0d99 AA0D0000 		.4byte	0xdaa
 3297 0d9d 24       		.uleb128 0x24
ARM GAS  /var/folders/l5/0x54b2c10074c8bt31ycjvl80000gp/T//ccT1qQHo.s 			page 59


 3298 0d9e 01       		.uleb128 0x1
 3299 0d9f 50       		.byte	0x50
 3300 0da0 02       		.uleb128 0x2
 3301 0da1 74       		.byte	0x74
 3302 0da2 00       		.sleb128 0
 3303 0da3 24       		.uleb128 0x24
 3304 0da4 01       		.uleb128 0x1
 3305 0da5 51       		.byte	0x51
 3306 0da6 02       		.uleb128 0x2
 3307 0da7 08       		.byte	0x8
 3308 0da8 41       		.byte	0x41
 3309 0da9 00       		.byte	0
 3310 0daa 2C       		.uleb128 0x2c
 3311 0dab 4C000000 		.4byte	.LVL12
 3312 0daf C3100000 		.4byte	0x10c3
 3313 0db3 C40D0000 		.4byte	0xdc4
 3314 0db7 24       		.uleb128 0x24
 3315 0db8 01       		.uleb128 0x1
 3316 0db9 50       		.byte	0x50
 3317 0dba 02       		.uleb128 0x2
 3318 0dbb 74       		.byte	0x74
 3319 0dbc 00       		.sleb128 0
 3320 0dbd 24       		.uleb128 0x24
 3321 0dbe 01       		.uleb128 0x1
 3322 0dbf 51       		.byte	0x51
 3323 0dc0 02       		.uleb128 0x2
 3324 0dc1 08       		.byte	0x8
 3325 0dc2 42       		.byte	0x42
 3326 0dc3 00       		.byte	0
 3327 0dc4 2C       		.uleb128 0x2c
 3328 0dc5 58000000 		.4byte	.LVL13
 3329 0dc9 C3100000 		.4byte	0x10c3
 3330 0dcd DE0D0000 		.4byte	0xdde
 3331 0dd1 24       		.uleb128 0x24
 3332 0dd2 01       		.uleb128 0x1
 3333 0dd3 50       		.byte	0x50
 3334 0dd4 02       		.uleb128 0x2
 3335 0dd5 74       		.byte	0x74
 3336 0dd6 00       		.sleb128 0
 3337 0dd7 24       		.uleb128 0x24
 3338 0dd8 01       		.uleb128 0x1
 3339 0dd9 51       		.byte	0x51
 3340 0dda 02       		.uleb128 0x2
 3341 0ddb 08       		.byte	0x8
 3342 0ddc 43       		.byte	0x43
 3343 0ddd 00       		.byte	0
 3344 0dde 2C       		.uleb128 0x2c
 3345 0ddf 64000000 		.4byte	.LVL14
 3346 0de3 C3100000 		.4byte	0x10c3
 3347 0de7 F80D0000 		.4byte	0xdf8
 3348 0deb 24       		.uleb128 0x24
 3349 0dec 01       		.uleb128 0x1
 3350 0ded 50       		.byte	0x50
 3351 0dee 02       		.uleb128 0x2
 3352 0def 74       		.byte	0x74
 3353 0df0 00       		.sleb128 0
 3354 0df1 24       		.uleb128 0x24
ARM GAS  /var/folders/l5/0x54b2c10074c8bt31ycjvl80000gp/T//ccT1qQHo.s 			page 60


 3355 0df2 01       		.uleb128 0x1
 3356 0df3 51       		.byte	0x51
 3357 0df4 02       		.uleb128 0x2
 3358 0df5 08       		.byte	0x8
 3359 0df6 44       		.byte	0x44
 3360 0df7 00       		.byte	0
 3361 0df8 23       		.uleb128 0x23
 3362 0df9 84000000 		.4byte	.LVL15
 3363 0dfd D0100000 		.4byte	0x10d0
 3364 0e01 24       		.uleb128 0x24
 3365 0e02 01       		.uleb128 0x1
 3366 0e03 50       		.byte	0x50
 3367 0e04 01       		.uleb128 0x1
 3368 0e05 32       		.byte	0x32
 3369 0e06 24       		.uleb128 0x24
 3370 0e07 01       		.uleb128 0x1
 3371 0e08 51       		.byte	0x51
 3372 0e09 02       		.uleb128 0x2
 3373 0e0a 75       		.byte	0x75
 3374 0e0b 00       		.sleb128 0
 3375 0e0c 00       		.byte	0
 3376 0e0d 00       		.byte	0
 3377 0e0e 27       		.uleb128 0x27
 3378 0e0f D9080000 		.4byte	0x8d9
 3379 0e13 00000000 		.4byte	.LFB13
 3380 0e17 FC020000 		.4byte	.LFE13-.LFB13
 3381 0e1b 01       		.uleb128 0x1
 3382 0e1c 9C       		.byte	0x9c
 3383 0e1d 8F100000 		.4byte	0x108f
 3384 0e21 28       		.uleb128 0x28
 3385 0e22 E6080000 		.4byte	0x8e6
 3386 0e26 AC010000 		.4byte	.LLST5
 3387 0e2a AA010000 		.4byte	.LVUS5
 3388 0e2e 29       		.uleb128 0x29
 3389 0e2f F0080000 		.4byte	0x8f0
 3390 0e33 2A       		.uleb128 0x2a
 3391 0e34 D9080000 		.4byte	0x8d9
 3392 0e38 7C000000 		.4byte	.LBI14
 3393 0e3c 00       		.byte	.LVU211
 3394 0e3d 20000000 		.4byte	.Ldebug_ranges0+0x20
 3395 0e41 01       		.byte	0x1
 3396 0e42 B5       		.byte	0xb5
 3397 0e43 0D       		.byte	0xd
 3398 0e44 52100000 		.4byte	0x1052
 3399 0e48 2B       		.uleb128 0x2b
 3400 0e49 20000000 		.4byte	.Ldebug_ranges0+0x20
 3401 0e4d 28       		.uleb128 0x28
 3402 0e4e E6080000 		.4byte	0x8e6
 3403 0e52 CA010000 		.4byte	.LLST6
 3404 0e56 C0010000 		.4byte	.LVUS6
 3405 0e5a 28       		.uleb128 0x28
 3406 0e5b F0080000 		.4byte	0x8f0
 3407 0e5f 20020000 		.4byte	.LLST7
 3408 0e63 1A020000 		.4byte	.LVUS7
 3409 0e67 2F       		.uleb128 0x2f
 3410 0e68 FA080000 		.4byte	0x8fa
 3411 0e6c 84000000 		.4byte	.LBB16
ARM GAS  /var/folders/l5/0x54b2c10074c8bt31ycjvl80000gp/T//ccT1qQHo.s 			page 61


 3412 0e70 1C000000 		.4byte	.LBE16-.LBB16
 3413 0e74 A30E0000 		.4byte	0xea3
 3414 0e78 28       		.uleb128 0x28
 3415 0e79 FB080000 		.4byte	0x8fb
 3416 0e7d 4B020000 		.4byte	.LLST8
 3417 0e81 49020000 		.4byte	.LVUS8
 3418 0e85 2C       		.uleb128 0x2c
 3419 0e86 94000000 		.4byte	.LVL63
 3420 0e8a 27110000 		.4byte	0x1127
 3421 0e8e 990E0000 		.4byte	0xe99
 3422 0e92 24       		.uleb128 0x24
 3423 0e93 01       		.uleb128 0x1
 3424 0e94 50       		.byte	0x50
 3425 0e95 02       		.uleb128 0x2
 3426 0e96 75       		.byte	0x75
 3427 0e97 00       		.sleb128 0
 3428 0e98 00       		.byte	0
 3429 0e99 2D       		.uleb128 0x2d
 3430 0e9a A0000000 		.4byte	.LVL64
 3431 0e9e DC100000 		.4byte	0x10dc
 3432 0ea2 00       		.byte	0
 3433 0ea3 2C       		.uleb128 0x2c
 3434 0ea4 C4000000 		.4byte	.LVL66
 3435 0ea8 D0100000 		.4byte	0x10d0
 3436 0eac BC0E0000 		.4byte	0xebc
 3437 0eb0 24       		.uleb128 0x24
 3438 0eb1 01       		.uleb128 0x1
 3439 0eb2 50       		.byte	0x50
 3440 0eb3 01       		.uleb128 0x1
 3441 0eb4 33       		.byte	0x33
 3442 0eb5 24       		.uleb128 0x24
 3443 0eb6 01       		.uleb128 0x1
 3444 0eb7 51       		.byte	0x51
 3445 0eb8 02       		.uleb128 0x2
 3446 0eb9 77       		.byte	0x77
 3447 0eba 00       		.sleb128 0
 3448 0ebb 00       		.byte	0
 3449 0ebc 2C       		.uleb128 0x2c
 3450 0ebd DC000000 		.4byte	.LVL67
 3451 0ec1 E8100000 		.4byte	0x10e8
 3452 0ec5 D80E0000 		.4byte	0xed8
 3453 0ec9 24       		.uleb128 0x24
 3454 0eca 01       		.uleb128 0x1
 3455 0ecb 50       		.byte	0x50
 3456 0ecc 01       		.uleb128 0x1
 3457 0ecd 34       		.byte	0x34
 3458 0ece 24       		.uleb128 0x24
 3459 0ecf 01       		.uleb128 0x1
 3460 0ed0 51       		.byte	0x51
 3461 0ed1 05       		.uleb128 0x5
 3462 0ed2 03       		.byte	0x3
 3463 0ed3 00000000 		.4byte	.LC0
 3464 0ed7 00       		.byte	0
 3465 0ed8 2C       		.uleb128 0x2c
 3466 0ed9 F0000000 		.4byte	.LVL68
 3467 0edd 27110000 		.4byte	0x1127
 3468 0ee1 EC0E0000 		.4byte	0xeec
ARM GAS  /var/folders/l5/0x54b2c10074c8bt31ycjvl80000gp/T//ccT1qQHo.s 			page 62


 3469 0ee5 24       		.uleb128 0x24
 3470 0ee6 01       		.uleb128 0x1
 3471 0ee7 50       		.byte	0x50
 3472 0ee8 02       		.uleb128 0x2
 3473 0ee9 75       		.byte	0x75
 3474 0eea 00       		.sleb128 0
 3475 0eeb 00       		.byte	0
 3476 0eec 2C       		.uleb128 0x2c
 3477 0eed 04010000 		.4byte	.LVL69
 3478 0ef1 D0100000 		.4byte	0x10d0
 3479 0ef5 FF0E0000 		.4byte	0xeff
 3480 0ef9 24       		.uleb128 0x24
 3481 0efa 01       		.uleb128 0x1
 3482 0efb 50       		.byte	0x50
 3483 0efc 01       		.uleb128 0x1
 3484 0efd 35       		.byte	0x35
 3485 0efe 00       		.byte	0
 3486 0eff 2C       		.uleb128 0x2c
 3487 0f00 28010000 		.4byte	.LVL71
 3488 0f04 34110000 		.4byte	0x1134
 3489 0f08 1E0F0000 		.4byte	0xf1e
 3490 0f0c 24       		.uleb128 0x24
 3491 0f0d 01       		.uleb128 0x1
 3492 0f0e 50       		.byte	0x50
 3493 0f0f 02       		.uleb128 0x2
 3494 0f10 75       		.byte	0x75
 3495 0f11 00       		.sleb128 0
 3496 0f12 24       		.uleb128 0x24
 3497 0f13 01       		.uleb128 0x1
 3498 0f14 51       		.byte	0x51
 3499 0f15 02       		.uleb128 0x2
 3500 0f16 76       		.byte	0x76
 3501 0f17 00       		.sleb128 0
 3502 0f18 24       		.uleb128 0x24
 3503 0f19 01       		.uleb128 0x1
 3504 0f1a 52       		.byte	0x52
 3505 0f1b 01       		.uleb128 0x1
 3506 0f1c 38       		.byte	0x38
 3507 0f1d 00       		.byte	0
 3508 0f1e 2C       		.uleb128 0x2c
 3509 0f1f 3C010000 		.4byte	.LVL73
 3510 0f23 D0100000 		.4byte	0x10d0
 3511 0f27 310F0000 		.4byte	0xf31
 3512 0f2b 24       		.uleb128 0x24
 3513 0f2c 01       		.uleb128 0x1
 3514 0f2d 50       		.byte	0x50
 3515 0f2e 01       		.uleb128 0x1
 3516 0f2f 36       		.byte	0x36
 3517 0f30 00       		.byte	0
 3518 0f31 2C       		.uleb128 0x2c
 3519 0f32 5C010000 		.4byte	.LVL74
 3520 0f36 D0100000 		.4byte	0x10d0
 3521 0f3a 440F0000 		.4byte	0xf44
 3522 0f3e 24       		.uleb128 0x24
 3523 0f3f 01       		.uleb128 0x1
 3524 0f40 50       		.byte	0x50
 3525 0f41 01       		.uleb128 0x1
ARM GAS  /var/folders/l5/0x54b2c10074c8bt31ycjvl80000gp/T//ccT1qQHo.s 			page 63


 3526 0f42 37       		.byte	0x37
 3527 0f43 00       		.byte	0
 3528 0f44 2C       		.uleb128 0x2c
 3529 0f45 8C010000 		.4byte	.LVL75
 3530 0f49 0E110000 		.4byte	0x110e
 3531 0f4d 690F0000 		.4byte	0xf69
 3532 0f51 24       		.uleb128 0x24
 3533 0f52 01       		.uleb128 0x1
 3534 0f53 50       		.byte	0x50
 3535 0f54 03       		.uleb128 0x3
 3536 0f55 74       		.byte	0x74
 3537 0f56 00       		.sleb128 0
 3538 0f57 06       		.byte	0x6
 3539 0f58 24       		.uleb128 0x24
 3540 0f59 01       		.uleb128 0x1
 3541 0f5a 51       		.byte	0x51
 3542 0f5b 03       		.uleb128 0x3
 3543 0f5c 0A       		.byte	0xa
 3544 0f5d 1801     		.2byte	0x118
 3545 0f5f 24       		.uleb128 0x24
 3546 0f60 01       		.uleb128 0x1
 3547 0f61 53       		.byte	0x53
 3548 0f62 05       		.uleb128 0x5
 3549 0f63 03       		.byte	0x3
 3550 0f64 00000000 		.4byte	thread2
 3551 0f68 00       		.byte	0
 3552 0f69 2C       		.uleb128 0x2c
 3553 0f6a C0010000 		.4byte	.LVL76
 3554 0f6e D0100000 		.4byte	0x10d0
 3555 0f72 7C0F0000 		.4byte	0xf7c
 3556 0f76 24       		.uleb128 0x24
 3557 0f77 01       		.uleb128 0x1
 3558 0f78 50       		.byte	0x50
 3559 0f79 01       		.uleb128 0x1
 3560 0f7a 38       		.byte	0x38
 3561 0f7b 00       		.byte	0
 3562 0f7c 2D       		.uleb128 0x2d
 3563 0f7d D0010000 		.4byte	.LVL77
 3564 0f81 1B110000 		.4byte	0x111b
 3565 0f85 2C       		.uleb128 0x2c
 3566 0f86 DC010000 		.4byte	.LVL78
 3567 0f8a 41110000 		.4byte	0x1141
 3568 0f8e 990F0000 		.4byte	0xf99
 3569 0f92 24       		.uleb128 0x24
 3570 0f93 01       		.uleb128 0x1
 3571 0f94 50       		.byte	0x50
 3572 0f95 02       		.uleb128 0x2
 3573 0f96 75       		.byte	0x75
 3574 0f97 00       		.sleb128 0
 3575 0f98 00       		.byte	0
 3576 0f99 2C       		.uleb128 0x2c
 3577 0f9a 04020000 		.4byte	.LVL79
 3578 0f9e D0100000 		.4byte	0x10d0
 3579 0fa2 AC0F0000 		.4byte	0xfac
 3580 0fa6 24       		.uleb128 0x24
 3581 0fa7 01       		.uleb128 0x1
 3582 0fa8 50       		.byte	0x50
ARM GAS  /var/folders/l5/0x54b2c10074c8bt31ycjvl80000gp/T//ccT1qQHo.s 			page 64


 3583 0fa9 01       		.uleb128 0x1
 3584 0faa 39       		.byte	0x39
 3585 0fab 00       		.byte	0
 3586 0fac 2C       		.uleb128 0x2c
 3587 0fad 20020000 		.4byte	.LVL80
 3588 0fb1 34110000 		.4byte	0x1134
 3589 0fb5 CB0F0000 		.4byte	0xfcb
 3590 0fb9 24       		.uleb128 0x24
 3591 0fba 01       		.uleb128 0x1
 3592 0fbb 50       		.byte	0x50
 3593 0fbc 02       		.uleb128 0x2
 3594 0fbd 75       		.byte	0x75
 3595 0fbe 00       		.sleb128 0
 3596 0fbf 24       		.uleb128 0x24
 3597 0fc0 01       		.uleb128 0x1
 3598 0fc1 51       		.byte	0x51
 3599 0fc2 02       		.uleb128 0x2
 3600 0fc3 76       		.byte	0x76
 3601 0fc4 00       		.sleb128 0
 3602 0fc5 24       		.uleb128 0x24
 3603 0fc6 01       		.uleb128 0x1
 3604 0fc7 52       		.byte	0x52
 3605 0fc8 01       		.uleb128 0x1
 3606 0fc9 32       		.byte	0x32
 3607 0fca 00       		.byte	0
 3608 0fcb 2C       		.uleb128 0x2c
 3609 0fcc 34020000 		.4byte	.LVL82
 3610 0fd0 D0100000 		.4byte	0x10d0
 3611 0fd4 DE0F0000 		.4byte	0xfde
 3612 0fd8 24       		.uleb128 0x24
 3613 0fd9 01       		.uleb128 0x1
 3614 0fda 50       		.byte	0x50
 3615 0fdb 01       		.uleb128 0x1
 3616 0fdc 3A       		.byte	0x3a
 3617 0fdd 00       		.byte	0
 3618 0fde 2C       		.uleb128 0x2c
 3619 0fdf 4C020000 		.4byte	.LVL83
 3620 0fe3 34110000 		.4byte	0x1134
 3621 0fe7 FD0F0000 		.4byte	0xffd
 3622 0feb 24       		.uleb128 0x24
 3623 0fec 01       		.uleb128 0x1
 3624 0fed 50       		.byte	0x50
 3625 0fee 02       		.uleb128 0x2
 3626 0fef 75       		.byte	0x75
 3627 0ff0 00       		.sleb128 0
 3628 0ff1 24       		.uleb128 0x24
 3629 0ff2 01       		.uleb128 0x1
 3630 0ff3 51       		.byte	0x51
 3631 0ff4 02       		.uleb128 0x2
 3632 0ff5 76       		.byte	0x76
 3633 0ff6 00       		.sleb128 0
 3634 0ff7 24       		.uleb128 0x24
 3635 0ff8 01       		.uleb128 0x1
 3636 0ff9 52       		.byte	0x52
 3637 0ffa 01       		.uleb128 0x1
 3638 0ffb 32       		.byte	0x32
 3639 0ffc 00       		.byte	0
ARM GAS  /var/folders/l5/0x54b2c10074c8bt31ycjvl80000gp/T//ccT1qQHo.s 			page 65


 3640 0ffd 2C       		.uleb128 0x2c
 3641 0ffe 60020000 		.4byte	.LVL85
 3642 1002 D0100000 		.4byte	0x10d0
 3643 1006 10100000 		.4byte	0x1010
 3644 100a 24       		.uleb128 0x24
 3645 100b 01       		.uleb128 0x1
 3646 100c 50       		.byte	0x50
 3647 100d 01       		.uleb128 0x1
 3648 100e 3B       		.byte	0x3b
 3649 100f 00       		.byte	0
 3650 1010 2C       		.uleb128 0x2c
 3651 1011 80020000 		.4byte	.LVL86
 3652 1015 D0100000 		.4byte	0x10d0
 3653 1019 23100000 		.4byte	0x1023
 3654 101d 24       		.uleb128 0x24
 3655 101e 01       		.uleb128 0x1
 3656 101f 50       		.byte	0x50
 3657 1020 01       		.uleb128 0x1
 3658 1021 3C       		.byte	0x3c
 3659 1022 00       		.byte	0
 3660 1023 2C       		.uleb128 0x2c
 3661 1024 9C020000 		.4byte	.LVL87
 3662 1028 8F100000 		.4byte	0x108f
 3663 102c 41100000 		.4byte	0x1041
 3664 1030 24       		.uleb128 0x24
 3665 1031 01       		.uleb128 0x1
 3666 1032 50       		.byte	0x50
 3667 1033 02       		.uleb128 0x2
 3668 1034 75       		.byte	0x75
 3669 1035 00       		.sleb128 0
 3670 1036 24       		.uleb128 0x24
 3671 1037 01       		.uleb128 0x1
 3672 1038 51       		.byte	0x51
 3673 1039 01       		.uleb128 0x1
 3674 103a 30       		.byte	0x30
 3675 103b 24       		.uleb128 0x24
 3676 103c 01       		.uleb128 0x1
 3677 103d 52       		.byte	0x52
 3678 103e 01       		.uleb128 0x1
 3679 103f 3A       		.byte	0x3a
 3680 1040 00       		.byte	0
 3681 1041 2E       		.uleb128 0x2e
 3682 1042 B8020000 		.4byte	.LVL88
 3683 1046 D0100000 		.4byte	0x10d0
 3684 104a 24       		.uleb128 0x24
 3685 104b 01       		.uleb128 0x1
 3686 104c 50       		.byte	0x50
 3687 104d 01       		.uleb128 0x1
 3688 104e 3D       		.byte	0x3d
 3689 104f 00       		.byte	0
 3690 1050 00       		.byte	0
 3691 1051 00       		.byte	0
 3692 1052 2C       		.uleb128 0x2c
 3693 1053 28000000 		.4byte	.LVL56
 3694 1057 D0100000 		.4byte	0x10d0
 3695 105b 65100000 		.4byte	0x1065
 3696 105f 24       		.uleb128 0x24
ARM GAS  /var/folders/l5/0x54b2c10074c8bt31ycjvl80000gp/T//ccT1qQHo.s 			page 66


 3697 1060 01       		.uleb128 0x1
 3698 1061 50       		.byte	0x50
 3699 1062 01       		.uleb128 0x1
 3700 1063 31       		.byte	0x31
 3701 1064 00       		.byte	0
 3702 1065 2C       		.uleb128 0x2c
 3703 1066 54000000 		.4byte	.LVL59
 3704 106a 8F100000 		.4byte	0x108f
 3705 106e 7F100000 		.4byte	0x107f
 3706 1072 24       		.uleb128 0x24
 3707 1073 01       		.uleb128 0x1
 3708 1074 50       		.byte	0x50
 3709 1075 02       		.uleb128 0x2
 3710 1076 75       		.byte	0x75
 3711 1077 00       		.sleb128 0
 3712 1078 24       		.uleb128 0x24
 3713 1079 01       		.uleb128 0x1
 3714 107a 52       		.byte	0x52
 3715 107b 02       		.uleb128 0x2
 3716 107c 09       		.byte	0x9
 3717 107d FF       		.byte	0xff
 3718 107e 00       		.byte	0
 3719 107f 23       		.uleb128 0x23
 3720 1080 74000000 		.4byte	.LVL60
 3721 1084 D0100000 		.4byte	0x10d0
 3722 1088 24       		.uleb128 0x24
 3723 1089 01       		.uleb128 0x1
 3724 108a 50       		.byte	0x50
 3725 108b 01       		.uleb128 0x1
 3726 108c 32       		.byte	0x32
 3727 108d 00       		.byte	0
 3728 108e 00       		.byte	0
 3729 108f 30       		.uleb128 0x30
 3730 1090 00000000 		.4byte	.LASF129
 3731 1094 00000000 		.4byte	.LASF129
 3732 1098 0D       		.byte	0xd
 3733 1099 6601     		.2byte	0x166
 3734 109b 09       		.byte	0x9
 3735 109c 30       		.uleb128 0x30
 3736 109d 57010000 		.4byte	.LASF130
 3737 10a1 57010000 		.4byte	.LASF130
 3738 10a5 0D       		.byte	0xd
 3739 10a6 6301     		.2byte	0x163
 3740 10a8 08       		.byte	0x8
 3741 10a9 30       		.uleb128 0x30
 3742 10aa EE060000 		.4byte	.LASF131
 3743 10ae EE060000 		.4byte	.LASF131
 3744 10b2 0D       		.byte	0xd
 3745 10b3 5F01     		.2byte	0x15f
 3746 10b5 09       		.byte	0x9
 3747 10b6 30       		.uleb128 0x30
 3748 10b7 30000000 		.4byte	.LASF132
 3749 10bb 30000000 		.4byte	.LASF132
 3750 10bf 0D       		.byte	0xd
 3751 10c0 5B01     		.2byte	0x15b
 3752 10c2 08       		.byte	0x8
 3753 10c3 30       		.uleb128 0x30
ARM GAS  /var/folders/l5/0x54b2c10074c8bt31ycjvl80000gp/T//ccT1qQHo.s 			page 67


 3754 10c4 D9010000 		.4byte	.LASF133
 3755 10c8 D9010000 		.4byte	.LASF133
 3756 10cc 0D       		.byte	0xd
 3757 10cd 5E01     		.2byte	0x15e
 3758 10cf 09       		.byte	0x9
 3759 10d0 31       		.uleb128 0x31
 3760 10d1 5D060000 		.4byte	.LASF134
 3761 10d5 5D060000 		.4byte	.LASF134
 3762 10d9 0F       		.byte	0xf
 3763 10da 5C       		.byte	0x5c
 3764 10db 0A       		.byte	0xa
 3765 10dc 31       		.uleb128 0x31
 3766 10dd 39010000 		.4byte	.LASF135
 3767 10e1 39010000 		.4byte	.LASF135
 3768 10e5 0F       		.byte	0xf
 3769 10e6 5A       		.byte	0x5a
 3770 10e7 08       		.byte	0x8
 3771 10e8 31       		.uleb128 0x31
 3772 10e9 60040000 		.4byte	.LASF136
 3773 10ed 60040000 		.4byte	.LASF136
 3774 10f1 0F       		.byte	0xf
 3775 10f2 5D       		.byte	0x5d
 3776 10f3 0A       		.byte	0xa
 3777 10f4 30       		.uleb128 0x30
 3778 10f5 56000000 		.4byte	.LASF137
 3779 10f9 56000000 		.4byte	.LASF137
 3780 10fd 0D       		.byte	0xd
 3781 10fe 6001     		.2byte	0x160
 3782 1100 0A       		.byte	0xa
 3783 1101 30       		.uleb128 0x30
 3784 1102 F7010000 		.4byte	.LASF138
 3785 1106 F7010000 		.4byte	.LASF138
 3786 110a 0D       		.byte	0xd
 3787 110b 5D01     		.2byte	0x15d
 3788 110d 08       		.byte	0x8
 3789 110e 30       		.uleb128 0x30
 3790 110f A1030000 		.4byte	.LASF139
 3791 1113 A1030000 		.4byte	.LASF139
 3792 1117 07       		.byte	0x7
 3793 1118 6401     		.2byte	0x164
 3794 111a 0B       		.byte	0xb
 3795 111b 31       		.uleb128 0x31
 3796 111c 15040000 		.4byte	.LASF140
 3797 1120 15040000 		.4byte	.LASF140
 3798 1124 0F       		.byte	0xf
 3799 1125 60       		.byte	0x60
 3800 1126 08       		.byte	0x8
 3801 1127 30       		.uleb128 0x30
 3802 1128 79010000 		.4byte	.LASF141
 3803 112c 79010000 		.4byte	.LASF141
 3804 1130 0D       		.byte	0xd
 3805 1131 6701     		.2byte	0x167
 3806 1133 09       		.byte	0x9
 3807 1134 30       		.uleb128 0x30
 3808 1135 91000000 		.4byte	.LASF142
 3809 1139 91000000 		.4byte	.LASF142
 3810 113d 0D       		.byte	0xd
ARM GAS  /var/folders/l5/0x54b2c10074c8bt31ycjvl80000gp/T//ccT1qQHo.s 			page 68


 3811 113e 6801     		.2byte	0x168
 3812 1140 0A       		.byte	0xa
 3813 1141 30       		.uleb128 0x30
 3814 1142 F1050000 		.4byte	.LASF143
 3815 1146 F1050000 		.4byte	.LASF143
 3816 114a 0D       		.byte	0xd
 3817 114b 6501     		.2byte	0x165
 3818 114d 08       		.byte	0x8
 3819 114e 00       		.byte	0
 3820              		.section	.debug_abbrev,"",%progbits
 3821              	.Ldebug_abbrev0:
 3822 0000 01       		.uleb128 0x1
 3823 0001 11       		.uleb128 0x11
 3824 0002 01       		.byte	0x1
 3825 0003 25       		.uleb128 0x25
 3826 0004 0E       		.uleb128 0xe
 3827 0005 13       		.uleb128 0x13
 3828 0006 0B       		.uleb128 0xb
 3829 0007 03       		.uleb128 0x3
 3830 0008 0E       		.uleb128 0xe
 3831 0009 1B       		.uleb128 0x1b
 3832 000a 0E       		.uleb128 0xe
 3833 000b 55       		.uleb128 0x55
 3834 000c 17       		.uleb128 0x17
 3835 000d 11       		.uleb128 0x11
 3836 000e 01       		.uleb128 0x1
 3837 000f 10       		.uleb128 0x10
 3838 0010 17       		.uleb128 0x17
 3839 0011 00       		.byte	0
 3840 0012 00       		.byte	0
 3841 0013 02       		.uleb128 0x2
 3842 0014 24       		.uleb128 0x24
 3843 0015 00       		.byte	0
 3844 0016 0B       		.uleb128 0xb
 3845 0017 0B       		.uleb128 0xb
 3846 0018 3E       		.uleb128 0x3e
 3847 0019 0B       		.uleb128 0xb
 3848 001a 03       		.uleb128 0x3
 3849 001b 08       		.uleb128 0x8
 3850 001c 00       		.byte	0
 3851 001d 00       		.byte	0
 3852 001e 03       		.uleb128 0x3
 3853 001f 16       		.uleb128 0x16
 3854 0020 00       		.byte	0
 3855 0021 03       		.uleb128 0x3
 3856 0022 0E       		.uleb128 0xe
 3857 0023 3A       		.uleb128 0x3a
 3858 0024 0B       		.uleb128 0xb
 3859 0025 3B       		.uleb128 0x3b
 3860 0026 0B       		.uleb128 0xb
 3861 0027 39       		.uleb128 0x39
 3862 0028 0B       		.uleb128 0xb
 3863 0029 49       		.uleb128 0x49
 3864 002a 13       		.uleb128 0x13
 3865 002b 00       		.byte	0
 3866 002c 00       		.byte	0
 3867 002d 04       		.uleb128 0x4
ARM GAS  /var/folders/l5/0x54b2c10074c8bt31ycjvl80000gp/T//ccT1qQHo.s 			page 69


 3868 002e 24       		.uleb128 0x24
 3869 002f 00       		.byte	0
 3870 0030 0B       		.uleb128 0xb
 3871 0031 0B       		.uleb128 0xb
 3872 0032 3E       		.uleb128 0x3e
 3873 0033 0B       		.uleb128 0xb
 3874 0034 03       		.uleb128 0x3
 3875 0035 0E       		.uleb128 0xe
 3876 0036 00       		.byte	0
 3877 0037 00       		.byte	0
 3878 0038 05       		.uleb128 0x5
 3879 0039 35       		.uleb128 0x35
 3880 003a 00       		.byte	0
 3881 003b 49       		.uleb128 0x49
 3882 003c 13       		.uleb128 0x13
 3883 003d 00       		.byte	0
 3884 003e 00       		.byte	0
 3885 003f 06       		.uleb128 0x6
 3886 0040 13       		.uleb128 0x13
 3887 0041 01       		.byte	0x1
 3888 0042 03       		.uleb128 0x3
 3889 0043 0E       		.uleb128 0xe
 3890 0044 0B       		.uleb128 0xb
 3891 0045 0B       		.uleb128 0xb
 3892 0046 3A       		.uleb128 0x3a
 3893 0047 0B       		.uleb128 0xb
 3894 0048 3B       		.uleb128 0x3b
 3895 0049 0B       		.uleb128 0xb
 3896 004a 39       		.uleb128 0x39
 3897 004b 0B       		.uleb128 0xb
 3898 004c 01       		.uleb128 0x1
 3899 004d 13       		.uleb128 0x13
 3900 004e 00       		.byte	0
 3901 004f 00       		.byte	0
 3902 0050 07       		.uleb128 0x7
 3903 0051 0D       		.uleb128 0xd
 3904 0052 00       		.byte	0
 3905 0053 03       		.uleb128 0x3
 3906 0054 0E       		.uleb128 0xe
 3907 0055 3A       		.uleb128 0x3a
 3908 0056 0B       		.uleb128 0xb
 3909 0057 3B       		.uleb128 0x3b
 3910 0058 0B       		.uleb128 0xb
 3911 0059 39       		.uleb128 0x39
 3912 005a 0B       		.uleb128 0xb
 3913 005b 49       		.uleb128 0x49
 3914 005c 13       		.uleb128 0x13
 3915 005d 38       		.uleb128 0x38
 3916 005e 0B       		.uleb128 0xb
 3917 005f 00       		.byte	0
 3918 0060 00       		.byte	0
 3919 0061 08       		.uleb128 0x8
 3920 0062 0D       		.uleb128 0xd
 3921 0063 00       		.byte	0
 3922 0064 03       		.uleb128 0x3
 3923 0065 08       		.uleb128 0x8
 3924 0066 3A       		.uleb128 0x3a
ARM GAS  /var/folders/l5/0x54b2c10074c8bt31ycjvl80000gp/T//ccT1qQHo.s 			page 70


 3925 0067 0B       		.uleb128 0xb
 3926 0068 3B       		.uleb128 0x3b
 3927 0069 0B       		.uleb128 0xb
 3928 006a 39       		.uleb128 0x39
 3929 006b 0B       		.uleb128 0xb
 3930 006c 49       		.uleb128 0x49
 3931 006d 13       		.uleb128 0x13
 3932 006e 38       		.uleb128 0x38
 3933 006f 0B       		.uleb128 0xb
 3934 0070 00       		.byte	0
 3935 0071 00       		.byte	0
 3936 0072 09       		.uleb128 0x9
 3937 0073 13       		.uleb128 0x13
 3938 0074 01       		.byte	0x1
 3939 0075 0B       		.uleb128 0xb
 3940 0076 0B       		.uleb128 0xb
 3941 0077 3A       		.uleb128 0x3a
 3942 0078 0B       		.uleb128 0xb
 3943 0079 3B       		.uleb128 0x3b
 3944 007a 0B       		.uleb128 0xb
 3945 007b 39       		.uleb128 0x39
 3946 007c 0B       		.uleb128 0xb
 3947 007d 01       		.uleb128 0x1
 3948 007e 13       		.uleb128 0x13
 3949 007f 00       		.byte	0
 3950 0080 00       		.byte	0
 3951 0081 0A       		.uleb128 0xa
 3952 0082 0F       		.uleb128 0xf
 3953 0083 00       		.byte	0
 3954 0084 0B       		.uleb128 0xb
 3955 0085 0B       		.uleb128 0xb
 3956 0086 49       		.uleb128 0x49
 3957 0087 13       		.uleb128 0x13
 3958 0088 00       		.byte	0
 3959 0089 00       		.byte	0
 3960 008a 0B       		.uleb128 0xb
 3961 008b 0F       		.uleb128 0xf
 3962 008c 00       		.byte	0
 3963 008d 0B       		.uleb128 0xb
 3964 008e 0B       		.uleb128 0xb
 3965 008f 00       		.byte	0
 3966 0090 00       		.byte	0
 3967 0091 0C       		.uleb128 0xc
 3968 0092 26       		.uleb128 0x26
 3969 0093 00       		.byte	0
 3970 0094 49       		.uleb128 0x49
 3971 0095 13       		.uleb128 0x13
 3972 0096 00       		.byte	0
 3973 0097 00       		.byte	0
 3974 0098 0D       		.uleb128 0xd
 3975 0099 15       		.uleb128 0x15
 3976 009a 01       		.byte	0x1
 3977 009b 27       		.uleb128 0x27
 3978 009c 19       		.uleb128 0x19
 3979 009d 01       		.uleb128 0x1
 3980 009e 13       		.uleb128 0x13
 3981 009f 00       		.byte	0
ARM GAS  /var/folders/l5/0x54b2c10074c8bt31ycjvl80000gp/T//ccT1qQHo.s 			page 71


 3982 00a0 00       		.byte	0
 3983 00a1 0E       		.uleb128 0xe
 3984 00a2 05       		.uleb128 0x5
 3985 00a3 00       		.byte	0
 3986 00a4 49       		.uleb128 0x49
 3987 00a5 13       		.uleb128 0x13
 3988 00a6 00       		.byte	0
 3989 00a7 00       		.byte	0
 3990 00a8 0F       		.uleb128 0xf
 3991 00a9 34       		.uleb128 0x34
 3992 00aa 00       		.byte	0
 3993 00ab 03       		.uleb128 0x3
 3994 00ac 0E       		.uleb128 0xe
 3995 00ad 3A       		.uleb128 0x3a
 3996 00ae 0B       		.uleb128 0xb
 3997 00af 3B       		.uleb128 0x3b
 3998 00b0 0B       		.uleb128 0xb
 3999 00b1 39       		.uleb128 0x39
 4000 00b2 0B       		.uleb128 0xb
 4001 00b3 49       		.uleb128 0x49
 4002 00b4 13       		.uleb128 0x13
 4003 00b5 3F       		.uleb128 0x3f
 4004 00b6 19       		.uleb128 0x19
 4005 00b7 3C       		.uleb128 0x3c
 4006 00b8 19       		.uleb128 0x19
 4007 00b9 00       		.byte	0
 4008 00ba 00       		.byte	0
 4009 00bb 10       		.uleb128 0x10
 4010 00bc 17       		.uleb128 0x17
 4011 00bd 01       		.byte	0x1
 4012 00be 0B       		.uleb128 0xb
 4013 00bf 0B       		.uleb128 0xb
 4014 00c0 3A       		.uleb128 0x3a
 4015 00c1 0B       		.uleb128 0xb
 4016 00c2 3B       		.uleb128 0x3b
 4017 00c3 0B       		.uleb128 0xb
 4018 00c4 39       		.uleb128 0x39
 4019 00c5 0B       		.uleb128 0xb
 4020 00c6 01       		.uleb128 0x1
 4021 00c7 13       		.uleb128 0x13
 4022 00c8 00       		.byte	0
 4023 00c9 00       		.byte	0
 4024 00ca 11       		.uleb128 0x11
 4025 00cb 0D       		.uleb128 0xd
 4026 00cc 00       		.byte	0
 4027 00cd 03       		.uleb128 0x3
 4028 00ce 0E       		.uleb128 0xe
 4029 00cf 3A       		.uleb128 0x3a
 4030 00d0 0B       		.uleb128 0xb
 4031 00d1 3B       		.uleb128 0x3b
 4032 00d2 0B       		.uleb128 0xb
 4033 00d3 39       		.uleb128 0x39
 4034 00d4 0B       		.uleb128 0xb
 4035 00d5 49       		.uleb128 0x49
 4036 00d6 13       		.uleb128 0x13
 4037 00d7 00       		.byte	0
 4038 00d8 00       		.byte	0
ARM GAS  /var/folders/l5/0x54b2c10074c8bt31ycjvl80000gp/T//ccT1qQHo.s 			page 72


 4039 00d9 12       		.uleb128 0x12
 4040 00da 01       		.uleb128 0x1
 4041 00db 01       		.byte	0x1
 4042 00dc 49       		.uleb128 0x49
 4043 00dd 13       		.uleb128 0x13
 4044 00de 01       		.uleb128 0x1
 4045 00df 13       		.uleb128 0x13
 4046 00e0 00       		.byte	0
 4047 00e1 00       		.byte	0
 4048 00e2 13       		.uleb128 0x13
 4049 00e3 21       		.uleb128 0x21
 4050 00e4 00       		.byte	0
 4051 00e5 49       		.uleb128 0x49
 4052 00e6 13       		.uleb128 0x13
 4053 00e7 2F       		.uleb128 0x2f
 4054 00e8 0B       		.uleb128 0xb
 4055 00e9 00       		.byte	0
 4056 00ea 00       		.byte	0
 4057 00eb 14       		.uleb128 0x14
 4058 00ec 15       		.uleb128 0x15
 4059 00ed 00       		.byte	0
 4060 00ee 27       		.uleb128 0x27
 4061 00ef 19       		.uleb128 0x19
 4062 00f0 00       		.byte	0
 4063 00f1 00       		.byte	0
 4064 00f2 15       		.uleb128 0x15
 4065 00f3 13       		.uleb128 0x13
 4066 00f4 01       		.byte	0x1
 4067 00f5 0B       		.uleb128 0xb
 4068 00f6 05       		.uleb128 0x5
 4069 00f7 3A       		.uleb128 0x3a
 4070 00f8 0B       		.uleb128 0xb
 4071 00f9 3B       		.uleb128 0x3b
 4072 00fa 0B       		.uleb128 0xb
 4073 00fb 39       		.uleb128 0x39
 4074 00fc 0B       		.uleb128 0xb
 4075 00fd 01       		.uleb128 0x1
 4076 00fe 13       		.uleb128 0x13
 4077 00ff 00       		.byte	0
 4078 0100 00       		.byte	0
 4079 0101 16       		.uleb128 0x16
 4080 0102 0D       		.uleb128 0xd
 4081 0103 00       		.byte	0
 4082 0104 03       		.uleb128 0x3
 4083 0105 08       		.uleb128 0x8
 4084 0106 3A       		.uleb128 0x3a
 4085 0107 0B       		.uleb128 0xb
 4086 0108 3B       		.uleb128 0x3b
 4087 0109 0B       		.uleb128 0xb
 4088 010a 39       		.uleb128 0x39
 4089 010b 0B       		.uleb128 0xb
 4090 010c 49       		.uleb128 0x49
 4091 010d 13       		.uleb128 0x13
 4092 010e 38       		.uleb128 0x38
 4093 010f 05       		.uleb128 0x5
 4094 0110 00       		.byte	0
 4095 0111 00       		.byte	0
ARM GAS  /var/folders/l5/0x54b2c10074c8bt31ycjvl80000gp/T//ccT1qQHo.s 			page 73


 4096 0112 17       		.uleb128 0x17
 4097 0113 17       		.uleb128 0x17
 4098 0114 01       		.byte	0x1
 4099 0115 03       		.uleb128 0x3
 4100 0116 0E       		.uleb128 0xe
 4101 0117 0B       		.uleb128 0xb
 4102 0118 05       		.uleb128 0x5
 4103 0119 3A       		.uleb128 0x3a
 4104 011a 0B       		.uleb128 0xb
 4105 011b 3B       		.uleb128 0x3b
 4106 011c 0B       		.uleb128 0xb
 4107 011d 39       		.uleb128 0x39
 4108 011e 0B       		.uleb128 0xb
 4109 011f 01       		.uleb128 0x1
 4110 0120 13       		.uleb128 0x13
 4111 0121 00       		.byte	0
 4112 0122 00       		.byte	0
 4113 0123 18       		.uleb128 0x18
 4114 0124 0D       		.uleb128 0xd
 4115 0125 00       		.byte	0
 4116 0126 03       		.uleb128 0x3
 4117 0127 08       		.uleb128 0x8
 4118 0128 3A       		.uleb128 0x3a
 4119 0129 0B       		.uleb128 0xb
 4120 012a 3B       		.uleb128 0x3b
 4121 012b 0B       		.uleb128 0xb
 4122 012c 39       		.uleb128 0x39
 4123 012d 0B       		.uleb128 0xb
 4124 012e 49       		.uleb128 0x49
 4125 012f 13       		.uleb128 0x13
 4126 0130 00       		.byte	0
 4127 0131 00       		.byte	0
 4128 0132 19       		.uleb128 0x19
 4129 0133 21       		.uleb128 0x21
 4130 0134 00       		.byte	0
 4131 0135 49       		.uleb128 0x49
 4132 0136 13       		.uleb128 0x13
 4133 0137 2F       		.uleb128 0x2f
 4134 0138 05       		.uleb128 0x5
 4135 0139 00       		.byte	0
 4136 013a 00       		.byte	0
 4137 013b 1A       		.uleb128 0x1a
 4138 013c 21       		.uleb128 0x21
 4139 013d 00       		.byte	0
 4140 013e 00       		.byte	0
 4141 013f 00       		.byte	0
 4142 0140 1B       		.uleb128 0x1b
 4143 0141 34       		.uleb128 0x34
 4144 0142 00       		.byte	0
 4145 0143 03       		.uleb128 0x3
 4146 0144 08       		.uleb128 0x8
 4147 0145 3A       		.uleb128 0x3a
 4148 0146 0B       		.uleb128 0xb
 4149 0147 3B       		.uleb128 0x3b
 4150 0148 0B       		.uleb128 0xb
 4151 0149 39       		.uleb128 0x39
 4152 014a 0B       		.uleb128 0xb
ARM GAS  /var/folders/l5/0x54b2c10074c8bt31ycjvl80000gp/T//ccT1qQHo.s 			page 74


 4153 014b 49       		.uleb128 0x49
 4154 014c 13       		.uleb128 0x13
 4155 014d 3F       		.uleb128 0x3f
 4156 014e 19       		.uleb128 0x19
 4157 014f 3C       		.uleb128 0x3c
 4158 0150 19       		.uleb128 0x19
 4159 0151 00       		.byte	0
 4160 0152 00       		.byte	0
 4161 0153 1C       		.uleb128 0x1c
 4162 0154 34       		.uleb128 0x34
 4163 0155 00       		.byte	0
 4164 0156 03       		.uleb128 0x3
 4165 0157 08       		.uleb128 0x8
 4166 0158 3A       		.uleb128 0x3a
 4167 0159 0B       		.uleb128 0xb
 4168 015a 3B       		.uleb128 0x3b
 4169 015b 0B       		.uleb128 0xb
 4170 015c 39       		.uleb128 0x39
 4171 015d 0B       		.uleb128 0xb
 4172 015e 49       		.uleb128 0x49
 4173 015f 13       		.uleb128 0x13
 4174 0160 02       		.uleb128 0x2
 4175 0161 18       		.uleb128 0x18
 4176 0162 00       		.byte	0
 4177 0163 00       		.byte	0
 4178 0164 1D       		.uleb128 0x1d
 4179 0165 34       		.uleb128 0x34
 4180 0166 00       		.byte	0
 4181 0167 03       		.uleb128 0x3
 4182 0168 0E       		.uleb128 0xe
 4183 0169 3A       		.uleb128 0x3a
 4184 016a 0B       		.uleb128 0xb
 4185 016b 3B       		.uleb128 0x3b
 4186 016c 0B       		.uleb128 0xb
 4187 016d 39       		.uleb128 0x39
 4188 016e 0B       		.uleb128 0xb
 4189 016f 49       		.uleb128 0x49
 4190 0170 13       		.uleb128 0x13
 4191 0171 3F       		.uleb128 0x3f
 4192 0172 19       		.uleb128 0x19
 4193 0173 02       		.uleb128 0x2
 4194 0174 18       		.uleb128 0x18
 4195 0175 00       		.byte	0
 4196 0176 00       		.byte	0
 4197 0177 1E       		.uleb128 0x1e
 4198 0178 2E       		.uleb128 0x2e
 4199 0179 01       		.byte	0x1
 4200 017a 03       		.uleb128 0x3
 4201 017b 0E       		.uleb128 0xe
 4202 017c 3A       		.uleb128 0x3a
 4203 017d 0B       		.uleb128 0xb
 4204 017e 3B       		.uleb128 0x3b
 4205 017f 0B       		.uleb128 0xb
 4206 0180 39       		.uleb128 0x39
 4207 0181 0B       		.uleb128 0xb
 4208 0182 27       		.uleb128 0x27
 4209 0183 19       		.uleb128 0x19
ARM GAS  /var/folders/l5/0x54b2c10074c8bt31ycjvl80000gp/T//ccT1qQHo.s 			page 75


 4210 0184 20       		.uleb128 0x20
 4211 0185 0B       		.uleb128 0xb
 4212 0186 01       		.uleb128 0x1
 4213 0187 13       		.uleb128 0x13
 4214 0188 00       		.byte	0
 4215 0189 00       		.byte	0
 4216 018a 1F       		.uleb128 0x1f
 4217 018b 34       		.uleb128 0x34
 4218 018c 00       		.byte	0
 4219 018d 03       		.uleb128 0x3
 4220 018e 08       		.uleb128 0x8
 4221 018f 3A       		.uleb128 0x3a
 4222 0190 0B       		.uleb128 0xb
 4223 0191 3B       		.uleb128 0x3b
 4224 0192 0B       		.uleb128 0xb
 4225 0193 39       		.uleb128 0x39
 4226 0194 0B       		.uleb128 0xb
 4227 0195 49       		.uleb128 0x49
 4228 0196 13       		.uleb128 0x13
 4229 0197 00       		.byte	0
 4230 0198 00       		.byte	0
 4231 0199 20       		.uleb128 0x20
 4232 019a 0B       		.uleb128 0xb
 4233 019b 01       		.byte	0x1
 4234 019c 00       		.byte	0
 4235 019d 00       		.byte	0
 4236 019e 21       		.uleb128 0x21
 4237 019f 2E       		.uleb128 0x2e
 4238 01a0 01       		.byte	0x1
 4239 01a1 03       		.uleb128 0x3
 4240 01a2 0E       		.uleb128 0xe
 4241 01a3 3A       		.uleb128 0x3a
 4242 01a4 0B       		.uleb128 0xb
 4243 01a5 3B       		.uleb128 0x3b
 4244 01a6 0B       		.uleb128 0xb
 4245 01a7 39       		.uleb128 0x39
 4246 01a8 0B       		.uleb128 0xb
 4247 01a9 27       		.uleb128 0x27
 4248 01aa 19       		.uleb128 0x19
 4249 01ab 49       		.uleb128 0x49
 4250 01ac 13       		.uleb128 0x13
 4251 01ad 11       		.uleb128 0x11
 4252 01ae 01       		.uleb128 0x1
 4253 01af 12       		.uleb128 0x12
 4254 01b0 06       		.uleb128 0x6
 4255 01b1 40       		.uleb128 0x40
 4256 01b2 18       		.uleb128 0x18
 4257 01b3 9742     		.uleb128 0x2117
 4258 01b5 19       		.uleb128 0x19
 4259 01b6 01       		.uleb128 0x1
 4260 01b7 13       		.uleb128 0x13
 4261 01b8 00       		.byte	0
 4262 01b9 00       		.byte	0
 4263 01ba 22       		.uleb128 0x22
 4264 01bb 05       		.uleb128 0x5
 4265 01bc 00       		.byte	0
 4266 01bd 03       		.uleb128 0x3
ARM GAS  /var/folders/l5/0x54b2c10074c8bt31ycjvl80000gp/T//ccT1qQHo.s 			page 76


 4267 01be 08       		.uleb128 0x8
 4268 01bf 3A       		.uleb128 0x3a
 4269 01c0 0B       		.uleb128 0xb
 4270 01c1 3B       		.uleb128 0x3b
 4271 01c2 0B       		.uleb128 0xb
 4272 01c3 39       		.uleb128 0x39
 4273 01c4 0B       		.uleb128 0xb
 4274 01c5 49       		.uleb128 0x49
 4275 01c6 13       		.uleb128 0x13
 4276 01c7 02       		.uleb128 0x2
 4277 01c8 17       		.uleb128 0x17
 4278 01c9 B742     		.uleb128 0x2137
 4279 01cb 17       		.uleb128 0x17
 4280 01cc 00       		.byte	0
 4281 01cd 00       		.byte	0
 4282 01ce 23       		.uleb128 0x23
 4283 01cf 898201   		.uleb128 0x4109
 4284 01d2 01       		.byte	0x1
 4285 01d3 11       		.uleb128 0x11
 4286 01d4 01       		.uleb128 0x1
 4287 01d5 31       		.uleb128 0x31
 4288 01d6 13       		.uleb128 0x13
 4289 01d7 00       		.byte	0
 4290 01d8 00       		.byte	0
 4291 01d9 24       		.uleb128 0x24
 4292 01da 8A8201   		.uleb128 0x410a
 4293 01dd 00       		.byte	0
 4294 01de 02       		.uleb128 0x2
 4295 01df 18       		.uleb128 0x18
 4296 01e0 9142     		.uleb128 0x2111
 4297 01e2 18       		.uleb128 0x18
 4298 01e3 00       		.byte	0
 4299 01e4 00       		.byte	0
 4300 01e5 25       		.uleb128 0x25
 4301 01e6 2E       		.uleb128 0x2e
 4302 01e7 01       		.byte	0x1
 4303 01e8 03       		.uleb128 0x3
 4304 01e9 0E       		.uleb128 0xe
 4305 01ea 3A       		.uleb128 0x3a
 4306 01eb 0B       		.uleb128 0xb
 4307 01ec 3B       		.uleb128 0x3b
 4308 01ed 0B       		.uleb128 0xb
 4309 01ee 39       		.uleb128 0x39
 4310 01ef 0B       		.uleb128 0xb
 4311 01f0 27       		.uleb128 0x27
 4312 01f1 19       		.uleb128 0x19
 4313 01f2 11       		.uleb128 0x11
 4314 01f3 01       		.uleb128 0x1
 4315 01f4 12       		.uleb128 0x12
 4316 01f5 06       		.uleb128 0x6
 4317 01f6 40       		.uleb128 0x40
 4318 01f7 18       		.uleb128 0x18
 4319 01f8 9742     		.uleb128 0x2117
 4320 01fa 19       		.uleb128 0x19
 4321 01fb 01       		.uleb128 0x1
 4322 01fc 13       		.uleb128 0x13
 4323 01fd 00       		.byte	0
ARM GAS  /var/folders/l5/0x54b2c10074c8bt31ycjvl80000gp/T//ccT1qQHo.s 			page 77


 4324 01fe 00       		.byte	0
 4325 01ff 26       		.uleb128 0x26
 4326 0200 05       		.uleb128 0x5
 4327 0201 00       		.byte	0
 4328 0202 03       		.uleb128 0x3
 4329 0203 08       		.uleb128 0x8
 4330 0204 3A       		.uleb128 0x3a
 4331 0205 0B       		.uleb128 0xb
 4332 0206 3B       		.uleb128 0x3b
 4333 0207 0B       		.uleb128 0xb
 4334 0208 39       		.uleb128 0x39
 4335 0209 0B       		.uleb128 0xb
 4336 020a 49       		.uleb128 0x49
 4337 020b 13       		.uleb128 0x13
 4338 020c 02       		.uleb128 0x2
 4339 020d 18       		.uleb128 0x18
 4340 020e 00       		.byte	0
 4341 020f 00       		.byte	0
 4342 0210 27       		.uleb128 0x27
 4343 0211 2E       		.uleb128 0x2e
 4344 0212 01       		.byte	0x1
 4345 0213 31       		.uleb128 0x31
 4346 0214 13       		.uleb128 0x13
 4347 0215 11       		.uleb128 0x11
 4348 0216 01       		.uleb128 0x1
 4349 0217 12       		.uleb128 0x12
 4350 0218 06       		.uleb128 0x6
 4351 0219 40       		.uleb128 0x40
 4352 021a 18       		.uleb128 0x18
 4353 021b 9742     		.uleb128 0x2117
 4354 021d 19       		.uleb128 0x19
 4355 021e 01       		.uleb128 0x1
 4356 021f 13       		.uleb128 0x13
 4357 0220 00       		.byte	0
 4358 0221 00       		.byte	0
 4359 0222 28       		.uleb128 0x28
 4360 0223 34       		.uleb128 0x34
 4361 0224 00       		.byte	0
 4362 0225 31       		.uleb128 0x31
 4363 0226 13       		.uleb128 0x13
 4364 0227 02       		.uleb128 0x2
 4365 0228 17       		.uleb128 0x17
 4366 0229 B742     		.uleb128 0x2137
 4367 022b 17       		.uleb128 0x17
 4368 022c 00       		.byte	0
 4369 022d 00       		.byte	0
 4370 022e 29       		.uleb128 0x29
 4371 022f 34       		.uleb128 0x34
 4372 0230 00       		.byte	0
 4373 0231 31       		.uleb128 0x31
 4374 0232 13       		.uleb128 0x13
 4375 0233 00       		.byte	0
 4376 0234 00       		.byte	0
 4377 0235 2A       		.uleb128 0x2a
 4378 0236 1D       		.uleb128 0x1d
 4379 0237 01       		.byte	0x1
 4380 0238 31       		.uleb128 0x31
ARM GAS  /var/folders/l5/0x54b2c10074c8bt31ycjvl80000gp/T//ccT1qQHo.s 			page 78


 4381 0239 13       		.uleb128 0x13
 4382 023a 52       		.uleb128 0x52
 4383 023b 01       		.uleb128 0x1
 4384 023c B842     		.uleb128 0x2138
 4385 023e 0B       		.uleb128 0xb
 4386 023f 55       		.uleb128 0x55
 4387 0240 17       		.uleb128 0x17
 4388 0241 58       		.uleb128 0x58
 4389 0242 0B       		.uleb128 0xb
 4390 0243 59       		.uleb128 0x59
 4391 0244 0B       		.uleb128 0xb
 4392 0245 57       		.uleb128 0x57
 4393 0246 0B       		.uleb128 0xb
 4394 0247 01       		.uleb128 0x1
 4395 0248 13       		.uleb128 0x13
 4396 0249 00       		.byte	0
 4397 024a 00       		.byte	0
 4398 024b 2B       		.uleb128 0x2b
 4399 024c 0B       		.uleb128 0xb
 4400 024d 01       		.byte	0x1
 4401 024e 55       		.uleb128 0x55
 4402 024f 17       		.uleb128 0x17
 4403 0250 00       		.byte	0
 4404 0251 00       		.byte	0
 4405 0252 2C       		.uleb128 0x2c
 4406 0253 898201   		.uleb128 0x4109
 4407 0256 01       		.byte	0x1
 4408 0257 11       		.uleb128 0x11
 4409 0258 01       		.uleb128 0x1
 4410 0259 31       		.uleb128 0x31
 4411 025a 13       		.uleb128 0x13
 4412 025b 01       		.uleb128 0x1
 4413 025c 13       		.uleb128 0x13
 4414 025d 00       		.byte	0
 4415 025e 00       		.byte	0
 4416 025f 2D       		.uleb128 0x2d
 4417 0260 898201   		.uleb128 0x4109
 4418 0263 00       		.byte	0
 4419 0264 11       		.uleb128 0x11
 4420 0265 01       		.uleb128 0x1
 4421 0266 31       		.uleb128 0x31
 4422 0267 13       		.uleb128 0x13
 4423 0268 00       		.byte	0
 4424 0269 00       		.byte	0
 4425 026a 2E       		.uleb128 0x2e
 4426 026b 898201   		.uleb128 0x4109
 4427 026e 01       		.byte	0x1
 4428 026f 11       		.uleb128 0x11
 4429 0270 01       		.uleb128 0x1
 4430 0271 9542     		.uleb128 0x2115
 4431 0273 19       		.uleb128 0x19
 4432 0274 31       		.uleb128 0x31
 4433 0275 13       		.uleb128 0x13
 4434 0276 00       		.byte	0
 4435 0277 00       		.byte	0
 4436 0278 2F       		.uleb128 0x2f
 4437 0279 0B       		.uleb128 0xb
ARM GAS  /var/folders/l5/0x54b2c10074c8bt31ycjvl80000gp/T//ccT1qQHo.s 			page 79


 4438 027a 01       		.byte	0x1
 4439 027b 31       		.uleb128 0x31
 4440 027c 13       		.uleb128 0x13
 4441 027d 11       		.uleb128 0x11
 4442 027e 01       		.uleb128 0x1
 4443 027f 12       		.uleb128 0x12
 4444 0280 06       		.uleb128 0x6
 4445 0281 01       		.uleb128 0x1
 4446 0282 13       		.uleb128 0x13
 4447 0283 00       		.byte	0
 4448 0284 00       		.byte	0
 4449 0285 30       		.uleb128 0x30
 4450 0286 2E       		.uleb128 0x2e
 4451 0287 00       		.byte	0
 4452 0288 3F       		.uleb128 0x3f
 4453 0289 19       		.uleb128 0x19
 4454 028a 3C       		.uleb128 0x3c
 4455 028b 19       		.uleb128 0x19
 4456 028c 6E       		.uleb128 0x6e
 4457 028d 0E       		.uleb128 0xe
 4458 028e 03       		.uleb128 0x3
 4459 028f 0E       		.uleb128 0xe
 4460 0290 3A       		.uleb128 0x3a
 4461 0291 0B       		.uleb128 0xb
 4462 0292 3B       		.uleb128 0x3b
 4463 0293 05       		.uleb128 0x5
 4464 0294 39       		.uleb128 0x39
 4465 0295 0B       		.uleb128 0xb
 4466 0296 00       		.byte	0
 4467 0297 00       		.byte	0
 4468 0298 31       		.uleb128 0x31
 4469 0299 2E       		.uleb128 0x2e
 4470 029a 00       		.byte	0
 4471 029b 3F       		.uleb128 0x3f
 4472 029c 19       		.uleb128 0x19
 4473 029d 3C       		.uleb128 0x3c
 4474 029e 19       		.uleb128 0x19
 4475 029f 6E       		.uleb128 0x6e
 4476 02a0 0E       		.uleb128 0xe
 4477 02a1 03       		.uleb128 0x3
 4478 02a2 0E       		.uleb128 0xe
 4479 02a3 3A       		.uleb128 0x3a
 4480 02a4 0B       		.uleb128 0xb
 4481 02a5 3B       		.uleb128 0x3b
 4482 02a6 0B       		.uleb128 0xb
 4483 02a7 39       		.uleb128 0x39
 4484 02a8 0B       		.uleb128 0xb
 4485 02a9 00       		.byte	0
 4486 02aa 00       		.byte	0
 4487 02ab 00       		.byte	0
 4488              		.section	.debug_loc,"",%progbits
 4489              	.Ldebug_loc0:
 4490              	.LVUS1:
 4491 0000 00       		.uleb128 0
 4492 0001 00       		.uleb128 .LVU23
 4493 0002 00       		.uleb128 .LVU23
 4494 0003 00       		.uleb128 0
ARM GAS  /var/folders/l5/0x54b2c10074c8bt31ycjvl80000gp/T//ccT1qQHo.s 			page 80


 4495              	.LLST1:
 4496 0004 00000000 		.4byte	.LVL5
 4497 0008 10000000 		.4byte	.LVL6
 4498 000c 0100     		.2byte	0x1
 4499 000e 50       		.byte	0x50
 4500 000f 10000000 		.4byte	.LVL6
 4501 0013 20000000 		.4byte	.LFE12
 4502 0017 0400     		.2byte	0x4
 4503 0019 F3       		.byte	0xf3
 4504 001a 01       		.uleb128 0x1
 4505 001b 50       		.byte	0x50
 4506 001c 9F       		.byte	0x9f
 4507 001d 00000000 		.4byte	0
 4508 0021 00000000 		.4byte	0
 4509              	.LVUS0:
 4510 0025 00       		.uleb128 0
 4511 0026 00       		.uleb128 .LVU8
 4512 0027 00       		.uleb128 .LVU8
 4513 0028 00       		.uleb128 0
 4514              	.LLST0:
 4515 0029 00000000 		.4byte	.LVL1
 4516 002d 0C000000 		.4byte	.LVL2
 4517 0031 0100     		.2byte	0x1
 4518 0033 50       		.byte	0x50
 4519 0034 0C000000 		.4byte	.LVL2
 4520 0038 1C000000 		.4byte	.LFE9
 4521 003c 0400     		.2byte	0x4
 4522 003e F3       		.byte	0xf3
 4523 003f 01       		.uleb128 0x1
 4524 0040 50       		.byte	0x50
 4525 0041 9F       		.byte	0x9f
 4526 0042 00000000 		.4byte	0
 4527 0046 00000000 		.4byte	0
 4528              	.LVUS2:
 4529 004a 03       		.uleb128 .LVU50
 4530 004b 00       		.uleb128 .LVU51
 4531 004c 00       		.uleb128 .LVU51
 4532 004d 00       		.uleb128 .LVU52
 4533 004e 00       		.uleb128 .LVU52
 4534 004f 00       		.uleb128 .LVU53
 4535 0050 00       		.uleb128 .LVU53
 4536 0051 00       		.uleb128 .LVU54
 4537 0052 00       		.uleb128 .LVU54
 4538 0053 00       		.uleb128 .LVU62
 4539 0054 00       		.uleb128 .LVU67
 4540 0055 00       		.uleb128 0
 4541              	.LLST2:
 4542 0056 34000000 		.4byte	.LVL10
 4543 005a 40000000 		.4byte	.LVL11
 4544 005e 0200     		.2byte	0x2
 4545 0060 30       		.byte	0x30
 4546 0061 9F       		.byte	0x9f
 4547 0062 40000000 		.4byte	.LVL11
 4548 0066 4C000000 		.4byte	.LVL12
 4549 006a 0200     		.2byte	0x2
 4550 006c 31       		.byte	0x31
 4551 006d 9F       		.byte	0x9f
ARM GAS  /var/folders/l5/0x54b2c10074c8bt31ycjvl80000gp/T//ccT1qQHo.s 			page 81


 4552 006e 4C000000 		.4byte	.LVL12
 4553 0072 58000000 		.4byte	.LVL13
 4554 0076 0200     		.2byte	0x2
 4555 0078 32       		.byte	0x32
 4556 0079 9F       		.byte	0x9f
 4557 007a 58000000 		.4byte	.LVL13
 4558 007e 64000000 		.4byte	.LVL14
 4559 0082 0200     		.2byte	0x2
 4560 0084 33       		.byte	0x33
 4561 0085 9F       		.byte	0x9f
 4562 0086 64000000 		.4byte	.LVL14
 4563 008a 8C000000 		.4byte	.LVL16
 4564 008e 0200     		.2byte	0x2
 4565 0090 34       		.byte	0x34
 4566 0091 9F       		.byte	0x9f
 4567 0092 98000000 		.4byte	.LVL17
 4568 0096 58030000 		.4byte	.LFE10
 4569 009a 0200     		.2byte	0x2
 4570 009c 34       		.byte	0x34
 4571 009d 9F       		.byte	0x9f
 4572 009e 00000000 		.4byte	0
 4573 00a2 00000000 		.4byte	0
 4574              	.LVUS3:
 4575 00a6 03       		.uleb128 .LVU81
 4576 00a7 00       		.uleb128 .LVU83
 4577 00a8 00       		.uleb128 .LVU83
 4578 00a9 00       		.uleb128 .LVU86
 4579 00aa 00       		.uleb128 .LVU86
 4580 00ab 00       		.uleb128 .LVU87
 4581 00ac 00       		.uleb128 .LVU87
 4582 00ad 03       		.uleb128 .LVU102
 4583 00ae 03       		.uleb128 .LVU102
 4584 00af 00       		.uleb128 .LVU103
 4585 00b0 00       		.uleb128 .LVU103
 4586 00b1 00       		.uleb128 .LVU104
 4587 00b2 00       		.uleb128 .LVU104
 4588 00b3 00       		.uleb128 .LVU105
 4589 00b4 00       		.uleb128 .LVU105
 4590 00b5 00       		.uleb128 .LVU106
 4591 00b6 00       		.uleb128 .LVU106
 4592 00b7 03       		.uleb128 .LVU127
 4593 00b8 03       		.uleb128 .LVU127
 4594 00b9 00       		.uleb128 .LVU128
 4595 00ba 00       		.uleb128 .LVU128
 4596 00bb 00       		.uleb128 .LVU129
 4597 00bc 00       		.uleb128 .LVU129
 4598 00bd 00       		.uleb128 .LVU130
 4599 00be 00       		.uleb128 .LVU130
 4600 00bf 00       		.uleb128 .LVU131
 4601 00c0 00       		.uleb128 .LVU131
 4602 00c1 00       		.uleb128 .LVU186
 4603              	.LLST3:
 4604 00c2 C8000000 		.4byte	.LVL20
 4605 00c6 D0000000 		.4byte	.LVL21
 4606 00ca 0200     		.2byte	0x2
 4607 00cc 30       		.byte	0x30
 4608 00cd 9F       		.byte	0x9f
ARM GAS  /var/folders/l5/0x54b2c10074c8bt31ycjvl80000gp/T//ccT1qQHo.s 			page 82


 4609 00ce D0000000 		.4byte	.LVL21
 4610 00d2 E4000000 		.4byte	.LVL23
 4611 00d6 0500     		.2byte	0x5
 4612 00d8 34       		.byte	0x34
 4613 00d9 75       		.byte	0x75
 4614 00da 00       		.sleb128 0
 4615 00db 1C       		.byte	0x1c
 4616 00dc 9F       		.byte	0x9f
 4617 00dd E4000000 		.4byte	.LVL23
 4618 00e1 E8000000 		.4byte	.LVL24
 4619 00e5 0500     		.2byte	0x5
 4620 00e7 35       		.byte	0x35
 4621 00e8 75       		.byte	0x75
 4622 00e9 00       		.sleb128 0
 4623 00ea 1C       		.byte	0x1c
 4624 00eb 9F       		.byte	0x9f
 4625 00ec E8000000 		.4byte	.LVL24
 4626 00f0 28010000 		.4byte	.LVL27
 4627 00f4 0500     		.2byte	0x5
 4628 00f6 34       		.byte	0x34
 4629 00f7 75       		.byte	0x75
 4630 00f8 00       		.sleb128 0
 4631 00f9 1C       		.byte	0x1c
 4632 00fa 9F       		.byte	0x9f
 4633 00fb 28010000 		.4byte	.LVL27
 4634 00ff 34010000 		.4byte	.LVL28
 4635 0103 0200     		.2byte	0x2
 4636 0105 30       		.byte	0x30
 4637 0106 9F       		.byte	0x9f
 4638 0107 34010000 		.4byte	.LVL28
 4639 010b 40010000 		.4byte	.LVL29
 4640 010f 0200     		.2byte	0x2
 4641 0111 31       		.byte	0x31
 4642 0112 9F       		.byte	0x9f
 4643 0113 40010000 		.4byte	.LVL29
 4644 0117 4C010000 		.4byte	.LVL30
 4645 011b 0200     		.2byte	0x2
 4646 011d 32       		.byte	0x32
 4647 011e 9F       		.byte	0x9f
 4648 011f 4C010000 		.4byte	.LVL30
 4649 0123 58010000 		.4byte	.LVL31
 4650 0127 0200     		.2byte	0x2
 4651 0129 33       		.byte	0x33
 4652 012a 9F       		.byte	0x9f
 4653 012b 58010000 		.4byte	.LVL31
 4654 012f BC010000 		.4byte	.LVL36
 4655 0133 0200     		.2byte	0x2
 4656 0135 34       		.byte	0x34
 4657 0136 9F       		.byte	0x9f
 4658 0137 BC010000 		.4byte	.LVL36
 4659 013b C8010000 		.4byte	.LVL37
 4660 013f 0200     		.2byte	0x2
 4661 0141 30       		.byte	0x30
 4662 0142 9F       		.byte	0x9f
 4663 0143 C8010000 		.4byte	.LVL37
 4664 0147 D4010000 		.4byte	.LVL38
 4665 014b 0200     		.2byte	0x2
ARM GAS  /var/folders/l5/0x54b2c10074c8bt31ycjvl80000gp/T//ccT1qQHo.s 			page 83


 4666 014d 31       		.byte	0x31
 4667 014e 9F       		.byte	0x9f
 4668 014f D4010000 		.4byte	.LVL38
 4669 0153 E0010000 		.4byte	.LVL39
 4670 0157 0200     		.2byte	0x2
 4671 0159 32       		.byte	0x32
 4672 015a 9F       		.byte	0x9f
 4673 015b E0010000 		.4byte	.LVL39
 4674 015f EC010000 		.4byte	.LVL40
 4675 0163 0200     		.2byte	0x2
 4676 0165 33       		.byte	0x33
 4677 0166 9F       		.byte	0x9f
 4678 0167 EC010000 		.4byte	.LVL40
 4679 016b 30030000 		.4byte	.LVL55
 4680 016f 0200     		.2byte	0x2
 4681 0171 34       		.byte	0x34
 4682 0172 9F       		.byte	0x9f
 4683 0173 00000000 		.4byte	0
 4684 0177 00000000 		.4byte	0
 4685              	.LVUS4:
 4686 017b 00       		.uleb128 .LVU112
 4687 017c 00       		.uleb128 .LVU113
 4688 017d 00       		.uleb128 .LVU136
 4689 017e 00       		.uleb128 .LVU137
 4690 017f 00       		.uleb128 .LVU141
 4691 0180 00       		.uleb128 .LVU142
 4692              	.LLST4:
 4693 0181 78010000 		.4byte	.LVL32
 4694 0185 84010000 		.4byte	.LVL33
 4695 0189 0100     		.2byte	0x1
 4696 018b 50       		.byte	0x50
 4697 018c 04020000 		.4byte	.LVL41
 4698 0190 10020000 		.4byte	.LVL42
 4699 0194 0100     		.2byte	0x1
 4700 0196 50       		.byte	0x50
 4701 0197 34020000 		.4byte	.LVL44
 4702 019b 40020000 		.4byte	.LVL45
 4703 019f 0100     		.2byte	0x1
 4704 01a1 50       		.byte	0x50
 4705 01a2 00000000 		.4byte	0
 4706 01a6 00000000 		.4byte	0
 4707              	.LVUS5:
 4708 01aa 03       		.uleb128 .LVU203
 4709 01ab 00       		.uleb128 .LVU205
 4710              	.LLST5:
 4711 01ac 34000000 		.4byte	.LVL57
 4712 01b0 3C000000 		.4byte	.LVL58
 4713 01b4 0200     		.2byte	0x2
 4714 01b6 30       		.byte	0x30
 4715 01b7 9F       		.byte	0x9f
 4716 01b8 00000000 		.4byte	0
 4717 01bc 00000000 		.4byte	0
 4718              	.LVUS6:
 4719 01c0 03       		.uleb128 .LVU217
 4720 01c1 00       		.uleb128 .LVU219
 4721 01c2 00       		.uleb128 .LVU219
 4722 01c3 00       		.uleb128 .LVU230
ARM GAS  /var/folders/l5/0x54b2c10074c8bt31ycjvl80000gp/T//ccT1qQHo.s 			page 84


 4723 01c4 00       		.uleb128 .LVU230
 4724 01c5 00       		.uleb128 .LVU232
 4725 01c6 00       		.uleb128 .LVU232
 4726 01c7 00       		.uleb128 .LVU253
 4727 01c8 00       		.uleb128 .LVU322
 4728 01c9 00       		.uleb128 0
 4729              	.LLST6:
 4730 01ca 80000000 		.4byte	.LVL61
 4731 01ce 88000000 		.4byte	.LVL62
 4732 01d2 0200     		.2byte	0x2
 4733 01d4 30       		.byte	0x30
 4734 01d5 9F       		.byte	0x9f
 4735 01d6 88000000 		.4byte	.LVL62
 4736 01da A0000000 		.4byte	.LVL64
 4737 01de 0500     		.2byte	0x5
 4738 01e0 34       		.byte	0x34
 4739 01e1 74       		.byte	0x74
 4740 01e2 00       		.sleb128 0
 4741 01e3 1C       		.byte	0x1c
 4742 01e4 9F       		.byte	0x9f
 4743 01e5 A0000000 		.4byte	.LVL64
 4744 01e9 A4000000 		.4byte	.LVL65
 4745 01ed 0500     		.2byte	0x5
 4746 01ef 35       		.byte	0x35
 4747 01f0 74       		.byte	0x74
 4748 01f1 00       		.sleb128 0
 4749 01f2 1C       		.byte	0x1c
 4750 01f3 9F       		.byte	0x9f
 4751 01f4 A4000000 		.4byte	.LVL65
 4752 01f8 14010000 		.4byte	.LVL70
 4753 01fc 0500     		.2byte	0x5
 4754 01fe 34       		.byte	0x34
 4755 01ff 74       		.byte	0x74
 4756 0200 00       		.sleb128 0
 4757 0201 1C       		.byte	0x1c
 4758 0202 9F       		.byte	0x9f
 4759 0203 D4020000 		.4byte	.LVL89
 4760 0207 FC020000 		.4byte	.LFE13
 4761 020b 0500     		.2byte	0x5
 4762 020d 34       		.byte	0x34
 4763 020e 74       		.byte	0x74
 4764 020f 00       		.sleb128 0
 4765 0210 1C       		.byte	0x1c
 4766 0211 9F       		.byte	0x9f
 4767 0212 00000000 		.4byte	0
 4768 0216 00000000 		.4byte	0
 4769              	.LVUS7:
 4770 021a 00       		.uleb128 .LVU254
 4771 021b 00       		.uleb128 .LVU255
 4772 021c 00       		.uleb128 .LVU297
 4773 021d 00       		.uleb128 .LVU298
 4774 021e 00       		.uleb128 .LVU302
 4775 021f 00       		.uleb128 .LVU303
 4776              	.LLST7:
 4777 0220 28010000 		.4byte	.LVL71
 4778 0224 34010000 		.4byte	.LVL72
 4779 0228 0100     		.2byte	0x1
ARM GAS  /var/folders/l5/0x54b2c10074c8bt31ycjvl80000gp/T//ccT1qQHo.s 			page 85


 4780 022a 50       		.byte	0x50
 4781 022b 20020000 		.4byte	.LVL80
 4782 022f 2C020000 		.4byte	.LVL81
 4783 0233 0100     		.2byte	0x1
 4784 0235 50       		.byte	0x50
 4785 0236 4C020000 		.4byte	.LVL83
 4786 023a 58020000 		.4byte	.LVL84
 4787 023e 0100     		.2byte	0x1
 4788 0240 50       		.byte	0x50
 4789 0241 00000000 		.4byte	0
 4790 0245 00000000 		.4byte	0
 4791              	.LVUS8:
 4792 0249 00       		.uleb128 .LVU225
 4793 024a 00       		.uleb128 .LVU230
 4794              	.LLST8:
 4795 024b 94000000 		.4byte	.LVL63
 4796 024f 9F000000 		.4byte	.LVL64-1
 4797 0253 0100     		.2byte	0x1
 4798 0255 50       		.byte	0x50
 4799 0256 00000000 		.4byte	0
 4800 025a 00000000 		.4byte	0
 4801              		.section	.debug_aranges,"",%progbits
 4802 0000 4C000000 		.4byte	0x4c
 4803 0004 0200     		.2byte	0x2
 4804 0006 00000000 		.4byte	.Ldebug_info0
 4805 000a 04       		.byte	0x4
 4806 000b 00       		.byte	0
 4807 000c 0000     		.2byte	0
 4808 000e 0000     		.2byte	0
 4809 0010 00000000 		.4byte	.LFB7
 4810 0014 04000000 		.4byte	.LFE7-.LFB7
 4811 0018 00000000 		.4byte	.LFB9
 4812 001c 1C000000 		.4byte	.LFE9-.LFB9
 4813 0020 00000000 		.4byte	.LFB8
 4814 0024 3C000000 		.4byte	.LFE8-.LFB8
 4815 0028 00000000 		.4byte	.LFB12
 4816 002c 20000000 		.4byte	.LFE12-.LFB12
 4817 0030 00000000 		.4byte	.LFB11
 4818 0034 3C000000 		.4byte	.LFE11-.LFB11
 4819 0038 00000000 		.4byte	.LFB10
 4820 003c 58030000 		.4byte	.LFE10-.LFB10
 4821 0040 00000000 		.4byte	.LFB13
 4822 0044 FC020000 		.4byte	.LFE13-.LFB13
 4823 0048 00000000 		.4byte	0
 4824 004c 00000000 		.4byte	0
 4825              		.section	.debug_ranges,"",%progbits
 4826              	.Ldebug_ranges0:
 4827 0000 8C000000 		.4byte	.LBB5
 4828 0004 90000000 		.4byte	.LBE5
 4829 0008 98000000 		.4byte	.LBB9
 4830 000c 24030000 		.4byte	.LBE9
 4831 0010 2C030000 		.4byte	.LBB10
 4832 0014 30030000 		.4byte	.LBE10
 4833 0018 00000000 		.4byte	0
 4834 001c 00000000 		.4byte	0
 4835 0020 7C000000 		.4byte	.LBB14
 4836 0024 AC020000 		.4byte	.LBE14
ARM GAS  /var/folders/l5/0x54b2c10074c8bt31ycjvl80000gp/T//ccT1qQHo.s 			page 86


 4837 0028 B4020000 		.4byte	.LBB19
 4838 002c BC020000 		.4byte	.LBE19
 4839 0030 D4020000 		.4byte	.LBB20
 4840 0034 FC020000 		.4byte	.LBE20
 4841 0038 00000000 		.4byte	0
 4842 003c 00000000 		.4byte	0
 4843 0040 00000000 		.4byte	.LFB7
 4844 0044 04000000 		.4byte	.LFE7
 4845 0048 00000000 		.4byte	.LFB9
 4846 004c 1C000000 		.4byte	.LFE9
 4847 0050 00000000 		.4byte	.LFB8
 4848 0054 3C000000 		.4byte	.LFE8
 4849 0058 00000000 		.4byte	.LFB12
 4850 005c 20000000 		.4byte	.LFE12
 4851 0060 00000000 		.4byte	.LFB11
 4852 0064 3C000000 		.4byte	.LFE11
 4853 0068 00000000 		.4byte	.LFB10
 4854 006c 58030000 		.4byte	.LFE10
 4855 0070 00000000 		.4byte	.LFB13
 4856 0074 FC020000 		.4byte	.LFE13
 4857 0078 00000000 		.4byte	0
 4858 007c 00000000 		.4byte	0
 4859              		.section	.debug_line,"",%progbits
 4860              	.Ldebug_line0:
 4861 0000 C5050000 		.section	.debug_str,"MS",%progbits,1
 4861      0300F901 
 4861      00000201 
 4861      FB0E0D00 
 4861      01010101 
 4862              	.LASF129:
 4863 0000 63684F51 		.ascii	"chOQPutTimeout\000"
 4863      50757454 
 4863      696D656F 
 4863      757400
 4864              	.LASF87:
 4865 000f 63665F6F 		.ascii	"cf_off_older\000"
 4865      66665F6F 
 4865      6C646572 
 4865      00
 4866              	.LASF40:
 4867 001c 705F6D73 		.ascii	"p_msg\000"
 4867      6700
 4868              	.LASF2:
 4869 0022 73697A65 		.ascii	"size_t\000"
 4869      5F7400
 4870              	.LASF72:
 4871 0029 7264796D 		.ascii	"rdymsg\000"
 4871      736700
 4872              	.LASF132:
 4873 0030 63684951 		.ascii	"chIQInit\000"
 4873      496E6974 
 4873      00
 4874              	.LASF108:
 4875 0039 4F757470 		.ascii	"OutputQueue\000"
 4875      75745175 
 4875      65756500 
 4876              	.LASF3:
ARM GAS  /var/folders/l5/0x54b2c10074c8bt31ycjvl80000gp/T//ccT1qQHo.s 			page 87


 4877 0045 5F5F7569 		.ascii	"__uint8_t\000"
 4877      6E74385F 
 4877      7400
 4878              	.LASF66:
 4879 004f 76746C69 		.ascii	"vtlist\000"
 4879      737400
 4880              	.LASF137:
 4881 0056 63684951 		.ascii	"chIQReadTimeout\000"
 4881      52656164 
 4881      54696D65 
 4881      6F757400 
 4882              	.LASF121:
 4883 0066 70617474 		.ascii	"patternqueues\000"
 4883      65726E71 
 4883      75657565 
 4883      7300
 4884              	.LASF101:
 4885 0074 715F746F 		.ascii	"q_top\000"
 4885      7000
 4886              	.LASF13:
 4887 007a 6C6F6E67 		.ascii	"long long unsigned int\000"
 4887      206C6F6E 
 4887      6720756E 
 4887      7369676E 
 4887      65642069 
 4888              	.LASF142:
 4889 0091 63684F51 		.ascii	"chOQWriteTimeout\000"
 4889      57726974 
 4889      6554696D 
 4889      656F7574 
 4889      00
 4890              	.LASF83:
 4891 00a2 63685F74 		.ascii	"ch_threadsize\000"
 4891      68726561 
 4891      6473697A 
 4891      6500
 4892              	.LASF73:
 4893 00b0 65786974 		.ascii	"exitcode\000"
 4893      636F6465 
 4893      00
 4894              	.LASF126:
 4895 00b9 71756575 		.ascii	"queues2_setup\000"
 4895      6573325F 
 4895      73657475 
 4895      7000
 4896              	.LASF117:
 4897 00c7 74657374 		.ascii	"test\000"
 4897      00
 4898              	.LASF29:
 4899 00cc 705F7072 		.ascii	"p_prio\000"
 4899      696F00
 4900              	.LASF90:
 4901 00d3 63665F6F 		.ascii	"cf_off_state\000"
 4901      66665F73 
 4901      74617465 
 4901      00
 4902              	.LASF113:
ARM GAS  /var/folders/l5/0x54b2c10074c8bt31ycjvl80000gp/T//ccT1qQHo.s 			page 88


 4903 00e0 74656172 		.ascii	"teardown\000"
 4903      646F776E 
 4903      00
 4904              	.LASF98:
 4905 00e9 715F7761 		.ascii	"q_waiting\000"
 4905      6974696E 
 4905      6700
 4906              	.LASF12:
 4907 00f3 6C6F6E67 		.ascii	"long long int\000"
 4907      206C6F6E 
 4907      6720696E 
 4907      7400
 4908              	.LASF1:
 4909 0101 7369676E 		.ascii	"signed char\000"
 4909      65642063 
 4909      68617200 
 4910              	.LASF89:
 4911 010d 63665F6F 		.ascii	"cf_off_stklimit\000"
 4911      66665F73 
 4911      746B6C69 
 4911      6D697400 
 4912              	.LASF91:
 4913 011d 63665F6F 		.ascii	"cf_off_flags\000"
 4913      66665F66 
 4913      6C616773 
 4913      00
 4914              	.LASF18:
 4915 012a 626F6F6C 		.ascii	"bool_t\000"
 4915      5F7400
 4916              	.LASF69:
 4917 0131 6D5F7175 		.ascii	"m_queue\000"
 4917      65756500 
 4918              	.LASF135:
 4919 0139 74657374 		.ascii	"test_emit_token\000"
 4919      5F656D69 
 4919      745F746F 
 4919      6B656E00 
 4920              	.LASF77:
 4921 0149 63685F69 		.ascii	"ch_identifier\000"
 4921      64656E74 
 4921      69666965 
 4921      7200
 4922              	.LASF130:
 4923 0157 63684F51 		.ascii	"chOQInit\000"
 4923      496E6974 
 4923      00
 4924              	.LASF9:
 4925 0160 6C6F6E67 		.ascii	"long int\000"
 4925      20696E74 
 4925      00
 4926              	.LASF128:
 4927 0169 6E6F7469 		.ascii	"notify\000"
 4927      667900
 4928              	.LASF20:
 4929 0170 74737461 		.ascii	"tstate_t\000"
 4929      74655F74 
 4929      00
ARM GAS  /var/folders/l5/0x54b2c10074c8bt31ycjvl80000gp/T//ccT1qQHo.s 			page 89


 4930              	.LASF141:
 4931 0179 63684F51 		.ascii	"chOQGetI\000"
 4931      47657449 
 4931      00
 4932              	.LASF100:
 4933 0182 715F6275 		.ascii	"q_buffer\000"
 4933      66666572 
 4933      00
 4934              	.LASF15:
 4935 018b 75696E74 		.ascii	"uint16_t\000"
 4935      31365F74 
 4935      00
 4936              	.LASF95:
 4937 0194 63686465 		.ascii	"chdebug_t\000"
 4937      6275675F 
 4937      7400
 4938              	.LASF115:
 4939 019e 62756666 		.ascii	"buffer\000"
 4939      657200
 4940              	.LASF31:
 4941 01a5 705F6E65 		.ascii	"p_newer\000"
 4941      77657200 
 4942              	.LASF109:
 4943 01ad 5F69646C 		.ascii	"_idle_thread_wa\000"
 4943      655F7468 
 4943      72656164 
 4943      5F776100 
 4944              	.LASF10:
 4945 01bd 5F5F7569 		.ascii	"__uint32_t\000"
 4945      6E743332 
 4945      5F7400
 4946              	.LASF47:
 4947 01c8 72656761 		.ascii	"regarm_t\000"
 4947      726D5F74 
 4947      00
 4948              	.LASF53:
 4949 01d1 76745F70 		.ascii	"vt_prev\000"
 4949      72657600 
 4950              	.LASF133:
 4951 01d9 63684951 		.ascii	"chIQPutI\000"
 4951      50757449 
 4951      00
 4952              	.LASF0:
 4953 01e2 756E7369 		.ascii	"unsigned int\000"
 4953      676E6564 
 4953      20696E74 
 4953      00
 4954              	.LASF52:
 4955 01ef 76745F6E 		.ascii	"vt_next\000"
 4955      65787400 
 4956              	.LASF138:
 4957 01f7 63684951 		.ascii	"chIQResetI\000"
 4957      52657365 
 4957      744900
 4958              	.LASF11:
 4959 0202 6C6F6E67 		.ascii	"long unsigned int\000"
 4959      20756E73 
ARM GAS  /var/folders/l5/0x54b2c10074c8bt31ycjvl80000gp/T//ccT1qQHo.s 			page 90


 4959      69676E65 
 4959      6420696E 
 4959      7400
 4960              	.LASF96:
 4961 0214 63685F64 		.ascii	"ch_debug\000"
 4961      65627567 
 4961      00
 4962              	.LASF118:
 4963 021d 74657374 		.ascii	"test_timer_done\000"
 4963      5F74696D 
 4963      65725F64 
 4963      6F6E6500 
 4964              	.LASF50:
 4965 022d 76746675 		.ascii	"vtfunc_t\000"
 4965      6E635F74 
 4965      00
 4966              	.LASF111:
 4967 0236 6E616D65 		.ascii	"name\000"
 4967      00
 4968              	.LASF49:
 4969 023b 636F6E74 		.ascii	"context\000"
 4969      65787400 
 4970              	.LASF7:
 4971 0243 73686F72 		.ascii	"short unsigned int\000"
 4971      7420756E 
 4971      7369676E 
 4971      65642069 
 4971      6E7400
 4972              	.LASF123:
 4973 0256 71756575 		.ascii	"queues1_execute\000"
 4973      6573315F 
 4973      65786563 
 4973      75746500 
 4974              	.LASF119:
 4975 0266 74657374 		.ascii	"testqueues1\000"
 4975      71756575 
 4975      65733100 
 4976              	.LASF23:
 4977 0272 6D73675F 		.ascii	"msg_t\000"
 4977      7400
 4978              	.LASF62:
 4979 0278 725F6E65 		.ascii	"r_newer\000"
 4979      77657200 
 4980              	.LASF144:
 4981 0280 474E5520 		.ascii	"GNU C17 8.3.1 20190703 (release) [gcc-8-branch revi"
 4981      43313720 
 4981      382E332E 
 4981      31203230 
 4981      31393037 
 4982 02b3 73696F6E 		.ascii	"sion 273027] -mcpu=arm1176jz-s -mno-thumb-interwork"
 4982      20323733 
 4982      3032375D 
 4982      202D6D63 
 4982      70753D61 
 4983 02e6 202D6D66 		.ascii	" -mfloat-abi=soft -marm -march=armv6kz -ggdb -O2 -f"
 4983      6C6F6174 
 4983      2D616269 
ARM GAS  /var/folders/l5/0x54b2c10074c8bt31ycjvl80000gp/T//ccT1qQHo.s 			page 91


 4983      3D736F66 
 4983      74202D6D 
 4984 0319 6F6D6974 		.ascii	"omit-frame-pointer -ffunction-sections -fdata-secti"
 4984      2D667261 
 4984      6D652D70 
 4984      6F696E74 
 4984      6572202D 
 4985 034c 6F6E7300 		.ascii	"ons\000"
 4986              	.LASF116:
 4987 0350 74687265 		.ascii	"threads\000"
 4987      61647300 
 4988              	.LASF19:
 4989 0358 746D6F64 		.ascii	"tmode_t\000"
 4989      655F7400 
 4990              	.LASF45:
 4991 0360 54687265 		.ascii	"ThreadsList\000"
 4991      6164734C 
 4991      69737400 
 4992              	.LASF24:
 4993 036c 6576656E 		.ascii	"eventmask_t\000"
 4993      746D6173 
 4993      6B5F7400 
 4994              	.LASF107:
 4995 0378 496E7075 		.ascii	"InputQueue\000"
 4995      74517565 
 4995      756500
 4996              	.LASF68:
 4997 0383 4D757465 		.ascii	"Mutex\000"
 4997      7800
 4998              	.LASF97:
 4999 0389 47656E65 		.ascii	"GenericQueue\000"
 4999      72696351 
 4999      75657565 
 4999      00
 5000              	.LASF46:
 5001 0396 73746B61 		.ascii	"stkalign_t\000"
 5001      6C69676E 
 5001      5F7400
 5002              	.LASF139:
 5003 03a1 63685468 		.ascii	"chThdCreateStatic\000"
 5003      64437265 
 5003      61746553 
 5003      74617469 
 5003      6300
 5004              	.LASF78:
 5005 03b3 63685F7A 		.ascii	"ch_zero\000"
 5005      65726F00 
 5006              	.LASF92:
 5007 03bb 63665F6F 		.ascii	"cf_off_refs\000"
 5007      66665F72 
 5007      65667300 
 5008              	.LASF54:
 5009 03c7 76745F74 		.ascii	"vt_time\000"
 5009      696D6500 
 5010              	.LASF122:
 5011 03cf 71756575 		.ascii	"queues2_execute\000"
 5011      6573325F 
ARM GAS  /var/folders/l5/0x54b2c10074c8bt31ycjvl80000gp/T//ccT1qQHo.s 			page 92


 5011      65786563 
 5011      75746500 
 5012              	.LASF99:
 5013 03df 715F636F 		.ascii	"q_counter\000"
 5013      756E7465 
 5013      7200
 5014              	.LASF55:
 5015 03e9 76745F66 		.ascii	"vt_func\000"
 5015      756E6300 
 5016              	.LASF82:
 5017 03f1 63685F74 		.ascii	"ch_timesize\000"
 5017      696D6573 
 5017      697A6500 
 5018              	.LASF88:
 5019 03fd 63665F6F 		.ascii	"cf_off_name\000"
 5019      66665F6E 
 5019      616D6500 
 5020              	.LASF120:
 5021 0409 74657374 		.ascii	"testqueues2\000"
 5021      71756575 
 5021      65733200 
 5022              	.LASF140:
 5023 0415 74657374 		.ascii	"test_wait_threads\000"
 5023      5F776169 
 5023      745F7468 
 5023      72656164 
 5023      7300
 5024              	.LASF32:
 5025 0427 705F6F6C 		.ascii	"p_older\000"
 5025      64657200 
 5026              	.LASF125:
 5027 042f 74687265 		.ascii	"thread1\000"
 5027      61643100 
 5028              	.LASF102:
 5029 0437 715F7772 		.ascii	"q_wrptr\000"
 5029      70747200 
 5030              	.LASF61:
 5031 043f 725F6374 		.ascii	"r_ctx\000"
 5031      7800
 5032              	.LASF44:
 5033 0445 54687265 		.ascii	"ThreadsQueue\000"
 5033      61647351 
 5033      75657565 
 5033      00
 5034              	.LASF79:
 5035 0452 63685F73 		.ascii	"ch_size\000"
 5035      697A6500 
 5036              	.LASF112:
 5037 045a 73657475 		.ascii	"setup\000"
 5037      7000
 5038              	.LASF136:
 5039 0460 5F746573 		.ascii	"_test_assert_sequence\000"
 5039      745F6173 
 5039      73657274 
 5039      5F736571 
 5039      75656E63 
 5040              	.LASF64:
ARM GAS  /var/folders/l5/0x54b2c10074c8bt31ycjvl80000gp/T//ccT1qQHo.s 			page 93


 5041 0476 725F6375 		.ascii	"r_current\000"
 5041      7272656E 
 5041      7400
 5042              	.LASF63:
 5043 0480 725F6F6C 		.ascii	"r_older\000"
 5043      64657200 
 5044              	.LASF127:
 5045 0488 71756575 		.ascii	"queues1_setup\000"
 5045      6573315F 
 5045      73657475 
 5045      7000
 5046              	.LASF21:
 5047 0496 74726566 		.ascii	"trefs_t\000"
 5047      735F7400 
 5048              	.LASF81:
 5049 049e 63685F70 		.ascii	"ch_ptrsize\000"
 5049      74727369 
 5049      7A6500
 5050              	.LASF106:
 5051 04a9 716E6F74 		.ascii	"qnotify_t\000"
 5051      6966795F 
 5051      7400
 5052              	.LASF28:
 5053 04b3 705F7072 		.ascii	"p_prev\000"
 5053      657600
 5054              	.LASF114:
 5055 04ba 65786563 		.ascii	"execute\000"
 5055      75746500 
 5056              	.LASF22:
 5057 04c2 74707269 		.ascii	"tprio_t\000"
 5057      6F5F7400 
 5058              	.LASF103:
 5059 04ca 715F7264 		.ascii	"q_rdptr\000"
 5059      70747200 
 5060              	.LASF16:
 5061 04d2 696E7433 		.ascii	"int32_t\000"
 5061      325F7400 
 5062              	.LASF4:
 5063 04da 756E7369 		.ascii	"unsigned char\000"
 5063      676E6564 
 5063      20636861 
 5063      7200
 5064              	.LASF145:
 5065 04e8 2E2E2F2E 		.ascii	"../../test/testqueues.c\000"
 5065      2E2F7465 
 5065      73742F74 
 5065      65737471 
 5065      75657565 
 5066              	.LASF42:
 5067 0500 705F6D74 		.ascii	"p_mtxlist\000"
 5067      786C6973 
 5067      7400
 5068              	.LASF5:
 5069 050a 73686F72 		.ascii	"short int\000"
 5069      7420696E 
 5069      7400
 5070              	.LASF34:
ARM GAS  /var/folders/l5/0x54b2c10074c8bt31ycjvl80000gp/T//ccT1qQHo.s 			page 94


 5071 0514 705F7374 		.ascii	"p_state\000"
 5071      61746500 
 5072              	.LASF94:
 5073 051c 63665F6F 		.ascii	"cf_off_time\000"
 5073      66665F74 
 5073      696D6500 
 5074              	.LASF60:
 5075 0528 725F7072 		.ascii	"r_prio\000"
 5075      696F00
 5076              	.LASF75:
 5077 052f 65776D61 		.ascii	"ewmask\000"
 5077      736B00
 5078              	.LASF27:
 5079 0536 705F6E65 		.ascii	"p_next\000"
 5079      787400
 5080              	.LASF93:
 5081 053d 63665F6F 		.ascii	"cf_off_preempt\000"
 5081      66665F70 
 5081      7265656D 
 5081      707400
 5082              	.LASF35:
 5083 054c 705F666C 		.ascii	"p_flags\000"
 5083      61677300 
 5084              	.LASF26:
 5085 0554 54687265 		.ascii	"Thread\000"
 5085      616400
 5086              	.LASF86:
 5087 055b 63665F6F 		.ascii	"cf_off_newer\000"
 5087      66665F6E 
 5087      65776572 
 5087      00
 5088              	.LASF110:
 5089 0568 74657374 		.ascii	"testcase\000"
 5089      63617365 
 5089      00
 5090              	.LASF41:
 5091 0571 705F6570 		.ascii	"p_epending\000"
 5091      656E6469 
 5091      6E6700
 5092              	.LASF17:
 5093 057c 75696E74 		.ascii	"uint32_t\000"
 5093      33325F74 
 5093      00
 5094              	.LASF84:
 5095 0585 63665F6F 		.ascii	"cf_off_prio\000"
 5095      66665F70 
 5095      72696F00 
 5096              	.LASF59:
 5097 0591 725F7175 		.ascii	"r_queue\000"
 5097      65756500 
 5098              	.LASF51:
 5099 0599 56697274 		.ascii	"VirtualTimer\000"
 5099      75616C54 
 5099      696D6572 
 5099      00
 5100              	.LASF76:
 5101 05a6 63686172 		.ascii	"char\000"
ARM GAS  /var/folders/l5/0x54b2c10074c8bt31ycjvl80000gp/T//ccT1qQHo.s 			page 95


 5101      00
 5102              	.LASF147:
 5103 05ab 74657374 		.ascii	"test_buffers\000"
 5103      5F627566 
 5103      66657273 
 5103      00
 5104              	.LASF6:
 5105 05b8 5F5F7569 		.ascii	"__uint16_t\000"
 5105      6E743136 
 5105      5F7400
 5106              	.LASF124:
 5107 05c3 74687265 		.ascii	"thread2\000"
 5107      61643200 
 5108              	.LASF71:
 5109 05cb 6D5F6E65 		.ascii	"m_next\000"
 5109      787400
 5110              	.LASF25:
 5111 05d2 73797374 		.ascii	"systime_t\000"
 5111      696D655F 
 5111      7400
 5112              	.LASF43:
 5113 05dc 705F7265 		.ascii	"p_realprio\000"
 5113      616C7072 
 5113      696F00
 5114              	.LASF8:
 5115 05e7 5F5F696E 		.ascii	"__int32_t\000"
 5115      7433325F 
 5115      7400
 5116              	.LASF143:
 5117 05f1 63684F51 		.ascii	"chOQResetI\000"
 5117      52657365 
 5117      744900
 5118              	.LASF37:
 5119 05fc 705F7469 		.ascii	"p_time\000"
 5119      6D6500
 5120              	.LASF48:
 5121 0603 696E7463 		.ascii	"intctx\000"
 5121      747800
 5122              	.LASF39:
 5123 060a 705F6D73 		.ascii	"p_msgqueue\000"
 5123      67717565 
 5123      756500
 5124              	.LASF56:
 5125 0615 76745F70 		.ascii	"vt_par\000"
 5125      617200
 5126              	.LASF85:
 5127 061c 63665F6F 		.ascii	"cf_off_ctx\000"
 5127      66665F63 
 5127      747800
 5128              	.LASF36:
 5129 0627 705F7265 		.ascii	"p_refs\000"
 5129      667300
 5130              	.LASF65:
 5131 062e 52656164 		.ascii	"ReadyList\000"
 5131      794C6973 
 5131      7400
 5132              	.LASF104:
ARM GAS  /var/folders/l5/0x54b2c10074c8bt31ycjvl80000gp/T//ccT1qQHo.s 			page 96


 5133 0638 715F6E6F 		.ascii	"q_notify\000"
 5133      74696679 
 5133      00
 5134              	.LASF67:
 5135 0641 726C6973 		.ascii	"rlist\000"
 5135      7400
 5136              	.LASF14:
 5137 0647 75696E74 		.ascii	"uint8_t\000"
 5137      385F7400 
 5138              	.LASF74:
 5139 064f 77746F62 		.ascii	"wtobjp\000"
 5139      6A7000
 5140              	.LASF33:
 5141 0656 705F6E61 		.ascii	"p_name\000"
 5141      6D6500
 5142              	.LASF134:
 5143 065d 5F746573 		.ascii	"_test_assert\000"
 5143      745F6173 
 5143      73657274 
 5143      00
 5144              	.LASF57:
 5145 066a 76745F73 		.ascii	"vt_systime\000"
 5145      79737469 
 5145      6D6500
 5146              	.LASF80:
 5147 0675 63685F76 		.ascii	"ch_version\000"
 5147      65727369 
 5147      6F6E00
 5148              	.LASF146:
 5149 0680 2F557365 		.ascii	"/Users/fernandoguirado/eclipse-workspace/ChibiOS-RP"
 5149      72732F66 
 5149      65726E61 
 5149      6E646F67 
 5149      75697261 
 5150 06b3 692D636F 		.ascii	"i-copia/demos/timers\000"
 5150      7069612F 
 5150      64656D6F 
 5150      732F7469 
 5150      6D657273 
 5151              	.LASF58:
 5152 06c8 56544C69 		.ascii	"VTList\000"
 5152      737400
 5153              	.LASF105:
 5154 06cf 715F6C69 		.ascii	"q_link\000"
 5154      6E6B00
 5155              	.LASF70:
 5156 06d6 6D5F6F77 		.ascii	"m_owner\000"
 5156      6E657200 
 5157              	.LASF30:
 5158 06de 705F6374 		.ascii	"p_ctx\000"
 5158      7800
 5159              	.LASF38:
 5160 06e4 705F7761 		.ascii	"p_waiting\000"
 5160      6974696E 
 5160      6700
 5161              	.LASF131:
 5162 06ee 63684951 		.ascii	"chIQGetTimeout\000"
ARM GAS  /var/folders/l5/0x54b2c10074c8bt31ycjvl80000gp/T//ccT1qQHo.s 			page 97


 5162      47657454 
 5162      696D656F 
 5162      757400
 5163              		.ident	"GCC: (GNU Tools for Arm Embedded Processors 8-2019-q3-update) 8.3.1 20190703 (release) [gc
ARM GAS  /var/folders/l5/0x54b2c10074c8bt31ycjvl80000gp/T//ccT1qQHo.s 			page 98


DEFINED SYMBOLS
                            *ABS*:0000000000000000 testqueues.c
/var/folders/l5/0x54b2c10074c8bt31ycjvl80000gp/T//ccT1qQHo.s:16     .text.notify:0000000000000000 $a
/var/folders/l5/0x54b2c10074c8bt31ycjvl80000gp/T//ccT1qQHo.s:22     .text.notify:0000000000000000 notify
/var/folders/l5/0x54b2c10074c8bt31ycjvl80000gp/T//ccT1qQHo.s:38     .text.thread1:0000000000000000 $a
/var/folders/l5/0x54b2c10074c8bt31ycjvl80000gp/T//ccT1qQHo.s:43     .text.thread1:0000000000000000 thread1
/var/folders/l5/0x54b2c10074c8bt31ycjvl80000gp/T//ccT1qQHo.s:71     .text.thread1:0000000000000018 $d
/var/folders/l5/0x54b2c10074c8bt31ycjvl80000gp/T//ccT1qQHo.s:76     .text.queues1_setup:0000000000000000 $a
/var/folders/l5/0x54b2c10074c8bt31ycjvl80000gp/T//ccT1qQHo.s:81     .text.queues1_setup:0000000000000000 queues1_setup
/var/folders/l5/0x54b2c10074c8bt31ycjvl80000gp/T//ccT1qQHo.s:114    .text.queues1_setup:0000000000000030 $d
/var/folders/l5/0x54b2c10074c8bt31ycjvl80000gp/T//ccT1qQHo.s:121    .text.thread2:0000000000000000 $a
/var/folders/l5/0x54b2c10074c8bt31ycjvl80000gp/T//ccT1qQHo.s:126    .text.thread2:0000000000000000 thread2
/var/folders/l5/0x54b2c10074c8bt31ycjvl80000gp/T//ccT1qQHo.s:155    .text.thread2:000000000000001c $d
/var/folders/l5/0x54b2c10074c8bt31ycjvl80000gp/T//ccT1qQHo.s:160    .text.queues2_setup:0000000000000000 $a
/var/folders/l5/0x54b2c10074c8bt31ycjvl80000gp/T//ccT1qQHo.s:165    .text.queues2_setup:0000000000000000 queues2_setup
/var/folders/l5/0x54b2c10074c8bt31ycjvl80000gp/T//ccT1qQHo.s:198    .text.queues2_setup:0000000000000030 $d
/var/folders/l5/0x54b2c10074c8bt31ycjvl80000gp/T//ccT1qQHo.s:205    .text.queues1_execute:0000000000000000 $a
/var/folders/l5/0x54b2c10074c8bt31ycjvl80000gp/T//ccT1qQHo.s:210    .text.queues1_execute:0000000000000000 queues1_execute
/var/folders/l5/0x54b2c10074c8bt31ycjvl80000gp/T//ccT1qQHo.s:775    .text.queues1_execute:0000000000000340 $d
/var/folders/l5/0x54b2c10074c8bt31ycjvl80000gp/T//ccT1qQHo.s:785    .text.queues2_execute:0000000000000000 $a
/var/folders/l5/0x54b2c10074c8bt31ycjvl80000gp/T//ccT1qQHo.s:790    .text.queues2_execute:0000000000000000 queues2_execute
/var/folders/l5/0x54b2c10074c8bt31ycjvl80000gp/T//ccT1qQHo.s:1296   .text.queues2_execute:00000000000002e4 $d
/var/folders/l5/0x54b2c10074c8bt31ycjvl80000gp/T//ccT1qQHo.s:1344   .rodata.patternqueues:0000000000000000 patternqueues
/var/folders/l5/0x54b2c10074c8bt31ycjvl80000gp/T//ccT1qQHo.s:1372   .rodata.testqueues2:0000000000000000 testqueues2
/var/folders/l5/0x54b2c10074c8bt31ycjvl80000gp/T//ccT1qQHo.s:1363   .rodata.testqueues1:0000000000000000 testqueues1
/var/folders/l5/0x54b2c10074c8bt31ycjvl80000gp/T//ccT1qQHo.s:1311   .data.iq:0000000000000000 $d
/var/folders/l5/0x54b2c10074c8bt31ycjvl80000gp/T//ccT1qQHo.s:1315   .data.iq:0000000000000000 iq
/var/folders/l5/0x54b2c10074c8bt31ycjvl80000gp/T//ccT1qQHo.s:1326   .data.oq:0000000000000000 $d
/var/folders/l5/0x54b2c10074c8bt31ycjvl80000gp/T//ccT1qQHo.s:1330   .data.oq:0000000000000000 oq
/var/folders/l5/0x54b2c10074c8bt31ycjvl80000gp/T//ccT1qQHo.s:1341   .rodata.patternqueues:0000000000000000 $d
/var/folders/l5/0x54b2c10074c8bt31ycjvl80000gp/T//ccT1qQHo.s:1349   .rodata.queues1_execute.str1.4:0000000000000000 $d
/var/folders/l5/0x54b2c10074c8bt31ycjvl80000gp/T//ccT1qQHo.s:1353   .rodata.str1.4:0000000000000000 $d
/var/folders/l5/0x54b2c10074c8bt31ycjvl80000gp/T//ccT1qQHo.s:1360   .rodata.testqueues1:0000000000000000 $d
/var/folders/l5/0x54b2c10074c8bt31ycjvl80000gp/T//ccT1qQHo.s:1369   .rodata.testqueues2:0000000000000000 $d

UNDEFINED SYMBOLS
chIQGetTimeout
chIQInit
wa
chOQPutTimeout
chOQInit
_test_assert
chIQPutI
test_emit_token
_test_assert_sequence
chIQReadTimeout
chIQResetI
chThdCreateStatic
test_wait_threads
rlist
threads
chOQGetI
chOQWriteTimeout
chOQResetI
test
