ARM GAS  /var/folders/l5/0x54b2c10074c8bt31ycjvl80000gp/T//cci54lkl.s 			page 1


   1              		.cpu arm1176jz-s
   2              		.eabi_attribute 20, 1
   3              		.eabi_attribute 21, 1
   4              		.eabi_attribute 23, 3
   5              		.eabi_attribute 24, 1
   6              		.eabi_attribute 25, 1
   7              		.eabi_attribute 26, 1
   8              		.eabi_attribute 30, 2
   9              		.eabi_attribute 34, 1
  10              		.eabi_attribute 18, 4
  11              		.file	"chmboxes.c"
  12              		.text
  13              	.Ltext0:
  14              		.cfi_sections	.debug_frame
  15              		.section	.text.chMBInit,"ax",%progbits
  16              		.align	2
  17              		.global	chMBInit
  18              		.arch armv6kz
  19              		.syntax unified
  20              		.arm
  21              		.fpu softvfp
  22              		.type	chMBInit, %function
  23              	chMBInit:
  24              	.LVL0:
  25              	.LFB7:
  26              		.file 1 "../../os/kernel/src/chmboxes.c"
  27              		.loc 1 65 50 view -0
  28              		.cfi_startproc
  29              		@ args = 0, pretend = 0, frame = 0
  30              		@ frame_needed = 0, uses_anonymous_args = 0
  31              		.loc 1 67 3 view .LVU1
  32              		.loc 1 67 68 view .LVU2
  33              		.loc 1 69 3 view .LVU3
  34              		.loc 1 65 50 is_stmt 0 view .LVU4
  35 0000 0130A0E1 		mov	r3, r1
  36 0004 10402DE9 		push	{r4, lr}
  37              		.cfi_def_cfa_offset 8
  38              		.cfi_offset 4, -8
  39              		.cfi_offset 14, -4
  40              		.loc 1 65 50 view .LVU5
  41 0008 0040A0E1 		mov	r4, r0
  42              		.loc 1 70 17 view .LVU6
  43 000c 021181E0 		add	r1, r1, r2, lsl #2
  44              	.LVL1:
  45              		.loc 1 70 15 view .LVU7
  46 0010 041080E5 		str	r1, [r0, #4]
  47              		.loc 1 69 50 view .LVU8
  48 0014 0C3080E5 		str	r3, [r0, #12]
  49              		.loc 1 69 34 view .LVU9
  50 0018 083080E5 		str	r3, [r0, #8]
  51              		.loc 1 69 18 view .LVU10
  52 001c 003080E5 		str	r3, [r0]
  53              		.loc 1 70 3 is_stmt 1 view .LVU11
  54              		.loc 1 71 3 view .LVU12
  55 0020 0210A0E1 		mov	r1, r2
  56 0024 1C0080E2 		add	r0, r0, #28
  57              	.LVL2:
ARM GAS  /var/folders/l5/0x54b2c10074c8bt31ycjvl80000gp/T//cci54lkl.s 			page 2


  58              		.loc 1 71 3 is_stmt 0 view .LVU13
  59 0028 FEFFFFEB 		bl	chSemInit
  60              	.LVL3:
  61              		.loc 1 72 3 is_stmt 1 view .LVU14
  62 002c 100084E2 		add	r0, r4, #16
  63 0030 0010A0E3 		mov	r1, #0
  64              		.loc 1 73 1 is_stmt 0 view .LVU15
  65 0034 1040BDE8 		pop	{r4, lr}
  66              		.cfi_restore 14
  67              		.cfi_restore 4
  68              		.cfi_def_cfa_offset 0
  69              	.LVL4:
  70              		.loc 1 72 3 view .LVU16
  71 0038 FEFFFFEA 		b	chSemInit
  72              	.LVL5:
  73              		.loc 1 72 3 view .LVU17
  74              		.cfi_endproc
  75              	.LFE7:
  76              		.size	chMBInit, .-chMBInit
  77              		.section	.text.chMBReset,"ax",%progbits
  78              		.align	2
  79              		.global	chMBReset
  80              		.syntax unified
  81              		.arm
  82              		.fpu softvfp
  83              		.type	chMBReset, %function
  84              	chMBReset:
  85              	.LVL6:
  86              	.LFB8:
  87              		.loc 1 84 30 is_stmt 1 view -0
  88              		.cfi_startproc
  89              		@ args = 0, pretend = 0, frame = 0
  90              		@ frame_needed = 0, uses_anonymous_args = 0
  91              		.loc 1 86 3 view .LVU19
  92              		.loc 1 86 39 view .LVU20
  93              		.loc 1 88 3 view .LVU21
  94              		.loc 1 84 30 is_stmt 0 view .LVU22
  95 0000 10402DE9 		push	{r4, lr}
  96              		.cfi_def_cfa_offset 8
  97              		.cfi_offset 4, -8
  98              		.cfi_offset 14, -4
  99              		.loc 1 84 30 view .LVU23
 100 0004 0040A0E1 		mov	r4, r0
 101              		.loc 1 88 3 view .LVU24
 102              		.syntax divided
 103              	@ 88 "../../os/kernel/src/chmboxes.c" 1
 104 0008 9FF021E3 		msr     CPSR_c, #0x9F
 105              	@ 0 "" 2
 106              		.loc 1 88 3 is_stmt 1 view .LVU25
 107              		.loc 1 88 14 view .LVU26
 108              		.loc 1 89 3 view .LVU27
 109              		.loc 1 89 38 is_stmt 0 view .LVU28
 110              		.arm
 111              		.syntax unified
 112 000c 003090E5 		ldr	r3, [r0]
 113              		.loc 1 90 46 view .LVU29
 114 0010 041090E5 		ldr	r1, [r0, #4]
ARM GAS  /var/folders/l5/0x54b2c10074c8bt31ycjvl80000gp/T//cci54lkl.s 			page 3


 115              		.loc 1 89 33 view .LVU30
 116 0014 0C3080E5 		str	r3, [r0, #12]
 117              		.loc 1 90 46 view .LVU31
 118 0018 031041E0 		sub	r1, r1, r3
 119              		.loc 1 89 17 view .LVU32
 120 001c 083080E5 		str	r3, [r0, #8]
 121              		.loc 1 90 3 is_stmt 1 view .LVU33
 122 0020 4111A0E1 		asr	r1, r1, #2
 123 0024 1C0080E2 		add	r0, r0, #28
 124              	.LVL7:
 125              		.loc 1 90 3 is_stmt 0 view .LVU34
 126 0028 FEFFFFEB 		bl	chSemResetI
 127              	.LVL8:
 128              		.loc 1 91 3 is_stmt 1 view .LVU35
 129 002c 100084E2 		add	r0, r4, #16
 130 0030 0010A0E3 		mov	r1, #0
 131 0034 FEFFFFEB 		bl	chSemResetI
 132              	.LVL9:
 133              		.loc 1 92 3 view .LVU36
 134 0038 FEFFFFEB 		bl	chSchRescheduleS
 135              	.LVL10:
 136              		.loc 1 93 3 view .LVU37
 137              		.loc 1 93 3 view .LVU38
 138              		.syntax divided
 139              	@ 93 "../../os/kernel/src/chmboxes.c" 1
 140 003c 1FF021E3 		msr     CPSR_c, #0x1F
 141              	@ 0 "" 2
 142              		.loc 1 93 16 view .LVU39
 143              		.loc 1 94 1 is_stmt 0 view .LVU40
 144              		.arm
 145              		.syntax unified
 146 0040 1080BDE8 		pop	{r4, pc}
 147              		.cfi_endproc
 148              	.LFE8:
 149              		.size	chMBReset, .-chMBReset
 150              		.section	.text.chMBPost,"ax",%progbits
 151              		.align	2
 152              		.global	chMBPost
 153              		.syntax unified
 154              		.arm
 155              		.fpu softvfp
 156              		.type	chMBPost, %function
 157              	chMBPost:
 158              	.LVL11:
 159              	.LFB9:
 160              		.loc 1 115 57 is_stmt 1 view -0
 161              		.cfi_startproc
 162              		@ args = 0, pretend = 0, frame = 0
 163              		@ frame_needed = 0, uses_anonymous_args = 0
 164              		.loc 1 115 57 is_stmt 0 view .LVU42
 165 0000 70402DE9 		push	{r4, r5, r6, lr}
 166              		.cfi_def_cfa_offset 16
 167              		.cfi_offset 4, -16
 168              		.cfi_offset 5, -12
 169              		.cfi_offset 6, -8
 170              		.cfi_offset 14, -4
 171              		.loc 1 115 57 view .LVU43
ARM GAS  /var/folders/l5/0x54b2c10074c8bt31ycjvl80000gp/T//cci54lkl.s 			page 4


 172 0004 0040A0E1 		mov	r4, r0
 173 0008 0160A0E1 		mov	r6, r1
 174              		.loc 1 116 3 is_stmt 1 view .LVU44
 175              		.loc 1 118 3 view .LVU45
 176              		.syntax divided
 177              	@ 118 "../../os/kernel/src/chmboxes.c" 1
 178 000c 9FF021E3 		msr     CPSR_c, #0x9F
 179              	@ 0 "" 2
 180              		.loc 1 118 3 view .LVU46
 181              		.loc 1 118 14 view .LVU47
 182              		.loc 1 119 3 view .LVU48
 183              	.LVL12:
 184              		.arm
 185              		.syntax unified
 186              	.LBB10:
 187              	.LBI10:
 188              		.loc 1 143 7 view .LVU49
 189              	.LBB11:
 190              		.loc 1 144 3 view .LVU50
 191              		.loc 1 146 3 view .LVU51
 192              		.loc 1 146 21 view .LVU52
 193              		.loc 1 147 3 view .LVU53
 194              		.loc 1 147 39 view .LVU54
 195              		.loc 1 149 3 view .LVU55
 196              		.loc 1 149 12 is_stmt 0 view .LVU56
 197 0010 0210A0E1 		mov	r1, r2
 198              	.LVL13:
 199              		.loc 1 149 12 view .LVU57
 200 0014 1C0080E2 		add	r0, r0, #28
 201              	.LVL14:
 202              		.loc 1 149 12 view .LVU58
 203 0018 FEFFFFEB 		bl	chSemWaitTimeoutS
 204              	.LVL15:
 205              		.loc 1 150 3 is_stmt 1 view .LVU59
 206              		.loc 1 150 6 is_stmt 0 view .LVU60
 207 001c 005050E2 		subs	r5, r0, #0
 208 0020 0900001A 		bne	.L7
 209              	.LVL16:
 210              	.LBB12:
 211              	.LBI12:
 212              		.loc 1 143 7 is_stmt 1 view .LVU61
 213              	.LBB13:
 214              		.loc 1 151 5 view .LVU62
 215              		.loc 1 152 8 is_stmt 0 view .LVU63
 216 0024 0A0094E9 		ldmib	r4, {r1, r3}
 217              		.loc 1 151 19 view .LVU64
 218 0028 042083E2 		add	r2, r3, #4
 219              		.loc 1 152 8 view .LVU65
 220 002c 010052E1 		cmp	r2, r1
 221              		.loc 1 151 19 view .LVU66
 222 0030 082084E5 		str	r2, [r4, #8]
 223              		.loc 1 151 22 view .LVU67
 224 0034 006083E5 		str	r6, [r3]
 225              		.loc 1 152 5 is_stmt 1 view .LVU68
 226              		.loc 1 153 7 view .LVU69
 227              		.loc 1 154 5 view .LVU70
 228              		.loc 1 153 21 is_stmt 0 view .LVU71
ARM GAS  /var/folders/l5/0x54b2c10074c8bt31ycjvl80000gp/T//cci54lkl.s 			page 5


 229 0038 00309425 		ldrcs	r3, [r4]
 230              		.loc 1 154 5 view .LVU72
 231 003c 100084E2 		add	r0, r4, #16
 232              	.LVL17:
 233              		.loc 1 153 21 view .LVU73
 234 0040 08308425 		strcs	r3, [r4, #8]
 235              		.loc 1 154 5 view .LVU74
 236 0044 FEFFFFEB 		bl	chSemSignalI
 237              	.LVL18:
 238              		.loc 1 155 5 is_stmt 1 view .LVU75
 239 0048 FEFFFFEB 		bl	chSchRescheduleS
 240              	.LVL19:
 241              	.L7:
 242              		.loc 1 155 5 is_stmt 0 view .LVU76
 243              	.LBE13:
 244              	.LBE12:
 245              		.loc 1 157 3 is_stmt 1 view .LVU77
 246              		.loc 1 157 3 is_stmt 0 view .LVU78
 247              	.LBE11:
 248              	.LBE10:
 249              		.loc 1 120 3 is_stmt 1 view .LVU79
 250              		.loc 1 120 3 view .LVU80
 251              		.syntax divided
 252              	@ 120 "../../os/kernel/src/chmboxes.c" 1
 253 004c 1FF021E3 		msr     CPSR_c, #0x1F
 254              	@ 0 "" 2
 255              		.loc 1 120 16 view .LVU81
 256              		.loc 1 121 3 view .LVU82
 257              		.loc 1 122 1 is_stmt 0 view .LVU83
 258              		.arm
 259              		.syntax unified
 260 0050 0500A0E1 		mov	r0, r5
 261 0054 7080BDE8 		pop	{r4, r5, r6, pc}
 262              		.cfi_endproc
 263              	.LFE9:
 264              		.size	chMBPost, .-chMBPost
 265              		.section	.text.chMBPostS,"ax",%progbits
 266              		.align	2
 267              		.global	chMBPostS
 268              		.syntax unified
 269              		.arm
 270              		.fpu softvfp
 271              		.type	chMBPostS, %function
 272              	chMBPostS:
 273              	.LVL20:
 274              	.LFB10:
 275              		.loc 1 143 58 is_stmt 1 view -0
 276              		.cfi_startproc
 277              		@ args = 0, pretend = 0, frame = 0
 278              		@ frame_needed = 0, uses_anonymous_args = 0
 279              		.loc 1 143 58 is_stmt 0 view .LVU85
 280 0000 70402DE9 		push	{r4, r5, r6, lr}
 281              		.cfi_def_cfa_offset 16
 282              		.cfi_offset 4, -16
 283              		.cfi_offset 5, -12
 284              		.cfi_offset 6, -8
 285              		.cfi_offset 14, -4
ARM GAS  /var/folders/l5/0x54b2c10074c8bt31ycjvl80000gp/T//cci54lkl.s 			page 6


 286              		.loc 1 143 58 view .LVU86
 287 0004 0040A0E1 		mov	r4, r0
 288 0008 0160A0E1 		mov	r6, r1
 289              		.loc 1 144 3 is_stmt 1 view .LVU87
 290              		.loc 1 146 3 view .LVU88
 291              		.loc 1 146 21 view .LVU89
 292              		.loc 1 147 3 view .LVU90
 293              		.loc 1 147 39 view .LVU91
 294              		.loc 1 149 3 view .LVU92
 295              		.loc 1 149 12 is_stmt 0 view .LVU93
 296 000c 1C0080E2 		add	r0, r0, #28
 297              	.LVL21:
 298              		.loc 1 149 12 view .LVU94
 299 0010 0210A0E1 		mov	r1, r2
 300              	.LVL22:
 301              		.loc 1 149 12 view .LVU95
 302 0014 FEFFFFEB 		bl	chSemWaitTimeoutS
 303              	.LVL23:
 304              		.loc 1 150 3 is_stmt 1 view .LVU96
 305              		.loc 1 150 6 is_stmt 0 view .LVU97
 306 0018 005050E2 		subs	r5, r0, #0
 307 001c 0900001A 		bne	.L10
 308              	.LVL24:
 309              	.LBB16:
 310              	.LBI16:
 311              		.loc 1 143 7 is_stmt 1 view .LVU98
 312              	.LBB17:
 313              		.loc 1 151 5 view .LVU99
 314              		.loc 1 152 8 is_stmt 0 view .LVU100
 315 0020 0A0094E9 		ldmib	r4, {r1, r3}
 316              		.loc 1 151 19 view .LVU101
 317 0024 042083E2 		add	r2, r3, #4
 318              		.loc 1 152 8 view .LVU102
 319 0028 010052E1 		cmp	r2, r1
 320              		.loc 1 151 19 view .LVU103
 321 002c 082084E5 		str	r2, [r4, #8]
 322              		.loc 1 151 22 view .LVU104
 323 0030 006083E5 		str	r6, [r3]
 324              		.loc 1 152 5 is_stmt 1 view .LVU105
 325              		.loc 1 153 7 view .LVU106
 326              		.loc 1 154 5 view .LVU107
 327              		.loc 1 153 21 is_stmt 0 view .LVU108
 328 0034 00309425 		ldrcs	r3, [r4]
 329              		.loc 1 154 5 view .LVU109
 330 0038 100084E2 		add	r0, r4, #16
 331              	.LVL25:
 332              		.loc 1 153 21 view .LVU110
 333 003c 08308425 		strcs	r3, [r4, #8]
 334              		.loc 1 154 5 view .LVU111
 335 0040 FEFFFFEB 		bl	chSemSignalI
 336              	.LVL26:
 337              		.loc 1 155 5 is_stmt 1 view .LVU112
 338 0044 FEFFFFEB 		bl	chSchRescheduleS
 339              	.LVL27:
 340              	.LBE17:
 341              	.LBE16:
 342              		.loc 1 157 3 view .LVU113
ARM GAS  /var/folders/l5/0x54b2c10074c8bt31ycjvl80000gp/T//cci54lkl.s 			page 7


 343              	.L10:
 344              		.loc 1 158 1 is_stmt 0 view .LVU114
 345 0048 0500A0E1 		mov	r0, r5
 346 004c 7080BDE8 		pop	{r4, r5, r6, pc}
 347              		.cfi_endproc
 348              	.LFE10:
 349              		.size	chMBPostS, .-chMBPostS
 350              		.section	.text.chMBPostI,"ax",%progbits
 351              		.align	2
 352              		.global	chMBPostI
 353              		.syntax unified
 354              		.arm
 355              		.fpu softvfp
 356              		.type	chMBPostI, %function
 357              	chMBPostI:
 358              	.LVL28:
 359              	.LFB11:
 360              		.loc 1 174 42 is_stmt 1 view -0
 361              		.cfi_startproc
 362              		@ args = 0, pretend = 0, frame = 0
 363              		@ frame_needed = 0, uses_anonymous_args = 0
 364              		.loc 1 176 3 view .LVU116
 365              		.loc 1 176 21 view .LVU117
 366              		.loc 1 177 3 view .LVU118
 367              		.loc 1 177 39 view .LVU119
 368              		.loc 1 179 3 view .LVU120
 369              		.loc 1 179 7 is_stmt 0 view .LVU121
 370 0000 243090E5 		ldr	r3, [r0, #36]
 371              		.loc 1 179 6 view .LVU122
 372 0004 000053E3 		cmp	r3, #0
 373 0008 0E0000DA 		ble	.L17
 374              		.loc 1 181 3 is_stmt 1 view .LVU123
 375              		.loc 1 182 7 is_stmt 0 view .LVU124
 376 000c 082090E5 		ldr	r2, [r0, #8]
 377              		.loc 1 174 42 view .LVU125
 378 0010 10402DE9 		push	{r4, lr}
 379              		.cfi_def_cfa_offset 8
 380              		.cfi_offset 4, -8
 381              		.cfi_offset 14, -4
 382              		.loc 1 183 6 view .LVU126
 383 0014 04E090E5 		ldr	lr, [r0, #4]
 384              		.loc 1 182 17 view .LVU127
 385 0018 04C082E2 		add	ip, r2, #4
 386              		.loc 1 181 3 view .LVU128
 387 001c 013043E2 		sub	r3, r3, #1
 388              		.loc 1 183 6 view .LVU129
 389 0020 0E005CE1 		cmp	ip, lr
 390              		.loc 1 181 3 view .LVU130
 391 0024 243080E5 		str	r3, [r0, #36]
 392              		.loc 1 182 3 is_stmt 1 view .LVU131
 393              		.loc 1 184 19 is_stmt 0 view .LVU132
 394 0028 00309025 		ldrcs	r3, [r0]
 395              		.loc 1 182 17 view .LVU133
 396 002c 08C080E5 		str	ip, [r0, #8]
 397              		.loc 1 182 20 view .LVU134
 398 0030 001082E5 		str	r1, [r2]
 399              		.loc 1 183 3 is_stmt 1 view .LVU135
ARM GAS  /var/folders/l5/0x54b2c10074c8bt31ycjvl80000gp/T//cci54lkl.s 			page 8


 400              		.loc 1 184 5 view .LVU136
 401              		.loc 1 185 3 view .LVU137
 402 0034 100080E2 		add	r0, r0, #16
 403              	.LVL29:
 404              		.loc 1 184 19 is_stmt 0 view .LVU138
 405 0038 08300025 		strcs	r3, [r0, #-8]
 406              		.loc 1 185 3 view .LVU139
 407 003c FEFFFFEB 		bl	chSemSignalI
 408              	.LVL30:
 409              		.loc 1 186 3 is_stmt 1 view .LVU140
 410              		.loc 1 186 10 is_stmt 0 view .LVU141
 411 0040 0000A0E3 		mov	r0, #0
 412              		.loc 1 187 1 view .LVU142
 413 0044 1080BDE8 		pop	{r4, pc}
 414              	.LVL31:
 415              	.L17:
 416              		.cfi_def_cfa_offset 0
 417              		.cfi_restore 4
 418              		.cfi_restore 14
 419              		.loc 1 180 12 view .LVU143
 420 0048 0000E0E3 		mvn	r0, #0
 421              	.LVL32:
 422              		.loc 1 187 1 view .LVU144
 423 004c 1EFF2FE1 		bx	lr
 424              		.cfi_endproc
 425              	.LFE11:
 426              		.size	chMBPostI, .-chMBPostI
 427              		.section	.text.chMBPostAheadS,"ax",%progbits
 428              		.align	2
 429              		.global	chMBPostAheadS
 430              		.syntax unified
 431              		.arm
 432              		.fpu softvfp
 433              		.type	chMBPostAheadS, %function
 434              	chMBPostAheadS:
 435              	.LVL33:
 436              	.LFB13:
 437              		.loc 1 236 63 is_stmt 1 view -0
 438              		.cfi_startproc
 439              		@ args = 0, pretend = 0, frame = 0
 440              		@ frame_needed = 0, uses_anonymous_args = 0
 441              		.loc 1 236 63 is_stmt 0 view .LVU146
 442 0000 70402DE9 		push	{r4, r5, r6, lr}
 443              		.cfi_def_cfa_offset 16
 444              		.cfi_offset 4, -16
 445              		.cfi_offset 5, -12
 446              		.cfi_offset 6, -8
 447              		.cfi_offset 14, -4
 448              		.loc 1 236 63 view .LVU147
 449 0004 0040A0E1 		mov	r4, r0
 450 0008 0160A0E1 		mov	r6, r1
 451              		.loc 1 237 3 is_stmt 1 view .LVU148
 452              		.loc 1 239 3 view .LVU149
 453              		.loc 1 239 21 view .LVU150
 454              		.loc 1 240 3 view .LVU151
 455              		.loc 1 240 44 view .LVU152
 456              		.loc 1 242 3 view .LVU153
ARM GAS  /var/folders/l5/0x54b2c10074c8bt31ycjvl80000gp/T//cci54lkl.s 			page 9


 457              		.loc 1 242 12 is_stmt 0 view .LVU154
 458 000c 1C0080E2 		add	r0, r0, #28
 459              	.LVL34:
 460              		.loc 1 242 12 view .LVU155
 461 0010 0210A0E1 		mov	r1, r2
 462              	.LVL35:
 463              		.loc 1 242 12 view .LVU156
 464 0014 FEFFFFEB 		bl	chSemWaitTimeoutS
 465              	.LVL36:
 466              		.loc 1 243 3 is_stmt 1 view .LVU157
 467              		.loc 1 243 6 is_stmt 0 view .LVU158
 468 0018 005050E2 		subs	r5, r0, #0
 469 001c 0B00001A 		bne	.L22
 470              		.loc 1 244 5 is_stmt 1 view .LVU159
 471              		.loc 1 244 9 is_stmt 0 view .LVU160
 472 0020 0C3094E5 		ldr	r3, [r4, #12]
 473              		.loc 1 244 8 view .LVU161
 474 0024 002094E5 		ldr	r2, [r4]
 475              		.loc 1 244 9 view .LVU162
 476 0028 043043E2 		sub	r3, r3, #4
 477              		.loc 1 244 8 view .LVU163
 478 002c 020053E1 		cmp	r3, r2
 479 0030 0C3084E5 		str	r3, [r4, #12]
 480              		.loc 1 245 7 is_stmt 1 view .LVU164
 481              	.LVL37:
 482              	.LBB20:
 483              	.LBI20:
 484              		.loc 1 236 7 view .LVU165
 485              	.LBB21:
 486              		.loc 1 246 5 view .LVU166
 487              	.LBE21:
 488              	.LBE20:
 489              		.loc 1 245 35 is_stmt 0 view .LVU167
 490 0034 04309435 		ldrcc	r3, [r4, #4]
 491              	.LBB24:
 492              	.LBB22:
 493              		.loc 1 247 5 view .LVU168
 494 0038 100084E2 		add	r0, r4, #16
 495              	.LVL38:
 496              		.loc 1 247 5 view .LVU169
 497              	.LBE22:
 498              	.LBE24:
 499              		.loc 1 245 35 view .LVU170
 500 003c 04304332 		subcc	r3, r3, #4
 501              		.loc 1 245 21 view .LVU171
 502 0040 0C308435 		strcc	r3, [r4, #12]
 503              	.LBB25:
 504              	.LBB23:
 505              		.loc 1 246 20 view .LVU172
 506 0044 006083E5 		str	r6, [r3]
 507              		.loc 1 247 5 is_stmt 1 view .LVU173
 508 0048 FEFFFFEB 		bl	chSemSignalI
 509              	.LVL39:
 510              		.loc 1 248 5 view .LVU174
 511 004c FEFFFFEB 		bl	chSchRescheduleS
 512              	.LVL40:
 513              	.LBE23:
ARM GAS  /var/folders/l5/0x54b2c10074c8bt31ycjvl80000gp/T//cci54lkl.s 			page 10


 514              	.LBE25:
 515              		.loc 1 250 3 view .LVU175
 516              	.L22:
 517              		.loc 1 251 1 is_stmt 0 view .LVU176
 518 0050 0500A0E1 		mov	r0, r5
 519 0054 7080BDE8 		pop	{r4, r5, r6, pc}
 520              		.cfi_endproc
 521              	.LFE13:
 522              		.size	chMBPostAheadS, .-chMBPostAheadS
 523              		.section	.text.chMBPostAhead,"ax",%progbits
 524              		.align	2
 525              		.global	chMBPostAhead
 526              		.syntax unified
 527              		.arm
 528              		.fpu softvfp
 529              		.type	chMBPostAhead, %function
 530              	chMBPostAhead:
 531              	.LVL41:
 532              	.LFB12:
 533              		.loc 1 208 62 is_stmt 1 view -0
 534              		.cfi_startproc
 535              		@ args = 0, pretend = 0, frame = 0
 536              		@ frame_needed = 0, uses_anonymous_args = 0
 537              		.loc 1 209 3 view .LVU178
 538              		.loc 1 211 3 view .LVU179
 539              		.loc 1 208 62 is_stmt 0 view .LVU180
 540 0000 10402DE9 		push	{r4, lr}
 541              		.cfi_def_cfa_offset 8
 542              		.cfi_offset 4, -8
 543              		.cfi_offset 14, -4
 544              		.loc 1 211 3 view .LVU181
 545              		.syntax divided
 546              	@ 211 "../../os/kernel/src/chmboxes.c" 1
 547 0004 9FF021E3 		msr     CPSR_c, #0x9F
 548              	@ 0 "" 2
 549              		.loc 1 211 3 is_stmt 1 view .LVU182
 550              		.loc 1 211 14 view .LVU183
 551              		.loc 1 212 3 view .LVU184
 552              		.loc 1 212 12 is_stmt 0 view .LVU185
 553              		.arm
 554              		.syntax unified
 555 0008 FEFFFFEB 		bl	chMBPostAheadS
 556              	.LVL42:
 557              		.loc 1 213 3 is_stmt 1 view .LVU186
 558              		.loc 1 213 3 view .LVU187
 559              		.syntax divided
 560              	@ 213 "../../os/kernel/src/chmboxes.c" 1
 561 000c 1FF021E3 		msr     CPSR_c, #0x1F
 562              	@ 0 "" 2
 563              		.loc 1 213 16 view .LVU188
 564              		.loc 1 214 3 view .LVU189
 565              		.loc 1 215 1 is_stmt 0 view .LVU190
 566              		.arm
 567              		.syntax unified
 568 0010 1080BDE8 		pop	{r4, pc}
 569              		.cfi_endproc
 570              	.LFE12:
ARM GAS  /var/folders/l5/0x54b2c10074c8bt31ycjvl80000gp/T//cci54lkl.s 			page 11


 571              		.size	chMBPostAhead, .-chMBPostAhead
 572              		.section	.text.chMBPostAheadI,"ax",%progbits
 573              		.align	2
 574              		.global	chMBPostAheadI
 575              		.syntax unified
 576              		.arm
 577              		.fpu softvfp
 578              		.type	chMBPostAheadI, %function
 579              	chMBPostAheadI:
 580              	.LVL43:
 581              	.LFB14:
 582              		.loc 1 267 47 is_stmt 1 view -0
 583              		.cfi_startproc
 584              		@ args = 0, pretend = 0, frame = 0
 585              		@ frame_needed = 0, uses_anonymous_args = 0
 586              		.loc 1 269 3 view .LVU192
 587              		.loc 1 269 21 view .LVU193
 588              		.loc 1 270 3 view .LVU194
 589              		.loc 1 270 44 view .LVU195
 590              		.loc 1 272 3 view .LVU196
 591              		.loc 1 272 7 is_stmt 0 view .LVU197
 592 0000 242090E5 		ldr	r2, [r0, #36]
 593              		.loc 1 272 6 view .LVU198
 594 0004 000052E3 		cmp	r2, #0
 595 0008 0F0000DA 		ble	.L31
 596              		.loc 1 274 3 is_stmt 1 view .LVU199
 597              		.loc 1 275 7 is_stmt 0 view .LVU200
 598 000c 0C3090E5 		ldr	r3, [r0, #12]
 599              		.loc 1 275 6 view .LVU201
 600 0010 00C090E5 		ldr	ip, [r0]
 601              		.loc 1 275 7 view .LVU202
 602 0014 043043E2 		sub	r3, r3, #4
 603              		.loc 1 275 6 view .LVU203
 604 0018 0C0053E1 		cmp	r3, ip
 605              		.loc 1 267 47 view .LVU204
 606 001c 10402DE9 		push	{r4, lr}
 607              		.cfi_def_cfa_offset 8
 608              		.cfi_offset 4, -8
 609              		.cfi_offset 14, -4
 610              		.loc 1 275 6 view .LVU205
 611 0020 0C3080E5 		str	r3, [r0, #12]
 612              		.loc 1 276 33 view .LVU206
 613 0024 04309035 		ldrcc	r3, [r0, #4]
 614              		.loc 1 274 3 view .LVU207
 615 0028 012042E2 		sub	r2, r2, #1
 616              		.loc 1 276 33 view .LVU208
 617 002c 04304332 		subcc	r3, r3, #4
 618              		.loc 1 274 3 view .LVU209
 619 0030 242080E5 		str	r2, [r0, #36]
 620              		.loc 1 275 3 is_stmt 1 view .LVU210
 621              		.loc 1 276 5 view .LVU211
 622              		.loc 1 277 3 view .LVU212
 623              		.loc 1 276 19 is_stmt 0 view .LVU213
 624 0034 0C308035 		strcc	r3, [r0, #12]
 625              		.loc 1 277 18 view .LVU214
 626 0038 001083E5 		str	r1, [r3]
 627              		.loc 1 278 3 is_stmt 1 view .LVU215
ARM GAS  /var/folders/l5/0x54b2c10074c8bt31ycjvl80000gp/T//cci54lkl.s 			page 12


 628 003c 100080E2 		add	r0, r0, #16
 629              	.LVL44:
 630              		.loc 1 278 3 is_stmt 0 view .LVU216
 631 0040 FEFFFFEB 		bl	chSemSignalI
 632              	.LVL45:
 633              		.loc 1 279 3 is_stmt 1 view .LVU217
 634              		.loc 1 279 10 is_stmt 0 view .LVU218
 635 0044 0000A0E3 		mov	r0, #0
 636              		.loc 1 280 1 view .LVU219
 637 0048 1080BDE8 		pop	{r4, pc}
 638              	.LVL46:
 639              	.L31:
 640              		.cfi_def_cfa_offset 0
 641              		.cfi_restore 4
 642              		.cfi_restore 14
 643              		.loc 1 273 12 view .LVU220
 644 004c 0000E0E3 		mvn	r0, #0
 645              	.LVL47:
 646              		.loc 1 280 1 view .LVU221
 647 0050 1EFF2FE1 		bx	lr
 648              		.cfi_endproc
 649              	.LFE14:
 650              		.size	chMBPostAheadI, .-chMBPostAheadI
 651              		.section	.text.chMBFetch,"ax",%progbits
 652              		.align	2
 653              		.global	chMBFetch
 654              		.syntax unified
 655              		.arm
 656              		.fpu softvfp
 657              		.type	chMBFetch, %function
 658              	chMBFetch:
 659              	.LVL48:
 660              	.LFB15:
 661              		.loc 1 301 60 is_stmt 1 view -0
 662              		.cfi_startproc
 663              		@ args = 0, pretend = 0, frame = 0
 664              		@ frame_needed = 0, uses_anonymous_args = 0
 665              		.loc 1 301 60 is_stmt 0 view .LVU223
 666 0000 70402DE9 		push	{r4, r5, r6, lr}
 667              		.cfi_def_cfa_offset 16
 668              		.cfi_offset 4, -16
 669              		.cfi_offset 5, -12
 670              		.cfi_offset 6, -8
 671              		.cfi_offset 14, -4
 672              		.loc 1 301 60 view .LVU224
 673 0004 0040A0E1 		mov	r4, r0
 674 0008 0160A0E1 		mov	r6, r1
 675              		.loc 1 302 3 is_stmt 1 view .LVU225
 676              		.loc 1 304 3 view .LVU226
 677              		.syntax divided
 678              	@ 304 "../../os/kernel/src/chmboxes.c" 1
 679 000c 9FF021E3 		msr     CPSR_c, #0x9F
 680              	@ 0 "" 2
 681              		.loc 1 304 3 view .LVU227
 682              		.loc 1 304 14 view .LVU228
 683              		.loc 1 305 3 view .LVU229
 684              	.LVL49:
ARM GAS  /var/folders/l5/0x54b2c10074c8bt31ycjvl80000gp/T//cci54lkl.s 			page 13


 685              		.arm
 686              		.syntax unified
 687              	.LBB30:
 688              	.LBI30:
 689              		.loc 1 329 7 view .LVU230
 690              	.LBB31:
 691              		.loc 1 330 3 view .LVU231
 692              		.loc 1 332 3 view .LVU232
 693              		.loc 1 332 21 view .LVU233
 694              		.loc 1 333 3 view .LVU234
 695              		.loc 1 333 60 view .LVU235
 696              		.loc 1 335 3 view .LVU236
 697              		.loc 1 335 12 is_stmt 0 view .LVU237
 698 0010 0210A0E1 		mov	r1, r2
 699              	.LVL50:
 700              		.loc 1 335 12 view .LVU238
 701 0014 100080E2 		add	r0, r0, #16
 702              	.LVL51:
 703              		.loc 1 335 12 view .LVU239
 704 0018 FEFFFFEB 		bl	chSemWaitTimeoutS
 705              	.LVL52:
 706              		.loc 1 336 3 is_stmt 1 view .LVU240
 707              		.loc 1 336 6 is_stmt 0 view .LVU241
 708 001c 005050E2 		subs	r5, r0, #0
 709 0020 0B00001A 		bne	.L37
 710              	.LVL53:
 711              	.LBB32:
 712              	.LBI32:
 713              		.loc 1 329 7 is_stmt 1 view .LVU242
 714              	.LBB33:
 715              		.loc 1 337 5 view .LVU243
 716              		.loc 1 337 17 is_stmt 0 view .LVU244
 717 0024 0C2094E5 		ldr	r2, [r4, #12]
 718              		.loc 1 338 8 view .LVU245
 719 0028 041094E5 		ldr	r1, [r4, #4]
 720              		.loc 1 337 27 view .LVU246
 721 002c 043082E2 		add	r3, r2, #4
 722              		.loc 1 338 8 view .LVU247
 723 0030 010053E1 		cmp	r3, r1
 724              		.loc 1 337 13 view .LVU248
 725 0034 002092E5 		ldr	r2, [r2]
 726              		.loc 1 337 27 view .LVU249
 727 0038 0C3084E5 		str	r3, [r4, #12]
 728              		.loc 1 339 21 view .LVU250
 729 003c 00309425 		ldrcs	r3, [r4]
 730              		.loc 1 337 11 view .LVU251
 731 0040 002086E5 		str	r2, [r6]
 732              		.loc 1 338 5 is_stmt 1 view .LVU252
 733              		.loc 1 339 7 view .LVU253
 734              		.loc 1 340 5 view .LVU254
 735 0044 1C0084E2 		add	r0, r4, #28
 736              	.LVL54:
 737              		.loc 1 339 21 is_stmt 0 view .LVU255
 738 0048 0C308425 		strcs	r3, [r4, #12]
 739              		.loc 1 340 5 view .LVU256
 740 004c FEFFFFEB 		bl	chSemSignalI
 741              	.LVL55:
ARM GAS  /var/folders/l5/0x54b2c10074c8bt31ycjvl80000gp/T//cci54lkl.s 			page 14


 742              		.loc 1 341 5 is_stmt 1 view .LVU257
 743 0050 FEFFFFEB 		bl	chSchRescheduleS
 744              	.LVL56:
 745              	.L37:
 746              		.loc 1 341 5 is_stmt 0 view .LVU258
 747              	.LBE33:
 748              	.LBE32:
 749              		.loc 1 343 3 is_stmt 1 view .LVU259
 750              		.loc 1 343 3 is_stmt 0 view .LVU260
 751              	.LBE31:
 752              	.LBE30:
 753              		.loc 1 306 3 is_stmt 1 view .LVU261
 754              		.loc 1 306 3 view .LVU262
 755              		.syntax divided
 756              	@ 306 "../../os/kernel/src/chmboxes.c" 1
 757 0054 1FF021E3 		msr     CPSR_c, #0x1F
 758              	@ 0 "" 2
 759              		.loc 1 306 16 view .LVU263
 760              		.loc 1 307 3 view .LVU264
 761              		.loc 1 308 1 is_stmt 0 view .LVU265
 762              		.arm
 763              		.syntax unified
 764 0058 0500A0E1 		mov	r0, r5
 765 005c 7080BDE8 		pop	{r4, r5, r6, pc}
 766              		.cfi_endproc
 767              	.LFE15:
 768              		.size	chMBFetch, .-chMBFetch
 769              		.section	.text.chMBFetchS,"ax",%progbits
 770              		.align	2
 771              		.global	chMBFetchS
 772              		.syntax unified
 773              		.arm
 774              		.fpu softvfp
 775              		.type	chMBFetchS, %function
 776              	chMBFetchS:
 777              	.LVL57:
 778              	.LFB16:
 779              		.loc 1 329 61 is_stmt 1 view -0
 780              		.cfi_startproc
 781              		@ args = 0, pretend = 0, frame = 0
 782              		@ frame_needed = 0, uses_anonymous_args = 0
 783              		.loc 1 329 61 is_stmt 0 view .LVU267
 784 0000 70402DE9 		push	{r4, r5, r6, lr}
 785              		.cfi_def_cfa_offset 16
 786              		.cfi_offset 4, -16
 787              		.cfi_offset 5, -12
 788              		.cfi_offset 6, -8
 789              		.cfi_offset 14, -4
 790              		.loc 1 329 61 view .LVU268
 791 0004 0040A0E1 		mov	r4, r0
 792 0008 0160A0E1 		mov	r6, r1
 793              		.loc 1 330 3 is_stmt 1 view .LVU269
 794              		.loc 1 332 3 view .LVU270
 795              		.loc 1 332 21 view .LVU271
 796              		.loc 1 333 3 view .LVU272
 797              		.loc 1 333 60 view .LVU273
 798              		.loc 1 335 3 view .LVU274
ARM GAS  /var/folders/l5/0x54b2c10074c8bt31ycjvl80000gp/T//cci54lkl.s 			page 15


 799              		.loc 1 335 12 is_stmt 0 view .LVU275
 800 000c 100080E2 		add	r0, r0, #16
 801              	.LVL58:
 802              		.loc 1 335 12 view .LVU276
 803 0010 0210A0E1 		mov	r1, r2
 804              	.LVL59:
 805              		.loc 1 335 12 view .LVU277
 806 0014 FEFFFFEB 		bl	chSemWaitTimeoutS
 807              	.LVL60:
 808              		.loc 1 336 3 is_stmt 1 view .LVU278
 809              		.loc 1 336 6 is_stmt 0 view .LVU279
 810 0018 005050E2 		subs	r5, r0, #0
 811 001c 0B00001A 		bne	.L40
 812              	.LVL61:
 813              	.LBB36:
 814              	.LBI36:
 815              		.loc 1 329 7 is_stmt 1 view .LVU280
 816              	.LBB37:
 817              		.loc 1 337 5 view .LVU281
 818              		.loc 1 337 17 is_stmt 0 view .LVU282
 819 0020 0C2094E5 		ldr	r2, [r4, #12]
 820              		.loc 1 338 8 view .LVU283
 821 0024 041094E5 		ldr	r1, [r4, #4]
 822              		.loc 1 337 27 view .LVU284
 823 0028 043082E2 		add	r3, r2, #4
 824              		.loc 1 338 8 view .LVU285
 825 002c 010053E1 		cmp	r3, r1
 826              		.loc 1 337 13 view .LVU286
 827 0030 002092E5 		ldr	r2, [r2]
 828              		.loc 1 337 27 view .LVU287
 829 0034 0C3084E5 		str	r3, [r4, #12]
 830              		.loc 1 339 21 view .LVU288
 831 0038 00309425 		ldrcs	r3, [r4]
 832              		.loc 1 337 11 view .LVU289
 833 003c 002086E5 		str	r2, [r6]
 834              		.loc 1 338 5 is_stmt 1 view .LVU290
 835              		.loc 1 339 7 view .LVU291
 836              		.loc 1 340 5 view .LVU292
 837 0040 1C0084E2 		add	r0, r4, #28
 838              	.LVL62:
 839              		.loc 1 339 21 is_stmt 0 view .LVU293
 840 0044 0C308425 		strcs	r3, [r4, #12]
 841              		.loc 1 340 5 view .LVU294
 842 0048 FEFFFFEB 		bl	chSemSignalI
 843              	.LVL63:
 844              		.loc 1 341 5 is_stmt 1 view .LVU295
 845 004c FEFFFFEB 		bl	chSchRescheduleS
 846              	.LVL64:
 847              	.LBE37:
 848              	.LBE36:
 849              		.loc 1 343 3 view .LVU296
 850              	.L40:
 851              		.loc 1 344 1 is_stmt 0 view .LVU297
 852 0050 0500A0E1 		mov	r0, r5
 853 0054 7080BDE8 		pop	{r4, r5, r6, pc}
 854              		.cfi_endproc
 855              	.LFE16:
ARM GAS  /var/folders/l5/0x54b2c10074c8bt31ycjvl80000gp/T//cci54lkl.s 			page 16


 856              		.size	chMBFetchS, .-chMBFetchS
 857              		.section	.text.chMBFetchI,"ax",%progbits
 858              		.align	2
 859              		.global	chMBFetchI
 860              		.syntax unified
 861              		.arm
 862              		.fpu softvfp
 863              		.type	chMBFetchI, %function
 864              	chMBFetchI:
 865              	.LVL65:
 866              	.LFB17:
 867              		.loc 1 360 45 is_stmt 1 view -0
 868              		.cfi_startproc
 869              		@ args = 0, pretend = 0, frame = 0
 870              		@ frame_needed = 0, uses_anonymous_args = 0
 871              		.loc 1 362 3 view .LVU299
 872              		.loc 1 362 21 view .LVU300
 873              		.loc 1 363 3 view .LVU301
 874              		.loc 1 363 60 view .LVU302
 875              		.loc 1 365 3 view .LVU303
 876              		.loc 1 365 7 is_stmt 0 view .LVU304
 877 0000 183090E5 		ldr	r3, [r0, #24]
 878              		.loc 1 365 6 view .LVU305
 879 0004 000053E3 		cmp	r3, #0
 880 0008 0F0000DA 		ble	.L47
 881              		.loc 1 367 3 is_stmt 1 view .LVU306
 882 000c 012043E2 		sub	r2, r3, #1
 883              		.loc 1 368 15 is_stmt 0 view .LVU307
 884 0010 0C3090E5 		ldr	r3, [r0, #12]
 885              		.loc 1 369 6 view .LVU308
 886 0014 04C090E5 		ldr	ip, [r0, #4]
 887              		.loc 1 360 45 view .LVU309
 888 0018 10402DE9 		push	{r4, lr}
 889              		.cfi_def_cfa_offset 8
 890              		.cfi_offset 4, -8
 891              		.cfi_offset 14, -4
 892              		.loc 1 367 3 view .LVU310
 893 001c 182080E5 		str	r2, [r0, #24]
 894              		.loc 1 368 3 is_stmt 1 view .LVU311
 895              		.loc 1 368 11 is_stmt 0 view .LVU312
 896 0020 002093E5 		ldr	r2, [r3]
 897              		.loc 1 368 25 view .LVU313
 898 0024 043083E2 		add	r3, r3, #4
 899              		.loc 1 369 6 view .LVU314
 900 0028 0C0053E1 		cmp	r3, ip
 901              		.loc 1 368 25 view .LVU315
 902 002c 0C3080E5 		str	r3, [r0, #12]
 903              		.loc 1 370 19 view .LVU316
 904 0030 00309025 		ldrcs	r3, [r0]
 905              		.loc 1 368 9 view .LVU317
 906 0034 002081E5 		str	r2, [r1]
 907              		.loc 1 369 3 is_stmt 1 view .LVU318
 908              		.loc 1 370 5 view .LVU319
 909              		.loc 1 371 3 view .LVU320
 910 0038 1C0080E2 		add	r0, r0, #28
 911              	.LVL66:
 912              		.loc 1 370 19 is_stmt 0 view .LVU321
ARM GAS  /var/folders/l5/0x54b2c10074c8bt31ycjvl80000gp/T//cci54lkl.s 			page 17


 913 003c 10300025 		strcs	r3, [r0, #-16]
 914              		.loc 1 371 3 view .LVU322
 915 0040 FEFFFFEB 		bl	chSemSignalI
 916              	.LVL67:
 917              		.loc 1 372 3 is_stmt 1 view .LVU323
 918              		.loc 1 372 10 is_stmt 0 view .LVU324
 919 0044 0000A0E3 		mov	r0, #0
 920              		.loc 1 373 1 view .LVU325
 921 0048 1080BDE8 		pop	{r4, pc}
 922              	.LVL68:
 923              	.L47:
 924              		.cfi_def_cfa_offset 0
 925              		.cfi_restore 4
 926              		.cfi_restore 14
 927              		.loc 1 366 12 view .LVU326
 928 004c 0000E0E3 		mvn	r0, #0
 929              	.LVL69:
 930              		.loc 1 373 1 view .LVU327
 931 0050 1EFF2FE1 		bx	lr
 932              		.cfi_endproc
 933              	.LFE17:
 934              		.size	chMBFetchI, .-chMBFetchI
 935              		.text
 936              	.Letext0:
 937              		.file 2 "/usr/local/Cellar/arm-gcc-bin/8-2019-q3-update/arm-none-eabi/include/machine/_default_typ
 938              		.file 3 "/usr/local/Cellar/arm-gcc-bin/8-2019-q3-update/arm-none-eabi/include/sys/_stdint.h"
 939              		.file 4 "../../os/ports/GCC/ARM/chtypes.h"
 940              		.file 5 "../../os/kernel/include/chlists.h"
 941              		.file 6 "../../os/kernel/include/chthreads.h"
 942              		.file 7 "../../os/ports/GCC/ARM/chcore.h"
 943              		.file 8 "../../os/kernel/include/chvt.h"
 944              		.file 9 "../../os/kernel/include/chschd.h"
 945              		.file 10 "../../os/kernel/include/chsem.h"
 946              		.file 11 "../../os/kernel/include/chmtx.h"
 947              		.file 12 "../../os/kernel/include/chmboxes.h"
 948              		.file 13 "../../os/kernel/include/chregistry.h"
 949              		.file 14 "../../os/kernel/include/ch.h"
 950              		.section	.debug_info,"",%progbits
 951              	.Ldebug_info0:
 952 0000 800F0000 		.4byte	0xf80
 953 0004 0400     		.2byte	0x4
 954 0006 00000000 		.4byte	.Ldebug_abbrev0
 955 000a 04       		.byte	0x4
 956 000b 01       		.uleb128 0x1
 957 000c 3C020000 		.4byte	.LASF127
 958 0010 0C       		.byte	0xc
 959 0011 5D010000 		.4byte	.LASF128
 960 0015 87030000 		.4byte	.LASF129
 961 0019 20000000 		.4byte	.Ldebug_ranges0+0x20
 962 001d 00000000 		.4byte	0
 963 0021 00000000 		.4byte	.Ldebug_line0
 964 0025 02       		.uleb128 0x2
 965 0026 04       		.byte	0x4
 966 0027 05       		.byte	0x5
 967 0028 696E7400 		.ascii	"int\000"
 968 002c 03       		.uleb128 0x3
 969 002d 04       		.byte	0x4
ARM GAS  /var/folders/l5/0x54b2c10074c8bt31ycjvl80000gp/T//cci54lkl.s 			page 18


 970 002e 07       		.byte	0x7
 971 002f AF010000 		.4byte	.LASF0
 972 0033 03       		.uleb128 0x3
 973 0034 01       		.byte	0x1
 974 0035 06       		.byte	0x6
 975 0036 DD000000 		.4byte	.LASF1
 976 003a 04       		.uleb128 0x4
 977 003b 30000000 		.4byte	.LASF4
 978 003f 02       		.byte	0x2
 979 0040 2B       		.byte	0x2b
 980 0041 18       		.byte	0x18
 981 0042 46000000 		.4byte	0x46
 982 0046 03       		.uleb128 0x3
 983 0047 01       		.byte	0x1
 984 0048 08       		.byte	0x8
 985 0049 34040000 		.4byte	.LASF2
 986 004d 03       		.uleb128 0x3
 987 004e 02       		.byte	0x2
 988 004f 05       		.byte	0x5
 989 0050 53040000 		.4byte	.LASF3
 990 0054 04       		.uleb128 0x4
 991 0055 18050000 		.4byte	.LASF5
 992 0059 02       		.byte	0x2
 993 005a 39       		.byte	0x39
 994 005b 19       		.byte	0x19
 995 005c 60000000 		.4byte	0x60
 996 0060 03       		.uleb128 0x3
 997 0061 02       		.byte	0x2
 998 0062 07       		.byte	0x7
 999 0063 10020000 		.4byte	.LASF6
 1000 0067 04       		.uleb128 0x4
 1001 0068 3F050000 		.4byte	.LASF7
 1002 006c 02       		.byte	0x2
 1003 006d 4D       		.byte	0x4d
 1004 006e 18       		.byte	0x18
 1005 006f 73000000 		.4byte	0x73
 1006 0073 03       		.uleb128 0x3
 1007 0074 04       		.byte	0x4
 1008 0075 05       		.byte	0x5
 1009 0076 18010000 		.4byte	.LASF8
 1010 007a 04       		.uleb128 0x4
 1011 007b 8D010000 		.4byte	.LASF9
 1012 007f 02       		.byte	0x2
 1013 0080 4F       		.byte	0x4f
 1014 0081 19       		.byte	0x19
 1015 0082 86000000 		.4byte	0x86
 1016 0086 03       		.uleb128 0x3
 1017 0087 04       		.byte	0x4
 1018 0088 07       		.byte	0x7
 1019 0089 C4010000 		.4byte	.LASF10
 1020 008d 03       		.uleb128 0x3
 1021 008e 08       		.byte	0x8
 1022 008f 05       		.byte	0x5
 1023 0090 CF000000 		.4byte	.LASF11
 1024 0094 03       		.uleb128 0x3
 1025 0095 08       		.byte	0x8
 1026 0096 07       		.byte	0x7
ARM GAS  /var/folders/l5/0x54b2c10074c8bt31ycjvl80000gp/T//cci54lkl.s 			page 19


 1027 0097 6C000000 		.4byte	.LASF12
 1028 009b 04       		.uleb128 0x4
 1029 009c C4050000 		.4byte	.LASF13
 1030 00a0 03       		.byte	0x3
 1031 00a1 18       		.byte	0x18
 1032 00a2 13       		.byte	0x13
 1033 00a3 3A000000 		.4byte	0x3a
 1034 00a7 04       		.uleb128 0x4
 1035 00a8 2A010000 		.4byte	.LASF14
 1036 00ac 03       		.byte	0x3
 1037 00ad 24       		.byte	0x24
 1038 00ae 14       		.byte	0x14
 1039 00af 54000000 		.4byte	0x54
 1040 00b3 04       		.uleb128 0x4
 1041 00b4 2C040000 		.4byte	.LASF15
 1042 00b8 03       		.byte	0x3
 1043 00b9 2C       		.byte	0x2c
 1044 00ba 13       		.byte	0x13
 1045 00bb 67000000 		.4byte	0x67
 1046 00bf 04       		.uleb128 0x4
 1047 00c0 D7040000 		.4byte	.LASF16
 1048 00c4 03       		.byte	0x3
 1049 00c5 30       		.byte	0x30
 1050 00c6 14       		.byte	0x14
 1051 00c7 7A000000 		.4byte	0x7a
 1052 00cb 04       		.uleb128 0x4
 1053 00cc 17030000 		.4byte	.LASF17
 1054 00d0 04       		.byte	0x4
 1055 00d1 2A       		.byte	0x2a
 1056 00d2 19       		.byte	0x19
 1057 00d3 9B000000 		.4byte	0x9b
 1058 00d7 04       		.uleb128 0x4
 1059 00d8 21010000 		.4byte	.LASF18
 1060 00dc 04       		.byte	0x4
 1061 00dd 2B       		.byte	0x2b
 1062 00de 19       		.byte	0x19
 1063 00df 9B000000 		.4byte	0x9b
 1064 00e3 04       		.uleb128 0x4
 1065 00e4 FE030000 		.4byte	.LASF19
 1066 00e8 04       		.byte	0x4
 1067 00e9 2C       		.byte	0x2c
 1068 00ea 19       		.byte	0x19
 1069 00eb 9B000000 		.4byte	0x9b
 1070 00ef 04       		.uleb128 0x4
 1071 00f0 0E010000 		.4byte	.LASF20
 1072 00f4 04       		.byte	0x4
 1073 00f5 2D       		.byte	0x2d
 1074 00f6 19       		.byte	0x19
 1075 00f7 9B000000 		.4byte	0x9b
 1076 00fb 04       		.uleb128 0x4
 1077 00fc 24040000 		.4byte	.LASF21
 1078 0100 04       		.byte	0x4
 1079 0101 2E       		.byte	0x2e
 1080 0102 19       		.byte	0x19
 1081 0103 BF000000 		.4byte	0xbf
 1082 0107 04       		.uleb128 0x4
 1083 0108 2E020000 		.4byte	.LASF22
ARM GAS  /var/folders/l5/0x54b2c10074c8bt31ycjvl80000gp/T//cci54lkl.s 			page 20


 1084 010c 04       		.byte	0x4
 1085 010d 2F       		.byte	0x2f
 1086 010e 19       		.byte	0x19
 1087 010f B3000000 		.4byte	0xb3
 1088 0113 04       		.uleb128 0x4
 1089 0114 2B030000 		.4byte	.LASF23
 1090 0118 04       		.byte	0x4
 1091 0119 31       		.byte	0x31
 1092 011a 19       		.byte	0x19
 1093 011b BF000000 		.4byte	0xbf
 1094 011f 04       		.uleb128 0x4
 1095 0120 2A050000 		.4byte	.LASF24
 1096 0124 04       		.byte	0x4
 1097 0125 33       		.byte	0x33
 1098 0126 19       		.byte	0x19
 1099 0127 BF000000 		.4byte	0xbf
 1100 012b 05       		.uleb128 0x5
 1101 012c 1F010000 		.4byte	0x11f
 1102 0130 04       		.uleb128 0x4
 1103 0131 A9010000 		.4byte	.LASF25
 1104 0135 04       		.byte	0x4
 1105 0136 34       		.byte	0x34
 1106 0137 19       		.byte	0x19
 1107 0138 B3000000 		.4byte	0xb3
 1108 013c 04       		.uleb128 0x4
 1109 013d B8040000 		.4byte	.LASF26
 1110 0141 05       		.byte	0x5
 1111 0142 23       		.byte	0x23
 1112 0143 17       		.byte	0x17
 1113 0144 48010000 		.4byte	0x148
 1114 0148 06       		.uleb128 0x6
 1115 0149 B8040000 		.4byte	.LASF26
 1116 014d 44       		.byte	0x44
 1117 014e 06       		.byte	0x6
 1118 014f 57       		.byte	0x57
 1119 0150 08       		.byte	0x8
 1120 0151 4D020000 		.4byte	0x24d
 1121 0155 07       		.uleb128 0x7
 1122 0156 91040000 		.4byte	.LASF27
 1123 015a 06       		.byte	0x6
 1124 015b 58       		.byte	0x58
 1125 015c 1A       		.byte	0x1a
 1126 015d 71020000 		.4byte	0x271
 1127 0161 00       		.byte	0
 1128 0162 07       		.uleb128 0x7
 1129 0163 11040000 		.4byte	.LASF28
 1130 0167 06       		.byte	0x6
 1131 0168 5A       		.byte	0x5a
 1132 0169 1A       		.byte	0x1a
 1133 016a 71020000 		.4byte	0x271
 1134 016e 04       		.byte	0x4
 1135 016f 07       		.uleb128 0x7
 1136 0170 BB000000 		.4byte	.LASF29
 1137 0174 06       		.byte	0x6
 1138 0175 5C       		.byte	0x5c
 1139 0176 19       		.byte	0x19
 1140 0177 FB000000 		.4byte	0xfb
ARM GAS  /var/folders/l5/0x54b2c10074c8bt31ycjvl80000gp/T//cci54lkl.s 			page 21


 1141 017b 08       		.byte	0x8
 1142 017c 07       		.uleb128 0x7
 1143 017d FF050000 		.4byte	.LASF30
 1144 0181 06       		.byte	0x6
 1145 0182 5D       		.byte	0x5d
 1146 0183 19       		.byte	0x19
 1147 0184 3C030000 		.4byte	0x33c
 1148 0188 0C       		.byte	0xc
 1149 0189 07       		.uleb128 0x7
 1150 018a 3D010000 		.4byte	.LASF31
 1151 018e 06       		.byte	0x6
 1152 018f 5F       		.byte	0x5f
 1153 0190 1A       		.byte	0x1a
 1154 0191 71020000 		.4byte	0x271
 1155 0195 10       		.byte	0x10
 1156 0196 07       		.uleb128 0x7
 1157 0197 7B040000 		.4byte	.LASF32
 1158 019b 06       		.byte	0x6
 1159 019c 60       		.byte	0x60
 1160 019d 1A       		.byte	0x1a
 1161 019e 71020000 		.4byte	0x271
 1162 01a2 14       		.byte	0x14
 1163 01a3 07       		.uleb128 0x7
 1164 01a4 D3050000 		.4byte	.LASF33
 1165 01a8 06       		.byte	0x6
 1166 01a9 67       		.byte	0x67
 1167 01aa 1A       		.byte	0x1a
 1168 01ab C0050000 		.4byte	0x5c0
 1169 01af 18       		.byte	0x18
 1170 01b0 07       		.uleb128 0x7
 1171 01b1 5D040000 		.4byte	.LASF34
 1172 01b5 06       		.byte	0x6
 1173 01b6 72       		.byte	0x72
 1174 01b7 19       		.byte	0x19
 1175 01b8 D7000000 		.4byte	0xd7
 1176 01bc 1C       		.byte	0x1c
 1177 01bd 07       		.uleb128 0x7
 1178 01be A7040000 		.4byte	.LASF35
 1179 01c2 06       		.byte	0x6
 1180 01c3 76       		.byte	0x76
 1181 01c4 19       		.byte	0x19
 1182 01c5 CB000000 		.4byte	0xcb
 1183 01c9 1D       		.byte	0x1d
 1184 01ca 07       		.uleb128 0x7
 1185 01cb A1050000 		.4byte	.LASF36
 1186 01cf 06       		.byte	0x6
 1187 01d0 7B       		.byte	0x7b
 1188 01d1 19       		.byte	0x19
 1189 01d2 E3000000 		.4byte	0xe3
 1190 01d6 1E       		.byte	0x1e
 1191 01d7 07       		.uleb128 0x7
 1192 01d8 65040000 		.4byte	.LASF37
 1193 01dc 06       		.byte	0x6
 1194 01dd 81       		.byte	0x81
 1195 01de 19       		.byte	0x19
 1196 01df EF000000 		.4byte	0xef
 1197 01e3 1F       		.byte	0x1f
ARM GAS  /var/folders/l5/0x54b2c10074c8bt31ycjvl80000gp/T//cci54lkl.s 			page 22


 1198 01e4 07       		.uleb128 0x7
 1199 01e5 49050000 		.4byte	.LASF38
 1200 01e9 06       		.byte	0x6
 1201 01ea 88       		.byte	0x88
 1202 01eb 19       		.byte	0x19
 1203 01ec 2B010000 		.4byte	0x12b
 1204 01f0 20       		.byte	0x20
 1205 01f1 08       		.uleb128 0x8
 1206 01f2 705F7500 		.ascii	"p_u\000"
 1207 01f6 06       		.byte	0x6
 1208 01f7 AD       		.byte	0xad
 1209 01f8 19       		.byte	0x19
 1210 01f9 86050000 		.4byte	0x586
 1211 01fd 24       		.byte	0x24
 1212 01fe 07       		.uleb128 0x7
 1213 01ff 05060000 		.4byte	.LASF39
 1214 0203 06       		.byte	0x6
 1215 0204 B2       		.byte	0xb2
 1216 0205 19       		.byte	0x19
 1217 0206 9A020000 		.4byte	0x29a
 1218 020a 28       		.byte	0x28
 1219 020b 07       		.uleb128 0x7
 1220 020c 65050000 		.4byte	.LASF40
 1221 0210 06       		.byte	0x6
 1222 0211 B8       		.byte	0xb8
 1223 0212 19       		.byte	0x19
 1224 0213 77020000 		.4byte	0x277
 1225 0217 2C       		.byte	0x2c
 1226 0218 07       		.uleb128 0x7
 1227 0219 0D000000 		.4byte	.LASF41
 1228 021d 06       		.byte	0x6
 1229 021e BC       		.byte	0xbc
 1230 021f 19       		.byte	0x19
 1231 0220 07010000 		.4byte	0x107
 1232 0224 34       		.byte	0x34
 1233 0225 07       		.uleb128 0x7
 1234 0226 CC040000 		.4byte	.LASF42
 1235 022a 06       		.byte	0x6
 1236 022b C2       		.byte	0xc2
 1237 022c 19       		.byte	0x19
 1238 022d 13010000 		.4byte	0x113
 1239 0231 38       		.byte	0x38
 1240 0232 07       		.uleb128 0x7
 1241 0233 49040000 		.4byte	.LASF43
 1242 0237 06       		.byte	0x6
 1243 0238 C9       		.byte	0xc9
 1244 0239 1A       		.byte	0x1a
 1245 023a D2050000 		.4byte	0x5d2
 1246 023e 3C       		.byte	0x3c
 1247 023f 07       		.uleb128 0x7
 1248 0240 34050000 		.4byte	.LASF44
 1249 0244 06       		.byte	0x6
 1250 0245 CD       		.byte	0xcd
 1251 0246 19       		.byte	0x19
 1252 0247 FB000000 		.4byte	0xfb
 1253 024b 40       		.byte	0x40
 1254 024c 00       		.byte	0
ARM GAS  /var/folders/l5/0x54b2c10074c8bt31ycjvl80000gp/T//cci54lkl.s 			page 23


 1255 024d 09       		.uleb128 0x9
 1256 024e 08       		.byte	0x8
 1257 024f 05       		.byte	0x5
 1258 0250 5A       		.byte	0x5a
 1259 0251 09       		.byte	0x9
 1260 0252 71020000 		.4byte	0x271
 1261 0256 07       		.uleb128 0x7
 1262 0257 91040000 		.4byte	.LASF27
 1263 025b 05       		.byte	0x5
 1264 025c 5B       		.byte	0x5b
 1265 025d 1A       		.byte	0x1a
 1266 025e 71020000 		.4byte	0x271
 1267 0262 00       		.byte	0
 1268 0263 07       		.uleb128 0x7
 1269 0264 11040000 		.4byte	.LASF28
 1270 0268 05       		.byte	0x5
 1271 0269 5D       		.byte	0x5d
 1272 026a 1A       		.byte	0x1a
 1273 026b 71020000 		.4byte	0x271
 1274 026f 04       		.byte	0x4
 1275 0270 00       		.byte	0
 1276 0271 0A       		.uleb128 0xa
 1277 0272 04       		.byte	0x4
 1278 0273 3C010000 		.4byte	0x13c
 1279 0277 04       		.uleb128 0x4
 1280 0278 C8030000 		.4byte	.LASF45
 1281 027c 05       		.byte	0x5
 1282 027d 5F       		.byte	0x5f
 1283 027e 03       		.byte	0x3
 1284 027f 4D020000 		.4byte	0x24d
 1285 0283 09       		.uleb128 0x9
 1286 0284 04       		.byte	0x4
 1287 0285 05       		.byte	0x5
 1288 0286 64       		.byte	0x64
 1289 0287 09       		.byte	0x9
 1290 0288 9A020000 		.4byte	0x29a
 1291 028c 07       		.uleb128 0x7
 1292 028d 91040000 		.4byte	.LASF27
 1293 0291 05       		.byte	0x5
 1294 0292 66       		.byte	0x66
 1295 0293 16       		.byte	0x16
 1296 0294 71020000 		.4byte	0x271
 1297 0298 00       		.byte	0
 1298 0299 00       		.byte	0
 1299 029a 04       		.uleb128 0x4
 1300 029b 1F030000 		.4byte	.LASF46
 1301 029f 05       		.byte	0x5
 1302 02a0 69       		.byte	0x69
 1303 02a1 03       		.byte	0x3
 1304 02a2 83020000 		.4byte	0x283
 1305 02a6 04       		.uleb128 0x4
 1306 02a7 42030000 		.4byte	.LASF47
 1307 02ab 07       		.byte	0x7
 1308 02ac 9D       		.byte	0x9d
 1309 02ad 12       		.byte	0x12
 1310 02ae BF000000 		.4byte	0xbf
 1311 02b2 04       		.uleb128 0x4
ARM GAS  /var/folders/l5/0x54b2c10074c8bt31ycjvl80000gp/T//cci54lkl.s 			page 24


 1312 02b3 98010000 		.4byte	.LASF48
 1313 02b7 07       		.byte	0x7
 1314 02b8 A2       		.byte	0xa2
 1315 02b9 0F       		.byte	0xf
 1316 02ba BE020000 		.4byte	0x2be
 1317 02be 0B       		.uleb128 0xb
 1318 02bf 04       		.byte	0x4
 1319 02c0 06       		.uleb128 0x6
 1320 02c1 5E050000 		.4byte	.LASF49
 1321 02c5 24       		.byte	0x24
 1322 02c6 07       		.byte	0x7
 1323 02c7 B9       		.byte	0xb9
 1324 02c8 08       		.byte	0x8
 1325 02c9 3C030000 		.4byte	0x33c
 1326 02cd 08       		.uleb128 0x8
 1327 02ce 723400   		.ascii	"r4\000"
 1328 02d1 07       		.byte	0x7
 1329 02d2 BA       		.byte	0xba
 1330 02d3 11       		.byte	0x11
 1331 02d4 B2020000 		.4byte	0x2b2
 1332 02d8 00       		.byte	0
 1333 02d9 08       		.uleb128 0x8
 1334 02da 723500   		.ascii	"r5\000"
 1335 02dd 07       		.byte	0x7
 1336 02de BB       		.byte	0xbb
 1337 02df 11       		.byte	0x11
 1338 02e0 B2020000 		.4byte	0x2b2
 1339 02e4 04       		.byte	0x4
 1340 02e5 08       		.uleb128 0x8
 1341 02e6 723600   		.ascii	"r6\000"
 1342 02e9 07       		.byte	0x7
 1343 02ea BC       		.byte	0xbc
 1344 02eb 11       		.byte	0x11
 1345 02ec B2020000 		.4byte	0x2b2
 1346 02f0 08       		.byte	0x8
 1347 02f1 08       		.uleb128 0x8
 1348 02f2 723700   		.ascii	"r7\000"
 1349 02f5 07       		.byte	0x7
 1350 02f6 BD       		.byte	0xbd
 1351 02f7 11       		.byte	0x11
 1352 02f8 B2020000 		.4byte	0x2b2
 1353 02fc 0C       		.byte	0xc
 1354 02fd 08       		.uleb128 0x8
 1355 02fe 723800   		.ascii	"r8\000"
 1356 0301 07       		.byte	0x7
 1357 0302 BE       		.byte	0xbe
 1358 0303 11       		.byte	0x11
 1359 0304 B2020000 		.4byte	0x2b2
 1360 0308 10       		.byte	0x10
 1361 0309 08       		.uleb128 0x8
 1362 030a 723900   		.ascii	"r9\000"
 1363 030d 07       		.byte	0x7
 1364 030e BF       		.byte	0xbf
 1365 030f 11       		.byte	0x11
 1366 0310 B2020000 		.4byte	0x2b2
 1367 0314 14       		.byte	0x14
 1368 0315 08       		.uleb128 0x8
ARM GAS  /var/folders/l5/0x54b2c10074c8bt31ycjvl80000gp/T//cci54lkl.s 			page 25


 1369 0316 72313000 		.ascii	"r10\000"
 1370 031a 07       		.byte	0x7
 1371 031b C0       		.byte	0xc0
 1372 031c 11       		.byte	0x11
 1373 031d B2020000 		.4byte	0x2b2
 1374 0321 18       		.byte	0x18
 1375 0322 08       		.uleb128 0x8
 1376 0323 72313100 		.ascii	"r11\000"
 1377 0327 07       		.byte	0x7
 1378 0328 C1       		.byte	0xc1
 1379 0329 11       		.byte	0x11
 1380 032a B2020000 		.4byte	0x2b2
 1381 032e 1C       		.byte	0x1c
 1382 032f 08       		.uleb128 0x8
 1383 0330 6C7200   		.ascii	"lr\000"
 1384 0333 07       		.byte	0x7
 1385 0334 C2       		.byte	0xc2
 1386 0335 11       		.byte	0x11
 1387 0336 B2020000 		.4byte	0x2b2
 1388 033a 20       		.byte	0x20
 1389 033b 00       		.byte	0
 1390 033c 06       		.uleb128 0x6
 1391 033d 08020000 		.4byte	.LASF50
 1392 0341 04       		.byte	0x4
 1393 0342 07       		.byte	0x7
 1394 0343 CA       		.byte	0xca
 1395 0344 08       		.byte	0x8
 1396 0345 57030000 		.4byte	0x357
 1397 0349 08       		.uleb128 0x8
 1398 034a 72313300 		.ascii	"r13\000"
 1399 034e 07       		.byte	0x7
 1400 034f CB       		.byte	0xcb
 1401 0350 12       		.byte	0x12
 1402 0351 57030000 		.4byte	0x357
 1403 0355 00       		.byte	0
 1404 0356 00       		.byte	0
 1405 0357 0A       		.uleb128 0xa
 1406 0358 04       		.byte	0x4
 1407 0359 C0020000 		.4byte	0x2c0
 1408 035d 04       		.uleb128 0x4
 1409 035e EB010000 		.4byte	.LASF51
 1410 0362 08       		.byte	0x8
 1411 0363 4E       		.byte	0x4e
 1412 0364 10       		.byte	0x10
 1413 0365 69030000 		.4byte	0x369
 1414 0369 0A       		.uleb128 0xa
 1415 036a 04       		.byte	0x4
 1416 036b 6F030000 		.4byte	0x36f
 1417 036f 0C       		.uleb128 0xc
 1418 0370 7A030000 		.4byte	0x37a
 1419 0374 0D       		.uleb128 0xd
 1420 0375 BE020000 		.4byte	0x2be
 1421 0379 00       		.byte	0
 1422 037a 04       		.uleb128 0x4
 1423 037b F4040000 		.4byte	.LASF52
 1424 037f 08       		.byte	0x8
 1425 0380 53       		.byte	0x53
ARM GAS  /var/folders/l5/0x54b2c10074c8bt31ycjvl80000gp/T//cci54lkl.s 			page 26


 1426 0381 1D       		.byte	0x1d
 1427 0382 86030000 		.4byte	0x386
 1428 0386 06       		.uleb128 0x6
 1429 0387 F4040000 		.4byte	.LASF52
 1430 038b 14       		.byte	0x14
 1431 038c 08       		.byte	0x8
 1432 038d 5A       		.byte	0x5a
 1433 038e 08       		.byte	0x8
 1434 038f D5030000 		.4byte	0x3d5
 1435 0393 07       		.uleb128 0x7
 1436 0394 BC010000 		.4byte	.LASF53
 1437 0398 08       		.byte	0x8
 1438 0399 5B       		.byte	0x5b
 1439 039a 1A       		.byte	0x1a
 1440 039b D5030000 		.4byte	0x3d5
 1441 039f 00       		.byte	0
 1442 03a0 07       		.uleb128 0x7
 1443 03a1 A1010000 		.4byte	.LASF54
 1444 03a5 08       		.byte	0x8
 1445 03a6 5D       		.byte	0x5d
 1446 03a7 1A       		.byte	0x1a
 1447 03a8 D5030000 		.4byte	0x3d5
 1448 03ac 04       		.byte	0x4
 1449 03ad 07       		.uleb128 0x7
 1450 03ae 61030000 		.4byte	.LASF55
 1451 03b2 08       		.byte	0x8
 1452 03b3 5F       		.byte	0x5f
 1453 03b4 19       		.byte	0x19
 1454 03b5 1F010000 		.4byte	0x11f
 1455 03b9 08       		.byte	0x8
 1456 03ba 07       		.uleb128 0x7
 1457 03bb 69030000 		.4byte	.LASF56
 1458 03bf 08       		.byte	0x8
 1459 03c0 60       		.byte	0x60
 1460 03c1 19       		.byte	0x19
 1461 03c2 5D030000 		.4byte	0x35d
 1462 03c6 0C       		.byte	0xc
 1463 03c7 07       		.uleb128 0x7
 1464 03c8 7A050000 		.4byte	.LASF57
 1465 03cc 08       		.byte	0x8
 1466 03cd 62       		.byte	0x62
 1467 03ce 1A       		.byte	0x1a
 1468 03cf BE020000 		.4byte	0x2be
 1469 03d3 10       		.byte	0x10
 1470 03d4 00       		.byte	0
 1471 03d5 0A       		.uleb128 0xa
 1472 03d6 04       		.byte	0x4
 1473 03d7 7A030000 		.4byte	0x37a
 1474 03db 09       		.uleb128 0x9
 1475 03dc 10       		.byte	0x10
 1476 03dd 08       		.byte	0x8
 1477 03de 6C       		.byte	0x6c
 1478 03df 09       		.byte	0x9
 1479 03e0 19040000 		.4byte	0x419
 1480 03e4 07       		.uleb128 0x7
 1481 03e5 BC010000 		.4byte	.LASF53
 1482 03e9 08       		.byte	0x8
ARM GAS  /var/folders/l5/0x54b2c10074c8bt31ycjvl80000gp/T//cci54lkl.s 			page 27


 1483 03ea 6D       		.byte	0x6d
 1484 03eb 1A       		.byte	0x1a
 1485 03ec D5030000 		.4byte	0x3d5
 1486 03f0 00       		.byte	0
 1487 03f1 07       		.uleb128 0x7
 1488 03f2 A1010000 		.4byte	.LASF54
 1489 03f6 08       		.byte	0x8
 1490 03f7 6F       		.byte	0x6f
 1491 03f8 1A       		.byte	0x1a
 1492 03f9 D5030000 		.4byte	0x3d5
 1493 03fd 04       		.byte	0x4
 1494 03fe 07       		.uleb128 0x7
 1495 03ff 61030000 		.4byte	.LASF55
 1496 0403 08       		.byte	0x8
 1497 0404 71       		.byte	0x71
 1498 0405 19       		.byte	0x19
 1499 0406 1F010000 		.4byte	0x11f
 1500 040a 08       		.byte	0x8
 1501 040b 07       		.uleb128 0x7
 1502 040c DA050000 		.4byte	.LASF58
 1503 0410 08       		.byte	0x8
 1504 0411 72       		.byte	0x72
 1505 0412 19       		.byte	0x19
 1506 0413 2B010000 		.4byte	0x12b
 1507 0417 0C       		.byte	0xc
 1508 0418 00       		.byte	0
 1509 0419 04       		.uleb128 0x4
 1510 041a F0050000 		.4byte	.LASF59
 1511 041e 08       		.byte	0x8
 1512 041f 73       		.byte	0x73
 1513 0420 03       		.byte	0x3
 1514 0421 DB030000 		.4byte	0x3db
 1515 0425 0E       		.uleb128 0xe
 1516 0426 44000000 		.4byte	.LASF67
 1517 042a 08       		.byte	0x8
 1518 042b D1       		.byte	0xd1
 1519 042c 0F       		.byte	0xf
 1520 042d 19040000 		.4byte	0x419
 1521 0431 09       		.uleb128 0x9
 1522 0432 1C       		.byte	0x1c
 1523 0433 09       		.byte	0x9
 1524 0434 57       		.byte	0x57
 1525 0435 09       		.byte	0x9
 1526 0436 89040000 		.4byte	0x489
 1527 043a 07       		.uleb128 0x7
 1528 043b EC040000 		.4byte	.LASF60
 1529 043f 09       		.byte	0x9
 1530 0440 58       		.byte	0x58
 1531 0441 19       		.byte	0x19
 1532 0442 77020000 		.4byte	0x277
 1533 0446 00       		.byte	0
 1534 0447 07       		.uleb128 0x7
 1535 0448 83040000 		.4byte	.LASF61
 1536 044c 09       		.byte	0x9
 1537 044d 59       		.byte	0x59
 1538 044e 19       		.byte	0x19
 1539 044f FB000000 		.4byte	0xfb
ARM GAS  /var/folders/l5/0x54b2c10074c8bt31ycjvl80000gp/T//cci54lkl.s 			page 28


 1540 0453 08       		.byte	0x8
 1541 0454 07       		.uleb128 0x7
 1542 0455 C2030000 		.4byte	.LASF62
 1543 0459 09       		.byte	0x9
 1544 045a 5B       		.byte	0x5b
 1545 045b 19       		.byte	0x19
 1546 045c 3C030000 		.4byte	0x33c
 1547 0460 0C       		.byte	0xc
 1548 0461 07       		.uleb128 0x7
 1549 0462 34020000 		.4byte	.LASF63
 1550 0466 09       		.byte	0x9
 1551 0467 5E       		.byte	0x5e
 1552 0468 1A       		.byte	0x1a
 1553 0469 71020000 		.4byte	0x271
 1554 046d 10       		.byte	0x10
 1555 046e 07       		.uleb128 0x7
 1556 046f F6030000 		.4byte	.LASF64
 1557 0473 09       		.byte	0x9
 1558 0474 5F       		.byte	0x5f
 1559 0475 1A       		.byte	0x1a
 1560 0476 71020000 		.4byte	0x271
 1561 047a 14       		.byte	0x14
 1562 047b 07       		.uleb128 0x7
 1563 047c EC030000 		.4byte	.LASF65
 1564 0480 09       		.byte	0x9
 1565 0481 62       		.byte	0x62
 1566 0482 1A       		.byte	0x1a
 1567 0483 71020000 		.4byte	0x271
 1568 0487 18       		.byte	0x18
 1569 0488 00       		.byte	0
 1570 0489 04       		.uleb128 0x4
 1571 048a A8050000 		.4byte	.LASF66
 1572 048e 09       		.byte	0x9
 1573 048f 64       		.byte	0x64
 1574 0490 03       		.byte	0x3
 1575 0491 31040000 		.4byte	0x431
 1576 0495 0E       		.uleb128 0xe
 1577 0496 BE050000 		.4byte	.LASF68
 1578 049a 09       		.byte	0x9
 1579 049b 68       		.byte	0x68
 1580 049c 12       		.byte	0x12
 1581 049d 89040000 		.4byte	0x489
 1582 04a1 06       		.uleb128 0x6
 1583 04a2 81050000 		.4byte	.LASF69
 1584 04a6 0C       		.byte	0xc
 1585 04a7 0A       		.byte	0xa
 1586 04a8 25       		.byte	0x25
 1587 04a9 10       		.byte	0x10
 1588 04aa C9040000 		.4byte	0x4c9
 1589 04ae 07       		.uleb128 0x7
 1590 04af 55010000 		.4byte	.LASF70
 1591 04b3 0A       		.byte	0xa
 1592 04b4 26       		.byte	0x26
 1593 04b5 19       		.byte	0x19
 1594 04b6 77020000 		.4byte	0x277
 1595 04ba 00       		.byte	0
 1596 04bb 07       		.uleb128 0x7
ARM GAS  /var/folders/l5/0x54b2c10074c8bt31ycjvl80000gp/T//cci54lkl.s 			page 29


 1597 04bc 02020000 		.4byte	.LASF71
 1598 04c0 0A       		.byte	0xa
 1599 04c1 28       		.byte	0x28
 1600 04c2 19       		.byte	0x19
 1601 04c3 30010000 		.4byte	0x130
 1602 04c7 08       		.byte	0x8
 1603 04c8 00       		.byte	0
 1604 04c9 04       		.uleb128 0x4
 1605 04ca 81050000 		.4byte	.LASF69
 1606 04ce 0A       		.byte	0xa
 1607 04cf 29       		.byte	0x29
 1608 04d0 03       		.byte	0x3
 1609 04d1 A1040000 		.4byte	0x4a1
 1610 04d5 06       		.uleb128 0x6
 1611 04d6 37030000 		.4byte	.LASF72
 1612 04da 10       		.byte	0x10
 1613 04db 0B       		.byte	0xb
 1614 04dc 25       		.byte	0x25
 1615 04dd 10       		.byte	0x10
 1616 04de 0A050000 		.4byte	0x50a
 1617 04e2 07       		.uleb128 0x7
 1618 04e3 06010000 		.4byte	.LASF73
 1619 04e7 0B       		.byte	0xb
 1620 04e8 26       		.byte	0x26
 1621 04e9 19       		.byte	0x19
 1622 04ea 77020000 		.4byte	0x277
 1623 04ee 00       		.byte	0
 1624 04ef 07       		.uleb128 0x7
 1625 04f0 F7050000 		.4byte	.LASF74
 1626 04f4 0B       		.byte	0xb
 1627 04f5 28       		.byte	0x28
 1628 04f6 1A       		.byte	0x1a
 1629 04f7 71020000 		.4byte	0x271
 1630 04fb 08       		.byte	0x8
 1631 04fc 07       		.uleb128 0x7
 1632 04fd 23050000 		.4byte	.LASF75
 1633 0501 0B       		.byte	0xb
 1634 0502 2A       		.byte	0x2a
 1635 0503 1A       		.byte	0x1a
 1636 0504 0A050000 		.4byte	0x50a
 1637 0508 0C       		.byte	0xc
 1638 0509 00       		.byte	0
 1639 050a 0A       		.uleb128 0xa
 1640 050b 04       		.byte	0x4
 1641 050c D5040000 		.4byte	0x4d5
 1642 0510 04       		.uleb128 0x4
 1643 0511 37030000 		.4byte	.LASF72
 1644 0515 0B       		.byte	0xb
 1645 0516 2C       		.byte	0x2c
 1646 0517 03       		.byte	0x3
 1647 0518 D5040000 		.4byte	0x4d5
 1648 051c 09       		.uleb128 0x9
 1649 051d 28       		.byte	0x28
 1650 051e 0C       		.byte	0xc
 1651 051f 2C       		.byte	0x2c
 1652 0520 09       		.byte	0x9
 1653 0521 74050000 		.4byte	0x574
ARM GAS  /var/folders/l5/0x54b2c10074c8bt31ycjvl80000gp/T//cci54lkl.s 			page 30


 1654 0525 07       		.uleb128 0x7
 1655 0526 DD030000 		.4byte	.LASF76
 1656 052a 0C       		.byte	0xc
 1657 052b 2D       		.byte	0x2d
 1658 052c 1A       		.byte	0x1a
 1659 052d 74050000 		.4byte	0x574
 1660 0531 00       		.byte	0
 1661 0532 07       		.uleb128 0x7
 1662 0533 42040000 		.4byte	.LASF77
 1663 0537 0C       		.byte	0xc
 1664 0538 2F       		.byte	0x2f
 1665 0539 1A       		.byte	0x1a
 1666 053a 74050000 		.4byte	0x574
 1667 053e 04       		.byte	0x4
 1668 053f 07       		.uleb128 0x7
 1669 0540 B2000000 		.4byte	.LASF78
 1670 0544 0C       		.byte	0xc
 1671 0545 31       		.byte	0x31
 1672 0546 1A       		.byte	0x1a
 1673 0547 74050000 		.4byte	0x574
 1674 054b 08       		.byte	0x8
 1675 054c 07       		.uleb128 0x7
 1676 054d 27000000 		.4byte	.LASF79
 1677 0551 0C       		.byte	0xc
 1678 0552 32       		.byte	0x32
 1679 0553 1A       		.byte	0x1a
 1680 0554 74050000 		.4byte	0x574
 1681 0558 0C       		.byte	0xc
 1682 0559 07       		.uleb128 0x7
 1683 055a 8B050000 		.4byte	.LASF80
 1684 055e 0C       		.byte	0xc
 1685 055f 33       		.byte	0x33
 1686 0560 19       		.byte	0x19
 1687 0561 C9040000 		.4byte	0x4c9
 1688 0565 10       		.byte	0x10
 1689 0566 07       		.uleb128 0x7
 1690 0567 DF010000 		.4byte	.LASF81
 1691 056b 0C       		.byte	0xc
 1692 056c 35       		.byte	0x35
 1693 056d 19       		.byte	0x19
 1694 056e C9040000 		.4byte	0x4c9
 1695 0572 1C       		.byte	0x1c
 1696 0573 00       		.byte	0
 1697 0574 0A       		.uleb128 0xa
 1698 0575 04       		.byte	0x4
 1699 0576 07010000 		.4byte	0x107
 1700 057a 04       		.uleb128 0x4
 1701 057b 55000000 		.4byte	.LASF82
 1702 057f 0C       		.byte	0xc
 1703 0580 37       		.byte	0x37
 1704 0581 03       		.byte	0x3
 1705 0582 1C050000 		.4byte	0x51c
 1706 0586 0F       		.uleb128 0xf
 1707 0587 04       		.byte	0x4
 1708 0588 06       		.byte	0x6
 1709 0589 8F       		.byte	0x8f
 1710 058a 03       		.byte	0x3
ARM GAS  /var/folders/l5/0x54b2c10074c8bt31ycjvl80000gp/T//cci54lkl.s 			page 31


 1711 058b C0050000 		.4byte	0x5c0
 1712 058f 10       		.uleb128 0x10
 1713 0590 20000000 		.4byte	.LASF83
 1714 0594 06       		.byte	0x6
 1715 0595 96       		.byte	0x96
 1716 0596 19       		.byte	0x19
 1717 0597 07010000 		.4byte	0x107
 1718 059b 10       		.uleb128 0x10
 1719 059c 91000000 		.4byte	.LASF84
 1720 05a0 06       		.byte	0x6
 1721 05a1 9D       		.byte	0x9d
 1722 05a2 19       		.byte	0x19
 1723 05a3 07010000 		.4byte	0x107
 1724 05a7 10       		.uleb128 0x10
 1725 05a8 CC050000 		.4byte	.LASF85
 1726 05ac 06       		.byte	0x6
 1727 05ad A4       		.byte	0xa4
 1728 05ae 1A       		.byte	0x1a
 1729 05af BE020000 		.4byte	0x2be
 1730 05b3 10       		.uleb128 0x10
 1731 05b4 8A040000 		.4byte	.LASF86
 1732 05b8 06       		.byte	0x6
 1733 05b9 AB       		.byte	0xab
 1734 05ba 19       		.byte	0x19
 1735 05bb 13010000 		.4byte	0x113
 1736 05bf 00       		.byte	0
 1737 05c0 0A       		.uleb128 0xa
 1738 05c1 04       		.byte	0x4
 1739 05c2 CD050000 		.4byte	0x5cd
 1740 05c6 03       		.uleb128 0x3
 1741 05c7 01       		.byte	0x1
 1742 05c8 08       		.byte	0x8
 1743 05c9 01050000 		.4byte	.LASF87
 1744 05cd 11       		.uleb128 0x11
 1745 05ce C6050000 		.4byte	0x5c6
 1746 05d2 0A       		.uleb128 0xa
 1747 05d3 04       		.byte	0x4
 1748 05d4 10050000 		.4byte	0x510
 1749 05d8 09       		.uleb128 0x9
 1750 05d9 16       		.byte	0x16
 1751 05da 0D       		.byte	0xd
 1752 05db 25       		.byte	0x25
 1753 05dc 09       		.byte	0x9
 1754 05dd CC060000 		.4byte	0x6cc
 1755 05e1 07       		.uleb128 0x7
 1756 05e2 F4010000 		.4byte	.LASF88
 1757 05e6 0D       		.byte	0xd
 1758 05e7 26       		.byte	0x26
 1759 05e8 0D       		.byte	0xd
 1760 05e9 CC060000 		.4byte	0x6cc
 1761 05ed 00       		.byte	0
 1762 05ee 07       		.uleb128 0x7
 1763 05ef 4D030000 		.4byte	.LASF89
 1764 05f3 0D       		.byte	0xd
 1765 05f4 27       		.byte	0x27
 1766 05f5 0D       		.byte	0xd
 1767 05f6 9B000000 		.4byte	0x9b
ARM GAS  /var/folders/l5/0x54b2c10074c8bt31ycjvl80000gp/T//cci54lkl.s 			page 32


 1768 05fa 04       		.byte	0x4
 1769 05fb 07       		.uleb128 0x7
 1770 05fc D5030000 		.4byte	.LASF90
 1771 0600 0D       		.byte	0xd
 1772 0601 28       		.byte	0x28
 1773 0602 0D       		.byte	0xd
 1774 0603 9B000000 		.4byte	0x9b
 1775 0607 05       		.byte	0x5
 1776 0608 07       		.uleb128 0x7
 1777 0609 E5050000 		.4byte	.LASF91
 1778 060d 0D       		.byte	0xd
 1779 060e 29       		.byte	0x29
 1780 060f 0D       		.byte	0xd
 1781 0610 A7000000 		.4byte	0xa7
 1782 0614 06       		.byte	0x6
 1783 0615 07       		.uleb128 0x7
 1784 0616 06040000 		.4byte	.LASF92
 1785 061a 0D       		.byte	0xd
 1786 061b 2A       		.byte	0x2a
 1787 061c 0D       		.byte	0xd
 1788 061d 9B000000 		.4byte	0x9b
 1789 0621 08       		.byte	0x8
 1790 0622 07       		.uleb128 0x7
 1791 0623 71030000 		.4byte	.LASF93
 1792 0627 0D       		.byte	0xd
 1793 0628 2B       		.byte	0x2b
 1794 0629 0D       		.byte	0xd
 1795 062a 9B000000 		.4byte	0x9b
 1796 062e 09       		.byte	0x9
 1797 062f 07       		.uleb128 0x7
 1798 0630 83000000 		.4byte	.LASF94
 1799 0634 0D       		.byte	0xd
 1800 0635 2C       		.byte	0x2c
 1801 0636 0D       		.byte	0xd
 1802 0637 9B000000 		.4byte	0x9b
 1803 063b 0A       		.byte	0xa
 1804 063c 07       		.uleb128 0x7
 1805 063d E0040000 		.4byte	.LASF95
 1806 0641 0D       		.byte	0xd
 1807 0642 2D       		.byte	0x2d
 1808 0643 0D       		.byte	0xd
 1809 0644 9B000000 		.4byte	0x9b
 1810 0648 0B       		.byte	0xb
 1811 0649 07       		.uleb128 0x7
 1812 064a 96050000 		.4byte	.LASF96
 1813 064e 0D       		.byte	0xd
 1814 064f 2E       		.byte	0x2e
 1815 0650 0D       		.byte	0xd
 1816 0651 9B000000 		.4byte	0x9b
 1817 0655 0C       		.byte	0xc
 1818 0656 07       		.uleb128 0x7
 1819 0657 BF040000 		.4byte	.LASF97
 1820 065b 0D       		.byte	0xd
 1821 065c 2F       		.byte	0x2f
 1822 065d 0D       		.byte	0xd
 1823 065e 9B000000 		.4byte	0x9b
 1824 0662 0D       		.byte	0xd
ARM GAS  /var/folders/l5/0x54b2c10074c8bt31ycjvl80000gp/T//cci54lkl.s 			page 33


 1825 0663 07       		.uleb128 0x7
 1826 0664 00000000 		.4byte	.LASF98
 1827 0668 0D       		.byte	0xd
 1828 0669 30       		.byte	0x30
 1829 066a 0D       		.byte	0xd
 1830 066b 9B000000 		.4byte	0x9b
 1831 066f 0E       		.byte	0xe
 1832 0670 07       		.uleb128 0x7
 1833 0671 18040000 		.4byte	.LASF99
 1834 0675 0D       		.byte	0xd
 1835 0676 31       		.byte	0x31
 1836 0677 0D       		.byte	0xd
 1837 0678 9B000000 		.4byte	0x9b
 1838 067c 0F       		.byte	0xf
 1839 067d 07       		.uleb128 0x7
 1840 067e E9000000 		.4byte	.LASF100
 1841 0682 0D       		.byte	0xd
 1842 0683 32       		.byte	0x32
 1843 0684 0D       		.byte	0xd
 1844 0685 9B000000 		.4byte	0x9b
 1845 0689 10       		.byte	0x10
 1846 068a 07       		.uleb128 0x7
 1847 068b C2000000 		.4byte	.LASF101
 1848 068f 0D       		.byte	0xd
 1849 0690 34       		.byte	0x34
 1850 0691 0D       		.byte	0xd
 1851 0692 9B000000 		.4byte	0x9b
 1852 0696 11       		.byte	0x11
 1853 0697 07       		.uleb128 0x7
 1854 0698 F9000000 		.4byte	.LASF102
 1855 069c 0D       		.byte	0xd
 1856 069d 35       		.byte	0x35
 1857 069e 0D       		.byte	0xd
 1858 069f 9B000000 		.4byte	0x9b
 1859 06a3 12       		.byte	0x12
 1860 06a4 07       		.uleb128 0x7
 1861 06a5 55030000 		.4byte	.LASF103
 1862 06a9 0D       		.byte	0xd
 1863 06aa 36       		.byte	0x36
 1864 06ab 0D       		.byte	0xd
 1865 06ac 9B000000 		.4byte	0x9b
 1866 06b0 13       		.byte	0x13
 1867 06b1 07       		.uleb128 0x7
 1868 06b2 98040000 		.4byte	.LASF104
 1869 06b6 0D       		.byte	0xd
 1870 06b7 37       		.byte	0x37
 1871 06b8 0D       		.byte	0xd
 1872 06b9 9B000000 		.4byte	0x9b
 1873 06bd 14       		.byte	0x14
 1874 06be 07       		.uleb128 0x7
 1875 06bf 6F040000 		.4byte	.LASF105
 1876 06c3 0D       		.byte	0xd
 1877 06c4 39       		.byte	0x39
 1878 06c5 0D       		.byte	0xd
 1879 06c6 9B000000 		.4byte	0x9b
 1880 06ca 15       		.byte	0x15
 1881 06cb 00       		.byte	0
ARM GAS  /var/folders/l5/0x54b2c10074c8bt31ycjvl80000gp/T//cci54lkl.s 			page 34


 1882 06cc 12       		.uleb128 0x12
 1883 06cd C6050000 		.4byte	0x5c6
 1884 06d1 DC060000 		.4byte	0x6dc
 1885 06d5 13       		.uleb128 0x13
 1886 06d6 2C000000 		.4byte	0x2c
 1887 06da 03       		.byte	0x3
 1888 06db 00       		.byte	0
 1889 06dc 04       		.uleb128 0x4
 1890 06dd 33010000 		.4byte	.LASF106
 1891 06e1 0D       		.byte	0xd
 1892 06e2 3A       		.byte	0x3a
 1893 06e3 03       		.byte	0x3
 1894 06e4 D8050000 		.4byte	0x5d8
 1895 06e8 11       		.uleb128 0x11
 1896 06e9 DC060000 		.4byte	0x6dc
 1897 06ed 0E       		.uleb128 0xe
 1898 06ee D6010000 		.4byte	.LASF107
 1899 06f2 0D       		.byte	0xd
 1900 06f3 77       		.byte	0x77
 1901 06f4 1D       		.byte	0x1d
 1902 06f5 E8060000 		.4byte	0x6e8
 1903 06f9 12       		.uleb128 0x12
 1904 06fa A6020000 		.4byte	0x2a6
 1905 06fe 09070000 		.4byte	0x709
 1906 0702 13       		.uleb128 0x13
 1907 0703 2C000000 		.4byte	0x2c
 1908 0707 26       		.byte	0x26
 1909 0708 00       		.byte	0
 1910 0709 0E       		.uleb128 0xe
 1911 070a 45010000 		.4byte	.LASF108
 1912 070e 0E       		.byte	0xe
 1913 070f 82       		.byte	0x82
 1914 0710 08       		.byte	0x8
 1915 0711 F9060000 		.4byte	0x6f9
 1916 0715 14       		.uleb128 0x14
 1917 0716 23020000 		.4byte	.LASF111
 1918 071a 01       		.byte	0x1
 1919 071b 6801     		.2byte	0x168
 1920 071d 07       		.byte	0x7
 1921 071e 07010000 		.4byte	0x107
 1922 0722 00000000 		.4byte	.LFB17
 1923 0726 54000000 		.4byte	.LFE17-.LFB17
 1924 072a 01       		.uleb128 0x1
 1925 072b 9C       		.byte	0x9c
 1926 072c 6E070000 		.4byte	0x76e
 1927 0730 15       		.uleb128 0x15
 1928 0731 6D627000 		.ascii	"mbp\000"
 1929 0735 01       		.byte	0x1
 1930 0736 6801     		.2byte	0x168
 1931 0738 1B       		.byte	0x1b
 1932 0739 6E070000 		.4byte	0x76e
 1933 073d 0A000000 		.4byte	.LLST55
 1934 0741 00000000 		.4byte	.LVUS55
 1935 0745 16       		.uleb128 0x16
 1936 0746 3D030000 		.4byte	.LASF109
 1937 074a 01       		.byte	0x1
 1938 074b 6801     		.2byte	0x168
ARM GAS  /var/folders/l5/0x54b2c10074c8bt31ycjvl80000gp/T//cci54lkl.s 			page 35


 1939 074d 27       		.byte	0x27
 1940 074e 74050000 		.4byte	0x574
 1941 0752 57000000 		.4byte	.LLST56
 1942 0756 51000000 		.4byte	.LVUS56
 1943 075a 17       		.uleb128 0x17
 1944 075b 44000000 		.4byte	.LVL67
 1945 075f 470F0000 		.4byte	0xf47
 1946 0763 18       		.uleb128 0x18
 1947 0764 01       		.uleb128 0x1
 1948 0765 50       		.byte	0x50
 1949 0766 05       		.uleb128 0x5
 1950 0767 F3       		.byte	0xf3
 1951 0768 01       		.uleb128 0x1
 1952 0769 50       		.byte	0x50
 1953 076a 23       		.byte	0x23
 1954 076b 1C       		.uleb128 0x1c
 1955 076c 00       		.byte	0
 1956 076d 00       		.byte	0
 1957 076e 0A       		.uleb128 0xa
 1958 076f 04       		.byte	0x4
 1959 0770 7A050000 		.4byte	0x57a
 1960 0774 19       		.uleb128 0x19
 1961 0775 0C030000 		.4byte	.LASF114
 1962 0779 01       		.byte	0x1
 1963 077a 4901     		.2byte	0x149
 1964 077c 07       		.byte	0x7
 1965 077d 07010000 		.4byte	0x107
 1966 0781 01       		.byte	0x1
 1967 0782 BB070000 		.4byte	0x7bb
 1968 0786 1A       		.uleb128 0x1a
 1969 0787 6D627000 		.ascii	"mbp\000"
 1970 078b 01       		.byte	0x1
 1971 078c 4901     		.2byte	0x149
 1972 078e 1B       		.byte	0x1b
 1973 078f 6E070000 		.4byte	0x76e
 1974 0793 1B       		.uleb128 0x1b
 1975 0794 3D030000 		.4byte	.LASF109
 1976 0798 01       		.byte	0x1
 1977 0799 4901     		.2byte	0x149
 1978 079b 27       		.byte	0x27
 1979 079c 74050000 		.4byte	0x574
 1980 07a0 1B       		.uleb128 0x1b
 1981 07a1 E7030000 		.4byte	.LASF110
 1982 07a5 01       		.byte	0x1
 1983 07a6 4901     		.2byte	0x149
 1984 07a8 37       		.byte	0x37
 1985 07a9 1F010000 		.4byte	0x11f
 1986 07ad 1C       		.uleb128 0x1c
 1987 07ae 20000000 		.4byte	.LASF83
 1988 07b2 01       		.byte	0x1
 1989 07b3 4A01     		.2byte	0x14a
 1990 07b5 09       		.byte	0x9
 1991 07b6 07010000 		.4byte	0x107
 1992 07ba 00       		.byte	0
 1993 07bb 14       		.uleb128 0x14
 1994 07bc 70050000 		.4byte	.LASF112
 1995 07c0 01       		.byte	0x1
ARM GAS  /var/folders/l5/0x54b2c10074c8bt31ycjvl80000gp/T//cci54lkl.s 			page 36


 1996 07c1 2D01     		.2byte	0x12d
 1997 07c3 07       		.byte	0x7
 1998 07c4 07010000 		.4byte	0x107
 1999 07c8 00000000 		.4byte	.LFB15
 2000 07cc 60000000 		.4byte	.LFE15-.LFB15
 2001 07d0 01       		.uleb128 0x1
 2002 07d1 9C       		.byte	0x9c
 2003 07d2 05090000 		.4byte	0x905
 2004 07d6 15       		.uleb128 0x15
 2005 07d7 6D627000 		.ascii	"mbp\000"
 2006 07db 01       		.byte	0x1
 2007 07dc 2D01     		.2byte	0x12d
 2008 07de 1A       		.byte	0x1a
 2009 07df 6E070000 		.4byte	0x76e
 2010 07e3 87000000 		.4byte	.LLST37
 2011 07e7 83000000 		.4byte	.LVUS37
 2012 07eb 16       		.uleb128 0x16
 2013 07ec 3D030000 		.4byte	.LASF109
 2014 07f0 01       		.byte	0x1
 2015 07f1 2D01     		.2byte	0x12d
 2016 07f3 26       		.byte	0x26
 2017 07f4 74050000 		.4byte	0x574
 2018 07f8 A9000000 		.4byte	.LLST38
 2019 07fc A5000000 		.4byte	.LVUS38
 2020 0800 16       		.uleb128 0x16
 2021 0801 E7030000 		.4byte	.LASF110
 2022 0805 01       		.byte	0x1
 2023 0806 2D01     		.2byte	0x12d
 2024 0808 36       		.byte	0x36
 2025 0809 1F010000 		.4byte	0x11f
 2026 080d CB000000 		.4byte	.LLST39
 2027 0811 C7000000 		.4byte	.LVUS39
 2028 0815 1D       		.uleb128 0x1d
 2029 0816 20000000 		.4byte	.LASF83
 2030 081a 01       		.byte	0x1
 2031 081b 2E01     		.2byte	0x12e
 2032 081d 09       		.byte	0x9
 2033 081e 07010000 		.4byte	0x107
 2034 0822 EE000000 		.4byte	.LLST40
 2035 0826 EC000000 		.4byte	.LVUS40
 2036 082a 1E       		.uleb128 0x1e
 2037 082b 74070000 		.4byte	0x774
 2038 082f 10000000 		.4byte	.LBI30
 2039 0833 03       		.byte	.LVU230
 2040 0834 10000000 		.4byte	.LBB30
 2041 0838 44000000 		.4byte	.LBE30-.LBB30
 2042 083c 01       		.byte	0x1
 2043 083d 3101     		.2byte	0x131
 2044 083f 0C       		.byte	0xc
 2045 0840 1F       		.uleb128 0x1f
 2046 0841 A0070000 		.4byte	0x7a0
 2047 0845 05010000 		.4byte	.LLST41
 2048 0849 01010000 		.4byte	.LVUS41
 2049 084d 1F       		.uleb128 0x1f
 2050 084e 93070000 		.4byte	0x793
 2051 0852 2A010000 		.4byte	.LLST42
 2052 0856 26010000 		.4byte	.LVUS42
ARM GAS  /var/folders/l5/0x54b2c10074c8bt31ycjvl80000gp/T//cci54lkl.s 			page 37


 2053 085a 1F       		.uleb128 0x1f
 2054 085b 86070000 		.4byte	0x786
 2055 085f 4C010000 		.4byte	.LLST43
 2056 0863 48010000 		.4byte	.LVUS43
 2057 0867 20       		.uleb128 0x20
 2058 0868 10000000 		.4byte	.LBB31
 2059 086c 44000000 		.4byte	.LBE31-.LBB31
 2060 0870 21       		.uleb128 0x21
 2061 0871 AD070000 		.4byte	0x7ad
 2062 0875 6E010000 		.4byte	.LLST44
 2063 0879 6A010000 		.4byte	.LVUS44
 2064 087d 22       		.uleb128 0x22
 2065 087e 74070000 		.4byte	0x774
 2066 0882 24000000 		.4byte	.LBI32
 2067 0886 00       		.byte	.LVU242
 2068 0887 24000000 		.4byte	.LBB32
 2069 088b 30000000 		.4byte	.LBE32-.LBB32
 2070 088f 01       		.byte	0x1
 2071 0890 4901     		.2byte	0x149
 2072 0892 07       		.byte	0x7
 2073 0893 EB080000 		.4byte	0x8eb
 2074 0897 1F       		.uleb128 0x1f
 2075 0898 A0070000 		.4byte	0x7a0
 2076 089c 8E010000 		.4byte	.LLST45
 2077 08a0 8C010000 		.4byte	.LVUS45
 2078 08a4 1F       		.uleb128 0x1f
 2079 08a5 93070000 		.4byte	0x793
 2080 08a9 A6010000 		.4byte	.LLST46
 2081 08ad A4010000 		.4byte	.LVUS46
 2082 08b1 1F       		.uleb128 0x1f
 2083 08b2 86070000 		.4byte	0x786
 2084 08b6 BB010000 		.4byte	.LLST47
 2085 08ba B9010000 		.4byte	.LVUS47
 2086 08be 20       		.uleb128 0x20
 2087 08bf 24000000 		.4byte	.LBB33
 2088 08c3 30000000 		.4byte	.LBE33-.LBB33
 2089 08c7 23       		.uleb128 0x23
 2090 08c8 AD070000 		.4byte	0x7ad
 2091 08cc 24       		.uleb128 0x24
 2092 08cd 50000000 		.4byte	.LVL55
 2093 08d1 470F0000 		.4byte	0xf47
 2094 08d5 E0080000 		.4byte	0x8e0
 2095 08d9 18       		.uleb128 0x18
 2096 08da 01       		.uleb128 0x1
 2097 08db 50       		.byte	0x50
 2098 08dc 02       		.uleb128 0x2
 2099 08dd 74       		.byte	0x74
 2100 08de 1C       		.sleb128 28
 2101 08df 00       		.byte	0
 2102 08e0 25       		.uleb128 0x25
 2103 08e1 54000000 		.4byte	.LVL56
 2104 08e5 530F0000 		.4byte	0xf53
 2105 08e9 00       		.byte	0
 2106 08ea 00       		.byte	0
 2107 08eb 17       		.uleb128 0x17
 2108 08ec 1C000000 		.4byte	.LVL52
 2109 08f0 5F0F0000 		.4byte	0xf5f
ARM GAS  /var/folders/l5/0x54b2c10074c8bt31ycjvl80000gp/T//cci54lkl.s 			page 38


 2110 08f4 18       		.uleb128 0x18
 2111 08f5 01       		.uleb128 0x1
 2112 08f6 50       		.byte	0x50
 2113 08f7 02       		.uleb128 0x2
 2114 08f8 74       		.byte	0x74
 2115 08f9 10       		.sleb128 16
 2116 08fa 18       		.uleb128 0x18
 2117 08fb 01       		.uleb128 0x1
 2118 08fc 51       		.byte	0x51
 2119 08fd 03       		.uleb128 0x3
 2120 08fe F3       		.byte	0xf3
 2121 08ff 01       		.uleb128 0x1
 2122 0900 52       		.byte	0x52
 2123 0901 00       		.byte	0
 2124 0902 00       		.byte	0
 2125 0903 00       		.byte	0
 2126 0904 00       		.byte	0
 2127 0905 14       		.uleb128 0x14
 2128 0906 5D000000 		.4byte	.LASF113
 2129 090a 01       		.byte	0x1
 2130 090b 0B01     		.2byte	0x10b
 2131 090d 07       		.byte	0x7
 2132 090e 07010000 		.4byte	0x107
 2133 0912 00000000 		.4byte	.LFB14
 2134 0916 54000000 		.4byte	.LFE14-.LFB14
 2135 091a 01       		.uleb128 0x1
 2136 091b 9C       		.byte	0x9c
 2137 091c 5E090000 		.4byte	0x95e
 2138 0920 15       		.uleb128 0x15
 2139 0921 6D627000 		.ascii	"mbp\000"
 2140 0925 01       		.byte	0x1
 2141 0926 0B01     		.2byte	0x10b
 2142 0928 1F       		.byte	0x1f
 2143 0929 6E070000 		.4byte	0x76e
 2144 092d D8010000 		.4byte	.LLST35
 2145 0931 CE010000 		.4byte	.LVUS35
 2146 0935 15       		.uleb128 0x15
 2147 0936 6D736700 		.ascii	"msg\000"
 2148 093a 01       		.byte	0x1
 2149 093b 0B01     		.2byte	0x10b
 2150 093d 2A       		.byte	0x2a
 2151 093e 07010000 		.4byte	0x107
 2152 0942 25020000 		.4byte	.LLST36
 2153 0946 1F020000 		.4byte	.LVUS36
 2154 094a 17       		.uleb128 0x17
 2155 094b 44000000 		.4byte	.LVL45
 2156 094f 470F0000 		.4byte	0xf47
 2157 0953 18       		.uleb128 0x18
 2158 0954 01       		.uleb128 0x1
 2159 0955 50       		.byte	0x50
 2160 0956 05       		.uleb128 0x5
 2161 0957 F3       		.byte	0xf3
 2162 0958 01       		.uleb128 0x1
 2163 0959 50       		.byte	0x50
 2164 095a 23       		.byte	0x23
 2165 095b 10       		.uleb128 0x10
 2166 095c 00       		.byte	0
ARM GAS  /var/folders/l5/0x54b2c10074c8bt31ycjvl80000gp/T//cci54lkl.s 			page 39


 2167 095d 00       		.byte	0
 2168 095e 26       		.uleb128 0x26
 2169 095f A3000000 		.4byte	.LASF115
 2170 0963 01       		.byte	0x1
 2171 0964 EC       		.byte	0xec
 2172 0965 07       		.byte	0x7
 2173 0966 07010000 		.4byte	0x107
 2174 096a 01       		.byte	0x1
 2175 096b A0090000 		.4byte	0x9a0
 2176 096f 27       		.uleb128 0x27
 2177 0970 6D627000 		.ascii	"mbp\000"
 2178 0974 01       		.byte	0x1
 2179 0975 EC       		.byte	0xec
 2180 0976 1F       		.byte	0x1f
 2181 0977 6E070000 		.4byte	0x76e
 2182 097b 27       		.uleb128 0x27
 2183 097c 6D736700 		.ascii	"msg\000"
 2184 0980 01       		.byte	0x1
 2185 0981 EC       		.byte	0xec
 2186 0982 2A       		.byte	0x2a
 2187 0983 07010000 		.4byte	0x107
 2188 0987 28       		.uleb128 0x28
 2189 0988 E7030000 		.4byte	.LASF110
 2190 098c 01       		.byte	0x1
 2191 098d EC       		.byte	0xec
 2192 098e 39       		.byte	0x39
 2193 098f 1F010000 		.4byte	0x11f
 2194 0993 29       		.uleb128 0x29
 2195 0994 20000000 		.4byte	.LASF83
 2196 0998 01       		.byte	0x1
 2197 0999 ED       		.byte	0xed
 2198 099a 09       		.byte	0x9
 2199 099b 07010000 		.4byte	0x107
 2200 099f 00       		.byte	0
 2201 09a0 2A       		.uleb128 0x2a
 2202 09a1 50050000 		.4byte	.LASF116
 2203 09a5 01       		.byte	0x1
 2204 09a6 D0       		.byte	0xd0
 2205 09a7 07       		.byte	0x7
 2206 09a8 07010000 		.4byte	0x107
 2207 09ac 00000000 		.4byte	.LFB12
 2208 09b0 14000000 		.4byte	.LFE12-.LFB12
 2209 09b4 01       		.uleb128 0x1
 2210 09b5 9C       		.byte	0x9c
 2211 09b6 2A0A0000 		.4byte	0xa2a
 2212 09ba 2B       		.uleb128 0x2b
 2213 09bb 6D627000 		.ascii	"mbp\000"
 2214 09bf 01       		.byte	0x1
 2215 09c0 D0       		.byte	0xd0
 2216 09c1 1E       		.byte	0x1e
 2217 09c2 6E070000 		.4byte	0x76e
 2218 09c6 55020000 		.4byte	.LLST31
 2219 09ca 51020000 		.4byte	.LVUS31
 2220 09ce 2B       		.uleb128 0x2b
 2221 09cf 6D736700 		.ascii	"msg\000"
 2222 09d3 01       		.byte	0x1
 2223 09d4 D0       		.byte	0xd0
ARM GAS  /var/folders/l5/0x54b2c10074c8bt31ycjvl80000gp/T//cci54lkl.s 			page 40


 2224 09d5 29       		.byte	0x29
 2225 09d6 07010000 		.4byte	0x107
 2226 09da 7A020000 		.4byte	.LLST32
 2227 09de 76020000 		.4byte	.LVUS32
 2228 09e2 2C       		.uleb128 0x2c
 2229 09e3 E7030000 		.4byte	.LASF110
 2230 09e7 01       		.byte	0x1
 2231 09e8 D0       		.byte	0xd0
 2232 09e9 38       		.byte	0x38
 2233 09ea 1F010000 		.4byte	0x11f
 2234 09ee 9F020000 		.4byte	.LLST33
 2235 09f2 9B020000 		.4byte	.LVUS33
 2236 09f6 2D       		.uleb128 0x2d
 2237 09f7 20000000 		.4byte	.LASF83
 2238 09fb 01       		.byte	0x1
 2239 09fc D1       		.byte	0xd1
 2240 09fd 09       		.byte	0x9
 2241 09fe 07010000 		.4byte	0x107
 2242 0a02 C2020000 		.4byte	.LLST34
 2243 0a06 C0020000 		.4byte	.LVUS34
 2244 0a0a 17       		.uleb128 0x17
 2245 0a0b 0C000000 		.4byte	.LVL42
 2246 0a0f 5E090000 		.4byte	0x95e
 2247 0a13 18       		.uleb128 0x18
 2248 0a14 01       		.uleb128 0x1
 2249 0a15 50       		.byte	0x50
 2250 0a16 03       		.uleb128 0x3
 2251 0a17 F3       		.byte	0xf3
 2252 0a18 01       		.uleb128 0x1
 2253 0a19 50       		.byte	0x50
 2254 0a1a 18       		.uleb128 0x18
 2255 0a1b 01       		.uleb128 0x1
 2256 0a1c 51       		.byte	0x51
 2257 0a1d 03       		.uleb128 0x3
 2258 0a1e F3       		.byte	0xf3
 2259 0a1f 01       		.uleb128 0x1
 2260 0a20 51       		.byte	0x51
 2261 0a21 18       		.uleb128 0x18
 2262 0a22 01       		.uleb128 0x1
 2263 0a23 52       		.byte	0x52
 2264 0a24 03       		.uleb128 0x3
 2265 0a25 F3       		.byte	0xf3
 2266 0a26 01       		.uleb128 0x1
 2267 0a27 52       		.byte	0x52
 2268 0a28 00       		.byte	0
 2269 0a29 00       		.byte	0
 2270 0a2a 2A       		.uleb128 0x2a
 2271 0a2b 3A000000 		.4byte	.LASF117
 2272 0a2f 01       		.byte	0x1
 2273 0a30 AE       		.byte	0xae
 2274 0a31 07       		.byte	0x7
 2275 0a32 07010000 		.4byte	0x107
 2276 0a36 00000000 		.4byte	.LFB11
 2277 0a3a 50000000 		.4byte	.LFE11-.LFB11
 2278 0a3e 01       		.uleb128 0x1
 2279 0a3f 9C       		.byte	0x9c
 2280 0a40 800A0000 		.4byte	0xa80
ARM GAS  /var/folders/l5/0x54b2c10074c8bt31ycjvl80000gp/T//cci54lkl.s 			page 41


 2281 0a44 2B       		.uleb128 0x2b
 2282 0a45 6D627000 		.ascii	"mbp\000"
 2283 0a49 01       		.byte	0x1
 2284 0a4a AE       		.byte	0xae
 2285 0a4b 1A       		.byte	0x1a
 2286 0a4c 6E070000 		.4byte	0x76e
 2287 0a50 DF020000 		.4byte	.LLST22
 2288 0a54 D5020000 		.4byte	.LVUS22
 2289 0a58 2B       		.uleb128 0x2b
 2290 0a59 6D736700 		.ascii	"msg\000"
 2291 0a5d 01       		.byte	0x1
 2292 0a5e AE       		.byte	0xae
 2293 0a5f 25       		.byte	0x25
 2294 0a60 07010000 		.4byte	0x107
 2295 0a64 2C030000 		.4byte	.LLST23
 2296 0a68 26030000 		.4byte	.LVUS23
 2297 0a6c 17       		.uleb128 0x17
 2298 0a6d 40000000 		.4byte	.LVL30
 2299 0a71 470F0000 		.4byte	0xf47
 2300 0a75 18       		.uleb128 0x18
 2301 0a76 01       		.uleb128 0x1
 2302 0a77 50       		.byte	0x50
 2303 0a78 05       		.uleb128 0x5
 2304 0a79 F3       		.byte	0xf3
 2305 0a7a 01       		.uleb128 0x1
 2306 0a7b 50       		.byte	0x50
 2307 0a7c 23       		.byte	0x23
 2308 0a7d 10       		.uleb128 0x10
 2309 0a7e 00       		.byte	0
 2310 0a7f 00       		.byte	0
 2311 0a80 26       		.uleb128 0x26
 2312 0a81 4B000000 		.4byte	.LASF118
 2313 0a85 01       		.byte	0x1
 2314 0a86 8F       		.byte	0x8f
 2315 0a87 07       		.byte	0x7
 2316 0a88 07010000 		.4byte	0x107
 2317 0a8c 01       		.byte	0x1
 2318 0a8d C20A0000 		.4byte	0xac2
 2319 0a91 27       		.uleb128 0x27
 2320 0a92 6D627000 		.ascii	"mbp\000"
 2321 0a96 01       		.byte	0x1
 2322 0a97 8F       		.byte	0x8f
 2323 0a98 1A       		.byte	0x1a
 2324 0a99 6E070000 		.4byte	0x76e
 2325 0a9d 27       		.uleb128 0x27
 2326 0a9e 6D736700 		.ascii	"msg\000"
 2327 0aa2 01       		.byte	0x1
 2328 0aa3 8F       		.byte	0x8f
 2329 0aa4 25       		.byte	0x25
 2330 0aa5 07010000 		.4byte	0x107
 2331 0aa9 28       		.uleb128 0x28
 2332 0aaa E7030000 		.4byte	.LASF110
 2333 0aae 01       		.byte	0x1
 2334 0aaf 8F       		.byte	0x8f
 2335 0ab0 34       		.byte	0x34
 2336 0ab1 1F010000 		.4byte	0x11f
 2337 0ab5 29       		.uleb128 0x29
ARM GAS  /var/folders/l5/0x54b2c10074c8bt31ycjvl80000gp/T//cci54lkl.s 			page 42


 2338 0ab6 20000000 		.4byte	.LASF83
 2339 0aba 01       		.byte	0x1
 2340 0abb 90       		.byte	0x90
 2341 0abc 09       		.byte	0x9
 2342 0abd 07010000 		.4byte	0x107
 2343 0ac1 00       		.byte	0
 2344 0ac2 2A       		.uleb128 0x2a
 2345 0ac3 AF040000 		.4byte	.LASF119
 2346 0ac7 01       		.byte	0x1
 2347 0ac8 73       		.byte	0x73
 2348 0ac9 07       		.byte	0x7
 2349 0aca 07010000 		.4byte	0x107
 2350 0ace 00000000 		.4byte	.LFB9
 2351 0ad2 58000000 		.4byte	.LFE9-.LFB9
 2352 0ad6 01       		.uleb128 0x1
 2353 0ad7 9C       		.byte	0x9c
 2354 0ad8 050C0000 		.4byte	0xc05
 2355 0adc 2B       		.uleb128 0x2b
 2356 0add 6D627000 		.ascii	"mbp\000"
 2357 0ae1 01       		.byte	0x1
 2358 0ae2 73       		.byte	0x73
 2359 0ae3 19       		.byte	0x19
 2360 0ae4 6E070000 		.4byte	0x76e
 2361 0ae8 5C030000 		.4byte	.LLST4
 2362 0aec 58030000 		.4byte	.LVUS4
 2363 0af0 2B       		.uleb128 0x2b
 2364 0af1 6D736700 		.ascii	"msg\000"
 2365 0af5 01       		.byte	0x1
 2366 0af6 73       		.byte	0x73
 2367 0af7 24       		.byte	0x24
 2368 0af8 07010000 		.4byte	0x107
 2369 0afc 7E030000 		.4byte	.LLST5
 2370 0b00 7A030000 		.4byte	.LVUS5
 2371 0b04 2C       		.uleb128 0x2c
 2372 0b05 E7030000 		.4byte	.LASF110
 2373 0b09 01       		.byte	0x1
 2374 0b0a 73       		.byte	0x73
 2375 0b0b 33       		.byte	0x33
 2376 0b0c 1F010000 		.4byte	0x11f
 2377 0b10 A0030000 		.4byte	.LLST6
 2378 0b14 9C030000 		.4byte	.LVUS6
 2379 0b18 2D       		.uleb128 0x2d
 2380 0b19 20000000 		.4byte	.LASF83
 2381 0b1d 01       		.byte	0x1
 2382 0b1e 74       		.byte	0x74
 2383 0b1f 09       		.byte	0x9
 2384 0b20 07010000 		.4byte	0x107
 2385 0b24 C3030000 		.4byte	.LLST7
 2386 0b28 C1030000 		.4byte	.LVUS7
 2387 0b2c 2E       		.uleb128 0x2e
 2388 0b2d 800A0000 		.4byte	0xa80
 2389 0b31 10000000 		.4byte	.LBI10
 2390 0b35 03       		.byte	.LVU49
 2391 0b36 10000000 		.4byte	.LBB10
 2392 0b3a 3C000000 		.4byte	.LBE10-.LBB10
 2393 0b3e 01       		.byte	0x1
 2394 0b3f 77       		.byte	0x77
ARM GAS  /var/folders/l5/0x54b2c10074c8bt31ycjvl80000gp/T//cci54lkl.s 			page 43


 2395 0b40 0C       		.byte	0xc
 2396 0b41 1F       		.uleb128 0x1f
 2397 0b42 A90A0000 		.4byte	0xaa9
 2398 0b46 DA030000 		.4byte	.LLST8
 2399 0b4a D6030000 		.4byte	.LVUS8
 2400 0b4e 1F       		.uleb128 0x1f
 2401 0b4f 9D0A0000 		.4byte	0xa9d
 2402 0b53 FF030000 		.4byte	.LLST9
 2403 0b57 FB030000 		.4byte	.LVUS9
 2404 0b5b 1F       		.uleb128 0x1f
 2405 0b5c 910A0000 		.4byte	0xa91
 2406 0b60 21040000 		.4byte	.LLST10
 2407 0b64 1D040000 		.4byte	.LVUS10
 2408 0b68 20       		.uleb128 0x20
 2409 0b69 10000000 		.4byte	.LBB11
 2410 0b6d 3C000000 		.4byte	.LBE11-.LBB11
 2411 0b71 21       		.uleb128 0x21
 2412 0b72 B50A0000 		.4byte	0xab5
 2413 0b76 43040000 		.4byte	.LLST11
 2414 0b7a 3F040000 		.4byte	.LVUS11
 2415 0b7e 2F       		.uleb128 0x2f
 2416 0b7f 800A0000 		.4byte	0xa80
 2417 0b83 24000000 		.4byte	.LBI12
 2418 0b87 00       		.byte	.LVU61
 2419 0b88 24000000 		.4byte	.LBB12
 2420 0b8c 28000000 		.4byte	.LBE12-.LBB12
 2421 0b90 01       		.byte	0x1
 2422 0b91 8F       		.byte	0x8f
 2423 0b92 07       		.byte	0x7
 2424 0b93 EB0B0000 		.4byte	0xbeb
 2425 0b97 1F       		.uleb128 0x1f
 2426 0b98 A90A0000 		.4byte	0xaa9
 2427 0b9c 63040000 		.4byte	.LLST12
 2428 0ba0 61040000 		.4byte	.LVUS12
 2429 0ba4 1F       		.uleb128 0x1f
 2430 0ba5 9D0A0000 		.4byte	0xa9d
 2431 0ba9 7B040000 		.4byte	.LLST13
 2432 0bad 79040000 		.4byte	.LVUS13
 2433 0bb1 1F       		.uleb128 0x1f
 2434 0bb2 910A0000 		.4byte	0xa91
 2435 0bb6 90040000 		.4byte	.LLST14
 2436 0bba 8E040000 		.4byte	.LVUS14
 2437 0bbe 20       		.uleb128 0x20
 2438 0bbf 24000000 		.4byte	.LBB13
 2439 0bc3 28000000 		.4byte	.LBE13-.LBB13
 2440 0bc7 23       		.uleb128 0x23
 2441 0bc8 B50A0000 		.4byte	0xab5
 2442 0bcc 24       		.uleb128 0x24
 2443 0bcd 48000000 		.4byte	.LVL18
 2444 0bd1 470F0000 		.4byte	0xf47
 2445 0bd5 E00B0000 		.4byte	0xbe0
 2446 0bd9 18       		.uleb128 0x18
 2447 0bda 01       		.uleb128 0x1
 2448 0bdb 50       		.byte	0x50
 2449 0bdc 02       		.uleb128 0x2
 2450 0bdd 74       		.byte	0x74
 2451 0bde 10       		.sleb128 16
ARM GAS  /var/folders/l5/0x54b2c10074c8bt31ycjvl80000gp/T//cci54lkl.s 			page 44


 2452 0bdf 00       		.byte	0
 2453 0be0 25       		.uleb128 0x25
 2454 0be1 4C000000 		.4byte	.LVL19
 2455 0be5 530F0000 		.4byte	0xf53
 2456 0be9 00       		.byte	0
 2457 0bea 00       		.byte	0
 2458 0beb 17       		.uleb128 0x17
 2459 0bec 1C000000 		.4byte	.LVL15
 2460 0bf0 5F0F0000 		.4byte	0xf5f
 2461 0bf4 18       		.uleb128 0x18
 2462 0bf5 01       		.uleb128 0x1
 2463 0bf6 50       		.byte	0x50
 2464 0bf7 02       		.uleb128 0x2
 2465 0bf8 74       		.byte	0x74
 2466 0bf9 1C       		.sleb128 28
 2467 0bfa 18       		.uleb128 0x18
 2468 0bfb 01       		.uleb128 0x1
 2469 0bfc 51       		.byte	0x51
 2470 0bfd 03       		.uleb128 0x3
 2471 0bfe F3       		.byte	0xf3
 2472 0bff 01       		.uleb128 0x1
 2473 0c00 52       		.byte	0x52
 2474 0c01 00       		.byte	0
 2475 0c02 00       		.byte	0
 2476 0c03 00       		.byte	0
 2477 0c04 00       		.byte	0
 2478 0c05 30       		.uleb128 0x30
 2479 0c06 7D030000 		.4byte	.LASF120
 2480 0c0a 01       		.byte	0x1
 2481 0c0b 54       		.byte	0x54
 2482 0c0c 06       		.byte	0x6
 2483 0c0d 00000000 		.4byte	.LFB8
 2484 0c11 44000000 		.4byte	.LFE8-.LFB8
 2485 0c15 01       		.uleb128 0x1
 2486 0c16 9C       		.byte	0x9c
 2487 0c17 660C0000 		.4byte	0xc66
 2488 0c1b 2B       		.uleb128 0x2b
 2489 0c1c 6D627000 		.ascii	"mbp\000"
 2490 0c20 01       		.byte	0x1
 2491 0c21 54       		.byte	0x54
 2492 0c22 19       		.byte	0x19
 2493 0c23 6E070000 		.4byte	0x76e
 2494 0c27 A7040000 		.4byte	.LLST3
 2495 0c2b A3040000 		.4byte	.LVUS3
 2496 0c2f 24       		.uleb128 0x24
 2497 0c30 2C000000 		.4byte	.LVL8
 2498 0c34 6B0F0000 		.4byte	0xf6b
 2499 0c38 430C0000 		.4byte	0xc43
 2500 0c3c 18       		.uleb128 0x18
 2501 0c3d 01       		.uleb128 0x1
 2502 0c3e 50       		.byte	0x50
 2503 0c3f 02       		.uleb128 0x2
 2504 0c40 74       		.byte	0x74
 2505 0c41 1C       		.sleb128 28
 2506 0c42 00       		.byte	0
 2507 0c43 24       		.uleb128 0x24
 2508 0c44 38000000 		.4byte	.LVL9
ARM GAS  /var/folders/l5/0x54b2c10074c8bt31ycjvl80000gp/T//cci54lkl.s 			page 45


 2509 0c48 6B0F0000 		.4byte	0xf6b
 2510 0c4c 5C0C0000 		.4byte	0xc5c
 2511 0c50 18       		.uleb128 0x18
 2512 0c51 01       		.uleb128 0x1
 2513 0c52 50       		.byte	0x50
 2514 0c53 02       		.uleb128 0x2
 2515 0c54 74       		.byte	0x74
 2516 0c55 10       		.sleb128 16
 2517 0c56 18       		.uleb128 0x18
 2518 0c57 01       		.uleb128 0x1
 2519 0c58 51       		.byte	0x51
 2520 0c59 01       		.uleb128 0x1
 2521 0c5a 30       		.byte	0x30
 2522 0c5b 00       		.byte	0
 2523 0c5c 25       		.uleb128 0x25
 2524 0c5d 3C000000 		.4byte	.LVL10
 2525 0c61 530F0000 		.4byte	0xf53
 2526 0c65 00       		.byte	0
 2527 0c66 30       		.uleb128 0x30
 2528 0c67 9A000000 		.4byte	.LASF121
 2529 0c6b 01       		.byte	0x1
 2530 0c6c 41       		.byte	0x41
 2531 0c6d 06       		.byte	0x6
 2532 0c6e 00000000 		.4byte	.LFB7
 2533 0c72 3C000000 		.4byte	.LFE7-.LFB7
 2534 0c76 01       		.uleb128 0x1
 2535 0c77 9C       		.byte	0x9c
 2536 0c78 EA0C0000 		.4byte	0xcea
 2537 0c7c 2B       		.uleb128 0x2b
 2538 0c7d 6D627000 		.ascii	"mbp\000"
 2539 0c81 01       		.byte	0x1
 2540 0c82 41       		.byte	0x41
 2541 0c83 18       		.byte	0x18
 2542 0c84 6E070000 		.4byte	0x76e
 2543 0c88 CD040000 		.4byte	.LLST0
 2544 0c8c C5040000 		.4byte	.LVUS0
 2545 0c90 2B       		.uleb128 0x2b
 2546 0c91 62756600 		.ascii	"buf\000"
 2547 0c95 01       		.byte	0x1
 2548 0c96 41       		.byte	0x41
 2549 0c97 24       		.byte	0x24
 2550 0c98 74050000 		.4byte	0x574
 2551 0c9c 0C050000 		.4byte	.LLST1
 2552 0ca0 06050000 		.4byte	.LVUS1
 2553 0ca4 2B       		.uleb128 0x2b
 2554 0ca5 6E00     		.ascii	"n\000"
 2555 0ca7 01       		.byte	0x1
 2556 0ca8 41       		.byte	0x41
 2557 0ca9 2F       		.byte	0x2f
 2558 0caa 30010000 		.4byte	0x130
 2559 0cae 3C050000 		.4byte	.LLST2
 2560 0cb2 38050000 		.4byte	.LVUS2
 2561 0cb6 24       		.uleb128 0x24
 2562 0cb7 2C000000 		.4byte	.LVL3
 2563 0cbb 770F0000 		.4byte	0xf77
 2564 0cbf D10C0000 		.4byte	0xcd1
 2565 0cc3 18       		.uleb128 0x18
ARM GAS  /var/folders/l5/0x54b2c10074c8bt31ycjvl80000gp/T//cci54lkl.s 			page 46


 2566 0cc4 01       		.uleb128 0x1
 2567 0cc5 50       		.byte	0x50
 2568 0cc6 02       		.uleb128 0x2
 2569 0cc7 74       		.byte	0x74
 2570 0cc8 1C       		.sleb128 28
 2571 0cc9 18       		.uleb128 0x18
 2572 0cca 01       		.uleb128 0x1
 2573 0ccb 51       		.byte	0x51
 2574 0ccc 03       		.uleb128 0x3
 2575 0ccd F3       		.byte	0xf3
 2576 0cce 01       		.uleb128 0x1
 2577 0ccf 52       		.byte	0x52
 2578 0cd0 00       		.byte	0
 2579 0cd1 31       		.uleb128 0x31
 2580 0cd2 3C000000 		.4byte	.LVL5
 2581 0cd6 770F0000 		.4byte	0xf77
 2582 0cda 18       		.uleb128 0x18
 2583 0cdb 01       		.uleb128 0x1
 2584 0cdc 50       		.byte	0x50
 2585 0cdd 05       		.uleb128 0x5
 2586 0cde F3       		.byte	0xf3
 2587 0cdf 01       		.uleb128 0x1
 2588 0ce0 50       		.byte	0x50
 2589 0ce1 23       		.byte	0x23
 2590 0ce2 10       		.uleb128 0x10
 2591 0ce3 18       		.uleb128 0x18
 2592 0ce4 01       		.uleb128 0x1
 2593 0ce5 51       		.byte	0x51
 2594 0ce6 01       		.uleb128 0x1
 2595 0ce7 30       		.byte	0x30
 2596 0ce8 00       		.byte	0
 2597 0ce9 00       		.byte	0
 2598 0cea 32       		.uleb128 0x32
 2599 0ceb 800A0000 		.4byte	0xa80
 2600 0cef 00000000 		.4byte	.LFB10
 2601 0cf3 50000000 		.4byte	.LFE10-.LFB10
 2602 0cf7 01       		.uleb128 0x1
 2603 0cf8 9C       		.byte	0x9c
 2604 0cf9 B60D0000 		.4byte	0xdb6
 2605 0cfd 1F       		.uleb128 0x1f
 2606 0cfe 910A0000 		.4byte	0xa91
 2607 0d02 61050000 		.4byte	.LLST15
 2608 0d06 5D050000 		.4byte	.LVUS15
 2609 0d0a 1F       		.uleb128 0x1f
 2610 0d0b 9D0A0000 		.4byte	0xa9d
 2611 0d0f 83050000 		.4byte	.LLST16
 2612 0d13 7F050000 		.4byte	.LVUS16
 2613 0d17 1F       		.uleb128 0x1f
 2614 0d18 A90A0000 		.4byte	0xaa9
 2615 0d1c A5050000 		.4byte	.LLST17
 2616 0d20 A1050000 		.4byte	.LVUS17
 2617 0d24 21       		.uleb128 0x21
 2618 0d25 B50A0000 		.4byte	0xab5
 2619 0d29 CA050000 		.4byte	.LLST18
 2620 0d2d C6050000 		.4byte	.LVUS18
 2621 0d31 2F       		.uleb128 0x2f
 2622 0d32 800A0000 		.4byte	0xa80
ARM GAS  /var/folders/l5/0x54b2c10074c8bt31ycjvl80000gp/T//cci54lkl.s 			page 47


 2623 0d36 20000000 		.4byte	.LBI16
 2624 0d3a 00       		.byte	.LVU98
 2625 0d3b 20000000 		.4byte	.LBB16
 2626 0d3f 28000000 		.4byte	.LBE16-.LBB16
 2627 0d43 01       		.byte	0x1
 2628 0d44 8F       		.byte	0x8f
 2629 0d45 07       		.byte	0x7
 2630 0d46 9E0D0000 		.4byte	0xd9e
 2631 0d4a 1F       		.uleb128 0x1f
 2632 0d4b A90A0000 		.4byte	0xaa9
 2633 0d4f EA050000 		.4byte	.LLST19
 2634 0d53 E8050000 		.4byte	.LVUS19
 2635 0d57 1F       		.uleb128 0x1f
 2636 0d58 9D0A0000 		.4byte	0xa9d
 2637 0d5c 02060000 		.4byte	.LLST20
 2638 0d60 00060000 		.4byte	.LVUS20
 2639 0d64 1F       		.uleb128 0x1f
 2640 0d65 910A0000 		.4byte	0xa91
 2641 0d69 17060000 		.4byte	.LLST21
 2642 0d6d 15060000 		.4byte	.LVUS21
 2643 0d71 20       		.uleb128 0x20
 2644 0d72 20000000 		.4byte	.LBB17
 2645 0d76 28000000 		.4byte	.LBE17-.LBB17
 2646 0d7a 23       		.uleb128 0x23
 2647 0d7b B50A0000 		.4byte	0xab5
 2648 0d7f 24       		.uleb128 0x24
 2649 0d80 44000000 		.4byte	.LVL26
 2650 0d84 470F0000 		.4byte	0xf47
 2651 0d88 930D0000 		.4byte	0xd93
 2652 0d8c 18       		.uleb128 0x18
 2653 0d8d 01       		.uleb128 0x1
 2654 0d8e 50       		.byte	0x50
 2655 0d8f 02       		.uleb128 0x2
 2656 0d90 74       		.byte	0x74
 2657 0d91 10       		.sleb128 16
 2658 0d92 00       		.byte	0
 2659 0d93 25       		.uleb128 0x25
 2660 0d94 48000000 		.4byte	.LVL27
 2661 0d98 530F0000 		.4byte	0xf53
 2662 0d9c 00       		.byte	0
 2663 0d9d 00       		.byte	0
 2664 0d9e 17       		.uleb128 0x17
 2665 0d9f 18000000 		.4byte	.LVL23
 2666 0da3 5F0F0000 		.4byte	0xf5f
 2667 0da7 18       		.uleb128 0x18
 2668 0da8 01       		.uleb128 0x1
 2669 0da9 50       		.byte	0x50
 2670 0daa 02       		.uleb128 0x2
 2671 0dab 74       		.byte	0x74
 2672 0dac 1C       		.sleb128 28
 2673 0dad 18       		.uleb128 0x18
 2674 0dae 01       		.uleb128 0x1
 2675 0daf 51       		.byte	0x51
 2676 0db0 03       		.uleb128 0x3
 2677 0db1 F3       		.byte	0xf3
 2678 0db2 01       		.uleb128 0x1
 2679 0db3 52       		.byte	0x52
ARM GAS  /var/folders/l5/0x54b2c10074c8bt31ycjvl80000gp/T//cci54lkl.s 			page 48


 2680 0db4 00       		.byte	0
 2681 0db5 00       		.byte	0
 2682 0db6 32       		.uleb128 0x32
 2683 0db7 5E090000 		.4byte	0x95e
 2684 0dbb 00000000 		.4byte	.LFB13
 2685 0dbf 58000000 		.4byte	.LFE13-.LFB13
 2686 0dc3 01       		.uleb128 0x1
 2687 0dc4 9C       		.byte	0x9c
 2688 0dc5 7A0E0000 		.4byte	0xe7a
 2689 0dc9 1F       		.uleb128 0x1f
 2690 0dca 6F090000 		.4byte	0x96f
 2691 0dce 2E060000 		.4byte	.LLST24
 2692 0dd2 2A060000 		.4byte	.LVUS24
 2693 0dd6 1F       		.uleb128 0x1f
 2694 0dd7 7B090000 		.4byte	0x97b
 2695 0ddb 50060000 		.4byte	.LLST25
 2696 0ddf 4C060000 		.4byte	.LVUS25
 2697 0de3 1F       		.uleb128 0x1f
 2698 0de4 87090000 		.4byte	0x987
 2699 0de8 72060000 		.4byte	.LLST26
 2700 0dec 6E060000 		.4byte	.LVUS26
 2701 0df0 21       		.uleb128 0x21
 2702 0df1 93090000 		.4byte	0x993
 2703 0df5 97060000 		.4byte	.LLST27
 2704 0df9 93060000 		.4byte	.LVUS27
 2705 0dfd 33       		.uleb128 0x33
 2706 0dfe 5E090000 		.4byte	0x95e
 2707 0e02 34000000 		.4byte	.LBI20
 2708 0e06 01       		.byte	.LVU165
 2709 0e07 00000000 		.4byte	.Ldebug_ranges0+0
 2710 0e0b 01       		.byte	0x1
 2711 0e0c EC       		.byte	0xec
 2712 0e0d 07       		.byte	0x7
 2713 0e0e 620E0000 		.4byte	0xe62
 2714 0e12 1F       		.uleb128 0x1f
 2715 0e13 87090000 		.4byte	0x987
 2716 0e17 B7060000 		.4byte	.LLST28
 2717 0e1b B5060000 		.4byte	.LVUS28
 2718 0e1f 1F       		.uleb128 0x1f
 2719 0e20 7B090000 		.4byte	0x97b
 2720 0e24 CF060000 		.4byte	.LLST29
 2721 0e28 CD060000 		.4byte	.LVUS29
 2722 0e2c 1F       		.uleb128 0x1f
 2723 0e2d 6F090000 		.4byte	0x96f
 2724 0e31 E4060000 		.4byte	.LLST30
 2725 0e35 E2060000 		.4byte	.LVUS30
 2726 0e39 34       		.uleb128 0x34
 2727 0e3a 00000000 		.4byte	.Ldebug_ranges0+0
 2728 0e3e 23       		.uleb128 0x23
 2729 0e3f 93090000 		.4byte	0x993
 2730 0e43 24       		.uleb128 0x24
 2731 0e44 4C000000 		.4byte	.LVL39
 2732 0e48 470F0000 		.4byte	0xf47
 2733 0e4c 570E0000 		.4byte	0xe57
 2734 0e50 18       		.uleb128 0x18
 2735 0e51 01       		.uleb128 0x1
 2736 0e52 50       		.byte	0x50
ARM GAS  /var/folders/l5/0x54b2c10074c8bt31ycjvl80000gp/T//cci54lkl.s 			page 49


 2737 0e53 02       		.uleb128 0x2
 2738 0e54 74       		.byte	0x74
 2739 0e55 10       		.sleb128 16
 2740 0e56 00       		.byte	0
 2741 0e57 25       		.uleb128 0x25
 2742 0e58 50000000 		.4byte	.LVL40
 2743 0e5c 530F0000 		.4byte	0xf53
 2744 0e60 00       		.byte	0
 2745 0e61 00       		.byte	0
 2746 0e62 17       		.uleb128 0x17
 2747 0e63 18000000 		.4byte	.LVL36
 2748 0e67 5F0F0000 		.4byte	0xf5f
 2749 0e6b 18       		.uleb128 0x18
 2750 0e6c 01       		.uleb128 0x1
 2751 0e6d 50       		.byte	0x50
 2752 0e6e 02       		.uleb128 0x2
 2753 0e6f 74       		.byte	0x74
 2754 0e70 1C       		.sleb128 28
 2755 0e71 18       		.uleb128 0x18
 2756 0e72 01       		.uleb128 0x1
 2757 0e73 51       		.byte	0x51
 2758 0e74 03       		.uleb128 0x3
 2759 0e75 F3       		.byte	0xf3
 2760 0e76 01       		.uleb128 0x1
 2761 0e77 52       		.byte	0x52
 2762 0e78 00       		.byte	0
 2763 0e79 00       		.byte	0
 2764 0e7a 32       		.uleb128 0x32
 2765 0e7b 74070000 		.4byte	0x774
 2766 0e7f 00000000 		.4byte	.LFB16
 2767 0e83 58000000 		.4byte	.LFE16-.LFB16
 2768 0e87 01       		.uleb128 0x1
 2769 0e88 9C       		.byte	0x9c
 2770 0e89 470F0000 		.4byte	0xf47
 2771 0e8d 1F       		.uleb128 0x1f
 2772 0e8e 86070000 		.4byte	0x786
 2773 0e92 FB060000 		.4byte	.LLST48
 2774 0e96 F7060000 		.4byte	.LVUS48
 2775 0e9a 1F       		.uleb128 0x1f
 2776 0e9b 93070000 		.4byte	0x793
 2777 0e9f 1D070000 		.4byte	.LLST49
 2778 0ea3 19070000 		.4byte	.LVUS49
 2779 0ea7 1F       		.uleb128 0x1f
 2780 0ea8 A0070000 		.4byte	0x7a0
 2781 0eac 3F070000 		.4byte	.LLST50
 2782 0eb0 3B070000 		.4byte	.LVUS50
 2783 0eb4 21       		.uleb128 0x21
 2784 0eb5 AD070000 		.4byte	0x7ad
 2785 0eb9 64070000 		.4byte	.LLST51
 2786 0ebd 60070000 		.4byte	.LVUS51
 2787 0ec1 22       		.uleb128 0x22
 2788 0ec2 74070000 		.4byte	0x774
 2789 0ec6 20000000 		.4byte	.LBI36
 2790 0eca 00       		.byte	.LVU280
 2791 0ecb 20000000 		.4byte	.LBB36
 2792 0ecf 30000000 		.4byte	.LBE36-.LBB36
 2793 0ed3 01       		.byte	0x1
ARM GAS  /var/folders/l5/0x54b2c10074c8bt31ycjvl80000gp/T//cci54lkl.s 			page 50


 2794 0ed4 4901     		.2byte	0x149
 2795 0ed6 07       		.byte	0x7
 2796 0ed7 2F0F0000 		.4byte	0xf2f
 2797 0edb 1F       		.uleb128 0x1f
 2798 0edc A0070000 		.4byte	0x7a0
 2799 0ee0 84070000 		.4byte	.LLST52
 2800 0ee4 82070000 		.4byte	.LVUS52
 2801 0ee8 1F       		.uleb128 0x1f
 2802 0ee9 93070000 		.4byte	0x793
 2803 0eed 9C070000 		.4byte	.LLST53
 2804 0ef1 9A070000 		.4byte	.LVUS53
 2805 0ef5 1F       		.uleb128 0x1f
 2806 0ef6 86070000 		.4byte	0x786
 2807 0efa B1070000 		.4byte	.LLST54
 2808 0efe AF070000 		.4byte	.LVUS54
 2809 0f02 20       		.uleb128 0x20
 2810 0f03 20000000 		.4byte	.LBB37
 2811 0f07 30000000 		.4byte	.LBE37-.LBB37
 2812 0f0b 23       		.uleb128 0x23
 2813 0f0c AD070000 		.4byte	0x7ad
 2814 0f10 24       		.uleb128 0x24
 2815 0f11 4C000000 		.4byte	.LVL63
 2816 0f15 470F0000 		.4byte	0xf47
 2817 0f19 240F0000 		.4byte	0xf24
 2818 0f1d 18       		.uleb128 0x18
 2819 0f1e 01       		.uleb128 0x1
 2820 0f1f 50       		.byte	0x50
 2821 0f20 02       		.uleb128 0x2
 2822 0f21 74       		.byte	0x74
 2823 0f22 1C       		.sleb128 28
 2824 0f23 00       		.byte	0
 2825 0f24 25       		.uleb128 0x25
 2826 0f25 50000000 		.4byte	.LVL64
 2827 0f29 530F0000 		.4byte	0xf53
 2828 0f2d 00       		.byte	0
 2829 0f2e 00       		.byte	0
 2830 0f2f 17       		.uleb128 0x17
 2831 0f30 18000000 		.4byte	.LVL60
 2832 0f34 5F0F0000 		.4byte	0xf5f
 2833 0f38 18       		.uleb128 0x18
 2834 0f39 01       		.uleb128 0x1
 2835 0f3a 50       		.byte	0x50
 2836 0f3b 02       		.uleb128 0x2
 2837 0f3c 74       		.byte	0x74
 2838 0f3d 10       		.sleb128 16
 2839 0f3e 18       		.uleb128 0x18
 2840 0f3f 01       		.uleb128 0x1
 2841 0f40 51       		.byte	0x51
 2842 0f41 03       		.uleb128 0x3
 2843 0f42 F3       		.byte	0xf3
 2844 0f43 01       		.uleb128 0x1
 2845 0f44 52       		.byte	0x52
 2846 0f45 00       		.byte	0
 2847 0f46 00       		.byte	0
 2848 0f47 35       		.uleb128 0x35
 2849 0f48 13000000 		.4byte	.LASF122
 2850 0f4c 13000000 		.4byte	.LASF122
ARM GAS  /var/folders/l5/0x54b2c10074c8bt31ycjvl80000gp/T//cci54lkl.s 			page 51


 2851 0f50 0A       		.byte	0xa
 2852 0f51 36       		.byte	0x36
 2853 0f52 08       		.byte	0x8
 2854 0f53 35       		.uleb128 0x35
 2855 0f54 7C010000 		.4byte	.LASF123
 2856 0f58 7C010000 		.4byte	.LASF123
 2857 0f5c 09       		.byte	0x9
 2858 0f5d 95       		.byte	0x95
 2859 0f5e 08       		.byte	0x8
 2860 0f5f 35       		.uleb128 0x35
 2861 0f60 06050000 		.4byte	.LASF124
 2862 0f64 06050000 		.4byte	.LASF124
 2863 0f68 0A       		.byte	0xa
 2864 0f69 34       		.byte	0x34
 2865 0f6a 09       		.byte	0x9
 2866 0f6b 35       		.uleb128 0x35
 2867 0f6c B2050000 		.4byte	.LASF125
 2868 0f70 B2050000 		.4byte	.LASF125
 2869 0f74 0A       		.byte	0xa
 2870 0f75 30       		.byte	0x30
 2871 0f76 08       		.byte	0x8
 2872 0f77 35       		.uleb128 0x35
 2873 0f78 0F060000 		.4byte	.LASF126
 2874 0f7c 0F060000 		.4byte	.LASF126
 2875 0f80 0A       		.byte	0xa
 2876 0f81 2E       		.byte	0x2e
 2877 0f82 08       		.byte	0x8
 2878 0f83 00       		.byte	0
 2879              		.section	.debug_abbrev,"",%progbits
 2880              	.Ldebug_abbrev0:
 2881 0000 01       		.uleb128 0x1
 2882 0001 11       		.uleb128 0x11
 2883 0002 01       		.byte	0x1
 2884 0003 25       		.uleb128 0x25
 2885 0004 0E       		.uleb128 0xe
 2886 0005 13       		.uleb128 0x13
 2887 0006 0B       		.uleb128 0xb
 2888 0007 03       		.uleb128 0x3
 2889 0008 0E       		.uleb128 0xe
 2890 0009 1B       		.uleb128 0x1b
 2891 000a 0E       		.uleb128 0xe
 2892 000b 55       		.uleb128 0x55
 2893 000c 17       		.uleb128 0x17
 2894 000d 11       		.uleb128 0x11
 2895 000e 01       		.uleb128 0x1
 2896 000f 10       		.uleb128 0x10
 2897 0010 17       		.uleb128 0x17
 2898 0011 00       		.byte	0
 2899 0012 00       		.byte	0
 2900 0013 02       		.uleb128 0x2
 2901 0014 24       		.uleb128 0x24
 2902 0015 00       		.byte	0
 2903 0016 0B       		.uleb128 0xb
 2904 0017 0B       		.uleb128 0xb
 2905 0018 3E       		.uleb128 0x3e
 2906 0019 0B       		.uleb128 0xb
 2907 001a 03       		.uleb128 0x3
ARM GAS  /var/folders/l5/0x54b2c10074c8bt31ycjvl80000gp/T//cci54lkl.s 			page 52


 2908 001b 08       		.uleb128 0x8
 2909 001c 00       		.byte	0
 2910 001d 00       		.byte	0
 2911 001e 03       		.uleb128 0x3
 2912 001f 24       		.uleb128 0x24
 2913 0020 00       		.byte	0
 2914 0021 0B       		.uleb128 0xb
 2915 0022 0B       		.uleb128 0xb
 2916 0023 3E       		.uleb128 0x3e
 2917 0024 0B       		.uleb128 0xb
 2918 0025 03       		.uleb128 0x3
 2919 0026 0E       		.uleb128 0xe
 2920 0027 00       		.byte	0
 2921 0028 00       		.byte	0
 2922 0029 04       		.uleb128 0x4
 2923 002a 16       		.uleb128 0x16
 2924 002b 00       		.byte	0
 2925 002c 03       		.uleb128 0x3
 2926 002d 0E       		.uleb128 0xe
 2927 002e 3A       		.uleb128 0x3a
 2928 002f 0B       		.uleb128 0xb
 2929 0030 3B       		.uleb128 0x3b
 2930 0031 0B       		.uleb128 0xb
 2931 0032 39       		.uleb128 0x39
 2932 0033 0B       		.uleb128 0xb
 2933 0034 49       		.uleb128 0x49
 2934 0035 13       		.uleb128 0x13
 2935 0036 00       		.byte	0
 2936 0037 00       		.byte	0
 2937 0038 05       		.uleb128 0x5
 2938 0039 35       		.uleb128 0x35
 2939 003a 00       		.byte	0
 2940 003b 49       		.uleb128 0x49
 2941 003c 13       		.uleb128 0x13
 2942 003d 00       		.byte	0
 2943 003e 00       		.byte	0
 2944 003f 06       		.uleb128 0x6
 2945 0040 13       		.uleb128 0x13
 2946 0041 01       		.byte	0x1
 2947 0042 03       		.uleb128 0x3
 2948 0043 0E       		.uleb128 0xe
 2949 0044 0B       		.uleb128 0xb
 2950 0045 0B       		.uleb128 0xb
 2951 0046 3A       		.uleb128 0x3a
 2952 0047 0B       		.uleb128 0xb
 2953 0048 3B       		.uleb128 0x3b
 2954 0049 0B       		.uleb128 0xb
 2955 004a 39       		.uleb128 0x39
 2956 004b 0B       		.uleb128 0xb
 2957 004c 01       		.uleb128 0x1
 2958 004d 13       		.uleb128 0x13
 2959 004e 00       		.byte	0
 2960 004f 00       		.byte	0
 2961 0050 07       		.uleb128 0x7
 2962 0051 0D       		.uleb128 0xd
 2963 0052 00       		.byte	0
 2964 0053 03       		.uleb128 0x3
ARM GAS  /var/folders/l5/0x54b2c10074c8bt31ycjvl80000gp/T//cci54lkl.s 			page 53


 2965 0054 0E       		.uleb128 0xe
 2966 0055 3A       		.uleb128 0x3a
 2967 0056 0B       		.uleb128 0xb
 2968 0057 3B       		.uleb128 0x3b
 2969 0058 0B       		.uleb128 0xb
 2970 0059 39       		.uleb128 0x39
 2971 005a 0B       		.uleb128 0xb
 2972 005b 49       		.uleb128 0x49
 2973 005c 13       		.uleb128 0x13
 2974 005d 38       		.uleb128 0x38
 2975 005e 0B       		.uleb128 0xb
 2976 005f 00       		.byte	0
 2977 0060 00       		.byte	0
 2978 0061 08       		.uleb128 0x8
 2979 0062 0D       		.uleb128 0xd
 2980 0063 00       		.byte	0
 2981 0064 03       		.uleb128 0x3
 2982 0065 08       		.uleb128 0x8
 2983 0066 3A       		.uleb128 0x3a
 2984 0067 0B       		.uleb128 0xb
 2985 0068 3B       		.uleb128 0x3b
 2986 0069 0B       		.uleb128 0xb
 2987 006a 39       		.uleb128 0x39
 2988 006b 0B       		.uleb128 0xb
 2989 006c 49       		.uleb128 0x49
 2990 006d 13       		.uleb128 0x13
 2991 006e 38       		.uleb128 0x38
 2992 006f 0B       		.uleb128 0xb
 2993 0070 00       		.byte	0
 2994 0071 00       		.byte	0
 2995 0072 09       		.uleb128 0x9
 2996 0073 13       		.uleb128 0x13
 2997 0074 01       		.byte	0x1
 2998 0075 0B       		.uleb128 0xb
 2999 0076 0B       		.uleb128 0xb
 3000 0077 3A       		.uleb128 0x3a
 3001 0078 0B       		.uleb128 0xb
 3002 0079 3B       		.uleb128 0x3b
 3003 007a 0B       		.uleb128 0xb
 3004 007b 39       		.uleb128 0x39
 3005 007c 0B       		.uleb128 0xb
 3006 007d 01       		.uleb128 0x1
 3007 007e 13       		.uleb128 0x13
 3008 007f 00       		.byte	0
 3009 0080 00       		.byte	0
 3010 0081 0A       		.uleb128 0xa
 3011 0082 0F       		.uleb128 0xf
 3012 0083 00       		.byte	0
 3013 0084 0B       		.uleb128 0xb
 3014 0085 0B       		.uleb128 0xb
 3015 0086 49       		.uleb128 0x49
 3016 0087 13       		.uleb128 0x13
 3017 0088 00       		.byte	0
 3018 0089 00       		.byte	0
 3019 008a 0B       		.uleb128 0xb
 3020 008b 0F       		.uleb128 0xf
 3021 008c 00       		.byte	0
ARM GAS  /var/folders/l5/0x54b2c10074c8bt31ycjvl80000gp/T//cci54lkl.s 			page 54


 3022 008d 0B       		.uleb128 0xb
 3023 008e 0B       		.uleb128 0xb
 3024 008f 00       		.byte	0
 3025 0090 00       		.byte	0
 3026 0091 0C       		.uleb128 0xc
 3027 0092 15       		.uleb128 0x15
 3028 0093 01       		.byte	0x1
 3029 0094 27       		.uleb128 0x27
 3030 0095 19       		.uleb128 0x19
 3031 0096 01       		.uleb128 0x1
 3032 0097 13       		.uleb128 0x13
 3033 0098 00       		.byte	0
 3034 0099 00       		.byte	0
 3035 009a 0D       		.uleb128 0xd
 3036 009b 05       		.uleb128 0x5
 3037 009c 00       		.byte	0
 3038 009d 49       		.uleb128 0x49
 3039 009e 13       		.uleb128 0x13
 3040 009f 00       		.byte	0
 3041 00a0 00       		.byte	0
 3042 00a1 0E       		.uleb128 0xe
 3043 00a2 34       		.uleb128 0x34
 3044 00a3 00       		.byte	0
 3045 00a4 03       		.uleb128 0x3
 3046 00a5 0E       		.uleb128 0xe
 3047 00a6 3A       		.uleb128 0x3a
 3048 00a7 0B       		.uleb128 0xb
 3049 00a8 3B       		.uleb128 0x3b
 3050 00a9 0B       		.uleb128 0xb
 3051 00aa 39       		.uleb128 0x39
 3052 00ab 0B       		.uleb128 0xb
 3053 00ac 49       		.uleb128 0x49
 3054 00ad 13       		.uleb128 0x13
 3055 00ae 3F       		.uleb128 0x3f
 3056 00af 19       		.uleb128 0x19
 3057 00b0 3C       		.uleb128 0x3c
 3058 00b1 19       		.uleb128 0x19
 3059 00b2 00       		.byte	0
 3060 00b3 00       		.byte	0
 3061 00b4 0F       		.uleb128 0xf
 3062 00b5 17       		.uleb128 0x17
 3063 00b6 01       		.byte	0x1
 3064 00b7 0B       		.uleb128 0xb
 3065 00b8 0B       		.uleb128 0xb
 3066 00b9 3A       		.uleb128 0x3a
 3067 00ba 0B       		.uleb128 0xb
 3068 00bb 3B       		.uleb128 0x3b
 3069 00bc 0B       		.uleb128 0xb
 3070 00bd 39       		.uleb128 0x39
 3071 00be 0B       		.uleb128 0xb
 3072 00bf 01       		.uleb128 0x1
 3073 00c0 13       		.uleb128 0x13
 3074 00c1 00       		.byte	0
 3075 00c2 00       		.byte	0
 3076 00c3 10       		.uleb128 0x10
 3077 00c4 0D       		.uleb128 0xd
 3078 00c5 00       		.byte	0
ARM GAS  /var/folders/l5/0x54b2c10074c8bt31ycjvl80000gp/T//cci54lkl.s 			page 55


 3079 00c6 03       		.uleb128 0x3
 3080 00c7 0E       		.uleb128 0xe
 3081 00c8 3A       		.uleb128 0x3a
 3082 00c9 0B       		.uleb128 0xb
 3083 00ca 3B       		.uleb128 0x3b
 3084 00cb 0B       		.uleb128 0xb
 3085 00cc 39       		.uleb128 0x39
 3086 00cd 0B       		.uleb128 0xb
 3087 00ce 49       		.uleb128 0x49
 3088 00cf 13       		.uleb128 0x13
 3089 00d0 00       		.byte	0
 3090 00d1 00       		.byte	0
 3091 00d2 11       		.uleb128 0x11
 3092 00d3 26       		.uleb128 0x26
 3093 00d4 00       		.byte	0
 3094 00d5 49       		.uleb128 0x49
 3095 00d6 13       		.uleb128 0x13
 3096 00d7 00       		.byte	0
 3097 00d8 00       		.byte	0
 3098 00d9 12       		.uleb128 0x12
 3099 00da 01       		.uleb128 0x1
 3100 00db 01       		.byte	0x1
 3101 00dc 49       		.uleb128 0x49
 3102 00dd 13       		.uleb128 0x13
 3103 00de 01       		.uleb128 0x1
 3104 00df 13       		.uleb128 0x13
 3105 00e0 00       		.byte	0
 3106 00e1 00       		.byte	0
 3107 00e2 13       		.uleb128 0x13
 3108 00e3 21       		.uleb128 0x21
 3109 00e4 00       		.byte	0
 3110 00e5 49       		.uleb128 0x49
 3111 00e6 13       		.uleb128 0x13
 3112 00e7 2F       		.uleb128 0x2f
 3113 00e8 0B       		.uleb128 0xb
 3114 00e9 00       		.byte	0
 3115 00ea 00       		.byte	0
 3116 00eb 14       		.uleb128 0x14
 3117 00ec 2E       		.uleb128 0x2e
 3118 00ed 01       		.byte	0x1
 3119 00ee 3F       		.uleb128 0x3f
 3120 00ef 19       		.uleb128 0x19
 3121 00f0 03       		.uleb128 0x3
 3122 00f1 0E       		.uleb128 0xe
 3123 00f2 3A       		.uleb128 0x3a
 3124 00f3 0B       		.uleb128 0xb
 3125 00f4 3B       		.uleb128 0x3b
 3126 00f5 05       		.uleb128 0x5
 3127 00f6 39       		.uleb128 0x39
 3128 00f7 0B       		.uleb128 0xb
 3129 00f8 27       		.uleb128 0x27
 3130 00f9 19       		.uleb128 0x19
 3131 00fa 49       		.uleb128 0x49
 3132 00fb 13       		.uleb128 0x13
 3133 00fc 11       		.uleb128 0x11
 3134 00fd 01       		.uleb128 0x1
 3135 00fe 12       		.uleb128 0x12
ARM GAS  /var/folders/l5/0x54b2c10074c8bt31ycjvl80000gp/T//cci54lkl.s 			page 56


 3136 00ff 06       		.uleb128 0x6
 3137 0100 40       		.uleb128 0x40
 3138 0101 18       		.uleb128 0x18
 3139 0102 9742     		.uleb128 0x2117
 3140 0104 19       		.uleb128 0x19
 3141 0105 01       		.uleb128 0x1
 3142 0106 13       		.uleb128 0x13
 3143 0107 00       		.byte	0
 3144 0108 00       		.byte	0
 3145 0109 15       		.uleb128 0x15
 3146 010a 05       		.uleb128 0x5
 3147 010b 00       		.byte	0
 3148 010c 03       		.uleb128 0x3
 3149 010d 08       		.uleb128 0x8
 3150 010e 3A       		.uleb128 0x3a
 3151 010f 0B       		.uleb128 0xb
 3152 0110 3B       		.uleb128 0x3b
 3153 0111 05       		.uleb128 0x5
 3154 0112 39       		.uleb128 0x39
 3155 0113 0B       		.uleb128 0xb
 3156 0114 49       		.uleb128 0x49
 3157 0115 13       		.uleb128 0x13
 3158 0116 02       		.uleb128 0x2
 3159 0117 17       		.uleb128 0x17
 3160 0118 B742     		.uleb128 0x2137
 3161 011a 17       		.uleb128 0x17
 3162 011b 00       		.byte	0
 3163 011c 00       		.byte	0
 3164 011d 16       		.uleb128 0x16
 3165 011e 05       		.uleb128 0x5
 3166 011f 00       		.byte	0
 3167 0120 03       		.uleb128 0x3
 3168 0121 0E       		.uleb128 0xe
 3169 0122 3A       		.uleb128 0x3a
 3170 0123 0B       		.uleb128 0xb
 3171 0124 3B       		.uleb128 0x3b
 3172 0125 05       		.uleb128 0x5
 3173 0126 39       		.uleb128 0x39
 3174 0127 0B       		.uleb128 0xb
 3175 0128 49       		.uleb128 0x49
 3176 0129 13       		.uleb128 0x13
 3177 012a 02       		.uleb128 0x2
 3178 012b 17       		.uleb128 0x17
 3179 012c B742     		.uleb128 0x2137
 3180 012e 17       		.uleb128 0x17
 3181 012f 00       		.byte	0
 3182 0130 00       		.byte	0
 3183 0131 17       		.uleb128 0x17
 3184 0132 898201   		.uleb128 0x4109
 3185 0135 01       		.byte	0x1
 3186 0136 11       		.uleb128 0x11
 3187 0137 01       		.uleb128 0x1
 3188 0138 31       		.uleb128 0x31
 3189 0139 13       		.uleb128 0x13
 3190 013a 00       		.byte	0
 3191 013b 00       		.byte	0
 3192 013c 18       		.uleb128 0x18
ARM GAS  /var/folders/l5/0x54b2c10074c8bt31ycjvl80000gp/T//cci54lkl.s 			page 57


 3193 013d 8A8201   		.uleb128 0x410a
 3194 0140 00       		.byte	0
 3195 0141 02       		.uleb128 0x2
 3196 0142 18       		.uleb128 0x18
 3197 0143 9142     		.uleb128 0x2111
 3198 0145 18       		.uleb128 0x18
 3199 0146 00       		.byte	0
 3200 0147 00       		.byte	0
 3201 0148 19       		.uleb128 0x19
 3202 0149 2E       		.uleb128 0x2e
 3203 014a 01       		.byte	0x1
 3204 014b 3F       		.uleb128 0x3f
 3205 014c 19       		.uleb128 0x19
 3206 014d 03       		.uleb128 0x3
 3207 014e 0E       		.uleb128 0xe
 3208 014f 3A       		.uleb128 0x3a
 3209 0150 0B       		.uleb128 0xb
 3210 0151 3B       		.uleb128 0x3b
 3211 0152 05       		.uleb128 0x5
 3212 0153 39       		.uleb128 0x39
 3213 0154 0B       		.uleb128 0xb
 3214 0155 27       		.uleb128 0x27
 3215 0156 19       		.uleb128 0x19
 3216 0157 49       		.uleb128 0x49
 3217 0158 13       		.uleb128 0x13
 3218 0159 20       		.uleb128 0x20
 3219 015a 0B       		.uleb128 0xb
 3220 015b 01       		.uleb128 0x1
 3221 015c 13       		.uleb128 0x13
 3222 015d 00       		.byte	0
 3223 015e 00       		.byte	0
 3224 015f 1A       		.uleb128 0x1a
 3225 0160 05       		.uleb128 0x5
 3226 0161 00       		.byte	0
 3227 0162 03       		.uleb128 0x3
 3228 0163 08       		.uleb128 0x8
 3229 0164 3A       		.uleb128 0x3a
 3230 0165 0B       		.uleb128 0xb
 3231 0166 3B       		.uleb128 0x3b
 3232 0167 05       		.uleb128 0x5
 3233 0168 39       		.uleb128 0x39
 3234 0169 0B       		.uleb128 0xb
 3235 016a 49       		.uleb128 0x49
 3236 016b 13       		.uleb128 0x13
 3237 016c 00       		.byte	0
 3238 016d 00       		.byte	0
 3239 016e 1B       		.uleb128 0x1b
 3240 016f 05       		.uleb128 0x5
 3241 0170 00       		.byte	0
 3242 0171 03       		.uleb128 0x3
 3243 0172 0E       		.uleb128 0xe
 3244 0173 3A       		.uleb128 0x3a
 3245 0174 0B       		.uleb128 0xb
 3246 0175 3B       		.uleb128 0x3b
 3247 0176 05       		.uleb128 0x5
 3248 0177 39       		.uleb128 0x39
 3249 0178 0B       		.uleb128 0xb
ARM GAS  /var/folders/l5/0x54b2c10074c8bt31ycjvl80000gp/T//cci54lkl.s 			page 58


 3250 0179 49       		.uleb128 0x49
 3251 017a 13       		.uleb128 0x13
 3252 017b 00       		.byte	0
 3253 017c 00       		.byte	0
 3254 017d 1C       		.uleb128 0x1c
 3255 017e 34       		.uleb128 0x34
 3256 017f 00       		.byte	0
 3257 0180 03       		.uleb128 0x3
 3258 0181 0E       		.uleb128 0xe
 3259 0182 3A       		.uleb128 0x3a
 3260 0183 0B       		.uleb128 0xb
 3261 0184 3B       		.uleb128 0x3b
 3262 0185 05       		.uleb128 0x5
 3263 0186 39       		.uleb128 0x39
 3264 0187 0B       		.uleb128 0xb
 3265 0188 49       		.uleb128 0x49
 3266 0189 13       		.uleb128 0x13
 3267 018a 00       		.byte	0
 3268 018b 00       		.byte	0
 3269 018c 1D       		.uleb128 0x1d
 3270 018d 34       		.uleb128 0x34
 3271 018e 00       		.byte	0
 3272 018f 03       		.uleb128 0x3
 3273 0190 0E       		.uleb128 0xe
 3274 0191 3A       		.uleb128 0x3a
 3275 0192 0B       		.uleb128 0xb
 3276 0193 3B       		.uleb128 0x3b
 3277 0194 05       		.uleb128 0x5
 3278 0195 39       		.uleb128 0x39
 3279 0196 0B       		.uleb128 0xb
 3280 0197 49       		.uleb128 0x49
 3281 0198 13       		.uleb128 0x13
 3282 0199 02       		.uleb128 0x2
 3283 019a 17       		.uleb128 0x17
 3284 019b B742     		.uleb128 0x2137
 3285 019d 17       		.uleb128 0x17
 3286 019e 00       		.byte	0
 3287 019f 00       		.byte	0
 3288 01a0 1E       		.uleb128 0x1e
 3289 01a1 1D       		.uleb128 0x1d
 3290 01a2 01       		.byte	0x1
 3291 01a3 31       		.uleb128 0x31
 3292 01a4 13       		.uleb128 0x13
 3293 01a5 52       		.uleb128 0x52
 3294 01a6 01       		.uleb128 0x1
 3295 01a7 B842     		.uleb128 0x2138
 3296 01a9 0B       		.uleb128 0xb
 3297 01aa 11       		.uleb128 0x11
 3298 01ab 01       		.uleb128 0x1
 3299 01ac 12       		.uleb128 0x12
 3300 01ad 06       		.uleb128 0x6
 3301 01ae 58       		.uleb128 0x58
 3302 01af 0B       		.uleb128 0xb
 3303 01b0 59       		.uleb128 0x59
 3304 01b1 05       		.uleb128 0x5
 3305 01b2 57       		.uleb128 0x57
 3306 01b3 0B       		.uleb128 0xb
ARM GAS  /var/folders/l5/0x54b2c10074c8bt31ycjvl80000gp/T//cci54lkl.s 			page 59


 3307 01b4 00       		.byte	0
 3308 01b5 00       		.byte	0
 3309 01b6 1F       		.uleb128 0x1f
 3310 01b7 05       		.uleb128 0x5
 3311 01b8 00       		.byte	0
 3312 01b9 31       		.uleb128 0x31
 3313 01ba 13       		.uleb128 0x13
 3314 01bb 02       		.uleb128 0x2
 3315 01bc 17       		.uleb128 0x17
 3316 01bd B742     		.uleb128 0x2137
 3317 01bf 17       		.uleb128 0x17
 3318 01c0 00       		.byte	0
 3319 01c1 00       		.byte	0
 3320 01c2 20       		.uleb128 0x20
 3321 01c3 0B       		.uleb128 0xb
 3322 01c4 01       		.byte	0x1
 3323 01c5 11       		.uleb128 0x11
 3324 01c6 01       		.uleb128 0x1
 3325 01c7 12       		.uleb128 0x12
 3326 01c8 06       		.uleb128 0x6
 3327 01c9 00       		.byte	0
 3328 01ca 00       		.byte	0
 3329 01cb 21       		.uleb128 0x21
 3330 01cc 34       		.uleb128 0x34
 3331 01cd 00       		.byte	0
 3332 01ce 31       		.uleb128 0x31
 3333 01cf 13       		.uleb128 0x13
 3334 01d0 02       		.uleb128 0x2
 3335 01d1 17       		.uleb128 0x17
 3336 01d2 B742     		.uleb128 0x2137
 3337 01d4 17       		.uleb128 0x17
 3338 01d5 00       		.byte	0
 3339 01d6 00       		.byte	0
 3340 01d7 22       		.uleb128 0x22
 3341 01d8 1D       		.uleb128 0x1d
 3342 01d9 01       		.byte	0x1
 3343 01da 31       		.uleb128 0x31
 3344 01db 13       		.uleb128 0x13
 3345 01dc 52       		.uleb128 0x52
 3346 01dd 01       		.uleb128 0x1
 3347 01de B842     		.uleb128 0x2138
 3348 01e0 0B       		.uleb128 0xb
 3349 01e1 11       		.uleb128 0x11
 3350 01e2 01       		.uleb128 0x1
 3351 01e3 12       		.uleb128 0x12
 3352 01e4 06       		.uleb128 0x6
 3353 01e5 58       		.uleb128 0x58
 3354 01e6 0B       		.uleb128 0xb
 3355 01e7 59       		.uleb128 0x59
 3356 01e8 05       		.uleb128 0x5
 3357 01e9 57       		.uleb128 0x57
 3358 01ea 0B       		.uleb128 0xb
 3359 01eb 01       		.uleb128 0x1
 3360 01ec 13       		.uleb128 0x13
 3361 01ed 00       		.byte	0
 3362 01ee 00       		.byte	0
 3363 01ef 23       		.uleb128 0x23
ARM GAS  /var/folders/l5/0x54b2c10074c8bt31ycjvl80000gp/T//cci54lkl.s 			page 60


 3364 01f0 34       		.uleb128 0x34
 3365 01f1 00       		.byte	0
 3366 01f2 31       		.uleb128 0x31
 3367 01f3 13       		.uleb128 0x13
 3368 01f4 00       		.byte	0
 3369 01f5 00       		.byte	0
 3370 01f6 24       		.uleb128 0x24
 3371 01f7 898201   		.uleb128 0x4109
 3372 01fa 01       		.byte	0x1
 3373 01fb 11       		.uleb128 0x11
 3374 01fc 01       		.uleb128 0x1
 3375 01fd 31       		.uleb128 0x31
 3376 01fe 13       		.uleb128 0x13
 3377 01ff 01       		.uleb128 0x1
 3378 0200 13       		.uleb128 0x13
 3379 0201 00       		.byte	0
 3380 0202 00       		.byte	0
 3381 0203 25       		.uleb128 0x25
 3382 0204 898201   		.uleb128 0x4109
 3383 0207 00       		.byte	0
 3384 0208 11       		.uleb128 0x11
 3385 0209 01       		.uleb128 0x1
 3386 020a 31       		.uleb128 0x31
 3387 020b 13       		.uleb128 0x13
 3388 020c 00       		.byte	0
 3389 020d 00       		.byte	0
 3390 020e 26       		.uleb128 0x26
 3391 020f 2E       		.uleb128 0x2e
 3392 0210 01       		.byte	0x1
 3393 0211 3F       		.uleb128 0x3f
 3394 0212 19       		.uleb128 0x19
 3395 0213 03       		.uleb128 0x3
 3396 0214 0E       		.uleb128 0xe
 3397 0215 3A       		.uleb128 0x3a
 3398 0216 0B       		.uleb128 0xb
 3399 0217 3B       		.uleb128 0x3b
 3400 0218 0B       		.uleb128 0xb
 3401 0219 39       		.uleb128 0x39
 3402 021a 0B       		.uleb128 0xb
 3403 021b 27       		.uleb128 0x27
 3404 021c 19       		.uleb128 0x19
 3405 021d 49       		.uleb128 0x49
 3406 021e 13       		.uleb128 0x13
 3407 021f 20       		.uleb128 0x20
 3408 0220 0B       		.uleb128 0xb
 3409 0221 01       		.uleb128 0x1
 3410 0222 13       		.uleb128 0x13
 3411 0223 00       		.byte	0
 3412 0224 00       		.byte	0
 3413 0225 27       		.uleb128 0x27
 3414 0226 05       		.uleb128 0x5
 3415 0227 00       		.byte	0
 3416 0228 03       		.uleb128 0x3
 3417 0229 08       		.uleb128 0x8
 3418 022a 3A       		.uleb128 0x3a
 3419 022b 0B       		.uleb128 0xb
 3420 022c 3B       		.uleb128 0x3b
ARM GAS  /var/folders/l5/0x54b2c10074c8bt31ycjvl80000gp/T//cci54lkl.s 			page 61


 3421 022d 0B       		.uleb128 0xb
 3422 022e 39       		.uleb128 0x39
 3423 022f 0B       		.uleb128 0xb
 3424 0230 49       		.uleb128 0x49
 3425 0231 13       		.uleb128 0x13
 3426 0232 00       		.byte	0
 3427 0233 00       		.byte	0
 3428 0234 28       		.uleb128 0x28
 3429 0235 05       		.uleb128 0x5
 3430 0236 00       		.byte	0
 3431 0237 03       		.uleb128 0x3
 3432 0238 0E       		.uleb128 0xe
 3433 0239 3A       		.uleb128 0x3a
 3434 023a 0B       		.uleb128 0xb
 3435 023b 3B       		.uleb128 0x3b
 3436 023c 0B       		.uleb128 0xb
 3437 023d 39       		.uleb128 0x39
 3438 023e 0B       		.uleb128 0xb
 3439 023f 49       		.uleb128 0x49
 3440 0240 13       		.uleb128 0x13
 3441 0241 00       		.byte	0
 3442 0242 00       		.byte	0
 3443 0243 29       		.uleb128 0x29
 3444 0244 34       		.uleb128 0x34
 3445 0245 00       		.byte	0
 3446 0246 03       		.uleb128 0x3
 3447 0247 0E       		.uleb128 0xe
 3448 0248 3A       		.uleb128 0x3a
 3449 0249 0B       		.uleb128 0xb
 3450 024a 3B       		.uleb128 0x3b
 3451 024b 0B       		.uleb128 0xb
 3452 024c 39       		.uleb128 0x39
 3453 024d 0B       		.uleb128 0xb
 3454 024e 49       		.uleb128 0x49
 3455 024f 13       		.uleb128 0x13
 3456 0250 00       		.byte	0
 3457 0251 00       		.byte	0
 3458 0252 2A       		.uleb128 0x2a
 3459 0253 2E       		.uleb128 0x2e
 3460 0254 01       		.byte	0x1
 3461 0255 3F       		.uleb128 0x3f
 3462 0256 19       		.uleb128 0x19
 3463 0257 03       		.uleb128 0x3
 3464 0258 0E       		.uleb128 0xe
 3465 0259 3A       		.uleb128 0x3a
 3466 025a 0B       		.uleb128 0xb
 3467 025b 3B       		.uleb128 0x3b
 3468 025c 0B       		.uleb128 0xb
 3469 025d 39       		.uleb128 0x39
 3470 025e 0B       		.uleb128 0xb
 3471 025f 27       		.uleb128 0x27
 3472 0260 19       		.uleb128 0x19
 3473 0261 49       		.uleb128 0x49
 3474 0262 13       		.uleb128 0x13
 3475 0263 11       		.uleb128 0x11
 3476 0264 01       		.uleb128 0x1
 3477 0265 12       		.uleb128 0x12
ARM GAS  /var/folders/l5/0x54b2c10074c8bt31ycjvl80000gp/T//cci54lkl.s 			page 62


 3478 0266 06       		.uleb128 0x6
 3479 0267 40       		.uleb128 0x40
 3480 0268 18       		.uleb128 0x18
 3481 0269 9742     		.uleb128 0x2117
 3482 026b 19       		.uleb128 0x19
 3483 026c 01       		.uleb128 0x1
 3484 026d 13       		.uleb128 0x13
 3485 026e 00       		.byte	0
 3486 026f 00       		.byte	0
 3487 0270 2B       		.uleb128 0x2b
 3488 0271 05       		.uleb128 0x5
 3489 0272 00       		.byte	0
 3490 0273 03       		.uleb128 0x3
 3491 0274 08       		.uleb128 0x8
 3492 0275 3A       		.uleb128 0x3a
 3493 0276 0B       		.uleb128 0xb
 3494 0277 3B       		.uleb128 0x3b
 3495 0278 0B       		.uleb128 0xb
 3496 0279 39       		.uleb128 0x39
 3497 027a 0B       		.uleb128 0xb
 3498 027b 49       		.uleb128 0x49
 3499 027c 13       		.uleb128 0x13
 3500 027d 02       		.uleb128 0x2
 3501 027e 17       		.uleb128 0x17
 3502 027f B742     		.uleb128 0x2137
 3503 0281 17       		.uleb128 0x17
 3504 0282 00       		.byte	0
 3505 0283 00       		.byte	0
 3506 0284 2C       		.uleb128 0x2c
 3507 0285 05       		.uleb128 0x5
 3508 0286 00       		.byte	0
 3509 0287 03       		.uleb128 0x3
 3510 0288 0E       		.uleb128 0xe
 3511 0289 3A       		.uleb128 0x3a
 3512 028a 0B       		.uleb128 0xb
 3513 028b 3B       		.uleb128 0x3b
 3514 028c 0B       		.uleb128 0xb
 3515 028d 39       		.uleb128 0x39
 3516 028e 0B       		.uleb128 0xb
 3517 028f 49       		.uleb128 0x49
 3518 0290 13       		.uleb128 0x13
 3519 0291 02       		.uleb128 0x2
 3520 0292 17       		.uleb128 0x17
 3521 0293 B742     		.uleb128 0x2137
 3522 0295 17       		.uleb128 0x17
 3523 0296 00       		.byte	0
 3524 0297 00       		.byte	0
 3525 0298 2D       		.uleb128 0x2d
 3526 0299 34       		.uleb128 0x34
 3527 029a 00       		.byte	0
 3528 029b 03       		.uleb128 0x3
 3529 029c 0E       		.uleb128 0xe
 3530 029d 3A       		.uleb128 0x3a
 3531 029e 0B       		.uleb128 0xb
 3532 029f 3B       		.uleb128 0x3b
 3533 02a0 0B       		.uleb128 0xb
 3534 02a1 39       		.uleb128 0x39
ARM GAS  /var/folders/l5/0x54b2c10074c8bt31ycjvl80000gp/T//cci54lkl.s 			page 63


 3535 02a2 0B       		.uleb128 0xb
 3536 02a3 49       		.uleb128 0x49
 3537 02a4 13       		.uleb128 0x13
 3538 02a5 02       		.uleb128 0x2
 3539 02a6 17       		.uleb128 0x17
 3540 02a7 B742     		.uleb128 0x2137
 3541 02a9 17       		.uleb128 0x17
 3542 02aa 00       		.byte	0
 3543 02ab 00       		.byte	0
 3544 02ac 2E       		.uleb128 0x2e
 3545 02ad 1D       		.uleb128 0x1d
 3546 02ae 01       		.byte	0x1
 3547 02af 31       		.uleb128 0x31
 3548 02b0 13       		.uleb128 0x13
 3549 02b1 52       		.uleb128 0x52
 3550 02b2 01       		.uleb128 0x1
 3551 02b3 B842     		.uleb128 0x2138
 3552 02b5 0B       		.uleb128 0xb
 3553 02b6 11       		.uleb128 0x11
 3554 02b7 01       		.uleb128 0x1
 3555 02b8 12       		.uleb128 0x12
 3556 02b9 06       		.uleb128 0x6
 3557 02ba 58       		.uleb128 0x58
 3558 02bb 0B       		.uleb128 0xb
 3559 02bc 59       		.uleb128 0x59
 3560 02bd 0B       		.uleb128 0xb
 3561 02be 57       		.uleb128 0x57
 3562 02bf 0B       		.uleb128 0xb
 3563 02c0 00       		.byte	0
 3564 02c1 00       		.byte	0
 3565 02c2 2F       		.uleb128 0x2f
 3566 02c3 1D       		.uleb128 0x1d
 3567 02c4 01       		.byte	0x1
 3568 02c5 31       		.uleb128 0x31
 3569 02c6 13       		.uleb128 0x13
 3570 02c7 52       		.uleb128 0x52
 3571 02c8 01       		.uleb128 0x1
 3572 02c9 B842     		.uleb128 0x2138
 3573 02cb 0B       		.uleb128 0xb
 3574 02cc 11       		.uleb128 0x11
 3575 02cd 01       		.uleb128 0x1
 3576 02ce 12       		.uleb128 0x12
 3577 02cf 06       		.uleb128 0x6
 3578 02d0 58       		.uleb128 0x58
 3579 02d1 0B       		.uleb128 0xb
 3580 02d2 59       		.uleb128 0x59
 3581 02d3 0B       		.uleb128 0xb
 3582 02d4 57       		.uleb128 0x57
 3583 02d5 0B       		.uleb128 0xb
 3584 02d6 01       		.uleb128 0x1
 3585 02d7 13       		.uleb128 0x13
 3586 02d8 00       		.byte	0
 3587 02d9 00       		.byte	0
 3588 02da 30       		.uleb128 0x30
 3589 02db 2E       		.uleb128 0x2e
 3590 02dc 01       		.byte	0x1
 3591 02dd 3F       		.uleb128 0x3f
ARM GAS  /var/folders/l5/0x54b2c10074c8bt31ycjvl80000gp/T//cci54lkl.s 			page 64


 3592 02de 19       		.uleb128 0x19
 3593 02df 03       		.uleb128 0x3
 3594 02e0 0E       		.uleb128 0xe
 3595 02e1 3A       		.uleb128 0x3a
 3596 02e2 0B       		.uleb128 0xb
 3597 02e3 3B       		.uleb128 0x3b
 3598 02e4 0B       		.uleb128 0xb
 3599 02e5 39       		.uleb128 0x39
 3600 02e6 0B       		.uleb128 0xb
 3601 02e7 27       		.uleb128 0x27
 3602 02e8 19       		.uleb128 0x19
 3603 02e9 11       		.uleb128 0x11
 3604 02ea 01       		.uleb128 0x1
 3605 02eb 12       		.uleb128 0x12
 3606 02ec 06       		.uleb128 0x6
 3607 02ed 40       		.uleb128 0x40
 3608 02ee 18       		.uleb128 0x18
 3609 02ef 9742     		.uleb128 0x2117
 3610 02f1 19       		.uleb128 0x19
 3611 02f2 01       		.uleb128 0x1
 3612 02f3 13       		.uleb128 0x13
 3613 02f4 00       		.byte	0
 3614 02f5 00       		.byte	0
 3615 02f6 31       		.uleb128 0x31
 3616 02f7 898201   		.uleb128 0x4109
 3617 02fa 01       		.byte	0x1
 3618 02fb 11       		.uleb128 0x11
 3619 02fc 01       		.uleb128 0x1
 3620 02fd 9542     		.uleb128 0x2115
 3621 02ff 19       		.uleb128 0x19
 3622 0300 31       		.uleb128 0x31
 3623 0301 13       		.uleb128 0x13
 3624 0302 00       		.byte	0
 3625 0303 00       		.byte	0
 3626 0304 32       		.uleb128 0x32
 3627 0305 2E       		.uleb128 0x2e
 3628 0306 01       		.byte	0x1
 3629 0307 31       		.uleb128 0x31
 3630 0308 13       		.uleb128 0x13
 3631 0309 11       		.uleb128 0x11
 3632 030a 01       		.uleb128 0x1
 3633 030b 12       		.uleb128 0x12
 3634 030c 06       		.uleb128 0x6
 3635 030d 40       		.uleb128 0x40
 3636 030e 18       		.uleb128 0x18
 3637 030f 9742     		.uleb128 0x2117
 3638 0311 19       		.uleb128 0x19
 3639 0312 01       		.uleb128 0x1
 3640 0313 13       		.uleb128 0x13
 3641 0314 00       		.byte	0
 3642 0315 00       		.byte	0
 3643 0316 33       		.uleb128 0x33
 3644 0317 1D       		.uleb128 0x1d
 3645 0318 01       		.byte	0x1
 3646 0319 31       		.uleb128 0x31
 3647 031a 13       		.uleb128 0x13
 3648 031b 52       		.uleb128 0x52
ARM GAS  /var/folders/l5/0x54b2c10074c8bt31ycjvl80000gp/T//cci54lkl.s 			page 65


 3649 031c 01       		.uleb128 0x1
 3650 031d B842     		.uleb128 0x2138
 3651 031f 0B       		.uleb128 0xb
 3652 0320 55       		.uleb128 0x55
 3653 0321 17       		.uleb128 0x17
 3654 0322 58       		.uleb128 0x58
 3655 0323 0B       		.uleb128 0xb
 3656 0324 59       		.uleb128 0x59
 3657 0325 0B       		.uleb128 0xb
 3658 0326 57       		.uleb128 0x57
 3659 0327 0B       		.uleb128 0xb
 3660 0328 01       		.uleb128 0x1
 3661 0329 13       		.uleb128 0x13
 3662 032a 00       		.byte	0
 3663 032b 00       		.byte	0
 3664 032c 34       		.uleb128 0x34
 3665 032d 0B       		.uleb128 0xb
 3666 032e 01       		.byte	0x1
 3667 032f 55       		.uleb128 0x55
 3668 0330 17       		.uleb128 0x17
 3669 0331 00       		.byte	0
 3670 0332 00       		.byte	0
 3671 0333 35       		.uleb128 0x35
 3672 0334 2E       		.uleb128 0x2e
 3673 0335 00       		.byte	0
 3674 0336 3F       		.uleb128 0x3f
 3675 0337 19       		.uleb128 0x19
 3676 0338 3C       		.uleb128 0x3c
 3677 0339 19       		.uleb128 0x19
 3678 033a 6E       		.uleb128 0x6e
 3679 033b 0E       		.uleb128 0xe
 3680 033c 03       		.uleb128 0x3
 3681 033d 0E       		.uleb128 0xe
 3682 033e 3A       		.uleb128 0x3a
 3683 033f 0B       		.uleb128 0xb
 3684 0340 3B       		.uleb128 0x3b
 3685 0341 0B       		.uleb128 0xb
 3686 0342 39       		.uleb128 0x39
 3687 0343 0B       		.uleb128 0xb
 3688 0344 00       		.byte	0
 3689 0345 00       		.byte	0
 3690 0346 00       		.byte	0
 3691              		.section	.debug_loc,"",%progbits
 3692              	.Ldebug_loc0:
 3693              	.LVUS55:
 3694 0000 00       		.uleb128 0
 3695 0001 00       		.uleb128 .LVU321
 3696 0002 00       		.uleb128 .LVU321
 3697 0003 00       		.uleb128 .LVU323
 3698 0004 00       		.uleb128 .LVU323
 3699 0005 00       		.uleb128 .LVU326
 3700 0006 00       		.uleb128 .LVU326
 3701 0007 00       		.uleb128 .LVU327
 3702 0008 00       		.uleb128 .LVU327
 3703 0009 00       		.uleb128 0
 3704              	.LLST55:
 3705 000a 00000000 		.4byte	.LVL65
ARM GAS  /var/folders/l5/0x54b2c10074c8bt31ycjvl80000gp/T//cci54lkl.s 			page 66


 3706 000e 3C000000 		.4byte	.LVL66
 3707 0012 0100     		.2byte	0x1
 3708 0014 50       		.byte	0x50
 3709 0015 3C000000 		.4byte	.LVL66
 3710 0019 43000000 		.4byte	.LVL67-1
 3711 001d 0300     		.2byte	0x3
 3712 001f 70       		.byte	0x70
 3713 0020 64       		.sleb128 -28
 3714 0021 9F       		.byte	0x9f
 3715 0022 43000000 		.4byte	.LVL67-1
 3716 0026 4C000000 		.4byte	.LVL68
 3717 002a 0400     		.2byte	0x4
 3718 002c F3       		.byte	0xf3
 3719 002d 01       		.uleb128 0x1
 3720 002e 50       		.byte	0x50
 3721 002f 9F       		.byte	0x9f
 3722 0030 4C000000 		.4byte	.LVL68
 3723 0034 50000000 		.4byte	.LVL69
 3724 0038 0100     		.2byte	0x1
 3725 003a 50       		.byte	0x50
 3726 003b 50000000 		.4byte	.LVL69
 3727 003f 54000000 		.4byte	.LFE17
 3728 0043 0400     		.2byte	0x4
 3729 0045 F3       		.byte	0xf3
 3730 0046 01       		.uleb128 0x1
 3731 0047 50       		.byte	0x50
 3732 0048 9F       		.byte	0x9f
 3733 0049 00000000 		.4byte	0
 3734 004d 00000000 		.4byte	0
 3735              	.LVUS56:
 3736 0051 00       		.uleb128 0
 3737 0052 00       		.uleb128 .LVU323
 3738 0053 00       		.uleb128 .LVU323
 3739 0054 00       		.uleb128 .LVU326
 3740 0055 00       		.uleb128 .LVU326
 3741 0056 00       		.uleb128 0
 3742              	.LLST56:
 3743 0057 00000000 		.4byte	.LVL65
 3744 005b 43000000 		.4byte	.LVL67-1
 3745 005f 0100     		.2byte	0x1
 3746 0061 51       		.byte	0x51
 3747 0062 43000000 		.4byte	.LVL67-1
 3748 0066 4C000000 		.4byte	.LVL68
 3749 006a 0400     		.2byte	0x4
 3750 006c F3       		.byte	0xf3
 3751 006d 01       		.uleb128 0x1
 3752 006e 51       		.byte	0x51
 3753 006f 9F       		.byte	0x9f
 3754 0070 4C000000 		.4byte	.LVL68
 3755 0074 54000000 		.4byte	.LFE17
 3756 0078 0100     		.2byte	0x1
 3757 007a 51       		.byte	0x51
 3758 007b 00000000 		.4byte	0
 3759 007f 00000000 		.4byte	0
 3760              	.LVUS37:
 3761 0083 00       		.uleb128 0
 3762 0084 00       		.uleb128 .LVU239
ARM GAS  /var/folders/l5/0x54b2c10074c8bt31ycjvl80000gp/T//cci54lkl.s 			page 67


 3763 0085 00       		.uleb128 .LVU239
 3764 0086 00       		.uleb128 0
 3765              	.LLST37:
 3766 0087 00000000 		.4byte	.LVL48
 3767 008b 18000000 		.4byte	.LVL51
 3768 008f 0100     		.2byte	0x1
 3769 0091 50       		.byte	0x50
 3770 0092 18000000 		.4byte	.LVL51
 3771 0096 60000000 		.4byte	.LFE15
 3772 009a 0100     		.2byte	0x1
 3773 009c 54       		.byte	0x54
 3774 009d 00000000 		.4byte	0
 3775 00a1 00000000 		.4byte	0
 3776              	.LVUS38:
 3777 00a5 00       		.uleb128 0
 3778 00a6 00       		.uleb128 .LVU238
 3779 00a7 00       		.uleb128 .LVU238
 3780 00a8 00       		.uleb128 0
 3781              	.LLST38:
 3782 00a9 00000000 		.4byte	.LVL48
 3783 00ad 14000000 		.4byte	.LVL50
 3784 00b1 0100     		.2byte	0x1
 3785 00b3 51       		.byte	0x51
 3786 00b4 14000000 		.4byte	.LVL50
 3787 00b8 60000000 		.4byte	.LFE15
 3788 00bc 0100     		.2byte	0x1
 3789 00be 56       		.byte	0x56
 3790 00bf 00000000 		.4byte	0
 3791 00c3 00000000 		.4byte	0
 3792              	.LVUS39:
 3793 00c7 00       		.uleb128 0
 3794 00c8 00       		.uleb128 .LVU240
 3795 00c9 00       		.uleb128 .LVU240
 3796 00ca 00       		.uleb128 0
 3797              	.LLST39:
 3798 00cb 00000000 		.4byte	.LVL48
 3799 00cf 1B000000 		.4byte	.LVL52-1
 3800 00d3 0100     		.2byte	0x1
 3801 00d5 52       		.byte	0x52
 3802 00d6 1B000000 		.4byte	.LVL52-1
 3803 00da 60000000 		.4byte	.LFE15
 3804 00de 0400     		.2byte	0x4
 3805 00e0 F3       		.byte	0xf3
 3806 00e1 01       		.uleb128 0x1
 3807 00e2 52       		.byte	0x52
 3808 00e3 9F       		.byte	0x9f
 3809 00e4 00000000 		.4byte	0
 3810 00e8 00000000 		.4byte	0
 3811              	.LVUS40:
 3812 00ec 02       		.uleb128 .LVU260
 3813 00ed 00       		.uleb128 0
 3814              	.LLST40:
 3815 00ee 54000000 		.4byte	.LVL56
 3816 00f2 60000000 		.4byte	.LFE15
 3817 00f6 0100     		.2byte	0x1
 3818 00f8 55       		.byte	0x55
 3819 00f9 00000000 		.4byte	0
ARM GAS  /var/folders/l5/0x54b2c10074c8bt31ycjvl80000gp/T//cci54lkl.s 			page 68


 3820 00fd 00000000 		.4byte	0
 3821              	.LVUS41:
 3822 0101 03       		.uleb128 .LVU230
 3823 0102 00       		.uleb128 .LVU240
 3824 0103 00       		.uleb128 .LVU240
 3825 0104 02       		.uleb128 .LVU260
 3826              	.LLST41:
 3827 0105 10000000 		.4byte	.LVL49
 3828 0109 1B000000 		.4byte	.LVL52-1
 3829 010d 0100     		.2byte	0x1
 3830 010f 52       		.byte	0x52
 3831 0110 1B000000 		.4byte	.LVL52-1
 3832 0114 54000000 		.4byte	.LVL56
 3833 0118 0400     		.2byte	0x4
 3834 011a F3       		.byte	0xf3
 3835 011b 01       		.uleb128 0x1
 3836 011c 52       		.byte	0x52
 3837 011d 9F       		.byte	0x9f
 3838 011e 00000000 		.4byte	0
 3839 0122 00000000 		.4byte	0
 3840              	.LVUS42:
 3841 0126 03       		.uleb128 .LVU230
 3842 0127 00       		.uleb128 .LVU238
 3843 0128 00       		.uleb128 .LVU238
 3844 0129 02       		.uleb128 .LVU260
 3845              	.LLST42:
 3846 012a 10000000 		.4byte	.LVL49
 3847 012e 14000000 		.4byte	.LVL50
 3848 0132 0100     		.2byte	0x1
 3849 0134 51       		.byte	0x51
 3850 0135 14000000 		.4byte	.LVL50
 3851 0139 54000000 		.4byte	.LVL56
 3852 013d 0100     		.2byte	0x1
 3853 013f 56       		.byte	0x56
 3854 0140 00000000 		.4byte	0
 3855 0144 00000000 		.4byte	0
 3856              	.LVUS43:
 3857 0148 03       		.uleb128 .LVU230
 3858 0149 00       		.uleb128 .LVU239
 3859 014a 00       		.uleb128 .LVU239
 3860 014b 02       		.uleb128 .LVU260
 3861              	.LLST43:
 3862 014c 10000000 		.4byte	.LVL49
 3863 0150 18000000 		.4byte	.LVL51
 3864 0154 0100     		.2byte	0x1
 3865 0156 50       		.byte	0x50
 3866 0157 18000000 		.4byte	.LVL51
 3867 015b 54000000 		.4byte	.LVL56
 3868 015f 0100     		.2byte	0x1
 3869 0161 54       		.byte	0x54
 3870 0162 00000000 		.4byte	0
 3871 0166 00000000 		.4byte	0
 3872              	.LVUS44:
 3873 016a 00       		.uleb128 .LVU240
 3874 016b 00       		.uleb128 .LVU255
 3875 016c 00       		.uleb128 .LVU255
 3876 016d 02       		.uleb128 .LVU260
ARM GAS  /var/folders/l5/0x54b2c10074c8bt31ycjvl80000gp/T//cci54lkl.s 			page 69


 3877              	.LLST44:
 3878 016e 1C000000 		.4byte	.LVL52
 3879 0172 48000000 		.4byte	.LVL54
 3880 0176 0100     		.2byte	0x1
 3881 0178 50       		.byte	0x50
 3882 0179 48000000 		.4byte	.LVL54
 3883 017d 54000000 		.4byte	.LVL56
 3884 0181 0100     		.2byte	0x1
 3885 0183 55       		.byte	0x55
 3886 0184 00000000 		.4byte	0
 3887 0188 00000000 		.4byte	0
 3888              	.LVUS45:
 3889 018c 01       		.uleb128 .LVU243
 3890 018d 00       		.uleb128 .LVU258
 3891              	.LLST45:
 3892 018e 24000000 		.4byte	.LVL53
 3893 0192 54000000 		.4byte	.LVL56
 3894 0196 0400     		.2byte	0x4
 3895 0198 F3       		.byte	0xf3
 3896 0199 01       		.uleb128 0x1
 3897 019a 52       		.byte	0x52
 3898 019b 9F       		.byte	0x9f
 3899 019c 00000000 		.4byte	0
 3900 01a0 00000000 		.4byte	0
 3901              	.LVUS46:
 3902 01a4 00       		.uleb128 .LVU242
 3903 01a5 00       		.uleb128 .LVU258
 3904              	.LLST46:
 3905 01a6 24000000 		.4byte	.LVL53
 3906 01aa 54000000 		.4byte	.LVL56
 3907 01ae 0100     		.2byte	0x1
 3908 01b0 56       		.byte	0x56
 3909 01b1 00000000 		.4byte	0
 3910 01b5 00000000 		.4byte	0
 3911              	.LVUS47:
 3912 01b9 00       		.uleb128 .LVU242
 3913 01ba 00       		.uleb128 .LVU258
 3914              	.LLST47:
 3915 01bb 24000000 		.4byte	.LVL53
 3916 01bf 54000000 		.4byte	.LVL56
 3917 01c3 0100     		.2byte	0x1
 3918 01c5 54       		.byte	0x54
 3919 01c6 00000000 		.4byte	0
 3920 01ca 00000000 		.4byte	0
 3921              	.LVUS35:
 3922 01ce 00       		.uleb128 0
 3923 01cf 00       		.uleb128 .LVU216
 3924 01d0 00       		.uleb128 .LVU216
 3925 01d1 00       		.uleb128 .LVU217
 3926 01d2 00       		.uleb128 .LVU217
 3927 01d3 00       		.uleb128 .LVU220
 3928 01d4 00       		.uleb128 .LVU220
 3929 01d5 00       		.uleb128 .LVU221
 3930 01d6 00       		.uleb128 .LVU221
 3931 01d7 00       		.uleb128 0
 3932              	.LLST35:
 3933 01d8 00000000 		.4byte	.LVL43
ARM GAS  /var/folders/l5/0x54b2c10074c8bt31ycjvl80000gp/T//cci54lkl.s 			page 70


 3934 01dc 40000000 		.4byte	.LVL44
 3935 01e0 0100     		.2byte	0x1
 3936 01e2 50       		.byte	0x50
 3937 01e3 40000000 		.4byte	.LVL44
 3938 01e7 43000000 		.4byte	.LVL45-1
 3939 01eb 0300     		.2byte	0x3
 3940 01ed 70       		.byte	0x70
 3941 01ee 70       		.sleb128 -16
 3942 01ef 9F       		.byte	0x9f
 3943 01f0 43000000 		.4byte	.LVL45-1
 3944 01f4 4C000000 		.4byte	.LVL46
 3945 01f8 0400     		.2byte	0x4
 3946 01fa F3       		.byte	0xf3
 3947 01fb 01       		.uleb128 0x1
 3948 01fc 50       		.byte	0x50
 3949 01fd 9F       		.byte	0x9f
 3950 01fe 4C000000 		.4byte	.LVL46
 3951 0202 50000000 		.4byte	.LVL47
 3952 0206 0100     		.2byte	0x1
 3953 0208 50       		.byte	0x50
 3954 0209 50000000 		.4byte	.LVL47
 3955 020d 54000000 		.4byte	.LFE14
 3956 0211 0400     		.2byte	0x4
 3957 0213 F3       		.byte	0xf3
 3958 0214 01       		.uleb128 0x1
 3959 0215 50       		.byte	0x50
 3960 0216 9F       		.byte	0x9f
 3961 0217 00000000 		.4byte	0
 3962 021b 00000000 		.4byte	0
 3963              	.LVUS36:
 3964 021f 00       		.uleb128 0
 3965 0220 00       		.uleb128 .LVU217
 3966 0221 00       		.uleb128 .LVU217
 3967 0222 00       		.uleb128 .LVU220
 3968 0223 00       		.uleb128 .LVU220
 3969 0224 00       		.uleb128 0
 3970              	.LLST36:
 3971 0225 00000000 		.4byte	.LVL43
 3972 0229 43000000 		.4byte	.LVL45-1
 3973 022d 0100     		.2byte	0x1
 3974 022f 51       		.byte	0x51
 3975 0230 43000000 		.4byte	.LVL45-1
 3976 0234 4C000000 		.4byte	.LVL46
 3977 0238 0400     		.2byte	0x4
 3978 023a F3       		.byte	0xf3
 3979 023b 01       		.uleb128 0x1
 3980 023c 51       		.byte	0x51
 3981 023d 9F       		.byte	0x9f
 3982 023e 4C000000 		.4byte	.LVL46
 3983 0242 54000000 		.4byte	.LFE14
 3984 0246 0100     		.2byte	0x1
 3985 0248 51       		.byte	0x51
 3986 0249 00000000 		.4byte	0
 3987 024d 00000000 		.4byte	0
 3988              	.LVUS31:
 3989 0251 00       		.uleb128 0
 3990 0252 00       		.uleb128 .LVU186
ARM GAS  /var/folders/l5/0x54b2c10074c8bt31ycjvl80000gp/T//cci54lkl.s 			page 71


 3991 0253 00       		.uleb128 .LVU186
 3992 0254 00       		.uleb128 0
 3993              	.LLST31:
 3994 0255 00000000 		.4byte	.LVL41
 3995 0259 0B000000 		.4byte	.LVL42-1
 3996 025d 0100     		.2byte	0x1
 3997 025f 50       		.byte	0x50
 3998 0260 0B000000 		.4byte	.LVL42-1
 3999 0264 14000000 		.4byte	.LFE12
 4000 0268 0400     		.2byte	0x4
 4001 026a F3       		.byte	0xf3
 4002 026b 01       		.uleb128 0x1
 4003 026c 50       		.byte	0x50
 4004 026d 9F       		.byte	0x9f
 4005 026e 00000000 		.4byte	0
 4006 0272 00000000 		.4byte	0
 4007              	.LVUS32:
 4008 0276 00       		.uleb128 0
 4009 0277 00       		.uleb128 .LVU186
 4010 0278 00       		.uleb128 .LVU186
 4011 0279 00       		.uleb128 0
 4012              	.LLST32:
 4013 027a 00000000 		.4byte	.LVL41
 4014 027e 0B000000 		.4byte	.LVL42-1
 4015 0282 0100     		.2byte	0x1
 4016 0284 51       		.byte	0x51
 4017 0285 0B000000 		.4byte	.LVL42-1
 4018 0289 14000000 		.4byte	.LFE12
 4019 028d 0400     		.2byte	0x4
 4020 028f F3       		.byte	0xf3
 4021 0290 01       		.uleb128 0x1
 4022 0291 51       		.byte	0x51
 4023 0292 9F       		.byte	0x9f
 4024 0293 00000000 		.4byte	0
 4025 0297 00000000 		.4byte	0
 4026              	.LVUS33:
 4027 029b 00       		.uleb128 0
 4028 029c 00       		.uleb128 .LVU186
 4029 029d 00       		.uleb128 .LVU186
 4030 029e 00       		.uleb128 0
 4031              	.LLST33:
 4032 029f 00000000 		.4byte	.LVL41
 4033 02a3 0B000000 		.4byte	.LVL42-1
 4034 02a7 0100     		.2byte	0x1
 4035 02a9 52       		.byte	0x52
 4036 02aa 0B000000 		.4byte	.LVL42-1
 4037 02ae 14000000 		.4byte	.LFE12
 4038 02b2 0400     		.2byte	0x4
 4039 02b4 F3       		.byte	0xf3
 4040 02b5 01       		.uleb128 0x1
 4041 02b6 52       		.byte	0x52
 4042 02b7 9F       		.byte	0x9f
 4043 02b8 00000000 		.4byte	0
 4044 02bc 00000000 		.4byte	0
 4045              	.LVUS34:
 4046 02c0 00       		.uleb128 .LVU186
 4047 02c1 00       		.uleb128 0
ARM GAS  /var/folders/l5/0x54b2c10074c8bt31ycjvl80000gp/T//cci54lkl.s 			page 72


 4048              	.LLST34:
 4049 02c2 0C000000 		.4byte	.LVL42
 4050 02c6 14000000 		.4byte	.LFE12
 4051 02ca 0100     		.2byte	0x1
 4052 02cc 50       		.byte	0x50
 4053 02cd 00000000 		.4byte	0
 4054 02d1 00000000 		.4byte	0
 4055              	.LVUS22:
 4056 02d5 00       		.uleb128 0
 4057 02d6 00       		.uleb128 .LVU138
 4058 02d7 00       		.uleb128 .LVU138
 4059 02d8 00       		.uleb128 .LVU140
 4060 02d9 00       		.uleb128 .LVU140
 4061 02da 00       		.uleb128 .LVU143
 4062 02db 00       		.uleb128 .LVU143
 4063 02dc 00       		.uleb128 .LVU144
 4064 02dd 00       		.uleb128 .LVU144
 4065 02de 00       		.uleb128 0
 4066              	.LLST22:
 4067 02df 00000000 		.4byte	.LVL28
 4068 02e3 38000000 		.4byte	.LVL29
 4069 02e7 0100     		.2byte	0x1
 4070 02e9 50       		.byte	0x50
 4071 02ea 38000000 		.4byte	.LVL29
 4072 02ee 3F000000 		.4byte	.LVL30-1
 4073 02f2 0300     		.2byte	0x3
 4074 02f4 70       		.byte	0x70
 4075 02f5 70       		.sleb128 -16
 4076 02f6 9F       		.byte	0x9f
 4077 02f7 3F000000 		.4byte	.LVL30-1
 4078 02fb 48000000 		.4byte	.LVL31
 4079 02ff 0400     		.2byte	0x4
 4080 0301 F3       		.byte	0xf3
 4081 0302 01       		.uleb128 0x1
 4082 0303 50       		.byte	0x50
 4083 0304 9F       		.byte	0x9f
 4084 0305 48000000 		.4byte	.LVL31
 4085 0309 4C000000 		.4byte	.LVL32
 4086 030d 0100     		.2byte	0x1
 4087 030f 50       		.byte	0x50
 4088 0310 4C000000 		.4byte	.LVL32
 4089 0314 50000000 		.4byte	.LFE11
 4090 0318 0400     		.2byte	0x4
 4091 031a F3       		.byte	0xf3
 4092 031b 01       		.uleb128 0x1
 4093 031c 50       		.byte	0x50
 4094 031d 9F       		.byte	0x9f
 4095 031e 00000000 		.4byte	0
 4096 0322 00000000 		.4byte	0
 4097              	.LVUS23:
 4098 0326 00       		.uleb128 0
 4099 0327 00       		.uleb128 .LVU140
 4100 0328 00       		.uleb128 .LVU140
 4101 0329 00       		.uleb128 .LVU143
 4102 032a 00       		.uleb128 .LVU143
 4103 032b 00       		.uleb128 0
 4104              	.LLST23:
ARM GAS  /var/folders/l5/0x54b2c10074c8bt31ycjvl80000gp/T//cci54lkl.s 			page 73


 4105 032c 00000000 		.4byte	.LVL28
 4106 0330 3F000000 		.4byte	.LVL30-1
 4107 0334 0100     		.2byte	0x1
 4108 0336 51       		.byte	0x51
 4109 0337 3F000000 		.4byte	.LVL30-1
 4110 033b 48000000 		.4byte	.LVL31
 4111 033f 0400     		.2byte	0x4
 4112 0341 F3       		.byte	0xf3
 4113 0342 01       		.uleb128 0x1
 4114 0343 51       		.byte	0x51
 4115 0344 9F       		.byte	0x9f
 4116 0345 48000000 		.4byte	.LVL31
 4117 0349 50000000 		.4byte	.LFE11
 4118 034d 0100     		.2byte	0x1
 4119 034f 51       		.byte	0x51
 4120 0350 00000000 		.4byte	0
 4121 0354 00000000 		.4byte	0
 4122              	.LVUS4:
 4123 0358 00       		.uleb128 0
 4124 0359 00       		.uleb128 .LVU58
 4125 035a 00       		.uleb128 .LVU58
 4126 035b 00       		.uleb128 0
 4127              	.LLST4:
 4128 035c 00000000 		.4byte	.LVL11
 4129 0360 18000000 		.4byte	.LVL14
 4130 0364 0100     		.2byte	0x1
 4131 0366 50       		.byte	0x50
 4132 0367 18000000 		.4byte	.LVL14
 4133 036b 58000000 		.4byte	.LFE9
 4134 036f 0100     		.2byte	0x1
 4135 0371 54       		.byte	0x54
 4136 0372 00000000 		.4byte	0
 4137 0376 00000000 		.4byte	0
 4138              	.LVUS5:
 4139 037a 00       		.uleb128 0
 4140 037b 00       		.uleb128 .LVU57
 4141 037c 00       		.uleb128 .LVU57
 4142 037d 00       		.uleb128 0
 4143              	.LLST5:
 4144 037e 00000000 		.4byte	.LVL11
 4145 0382 14000000 		.4byte	.LVL13
 4146 0386 0100     		.2byte	0x1
 4147 0388 51       		.byte	0x51
 4148 0389 14000000 		.4byte	.LVL13
 4149 038d 58000000 		.4byte	.LFE9
 4150 0391 0100     		.2byte	0x1
 4151 0393 56       		.byte	0x56
 4152 0394 00000000 		.4byte	0
 4153 0398 00000000 		.4byte	0
 4154              	.LVUS6:
 4155 039c 00       		.uleb128 0
 4156 039d 00       		.uleb128 .LVU59
 4157 039e 00       		.uleb128 .LVU59
 4158 039f 00       		.uleb128 0
 4159              	.LLST6:
 4160 03a0 00000000 		.4byte	.LVL11
 4161 03a4 1B000000 		.4byte	.LVL15-1
ARM GAS  /var/folders/l5/0x54b2c10074c8bt31ycjvl80000gp/T//cci54lkl.s 			page 74


 4162 03a8 0100     		.2byte	0x1
 4163 03aa 52       		.byte	0x52
 4164 03ab 1B000000 		.4byte	.LVL15-1
 4165 03af 58000000 		.4byte	.LFE9
 4166 03b3 0400     		.2byte	0x4
 4167 03b5 F3       		.byte	0xf3
 4168 03b6 01       		.uleb128 0x1
 4169 03b7 52       		.byte	0x52
 4170 03b8 9F       		.byte	0x9f
 4171 03b9 00000000 		.4byte	0
 4172 03bd 00000000 		.4byte	0
 4173              	.LVUS7:
 4174 03c1 02       		.uleb128 .LVU78
 4175 03c2 00       		.uleb128 0
 4176              	.LLST7:
 4177 03c3 4C000000 		.4byte	.LVL19
 4178 03c7 58000000 		.4byte	.LFE9
 4179 03cb 0100     		.2byte	0x1
 4180 03cd 55       		.byte	0x55
 4181 03ce 00000000 		.4byte	0
 4182 03d2 00000000 		.4byte	0
 4183              	.LVUS8:
 4184 03d6 03       		.uleb128 .LVU49
 4185 03d7 00       		.uleb128 .LVU59
 4186 03d8 00       		.uleb128 .LVU59
 4187 03d9 02       		.uleb128 .LVU78
 4188              	.LLST8:
 4189 03da 10000000 		.4byte	.LVL12
 4190 03de 1B000000 		.4byte	.LVL15-1
 4191 03e2 0100     		.2byte	0x1
 4192 03e4 52       		.byte	0x52
 4193 03e5 1B000000 		.4byte	.LVL15-1
 4194 03e9 4C000000 		.4byte	.LVL19
 4195 03ed 0400     		.2byte	0x4
 4196 03ef F3       		.byte	0xf3
 4197 03f0 01       		.uleb128 0x1
 4198 03f1 52       		.byte	0x52
 4199 03f2 9F       		.byte	0x9f
 4200 03f3 00000000 		.4byte	0
 4201 03f7 00000000 		.4byte	0
 4202              	.LVUS9:
 4203 03fb 03       		.uleb128 .LVU49
 4204 03fc 00       		.uleb128 .LVU57
 4205 03fd 00       		.uleb128 .LVU57
 4206 03fe 02       		.uleb128 .LVU78
 4207              	.LLST9:
 4208 03ff 10000000 		.4byte	.LVL12
 4209 0403 14000000 		.4byte	.LVL13
 4210 0407 0100     		.2byte	0x1
 4211 0409 51       		.byte	0x51
 4212 040a 14000000 		.4byte	.LVL13
 4213 040e 4C000000 		.4byte	.LVL19
 4214 0412 0100     		.2byte	0x1
 4215 0414 56       		.byte	0x56
 4216 0415 00000000 		.4byte	0
 4217 0419 00000000 		.4byte	0
 4218              	.LVUS10:
ARM GAS  /var/folders/l5/0x54b2c10074c8bt31ycjvl80000gp/T//cci54lkl.s 			page 75


 4219 041d 03       		.uleb128 .LVU49
 4220 041e 00       		.uleb128 .LVU58
 4221 041f 00       		.uleb128 .LVU58
 4222 0420 02       		.uleb128 .LVU78
 4223              	.LLST10:
 4224 0421 10000000 		.4byte	.LVL12
 4225 0425 18000000 		.4byte	.LVL14
 4226 0429 0100     		.2byte	0x1
 4227 042b 50       		.byte	0x50
 4228 042c 18000000 		.4byte	.LVL14
 4229 0430 4C000000 		.4byte	.LVL19
 4230 0434 0100     		.2byte	0x1
 4231 0436 54       		.byte	0x54
 4232 0437 00000000 		.4byte	0
 4233 043b 00000000 		.4byte	0
 4234              	.LVUS11:
 4235 043f 00       		.uleb128 .LVU59
 4236 0440 00       		.uleb128 .LVU73
 4237 0441 00       		.uleb128 .LVU73
 4238 0442 02       		.uleb128 .LVU78
 4239              	.LLST11:
 4240 0443 1C000000 		.4byte	.LVL15
 4241 0447 40000000 		.4byte	.LVL17
 4242 044b 0100     		.2byte	0x1
 4243 044d 50       		.byte	0x50
 4244 044e 40000000 		.4byte	.LVL17
 4245 0452 4C000000 		.4byte	.LVL19
 4246 0456 0100     		.2byte	0x1
 4247 0458 55       		.byte	0x55
 4248 0459 00000000 		.4byte	0
 4249 045d 00000000 		.4byte	0
 4250              	.LVUS12:
 4251 0461 01       		.uleb128 .LVU62
 4252 0462 00       		.uleb128 .LVU76
 4253              	.LLST12:
 4254 0463 24000000 		.4byte	.LVL16
 4255 0467 4C000000 		.4byte	.LVL19
 4256 046b 0400     		.2byte	0x4
 4257 046d F3       		.byte	0xf3
 4258 046e 01       		.uleb128 0x1
 4259 046f 52       		.byte	0x52
 4260 0470 9F       		.byte	0x9f
 4261 0471 00000000 		.4byte	0
 4262 0475 00000000 		.4byte	0
 4263              	.LVUS13:
 4264 0479 00       		.uleb128 .LVU61
 4265 047a 00       		.uleb128 .LVU76
 4266              	.LLST13:
 4267 047b 24000000 		.4byte	.LVL16
 4268 047f 4C000000 		.4byte	.LVL19
 4269 0483 0100     		.2byte	0x1
 4270 0485 56       		.byte	0x56
 4271 0486 00000000 		.4byte	0
 4272 048a 00000000 		.4byte	0
 4273              	.LVUS14:
 4274 048e 00       		.uleb128 .LVU61
 4275 048f 00       		.uleb128 .LVU76
ARM GAS  /var/folders/l5/0x54b2c10074c8bt31ycjvl80000gp/T//cci54lkl.s 			page 76


 4276              	.LLST14:
 4277 0490 24000000 		.4byte	.LVL16
 4278 0494 4C000000 		.4byte	.LVL19
 4279 0498 0100     		.2byte	0x1
 4280 049a 54       		.byte	0x54
 4281 049b 00000000 		.4byte	0
 4282 049f 00000000 		.4byte	0
 4283              	.LVUS3:
 4284 04a3 00       		.uleb128 0
 4285 04a4 00       		.uleb128 .LVU34
 4286 04a5 00       		.uleb128 .LVU34
 4287 04a6 00       		.uleb128 0
 4288              	.LLST3:
 4289 04a7 00000000 		.4byte	.LVL6
 4290 04ab 28000000 		.4byte	.LVL7
 4291 04af 0100     		.2byte	0x1
 4292 04b1 50       		.byte	0x50
 4293 04b2 28000000 		.4byte	.LVL7
 4294 04b6 44000000 		.4byte	.LFE8
 4295 04ba 0100     		.2byte	0x1
 4296 04bc 54       		.byte	0x54
 4297 04bd 00000000 		.4byte	0
 4298 04c1 00000000 		.4byte	0
 4299              	.LVUS0:
 4300 04c5 00       		.uleb128 0
 4301 04c6 00       		.uleb128 .LVU13
 4302 04c7 00       		.uleb128 .LVU13
 4303 04c8 00       		.uleb128 .LVU16
 4304 04c9 00       		.uleb128 .LVU16
 4305 04ca 00       		.uleb128 .LVU17
 4306 04cb 00       		.uleb128 .LVU17
 4307 04cc 00       		.uleb128 0
 4308              	.LLST0:
 4309 04cd 00000000 		.4byte	.LVL0
 4310 04d1 28000000 		.4byte	.LVL2
 4311 04d5 0100     		.2byte	0x1
 4312 04d7 50       		.byte	0x50
 4313 04d8 28000000 		.4byte	.LVL2
 4314 04dc 38000000 		.4byte	.LVL4
 4315 04e0 0100     		.2byte	0x1
 4316 04e2 54       		.byte	0x54
 4317 04e3 38000000 		.4byte	.LVL4
 4318 04e7 3B000000 		.4byte	.LVL5-1
 4319 04eb 0300     		.2byte	0x3
 4320 04ed 70       		.byte	0x70
 4321 04ee 70       		.sleb128 -16
 4322 04ef 9F       		.byte	0x9f
 4323 04f0 3B000000 		.4byte	.LVL5-1
 4324 04f4 3C000000 		.4byte	.LFE7
 4325 04f8 0400     		.2byte	0x4
 4326 04fa F3       		.byte	0xf3
 4327 04fb 01       		.uleb128 0x1
 4328 04fc 50       		.byte	0x50
 4329 04fd 9F       		.byte	0x9f
 4330 04fe 00000000 		.4byte	0
 4331 0502 00000000 		.4byte	0
 4332              	.LVUS1:
ARM GAS  /var/folders/l5/0x54b2c10074c8bt31ycjvl80000gp/T//cci54lkl.s 			page 77


 4333 0506 00       		.uleb128 0
 4334 0507 00       		.uleb128 .LVU7
 4335 0508 00       		.uleb128 .LVU7
 4336 0509 00       		.uleb128 .LVU14
 4337 050a 00       		.uleb128 .LVU14
 4338 050b 00       		.uleb128 0
 4339              	.LLST1:
 4340 050c 00000000 		.4byte	.LVL0
 4341 0510 10000000 		.4byte	.LVL1
 4342 0514 0100     		.2byte	0x1
 4343 0516 51       		.byte	0x51
 4344 0517 10000000 		.4byte	.LVL1
 4345 051b 2B000000 		.4byte	.LVL3-1
 4346 051f 0100     		.2byte	0x1
 4347 0521 53       		.byte	0x53
 4348 0522 2B000000 		.4byte	.LVL3-1
 4349 0526 3C000000 		.4byte	.LFE7
 4350 052a 0400     		.2byte	0x4
 4351 052c F3       		.byte	0xf3
 4352 052d 01       		.uleb128 0x1
 4353 052e 51       		.byte	0x51
 4354 052f 9F       		.byte	0x9f
 4355 0530 00000000 		.4byte	0
 4356 0534 00000000 		.4byte	0
 4357              	.LVUS2:
 4358 0538 00       		.uleb128 0
 4359 0539 00       		.uleb128 .LVU14
 4360 053a 00       		.uleb128 .LVU14
 4361 053b 00       		.uleb128 0
 4362              	.LLST2:
 4363 053c 00000000 		.4byte	.LVL0
 4364 0540 2B000000 		.4byte	.LVL3-1
 4365 0544 0100     		.2byte	0x1
 4366 0546 52       		.byte	0x52
 4367 0547 2B000000 		.4byte	.LVL3-1
 4368 054b 3C000000 		.4byte	.LFE7
 4369 054f 0400     		.2byte	0x4
 4370 0551 F3       		.byte	0xf3
 4371 0552 01       		.uleb128 0x1
 4372 0553 52       		.byte	0x52
 4373 0554 9F       		.byte	0x9f
 4374 0555 00000000 		.4byte	0
 4375 0559 00000000 		.4byte	0
 4376              	.LVUS15:
 4377 055d 00       		.uleb128 0
 4378 055e 00       		.uleb128 .LVU94
 4379 055f 00       		.uleb128 .LVU94
 4380 0560 00       		.uleb128 0
 4381              	.LLST15:
 4382 0561 00000000 		.4byte	.LVL20
 4383 0565 10000000 		.4byte	.LVL21
 4384 0569 0100     		.2byte	0x1
 4385 056b 50       		.byte	0x50
 4386 056c 10000000 		.4byte	.LVL21
 4387 0570 50000000 		.4byte	.LFE10
 4388 0574 0100     		.2byte	0x1
 4389 0576 54       		.byte	0x54
ARM GAS  /var/folders/l5/0x54b2c10074c8bt31ycjvl80000gp/T//cci54lkl.s 			page 78


 4390 0577 00000000 		.4byte	0
 4391 057b 00000000 		.4byte	0
 4392              	.LVUS16:
 4393 057f 00       		.uleb128 0
 4394 0580 00       		.uleb128 .LVU95
 4395 0581 00       		.uleb128 .LVU95
 4396 0582 00       		.uleb128 0
 4397              	.LLST16:
 4398 0583 00000000 		.4byte	.LVL20
 4399 0587 14000000 		.4byte	.LVL22
 4400 058b 0100     		.2byte	0x1
 4401 058d 51       		.byte	0x51
 4402 058e 14000000 		.4byte	.LVL22
 4403 0592 50000000 		.4byte	.LFE10
 4404 0596 0100     		.2byte	0x1
 4405 0598 56       		.byte	0x56
 4406 0599 00000000 		.4byte	0
 4407 059d 00000000 		.4byte	0
 4408              	.LVUS17:
 4409 05a1 00       		.uleb128 0
 4410 05a2 00       		.uleb128 .LVU96
 4411 05a3 00       		.uleb128 .LVU96
 4412 05a4 00       		.uleb128 0
 4413              	.LLST17:
 4414 05a5 00000000 		.4byte	.LVL20
 4415 05a9 17000000 		.4byte	.LVL23-1
 4416 05ad 0100     		.2byte	0x1
 4417 05af 52       		.byte	0x52
 4418 05b0 17000000 		.4byte	.LVL23-1
 4419 05b4 50000000 		.4byte	.LFE10
 4420 05b8 0400     		.2byte	0x4
 4421 05ba F3       		.byte	0xf3
 4422 05bb 01       		.uleb128 0x1
 4423 05bc 52       		.byte	0x52
 4424 05bd 9F       		.byte	0x9f
 4425 05be 00000000 		.4byte	0
 4426 05c2 00000000 		.4byte	0
 4427              	.LVUS18:
 4428 05c6 00       		.uleb128 .LVU96
 4429 05c7 00       		.uleb128 .LVU110
 4430 05c8 00       		.uleb128 .LVU110
 4431 05c9 00       		.uleb128 0
 4432              	.LLST18:
 4433 05ca 18000000 		.4byte	.LVL23
 4434 05ce 3C000000 		.4byte	.LVL25
 4435 05d2 0100     		.2byte	0x1
 4436 05d4 50       		.byte	0x50
 4437 05d5 3C000000 		.4byte	.LVL25
 4438 05d9 50000000 		.4byte	.LFE10
 4439 05dd 0100     		.2byte	0x1
 4440 05df 55       		.byte	0x55
 4441 05e0 00000000 		.4byte	0
 4442 05e4 00000000 		.4byte	0
 4443              	.LVUS19:
 4444 05e8 01       		.uleb128 .LVU99
 4445 05e9 01       		.uleb128 .LVU114
 4446              	.LLST19:
ARM GAS  /var/folders/l5/0x54b2c10074c8bt31ycjvl80000gp/T//cci54lkl.s 			page 79


 4447 05ea 20000000 		.4byte	.LVL24
 4448 05ee 48000000 		.4byte	.LVL27
 4449 05f2 0400     		.2byte	0x4
 4450 05f4 F3       		.byte	0xf3
 4451 05f5 01       		.uleb128 0x1
 4452 05f6 52       		.byte	0x52
 4453 05f7 9F       		.byte	0x9f
 4454 05f8 00000000 		.4byte	0
 4455 05fc 00000000 		.4byte	0
 4456              	.LVUS20:
 4457 0600 00       		.uleb128 .LVU98
 4458 0601 01       		.uleb128 .LVU114
 4459              	.LLST20:
 4460 0602 20000000 		.4byte	.LVL24
 4461 0606 48000000 		.4byte	.LVL27
 4462 060a 0100     		.2byte	0x1
 4463 060c 56       		.byte	0x56
 4464 060d 00000000 		.4byte	0
 4465 0611 00000000 		.4byte	0
 4466              	.LVUS21:
 4467 0615 00       		.uleb128 .LVU98
 4468 0616 01       		.uleb128 .LVU114
 4469              	.LLST21:
 4470 0617 20000000 		.4byte	.LVL24
 4471 061b 48000000 		.4byte	.LVL27
 4472 061f 0100     		.2byte	0x1
 4473 0621 54       		.byte	0x54
 4474 0622 00000000 		.4byte	0
 4475 0626 00000000 		.4byte	0
 4476              	.LVUS24:
 4477 062a 00       		.uleb128 0
 4478 062b 00       		.uleb128 .LVU155
 4479 062c 00       		.uleb128 .LVU155
 4480 062d 00       		.uleb128 0
 4481              	.LLST24:
 4482 062e 00000000 		.4byte	.LVL33
 4483 0632 10000000 		.4byte	.LVL34
 4484 0636 0100     		.2byte	0x1
 4485 0638 50       		.byte	0x50
 4486 0639 10000000 		.4byte	.LVL34
 4487 063d 58000000 		.4byte	.LFE13
 4488 0641 0100     		.2byte	0x1
 4489 0643 54       		.byte	0x54
 4490 0644 00000000 		.4byte	0
 4491 0648 00000000 		.4byte	0
 4492              	.LVUS25:
 4493 064c 00       		.uleb128 0
 4494 064d 00       		.uleb128 .LVU156
 4495 064e 00       		.uleb128 .LVU156
 4496 064f 00       		.uleb128 0
 4497              	.LLST25:
 4498 0650 00000000 		.4byte	.LVL33
 4499 0654 14000000 		.4byte	.LVL35
 4500 0658 0100     		.2byte	0x1
 4501 065a 51       		.byte	0x51
 4502 065b 14000000 		.4byte	.LVL35
 4503 065f 58000000 		.4byte	.LFE13
ARM GAS  /var/folders/l5/0x54b2c10074c8bt31ycjvl80000gp/T//cci54lkl.s 			page 80


 4504 0663 0100     		.2byte	0x1
 4505 0665 56       		.byte	0x56
 4506 0666 00000000 		.4byte	0
 4507 066a 00000000 		.4byte	0
 4508              	.LVUS26:
 4509 066e 00       		.uleb128 0
 4510 066f 00       		.uleb128 .LVU157
 4511 0670 00       		.uleb128 .LVU157
 4512 0671 00       		.uleb128 0
 4513              	.LLST26:
 4514 0672 00000000 		.4byte	.LVL33
 4515 0676 17000000 		.4byte	.LVL36-1
 4516 067a 0100     		.2byte	0x1
 4517 067c 52       		.byte	0x52
 4518 067d 17000000 		.4byte	.LVL36-1
 4519 0681 58000000 		.4byte	.LFE13
 4520 0685 0400     		.2byte	0x4
 4521 0687 F3       		.byte	0xf3
 4522 0688 01       		.uleb128 0x1
 4523 0689 52       		.byte	0x52
 4524 068a 9F       		.byte	0x9f
 4525 068b 00000000 		.4byte	0
 4526 068f 00000000 		.4byte	0
 4527              	.LVUS27:
 4528 0693 00       		.uleb128 .LVU157
 4529 0694 00       		.uleb128 .LVU169
 4530 0695 00       		.uleb128 .LVU169
 4531 0696 00       		.uleb128 0
 4532              	.LLST27:
 4533 0697 18000000 		.4byte	.LVL36
 4534 069b 3C000000 		.4byte	.LVL38
 4535 069f 0100     		.2byte	0x1
 4536 06a1 50       		.byte	0x50
 4537 06a2 3C000000 		.4byte	.LVL38
 4538 06a6 58000000 		.4byte	.LFE13
 4539 06aa 0100     		.2byte	0x1
 4540 06ac 55       		.byte	0x55
 4541 06ad 00000000 		.4byte	0
 4542 06b1 00000000 		.4byte	0
 4543              	.LVUS28:
 4544 06b5 02       		.uleb128 .LVU166
 4545 06b6 01       		.uleb128 .LVU176
 4546              	.LLST28:
 4547 06b7 34000000 		.4byte	.LVL37
 4548 06bb 50000000 		.4byte	.LVL40
 4549 06bf 0400     		.2byte	0x4
 4550 06c1 F3       		.byte	0xf3
 4551 06c2 01       		.uleb128 0x1
 4552 06c3 52       		.byte	0x52
 4553 06c4 9F       		.byte	0x9f
 4554 06c5 00000000 		.4byte	0
 4555 06c9 00000000 		.4byte	0
 4556              	.LVUS29:
 4557 06cd 01       		.uleb128 .LVU165
 4558 06ce 01       		.uleb128 .LVU176
 4559              	.LLST29:
 4560 06cf 34000000 		.4byte	.LVL37
ARM GAS  /var/folders/l5/0x54b2c10074c8bt31ycjvl80000gp/T//cci54lkl.s 			page 81


 4561 06d3 50000000 		.4byte	.LVL40
 4562 06d7 0100     		.2byte	0x1
 4563 06d9 56       		.byte	0x56
 4564 06da 00000000 		.4byte	0
 4565 06de 00000000 		.4byte	0
 4566              	.LVUS30:
 4567 06e2 01       		.uleb128 .LVU165
 4568 06e3 01       		.uleb128 .LVU176
 4569              	.LLST30:
 4570 06e4 34000000 		.4byte	.LVL37
 4571 06e8 50000000 		.4byte	.LVL40
 4572 06ec 0100     		.2byte	0x1
 4573 06ee 54       		.byte	0x54
 4574 06ef 00000000 		.4byte	0
 4575 06f3 00000000 		.4byte	0
 4576              	.LVUS48:
 4577 06f7 00       		.uleb128 0
 4578 06f8 00       		.uleb128 .LVU276
 4579 06f9 00       		.uleb128 .LVU276
 4580 06fa 00       		.uleb128 0
 4581              	.LLST48:
 4582 06fb 00000000 		.4byte	.LVL57
 4583 06ff 10000000 		.4byte	.LVL58
 4584 0703 0100     		.2byte	0x1
 4585 0705 50       		.byte	0x50
 4586 0706 10000000 		.4byte	.LVL58
 4587 070a 58000000 		.4byte	.LFE16
 4588 070e 0100     		.2byte	0x1
 4589 0710 54       		.byte	0x54
 4590 0711 00000000 		.4byte	0
 4591 0715 00000000 		.4byte	0
 4592              	.LVUS49:
 4593 0719 00       		.uleb128 0
 4594 071a 00       		.uleb128 .LVU277
 4595 071b 00       		.uleb128 .LVU277
 4596 071c 00       		.uleb128 0
 4597              	.LLST49:
 4598 071d 00000000 		.4byte	.LVL57
 4599 0721 14000000 		.4byte	.LVL59
 4600 0725 0100     		.2byte	0x1
 4601 0727 51       		.byte	0x51
 4602 0728 14000000 		.4byte	.LVL59
 4603 072c 58000000 		.4byte	.LFE16
 4604 0730 0100     		.2byte	0x1
 4605 0732 56       		.byte	0x56
 4606 0733 00000000 		.4byte	0
 4607 0737 00000000 		.4byte	0
 4608              	.LVUS50:
 4609 073b 00       		.uleb128 0
 4610 073c 00       		.uleb128 .LVU278
 4611 073d 00       		.uleb128 .LVU278
 4612 073e 00       		.uleb128 0
 4613              	.LLST50:
 4614 073f 00000000 		.4byte	.LVL57
 4615 0743 17000000 		.4byte	.LVL60-1
 4616 0747 0100     		.2byte	0x1
 4617 0749 52       		.byte	0x52
ARM GAS  /var/folders/l5/0x54b2c10074c8bt31ycjvl80000gp/T//cci54lkl.s 			page 82


 4618 074a 17000000 		.4byte	.LVL60-1
 4619 074e 58000000 		.4byte	.LFE16
 4620 0752 0400     		.2byte	0x4
 4621 0754 F3       		.byte	0xf3
 4622 0755 01       		.uleb128 0x1
 4623 0756 52       		.byte	0x52
 4624 0757 9F       		.byte	0x9f
 4625 0758 00000000 		.4byte	0
 4626 075c 00000000 		.4byte	0
 4627              	.LVUS51:
 4628 0760 00       		.uleb128 .LVU278
 4629 0761 00       		.uleb128 .LVU293
 4630 0762 00       		.uleb128 .LVU293
 4631 0763 00       		.uleb128 0
 4632              	.LLST51:
 4633 0764 18000000 		.4byte	.LVL60
 4634 0768 44000000 		.4byte	.LVL62
 4635 076c 0100     		.2byte	0x1
 4636 076e 50       		.byte	0x50
 4637 076f 44000000 		.4byte	.LVL62
 4638 0773 58000000 		.4byte	.LFE16
 4639 0777 0100     		.2byte	0x1
 4640 0779 55       		.byte	0x55
 4641 077a 00000000 		.4byte	0
 4642 077e 00000000 		.4byte	0
 4643              	.LVUS52:
 4644 0782 01       		.uleb128 .LVU281
 4645 0783 01       		.uleb128 .LVU297
 4646              	.LLST52:
 4647 0784 20000000 		.4byte	.LVL61
 4648 0788 50000000 		.4byte	.LVL64
 4649 078c 0400     		.2byte	0x4
 4650 078e F3       		.byte	0xf3
 4651 078f 01       		.uleb128 0x1
 4652 0790 52       		.byte	0x52
 4653 0791 9F       		.byte	0x9f
 4654 0792 00000000 		.4byte	0
 4655 0796 00000000 		.4byte	0
 4656              	.LVUS53:
 4657 079a 00       		.uleb128 .LVU280
 4658 079b 01       		.uleb128 .LVU297
 4659              	.LLST53:
 4660 079c 20000000 		.4byte	.LVL61
 4661 07a0 50000000 		.4byte	.LVL64
 4662 07a4 0100     		.2byte	0x1
 4663 07a6 56       		.byte	0x56
 4664 07a7 00000000 		.4byte	0
 4665 07ab 00000000 		.4byte	0
 4666              	.LVUS54:
 4667 07af 00       		.uleb128 .LVU280
 4668 07b0 01       		.uleb128 .LVU297
 4669              	.LLST54:
 4670 07b1 20000000 		.4byte	.LVL61
 4671 07b5 50000000 		.4byte	.LVL64
 4672 07b9 0100     		.2byte	0x1
 4673 07bb 54       		.byte	0x54
 4674 07bc 00000000 		.4byte	0
ARM GAS  /var/folders/l5/0x54b2c10074c8bt31ycjvl80000gp/T//cci54lkl.s 			page 83


 4675 07c0 00000000 		.4byte	0
 4676              		.section	.debug_aranges,"",%progbits
 4677 0000 6C000000 		.4byte	0x6c
 4678 0004 0200     		.2byte	0x2
 4679 0006 00000000 		.4byte	.Ldebug_info0
 4680 000a 04       		.byte	0x4
 4681 000b 00       		.byte	0
 4682 000c 0000     		.2byte	0
 4683 000e 0000     		.2byte	0
 4684 0010 00000000 		.4byte	.LFB7
 4685 0014 3C000000 		.4byte	.LFE7-.LFB7
 4686 0018 00000000 		.4byte	.LFB8
 4687 001c 44000000 		.4byte	.LFE8-.LFB8
 4688 0020 00000000 		.4byte	.LFB9
 4689 0024 58000000 		.4byte	.LFE9-.LFB9
 4690 0028 00000000 		.4byte	.LFB10
 4691 002c 50000000 		.4byte	.LFE10-.LFB10
 4692 0030 00000000 		.4byte	.LFB11
 4693 0034 50000000 		.4byte	.LFE11-.LFB11
 4694 0038 00000000 		.4byte	.LFB13
 4695 003c 58000000 		.4byte	.LFE13-.LFB13
 4696 0040 00000000 		.4byte	.LFB12
 4697 0044 14000000 		.4byte	.LFE12-.LFB12
 4698 0048 00000000 		.4byte	.LFB14
 4699 004c 54000000 		.4byte	.LFE14-.LFB14
 4700 0050 00000000 		.4byte	.LFB15
 4701 0054 60000000 		.4byte	.LFE15-.LFB15
 4702 0058 00000000 		.4byte	.LFB16
 4703 005c 58000000 		.4byte	.LFE16-.LFB16
 4704 0060 00000000 		.4byte	.LFB17
 4705 0064 54000000 		.4byte	.LFE17-.LFB17
 4706 0068 00000000 		.4byte	0
 4707 006c 00000000 		.4byte	0
 4708              		.section	.debug_ranges,"",%progbits
 4709              	.Ldebug_ranges0:
 4710 0000 34000000 		.4byte	.LBB20
 4711 0004 34000000 		.4byte	.LBE20
 4712 0008 38000000 		.4byte	.LBB24
 4713 000c 3C000000 		.4byte	.LBE24
 4714 0010 44000000 		.4byte	.LBB25
 4715 0014 50000000 		.4byte	.LBE25
 4716 0018 00000000 		.4byte	0
 4717 001c 00000000 		.4byte	0
 4718 0020 00000000 		.4byte	.LFB7
 4719 0024 3C000000 		.4byte	.LFE7
 4720 0028 00000000 		.4byte	.LFB8
 4721 002c 44000000 		.4byte	.LFE8
 4722 0030 00000000 		.4byte	.LFB9
 4723 0034 58000000 		.4byte	.LFE9
 4724 0038 00000000 		.4byte	.LFB10
 4725 003c 50000000 		.4byte	.LFE10
 4726 0040 00000000 		.4byte	.LFB11
 4727 0044 50000000 		.4byte	.LFE11
 4728 0048 00000000 		.4byte	.LFB13
 4729 004c 58000000 		.4byte	.LFE13
 4730 0050 00000000 		.4byte	.LFB12
 4731 0054 14000000 		.4byte	.LFE12
ARM GAS  /var/folders/l5/0x54b2c10074c8bt31ycjvl80000gp/T//cci54lkl.s 			page 84


 4732 0058 00000000 		.4byte	.LFB14
 4733 005c 54000000 		.4byte	.LFE14
 4734 0060 00000000 		.4byte	.LFB15
 4735 0064 60000000 		.4byte	.LFE15
 4736 0068 00000000 		.4byte	.LFB16
 4737 006c 58000000 		.4byte	.LFE16
 4738 0070 00000000 		.4byte	.LFB17
 4739 0074 54000000 		.4byte	.LFE17
 4740 0078 00000000 		.4byte	0
 4741 007c 00000000 		.4byte	0
 4742              		.section	.debug_line,"",%progbits
 4743              	.Ldebug_line0:
 4744 0000 2E060000 		.section	.debug_str,"MS",%progbits,1
 4744      0300A201 
 4744      00000201 
 4744      FB0E0D00 
 4744      01010101 
 4745              	.LASF98:
 4746 0000 63665F6F 		.ascii	"cf_off_older\000"
 4746      66665F6F 
 4746      6C646572 
 4746      00
 4747              	.LASF41:
 4748 000d 705F6D73 		.ascii	"p_msg\000"
 4748      6700
 4749              	.LASF122:
 4750 0013 63685365 		.ascii	"chSemSignalI\000"
 4750      6D536967 
 4750      6E616C49 
 4750      00
 4751              	.LASF83:
 4752 0020 7264796D 		.ascii	"rdymsg\000"
 4752      736700
 4753              	.LASF79:
 4754 0027 6D625F72 		.ascii	"mb_rdptr\000"
 4754      64707472 
 4754      00
 4755              	.LASF4:
 4756 0030 5F5F7569 		.ascii	"__uint8_t\000"
 4756      6E74385F 
 4756      7400
 4757              	.LASF117:
 4758 003a 63684D42 		.ascii	"chMBPostI\000"
 4758      506F7374 
 4758      4900
 4759              	.LASF67:
 4760 0044 76746C69 		.ascii	"vtlist\000"
 4760      737400
 4761              	.LASF118:
 4762 004b 63684D42 		.ascii	"chMBPostS\000"
 4762      506F7374 
 4762      5300
 4763              	.LASF82:
 4764 0055 4D61696C 		.ascii	"Mailbox\000"
 4764      626F7800 
 4765              	.LASF113:
 4766 005d 63684D42 		.ascii	"chMBPostAheadI\000"
ARM GAS  /var/folders/l5/0x54b2c10074c8bt31ycjvl80000gp/T//cci54lkl.s 			page 85


 4766      506F7374 
 4766      41686561 
 4766      644900
 4767              	.LASF12:
 4768 006c 6C6F6E67 		.ascii	"long long unsigned int\000"
 4768      206C6F6E 
 4768      6720756E 
 4768      7369676E 
 4768      65642069 
 4769              	.LASF94:
 4770 0083 63685F74 		.ascii	"ch_threadsize\000"
 4770      68726561 
 4770      6473697A 
 4770      6500
 4771              	.LASF84:
 4772 0091 65786974 		.ascii	"exitcode\000"
 4772      636F6465 
 4772      00
 4773              	.LASF121:
 4774 009a 63684D42 		.ascii	"chMBInit\000"
 4774      496E6974 
 4774      00
 4775              	.LASF115:
 4776 00a3 63684D42 		.ascii	"chMBPostAheadS\000"
 4776      506F7374 
 4776      41686561 
 4776      645300
 4777              	.LASF78:
 4778 00b2 6D625F77 		.ascii	"mb_wrptr\000"
 4778      72707472 
 4778      00
 4779              	.LASF29:
 4780 00bb 705F7072 		.ascii	"p_prio\000"
 4780      696F00
 4781              	.LASF101:
 4782 00c2 63665F6F 		.ascii	"cf_off_state\000"
 4782      66665F73 
 4782      74617465 
 4782      00
 4783              	.LASF11:
 4784 00cf 6C6F6E67 		.ascii	"long long int\000"
 4784      206C6F6E 
 4784      6720696E 
 4784      7400
 4785              	.LASF1:
 4786 00dd 7369676E 		.ascii	"signed char\000"
 4786      65642063 
 4786      68617200 
 4787              	.LASF100:
 4788 00e9 63665F6F 		.ascii	"cf_off_stklimit\000"
 4788      66665F73 
 4788      746B6C69 
 4788      6D697400 
 4789              	.LASF102:
 4790 00f9 63665F6F 		.ascii	"cf_off_flags\000"
 4790      66665F66 
 4790      6C616773 
ARM GAS  /var/folders/l5/0x54b2c10074c8bt31ycjvl80000gp/T//cci54lkl.s 			page 86


 4790      00
 4791              	.LASF73:
 4792 0106 6D5F7175 		.ascii	"m_queue\000"
 4792      65756500 
 4793              	.LASF20:
 4794 010e 74736C69 		.ascii	"tslices_t\000"
 4794      6365735F 
 4794      7400
 4795              	.LASF8:
 4796 0118 6C6F6E67 		.ascii	"long int\000"
 4796      20696E74 
 4796      00
 4797              	.LASF18:
 4798 0121 74737461 		.ascii	"tstate_t\000"
 4798      74655F74 
 4798      00
 4799              	.LASF14:
 4800 012a 75696E74 		.ascii	"uint16_t\000"
 4800      31365F74 
 4800      00
 4801              	.LASF106:
 4802 0133 63686465 		.ascii	"chdebug_t\000"
 4802      6275675F 
 4802      7400
 4803              	.LASF31:
 4804 013d 705F6E65 		.ascii	"p_newer\000"
 4804      77657200 
 4805              	.LASF108:
 4806 0145 5F69646C 		.ascii	"_idle_thread_wa\000"
 4806      655F7468 
 4806      72656164 
 4806      5F776100 
 4807              	.LASF70:
 4808 0155 735F7175 		.ascii	"s_queue\000"
 4808      65756500 
 4809              	.LASF128:
 4810 015d 2E2E2F2E 		.ascii	"../../os/kernel/src/chmboxes.c\000"
 4810      2E2F6F73 
 4810      2F6B6572 
 4810      6E656C2F 
 4810      7372632F 
 4811              	.LASF123:
 4812 017c 63685363 		.ascii	"chSchRescheduleS\000"
 4812      68526573 
 4812      63686564 
 4812      756C6553 
 4812      00
 4813              	.LASF9:
 4814 018d 5F5F7569 		.ascii	"__uint32_t\000"
 4814      6E743332 
 4814      5F7400
 4815              	.LASF48:
 4816 0198 72656761 		.ascii	"regarm_t\000"
 4816      726D5F74 
 4816      00
 4817              	.LASF54:
 4818 01a1 76745F70 		.ascii	"vt_prev\000"
ARM GAS  /var/folders/l5/0x54b2c10074c8bt31ycjvl80000gp/T//cci54lkl.s 			page 87


 4818      72657600 
 4819              	.LASF25:
 4820 01a9 636E745F 		.ascii	"cnt_t\000"
 4820      7400
 4821              	.LASF0:
 4822 01af 756E7369 		.ascii	"unsigned int\000"
 4822      676E6564 
 4822      20696E74 
 4822      00
 4823              	.LASF53:
 4824 01bc 76745F6E 		.ascii	"vt_next\000"
 4824      65787400 
 4825              	.LASF10:
 4826 01c4 6C6F6E67 		.ascii	"long unsigned int\000"
 4826      20756E73 
 4826      69676E65 
 4826      6420696E 
 4826      7400
 4827              	.LASF107:
 4828 01d6 63685F64 		.ascii	"ch_debug\000"
 4828      65627567 
 4828      00
 4829              	.LASF81:
 4830 01df 6D625F65 		.ascii	"mb_emptysem\000"
 4830      6D707479 
 4830      73656D00 
 4831              	.LASF51:
 4832 01eb 76746675 		.ascii	"vtfunc_t\000"
 4832      6E635F74 
 4832      00
 4833              	.LASF88:
 4834 01f4 63685F69 		.ascii	"ch_identifier\000"
 4834      64656E74 
 4834      69666965 
 4834      7200
 4835              	.LASF71:
 4836 0202 735F636E 		.ascii	"s_cnt\000"
 4836      7400
 4837              	.LASF50:
 4838 0208 636F6E74 		.ascii	"context\000"
 4838      65787400 
 4839              	.LASF6:
 4840 0210 73686F72 		.ascii	"short unsigned int\000"
 4840      7420756E 
 4840      7369676E 
 4840      65642069 
 4840      6E7400
 4841              	.LASF111:
 4842 0223 63684D42 		.ascii	"chMBFetchI\000"
 4842      46657463 
 4842      684900
 4843              	.LASF22:
 4844 022e 6D73675F 		.ascii	"msg_t\000"
 4844      7400
 4845              	.LASF63:
 4846 0234 725F6E65 		.ascii	"r_newer\000"
 4846      77657200 
ARM GAS  /var/folders/l5/0x54b2c10074c8bt31ycjvl80000gp/T//cci54lkl.s 			page 88


 4847              	.LASF127:
 4848 023c 474E5520 		.ascii	"GNU C17 8.3.1 20190703 (release) [gcc-8-branch revi"
 4848      43313720 
 4848      382E332E 
 4848      31203230 
 4848      31393037 
 4849 026f 73696F6E 		.ascii	"sion 273027] -mcpu=arm1176jz-s -mno-thumb-interwork"
 4849      20323733 
 4849      3032375D 
 4849      202D6D63 
 4849      70753D61 
 4850 02a2 202D6D66 		.ascii	" -mfloat-abi=soft -marm -march=armv6kz -ggdb -O2 -f"
 4850      6C6F6174 
 4850      2D616269 
 4850      3D736F66 
 4850      74202D6D 
 4851 02d5 6F6D6974 		.ascii	"omit-frame-pointer -ffunction-sections -fdata-secti"
 4851      2D667261 
 4851      6D652D70 
 4851      6F696E74 
 4851      6572202D 
 4852 0308 6F6E7300 		.ascii	"ons\000"
 4853              	.LASF114:
 4854 030c 63684D42 		.ascii	"chMBFetchS\000"
 4854      46657463 
 4854      685300
 4855              	.LASF17:
 4856 0317 746D6F64 		.ascii	"tmode_t\000"
 4856      655F7400 
 4857              	.LASF46:
 4858 031f 54687265 		.ascii	"ThreadsList\000"
 4858      6164734C 
 4858      69737400 
 4859              	.LASF23:
 4860 032b 6576656E 		.ascii	"eventmask_t\000"
 4860      746D6173 
 4860      6B5F7400 
 4861              	.LASF72:
 4862 0337 4D757465 		.ascii	"Mutex\000"
 4862      7800
 4863              	.LASF109:
 4864 033d 6D736770 		.ascii	"msgp\000"
 4864      00
 4865              	.LASF47:
 4866 0342 73746B61 		.ascii	"stkalign_t\000"
 4866      6C69676E 
 4866      5F7400
 4867              	.LASF89:
 4868 034d 63685F7A 		.ascii	"ch_zero\000"
 4868      65726F00 
 4869              	.LASF103:
 4870 0355 63665F6F 		.ascii	"cf_off_refs\000"
 4870      66665F72 
 4870      65667300 
 4871              	.LASF55:
 4872 0361 76745F74 		.ascii	"vt_time\000"
 4872      696D6500 
ARM GAS  /var/folders/l5/0x54b2c10074c8bt31ycjvl80000gp/T//cci54lkl.s 			page 89


 4873              	.LASF56:
 4874 0369 76745F66 		.ascii	"vt_func\000"
 4874      756E6300 
 4875              	.LASF93:
 4876 0371 63685F74 		.ascii	"ch_timesize\000"
 4876      696D6573 
 4876      697A6500 
 4877              	.LASF120:
 4878 037d 63684D42 		.ascii	"chMBReset\000"
 4878      52657365 
 4878      7400
 4879              	.LASF129:
 4880 0387 2F557365 		.ascii	"/Users/fernandoguirado/Desktop/Chibi/ChibiOS-RPi/de"
 4880      72732F66 
 4880      65726E61 
 4880      6E646F67 
 4880      75697261 
 4881 03ba 6D6F732F 		.ascii	"mos/led\000"
 4881      6C656400 
 4882              	.LASF62:
 4883 03c2 725F6374 		.ascii	"r_ctx\000"
 4883      7800
 4884              	.LASF45:
 4885 03c8 54687265 		.ascii	"ThreadsQueue\000"
 4885      61647351 
 4885      75657565 
 4885      00
 4886              	.LASF90:
 4887 03d5 63685F73 		.ascii	"ch_size\000"
 4887      697A6500 
 4888              	.LASF76:
 4889 03dd 6D625F62 		.ascii	"mb_buffer\000"
 4889      75666665 
 4889      7200
 4890              	.LASF110:
 4891 03e7 74696D65 		.ascii	"time\000"
 4891      00
 4892              	.LASF65:
 4893 03ec 725F6375 		.ascii	"r_current\000"
 4893      7272656E 
 4893      7400
 4894              	.LASF64:
 4895 03f6 725F6F6C 		.ascii	"r_older\000"
 4895      64657200 
 4896              	.LASF19:
 4897 03fe 74726566 		.ascii	"trefs_t\000"
 4897      735F7400 
 4898              	.LASF92:
 4899 0406 63685F70 		.ascii	"ch_ptrsize\000"
 4899      74727369 
 4899      7A6500
 4900              	.LASF28:
 4901 0411 705F7072 		.ascii	"p_prev\000"
 4901      657600
 4902              	.LASF99:
 4903 0418 63665F6F 		.ascii	"cf_off_name\000"
 4903      66665F6E 
ARM GAS  /var/folders/l5/0x54b2c10074c8bt31ycjvl80000gp/T//cci54lkl.s 			page 90


 4903      616D6500 
 4904              	.LASF21:
 4905 0424 74707269 		.ascii	"tprio_t\000"
 4905      6F5F7400 
 4906              	.LASF15:
 4907 042c 696E7433 		.ascii	"int32_t\000"
 4907      325F7400 
 4908              	.LASF2:
 4909 0434 756E7369 		.ascii	"unsigned char\000"
 4909      676E6564 
 4909      20636861 
 4909      7200
 4910              	.LASF77:
 4911 0442 6D625F74 		.ascii	"mb_top\000"
 4911      6F7000
 4912              	.LASF43:
 4913 0449 705F6D74 		.ascii	"p_mtxlist\000"
 4913      786C6973 
 4913      7400
 4914              	.LASF3:
 4915 0453 73686F72 		.ascii	"short int\000"
 4915      7420696E 
 4915      7400
 4916              	.LASF34:
 4917 045d 705F7374 		.ascii	"p_state\000"
 4917      61746500 
 4918              	.LASF37:
 4919 0465 705F7072 		.ascii	"p_preempt\000"
 4919      65656D70 
 4919      7400
 4920              	.LASF105:
 4921 046f 63665F6F 		.ascii	"cf_off_time\000"
 4921      66665F74 
 4921      696D6500 
 4922              	.LASF32:
 4923 047b 705F6F6C 		.ascii	"p_older\000"
 4923      64657200 
 4924              	.LASF61:
 4925 0483 725F7072 		.ascii	"r_prio\000"
 4925      696F00
 4926              	.LASF86:
 4927 048a 65776D61 		.ascii	"ewmask\000"
 4927      736B00
 4928              	.LASF27:
 4929 0491 705F6E65 		.ascii	"p_next\000"
 4929      787400
 4930              	.LASF104:
 4931 0498 63665F6F 		.ascii	"cf_off_preempt\000"
 4931      66665F70 
 4931      7265656D 
 4931      707400
 4932              	.LASF35:
 4933 04a7 705F666C 		.ascii	"p_flags\000"
 4933      61677300 
 4934              	.LASF119:
 4935 04af 63684D42 		.ascii	"chMBPost\000"
 4935      506F7374 
ARM GAS  /var/folders/l5/0x54b2c10074c8bt31ycjvl80000gp/T//cci54lkl.s 			page 91


 4935      00
 4936              	.LASF26:
 4937 04b8 54687265 		.ascii	"Thread\000"
 4937      616400
 4938              	.LASF97:
 4939 04bf 63665F6F 		.ascii	"cf_off_newer\000"
 4939      66665F6E 
 4939      65776572 
 4939      00
 4940              	.LASF42:
 4941 04cc 705F6570 		.ascii	"p_epending\000"
 4941      656E6469 
 4941      6E6700
 4942              	.LASF16:
 4943 04d7 75696E74 		.ascii	"uint32_t\000"
 4943      33325F74 
 4943      00
 4944              	.LASF95:
 4945 04e0 63665F6F 		.ascii	"cf_off_prio\000"
 4945      66665F70 
 4945      72696F00 
 4946              	.LASF60:
 4947 04ec 725F7175 		.ascii	"r_queue\000"
 4947      65756500 
 4948              	.LASF52:
 4949 04f4 56697274 		.ascii	"VirtualTimer\000"
 4949      75616C54 
 4949      696D6572 
 4949      00
 4950              	.LASF87:
 4951 0501 63686172 		.ascii	"char\000"
 4951      00
 4952              	.LASF124:
 4953 0506 63685365 		.ascii	"chSemWaitTimeoutS\000"
 4953      6D576169 
 4953      7454696D 
 4953      656F7574 
 4953      5300
 4954              	.LASF5:
 4955 0518 5F5F7569 		.ascii	"__uint16_t\000"
 4955      6E743136 
 4955      5F7400
 4956              	.LASF75:
 4957 0523 6D5F6E65 		.ascii	"m_next\000"
 4957      787400
 4958              	.LASF24:
 4959 052a 73797374 		.ascii	"systime_t\000"
 4959      696D655F 
 4959      7400
 4960              	.LASF44:
 4961 0534 705F7265 		.ascii	"p_realprio\000"
 4961      616C7072 
 4961      696F00
 4962              	.LASF7:
 4963 053f 5F5F696E 		.ascii	"__int32_t\000"
 4963      7433325F 
 4963      7400
ARM GAS  /var/folders/l5/0x54b2c10074c8bt31ycjvl80000gp/T//cci54lkl.s 			page 92


 4964              	.LASF38:
 4965 0549 705F7469 		.ascii	"p_time\000"
 4965      6D6500
 4966              	.LASF116:
 4967 0550 63684D42 		.ascii	"chMBPostAhead\000"
 4967      506F7374 
 4967      41686561 
 4967      6400
 4968              	.LASF49:
 4969 055e 696E7463 		.ascii	"intctx\000"
 4969      747800
 4970              	.LASF40:
 4971 0565 705F6D73 		.ascii	"p_msgqueue\000"
 4971      67717565 
 4971      756500
 4972              	.LASF112:
 4973 0570 63684D42 		.ascii	"chMBFetch\000"
 4973      46657463 
 4973      6800
 4974              	.LASF57:
 4975 057a 76745F70 		.ascii	"vt_par\000"
 4975      617200
 4976              	.LASF69:
 4977 0581 53656D61 		.ascii	"Semaphore\000"
 4977      70686F72 
 4977      6500
 4978              	.LASF80:
 4979 058b 6D625F66 		.ascii	"mb_fullsem\000"
 4979      756C6C73 
 4979      656D00
 4980              	.LASF96:
 4981 0596 63665F6F 		.ascii	"cf_off_ctx\000"
 4981      66665F63 
 4981      747800
 4982              	.LASF36:
 4983 05a1 705F7265 		.ascii	"p_refs\000"
 4983      667300
 4984              	.LASF66:
 4985 05a8 52656164 		.ascii	"ReadyList\000"
 4985      794C6973 
 4985      7400
 4986              	.LASF125:
 4987 05b2 63685365 		.ascii	"chSemResetI\000"
 4987      6D526573 
 4987      65744900 
 4988              	.LASF68:
 4989 05be 726C6973 		.ascii	"rlist\000"
 4989      7400
 4990              	.LASF13:
 4991 05c4 75696E74 		.ascii	"uint8_t\000"
 4991      385F7400 
 4992              	.LASF85:
 4993 05cc 77746F62 		.ascii	"wtobjp\000"
 4993      6A7000
 4994              	.LASF33:
 4995 05d3 705F6E61 		.ascii	"p_name\000"
 4995      6D6500
ARM GAS  /var/folders/l5/0x54b2c10074c8bt31ycjvl80000gp/T//cci54lkl.s 			page 93


 4996              	.LASF58:
 4997 05da 76745F73 		.ascii	"vt_systime\000"
 4997      79737469 
 4997      6D6500
 4998              	.LASF91:
 4999 05e5 63685F76 		.ascii	"ch_version\000"
 4999      65727369 
 4999      6F6E00
 5000              	.LASF59:
 5001 05f0 56544C69 		.ascii	"VTList\000"
 5001      737400
 5002              	.LASF74:
 5003 05f7 6D5F6F77 		.ascii	"m_owner\000"
 5003      6E657200 
 5004              	.LASF30:
 5005 05ff 705F6374 		.ascii	"p_ctx\000"
 5005      7800
 5006              	.LASF39:
 5007 0605 705F7761 		.ascii	"p_waiting\000"
 5007      6974696E 
 5007      6700
 5008              	.LASF126:
 5009 060f 63685365 		.ascii	"chSemInit\000"
 5009      6D496E69 
 5009      7400
 5010              		.ident	"GCC: (GNU Tools for Arm Embedded Processors 8-2019-q3-update) 8.3.1 20190703 (release) [gc
ARM GAS  /var/folders/l5/0x54b2c10074c8bt31ycjvl80000gp/T//cci54lkl.s 			page 94


DEFINED SYMBOLS
                            *ABS*:0000000000000000 chmboxes.c
/var/folders/l5/0x54b2c10074c8bt31ycjvl80000gp/T//cci54lkl.s:16     .text.chMBInit:0000000000000000 $a
/var/folders/l5/0x54b2c10074c8bt31ycjvl80000gp/T//cci54lkl.s:23     .text.chMBInit:0000000000000000 chMBInit
/var/folders/l5/0x54b2c10074c8bt31ycjvl80000gp/T//cci54lkl.s:78     .text.chMBReset:0000000000000000 $a
/var/folders/l5/0x54b2c10074c8bt31ycjvl80000gp/T//cci54lkl.s:84     .text.chMBReset:0000000000000000 chMBReset
/var/folders/l5/0x54b2c10074c8bt31ycjvl80000gp/T//cci54lkl.s:151    .text.chMBPost:0000000000000000 $a
/var/folders/l5/0x54b2c10074c8bt31ycjvl80000gp/T//cci54lkl.s:157    .text.chMBPost:0000000000000000 chMBPost
/var/folders/l5/0x54b2c10074c8bt31ycjvl80000gp/T//cci54lkl.s:266    .text.chMBPostS:0000000000000000 $a
/var/folders/l5/0x54b2c10074c8bt31ycjvl80000gp/T//cci54lkl.s:272    .text.chMBPostS:0000000000000000 chMBPostS
/var/folders/l5/0x54b2c10074c8bt31ycjvl80000gp/T//cci54lkl.s:351    .text.chMBPostI:0000000000000000 $a
/var/folders/l5/0x54b2c10074c8bt31ycjvl80000gp/T//cci54lkl.s:357    .text.chMBPostI:0000000000000000 chMBPostI
/var/folders/l5/0x54b2c10074c8bt31ycjvl80000gp/T//cci54lkl.s:428    .text.chMBPostAheadS:0000000000000000 $a
/var/folders/l5/0x54b2c10074c8bt31ycjvl80000gp/T//cci54lkl.s:434    .text.chMBPostAheadS:0000000000000000 chMBPostAheadS
/var/folders/l5/0x54b2c10074c8bt31ycjvl80000gp/T//cci54lkl.s:524    .text.chMBPostAhead:0000000000000000 $a
/var/folders/l5/0x54b2c10074c8bt31ycjvl80000gp/T//cci54lkl.s:530    .text.chMBPostAhead:0000000000000000 chMBPostAhead
/var/folders/l5/0x54b2c10074c8bt31ycjvl80000gp/T//cci54lkl.s:573    .text.chMBPostAheadI:0000000000000000 $a
/var/folders/l5/0x54b2c10074c8bt31ycjvl80000gp/T//cci54lkl.s:579    .text.chMBPostAheadI:0000000000000000 chMBPostAheadI
/var/folders/l5/0x54b2c10074c8bt31ycjvl80000gp/T//cci54lkl.s:652    .text.chMBFetch:0000000000000000 $a
/var/folders/l5/0x54b2c10074c8bt31ycjvl80000gp/T//cci54lkl.s:658    .text.chMBFetch:0000000000000000 chMBFetch
/var/folders/l5/0x54b2c10074c8bt31ycjvl80000gp/T//cci54lkl.s:770    .text.chMBFetchS:0000000000000000 $a
/var/folders/l5/0x54b2c10074c8bt31ycjvl80000gp/T//cci54lkl.s:776    .text.chMBFetchS:0000000000000000 chMBFetchS
/var/folders/l5/0x54b2c10074c8bt31ycjvl80000gp/T//cci54lkl.s:858    .text.chMBFetchI:0000000000000000 $a
/var/folders/l5/0x54b2c10074c8bt31ycjvl80000gp/T//cci54lkl.s:864    .text.chMBFetchI:0000000000000000 chMBFetchI

UNDEFINED SYMBOLS
chSemInit
chSemResetI
chSchRescheduleS
chSemWaitTimeoutS
chSemSignalI
