ARM GAS  /var/folders/l5/0x54b2c10074c8bt31ycjvl80000gp/T//cci54lkl.s 			page 1


   1              		.cpu arm1176jz-s
   2              		.eabi_attribute 20, 1
   3              		.eabi_attribute 21, 1
   4              		.eabi_attribute 23, 3
   5              		.eabi_attribute 24, 1
   6              		.eabi_attribute 25, 1
   7              		.eabi_attribute 26, 1
   8              		.eabi_attribute 30, 2
   9              		.eabi_attribute 34, 1
  10              		.eabi_attribute 18, 4
  11              		.file	"chmboxes.c"
  12              		.text
  13              	.Ltext0:
  14              		.cfi_sections	.debug_frame
  15              		.section	.text.chMBInit,"ax",%progbits
  16              		.align	2
  17              		.global	chMBInit
  18              		.arch armv6kz
  19              		.syntax unified
  20              		.arm
  21              		.fpu softvfp
  22              		.type	chMBInit, %function
  23              	chMBInit:
  24              	.LVL0:
  25              	.LFB7:
  26              		.file 1 "../../os/kernel/src/chmboxes.c"
  27              		.loc 1 65 50 view -0
  28              		.cfi_startproc
  29              		@ args = 0, pretend = 0, frame = 0
  30              		@ frame_needed = 0, uses_anonymous_args = 0
  31              		.loc 1 67 3 view .LVU1
  32              		.loc 1 67 68 view .LVU2
  33              		.loc 1 69 3 view .LVU3
  34              		.loc 1 65 50 is_stmt 0 view .LVU4
  35 0000 0130A0E1 		mov	r3, r1
  36 0004 10402DE9 		push	{r4, lr}
  37              		.cfi_def_cfa_offset 8
  38              		.cfi_offset 4, -8
  39              		.cfi_offset 14, -4
  40              		.loc 1 65 50 view .LVU5
  41 0008 0040A0E1 		mov	r4, r0
  42              		.loc 1 70 17 view .LVU6
  43 000c 021181E0 		add	r1, r1, r2, lsl #2
  44              	.LVL1:
  45              		.loc 1 70 15 view .LVU7
  46 0010 041080E5 		str	r1, [r0, #4]
  47              		.loc 1 69 50 view .LVU8
  48 0014 0C3080E5 		str	r3, [r0, #12]
  49              		.loc 1 69 34 view .LVU9
  50 0018 083080E5 		str	r3, [r0, #8]
  51              		.loc 1 69 18 view .LVU10
  52 001c 003080E5 		str	r3, [r0]
  53              		.loc 1 70 3 is_stmt 1 view .LVU11
  54              		.loc 1 71 3 view .LVU12
  55 0020 0210A0E1 		mov	r1, r2
  56 0024 1C0080E2 		add	r0, r0, #28
  57              	.LVL2:
ARM GAS  /var/folders/l5/0x54b2c10074c8bt31ycjvl80000gp/T//cci54lkl.s 			page 2


  58              		.loc 1 71 3 is_stmt 0 view .LVU13
  59 0028 FEFFFFEB 		bl	chSemInit
  60              	.LVL3:
  61              		.loc 1 72 3 is_stmt 1 view .LVU14
  62 002c 100084E2 		add	r0, r4, #16
  63 0030 0010A0E3 		mov	r1, #0
  64              		.loc 1 73 1 is_stmt 0 view .LVU15
  65 0034 1040BDE8 		pop	{r4, lr}
  66              		.cfi_restore 14
  67              		.cfi_restore 4
  68              		.cfi_def_cfa_offset 0
  69              	.LVL4:
  70              		.loc 1 72 3 view .LVU16
  71 0038 FEFFFFEA 		b	chSemInit
  72              	.LVL5:
  73              		.loc 1 72 3 view .LVU17
  74              		.cfi_endproc
  75              	.LFE7:
  76              		.size	chMBInit, .-chMBInit
  77              		.section	.text.chMBReset,"ax",%progbits
  78              		.align	2
  79              		.global	chMBReset
  80              		.syntax unified
  81              		.arm
  82              		.fpu softvfp
  83              		.type	chMBReset, %function
  84              	chMBReset:
  85              	.LVL6:
  86              	.LFB8:
  87              		.loc 1 84 30 is_stmt 1 view -0
  88              		.cfi_startproc
  89              		@ args = 0, pretend = 0, frame = 0
  90              		@ frame_needed = 0, uses_anonymous_args = 0
  91              		.loc 1 86 3 view .LVU19
  92              		.loc 1 86 39 view .LVU20
  93              		.loc 1 88 3 view .LVU21
  94              		.loc 1 84 30 is_stmt 0 view .LVU22
  95 0000 10402DE9 		push	{r4, lr}
  96              		.cfi_def_cfa_offset 8
  97              		.cfi_offset 4, -8
  98              		.cfi_offset 14, -4
  99              		.loc 1 84 30 view .LVU23
 100 0004 0040A0E1 		mov	r4, r0
 101              		.loc 1 88 3 view .LVU24
 102              		.syntax divided
 103              	@ 88 "../../os/kernel/src/chmboxes.c" 1
 104 0008 9FF021E3 		msr     CPSR_c, #0x9F
 105              	@ 0 "" 2
 106              		.loc 1 88 3 is_stmt 1 view .LVU25
 107              		.loc 1 88 14 view .LVU26
 108              		.loc 1 89 3 view .LVU27
 109              		.loc 1 89 38 is_stmt 0 view .LVU28
 110              		.arm
 111              		.syntax unified
 112 000c 003090E5 		ldr	r3, [r0]
 113              		.loc 1 90 46 view .LVU29
 114 0010 041090E5 		ldr	r1, [r0, #4]
ARM GAS  /var/folders/l5/0x54b2c10074c8bt31ycjvl80000gp/T//cci54lkl.s 			page 3


 115              		.loc 1 89 33 view .LVU30
 116 0014 0C3080E5 		str	r3, [r0, #12]
 117              		.loc 1 90 46 view .LVU31
 118 0018 031041E0 		sub	r1, r1, r3
 119              		.loc 1 89 17 view .LVU32
 120 001c 083080E5 		str	r3, [r0, #8]
 121              		.loc 1 90 3 is_stmt 1 view .LVU33
 122 0020 4111A0E1 		asr	r1, r1, #2
 123 0024 1C0080E2 		add	r0, r0, #28
 124              	.LVL7:
 125              		.loc 1 90 3 is_stmt 0 view .LVU34
 126 0028 FEFFFFEB 		bl	chSemResetI
 127              	.LVL8:
 128              		.loc 1 91 3 is_stmt 1 view .LVU35
 129 002c 100084E2 		add	r0, r4, #16
 130 0030 0010A0E3 		mov	r1, #0
 131 0034 FEFFFFEB 		bl	chSemResetI
 132              	.LVL9:
 133              		.loc 1 92 3 view .LVU36
 134 0038 FEFFFFEB 		bl	chSchRescheduleS
 135              	.LVL10:
 136              		.loc 1 93 3 view .LVU37
 137              		.loc 1 93 3 view .LVU38
 138              		.syntax divided
 139              	@ 93 "../../os/kernel/src/chmboxes.c" 1
 140 003c 1FF021E3 		msr     CPSR_c, #0x1F
 141              	@ 0 "" 2
 142              		.loc 1 93 16 view .LVU39
 143              		.loc 1 94 1 is_stmt 0 view .LVU40
 144              		.arm
 145              		.syntax unified
 146 0040 1080BDE8 		pop	{r4, pc}
 147              		.cfi_endproc
 148              	.LFE8:
 149              		.size	chMBReset, .-chMBReset
 150              		.section	.text.chMBPost,"ax",%progbits
 151              		.align	2
 152              		.global	chMBPost
 153              		.syntax unified
 154              		.arm
 155              		.fpu softvfp
 156              		.type	chMBPost, %function
 157              	chMBPost:
 158              	.LVL11:
 159              	.LFB9:
 160              		.loc 1 115 57 is_stmt 1 view -0
 161              		.cfi_startproc
 162              		@ args = 0, pretend = 0, frame = 0
 163              		@ frame_needed = 0, uses_anonymous_args = 0
 164              		.loc 1 115 57 is_stmt 0 view .LVU42
 165 0000 70402DE9 		push	{r4, r5, r6, lr}
 166              		.cfi_def_cfa_offset 16
 167              		.cfi_offset 4, -16
 168              		.cfi_offset 5, -12
 169              		.cfi_offset 6, -8
 170              		.cfi_offset 14, -4
 171              		.loc 1 115 57 view .LVU43
ARM GAS  /var/folders/l5/0x54b2c10074c8bt31ycjvl80000gp/T//cci54lkl.s 			page 4


 172 0004 0040A0E1 		mov	r4, r0
 173 0008 0160A0E1 		mov	r6, r1
 174              		.loc 1 116 3 is_stmt 1 view .LVU44
 175              		.loc 1 118 3 view .LVU45
 176              		.syntax divided
 177              	@ 118 "../../os/kernel/src/chmboxes.c" 1
 178 000c 9FF021E3 		msr     CPSR_c, #0x9F
 179              	@ 0 "" 2
 180              		.loc 1 118 3 view .LVU46
 181              		.loc 1 118 14 view .LVU47
 182              		.loc 1 119 3 view .LVU48
 183              	.LVL12:
 184              		.arm
 185              		.syntax unified
 186              	.LBB10:
 187              	.LBI10:
 188              		.loc 1 143 7 view .LVU49
 189              	.LBB11:
 190              		.loc 1 144 3 view .LVU50
 191              		.loc 1 146 3 view .LVU51
 192              		.loc 1 146 21 view .LVU52
 193              		.loc 1 147 3 view .LVU53
 194              		.loc 1 147 39 view .LVU54
 195              		.loc 1 149 3 view .LVU55
 196              		.loc 1 149 12 is_stmt 0 view .LVU56
 197 0010 0210A0E1 		mov	r1, r2
 198              	.LVL13:
 199              		.loc 1 149 12 view .LVU57
 200 0014 1C0080E2 		add	r0, r0, #28
 201              	.LVL14:
 202              		.loc 1 149 12 view .LVU58
 203 0018 FEFFFFEB 		bl	chSemWaitTimeoutS
 204              	.LVL15:
 205              		.loc 1 150 3 is_stmt 1 view .LVU59
 206              		.loc 1 150 6 is_stmt 0 view .LVU60
 207 001c 005050E2 		subs	r5, r0, #0
 208 0020 0900001A 		bne	.L7
 209              	.LVL16:
 210              	.LBB12:
 211              	.LBI12:
 212              		.loc 1 143 7 is_stmt 1 view .LVU61
 213              	.LBB13:
 214              		.loc 1 151 5 view .LVU62
 215              		.loc 1 152 8 is_stmt 0 view .LVU63
 216 0024 0A0094E9 		ldmib	r4, {r1, r3}
 217              		.loc 1 151 19 view .LVU64
 218 0028 042083E2 		add	r2, r3, #4
 219              		.loc 1 152 8 view .LVU65
 220 002c 010052E1 		cmp	r2, r1
 221              		.loc 1 151 19 view .LVU66
 222 0030 082084E5 		str	r2, [r4, #8]
 223              		.loc 1 151 22 view .LVU67
 224 0034 006083E5 		str	r6, [r3]
 225              		.loc 1 152 5 is_stmt 1 view .LVU68
 226              		.loc 1 153 7 view .LVU69
 227              		.loc 1 154 5 view .LVU70
 228              		.loc 1 153 21 is_stmt 0 view .LVU71
ARM GAS  /var/folders/l5/0x54b2c10074c8bt31ycjvl80000gp/T//cci54lkl.s 			page 5


 229 0038 00309425 		ldrcs	r3, [r4]
 230              		.loc 1 154 5 view .LVU72
 231 003c 100084E2 		add	r0, r4, #16
 232              	.LVL17:
 233              		.loc 1 153 21 view .LVU73
 234 0040 08308425 		strcs	r3, [r4, #8]
 235              		.loc 1 154 5 view .LVU74
 236 0044 FEFFFFEB 		bl	chSemSignalI
 237              	.LVL18:
 238              		.loc 1 155 5 is_stmt 1 view .LVU75
 239 0048 FEFFFFEB 		bl	chSchRescheduleS
 240              	.LVL19:
 241              	.L7:
 242              		.loc 1 155 5 is_stmt 0 view .LVU76
 243              	.LBE13:
 244              	.LBE12:
 245              		.loc 1 157 3 is_stmt 1 view .LVU77
 246              		.loc 1 157 3 is_stmt 0 view .LVU78
 247              	.LBE11:
 248              	.LBE10:
 249              		.loc 1 120 3 is_stmt 1 view .LVU79
 250              		.loc 1 120 3 view .LVU80
 251              		.syntax divided
 252              	@ 120 "../../os/kernel/src/chmboxes.c" 1
 253 004c 1FF021E3 		msr     CPSR_c, #0x1F
 254              	@ 0 "" 2
 255              		.loc 1 120 16 view .LVU81
 256              		.loc 1 121 3 view .LVU82
 257              		.loc 1 122 1 is_stmt 0 view .LVU83
 258              		.arm
 259              		.syntax unified
 260 0050 0500A0E1 		mov	r0, r5
 261 0054 7080BDE8 		pop	{r4, r5, r6, pc}
 262              		.cfi_endproc
 263              	.LFE9:
 264              		.size	chMBPost, .-chMBPost
 265              		.section	.text.chMBPostS,"ax",%progbits
 266              		.align	2
 267              		.global	chMBPostS
 268              		.syntax unified
 269              		.arm
 270              		.fpu softvfp
 271              		.type	chMBPostS, %function
 272              	chMBPostS:
 273              	.LVL20:
 274              	.LFB10:
 275              		.loc 1 143 58 is_stmt 1 view -0
 276              		.cfi_startproc
 277              		@ args = 0, pretend = 0, frame = 0
 278              		@ frame_needed = 0, uses_anonymous_args = 0
 279              		.loc 1 143 58 is_stmt 0 view .LVU85
 280 0000 70402DE9 		push	{r4, r5, r6, lr}
 281              		.cfi_def_cfa_offset 16
 282              		.cfi_offset 4, -16
 283              		.cfi_offset 5, -12
 284              		.cfi_offset 6, -8
 285              		.cfi_offset 14, -4
ARM GAS  /var/folders/l5/0x54b2c10074c8bt31ycjvl80000gp/T//cci54lkl.s 			page 6


 286              		.loc 1 143 58 view .LVU86
 287 0004 0040A0E1 		mov	r4, r0
 288 0008 0160A0E1 		mov	r6, r1
 289              		.loc 1 144 3 is_stmt 1 view .LVU87
 290              		.loc 1 146 3 view .LVU88
 291              		.loc 1 146 21 view .LVU89
 292              		.loc 1 147 3 view .LVU90
 293              		.loc 1 147 39 view .LVU91
 294              		.loc 1 149 3 view .LVU92
 295              		.loc 1 149 12 is_stmt 0 view .LVU93
 296 000c 1C0080E2 		add	r0, r0, #28
 297              	.LVL21:
 298              		.loc 1 149 12 view .LVU94
 299 0010 0210A0E1 		mov	r1, r2
 300              	.LVL22:
 301              		.loc 1 149 12 view .LVU95
 302 0014 FEFFFFEB 		bl	chSemWaitTimeoutS
 303              	.LVL23:
 304              		.loc 1 150 3 is_stmt 1 view .LVU96
 305              		.loc 1 150 6 is_stmt 0 view .LVU97
 306 0018 005050E2 		subs	r5, r0, #0
 307 001c 0900001A 		bne	.L10
 308              	.LVL24:
 309              	.LBB16:
 310              	.LBI16:
 311              		.loc 1 143 7 is_stmt 1 view .LVU98
 312              	.LBB17:
 313              		.loc 1 151 5 view .LVU99
 314              		.loc 1 152 8 is_stmt 0 view .LVU100
 315 0020 0A0094E9 		ldmib	r4, {r1, r3}
 316              		.loc 1 151 19 view .LVU101
 317 0024 042083E2 		add	r2, r3, #4
 318              		.loc 1 152 8 view .LVU102
 319 0028 010052E1 		cmp	r2, r1
 320              		.loc 1 151 19 view .LVU103
 321 002c 082084E5 		str	r2, [r4, #8]
 322              		.loc 1 151 22 view .LVU104
 323 0030 006083E5 		str	r6, [r3]
 324              		.loc 1 152 5 is_stmt 1 view .LVU105
 325              		.loc 1 153 7 view .LVU106
 326              		.loc 1 154 5 view .LVU107
 327              		.loc 1 153 21 is_stmt 0 view .LVU108
 328 0034 00309425 		ldrcs	r3, [r4]
 329              		.loc 1 154 5 view .LVU109
 330 0038 100084E2 		add	r0, r4, #16
 331              	.LVL25:
 332              		.loc 1 153 21 view .LVU110
 333 003c 08308425 		strcs	r3, [r4, #8]
 334              		.loc 1 154 5 view .LVU111
 335 0040 FEFFFFEB 		bl	chSemSignalI
 336              	.LVL26:
 337              		.loc 1 155 5 is_stmt 1 view .LVU112
 338 0044 FEFFFFEB 		bl	chSchRescheduleS
 339              	.LVL27:
 340              	.LBE17:
 341              	.LBE16:
 342              		.loc 1 157 3 view .LVU113
ARM GAS  /var/folders/l5/0x54b2c10074c8bt31ycjvl80000gp/T//cci54lkl.s 			page 7


 343              	.L10:
 344              		.loc 1 158 1 is_stmt 0 view .LVU114
 345 0048 0500A0E1 		mov	r0, r5
 346 004c 7080BDE8 		pop	{r4, r5, r6, pc}
 347              		.cfi_endproc
 348              	.LFE10:
 349              		.size	chMBPostS, .-chMBPostS
 350              		.section	.text.chMBPostI,"ax",%progbits
 351              		.align	2
 352              		.global	chMBPostI
 353              		.syntax unified
 354              		.arm
 355              		.fpu softvfp
 356              		.type	chMBPostI, %function
 357              	chMBPostI:
 358              	.LVL28:
 359              	.LFB11:
 360              		.loc 1 174 42 is_stmt 1 view -0
 361              		.cfi_startproc
 362              		@ args = 0, pretend = 0, frame = 0
 363              		@ frame_needed = 0, uses_anonymous_args = 0
 364              		.loc 1 176 3 view .LVU116
 365              		.loc 1 176 21 view .LVU117
 366              		.loc 1 177 3 view .LVU118
 367              		.loc 1 177 39 view .LVU119
 368              		.loc 1 179 3 view .LVU120
 369              		.loc 1 179 7 is_stmt 0 view .LVU121
 370 0000 243090E5 		ldr	r3, [r0, #36]
 371              		.loc 1 179 6 view .LVU122
 372 0004 000053E3 		cmp	r3, #0
 373 0008 0E0000DA 		ble	.L17
 374              		.loc 1 181 3 is_stmt 1 view .LVU123
 375              		.loc 1 182 7 is_stmt 0 view .LVU124
 376 000c 082090E5 		ldr	r2, [r0, #8]
 377              		.loc 1 174 42 view .LVU125
 378 0010 10402DE9 		push	{r4, lr}
 379              		.cfi_def_cfa_offset 8
 380              		.cfi_offset 4, -8
 381              		.cfi_offset 14, -4
 382              		.loc 1 183 6 view .LVU126
 383 0014 04E090E5 		ldr	lr, [r0, #4]
 384              		.loc 1 182 17 view .LVU127
 385 0018 04C082E2 		add	ip, r2, #4
 386              		.loc 1 181 3 view .LVU128
 387 001c 013043E2 		sub	r3, r3, #1
 388              		.loc 1 183 6 view .LVU129
 389 0020 0E005CE1 		cmp	ip, lr
 390              		.loc 1 181 3 view .LVU130
 391 0024 243080E5 		str	r3, [r0, #36]
 392              		.loc 1 182 3 is_stmt 1 view .LVU131
 393              		.loc 1 184 19 is_stmt 0 view .LVU132
 394 0028 00309025 		ldrcs	r3, [r0]
 395              		.loc 1 182 17 view .LVU133
 396 002c 08C080E5 		str	ip, [r0, #8]
 397              		.loc 1 182 20 view .LVU134
 398 0030 001082E5 		str	r1, [r2]
 399              		.loc 1 183 3 is_stmt 1 view .LVU135
ARM GAS  /var/folders/l5/0x54b2c10074c8bt31ycjvl80000gp/T//cci54lkl.s 			page 8


 400              		.loc 1 184 5 view .LVU136
 401              		.loc 1 185 3 view .LVU137
 402 0034 100080E2 		add	r0, r0, #16
 403              	.LVL29:
 404              		.loc 1 184 19 is_stmt 0 view .LVU138
 405 0038 08300025 		strcs	r3, [r0, #-8]
 406              		.loc 1 185 3 view .LVU139
 407 003c FEFFFFEB 		bl	chSemSignalI
 408              	.LVL30:
 409              		.loc 1 186 3 is_stmt 1 view .LVU140
 410              		.loc 1 186 10 is_stmt 0 view .LVU141
 411 0040 0000A0E3 		mov	r0, #0
 412              		.loc 1 187 1 view .LVU142
 413 0044 1080BDE8 		pop	{r4, pc}
 414              	.LVL31:
 415              	.L17:
 416              		.cfi_def_cfa_offset 0
 417              		.cfi_restore 4
 418              		.cfi_restore 14
 419              		.loc 1 180 12 view .LVU143
 420 0048 0000E0E3 		mvn	r0, #0
 421              	.LVL32:
 422              		.loc 1 187 1 view .LVU144
 423 004c 1EFF2FE1 		bx	lr
 424              		.cfi_endproc
 425              	.LFE11:
 426              		.size	chMBPostI, .-chMBPostI
 427              		.section	.text.chMBPostAheadS,"ax",%progbits
 428              		.align	2
 429              		.global	chMBPostAheadS
 430              		.syntax unified
 431              		.arm
 432              		.fpu softvfp
 433              		.type	chMBPostAheadS, %function
 434              	chMBPostAheadS:
 435              	.LVL33:
 436              	.LFB13:
 437              		.loc 1 236 63 is_stmt 1 view -0
 438              		.cfi_startproc
 439              		@ args = 0, pretend = 0, frame = 0
 440              		@ frame_needed = 0, uses_anonymous_args = 0
 441              		.loc 1 236 63 is_stmt 0 view .LVU146
 442 0000 70402DE9 		push	{r4, r5, r6, lr}
 443              		.cfi_def_cfa_offset 16
 444              		.cfi_offset 4, -16
 445              		.cfi_offset 5, -12
 446              		.cfi_offset 6, -8
 447              		.cfi_offset 14, -4
 448              		.loc 1 236 63 view .LVU147
 449 0004 0040A0E1 		mov	r4, r0
 450 0008 0160A0E1 		mov	r6, r1
 451              		.loc 1 237 3 is_stmt 1 view .LVU148
 452              		.loc 1 239 3 view .LVU149
 453              		.loc 1 239 21 view .LVU150
 454              		.loc 1 240 3 view .LVU151
 455              		.loc 1 240 44 view .LVU152
 456              		.loc 1 242 3 view .LVU153
ARM GAS  /var/folders/l5/0x54b2c10074c8bt31ycjvl80000gp/T//cci54lkl.s 			page 9


 457              		.loc 1 242 12 is_stmt 0 view .LVU154
 458 000c 1C0080E2 		add	r0, r0, #28
 459              	.LVL34:
 460              		.loc 1 242 12 view .LVU155
 461 0010 0210A0E1 		mov	r1, r2
 462              	.LVL35:
 463              		.loc 1 242 12 view .LVU156
 464 0014 FEFFFFEB 		bl	chSemWaitTimeoutS
 465              	.LVL36:
 466              		.loc 1 243 3 is_stmt 1 view .LVU157
 467              		.loc 1 243 6 is_stmt 0 view .LVU158
 468 0018 005050E2 		subs	r5, r0, #0
 469 001c 0B00001A 		bne	.L22
 470              		.loc 1 244 5 is_stmt 1 view .LVU159
 471              		.loc 1 244 9 is_stmt 0 view .LVU160
 472 0020 0C3094E5 		ldr	r3, [r4, #12]
 473              		.loc 1 244 8 view .LVU161
 474 0024 002094E5 		ldr	r2, [r4]
 475              		.loc 1 244 9 view .LVU162
 476 0028 043043E2 		sub	r3, r3, #4
 477              		.loc 1 244 8 view .LVU163
 478 002c 020053E1 		cmp	r3, r2
 479 0030 0C3084E5 		str	r3, [r4, #12]
 480              		.loc 1 245 7 is_stmt 1 view .LVU164
 481              	.LVL37:
 482              	.LBB20:
 483              	.LBI20:
 484              		.loc 1 236 7 view .LVU165
 485              	.LBB21:
 486              		.loc 1 246 5 view .LVU166
 487              	.LBE21:
 488              	.LBE20:
 489              		.loc 1 245 35 is_stmt 0 view .LVU167
 490 0034 04309435 		ldrcc	r3, [r4, #4]
 491              	.LBB24:
 492              	.LBB22:
 493              		.loc 1 247 5 view .LVU168
 494 0038 100084E2 		add	r0, r4, #16
 495              	.LVL38:
 496              		.loc 1 247 5 view .LVU169
 497              	.LBE22:
 498              	.LBE24:
 499              		.loc 1 245 35 view .LVU170
 500 003c 04304332 		subcc	r3, r3, #4
 501              		.loc 1 245 21 view .LVU171
 502 0040 0C308435 		strcc	r3, [r4, #12]
 503              	.LBB25:
 504              	.LBB23:
 505              		.loc 1 246 20 view .LVU172
 506 0044 006083E5 		str	r6, [r3]
 507              		.loc 1 247 5 is_stmt 1 view .LVU173
 508 0048 FEFFFFEB 		bl	chSemSignalI
 509              	.LVL39:
 510              		.loc 1 248 5 view .LVU174
 511 004c FEFFFFEB 		bl	chSchRescheduleS
 512              	.LVL40:
 513              	.LBE23:
ARM GAS  /var/folders/l5/0x54b2c10074c8bt31ycjvl80000gp/T//cci54lkl.s 			page 10


 514              	.LBE25:
 515              		.loc 1 250 3 view .LVU175
 516              	.L22:
 517              		.loc 1 251 1 is_stmt 0 view .LVU176
 518 0050 0500A0E1 		mov	r0, r5
 519 0054 7080BDE8 		pop	{r4, r5, r6, pc}
 520              		.cfi_endproc
 521              	.LFE13:
 522              		.size	chMBPostAheadS, .-chMBPostAheadS
 523              		.section	.text.chMBPostAhead,"ax",%progbits
 524              		.align	2
 525              		.global	chMBPostAhead
 526              		.syntax unified
 527              		.arm
 528              		.fpu softvfp
 529              		.type	chMBPostAhead, %function
 530              	chMBPostAhead:
 531              	.LVL41:
 532              	.LFB12:
 533              		.loc 1 208 62 is_stmt 1 view -0
 534              		.cfi_startproc
 535              		@ args = 0, pretend = 0, frame = 0
 536              		@ frame_needed = 0, uses_anonymous_args = 0
 537              		.loc 1 209 3 view .LVU178
 538              		.loc 1 211 3 view .LVU179
 539              		.loc 1 208 62 is_stmt 0 view .LVU180
 540 0000 10402DE9 		push	{r4, lr}
 541              		.cfi_def_cfa_offset 8
 542              		.cfi_offset 4, -8
 543              		.cfi_offset 14, -4
 544              		.loc 1 211 3 view .LVU181
 545              		.syntax divided
 546              	@ 211 "../../os/kernel/src/chmboxes.c" 1
 547 0004 9FF021E3 		msr     CPSR_c, #0x9F
 548              	@ 0 "" 2
 549              		.loc 1 211 3 is_stmt 1 view .LVU182
 550              		.loc 1 211 14 view .LVU183
 551              		.loc 1 212 3 view .LVU184
 552              		.loc 1 212 12 is_stmt 0 view .LVU185
 553              		.arm
 554              		.syntax unified
 555 0008 FEFFFFEB 		bl	chMBPostAheadS
 556              	.LVL42:
 557              		.loc 1 213 3 is_stmt 1 view .LVU186
 558              		.loc 1 213 3 view .LVU187
 559              		.syntax divided
 560              	@ 213 "../../os/kernel/src/chmboxes.c" 1
 561 000c 1FF021E3 		msr     CPSR_c, #0x1F
 562              	@ 0 "" 2
 563              		.loc 1 213 16 view .LVU188
 564              		.loc 1 214 3 view .LVU189
 565              		.loc 1 215 1 is_stmt 0 view .LVU190
 566              		.arm
 567              		.syntax unified
 568 0010 1080BDE8 		pop	{r4, pc}
 569              		.cfi_endproc
 570              	.LFE12:
ARM GAS  /var/folders/l5/0x54b2c10074c8bt31ycjvl80000gp/T//cci54lkl.s 			page 11


 571              		.size	chMBPostAhead, .-chMBPostAhead
 572              		.section	.text.chMBPostAheadI,"ax",%progbits
 573              		.align	2
 574              		.global	chMBPostAheadI
 575              		.syntax unified
 576              		.arm
 577              		.fpu softvfp
 578              		.type	chMBPostAheadI, %function
 579              	chMBPostAheadI:
 580              	.LVL43:
 581              	.LFB14:
 582              		.loc 1 267 47 is_stmt 1 view -0
 583              		.cfi_startproc
 584              		@ args = 0, pretend = 0, frame = 0
 585              		@ frame_needed = 0, uses_anonymous_args = 0
 586              		.loc 1 269 3 view .LVU192
 587              		.loc 1 269 21 view .LVU193
 588              		.loc 1 270 3 view .LVU194
 589              		.loc 1 270 44 view .LVU195
 590              		.loc 1 272 3 view .LVU196
 591              		.loc 1 272 7 is_stmt 0 view .LVU197
 592 0000 242090E5 		ldr	r2, [r0, #36]
 593              		.loc 1 272 6 view .LVU198
 594 0004 000052E3 		cmp	r2, #0
 595 0008 0F0000DA 		ble	.L31
 596              		.loc 1 274 3 is_stmt 1 view .LVU199
 597              		.loc 1 275 7 is_stmt 0 view .LVU200
 598 000c 0C3090E5 		ldr	r3, [r0, #12]
 599              		.loc 1 275 6 view .LVU201
 600 0010 00C090E5 		ldr	ip, [r0]
 601              		.loc 1 275 7 view .LVU202
 602 0014 043043E2 		sub	r3, r3, #4
 603              		.loc 1 275 6 view .LVU203
 604 0018 0C0053E1 		cmp	r3, ip
 605              		.loc 1 267 47 view .LVU204
 606 001c 10402DE9 		push	{r4, lr}
 607              		.cfi_def_cfa_offset 8
 608              		.cfi_offset 4, -8
 609              		.cfi_offset 14, -4
 610              		.loc 1 275 6 view .LVU205
 611 0020 0C3080E5 		str	r3, [r0, #12]
 612              		.loc 1 276 33 view .LVU206
 613 0024 04309035 		ldrcc	r3, [r0, #4]
 614              		.loc 1 274 3 view .LVU207
 615 0028 012042E2 		sub	r2, r2, #1
 616              		.loc 1 276 33 view .LVU208
 617 002c 04304332 		subcc	r3, r3, #4
 618              		.loc 1 274 3 view .LVU209
 619 0030 242080E5 		str	r2, [r0, #36]
 620              		.loc 1 275 3 is_stmt 1 view .LVU210
 621              		.loc 1 276 5 view .LVU211
 622              		.loc 1 277 3 view .LVU212
 623              		.loc 1 276 19 is_stmt 0 view .LVU213
 624 0034 0C308035 		strcc	r3, [r0, #12]
 625              		.loc 1 277 18 view .LVU214
 626 0038 001083E5 		str	r1, [r3]
 627              		.loc 1 278 3 is_stmt 1 view .LVU215
ARM GAS  /var/folders/l5/0x54b2c10074c8bt31ycjvl80000gp/T//cci54lkl.s 			page 12


 628 003c 100080E2 		add	r0, r0, #16
 629              	.LVL44:
 630              		.loc 1 278 3 is_stmt 0 view .LVU216
 631 0040 FEFFFFEB 		bl	chSemSignalI
 632              	.LVL45:
 633              		.loc 1 279 3 is_stmt 1 view .LVU217
 634              		.loc 1 279 10 is_stmt 0 view .LVU218
 635 0044 0000A0E3 		mov	r0, #0
 636              		.loc 1 280 1 view .LVU219
 637 0048 1080BDE8 		pop	{r4, pc}
 638              	.LVL46:
 639              	.L31:
 640              		.cfi_def_cfa_offset 0
 641              		.cfi_restore 4
 642              		.cfi_restore 14
 643              		.loc 1 273 12 view .LVU220
 644 004c 0000E0E3 		mvn	r0, #0
 645              	.LVL47:
 646              		.loc 1 280 1 view .LVU221
 647 0050 1EFF2FE1 		bx	lr
 648              		.cfi_endproc
 649              	.LFE14:
 650              		.size	chMBPostAheadI, .-chMBPostAheadI
 651              		.section	.text.chMBFetch,"ax",%progbits
 652              		.align	2
 653              		.global	chMBFetch
 654              		.syntax unified
 655              		.arm
 656              		.fpu softvfp
 657              		.type	chMBFetch, %function
 658              	chMBFetch:
 659              	.LVL48:
 660              	.LFB15:
 661              		.loc 1 301 60 is_stmt 1 view -0
 662              		.cfi_startproc
 663              		@ args = 0, pretend = 0, frame = 0
 664              		@ frame_needed = 0, uses_anonymous_args = 0
 665              		.loc 1 301 60 is_stmt 0 view .LVU223
 666 0000 70402DE9 		push	{r4, r5, r6, lr}
 667              		.cfi_def_cfa_offset 16
 668              		.cfi_offset 4, -16
 669              		.cfi_offset 5, -12
 670              		.cfi_offset 6, -8
 671              		.cfi_offset 14, -4
 672              		.loc 1 301 60 view .LVU224
 673 0004 0040A0E1 		mov	r4, r0
 674 0008 0160A0E1 		mov	r6, r1
 675              		.loc 1 302 3 is_stmt 1 view .LVU225
 676              		.loc 1 304 3 view .LVU226
 677              		.syntax divided
 678              	@ 304 "../../os/kernel/src/chmboxes.c" 1
 679 000c 9FF021E3 		msr     CPSR_c, #0x9F
 680              	@ 0 "" 2
 681              		.loc 1 304 3 view .LVU227
 682              		.loc 1 304 14 view .LVU228
 683              		.loc 1 305 3 view .LVU229
 684              	.LVL49:
ARM GAS  /var/folders/l5/0x54b2c10074c8bt31ycjvl80000gp/T//cci54lkl.s 			page 13


 685              		.arm
 686              		.syntax unified
 687              	.LBB30:
 688              	.LBI30:
 689              		.loc 1 329 7 view .LVU230
 690              	.LBB31:
 691              		.loc 1 330 3 view .LVU231
 692              		.loc 1 332 3 view .LVU232
 693              		.loc 1 332 21 view .LVU233
 694              		.loc 1 333 3 view .LVU234
 695              		.loc 1 333 60 view .LVU235
 696              		.loc 1 335 3 view .LVU236
 697              		.loc 1 335 12 is_stmt 0 view .LVU237
 698 0010 0210A0E1 		mov	r1, r2
 699              	.LVL50:
 700              		.loc 1 335 12 view .LVU238
 701 0014 100080E2 		add	r0, r0, #16
 702              	.LVL51:
 703              		.loc 1 335 12 view .LVU239
 704 0018 FEFFFFEB 		bl	chSemWaitTimeoutS
 705              	.LVL52:
 706              		.loc 1 336 3 is_stmt 1 view .LVU240
 707              		.loc 1 336 6 is_stmt 0 view .LVU241
 708 001c 005050E2 		subs	r5, r0, #0
 709 0020 0B00001A 		bne	.L37
 710              	.LVL53:
 711              	.LBB32:
 712              	.LBI32:
 713              		.loc 1 329 7 is_stmt 1 view .LVU242
 714              	.LBB33:
 715              		.loc 1 337 5 view .LVU243
 716              		.loc 1 337 17 is_stmt 0 view .LVU244
 717 0024 0C2094E5 		ldr	r2, [r4, #12]
 718              		.loc 1 338 8 view .LVU245
 719 0028 041094E5 		ldr	r1, [r4, #4]
 720              		.loc 1 337 27 view .LVU246
 721 002c 043082E2 		add	r3, r2, #4
 722              		.loc 1 338 8 view .LVU247
 723 0030 010053E1 		cmp	r3, r1
 724              		.loc 1 337 13 view .LVU248
 725 0034 002092E5 		ldr	r2, [r2]
 726              		.loc 1 337 27 view .LVU249
 727 0038 0C3084E5 		str	r3, [r4, #12]
 728              		.loc 1 339 21 view .LVU250
 729 003c 00309425 		ldrcs	r3, [r4]
 730              		.loc 1 337 11 view .LVU251
 731 0040 002086E5 		str	r2, [r6]
 732              		.loc 1 338 5 is_stmt 1 view .LVU252
 733              		.loc 1 339 7 view .LVU253
 734              		.loc 1 340 5 view .LVU254
 735 0044 1C0084E2 		add	r0, r4, #28
 736              	.LVL54:
 737              		.loc 1 339 21 is_stmt 0 view .LVU255
 738 0048 0C308425 		strcs	r3, [r4, #12]
 739              		.loc 1 340 5 view .LVU256
 740 004c FEFFFFEB 		bl	chSemSignalI
 741              	.LVL55:
ARM GAS  /var/folders/l5/0x54b2c10074c8bt31ycjvl80000gp/T//cci54lkl.s 			page 14


 742              		.loc 1 341 5 is_stmt 1 view .LVU257
 743 0050 FEFFFFEB 		bl	chSchRescheduleS
 744              	.LVL56:
 745              	.L37:
 746              		.loc 1 341 5 is_stmt 0 view .LVU258
 747              	.LBE33:
 748              	.LBE32:
 749              		.loc 1 343 3 is_stmt 1 view .LVU259
 750              		.loc 1 343 3 is_stmt 0 view .LVU260
 751              	.LBE31:
 752              	.LBE30:
 753              		.loc 1 306 3 is_stmt 1 view .LVU261
 754              		.loc 1 306 3 view .LVU262
 755              		.syntax divided
 756              	@ 306 "../../os/kernel/src/chmboxes.c" 1
 757 0054 1FF021E3 		msr     CPSR_c, #0x1F
 758              	@ 0 "" 2
 759              		.loc 1 306 16 view .LVU263
 760              		.loc 1 307 3 view .LVU264
 761              		.loc 1 308 1 is_stmt 0 view .LVU265
 762              		.arm
 763              		.syntax unified
 764 0058 0500A0E1 		mov	r0, r5
 765 005c 7080BDE8 		pop	{r4, r5, r6, pc}
 766              		.cfi_endproc
 767              	.LFE15:
 768              		.size	chMBFetch, .-chMBFetch
 769              		.section	.text.chMBFetchS,"ax",%progbits
 770              		.align	2
 771              		.global	chMBFetchS
 772              		.syntax unified
 773              		.arm
 774              		.fpu softvfp
 775              		.type	chMBFetchS, %function
 776              	chMBFetchS:
 777              	.LVL57:
 778              	.LFB16:
 779              		.loc 1 329 61 is_stmt 1 view -0
 780              		.cfi_startproc
 781              		@ args = 0, pretend = 0, frame = 0
 782              		@ frame_needed = 0, uses_anonymous_args = 0
 783              		.loc 1 329 61 is_stmt 0 view .LVU267
 784 0000 70402DE9 		push	{r4, r5, r6, lr}
 785              		.cfi_def_cfa_offset 16
 786              		.cfi_offset 4, -16
 787              		.cfi_offset 5, -12
 788              		.cfi_offset 6, -8
 789              		.cfi_offset 14, -4
 790              		.loc 1 329 61 view .LVU268
 791 0004 0040A0E1 		mov	r4, r0
 792 0008 0160A0E1 		mov	r6, r1
 793              		.loc 1 330 3 is_stmt 1 view .LVU269
 794              		.loc 1 332 3 view .LVU270
 795              		.loc 1 332 21 view .LVU271
 796              		.loc 1 333 3 view .LVU272
 797              		.loc 1 333 60 view .LVU273
 798              		.loc 1 335 3 view .LVU274
ARM GAS  /var/folders/l5/0x54b2c10074c8bt31ycjvl80000gp/T//cci54lkl.s 			page 15


 799              		.loc 1 335 12 is_stmt 0 view .LVU275
 800 000c 100080E2 		add	r0, r0, #16
 801              	.LVL58:
 802              		.loc 1 335 12 view .LVU276
 803 0010 0210A0E1 		mov	r1, r2
 804              	.LVL59:
 805              		.loc 1 335 12 view .LVU277
 806 0014 FEFFFFEB 		bl	chSemWaitTimeoutS
 807              	.LVL60:
 808              		.loc 1 336 3 is_stmt 1 view .LVU278
 809              		.loc 1 336 6 is_stmt 0 view .LVU279
 810 0018 005050E2 		subs	r5, r0, #0
 811 001c 0B00001A 		bne	.L40
 812              	.LVL61:
 813              	.LBB36:
 814              	.LBI36:
 815              		.loc 1 329 7 is_stmt 1 view .LVU280
 816              	.LBB37:
 817              		.loc 1 337 5 view .LVU281
 818              		.loc 1 337 17 is_stmt 0 view .LVU282
 819 0020 0C2094E5 		ldr	r2, [r4, #12]
 820              		.loc 1 338 8 view .LVU283
 821 0024 041094E5 		ldr	r1, [r4, #4]
 822              		.loc 1 337 27 view .LVU284
 823 0028 043082E2 		add	r3, r2, #4
 824              		.loc 1 338 8 view .LVU285
 825 002c 010053E1 		cmp	r3, r1
 826              		.loc 1 337 13 view .LVU286
 827 0030 002092E5 		ldr	r2, [r2]
 828              		.loc 1 337 27 view .LVU287
 829 0034 0C3084E5 		str	r3, [r4, #12]
 830              		.loc 1 339 21 view .LVU288
 831 0038 00309425 		ldrcs	r3, [r4]
 832              		.loc 1 337 11 view .LVU289
 833 003c 002086E5 		str	r2, [r6]
 834              		.loc 1 338 5 is_stmt 1 view .LVU290
 835              		.loc 1 339 7 view .LVU291
 836              		.loc 1 340 5 view .LVU292
 837 0040 1C0084E2 		add	r0, r4, #28
 838              	.LVL62:
 839              		.loc 1 339 21 is_stmt 0 view .LVU293
 840 0044 0C308425 		strcs	r3, [r4, #12]
 841              		.loc 1 340 5 view .LVU294
 842 0048 FEFFFFEB 		bl	chSemSignalI
 843              	.LVL63:
 844              		.loc 1 341 5 is_stmt 1 view .LVU295
 845 004c FEFFFFEB 		bl	chSchRescheduleS
 846              	.LVL64:
 847              	.LBE37:
 848              	.LBE36:
 849              		.loc 1 343 3 view .LVU296
 850              	.L40:
 851              		.loc 1 344 1 is_stmt 0 view .LVU297
 852 0050 0500A0E1 		mov	r0, r5
 853 0054 7080BDE8 		pop	{r4, r5, r6, pc}
 854              		.cfi_endproc
 855              	.LFE16:
ARM GAS  /var/folders/l5/0x54b2c10074c8bt31ycjvl80000gp/T//cci54lkl.s 			page 16


 856              		.size	chMBFetchS, .-chMBFetchS
 857              		.section	.text.chMBFetchI,"ax",%progbits
 858              		.align	2
 859              		.global	chMBFetchI
 860              		.syntax unified
 861              		.arm
 862              		.fpu softvfp
 863              		.type	chMBFetchI, %function
 864              	chMBFetchI:
 865              	.LVL65:
 866              	.LFB17:
 867              		.loc 1 360 45 is_stmt 1 view -0
 868              		.cfi_startproc
 869              		@ args = 0, pretend = 0, frame = 0
 870              		@ frame_needed = 0, uses_anonymous_args = 0
 871              		.loc 1 362 3 view .LVU299
 872              		.loc 1 362 21 view .LVU300
 873              		.loc 1 363 3 view .LVU301
 874              		.loc 1 363 60 view .LVU302
 875              		.loc 1 365 3 view .LVU303
 876              		.loc 1 365 7 is_stmt 0 view .LVU304
 877 0000 183090E5 		ldr	r3, [r0, #24]
 878              		.loc 1 365 6 view .LVU305
 879 0004 000053E3 		cmp	r3, #0
 880 0008 0F0000DA 		ble	.L47
 881              		.loc 1 367 3 is_stmt 1 view .LVU306
 882 000c 012043E2 		sub	r2, r3, #1
 883              		.loc 1 368 15 is_stmt 0 view .LVU307
 884 0010 0C3090E5 		ldr	r3, [r0, #12]
 885              		.loc 1 369 6 view .LVU308
 886 0014 04C090E5 		ldr	ip, [r0, #4]
 887              		.loc 1 360 45 view .LVU309
 888 0018 10402DE9 		push	{r4, lr}
 889              		.cfi_def_cfa_offset 8
 890              		.cfi_offset 4, -8
 891              		.cfi_offset 14, -4
 892              		.loc 1 367 3 view .LVU310
 893 001c 182080E5 		str	r2, [r0, #24]
 894              		.loc 1 368 3 is_stmt 1 view .LVU311
 895              		.loc 1 368 11 is_stmt 0 view .LVU312
 896 0020 002093E5 		ldr	r2, [r3]
 897              		.loc 1 368 25 view .LVU313
 898 0024 043083E2 		add	r3, r3, #4
 899              		.loc 1 369 6 view .LVU314
 900 0028 0C0053E1 		cmp	r3, ip
 901              		.loc 1 368 25 view .LVU315
 902 002c 0C3080E5 		str	r3, [r0, #12]
 903              		.loc 1 370 19 view .LVU316
 904 0030 00309025 		ldrcs	r3, [r0]
 905              		.loc 1 368 9 view .LVU317
 906 0034 002081E5 		str	r2, [r1]
 907              		.loc 1 369 3 is_stmt 1 view .LVU318
 908              		.loc 1 370 5 view .LVU319
 909              		.loc 1 371 3 view .LVU320
 910 0038 1C0080E2 		add	r0, r0, #28
 911              	.LVL66:
 912              		.loc 1 370 19 is_stmt 0 view .LVU321
ARM GAS  /var/folders/l5/0x54b2c10074c8bt31ycjvl80000gp/T//cci54lkl.s 			page 17


 913 003c 10300025 		strcs	r3, [r0, #-16]
 914              		.loc 1 371 3 view .LVU322
 915 0040 FEFFFFEB 		bl	chSemSignalI
 916              	.LVL67:
 917              		.loc 1 372 3 is_stmt 1 view .LVU323
 918              		.loc 1 372 10 is_stmt 0 view .LVU324
 919 0044 0000A0E3 		mov	r0, #0
 920              		.loc 1 373 1 view .LVU325
 921 0048 1080BDE8 		pop	{r4, pc}
 922              	.LVL68:
 923              	.L47:
 924              		.cfi_def_cfa_offset 0
 925              		.cfi_restore 4
 926              		.cfi_restore 14
 927              		.loc 1 366 12 view .LVU326
 928 004c 0000E0E3 		mvn	r0, #0
 929              	.LVL69:
 930              		.loc 1 373 1 view .LVU327
 931 0050 1EFF2FE1 		bx	lr
 932              		.cfi_endproc
 933              	.LFE17:
 934              		.size	chMBFetchI, .-chMBFetchI
 935              		.text
 936              	.Letext0:
 937              		.file 2 "/usr/local/Cellar/arm-gcc-bin/8-2019-q3-update/arm-none-eabi/include/machine/_default_typ
 938              		.file 3 "/usr/local/Cellar/arm-gcc-bin/8-2019-q3-update/arm-none-eabi/include/sys/_stdint.h"
 939              		.file 4 "../../os/ports/GCC/ARM/chtypes.h"
 940              		.file 5 "../../os/kernel/include/chlists.h"
 941              		.file 6 "../../os/kernel/include/chthreads.h"
 942              		.file 7 "../../os/ports/GCC/ARM/chcore.h"
 943              		.file 8 "../../os/kernel/include/chvt.h"
 944              		.file 9 "../../os/kernel/include/chschd.h"
 945              		.file 10 "../../os/kernel/include/chsem.h"
 946              		.file 11 "../../os/kernel/include/chmtx.h"
 947              		.file 12 "../../os/kernel/include/chmboxes.h"
 948              		.file 13 "../../os/kernel/include/chregistry.h"
 949              		.file 14 "../../os/kernel/include/ch.h"