ARM GAS  /var/folders/l5/0x54b2c10074c8bt31ycjvl80000gp/T//ccF3aQLQ.s 			page 1


   1              		.cpu arm1176jz-s
   2              		.eabi_attribute 20, 1
   3              		.eabi_attribute 21, 1
   4              		.eabi_attribute 23, 3
   5              		.eabi_attribute 24, 1
   6              		.eabi_attribute 25, 1
   7              		.eabi_attribute 26, 1
   8              		.eabi_attribute 30, 2
   9              		.eabi_attribute 34, 1
  10              		.eabi_attribute 18, 4
  11              		.file	"chschd.c"
  12              		.text
  13              	.Ltext0:
  14              		.cfi_sections	.debug_frame
  15              		.section	.text.wakeup,"ax",%progbits
  16              		.align	2
  17              		.arch armv6kz
  18              		.syntax unified
  19              		.arm
  20              		.fpu softvfp
  21              		.type	wakeup, %function
  22              	wakeup:
  23              	.LVL0:
  24              	.LFB10:
  25              		.file 1 "../../os/kernel/src/chschd.c"
  26              		.loc 1 129 29 view -0
  27              		.cfi_startproc
  28              		@ args = 0, pretend = 0, frame = 0
  29              		@ frame_needed = 0, uses_anonymous_args = 0
  30              		@ link register save eliminated.
  31              		.loc 1 130 3 view .LVU1
  32              		.loc 1 132 3 view .LVU2
  33              		.loc 1 132 3 view .LVU3
  34              		.loc 1 132 21 view .LVU4
  35              		.loc 1 133 3 view .LVU5
  36 0000 1C30D0E5 		ldrb	r3, [r0, #28]	@ zero_extendqisi2
  37 0004 0D0053E3 		cmp	r3, #13
  38 0008 03F19F97 		ldrls	pc, [pc, r3, asl #2]
  39 000c 150000EA 		b	.L2
  40              	.L4:
  41 0010 A8000000 		.word	.L1
  42 0014 68000000 		.word	.L2
  43 0018 68000000 		.word	.L2
  44 001c 48000000 		.word	.L5
  45 0020 68000000 		.word	.L2
  46 0024 58000000 		.word	.L3
  47 0028 68000000 		.word	.L2
  48 002c 68000000 		.word	.L2
  49 0030 68000000 		.word	.L2
  50 0034 68000000 		.word	.L2
  51 0038 68000000 		.word	.L2
  52 003c 68000000 		.word	.L2
  53 0040 68000000 		.word	.L2
  54 0044 58000000 		.word	.L3
  55              	.L5:
  56              		.loc 1 143 5 view .LVU6
  57 0048 242090E5 		ldr	r2, [r0, #36]
ARM GAS  /var/folders/l5/0x54b2c10074c8bt31ycjvl80000gp/T//ccF3aQLQ.s 			page 2


  58 004c 083092E5 		ldr	r3, [r2, #8]
  59 0050 013083E2 		add	r3, r3, #1
  60 0054 083082E5 		str	r3, [r2, #8]
  61              	.L3:
  62              		.loc 1 153 5 view .LVU7
  63              	.LVL1:
  64              	.LBB33:
  65              	.LBI33:
  66              		.file 2 "../../os/kernel/include/chinline.h"
  67              		.loc 2 66 23 view .LVU8
  68              	.LBB34:
  69              		.loc 2 68 3 view .LVU9
  70              		.loc 2 68 5 is_stmt 0 view .LVU10
  71 0058 042090E5 		ldr	r2, [r0, #4]
  72              		.loc 2 68 26 view .LVU11
  73 005c 003090E5 		ldr	r3, [r0]
  74              		.loc 2 68 22 view .LVU12
  75 0060 003082E5 		str	r3, [r2]
  76              		.loc 2 69 3 is_stmt 1 view .LVU13
  77              		.loc 2 69 22 is_stmt 0 view .LVU14
  78 0064 042083E5 		str	r2, [r3, #4]
  79              		.loc 2 70 3 is_stmt 1 view .LVU15
  80              	.LVL2:
  81              	.L2:
  82              		.loc 2 70 3 is_stmt 0 view .LVU16
  83              	.LBE34:
  84              	.LBE33:
  85              		.loc 1 156 3 is_stmt 1 view .LVU17
  86              		.loc 1 156 18 is_stmt 0 view .LVU18
  87 0068 00C0E0E3 		mvn	ip, #0
  88              	.LBB35:
  89              	.LBB36:
  90              		.loc 1 85 15 view .LVU19
  91 006c 0020A0E3 		mov	r2, #0
  92              	.LBE36:
  93              	.LBE35:
  94              	.LBB38:
  95              	.LBB39:
  96              	.LBB40:
  97              	.LBB41:
  98              		.loc 1 89 28 view .LVU20
  99 0070 081090E5 		ldr	r1, [r0, #8]
 100              		.loc 1 86 6 view .LVU21
 101 0074 30309FE5 		ldr	r3, .L10
 102              	.LBE41:
 103              	.LBE40:
 104              	.LBE39:
 105              	.LBE38:
 106              		.loc 1 156 18 view .LVU22
 107 0078 24C080E5 		str	ip, [r0, #36]
 108              		.loc 1 157 3 is_stmt 1 view .LVU23
 109              	.LVL3:
 110              	.LBB45:
 111              	.LBI35:
 112              		.loc 1 74 9 view .LVU24
 113              	.LBB37:
 114              		.loc 1 75 3 view .LVU25
ARM GAS  /var/folders/l5/0x54b2c10074c8bt31ycjvl80000gp/T//ccF3aQLQ.s 			page 3


 115              		.loc 1 77 3 view .LVU26
 116              		.loc 1 77 21 view .LVU27
 117              		.loc 1 80 3 view .LVU28
 118              		.loc 1 83 31 view .LVU29
 119              		.loc 1 85 3 view .LVU30
 120              		.loc 1 85 15 is_stmt 0 view .LVU31
 121 007c 1C20C0E5 		strb	r2, [r0, #28]
 122              		.loc 1 86 3 is_stmt 1 view .LVU32
 123              	.LVL4:
 124              		.loc 1 86 3 is_stmt 0 view .LVU33
 125              	.LBE37:
 126              	.LBE45:
 127              	.LBB46:
 128              	.LBI38:
 129              		.loc 1 129 13 is_stmt 1 view .LVU34
 130              	.L7:
 131              	.LBB44:
 132              	.LBB43:
 133              	.LBB42:
 134              		.loc 1 87 3 view .LVU35
 135              		.loc 1 88 5 view .LVU36
 136              		.loc 1 88 8 is_stmt 0 view .LVU37
 137 0080 003093E5 		ldr	r3, [r3]
 138              	.LVL5:
 139              		.loc 1 89 3 view .LVU38
 140 0084 082093E5 		ldr	r2, [r3, #8]
 141 0088 010052E1 		cmp	r2, r1
 142 008c FBFFFF2A 		bcs	.L7
 143              		.loc 1 91 3 is_stmt 1 view .LVU39
 144              		.loc 1 92 18 is_stmt 0 view .LVU40
 145 0090 042093E5 		ldr	r2, [r3, #4]
 146              		.loc 1 91 14 view .LVU41
 147 0094 003080E5 		str	r3, [r0]
 148              		.loc 1 92 3 is_stmt 1 view .LVU42
 149              		.loc 1 92 14 is_stmt 0 view .LVU43
 150 0098 042080E5 		str	r2, [r0, #4]
 151              		.loc 1 93 3 is_stmt 1 view .LVU44
 152              		.loc 1 93 35 is_stmt 0 view .LVU45
 153 009c 040083E5 		str	r0, [r3, #4]
 154              		.loc 1 93 22 view .LVU46
 155 00a0 043090E5 		ldr	r3, [r0, #4]
 156              	.LVL6:
 157              		.loc 1 93 22 view .LVU47
 158 00a4 000083E5 		str	r0, [r3]
 159              	.LVL7:
 160              		.loc 1 94 3 is_stmt 1 view .LVU48
 161              	.LBE42:
 162              	.LBE43:
 163              		.loc 1 158 3 view .LVU49
 164              		.loc 1 158 3 view .LVU50
 165              		.loc 1 158 23 view .LVU51
 166              	.LBE44:
 167              	.LBE46:
 168              		.loc 1 158 3 view .LVU52
 169              		.loc 1 158 3 view .LVU53
 170              		.loc 1 158 23 view .LVU54
 171              	.L1:
ARM GAS  /var/folders/l5/0x54b2c10074c8bt31ycjvl80000gp/T//ccF3aQLQ.s 			page 4


 172              		.loc 1 159 1 is_stmt 0 view .LVU55
 173 00a8 1EFF2FE1 		bx	lr
 174              	.L11:
 175              		.align	2
 176              	.L10:
 177 00ac 00000000 		.word	rlist
 178              		.cfi_endproc
 179              	.LFE10:
 180              		.size	wakeup, .-wakeup
 181              		.section	.text._scheduler_init,"ax",%progbits
 182              		.align	2
 183              		.global	_scheduler_init
 184              		.syntax unified
 185              		.arm
 186              		.fpu softvfp
 187              		.type	_scheduler_init, %function
 188              	_scheduler_init:
 189              	.LFB7:
 190              		.loc 1 48 28 is_stmt 1 view -0
 191              		.cfi_startproc
 192              		@ args = 0, pretend = 0, frame = 0
 193              		@ frame_needed = 0, uses_anonymous_args = 0
 194              		@ link register save eliminated.
 195              		.loc 1 50 3 view .LVU57
 196              		.loc 1 51 16 is_stmt 0 view .LVU58
 197 0000 0020A0E3 		mov	r2, #0
 198              		.loc 1 50 3 view .LVU59
 199 0004 14309FE5 		ldr	r3, .L13
 200              		.loc 1 51 16 view .LVU60
 201 0008 082083E5 		str	r2, [r3, #8]
 202              		.loc 1 50 3 view .LVU61
 203 000c 043083E5 		str	r3, [r3, #4]
 204 0010 003083E5 		str	r3, [r3]
 205              		.loc 1 50 29 is_stmt 1 view .LVU62
 206              		.loc 1 51 3 view .LVU63
 207              		.loc 1 53 3 view .LVU64
 208              		.loc 1 53 33 is_stmt 0 view .LVU65
 209 0014 143083E5 		str	r3, [r3, #20]
 210              		.loc 1 53 17 view .LVU66
 211 0018 103083E5 		str	r3, [r3, #16]
 212              		.loc 1 55 1 view .LVU67
 213 001c 1EFF2FE1 		bx	lr
 214              	.L14:
 215              		.align	2
 216              	.L13:
 217 0020 00000000 		.word	rlist
 218              		.cfi_endproc
 219              	.LFE7:
 220              		.size	_scheduler_init, .-_scheduler_init
 221              		.section	.text.chSchReadyI,"ax",%progbits
 222              		.align	2
 223              		.global	chSchReadyI
 224              		.syntax unified
 225              		.arm
 226              		.fpu softvfp
 227              		.type	chSchReadyI, %function
 228              	chSchReadyI:
ARM GAS  /var/folders/l5/0x54b2c10074c8bt31ycjvl80000gp/T//ccF3aQLQ.s 			page 5


 229              	.LVL8:
 230              	.LFB8:
 231              		.loc 1 74 33 is_stmt 1 view -0
 232              		.cfi_startproc
 233              		@ args = 0, pretend = 0, frame = 0
 234              		@ frame_needed = 0, uses_anonymous_args = 0
 235              		@ link register save eliminated.
 236              		.loc 1 75 3 view .LVU69
 237              		.loc 1 77 3 view .LVU70
 238              		.loc 1 77 21 view .LVU71
 239              		.loc 1 80 3 view .LVU72
 240              		.loc 1 83 31 view .LVU73
 241              		.loc 1 85 3 view .LVU74
 242              		.loc 1 85 15 is_stmt 0 view .LVU75
 243 0000 0020A0E3 		mov	r2, #0
 244              		.loc 1 74 33 view .LVU76
 245 0004 00C0A0E1 		mov	ip, r0
 246              		.loc 1 89 28 view .LVU77
 247 0008 081090E5 		ldr	r1, [r0, #8]
 248              		.loc 1 86 6 view .LVU78
 249 000c 30309FE5 		ldr	r3, .L18
 250              		.loc 1 85 15 view .LVU79
 251 0010 1C20C0E5 		strb	r2, [r0, #28]
 252              		.loc 1 86 3 is_stmt 1 view .LVU80
 253              	.LVL9:
 254              	.L16:
 255              		.loc 1 87 3 discriminator 1 view .LVU81
 256              		.loc 1 88 5 discriminator 1 view .LVU82
 257              		.loc 1 88 8 is_stmt 0 discriminator 1 view .LVU83
 258 0014 003093E5 		ldr	r3, [r3]
 259              	.LVL10:
 260              		.loc 1 89 3 discriminator 1 view .LVU84
 261 0018 082093E5 		ldr	r2, [r3, #8]
 262 001c 010052E1 		cmp	r2, r1
 263 0020 FBFFFF2A 		bcs	.L16
 264              		.loc 1 91 3 is_stmt 1 view .LVU85
 265              		.loc 1 92 18 is_stmt 0 view .LVU86
 266 0024 042093E5 		ldr	r2, [r3, #4]
 267              		.loc 1 91 14 view .LVU87
 268 0028 00308CE5 		str	r3, [ip]
 269              		.loc 1 92 3 is_stmt 1 view .LVU88
 270              		.loc 1 92 14 is_stmt 0 view .LVU89
 271 002c 04208CE5 		str	r2, [ip, #4]
 272              		.loc 1 93 3 is_stmt 1 view .LVU90
 273              		.loc 1 93 35 is_stmt 0 view .LVU91
 274 0030 04C083E5 		str	ip, [r3, #4]
 275              		.loc 1 93 22 view .LVU92
 276 0034 04309CE5 		ldr	r3, [ip, #4]
 277              	.LVL11:
 278              		.loc 1 95 1 view .LVU93
 279 0038 0C00A0E1 		mov	r0, ip
 280              	.LVL12:
 281              		.loc 1 93 22 view .LVU94
 282 003c 00C083E5 		str	ip, [r3]
 283              	.LVL13:
 284              		.loc 1 94 3 is_stmt 1 view .LVU95
 285              		.loc 1 95 1 is_stmt 0 view .LVU96
ARM GAS  /var/folders/l5/0x54b2c10074c8bt31ycjvl80000gp/T//ccF3aQLQ.s 			page 6


 286 0040 1EFF2FE1 		bx	lr
 287              	.L19:
 288              		.align	2
 289              	.L18:
 290 0044 00000000 		.word	rlist
 291              		.cfi_endproc
 292              	.LFE8:
 293              		.size	chSchReadyI, .-chSchReadyI
 294              		.section	.text.chSchGoSleepS,"ax",%progbits
 295              		.align	2
 296              		.global	chSchGoSleepS
 297              		.syntax unified
 298              		.arm
 299              		.fpu softvfp
 300              		.type	chSchGoSleepS, %function
 301              	chSchGoSleepS:
 302              	.LVL14:
 303              	.LFB9:
 304              		.loc 1 108 39 is_stmt 1 view -0
 305              		.cfi_startproc
 306              		@ args = 0, pretend = 0, frame = 0
 307              		@ frame_needed = 0, uses_anonymous_args = 0
 308              		.loc 1 109 3 view .LVU98
 309              		.loc 1 111 3 view .LVU99
 310              		.loc 1 111 21 view .LVU100
 311              		.loc 1 113 3 view .LVU101
 312              		.loc 1 117 18 is_stmt 0 view .LVU102
 313 0000 14C0A0E3 		mov	ip, #20
 314              		.loc 1 108 39 view .LVU103
 315 0004 04E02DE5 		str	lr, [sp, #-4]!
 316              		.cfi_def_cfa_offset 4
 317              		.cfi_offset 14, -4
 318              		.loc 1 120 18 view .LVU104
 319 0008 01E0A0E3 		mov	lr, #1
 320              		.loc 1 113 8 view .LVU105
 321 000c 2C309FE5 		ldr	r3, .L22
 322 0010 181093E5 		ldr	r1, [r3, #24]
 323              	.LVL15:
 324              	.LBB47:
 325              	.LBB48:
 326              		.loc 2 53 11 view .LVU106
 327 0014 002093E5 		ldr	r2, [r3]
 328              	.LBE48:
 329              	.LBE47:
 330              		.loc 1 113 26 view .LVU107
 331 0018 1C00C1E5 		strb	r0, [r1, #28]
 332              		.loc 1 117 3 is_stmt 1 view .LVU108
 333              		.loc 1 117 18 is_stmt 0 view .LVU109
 334 001c 1FC0C1E5 		strb	ip, [r1, #31]
 335              		.loc 1 119 3 is_stmt 1 view .LVU110
 336              	.LVL16:
 337              	.LBB52:
 338              	.LBI47:
 339              		.loc 2 52 23 view .LVU111
 340              	.LBB49:
 341              		.loc 2 53 3 view .LVU112
 342              		.loc 2 55 3 view .LVU113
ARM GAS  /var/folders/l5/0x54b2c10074c8bt31ycjvl80000gp/T//ccF3aQLQ.s 			page 7


 343              		.loc 2 55 20 is_stmt 0 view .LVU114
 344 0020 00C092E5 		ldr	ip, [r2]
 345              	.LBE49:
 346              	.LBE52:
 347              		.loc 1 121 3 view .LVU115
 348 0024 0200A0E1 		mov	r0, r2
 349              	.LVL17:
 350              	.LBB53:
 351              	.LBB50:
 352              		.loc 2 55 38 view .LVU116
 353 0028 04308CE5 		str	r3, [ip, #4]
 354              	.LVL18:
 355              		.loc 2 56 3 is_stmt 1 view .LVU117
 356              		.loc 2 56 3 is_stmt 0 view .LVU118
 357              	.LBE50:
 358              	.LBE53:
 359              		.loc 1 120 18 view .LVU119
 360 002c 1CE0C2E5 		strb	lr, [r2, #28]
 361              	.LBB54:
 362              	.LBB51:
 363              		.loc 2 55 16 view .LVU120
 364 0030 00C083E5 		str	ip, [r3]
 365              	.LBE51:
 366              	.LBE54:
 367              		.loc 1 122 1 view .LVU121
 368 0034 04E09DE4 		ldr	lr, [sp], #4
 369              		.cfi_restore 14
 370              		.cfi_def_cfa_offset 0
 371              		.loc 1 119 3 view .LVU122
 372 0038 182083E5 		str	r2, [r3, #24]
 373              		.loc 1 120 3 is_stmt 1 view .LVU123
 374              		.loc 1 121 3 view .LVU124
 375              		.loc 1 121 3 view .LVU125
 376              		.loc 1 121 3 view .LVU126
 377              		.loc 1 121 3 view .LVU127
 378 003c FEFFFFEA 		b	_port_switch_arm
 379              	.LVL19:
 380              	.L23:
 381              		.loc 1 121 3 is_stmt 0 view .LVU128
 382              		.align	2
 383              	.L22:
 384 0040 00000000 		.word	rlist
 385              		.cfi_endproc
 386              	.LFE9:
 387              		.size	chSchGoSleepS, .-chSchGoSleepS
 388              		.section	.text.chSchGoSleepTimeoutS,"ax",%progbits
 389              		.align	2
 390              		.global	chSchGoSleepTimeoutS
 391              		.syntax unified
 392              		.arm
 393              		.fpu softvfp
 394              		.type	chSchGoSleepTimeoutS, %function
 395              	chSchGoSleepTimeoutS:
 396              	.LVL20:
 397              	.LFB11:
 398              		.loc 1 182 63 is_stmt 1 view -0
 399              		.cfi_startproc
ARM GAS  /var/folders/l5/0x54b2c10074c8bt31ycjvl80000gp/T//ccF3aQLQ.s 			page 8


 400              		@ args = 0, pretend = 0, frame = 24
 401              		@ frame_needed = 0, uses_anonymous_args = 0
 402              		.loc 1 184 3 view .LVU130
 403              		.loc 1 184 21 view .LVU131
 404              		.loc 1 186 3 view .LVU132
 405              		.loc 1 182 63 is_stmt 0 view .LVU133
 406 0000 30402DE9 		push	{r4, r5, lr}
 407              		.cfi_def_cfa_offset 12
 408              		.cfi_offset 4, -12
 409              		.cfi_offset 5, -8
 410              		.cfi_offset 14, -4
 411              		.loc 1 186 6 view .LVU134
 412 0004 010071E3 		cmn	r1, #1
 413              		.loc 1 182 63 view .LVU135
 414 0008 1CD04DE2 		sub	sp, sp, #28
 415              		.cfi_def_cfa_offset 40
 416              		.loc 1 186 6 view .LVU136
 417 000c 1000000A 		beq	.L25
 418              	.LBB55:
 419              		.loc 1 187 5 is_stmt 1 view .LVU137
 420              		.loc 1 189 5 view .LVU138
 421 0010 0050A0E1 		mov	r5, r0
 422              		.loc 1 189 33 is_stmt 0 view .LVU139
 423 0014 50409FE5 		ldr	r4, .L32
 424              		.loc 1 189 5 view .LVU140
 425 0018 04008DE2 		add	r0, sp, #4
 426              	.LVL21:
 427              		.loc 1 189 5 view .LVU141
 428 001c 183094E5 		ldr	r3, [r4, #24]
 429 0020 48209FE5 		ldr	r2, .L32+4
 430 0024 FEFFFFEB 		bl	chVTSetI
 431              	.LVL22:
 432              		.loc 1 190 5 is_stmt 1 view .LVU142
 433 0028 0500A0E1 		mov	r0, r5
 434 002c FEFFFFEB 		bl	chSchGoSleepS
 435              	.LVL23:
 436              		.loc 1 191 5 view .LVU143
 437              		.loc 1 191 8 is_stmt 0 view .LVU144
 438 0030 10309DE5 		ldr	r3, [sp, #16]
 439 0034 000053E3 		cmp	r3, #0
 440 0038 0100000A 		beq	.L27
 441              		.loc 1 192 7 is_stmt 1 view .LVU145
 442 003c 04008DE2 		add	r0, sp, #4
 443 0040 FEFFFFEB 		bl	chVTResetI
 444              	.LVL24:
 445              	.L27:
 446              	.LBE55:
 447              		.loc 1 196 3 view .LVU146
 448              		.loc 1 196 20 is_stmt 0 view .LVU147
 449 0044 183094E5 		ldr	r3, [r4, #24]
 450              		.loc 1 197 1 view .LVU148
 451 0048 240093E5 		ldr	r0, [r3, #36]
 452 004c 1CD08DE2 		add	sp, sp, #28
 453              		.cfi_remember_state
 454              		.cfi_def_cfa_offset 12
 455              		@ sp needed
 456 0050 3080BDE8 		pop	{r4, r5, pc}
ARM GAS  /var/folders/l5/0x54b2c10074c8bt31ycjvl80000gp/T//ccF3aQLQ.s 			page 9


 457              	.LVL25:
 458              	.L25:
 459              		.cfi_restore_state
 460              		.loc 1 195 5 is_stmt 1 view .LVU149
 461 0054 FEFFFFEB 		bl	chSchGoSleepS
 462              	.LVL26:
 463              		.loc 1 195 5 is_stmt 0 view .LVU150
 464 0058 0C409FE5 		ldr	r4, .L32
 465              		.loc 1 196 3 is_stmt 1 view .LVU151
 466              		.loc 1 196 20 is_stmt 0 view .LVU152
 467 005c 183094E5 		ldr	r3, [r4, #24]
 468              		.loc 1 197 1 view .LVU153
 469 0060 240093E5 		ldr	r0, [r3, #36]
 470 0064 1CD08DE2 		add	sp, sp, #28
 471              		.cfi_def_cfa_offset 12
 472              		@ sp needed
 473 0068 3080BDE8 		pop	{r4, r5, pc}
 474              	.L33:
 475              		.align	2
 476              	.L32:
 477 006c 00000000 		.word	rlist
 478 0070 00000000 		.word	wakeup
 479              		.cfi_endproc
 480              	.LFE11:
 481              		.size	chSchGoSleepTimeoutS, .-chSchGoSleepTimeoutS
 482              		.section	.text.chSchWakeupS,"ax",%progbits
 483              		.align	2
 484              		.global	chSchWakeupS
 485              		.syntax unified
 486              		.arm
 487              		.fpu softvfp
 488              		.type	chSchWakeupS, %function
 489              	chSchWakeupS:
 490              	.LVL27:
 491              	.LFB12:
 492              		.loc 1 218 43 is_stmt 1 view -0
 493              		.cfi_startproc
 494              		@ args = 0, pretend = 0, frame = 0
 495              		@ frame_needed = 0, uses_anonymous_args = 0
 496              		.loc 1 220 3 view .LVU155
 497              		.loc 1 220 21 view .LVU156
 498              		.loc 1 222 3 view .LVU157
 499              		.loc 1 227 22 is_stmt 0 view .LVU158
 500 0000 A0309FE5 		ldr	r3, .L43
 501              		.loc 1 218 43 view .LVU159
 502 0004 10402DE9 		push	{r4, lr}
 503              		.cfi_def_cfa_offset 8
 504              		.cfi_offset 4, -8
 505              		.cfi_offset 14, -4
 506              		.loc 1 227 22 view .LVU160
 507 0008 184093E5 		ldr	r4, [r3, #24]
 508              		.loc 1 227 10 view .LVU161
 509 000c 08E090E5 		ldr	lr, [r0, #8]
 510              		.loc 1 218 43 view .LVU162
 511 0010 00C0A0E1 		mov	ip, r0
 512              		.loc 1 222 19 view .LVU163
 513 0014 241080E5 		str	r1, [r0, #36]
ARM GAS  /var/folders/l5/0x54b2c10074c8bt31ycjvl80000gp/T//ccF3aQLQ.s 			page 10


 514              		.loc 1 227 3 is_stmt 1 view .LVU164
 515              		.loc 1 227 27 is_stmt 0 view .LVU165
 516 0018 080094E5 		ldr	r0, [r4, #8]
 517              	.LVL28:
 518              		.loc 1 227 6 view .LVU166
 519 001c 00005EE1 		cmp	lr, r0
 520 0020 0C00008A 		bhi	.L35
 521              		.loc 1 228 5 is_stmt 1 view .LVU167
 522              	.LVL29:
 523              	.LBB56:
 524              	.LBI56:
 525              		.loc 1 74 9 view .LVU168
 526              	.LBB57:
 527              		.loc 1 75 3 view .LVU169
 528              		.loc 1 77 3 view .LVU170
 529              		.loc 1 77 21 view .LVU171
 530              		.loc 1 80 3 view .LVU172
 531              		.loc 1 83 31 view .LVU173
 532              		.loc 1 85 3 view .LVU174
 533              		.loc 1 85 15 is_stmt 0 view .LVU175
 534 0024 0020A0E3 		mov	r2, #0
 535 0028 1C20CCE5 		strb	r2, [ip, #28]
 536              		.loc 1 86 3 is_stmt 1 view .LVU176
 537              	.LVL30:
 538              	.L36:
 539              		.loc 1 87 3 view .LVU177
 540              		.loc 1 88 5 view .LVU178
 541              		.loc 1 88 8 is_stmt 0 view .LVU179
 542 002c 003093E5 		ldr	r3, [r3]
 543              	.LVL31:
 544              		.loc 1 89 3 view .LVU180
 545 0030 082093E5 		ldr	r2, [r3, #8]
 546 0034 02005EE1 		cmp	lr, r2
 547 0038 FBFFFF9A 		bls	.L36
 548              		.loc 1 91 3 is_stmt 1 view .LVU181
 549              		.loc 1 92 18 is_stmt 0 view .LVU182
 550 003c 042093E5 		ldr	r2, [r3, #4]
 551              		.loc 1 91 14 view .LVU183
 552 0040 00308CE5 		str	r3, [ip]
 553              		.loc 1 92 3 is_stmt 1 view .LVU184
 554              		.loc 1 92 14 is_stmt 0 view .LVU185
 555 0044 04208CE5 		str	r2, [ip, #4]
 556              		.loc 1 93 3 is_stmt 1 view .LVU186
 557              		.loc 1 93 35 is_stmt 0 view .LVU187
 558 0048 04C083E5 		str	ip, [r3, #4]
 559              		.loc 1 93 22 view .LVU188
 560 004c 04309CE5 		ldr	r3, [ip, #4]
 561              	.LVL32:
 562              		.loc 1 93 22 view .LVU189
 563 0050 00C083E5 		str	ip, [r3]
 564              	.LVL33:
 565              		.loc 1 94 3 is_stmt 1 view .LVU190
 566              	.LBE57:
 567              	.LBE56:
 568              		.loc 1 235 1 is_stmt 0 view .LVU191
 569 0054 1080BDE8 		pop	{r4, pc}
 570              	.LVL34:
ARM GAS  /var/folders/l5/0x54b2c10074c8bt31ycjvl80000gp/T//ccF3aQLQ.s 			page 11


 571              	.L35:
 572              	.LBB58:
 573              		.loc 1 230 5 is_stmt 1 view .LVU192
 574              	.LBB59:
 575              	.LBI59:
 576              		.loc 1 74 9 view .LVU193
 577              	.LBB60:
 578              		.loc 1 75 3 view .LVU194
 579              		.loc 1 77 3 view .LVU195
 580              		.loc 1 77 21 view .LVU196
 581              		.loc 1 80 3 view .LVU197
 582              		.loc 1 83 31 view .LVU198
 583              		.loc 1 85 3 view .LVU199
 584              		.loc 1 85 15 is_stmt 0 view .LVU200
 585 0058 0010A0E3 		mov	r1, #0
 586              	.LVL35:
 587              		.loc 1 86 6 view .LVU201
 588 005c 0320A0E1 		mov	r2, r3
 589              		.loc 1 85 15 view .LVU202
 590 0060 1C10C4E5 		strb	r1, [r4, #28]
 591              	.LVL36:
 592              		.loc 1 86 3 is_stmt 1 view .LVU203
 593              	.L38:
 594              		.loc 1 87 3 view .LVU204
 595              		.loc 1 88 5 view .LVU205
 596              		.loc 1 88 8 is_stmt 0 view .LVU206
 597 0064 002092E5 		ldr	r2, [r2]
 598              	.LVL37:
 599              		.loc 1 89 3 view .LVU207
 600 0068 081092E5 		ldr	r1, [r2, #8]
 601 006c 010050E1 		cmp	r0, r1
 602 0070 FBFFFF9A 		bls	.L38
 603              		.loc 1 91 3 is_stmt 1 view .LVU208
 604              	.LBE60:
 605              	.LBE59:
 606              		.loc 1 232 18 is_stmt 0 view .LVU209
 607 0074 01E0A0E3 		mov	lr, #1
 608              	.LBB63:
 609              	.LBB61:
 610              		.loc 1 92 18 view .LVU210
 611 0078 041092E5 		ldr	r1, [r2, #4]
 612              		.loc 1 91 14 view .LVU211
 613 007c 002084E5 		str	r2, [r4]
 614              		.loc 1 92 3 is_stmt 1 view .LVU212
 615              		.loc 1 92 14 is_stmt 0 view .LVU213
 616 0080 041084E5 		str	r1, [r4, #4]
 617              		.loc 1 93 3 is_stmt 1 view .LVU214
 618              		.loc 1 93 35 is_stmt 0 view .LVU215
 619 0084 044082E5 		str	r4, [r2, #4]
 620              		.loc 1 93 22 view .LVU216
 621 0088 042094E5 		ldr	r2, [r4, #4]
 622              	.LVL38:
 623              		.loc 1 93 22 view .LVU217
 624              	.LBE61:
 625              	.LBE63:
 626              		.loc 1 233 5 view .LVU218
 627 008c 0410A0E1 		mov	r1, r4
ARM GAS  /var/folders/l5/0x54b2c10074c8bt31ycjvl80000gp/T//ccF3aQLQ.s 			page 12


 628              	.LBB64:
 629              	.LBB62:
 630              		.loc 1 93 22 view .LVU219
 631 0090 004082E5 		str	r4, [r2]
 632              	.LVL39:
 633              		.loc 1 94 3 is_stmt 1 view .LVU220
 634              		.loc 1 94 3 is_stmt 0 view .LVU221
 635              	.LBE62:
 636              	.LBE64:
 637              		.loc 1 231 5 is_stmt 1 view .LVU222
 638              		.loc 1 232 18 is_stmt 0 view .LVU223
 639 0094 1CE0CCE5 		strb	lr, [ip, #28]
 640              		.loc 1 233 5 view .LVU224
 641 0098 0C00A0E1 		mov	r0, ip
 642              	.LBE58:
 643              		.loc 1 235 1 view .LVU225
 644 009c 1040BDE8 		pop	{r4, lr}
 645              		.cfi_restore 14
 646              		.cfi_restore 4
 647              		.cfi_def_cfa_offset 0
 648              	.LVL40:
 649              	.LBB65:
 650              		.loc 1 231 5 view .LVU226
 651 00a0 18C083E5 		str	ip, [r3, #24]
 652              		.loc 1 232 5 is_stmt 1 view .LVU227
 653              		.loc 1 233 5 view .LVU228
 654              		.loc 1 233 5 view .LVU229
 655              		.loc 1 233 5 view .LVU230
 656              		.loc 1 233 5 view .LVU231
 657 00a4 FEFFFFEA 		b	_port_switch_arm
 658              	.LVL41:
 659              	.L44:
 660              		.loc 1 233 5 is_stmt 0 view .LVU232
 661              		.align	2
 662              	.L43:
 663 00a8 00000000 		.word	rlist
 664              	.LBE65:
 665              		.cfi_endproc
 666              	.LFE12:
 667              		.size	chSchWakeupS, .-chSchWakeupS
 668              		.section	.text.chSchIsPreemptionRequired,"ax",%progbits
 669              		.align	2
 670              		.global	chSchIsPreemptionRequired
 671              		.syntax unified
 672              		.arm
 673              		.fpu softvfp
 674              		.type	chSchIsPreemptionRequired, %function
 675              	chSchIsPreemptionRequired:
 676              	.LFB14:
 677              		.loc 1 269 40 is_stmt 1 view -0
 678              		.cfi_startproc
 679              		@ args = 0, pretend = 0, frame = 0
 680              		@ frame_needed = 0, uses_anonymous_args = 0
 681              		@ link register save eliminated.
 682              		.loc 1 270 3 view .LVU234
 683              		.loc 1 270 16 is_stmt 0 view .LVU235
 684 0000 38209FE5 		ldr	r2, .L48
ARM GAS  /var/folders/l5/0x54b2c10074c8bt31ycjvl80000gp/T//ccF3aQLQ.s 			page 13


 685              		.loc 1 271 16 view .LVU236
 686 0004 183092E5 		ldr	r3, [r2, #24]
 687              		.loc 1 270 11 view .LVU237
 688 0008 001092E5 		ldr	r1, [r2]
 689              		.loc 1 277 37 view .LVU238
 690 000c 1F20D3E5 		ldrb	r2, [r3, #31]	@ zero_extendqisi2
 691              		.loc 1 270 11 view .LVU239
 692 0010 080091E5 		ldr	r0, [r1, #8]
 693              	.LVL42:
 694              		.loc 1 271 3 is_stmt 1 view .LVU240
 695              		.loc 1 277 37 is_stmt 0 view .LVU241
 696 0014 000052E3 		cmp	r2, #0
 697              		.loc 1 271 11 view .LVU242
 698 0018 083093E5 		ldr	r3, [r3, #8]
 699              	.LVL43:
 700              		.loc 1 277 3 is_stmt 1 view .LVU243
 701              		.loc 1 277 37 is_stmt 0 view .LVU244
 702 001c 0300000A 		beq	.L46
 703              		.loc 1 277 32 discriminator 1 view .LVU245
 704 0020 030050E1 		cmp	r0, r3
 705 0024 0000A093 		movls	r0, #0
 706              	.LVL44:
 707              		.loc 1 277 32 discriminator 1 view .LVU246
 708 0028 0100A083 		movhi	r0, #1
 709 002c 1EFF2FE1 		bx	lr
 710              	.LVL45:
 711              	.L46:
 712              		.loc 1 277 42 discriminator 2 view .LVU247
 713 0030 030050E1 		cmp	r0, r3
 714 0034 0000A033 		movcc	r0, #0
 715              	.LVL46:
 716              		.loc 1 277 42 discriminator 2 view .LVU248
 717 0038 0100A023 		movcs	r0, #1
 718              		.loc 1 283 1 discriminator 2 view .LVU249
 719 003c 1EFF2FE1 		bx	lr
 720              	.L49:
 721              		.align	2
 722              	.L48:
 723 0040 00000000 		.word	rlist
 724              		.cfi_endproc
 725              	.LFE14:
 726              		.size	chSchIsPreemptionRequired, .-chSchIsPreemptionRequired
 727              		.section	.text.chSchDoRescheduleBehind,"ax",%progbits
 728              		.align	2
 729              		.global	chSchDoRescheduleBehind
 730              		.syntax unified
 731              		.arm
 732              		.fpu softvfp
 733              		.type	chSchDoRescheduleBehind, %function
 734              	chSchDoRescheduleBehind:
 735              	.LFB15:
 736              		.loc 1 297 36 is_stmt 1 view -0
 737              		.cfi_startproc
 738              		@ args = 0, pretend = 0, frame = 0
 739              		@ frame_needed = 0, uses_anonymous_args = 0
 740              		.loc 1 298 3 view .LVU251
 741              		.loc 1 300 3 view .LVU252
ARM GAS  /var/folders/l5/0x54b2c10074c8bt31ycjvl80000gp/T//ccF3aQLQ.s 			page 14


 742              		.loc 1 297 36 is_stmt 0 view .LVU253
 743 0000 30402DE9 		push	{r4, r5, lr}
 744              		.cfi_def_cfa_offset 12
 745              		.cfi_offset 4, -12
 746              		.cfi_offset 5, -8
 747              		.cfi_offset 14, -4
 748              		.loc 1 303 18 view .LVU254
 749 0004 0150A0E3 		mov	r5, #1
 750              		.loc 1 305 18 view .LVU255
 751 0008 1440A0E3 		mov	r4, #20
 752              	.LBB66:
 753              	.LBB67:
 754              		.loc 1 85 15 view .LVU256
 755 000c 00E0A0E3 		mov	lr, #0
 756              	.LBE67:
 757              	.LBE66:
 758              		.loc 1 300 7 view .LVU257
 759 0010 5C209FE5 		ldr	r2, .L55
 760              	.LBB72:
 761              	.LBB73:
 762              		.loc 2 53 11 view .LVU258
 763 0014 000092E5 		ldr	r0, [r2]
 764              	.LBE73:
 765              	.LBE72:
 766              		.loc 1 300 7 view .LVU259
 767 0018 181092E5 		ldr	r1, [r2, #24]
 768              	.LVL47:
 769              		.loc 1 302 3 is_stmt 1 view .LVU260
 770              	.LBB77:
 771              	.LBI72:
 772              		.loc 2 52 23 view .LVU261
 773              	.LBB74:
 774              		.loc 2 53 3 view .LVU262
 775              		.loc 2 55 3 view .LVU263
 776              		.loc 2 55 20 is_stmt 0 view .LVU264
 777 001c 00C090E5 		ldr	ip, [r0]
 778              	.LBE74:
 779              	.LBE77:
 780              	.LBB78:
 781              	.LBB68:
 782              		.loc 1 89 28 view .LVU265
 783 0020 0030A0E1 		mov	r3, r0
 784              	.LBE68:
 785              	.LBE78:
 786              	.LBB79:
 787              	.LBB75:
 788              		.loc 2 55 38 view .LVU266
 789 0024 04208CE5 		str	r2, [ip, #4]
 790              		.loc 2 56 3 is_stmt 1 view .LVU267
 791              	.LVL48:
 792              		.loc 2 56 3 is_stmt 0 view .LVU268
 793              	.LBE75:
 794              	.LBE79:
 795              		.loc 1 303 18 view .LVU269
 796 0028 1C50C0E5 		strb	r5, [r0, #28]
 797              	.LBB80:
 798              	.LBB76:
ARM GAS  /var/folders/l5/0x54b2c10074c8bt31ycjvl80000gp/T//ccF3aQLQ.s 			page 15


 799              		.loc 2 55 16 view .LVU270
 800 002c 00C082E5 		str	ip, [r2]
 801              	.LBE76:
 802              	.LBE80:
 803              		.loc 1 302 3 view .LVU271
 804 0030 180082E5 		str	r0, [r2, #24]
 805              		.loc 1 303 3 is_stmt 1 view .LVU272
 806              		.loc 1 305 3 view .LVU273
 807              	.LBB81:
 808              	.LBB69:
 809              		.loc 1 89 28 is_stmt 0 view .LVU274
 810 0034 08C091E5 		ldr	ip, [r1, #8]
 811              	.LBE69:
 812              	.LBE81:
 813              		.loc 1 305 18 view .LVU275
 814 0038 1F40C1E5 		strb	r4, [r1, #31]
 815              		.loc 1 307 3 is_stmt 1 view .LVU276
 816              	.LVL49:
 817              	.LBB82:
 818              	.LBI66:
 819              		.loc 1 74 9 view .LVU277
 820              	.LBB70:
 821              		.loc 1 75 3 view .LVU278
 822              		.loc 1 77 3 view .LVU279
 823              		.loc 1 77 21 view .LVU280
 824              		.loc 1 80 3 view .LVU281
 825              		.loc 1 83 31 view .LVU282
 826              		.loc 1 85 3 view .LVU283
 827              		.loc 1 85 15 is_stmt 0 view .LVU284
 828 003c 1CE0C1E5 		strb	lr, [r1, #28]
 829              		.loc 1 86 3 is_stmt 1 view .LVU285
 830              	.LVL50:
 831              		.loc 1 86 3 is_stmt 0 view .LVU286
 832 0040 000000EA 		b	.L52
 833              	.LVL51:
 834              	.L54:
 835              		.loc 1 86 3 view .LVU287
 836 0044 003093E5 		ldr	r3, [r3]
 837              	.L52:
 838              		.loc 1 87 3 is_stmt 1 view .LVU288
 839              		.loc 1 88 5 view .LVU289
 840              		.loc 1 89 3 is_stmt 0 view .LVU290
 841 0048 082093E5 		ldr	r2, [r3, #8]
 842 004c 0C0052E1 		cmp	r2, ip
 843 0050 FBFFFF2A 		bcs	.L54
 844              		.loc 1 91 3 is_stmt 1 view .LVU291
 845              	.LBE70:
 846              	.LBE82:
 847              		.loc 1 309 1 is_stmt 0 view .LVU292
 848 0054 3040BDE8 		pop	{r4, r5, lr}
 849              		.cfi_restore 14
 850              		.cfi_restore 5
 851              		.cfi_restore 4
 852              		.cfi_def_cfa_offset 0
 853              	.LBB83:
 854              	.LBB71:
 855              		.loc 1 92 18 view .LVU293
ARM GAS  /var/folders/l5/0x54b2c10074c8bt31ycjvl80000gp/T//ccF3aQLQ.s 			page 16


 856 0058 042093E5 		ldr	r2, [r3, #4]
 857              		.loc 1 91 14 view .LVU294
 858 005c 003081E5 		str	r3, [r1]
 859              		.loc 1 92 3 is_stmt 1 view .LVU295
 860              		.loc 1 92 14 is_stmt 0 view .LVU296
 861 0060 042081E5 		str	r2, [r1, #4]
 862              		.loc 1 93 3 is_stmt 1 view .LVU297
 863              		.loc 1 93 35 is_stmt 0 view .LVU298
 864 0064 041083E5 		str	r1, [r3, #4]
 865              		.loc 1 93 22 view .LVU299
 866 0068 043091E5 		ldr	r3, [r1, #4]
 867 006c 001083E5 		str	r1, [r3]
 868              		.loc 1 94 3 is_stmt 1 view .LVU300
 869              	.LVL52:
 870              		.loc 1 94 3 is_stmt 0 view .LVU301
 871              	.LBE71:
 872              	.LBE83:
 873              		.loc 1 308 3 is_stmt 1 view .LVU302
 874              		.loc 1 308 3 view .LVU303
 875              		.loc 1 308 3 view .LVU304
 876              		.loc 1 308 3 view .LVU305
 877 0070 FEFFFFEA 		b	_port_switch_arm
 878              	.LVL53:
 879              	.L56:
 880              		.loc 1 308 3 is_stmt 0 view .LVU306
 881              		.align	2
 882              	.L55:
 883 0074 00000000 		.word	rlist
 884              		.cfi_endproc
 885              	.LFE15:
 886              		.size	chSchDoRescheduleBehind, .-chSchDoRescheduleBehind
 887              		.section	.text.chSchDoRescheduleAhead,"ax",%progbits
 888              		.align	2
 889              		.global	chSchDoRescheduleAhead
 890              		.syntax unified
 891              		.arm
 892              		.fpu softvfp
 893              		.type	chSchDoRescheduleAhead, %function
 894              	chSchDoRescheduleAhead:
 895              	.LFB16:
 896              		.loc 1 322 35 is_stmt 1 view -0
 897              		.cfi_startproc
 898              		@ args = 0, pretend = 0, frame = 0
 899              		@ frame_needed = 0, uses_anonymous_args = 0
 900              		.loc 1 323 3 view .LVU308
 901              		.loc 1 325 3 view .LVU309
 902              		.loc 1 322 35 is_stmt 0 view .LVU310
 903 0000 10402DE9 		push	{r4, lr}
 904              		.cfi_def_cfa_offset 8
 905              		.cfi_offset 4, -8
 906              		.cfi_offset 14, -4
 907              		.loc 1 328 18 view .LVU311
 908 0004 0140A0E3 		mov	r4, #1
 909              		.loc 1 330 16 view .LVU312
 910 0008 00E0A0E3 		mov	lr, #0
 911              		.loc 1 325 7 view .LVU313
 912 000c 58209FE5 		ldr	r2, .L62
ARM GAS  /var/folders/l5/0x54b2c10074c8bt31ycjvl80000gp/T//ccF3aQLQ.s 			page 17


 913              	.LBB84:
 914              	.LBB85:
 915              		.loc 2 53 11 view .LVU314
 916 0010 000092E5 		ldr	r0, [r2]
 917              	.LBE85:
 918              	.LBE84:
 919              		.loc 1 325 7 view .LVU315
 920 0014 181092E5 		ldr	r1, [r2, #24]
 921              	.LVL54:
 922              		.loc 1 327 3 is_stmt 1 view .LVU316
 923              	.LBB89:
 924              	.LBI84:
 925              		.loc 2 52 23 view .LVU317
 926              	.LBB86:
 927              		.loc 2 53 3 view .LVU318
 928              		.loc 2 55 3 view .LVU319
 929              		.loc 2 55 20 is_stmt 0 view .LVU320
 930 0018 00C090E5 		ldr	ip, [r0]
 931              	.LBE86:
 932              	.LBE89:
 933              		.loc 1 334 28 view .LVU321
 934 001c 0030A0E1 		mov	r3, r0
 935              	.LBB90:
 936              	.LBB87:
 937              		.loc 2 55 38 view .LVU322
 938 0020 04208CE5 		str	r2, [ip, #4]
 939              		.loc 2 56 3 is_stmt 1 view .LVU323
 940              	.LVL55:
 941              		.loc 2 56 3 is_stmt 0 view .LVU324
 942              	.LBE87:
 943              	.LBE90:
 944              		.loc 1 328 18 view .LVU325
 945 0024 1C40C0E5 		strb	r4, [r0, #28]
 946              	.LBB91:
 947              	.LBB88:
 948              		.loc 2 55 16 view .LVU326
 949 0028 00C082E5 		str	ip, [r2]
 950              	.LBE88:
 951              	.LBE91:
 952              		.loc 1 330 16 view .LVU327
 953 002c 1CE0C1E5 		strb	lr, [r1, #28]
 954              		.loc 1 334 28 view .LVU328
 955 0030 08C091E5 		ldr	ip, [r1, #8]
 956              		.loc 1 327 3 view .LVU329
 957 0034 180082E5 		str	r0, [r2, #24]
 958              		.loc 1 328 3 is_stmt 1 view .LVU330
 959              		.loc 1 330 3 view .LVU331
 960              		.loc 1 331 3 view .LVU332
 961              	.LVL56:
 962              		.loc 1 331 3 is_stmt 0 view .LVU333
 963 0038 000000EA 		b	.L59
 964              	.LVL57:
 965              	.L61:
 966              		.loc 1 331 3 view .LVU334
 967 003c 003093E5 		ldr	r3, [r3]
 968              	.L59:
 969              		.loc 1 332 3 is_stmt 1 discriminator 1 view .LVU335
ARM GAS  /var/folders/l5/0x54b2c10074c8bt31ycjvl80000gp/T//ccF3aQLQ.s 			page 18


 970              		.loc 1 333 5 discriminator 1 view .LVU336
 971              		.loc 1 334 3 is_stmt 0 discriminator 1 view .LVU337
 972 0040 082093E5 		ldr	r2, [r3, #8]
 973 0044 0C0052E1 		cmp	r2, ip
 974 0048 FBFFFF8A 		bhi	.L61
 975              		.loc 1 336 3 is_stmt 1 view .LVU338
 976              		.loc 1 341 1 is_stmt 0 view .LVU339
 977 004c 1040BDE8 		pop	{r4, lr}
 978              		.cfi_restore 14
 979              		.cfi_restore 4
 980              		.cfi_def_cfa_offset 0
 981              		.loc 1 337 19 view .LVU340
 982 0050 042093E5 		ldr	r2, [r3, #4]
 983              		.loc 1 336 15 view .LVU341
 984 0054 003081E5 		str	r3, [r1]
 985              		.loc 1 337 3 is_stmt 1 view .LVU342
 986              		.loc 1 337 15 is_stmt 0 view .LVU343
 987 0058 042081E5 		str	r2, [r1, #4]
 988              		.loc 1 338 3 is_stmt 1 view .LVU344
 989              		.loc 1 338 36 is_stmt 0 view .LVU345
 990 005c 041083E5 		str	r1, [r3, #4]
 991              		.loc 1 338 23 view .LVU346
 992 0060 043091E5 		ldr	r3, [r1, #4]
 993 0064 001083E5 		str	r1, [r3]
 994              		.loc 1 340 3 is_stmt 1 view .LVU347
 995              		.loc 1 340 3 view .LVU348
 996              		.loc 1 340 3 view .LVU349
 997              		.loc 1 340 3 view .LVU350
 998 0068 FEFFFFEA 		b	_port_switch_arm
 999              	.LVL58:
 1000              	.L63:
 1001              		.loc 1 340 3 is_stmt 0 view .LVU351
 1002              		.align	2
 1003              	.L62:
 1004 006c 00000000 		.word	rlist
 1005              		.cfi_endproc
 1006              	.LFE16:
 1007              		.size	chSchDoRescheduleAhead, .-chSchDoRescheduleAhead
 1008              		.section	.text.chSchRescheduleS,"ax",%progbits
 1009              		.align	2
 1010              		.global	chSchRescheduleS
 1011              		.syntax unified
 1012              		.arm
 1013              		.fpu softvfp
 1014              		.type	chSchRescheduleS, %function
 1015              	chSchRescheduleS:
 1016              	.LFB13:
 1017              		.loc 1 246 29 is_stmt 1 view -0
 1018              		.cfi_startproc
 1019              		@ args = 0, pretend = 0, frame = 0
 1020              		@ frame_needed = 0, uses_anonymous_args = 0
 1021              		@ link register save eliminated.
 1022              		.loc 1 248 3 view .LVU353
 1023              		.loc 1 248 21 view .LVU354
 1024              		.loc 1 250 3 view .LVU355
 1025              		.loc 1 250 7 is_stmt 0 view .LVU356
 1026 0000 18309FE5 		ldr	r3, .L66
ARM GAS  /var/folders/l5/0x54b2c10074c8bt31ycjvl80000gp/T//ccF3aQLQ.s 			page 19


 1027 0004 002093E5 		ldr	r2, [r3]
 1028 0008 183093E5 		ldr	r3, [r3, #24]
 1029              		.loc 1 250 6 view .LVU357
 1030 000c 082092E5 		ldr	r2, [r2, #8]
 1031 0010 083093E5 		ldr	r3, [r3, #8]
 1032 0014 030052E1 		cmp	r2, r3
 1033 0018 1EFF2F91 		bxls	lr
 1034              		.loc 1 251 5 is_stmt 1 view .LVU358
 1035 001c FEFFFFEA 		b	chSchDoRescheduleAhead
 1036              	.LVL59:
 1037              	.L67:
 1038              		.align	2
 1039              	.L66:
 1040 0020 00000000 		.word	rlist
 1041              		.cfi_endproc
 1042              	.LFE13:
 1043              		.size	chSchRescheduleS, .-chSchRescheduleS
 1044              		.section	.text.chSchDoReschedule,"ax",%progbits
 1045              		.align	2
 1046              		.global	chSchDoReschedule
 1047              		.syntax unified
 1048              		.arm
 1049              		.fpu softvfp
 1050              		.type	chSchDoReschedule, %function
 1051              	chSchDoReschedule:
 1052              	.LFB17:
 1053              		.loc 1 355 30 view -0
 1054              		.cfi_startproc
 1055              		@ args = 0, pretend = 0, frame = 0
 1056              		@ frame_needed = 0, uses_anonymous_args = 0
 1057              		@ link register save eliminated.
 1058              		.loc 1 360 3 view .LVU360
 1059              		.loc 1 360 7 is_stmt 0 view .LVU361
 1060 0000 14309FE5 		ldr	r3, .L70
 1061              		.loc 1 360 12 view .LVU362
 1062 0004 183093E5 		ldr	r3, [r3, #24]
 1063              		.loc 1 360 6 view .LVU363
 1064 0008 1F30D3E5 		ldrb	r3, [r3, #31]	@ zero_extendqisi2
 1065 000c 000053E3 		cmp	r3, #0
 1066 0010 0000001A 		bne	.L69
 1067              		.loc 1 363 5 is_stmt 1 view .LVU364
 1068 0014 FEFFFFEA 		b	chSchDoRescheduleBehind
 1069              	.LVL60:
 1070              	.L69:
 1071              		.loc 1 368 5 view .LVU365
 1072 0018 FEFFFFEA 		b	chSchDoRescheduleAhead
 1073              	.LVL61:
 1074              	.L71:
 1075              		.align	2
 1076              	.L70:
 1077 001c 00000000 		.word	rlist
 1078              		.cfi_endproc
 1079              	.LFE17:
 1080              		.size	chSchDoReschedule, .-chSchDoReschedule
 1081              		.comm	rlist,28,4
 1082              		.text
 1083              	.Letext0:
ARM GAS  /var/folders/l5/0x54b2c10074c8bt31ycjvl80000gp/T//ccF3aQLQ.s 			page 20


 1084              		.file 3 "/usr/local/Cellar/arm-gcc-bin/8-2019-q3-update/arm-none-eabi/include/machine/_default_typ
 1085              		.file 4 "/usr/local/Cellar/arm-gcc-bin/8-2019-q3-update/arm-none-eabi/include/sys/_stdint.h"
 1086              		.file 5 "../../os/ports/GCC/ARM/chtypes.h"
 1087              		.file 6 "../../os/kernel/include/chlists.h"
 1088              		.file 7 "../../os/kernel/include/chthreads.h"
 1089              		.file 8 "../../os/ports/GCC/ARM/chcore.h"
 1090              		.file 9 "../../os/kernel/include/chvt.h"
 1091              		.file 10 "../../os/kernel/include/chschd.h"
 1092              		.file 11 "../../os/kernel/include/chsem.h"
 1093              		.file 12 "../../os/kernel/include/chmtx.h"
 1094              		.file 13 "../../os/kernel/include/chregistry.h"
 1095              		.file 14 "../../os/kernel/include/ch.h"