ARM GAS  /var/folders/l5/0x54b2c10074c8bt31ycjvl80000gp/T//ccF3aQLQ.s 			page 1


   1              		.cpu arm1176jz-s
   2              		.eabi_attribute 20, 1
   3              		.eabi_attribute 21, 1
   4              		.eabi_attribute 23, 3
   5              		.eabi_attribute 24, 1
   6              		.eabi_attribute 25, 1
   7              		.eabi_attribute 26, 1
   8              		.eabi_attribute 30, 2
   9              		.eabi_attribute 34, 1
  10              		.eabi_attribute 18, 4
  11              		.file	"chschd.c"
  12              		.text
  13              	.Ltext0:
  14              		.cfi_sections	.debug_frame
  15              		.section	.text.wakeup,"ax",%progbits
  16              		.align	2
  17              		.arch armv6kz
  18              		.syntax unified
  19              		.arm
  20              		.fpu softvfp
  21              		.type	wakeup, %function
  22              	wakeup:
  23              	.LVL0:
  24              	.LFB10:
  25              		.file 1 "../../os/kernel/src/chschd.c"
  26              		.loc 1 129 29 view -0
  27              		.cfi_startproc
  28              		@ args = 0, pretend = 0, frame = 0
  29              		@ frame_needed = 0, uses_anonymous_args = 0
  30              		@ link register save eliminated.
  31              		.loc 1 130 3 view .LVU1
  32              		.loc 1 132 3 view .LVU2
  33              		.loc 1 132 3 view .LVU3
  34              		.loc 1 132 21 view .LVU4
  35              		.loc 1 133 3 view .LVU5
  36 0000 1C30D0E5 		ldrb	r3, [r0, #28]	@ zero_extendqisi2
  37 0004 0D0053E3 		cmp	r3, #13
  38 0008 03F19F97 		ldrls	pc, [pc, r3, asl #2]
  39 000c 150000EA 		b	.L2
  40              	.L4:
  41 0010 A8000000 		.word	.L1
  42 0014 68000000 		.word	.L2
  43 0018 68000000 		.word	.L2
  44 001c 48000000 		.word	.L5
  45 0020 68000000 		.word	.L2
  46 0024 58000000 		.word	.L3
  47 0028 68000000 		.word	.L2
  48 002c 68000000 		.word	.L2
  49 0030 68000000 		.word	.L2
  50 0034 68000000 		.word	.L2
  51 0038 68000000 		.word	.L2
  52 003c 68000000 		.word	.L2
  53 0040 68000000 		.word	.L2
  54 0044 58000000 		.word	.L3
  55              	.L5:
  56              		.loc 1 143 5 view .LVU6
  57 0048 242090E5 		ldr	r2, [r0, #36]
ARM GAS  /var/folders/l5/0x54b2c10074c8bt31ycjvl80000gp/T//ccF3aQLQ.s 			page 2


  58 004c 083092E5 		ldr	r3, [r2, #8]
  59 0050 013083E2 		add	r3, r3, #1
  60 0054 083082E5 		str	r3, [r2, #8]
  61              	.L3:
  62              		.loc 1 153 5 view .LVU7
  63              	.LVL1:
  64              	.LBB33:
  65              	.LBI33:
  66              		.file 2 "../../os/kernel/include/chinline.h"
  67              		.loc 2 66 23 view .LVU8
  68              	.LBB34:
  69              		.loc 2 68 3 view .LVU9
  70              		.loc 2 68 5 is_stmt 0 view .LVU10
  71 0058 042090E5 		ldr	r2, [r0, #4]
  72              		.loc 2 68 26 view .LVU11
  73 005c 003090E5 		ldr	r3, [r0]
  74              		.loc 2 68 22 view .LVU12
  75 0060 003082E5 		str	r3, [r2]
  76              		.loc 2 69 3 is_stmt 1 view .LVU13
  77              		.loc 2 69 22 is_stmt 0 view .LVU14
  78 0064 042083E5 		str	r2, [r3, #4]
  79              		.loc 2 70 3 is_stmt 1 view .LVU15
  80              	.LVL2:
  81              	.L2:
  82              		.loc 2 70 3 is_stmt 0 view .LVU16
  83              	.LBE34:
  84              	.LBE33:
  85              		.loc 1 156 3 is_stmt 1 view .LVU17
  86              		.loc 1 156 18 is_stmt 0 view .LVU18
  87 0068 00C0E0E3 		mvn	ip, #0
  88              	.LBB35:
  89              	.LBB36:
  90              		.loc 1 85 15 view .LVU19
  91 006c 0020A0E3 		mov	r2, #0
  92              	.LBE36:
  93              	.LBE35:
  94              	.LBB38:
  95              	.LBB39:
  96              	.LBB40:
  97              	.LBB41:
  98              		.loc 1 89 28 view .LVU20
  99 0070 081090E5 		ldr	r1, [r0, #8]
 100              		.loc 1 86 6 view .LVU21
 101 0074 30309FE5 		ldr	r3, .L10
 102              	.LBE41:
 103              	.LBE40:
 104              	.LBE39:
 105              	.LBE38:
 106              		.loc 1 156 18 view .LVU22
 107 0078 24C080E5 		str	ip, [r0, #36]
 108              		.loc 1 157 3 is_stmt 1 view .LVU23
 109              	.LVL3:
 110              	.LBB45:
 111              	.LBI35:
 112              		.loc 1 74 9 view .LVU24
 113              	.LBB37:
 114              		.loc 1 75 3 view .LVU25
ARM GAS  /var/folders/l5/0x54b2c10074c8bt31ycjvl80000gp/T//ccF3aQLQ.s 			page 3


 115              		.loc 1 77 3 view .LVU26
 116              		.loc 1 77 21 view .LVU27
 117              		.loc 1 80 3 view .LVU28
 118              		.loc 1 83 31 view .LVU29
 119              		.loc 1 85 3 view .LVU30
 120              		.loc 1 85 15 is_stmt 0 view .LVU31
 121 007c 1C20C0E5 		strb	r2, [r0, #28]
 122              		.loc 1 86 3 is_stmt 1 view .LVU32
 123              	.LVL4:
 124              		.loc 1 86 3 is_stmt 0 view .LVU33
 125              	.LBE37:
 126              	.LBE45:
 127              	.LBB46:
 128              	.LBI38:
 129              		.loc 1 129 13 is_stmt 1 view .LVU34
 130              	.L7:
 131              	.LBB44:
 132              	.LBB43:
 133              	.LBB42:
 134              		.loc 1 87 3 view .LVU35
 135              		.loc 1 88 5 view .LVU36
 136              		.loc 1 88 8 is_stmt 0 view .LVU37
 137 0080 003093E5 		ldr	r3, [r3]
 138              	.LVL5:
 139              		.loc 1 89 3 view .LVU38
 140 0084 082093E5 		ldr	r2, [r3, #8]
 141 0088 010052E1 		cmp	r2, r1
 142 008c FBFFFF2A 		bcs	.L7
 143              		.loc 1 91 3 is_stmt 1 view .LVU39
 144              		.loc 1 92 18 is_stmt 0 view .LVU40
 145 0090 042093E5 		ldr	r2, [r3, #4]
 146              		.loc 1 91 14 view .LVU41
 147 0094 003080E5 		str	r3, [r0]
 148              		.loc 1 92 3 is_stmt 1 view .LVU42
 149              		.loc 1 92 14 is_stmt 0 view .LVU43
 150 0098 042080E5 		str	r2, [r0, #4]
 151              		.loc 1 93 3 is_stmt 1 view .LVU44
 152              		.loc 1 93 35 is_stmt 0 view .LVU45
 153 009c 040083E5 		str	r0, [r3, #4]
 154              		.loc 1 93 22 view .LVU46
 155 00a0 043090E5 		ldr	r3, [r0, #4]
 156              	.LVL6:
 157              		.loc 1 93 22 view .LVU47
 158 00a4 000083E5 		str	r0, [r3]
 159              	.LVL7:
 160              		.loc 1 94 3 is_stmt 1 view .LVU48
 161              	.LBE42:
 162              	.LBE43:
 163              		.loc 1 158 3 view .LVU49
 164              		.loc 1 158 3 view .LVU50
 165              		.loc 1 158 23 view .LVU51
 166              	.LBE44:
 167              	.LBE46:
 168              		.loc 1 158 3 view .LVU52
 169              		.loc 1 158 3 view .LVU53
 170              		.loc 1 158 23 view .LVU54
 171              	.L1:
ARM GAS  /var/folders/l5/0x54b2c10074c8bt31ycjvl80000gp/T//ccF3aQLQ.s 			page 4


 172              		.loc 1 159 1 is_stmt 0 view .LVU55
 173 00a8 1EFF2FE1 		bx	lr
 174              	.L11:
 175              		.align	2
 176              	.L10:
 177 00ac 00000000 		.word	rlist
 178              		.cfi_endproc
 179              	.LFE10:
 180              		.size	wakeup, .-wakeup
 181              		.section	.text._scheduler_init,"ax",%progbits
 182              		.align	2
 183              		.global	_scheduler_init
 184              		.syntax unified
 185              		.arm
 186              		.fpu softvfp
 187              		.type	_scheduler_init, %function
 188              	_scheduler_init:
 189              	.LFB7:
 190              		.loc 1 48 28 is_stmt 1 view -0
 191              		.cfi_startproc
 192              		@ args = 0, pretend = 0, frame = 0
 193              		@ frame_needed = 0, uses_anonymous_args = 0
 194              		@ link register save eliminated.
 195              		.loc 1 50 3 view .LVU57
 196              		.loc 1 51 16 is_stmt 0 view .LVU58
 197 0000 0020A0E3 		mov	r2, #0
 198              		.loc 1 50 3 view .LVU59
 199 0004 14309FE5 		ldr	r3, .L13
 200              		.loc 1 51 16 view .LVU60
 201 0008 082083E5 		str	r2, [r3, #8]
 202              		.loc 1 50 3 view .LVU61
 203 000c 043083E5 		str	r3, [r3, #4]
 204 0010 003083E5 		str	r3, [r3]
 205              		.loc 1 50 29 is_stmt 1 view .LVU62
 206              		.loc 1 51 3 view .LVU63
 207              		.loc 1 53 3 view .LVU64
 208              		.loc 1 53 33 is_stmt 0 view .LVU65
 209 0014 143083E5 		str	r3, [r3, #20]
 210              		.loc 1 53 17 view .LVU66
 211 0018 103083E5 		str	r3, [r3, #16]
 212              		.loc 1 55 1 view .LVU67
 213 001c 1EFF2FE1 		bx	lr
 214              	.L14:
 215              		.align	2
 216              	.L13:
 217 0020 00000000 		.word	rlist
 218              		.cfi_endproc
 219              	.LFE7:
 220              		.size	_scheduler_init, .-_scheduler_init
 221              		.section	.text.chSchReadyI,"ax",%progbits
 222              		.align	2
 223              		.global	chSchReadyI
 224              		.syntax unified
 225              		.arm
 226              		.fpu softvfp
 227              		.type	chSchReadyI, %function
 228              	chSchReadyI:
ARM GAS  /var/folders/l5/0x54b2c10074c8bt31ycjvl80000gp/T//ccF3aQLQ.s 			page 5


 229              	.LVL8:
 230              	.LFB8:
 231              		.loc 1 74 33 is_stmt 1 view -0
 232              		.cfi_startproc
 233              		@ args = 0, pretend = 0, frame = 0
 234              		@ frame_needed = 0, uses_anonymous_args = 0
 235              		@ link register save eliminated.
 236              		.loc 1 75 3 view .LVU69
 237              		.loc 1 77 3 view .LVU70
 238              		.loc 1 77 21 view .LVU71
 239              		.loc 1 80 3 view .LVU72
 240              		.loc 1 83 31 view .LVU73
 241              		.loc 1 85 3 view .LVU74
 242              		.loc 1 85 15 is_stmt 0 view .LVU75
 243 0000 0020A0E3 		mov	r2, #0
 244              		.loc 1 74 33 view .LVU76
 245 0004 00C0A0E1 		mov	ip, r0
 246              		.loc 1 89 28 view .LVU77
 247 0008 081090E5 		ldr	r1, [r0, #8]
 248              		.loc 1 86 6 view .LVU78
 249 000c 30309FE5 		ldr	r3, .L18
 250              		.loc 1 85 15 view .LVU79
 251 0010 1C20C0E5 		strb	r2, [r0, #28]
 252              		.loc 1 86 3 is_stmt 1 view .LVU80
 253              	.LVL9:
 254              	.L16:
 255              		.loc 1 87 3 discriminator 1 view .LVU81
 256              		.loc 1 88 5 discriminator 1 view .LVU82
 257              		.loc 1 88 8 is_stmt 0 discriminator 1 view .LVU83
 258 0014 003093E5 		ldr	r3, [r3]
 259              	.LVL10:
 260              		.loc 1 89 3 discriminator 1 view .LVU84
 261 0018 082093E5 		ldr	r2, [r3, #8]
 262 001c 010052E1 		cmp	r2, r1
 263 0020 FBFFFF2A 		bcs	.L16
 264              		.loc 1 91 3 is_stmt 1 view .LVU85
 265              		.loc 1 92 18 is_stmt 0 view .LVU86
 266 0024 042093E5 		ldr	r2, [r3, #4]
 267              		.loc 1 91 14 view .LVU87
 268 0028 00308CE5 		str	r3, [ip]
 269              		.loc 1 92 3 is_stmt 1 view .LVU88
 270              		.loc 1 92 14 is_stmt 0 view .LVU89
 271 002c 04208CE5 		str	r2, [ip, #4]
 272              		.loc 1 93 3 is_stmt 1 view .LVU90
 273              		.loc 1 93 35 is_stmt 0 view .LVU91
 274 0030 04C083E5 		str	ip, [r3, #4]
 275              		.loc 1 93 22 view .LVU92
 276 0034 04309CE5 		ldr	r3, [ip, #4]
 277              	.LVL11:
 278              		.loc 1 95 1 view .LVU93
 279 0038 0C00A0E1 		mov	r0, ip
 280              	.LVL12:
 281              		.loc 1 93 22 view .LVU94
 282 003c 00C083E5 		str	ip, [r3]
 283              	.LVL13:
 284              		.loc 1 94 3 is_stmt 1 view .LVU95
 285              		.loc 1 95 1 is_stmt 0 view .LVU96
ARM GAS  /var/folders/l5/0x54b2c10074c8bt31ycjvl80000gp/T//ccF3aQLQ.s 			page 6


 286 0040 1EFF2FE1 		bx	lr
 287              	.L19:
 288              		.align	2
 289              	.L18:
 290 0044 00000000 		.word	rlist
 291              		.cfi_endproc
 292              	.LFE8:
 293              		.size	chSchReadyI, .-chSchReadyI
 294              		.section	.text.chSchGoSleepS,"ax",%progbits
 295              		.align	2
 296              		.global	chSchGoSleepS
 297              		.syntax unified
 298              		.arm
 299              		.fpu softvfp
 300              		.type	chSchGoSleepS, %function
 301              	chSchGoSleepS:
 302              	.LVL14:
 303              	.LFB9:
 304              		.loc 1 108 39 is_stmt 1 view -0
 305              		.cfi_startproc
 306              		@ args = 0, pretend = 0, frame = 0
 307              		@ frame_needed = 0, uses_anonymous_args = 0
 308              		.loc 1 109 3 view .LVU98
 309              		.loc 1 111 3 view .LVU99
 310              		.loc 1 111 21 view .LVU100
 311              		.loc 1 113 3 view .LVU101
 312              		.loc 1 117 18 is_stmt 0 view .LVU102
 313 0000 14C0A0E3 		mov	ip, #20
 314              		.loc 1 108 39 view .LVU103
 315 0004 04E02DE5 		str	lr, [sp, #-4]!
 316              		.cfi_def_cfa_offset 4
 317              		.cfi_offset 14, -4
 318              		.loc 1 120 18 view .LVU104
 319 0008 01E0A0E3 		mov	lr, #1
 320              		.loc 1 113 8 view .LVU105
 321 000c 2C309FE5 		ldr	r3, .L22
 322 0010 181093E5 		ldr	r1, [r3, #24]
 323              	.LVL15:
 324              	.LBB47:
 325              	.LBB48:
 326              		.loc 2 53 11 view .LVU106
 327 0014 002093E5 		ldr	r2, [r3]
 328              	.LBE48:
 329              	.LBE47:
 330              		.loc 1 113 26 view .LVU107
 331 0018 1C00C1E5 		strb	r0, [r1, #28]
 332              		.loc 1 117 3 is_stmt 1 view .LVU108
 333              		.loc 1 117 18 is_stmt 0 view .LVU109
 334 001c 1FC0C1E5 		strb	ip, [r1, #31]
 335              		.loc 1 119 3 is_stmt 1 view .LVU110
 336              	.LVL16:
 337              	.LBB52:
 338              	.LBI47:
 339              		.loc 2 52 23 view .LVU111
 340              	.LBB49:
 341              		.loc 2 53 3 view .LVU112
 342              		.loc 2 55 3 view .LVU113
ARM GAS  /var/folders/l5/0x54b2c10074c8bt31ycjvl80000gp/T//ccF3aQLQ.s 			page 7


 343              		.loc 2 55 20 is_stmt 0 view .LVU114
 344 0020 00C092E5 		ldr	ip, [r2]
 345              	.LBE49:
 346              	.LBE52:
 347              		.loc 1 121 3 view .LVU115
 348 0024 0200A0E1 		mov	r0, r2
 349              	.LVL17:
 350              	.LBB53:
 351              	.LBB50:
 352              		.loc 2 55 38 view .LVU116
 353 0028 04308CE5 		str	r3, [ip, #4]
 354              	.LVL18:
 355              		.loc 2 56 3 is_stmt 1 view .LVU117
 356              		.loc 2 56 3 is_stmt 0 view .LVU118
 357              	.LBE50:
 358              	.LBE53:
 359              		.loc 1 120 18 view .LVU119
 360 002c 1CE0C2E5 		strb	lr, [r2, #28]
 361              	.LBB54:
 362              	.LBB51:
 363              		.loc 2 55 16 view .LVU120
 364 0030 00C083E5 		str	ip, [r3]
 365              	.LBE51:
 366              	.LBE54:
 367              		.loc 1 122 1 view .LVU121
 368 0034 04E09DE4 		ldr	lr, [sp], #4
 369              		.cfi_restore 14
 370              		.cfi_def_cfa_offset 0
 371              		.loc 1 119 3 view .LVU122
 372 0038 182083E5 		str	r2, [r3, #24]
 373              		.loc 1 120 3 is_stmt 1 view .LVU123
 374              		.loc 1 121 3 view .LVU124
 375              		.loc 1 121 3 view .LVU125
 376              		.loc 1 121 3 view .LVU126
 377              		.loc 1 121 3 view .LVU127
 378 003c FEFFFFEA 		b	_port_switch_arm
 379              	.LVL19:
 380              	.L23:
 381              		.loc 1 121 3 is_stmt 0 view .LVU128
 382              		.align	2
 383              	.L22:
 384 0040 00000000 		.word	rlist
 385              		.cfi_endproc
 386              	.LFE9:
 387              		.size	chSchGoSleepS, .-chSchGoSleepS
 388              		.section	.text.chSchGoSleepTimeoutS,"ax",%progbits
 389              		.align	2
 390              		.global	chSchGoSleepTimeoutS
 391              		.syntax unified
 392              		.arm
 393              		.fpu softvfp
 394              		.type	chSchGoSleepTimeoutS, %function
 395              	chSchGoSleepTimeoutS:
 396              	.LVL20:
 397              	.LFB11:
 398              		.loc 1 182 63 is_stmt 1 view -0
 399              		.cfi_startproc
ARM GAS  /var/folders/l5/0x54b2c10074c8bt31ycjvl80000gp/T//ccF3aQLQ.s 			page 8


 400              		@ args = 0, pretend = 0, frame = 24
 401              		@ frame_needed = 0, uses_anonymous_args = 0
 402              		.loc 1 184 3 view .LVU130
 403              		.loc 1 184 21 view .LVU131
 404              		.loc 1 186 3 view .LVU132
 405              		.loc 1 182 63 is_stmt 0 view .LVU133
 406 0000 30402DE9 		push	{r4, r5, lr}
 407              		.cfi_def_cfa_offset 12
 408              		.cfi_offset 4, -12
 409              		.cfi_offset 5, -8
 410              		.cfi_offset 14, -4
 411              		.loc 1 186 6 view .LVU134
 412 0004 010071E3 		cmn	r1, #1
 413              		.loc 1 182 63 view .LVU135
 414 0008 1CD04DE2 		sub	sp, sp, #28
 415              		.cfi_def_cfa_offset 40
 416              		.loc 1 186 6 view .LVU136
 417 000c 1000000A 		beq	.L25
 418              	.LBB55:
 419              		.loc 1 187 5 is_stmt 1 view .LVU137
 420              		.loc 1 189 5 view .LVU138
 421 0010 0050A0E1 		mov	r5, r0
 422              		.loc 1 189 33 is_stmt 0 view .LVU139
 423 0014 50409FE5 		ldr	r4, .L32
 424              		.loc 1 189 5 view .LVU140
 425 0018 04008DE2 		add	r0, sp, #4
 426              	.LVL21:
 427              		.loc 1 189 5 view .LVU141
 428 001c 183094E5 		ldr	r3, [r4, #24]
 429 0020 48209FE5 		ldr	r2, .L32+4
 430 0024 FEFFFFEB 		bl	chVTSetI
 431              	.LVL22:
 432              		.loc 1 190 5 is_stmt 1 view .LVU142
 433 0028 0500A0E1 		mov	r0, r5
 434 002c FEFFFFEB 		bl	chSchGoSleepS
 435              	.LVL23:
 436              		.loc 1 191 5 view .LVU143
 437              		.loc 1 191 8 is_stmt 0 view .LVU144
 438 0030 10309DE5 		ldr	r3, [sp, #16]
 439 0034 000053E3 		cmp	r3, #0
 440 0038 0100000A 		beq	.L27
 441              		.loc 1 192 7 is_stmt 1 view .LVU145
 442 003c 04008DE2 		add	r0, sp, #4
 443 0040 FEFFFFEB 		bl	chVTResetI
 444              	.LVL24:
 445              	.L27:
 446              	.LBE55:
 447              		.loc 1 196 3 view .LVU146
 448              		.loc 1 196 20 is_stmt 0 view .LVU147
 449 0044 183094E5 		ldr	r3, [r4, #24]
 450              		.loc 1 197 1 view .LVU148
 451 0048 240093E5 		ldr	r0, [r3, #36]
 452 004c 1CD08DE2 		add	sp, sp, #28
 453              		.cfi_remember_state
 454              		.cfi_def_cfa_offset 12
 455              		@ sp needed
 456 0050 3080BDE8 		pop	{r4, r5, pc}
ARM GAS  /var/folders/l5/0x54b2c10074c8bt31ycjvl80000gp/T//ccF3aQLQ.s 			page 9


 457              	.LVL25:
 458              	.L25:
 459              		.cfi_restore_state
 460              		.loc 1 195 5 is_stmt 1 view .LVU149
 461 0054 FEFFFFEB 		bl	chSchGoSleepS
 462              	.LVL26:
 463              		.loc 1 195 5 is_stmt 0 view .LVU150
 464 0058 0C409FE5 		ldr	r4, .L32
 465              		.loc 1 196 3 is_stmt 1 view .LVU151
 466              		.loc 1 196 20 is_stmt 0 view .LVU152
 467 005c 183094E5 		ldr	r3, [r4, #24]
 468              		.loc 1 197 1 view .LVU153
 469 0060 240093E5 		ldr	r0, [r3, #36]
 470 0064 1CD08DE2 		add	sp, sp, #28
 471              		.cfi_def_cfa_offset 12
 472              		@ sp needed
 473 0068 3080BDE8 		pop	{r4, r5, pc}
 474              	.L33:
 475              		.align	2
 476              	.L32:
 477 006c 00000000 		.word	rlist
 478 0070 00000000 		.word	wakeup
 479              		.cfi_endproc
 480              	.LFE11:
 481              		.size	chSchGoSleepTimeoutS, .-chSchGoSleepTimeoutS
 482              		.section	.text.chSchWakeupS,"ax",%progbits
 483              		.align	2
 484              		.global	chSchWakeupS
 485              		.syntax unified
 486              		.arm
 487              		.fpu softvfp
 488              		.type	chSchWakeupS, %function
 489              	chSchWakeupS:
 490              	.LVL27:
 491              	.LFB12:
 492              		.loc 1 218 43 is_stmt 1 view -0
 493              		.cfi_startproc
 494              		@ args = 0, pretend = 0, frame = 0
 495              		@ frame_needed = 0, uses_anonymous_args = 0
 496              		.loc 1 220 3 view .LVU155
 497              		.loc 1 220 21 view .LVU156
 498              		.loc 1 222 3 view .LVU157
 499              		.loc 1 227 22 is_stmt 0 view .LVU158
 500 0000 A0309FE5 		ldr	r3, .L43
 501              		.loc 1 218 43 view .LVU159
 502 0004 10402DE9 		push	{r4, lr}
 503              		.cfi_def_cfa_offset 8
 504              		.cfi_offset 4, -8
 505              		.cfi_offset 14, -4
 506              		.loc 1 227 22 view .LVU160
 507 0008 184093E5 		ldr	r4, [r3, #24]
 508              		.loc 1 227 10 view .LVU161
 509 000c 08E090E5 		ldr	lr, [r0, #8]
 510              		.loc 1 218 43 view .LVU162
 511 0010 00C0A0E1 		mov	ip, r0
 512              		.loc 1 222 19 view .LVU163
 513 0014 241080E5 		str	r1, [r0, #36]
ARM GAS  /var/folders/l5/0x54b2c10074c8bt31ycjvl80000gp/T//ccF3aQLQ.s 			page 10


 514              		.loc 1 227 3 is_stmt 1 view .LVU164
 515              		.loc 1 227 27 is_stmt 0 view .LVU165
 516 0018 080094E5 		ldr	r0, [r4, #8]
 517              	.LVL28:
 518              		.loc 1 227 6 view .LVU166
 519 001c 00005EE1 		cmp	lr, r0
 520 0020 0C00008A 		bhi	.L35
 521              		.loc 1 228 5 is_stmt 1 view .LVU167
 522              	.LVL29:
 523              	.LBB56:
 524              	.LBI56:
 525              		.loc 1 74 9 view .LVU168
 526              	.LBB57:
 527              		.loc 1 75 3 view .LVU169
 528              		.loc 1 77 3 view .LVU170
 529              		.loc 1 77 21 view .LVU171
 530              		.loc 1 80 3 view .LVU172
 531              		.loc 1 83 31 view .LVU173
 532              		.loc 1 85 3 view .LVU174
 533              		.loc 1 85 15 is_stmt 0 view .LVU175
 534 0024 0020A0E3 		mov	r2, #0
 535 0028 1C20CCE5 		strb	r2, [ip, #28]
 536              		.loc 1 86 3 is_stmt 1 view .LVU176
 537              	.LVL30:
 538              	.L36:
 539              		.loc 1 87 3 view .LVU177
 540              		.loc 1 88 5 view .LVU178
 541              		.loc 1 88 8 is_stmt 0 view .LVU179
 542 002c 003093E5 		ldr	r3, [r3]
 543              	.LVL31:
 544              		.loc 1 89 3 view .LVU180
 545 0030 082093E5 		ldr	r2, [r3, #8]
 546 0034 02005EE1 		cmp	lr, r2
 547 0038 FBFFFF9A 		bls	.L36
 548              		.loc 1 91 3 is_stmt 1 view .LVU181
 549              		.loc 1 92 18 is_stmt 0 view .LVU182
 550 003c 042093E5 		ldr	r2, [r3, #4]
 551              		.loc 1 91 14 view .LVU183
 552 0040 00308CE5 		str	r3, [ip]
 553              		.loc 1 92 3 is_stmt 1 view .LVU184
 554              		.loc 1 92 14 is_stmt 0 view .LVU185
 555 0044 04208CE5 		str	r2, [ip, #4]
 556              		.loc 1 93 3 is_stmt 1 view .LVU186
 557              		.loc 1 93 35 is_stmt 0 view .LVU187
 558 0048 04C083E5 		str	ip, [r3, #4]
 559              		.loc 1 93 22 view .LVU188
 560 004c 04309CE5 		ldr	r3, [ip, #4]
 561              	.LVL32:
 562              		.loc 1 93 22 view .LVU189
 563 0050 00C083E5 		str	ip, [r3]
 564              	.LVL33:
 565              		.loc 1 94 3 is_stmt 1 view .LVU190
 566              	.LBE57:
 567              	.LBE56:
 568              		.loc 1 235 1 is_stmt 0 view .LVU191
 569 0054 1080BDE8 		pop	{r4, pc}
 570              	.LVL34:
ARM GAS  /var/folders/l5/0x54b2c10074c8bt31ycjvl80000gp/T//ccF3aQLQ.s 			page 11


 571              	.L35:
 572              	.LBB58:
 573              		.loc 1 230 5 is_stmt 1 view .LVU192
 574              	.LBB59:
 575              	.LBI59:
 576              		.loc 1 74 9 view .LVU193
 577              	.LBB60:
 578              		.loc 1 75 3 view .LVU194
 579              		.loc 1 77 3 view .LVU195
 580              		.loc 1 77 21 view .LVU196
 581              		.loc 1 80 3 view .LVU197
 582              		.loc 1 83 31 view .LVU198
 583              		.loc 1 85 3 view .LVU199
 584              		.loc 1 85 15 is_stmt 0 view .LVU200
 585 0058 0010A0E3 		mov	r1, #0
 586              	.LVL35:
 587              		.loc 1 86 6 view .LVU201
 588 005c 0320A0E1 		mov	r2, r3
 589              		.loc 1 85 15 view .LVU202
 590 0060 1C10C4E5 		strb	r1, [r4, #28]
 591              	.LVL36:
 592              		.loc 1 86 3 is_stmt 1 view .LVU203
 593              	.L38:
 594              		.loc 1 87 3 view .LVU204
 595              		.loc 1 88 5 view .LVU205
 596              		.loc 1 88 8 is_stmt 0 view .LVU206
 597 0064 002092E5 		ldr	r2, [r2]
 598              	.LVL37:
 599              		.loc 1 89 3 view .LVU207
 600 0068 081092E5 		ldr	r1, [r2, #8]
 601 006c 010050E1 		cmp	r0, r1
 602 0070 FBFFFF9A 		bls	.L38
 603              		.loc 1 91 3 is_stmt 1 view .LVU208
 604              	.LBE60:
 605              	.LBE59:
 606              		.loc 1 232 18 is_stmt 0 view .LVU209
 607 0074 01E0A0E3 		mov	lr, #1
 608              	.LBB63:
 609              	.LBB61:
 610              		.loc 1 92 18 view .LVU210
 611 0078 041092E5 		ldr	r1, [r2, #4]
 612              		.loc 1 91 14 view .LVU211
 613 007c 002084E5 		str	r2, [r4]
 614              		.loc 1 92 3 is_stmt 1 view .LVU212
 615              		.loc 1 92 14 is_stmt 0 view .LVU213
 616 0080 041084E5 		str	r1, [r4, #4]
 617              		.loc 1 93 3 is_stmt 1 view .LVU214
 618              		.loc 1 93 35 is_stmt 0 view .LVU215
 619 0084 044082E5 		str	r4, [r2, #4]
 620              		.loc 1 93 22 view .LVU216
 621 0088 042094E5 		ldr	r2, [r4, #4]
 622              	.LVL38:
 623              		.loc 1 93 22 view .LVU217
 624              	.LBE61:
 625              	.LBE63:
 626              		.loc 1 233 5 view .LVU218
 627 008c 0410A0E1 		mov	r1, r4
ARM GAS  /var/folders/l5/0x54b2c10074c8bt31ycjvl80000gp/T//ccF3aQLQ.s 			page 12


 628              	.LBB64:
 629              	.LBB62:
 630              		.loc 1 93 22 view .LVU219
 631 0090 004082E5 		str	r4, [r2]
 632              	.LVL39:
 633              		.loc 1 94 3 is_stmt 1 view .LVU220
 634              		.loc 1 94 3 is_stmt 0 view .LVU221
 635              	.LBE62:
 636              	.LBE64:
 637              		.loc 1 231 5 is_stmt 1 view .LVU222
 638              		.loc 1 232 18 is_stmt 0 view .LVU223
 639 0094 1CE0CCE5 		strb	lr, [ip, #28]
 640              		.loc 1 233 5 view .LVU224
 641 0098 0C00A0E1 		mov	r0, ip
 642              	.LBE58:
 643              		.loc 1 235 1 view .LVU225
 644 009c 1040BDE8 		pop	{r4, lr}
 645              		.cfi_restore 14
 646              		.cfi_restore 4
 647              		.cfi_def_cfa_offset 0
 648              	.LVL40:
 649              	.LBB65:
 650              		.loc 1 231 5 view .LVU226
 651 00a0 18C083E5 		str	ip, [r3, #24]
 652              		.loc 1 232 5 is_stmt 1 view .LVU227
 653              		.loc 1 233 5 view .LVU228
 654              		.loc 1 233 5 view .LVU229
 655              		.loc 1 233 5 view .LVU230
 656              		.loc 1 233 5 view .LVU231
 657 00a4 FEFFFFEA 		b	_port_switch_arm
 658              	.LVL41:
 659              	.L44:
 660              		.loc 1 233 5 is_stmt 0 view .LVU232
 661              		.align	2
 662              	.L43:
 663 00a8 00000000 		.word	rlist
 664              	.LBE65:
 665              		.cfi_endproc
 666              	.LFE12:
 667              		.size	chSchWakeupS, .-chSchWakeupS
 668              		.section	.text.chSchIsPreemptionRequired,"ax",%progbits
 669              		.align	2
 670              		.global	chSchIsPreemptionRequired
 671              		.syntax unified
 672              		.arm
 673              		.fpu softvfp
 674              		.type	chSchIsPreemptionRequired, %function
 675              	chSchIsPreemptionRequired:
 676              	.LFB14:
 677              		.loc 1 269 40 is_stmt 1 view -0
 678              		.cfi_startproc
 679              		@ args = 0, pretend = 0, frame = 0
 680              		@ frame_needed = 0, uses_anonymous_args = 0
 681              		@ link register save eliminated.
 682              		.loc 1 270 3 view .LVU234
 683              		.loc 1 270 16 is_stmt 0 view .LVU235
 684 0000 38209FE5 		ldr	r2, .L48
ARM GAS  /var/folders/l5/0x54b2c10074c8bt31ycjvl80000gp/T//ccF3aQLQ.s 			page 13


 685              		.loc 1 271 16 view .LVU236
 686 0004 183092E5 		ldr	r3, [r2, #24]
 687              		.loc 1 270 11 view .LVU237
 688 0008 001092E5 		ldr	r1, [r2]
 689              		.loc 1 277 37 view .LVU238
 690 000c 1F20D3E5 		ldrb	r2, [r3, #31]	@ zero_extendqisi2
 691              		.loc 1 270 11 view .LVU239
 692 0010 080091E5 		ldr	r0, [r1, #8]
 693              	.LVL42:
 694              		.loc 1 271 3 is_stmt 1 view .LVU240
 695              		.loc 1 277 37 is_stmt 0 view .LVU241
 696 0014 000052E3 		cmp	r2, #0
 697              		.loc 1 271 11 view .LVU242
 698 0018 083093E5 		ldr	r3, [r3, #8]
 699              	.LVL43:
 700              		.loc 1 277 3 is_stmt 1 view .LVU243
 701              		.loc 1 277 37 is_stmt 0 view .LVU244
 702 001c 0300000A 		beq	.L46
 703              		.loc 1 277 32 discriminator 1 view .LVU245
 704 0020 030050E1 		cmp	r0, r3
 705 0024 0000A093 		movls	r0, #0
 706              	.LVL44:
 707              		.loc 1 277 32 discriminator 1 view .LVU246
 708 0028 0100A083 		movhi	r0, #1
 709 002c 1EFF2FE1 		bx	lr
 710              	.LVL45:
 711              	.L46:
 712              		.loc 1 277 42 discriminator 2 view .LVU247
 713 0030 030050E1 		cmp	r0, r3
 714 0034 0000A033 		movcc	r0, #0
 715              	.LVL46:
 716              		.loc 1 277 42 discriminator 2 view .LVU248
 717 0038 0100A023 		movcs	r0, #1
 718              		.loc 1 283 1 discriminator 2 view .LVU249
 719 003c 1EFF2FE1 		bx	lr
 720              	.L49:
 721              		.align	2
 722              	.L48:
 723 0040 00000000 		.word	rlist
 724              		.cfi_endproc
 725              	.LFE14:
 726              		.size	chSchIsPreemptionRequired, .-chSchIsPreemptionRequired
 727              		.section	.text.chSchDoRescheduleBehind,"ax",%progbits
 728              		.align	2
 729              		.global	chSchDoRescheduleBehind
 730              		.syntax unified
 731              		.arm
 732              		.fpu softvfp
 733              		.type	chSchDoRescheduleBehind, %function
 734              	chSchDoRescheduleBehind:
 735              	.LFB15:
 736              		.loc 1 297 36 is_stmt 1 view -0
 737              		.cfi_startproc
 738              		@ args = 0, pretend = 0, frame = 0
 739              		@ frame_needed = 0, uses_anonymous_args = 0
 740              		.loc 1 298 3 view .LVU251
 741              		.loc 1 300 3 view .LVU252
ARM GAS  /var/folders/l5/0x54b2c10074c8bt31ycjvl80000gp/T//ccF3aQLQ.s 			page 14


 742              		.loc 1 297 36 is_stmt 0 view .LVU253
 743 0000 30402DE9 		push	{r4, r5, lr}
 744              		.cfi_def_cfa_offset 12
 745              		.cfi_offset 4, -12
 746              		.cfi_offset 5, -8
 747              		.cfi_offset 14, -4
 748              		.loc 1 303 18 view .LVU254
 749 0004 0150A0E3 		mov	r5, #1
 750              		.loc 1 305 18 view .LVU255
 751 0008 1440A0E3 		mov	r4, #20
 752              	.LBB66:
 753              	.LBB67:
 754              		.loc 1 85 15 view .LVU256
 755 000c 00E0A0E3 		mov	lr, #0
 756              	.LBE67:
 757              	.LBE66:
 758              		.loc 1 300 7 view .LVU257
 759 0010 5C209FE5 		ldr	r2, .L55
 760              	.LBB72:
 761              	.LBB73:
 762              		.loc 2 53 11 view .LVU258
 763 0014 000092E5 		ldr	r0, [r2]
 764              	.LBE73:
 765              	.LBE72:
 766              		.loc 1 300 7 view .LVU259
 767 0018 181092E5 		ldr	r1, [r2, #24]
 768              	.LVL47:
 769              		.loc 1 302 3 is_stmt 1 view .LVU260
 770              	.LBB77:
 771              	.LBI72:
 772              		.loc 2 52 23 view .LVU261
 773              	.LBB74:
 774              		.loc 2 53 3 view .LVU262
 775              		.loc 2 55 3 view .LVU263
 776              		.loc 2 55 20 is_stmt 0 view .LVU264
 777 001c 00C090E5 		ldr	ip, [r0]
 778              	.LBE74:
 779              	.LBE77:
 780              	.LBB78:
 781              	.LBB68:
 782              		.loc 1 89 28 view .LVU265
 783 0020 0030A0E1 		mov	r3, r0
 784              	.LBE68:
 785              	.LBE78:
 786              	.LBB79:
 787              	.LBB75:
 788              		.loc 2 55 38 view .LVU266
 789 0024 04208CE5 		str	r2, [ip, #4]
 790              		.loc 2 56 3 is_stmt 1 view .LVU267
 791              	.LVL48:
 792              		.loc 2 56 3 is_stmt 0 view .LVU268
 793              	.LBE75:
 794              	.LBE79:
 795              		.loc 1 303 18 view .LVU269
 796 0028 1C50C0E5 		strb	r5, [r0, #28]
 797              	.LBB80:
 798              	.LBB76:
ARM GAS  /var/folders/l5/0x54b2c10074c8bt31ycjvl80000gp/T//ccF3aQLQ.s 			page 15


 799              		.loc 2 55 16 view .LVU270
 800 002c 00C082E5 		str	ip, [r2]
 801              	.LBE76:
 802              	.LBE80:
 803              		.loc 1 302 3 view .LVU271
 804 0030 180082E5 		str	r0, [r2, #24]
 805              		.loc 1 303 3 is_stmt 1 view .LVU272
 806              		.loc 1 305 3 view .LVU273
 807              	.LBB81:
 808              	.LBB69:
 809              		.loc 1 89 28 is_stmt 0 view .LVU274
 810 0034 08C091E5 		ldr	ip, [r1, #8]
 811              	.LBE69:
 812              	.LBE81:
 813              		.loc 1 305 18 view .LVU275
 814 0038 1F40C1E5 		strb	r4, [r1, #31]
 815              		.loc 1 307 3 is_stmt 1 view .LVU276
 816              	.LVL49:
 817              	.LBB82:
 818              	.LBI66:
 819              		.loc 1 74 9 view .LVU277
 820              	.LBB70:
 821              		.loc 1 75 3 view .LVU278
 822              		.loc 1 77 3 view .LVU279
 823              		.loc 1 77 21 view .LVU280
 824              		.loc 1 80 3 view .LVU281
 825              		.loc 1 83 31 view .LVU282
 826              		.loc 1 85 3 view .LVU283
 827              		.loc 1 85 15 is_stmt 0 view .LVU284
 828 003c 1CE0C1E5 		strb	lr, [r1, #28]
 829              		.loc 1 86 3 is_stmt 1 view .LVU285
 830              	.LVL50:
 831              		.loc 1 86 3 is_stmt 0 view .LVU286
 832 0040 000000EA 		b	.L52
 833              	.LVL51:
 834              	.L54:
 835              		.loc 1 86 3 view .LVU287
 836 0044 003093E5 		ldr	r3, [r3]
 837              	.L52:
 838              		.loc 1 87 3 is_stmt 1 view .LVU288
 839              		.loc 1 88 5 view .LVU289
 840              		.loc 1 89 3 is_stmt 0 view .LVU290
 841 0048 082093E5 		ldr	r2, [r3, #8]
 842 004c 0C0052E1 		cmp	r2, ip
 843 0050 FBFFFF2A 		bcs	.L54
 844              		.loc 1 91 3 is_stmt 1 view .LVU291
 845              	.LBE70:
 846              	.LBE82:
 847              		.loc 1 309 1 is_stmt 0 view .LVU292
 848 0054 3040BDE8 		pop	{r4, r5, lr}
 849              		.cfi_restore 14
 850              		.cfi_restore 5
 851              		.cfi_restore 4
 852              		.cfi_def_cfa_offset 0
 853              	.LBB83:
 854              	.LBB71:
 855              		.loc 1 92 18 view .LVU293
ARM GAS  /var/folders/l5/0x54b2c10074c8bt31ycjvl80000gp/T//ccF3aQLQ.s 			page 16


 856 0058 042093E5 		ldr	r2, [r3, #4]
 857              		.loc 1 91 14 view .LVU294
 858 005c 003081E5 		str	r3, [r1]
 859              		.loc 1 92 3 is_stmt 1 view .LVU295
 860              		.loc 1 92 14 is_stmt 0 view .LVU296
 861 0060 042081E5 		str	r2, [r1, #4]
 862              		.loc 1 93 3 is_stmt 1 view .LVU297
 863              		.loc 1 93 35 is_stmt 0 view .LVU298
 864 0064 041083E5 		str	r1, [r3, #4]
 865              		.loc 1 93 22 view .LVU299
 866 0068 043091E5 		ldr	r3, [r1, #4]
 867 006c 001083E5 		str	r1, [r3]
 868              		.loc 1 94 3 is_stmt 1 view .LVU300
 869              	.LVL52:
 870              		.loc 1 94 3 is_stmt 0 view .LVU301
 871              	.LBE71:
 872              	.LBE83:
 873              		.loc 1 308 3 is_stmt 1 view .LVU302
 874              		.loc 1 308 3 view .LVU303
 875              		.loc 1 308 3 view .LVU304
 876              		.loc 1 308 3 view .LVU305
 877 0070 FEFFFFEA 		b	_port_switch_arm
 878              	.LVL53:
 879              	.L56:
 880              		.loc 1 308 3 is_stmt 0 view .LVU306
 881              		.align	2
 882              	.L55:
 883 0074 00000000 		.word	rlist
 884              		.cfi_endproc
 885              	.LFE15:
 886              		.size	chSchDoRescheduleBehind, .-chSchDoRescheduleBehind
 887              		.section	.text.chSchDoRescheduleAhead,"ax",%progbits
 888              		.align	2
 889              		.global	chSchDoRescheduleAhead
 890              		.syntax unified
 891              		.arm
 892              		.fpu softvfp
 893              		.type	chSchDoRescheduleAhead, %function
 894              	chSchDoRescheduleAhead:
 895              	.LFB16:
 896              		.loc 1 322 35 is_stmt 1 view -0
 897              		.cfi_startproc
 898              		@ args = 0, pretend = 0, frame = 0
 899              		@ frame_needed = 0, uses_anonymous_args = 0
 900              		.loc 1 323 3 view .LVU308
 901              		.loc 1 325 3 view .LVU309
 902              		.loc 1 322 35 is_stmt 0 view .LVU310
 903 0000 10402DE9 		push	{r4, lr}
 904              		.cfi_def_cfa_offset 8
 905              		.cfi_offset 4, -8
 906              		.cfi_offset 14, -4
 907              		.loc 1 328 18 view .LVU311
 908 0004 0140A0E3 		mov	r4, #1
 909              		.loc 1 330 16 view .LVU312
 910 0008 00E0A0E3 		mov	lr, #0
 911              		.loc 1 325 7 view .LVU313
 912 000c 58209FE5 		ldr	r2, .L62
ARM GAS  /var/folders/l5/0x54b2c10074c8bt31ycjvl80000gp/T//ccF3aQLQ.s 			page 17


 913              	.LBB84:
 914              	.LBB85:
 915              		.loc 2 53 11 view .LVU314
 916 0010 000092E5 		ldr	r0, [r2]
 917              	.LBE85:
 918              	.LBE84:
 919              		.loc 1 325 7 view .LVU315
 920 0014 181092E5 		ldr	r1, [r2, #24]
 921              	.LVL54:
 922              		.loc 1 327 3 is_stmt 1 view .LVU316
 923              	.LBB89:
 924              	.LBI84:
 925              		.loc 2 52 23 view .LVU317
 926              	.LBB86:
 927              		.loc 2 53 3 view .LVU318
 928              		.loc 2 55 3 view .LVU319
 929              		.loc 2 55 20 is_stmt 0 view .LVU320
 930 0018 00C090E5 		ldr	ip, [r0]
 931              	.LBE86:
 932              	.LBE89:
 933              		.loc 1 334 28 view .LVU321
 934 001c 0030A0E1 		mov	r3, r0
 935              	.LBB90:
 936              	.LBB87:
 937              		.loc 2 55 38 view .LVU322
 938 0020 04208CE5 		str	r2, [ip, #4]
 939              		.loc 2 56 3 is_stmt 1 view .LVU323
 940              	.LVL55:
 941              		.loc 2 56 3 is_stmt 0 view .LVU324
 942              	.LBE87:
 943              	.LBE90:
 944              		.loc 1 328 18 view .LVU325
 945 0024 1C40C0E5 		strb	r4, [r0, #28]
 946              	.LBB91:
 947              	.LBB88:
 948              		.loc 2 55 16 view .LVU326
 949 0028 00C082E5 		str	ip, [r2]
 950              	.LBE88:
 951              	.LBE91:
 952              		.loc 1 330 16 view .LVU327
 953 002c 1CE0C1E5 		strb	lr, [r1, #28]
 954              		.loc 1 334 28 view .LVU328
 955 0030 08C091E5 		ldr	ip, [r1, #8]
 956              		.loc 1 327 3 view .LVU329
 957 0034 180082E5 		str	r0, [r2, #24]
 958              		.loc 1 328 3 is_stmt 1 view .LVU330
 959              		.loc 1 330 3 view .LVU331
 960              		.loc 1 331 3 view .LVU332
 961              	.LVL56:
 962              		.loc 1 331 3 is_stmt 0 view .LVU333
 963 0038 000000EA 		b	.L59
 964              	.LVL57:
 965              	.L61:
 966              		.loc 1 331 3 view .LVU334
 967 003c 003093E5 		ldr	r3, [r3]
 968              	.L59:
 969              		.loc 1 332 3 is_stmt 1 discriminator 1 view .LVU335
ARM GAS  /var/folders/l5/0x54b2c10074c8bt31ycjvl80000gp/T//ccF3aQLQ.s 			page 18


 970              		.loc 1 333 5 discriminator 1 view .LVU336
 971              		.loc 1 334 3 is_stmt 0 discriminator 1 view .LVU337
 972 0040 082093E5 		ldr	r2, [r3, #8]
 973 0044 0C0052E1 		cmp	r2, ip
 974 0048 FBFFFF8A 		bhi	.L61
 975              		.loc 1 336 3 is_stmt 1 view .LVU338
 976              		.loc 1 341 1 is_stmt 0 view .LVU339
 977 004c 1040BDE8 		pop	{r4, lr}
 978              		.cfi_restore 14
 979              		.cfi_restore 4
 980              		.cfi_def_cfa_offset 0
 981              		.loc 1 337 19 view .LVU340
 982 0050 042093E5 		ldr	r2, [r3, #4]
 983              		.loc 1 336 15 view .LVU341
 984 0054 003081E5 		str	r3, [r1]
 985              		.loc 1 337 3 is_stmt 1 view .LVU342
 986              		.loc 1 337 15 is_stmt 0 view .LVU343
 987 0058 042081E5 		str	r2, [r1, #4]
 988              		.loc 1 338 3 is_stmt 1 view .LVU344
 989              		.loc 1 338 36 is_stmt 0 view .LVU345
 990 005c 041083E5 		str	r1, [r3, #4]
 991              		.loc 1 338 23 view .LVU346
 992 0060 043091E5 		ldr	r3, [r1, #4]
 993 0064 001083E5 		str	r1, [r3]
 994              		.loc 1 340 3 is_stmt 1 view .LVU347
 995              		.loc 1 340 3 view .LVU348
 996              		.loc 1 340 3 view .LVU349
 997              		.loc 1 340 3 view .LVU350
 998 0068 FEFFFFEA 		b	_port_switch_arm
 999              	.LVL58:
 1000              	.L63:
 1001              		.loc 1 340 3 is_stmt 0 view .LVU351
 1002              		.align	2
 1003              	.L62:
 1004 006c 00000000 		.word	rlist
 1005              		.cfi_endproc
 1006              	.LFE16:
 1007              		.size	chSchDoRescheduleAhead, .-chSchDoRescheduleAhead
 1008              		.section	.text.chSchRescheduleS,"ax",%progbits
 1009              		.align	2
 1010              		.global	chSchRescheduleS
 1011              		.syntax unified
 1012              		.arm
 1013              		.fpu softvfp
 1014              		.type	chSchRescheduleS, %function
 1015              	chSchRescheduleS:
 1016              	.LFB13:
 1017              		.loc 1 246 29 is_stmt 1 view -0
 1018              		.cfi_startproc
 1019              		@ args = 0, pretend = 0, frame = 0
 1020              		@ frame_needed = 0, uses_anonymous_args = 0
 1021              		@ link register save eliminated.
 1022              		.loc 1 248 3 view .LVU353
 1023              		.loc 1 248 21 view .LVU354
 1024              		.loc 1 250 3 view .LVU355
 1025              		.loc 1 250 7 is_stmt 0 view .LVU356
 1026 0000 18309FE5 		ldr	r3, .L66
ARM GAS  /var/folders/l5/0x54b2c10074c8bt31ycjvl80000gp/T//ccF3aQLQ.s 			page 19


 1027 0004 002093E5 		ldr	r2, [r3]
 1028 0008 183093E5 		ldr	r3, [r3, #24]
 1029              		.loc 1 250 6 view .LVU357
 1030 000c 082092E5 		ldr	r2, [r2, #8]
 1031 0010 083093E5 		ldr	r3, [r3, #8]
 1032 0014 030052E1 		cmp	r2, r3
 1033 0018 1EFF2F91 		bxls	lr
 1034              		.loc 1 251 5 is_stmt 1 view .LVU358
 1035 001c FEFFFFEA 		b	chSchDoRescheduleAhead
 1036              	.LVL59:
 1037              	.L67:
 1038              		.align	2
 1039              	.L66:
 1040 0020 00000000 		.word	rlist
 1041              		.cfi_endproc
 1042              	.LFE13:
 1043              		.size	chSchRescheduleS, .-chSchRescheduleS
 1044              		.section	.text.chSchDoReschedule,"ax",%progbits
 1045              		.align	2
 1046              		.global	chSchDoReschedule
 1047              		.syntax unified
 1048              		.arm
 1049              		.fpu softvfp
 1050              		.type	chSchDoReschedule, %function
 1051              	chSchDoReschedule:
 1052              	.LFB17:
 1053              		.loc 1 355 30 view -0
 1054              		.cfi_startproc
 1055              		@ args = 0, pretend = 0, frame = 0
 1056              		@ frame_needed = 0, uses_anonymous_args = 0
 1057              		@ link register save eliminated.
 1058              		.loc 1 360 3 view .LVU360
 1059              		.loc 1 360 7 is_stmt 0 view .LVU361
 1060 0000 14309FE5 		ldr	r3, .L70
 1061              		.loc 1 360 12 view .LVU362
 1062 0004 183093E5 		ldr	r3, [r3, #24]
 1063              		.loc 1 360 6 view .LVU363
 1064 0008 1F30D3E5 		ldrb	r3, [r3, #31]	@ zero_extendqisi2
 1065 000c 000053E3 		cmp	r3, #0
 1066 0010 0000001A 		bne	.L69
 1067              		.loc 1 363 5 is_stmt 1 view .LVU364
 1068 0014 FEFFFFEA 		b	chSchDoRescheduleBehind
 1069              	.LVL60:
 1070              	.L69:
 1071              		.loc 1 368 5 view .LVU365
 1072 0018 FEFFFFEA 		b	chSchDoRescheduleAhead
 1073              	.LVL61:
 1074              	.L71:
 1075              		.align	2
 1076              	.L70:
 1077 001c 00000000 		.word	rlist
 1078              		.cfi_endproc
 1079              	.LFE17:
 1080              		.size	chSchDoReschedule, .-chSchDoReschedule
 1081              		.comm	rlist,28,4
 1082              		.text
 1083              	.Letext0:
ARM GAS  /var/folders/l5/0x54b2c10074c8bt31ycjvl80000gp/T//ccF3aQLQ.s 			page 20


 1084              		.file 3 "/usr/local/Cellar/arm-gcc-bin/8-2019-q3-update/arm-none-eabi/include/machine/_default_typ
 1085              		.file 4 "/usr/local/Cellar/arm-gcc-bin/8-2019-q3-update/arm-none-eabi/include/sys/_stdint.h"
 1086              		.file 5 "../../os/ports/GCC/ARM/chtypes.h"
 1087              		.file 6 "../../os/kernel/include/chlists.h"
 1088              		.file 7 "../../os/kernel/include/chthreads.h"
 1089              		.file 8 "../../os/ports/GCC/ARM/chcore.h"
 1090              		.file 9 "../../os/kernel/include/chvt.h"
 1091              		.file 10 "../../os/kernel/include/chschd.h"
 1092              		.file 11 "../../os/kernel/include/chsem.h"
 1093              		.file 12 "../../os/kernel/include/chmtx.h"
 1094              		.file 13 "../../os/kernel/include/chregistry.h"
 1095              		.file 14 "../../os/kernel/include/ch.h"
 1096              		.section	.debug_info,"",%progbits
 1097              	.Ldebug_info0:
 1098 0000 510C0000 		.4byte	0xc51
 1099 0004 0400     		.2byte	0x4
 1100 0006 00000000 		.4byte	.Ldebug_abbrev0
 1101 000a 04       		.byte	0x4
 1102 000b 01       		.uleb128 0x1
 1103 000c 23020000 		.4byte	.LASF118
 1104 0010 0C       		.byte	0xc
 1105 0011 93050000 		.4byte	.LASF119
 1106 0015 89030000 		.4byte	.LASF120
 1107 0019 28010000 		.4byte	.Ldebug_ranges0+0x128
 1108 001d 00000000 		.4byte	0
 1109 0021 00000000 		.4byte	.Ldebug_line0
 1110 0025 02       		.uleb128 0x2
 1111 0026 04       		.byte	0x4
 1112 0027 05       		.byte	0x5
 1113 0028 696E7400 		.ascii	"int\000"
 1114 002c 03       		.uleb128 0x3
 1115 002d 04       		.byte	0x4
 1116 002e 07       		.byte	0x7
 1117 002f 88010000 		.4byte	.LASF0
 1118 0033 03       		.uleb128 0x3
 1119 0034 01       		.byte	0x1
 1120 0035 06       		.byte	0x6
 1121 0036 A2000000 		.4byte	.LASF1
 1122 003a 04       		.uleb128 0x4
 1123 003b 31000000 		.4byte	.LASF4
 1124 003f 03       		.byte	0x3
 1125 0040 2B       		.byte	0x2b
 1126 0041 18       		.byte	0x18
 1127 0042 46000000 		.4byte	0x46
 1128 0046 03       		.uleb128 0x3
 1129 0047 01       		.byte	0x1
 1130 0048 08       		.byte	0x8
 1131 0049 20040000 		.4byte	.LASF2
 1132 004d 03       		.uleb128 0x3
 1133 004e 02       		.byte	0x2
 1134 004f 05       		.byte	0x5
 1135 0050 41040000 		.4byte	.LASF3
 1136 0054 04       		.uleb128 0x4
 1137 0055 05050000 		.4byte	.LASF5
 1138 0059 03       		.byte	0x3
 1139 005a 39       		.byte	0x39
 1140 005b 19       		.byte	0x19
ARM GAS  /var/folders/l5/0x54b2c10074c8bt31ycjvl80000gp/T//ccF3aQLQ.s 			page 21


 1141 005c 60000000 		.4byte	0x60
 1142 0060 03       		.uleb128 0x3
 1143 0061 02       		.byte	0x2
 1144 0062 07       		.byte	0x7
 1145 0063 F5010000 		.4byte	.LASF6
 1146 0067 04       		.uleb128 0x4
 1147 0068 38050000 		.4byte	.LASF7
 1148 006c 03       		.byte	0x3
 1149 006d 4D       		.byte	0x4d
 1150 006e 18       		.byte	0x18
 1151 006f 73000000 		.4byte	0x73
 1152 0073 03       		.uleb128 0x3
 1153 0074 04       		.byte	0x4
 1154 0075 05       		.byte	0x5
 1155 0076 E4000000 		.4byte	.LASF8
 1156 007a 04       		.uleb128 0x4
 1157 007b 54010000 		.4byte	.LASF9
 1158 007f 03       		.byte	0x3
 1159 0080 4F       		.byte	0x4f
 1160 0081 19       		.byte	0x19
 1161 0082 86000000 		.4byte	0x86
 1162 0086 03       		.uleb128 0x3
 1163 0087 04       		.byte	0x4
 1164 0088 07       		.byte	0x7
 1165 0089 B5010000 		.4byte	.LASF10
 1166 008d 03       		.uleb128 0x3
 1167 008e 08       		.byte	0x8
 1168 008f 05       		.byte	0x5
 1169 0090 94000000 		.4byte	.LASF11
 1170 0094 03       		.uleb128 0x3
 1171 0095 08       		.byte	0x8
 1172 0096 07       		.byte	0x7
 1173 0097 42000000 		.4byte	.LASF12
 1174 009b 04       		.uleb128 0x4
 1175 009c B6050000 		.4byte	.LASF13
 1176 00a0 04       		.byte	0x4
 1177 00a1 18       		.byte	0x18
 1178 00a2 13       		.byte	0x13
 1179 00a3 3A000000 		.4byte	0x3a
 1180 00a7 04       		.uleb128 0x4
 1181 00a8 F6000000 		.4byte	.LASF14
 1182 00ac 04       		.byte	0x4
 1183 00ad 24       		.byte	0x24
 1184 00ae 14       		.byte	0x14
 1185 00af 54000000 		.4byte	0x54
 1186 00b3 04       		.uleb128 0x4
 1187 00b4 18040000 		.4byte	.LASF15
 1188 00b8 04       		.byte	0x4
 1189 00b9 2C       		.byte	0x2c
 1190 00ba 13       		.byte	0x13
 1191 00bb 67000000 		.4byte	0x67
 1192 00bf 04       		.uleb128 0x4
 1193 00c0 CA040000 		.4byte	.LASF16
 1194 00c4 04       		.byte	0x4
 1195 00c5 30       		.byte	0x30
 1196 00c6 14       		.byte	0x14
 1197 00c7 7A000000 		.4byte	0x7a
ARM GAS  /var/folders/l5/0x54b2c10074c8bt31ycjvl80000gp/T//ccF3aQLQ.s 			page 22


 1198 00cb 04       		.uleb128 0x4
 1199 00cc CB000000 		.4byte	.LASF17
 1200 00d0 05       		.byte	0x5
 1201 00d1 29       		.byte	0x29
 1202 00d2 19       		.byte	0x19
 1203 00d3 B3000000 		.4byte	0xb3
 1204 00d7 04       		.uleb128 0x4
 1205 00d8 F3020000 		.4byte	.LASF18
 1206 00dc 05       		.byte	0x5
 1207 00dd 2A       		.byte	0x2a
 1208 00de 19       		.byte	0x19
 1209 00df 9B000000 		.4byte	0x9b
 1210 00e3 04       		.uleb128 0x4
 1211 00e4 ED000000 		.4byte	.LASF19
 1212 00e8 05       		.byte	0x5
 1213 00e9 2B       		.byte	0x2b
 1214 00ea 19       		.byte	0x19
 1215 00eb 9B000000 		.4byte	0x9b
 1216 00ef 04       		.uleb128 0x4
 1217 00f0 F6030000 		.4byte	.LASF20
 1218 00f4 05       		.byte	0x5
 1219 00f5 2C       		.byte	0x2c
 1220 00f6 19       		.byte	0x19
 1221 00f7 9B000000 		.4byte	0x9b
 1222 00fb 04       		.uleb128 0x4
 1223 00fc DA000000 		.4byte	.LASF21
 1224 0100 05       		.byte	0x5
 1225 0101 2D       		.byte	0x2d
 1226 0102 19       		.byte	0x19
 1227 0103 9B000000 		.4byte	0x9b
 1228 0107 04       		.uleb128 0x4
 1229 0108 10040000 		.4byte	.LASF22
 1230 010c 05       		.byte	0x5
 1231 010d 2E       		.byte	0x2e
 1232 010e 19       		.byte	0x19
 1233 010f BF000000 		.4byte	0xbf
 1234 0113 04       		.uleb128 0x4
 1235 0114 15020000 		.4byte	.LASF23
 1236 0118 05       		.byte	0x5
 1237 0119 2F       		.byte	0x2f
 1238 011a 19       		.byte	0x19
 1239 011b B3000000 		.4byte	0xb3
 1240 011f 04       		.uleb128 0x4
 1241 0120 07030000 		.4byte	.LASF24
 1242 0124 05       		.byte	0x5
 1243 0125 31       		.byte	0x31
 1244 0126 19       		.byte	0x19
 1245 0127 BF000000 		.4byte	0xbf
 1246 012b 04       		.uleb128 0x4
 1247 012c 23050000 		.4byte	.LASF25
 1248 0130 05       		.byte	0x5
 1249 0131 33       		.byte	0x33
 1250 0132 19       		.byte	0x19
 1251 0133 BF000000 		.4byte	0xbf
 1252 0137 05       		.uleb128 0x5
 1253 0138 2B010000 		.4byte	0x12b
 1254 013c 04       		.uleb128 0x4
ARM GAS  /var/folders/l5/0x54b2c10074c8bt31ycjvl80000gp/T//ccF3aQLQ.s 			page 23


 1255 013d 82010000 		.4byte	.LASF26
 1256 0141 05       		.byte	0x5
 1257 0142 34       		.byte	0x34
 1258 0143 19       		.byte	0x19
 1259 0144 B3000000 		.4byte	0xb3
 1260 0148 04       		.uleb128 0x4
 1261 0149 9D040000 		.4byte	.LASF27
 1262 014d 06       		.byte	0x6
 1263 014e 23       		.byte	0x23
 1264 014f 17       		.byte	0x17
 1265 0150 54010000 		.4byte	0x154
 1266 0154 06       		.uleb128 0x6
 1267 0155 9D040000 		.4byte	.LASF27
 1268 0159 44       		.byte	0x44
 1269 015a 07       		.byte	0x7
 1270 015b 57       		.byte	0x57
 1271 015c 08       		.byte	0x8
 1272 015d 59020000 		.4byte	0x259
 1273 0161 07       		.uleb128 0x7
 1274 0162 7F040000 		.4byte	.LASF28
 1275 0166 07       		.byte	0x7
 1276 0167 58       		.byte	0x58
 1277 0168 1A       		.byte	0x1a
 1278 0169 7D020000 		.4byte	0x27d
 1279 016d 00       		.byte	0
 1280 016e 07       		.uleb128 0x7
 1281 016f 09040000 		.4byte	.LASF29
 1282 0173 07       		.byte	0x7
 1283 0174 5A       		.byte	0x5a
 1284 0175 1A       		.byte	0x1a
 1285 0176 7D020000 		.4byte	0x27d
 1286 017a 04       		.byte	0x4
 1287 017b 07       		.uleb128 0x7
 1288 017c 70000000 		.4byte	.LASF30
 1289 0180 07       		.byte	0x7
 1290 0181 5C       		.byte	0x5c
 1291 0182 19       		.byte	0x19
 1292 0183 07010000 		.4byte	0x107
 1293 0187 08       		.byte	0x8
 1294 0188 07       		.uleb128 0x7
 1295 0189 06060000 		.4byte	.LASF31
 1296 018d 07       		.byte	0x7
 1297 018e 5D       		.byte	0x5d
 1298 018f 19       		.byte	0x19
 1299 0190 48030000 		.4byte	0x348
 1300 0194 0C       		.byte	0xc
 1301 0195 07       		.uleb128 0x7
 1302 0196 23010000 		.4byte	.LASF32
 1303 019a 07       		.byte	0x7
 1304 019b 5F       		.byte	0x5f
 1305 019c 1A       		.byte	0x1a
 1306 019d 7D020000 		.4byte	0x27d
 1307 01a1 10       		.byte	0x10
 1308 01a2 07       		.uleb128 0x7
 1309 01a3 69040000 		.4byte	.LASF33
 1310 01a7 07       		.byte	0x7
 1311 01a8 60       		.byte	0x60
ARM GAS  /var/folders/l5/0x54b2c10074c8bt31ycjvl80000gp/T//ccF3aQLQ.s 			page 24


 1312 01a9 1A       		.byte	0x1a
 1313 01aa 7D020000 		.4byte	0x27d
 1314 01ae 14       		.byte	0x14
 1315 01af 07       		.uleb128 0x7
 1316 01b0 C5050000 		.4byte	.LASF34
 1317 01b4 07       		.byte	0x7
 1318 01b5 67       		.byte	0x67
 1319 01b6 1A       		.byte	0x1a
 1320 01b7 62050000 		.4byte	0x562
 1321 01bb 18       		.byte	0x18
 1322 01bc 07       		.uleb128 0x7
 1323 01bd 4B040000 		.4byte	.LASF35
 1324 01c1 07       		.byte	0x7
 1325 01c2 72       		.byte	0x72
 1326 01c3 19       		.byte	0x19
 1327 01c4 E3000000 		.4byte	0xe3
 1328 01c8 1C       		.byte	0x1c
 1329 01c9 07       		.uleb128 0x7
 1330 01ca 95040000 		.4byte	.LASF36
 1331 01ce 07       		.byte	0x7
 1332 01cf 76       		.byte	0x76
 1333 01d0 19       		.byte	0x19
 1334 01d1 D7000000 		.4byte	0xd7
 1335 01d5 1D       		.byte	0x1d
 1336 01d6 07       		.uleb128 0x7
 1337 01d7 77050000 		.4byte	.LASF37
 1338 01db 07       		.byte	0x7
 1339 01dc 7B       		.byte	0x7b
 1340 01dd 19       		.byte	0x19
 1341 01de EF000000 		.4byte	0xef
 1342 01e2 1E       		.byte	0x1e
 1343 01e3 07       		.uleb128 0x7
 1344 01e4 53040000 		.4byte	.LASF38
 1345 01e8 07       		.byte	0x7
 1346 01e9 81       		.byte	0x81
 1347 01ea 19       		.byte	0x19
 1348 01eb FB000000 		.4byte	0xfb
 1349 01ef 1F       		.byte	0x1f
 1350 01f0 07       		.uleb128 0x7
 1351 01f1 42050000 		.4byte	.LASF39
 1352 01f5 07       		.byte	0x7
 1353 01f6 88       		.byte	0x88
 1354 01f7 19       		.byte	0x19
 1355 01f8 37010000 		.4byte	0x137
 1356 01fc 20       		.byte	0x20
 1357 01fd 08       		.uleb128 0x8
 1358 01fe 705F7500 		.ascii	"p_u\000"
 1359 0202 07       		.byte	0x7
 1360 0203 AD       		.byte	0xad
 1361 0204 19       		.byte	0x19
 1362 0205 28050000 		.4byte	0x528
 1363 0209 24       		.byte	0x24
 1364 020a 07       		.uleb128 0x7
 1365 020b 0C060000 		.4byte	.LASF40
 1366 020f 07       		.byte	0x7
 1367 0210 B2       		.byte	0xb2
 1368 0211 19       		.byte	0x19
ARM GAS  /var/folders/l5/0x54b2c10074c8bt31ycjvl80000gp/T//ccF3aQLQ.s 			page 25


 1369 0212 A6020000 		.4byte	0x2a6
 1370 0216 28       		.byte	0x28
 1371 0217 07       		.uleb128 0x7
 1372 0218 50050000 		.4byte	.LASF41
 1373 021c 07       		.byte	0x7
 1374 021d B8       		.byte	0xb8
 1375 021e 19       		.byte	0x19
 1376 021f 83020000 		.4byte	0x283
 1377 0223 2C       		.byte	0x2c
 1378 0224 07       		.uleb128 0x7
 1379 0225 0D000000 		.4byte	.LASF42
 1380 0229 07       		.byte	0x7
 1381 022a BC       		.byte	0xbc
 1382 022b 19       		.byte	0x19
 1383 022c 13010000 		.4byte	0x113
 1384 0230 34       		.byte	0x34
 1385 0231 07       		.uleb128 0x7
 1386 0232 BF040000 		.4byte	.LASF43
 1387 0236 07       		.byte	0x7
 1388 0237 C2       		.byte	0xc2
 1389 0238 19       		.byte	0x19
 1390 0239 1F010000 		.4byte	0x11f
 1391 023d 38       		.byte	0x38
 1392 023e 07       		.uleb128 0x7
 1393 023f 37040000 		.4byte	.LASF44
 1394 0243 07       		.byte	0x7
 1395 0244 C9       		.byte	0xc9
 1396 0245 1A       		.byte	0x1a
 1397 0246 74050000 		.4byte	0x574
 1398 024a 3C       		.byte	0x3c
 1399 024b 07       		.uleb128 0x7
 1400 024c 2D050000 		.4byte	.LASF45
 1401 0250 07       		.byte	0x7
 1402 0251 CD       		.byte	0xcd
 1403 0252 19       		.byte	0x19
 1404 0253 07010000 		.4byte	0x107
 1405 0257 40       		.byte	0x40
 1406 0258 00       		.byte	0
 1407 0259 09       		.uleb128 0x9
 1408 025a 08       		.byte	0x8
 1409 025b 06       		.byte	0x6
 1410 025c 5A       		.byte	0x5a
 1411 025d 09       		.byte	0x9
 1412 025e 7D020000 		.4byte	0x27d
 1413 0262 07       		.uleb128 0x7
 1414 0263 7F040000 		.4byte	.LASF28
 1415 0267 06       		.byte	0x6
 1416 0268 5B       		.byte	0x5b
 1417 0269 1A       		.byte	0x1a
 1418 026a 7D020000 		.4byte	0x27d
 1419 026e 00       		.byte	0
 1420 026f 07       		.uleb128 0x7
 1421 0270 09040000 		.4byte	.LASF29
 1422 0274 06       		.byte	0x6
 1423 0275 5D       		.byte	0x5d
 1424 0276 1A       		.byte	0x1a
 1425 0277 7D020000 		.4byte	0x27d
ARM GAS  /var/folders/l5/0x54b2c10074c8bt31ycjvl80000gp/T//ccF3aQLQ.s 			page 26


 1426 027b 04       		.byte	0x4
 1427 027c 00       		.byte	0
 1428 027d 0A       		.uleb128 0xa
 1429 027e 04       		.byte	0x4
 1430 027f 48010000 		.4byte	0x148
 1431 0283 04       		.uleb128 0x4
 1432 0284 CA030000 		.4byte	.LASF46
 1433 0288 06       		.byte	0x6
 1434 0289 5F       		.byte	0x5f
 1435 028a 03       		.byte	0x3
 1436 028b 59020000 		.4byte	0x259
 1437 028f 09       		.uleb128 0x9
 1438 0290 04       		.byte	0x4
 1439 0291 06       		.byte	0x6
 1440 0292 64       		.byte	0x64
 1441 0293 09       		.byte	0x9
 1442 0294 A6020000 		.4byte	0x2a6
 1443 0298 07       		.uleb128 0x7
 1444 0299 7F040000 		.4byte	.LASF28
 1445 029d 06       		.byte	0x6
 1446 029e 66       		.byte	0x66
 1447 029f 16       		.byte	0x16
 1448 02a0 7D020000 		.4byte	0x27d
 1449 02a4 00       		.byte	0
 1450 02a5 00       		.byte	0
 1451 02a6 04       		.uleb128 0x4
 1452 02a7 FB020000 		.4byte	.LASF47
 1453 02ab 06       		.byte	0x6
 1454 02ac 69       		.byte	0x69
 1455 02ad 03       		.byte	0x3
 1456 02ae 8F020000 		.4byte	0x28f
 1457 02b2 04       		.uleb128 0x4
 1458 02b3 19030000 		.4byte	.LASF48
 1459 02b7 08       		.byte	0x8
 1460 02b8 9D       		.byte	0x9d
 1461 02b9 12       		.byte	0x12
 1462 02ba BF000000 		.4byte	0xbf
 1463 02be 04       		.uleb128 0x4
 1464 02bf 5F010000 		.4byte	.LASF49
 1465 02c3 08       		.byte	0x8
 1466 02c4 A2       		.byte	0xa2
 1467 02c5 0F       		.byte	0xf
 1468 02c6 CA020000 		.4byte	0x2ca
 1469 02ca 0B       		.uleb128 0xb
 1470 02cb 04       		.byte	0x4
 1471 02cc 06       		.uleb128 0x6
 1472 02cd 49050000 		.4byte	.LASF50
 1473 02d1 24       		.byte	0x24
 1474 02d2 08       		.byte	0x8
 1475 02d3 B9       		.byte	0xb9
 1476 02d4 08       		.byte	0x8
 1477 02d5 48030000 		.4byte	0x348
 1478 02d9 08       		.uleb128 0x8
 1479 02da 723400   		.ascii	"r4\000"
 1480 02dd 08       		.byte	0x8
 1481 02de BA       		.byte	0xba
 1482 02df 11       		.byte	0x11
ARM GAS  /var/folders/l5/0x54b2c10074c8bt31ycjvl80000gp/T//ccF3aQLQ.s 			page 27


 1483 02e0 BE020000 		.4byte	0x2be
 1484 02e4 00       		.byte	0
 1485 02e5 08       		.uleb128 0x8
 1486 02e6 723500   		.ascii	"r5\000"
 1487 02e9 08       		.byte	0x8
 1488 02ea BB       		.byte	0xbb
 1489 02eb 11       		.byte	0x11
 1490 02ec BE020000 		.4byte	0x2be
 1491 02f0 04       		.byte	0x4
 1492 02f1 08       		.uleb128 0x8
 1493 02f2 723600   		.ascii	"r6\000"
 1494 02f5 08       		.byte	0x8
 1495 02f6 BC       		.byte	0xbc
 1496 02f7 11       		.byte	0x11
 1497 02f8 BE020000 		.4byte	0x2be
 1498 02fc 08       		.byte	0x8
 1499 02fd 08       		.uleb128 0x8
 1500 02fe 723700   		.ascii	"r7\000"
 1501 0301 08       		.byte	0x8
 1502 0302 BD       		.byte	0xbd
 1503 0303 11       		.byte	0x11
 1504 0304 BE020000 		.4byte	0x2be
 1505 0308 0C       		.byte	0xc
 1506 0309 08       		.uleb128 0x8
 1507 030a 723800   		.ascii	"r8\000"
 1508 030d 08       		.byte	0x8
 1509 030e BE       		.byte	0xbe
 1510 030f 11       		.byte	0x11
 1511 0310 BE020000 		.4byte	0x2be
 1512 0314 10       		.byte	0x10
 1513 0315 08       		.uleb128 0x8
 1514 0316 723900   		.ascii	"r9\000"
 1515 0319 08       		.byte	0x8
 1516 031a BF       		.byte	0xbf
 1517 031b 11       		.byte	0x11
 1518 031c BE020000 		.4byte	0x2be
 1519 0320 14       		.byte	0x14
 1520 0321 08       		.uleb128 0x8
 1521 0322 72313000 		.ascii	"r10\000"
 1522 0326 08       		.byte	0x8
 1523 0327 C0       		.byte	0xc0
 1524 0328 11       		.byte	0x11
 1525 0329 BE020000 		.4byte	0x2be
 1526 032d 18       		.byte	0x18
 1527 032e 08       		.uleb128 0x8
 1528 032f 72313100 		.ascii	"r11\000"
 1529 0333 08       		.byte	0x8
 1530 0334 C1       		.byte	0xc1
 1531 0335 11       		.byte	0x11
 1532 0336 BE020000 		.4byte	0x2be
 1533 033a 1C       		.byte	0x1c
 1534 033b 08       		.uleb128 0x8
 1535 033c 6C7200   		.ascii	"lr\000"
 1536 033f 08       		.byte	0x8
 1537 0340 C2       		.byte	0xc2
 1538 0341 11       		.byte	0x11
 1539 0342 BE020000 		.4byte	0x2be
ARM GAS  /var/folders/l5/0x54b2c10074c8bt31ycjvl80000gp/T//ccF3aQLQ.s 			page 28


 1540 0346 20       		.byte	0x20
 1541 0347 00       		.byte	0
 1542 0348 06       		.uleb128 0x6
 1543 0349 ED010000 		.4byte	.LASF51
 1544 034d 04       		.byte	0x4
 1545 034e 08       		.byte	0x8
 1546 034f CA       		.byte	0xca
 1547 0350 08       		.byte	0x8
 1548 0351 63030000 		.4byte	0x363
 1549 0355 08       		.uleb128 0x8
 1550 0356 72313300 		.ascii	"r13\000"
 1551 035a 08       		.byte	0x8
 1552 035b CB       		.byte	0xcb
 1553 035c 12       		.byte	0x12
 1554 035d 63030000 		.4byte	0x363
 1555 0361 00       		.byte	0
 1556 0362 00       		.byte	0
 1557 0363 0A       		.uleb128 0xa
 1558 0364 04       		.byte	0x4
 1559 0365 CC020000 		.4byte	0x2cc
 1560 0369 04       		.uleb128 0x4
 1561 036a D0010000 		.4byte	.LASF52
 1562 036e 09       		.byte	0x9
 1563 036f 4E       		.byte	0x4e
 1564 0370 10       		.byte	0x10
 1565 0371 75030000 		.4byte	0x375
 1566 0375 0A       		.uleb128 0xa
 1567 0376 04       		.byte	0x4
 1568 0377 7B030000 		.4byte	0x37b
 1569 037b 0C       		.uleb128 0xc
 1570 037c 86030000 		.4byte	0x386
 1571 0380 0D       		.uleb128 0xd
 1572 0381 CA020000 		.4byte	0x2ca
 1573 0385 00       		.byte	0
 1574 0386 04       		.uleb128 0x4
 1575 0387 E7040000 		.4byte	.LASF53
 1576 038b 09       		.byte	0x9
 1577 038c 53       		.byte	0x53
 1578 038d 1D       		.byte	0x1d
 1579 038e 92030000 		.4byte	0x392
 1580 0392 06       		.uleb128 0x6
 1581 0393 E7040000 		.4byte	.LASF53
 1582 0397 14       		.byte	0x14
 1583 0398 09       		.byte	0x9
 1584 0399 5A       		.byte	0x5a
 1585 039a 08       		.byte	0x8
 1586 039b E1030000 		.4byte	0x3e1
 1587 039f 07       		.uleb128 0x7
 1588 03a0 9C010000 		.4byte	.LASF54
 1589 03a4 09       		.byte	0x9
 1590 03a5 5B       		.byte	0x5b
 1591 03a6 1A       		.byte	0x1a
 1592 03a7 E1030000 		.4byte	0x3e1
 1593 03ab 00       		.byte	0
 1594 03ac 07       		.uleb128 0x7
 1595 03ad 68010000 		.4byte	.LASF55
 1596 03b1 09       		.byte	0x9
ARM GAS  /var/folders/l5/0x54b2c10074c8bt31ycjvl80000gp/T//ccF3aQLQ.s 			page 29


 1597 03b2 5D       		.byte	0x5d
 1598 03b3 1A       		.byte	0x1a
 1599 03b4 E1030000 		.4byte	0x3e1
 1600 03b8 04       		.byte	0x4
 1601 03b9 07       		.uleb128 0x7
 1602 03ba 38030000 		.4byte	.LASF56
 1603 03be 09       		.byte	0x9
 1604 03bf 5F       		.byte	0x5f
 1605 03c0 19       		.byte	0x19
 1606 03c1 2B010000 		.4byte	0x12b
 1607 03c5 08       		.byte	0x8
 1608 03c6 07       		.uleb128 0x7
 1609 03c7 40030000 		.4byte	.LASF57
 1610 03cb 09       		.byte	0x9
 1611 03cc 60       		.byte	0x60
 1612 03cd 19       		.byte	0x19
 1613 03ce 69030000 		.4byte	0x369
 1614 03d2 0C       		.byte	0xc
 1615 03d3 07       		.uleb128 0x7
 1616 03d4 5B050000 		.4byte	.LASF58
 1617 03d8 09       		.byte	0x9
 1618 03d9 62       		.byte	0x62
 1619 03da 1A       		.byte	0x1a
 1620 03db CA020000 		.4byte	0x2ca
 1621 03df 10       		.byte	0x10
 1622 03e0 00       		.byte	0
 1623 03e1 0A       		.uleb128 0xa
 1624 03e2 04       		.byte	0x4
 1625 03e3 86030000 		.4byte	0x386
 1626 03e7 09       		.uleb128 0x9
 1627 03e8 10       		.byte	0x10
 1628 03e9 09       		.byte	0x9
 1629 03ea 6C       		.byte	0x6c
 1630 03eb 09       		.byte	0x9
 1631 03ec 25040000 		.4byte	0x425
 1632 03f0 07       		.uleb128 0x7
 1633 03f1 9C010000 		.4byte	.LASF54
 1634 03f5 09       		.byte	0x9
 1635 03f6 6D       		.byte	0x6d
 1636 03f7 1A       		.byte	0x1a
 1637 03f8 E1030000 		.4byte	0x3e1
 1638 03fc 00       		.byte	0
 1639 03fd 07       		.uleb128 0x7
 1640 03fe 68010000 		.4byte	.LASF55
 1641 0402 09       		.byte	0x9
 1642 0403 6F       		.byte	0x6f
 1643 0404 1A       		.byte	0x1a
 1644 0405 E1030000 		.4byte	0x3e1
 1645 0409 04       		.byte	0x4
 1646 040a 07       		.uleb128 0x7
 1647 040b 38030000 		.4byte	.LASF56
 1648 040f 09       		.byte	0x9
 1649 0410 71       		.byte	0x71
 1650 0411 19       		.byte	0x19
 1651 0412 2B010000 		.4byte	0x12b
 1652 0416 08       		.byte	0x8
 1653 0417 07       		.uleb128 0x7
ARM GAS  /var/folders/l5/0x54b2c10074c8bt31ycjvl80000gp/T//ccF3aQLQ.s 			page 30


 1654 0418 CC050000 		.4byte	.LASF59
 1655 041c 09       		.byte	0x9
 1656 041d 72       		.byte	0x72
 1657 041e 19       		.byte	0x19
 1658 041f 37010000 		.4byte	0x137
 1659 0423 0C       		.byte	0xc
 1660 0424 00       		.byte	0
 1661 0425 04       		.uleb128 0x4
 1662 0426 F7050000 		.4byte	.LASF60
 1663 042a 09       		.byte	0x9
 1664 042b 73       		.byte	0x73
 1665 042c 03       		.byte	0x3
 1666 042d E7030000 		.4byte	0x3e7
 1667 0431 0E       		.uleb128 0xe
 1668 0432 3B000000 		.4byte	.LASF68
 1669 0436 09       		.byte	0x9
 1670 0437 D1       		.byte	0xd1
 1671 0438 0F       		.byte	0xf
 1672 0439 25040000 		.4byte	0x425
 1673 043d 09       		.uleb128 0x9
 1674 043e 1C       		.byte	0x1c
 1675 043f 0A       		.byte	0xa
 1676 0440 57       		.byte	0x57
 1677 0441 09       		.byte	0x9
 1678 0442 95040000 		.4byte	0x495
 1679 0446 07       		.uleb128 0x7
 1680 0447 DF040000 		.4byte	.LASF61
 1681 044b 0A       		.byte	0xa
 1682 044c 58       		.byte	0x58
 1683 044d 19       		.byte	0x19
 1684 044e 83020000 		.4byte	0x283
 1685 0452 00       		.byte	0
 1686 0453 07       		.uleb128 0x7
 1687 0454 71040000 		.4byte	.LASF62
 1688 0458 0A       		.byte	0xa
 1689 0459 59       		.byte	0x59
 1690 045a 19       		.byte	0x19
 1691 045b 07010000 		.4byte	0x107
 1692 045f 08       		.byte	0x8
 1693 0460 07       		.uleb128 0x7
 1694 0461 C4030000 		.4byte	.LASF63
 1695 0465 0A       		.byte	0xa
 1696 0466 5B       		.byte	0x5b
 1697 0467 19       		.byte	0x19
 1698 0468 48030000 		.4byte	0x348
 1699 046c 0C       		.byte	0xc
 1700 046d 07       		.uleb128 0x7
 1701 046e 1B020000 		.4byte	.LASF64
 1702 0472 0A       		.byte	0xa
 1703 0473 5E       		.byte	0x5e
 1704 0474 1A       		.byte	0x1a
 1705 0475 7D020000 		.4byte	0x27d
 1706 0479 10       		.byte	0x10
 1707 047a 07       		.uleb128 0x7
 1708 047b EE030000 		.4byte	.LASF65
 1709 047f 0A       		.byte	0xa
 1710 0480 5F       		.byte	0x5f
ARM GAS  /var/folders/l5/0x54b2c10074c8bt31ycjvl80000gp/T//ccF3aQLQ.s 			page 31


 1711 0481 1A       		.byte	0x1a
 1712 0482 7D020000 		.4byte	0x27d
 1713 0486 14       		.byte	0x14
 1714 0487 07       		.uleb128 0x7
 1715 0488 E4030000 		.4byte	.LASF66
 1716 048c 0A       		.byte	0xa
 1717 048d 62       		.byte	0x62
 1718 048e 1A       		.byte	0x1a
 1719 048f 7D020000 		.4byte	0x27d
 1720 0493 18       		.byte	0x18
 1721 0494 00       		.byte	0
 1722 0495 04       		.uleb128 0x4
 1723 0496 89050000 		.4byte	.LASF67
 1724 049a 0A       		.byte	0xa
 1725 049b 64       		.byte	0x64
 1726 049c 03       		.byte	0x3
 1727 049d 3D040000 		.4byte	0x43d
 1728 04a1 0E       		.uleb128 0xe
 1729 04a2 B0050000 		.4byte	.LASF69
 1730 04a6 0A       		.byte	0xa
 1731 04a7 68       		.byte	0x68
 1732 04a8 12       		.byte	0x12
 1733 04a9 95040000 		.4byte	0x495
 1734 04ad 06       		.uleb128 0x6
 1735 04ae 62050000 		.4byte	.LASF70
 1736 04b2 0C       		.byte	0xc
 1737 04b3 0B       		.byte	0xb
 1738 04b4 25       		.byte	0x25
 1739 04b5 10       		.byte	0x10
 1740 04b6 D5040000 		.4byte	0x4d5
 1741 04ba 07       		.uleb128 0x7
 1742 04bb 3B010000 		.4byte	.LASF71
 1743 04bf 0B       		.byte	0xb
 1744 04c0 26       		.byte	0x26
 1745 04c1 19       		.byte	0x19
 1746 04c2 83020000 		.4byte	0x283
 1747 04c6 00       		.byte	0
 1748 04c7 07       		.uleb128 0x7
 1749 04c8 E7010000 		.4byte	.LASF72
 1750 04cc 0B       		.byte	0xb
 1751 04cd 28       		.byte	0x28
 1752 04ce 19       		.byte	0x19
 1753 04cf 3C010000 		.4byte	0x13c
 1754 04d3 08       		.byte	0x8
 1755 04d4 00       		.byte	0
 1756 04d5 04       		.uleb128 0x4
 1757 04d6 62050000 		.4byte	.LASF70
 1758 04da 0B       		.byte	0xb
 1759 04db 29       		.byte	0x29
 1760 04dc 03       		.byte	0x3
 1761 04dd AD040000 		.4byte	0x4ad
 1762 04e1 06       		.uleb128 0x6
 1763 04e2 13030000 		.4byte	.LASF73
 1764 04e6 10       		.byte	0x10
 1765 04e7 0C       		.byte	0xc
 1766 04e8 25       		.byte	0x25
 1767 04e9 10       		.byte	0x10
ARM GAS  /var/folders/l5/0x54b2c10074c8bt31ycjvl80000gp/T//ccF3aQLQ.s 			page 32


 1768 04ea 16050000 		.4byte	0x516
 1769 04ee 07       		.uleb128 0x7
 1770 04ef D2000000 		.4byte	.LASF74
 1771 04f3 0C       		.byte	0xc
 1772 04f4 26       		.byte	0x26
 1773 04f5 19       		.byte	0x19
 1774 04f6 83020000 		.4byte	0x283
 1775 04fa 00       		.byte	0
 1776 04fb 07       		.uleb128 0x7
 1777 04fc FE050000 		.4byte	.LASF75
 1778 0500 0C       		.byte	0xc
 1779 0501 28       		.byte	0x28
 1780 0502 1A       		.byte	0x1a
 1781 0503 7D020000 		.4byte	0x27d
 1782 0507 08       		.byte	0x8
 1783 0508 07       		.uleb128 0x7
 1784 0509 1C050000 		.4byte	.LASF76
 1785 050d 0C       		.byte	0xc
 1786 050e 2A       		.byte	0x2a
 1787 050f 1A       		.byte	0x1a
 1788 0510 16050000 		.4byte	0x516
 1789 0514 0C       		.byte	0xc
 1790 0515 00       		.byte	0
 1791 0516 0A       		.uleb128 0xa
 1792 0517 04       		.byte	0x4
 1793 0518 E1040000 		.4byte	0x4e1
 1794 051c 04       		.uleb128 0x4
 1795 051d 13030000 		.4byte	.LASF73
 1796 0521 0C       		.byte	0xc
 1797 0522 2C       		.byte	0x2c
 1798 0523 03       		.byte	0x3
 1799 0524 E1040000 		.4byte	0x4e1
 1800 0528 0F       		.uleb128 0xf
 1801 0529 04       		.byte	0x4
 1802 052a 07       		.byte	0x7
 1803 052b 8F       		.byte	0x8f
 1804 052c 03       		.byte	0x3
 1805 052d 62050000 		.4byte	0x562
 1806 0531 10       		.uleb128 0x10
 1807 0532 13000000 		.4byte	.LASF77
 1808 0536 07       		.byte	0x7
 1809 0537 96       		.byte	0x96
 1810 0538 19       		.byte	0x19
 1811 0539 13010000 		.4byte	0x113
 1812 053d 10       		.uleb128 0x10
 1813 053e 67000000 		.4byte	.LASF78
 1814 0542 07       		.byte	0x7
 1815 0543 9D       		.byte	0x9d
 1816 0544 19       		.byte	0x19
 1817 0545 13010000 		.4byte	0x113
 1818 0549 10       		.uleb128 0x10
 1819 054a BE050000 		.4byte	.LASF79
 1820 054e 07       		.byte	0x7
 1821 054f A4       		.byte	0xa4
 1822 0550 1A       		.byte	0x1a
 1823 0551 CA020000 		.4byte	0x2ca
 1824 0555 10       		.uleb128 0x10
ARM GAS  /var/folders/l5/0x54b2c10074c8bt31ycjvl80000gp/T//ccF3aQLQ.s 			page 33


 1825 0556 78040000 		.4byte	.LASF80
 1826 055a 07       		.byte	0x7
 1827 055b AB       		.byte	0xab
 1828 055c 19       		.byte	0x19
 1829 055d 1F010000 		.4byte	0x11f
 1830 0561 00       		.byte	0
 1831 0562 0A       		.uleb128 0xa
 1832 0563 04       		.byte	0x4
 1833 0564 6F050000 		.4byte	0x56f
 1834 0568 03       		.uleb128 0x3
 1835 0569 01       		.byte	0x1
 1836 056a 08       		.byte	0x8
 1837 056b F4040000 		.4byte	.LASF81
 1838 056f 11       		.uleb128 0x11
 1839 0570 68050000 		.4byte	0x568
 1840 0574 0A       		.uleb128 0xa
 1841 0575 04       		.byte	0x4
 1842 0576 1C050000 		.4byte	0x51c
 1843 057a 09       		.uleb128 0x9
 1844 057b 16       		.byte	0x16
 1845 057c 0D       		.byte	0xd
 1846 057d 25       		.byte	0x25
 1847 057e 09       		.byte	0x9
 1848 057f 6E060000 		.4byte	0x66e
 1849 0583 07       		.uleb128 0x7
 1850 0584 D9010000 		.4byte	.LASF82
 1851 0588 0D       		.byte	0xd
 1852 0589 26       		.byte	0x26
 1853 058a 0D       		.byte	0xd
 1854 058b 6E060000 		.4byte	0x66e
 1855 058f 00       		.byte	0
 1856 0590 07       		.uleb128 0x7
 1857 0591 24030000 		.4byte	.LASF83
 1858 0595 0D       		.byte	0xd
 1859 0596 27       		.byte	0x27
 1860 0597 0D       		.byte	0xd
 1861 0598 9B000000 		.4byte	0x9b
 1862 059c 04       		.byte	0x4
 1863 059d 07       		.uleb128 0x7
 1864 059e D7030000 		.4byte	.LASF84
 1865 05a2 0D       		.byte	0xd
 1866 05a3 28       		.byte	0x28
 1867 05a4 0D       		.byte	0xd
 1868 05a5 9B000000 		.4byte	0x9b
 1869 05a9 05       		.byte	0x5
 1870 05aa 07       		.uleb128 0x7
 1871 05ab EC050000 		.4byte	.LASF85
 1872 05af 0D       		.byte	0xd
 1873 05b0 29       		.byte	0x29
 1874 05b1 0D       		.byte	0xd
 1875 05b2 A7000000 		.4byte	0xa7
 1876 05b6 06       		.byte	0x6
 1877 05b7 07       		.uleb128 0x7
 1878 05b8 FE030000 		.4byte	.LASF86
 1879 05bc 0D       		.byte	0xd
 1880 05bd 2A       		.byte	0x2a
 1881 05be 0D       		.byte	0xd
ARM GAS  /var/folders/l5/0x54b2c10074c8bt31ycjvl80000gp/T//ccF3aQLQ.s 			page 34


 1882 05bf 9B000000 		.4byte	0x9b
 1883 05c3 08       		.byte	0x8
 1884 05c4 07       		.uleb128 0x7
 1885 05c5 48030000 		.4byte	.LASF87
 1886 05c9 0D       		.byte	0xd
 1887 05ca 2B       		.byte	0x2b
 1888 05cb 0D       		.byte	0xd
 1889 05cc 9B000000 		.4byte	0x9b
 1890 05d0 09       		.byte	0x9
 1891 05d1 07       		.uleb128 0x7
 1892 05d2 59000000 		.4byte	.LASF88
 1893 05d6 0D       		.byte	0xd
 1894 05d7 2C       		.byte	0x2c
 1895 05d8 0D       		.byte	0xd
 1896 05d9 9B000000 		.4byte	0x9b
 1897 05dd 0A       		.byte	0xa
 1898 05de 07       		.uleb128 0x7
 1899 05df D3040000 		.4byte	.LASF89
 1900 05e3 0D       		.byte	0xd
 1901 05e4 2D       		.byte	0x2d
 1902 05e5 0D       		.byte	0xd
 1903 05e6 9B000000 		.4byte	0x9b
 1904 05ea 0B       		.byte	0xb
 1905 05eb 07       		.uleb128 0x7
 1906 05ec 6C050000 		.4byte	.LASF90
 1907 05f0 0D       		.byte	0xd
 1908 05f1 2E       		.byte	0x2e
 1909 05f2 0D       		.byte	0xd
 1910 05f3 9B000000 		.4byte	0x9b
 1911 05f7 0C       		.byte	0xc
 1912 05f8 07       		.uleb128 0x7
 1913 05f9 A4040000 		.4byte	.LASF91
 1914 05fd 0D       		.byte	0xd
 1915 05fe 2F       		.byte	0x2f
 1916 05ff 0D       		.byte	0xd
 1917 0600 9B000000 		.4byte	0x9b
 1918 0604 0D       		.byte	0xd
 1919 0605 07       		.uleb128 0x7
 1920 0606 00000000 		.4byte	.LASF92
 1921 060a 0D       		.byte	0xd
 1922 060b 30       		.byte	0x30
 1923 060c 0D       		.byte	0xd
 1924 060d 9B000000 		.4byte	0x9b
 1925 0611 0E       		.byte	0xe
 1926 0612 07       		.uleb128 0x7
 1927 0613 74030000 		.4byte	.LASF93
 1928 0617 0D       		.byte	0xd
 1929 0618 31       		.byte	0x31
 1930 0619 0D       		.byte	0xd
 1931 061a 9B000000 		.4byte	0x9b
 1932 061e 0F       		.byte	0xf
 1933 061f 07       		.uleb128 0x7
 1934 0620 AE000000 		.4byte	.LASF94
 1935 0624 0D       		.byte	0xd
 1936 0625 32       		.byte	0x32
 1937 0626 0D       		.byte	0xd
 1938 0627 9B000000 		.4byte	0x9b
ARM GAS  /var/folders/l5/0x54b2c10074c8bt31ycjvl80000gp/T//ccF3aQLQ.s 			page 35


 1939 062b 10       		.byte	0x10
 1940 062c 07       		.uleb128 0x7
 1941 062d 77000000 		.4byte	.LASF95
 1942 0631 0D       		.byte	0xd
 1943 0632 34       		.byte	0x34
 1944 0633 0D       		.byte	0xd
 1945 0634 9B000000 		.4byte	0x9b
 1946 0638 11       		.byte	0x11
 1947 0639 07       		.uleb128 0x7
 1948 063a BE000000 		.4byte	.LASF96
 1949 063e 0D       		.byte	0xd
 1950 063f 35       		.byte	0x35
 1951 0640 0D       		.byte	0xd
 1952 0641 9B000000 		.4byte	0x9b
 1953 0645 12       		.byte	0x12
 1954 0646 07       		.uleb128 0x7
 1955 0647 2C030000 		.4byte	.LASF97
 1956 064b 0D       		.byte	0xd
 1957 064c 36       		.byte	0x36
 1958 064d 0D       		.byte	0xd
 1959 064e 9B000000 		.4byte	0x9b
 1960 0652 13       		.byte	0x13
 1961 0653 07       		.uleb128 0x7
 1962 0654 86040000 		.4byte	.LASF98
 1963 0658 0D       		.byte	0xd
 1964 0659 37       		.byte	0x37
 1965 065a 0D       		.byte	0xd
 1966 065b 9B000000 		.4byte	0x9b
 1967 065f 14       		.byte	0x14
 1968 0660 07       		.uleb128 0x7
 1969 0661 5D040000 		.4byte	.LASF99
 1970 0665 0D       		.byte	0xd
 1971 0666 39       		.byte	0x39
 1972 0667 0D       		.byte	0xd
 1973 0668 9B000000 		.4byte	0x9b
 1974 066c 15       		.byte	0x15
 1975 066d 00       		.byte	0
 1976 066e 12       		.uleb128 0x12
 1977 066f 68050000 		.4byte	0x568
 1978 0673 7E060000 		.4byte	0x67e
 1979 0677 13       		.uleb128 0x13
 1980 0678 2C000000 		.4byte	0x2c
 1981 067c 03       		.byte	0x3
 1982 067d 00       		.byte	0
 1983 067e 04       		.uleb128 0x4
 1984 067f FF000000 		.4byte	.LASF100
 1985 0683 0D       		.byte	0xd
 1986 0684 3A       		.byte	0x3a
 1987 0685 03       		.byte	0x3
 1988 0686 7A050000 		.4byte	0x57a
 1989 068a 11       		.uleb128 0x11
 1990 068b 7E060000 		.4byte	0x67e
 1991 068f 0E       		.uleb128 0xe
 1992 0690 C7010000 		.4byte	.LASF101
 1993 0694 0D       		.byte	0xd
 1994 0695 77       		.byte	0x77
 1995 0696 1D       		.byte	0x1d
ARM GAS  /var/folders/l5/0x54b2c10074c8bt31ycjvl80000gp/T//ccF3aQLQ.s 			page 36


 1996 0697 8A060000 		.4byte	0x68a
 1997 069b 12       		.uleb128 0x12
 1998 069c B2020000 		.4byte	0x2b2
 1999 06a0 AB060000 		.4byte	0x6ab
 2000 06a4 13       		.uleb128 0x13
 2001 06a5 2C000000 		.4byte	0x2c
 2002 06a9 26       		.byte	0x26
 2003 06aa 00       		.byte	0
 2004 06ab 0E       		.uleb128 0xe
 2005 06ac 2B010000 		.4byte	.LASF102
 2006 06b0 0E       		.byte	0xe
 2007 06b1 82       		.byte	0x82
 2008 06b2 08       		.byte	0x8
 2009 06b3 9B060000 		.4byte	0x69b
 2010 06b7 14       		.uleb128 0x14
 2011 06b8 A1040000 		.4byte	0x4a1
 2012 06bc 01       		.byte	0x1
 2013 06bd 28       		.byte	0x28
 2014 06be 0B       		.byte	0xb
 2015 06bf 05       		.uleb128 0x5
 2016 06c0 03       		.byte	0x3
 2017 06c1 00000000 		.4byte	rlist
 2018 06c5 15       		.uleb128 0x15
 2019 06c6 70010000 		.4byte	.LASF103
 2020 06ca 01       		.byte	0x1
 2021 06cb 6301     		.2byte	0x163
 2022 06cd 06       		.byte	0x6
 2023 06ce 00000000 		.4byte	.LFB17
 2024 06d2 20000000 		.4byte	.LFE17-.LFB17
 2025 06d6 01       		.uleb128 0x1
 2026 06d7 9C       		.byte	0x9c
 2027 06d8 EF060000 		.4byte	0x6ef
 2028 06dc 16       		.uleb128 0x16
 2029 06dd 18000000 		.4byte	.LVL60
 2030 06e1 70070000 		.4byte	0x770
 2031 06e5 16       		.uleb128 0x16
 2032 06e6 1C000000 		.4byte	.LVL61
 2033 06ea EF060000 		.4byte	0x6ef
 2034 06ee 00       		.byte	0
 2035 06ef 15       		.uleb128 0x15
 2036 06f0 1A000000 		.4byte	.LASF104
 2037 06f4 01       		.byte	0x1
 2038 06f5 4201     		.2byte	0x142
 2039 06f7 06       		.byte	0x6
 2040 06f8 00000000 		.4byte	.LFB16
 2041 06fc 70000000 		.4byte	.LFE16-.LFB16
 2042 0700 01       		.uleb128 0x1
 2043 0701 9C       		.byte	0x9c
 2044 0702 70070000 		.4byte	0x770
 2045 0706 17       		.uleb128 0x17
 2046 0707 6F747000 		.ascii	"otp\000"
 2047 070b 01       		.byte	0x1
 2048 070c 4301     		.2byte	0x143
 2049 070e 0B       		.byte	0xb
 2050 070f 7D020000 		.4byte	0x27d
 2051 0713 02000000 		.4byte	.LLST28
 2052 0717 00000000 		.4byte	.LVUS28
ARM GAS  /var/folders/l5/0x54b2c10074c8bt31ycjvl80000gp/T//ccF3aQLQ.s 			page 37


 2053 071b 17       		.uleb128 0x17
 2054 071c 637000   		.ascii	"cp\000"
 2055 071f 01       		.byte	0x1
 2056 0720 4301     		.2byte	0x143
 2057 0722 11       		.byte	0x11
 2058 0723 7D020000 		.4byte	0x27d
 2059 0727 17000000 		.4byte	.LLST29
 2060 072b 15000000 		.4byte	.LVUS29
 2061 072f 18       		.uleb128 0x18
 2062 0730 FE0A0000 		.4byte	0xafe
 2063 0734 18000000 		.4byte	.LBI84
 2064 0738 01       		.byte	.LVU317
 2065 0739 00010000 		.4byte	.Ldebug_ranges0+0x100
 2066 073d 01       		.byte	0x1
 2067 073e 4701     		.2byte	0x147
 2068 0740 03       		.byte	0x3
 2069 0741 66070000 		.4byte	0x766
 2070 0745 19       		.uleb128 0x19
 2071 0746 0F0B0000 		.4byte	0xb0f
 2072 074a 31000000 		.4byte	.LLST30
 2073 074e 2F000000 		.4byte	.LVUS30
 2074 0752 1A       		.uleb128 0x1a
 2075 0753 00010000 		.4byte	.Ldebug_ranges0+0x100
 2076 0757 1B       		.uleb128 0x1b
 2077 0758 1B0B0000 		.4byte	0xb1b
 2078 075c 4B000000 		.4byte	.LLST31
 2079 0760 49000000 		.4byte	.LVUS31
 2080 0764 00       		.byte	0
 2081 0765 00       		.byte	0
 2082 0766 16       		.uleb128 0x16
 2083 0767 6C000000 		.4byte	.LVL58
 2084 076b 2F0C0000 		.4byte	0xc2f
 2085 076f 00       		.byte	0
 2086 0770 15       		.uleb128 0x15
 2087 0771 5C030000 		.4byte	.LASF105
 2088 0775 01       		.byte	0x1
 2089 0776 2901     		.2byte	0x129
 2090 0778 06       		.byte	0x6
 2091 0779 00000000 		.4byte	.LFB15
 2092 077d 78000000 		.4byte	.LFE15-.LFB15
 2093 0781 01       		.uleb128 0x1
 2094 0782 9C       		.byte	0x9c
 2095 0783 14080000 		.4byte	0x814
 2096 0787 17       		.uleb128 0x17
 2097 0788 6F747000 		.ascii	"otp\000"
 2098 078c 01       		.byte	0x1
 2099 078d 2A01     		.2byte	0x12a
 2100 078f 0B       		.byte	0xb
 2101 0790 7D020000 		.4byte	0x27d
 2102 0794 60000000 		.4byte	.LLST23
 2103 0798 5E000000 		.4byte	.LVUS23
 2104 079c 18       		.uleb128 0x18
 2105 079d A70A0000 		.4byte	0xaa7
 2106 07a1 3C000000 		.4byte	.LBI66
 2107 07a5 01       		.byte	.LVU277
 2108 07a6 A8000000 		.4byte	.Ldebug_ranges0+0xa8
 2109 07aa 01       		.byte	0x1
ARM GAS  /var/folders/l5/0x54b2c10074c8bt31ycjvl80000gp/T//ccF3aQLQ.s 			page 38


 2110 07ab 3301     		.2byte	0x133
 2111 07ad 03       		.byte	0x3
 2112 07ae D3070000 		.4byte	0x7d3
 2113 07b2 19       		.uleb128 0x19
 2114 07b3 B80A0000 		.4byte	0xab8
 2115 07b7 75000000 		.4byte	.LLST24
 2116 07bb 73000000 		.4byte	.LVUS24
 2117 07bf 1A       		.uleb128 0x1a
 2118 07c0 A8000000 		.4byte	.Ldebug_ranges0+0xa8
 2119 07c4 1B       		.uleb128 0x1b
 2120 07c5 C30A0000 		.4byte	0xac3
 2121 07c9 8A000000 		.4byte	.LLST25
 2122 07cd 88000000 		.4byte	.LVUS25
 2123 07d1 00       		.byte	0
 2124 07d2 00       		.byte	0
 2125 07d3 18       		.uleb128 0x18
 2126 07d4 FE0A0000 		.4byte	0xafe
 2127 07d8 1C000000 		.4byte	.LBI72
 2128 07dc 01       		.byte	.LVU261
 2129 07dd D8000000 		.4byte	.Ldebug_ranges0+0xd8
 2130 07e1 01       		.byte	0x1
 2131 07e2 2E01     		.2byte	0x12e
 2132 07e4 03       		.byte	0x3
 2133 07e5 0A080000 		.4byte	0x80a
 2134 07e9 19       		.uleb128 0x19
 2135 07ea 0F0B0000 		.4byte	0xb0f
 2136 07ee A4000000 		.4byte	.LLST26
 2137 07f2 A2000000 		.4byte	.LVUS26
 2138 07f6 1A       		.uleb128 0x1a
 2139 07f7 D8000000 		.4byte	.Ldebug_ranges0+0xd8
 2140 07fb 1B       		.uleb128 0x1b
 2141 07fc 1B0B0000 		.4byte	0xb1b
 2142 0800 BE000000 		.4byte	.LLST27
 2143 0804 BC000000 		.4byte	.LVUS27
 2144 0808 00       		.byte	0
 2145 0809 00       		.byte	0
 2146 080a 16       		.uleb128 0x16
 2147 080b 74000000 		.4byte	.LVL53
 2148 080f 2F0C0000 		.4byte	0xc2f
 2149 0813 00       		.byte	0
 2150 0814 1C       		.uleb128 0x1c
 2151 0815 09010000 		.4byte	.LASF108
 2152 0819 01       		.byte	0x1
 2153 081a 0D01     		.2byte	0x10d
 2154 081c 08       		.byte	0x8
 2155 081d CB000000 		.4byte	0xcb
 2156 0821 00000000 		.4byte	.LFB14
 2157 0825 44000000 		.4byte	.LFE14-.LFB14
 2158 0829 01       		.uleb128 0x1
 2159 082a 9C       		.byte	0x9c
 2160 082b 58080000 		.4byte	0x858
 2161 082f 17       		.uleb128 0x17
 2162 0830 703100   		.ascii	"p1\000"
 2163 0833 01       		.byte	0x1
 2164 0834 0E01     		.2byte	0x10e
 2165 0836 0B       		.byte	0xb
 2166 0837 07010000 		.4byte	0x107
ARM GAS  /var/folders/l5/0x54b2c10074c8bt31ycjvl80000gp/T//ccF3aQLQ.s 			page 39


 2167 083b D9000000 		.4byte	.LLST21
 2168 083f D1000000 		.4byte	.LVUS21
 2169 0843 17       		.uleb128 0x17
 2170 0844 703200   		.ascii	"p2\000"
 2171 0847 01       		.byte	0x1
 2172 0848 0F01     		.2byte	0x10f
 2173 084a 0B       		.byte	0xb
 2174 084b 07010000 		.4byte	0x107
 2175 084f 11010000 		.4byte	.LLST22
 2176 0853 0F010000 		.4byte	.LVUS22
 2177 0857 00       		.byte	0
 2178 0858 1D       		.uleb128 0x1d
 2179 0859 43010000 		.4byte	.LASF106
 2180 085d 01       		.byte	0x1
 2181 085e F6       		.byte	0xf6
 2182 085f 06       		.byte	0x6
 2183 0860 00000000 		.4byte	.LFB13
 2184 0864 24000000 		.4byte	.LFE13-.LFB13
 2185 0868 01       		.uleb128 0x1
 2186 0869 9C       		.byte	0x9c
 2187 086a 78080000 		.4byte	0x878
 2188 086e 16       		.uleb128 0x16
 2189 086f 20000000 		.4byte	.LVL59
 2190 0873 EF060000 		.4byte	0x6ef
 2191 0877 00       		.byte	0
 2192 0878 1D       		.uleb128 0x1d
 2193 0879 08020000 		.4byte	.LASF107
 2194 087d 01       		.byte	0x1
 2195 087e DA       		.byte	0xda
 2196 087f 06       		.byte	0x6
 2197 0880 00000000 		.4byte	.LFB12
 2198 0884 AC000000 		.4byte	.LFE12-.LFB12
 2199 0888 01       		.uleb128 0x1
 2200 0889 9C       		.byte	0x9c
 2201 088a 56090000 		.4byte	0x956
 2202 088e 1E       		.uleb128 0x1e
 2203 088f 6E747000 		.ascii	"ntp\000"
 2204 0893 01       		.byte	0x1
 2205 0894 DA       		.byte	0xda
 2206 0895 1B       		.byte	0x1b
 2207 0896 7D020000 		.4byte	0x27d
 2208 089a 2A010000 		.4byte	.LLST14
 2209 089e 24010000 		.4byte	.LVUS14
 2210 08a2 1E       		.uleb128 0x1e
 2211 08a3 6D736700 		.ascii	"msg\000"
 2212 08a7 01       		.byte	0x1
 2213 08a8 DA       		.byte	0xda
 2214 08a9 26       		.byte	0x26
 2215 08aa 13010000 		.4byte	0x113
 2216 08ae 5C010000 		.4byte	.LLST15
 2217 08b2 56010000 		.4byte	.LVUS15
 2218 08b6 1F       		.uleb128 0x1f
 2219 08b7 70000000 		.4byte	.Ldebug_ranges0+0x70
 2220 08bb 1B090000 		.4byte	0x91b
 2221 08bf 20       		.uleb128 0x20
 2222 08c0 6F747000 		.ascii	"otp\000"
 2223 08c4 01       		.byte	0x1
ARM GAS  /var/folders/l5/0x54b2c10074c8bt31ycjvl80000gp/T//ccF3aQLQ.s 			page 40


 2224 08c5 E6       		.byte	0xe6
 2225 08c6 0D       		.byte	0xd
 2226 08c7 7D020000 		.4byte	0x27d
 2227 08cb 8D010000 		.4byte	.LLST18
 2228 08cf 89010000 		.4byte	.LVUS18
 2229 08d3 21       		.uleb128 0x21
 2230 08d4 A70A0000 		.4byte	0xaa7
 2231 08d8 58000000 		.4byte	.LBI59
 2232 08dc 01       		.byte	.LVU193
 2233 08dd 88000000 		.4byte	.Ldebug_ranges0+0x88
 2234 08e1 01       		.byte	0x1
 2235 08e2 E6       		.byte	0xe6
 2236 08e3 13       		.byte	0x13
 2237 08e4 09090000 		.4byte	0x909
 2238 08e8 19       		.uleb128 0x19
 2239 08e9 B80A0000 		.4byte	0xab8
 2240 08ed AD010000 		.4byte	.LLST19
 2241 08f1 AB010000 		.4byte	.LVUS19
 2242 08f5 1A       		.uleb128 0x1a
 2243 08f6 88000000 		.4byte	.Ldebug_ranges0+0x88
 2244 08fa 1B       		.uleb128 0x1b
 2245 08fb C30A0000 		.4byte	0xac3
 2246 08ff C4010000 		.4byte	.LLST20
 2247 0903 C0010000 		.4byte	.LVUS20
 2248 0907 00       		.byte	0
 2249 0908 00       		.byte	0
 2250 0909 22       		.uleb128 0x22
 2251 090a A8000000 		.4byte	.LVL41
 2252 090e 2F0C0000 		.4byte	0xc2f
 2253 0912 23       		.uleb128 0x23
 2254 0913 01       		.uleb128 0x1
 2255 0914 50       		.byte	0x50
 2256 0915 03       		.uleb128 0x3
 2257 0916 F3       		.byte	0xf3
 2258 0917 01       		.uleb128 0x1
 2259 0918 50       		.byte	0x50
 2260 0919 00       		.byte	0
 2261 091a 00       		.byte	0
 2262 091b 24       		.uleb128 0x24
 2263 091c A70A0000 		.4byte	0xaa7
 2264 0920 24000000 		.4byte	.LBI56
 2265 0924 01       		.byte	.LVU168
 2266 0925 24000000 		.4byte	.LBB56
 2267 0929 30000000 		.4byte	.LBE56-.LBB56
 2268 092d 01       		.byte	0x1
 2269 092e E4       		.byte	0xe4
 2270 092f 05       		.byte	0x5
 2271 0930 19       		.uleb128 0x19
 2272 0931 B80A0000 		.4byte	0xab8
 2273 0935 E5010000 		.4byte	.LLST16
 2274 0939 E3010000 		.4byte	.LVUS16
 2275 093d 25       		.uleb128 0x25
 2276 093e 24000000 		.4byte	.LBB57
 2277 0942 30000000 		.4byte	.LBE57-.LBB57
 2278 0946 1B       		.uleb128 0x1b
 2279 0947 C30A0000 		.4byte	0xac3
 2280 094b FC010000 		.4byte	.LLST17
ARM GAS  /var/folders/l5/0x54b2c10074c8bt31ycjvl80000gp/T//ccF3aQLQ.s 			page 41


 2281 094f F8010000 		.4byte	.LVUS17
 2282 0953 00       		.byte	0
 2283 0954 00       		.byte	0
 2284 0955 00       		.byte	0
 2285 0956 26       		.uleb128 0x26
 2286 0957 D7050000 		.4byte	.LASF109
 2287 095b 01       		.byte	0x1
 2288 095c B6       		.byte	0xb6
 2289 095d 07       		.byte	0x7
 2290 095e 13010000 		.4byte	0x113
 2291 0962 00000000 		.4byte	.LFB11
 2292 0966 74000000 		.4byte	.LFE11-.LFB11
 2293 096a 01       		.uleb128 0x1
 2294 096b 9C       		.byte	0x9c
 2295 096c 060A0000 		.4byte	0xa06
 2296 0970 27       		.uleb128 0x27
 2297 0971 2E040000 		.4byte	.LASF110
 2298 0975 01       		.byte	0x1
 2299 0976 B6       		.byte	0xb6
 2300 0977 25       		.byte	0x25
 2301 0978 E3000000 		.4byte	0xe3
 2302 097c 23020000 		.4byte	.LLST12
 2303 0980 1B020000 		.4byte	.LVUS12
 2304 0984 27       		.uleb128 0x27
 2305 0985 DF030000 		.4byte	.LASF111
 2306 0989 01       		.byte	0x1
 2307 098a B6       		.byte	0xb6
 2308 098b 39       		.byte	0x39
 2309 098c 2B010000 		.4byte	0x12b
 2310 0990 65020000 		.4byte	.LLST13
 2311 0994 5D020000 		.4byte	.LVUS13
 2312 0998 28       		.uleb128 0x28
 2313 0999 10000000 		.4byte	.LBB55
 2314 099d 34000000 		.4byte	.LBE55-.LBB55
 2315 09a1 FC090000 		.4byte	0x9fc
 2316 09a5 29       		.uleb128 0x29
 2317 09a6 767400   		.ascii	"vt\000"
 2318 09a9 01       		.byte	0x1
 2319 09aa BB       		.byte	0xbb
 2320 09ab 12       		.byte	0x12
 2321 09ac 86030000 		.4byte	0x386
 2322 09b0 02       		.uleb128 0x2
 2323 09b1 91       		.byte	0x91
 2324 09b2 5C       		.sleb128 -36
 2325 09b3 2A       		.uleb128 0x2a
 2326 09b4 28000000 		.4byte	.LVL22
 2327 09b8 3C0C0000 		.4byte	0xc3c
 2328 09bc D7090000 		.4byte	0x9d7
 2329 09c0 23       		.uleb128 0x23
 2330 09c1 01       		.uleb128 0x1
 2331 09c2 50       		.byte	0x50
 2332 09c3 02       		.uleb128 0x2
 2333 09c4 91       		.byte	0x91
 2334 09c5 54       		.sleb128 -44
 2335 09c6 23       		.uleb128 0x23
 2336 09c7 01       		.uleb128 0x1
 2337 09c8 51       		.byte	0x51
ARM GAS  /var/folders/l5/0x54b2c10074c8bt31ycjvl80000gp/T//ccF3aQLQ.s 			page 42


 2338 09c9 03       		.uleb128 0x3
 2339 09ca F3       		.byte	0xf3
 2340 09cb 01       		.uleb128 0x1
 2341 09cc 51       		.byte	0x51
 2342 09cd 23       		.uleb128 0x23
 2343 09ce 01       		.uleb128 0x1
 2344 09cf 52       		.byte	0x52
 2345 09d0 05       		.uleb128 0x5
 2346 09d1 03       		.byte	0x3
 2347 09d2 00000000 		.4byte	wakeup
 2348 09d6 00       		.byte	0
 2349 09d7 2A       		.uleb128 0x2a
 2350 09d8 30000000 		.4byte	.LVL23
 2351 09dc 290A0000 		.4byte	0xa29
 2352 09e0 EB090000 		.4byte	0x9eb
 2353 09e4 23       		.uleb128 0x23
 2354 09e5 01       		.uleb128 0x1
 2355 09e6 50       		.byte	0x50
 2356 09e7 02       		.uleb128 0x2
 2357 09e8 75       		.byte	0x75
 2358 09e9 00       		.sleb128 0
 2359 09ea 00       		.byte	0
 2360 09eb 2B       		.uleb128 0x2b
 2361 09ec 44000000 		.4byte	.LVL24
 2362 09f0 480C0000 		.4byte	0xc48
 2363 09f4 23       		.uleb128 0x23
 2364 09f5 01       		.uleb128 0x1
 2365 09f6 50       		.byte	0x50
 2366 09f7 02       		.uleb128 0x2
 2367 09f8 91       		.byte	0x91
 2368 09f9 54       		.sleb128 -44
 2369 09fa 00       		.byte	0
 2370 09fb 00       		.byte	0
 2371 09fc 2C       		.uleb128 0x2c
 2372 09fd 58000000 		.4byte	.LVL26
 2373 0a01 290A0000 		.4byte	0xa29
 2374 0a05 00       		.byte	0
 2375 0a06 2D       		.uleb128 0x2d
 2376 0a07 95010000 		.4byte	.LASF121
 2377 0a0b 01       		.byte	0x1
 2378 0a0c 81       		.byte	0x81
 2379 0a0d 0D       		.byte	0xd
 2380 0a0e 01       		.byte	0x1
 2381 0a0f 290A0000 		.4byte	0xa29
 2382 0a13 2E       		.uleb128 0x2e
 2383 0a14 7000     		.ascii	"p\000"
 2384 0a16 01       		.byte	0x1
 2385 0a17 81       		.byte	0x81
 2386 0a18 1A       		.byte	0x1a
 2387 0a19 CA020000 		.4byte	0x2ca
 2388 0a1d 2F       		.uleb128 0x2f
 2389 0a1e 747000   		.ascii	"tp\000"
 2390 0a21 01       		.byte	0x1
 2391 0a22 82       		.byte	0x82
 2392 0a23 0B       		.byte	0xb
 2393 0a24 7D020000 		.4byte	0x27d
 2394 0a28 00       		.byte	0
ARM GAS  /var/folders/l5/0x54b2c10074c8bt31ycjvl80000gp/T//ccF3aQLQ.s 			page 43


 2395 0a29 1D       		.uleb128 0x1d
 2396 0a2a B1040000 		.4byte	.LASF112
 2397 0a2e 01       		.byte	0x1
 2398 0a2f 6C       		.byte	0x6c
 2399 0a30 06       		.byte	0x6
 2400 0a31 00000000 		.4byte	.LFB9
 2401 0a35 44000000 		.4byte	.LFE9-.LFB9
 2402 0a39 01       		.uleb128 0x1
 2403 0a3a 9C       		.byte	0x9c
 2404 0a3b A70A0000 		.4byte	0xaa7
 2405 0a3f 27       		.uleb128 0x27
 2406 0a40 2E040000 		.4byte	.LASF110
 2407 0a44 01       		.byte	0x1
 2408 0a45 6C       		.byte	0x6c
 2409 0a46 1D       		.byte	0x1d
 2410 0a47 E3000000 		.4byte	0xe3
 2411 0a4b A5020000 		.4byte	.LLST8
 2412 0a4f 9F020000 		.4byte	.LVUS8
 2413 0a53 20       		.uleb128 0x20
 2414 0a54 6F747000 		.ascii	"otp\000"
 2415 0a58 01       		.byte	0x1
 2416 0a59 6D       		.byte	0x6d
 2417 0a5a 0B       		.byte	0xb
 2418 0a5b 7D020000 		.4byte	0x27d
 2419 0a5f D4020000 		.4byte	.LLST9
 2420 0a63 D2020000 		.4byte	.LVUS9
 2421 0a67 21       		.uleb128 0x21
 2422 0a68 FE0A0000 		.4byte	0xafe
 2423 0a6c 20000000 		.4byte	.LBI47
 2424 0a70 01       		.byte	.LVU111
 2425 0a71 48000000 		.4byte	.Ldebug_ranges0+0x48
 2426 0a75 01       		.byte	0x1
 2427 0a76 77       		.byte	0x77
 2428 0a77 03       		.byte	0x3
 2429 0a78 9D0A0000 		.4byte	0xa9d
 2430 0a7c 19       		.uleb128 0x19
 2431 0a7d 0F0B0000 		.4byte	0xb0f
 2432 0a81 E9020000 		.4byte	.LLST10
 2433 0a85 E7020000 		.4byte	.LVUS10
 2434 0a89 1A       		.uleb128 0x1a
 2435 0a8a 48000000 		.4byte	.Ldebug_ranges0+0x48
 2436 0a8e 1B       		.uleb128 0x1b
 2437 0a8f 1B0B0000 		.4byte	0xb1b
 2438 0a93 03030000 		.4byte	.LLST11
 2439 0a97 01030000 		.4byte	.LVUS11
 2440 0a9b 00       		.byte	0
 2441 0a9c 00       		.byte	0
 2442 0a9d 16       		.uleb128 0x16
 2443 0a9e 40000000 		.4byte	.LVL19
 2444 0aa2 2F0C0000 		.4byte	0xc2f
 2445 0aa6 00       		.byte	0
 2446 0aa7 30       		.uleb128 0x30
 2447 0aa8 10050000 		.4byte	.LASF122
 2448 0aac 01       		.byte	0x1
 2449 0aad 4A       		.byte	0x4a
 2450 0aae 09       		.byte	0x9
 2451 0aaf 7D020000 		.4byte	0x27d
ARM GAS  /var/folders/l5/0x54b2c10074c8bt31ycjvl80000gp/T//ccF3aQLQ.s 			page 44


 2452 0ab3 01       		.byte	0x1
 2453 0ab4 CF0A0000 		.4byte	0xacf
 2454 0ab8 2E       		.uleb128 0x2e
 2455 0ab9 747000   		.ascii	"tp\000"
 2456 0abc 01       		.byte	0x1
 2457 0abd 4A       		.byte	0x4a
 2458 0abe 1D       		.byte	0x1d
 2459 0abf 7D020000 		.4byte	0x27d
 2460 0ac3 2F       		.uleb128 0x2f
 2461 0ac4 637000   		.ascii	"cp\000"
 2462 0ac7 01       		.byte	0x1
 2463 0ac8 4B       		.byte	0x4b
 2464 0ac9 0B       		.byte	0xb
 2465 0aca 7D020000 		.4byte	0x27d
 2466 0ace 00       		.byte	0
 2467 0acf 31       		.uleb128 0x31
 2468 0ad0 84000000 		.4byte	.LASF123
 2469 0ad4 01       		.byte	0x1
 2470 0ad5 30       		.byte	0x30
 2471 0ad6 06       		.byte	0x6
 2472 0ad7 00000000 		.4byte	.LFB7
 2473 0adb 24000000 		.4byte	.LFE7-.LFB7
 2474 0adf 01       		.uleb128 0x1
 2475 0ae0 9C       		.byte	0x9c
 2476 0ae1 32       		.uleb128 0x32
 2477 0ae2 54030000 		.4byte	.LASF113
 2478 0ae6 02       		.byte	0x2
 2479 0ae7 42       		.byte	0x42
 2480 0ae8 17       		.byte	0x17
 2481 0ae9 7D020000 		.4byte	0x27d
 2482 0aed 03       		.byte	0x3
 2483 0aee FE0A0000 		.4byte	0xafe
 2484 0af2 2E       		.uleb128 0x2e
 2485 0af3 747000   		.ascii	"tp\000"
 2486 0af6 02       		.byte	0x2
 2487 0af7 42       		.byte	0x42
 2488 0af8 27       		.byte	0x27
 2489 0af9 7D020000 		.4byte	0x27d
 2490 0afd 00       		.byte	0
 2491 0afe 32       		.uleb128 0x32
 2492 0aff F9040000 		.4byte	.LASF114
 2493 0b03 02       		.byte	0x2
 2494 0b04 34       		.byte	0x34
 2495 0b05 17       		.byte	0x17
 2496 0b06 7D020000 		.4byte	0x27d
 2497 0b0a 03       		.byte	0x3
 2498 0b0b 270B0000 		.4byte	0xb27
 2499 0b0f 2E       		.uleb128 0x2e
 2500 0b10 74717000 		.ascii	"tqp\000"
 2501 0b14 02       		.byte	0x2
 2502 0b15 34       		.byte	0x34
 2503 0b16 31       		.byte	0x31
 2504 0b17 270B0000 		.4byte	0xb27
 2505 0b1b 2F       		.uleb128 0x2f
 2506 0b1c 747000   		.ascii	"tp\000"
 2507 0b1f 02       		.byte	0x2
 2508 0b20 35       		.byte	0x35
ARM GAS  /var/folders/l5/0x54b2c10074c8bt31ycjvl80000gp/T//ccF3aQLQ.s 			page 45


 2509 0b21 0B       		.byte	0xb
 2510 0b22 7D020000 		.4byte	0x27d
 2511 0b26 00       		.byte	0
 2512 0b27 0A       		.uleb128 0xa
 2513 0b28 04       		.byte	0x4
 2514 0b29 83020000 		.4byte	0x283
 2515 0b2d 33       		.uleb128 0x33
 2516 0b2e 060A0000 		.4byte	0xa06
 2517 0b32 00000000 		.4byte	.LFB10
 2518 0b36 B0000000 		.4byte	.LFE10-.LFB10
 2519 0b3a 01       		.uleb128 0x1
 2520 0b3b 9C       		.byte	0x9c
 2521 0b3c 010C0000 		.4byte	0xc01
 2522 0b40 34       		.uleb128 0x34
 2523 0b41 130A0000 		.4byte	0xa13
 2524 0b45 01       		.uleb128 0x1
 2525 0b46 50       		.byte	0x50
 2526 0b47 1B       		.uleb128 0x1b
 2527 0b48 1D0A0000 		.4byte	0xa1d
 2528 0b4c 18030000 		.4byte	.LLST0
 2529 0b50 16030000 		.4byte	.LVUS0
 2530 0b54 35       		.uleb128 0x35
 2531 0b55 E10A0000 		.4byte	0xae1
 2532 0b59 58000000 		.4byte	.LBI33
 2533 0b5d 01       		.byte	.LVU8
 2534 0b5e 58000000 		.4byte	.LBB33
 2535 0b62 10000000 		.4byte	.LBE33-.LBB33
 2536 0b66 01       		.byte	0x1
 2537 0b67 99       		.byte	0x99
 2538 0b68 05       		.byte	0x5
 2539 0b69 7B0B0000 		.4byte	0xb7b
 2540 0b6d 19       		.uleb128 0x19
 2541 0b6e F20A0000 		.4byte	0xaf2
 2542 0b72 2D030000 		.4byte	.LLST1
 2543 0b76 2B030000 		.4byte	.LVUS1
 2544 0b7a 00       		.byte	0
 2545 0b7b 21       		.uleb128 0x21
 2546 0b7c A70A0000 		.4byte	0xaa7
 2547 0b80 7C000000 		.4byte	.LBI35
 2548 0b84 01       		.byte	.LVU24
 2549 0b85 00000000 		.4byte	.Ldebug_ranges0+0
 2550 0b89 01       		.byte	0x1
 2551 0b8a 9D       		.byte	0x9d
 2552 0b8b 03       		.byte	0x3
 2553 0b8c B10B0000 		.4byte	0xbb1
 2554 0b90 19       		.uleb128 0x19
 2555 0b91 B80A0000 		.4byte	0xab8
 2556 0b95 42030000 		.4byte	.LLST2
 2557 0b99 40030000 		.4byte	.LVUS2
 2558 0b9d 1A       		.uleb128 0x1a
 2559 0b9e 00000000 		.4byte	.Ldebug_ranges0+0
 2560 0ba2 1B       		.uleb128 0x1b
 2561 0ba3 C30A0000 		.4byte	0xac3
 2562 0ba7 57030000 		.4byte	.LLST3
 2563 0bab 55030000 		.4byte	.LVUS3
 2564 0baf 00       		.byte	0
 2565 0bb0 00       		.byte	0
ARM GAS  /var/folders/l5/0x54b2c10074c8bt31ycjvl80000gp/T//ccF3aQLQ.s 			page 46


 2566 0bb1 36       		.uleb128 0x36
 2567 0bb2 060A0000 		.4byte	0xa06
 2568 0bb6 80000000 		.4byte	.LBI38
 2569 0bba 02       		.byte	.LVU34
 2570 0bbb 18000000 		.4byte	.Ldebug_ranges0+0x18
 2571 0bbf 01       		.byte	0x1
 2572 0bc0 81       		.byte	0x81
 2573 0bc1 0D       		.byte	0xd
 2574 0bc2 19       		.uleb128 0x19
 2575 0bc3 130A0000 		.4byte	0xa13
 2576 0bc7 71030000 		.4byte	.LLST4
 2577 0bcb 6F030000 		.4byte	.LVUS4
 2578 0bcf 1A       		.uleb128 0x1a
 2579 0bd0 30000000 		.4byte	.Ldebug_ranges0+0x30
 2580 0bd4 37       		.uleb128 0x37
 2581 0bd5 1D0A0000 		.4byte	0xa1d
 2582 0bd9 38       		.uleb128 0x38
 2583 0bda A70A0000 		.4byte	0xaa7
 2584 0bde 30000000 		.4byte	.Ldebug_ranges0+0x30
 2585 0be2 01       		.byte	0x1
 2586 0be3 9D       		.byte	0x9d
 2587 0be4 03       		.byte	0x3
 2588 0be5 39       		.uleb128 0x39
 2589 0be6 B80A0000 		.4byte	0xab8
 2590 0bea 1A       		.uleb128 0x1a
 2591 0beb 30000000 		.4byte	.Ldebug_ranges0+0x30
 2592 0bef 1B       		.uleb128 0x1b
 2593 0bf0 C30A0000 		.4byte	0xac3
 2594 0bf4 88030000 		.4byte	.LLST5
 2595 0bf8 84030000 		.4byte	.LVUS5
 2596 0bfc 00       		.byte	0
 2597 0bfd 00       		.byte	0
 2598 0bfe 00       		.byte	0
 2599 0bff 00       		.byte	0
 2600 0c00 00       		.byte	0
 2601 0c01 33       		.uleb128 0x33
 2602 0c02 A70A0000 		.4byte	0xaa7
 2603 0c06 00000000 		.4byte	.LFB8
 2604 0c0a 48000000 		.4byte	.LFE8-.LFB8
 2605 0c0e 01       		.uleb128 0x1
 2606 0c0f 9C       		.byte	0x9c
 2607 0c10 2F0C0000 		.4byte	0xc2f
 2608 0c14 19       		.uleb128 0x19
 2609 0c15 B80A0000 		.4byte	0xab8
 2610 0c19 AB030000 		.4byte	.LLST6
 2611 0c1d A7030000 		.4byte	.LVUS6
 2612 0c21 1B       		.uleb128 0x1b
 2613 0c22 C30A0000 		.4byte	0xac3
 2614 0c26 CD030000 		.4byte	.LLST7
 2615 0c2a C9030000 		.4byte	.LVUS7
 2616 0c2e 00       		.byte	0
 2617 0c2f 3A       		.uleb128 0x3a
 2618 0c30 A4010000 		.4byte	.LASF115
 2619 0c34 A4010000 		.4byte	.LASF115
 2620 0c38 08       		.byte	0x8
 2621 0c39 DA01     		.2byte	0x1da
 2622 0c3b 08       		.byte	0x8
ARM GAS  /var/folders/l5/0x54b2c10074c8bt31ycjvl80000gp/T//ccF3aQLQ.s 			page 47


 2623 0c3c 3B       		.uleb128 0x3b
 2624 0c3d 80030000 		.4byte	.LASF116
 2625 0c41 80030000 		.4byte	.LASF116
 2626 0c45 09       		.byte	0x9
 2627 0c46 DA       		.byte	0xda
 2628 0c47 08       		.byte	0x8
 2629 0c48 3B       		.uleb128 0x3b
 2630 0c49 7E050000 		.4byte	.LASF117
 2631 0c4d 7E050000 		.4byte	.LASF117
 2632 0c51 09       		.byte	0x9
 2633 0c52 DB       		.byte	0xdb
 2634 0c53 08       		.byte	0x8
 2635 0c54 00       		.byte	0
 2636              		.section	.debug_abbrev,"",%progbits
 2637              	.Ldebug_abbrev0:
 2638 0000 01       		.uleb128 0x1
 2639 0001 11       		.uleb128 0x11
 2640 0002 01       		.byte	0x1
 2641 0003 25       		.uleb128 0x25
 2642 0004 0E       		.uleb128 0xe
 2643 0005 13       		.uleb128 0x13
 2644 0006 0B       		.uleb128 0xb
 2645 0007 03       		.uleb128 0x3
 2646 0008 0E       		.uleb128 0xe
 2647 0009 1B       		.uleb128 0x1b
 2648 000a 0E       		.uleb128 0xe
 2649 000b 55       		.uleb128 0x55
 2650 000c 17       		.uleb128 0x17
 2651 000d 11       		.uleb128 0x11
 2652 000e 01       		.uleb128 0x1
 2653 000f 10       		.uleb128 0x10
 2654 0010 17       		.uleb128 0x17
 2655 0011 00       		.byte	0
 2656 0012 00       		.byte	0
 2657 0013 02       		.uleb128 0x2
 2658 0014 24       		.uleb128 0x24
 2659 0015 00       		.byte	0
 2660 0016 0B       		.uleb128 0xb
 2661 0017 0B       		.uleb128 0xb
 2662 0018 3E       		.uleb128 0x3e
 2663 0019 0B       		.uleb128 0xb
 2664 001a 03       		.uleb128 0x3
 2665 001b 08       		.uleb128 0x8
 2666 001c 00       		.byte	0
 2667 001d 00       		.byte	0
 2668 001e 03       		.uleb128 0x3
 2669 001f 24       		.uleb128 0x24
 2670 0020 00       		.byte	0
 2671 0021 0B       		.uleb128 0xb
 2672 0022 0B       		.uleb128 0xb
 2673 0023 3E       		.uleb128 0x3e
 2674 0024 0B       		.uleb128 0xb
 2675 0025 03       		.uleb128 0x3
 2676 0026 0E       		.uleb128 0xe
 2677 0027 00       		.byte	0
 2678 0028 00       		.byte	0
 2679 0029 04       		.uleb128 0x4
ARM GAS  /var/folders/l5/0x54b2c10074c8bt31ycjvl80000gp/T//ccF3aQLQ.s 			page 48


 2680 002a 16       		.uleb128 0x16
 2681 002b 00       		.byte	0
 2682 002c 03       		.uleb128 0x3
 2683 002d 0E       		.uleb128 0xe
 2684 002e 3A       		.uleb128 0x3a
 2685 002f 0B       		.uleb128 0xb
 2686 0030 3B       		.uleb128 0x3b
 2687 0031 0B       		.uleb128 0xb
 2688 0032 39       		.uleb128 0x39
 2689 0033 0B       		.uleb128 0xb
 2690 0034 49       		.uleb128 0x49
 2691 0035 13       		.uleb128 0x13
 2692 0036 00       		.byte	0
 2693 0037 00       		.byte	0
 2694 0038 05       		.uleb128 0x5
 2695 0039 35       		.uleb128 0x35
 2696 003a 00       		.byte	0
 2697 003b 49       		.uleb128 0x49
 2698 003c 13       		.uleb128 0x13
 2699 003d 00       		.byte	0
 2700 003e 00       		.byte	0
 2701 003f 06       		.uleb128 0x6
 2702 0040 13       		.uleb128 0x13
 2703 0041 01       		.byte	0x1
 2704 0042 03       		.uleb128 0x3
 2705 0043 0E       		.uleb128 0xe
 2706 0044 0B       		.uleb128 0xb
 2707 0045 0B       		.uleb128 0xb
 2708 0046 3A       		.uleb128 0x3a
 2709 0047 0B       		.uleb128 0xb
 2710 0048 3B       		.uleb128 0x3b
 2711 0049 0B       		.uleb128 0xb
 2712 004a 39       		.uleb128 0x39
 2713 004b 0B       		.uleb128 0xb
 2714 004c 01       		.uleb128 0x1
 2715 004d 13       		.uleb128 0x13
 2716 004e 00       		.byte	0
 2717 004f 00       		.byte	0
 2718 0050 07       		.uleb128 0x7
 2719 0051 0D       		.uleb128 0xd
 2720 0052 00       		.byte	0
 2721 0053 03       		.uleb128 0x3
 2722 0054 0E       		.uleb128 0xe
 2723 0055 3A       		.uleb128 0x3a
 2724 0056 0B       		.uleb128 0xb
 2725 0057 3B       		.uleb128 0x3b
 2726 0058 0B       		.uleb128 0xb
 2727 0059 39       		.uleb128 0x39
 2728 005a 0B       		.uleb128 0xb
 2729 005b 49       		.uleb128 0x49
 2730 005c 13       		.uleb128 0x13
 2731 005d 38       		.uleb128 0x38
 2732 005e 0B       		.uleb128 0xb
 2733 005f 00       		.byte	0
 2734 0060 00       		.byte	0
 2735 0061 08       		.uleb128 0x8
 2736 0062 0D       		.uleb128 0xd
ARM GAS  /var/folders/l5/0x54b2c10074c8bt31ycjvl80000gp/T//ccF3aQLQ.s 			page 49


 2737 0063 00       		.byte	0
 2738 0064 03       		.uleb128 0x3
 2739 0065 08       		.uleb128 0x8
 2740 0066 3A       		.uleb128 0x3a
 2741 0067 0B       		.uleb128 0xb
 2742 0068 3B       		.uleb128 0x3b
 2743 0069 0B       		.uleb128 0xb
 2744 006a 39       		.uleb128 0x39
 2745 006b 0B       		.uleb128 0xb
 2746 006c 49       		.uleb128 0x49
 2747 006d 13       		.uleb128 0x13
 2748 006e 38       		.uleb128 0x38
 2749 006f 0B       		.uleb128 0xb
 2750 0070 00       		.byte	0
 2751 0071 00       		.byte	0
 2752 0072 09       		.uleb128 0x9
 2753 0073 13       		.uleb128 0x13
 2754 0074 01       		.byte	0x1
 2755 0075 0B       		.uleb128 0xb
 2756 0076 0B       		.uleb128 0xb
 2757 0077 3A       		.uleb128 0x3a
 2758 0078 0B       		.uleb128 0xb
 2759 0079 3B       		.uleb128 0x3b
 2760 007a 0B       		.uleb128 0xb
 2761 007b 39       		.uleb128 0x39
 2762 007c 0B       		.uleb128 0xb
 2763 007d 01       		.uleb128 0x1
 2764 007e 13       		.uleb128 0x13
 2765 007f 00       		.byte	0
 2766 0080 00       		.byte	0
 2767 0081 0A       		.uleb128 0xa
 2768 0082 0F       		.uleb128 0xf
 2769 0083 00       		.byte	0
 2770 0084 0B       		.uleb128 0xb
 2771 0085 0B       		.uleb128 0xb
 2772 0086 49       		.uleb128 0x49
 2773 0087 13       		.uleb128 0x13
 2774 0088 00       		.byte	0
 2775 0089 00       		.byte	0
 2776 008a 0B       		.uleb128 0xb
 2777 008b 0F       		.uleb128 0xf
 2778 008c 00       		.byte	0
 2779 008d 0B       		.uleb128 0xb
 2780 008e 0B       		.uleb128 0xb
 2781 008f 00       		.byte	0
 2782 0090 00       		.byte	0
 2783 0091 0C       		.uleb128 0xc
 2784 0092 15       		.uleb128 0x15
 2785 0093 01       		.byte	0x1
 2786 0094 27       		.uleb128 0x27
 2787 0095 19       		.uleb128 0x19
 2788 0096 01       		.uleb128 0x1
 2789 0097 13       		.uleb128 0x13
 2790 0098 00       		.byte	0
 2791 0099 00       		.byte	0
 2792 009a 0D       		.uleb128 0xd
 2793 009b 05       		.uleb128 0x5
ARM GAS  /var/folders/l5/0x54b2c10074c8bt31ycjvl80000gp/T//ccF3aQLQ.s 			page 50


 2794 009c 00       		.byte	0
 2795 009d 49       		.uleb128 0x49
 2796 009e 13       		.uleb128 0x13
 2797 009f 00       		.byte	0
 2798 00a0 00       		.byte	0
 2799 00a1 0E       		.uleb128 0xe
 2800 00a2 34       		.uleb128 0x34
 2801 00a3 00       		.byte	0
 2802 00a4 03       		.uleb128 0x3
 2803 00a5 0E       		.uleb128 0xe
 2804 00a6 3A       		.uleb128 0x3a
 2805 00a7 0B       		.uleb128 0xb
 2806 00a8 3B       		.uleb128 0x3b
 2807 00a9 0B       		.uleb128 0xb
 2808 00aa 39       		.uleb128 0x39
 2809 00ab 0B       		.uleb128 0xb
 2810 00ac 49       		.uleb128 0x49
 2811 00ad 13       		.uleb128 0x13
 2812 00ae 3F       		.uleb128 0x3f
 2813 00af 19       		.uleb128 0x19
 2814 00b0 3C       		.uleb128 0x3c
 2815 00b1 19       		.uleb128 0x19
 2816 00b2 00       		.byte	0
 2817 00b3 00       		.byte	0
 2818 00b4 0F       		.uleb128 0xf
 2819 00b5 17       		.uleb128 0x17
 2820 00b6 01       		.byte	0x1
 2821 00b7 0B       		.uleb128 0xb
 2822 00b8 0B       		.uleb128 0xb
 2823 00b9 3A       		.uleb128 0x3a
 2824 00ba 0B       		.uleb128 0xb
 2825 00bb 3B       		.uleb128 0x3b
 2826 00bc 0B       		.uleb128 0xb
 2827 00bd 39       		.uleb128 0x39
 2828 00be 0B       		.uleb128 0xb
 2829 00bf 01       		.uleb128 0x1
 2830 00c0 13       		.uleb128 0x13
 2831 00c1 00       		.byte	0
 2832 00c2 00       		.byte	0
 2833 00c3 10       		.uleb128 0x10
 2834 00c4 0D       		.uleb128 0xd
 2835 00c5 00       		.byte	0
 2836 00c6 03       		.uleb128 0x3
 2837 00c7 0E       		.uleb128 0xe
 2838 00c8 3A       		.uleb128 0x3a
 2839 00c9 0B       		.uleb128 0xb
 2840 00ca 3B       		.uleb128 0x3b
 2841 00cb 0B       		.uleb128 0xb
 2842 00cc 39       		.uleb128 0x39
 2843 00cd 0B       		.uleb128 0xb
 2844 00ce 49       		.uleb128 0x49
 2845 00cf 13       		.uleb128 0x13
 2846 00d0 00       		.byte	0
 2847 00d1 00       		.byte	0
 2848 00d2 11       		.uleb128 0x11
 2849 00d3 26       		.uleb128 0x26
 2850 00d4 00       		.byte	0
ARM GAS  /var/folders/l5/0x54b2c10074c8bt31ycjvl80000gp/T//ccF3aQLQ.s 			page 51


 2851 00d5 49       		.uleb128 0x49
 2852 00d6 13       		.uleb128 0x13
 2853 00d7 00       		.byte	0
 2854 00d8 00       		.byte	0
 2855 00d9 12       		.uleb128 0x12
 2856 00da 01       		.uleb128 0x1
 2857 00db 01       		.byte	0x1
 2858 00dc 49       		.uleb128 0x49
 2859 00dd 13       		.uleb128 0x13
 2860 00de 01       		.uleb128 0x1
 2861 00df 13       		.uleb128 0x13
 2862 00e0 00       		.byte	0
 2863 00e1 00       		.byte	0
 2864 00e2 13       		.uleb128 0x13
 2865 00e3 21       		.uleb128 0x21
 2866 00e4 00       		.byte	0
 2867 00e5 49       		.uleb128 0x49
 2868 00e6 13       		.uleb128 0x13
 2869 00e7 2F       		.uleb128 0x2f
 2870 00e8 0B       		.uleb128 0xb
 2871 00e9 00       		.byte	0
 2872 00ea 00       		.byte	0
 2873 00eb 14       		.uleb128 0x14
 2874 00ec 34       		.uleb128 0x34
 2875 00ed 00       		.byte	0
 2876 00ee 47       		.uleb128 0x47
 2877 00ef 13       		.uleb128 0x13
 2878 00f0 3A       		.uleb128 0x3a
 2879 00f1 0B       		.uleb128 0xb
 2880 00f2 3B       		.uleb128 0x3b
 2881 00f3 0B       		.uleb128 0xb
 2882 00f4 39       		.uleb128 0x39
 2883 00f5 0B       		.uleb128 0xb
 2884 00f6 02       		.uleb128 0x2
 2885 00f7 18       		.uleb128 0x18
 2886 00f8 00       		.byte	0
 2887 00f9 00       		.byte	0
 2888 00fa 15       		.uleb128 0x15
 2889 00fb 2E       		.uleb128 0x2e
 2890 00fc 01       		.byte	0x1
 2891 00fd 3F       		.uleb128 0x3f
 2892 00fe 19       		.uleb128 0x19
 2893 00ff 03       		.uleb128 0x3
 2894 0100 0E       		.uleb128 0xe
 2895 0101 3A       		.uleb128 0x3a
 2896 0102 0B       		.uleb128 0xb
 2897 0103 3B       		.uleb128 0x3b
 2898 0104 05       		.uleb128 0x5
 2899 0105 39       		.uleb128 0x39
 2900 0106 0B       		.uleb128 0xb
 2901 0107 27       		.uleb128 0x27
 2902 0108 19       		.uleb128 0x19
 2903 0109 11       		.uleb128 0x11
 2904 010a 01       		.uleb128 0x1
 2905 010b 12       		.uleb128 0x12
 2906 010c 06       		.uleb128 0x6
 2907 010d 40       		.uleb128 0x40
ARM GAS  /var/folders/l5/0x54b2c10074c8bt31ycjvl80000gp/T//ccF3aQLQ.s 			page 52


 2908 010e 18       		.uleb128 0x18
 2909 010f 9742     		.uleb128 0x2117
 2910 0111 19       		.uleb128 0x19
 2911 0112 01       		.uleb128 0x1
 2912 0113 13       		.uleb128 0x13
 2913 0114 00       		.byte	0
 2914 0115 00       		.byte	0
 2915 0116 16       		.uleb128 0x16
 2916 0117 898201   		.uleb128 0x4109
 2917 011a 00       		.byte	0
 2918 011b 11       		.uleb128 0x11
 2919 011c 01       		.uleb128 0x1
 2920 011d 9542     		.uleb128 0x2115
 2921 011f 19       		.uleb128 0x19
 2922 0120 31       		.uleb128 0x31
 2923 0121 13       		.uleb128 0x13
 2924 0122 00       		.byte	0
 2925 0123 00       		.byte	0
 2926 0124 17       		.uleb128 0x17
 2927 0125 34       		.uleb128 0x34
 2928 0126 00       		.byte	0
 2929 0127 03       		.uleb128 0x3
 2930 0128 08       		.uleb128 0x8
 2931 0129 3A       		.uleb128 0x3a
 2932 012a 0B       		.uleb128 0xb
 2933 012b 3B       		.uleb128 0x3b
 2934 012c 05       		.uleb128 0x5
 2935 012d 39       		.uleb128 0x39
 2936 012e 0B       		.uleb128 0xb
 2937 012f 49       		.uleb128 0x49
 2938 0130 13       		.uleb128 0x13
 2939 0131 02       		.uleb128 0x2
 2940 0132 17       		.uleb128 0x17
 2941 0133 B742     		.uleb128 0x2137
 2942 0135 17       		.uleb128 0x17
 2943 0136 00       		.byte	0
 2944 0137 00       		.byte	0
 2945 0138 18       		.uleb128 0x18
 2946 0139 1D       		.uleb128 0x1d
 2947 013a 01       		.byte	0x1
 2948 013b 31       		.uleb128 0x31
 2949 013c 13       		.uleb128 0x13
 2950 013d 52       		.uleb128 0x52
 2951 013e 01       		.uleb128 0x1
 2952 013f B842     		.uleb128 0x2138
 2953 0141 0B       		.uleb128 0xb
 2954 0142 55       		.uleb128 0x55
 2955 0143 17       		.uleb128 0x17
 2956 0144 58       		.uleb128 0x58
 2957 0145 0B       		.uleb128 0xb
 2958 0146 59       		.uleb128 0x59
 2959 0147 05       		.uleb128 0x5
 2960 0148 57       		.uleb128 0x57
 2961 0149 0B       		.uleb128 0xb
 2962 014a 01       		.uleb128 0x1
 2963 014b 13       		.uleb128 0x13
 2964 014c 00       		.byte	0
ARM GAS  /var/folders/l5/0x54b2c10074c8bt31ycjvl80000gp/T//ccF3aQLQ.s 			page 53


 2965 014d 00       		.byte	0
 2966 014e 19       		.uleb128 0x19
 2967 014f 05       		.uleb128 0x5
 2968 0150 00       		.byte	0
 2969 0151 31       		.uleb128 0x31
 2970 0152 13       		.uleb128 0x13
 2971 0153 02       		.uleb128 0x2
 2972 0154 17       		.uleb128 0x17
 2973 0155 B742     		.uleb128 0x2137
 2974 0157 17       		.uleb128 0x17
 2975 0158 00       		.byte	0
 2976 0159 00       		.byte	0
 2977 015a 1A       		.uleb128 0x1a
 2978 015b 0B       		.uleb128 0xb
 2979 015c 01       		.byte	0x1
 2980 015d 55       		.uleb128 0x55
 2981 015e 17       		.uleb128 0x17
 2982 015f 00       		.byte	0
 2983 0160 00       		.byte	0
 2984 0161 1B       		.uleb128 0x1b
 2985 0162 34       		.uleb128 0x34
 2986 0163 00       		.byte	0
 2987 0164 31       		.uleb128 0x31
 2988 0165 13       		.uleb128 0x13
 2989 0166 02       		.uleb128 0x2
 2990 0167 17       		.uleb128 0x17
 2991 0168 B742     		.uleb128 0x2137
 2992 016a 17       		.uleb128 0x17
 2993 016b 00       		.byte	0
 2994 016c 00       		.byte	0
 2995 016d 1C       		.uleb128 0x1c
 2996 016e 2E       		.uleb128 0x2e
 2997 016f 01       		.byte	0x1
 2998 0170 3F       		.uleb128 0x3f
 2999 0171 19       		.uleb128 0x19
 3000 0172 03       		.uleb128 0x3
 3001 0173 0E       		.uleb128 0xe
 3002 0174 3A       		.uleb128 0x3a
 3003 0175 0B       		.uleb128 0xb
 3004 0176 3B       		.uleb128 0x3b
 3005 0177 05       		.uleb128 0x5
 3006 0178 39       		.uleb128 0x39
 3007 0179 0B       		.uleb128 0xb
 3008 017a 27       		.uleb128 0x27
 3009 017b 19       		.uleb128 0x19
 3010 017c 49       		.uleb128 0x49
 3011 017d 13       		.uleb128 0x13
 3012 017e 11       		.uleb128 0x11
 3013 017f 01       		.uleb128 0x1
 3014 0180 12       		.uleb128 0x12
 3015 0181 06       		.uleb128 0x6
 3016 0182 40       		.uleb128 0x40
 3017 0183 18       		.uleb128 0x18
 3018 0184 9742     		.uleb128 0x2117
 3019 0186 19       		.uleb128 0x19
 3020 0187 01       		.uleb128 0x1
 3021 0188 13       		.uleb128 0x13
ARM GAS  /var/folders/l5/0x54b2c10074c8bt31ycjvl80000gp/T//ccF3aQLQ.s 			page 54


 3022 0189 00       		.byte	0
 3023 018a 00       		.byte	0
 3024 018b 1D       		.uleb128 0x1d
 3025 018c 2E       		.uleb128 0x2e
 3026 018d 01       		.byte	0x1
 3027 018e 3F       		.uleb128 0x3f
 3028 018f 19       		.uleb128 0x19
 3029 0190 03       		.uleb128 0x3
 3030 0191 0E       		.uleb128 0xe
 3031 0192 3A       		.uleb128 0x3a
 3032 0193 0B       		.uleb128 0xb
 3033 0194 3B       		.uleb128 0x3b
 3034 0195 0B       		.uleb128 0xb
 3035 0196 39       		.uleb128 0x39
 3036 0197 0B       		.uleb128 0xb
 3037 0198 27       		.uleb128 0x27
 3038 0199 19       		.uleb128 0x19
 3039 019a 11       		.uleb128 0x11
 3040 019b 01       		.uleb128 0x1
 3041 019c 12       		.uleb128 0x12
 3042 019d 06       		.uleb128 0x6
 3043 019e 40       		.uleb128 0x40
 3044 019f 18       		.uleb128 0x18
 3045 01a0 9742     		.uleb128 0x2117
 3046 01a2 19       		.uleb128 0x19
 3047 01a3 01       		.uleb128 0x1
 3048 01a4 13       		.uleb128 0x13
 3049 01a5 00       		.byte	0
 3050 01a6 00       		.byte	0
 3051 01a7 1E       		.uleb128 0x1e
 3052 01a8 05       		.uleb128 0x5
 3053 01a9 00       		.byte	0
 3054 01aa 03       		.uleb128 0x3
 3055 01ab 08       		.uleb128 0x8
 3056 01ac 3A       		.uleb128 0x3a
 3057 01ad 0B       		.uleb128 0xb
 3058 01ae 3B       		.uleb128 0x3b
 3059 01af 0B       		.uleb128 0xb
 3060 01b0 39       		.uleb128 0x39
 3061 01b1 0B       		.uleb128 0xb
 3062 01b2 49       		.uleb128 0x49
 3063 01b3 13       		.uleb128 0x13
 3064 01b4 02       		.uleb128 0x2
 3065 01b5 17       		.uleb128 0x17
 3066 01b6 B742     		.uleb128 0x2137
 3067 01b8 17       		.uleb128 0x17
 3068 01b9 00       		.byte	0
 3069 01ba 00       		.byte	0
 3070 01bb 1F       		.uleb128 0x1f
 3071 01bc 0B       		.uleb128 0xb
 3072 01bd 01       		.byte	0x1
 3073 01be 55       		.uleb128 0x55
 3074 01bf 17       		.uleb128 0x17
 3075 01c0 01       		.uleb128 0x1
 3076 01c1 13       		.uleb128 0x13
 3077 01c2 00       		.byte	0
 3078 01c3 00       		.byte	0
ARM GAS  /var/folders/l5/0x54b2c10074c8bt31ycjvl80000gp/T//ccF3aQLQ.s 			page 55


 3079 01c4 20       		.uleb128 0x20
 3080 01c5 34       		.uleb128 0x34
 3081 01c6 00       		.byte	0
 3082 01c7 03       		.uleb128 0x3
 3083 01c8 08       		.uleb128 0x8
 3084 01c9 3A       		.uleb128 0x3a
 3085 01ca 0B       		.uleb128 0xb
 3086 01cb 3B       		.uleb128 0x3b
 3087 01cc 0B       		.uleb128 0xb
 3088 01cd 39       		.uleb128 0x39
 3089 01ce 0B       		.uleb128 0xb
 3090 01cf 49       		.uleb128 0x49
 3091 01d0 13       		.uleb128 0x13
 3092 01d1 02       		.uleb128 0x2
 3093 01d2 17       		.uleb128 0x17
 3094 01d3 B742     		.uleb128 0x2137
 3095 01d5 17       		.uleb128 0x17
 3096 01d6 00       		.byte	0
 3097 01d7 00       		.byte	0
 3098 01d8 21       		.uleb128 0x21
 3099 01d9 1D       		.uleb128 0x1d
 3100 01da 01       		.byte	0x1
 3101 01db 31       		.uleb128 0x31
 3102 01dc 13       		.uleb128 0x13
 3103 01dd 52       		.uleb128 0x52
 3104 01de 01       		.uleb128 0x1
 3105 01df B842     		.uleb128 0x2138
 3106 01e1 0B       		.uleb128 0xb
 3107 01e2 55       		.uleb128 0x55
 3108 01e3 17       		.uleb128 0x17
 3109 01e4 58       		.uleb128 0x58
 3110 01e5 0B       		.uleb128 0xb
 3111 01e6 59       		.uleb128 0x59
 3112 01e7 0B       		.uleb128 0xb
 3113 01e8 57       		.uleb128 0x57
 3114 01e9 0B       		.uleb128 0xb
 3115 01ea 01       		.uleb128 0x1
 3116 01eb 13       		.uleb128 0x13
 3117 01ec 00       		.byte	0
 3118 01ed 00       		.byte	0
 3119 01ee 22       		.uleb128 0x22
 3120 01ef 898201   		.uleb128 0x4109
 3121 01f2 01       		.byte	0x1
 3122 01f3 11       		.uleb128 0x11
 3123 01f4 01       		.uleb128 0x1
 3124 01f5 9542     		.uleb128 0x2115
 3125 01f7 19       		.uleb128 0x19
 3126 01f8 31       		.uleb128 0x31
 3127 01f9 13       		.uleb128 0x13
 3128 01fa 00       		.byte	0
 3129 01fb 00       		.byte	0
 3130 01fc 23       		.uleb128 0x23
 3131 01fd 8A8201   		.uleb128 0x410a
 3132 0200 00       		.byte	0
 3133 0201 02       		.uleb128 0x2
 3134 0202 18       		.uleb128 0x18
 3135 0203 9142     		.uleb128 0x2111
ARM GAS  /var/folders/l5/0x54b2c10074c8bt31ycjvl80000gp/T//ccF3aQLQ.s 			page 56


 3136 0205 18       		.uleb128 0x18
 3137 0206 00       		.byte	0
 3138 0207 00       		.byte	0
 3139 0208 24       		.uleb128 0x24
 3140 0209 1D       		.uleb128 0x1d
 3141 020a 01       		.byte	0x1
 3142 020b 31       		.uleb128 0x31
 3143 020c 13       		.uleb128 0x13
 3144 020d 52       		.uleb128 0x52
 3145 020e 01       		.uleb128 0x1
 3146 020f B842     		.uleb128 0x2138
 3147 0211 0B       		.uleb128 0xb
 3148 0212 11       		.uleb128 0x11
 3149 0213 01       		.uleb128 0x1
 3150 0214 12       		.uleb128 0x12
 3151 0215 06       		.uleb128 0x6
 3152 0216 58       		.uleb128 0x58
 3153 0217 0B       		.uleb128 0xb
 3154 0218 59       		.uleb128 0x59
 3155 0219 0B       		.uleb128 0xb
 3156 021a 57       		.uleb128 0x57
 3157 021b 0B       		.uleb128 0xb
 3158 021c 00       		.byte	0
 3159 021d 00       		.byte	0
 3160 021e 25       		.uleb128 0x25
 3161 021f 0B       		.uleb128 0xb
 3162 0220 01       		.byte	0x1
 3163 0221 11       		.uleb128 0x11
 3164 0222 01       		.uleb128 0x1
 3165 0223 12       		.uleb128 0x12
 3166 0224 06       		.uleb128 0x6
 3167 0225 00       		.byte	0
 3168 0226 00       		.byte	0
 3169 0227 26       		.uleb128 0x26
 3170 0228 2E       		.uleb128 0x2e
 3171 0229 01       		.byte	0x1
 3172 022a 3F       		.uleb128 0x3f
 3173 022b 19       		.uleb128 0x19
 3174 022c 03       		.uleb128 0x3
 3175 022d 0E       		.uleb128 0xe
 3176 022e 3A       		.uleb128 0x3a
 3177 022f 0B       		.uleb128 0xb
 3178 0230 3B       		.uleb128 0x3b
 3179 0231 0B       		.uleb128 0xb
 3180 0232 39       		.uleb128 0x39
 3181 0233 0B       		.uleb128 0xb
 3182 0234 27       		.uleb128 0x27
 3183 0235 19       		.uleb128 0x19
 3184 0236 49       		.uleb128 0x49
 3185 0237 13       		.uleb128 0x13
 3186 0238 11       		.uleb128 0x11
 3187 0239 01       		.uleb128 0x1
 3188 023a 12       		.uleb128 0x12
 3189 023b 06       		.uleb128 0x6
 3190 023c 40       		.uleb128 0x40
 3191 023d 18       		.uleb128 0x18
 3192 023e 9742     		.uleb128 0x2117
ARM GAS  /var/folders/l5/0x54b2c10074c8bt31ycjvl80000gp/T//ccF3aQLQ.s 			page 57


 3193 0240 19       		.uleb128 0x19
 3194 0241 01       		.uleb128 0x1
 3195 0242 13       		.uleb128 0x13
 3196 0243 00       		.byte	0
 3197 0244 00       		.byte	0
 3198 0245 27       		.uleb128 0x27
 3199 0246 05       		.uleb128 0x5
 3200 0247 00       		.byte	0
 3201 0248 03       		.uleb128 0x3
 3202 0249 0E       		.uleb128 0xe
 3203 024a 3A       		.uleb128 0x3a
 3204 024b 0B       		.uleb128 0xb
 3205 024c 3B       		.uleb128 0x3b
 3206 024d 0B       		.uleb128 0xb
 3207 024e 39       		.uleb128 0x39
 3208 024f 0B       		.uleb128 0xb
 3209 0250 49       		.uleb128 0x49
 3210 0251 13       		.uleb128 0x13
 3211 0252 02       		.uleb128 0x2
 3212 0253 17       		.uleb128 0x17
 3213 0254 B742     		.uleb128 0x2137
 3214 0256 17       		.uleb128 0x17
 3215 0257 00       		.byte	0
 3216 0258 00       		.byte	0
 3217 0259 28       		.uleb128 0x28
 3218 025a 0B       		.uleb128 0xb
 3219 025b 01       		.byte	0x1
 3220 025c 11       		.uleb128 0x11
 3221 025d 01       		.uleb128 0x1
 3222 025e 12       		.uleb128 0x12
 3223 025f 06       		.uleb128 0x6
 3224 0260 01       		.uleb128 0x1
 3225 0261 13       		.uleb128 0x13
 3226 0262 00       		.byte	0
 3227 0263 00       		.byte	0
 3228 0264 29       		.uleb128 0x29
 3229 0265 34       		.uleb128 0x34
 3230 0266 00       		.byte	0
 3231 0267 03       		.uleb128 0x3
 3232 0268 08       		.uleb128 0x8
 3233 0269 3A       		.uleb128 0x3a
 3234 026a 0B       		.uleb128 0xb
 3235 026b 3B       		.uleb128 0x3b
 3236 026c 0B       		.uleb128 0xb
 3237 026d 39       		.uleb128 0x39
 3238 026e 0B       		.uleb128 0xb
 3239 026f 49       		.uleb128 0x49
 3240 0270 13       		.uleb128 0x13
 3241 0271 02       		.uleb128 0x2
 3242 0272 18       		.uleb128 0x18
 3243 0273 00       		.byte	0
 3244 0274 00       		.byte	0
 3245 0275 2A       		.uleb128 0x2a
 3246 0276 898201   		.uleb128 0x4109
 3247 0279 01       		.byte	0x1
 3248 027a 11       		.uleb128 0x11
 3249 027b 01       		.uleb128 0x1
ARM GAS  /var/folders/l5/0x54b2c10074c8bt31ycjvl80000gp/T//ccF3aQLQ.s 			page 58


 3250 027c 31       		.uleb128 0x31
 3251 027d 13       		.uleb128 0x13
 3252 027e 01       		.uleb128 0x1
 3253 027f 13       		.uleb128 0x13
 3254 0280 00       		.byte	0
 3255 0281 00       		.byte	0
 3256 0282 2B       		.uleb128 0x2b
 3257 0283 898201   		.uleb128 0x4109
 3258 0286 01       		.byte	0x1
 3259 0287 11       		.uleb128 0x11
 3260 0288 01       		.uleb128 0x1
 3261 0289 31       		.uleb128 0x31
 3262 028a 13       		.uleb128 0x13
 3263 028b 00       		.byte	0
 3264 028c 00       		.byte	0
 3265 028d 2C       		.uleb128 0x2c
 3266 028e 898201   		.uleb128 0x4109
 3267 0291 00       		.byte	0
 3268 0292 11       		.uleb128 0x11
 3269 0293 01       		.uleb128 0x1
 3270 0294 31       		.uleb128 0x31
 3271 0295 13       		.uleb128 0x13
 3272 0296 00       		.byte	0
 3273 0297 00       		.byte	0
 3274 0298 2D       		.uleb128 0x2d
 3275 0299 2E       		.uleb128 0x2e
 3276 029a 01       		.byte	0x1
 3277 029b 03       		.uleb128 0x3
 3278 029c 0E       		.uleb128 0xe
 3279 029d 3A       		.uleb128 0x3a
 3280 029e 0B       		.uleb128 0xb
 3281 029f 3B       		.uleb128 0x3b
 3282 02a0 0B       		.uleb128 0xb
 3283 02a1 39       		.uleb128 0x39
 3284 02a2 0B       		.uleb128 0xb
 3285 02a3 27       		.uleb128 0x27
 3286 02a4 19       		.uleb128 0x19
 3287 02a5 20       		.uleb128 0x20
 3288 02a6 0B       		.uleb128 0xb
 3289 02a7 01       		.uleb128 0x1
 3290 02a8 13       		.uleb128 0x13
 3291 02a9 00       		.byte	0
 3292 02aa 00       		.byte	0
 3293 02ab 2E       		.uleb128 0x2e
 3294 02ac 05       		.uleb128 0x5
 3295 02ad 00       		.byte	0
 3296 02ae 03       		.uleb128 0x3
 3297 02af 08       		.uleb128 0x8
 3298 02b0 3A       		.uleb128 0x3a
 3299 02b1 0B       		.uleb128 0xb
 3300 02b2 3B       		.uleb128 0x3b
 3301 02b3 0B       		.uleb128 0xb
 3302 02b4 39       		.uleb128 0x39
 3303 02b5 0B       		.uleb128 0xb
 3304 02b6 49       		.uleb128 0x49
 3305 02b7 13       		.uleb128 0x13
 3306 02b8 00       		.byte	0
ARM GAS  /var/folders/l5/0x54b2c10074c8bt31ycjvl80000gp/T//ccF3aQLQ.s 			page 59


 3307 02b9 00       		.byte	0
 3308 02ba 2F       		.uleb128 0x2f
 3309 02bb 34       		.uleb128 0x34
 3310 02bc 00       		.byte	0
 3311 02bd 03       		.uleb128 0x3
 3312 02be 08       		.uleb128 0x8
 3313 02bf 3A       		.uleb128 0x3a
 3314 02c0 0B       		.uleb128 0xb
 3315 02c1 3B       		.uleb128 0x3b
 3316 02c2 0B       		.uleb128 0xb
 3317 02c3 39       		.uleb128 0x39
 3318 02c4 0B       		.uleb128 0xb
 3319 02c5 49       		.uleb128 0x49
 3320 02c6 13       		.uleb128 0x13
 3321 02c7 00       		.byte	0
 3322 02c8 00       		.byte	0
 3323 02c9 30       		.uleb128 0x30
 3324 02ca 2E       		.uleb128 0x2e
 3325 02cb 01       		.byte	0x1
 3326 02cc 3F       		.uleb128 0x3f
 3327 02cd 19       		.uleb128 0x19
 3328 02ce 03       		.uleb128 0x3
 3329 02cf 0E       		.uleb128 0xe
 3330 02d0 3A       		.uleb128 0x3a
 3331 02d1 0B       		.uleb128 0xb
 3332 02d2 3B       		.uleb128 0x3b
 3333 02d3 0B       		.uleb128 0xb
 3334 02d4 39       		.uleb128 0x39
 3335 02d5 0B       		.uleb128 0xb
 3336 02d6 27       		.uleb128 0x27
 3337 02d7 19       		.uleb128 0x19
 3338 02d8 49       		.uleb128 0x49
 3339 02d9 13       		.uleb128 0x13
 3340 02da 20       		.uleb128 0x20
 3341 02db 0B       		.uleb128 0xb
 3342 02dc 01       		.uleb128 0x1
 3343 02dd 13       		.uleb128 0x13
 3344 02de 00       		.byte	0
 3345 02df 00       		.byte	0
 3346 02e0 31       		.uleb128 0x31
 3347 02e1 2E       		.uleb128 0x2e
 3348 02e2 00       		.byte	0
 3349 02e3 3F       		.uleb128 0x3f
 3350 02e4 19       		.uleb128 0x19
 3351 02e5 03       		.uleb128 0x3
 3352 02e6 0E       		.uleb128 0xe
 3353 02e7 3A       		.uleb128 0x3a
 3354 02e8 0B       		.uleb128 0xb
 3355 02e9 3B       		.uleb128 0x3b
 3356 02ea 0B       		.uleb128 0xb
 3357 02eb 39       		.uleb128 0x39
 3358 02ec 0B       		.uleb128 0xb
 3359 02ed 27       		.uleb128 0x27
 3360 02ee 19       		.uleb128 0x19
 3361 02ef 11       		.uleb128 0x11
 3362 02f0 01       		.uleb128 0x1
 3363 02f1 12       		.uleb128 0x12
ARM GAS  /var/folders/l5/0x54b2c10074c8bt31ycjvl80000gp/T//ccF3aQLQ.s 			page 60


 3364 02f2 06       		.uleb128 0x6
 3365 02f3 40       		.uleb128 0x40
 3366 02f4 18       		.uleb128 0x18
 3367 02f5 9742     		.uleb128 0x2117
 3368 02f7 19       		.uleb128 0x19
 3369 02f8 00       		.byte	0
 3370 02f9 00       		.byte	0
 3371 02fa 32       		.uleb128 0x32
 3372 02fb 2E       		.uleb128 0x2e
 3373 02fc 01       		.byte	0x1
 3374 02fd 03       		.uleb128 0x3
 3375 02fe 0E       		.uleb128 0xe
 3376 02ff 3A       		.uleb128 0x3a
 3377 0300 0B       		.uleb128 0xb
 3378 0301 3B       		.uleb128 0x3b
 3379 0302 0B       		.uleb128 0xb
 3380 0303 39       		.uleb128 0x39
 3381 0304 0B       		.uleb128 0xb
 3382 0305 27       		.uleb128 0x27
 3383 0306 19       		.uleb128 0x19
 3384 0307 49       		.uleb128 0x49
 3385 0308 13       		.uleb128 0x13
 3386 0309 20       		.uleb128 0x20
 3387 030a 0B       		.uleb128 0xb
 3388 030b 01       		.uleb128 0x1
 3389 030c 13       		.uleb128 0x13
 3390 030d 00       		.byte	0
 3391 030e 00       		.byte	0
 3392 030f 33       		.uleb128 0x33
 3393 0310 2E       		.uleb128 0x2e
 3394 0311 01       		.byte	0x1
 3395 0312 31       		.uleb128 0x31
 3396 0313 13       		.uleb128 0x13
 3397 0314 11       		.uleb128 0x11
 3398 0315 01       		.uleb128 0x1
 3399 0316 12       		.uleb128 0x12
 3400 0317 06       		.uleb128 0x6
 3401 0318 40       		.uleb128 0x40
 3402 0319 18       		.uleb128 0x18
 3403 031a 9742     		.uleb128 0x2117
 3404 031c 19       		.uleb128 0x19
 3405 031d 01       		.uleb128 0x1
 3406 031e 13       		.uleb128 0x13
 3407 031f 00       		.byte	0
 3408 0320 00       		.byte	0
 3409 0321 34       		.uleb128 0x34
 3410 0322 05       		.uleb128 0x5
 3411 0323 00       		.byte	0
 3412 0324 31       		.uleb128 0x31
 3413 0325 13       		.uleb128 0x13
 3414 0326 02       		.uleb128 0x2
 3415 0327 18       		.uleb128 0x18
 3416 0328 00       		.byte	0
 3417 0329 00       		.byte	0
 3418 032a 35       		.uleb128 0x35
 3419 032b 1D       		.uleb128 0x1d
 3420 032c 01       		.byte	0x1
ARM GAS  /var/folders/l5/0x54b2c10074c8bt31ycjvl80000gp/T//ccF3aQLQ.s 			page 61


 3421 032d 31       		.uleb128 0x31
 3422 032e 13       		.uleb128 0x13
 3423 032f 52       		.uleb128 0x52
 3424 0330 01       		.uleb128 0x1
 3425 0331 B842     		.uleb128 0x2138
 3426 0333 0B       		.uleb128 0xb
 3427 0334 11       		.uleb128 0x11
 3428 0335 01       		.uleb128 0x1
 3429 0336 12       		.uleb128 0x12
 3430 0337 06       		.uleb128 0x6
 3431 0338 58       		.uleb128 0x58
 3432 0339 0B       		.uleb128 0xb
 3433 033a 59       		.uleb128 0x59
 3434 033b 0B       		.uleb128 0xb
 3435 033c 57       		.uleb128 0x57
 3436 033d 0B       		.uleb128 0xb
 3437 033e 01       		.uleb128 0x1
 3438 033f 13       		.uleb128 0x13
 3439 0340 00       		.byte	0
 3440 0341 00       		.byte	0
 3441 0342 36       		.uleb128 0x36
 3442 0343 1D       		.uleb128 0x1d
 3443 0344 01       		.byte	0x1
 3444 0345 31       		.uleb128 0x31
 3445 0346 13       		.uleb128 0x13
 3446 0347 52       		.uleb128 0x52
 3447 0348 01       		.uleb128 0x1
 3448 0349 B842     		.uleb128 0x2138
 3449 034b 0B       		.uleb128 0xb
 3450 034c 55       		.uleb128 0x55
 3451 034d 17       		.uleb128 0x17
 3452 034e 58       		.uleb128 0x58
 3453 034f 0B       		.uleb128 0xb
 3454 0350 59       		.uleb128 0x59
 3455 0351 0B       		.uleb128 0xb
 3456 0352 57       		.uleb128 0x57
 3457 0353 0B       		.uleb128 0xb
 3458 0354 00       		.byte	0
 3459 0355 00       		.byte	0
 3460 0356 37       		.uleb128 0x37
 3461 0357 34       		.uleb128 0x34
 3462 0358 00       		.byte	0
 3463 0359 31       		.uleb128 0x31
 3464 035a 13       		.uleb128 0x13
 3465 035b 00       		.byte	0
 3466 035c 00       		.byte	0
 3467 035d 38       		.uleb128 0x38
 3468 035e 1D       		.uleb128 0x1d
 3469 035f 01       		.byte	0x1
 3470 0360 31       		.uleb128 0x31
 3471 0361 13       		.uleb128 0x13
 3472 0362 55       		.uleb128 0x55
 3473 0363 17       		.uleb128 0x17
 3474 0364 58       		.uleb128 0x58
 3475 0365 0B       		.uleb128 0xb
 3476 0366 59       		.uleb128 0x59
 3477 0367 0B       		.uleb128 0xb
ARM GAS  /var/folders/l5/0x54b2c10074c8bt31ycjvl80000gp/T//ccF3aQLQ.s 			page 62


 3478 0368 57       		.uleb128 0x57
 3479 0369 0B       		.uleb128 0xb
 3480 036a 00       		.byte	0
 3481 036b 00       		.byte	0
 3482 036c 39       		.uleb128 0x39
 3483 036d 05       		.uleb128 0x5
 3484 036e 00       		.byte	0
 3485 036f 31       		.uleb128 0x31
 3486 0370 13       		.uleb128 0x13
 3487 0371 00       		.byte	0
 3488 0372 00       		.byte	0
 3489 0373 3A       		.uleb128 0x3a
 3490 0374 2E       		.uleb128 0x2e
 3491 0375 00       		.byte	0
 3492 0376 3F       		.uleb128 0x3f
 3493 0377 19       		.uleb128 0x19
 3494 0378 3C       		.uleb128 0x3c
 3495 0379 19       		.uleb128 0x19
 3496 037a 6E       		.uleb128 0x6e
 3497 037b 0E       		.uleb128 0xe
 3498 037c 03       		.uleb128 0x3
 3499 037d 0E       		.uleb128 0xe
 3500 037e 3A       		.uleb128 0x3a
 3501 037f 0B       		.uleb128 0xb
 3502 0380 3B       		.uleb128 0x3b
 3503 0381 05       		.uleb128 0x5
 3504 0382 39       		.uleb128 0x39
 3505 0383 0B       		.uleb128 0xb
 3506 0384 00       		.byte	0
 3507 0385 00       		.byte	0
 3508 0386 3B       		.uleb128 0x3b
 3509 0387 2E       		.uleb128 0x2e
 3510 0388 00       		.byte	0
 3511 0389 3F       		.uleb128 0x3f
 3512 038a 19       		.uleb128 0x19
 3513 038b 3C       		.uleb128 0x3c
 3514 038c 19       		.uleb128 0x19
 3515 038d 6E       		.uleb128 0x6e
 3516 038e 0E       		.uleb128 0xe
 3517 038f 03       		.uleb128 0x3
 3518 0390 0E       		.uleb128 0xe
 3519 0391 3A       		.uleb128 0x3a
 3520 0392 0B       		.uleb128 0xb
 3521 0393 3B       		.uleb128 0x3b
 3522 0394 0B       		.uleb128 0xb
 3523 0395 39       		.uleb128 0x39
 3524 0396 0B       		.uleb128 0xb
 3525 0397 00       		.byte	0
 3526 0398 00       		.byte	0
 3527 0399 00       		.byte	0
 3528              		.section	.debug_loc,"",%progbits
 3529              	.Ldebug_loc0:
 3530              	.LVUS28:
 3531 0000 00       		.uleb128 .LVU316
 3532 0001 00       		.uleb128 .LVU351
 3533              	.LLST28:
 3534 0002 18000000 		.4byte	.LVL54
ARM GAS  /var/folders/l5/0x54b2c10074c8bt31ycjvl80000gp/T//ccF3aQLQ.s 			page 63


 3535 0006 6B000000 		.4byte	.LVL58-1
 3536 000a 0100     		.2byte	0x1
 3537 000c 51       		.byte	0x51
 3538 000d 00000000 		.4byte	0
 3539 0011 00000000 		.4byte	0
 3540              	.LVUS29:
 3541 0015 03       		.uleb128 .LVU333
 3542 0016 00       		.uleb128 .LVU334
 3543              	.LLST29:
 3544 0017 38000000 		.4byte	.LVL56
 3545 001b 3C000000 		.4byte	.LVL57
 3546 001f 0600     		.2byte	0x6
 3547 0021 03       		.byte	0x3
 3548 0022 00000000 		.4byte	rlist
 3549 0026 9F       		.byte	0x9f
 3550 0027 00000000 		.4byte	0
 3551 002b 00000000 		.4byte	0
 3552              	.LVUS30:
 3553 002f 01       		.uleb128 .LVU317
 3554 0030 01       		.uleb128 .LVU324
 3555              	.LLST30:
 3556 0031 18000000 		.4byte	.LVL54
 3557 0035 24000000 		.4byte	.LVL55
 3558 0039 0600     		.2byte	0x6
 3559 003b 03       		.byte	0x3
 3560 003c 00000000 		.4byte	rlist
 3561 0040 9F       		.byte	0x9f
 3562 0041 00000000 		.4byte	0
 3563 0045 00000000 		.4byte	0
 3564              	.LVUS31:
 3565 0049 03       		.uleb128 .LVU319
 3566 004a 01       		.uleb128 .LVU324
 3567              	.LLST31:
 3568 004b 18000000 		.4byte	.LVL54
 3569 004f 24000000 		.4byte	.LVL55
 3570 0053 0100     		.2byte	0x1
 3571 0055 50       		.byte	0x50
 3572 0056 00000000 		.4byte	0
 3573 005a 00000000 		.4byte	0
 3574              	.LVUS23:
 3575 005e 00       		.uleb128 .LVU260
 3576 005f 00       		.uleb128 .LVU306
 3577              	.LLST23:
 3578 0060 1C000000 		.4byte	.LVL47
 3579 0064 73000000 		.4byte	.LVL53-1
 3580 0068 0100     		.2byte	0x1
 3581 006a 51       		.byte	0x51
 3582 006b 00000000 		.4byte	0
 3583 006f 00000000 		.4byte	0
 3584              	.LVUS24:
 3585 0073 01       		.uleb128 .LVU277
 3586 0074 01       		.uleb128 .LVU301
 3587              	.LLST24:
 3588 0075 3C000000 		.4byte	.LVL49
 3589 0079 70000000 		.4byte	.LVL52
 3590 007d 0100     		.2byte	0x1
 3591 007f 51       		.byte	0x51
ARM GAS  /var/folders/l5/0x54b2c10074c8bt31ycjvl80000gp/T//ccF3aQLQ.s 			page 64


 3592 0080 00000000 		.4byte	0
 3593 0084 00000000 		.4byte	0
 3594              	.LVUS25:
 3595 0088 01       		.uleb128 .LVU286
 3596 0089 00       		.uleb128 .LVU287
 3597              	.LLST25:
 3598 008a 40000000 		.4byte	.LVL50
 3599 008e 44000000 		.4byte	.LVL51
 3600 0092 0600     		.2byte	0x6
 3601 0094 03       		.byte	0x3
 3602 0095 00000000 		.4byte	rlist
 3603 0099 9F       		.byte	0x9f
 3604 009a 00000000 		.4byte	0
 3605 009e 00000000 		.4byte	0
 3606              	.LVUS26:
 3607 00a2 01       		.uleb128 .LVU261
 3608 00a3 01       		.uleb128 .LVU268
 3609              	.LLST26:
 3610 00a4 1C000000 		.4byte	.LVL47
 3611 00a8 28000000 		.4byte	.LVL48
 3612 00ac 0600     		.2byte	0x6
 3613 00ae 03       		.byte	0x3
 3614 00af 00000000 		.4byte	rlist
 3615 00b3 9F       		.byte	0x9f
 3616 00b4 00000000 		.4byte	0
 3617 00b8 00000000 		.4byte	0
 3618              	.LVUS27:
 3619 00bc 03       		.uleb128 .LVU263
 3620 00bd 01       		.uleb128 .LVU268
 3621              	.LLST27:
 3622 00be 1C000000 		.4byte	.LVL47
 3623 00c2 28000000 		.4byte	.LVL48
 3624 00c6 0100     		.2byte	0x1
 3625 00c8 50       		.byte	0x50
 3626 00c9 00000000 		.4byte	0
 3627 00cd 00000000 		.4byte	0
 3628              	.LVUS21:
 3629 00d1 00       		.uleb128 .LVU240
 3630 00d2 00       		.uleb128 .LVU246
 3631 00d3 00       		.uleb128 .LVU246
 3632 00d4 00       		.uleb128 .LVU247
 3633 00d5 00       		.uleb128 .LVU247
 3634 00d6 00       		.uleb128 .LVU248
 3635 00d7 00       		.uleb128 .LVU248
 3636 00d8 00       		.uleb128 0
 3637              	.LLST21:
 3638 00d9 14000000 		.4byte	.LVL42
 3639 00dd 28000000 		.4byte	.LVL44
 3640 00e1 0100     		.2byte	0x1
 3641 00e3 50       		.byte	0x50
 3642 00e4 28000000 		.4byte	.LVL44
 3643 00e8 30000000 		.4byte	.LVL45
 3644 00ec 0200     		.2byte	0x2
 3645 00ee 71       		.byte	0x71
 3646 00ef 08       		.sleb128 8
 3647 00f0 30000000 		.4byte	.LVL45
 3648 00f4 38000000 		.4byte	.LVL46
ARM GAS  /var/folders/l5/0x54b2c10074c8bt31ycjvl80000gp/T//ccF3aQLQ.s 			page 65


 3649 00f8 0100     		.2byte	0x1
 3650 00fa 50       		.byte	0x50
 3651 00fb 38000000 		.4byte	.LVL46
 3652 00ff 44000000 		.4byte	.LFE14
 3653 0103 0200     		.2byte	0x2
 3654 0105 71       		.byte	0x71
 3655 0106 08       		.sleb128 8
 3656 0107 00000000 		.4byte	0
 3657 010b 00000000 		.4byte	0
 3658              	.LVUS22:
 3659 010f 00       		.uleb128 .LVU243
 3660 0110 00       		.uleb128 0
 3661              	.LLST22:
 3662 0111 1C000000 		.4byte	.LVL43
 3663 0115 44000000 		.4byte	.LFE14
 3664 0119 0100     		.2byte	0x1
 3665 011b 53       		.byte	0x53
 3666 011c 00000000 		.4byte	0
 3667 0120 00000000 		.4byte	0
 3668              	.LVUS14:
 3669 0124 00       		.uleb128 0
 3670 0125 00       		.uleb128 .LVU166
 3671 0126 00       		.uleb128 .LVU166
 3672 0127 00       		.uleb128 .LVU232
 3673 0128 00       		.uleb128 .LVU232
 3674 0129 00       		.uleb128 0
 3675              	.LLST14:
 3676 012a 00000000 		.4byte	.LVL27
 3677 012e 1C000000 		.4byte	.LVL28
 3678 0132 0100     		.2byte	0x1
 3679 0134 50       		.byte	0x50
 3680 0135 1C000000 		.4byte	.LVL28
 3681 0139 A7000000 		.4byte	.LVL41-1
 3682 013d 0100     		.2byte	0x1
 3683 013f 5C       		.byte	0x5c
 3684 0140 A7000000 		.4byte	.LVL41-1
 3685 0144 AC000000 		.4byte	.LFE12
 3686 0148 0400     		.2byte	0x4
 3687 014a F3       		.byte	0xf3
 3688 014b 01       		.uleb128 0x1
 3689 014c 50       		.byte	0x50
 3690 014d 9F       		.byte	0x9f
 3691 014e 00000000 		.4byte	0
 3692 0152 00000000 		.4byte	0
 3693              	.LVUS15:
 3694 0156 00       		.uleb128 0
 3695 0157 00       		.uleb128 .LVU201
 3696 0158 00       		.uleb128 .LVU201
 3697 0159 00       		.uleb128 .LVU203
 3698 015a 00       		.uleb128 .LVU203
 3699 015b 00       		.uleb128 0
 3700              	.LLST15:
 3701 015c 00000000 		.4byte	.LVL27
 3702 0160 5C000000 		.4byte	.LVL35
 3703 0164 0100     		.2byte	0x1
 3704 0166 51       		.byte	0x51
 3705 0167 5C000000 		.4byte	.LVL35
ARM GAS  /var/folders/l5/0x54b2c10074c8bt31ycjvl80000gp/T//ccF3aQLQ.s 			page 66


 3706 016b 64000000 		.4byte	.LVL36
 3707 016f 0200     		.2byte	0x2
 3708 0171 7C       		.byte	0x7c
 3709 0172 24       		.sleb128 36
 3710 0173 64000000 		.4byte	.LVL36
 3711 0177 AC000000 		.4byte	.LFE12
 3712 017b 0400     		.2byte	0x4
 3713 017d F3       		.byte	0xf3
 3714 017e 01       		.uleb128 0x1
 3715 017f 51       		.byte	0x51
 3716 0180 9F       		.byte	0x9f
 3717 0181 00000000 		.4byte	0
 3718 0185 00000000 		.4byte	0
 3719              	.LVUS18:
 3720 0189 01       		.uleb128 .LVU221
 3721 018a 00       		.uleb128 .LVU226
 3722 018b 00       		.uleb128 .LVU226
 3723 018c 00       		.uleb128 .LVU232
 3724              	.LLST18:
 3725 018d 94000000 		.4byte	.LVL39
 3726 0191 A0000000 		.4byte	.LVL40
 3727 0195 0100     		.2byte	0x1
 3728 0197 54       		.byte	0x54
 3729 0198 A0000000 		.4byte	.LVL40
 3730 019c A7000000 		.4byte	.LVL41-1
 3731 01a0 0100     		.2byte	0x1
 3732 01a2 51       		.byte	0x51
 3733 01a3 00000000 		.4byte	0
 3734 01a7 00000000 		.4byte	0
 3735              	.LVUS19:
 3736 01ab 01       		.uleb128 .LVU193
 3737 01ac 01       		.uleb128 .LVU221
 3738              	.LLST19:
 3739 01ad 58000000 		.4byte	.LVL34
 3740 01b1 94000000 		.4byte	.LVL39
 3741 01b5 0100     		.2byte	0x1
 3742 01b7 54       		.byte	0x54
 3743 01b8 00000000 		.4byte	0
 3744 01bc 00000000 		.4byte	0
 3745              	.LVUS20:
 3746 01c0 01       		.uleb128 .LVU204
 3747 01c1 00       		.uleb128 .LVU217
 3748 01c2 00       		.uleb128 .LVU217
 3749 01c3 00       		.uleb128 .LVU220
 3750              	.LLST20:
 3751 01c4 64000000 		.4byte	.LVL36
 3752 01c8 8C000000 		.4byte	.LVL38
 3753 01cc 0100     		.2byte	0x1
 3754 01ce 52       		.byte	0x52
 3755 01cf 8C000000 		.4byte	.LVL38
 3756 01d3 94000000 		.4byte	.LVL39
 3757 01d7 0200     		.2byte	0x2
 3758 01d9 74       		.byte	0x74
 3759 01da 00       		.sleb128 0
 3760 01db 00000000 		.4byte	0
 3761 01df 00000000 		.4byte	0
 3762              	.LVUS16:
ARM GAS  /var/folders/l5/0x54b2c10074c8bt31ycjvl80000gp/T//ccF3aQLQ.s 			page 67


 3763 01e3 01       		.uleb128 .LVU168
 3764 01e4 00       		.uleb128 .LVU192
 3765              	.LLST16:
 3766 01e5 24000000 		.4byte	.LVL29
 3767 01e9 58000000 		.4byte	.LVL34
 3768 01ed 0100     		.2byte	0x1
 3769 01ef 5C       		.byte	0x5c
 3770 01f0 00000000 		.4byte	0
 3771 01f4 00000000 		.4byte	0
 3772              	.LVUS17:
 3773 01f8 01       		.uleb128 .LVU177
 3774 01f9 00       		.uleb128 .LVU189
 3775 01fa 00       		.uleb128 .LVU189
 3776 01fb 00       		.uleb128 .LVU190
 3777              	.LLST17:
 3778 01fc 2C000000 		.4byte	.LVL30
 3779 0200 50000000 		.4byte	.LVL32
 3780 0204 0100     		.2byte	0x1
 3781 0206 53       		.byte	0x53
 3782 0207 50000000 		.4byte	.LVL32
 3783 020b 54000000 		.4byte	.LVL33
 3784 020f 0200     		.2byte	0x2
 3785 0211 7C       		.byte	0x7c
 3786 0212 00       		.sleb128 0
 3787 0213 00000000 		.4byte	0
 3788 0217 00000000 		.4byte	0
 3789              	.LVUS12:
 3790 021b 00       		.uleb128 0
 3791 021c 00       		.uleb128 .LVU141
 3792 021d 00       		.uleb128 .LVU141
 3793 021e 00       		.uleb128 .LVU149
 3794 021f 00       		.uleb128 .LVU149
 3795 0220 00       		.uleb128 .LVU150
 3796 0221 00       		.uleb128 .LVU150
 3797 0222 00       		.uleb128 0
 3798              	.LLST12:
 3799 0223 00000000 		.4byte	.LVL20
 3800 0227 1C000000 		.4byte	.LVL21
 3801 022b 0100     		.2byte	0x1
 3802 022d 50       		.byte	0x50
 3803 022e 1C000000 		.4byte	.LVL21
 3804 0232 54000000 		.4byte	.LVL25
 3805 0236 0400     		.2byte	0x4
 3806 0238 F3       		.byte	0xf3
 3807 0239 01       		.uleb128 0x1
 3808 023a 50       		.byte	0x50
 3809 023b 9F       		.byte	0x9f
 3810 023c 54000000 		.4byte	.LVL25
 3811 0240 57000000 		.4byte	.LVL26-1
 3812 0244 0100     		.2byte	0x1
 3813 0246 50       		.byte	0x50
 3814 0247 57000000 		.4byte	.LVL26-1
 3815 024b 74000000 		.4byte	.LFE11
 3816 024f 0400     		.2byte	0x4
 3817 0251 F3       		.byte	0xf3
 3818 0252 01       		.uleb128 0x1
 3819 0253 50       		.byte	0x50
ARM GAS  /var/folders/l5/0x54b2c10074c8bt31ycjvl80000gp/T//ccF3aQLQ.s 			page 68


 3820 0254 9F       		.byte	0x9f
 3821 0255 00000000 		.4byte	0
 3822 0259 00000000 		.4byte	0
 3823              	.LVUS13:
 3824 025d 00       		.uleb128 0
 3825 025e 00       		.uleb128 .LVU142
 3826 025f 00       		.uleb128 .LVU142
 3827 0260 00       		.uleb128 .LVU149
 3828 0261 00       		.uleb128 .LVU149
 3829 0262 00       		.uleb128 .LVU150
 3830 0263 00       		.uleb128 .LVU150
 3831 0264 00       		.uleb128 0
 3832              	.LLST13:
 3833 0265 00000000 		.4byte	.LVL20
 3834 0269 27000000 		.4byte	.LVL22-1
 3835 026d 0100     		.2byte	0x1
 3836 026f 51       		.byte	0x51
 3837 0270 27000000 		.4byte	.LVL22-1
 3838 0274 54000000 		.4byte	.LVL25
 3839 0278 0400     		.2byte	0x4
 3840 027a F3       		.byte	0xf3
 3841 027b 01       		.uleb128 0x1
 3842 027c 51       		.byte	0x51
 3843 027d 9F       		.byte	0x9f
 3844 027e 54000000 		.4byte	.LVL25
 3845 0282 57000000 		.4byte	.LVL26-1
 3846 0286 0100     		.2byte	0x1
 3847 0288 51       		.byte	0x51
 3848 0289 57000000 		.4byte	.LVL26-1
 3849 028d 74000000 		.4byte	.LFE11
 3850 0291 0400     		.2byte	0x4
 3851 0293 F3       		.byte	0xf3
 3852 0294 01       		.uleb128 0x1
 3853 0295 51       		.byte	0x51
 3854 0296 9F       		.byte	0x9f
 3855 0297 00000000 		.4byte	0
 3856 029b 00000000 		.4byte	0
 3857              	.LVUS8:
 3858 029f 00       		.uleb128 0
 3859 02a0 00       		.uleb128 .LVU116
 3860 02a1 00       		.uleb128 .LVU116
 3861 02a2 00       		.uleb128 .LVU117
 3862 02a3 00       		.uleb128 .LVU117
 3863 02a4 00       		.uleb128 0
 3864              	.LLST8:
 3865 02a5 00000000 		.4byte	.LVL14
 3866 02a9 28000000 		.4byte	.LVL17
 3867 02ad 0100     		.2byte	0x1
 3868 02af 50       		.byte	0x50
 3869 02b0 28000000 		.4byte	.LVL17
 3870 02b4 2C000000 		.4byte	.LVL18
 3871 02b8 0200     		.2byte	0x2
 3872 02ba 71       		.byte	0x71
 3873 02bb 1C       		.sleb128 28
 3874 02bc 2C000000 		.4byte	.LVL18
 3875 02c0 44000000 		.4byte	.LFE9
 3876 02c4 0400     		.2byte	0x4
ARM GAS  /var/folders/l5/0x54b2c10074c8bt31ycjvl80000gp/T//ccF3aQLQ.s 			page 69


 3877 02c6 F3       		.byte	0xf3
 3878 02c7 01       		.uleb128 0x1
 3879 02c8 50       		.byte	0x50
 3880 02c9 9F       		.byte	0x9f
 3881 02ca 00000000 		.4byte	0
 3882 02ce 00000000 		.4byte	0
 3883              	.LVUS9:
 3884 02d2 00       		.uleb128 .LVU106
 3885 02d3 00       		.uleb128 .LVU128
 3886              	.LLST9:
 3887 02d4 14000000 		.4byte	.LVL15
 3888 02d8 3F000000 		.4byte	.LVL19-1
 3889 02dc 0100     		.2byte	0x1
 3890 02de 51       		.byte	0x51
 3891 02df 00000000 		.4byte	0
 3892 02e3 00000000 		.4byte	0
 3893              	.LVUS10:
 3894 02e7 01       		.uleb128 .LVU111
 3895 02e8 01       		.uleb128 .LVU118
 3896              	.LLST10:
 3897 02e9 20000000 		.4byte	.LVL16
 3898 02ed 2C000000 		.4byte	.LVL18
 3899 02f1 0600     		.2byte	0x6
 3900 02f3 03       		.byte	0x3
 3901 02f4 00000000 		.4byte	rlist
 3902 02f8 9F       		.byte	0x9f
 3903 02f9 00000000 		.4byte	0
 3904 02fd 00000000 		.4byte	0
 3905              	.LVUS11:
 3906 0301 03       		.uleb128 .LVU113
 3907 0302 01       		.uleb128 .LVU118
 3908              	.LLST11:
 3909 0303 20000000 		.4byte	.LVL16
 3910 0307 2C000000 		.4byte	.LVL18
 3911 030b 0100     		.2byte	0x1
 3912 030d 52       		.byte	0x52
 3913 030e 00000000 		.4byte	0
 3914 0312 00000000 		.4byte	0
 3915              	.LVUS0:
 3916 0316 02       		.uleb128 .LVU2
 3917 0317 00       		.uleb128 0
 3918              	.LLST0:
 3919 0318 00000000 		.4byte	.LVL0
 3920 031c B0000000 		.4byte	.LFE10
 3921 0320 0100     		.2byte	0x1
 3922 0322 50       		.byte	0x50
 3923 0323 00000000 		.4byte	0
 3924 0327 00000000 		.4byte	0
 3925              	.LVUS1:
 3926 032b 01       		.uleb128 .LVU8
 3927 032c 01       		.uleb128 .LVU16
 3928              	.LLST1:
 3929 032d 58000000 		.4byte	.LVL1
 3930 0331 68000000 		.4byte	.LVL2
 3931 0335 0100     		.2byte	0x1
 3932 0337 50       		.byte	0x50
 3933 0338 00000000 		.4byte	0
ARM GAS  /var/folders/l5/0x54b2c10074c8bt31ycjvl80000gp/T//ccF3aQLQ.s 			page 70


 3934 033c 00000000 		.4byte	0
 3935              	.LVUS2:
 3936 0340 01       		.uleb128 .LVU24
 3937 0341 07       		.uleb128 .LVU55
 3938              	.LLST2:
 3939 0342 7C000000 		.4byte	.LVL3
 3940 0346 A8000000 		.4byte	.LVL7
 3941 034a 0100     		.2byte	0x1
 3942 034c 50       		.byte	0x50
 3943 034d 00000000 		.4byte	0
 3944 0351 00000000 		.4byte	0
 3945              	.LVUS3:
 3946 0355 01       		.uleb128 .LVU33
 3947 0356 07       		.uleb128 .LVU55
 3948              	.LLST3:
 3949 0357 80000000 		.4byte	.LVL4
 3950 035b A8000000 		.4byte	.LVL7
 3951 035f 0600     		.2byte	0x6
 3952 0361 03       		.byte	0x3
 3953 0362 00000000 		.4byte	rlist
 3954 0366 9F       		.byte	0x9f
 3955 0367 00000000 		.4byte	0
 3956 036b 00000000 		.4byte	0
 3957              	.LVUS4:
 3958 036f 01       		.uleb128 .LVU33
 3959 0370 07       		.uleb128 .LVU55
 3960              	.LLST4:
 3961 0371 80000000 		.4byte	.LVL4
 3962 0375 A8000000 		.4byte	.LVL7
 3963 0379 0100     		.2byte	0x1
 3964 037b 50       		.byte	0x50
 3965 037c 00000000 		.4byte	0
 3966 0380 00000000 		.4byte	0
 3967              	.LVUS5:
 3968 0384 03       		.uleb128 .LVU35
 3969 0385 00       		.uleb128 .LVU47
 3970 0386 00       		.uleb128 .LVU47
 3971 0387 00       		.uleb128 .LVU48
 3972              	.LLST5:
 3973 0388 80000000 		.4byte	.LVL4
 3974 038c A4000000 		.4byte	.LVL6
 3975 0390 0100     		.2byte	0x1
 3976 0392 53       		.byte	0x53
 3977 0393 A4000000 		.4byte	.LVL6
 3978 0397 A8000000 		.4byte	.LVL7
 3979 039b 0200     		.2byte	0x2
 3980 039d 70       		.byte	0x70
 3981 039e 00       		.sleb128 0
 3982 039f 00000000 		.4byte	0
 3983 03a3 00000000 		.4byte	0
 3984              	.LVUS6:
 3985 03a7 00       		.uleb128 0
 3986 03a8 00       		.uleb128 .LVU94
 3987 03a9 00       		.uleb128 .LVU94
 3988 03aa 00       		.uleb128 0
 3989              	.LLST6:
 3990 03ab 00000000 		.4byte	.LVL8
ARM GAS  /var/folders/l5/0x54b2c10074c8bt31ycjvl80000gp/T//ccF3aQLQ.s 			page 71


 3991 03af 3C000000 		.4byte	.LVL12
 3992 03b3 0100     		.2byte	0x1
 3993 03b5 50       		.byte	0x50
 3994 03b6 3C000000 		.4byte	.LVL12
 3995 03ba 48000000 		.4byte	.LFE8
 3996 03be 0100     		.2byte	0x1
 3997 03c0 5C       		.byte	0x5c
 3998 03c1 00000000 		.4byte	0
 3999 03c5 00000000 		.4byte	0
 4000              	.LVUS7:
 4001 03c9 01       		.uleb128 .LVU81
 4002 03ca 00       		.uleb128 .LVU93
 4003 03cb 00       		.uleb128 .LVU93
 4004 03cc 00       		.uleb128 .LVU95
 4005              	.LLST7:
 4006 03cd 14000000 		.4byte	.LVL9
 4007 03d1 38000000 		.4byte	.LVL11
 4008 03d5 0100     		.2byte	0x1
 4009 03d7 53       		.byte	0x53
 4010 03d8 38000000 		.4byte	.LVL11
 4011 03dc 40000000 		.4byte	.LVL13
 4012 03e0 0200     		.2byte	0x2
 4013 03e2 70       		.byte	0x70
 4014 03e3 00       		.sleb128 0
 4015 03e4 00000000 		.4byte	0
 4016 03e8 00000000 		.4byte	0
 4017              		.section	.debug_aranges,"",%progbits
 4018 0000 6C000000 		.4byte	0x6c
 4019 0004 0200     		.2byte	0x2
 4020 0006 00000000 		.4byte	.Ldebug_info0
 4021 000a 04       		.byte	0x4
 4022 000b 00       		.byte	0
 4023 000c 0000     		.2byte	0
 4024 000e 0000     		.2byte	0
 4025 0010 00000000 		.4byte	.LFB10
 4026 0014 B0000000 		.4byte	.LFE10-.LFB10
 4027 0018 00000000 		.4byte	.LFB7
 4028 001c 24000000 		.4byte	.LFE7-.LFB7
 4029 0020 00000000 		.4byte	.LFB8
 4030 0024 48000000 		.4byte	.LFE8-.LFB8
 4031 0028 00000000 		.4byte	.LFB9
 4032 002c 44000000 		.4byte	.LFE9-.LFB9
 4033 0030 00000000 		.4byte	.LFB11
 4034 0034 74000000 		.4byte	.LFE11-.LFB11
 4035 0038 00000000 		.4byte	.LFB12
 4036 003c AC000000 		.4byte	.LFE12-.LFB12
 4037 0040 00000000 		.4byte	.LFB14
 4038 0044 44000000 		.4byte	.LFE14-.LFB14
 4039 0048 00000000 		.4byte	.LFB15
 4040 004c 78000000 		.4byte	.LFE15-.LFB15
 4041 0050 00000000 		.4byte	.LFB16
 4042 0054 70000000 		.4byte	.LFE16-.LFB16
 4043 0058 00000000 		.4byte	.LFB13
 4044 005c 24000000 		.4byte	.LFE13-.LFB13
 4045 0060 00000000 		.4byte	.LFB17
 4046 0064 20000000 		.4byte	.LFE17-.LFB17
 4047 0068 00000000 		.4byte	0
ARM GAS  /var/folders/l5/0x54b2c10074c8bt31ycjvl80000gp/T//ccF3aQLQ.s 			page 72


 4048 006c 00000000 		.4byte	0
 4049              		.section	.debug_ranges,"",%progbits
 4050              	.Ldebug_ranges0:
 4051 0000 6C000000 		.4byte	.LBB35
 4052 0004 70000000 		.4byte	.LBE35
 4053 0008 7C000000 		.4byte	.LBB45
 4054 000c 80000000 		.4byte	.LBE45
 4055 0010 00000000 		.4byte	0
 4056 0014 00000000 		.4byte	0
 4057 0018 70000000 		.4byte	.LBB38
 4058 001c 78000000 		.4byte	.LBE38
 4059 0020 80000000 		.4byte	.LBB46
 4060 0024 A8000000 		.4byte	.LBE46
 4061 0028 00000000 		.4byte	0
 4062 002c 00000000 		.4byte	0
 4063 0030 70000000 		.4byte	.LBB39
 4064 0034 78000000 		.4byte	.LBE39
 4065 0038 80000000 		.4byte	.LBB44
 4066 003c A8000000 		.4byte	.LBE44
 4067 0040 00000000 		.4byte	0
 4068 0044 00000000 		.4byte	0
 4069 0048 14000000 		.4byte	.LBB47
 4070 004c 18000000 		.4byte	.LBE47
 4071 0050 20000000 		.4byte	.LBB52
 4072 0054 24000000 		.4byte	.LBE52
 4073 0058 28000000 		.4byte	.LBB53
 4074 005c 2C000000 		.4byte	.LBE53
 4075 0060 30000000 		.4byte	.LBB54
 4076 0064 34000000 		.4byte	.LBE54
 4077 0068 00000000 		.4byte	0
 4078 006c 00000000 		.4byte	0
 4079 0070 58000000 		.4byte	.LBB58
 4080 0074 9C000000 		.4byte	.LBE58
 4081 0078 A0000000 		.4byte	.LBB65
 4082 007c AC000000 		.4byte	.LBE65
 4083 0080 00000000 		.4byte	0
 4084 0084 00000000 		.4byte	0
 4085 0088 58000000 		.4byte	.LBB59
 4086 008c 74000000 		.4byte	.LBE59
 4087 0090 78000000 		.4byte	.LBB63
 4088 0094 8C000000 		.4byte	.LBE63
 4089 0098 90000000 		.4byte	.LBB64
 4090 009c 94000000 		.4byte	.LBE64
 4091 00a0 00000000 		.4byte	0
 4092 00a4 00000000 		.4byte	0
 4093 00a8 0C000000 		.4byte	.LBB66
 4094 00ac 10000000 		.4byte	.LBE66
 4095 00b0 20000000 		.4byte	.LBB78
 4096 00b4 24000000 		.4byte	.LBE78
 4097 00b8 34000000 		.4byte	.LBB81
 4098 00bc 38000000 		.4byte	.LBE81
 4099 00c0 3C000000 		.4byte	.LBB82
 4100 00c4 54000000 		.4byte	.LBE82
 4101 00c8 58000000 		.4byte	.LBB83
 4102 00cc 70000000 		.4byte	.LBE83
 4103 00d0 00000000 		.4byte	0
 4104 00d4 00000000 		.4byte	0
ARM GAS  /var/folders/l5/0x54b2c10074c8bt31ycjvl80000gp/T//ccF3aQLQ.s 			page 73


 4105 00d8 14000000 		.4byte	.LBB72
 4106 00dc 18000000 		.4byte	.LBE72
 4107 00e0 1C000000 		.4byte	.LBB77
 4108 00e4 20000000 		.4byte	.LBE77
 4109 00e8 24000000 		.4byte	.LBB79
 4110 00ec 28000000 		.4byte	.LBE79
 4111 00f0 2C000000 		.4byte	.LBB80
 4112 00f4 30000000 		.4byte	.LBE80
 4113 00f8 00000000 		.4byte	0
 4114 00fc 00000000 		.4byte	0
 4115 0100 10000000 		.4byte	.LBB84
 4116 0104 14000000 		.4byte	.LBE84
 4117 0108 18000000 		.4byte	.LBB89
 4118 010c 1C000000 		.4byte	.LBE89
 4119 0110 20000000 		.4byte	.LBB90
 4120 0114 24000000 		.4byte	.LBE90
 4121 0118 28000000 		.4byte	.LBB91
 4122 011c 2C000000 		.4byte	.LBE91
 4123 0120 00000000 		.4byte	0
 4124 0124 00000000 		.4byte	0
 4125 0128 00000000 		.4byte	.LFB10
 4126 012c B0000000 		.4byte	.LFE10
 4127 0130 00000000 		.4byte	.LFB7
 4128 0134 24000000 		.4byte	.LFE7
 4129 0138 00000000 		.4byte	.LFB8
 4130 013c 48000000 		.4byte	.LFE8
 4131 0140 00000000 		.4byte	.LFB9
 4132 0144 44000000 		.4byte	.LFE9
 4133 0148 00000000 		.4byte	.LFB11
 4134 014c 74000000 		.4byte	.LFE11
 4135 0150 00000000 		.4byte	.LFB12
 4136 0154 AC000000 		.4byte	.LFE12
 4137 0158 00000000 		.4byte	.LFB14
 4138 015c 44000000 		.4byte	.LFE14
 4139 0160 00000000 		.4byte	.LFB15
 4140 0164 78000000 		.4byte	.LFE15
 4141 0168 00000000 		.4byte	.LFB16
 4142 016c 70000000 		.4byte	.LFE16
 4143 0170 00000000 		.4byte	.LFB13
 4144 0174 24000000 		.4byte	.LFE13
 4145 0178 00000000 		.4byte	.LFB17
 4146 017c 20000000 		.4byte	.LFE17
 4147 0180 00000000 		.4byte	0
 4148 0184 00000000 		.4byte	0
 4149              		.section	.debug_line,"",%progbits
 4150              	.Ldebug_line0:
 4151 0000 81070000 		.section	.debug_str,"MS",%progbits,1
 4151      0300A001 
 4151      00000201 
 4151      FB0E0D00 
 4151      01010101 
 4152              	.LASF92:
 4153 0000 63665F6F 		.ascii	"cf_off_older\000"
 4153      66665F6F 
 4153      6C646572 
 4153      00
 4154              	.LASF42:
ARM GAS  /var/folders/l5/0x54b2c10074c8bt31ycjvl80000gp/T//ccF3aQLQ.s 			page 74


 4155 000d 705F6D73 		.ascii	"p_msg\000"
 4155      6700
 4156              	.LASF77:
 4157 0013 7264796D 		.ascii	"rdymsg\000"
 4157      736700
 4158              	.LASF104:
 4159 001a 63685363 		.ascii	"chSchDoRescheduleAhead\000"
 4159      68446F52 
 4159      65736368 
 4159      6564756C 
 4159      65416865 
 4160              	.LASF4:
 4161 0031 5F5F7569 		.ascii	"__uint8_t\000"
 4161      6E74385F 
 4161      7400
 4162              	.LASF68:
 4163 003b 76746C69 		.ascii	"vtlist\000"
 4163      737400
 4164              	.LASF12:
 4165 0042 6C6F6E67 		.ascii	"long long unsigned int\000"
 4165      206C6F6E 
 4165      6720756E 
 4165      7369676E 
 4165      65642069 
 4166              	.LASF88:
 4167 0059 63685F74 		.ascii	"ch_threadsize\000"
 4167      68726561 
 4167      6473697A 
 4167      6500
 4168              	.LASF78:
 4169 0067 65786974 		.ascii	"exitcode\000"
 4169      636F6465 
 4169      00
 4170              	.LASF30:
 4171 0070 705F7072 		.ascii	"p_prio\000"
 4171      696F00
 4172              	.LASF95:
 4173 0077 63665F6F 		.ascii	"cf_off_state\000"
 4173      66665F73 
 4173      74617465 
 4173      00
 4174              	.LASF123:
 4175 0084 5F736368 		.ascii	"_scheduler_init\000"
 4175      6564756C 
 4175      65725F69 
 4175      6E697400 
 4176              	.LASF11:
 4177 0094 6C6F6E67 		.ascii	"long long int\000"
 4177      206C6F6E 
 4177      6720696E 
 4177      7400
 4178              	.LASF1:
 4179 00a2 7369676E 		.ascii	"signed char\000"
 4179      65642063 
 4179      68617200 
 4180              	.LASF94:
 4181 00ae 63665F6F 		.ascii	"cf_off_stklimit\000"
ARM GAS  /var/folders/l5/0x54b2c10074c8bt31ycjvl80000gp/T//ccF3aQLQ.s 			page 75


 4181      66665F73 
 4181      746B6C69 
 4181      6D697400 
 4182              	.LASF96:
 4183 00be 63665F6F 		.ascii	"cf_off_flags\000"
 4183      66665F66 
 4183      6C616773 
 4183      00
 4184              	.LASF17:
 4185 00cb 626F6F6C 		.ascii	"bool_t\000"
 4185      5F7400
 4186              	.LASF74:
 4187 00d2 6D5F7175 		.ascii	"m_queue\000"
 4187      65756500 
 4188              	.LASF21:
 4189 00da 74736C69 		.ascii	"tslices_t\000"
 4189      6365735F 
 4189      7400
 4190              	.LASF8:
 4191 00e4 6C6F6E67 		.ascii	"long int\000"
 4191      20696E74 
 4191      00
 4192              	.LASF19:
 4193 00ed 74737461 		.ascii	"tstate_t\000"
 4193      74655F74 
 4193      00
 4194              	.LASF14:
 4195 00f6 75696E74 		.ascii	"uint16_t\000"
 4195      31365F74 
 4195      00
 4196              	.LASF100:
 4197 00ff 63686465 		.ascii	"chdebug_t\000"
 4197      6275675F 
 4197      7400
 4198              	.LASF108:
 4199 0109 63685363 		.ascii	"chSchIsPreemptionRequired\000"
 4199      68497350 
 4199      7265656D 
 4199      7074696F 
 4199      6E526571 
 4200              	.LASF32:
 4201 0123 705F6E65 		.ascii	"p_newer\000"
 4201      77657200 
 4202              	.LASF102:
 4203 012b 5F69646C 		.ascii	"_idle_thread_wa\000"
 4203      655F7468 
 4203      72656164 
 4203      5F776100 
 4204              	.LASF71:
 4205 013b 735F7175 		.ascii	"s_queue\000"
 4205      65756500 
 4206              	.LASF106:
 4207 0143 63685363 		.ascii	"chSchRescheduleS\000"
 4207      68526573 
 4207      63686564 
 4207      756C6553 
 4207      00
ARM GAS  /var/folders/l5/0x54b2c10074c8bt31ycjvl80000gp/T//ccF3aQLQ.s 			page 76


 4208              	.LASF9:
 4209 0154 5F5F7569 		.ascii	"__uint32_t\000"
 4209      6E743332 
 4209      5F7400
 4210              	.LASF49:
 4211 015f 72656761 		.ascii	"regarm_t\000"
 4211      726D5F74 
 4211      00
 4212              	.LASF55:
 4213 0168 76745F70 		.ascii	"vt_prev\000"
 4213      72657600 
 4214              	.LASF103:
 4215 0170 63685363 		.ascii	"chSchDoReschedule\000"
 4215      68446F52 
 4215      65736368 
 4215      6564756C 
 4215      6500
 4216              	.LASF26:
 4217 0182 636E745F 		.ascii	"cnt_t\000"
 4217      7400
 4218              	.LASF0:
 4219 0188 756E7369 		.ascii	"unsigned int\000"
 4219      676E6564 
 4219      20696E74 
 4219      00
 4220              	.LASF121:
 4221 0195 77616B65 		.ascii	"wakeup\000"
 4221      757000
 4222              	.LASF54:
 4223 019c 76745F6E 		.ascii	"vt_next\000"
 4223      65787400 
 4224              	.LASF115:
 4225 01a4 5F706F72 		.ascii	"_port_switch_arm\000"
 4225      745F7377 
 4225      69746368 
 4225      5F61726D 
 4225      00
 4226              	.LASF10:
 4227 01b5 6C6F6E67 		.ascii	"long unsigned int\000"
 4227      20756E73 
 4227      69676E65 
 4227      6420696E 
 4227      7400
 4228              	.LASF101:
 4229 01c7 63685F64 		.ascii	"ch_debug\000"
 4229      65627567 
 4229      00
 4230              	.LASF52:
 4231 01d0 76746675 		.ascii	"vtfunc_t\000"
 4231      6E635F74 
 4231      00
 4232              	.LASF82:
 4233 01d9 63685F69 		.ascii	"ch_identifier\000"
 4233      64656E74 
 4233      69666965 
 4233      7200
 4234              	.LASF72:
ARM GAS  /var/folders/l5/0x54b2c10074c8bt31ycjvl80000gp/T//ccF3aQLQ.s 			page 77


 4235 01e7 735F636E 		.ascii	"s_cnt\000"
 4235      7400
 4236              	.LASF51:
 4237 01ed 636F6E74 		.ascii	"context\000"
 4237      65787400 
 4238              	.LASF6:
 4239 01f5 73686F72 		.ascii	"short unsigned int\000"
 4239      7420756E 
 4239      7369676E 
 4239      65642069 
 4239      6E7400
 4240              	.LASF107:
 4241 0208 63685363 		.ascii	"chSchWakeupS\000"
 4241      6857616B 
 4241      65757053 
 4241      00
 4242              	.LASF23:
 4243 0215 6D73675F 		.ascii	"msg_t\000"
 4243      7400
 4244              	.LASF64:
 4245 021b 725F6E65 		.ascii	"r_newer\000"
 4245      77657200 
 4246              	.LASF118:
 4247 0223 474E5520 		.ascii	"GNU C17 8.3.1 20190703 (release) [gcc-8-branch revi"
 4247      43313720 
 4247      382E332E 
 4247      31203230 
 4247      31393037 
 4248 0256 73696F6E 		.ascii	"sion 273027] -mcpu=arm1176jz-s -mno-thumb-interwork"
 4248      20323733 
 4248      3032375D 
 4248      202D6D63 
 4248      70753D61 
 4249 0289 202D6D66 		.ascii	" -mfloat-abi=soft -marm -march=armv6kz -ggdb -O2 -f"
 4249      6C6F6174 
 4249      2D616269 
 4249      3D736F66 
 4249      74202D6D 
 4250 02bc 6F6D6974 		.ascii	"omit-frame-pointer -ffunction-sections -fdata-secti"
 4250      2D667261 
 4250      6D652D70 
 4250      6F696E74 
 4250      6572202D 
 4251 02ef 6F6E7300 		.ascii	"ons\000"
 4252              	.LASF18:
 4253 02f3 746D6F64 		.ascii	"tmode_t\000"
 4253      655F7400 
 4254              	.LASF47:
 4255 02fb 54687265 		.ascii	"ThreadsList\000"
 4255      6164734C 
 4255      69737400 
 4256              	.LASF24:
 4257 0307 6576656E 		.ascii	"eventmask_t\000"
 4257      746D6173 
 4257      6B5F7400 
 4258              	.LASF73:
 4259 0313 4D757465 		.ascii	"Mutex\000"
ARM GAS  /var/folders/l5/0x54b2c10074c8bt31ycjvl80000gp/T//ccF3aQLQ.s 			page 78


 4259      7800
 4260              	.LASF48:
 4261 0319 73746B61 		.ascii	"stkalign_t\000"
 4261      6C69676E 
 4261      5F7400
 4262              	.LASF83:
 4263 0324 63685F7A 		.ascii	"ch_zero\000"
 4263      65726F00 
 4264              	.LASF97:
 4265 032c 63665F6F 		.ascii	"cf_off_refs\000"
 4265      66665F72 
 4265      65667300 
 4266              	.LASF56:
 4267 0338 76745F74 		.ascii	"vt_time\000"
 4267      696D6500 
 4268              	.LASF57:
 4269 0340 76745F66 		.ascii	"vt_func\000"
 4269      756E6300 
 4270              	.LASF87:
 4271 0348 63685F74 		.ascii	"ch_timesize\000"
 4271      696D6573 
 4271      697A6500 
 4272              	.LASF113:
 4273 0354 64657175 		.ascii	"dequeue\000"
 4273      65756500 
 4274              	.LASF105:
 4275 035c 63685363 		.ascii	"chSchDoRescheduleBehind\000"
 4275      68446F52 
 4275      65736368 
 4275      6564756C 
 4275      65426568 
 4276              	.LASF93:
 4277 0374 63665F6F 		.ascii	"cf_off_name\000"
 4277      66665F6E 
 4277      616D6500 
 4278              	.LASF116:
 4279 0380 63685654 		.ascii	"chVTSetI\000"
 4279      53657449 
 4279      00
 4280              	.LASF120:
 4281 0389 2F557365 		.ascii	"/Users/fernandoguirado/Desktop/Chibi/ChibiOS-RPi/de"
 4281      72732F66 
 4281      65726E61 
 4281      6E646F67 
 4281      75697261 
 4282 03bc 6D6F732F 		.ascii	"mos/led\000"
 4282      6C656400 
 4283              	.LASF63:
 4284 03c4 725F6374 		.ascii	"r_ctx\000"
 4284      7800
 4285              	.LASF46:
 4286 03ca 54687265 		.ascii	"ThreadsQueue\000"
 4286      61647351 
 4286      75657565 
 4286      00
 4287              	.LASF84:
 4288 03d7 63685F73 		.ascii	"ch_size\000"
ARM GAS  /var/folders/l5/0x54b2c10074c8bt31ycjvl80000gp/T//ccF3aQLQ.s 			page 79


 4288      697A6500 
 4289              	.LASF111:
 4290 03df 74696D65 		.ascii	"time\000"
 4290      00
 4291              	.LASF66:
 4292 03e4 725F6375 		.ascii	"r_current\000"
 4292      7272656E 
 4292      7400
 4293              	.LASF65:
 4294 03ee 725F6F6C 		.ascii	"r_older\000"
 4294      64657200 
 4295              	.LASF20:
 4296 03f6 74726566 		.ascii	"trefs_t\000"
 4296      735F7400 
 4297              	.LASF86:
 4298 03fe 63685F70 		.ascii	"ch_ptrsize\000"
 4298      74727369 
 4298      7A6500
 4299              	.LASF29:
 4300 0409 705F7072 		.ascii	"p_prev\000"
 4300      657600
 4301              	.LASF22:
 4302 0410 74707269 		.ascii	"tprio_t\000"
 4302      6F5F7400 
 4303              	.LASF15:
 4304 0418 696E7433 		.ascii	"int32_t\000"
 4304      325F7400 
 4305              	.LASF2:
 4306 0420 756E7369 		.ascii	"unsigned char\000"
 4306      676E6564 
 4306      20636861 
 4306      7200
 4307              	.LASF110:
 4308 042e 6E657773 		.ascii	"newstate\000"
 4308      74617465 
 4308      00
 4309              	.LASF44:
 4310 0437 705F6D74 		.ascii	"p_mtxlist\000"
 4310      786C6973 
 4310      7400
 4311              	.LASF3:
 4312 0441 73686F72 		.ascii	"short int\000"
 4312      7420696E 
 4312      7400
 4313              	.LASF35:
 4314 044b 705F7374 		.ascii	"p_state\000"
 4314      61746500 
 4315              	.LASF38:
 4316 0453 705F7072 		.ascii	"p_preempt\000"
 4316      65656D70 
 4316      7400
 4317              	.LASF99:
 4318 045d 63665F6F 		.ascii	"cf_off_time\000"
 4318      66665F74 
 4318      696D6500 
 4319              	.LASF33:
 4320 0469 705F6F6C 		.ascii	"p_older\000"
ARM GAS  /var/folders/l5/0x54b2c10074c8bt31ycjvl80000gp/T//ccF3aQLQ.s 			page 80


 4320      64657200 
 4321              	.LASF62:
 4322 0471 725F7072 		.ascii	"r_prio\000"
 4322      696F00
 4323              	.LASF80:
 4324 0478 65776D61 		.ascii	"ewmask\000"
 4324      736B00
 4325              	.LASF28:
 4326 047f 705F6E65 		.ascii	"p_next\000"
 4326      787400
 4327              	.LASF98:
 4328 0486 63665F6F 		.ascii	"cf_off_preempt\000"
 4328      66665F70 
 4328      7265656D 
 4328      707400
 4329              	.LASF36:
 4330 0495 705F666C 		.ascii	"p_flags\000"
 4330      61677300 
 4331              	.LASF27:
 4332 049d 54687265 		.ascii	"Thread\000"
 4332      616400
 4333              	.LASF91:
 4334 04a4 63665F6F 		.ascii	"cf_off_newer\000"
 4334      66665F6E 
 4334      65776572 
 4334      00
 4335              	.LASF112:
 4336 04b1 63685363 		.ascii	"chSchGoSleepS\000"
 4336      68476F53 
 4336      6C656570 
 4336      5300
 4337              	.LASF43:
 4338 04bf 705F6570 		.ascii	"p_epending\000"
 4338      656E6469 
 4338      6E6700
 4339              	.LASF16:
 4340 04ca 75696E74 		.ascii	"uint32_t\000"
 4340      33325F74 
 4340      00
 4341              	.LASF89:
 4342 04d3 63665F6F 		.ascii	"cf_off_prio\000"
 4342      66665F70 
 4342      72696F00 
 4343              	.LASF61:
 4344 04df 725F7175 		.ascii	"r_queue\000"
 4344      65756500 
 4345              	.LASF53:
 4346 04e7 56697274 		.ascii	"VirtualTimer\000"
 4346      75616C54 
 4346      696D6572 
 4346      00
 4347              	.LASF81:
 4348 04f4 63686172 		.ascii	"char\000"
 4348      00
 4349              	.LASF114:
 4350 04f9 6669666F 		.ascii	"fifo_remove\000"
 4350      5F72656D 
ARM GAS  /var/folders/l5/0x54b2c10074c8bt31ycjvl80000gp/T//ccF3aQLQ.s 			page 81


 4350      6F766500 
 4351              	.LASF5:
 4352 0505 5F5F7569 		.ascii	"__uint16_t\000"
 4352      6E743136 
 4352      5F7400
 4353              	.LASF122:
 4354 0510 63685363 		.ascii	"chSchReadyI\000"
 4354      68526561 
 4354      64794900 
 4355              	.LASF76:
 4356 051c 6D5F6E65 		.ascii	"m_next\000"
 4356      787400
 4357              	.LASF25:
 4358 0523 73797374 		.ascii	"systime_t\000"
 4358      696D655F 
 4358      7400
 4359              	.LASF45:
 4360 052d 705F7265 		.ascii	"p_realprio\000"
 4360      616C7072 
 4360      696F00
 4361              	.LASF7:
 4362 0538 5F5F696E 		.ascii	"__int32_t\000"
 4362      7433325F 
 4362      7400
 4363              	.LASF39:
 4364 0542 705F7469 		.ascii	"p_time\000"
 4364      6D6500
 4365              	.LASF50:
 4366 0549 696E7463 		.ascii	"intctx\000"
 4366      747800
 4367              	.LASF41:
 4368 0550 705F6D73 		.ascii	"p_msgqueue\000"
 4368      67717565 
 4368      756500
 4369              	.LASF58:
 4370 055b 76745F70 		.ascii	"vt_par\000"
 4370      617200
 4371              	.LASF70:
 4372 0562 53656D61 		.ascii	"Semaphore\000"
 4372      70686F72 
 4372      6500
 4373              	.LASF90:
 4374 056c 63665F6F 		.ascii	"cf_off_ctx\000"
 4374      66665F63 
 4374      747800
 4375              	.LASF37:
 4376 0577 705F7265 		.ascii	"p_refs\000"
 4376      667300
 4377              	.LASF117:
 4378 057e 63685654 		.ascii	"chVTResetI\000"
 4378      52657365 
 4378      744900
 4379              	.LASF67:
 4380 0589 52656164 		.ascii	"ReadyList\000"
 4380      794C6973 
 4380      7400
 4381              	.LASF119:
ARM GAS  /var/folders/l5/0x54b2c10074c8bt31ycjvl80000gp/T//ccF3aQLQ.s 			page 82


 4382 0593 2E2E2F2E 		.ascii	"../../os/kernel/src/chschd.c\000"
 4382      2E2F6F73 
 4382      2F6B6572 
 4382      6E656C2F 
 4382      7372632F 
 4383              	.LASF69:
 4384 05b0 726C6973 		.ascii	"rlist\000"
 4384      7400
 4385              	.LASF13:
 4386 05b6 75696E74 		.ascii	"uint8_t\000"
 4386      385F7400 
 4387              	.LASF79:
 4388 05be 77746F62 		.ascii	"wtobjp\000"
 4388      6A7000
 4389              	.LASF34:
 4390 05c5 705F6E61 		.ascii	"p_name\000"
 4390      6D6500
 4391              	.LASF59:
 4392 05cc 76745F73 		.ascii	"vt_systime\000"
 4392      79737469 
 4392      6D6500
 4393              	.LASF109:
 4394 05d7 63685363 		.ascii	"chSchGoSleepTimeoutS\000"
 4394      68476F53 
 4394      6C656570 
 4394      54696D65 
 4394      6F757453 
 4395              	.LASF85:
 4396 05ec 63685F76 		.ascii	"ch_version\000"
 4396      65727369 
 4396      6F6E00
 4397              	.LASF60:
 4398 05f7 56544C69 		.ascii	"VTList\000"
 4398      737400
 4399              	.LASF75:
 4400 05fe 6D5F6F77 		.ascii	"m_owner\000"
 4400      6E657200 
 4401              	.LASF31:
 4402 0606 705F6374 		.ascii	"p_ctx\000"
 4402      7800
 4403              	.LASF40:
 4404 060c 705F7761 		.ascii	"p_waiting\000"
 4404      6974696E 
 4404      6700
 4405              		.ident	"GCC: (GNU Tools for Arm Embedded Processors 8-2019-q3-update) 8.3.1 20190703 (release) [gc
ARM GAS  /var/folders/l5/0x54b2c10074c8bt31ycjvl80000gp/T//ccF3aQLQ.s 			page 83


DEFINED SYMBOLS
                            *ABS*:0000000000000000 chschd.c
/var/folders/l5/0x54b2c10074c8bt31ycjvl80000gp/T//ccF3aQLQ.s:16     .text.wakeup:0000000000000000 $a
/var/folders/l5/0x54b2c10074c8bt31ycjvl80000gp/T//ccF3aQLQ.s:22     .text.wakeup:0000000000000000 wakeup
/var/folders/l5/0x54b2c10074c8bt31ycjvl80000gp/T//ccF3aQLQ.s:41     .text.wakeup:0000000000000010 $d
/var/folders/l5/0x54b2c10074c8bt31ycjvl80000gp/T//ccF3aQLQ.s:57     .text.wakeup:0000000000000048 $a
/var/folders/l5/0x54b2c10074c8bt31ycjvl80000gp/T//ccF3aQLQ.s:177    .text.wakeup:00000000000000ac $d
                            *COM*:000000000000001c rlist
/var/folders/l5/0x54b2c10074c8bt31ycjvl80000gp/T//ccF3aQLQ.s:182    .text._scheduler_init:0000000000000000 $a
/var/folders/l5/0x54b2c10074c8bt31ycjvl80000gp/T//ccF3aQLQ.s:188    .text._scheduler_init:0000000000000000 _scheduler_init
/var/folders/l5/0x54b2c10074c8bt31ycjvl80000gp/T//ccF3aQLQ.s:217    .text._scheduler_init:0000000000000020 $d
/var/folders/l5/0x54b2c10074c8bt31ycjvl80000gp/T//ccF3aQLQ.s:222    .text.chSchReadyI:0000000000000000 $a
/var/folders/l5/0x54b2c10074c8bt31ycjvl80000gp/T//ccF3aQLQ.s:228    .text.chSchReadyI:0000000000000000 chSchReadyI
/var/folders/l5/0x54b2c10074c8bt31ycjvl80000gp/T//ccF3aQLQ.s:290    .text.chSchReadyI:0000000000000044 $d
/var/folders/l5/0x54b2c10074c8bt31ycjvl80000gp/T//ccF3aQLQ.s:295    .text.chSchGoSleepS:0000000000000000 $a
/var/folders/l5/0x54b2c10074c8bt31ycjvl80000gp/T//ccF3aQLQ.s:301    .text.chSchGoSleepS:0000000000000000 chSchGoSleepS
/var/folders/l5/0x54b2c10074c8bt31ycjvl80000gp/T//ccF3aQLQ.s:384    .text.chSchGoSleepS:0000000000000040 $d
/var/folders/l5/0x54b2c10074c8bt31ycjvl80000gp/T//ccF3aQLQ.s:389    .text.chSchGoSleepTimeoutS:0000000000000000 $a
/var/folders/l5/0x54b2c10074c8bt31ycjvl80000gp/T//ccF3aQLQ.s:395    .text.chSchGoSleepTimeoutS:0000000000000000 chSchGoSleepTimeoutS
/var/folders/l5/0x54b2c10074c8bt31ycjvl80000gp/T//ccF3aQLQ.s:477    .text.chSchGoSleepTimeoutS:000000000000006c $d
/var/folders/l5/0x54b2c10074c8bt31ycjvl80000gp/T//ccF3aQLQ.s:483    .text.chSchWakeupS:0000000000000000 $a
/var/folders/l5/0x54b2c10074c8bt31ycjvl80000gp/T//ccF3aQLQ.s:489    .text.chSchWakeupS:0000000000000000 chSchWakeupS
/var/folders/l5/0x54b2c10074c8bt31ycjvl80000gp/T//ccF3aQLQ.s:663    .text.chSchWakeupS:00000000000000a8 $d
/var/folders/l5/0x54b2c10074c8bt31ycjvl80000gp/T//ccF3aQLQ.s:669    .text.chSchIsPreemptionRequired:0000000000000000 $a
/var/folders/l5/0x54b2c10074c8bt31ycjvl80000gp/T//ccF3aQLQ.s:675    .text.chSchIsPreemptionRequired:0000000000000000 chSchIsPreemptionRequired
/var/folders/l5/0x54b2c10074c8bt31ycjvl80000gp/T//ccF3aQLQ.s:723    .text.chSchIsPreemptionRequired:0000000000000040 $d
/var/folders/l5/0x54b2c10074c8bt31ycjvl80000gp/T//ccF3aQLQ.s:728    .text.chSchDoRescheduleBehind:0000000000000000 $a
/var/folders/l5/0x54b2c10074c8bt31ycjvl80000gp/T//ccF3aQLQ.s:734    .text.chSchDoRescheduleBehind:0000000000000000 chSchDoRescheduleBehind
/var/folders/l5/0x54b2c10074c8bt31ycjvl80000gp/T//ccF3aQLQ.s:883    .text.chSchDoRescheduleBehind:0000000000000074 $d
/var/folders/l5/0x54b2c10074c8bt31ycjvl80000gp/T//ccF3aQLQ.s:888    .text.chSchDoRescheduleAhead:0000000000000000 $a
/var/folders/l5/0x54b2c10074c8bt31ycjvl80000gp/T//ccF3aQLQ.s:894    .text.chSchDoRescheduleAhead:0000000000000000 chSchDoRescheduleAhead
/var/folders/l5/0x54b2c10074c8bt31ycjvl80000gp/T//ccF3aQLQ.s:1004   .text.chSchDoRescheduleAhead:000000000000006c $d
/var/folders/l5/0x54b2c10074c8bt31ycjvl80000gp/T//ccF3aQLQ.s:1009   .text.chSchRescheduleS:0000000000000000 $a
/var/folders/l5/0x54b2c10074c8bt31ycjvl80000gp/T//ccF3aQLQ.s:1015   .text.chSchRescheduleS:0000000000000000 chSchRescheduleS
/var/folders/l5/0x54b2c10074c8bt31ycjvl80000gp/T//ccF3aQLQ.s:1040   .text.chSchRescheduleS:0000000000000020 $d
/var/folders/l5/0x54b2c10074c8bt31ycjvl80000gp/T//ccF3aQLQ.s:1045   .text.chSchDoReschedule:0000000000000000 $a
/var/folders/l5/0x54b2c10074c8bt31ycjvl80000gp/T//ccF3aQLQ.s:1051   .text.chSchDoReschedule:0000000000000000 chSchDoReschedule
/var/folders/l5/0x54b2c10074c8bt31ycjvl80000gp/T//ccF3aQLQ.s:1077   .text.chSchDoReschedule:000000000000001c $d

UNDEFINED SYMBOLS
_port_switch_arm
chVTSetI
chVTResetI
