ARM GAS  /var/folders/l5/0x54b2c10074c8bt31ycjvl80000gp/T//ccYeSm8G.s 			page 1


   1              		.cpu arm1176jz-s
   2              		.eabi_attribute 20, 1
   3              		.eabi_attribute 21, 1
   4              		.eabi_attribute 23, 3
   5              		.eabi_attribute 24, 1
   6              		.eabi_attribute 25, 1
   7              		.eabi_attribute 26, 1
   8              		.eabi_attribute 30, 2
   9              		.eabi_attribute 34, 1
  10              		.eabi_attribute 18, 4
  11              		.file	"chthreads.c"
  12              		.text
  13              	.Ltext0:
  14              		.cfi_sections	.debug_frame
  15              		.section	.text._thread_init,"ax",%progbits
  16              		.align	2
  17              		.global	_thread_init
  18              		.arch armv6kz
  19              		.syntax unified
  20              		.arm
  21              		.fpu softvfp
  22              		.type	_thread_init, %function
  23              	_thread_init:
  24              	.LVL0:
  25              	.LFB7:
  26              		.file 1 "../../os/kernel/src/chthreads.c"
  27              		.loc 1 69 48 view -0
  28              		.cfi_startproc
  29              		@ args = 0, pretend = 0, frame = 0
  30              		@ frame_needed = 0, uses_anonymous_args = 0
  31              		.loc 1 71 3 view .LVU1
  32              		.loc 1 69 48 is_stmt 0 view .LVU2
  33 0000 70402DE9 		push	{r4, r5, r6, lr}
  34              		.cfi_def_cfa_offset 16
  35              		.cfi_offset 4, -16
  36              		.cfi_offset 5, -12
  37              		.cfi_offset 6, -8
  38              		.cfi_offset 14, -4
  39              		.loc 1 79 17 view .LVU3
  40 0004 0020A0E3 		mov	r2, #0
  41              		.loc 1 72 15 view .LVU4
  42 0008 0260A0E3 		mov	r6, #2
  43              		.loc 1 75 17 view .LVU5
  44 000c 1450A0E3 		mov	r5, #20
  45              		.loc 1 88 14 view .LVU6
  46 0010 0140A0E3 		mov	r4, #1
  47              		.loc 1 92 3 view .LVU7
  48 0014 4CC09FE5 		ldr	ip, .L4
  49              		.loc 1 71 14 view .LVU8
  50 0018 081080E5 		str	r1, [r0, #8]
  51              		.loc 1 72 3 is_stmt 1 view .LVU9
  52              		.loc 1 73 3 view .LVU10
  53              		.loc 1 92 3 is_stmt 0 view .LVU11
  54 001c 14E09CE5 		ldr	lr, [ip, #20]
  55              		.loc 1 78 18 view .LVU12
  56 0020 401080E5 		str	r1, [r0, #64]
  57              		.loc 1 92 3 view .LVU13
ARM GAS  /var/folders/l5/0x54b2c10074c8bt31ycjvl80000gp/T//ccYeSm8G.s 			page 2


  58 0024 10C080E5 		str	ip, [r0, #16]
  59 0028 14E080E5 		str	lr, [r0, #20]
  60              		.loc 1 98 3 view .LVU14
  61 002c 2C1080E2 		add	r1, r0, #44
  62              	.LVL1:
  63              		.loc 1 92 3 view .LVU15
  64 0030 14008CE5 		str	r0, [ip, #20]
  65              		.loc 1 95 3 view .LVU16
  66 0034 28C080E2 		add	ip, r0, #40
  67              		.loc 1 72 15 view .LVU17
  68 0038 BC61C0E1 		strh	r6, [r0, #28]	@ movhi
  69              		.loc 1 75 3 is_stmt 1 view .LVU18
  70              		.loc 1 75 17 is_stmt 0 view .LVU19
  71 003c 1F50C0E5 		strb	r5, [r0, #31]
  72              		.loc 1 78 3 is_stmt 1 view .LVU20
  73              		.loc 1 79 3 view .LVU21
  74              		.loc 1 88 14 is_stmt 0 view .LVU22
  75 0040 1E40C0E5 		strb	r4, [r0, #30]
  76              		.loc 1 79 17 view .LVU23
  77 0044 3C2080E5 		str	r2, [r0, #60]
  78              		.loc 1 82 3 is_stmt 1 view .LVU24
  79              		.loc 1 82 18 is_stmt 0 view .LVU25
  80 0048 382080E5 		str	r2, [r0, #56]
  81              		.loc 1 85 3 is_stmt 1 view .LVU26
  82              		.loc 1 85 14 is_stmt 0 view .LVU27
  83 004c 202080E5 		str	r2, [r0, #32]
  84              		.loc 1 88 3 is_stmt 1 view .LVU28
  85              		.loc 1 91 3 view .LVU29
  86              		.loc 1 91 14 is_stmt 0 view .LVU30
  87 0050 182080E5 		str	r2, [r0, #24]
  88              		.loc 1 92 3 is_stmt 1 view .LVU31
  89              		.loc 1 92 3 view .LVU32
  90              		.loc 1 92 3 view .LVU33
  91 0054 10008EE5 		str	r0, [lr, #16]
  92              		.loc 1 92 17 view .LVU34
  93              		.loc 1 95 3 view .LVU35
  94 0058 28C080E5 		str	ip, [r0, #40]
  95              		.loc 1 98 3 view .LVU36
  96 005c 301080E5 		str	r1, [r0, #48]
  97 0060 2C1080E5 		str	r1, [r0, #44]
  98              		.loc 1 98 30 view .LVU37
  99              		.loc 1 104 3 view .LVU38
 100              		.loc 1 104 27 view .LVU39
 101              		.loc 1 106 3 view .LVU40
 102              		.loc 1 107 1 is_stmt 0 view .LVU41
 103 0064 7080BDE8 		pop	{r4, r5, r6, pc}
 104              	.L5:
 105              		.align	2
 106              	.L4:
 107 0068 00000000 		.word	rlist
 108              		.cfi_endproc
 109              	.LFE7:
 110              		.size	_thread_init, .-_thread_init
 111              		.section	.text.chThdCreateI,"ax",%progbits
 112              		.align	2
 113              		.global	chThdCreateI
 114              		.syntax unified
ARM GAS  /var/folders/l5/0x54b2c10074c8bt31ycjvl80000gp/T//ccYeSm8G.s 			page 3


 115              		.arm
 116              		.fpu softvfp
 117              		.type	chThdCreateI, %function
 118              	chThdCreateI:
 119              	.LVL2:
 120              	.LFB8:
 121              		.loc 1 151 59 is_stmt 1 view -0
 122              		.cfi_startproc
 123              		@ args = 4, pretend = 0, frame = 0
 124              		@ frame_needed = 0, uses_anonymous_args = 0
 125              		.loc 1 153 3 view .LVU43
 126              		.loc 1 155 3 view .LVU44
 127              		.loc 1 155 21 view .LVU45
 128              		.loc 1 157 3 view .LVU46
 129              		.loc 1 159 29 view .LVU47
 130              		.loc 1 160 3 view .LVU48
 131              		.loc 1 151 59 is_stmt 0 view .LVU49
 132 0000 F0402DE9 		push	{r4, r5, r6, r7, lr}
 133              		.cfi_def_cfa_offset 20
 134              		.cfi_offset 4, -20
 135              		.cfi_offset 5, -16
 136              		.cfi_offset 6, -12
 137              		.cfi_offset 7, -8
 138              		.cfi_offset 14, -4
 139              	.LBB12:
 140              	.LBB13:
 141              		.loc 1 79 17 view .LVU50
 142 0004 00E0A0E3 		mov	lr, #0
 143              		.loc 1 72 15 view .LVU51
 144 0008 0270A0E3 		mov	r7, #2
 145              		.loc 1 75 17 view .LVU52
 146 000c 1460A0E3 		mov	r6, #20
 147              		.loc 1 88 14 view .LVU53
 148 0010 0150A0E3 		mov	r5, #1
 149              	.LBE13:
 150              	.LBE12:
 151              		.loc 1 160 3 view .LVU54
 152 0014 241041E2 		sub	r1, r1, #36
 153              	.LVL3:
 154              		.loc 1 160 3 view .LVU55
 155 0018 014080E0 		add	r4, r0, r1
 156 001c 0C4080E5 		str	r4, [r0, #12]
 157              		.loc 1 160 3 is_stmt 1 view .LVU56
 158 0020 013080E7 		str	r3, [r0, r1]
 159              		.loc 1 160 3 view .LVU57
 160              		.loc 1 151 59 is_stmt 0 view .LVU58
 161 0024 14109DE5 		ldr	r1, [sp, #20]
 162              	.LVL4:
 163              	.LBB16:
 164              	.LBB14:
 165              		.loc 1 92 3 view .LVU59
 166 0028 58309FE5 		ldr	r3, .L8
 167              	.LVL5:
 168              		.loc 1 92 3 view .LVU60
 169              	.LBE14:
 170              	.LBE16:
 171              		.loc 1 160 3 view .LVU61
ARM GAS  /var/folders/l5/0x54b2c10074c8bt31ycjvl80000gp/T//ccYeSm8G.s 			page 4


 172 002c 041084E5 		str	r1, [r4, #4]
 173              		.loc 1 160 3 is_stmt 1 view .LVU62
 174 0030 54109FE5 		ldr	r1, .L8+4
 175 0034 201084E5 		str	r1, [r4, #32]
 176              		.loc 1 160 36 view .LVU63
 177              		.loc 1 161 3 view .LVU64
 178              	.LVL6:
 179              	.LBB17:
 180              	.LBI12:
 181              		.loc 1 69 9 view .LVU65
 182              	.LBB15:
 183              		.loc 1 71 3 view .LVU66
 184              		.loc 1 92 3 is_stmt 0 view .LVU67
 185 0038 141093E5 		ldr	r1, [r3, #20]
 186              		.loc 1 71 14 view .LVU68
 187 003c 082080E5 		str	r2, [r0, #8]
 188              		.loc 1 72 3 is_stmt 1 view .LVU69
 189              		.loc 1 73 3 view .LVU70
 190              		.loc 1 78 18 is_stmt 0 view .LVU71
 191 0040 402080E5 		str	r2, [r0, #64]
 192              		.loc 1 95 3 view .LVU72
 193 0044 284080E2 		add	r4, r0, #40
 194              	.LVL7:
 195              		.loc 1 98 3 view .LVU73
 196 0048 2C2080E2 		add	r2, r0, #44
 197              	.LVL8:
 198              		.loc 1 92 3 view .LVU74
 199 004c 103080E5 		str	r3, [r0, #16]
 200 0050 141080E5 		str	r1, [r0, #20]
 201              		.loc 1 72 15 view .LVU75
 202 0054 BC71C0E1 		strh	r7, [r0, #28]	@ movhi
 203              	.LVL9:
 204              		.loc 1 75 3 is_stmt 1 view .LVU76
 205              		.loc 1 75 17 is_stmt 0 view .LVU77
 206 0058 1F60C0E5 		strb	r6, [r0, #31]
 207              		.loc 1 78 3 is_stmt 1 view .LVU78
 208              		.loc 1 79 3 view .LVU79
 209              		.loc 1 88 14 is_stmt 0 view .LVU80
 210 005c 1E50C0E5 		strb	r5, [r0, #30]
 211              		.loc 1 79 17 view .LVU81
 212 0060 3CE080E5 		str	lr, [r0, #60]
 213              		.loc 1 82 3 is_stmt 1 view .LVU82
 214              		.loc 1 92 3 is_stmt 0 view .LVU83
 215 0064 140083E5 		str	r0, [r3, #20]
 216              		.loc 1 82 18 view .LVU84
 217 0068 38E080E5 		str	lr, [r0, #56]
 218              		.loc 1 85 3 is_stmt 1 view .LVU85
 219              		.loc 1 85 14 is_stmt 0 view .LVU86
 220 006c 20E080E5 		str	lr, [r0, #32]
 221              		.loc 1 88 3 is_stmt 1 view .LVU87
 222              		.loc 1 91 3 view .LVU88
 223              		.loc 1 91 14 is_stmt 0 view .LVU89
 224 0070 18E080E5 		str	lr, [r0, #24]
 225              		.loc 1 92 3 is_stmt 1 view .LVU90
 226              		.loc 1 92 3 view .LVU91
 227              		.loc 1 92 3 view .LVU92
 228 0074 100081E5 		str	r0, [r1, #16]
ARM GAS  /var/folders/l5/0x54b2c10074c8bt31ycjvl80000gp/T//ccYeSm8G.s 			page 5


 229              		.loc 1 92 17 view .LVU93
 230              		.loc 1 95 3 view .LVU94
 231 0078 284080E5 		str	r4, [r0, #40]
 232              		.loc 1 98 3 view .LVU95
 233 007c 302080E5 		str	r2, [r0, #48]
 234 0080 2C2080E5 		str	r2, [r0, #44]
 235              		.loc 1 98 30 view .LVU96
 236              		.loc 1 104 3 view .LVU97
 237              		.loc 1 104 27 view .LVU98
 238              		.loc 1 106 3 view .LVU99
 239              	.LVL10:
 240              		.loc 1 106 3 is_stmt 0 view .LVU100
 241              	.LBE15:
 242              	.LBE17:
 243              		.loc 1 162 1 view .LVU101
 244 0084 F080BDE8 		pop	{r4, r5, r6, r7, pc}
 245              	.L9:
 246              		.align	2
 247              	.L8:
 248 0088 00000000 		.word	rlist
 249 008c 00000000 		.word	_port_thread_start
 250              		.cfi_endproc
 251              	.LFE8:
 252              		.size	chThdCreateI, .-chThdCreateI
 253              		.section	.text.chThdCreateStatic,"ax",%progbits
 254              		.align	2
 255              		.global	chThdCreateStatic
 256              		.syntax unified
 257              		.arm
 258              		.fpu softvfp
 259              		.type	chThdCreateStatic, %function
 260              	chThdCreateStatic:
 261              	.LVL11:
 262              	.LFB9:
 263              		.loc 1 181 64 is_stmt 1 view -0
 264              		.cfi_startproc
 265              		@ args = 4, pretend = 0, frame = 0
 266              		@ frame_needed = 0, uses_anonymous_args = 0
 267              		.loc 1 182 3 view .LVU103
 268              		.loc 1 192 3 view .LVU104
 269              		.loc 1 181 64 is_stmt 0 view .LVU105
 270 0000 F0412DE9 		push	{r4, r5, r6, r7, r8, lr}
 271              		.cfi_def_cfa_offset 24
 272              		.cfi_offset 4, -24
 273              		.cfi_offset 5, -20
 274              		.cfi_offset 6, -16
 275              		.cfi_offset 7, -12
 276              		.cfi_offset 8, -8
 277              		.cfi_offset 14, -4
 278              		.loc 1 181 64 view .LVU106
 279 0004 18809DE5 		ldr	r8, [sp, #24]
 280 0008 0040A0E1 		mov	r4, r0
 281              		.loc 1 192 3 view .LVU107
 282              		.syntax divided
 283              	@ 192 "../../os/kernel/src/chthreads.c" 1
 284 000c 9FF021E3 		msr     CPSR_c, #0x9F
 285              	@ 0 "" 2
ARM GAS  /var/folders/l5/0x54b2c10074c8bt31ycjvl80000gp/T//ccYeSm8G.s 			page 6


 286              		.loc 1 192 3 is_stmt 1 view .LVU108
 287              		.loc 1 192 14 view .LVU109
 288              		.loc 1 193 3 view .LVU110
 289              	.LVL12:
 290              		.arm
 291              		.syntax unified
 292              	.LBB18:
 293              	.LBI18:
 294              		.loc 1 150 9 view .LVU111
 295              	.LBB19:
 296              		.loc 1 153 3 view .LVU112
 297              		.loc 1 155 3 view .LVU113
 298              		.loc 1 155 21 view .LVU114
 299              		.loc 1 157 3 view .LVU115
 300              		.loc 1 159 29 view .LVU116
 301              		.loc 1 160 3 view .LVU117
 302              	.LBB20:
 303              	.LBB21:
 304              		.loc 1 72 15 is_stmt 0 view .LVU118
 305 0010 0250A0E3 		mov	r5, #2
 306              		.loc 1 79 17 view .LVU119
 307 0014 00C0A0E3 		mov	ip, #0
 308              		.loc 1 75 17 view .LVU120
 309 0018 1470A0E3 		mov	r7, #20
 310              		.loc 1 88 14 view .LVU121
 311 001c 0160A0E3 		mov	r6, #1
 312              	.LBE21:
 313              	.LBE20:
 314              		.loc 1 160 3 view .LVU122
 315 0020 241041E2 		sub	r1, r1, #36
 316              	.LVL13:
 317              		.loc 1 160 3 view .LVU123
 318 0024 01E080E0 		add	lr, r0, r1
 319 0028 0CE080E5 		str	lr, [r0, #12]
 320              		.loc 1 160 3 is_stmt 1 view .LVU124
 321 002c 013080E7 		str	r3, [r0, r1]
 322              		.loc 1 160 3 view .LVU125
 323              	.LBB25:
 324              	.LBB22:
 325              		.loc 1 92 3 is_stmt 0 view .LVU126
 326 0030 68309FE5 		ldr	r3, .L12
 327              	.LVL14:
 328              		.loc 1 92 3 view .LVU127
 329              	.LBE22:
 330              	.LBE25:
 331              		.loc 1 160 3 view .LVU128
 332 0034 68109FE5 		ldr	r1, .L12+4
 333              	.LVL15:
 334              		.loc 1 160 3 view .LVU129
 335 0038 04808EE5 		str	r8, [lr, #4]
 336              		.loc 1 160 3 is_stmt 1 view .LVU130
 337 003c 20108EE5 		str	r1, [lr, #32]
 338              		.loc 1 160 36 view .LVU131
 339              		.loc 1 161 3 view .LVU132
 340              	.LVL16:
 341              	.LBB26:
 342              	.LBI20:
ARM GAS  /var/folders/l5/0x54b2c10074c8bt31ycjvl80000gp/T//ccYeSm8G.s 			page 7


 343              		.loc 1 69 9 view .LVU133
 344              	.LBB23:
 345              		.loc 1 71 3 view .LVU134
 346              		.loc 1 92 3 is_stmt 0 view .LVU135
 347 0040 14E093E5 		ldr	lr, [r3, #20]
 348              	.LVL17:
 349              		.loc 1 71 14 view .LVU136
 350 0044 082080E5 		str	r2, [r0, #8]
 351              		.loc 1 72 3 is_stmt 1 view .LVU137
 352              		.loc 1 73 3 view .LVU138
 353              		.loc 1 78 18 is_stmt 0 view .LVU139
 354 0048 402080E5 		str	r2, [r0, #64]
 355              		.loc 1 72 15 view .LVU140
 356 004c BC51C0E1 		strh	r5, [r0, #28]	@ movhi
 357              	.LVL18:
 358              		.loc 1 75 3 is_stmt 1 view .LVU141
 359              		.loc 1 98 3 is_stmt 0 view .LVU142
 360 0050 2C2080E2 		add	r2, r0, #44
 361              	.LVL19:
 362              		.loc 1 95 3 view .LVU143
 363 0054 285080E2 		add	r5, r0, #40
 364              		.loc 1 92 3 view .LVU144
 365 0058 103080E5 		str	r3, [r0, #16]
 366 005c 14E080E5 		str	lr, [r0, #20]
 367              		.loc 1 75 17 view .LVU145
 368 0060 1F70C0E5 		strb	r7, [r0, #31]
 369              		.loc 1 78 3 is_stmt 1 view .LVU146
 370              		.loc 1 79 3 view .LVU147
 371              		.loc 1 88 14 is_stmt 0 view .LVU148
 372 0064 1E60C0E5 		strb	r6, [r0, #30]
 373              		.loc 1 79 17 view .LVU149
 374 0068 3CC080E5 		str	ip, [r0, #60]
 375              		.loc 1 82 3 is_stmt 1 view .LVU150
 376              		.loc 1 92 3 is_stmt 0 view .LVU151
 377 006c 140083E5 		str	r0, [r3, #20]
 378              		.loc 1 82 18 view .LVU152
 379 0070 38C080E5 		str	ip, [r0, #56]
 380              		.loc 1 85 3 is_stmt 1 view .LVU153
 381              		.loc 1 85 14 is_stmt 0 view .LVU154
 382 0074 20C080E5 		str	ip, [r0, #32]
 383              		.loc 1 88 3 is_stmt 1 view .LVU155
 384              		.loc 1 91 3 view .LVU156
 385              		.loc 1 91 14 is_stmt 0 view .LVU157
 386 0078 18C080E5 		str	ip, [r0, #24]
 387              		.loc 1 92 3 is_stmt 1 view .LVU158
 388              		.loc 1 92 3 view .LVU159
 389              		.loc 1 92 3 view .LVU160
 390              	.LBE23:
 391              	.LBE26:
 392              	.LBE19:
 393              	.LBE18:
 394              		.loc 1 193 3 is_stmt 0 view .LVU161
 395 007c 0C10A0E1 		mov	r1, ip
 396              	.LBB29:
 397              	.LBB28:
 398              	.LBB27:
 399              	.LBB24:
ARM GAS  /var/folders/l5/0x54b2c10074c8bt31ycjvl80000gp/T//ccYeSm8G.s 			page 8


 400              		.loc 1 92 3 view .LVU162
 401 0080 10008EE5 		str	r0, [lr, #16]
 402              		.loc 1 92 17 is_stmt 1 view .LVU163
 403              		.loc 1 95 3 view .LVU164
 404 0084 285080E5 		str	r5, [r0, #40]
 405              		.loc 1 98 3 view .LVU165
 406 0088 302080E5 		str	r2, [r0, #48]
 407 008c 2C2080E5 		str	r2, [r0, #44]
 408              		.loc 1 98 30 view .LVU166
 409              		.loc 1 104 3 view .LVU167
 410              		.loc 1 104 27 view .LVU168
 411              		.loc 1 106 3 view .LVU169
 412              	.LVL20:
 413              		.loc 1 106 3 is_stmt 0 view .LVU170
 414              	.LBE24:
 415              	.LBE27:
 416              	.LBE28:
 417              	.LBE29:
 418              		.loc 1 193 3 view .LVU171
 419 0090 FEFFFFEB 		bl	chSchWakeupS
 420              	.LVL21:
 421              		.loc 1 194 3 is_stmt 1 view .LVU172
 422              		.loc 1 194 3 view .LVU173
 423              		.syntax divided
 424              	@ 194 "../../os/kernel/src/chthreads.c" 1
 425 0094 1FF021E3 		msr     CPSR_c, #0x1F
 426              	@ 0 "" 2
 427              		.loc 1 194 16 view .LVU174
 428              		.loc 1 195 3 view .LVU175
 429              		.loc 1 196 1 is_stmt 0 view .LVU176
 430              		.arm
 431              		.syntax unified
 432 0098 0400A0E1 		mov	r0, r4
 433 009c F081BDE8 		pop	{r4, r5, r6, r7, r8, pc}
 434              	.L13:
 435              		.align	2
 436              	.L12:
 437 00a0 00000000 		.word	rlist
 438 00a4 00000000 		.word	_port_thread_start
 439              		.cfi_endproc
 440              	.LFE9:
 441              		.size	chThdCreateStatic, .-chThdCreateStatic
 442              		.section	.text.chThdSetPriority,"ax",%progbits
 443              		.align	2
 444              		.global	chThdSetPriority
 445              		.syntax unified
 446              		.arm
 447              		.fpu softvfp
 448              		.type	chThdSetPriority, %function
 449              	chThdSetPriority:
 450              	.LVL22:
 451              	.LFB10:
 452              		.loc 1 210 43 is_stmt 1 view -0
 453              		.cfi_startproc
 454              		@ args = 0, pretend = 0, frame = 0
 455              		@ frame_needed = 0, uses_anonymous_args = 0
 456              		.loc 1 211 3 view .LVU178
ARM GAS  /var/folders/l5/0x54b2c10074c8bt31ycjvl80000gp/T//ccYeSm8G.s 			page 9


 457              		.loc 1 213 3 view .LVU179
 458              		.loc 1 213 54 view .LVU180
 459              		.loc 1 215 3 view .LVU181
 460              		.loc 1 210 43 is_stmt 0 view .LVU182
 461 0000 10402DE9 		push	{r4, lr}
 462              		.cfi_def_cfa_offset 8
 463              		.cfi_offset 4, -8
 464              		.cfi_offset 14, -4
 465              		.loc 1 210 43 view .LVU183
 466 0004 0010A0E1 		mov	r1, r0
 467              		.loc 1 215 3 view .LVU184
 468              		.syntax divided
 469              	@ 215 "../../os/kernel/src/chthreads.c" 1
 470 0008 9FF021E3 		msr     CPSR_c, #0x9F
 471              	@ 0 "" 2
 472              		.loc 1 215 3 is_stmt 1 view .LVU185
 473              		.loc 1 215 14 view .LVU186
 474              		.loc 1 217 3 view .LVU187
 475              		.loc 1 217 13 is_stmt 0 view .LVU188
 476              		.arm
 477              		.syntax unified
 478 000c 38309FE5 		ldr	r3, .L20
 479 0010 183093E5 		ldr	r3, [r3, #24]
 480              		.loc 1 218 13 view .LVU189
 481 0014 080093E5 		ldr	r0, [r3, #8]
 482              	.LVL23:
 483              		.loc 1 217 11 view .LVU190
 484 0018 404093E5 		ldr	r4, [r3, #64]
 485              	.LVL24:
 486              		.loc 1 218 3 is_stmt 1 view .LVU191
 487              		.loc 1 220 21 is_stmt 0 view .LVU192
 488 001c 401083E5 		str	r1, [r3, #64]
 489              		.loc 1 218 6 view .LVU193
 490 0020 042040E0 		sub	r2, r0, r4
 491 0024 122F6FE1 		clz	r2, r2
 492 0028 A222A0E1 		lsr	r2, r2, #5
 493              		.loc 1 218 44 view .LVU194
 494 002c 010050E1 		cmp	r0, r1
 495 0030 01208233 		orrcc	r2, r2, #1
 496 0034 000052E3 		cmp	r2, #0
 497              		.loc 1 219 5 is_stmt 1 view .LVU195
 498              		.loc 1 219 19 is_stmt 0 view .LVU196
 499 0038 08108315 		strne	r1, [r3, #8]
 500              		.loc 1 220 3 is_stmt 1 view .LVU197
 501              		.loc 1 225 3 view .LVU198
 502 003c FEFFFFEB 		bl	chSchRescheduleS
 503              	.LVL25:
 504              		.loc 1 226 3 view .LVU199
 505              		.loc 1 226 3 view .LVU200
 506              		.syntax divided
 507              	@ 226 "../../os/kernel/src/chthreads.c" 1
 508 0040 1FF021E3 		msr     CPSR_c, #0x1F
 509              	@ 0 "" 2
 510              		.loc 1 226 16 view .LVU201
 511              		.loc 1 227 3 view .LVU202
 512              		.loc 1 228 1 is_stmt 0 view .LVU203
 513              		.arm
ARM GAS  /var/folders/l5/0x54b2c10074c8bt31ycjvl80000gp/T//ccYeSm8G.s 			page 10


 514              		.syntax unified
 515 0044 0400A0E1 		mov	r0, r4
 516 0048 1080BDE8 		pop	{r4, pc}
 517              	.L21:
 518              		.align	2
 519              	.L20:
 520 004c 00000000 		.word	rlist
 521              		.cfi_endproc
 522              	.LFE10:
 523              		.size	chThdSetPriority, .-chThdSetPriority
 524              		.section	.text.chThdResume,"ax",%progbits
 525              		.align	2
 526              		.global	chThdResume
 527              		.syntax unified
 528              		.arm
 529              		.fpu softvfp
 530              		.type	chThdResume, %function
 531              	chThdResume:
 532              	.LVL26:
 533              	.LFB11:
 534              		.loc 1 243 33 is_stmt 1 view -0
 535              		.cfi_startproc
 536              		@ args = 0, pretend = 0, frame = 0
 537              		@ frame_needed = 0, uses_anonymous_args = 0
 538              		.loc 1 245 3 view .LVU205
 539              		.loc 1 243 33 is_stmt 0 view .LVU206
 540 0000 10402DE9 		push	{r4, lr}
 541              		.cfi_def_cfa_offset 8
 542              		.cfi_offset 4, -8
 543              		.cfi_offset 14, -4
 544              		.loc 1 243 33 view .LVU207
 545 0004 0040A0E1 		mov	r4, r0
 546              		.loc 1 245 3 view .LVU208
 547              		.syntax divided
 548              	@ 245 "../../os/kernel/src/chthreads.c" 1
 549 0008 9FF021E3 		msr     CPSR_c, #0x9F
 550              	@ 0 "" 2
 551              		.loc 1 245 3 is_stmt 1 view .LVU209
 552              		.loc 1 245 14 view .LVU210
 553              		.loc 1 246 3 view .LVU211
 554              		.loc 1 248 57 view .LVU212
 555              		.loc 1 249 3 view .LVU213
 556              		.arm
 557              		.syntax unified
 558 000c 0010A0E3 		mov	r1, #0
 559 0010 FEFFFFEB 		bl	chSchWakeupS
 560              	.LVL27:
 561              		.loc 1 250 3 view .LVU214
 562              		.loc 1 250 3 view .LVU215
 563              		.syntax divided
 564              	@ 250 "../../os/kernel/src/chthreads.c" 1
 565 0014 1FF021E3 		msr     CPSR_c, #0x1F
 566              	@ 0 "" 2
 567              		.loc 1 250 16 view .LVU216
 568              		.loc 1 251 3 view .LVU217
 569              		.loc 1 252 1 is_stmt 0 view .LVU218
 570              		.arm
ARM GAS  /var/folders/l5/0x54b2c10074c8bt31ycjvl80000gp/T//ccYeSm8G.s 			page 11


 571              		.syntax unified
 572 0018 0400A0E1 		mov	r0, r4
 573 001c 1080BDE8 		pop	{r4, pc}
 574              		.cfi_endproc
 575              	.LFE11:
 576              		.size	chThdResume, .-chThdResume
 577              		.section	.text.chThdTerminate,"ax",%progbits
 578              		.align	2
 579              		.global	chThdTerminate
 580              		.syntax unified
 581              		.arm
 582              		.fpu softvfp
 583              		.type	chThdTerminate, %function
 584              	chThdTerminate:
 585              	.LVL28:
 586              	.LFB12:
 587              		.loc 1 266 33 is_stmt 1 view -0
 588              		.cfi_startproc
 589              		@ args = 0, pretend = 0, frame = 0
 590              		@ frame_needed = 0, uses_anonymous_args = 0
 591              		@ link register save eliminated.
 592              		.loc 1 268 3 view .LVU220
 593              		.syntax divided
 594              	@ 268 "../../os/kernel/src/chthreads.c" 1
 595 0000 9FF021E3 		msr     CPSR_c, #0x9F
 596              	@ 0 "" 2
 597              		.loc 1 268 3 view .LVU221
 598              		.loc 1 268 14 view .LVU222
 599              		.loc 1 269 3 view .LVU223
 600              		.loc 1 269 15 is_stmt 0 view .LVU224
 601              		.arm
 602              		.syntax unified
 603 0004 1D30D0E5 		ldrb	r3, [r0, #29]	@ zero_extendqisi2
 604 0008 043083E3 		orr	r3, r3, #4
 605 000c 1D30C0E5 		strb	r3, [r0, #29]
 606              		.loc 1 270 3 is_stmt 1 view .LVU225
 607              		.loc 1 270 3 view .LVU226
 608              		.syntax divided
 609              	@ 270 "../../os/kernel/src/chthreads.c" 1
 610 0010 1FF021E3 		msr     CPSR_c, #0x1F
 611              	@ 0 "" 2
 612              		.loc 1 270 16 view .LVU227
 613              		.loc 1 271 1 is_stmt 0 view .LVU228
 614              		.arm
 615              		.syntax unified
 616 0014 1EFF2FE1 		bx	lr
 617              		.cfi_endproc
 618              	.LFE12:
 619              		.size	chThdTerminate, .-chThdTerminate
 620              		.section	.text.chThdSleep,"ax",%progbits
 621              		.align	2
 622              		.global	chThdSleep
 623              		.syntax unified
 624              		.arm
 625              		.fpu softvfp
 626              		.type	chThdSleep, %function
 627              	chThdSleep:
ARM GAS  /var/folders/l5/0x54b2c10074c8bt31ycjvl80000gp/T//ccYeSm8G.s 			page 12


 628              	.LVL29:
 629              	.LFB13:
 630              		.loc 1 285 33 is_stmt 1 view -0
 631              		.cfi_startproc
 632              		@ args = 0, pretend = 0, frame = 0
 633              		@ frame_needed = 0, uses_anonymous_args = 0
 634              		.loc 1 287 3 view .LVU230
 635              		.loc 1 287 51 view .LVU231
 636              		.loc 1 289 3 view .LVU232
 637              		.loc 1 285 33 is_stmt 0 view .LVU233
 638 0000 10402DE9 		push	{r4, lr}
 639              		.cfi_def_cfa_offset 8
 640              		.cfi_offset 4, -8
 641              		.cfi_offset 14, -4
 642              		.loc 1 285 33 view .LVU234
 643 0004 0010A0E1 		mov	r1, r0
 644              		.loc 1 289 3 view .LVU235
 645              		.syntax divided
 646              	@ 289 "../../os/kernel/src/chthreads.c" 1
 647 0008 9FF021E3 		msr     CPSR_c, #0x9F
 648              	@ 0 "" 2
 649              		.loc 1 289 3 is_stmt 1 view .LVU236
 650              		.loc 1 289 14 view .LVU237
 651              		.loc 1 290 3 view .LVU238
 652              		.arm
 653              		.syntax unified
 654 000c 0600A0E3 		mov	r0, #6
 655              	.LVL30:
 656              		.loc 1 290 3 is_stmt 0 view .LVU239
 657 0010 FEFFFFEB 		bl	chSchGoSleepTimeoutS
 658              	.LVL31:
 659              		.loc 1 291 3 is_stmt 1 view .LVU240
 660              		.loc 1 291 3 view .LVU241
 661              		.syntax divided
 662              	@ 291 "../../os/kernel/src/chthreads.c" 1
 663 0014 1FF021E3 		msr     CPSR_c, #0x1F
 664              	@ 0 "" 2
 665              		.loc 1 291 16 view .LVU242
 666              		.loc 1 292 1 is_stmt 0 view .LVU243
 667              		.arm
 668              		.syntax unified
 669 0018 1080BDE8 		pop	{r4, pc}
 670              		.cfi_endproc
 671              	.LFE13:
 672              		.size	chThdSleep, .-chThdSleep
 673              		.section	.text.chThdSleepUntil,"ax",%progbits
 674              		.align	2
 675              		.global	chThdSleepUntil
 676              		.syntax unified
 677              		.arm
 678              		.fpu softvfp
 679              		.type	chThdSleepUntil, %function
 680              	chThdSleepUntil:
 681              	.LVL32:
 682              	.LFB14:
 683              		.loc 1 302 38 is_stmt 1 view -0
 684              		.cfi_startproc
ARM GAS  /var/folders/l5/0x54b2c10074c8bt31ycjvl80000gp/T//ccYeSm8G.s 			page 13


 685              		@ args = 0, pretend = 0, frame = 0
 686              		@ frame_needed = 0, uses_anonymous_args = 0
 687              		.loc 1 304 3 view .LVU245
 688              		.syntax divided
 689              	@ 304 "../../os/kernel/src/chthreads.c" 1
 690 0000 9FF021E3 		msr     CPSR_c, #0x9F
 691              	@ 0 "" 2
 692              		.loc 1 304 3 view .LVU246
 693              		.loc 1 304 14 view .LVU247
 694              		.loc 1 305 3 view .LVU248
 695              		.loc 1 305 16 is_stmt 0 view .LVU249
 696              		.arm
 697              		.syntax unified
 698 0004 24309FE5 		ldr	r3, .L37
 699 0008 0C1093E5 		ldr	r1, [r3, #12]
 700              	.LVL33:
 701              		.loc 1 305 6 view .LVU250
 702 000c 011050E0 		subs	r1, r0, r1
 703              	.LVL34:
 704              		.loc 1 305 6 view .LVU251
 705 0010 0100001A 		bne	.L36
 706              		.loc 1 307 3 is_stmt 1 view .LVU252
 707              		.loc 1 307 3 view .LVU253
 708              		.syntax divided
 709              	@ 307 "../../os/kernel/src/chthreads.c" 1
 710 0014 1FF021E3 		msr     CPSR_c, #0x1F
 711              	@ 0 "" 2
 712              		.loc 1 307 16 view .LVU254
 713              		.loc 1 307 3 is_stmt 0 view .LVU255
 714              		.arm
 715              		.syntax unified
 716 0018 1EFF2FE1 		bx	lr
 717              	.L36:
 718              		.loc 1 306 5 is_stmt 1 view .LVU256
 719              		.loc 1 302 38 is_stmt 0 view .LVU257
 720 001c 10402DE9 		push	{r4, lr}
 721              		.cfi_def_cfa_offset 8
 722              		.cfi_offset 4, -8
 723              		.cfi_offset 14, -4
 724              		.loc 1 306 5 view .LVU258
 725 0020 0600A0E3 		mov	r0, #6
 726 0024 FEFFFFEB 		bl	chSchGoSleepTimeoutS
 727              	.LVL35:
 728              		.loc 1 307 3 is_stmt 1 view .LVU259
 729              		.loc 1 307 3 view .LVU260
 730              		.syntax divided
 731              	@ 307 "../../os/kernel/src/chthreads.c" 1
 732 0028 1FF021E3 		msr     CPSR_c, #0x1F
 733              	@ 0 "" 2
 734              		.loc 1 307 16 view .LVU261
 735              		.loc 1 308 1 is_stmt 0 view .LVU262
 736              		.arm
 737              		.syntax unified
 738 002c 1080BDE8 		pop	{r4, pc}
 739              	.L38:
 740              		.align	2
 741              	.L37:
ARM GAS  /var/folders/l5/0x54b2c10074c8bt31ycjvl80000gp/T//ccYeSm8G.s 			page 14


 742 0030 00000000 		.word	vtlist
 743              		.cfi_endproc
 744              	.LFE14:
 745              		.size	chThdSleepUntil, .-chThdSleepUntil
 746              		.section	.text.chThdYield,"ax",%progbits
 747              		.align	2
 748              		.global	chThdYield
 749              		.syntax unified
 750              		.arm
 751              		.fpu softvfp
 752              		.type	chThdYield, %function
 753              	chThdYield:
 754              	.LFB15:
 755              		.loc 1 317 23 is_stmt 1 view -0
 756              		.cfi_startproc
 757              		@ args = 0, pretend = 0, frame = 0
 758              		@ frame_needed = 0, uses_anonymous_args = 0
 759              		.loc 1 319 3 view .LVU264
 760              		.syntax divided
 761              	@ 319 "../../os/kernel/src/chthreads.c" 1
 762 0000 9FF021E3 		msr     CPSR_c, #0x9F
 763              	@ 0 "" 2
 764              		.loc 1 319 3 view .LVU265
 765              		.loc 1 319 14 view .LVU266
 766              		.loc 1 320 3 view .LVU267
 767              		.arm
 768              		.syntax unified
 769 0004 2C309FE5 		ldr	r3, .L46
 770 0008 002093E5 		ldr	r2, [r3]
 771 000c 183093E5 		ldr	r3, [r3, #24]
 772 0010 082092E5 		ldr	r2, [r2, #8]
 773 0014 083093E5 		ldr	r3, [r3, #8]
 774 0018 030052E1 		cmp	r2, r3
 775 001c 0100002A 		bcs	.L45
 776              		.loc 1 320 18 view .LVU268
 777              		.loc 1 321 3 view .LVU269
 778              		.loc 1 321 3 view .LVU270
 779              		.syntax divided
 780              	@ 321 "../../os/kernel/src/chthreads.c" 1
 781 0020 1FF021E3 		msr     CPSR_c, #0x1F
 782              	@ 0 "" 2
 783              		.loc 1 321 16 view .LVU271
 784              		.loc 1 321 3 is_stmt 0 view .LVU272
 785              		.arm
 786              		.syntax unified
 787 0024 1EFF2FE1 		bx	lr
 788              	.L45:
 789              		.loc 1 320 3 is_stmt 1 discriminator 1 view .LVU273
 790              		.loc 1 317 23 is_stmt 0 discriminator 1 view .LVU274
 791 0028 10402DE9 		push	{r4, lr}
 792              		.cfi_def_cfa_offset 8
 793              		.cfi_offset 4, -8
 794              		.cfi_offset 14, -4
 795              		.loc 1 320 3 discriminator 1 view .LVU275
 796 002c FEFFFFEB 		bl	chSchDoRescheduleBehind
 797              	.LVL36:
 798              		.loc 1 320 18 is_stmt 1 discriminator 1 view .LVU276
ARM GAS  /var/folders/l5/0x54b2c10074c8bt31ycjvl80000gp/T//ccYeSm8G.s 			page 15


 799              		.loc 1 321 3 discriminator 1 view .LVU277
 800              		.loc 1 321 3 discriminator 1 view .LVU278
 801              		.syntax divided
 802              	@ 321 "../../os/kernel/src/chthreads.c" 1
 803 0030 1FF021E3 		msr     CPSR_c, #0x1F
 804              	@ 0 "" 2
 805              		.loc 1 321 16 discriminator 1 view .LVU279
 806              		.loc 1 322 1 is_stmt 0 discriminator 1 view .LVU280
 807              		.arm
 808              		.syntax unified
 809 0034 1080BDE8 		pop	{r4, pc}
 810              	.L47:
 811              		.align	2
 812              	.L46:
 813 0038 00000000 		.word	rlist
 814              		.cfi_endproc
 815              	.LFE15:
 816              		.size	chThdYield, .-chThdYield
 817              		.section	.text.chThdExitS,"ax",%progbits
 818              		.align	2
 819              		.global	chThdExitS
 820              		.syntax unified
 821              		.arm
 822              		.fpu softvfp
 823              		.type	chThdExitS, %function
 824              	chThdExitS:
 825              	.LVL37:
 826              	.LFB17:
 827              		.loc 1 359 28 is_stmt 1 view -0
 828              		.cfi_startproc
 829              		@ args = 0, pretend = 0, frame = 0
 830              		@ frame_needed = 0, uses_anonymous_args = 0
 831              		.loc 1 360 3 view .LVU282
 832              		.loc 1 360 11 is_stmt 0 view .LVU283
 833 0000 58309FE5 		ldr	r3, .L54
 834              		.loc 1 359 28 view .LVU284
 835 0004 70402DE9 		push	{r4, r5, r6, lr}
 836              		.cfi_def_cfa_offset 16
 837              		.cfi_offset 4, -16
 838              		.cfi_offset 5, -12
 839              		.cfi_offset 6, -8
 840              		.cfi_offset 14, -4
 841              		.loc 1 360 11 view .LVU285
 842 0008 184093E5 		ldr	r4, [r3, #24]
 843              	.LVL38:
 844              		.loc 1 362 3 is_stmt 1 view .LVU286
 845              		.loc 1 367 10 is_stmt 0 view .LVU287
 846 000c 0450A0E1 		mov	r5, r4
 847 0010 2830B5E5 		ldr	r3, [r5, #40]!
 848              		.loc 1 362 20 view .LVU288
 849 0014 240084E5 		str	r0, [r4, #36]
 850              		.loc 1 364 3 is_stmt 1 view .LVU289
 851              		.loc 1 364 27 view .LVU290
 852              		.loc 1 367 3 view .LVU291
 853              		.loc 1 367 9 is_stmt 0 view .LVU292
 854 0018 030055E1 		cmp	r5, r3
 855 001c 0600000A 		beq	.L49
ARM GAS  /var/folders/l5/0x54b2c10074c8bt31ycjvl80000gp/T//ccYeSm8G.s 			page 16


 856              	.LVL39:
 857              	.L50:
 858              		.loc 1 368 5 is_stmt 1 view .LVU293
 859              	.LBB30:
 860              	.LBI30:
 861              		.file 2 "../../os/kernel/include/chinline.h"
 862              		.loc 2 79 23 view .LVU294
 863              	.LBB31:
 864              		.loc 2 81 3 view .LVU295
 865              		.loc 2 82 3 view .LVU296
 866              		.loc 2 82 19 is_stmt 0 view .LVU297
 867 0020 002093E5 		ldr	r2, [r3]
 868              	.LBE31:
 869              	.LBE30:
 870              		.loc 1 368 5 view .LVU298
 871 0024 0300A0E1 		mov	r0, r3
 872              	.LBB33:
 873              	.LBB32:
 874              		.loc 2 82 15 view .LVU299
 875 0028 282084E5 		str	r2, [r4, #40]
 876              		.loc 2 83 3 is_stmt 1 view .LVU300
 877              	.LVL40:
 878              		.loc 2 83 3 is_stmt 0 view .LVU301
 879              	.LBE32:
 880              	.LBE33:
 881              		.loc 1 368 5 view .LVU302
 882 002c FEFFFFEB 		bl	chSchReadyI
 883              	.LVL41:
 884              		.loc 1 367 10 view .LVU303
 885 0030 283094E5 		ldr	r3, [r4, #40]
 886              		.loc 1 367 9 view .LVU304
 887 0034 050053E1 		cmp	r3, r5
 888 0038 F8FFFF1A 		bne	.L50
 889              	.LVL42:
 890              	.L49:
 891              		.loc 1 373 3 is_stmt 1 view .LVU305
 892              		.loc 1 373 6 is_stmt 0 view .LVU306
 893 003c 1D30D4E5 		ldrb	r3, [r4, #29]	@ zero_extendqisi2
 894              		.loc 1 376 3 view .LVU307
 895 0040 0E00A0E3 		mov	r0, #14
 896              		.loc 1 373 6 view .LVU308
 897 0044 030013E3 		tst	r3, #3
 898              		.loc 1 374 5 is_stmt 1 view .LVU309
 899 0048 14209405 		ldreq	r2, [r4, #20]
 900 004c 10309405 		ldreq	r3, [r4, #16]
 901              		.loc 1 379 1 is_stmt 0 view .LVU310
 902 0050 7040BDE8 		pop	{r4, r5, r6, lr}
 903              		.cfi_restore 14
 904              		.cfi_restore 6
 905              		.cfi_restore 5
 906              		.cfi_restore 4
 907              		.cfi_def_cfa_offset 0
 908              	.LVL43:
 909              		.loc 1 374 5 view .LVU311
 910 0054 10308205 		streq	r3, [r2, #16]
 911              		.loc 1 374 5 is_stmt 1 view .LVU312
 912 0058 14208305 		streq	r2, [r3, #20]
ARM GAS  /var/folders/l5/0x54b2c10074c8bt31ycjvl80000gp/T//ccYeSm8G.s 			page 17


 913              		.loc 1 374 19 view .LVU313
 914              		.loc 1 376 3 view .LVU314
 915 005c FEFFFFEA 		b	chSchGoSleepS
 916              	.LVL44:
 917              	.L55:
 918              		.align	2
 919              	.L54:
 920 0060 00000000 		.word	rlist
 921              		.cfi_endproc
 922              	.LFE17:
 923              		.size	chThdExitS, .-chThdExitS
 924              		.section	.text.chThdExit,"ax",%progbits
 925              		.align	2
 926              		.global	chThdExit
 927              		.syntax unified
 928              		.arm
 929              		.fpu softvfp
 930              		.type	chThdExit, %function
 931              	chThdExit:
 932              	.LVL45:
 933              	.LFB16:
 934              		.loc 1 338 27 view -0
 935              		.cfi_startproc
 936              		@ args = 0, pretend = 0, frame = 0
 937              		@ frame_needed = 0, uses_anonymous_args = 0
 938              		@ link register save eliminated.
 939              		.loc 1 340 3 view .LVU316
 940              		.syntax divided
 941              	@ 340 "../../os/kernel/src/chthreads.c" 1
 942 0000 9FF021E3 		msr     CPSR_c, #0x9F
 943              	@ 0 "" 2
 944              		.loc 1 340 3 view .LVU317
 945              		.loc 1 340 14 view .LVU318
 946              		.loc 1 341 3 view .LVU319
 947              		.arm
 948              		.syntax unified
 949 0004 FEFFFFEA 		b	chThdExitS
 950              	.LVL46:
 951              		.loc 1 341 3 is_stmt 0 view .LVU320
 952              		.cfi_endproc
 953              	.LFE16:
 954              		.size	chThdExit, .-chThdExit
 955              		.section	.text.chThdWait,"ax",%progbits
 956              		.align	2
 957              		.global	chThdWait
 958              		.syntax unified
 959              		.arm
 960              		.fpu softvfp
 961              		.type	chThdWait, %function
 962              	chThdWait:
 963              	.LVL47:
 964              	.LFB18:
 965              		.loc 1 413 29 is_stmt 1 view -0
 966              		.cfi_startproc
 967              		@ args = 0, pretend = 0, frame = 0
 968              		@ frame_needed = 0, uses_anonymous_args = 0
 969              		.loc 1 414 3 view .LVU322
ARM GAS  /var/folders/l5/0x54b2c10074c8bt31ycjvl80000gp/T//ccYeSm8G.s 			page 18


 970              		.loc 1 416 3 view .LVU323
 971              		.loc 1 416 38 view .LVU324
 972              		.loc 1 418 3 view .LVU325
 973              		.loc 1 413 29 is_stmt 0 view .LVU326
 974 0000 70402DE9 		push	{r4, r5, r6, lr}
 975              		.cfi_def_cfa_offset 16
 976              		.cfi_offset 4, -16
 977              		.cfi_offset 5, -12
 978              		.cfi_offset 6, -8
 979              		.cfi_offset 14, -4
 980              		.loc 1 413 29 view .LVU327
 981 0004 0040A0E1 		mov	r4, r0
 982              		.loc 1 418 3 view .LVU328
 983              		.syntax divided
 984              	@ 418 "../../os/kernel/src/chthreads.c" 1
 985 0008 9FF021E3 		msr     CPSR_c, #0x9F
 986              	@ 0 "" 2
 987              		.loc 1 418 3 is_stmt 1 view .LVU329
 988              		.loc 1 418 14 view .LVU330
 989              		.loc 1 419 3 view .LVU331
 990              		.loc 1 419 62 view .LVU332
 991              		.loc 1 421 3 view .LVU333
 992              		.loc 1 421 67 view .LVU334
 993              		.loc 1 423 3 view .LVU335
 994              		.loc 1 423 6 is_stmt 0 view .LVU336
 995              		.arm
 996              		.syntax unified
 997 000c 1C30D0E5 		ldrb	r3, [r0, #28]	@ zero_extendqisi2
 998 0010 0E0053E3 		cmp	r3, #14
 999 0014 0600000A 		beq	.L58
 1000              		.loc 1 419 3 view .LVU337
 1001 0018 2C309FE5 		ldr	r3, .L63
 1002              	.LBB34:
 1003              	.LBB35:
 1004              		.loc 2 75 19 view .LVU338
 1005 001c 282090E5 		ldr	r2, [r0, #40]
 1006              	.LBE35:
 1007              	.LBE34:
 1008              		.loc 1 419 3 view .LVU339
 1009 0020 183093E5 		ldr	r3, [r3, #24]
 1010              		.loc 1 424 5 is_stmt 1 view .LVU340
 1011              	.LVL48:
 1012              	.LBB38:
 1013              	.LBI34:
 1014              		.loc 2 73 20 view .LVU341
 1015              	.LBB36:
 1016              		.loc 2 75 3 view .LVU342
 1017              	.LBE36:
 1018              	.LBE38:
 1019              		.loc 1 425 5 is_stmt 0 view .LVU343
 1020 0024 0700A0E3 		mov	r0, #7
 1021              	.LVL49:
 1022              	.LBB39:
 1023              	.LBB37:
 1024              		.loc 2 75 14 view .LVU344
 1025 0028 002083E5 		str	r2, [r3]
 1026              		.loc 2 76 3 is_stmt 1 view .LVU345
ARM GAS  /var/folders/l5/0x54b2c10074c8bt31ycjvl80000gp/T//ccYeSm8G.s 			page 19


 1027              		.loc 2 76 15 is_stmt 0 view .LVU346
 1028 002c 283084E5 		str	r3, [r4, #40]
 1029              	.LVL50:
 1030              		.loc 2 76 15 view .LVU347
 1031              	.LBE37:
 1032              	.LBE39:
 1033              		.loc 1 425 5 is_stmt 1 view .LVU348
 1034 0030 FEFFFFEB 		bl	chSchGoSleepS
 1035              	.LVL51:
 1036              	.L58:
 1037              		.loc 1 427 3 view .LVU349
 1038              		.loc 1 427 7 is_stmt 0 view .LVU350
 1039 0034 245094E5 		ldr	r5, [r4, #36]
 1040              	.LVL52:
 1041              		.loc 1 428 3 is_stmt 1 view .LVU351
 1042              		.loc 1 428 3 view .LVU352
 1043              		.syntax divided
 1044              	@ 428 "../../os/kernel/src/chthreads.c" 1
 1045 0038 1FF021E3 		msr     CPSR_c, #0x1F
 1046              	@ 0 "" 2
 1047              		.loc 1 428 16 view .LVU353
 1048              		.loc 1 430 3 view .LVU354
 1049              		.arm
 1050              		.syntax unified
 1051 003c 0400A0E1 		mov	r0, r4
 1052 0040 FEFFFFEB 		bl	chThdRelease
 1053              	.LVL53:
 1054              		.loc 1 432 3 view .LVU355
 1055              		.loc 1 433 1 is_stmt 0 view .LVU356
 1056 0044 0500A0E1 		mov	r0, r5
 1057 0048 7080BDE8 		pop	{r4, r5, r6, pc}
 1058              	.L64:
 1059              		.align	2
 1060              	.L63:
 1061 004c 00000000 		.word	rlist
 1062              		.cfi_endproc
 1063              	.LFE18:
 1064              		.size	chThdWait, .-chThdWait
 1065              		.text
 1066              	.Letext0:
 1067              		.file 3 "/usr/local/Cellar/arm-gcc-bin/8-2019-q3-update/lib/gcc/arm-none-eabi/8.3.1/include/stddef
 1068              		.file 4 "/usr/local/Cellar/arm-gcc-bin/8-2019-q3-update/arm-none-eabi/include/machine/_default_typ
 1069              		.file 5 "/usr/local/Cellar/arm-gcc-bin/8-2019-q3-update/arm-none-eabi/include/sys/_stdint.h"
 1070              		.file 6 "../../os/ports/GCC/ARM/chtypes.h"
 1071              		.file 7 "../../os/kernel/include/chlists.h"
 1072              		.file 8 "../../os/kernel/include/chthreads.h"
 1073              		.file 9 "../../os/ports/GCC/ARM/chcore.h"
 1074              		.file 10 "../../os/kernel/include/chvt.h"
 1075              		.file 11 "../../os/kernel/include/chschd.h"
 1076              		.file 12 "../../os/kernel/include/chmtx.h"
 1077              		.file 13 "../../os/kernel/include/chregistry.h"
 1078              		.file 14 "../../os/kernel/include/ch.h"
 1079              		.file 15 "../../os/kernel/include/chdynamic.h"
 1080              		.section	.debug_info,"",%progbits
 1081              	.Ldebug_info0:
 1082 0000 540C0000 		.4byte	0xc54
 1083 0004 0400     		.2byte	0x4
ARM GAS  /var/folders/l5/0x54b2c10074c8bt31ycjvl80000gp/T//ccYeSm8G.s 			page 20


 1084 0006 00000000 		.4byte	.Ldebug_abbrev0
 1085 000a 04       		.byte	0x4
 1086 000b 01       		.uleb128 0x1
 1087 000c 02020000 		.4byte	.LASF124
 1088 0010 0C       		.byte	0xc
 1089 0011 CB050000 		.4byte	.LASF125
 1090 0015 94030000 		.4byte	.LASF126
 1091 0019 98000000 		.4byte	.Ldebug_ranges0+0x98
 1092 001d 00000000 		.4byte	0
 1093 0021 00000000 		.4byte	.Ldebug_line0
 1094 0025 02       		.uleb128 0x2
 1095 0026 04       		.byte	0x4
 1096 0027 05       		.byte	0x5
 1097 0028 696E7400 		.ascii	"int\000"
 1098 002c 03       		.uleb128 0x3
 1099 002d 1B000000 		.4byte	.LASF2
 1100 0031 03       		.byte	0x3
 1101 0032 D8       		.byte	0xd8
 1102 0033 17       		.byte	0x17
 1103 0034 38000000 		.4byte	0x38
 1104 0038 04       		.uleb128 0x4
 1105 0039 04       		.byte	0x4
 1106 003a 07       		.byte	0x7
 1107 003b 73010000 		.4byte	.LASF0
 1108 003f 04       		.uleb128 0x4
 1109 0040 01       		.byte	0x1
 1110 0041 06       		.byte	0x6
 1111 0042 9A000000 		.4byte	.LASF1
 1112 0046 03       		.uleb128 0x3
 1113 0047 2E000000 		.4byte	.LASF3
 1114 004b 04       		.byte	0x4
 1115 004c 2B       		.byte	0x2b
 1116 004d 18       		.byte	0x18
 1117 004e 52000000 		.4byte	0x52
 1118 0052 04       		.uleb128 0x4
 1119 0053 01       		.byte	0x1
 1120 0054 08       		.byte	0x8
 1121 0055 47040000 		.4byte	.LASF4
 1122 0059 04       		.uleb128 0x4
 1123 005a 02       		.byte	0x2
 1124 005b 05       		.byte	0x5
 1125 005c 5F040000 		.4byte	.LASF5
 1126 0060 03       		.uleb128 0x3
 1127 0061 2F050000 		.4byte	.LASF6
 1128 0065 04       		.byte	0x4
 1129 0066 39       		.byte	0x39
 1130 0067 19       		.byte	0x19
 1131 0068 6C000000 		.4byte	0x6c
 1132 006c 04       		.uleb128 0x4
 1133 006d 02       		.byte	0x2
 1134 006e 07       		.byte	0x7
 1135 006f D4010000 		.4byte	.LASF7
 1136 0073 03       		.uleb128 0x3
 1137 0074 62050000 		.4byte	.LASF8
 1138 0078 04       		.byte	0x4
 1139 0079 4D       		.byte	0x4d
 1140 007a 18       		.byte	0x18
ARM GAS  /var/folders/l5/0x54b2c10074c8bt31ycjvl80000gp/T//ccYeSm8G.s 			page 21


 1141 007b 7F000000 		.4byte	0x7f
 1142 007f 04       		.uleb128 0x4
 1143 0080 04       		.byte	0x4
 1144 0081 05       		.byte	0x5
 1145 0082 EC000000 		.4byte	.LASF9
 1146 0086 03       		.uleb128 0x3
 1147 0087 46010000 		.4byte	.LASF10
 1148 008b 04       		.byte	0x4
 1149 008c 4F       		.byte	0x4f
 1150 008d 19       		.byte	0x19
 1151 008e 92000000 		.4byte	0x92
 1152 0092 04       		.uleb128 0x4
 1153 0093 04       		.byte	0x4
 1154 0094 07       		.byte	0x7
 1155 0095 95010000 		.4byte	.LASF11
 1156 0099 04       		.uleb128 0x4
 1157 009a 08       		.byte	0x8
 1158 009b 05       		.byte	0x5
 1159 009c 8C000000 		.4byte	.LASF12
 1160 00a0 04       		.uleb128 0x4
 1161 00a1 08       		.byte	0x8
 1162 00a2 07       		.byte	0x7
 1163 00a3 4A000000 		.4byte	.LASF13
 1164 00a7 03       		.uleb128 0x3
 1165 00a8 C3050000 		.4byte	.LASF14
 1166 00ac 05       		.byte	0x5
 1167 00ad 18       		.byte	0x18
 1168 00ae 13       		.byte	0x13
 1169 00af 46000000 		.4byte	0x46
 1170 00b3 03       		.uleb128 0x3
 1171 00b4 FE000000 		.4byte	.LASF15
 1172 00b8 05       		.byte	0x5
 1173 00b9 24       		.byte	0x24
 1174 00ba 14       		.byte	0x14
 1175 00bb 60000000 		.4byte	0x60
 1176 00bf 03       		.uleb128 0x3
 1177 00c0 3F040000 		.4byte	.LASF16
 1178 00c4 05       		.byte	0x5
 1179 00c5 2C       		.byte	0x2c
 1180 00c6 13       		.byte	0x13
 1181 00c7 73000000 		.4byte	0x73
 1182 00cb 03       		.uleb128 0x3
 1183 00cc 00050000 		.4byte	.LASF17
 1184 00d0 05       		.byte	0x5
 1185 00d1 30       		.byte	0x30
 1186 00d2 14       		.byte	0x14
 1187 00d3 86000000 		.4byte	0x86
 1188 00d7 03       		.uleb128 0x3
 1189 00d8 DA020000 		.4byte	.LASF18
 1190 00dc 06       		.byte	0x6
 1191 00dd 2A       		.byte	0x2a
 1192 00de 19       		.byte	0x19
 1193 00df A7000000 		.4byte	0xa7
 1194 00e3 03       		.uleb128 0x3
 1195 00e4 F5000000 		.4byte	.LASF19
 1196 00e8 06       		.byte	0x6
 1197 00e9 2B       		.byte	0x2b
ARM GAS  /var/folders/l5/0x54b2c10074c8bt31ycjvl80000gp/T//ccYeSm8G.s 			page 22


 1198 00ea 19       		.byte	0x19
 1199 00eb A7000000 		.4byte	0xa7
 1200 00ef 03       		.uleb128 0x3
 1201 00f0 1D040000 		.4byte	.LASF20
 1202 00f4 06       		.byte	0x6
 1203 00f5 2C       		.byte	0x2c
 1204 00f6 19       		.byte	0x19
 1205 00f7 A7000000 		.4byte	0xa7
 1206 00fb 03       		.uleb128 0x3
 1207 00fc D5000000 		.4byte	.LASF21
 1208 0100 06       		.byte	0x6
 1209 0101 2D       		.byte	0x2d
 1210 0102 19       		.byte	0x19
 1211 0103 A7000000 		.4byte	0xa7
 1212 0107 03       		.uleb128 0x3
 1213 0108 37040000 		.4byte	.LASF22
 1214 010c 06       		.byte	0x6
 1215 010d 2E       		.byte	0x2e
 1216 010e 19       		.byte	0x19
 1217 010f CB000000 		.4byte	0xcb
 1218 0113 03       		.uleb128 0x3
 1219 0114 F4010000 		.4byte	.LASF23
 1220 0118 06       		.byte	0x6
 1221 0119 2F       		.byte	0x2f
 1222 011a 19       		.byte	0x19
 1223 011b BF000000 		.4byte	0xbf
 1224 011f 03       		.uleb128 0x3
 1225 0120 FD020000 		.4byte	.LASF24
 1226 0124 06       		.byte	0x6
 1227 0125 31       		.byte	0x31
 1228 0126 19       		.byte	0x19
 1229 0127 CB000000 		.4byte	0xcb
 1230 012b 03       		.uleb128 0x3
 1231 012c 4D050000 		.4byte	.LASF25
 1232 0130 06       		.byte	0x6
 1233 0131 33       		.byte	0x33
 1234 0132 19       		.byte	0x19
 1235 0133 CB000000 		.4byte	0xcb
 1236 0137 05       		.uleb128 0x5
 1237 0138 2B010000 		.4byte	0x12b
 1238 013c 03       		.uleb128 0x3
 1239 013d C8040000 		.4byte	.LASF26
 1240 0141 07       		.byte	0x7
 1241 0142 23       		.byte	0x23
 1242 0143 17       		.byte	0x17
 1243 0144 48010000 		.4byte	0x148
 1244 0148 06       		.uleb128 0x6
 1245 0149 C8040000 		.4byte	.LASF26
 1246 014d 44       		.byte	0x44
 1247 014e 08       		.byte	0x8
 1248 014f 57       		.byte	0x57
 1249 0150 08       		.byte	0x8
 1250 0151 4D020000 		.4byte	0x24d
 1251 0155 07       		.uleb128 0x7
 1252 0156 9D040000 		.4byte	.LASF27
 1253 015a 08       		.byte	0x8
 1254 015b 58       		.byte	0x58
ARM GAS  /var/folders/l5/0x54b2c10074c8bt31ycjvl80000gp/T//ccYeSm8G.s 			page 23


 1255 015c 1A       		.byte	0x1a
 1256 015d 71020000 		.4byte	0x271
 1257 0161 00       		.byte	0
 1258 0162 07       		.uleb128 0x7
 1259 0163 30040000 		.4byte	.LASF28
 1260 0167 08       		.byte	0x8
 1261 0168 5A       		.byte	0x5a
 1262 0169 1A       		.byte	0x1a
 1263 016a 71020000 		.4byte	0x271
 1264 016e 04       		.byte	0x4
 1265 016f 07       		.uleb128 0x7
 1266 0170 78000000 		.4byte	.LASF29
 1267 0174 08       		.byte	0x8
 1268 0175 5C       		.byte	0x5c
 1269 0176 19       		.byte	0x19
 1270 0177 07010000 		.4byte	0x107
 1271 017b 08       		.byte	0x8
 1272 017c 07       		.uleb128 0x7
 1273 017d 33060000 		.4byte	.LASF30
 1274 0181 08       		.byte	0x8
 1275 0182 5D       		.byte	0x5d
 1276 0183 19       		.byte	0x19
 1277 0184 3C030000 		.4byte	0x33c
 1278 0188 0C       		.byte	0xc
 1279 0189 07       		.uleb128 0x7
 1280 018a 11010000 		.4byte	.LASF31
 1281 018e 08       		.byte	0x8
 1282 018f 5F       		.byte	0x5f
 1283 0190 1A       		.byte	0x1a
 1284 0191 71020000 		.4byte	0x271
 1285 0195 10       		.byte	0x10
 1286 0196 07       		.uleb128 0x7
 1287 0197 87040000 		.4byte	.LASF32
 1288 019b 08       		.byte	0x8
 1289 019c 60       		.byte	0x60
 1290 019d 1A       		.byte	0x1a
 1291 019e 71020000 		.4byte	0x271
 1292 01a2 14       		.byte	0x14
 1293 01a3 07       		.uleb128 0x7
 1294 01a4 F2050000 		.4byte	.LASF33
 1295 01a8 08       		.byte	0x8
 1296 01a9 67       		.byte	0x67
 1297 01aa 1A       		.byte	0x1a
 1298 01ab 22050000 		.4byte	0x522
 1299 01af 18       		.byte	0x18
 1300 01b0 07       		.uleb128 0x7
 1301 01b1 69040000 		.4byte	.LASF34
 1302 01b5 08       		.byte	0x8
 1303 01b6 72       		.byte	0x72
 1304 01b7 19       		.byte	0x19
 1305 01b8 E3000000 		.4byte	0xe3
 1306 01bc 1C       		.byte	0x1c
 1307 01bd 07       		.uleb128 0x7
 1308 01be B3040000 		.4byte	.LASF35
 1309 01c2 08       		.byte	0x8
 1310 01c3 76       		.byte	0x76
 1311 01c4 19       		.byte	0x19
ARM GAS  /var/folders/l5/0x54b2c10074c8bt31ycjvl80000gp/T//ccYeSm8G.s 			page 24


 1312 01c5 D7000000 		.4byte	0xd7
 1313 01c9 1D       		.byte	0x1d
 1314 01ca 07       		.uleb128 0x7
 1315 01cb AC050000 		.4byte	.LASF36
 1316 01cf 08       		.byte	0x8
 1317 01d0 7B       		.byte	0x7b
 1318 01d1 19       		.byte	0x19
 1319 01d2 EF000000 		.4byte	0xef
 1320 01d6 1E       		.byte	0x1e
 1321 01d7 07       		.uleb128 0x7
 1322 01d8 71040000 		.4byte	.LASF37
 1323 01dc 08       		.byte	0x8
 1324 01dd 81       		.byte	0x81
 1325 01de 19       		.byte	0x19
 1326 01df FB000000 		.4byte	0xfb
 1327 01e3 1F       		.byte	0x1f
 1328 01e4 07       		.uleb128 0x7
 1329 01e5 77050000 		.4byte	.LASF38
 1330 01e9 08       		.byte	0x8
 1331 01ea 88       		.byte	0x88
 1332 01eb 19       		.byte	0x19
 1333 01ec 37010000 		.4byte	0x137
 1334 01f0 20       		.byte	0x20
 1335 01f1 08       		.uleb128 0x8
 1336 01f2 705F7500 		.ascii	"p_u\000"
 1337 01f6 08       		.byte	0x8
 1338 01f7 AD       		.byte	0xad
 1339 01f8 19       		.byte	0x19
 1340 01f9 E8040000 		.4byte	0x4e8
 1341 01fd 24       		.byte	0x24
 1342 01fe 07       		.uleb128 0x7
 1343 01ff 39060000 		.4byte	.LASF39
 1344 0203 08       		.byte	0x8
 1345 0204 B2       		.byte	0xb2
 1346 0205 19       		.byte	0x19
 1347 0206 9A020000 		.4byte	0x29a
 1348 020a 28       		.byte	0x28
 1349 020b 07       		.uleb128 0x7
 1350 020c 85050000 		.4byte	.LASF40
 1351 0210 08       		.byte	0x8
 1352 0211 B8       		.byte	0xb8
 1353 0212 19       		.byte	0x19
 1354 0213 77020000 		.4byte	0x277
 1355 0217 2C       		.byte	0x2c
 1356 0218 07       		.uleb128 0x7
 1357 0219 15000000 		.4byte	.LASF41
 1358 021d 08       		.byte	0x8
 1359 021e BC       		.byte	0xbc
 1360 021f 19       		.byte	0x19
 1361 0220 13010000 		.4byte	0x113
 1362 0224 34       		.byte	0x34
 1363 0225 07       		.uleb128 0x7
 1364 0226 EA040000 		.4byte	.LASF42
 1365 022a 08       		.byte	0x8
 1366 022b C2       		.byte	0xc2
 1367 022c 19       		.byte	0x19
 1368 022d 1F010000 		.4byte	0x11f
ARM GAS  /var/folders/l5/0x54b2c10074c8bt31ycjvl80000gp/T//ccYeSm8G.s 			page 25


 1369 0231 38       		.byte	0x38
 1370 0232 07       		.uleb128 0x7
 1371 0233 55040000 		.4byte	.LASF43
 1372 0237 08       		.byte	0x8
 1373 0238 C9       		.byte	0xc9
 1374 0239 1A       		.byte	0x1a
 1375 023a 34050000 		.4byte	0x534
 1376 023e 3C       		.byte	0x3c
 1377 023f 07       		.uleb128 0x7
 1378 0240 57050000 		.4byte	.LASF44
 1379 0244 08       		.byte	0x8
 1380 0245 CD       		.byte	0xcd
 1381 0246 19       		.byte	0x19
 1382 0247 07010000 		.4byte	0x107
 1383 024b 40       		.byte	0x40
 1384 024c 00       		.byte	0
 1385 024d 09       		.uleb128 0x9
 1386 024e 08       		.byte	0x8
 1387 024f 07       		.byte	0x7
 1388 0250 5A       		.byte	0x5a
 1389 0251 09       		.byte	0x9
 1390 0252 71020000 		.4byte	0x271
 1391 0256 07       		.uleb128 0x7
 1392 0257 9D040000 		.4byte	.LASF27
 1393 025b 07       		.byte	0x7
 1394 025c 5B       		.byte	0x5b
 1395 025d 1A       		.byte	0x1a
 1396 025e 71020000 		.4byte	0x271
 1397 0262 00       		.byte	0
 1398 0263 07       		.uleb128 0x7
 1399 0264 30040000 		.4byte	.LASF28
 1400 0268 07       		.byte	0x7
 1401 0269 5D       		.byte	0x5d
 1402 026a 1A       		.byte	0x1a
 1403 026b 71020000 		.4byte	0x271
 1404 026f 04       		.byte	0x4
 1405 0270 00       		.byte	0
 1406 0271 0A       		.uleb128 0xa
 1407 0272 04       		.byte	0x4
 1408 0273 3C010000 		.4byte	0x13c
 1409 0277 03       		.uleb128 0x3
 1410 0278 D5030000 		.4byte	.LASF45
 1411 027c 07       		.byte	0x7
 1412 027d 5F       		.byte	0x5f
 1413 027e 03       		.byte	0x3
 1414 027f 4D020000 		.4byte	0x24d
 1415 0283 09       		.uleb128 0x9
 1416 0284 04       		.byte	0x4
 1417 0285 07       		.byte	0x7
 1418 0286 64       		.byte	0x64
 1419 0287 09       		.byte	0x9
 1420 0288 9A020000 		.4byte	0x29a
 1421 028c 07       		.uleb128 0x7
 1422 028d 9D040000 		.4byte	.LASF27
 1423 0291 07       		.byte	0x7
 1424 0292 66       		.byte	0x66
 1425 0293 16       		.byte	0x16
ARM GAS  /var/folders/l5/0x54b2c10074c8bt31ycjvl80000gp/T//ccYeSm8G.s 			page 26


 1426 0294 71020000 		.4byte	0x271
 1427 0298 00       		.byte	0
 1428 0299 00       		.byte	0
 1429 029a 03       		.uleb128 0x3
 1430 029b F1020000 		.4byte	.LASF46
 1431 029f 07       		.byte	0x7
 1432 02a0 69       		.byte	0x69
 1433 02a1 03       		.byte	0x3
 1434 02a2 83020000 		.4byte	0x283
 1435 02a6 03       		.uleb128 0x3
 1436 02a7 17030000 		.4byte	.LASF47
 1437 02ab 09       		.byte	0x9
 1438 02ac 9D       		.byte	0x9d
 1439 02ad 12       		.byte	0x12
 1440 02ae CB000000 		.4byte	0xcb
 1441 02b2 03       		.uleb128 0x3
 1442 02b3 51010000 		.4byte	.LASF48
 1443 02b7 09       		.byte	0x9
 1444 02b8 A2       		.byte	0xa2
 1445 02b9 0F       		.byte	0xf
 1446 02ba BE020000 		.4byte	0x2be
 1447 02be 0B       		.uleb128 0xb
 1448 02bf 04       		.byte	0x4
 1449 02c0 06       		.uleb128 0x6
 1450 02c1 7E050000 		.4byte	.LASF49
 1451 02c5 24       		.byte	0x24
 1452 02c6 09       		.byte	0x9
 1453 02c7 B9       		.byte	0xb9
 1454 02c8 08       		.byte	0x8
 1455 02c9 3C030000 		.4byte	0x33c
 1456 02cd 08       		.uleb128 0x8
 1457 02ce 723400   		.ascii	"r4\000"
 1458 02d1 09       		.byte	0x9
 1459 02d2 BA       		.byte	0xba
 1460 02d3 11       		.byte	0x11
 1461 02d4 B2020000 		.4byte	0x2b2
 1462 02d8 00       		.byte	0
 1463 02d9 08       		.uleb128 0x8
 1464 02da 723500   		.ascii	"r5\000"
 1465 02dd 09       		.byte	0x9
 1466 02de BB       		.byte	0xbb
 1467 02df 11       		.byte	0x11
 1468 02e0 B2020000 		.4byte	0x2b2
 1469 02e4 04       		.byte	0x4
 1470 02e5 08       		.uleb128 0x8
 1471 02e6 723600   		.ascii	"r6\000"
 1472 02e9 09       		.byte	0x9
 1473 02ea BC       		.byte	0xbc
 1474 02eb 11       		.byte	0x11
 1475 02ec B2020000 		.4byte	0x2b2
 1476 02f0 08       		.byte	0x8
 1477 02f1 08       		.uleb128 0x8
 1478 02f2 723700   		.ascii	"r7\000"
 1479 02f5 09       		.byte	0x9
 1480 02f6 BD       		.byte	0xbd
 1481 02f7 11       		.byte	0x11
 1482 02f8 B2020000 		.4byte	0x2b2
ARM GAS  /var/folders/l5/0x54b2c10074c8bt31ycjvl80000gp/T//ccYeSm8G.s 			page 27


 1483 02fc 0C       		.byte	0xc
 1484 02fd 08       		.uleb128 0x8
 1485 02fe 723800   		.ascii	"r8\000"
 1486 0301 09       		.byte	0x9
 1487 0302 BE       		.byte	0xbe
 1488 0303 11       		.byte	0x11
 1489 0304 B2020000 		.4byte	0x2b2
 1490 0308 10       		.byte	0x10
 1491 0309 08       		.uleb128 0x8
 1492 030a 723900   		.ascii	"r9\000"
 1493 030d 09       		.byte	0x9
 1494 030e BF       		.byte	0xbf
 1495 030f 11       		.byte	0x11
 1496 0310 B2020000 		.4byte	0x2b2
 1497 0314 14       		.byte	0x14
 1498 0315 08       		.uleb128 0x8
 1499 0316 72313000 		.ascii	"r10\000"
 1500 031a 09       		.byte	0x9
 1501 031b C0       		.byte	0xc0
 1502 031c 11       		.byte	0x11
 1503 031d B2020000 		.4byte	0x2b2
 1504 0321 18       		.byte	0x18
 1505 0322 08       		.uleb128 0x8
 1506 0323 72313100 		.ascii	"r11\000"
 1507 0327 09       		.byte	0x9
 1508 0328 C1       		.byte	0xc1
 1509 0329 11       		.byte	0x11
 1510 032a B2020000 		.4byte	0x2b2
 1511 032e 1C       		.byte	0x1c
 1512 032f 08       		.uleb128 0x8
 1513 0330 6C7200   		.ascii	"lr\000"
 1514 0333 09       		.byte	0x9
 1515 0334 C2       		.byte	0xc2
 1516 0335 11       		.byte	0x11
 1517 0336 B2020000 		.4byte	0x2b2
 1518 033a 20       		.byte	0x20
 1519 033b 00       		.byte	0
 1520 033c 06       		.uleb128 0x6
 1521 033d C7010000 		.4byte	.LASF50
 1522 0341 04       		.byte	0x4
 1523 0342 09       		.byte	0x9
 1524 0343 CA       		.byte	0xca
 1525 0344 08       		.byte	0x8
 1526 0345 57030000 		.4byte	0x357
 1527 0349 08       		.uleb128 0x8
 1528 034a 72313300 		.ascii	"r13\000"
 1529 034e 09       		.byte	0x9
 1530 034f CB       		.byte	0xcb
 1531 0350 12       		.byte	0x12
 1532 0351 57030000 		.4byte	0x357
 1533 0355 00       		.byte	0
 1534 0356 00       		.byte	0
 1535 0357 0A       		.uleb128 0xa
 1536 0358 04       		.byte	0x4
 1537 0359 C0020000 		.4byte	0x2c0
 1538 035d 03       		.uleb128 0x3
 1539 035e B0010000 		.4byte	.LASF51
ARM GAS  /var/folders/l5/0x54b2c10074c8bt31ycjvl80000gp/T//ccYeSm8G.s 			page 28


 1540 0362 0A       		.byte	0xa
 1541 0363 4E       		.byte	0x4e
 1542 0364 10       		.byte	0x10
 1543 0365 69030000 		.4byte	0x369
 1544 0369 0A       		.uleb128 0xa
 1545 036a 04       		.byte	0x4
 1546 036b 6F030000 		.4byte	0x36f
 1547 036f 0C       		.uleb128 0xc
 1548 0370 7A030000 		.4byte	0x37a
 1549 0374 0D       		.uleb128 0xd
 1550 0375 BE020000 		.4byte	0x2be
 1551 0379 00       		.byte	0
 1552 037a 03       		.uleb128 0x3
 1553 037b 1D050000 		.4byte	.LASF52
 1554 037f 0A       		.byte	0xa
 1555 0380 53       		.byte	0x53
 1556 0381 1D       		.byte	0x1d
 1557 0382 86030000 		.4byte	0x386
 1558 0386 06       		.uleb128 0x6
 1559 0387 1D050000 		.4byte	.LASF52
 1560 038b 14       		.byte	0x14
 1561 038c 0A       		.byte	0xa
 1562 038d 5A       		.byte	0x5a
 1563 038e 08       		.byte	0x8
 1564 038f D5030000 		.4byte	0x3d5
 1565 0393 07       		.uleb128 0x7
 1566 0394 8D010000 		.4byte	.LASF53
 1567 0398 0A       		.byte	0xa
 1568 0399 5B       		.byte	0x5b
 1569 039a 1A       		.byte	0x1a
 1570 039b D5030000 		.4byte	0x3d5
 1571 039f 00       		.byte	0
 1572 03a0 07       		.uleb128 0x7
 1573 03a1 5A010000 		.4byte	.LASF54
 1574 03a5 0A       		.byte	0xa
 1575 03a6 5D       		.byte	0x5d
 1576 03a7 1A       		.byte	0x1a
 1577 03a8 D5030000 		.4byte	0x3d5
 1578 03ac 04       		.byte	0x4
 1579 03ad 07       		.uleb128 0x7
 1580 03ae 48030000 		.4byte	.LASF55
 1581 03b2 0A       		.byte	0xa
 1582 03b3 5F       		.byte	0x5f
 1583 03b4 19       		.byte	0x19
 1584 03b5 2B010000 		.4byte	0x12b
 1585 03b9 08       		.byte	0x8
 1586 03ba 07       		.uleb128 0x7
 1587 03bb 50030000 		.4byte	.LASF56
 1588 03bf 0A       		.byte	0xa
 1589 03c0 60       		.byte	0x60
 1590 03c1 19       		.byte	0x19
 1591 03c2 5D030000 		.4byte	0x35d
 1592 03c6 0C       		.byte	0xc
 1593 03c7 07       		.uleb128 0x7
 1594 03c8 9A050000 		.4byte	.LASF57
 1595 03cc 0A       		.byte	0xa
 1596 03cd 62       		.byte	0x62
ARM GAS  /var/folders/l5/0x54b2c10074c8bt31ycjvl80000gp/T//ccYeSm8G.s 			page 29


 1597 03ce 1A       		.byte	0x1a
 1598 03cf BE020000 		.4byte	0x2be
 1599 03d3 10       		.byte	0x10
 1600 03d4 00       		.byte	0
 1601 03d5 0A       		.uleb128 0xa
 1602 03d6 04       		.byte	0x4
 1603 03d7 7A030000 		.4byte	0x37a
 1604 03db 09       		.uleb128 0x9
 1605 03dc 10       		.byte	0x10
 1606 03dd 0A       		.byte	0xa
 1607 03de 6C       		.byte	0x6c
 1608 03df 09       		.byte	0x9
 1609 03e0 19040000 		.4byte	0x419
 1610 03e4 07       		.uleb128 0x7
 1611 03e5 8D010000 		.4byte	.LASF53
 1612 03e9 0A       		.byte	0xa
 1613 03ea 6D       		.byte	0x6d
 1614 03eb 1A       		.byte	0x1a
 1615 03ec D5030000 		.4byte	0x3d5
 1616 03f0 00       		.byte	0
 1617 03f1 07       		.uleb128 0x7
 1618 03f2 5A010000 		.4byte	.LASF54
 1619 03f6 0A       		.byte	0xa
 1620 03f7 6F       		.byte	0x6f
 1621 03f8 1A       		.byte	0x1a
 1622 03f9 D5030000 		.4byte	0x3d5
 1623 03fd 04       		.byte	0x4
 1624 03fe 07       		.uleb128 0x7
 1625 03ff 48030000 		.4byte	.LASF55
 1626 0403 0A       		.byte	0xa
 1627 0404 71       		.byte	0x71
 1628 0405 19       		.byte	0x19
 1629 0406 2B010000 		.4byte	0x12b
 1630 040a 08       		.byte	0x8
 1631 040b 07       		.uleb128 0x7
 1632 040c F9050000 		.4byte	.LASF58
 1633 0410 0A       		.byte	0xa
 1634 0411 72       		.byte	0x72
 1635 0412 19       		.byte	0x19
 1636 0413 37010000 		.4byte	0x137
 1637 0417 0C       		.byte	0xc
 1638 0418 00       		.byte	0
 1639 0419 03       		.uleb128 0x3
 1640 041a 24060000 		.4byte	.LASF59
 1641 041e 0A       		.byte	0xa
 1642 041f 73       		.byte	0x73
 1643 0420 03       		.byte	0x3
 1644 0421 DB030000 		.4byte	0x3db
 1645 0425 0E       		.uleb128 0xe
 1646 0426 38000000 		.4byte	.LASF67
 1647 042a 0A       		.byte	0xa
 1648 042b D1       		.byte	0xd1
 1649 042c 0F       		.byte	0xf
 1650 042d 19040000 		.4byte	0x419
 1651 0431 09       		.uleb128 0x9
 1652 0432 1C       		.byte	0x1c
 1653 0433 0B       		.byte	0xb
ARM GAS  /var/folders/l5/0x54b2c10074c8bt31ycjvl80000gp/T//ccYeSm8G.s 			page 30


 1654 0434 57       		.byte	0x57
 1655 0435 09       		.byte	0x9
 1656 0436 89040000 		.4byte	0x489
 1657 043a 07       		.uleb128 0x7
 1658 043b 15050000 		.4byte	.LASF60
 1659 043f 0B       		.byte	0xb
 1660 0440 58       		.byte	0x58
 1661 0441 19       		.byte	0x19
 1662 0442 77020000 		.4byte	0x277
 1663 0446 00       		.byte	0
 1664 0447 07       		.uleb128 0x7
 1665 0448 8F040000 		.4byte	.LASF61
 1666 044c 0B       		.byte	0xb
 1667 044d 59       		.byte	0x59
 1668 044e 19       		.byte	0x19
 1669 044f 07010000 		.4byte	0x107
 1670 0453 08       		.byte	0x8
 1671 0454 07       		.uleb128 0x7
 1672 0455 CF030000 		.4byte	.LASF62
 1673 0459 0B       		.byte	0xb
 1674 045a 5B       		.byte	0x5b
 1675 045b 19       		.byte	0x19
 1676 045c 3C030000 		.4byte	0x33c
 1677 0460 0C       		.byte	0xc
 1678 0461 07       		.uleb128 0x7
 1679 0462 FA010000 		.4byte	.LASF63
 1680 0466 0B       		.byte	0xb
 1681 0467 5E       		.byte	0x5e
 1682 0468 1A       		.byte	0x1a
 1683 0469 71020000 		.4byte	0x271
 1684 046d 10       		.byte	0x10
 1685 046e 07       		.uleb128 0x7
 1686 046f 05040000 		.4byte	.LASF64
 1687 0473 0B       		.byte	0xb
 1688 0474 5F       		.byte	0x5f
 1689 0475 1A       		.byte	0x1a
 1690 0476 71020000 		.4byte	0x271
 1691 047a 14       		.byte	0x14
 1692 047b 07       		.uleb128 0x7
 1693 047c FB030000 		.4byte	.LASF65
 1694 0480 0B       		.byte	0xb
 1695 0481 62       		.byte	0x62
 1696 0482 1A       		.byte	0x1a
 1697 0483 71020000 		.4byte	0x271
 1698 0487 18       		.byte	0x18
 1699 0488 00       		.byte	0
 1700 0489 03       		.uleb128 0x3
 1701 048a B3050000 		.4byte	.LASF66
 1702 048e 0B       		.byte	0xb
 1703 048f 64       		.byte	0x64
 1704 0490 03       		.byte	0x3
 1705 0491 31040000 		.4byte	0x431
 1706 0495 0E       		.uleb128 0xe
 1707 0496 BD050000 		.4byte	.LASF68
 1708 049a 0B       		.byte	0xb
 1709 049b 68       		.byte	0x68
 1710 049c 12       		.byte	0x12
ARM GAS  /var/folders/l5/0x54b2c10074c8bt31ycjvl80000gp/T//ccYeSm8G.s 			page 31


 1711 049d 89040000 		.4byte	0x489
 1712 04a1 06       		.uleb128 0x6
 1713 04a2 09030000 		.4byte	.LASF69
 1714 04a6 10       		.byte	0x10
 1715 04a7 0C       		.byte	0xc
 1716 04a8 25       		.byte	0x25
 1717 04a9 10       		.byte	0x10
 1718 04aa D6040000 		.4byte	0x4d6
 1719 04ae 07       		.uleb128 0x7
 1720 04af CD000000 		.4byte	.LASF70
 1721 04b3 0C       		.byte	0xc
 1722 04b4 26       		.byte	0x26
 1723 04b5 19       		.byte	0x19
 1724 04b6 77020000 		.4byte	0x277
 1725 04ba 00       		.byte	0
 1726 04bb 07       		.uleb128 0x7
 1727 04bc 2B060000 		.4byte	.LASF71
 1728 04c0 0C       		.byte	0xc
 1729 04c1 28       		.byte	0x28
 1730 04c2 1A       		.byte	0x1a
 1731 04c3 71020000 		.4byte	0x271
 1732 04c7 08       		.byte	0x8
 1733 04c8 07       		.uleb128 0x7
 1734 04c9 46050000 		.4byte	.LASF72
 1735 04cd 0C       		.byte	0xc
 1736 04ce 2A       		.byte	0x2a
 1737 04cf 1A       		.byte	0x1a
 1738 04d0 D6040000 		.4byte	0x4d6
 1739 04d4 0C       		.byte	0xc
 1740 04d5 00       		.byte	0
 1741 04d6 0A       		.uleb128 0xa
 1742 04d7 04       		.byte	0x4
 1743 04d8 A1040000 		.4byte	0x4a1
 1744 04dc 03       		.uleb128 0x3
 1745 04dd 09030000 		.4byte	.LASF69
 1746 04e1 0C       		.byte	0xc
 1747 04e2 2C       		.byte	0x2c
 1748 04e3 03       		.byte	0x3
 1749 04e4 A1040000 		.4byte	0x4a1
 1750 04e8 0F       		.uleb128 0xf
 1751 04e9 04       		.byte	0x4
 1752 04ea 08       		.byte	0x8
 1753 04eb 8F       		.byte	0x8f
 1754 04ec 03       		.byte	0x3
 1755 04ed 22050000 		.4byte	0x522
 1756 04f1 10       		.uleb128 0x10
 1757 04f2 27000000 		.4byte	.LASF73
 1758 04f6 08       		.byte	0x8
 1759 04f7 96       		.byte	0x96
 1760 04f8 19       		.byte	0x19
 1761 04f9 13010000 		.4byte	0x113
 1762 04fd 10       		.uleb128 0x10
 1763 04fe 6F000000 		.4byte	.LASF74
 1764 0502 08       		.byte	0x8
 1765 0503 9D       		.byte	0x9d
 1766 0504 19       		.byte	0x19
 1767 0505 13010000 		.4byte	0x113
ARM GAS  /var/folders/l5/0x54b2c10074c8bt31ycjvl80000gp/T//ccYeSm8G.s 			page 32


 1768 0509 10       		.uleb128 0x10
 1769 050a EB050000 		.4byte	.LASF75
 1770 050e 08       		.byte	0x8
 1771 050f A4       		.byte	0xa4
 1772 0510 1A       		.byte	0x1a
 1773 0511 BE020000 		.4byte	0x2be
 1774 0515 10       		.uleb128 0x10
 1775 0516 96040000 		.4byte	.LASF76
 1776 051a 08       		.byte	0x8
 1777 051b AB       		.byte	0xab
 1778 051c 19       		.byte	0x19
 1779 051d 1F010000 		.4byte	0x11f
 1780 0521 00       		.byte	0
 1781 0522 0A       		.uleb128 0xa
 1782 0523 04       		.byte	0x4
 1783 0524 2F050000 		.4byte	0x52f
 1784 0528 04       		.uleb128 0x4
 1785 0529 01       		.byte	0x1
 1786 052a 08       		.byte	0x8
 1787 052b 2A050000 		.4byte	.LASF77
 1788 052f 11       		.uleb128 0x11
 1789 0530 28050000 		.4byte	0x528
 1790 0534 0A       		.uleb128 0xa
 1791 0535 04       		.byte	0x4
 1792 0536 DC040000 		.4byte	0x4dc
 1793 053a 03       		.uleb128 0x3
 1794 053b 00000000 		.4byte	.LASF78
 1795 053f 08       		.byte	0x8
 1796 0540 DE       		.byte	0xde
 1797 0541 11       		.byte	0x11
 1798 0542 46050000 		.4byte	0x546
 1799 0546 0A       		.uleb128 0xa
 1800 0547 04       		.byte	0x4
 1801 0548 4C050000 		.4byte	0x54c
 1802 054c 12       		.uleb128 0x12
 1803 054d 13010000 		.4byte	0x113
 1804 0551 5B050000 		.4byte	0x55b
 1805 0555 0D       		.uleb128 0xd
 1806 0556 BE020000 		.4byte	0x2be
 1807 055a 00       		.byte	0
 1808 055b 09       		.uleb128 0x9
 1809 055c 16       		.byte	0x16
 1810 055d 0D       		.byte	0xd
 1811 055e 25       		.byte	0x25
 1812 055f 09       		.byte	0x9
 1813 0560 4F060000 		.4byte	0x64f
 1814 0564 07       		.uleb128 0x7
 1815 0565 B9010000 		.4byte	.LASF79
 1816 0569 0D       		.byte	0xd
 1817 056a 26       		.byte	0x26
 1818 056b 0D       		.byte	0xd
 1819 056c 4F060000 		.4byte	0x64f
 1820 0570 00       		.byte	0
 1821 0571 07       		.uleb128 0x7
 1822 0572 34030000 		.4byte	.LASF80
 1823 0576 0D       		.byte	0xd
 1824 0577 27       		.byte	0x27
ARM GAS  /var/folders/l5/0x54b2c10074c8bt31ycjvl80000gp/T//ccYeSm8G.s 			page 33


 1825 0578 0D       		.byte	0xd
 1826 0579 A7000000 		.4byte	0xa7
 1827 057d 04       		.byte	0x4
 1828 057e 07       		.uleb128 0x7
 1829 057f E2030000 		.4byte	.LASF81
 1830 0583 0D       		.byte	0xd
 1831 0584 28       		.byte	0x28
 1832 0585 0D       		.byte	0xd
 1833 0586 A7000000 		.4byte	0xa7
 1834 058a 05       		.byte	0x5
 1835 058b 07       		.uleb128 0x7
 1836 058c 19060000 		.4byte	.LASF82
 1837 0590 0D       		.byte	0xd
 1838 0591 29       		.byte	0x29
 1839 0592 0D       		.byte	0xd
 1840 0593 B3000000 		.4byte	0xb3
 1841 0597 06       		.byte	0x6
 1842 0598 07       		.uleb128 0x7
 1843 0599 25040000 		.4byte	.LASF83
 1844 059d 0D       		.byte	0xd
 1845 059e 2A       		.byte	0x2a
 1846 059f 0D       		.byte	0xd
 1847 05a0 A7000000 		.4byte	0xa7
 1848 05a4 08       		.byte	0x8
 1849 05a5 07       		.uleb128 0x7
 1850 05a6 58030000 		.4byte	.LASF84
 1851 05aa 0D       		.byte	0xd
 1852 05ab 2B       		.byte	0x2b
 1853 05ac 0D       		.byte	0xd
 1854 05ad A7000000 		.4byte	0xa7
 1855 05b1 09       		.byte	0x9
 1856 05b2 07       		.uleb128 0x7
 1857 05b3 61000000 		.4byte	.LASF85
 1858 05b7 0D       		.byte	0xd
 1859 05b8 2C       		.byte	0x2c
 1860 05b9 0D       		.byte	0xd
 1861 05ba A7000000 		.4byte	0xa7
 1862 05be 0A       		.byte	0xa
 1863 05bf 07       		.uleb128 0x7
 1864 05c0 09050000 		.4byte	.LASF86
 1865 05c4 0D       		.byte	0xd
 1866 05c5 2D       		.byte	0x2d
 1867 05c6 0D       		.byte	0xd
 1868 05c7 A7000000 		.4byte	0xa7
 1869 05cb 0B       		.byte	0xb
 1870 05cc 07       		.uleb128 0x7
 1871 05cd A1050000 		.4byte	.LASF87
 1872 05d1 0D       		.byte	0xd
 1873 05d2 2E       		.byte	0x2e
 1874 05d3 0D       		.byte	0xd
 1875 05d4 A7000000 		.4byte	0xa7
 1876 05d8 0C       		.byte	0xc
 1877 05d9 07       		.uleb128 0x7
 1878 05da CF040000 		.4byte	.LASF88
 1879 05de 0D       		.byte	0xd
 1880 05df 2F       		.byte	0x2f
 1881 05e0 0D       		.byte	0xd
ARM GAS  /var/folders/l5/0x54b2c10074c8bt31ycjvl80000gp/T//ccYeSm8G.s 			page 34


 1882 05e1 A7000000 		.4byte	0xa7
 1883 05e5 0D       		.byte	0xd
 1884 05e6 07       		.uleb128 0x7
 1885 05e7 08000000 		.4byte	.LASF89
 1886 05eb 0D       		.byte	0xd
 1887 05ec 30       		.byte	0x30
 1888 05ed 0D       		.byte	0xd
 1889 05ee A7000000 		.4byte	0xa7
 1890 05f2 0E       		.byte	0xe
 1891 05f3 07       		.uleb128 0x7
 1892 05f4 88030000 		.4byte	.LASF90
 1893 05f8 0D       		.byte	0xd
 1894 05f9 31       		.byte	0x31
 1895 05fa 0D       		.byte	0xd
 1896 05fb A7000000 		.4byte	0xa7
 1897 05ff 0F       		.byte	0xf
 1898 0600 07       		.uleb128 0x7
 1899 0601 B0000000 		.4byte	.LASF91
 1900 0605 0D       		.byte	0xd
 1901 0606 32       		.byte	0x32
 1902 0607 0D       		.byte	0xd
 1903 0608 A7000000 		.4byte	0xa7
 1904 060c 10       		.byte	0x10
 1905 060d 07       		.uleb128 0x7
 1906 060e 7F000000 		.4byte	.LASF92
 1907 0612 0D       		.byte	0xd
 1908 0613 34       		.byte	0x34
 1909 0614 0D       		.byte	0xd
 1910 0615 A7000000 		.4byte	0xa7
 1911 0619 11       		.byte	0x11
 1912 061a 07       		.uleb128 0x7
 1913 061b C0000000 		.4byte	.LASF93
 1914 061f 0D       		.byte	0xd
 1915 0620 35       		.byte	0x35
 1916 0621 0D       		.byte	0xd
 1917 0622 A7000000 		.4byte	0xa7
 1918 0626 12       		.byte	0x12
 1919 0627 07       		.uleb128 0x7
 1920 0628 3C030000 		.4byte	.LASF94
 1921 062c 0D       		.byte	0xd
 1922 062d 36       		.byte	0x36
 1923 062e 0D       		.byte	0xd
 1924 062f A7000000 		.4byte	0xa7
 1925 0633 13       		.byte	0x13
 1926 0634 07       		.uleb128 0x7
 1927 0635 A4040000 		.4byte	.LASF95
 1928 0639 0D       		.byte	0xd
 1929 063a 37       		.byte	0x37
 1930 063b 0D       		.byte	0xd
 1931 063c A7000000 		.4byte	0xa7
 1932 0640 14       		.byte	0x14
 1933 0641 07       		.uleb128 0x7
 1934 0642 7B040000 		.4byte	.LASF96
 1935 0646 0D       		.byte	0xd
 1936 0647 39       		.byte	0x39
 1937 0648 0D       		.byte	0xd
 1938 0649 A7000000 		.4byte	0xa7
ARM GAS  /var/folders/l5/0x54b2c10074c8bt31ycjvl80000gp/T//ccYeSm8G.s 			page 35


 1939 064d 15       		.byte	0x15
 1940 064e 00       		.byte	0
 1941 064f 13       		.uleb128 0x13
 1942 0650 28050000 		.4byte	0x528
 1943 0654 5F060000 		.4byte	0x65f
 1944 0658 14       		.uleb128 0x14
 1945 0659 38000000 		.4byte	0x38
 1946 065d 03       		.byte	0x3
 1947 065e 00       		.byte	0
 1948 065f 03       		.uleb128 0x3
 1949 0660 07010000 		.4byte	.LASF97
 1950 0664 0D       		.byte	0xd
 1951 0665 3A       		.byte	0x3a
 1952 0666 03       		.byte	0x3
 1953 0667 5B050000 		.4byte	0x55b
 1954 066b 11       		.uleb128 0x11
 1955 066c 5F060000 		.4byte	0x65f
 1956 0670 0E       		.uleb128 0xe
 1957 0671 A7010000 		.4byte	.LASF98
 1958 0675 0D       		.byte	0xd
 1959 0676 77       		.byte	0x77
 1960 0677 1D       		.byte	0x1d
 1961 0678 6B060000 		.4byte	0x66b
 1962 067c 13       		.uleb128 0x13
 1963 067d A6020000 		.4byte	0x2a6
 1964 0681 8C060000 		.4byte	0x68c
 1965 0685 14       		.uleb128 0x14
 1966 0686 38000000 		.4byte	0x38
 1967 068a 26       		.byte	0x26
 1968 068b 00       		.byte	0
 1969 068c 0E       		.uleb128 0xe
 1970 068d 19010000 		.4byte	.LASF99
 1971 0691 0E       		.byte	0xe
 1972 0692 82       		.byte	0x82
 1973 0693 08       		.byte	0x8
 1974 0694 7C060000 		.4byte	0x67c
 1975 0698 15       		.uleb128 0x15
 1976 0699 90050000 		.4byte	.LASF107
 1977 069d 01       		.byte	0x1
 1978 069e 9D01     		.2byte	0x19d
 1979 06a0 07       		.byte	0x7
 1980 06a1 13010000 		.4byte	0x113
 1981 06a5 00000000 		.4byte	.LFB18
 1982 06a9 50000000 		.4byte	.LFE18-.LFB18
 1983 06ad 01       		.uleb128 0x1
 1984 06ae 9C       		.byte	0x9c
 1985 06af 29070000 		.4byte	0x729
 1986 06b3 16       		.uleb128 0x16
 1987 06b4 747000   		.ascii	"tp\000"
 1988 06b7 01       		.byte	0x1
 1989 06b8 9D01     		.2byte	0x19d
 1990 06ba 19       		.byte	0x19
 1991 06bb 71020000 		.4byte	0x271
 1992 06bf 04000000 		.4byte	.LLST30
 1993 06c3 00000000 		.4byte	.LVUS30
 1994 06c7 17       		.uleb128 0x17
 1995 06c8 6D736700 		.ascii	"msg\000"
ARM GAS  /var/folders/l5/0x54b2c10074c8bt31ycjvl80000gp/T//ccYeSm8G.s 			page 36


 1996 06cc 01       		.byte	0x1
 1997 06cd 9E01     		.2byte	0x19e
 1998 06cf 09       		.byte	0x9
 1999 06d0 13010000 		.4byte	0x113
 2000 06d4 24000000 		.4byte	.LLST31
 2001 06d8 22000000 		.4byte	.LVUS31
 2002 06dc 18       		.uleb128 0x18
 2003 06dd 330B0000 		.4byte	0xb33
 2004 06e1 24000000 		.4byte	.LBI34
 2005 06e5 01       		.byte	.LVU341
 2006 06e6 78000000 		.4byte	.Ldebug_ranges0+0x78
 2007 06ea 01       		.byte	0x1
 2008 06eb A801     		.2byte	0x1a8
 2009 06ed 05       		.byte	0x5
 2010 06ee 05070000 		.4byte	0x705
 2011 06f2 19       		.uleb128 0x19
 2012 06f3 4B0B0000 		.4byte	0xb4b
 2013 06f7 3B000000 		.4byte	.LLST32
 2014 06fb 37000000 		.4byte	.LVUS32
 2015 06ff 1A       		.uleb128 0x1a
 2016 0700 400B0000 		.4byte	0xb40
 2017 0704 00       		.byte	0
 2018 0705 1B       		.uleb128 0x1b
 2019 0706 34000000 		.4byte	.LVL51
 2020 070a 030C0000 		.4byte	0xc03
 2021 070e 18070000 		.4byte	0x718
 2022 0712 1C       		.uleb128 0x1c
 2023 0713 01       		.uleb128 0x1
 2024 0714 50       		.byte	0x50
 2025 0715 01       		.uleb128 0x1
 2026 0716 37       		.byte	0x37
 2027 0717 00       		.byte	0
 2028 0718 1D       		.uleb128 0x1d
 2029 0719 44000000 		.4byte	.LVL53
 2030 071d 0F0C0000 		.4byte	0xc0f
 2031 0721 1C       		.uleb128 0x1c
 2032 0722 01       		.uleb128 0x1
 2033 0723 50       		.byte	0x50
 2034 0724 02       		.uleb128 0x2
 2035 0725 74       		.byte	0x74
 2036 0726 00       		.sleb128 0
 2037 0727 00       		.byte	0
 2038 0728 00       		.byte	0
 2039 0729 1E       		.uleb128 0x1e
 2040 072a 3F000000 		.4byte	.LASF100
 2041 072e 01       		.byte	0x1
 2042 072f 6701     		.2byte	0x167
 2043 0731 06       		.byte	0x6
 2044 0732 00000000 		.4byte	.LFB17
 2045 0736 64000000 		.4byte	.LFE17-.LFB17
 2046 073a 01       		.uleb128 0x1
 2047 073b 9C       		.byte	0x9c
 2048 073c B9070000 		.4byte	0x7b9
 2049 0740 16       		.uleb128 0x16
 2050 0741 6D736700 		.ascii	"msg\000"
 2051 0745 01       		.byte	0x1
 2052 0746 6701     		.2byte	0x167
ARM GAS  /var/folders/l5/0x54b2c10074c8bt31ycjvl80000gp/T//ccYeSm8G.s 			page 37


 2053 0748 17       		.byte	0x17
 2054 0749 13010000 		.4byte	0x113
 2055 074d 61000000 		.4byte	.LLST25
 2056 0751 5D000000 		.4byte	.LVUS25
 2057 0755 17       		.uleb128 0x17
 2058 0756 747000   		.ascii	"tp\000"
 2059 0759 01       		.byte	0x1
 2060 075a 6801     		.2byte	0x168
 2061 075c 0B       		.byte	0xb
 2062 075d 71020000 		.4byte	0x271
 2063 0761 84000000 		.4byte	.LLST26
 2064 0765 82000000 		.4byte	.LVUS26
 2065 0769 18       		.uleb128 0x18
 2066 076a 040B0000 		.4byte	0xb04
 2067 076e 20000000 		.4byte	.LBI30
 2068 0772 01       		.byte	.LVU294
 2069 0773 60000000 		.4byte	.Ldebug_ranges0+0x60
 2070 0777 01       		.byte	0x1
 2071 0778 7001     		.2byte	0x170
 2072 077a 05       		.byte	0x5
 2073 077b A0070000 		.4byte	0x7a0
 2074 077f 19       		.uleb128 0x19
 2075 0780 150B0000 		.4byte	0xb15
 2076 0784 99000000 		.4byte	.LLST27
 2077 0788 97000000 		.4byte	.LVUS27
 2078 078c 1F       		.uleb128 0x1f
 2079 078d 60000000 		.4byte	.Ldebug_ranges0+0x60
 2080 0791 20       		.uleb128 0x20
 2081 0792 210B0000 		.4byte	0xb21
 2082 0796 AE000000 		.4byte	.LLST28
 2083 079a AC000000 		.4byte	.LVUS28
 2084 079e 00       		.byte	0
 2085 079f 00       		.byte	0
 2086 07a0 21       		.uleb128 0x21
 2087 07a1 30000000 		.4byte	.LVL41
 2088 07a5 1B0C0000 		.4byte	0xc1b
 2089 07a9 22       		.uleb128 0x22
 2090 07aa 60000000 		.4byte	.LVL44
 2091 07ae 030C0000 		.4byte	0xc03
 2092 07b2 1C       		.uleb128 0x1c
 2093 07b3 01       		.uleb128 0x1
 2094 07b4 50       		.byte	0x50
 2095 07b5 01       		.uleb128 0x1
 2096 07b6 3E       		.byte	0x3e
 2097 07b7 00       		.byte	0
 2098 07b8 00       		.byte	0
 2099 07b9 1E       		.uleb128 0x1e
 2100 07ba A6000000 		.4byte	.LASF101
 2101 07be 01       		.byte	0x1
 2102 07bf 5201     		.2byte	0x152
 2103 07c1 06       		.byte	0x6
 2104 07c2 00000000 		.4byte	.LFB16
 2105 07c6 08000000 		.4byte	.LFE16-.LFB16
 2106 07ca 01       		.uleb128 0x1
 2107 07cb 9C       		.byte	0x9c
 2108 07cc F7070000 		.4byte	0x7f7
 2109 07d0 16       		.uleb128 0x16
ARM GAS  /var/folders/l5/0x54b2c10074c8bt31ycjvl80000gp/T//ccYeSm8G.s 			page 38


 2110 07d1 6D736700 		.ascii	"msg\000"
 2111 07d5 01       		.byte	0x1
 2112 07d6 5201     		.2byte	0x152
 2113 07d8 16       		.byte	0x16
 2114 07d9 13010000 		.4byte	0x113
 2115 07dd C5000000 		.4byte	.LLST29
 2116 07e1 C1000000 		.4byte	.LVUS29
 2117 07e5 22       		.uleb128 0x22
 2118 07e6 08000000 		.4byte	.LVL46
 2119 07ea 29070000 		.4byte	0x729
 2120 07ee 1C       		.uleb128 0x1c
 2121 07ef 01       		.uleb128 0x1
 2122 07f0 50       		.byte	0x50
 2123 07f1 03       		.uleb128 0x3
 2124 07f2 F3       		.byte	0xf3
 2125 07f3 01       		.uleb128 0x1
 2126 07f4 50       		.byte	0x50
 2127 07f5 00       		.byte	0
 2128 07f6 00       		.byte	0
 2129 07f7 1E       		.uleb128 0x1e
 2130 07f8 6C050000 		.4byte	.LASF102
 2131 07fc 01       		.byte	0x1
 2132 07fd 3D01     		.2byte	0x13d
 2133 07ff 06       		.byte	0x6
 2134 0800 00000000 		.4byte	.LFB15
 2135 0804 3C000000 		.4byte	.LFE15-.LFB15
 2136 0808 01       		.uleb128 0x1
 2137 0809 9C       		.byte	0x9c
 2138 080a 18080000 		.4byte	0x818
 2139 080e 21       		.uleb128 0x21
 2140 080f 30000000 		.4byte	.LVL36
 2141 0813 270C0000 		.4byte	0xc27
 2142 0817 00       		.byte	0
 2143 0818 1E       		.uleb128 0x1e
 2144 0819 0D040000 		.4byte	.LASF103
 2145 081d 01       		.byte	0x1
 2146 081e 2E01     		.2byte	0x12e
 2147 0820 06       		.byte	0x6
 2148 0821 00000000 		.4byte	.LFB14
 2149 0825 34000000 		.4byte	.LFE14-.LFB14
 2150 0829 01       		.uleb128 0x1
 2151 082a 9C       		.byte	0x9c
 2152 082b 54080000 		.4byte	0x854
 2153 082f 23       		.uleb128 0x23
 2154 0830 EA030000 		.4byte	.LASF104
 2155 0834 01       		.byte	0x1
 2156 0835 2E01     		.2byte	0x12e
 2157 0837 20       		.byte	0x20
 2158 0838 2B010000 		.4byte	0x12b
 2159 083c EC000000 		.4byte	.LLST24
 2160 0840 E6000000 		.4byte	.LVUS24
 2161 0844 1D       		.uleb128 0x1d
 2162 0845 28000000 		.4byte	.LVL35
 2163 0849 330C0000 		.4byte	0xc33
 2164 084d 1C       		.uleb128 0x1c
 2165 084e 01       		.uleb128 0x1
 2166 084f 50       		.byte	0x50
ARM GAS  /var/folders/l5/0x54b2c10074c8bt31ycjvl80000gp/T//ccYeSm8G.s 			page 39


 2167 0850 01       		.uleb128 0x1
 2168 0851 36       		.byte	0x36
 2169 0852 00       		.byte	0
 2170 0853 00       		.byte	0
 2171 0854 1E       		.uleb128 0x1e
 2172 0855 F5040000 		.4byte	.LASF105
 2173 0859 01       		.byte	0x1
 2174 085a 1D01     		.2byte	0x11d
 2175 085c 06       		.byte	0x6
 2176 085d 00000000 		.4byte	.LFB13
 2177 0861 1C000000 		.4byte	.LFE13-.LFB13
 2178 0865 01       		.uleb128 0x1
 2179 0866 9C       		.byte	0x9c
 2180 0867 97080000 		.4byte	0x897
 2181 086b 23       		.uleb128 0x23
 2182 086c EA030000 		.4byte	.LASF104
 2183 0870 01       		.byte	0x1
 2184 0871 1D01     		.2byte	0x11d
 2185 0873 1B       		.byte	0x1b
 2186 0874 2B010000 		.4byte	0x12b
 2187 0878 20010000 		.4byte	.LLST23
 2188 087c 1A010000 		.4byte	.LVUS23
 2189 0880 1D       		.uleb128 0x1d
 2190 0881 14000000 		.4byte	.LVL31
 2191 0885 330C0000 		.4byte	0xc33
 2192 0889 1C       		.uleb128 0x1c
 2193 088a 01       		.uleb128 0x1
 2194 088b 50       		.byte	0x50
 2195 088c 01       		.uleb128 0x1
 2196 088d 36       		.byte	0x36
 2197 088e 1C       		.uleb128 0x1c
 2198 088f 01       		.uleb128 0x1
 2199 0890 51       		.byte	0x51
 2200 0891 03       		.uleb128 0x3
 2201 0892 F3       		.byte	0xf3
 2202 0893 01       		.uleb128 0x1
 2203 0894 50       		.byte	0x50
 2204 0895 00       		.byte	0
 2205 0896 00       		.byte	0
 2206 0897 1E       		.uleb128 0x1e
 2207 0898 E2020000 		.4byte	.LASF106
 2208 089c 01       		.byte	0x1
 2209 089d 0A01     		.2byte	0x10a
 2210 089f 06       		.byte	0x6
 2211 08a0 00000000 		.4byte	.LFB12
 2212 08a4 18000000 		.4byte	.LFE12-.LFB12
 2213 08a8 01       		.uleb128 0x1
 2214 08a9 9C       		.byte	0x9c
 2215 08aa BD080000 		.4byte	0x8bd
 2216 08ae 24       		.uleb128 0x24
 2217 08af 747000   		.ascii	"tp\000"
 2218 08b2 01       		.byte	0x1
 2219 08b3 0A01     		.2byte	0x10a
 2220 08b5 1D       		.byte	0x1d
 2221 08b6 71020000 		.4byte	0x271
 2222 08ba 01       		.uleb128 0x1
 2223 08bb 50       		.byte	0x50
ARM GAS  /var/folders/l5/0x54b2c10074c8bt31ycjvl80000gp/T//ccYeSm8G.s 			page 40


 2224 08bc 00       		.byte	0
 2225 08bd 25       		.uleb128 0x25
 2226 08be 64030000 		.4byte	.LASF108
 2227 08c2 01       		.byte	0x1
 2228 08c3 F3       		.byte	0xf3
 2229 08c4 09       		.byte	0x9
 2230 08c5 71020000 		.4byte	0x271
 2231 08c9 00000000 		.4byte	.LFB11
 2232 08cd 20000000 		.4byte	.LFE11-.LFB11
 2233 08d1 01       		.uleb128 0x1
 2234 08d2 9C       		.byte	0x9c
 2235 08d3 00090000 		.4byte	0x900
 2236 08d7 26       		.uleb128 0x26
 2237 08d8 747000   		.ascii	"tp\000"
 2238 08db 01       		.byte	0x1
 2239 08dc F3       		.byte	0xf3
 2240 08dd 1D       		.byte	0x1d
 2241 08de 71020000 		.4byte	0x271
 2242 08e2 50010000 		.4byte	.LLST22
 2243 08e6 4C010000 		.4byte	.LVUS22
 2244 08ea 1D       		.uleb128 0x1d
 2245 08eb 14000000 		.4byte	.LVL27
 2246 08ef 3F0C0000 		.4byte	0xc3f
 2247 08f3 1C       		.uleb128 0x1c
 2248 08f4 01       		.uleb128 0x1
 2249 08f5 50       		.byte	0x50
 2250 08f6 02       		.uleb128 0x2
 2251 08f7 74       		.byte	0x74
 2252 08f8 00       		.sleb128 0
 2253 08f9 1C       		.uleb128 0x1c
 2254 08fa 01       		.uleb128 0x1
 2255 08fb 51       		.byte	0x51
 2256 08fc 01       		.uleb128 0x1
 2257 08fd 30       		.byte	0x30
 2258 08fe 00       		.byte	0
 2259 08ff 00       		.byte	0
 2260 0900 25       		.uleb128 0x25
 2261 0901 62010000 		.4byte	.LASF109
 2262 0905 01       		.byte	0x1
 2263 0906 D2       		.byte	0xd2
 2264 0907 09       		.byte	0x9
 2265 0908 07010000 		.4byte	0x107
 2266 090c 00000000 		.4byte	.LFB10
 2267 0910 50000000 		.4byte	.LFE10-.LFB10
 2268 0914 01       		.uleb128 0x1
 2269 0915 9C       		.byte	0x9c
 2270 0916 4C090000 		.4byte	0x94c
 2271 091a 27       		.uleb128 0x27
 2272 091b D2020000 		.4byte	.LASF110
 2273 091f 01       		.byte	0x1
 2274 0920 D2       		.byte	0xd2
 2275 0921 22       		.byte	0x22
 2276 0922 07010000 		.4byte	0x107
 2277 0926 74010000 		.4byte	.LLST20
 2278 092a 6E010000 		.4byte	.LVUS20
 2279 092e 28       		.uleb128 0x28
 2280 092f 0F030000 		.4byte	.LASF111
ARM GAS  /var/folders/l5/0x54b2c10074c8bt31ycjvl80000gp/T//ccYeSm8G.s 			page 41


 2281 0933 01       		.byte	0x1
 2282 0934 D3       		.byte	0xd3
 2283 0935 0B       		.byte	0xb
 2284 0936 07010000 		.4byte	0x107
 2285 093a A2010000 		.4byte	.LLST21
 2286 093e A0010000 		.4byte	.LVUS21
 2287 0942 21       		.uleb128 0x21
 2288 0943 40000000 		.4byte	.LVL25
 2289 0947 4B0C0000 		.4byte	0xc4b
 2290 094b 00       		.byte	0
 2291 094c 25       		.uleb128 0x25
 2292 094d 22030000 		.4byte	.LASF112
 2293 0951 01       		.byte	0x1
 2294 0952 B4       		.byte	0xb4
 2295 0953 09       		.byte	0x9
 2296 0954 71020000 		.4byte	0x271
 2297 0958 00000000 		.4byte	.LFB9
 2298 095c A8000000 		.4byte	.LFE9-.LFB9
 2299 0960 01       		.uleb128 0x1
 2300 0961 9C       		.byte	0x9c
 2301 0962 830A0000 		.4byte	0xa83
 2302 0966 26       		.uleb128 0x26
 2303 0967 77737000 		.ascii	"wsp\000"
 2304 096b 01       		.byte	0x1
 2305 096c B4       		.byte	0xb4
 2306 096d 21       		.byte	0x21
 2307 096e BE020000 		.4byte	0x2be
 2308 0972 B9010000 		.4byte	.LLST7
 2309 0976 B5010000 		.4byte	.LVUS7
 2310 097a 27       		.uleb128 0x27
 2311 097b CF010000 		.4byte	.LASF113
 2312 097f 01       		.byte	0x1
 2313 0980 B4       		.byte	0xb4
 2314 0981 2D       		.byte	0x2d
 2315 0982 2C000000 		.4byte	0x2c
 2316 0986 DD010000 		.4byte	.LLST8
 2317 098a D7010000 		.4byte	.LVUS8
 2318 098e 27       		.uleb128 0x27
 2319 098f 22000000 		.4byte	.LASF114
 2320 0993 01       		.byte	0x1
 2321 0994 B5       		.byte	0xb5
 2322 0995 23       		.byte	0x23
 2323 0996 07010000 		.4byte	0x107
 2324 099a 11020000 		.4byte	.LLST9
 2325 099e 0B020000 		.4byte	.LVUS9
 2326 09a2 26       		.uleb128 0x26
 2327 09a3 706600   		.ascii	"pf\000"
 2328 09a6 01       		.byte	0x1
 2329 09a7 B5       		.byte	0xb5
 2330 09a8 31       		.byte	0x31
 2331 09a9 3A050000 		.4byte	0x53a
 2332 09ad 46020000 		.4byte	.LLST10
 2333 09b1 3E020000 		.4byte	.LVUS10
 2334 09b5 29       		.uleb128 0x29
 2335 09b6 61726700 		.ascii	"arg\000"
 2336 09ba 01       		.byte	0x1
 2337 09bb B5       		.byte	0xb5
ARM GAS  /var/folders/l5/0x54b2c10074c8bt31ycjvl80000gp/T//ccYeSm8G.s 			page 42


 2338 09bc 3B       		.byte	0x3b
 2339 09bd BE020000 		.4byte	0x2be
 2340 09c1 02       		.uleb128 0x2
 2341 09c2 91       		.byte	0x91
 2342 09c3 00       		.sleb128 0
 2343 09c4 2A       		.uleb128 0x2a
 2344 09c5 747000   		.ascii	"tp\000"
 2345 09c8 01       		.byte	0x1
 2346 09c9 B6       		.byte	0xb6
 2347 09ca 0B       		.byte	0xb
 2348 09cb 71020000 		.4byte	0x271
 2349 09cf 84020000 		.4byte	.LLST11
 2350 09d3 80020000 		.4byte	.LVUS11
 2351 09d7 2B       		.uleb128 0x2b
 2352 09d8 830A0000 		.4byte	0xa83
 2353 09dc 10000000 		.4byte	.LBI18
 2354 09e0 03       		.byte	.LVU111
 2355 09e1 20000000 		.4byte	.Ldebug_ranges0+0x20
 2356 09e5 01       		.byte	0x1
 2357 09e6 C1       		.byte	0xc1
 2358 09e7 15       		.byte	0x15
 2359 09e8 6D0A0000 		.4byte	0xa6d
 2360 09ec 19       		.uleb128 0x19
 2361 09ed C30A0000 		.4byte	0xac3
 2362 09f1 A4020000 		.4byte	.LLST12
 2363 09f5 A2020000 		.4byte	.LVUS12
 2364 09f9 19       		.uleb128 0x19
 2365 09fa B80A0000 		.4byte	0xab8
 2366 09fe BF020000 		.4byte	.LLST13
 2367 0a02 B7020000 		.4byte	.LVUS13
 2368 0a06 19       		.uleb128 0x19
 2369 0a07 AC0A0000 		.4byte	0xaac
 2370 0a0b FD020000 		.4byte	.LLST14
 2371 0a0f F9020000 		.4byte	.LVUS14
 2372 0a13 19       		.uleb128 0x19
 2373 0a14 A00A0000 		.4byte	0xaa0
 2374 0a18 22030000 		.4byte	.LLST15
 2375 0a1c 1C030000 		.4byte	.LVUS15
 2376 0a20 19       		.uleb128 0x19
 2377 0a21 940A0000 		.4byte	0xa94
 2378 0a25 52030000 		.4byte	.LLST16
 2379 0a29 50030000 		.4byte	.LVUS16
 2380 0a2d 1F       		.uleb128 0x1f
 2381 0a2e 20000000 		.4byte	.Ldebug_ranges0+0x20
 2382 0a32 20       		.uleb128 0x20
 2383 0a33 CF0A0000 		.4byte	0xacf
 2384 0a37 69030000 		.4byte	.LLST17
 2385 0a3b 65030000 		.4byte	.LVUS17
 2386 0a3f 2C       		.uleb128 0x2c
 2387 0a40 DB0A0000 		.4byte	0xadb
 2388 0a44 40000000 		.4byte	.LBI20
 2389 0a48 02       		.byte	.LVU133
 2390 0a49 38000000 		.4byte	.Ldebug_ranges0+0x38
 2391 0a4d 01       		.byte	0x1
 2392 0a4e A1       		.byte	0xa1
 2393 0a4f 0A       		.byte	0xa
 2394 0a50 19       		.uleb128 0x19
ARM GAS  /var/folders/l5/0x54b2c10074c8bt31ycjvl80000gp/T//ccYeSm8G.s 			page 43


 2395 0a51 F70A0000 		.4byte	0xaf7
 2396 0a55 8B030000 		.4byte	.LLST18
 2397 0a59 87030000 		.4byte	.LVUS18
 2398 0a5d 19       		.uleb128 0x19
 2399 0a5e EC0A0000 		.4byte	0xaec
 2400 0a62 AC030000 		.4byte	.LLST19
 2401 0a66 AA030000 		.4byte	.LVUS19
 2402 0a6a 00       		.byte	0
 2403 0a6b 00       		.byte	0
 2404 0a6c 00       		.byte	0
 2405 0a6d 1D       		.uleb128 0x1d
 2406 0a6e 94000000 		.4byte	.LVL21
 2407 0a72 3F0C0000 		.4byte	0xc3f
 2408 0a76 1C       		.uleb128 0x1c
 2409 0a77 01       		.uleb128 0x1
 2410 0a78 50       		.byte	0x50
 2411 0a79 02       		.uleb128 0x2
 2412 0a7a 74       		.byte	0x74
 2413 0a7b 00       		.sleb128 0
 2414 0a7c 1C       		.uleb128 0x1c
 2415 0a7d 01       		.uleb128 0x1
 2416 0a7e 51       		.byte	0x51
 2417 0a7f 01       		.uleb128 0x1
 2418 0a80 30       		.byte	0x30
 2419 0a81 00       		.byte	0
 2420 0a82 00       		.byte	0
 2421 0a83 2D       		.uleb128 0x2d
 2422 0a84 DF000000 		.4byte	.LASF115
 2423 0a88 01       		.byte	0x1
 2424 0a89 96       		.byte	0x96
 2425 0a8a 09       		.byte	0x9
 2426 0a8b 71020000 		.4byte	0x271
 2427 0a8f 01       		.byte	0x1
 2428 0a90 DB0A0000 		.4byte	0xadb
 2429 0a94 2E       		.uleb128 0x2e
 2430 0a95 77737000 		.ascii	"wsp\000"
 2431 0a99 01       		.byte	0x1
 2432 0a9a 96       		.byte	0x96
 2433 0a9b 1C       		.byte	0x1c
 2434 0a9c BE020000 		.4byte	0x2be
 2435 0aa0 2F       		.uleb128 0x2f
 2436 0aa1 CF010000 		.4byte	.LASF113
 2437 0aa5 01       		.byte	0x1
 2438 0aa6 96       		.byte	0x96
 2439 0aa7 28       		.byte	0x28
 2440 0aa8 2C000000 		.4byte	0x2c
 2441 0aac 2F       		.uleb128 0x2f
 2442 0aad 22000000 		.4byte	.LASF114
 2443 0ab1 01       		.byte	0x1
 2444 0ab2 97       		.byte	0x97
 2445 0ab3 1E       		.byte	0x1e
 2446 0ab4 07010000 		.4byte	0x107
 2447 0ab8 2E       		.uleb128 0x2e
 2448 0ab9 706600   		.ascii	"pf\000"
 2449 0abc 01       		.byte	0x1
 2450 0abd 97       		.byte	0x97
 2451 0abe 2C       		.byte	0x2c
ARM GAS  /var/folders/l5/0x54b2c10074c8bt31ycjvl80000gp/T//ccYeSm8G.s 			page 44


 2452 0abf 3A050000 		.4byte	0x53a
 2453 0ac3 2E       		.uleb128 0x2e
 2454 0ac4 61726700 		.ascii	"arg\000"
 2455 0ac8 01       		.byte	0x1
 2456 0ac9 97       		.byte	0x97
 2457 0aca 36       		.byte	0x36
 2458 0acb BE020000 		.4byte	0x2be
 2459 0acf 30       		.uleb128 0x30
 2460 0ad0 747000   		.ascii	"tp\000"
 2461 0ad3 01       		.byte	0x1
 2462 0ad4 99       		.byte	0x99
 2463 0ad5 0B       		.byte	0xb
 2464 0ad6 71020000 		.4byte	0x271
 2465 0ada 00       		.byte	0
 2466 0adb 2D       		.uleb128 0x2d
 2467 0adc 80010000 		.4byte	.LASF116
 2468 0ae0 01       		.byte	0x1
 2469 0ae1 45       		.byte	0x45
 2470 0ae2 09       		.byte	0x9
 2471 0ae3 71020000 		.4byte	0x271
 2472 0ae7 01       		.byte	0x1
 2473 0ae8 040B0000 		.4byte	0xb04
 2474 0aec 2E       		.uleb128 0x2e
 2475 0aed 747000   		.ascii	"tp\000"
 2476 0af0 01       		.byte	0x1
 2477 0af1 45       		.byte	0x45
 2478 0af2 1E       		.byte	0x1e
 2479 0af3 71020000 		.4byte	0x271
 2480 0af7 2F       		.uleb128 0x2f
 2481 0af8 22000000 		.4byte	.LASF114
 2482 0afc 01       		.byte	0x1
 2483 0afd 45       		.byte	0x45
 2484 0afe 2A       		.byte	0x2a
 2485 0aff 07010000 		.4byte	0x107
 2486 0b03 00       		.byte	0
 2487 0b04 31       		.uleb128 0x31
 2488 0b05 29010000 		.4byte	.LASF127
 2489 0b09 02       		.byte	0x2
 2490 0b0a 4F       		.byte	0x4f
 2491 0b0b 17       		.byte	0x17
 2492 0b0c 71020000 		.4byte	0x271
 2493 0b10 03       		.byte	0x3
 2494 0b11 2D0B0000 		.4byte	0xb2d
 2495 0b15 2E       		.uleb128 0x2e
 2496 0b16 746C7000 		.ascii	"tlp\000"
 2497 0b1a 02       		.byte	0x2
 2498 0b1b 4F       		.byte	0x4f
 2499 0b1c 30       		.byte	0x30
 2500 0b1d 2D0B0000 		.4byte	0xb2d
 2501 0b21 30       		.uleb128 0x30
 2502 0b22 747000   		.ascii	"tp\000"
 2503 0b25 02       		.byte	0x2
 2504 0b26 51       		.byte	0x51
 2505 0b27 0B       		.byte	0xb
 2506 0b28 71020000 		.4byte	0x271
 2507 0b2c 00       		.byte	0
 2508 0b2d 0A       		.uleb128 0xa
ARM GAS  /var/folders/l5/0x54b2c10074c8bt31ycjvl80000gp/T//ccYeSm8G.s 			page 45


 2509 0b2e 04       		.byte	0x4
 2510 0b2f 9A020000 		.4byte	0x29a
 2511 0b33 32       		.uleb128 0x32
 2512 0b34 EF030000 		.4byte	.LASF128
 2513 0b38 02       		.byte	0x2
 2514 0b39 49       		.byte	0x49
 2515 0b3a 14       		.byte	0x14
 2516 0b3b 03       		.byte	0x3
 2517 0b3c 580B0000 		.4byte	0xb58
 2518 0b40 2E       		.uleb128 0x2e
 2519 0b41 747000   		.ascii	"tp\000"
 2520 0b44 02       		.byte	0x2
 2521 0b45 49       		.byte	0x49
 2522 0b46 28       		.byte	0x28
 2523 0b47 71020000 		.4byte	0x271
 2524 0b4b 2E       		.uleb128 0x2e
 2525 0b4c 746C7000 		.ascii	"tlp\000"
 2526 0b50 02       		.byte	0x2
 2527 0b51 49       		.byte	0x49
 2528 0b52 39       		.byte	0x39
 2529 0b53 2D0B0000 		.4byte	0xb2d
 2530 0b57 00       		.byte	0
 2531 0b58 33       		.uleb128 0x33
 2532 0b59 DB0A0000 		.4byte	0xadb
 2533 0b5d 00000000 		.4byte	.LFB7
 2534 0b61 6C000000 		.4byte	.LFE7-.LFB7
 2535 0b65 01       		.uleb128 0x1
 2536 0b66 9C       		.byte	0x9c
 2537 0b67 800B0000 		.4byte	0xb80
 2538 0b6b 34       		.uleb128 0x34
 2539 0b6c EC0A0000 		.4byte	0xaec
 2540 0b70 01       		.uleb128 0x1
 2541 0b71 50       		.byte	0x50
 2542 0b72 19       		.uleb128 0x19
 2543 0b73 F70A0000 		.4byte	0xaf7
 2544 0b77 C3030000 		.4byte	.LLST0
 2545 0b7b BF030000 		.4byte	.LVUS0
 2546 0b7f 00       		.byte	0
 2547 0b80 33       		.uleb128 0x33
 2548 0b81 830A0000 		.4byte	0xa83
 2549 0b85 00000000 		.4byte	.LFB8
 2550 0b89 90000000 		.4byte	.LFE8-.LFB8
 2551 0b8d 01       		.uleb128 0x1
 2552 0b8e 9C       		.byte	0x9c
 2553 0b8f 030C0000 		.4byte	0xc03
 2554 0b93 34       		.uleb128 0x34
 2555 0b94 940A0000 		.4byte	0xa94
 2556 0b98 01       		.uleb128 0x1
 2557 0b99 50       		.byte	0x50
 2558 0b9a 19       		.uleb128 0x19
 2559 0b9b A00A0000 		.4byte	0xaa0
 2560 0b9f E8030000 		.4byte	.LLST1
 2561 0ba3 E2030000 		.4byte	.LVUS1
 2562 0ba7 19       		.uleb128 0x19
 2563 0ba8 AC0A0000 		.4byte	0xaac
 2564 0bac 1A040000 		.4byte	.LLST2
 2565 0bb0 16040000 		.4byte	.LVUS2
ARM GAS  /var/folders/l5/0x54b2c10074c8bt31ycjvl80000gp/T//ccYeSm8G.s 			page 46


 2566 0bb4 19       		.uleb128 0x19
 2567 0bb5 B80A0000 		.4byte	0xab8
 2568 0bb9 41040000 		.4byte	.LLST3
 2569 0bbd 39040000 		.4byte	.LVUS3
 2570 0bc1 34       		.uleb128 0x34
 2571 0bc2 C30A0000 		.4byte	0xac3
 2572 0bc6 02       		.uleb128 0x2
 2573 0bc7 91       		.byte	0x91
 2574 0bc8 00       		.sleb128 0
 2575 0bc9 20       		.uleb128 0x20
 2576 0bca CF0A0000 		.4byte	0xacf
 2577 0bce 7D040000 		.4byte	.LLST4
 2578 0bd2 7B040000 		.4byte	.LVUS4
 2579 0bd6 2C       		.uleb128 0x2c
 2580 0bd7 DB0A0000 		.4byte	0xadb
 2581 0bdb 38000000 		.4byte	.LBI12
 2582 0bdf 02       		.byte	.LVU65
 2583 0be0 00000000 		.4byte	.Ldebug_ranges0+0
 2584 0be4 01       		.byte	0x1
 2585 0be5 A1       		.byte	0xa1
 2586 0be6 0A       		.byte	0xa
 2587 0be7 19       		.uleb128 0x19
 2588 0be8 F70A0000 		.4byte	0xaf7
 2589 0bec 94040000 		.4byte	.LLST5
 2590 0bf0 90040000 		.4byte	.LVUS5
 2591 0bf4 19       		.uleb128 0x19
 2592 0bf5 EC0A0000 		.4byte	0xaec
 2593 0bf9 B5040000 		.4byte	.LLST6
 2594 0bfd B3040000 		.4byte	.LVUS6
 2595 0c01 00       		.byte	0
 2596 0c02 00       		.byte	0
 2597 0c03 35       		.uleb128 0x35
 2598 0c04 DC040000 		.4byte	.LASF117
 2599 0c08 DC040000 		.4byte	.LASF117
 2600 0c0c 0B       		.byte	0xb
 2601 0c0d 8C       		.byte	0x8c
 2602 0c0e 08       		.byte	0x8
 2603 0c0f 35       		.uleb128 0x35
 2604 0c10 BB040000 		.4byte	.LASF118
 2605 0c14 BB040000 		.4byte	.LASF118
 2606 0c18 0F       		.byte	0xf
 2607 0c19 33       		.byte	0x33
 2608 0c1a 08       		.byte	0x8
 2609 0c1b 35       		.uleb128 0x35
 2610 0c1c 3A050000 		.4byte	.LASF119
 2611 0c20 3A050000 		.4byte	.LASF119
 2612 0c24 0B       		.byte	0xb
 2613 0c25 89       		.byte	0x89
 2614 0c26 0B       		.byte	0xb
 2615 0c27 35       		.uleb128 0x35
 2616 0c28 70030000 		.4byte	.LASF120
 2617 0c2c 70030000 		.4byte	.LASF120
 2618 0c30 0B       		.byte	0xb
 2619 0c31 9B       		.byte	0x9b
 2620 0c32 08       		.byte	0x8
 2621 0c33 35       		.uleb128 0x35
 2622 0c34 04060000 		.4byte	.LASF121
ARM GAS  /var/folders/l5/0x54b2c10074c8bt31ycjvl80000gp/T//ccYeSm8G.s 			page 47


 2623 0c38 04060000 		.4byte	.LASF121
 2624 0c3c 0B       		.byte	0xb
 2625 0c3d 8F       		.byte	0x8f
 2626 0c3e 09       		.byte	0x9
 2627 0c3f 35       		.uleb128 0x35
 2628 0c40 E7010000 		.4byte	.LASF122
 2629 0c44 E7010000 		.4byte	.LASF122
 2630 0c48 0B       		.byte	0xb
 2631 0c49 92       		.byte	0x92
 2632 0c4a 08       		.byte	0x8
 2633 0c4b 35       		.uleb128 0x35
 2634 0c4c 35010000 		.4byte	.LASF123
 2635 0c50 35010000 		.4byte	.LASF123
 2636 0c54 0B       		.byte	0xb
 2637 0c55 95       		.byte	0x95
 2638 0c56 08       		.byte	0x8
 2639 0c57 00       		.byte	0
 2640              		.section	.debug_abbrev,"",%progbits
 2641              	.Ldebug_abbrev0:
 2642 0000 01       		.uleb128 0x1
 2643 0001 11       		.uleb128 0x11
 2644 0002 01       		.byte	0x1
 2645 0003 25       		.uleb128 0x25
 2646 0004 0E       		.uleb128 0xe
 2647 0005 13       		.uleb128 0x13
 2648 0006 0B       		.uleb128 0xb
 2649 0007 03       		.uleb128 0x3
 2650 0008 0E       		.uleb128 0xe
 2651 0009 1B       		.uleb128 0x1b
 2652 000a 0E       		.uleb128 0xe
 2653 000b 55       		.uleb128 0x55
 2654 000c 17       		.uleb128 0x17
 2655 000d 11       		.uleb128 0x11
 2656 000e 01       		.uleb128 0x1
 2657 000f 10       		.uleb128 0x10
 2658 0010 17       		.uleb128 0x17
 2659 0011 00       		.byte	0
 2660 0012 00       		.byte	0
 2661 0013 02       		.uleb128 0x2
 2662 0014 24       		.uleb128 0x24
 2663 0015 00       		.byte	0
 2664 0016 0B       		.uleb128 0xb
 2665 0017 0B       		.uleb128 0xb
 2666 0018 3E       		.uleb128 0x3e
 2667 0019 0B       		.uleb128 0xb
 2668 001a 03       		.uleb128 0x3
 2669 001b 08       		.uleb128 0x8
 2670 001c 00       		.byte	0
 2671 001d 00       		.byte	0
 2672 001e 03       		.uleb128 0x3
 2673 001f 16       		.uleb128 0x16
 2674 0020 00       		.byte	0
 2675 0021 03       		.uleb128 0x3
 2676 0022 0E       		.uleb128 0xe
 2677 0023 3A       		.uleb128 0x3a
 2678 0024 0B       		.uleb128 0xb
 2679 0025 3B       		.uleb128 0x3b
ARM GAS  /var/folders/l5/0x54b2c10074c8bt31ycjvl80000gp/T//ccYeSm8G.s 			page 48


 2680 0026 0B       		.uleb128 0xb
 2681 0027 39       		.uleb128 0x39
 2682 0028 0B       		.uleb128 0xb
 2683 0029 49       		.uleb128 0x49
 2684 002a 13       		.uleb128 0x13
 2685 002b 00       		.byte	0
 2686 002c 00       		.byte	0
 2687 002d 04       		.uleb128 0x4
 2688 002e 24       		.uleb128 0x24
 2689 002f 00       		.byte	0
 2690 0030 0B       		.uleb128 0xb
 2691 0031 0B       		.uleb128 0xb
 2692 0032 3E       		.uleb128 0x3e
 2693 0033 0B       		.uleb128 0xb
 2694 0034 03       		.uleb128 0x3
 2695 0035 0E       		.uleb128 0xe
 2696 0036 00       		.byte	0
 2697 0037 00       		.byte	0
 2698 0038 05       		.uleb128 0x5
 2699 0039 35       		.uleb128 0x35
 2700 003a 00       		.byte	0
 2701 003b 49       		.uleb128 0x49
 2702 003c 13       		.uleb128 0x13
 2703 003d 00       		.byte	0
 2704 003e 00       		.byte	0
 2705 003f 06       		.uleb128 0x6
 2706 0040 13       		.uleb128 0x13
 2707 0041 01       		.byte	0x1
 2708 0042 03       		.uleb128 0x3
 2709 0043 0E       		.uleb128 0xe
 2710 0044 0B       		.uleb128 0xb
 2711 0045 0B       		.uleb128 0xb
 2712 0046 3A       		.uleb128 0x3a
 2713 0047 0B       		.uleb128 0xb
 2714 0048 3B       		.uleb128 0x3b
 2715 0049 0B       		.uleb128 0xb
 2716 004a 39       		.uleb128 0x39
 2717 004b 0B       		.uleb128 0xb
 2718 004c 01       		.uleb128 0x1
 2719 004d 13       		.uleb128 0x13
 2720 004e 00       		.byte	0
 2721 004f 00       		.byte	0
 2722 0050 07       		.uleb128 0x7
 2723 0051 0D       		.uleb128 0xd
 2724 0052 00       		.byte	0
 2725 0053 03       		.uleb128 0x3
 2726 0054 0E       		.uleb128 0xe
 2727 0055 3A       		.uleb128 0x3a
 2728 0056 0B       		.uleb128 0xb
 2729 0057 3B       		.uleb128 0x3b
 2730 0058 0B       		.uleb128 0xb
 2731 0059 39       		.uleb128 0x39
 2732 005a 0B       		.uleb128 0xb
 2733 005b 49       		.uleb128 0x49
 2734 005c 13       		.uleb128 0x13
 2735 005d 38       		.uleb128 0x38
 2736 005e 0B       		.uleb128 0xb
ARM GAS  /var/folders/l5/0x54b2c10074c8bt31ycjvl80000gp/T//ccYeSm8G.s 			page 49


 2737 005f 00       		.byte	0
 2738 0060 00       		.byte	0
 2739 0061 08       		.uleb128 0x8
 2740 0062 0D       		.uleb128 0xd
 2741 0063 00       		.byte	0
 2742 0064 03       		.uleb128 0x3
 2743 0065 08       		.uleb128 0x8
 2744 0066 3A       		.uleb128 0x3a
 2745 0067 0B       		.uleb128 0xb
 2746 0068 3B       		.uleb128 0x3b
 2747 0069 0B       		.uleb128 0xb
 2748 006a 39       		.uleb128 0x39
 2749 006b 0B       		.uleb128 0xb
 2750 006c 49       		.uleb128 0x49
 2751 006d 13       		.uleb128 0x13
 2752 006e 38       		.uleb128 0x38
 2753 006f 0B       		.uleb128 0xb
 2754 0070 00       		.byte	0
 2755 0071 00       		.byte	0
 2756 0072 09       		.uleb128 0x9
 2757 0073 13       		.uleb128 0x13
 2758 0074 01       		.byte	0x1
 2759 0075 0B       		.uleb128 0xb
 2760 0076 0B       		.uleb128 0xb
 2761 0077 3A       		.uleb128 0x3a
 2762 0078 0B       		.uleb128 0xb
 2763 0079 3B       		.uleb128 0x3b
 2764 007a 0B       		.uleb128 0xb
 2765 007b 39       		.uleb128 0x39
 2766 007c 0B       		.uleb128 0xb
 2767 007d 01       		.uleb128 0x1
 2768 007e 13       		.uleb128 0x13
 2769 007f 00       		.byte	0
 2770 0080 00       		.byte	0
 2771 0081 0A       		.uleb128 0xa
 2772 0082 0F       		.uleb128 0xf
 2773 0083 00       		.byte	0
 2774 0084 0B       		.uleb128 0xb
 2775 0085 0B       		.uleb128 0xb
 2776 0086 49       		.uleb128 0x49
 2777 0087 13       		.uleb128 0x13
 2778 0088 00       		.byte	0
 2779 0089 00       		.byte	0
 2780 008a 0B       		.uleb128 0xb
 2781 008b 0F       		.uleb128 0xf
 2782 008c 00       		.byte	0
 2783 008d 0B       		.uleb128 0xb
 2784 008e 0B       		.uleb128 0xb
 2785 008f 00       		.byte	0
 2786 0090 00       		.byte	0
 2787 0091 0C       		.uleb128 0xc
 2788 0092 15       		.uleb128 0x15
 2789 0093 01       		.byte	0x1
 2790 0094 27       		.uleb128 0x27
 2791 0095 19       		.uleb128 0x19
 2792 0096 01       		.uleb128 0x1
 2793 0097 13       		.uleb128 0x13
ARM GAS  /var/folders/l5/0x54b2c10074c8bt31ycjvl80000gp/T//ccYeSm8G.s 			page 50


 2794 0098 00       		.byte	0
 2795 0099 00       		.byte	0
 2796 009a 0D       		.uleb128 0xd
 2797 009b 05       		.uleb128 0x5
 2798 009c 00       		.byte	0
 2799 009d 49       		.uleb128 0x49
 2800 009e 13       		.uleb128 0x13
 2801 009f 00       		.byte	0
 2802 00a0 00       		.byte	0
 2803 00a1 0E       		.uleb128 0xe
 2804 00a2 34       		.uleb128 0x34
 2805 00a3 00       		.byte	0
 2806 00a4 03       		.uleb128 0x3
 2807 00a5 0E       		.uleb128 0xe
 2808 00a6 3A       		.uleb128 0x3a
 2809 00a7 0B       		.uleb128 0xb
 2810 00a8 3B       		.uleb128 0x3b
 2811 00a9 0B       		.uleb128 0xb
 2812 00aa 39       		.uleb128 0x39
 2813 00ab 0B       		.uleb128 0xb
 2814 00ac 49       		.uleb128 0x49
 2815 00ad 13       		.uleb128 0x13
 2816 00ae 3F       		.uleb128 0x3f
 2817 00af 19       		.uleb128 0x19
 2818 00b0 3C       		.uleb128 0x3c
 2819 00b1 19       		.uleb128 0x19
 2820 00b2 00       		.byte	0
 2821 00b3 00       		.byte	0
 2822 00b4 0F       		.uleb128 0xf
 2823 00b5 17       		.uleb128 0x17
 2824 00b6 01       		.byte	0x1
 2825 00b7 0B       		.uleb128 0xb
 2826 00b8 0B       		.uleb128 0xb
 2827 00b9 3A       		.uleb128 0x3a
 2828 00ba 0B       		.uleb128 0xb
 2829 00bb 3B       		.uleb128 0x3b
 2830 00bc 0B       		.uleb128 0xb
 2831 00bd 39       		.uleb128 0x39
 2832 00be 0B       		.uleb128 0xb
 2833 00bf 01       		.uleb128 0x1
 2834 00c0 13       		.uleb128 0x13
 2835 00c1 00       		.byte	0
 2836 00c2 00       		.byte	0
 2837 00c3 10       		.uleb128 0x10
 2838 00c4 0D       		.uleb128 0xd
 2839 00c5 00       		.byte	0
 2840 00c6 03       		.uleb128 0x3
 2841 00c7 0E       		.uleb128 0xe
 2842 00c8 3A       		.uleb128 0x3a
 2843 00c9 0B       		.uleb128 0xb
 2844 00ca 3B       		.uleb128 0x3b
 2845 00cb 0B       		.uleb128 0xb
 2846 00cc 39       		.uleb128 0x39
 2847 00cd 0B       		.uleb128 0xb
 2848 00ce 49       		.uleb128 0x49
 2849 00cf 13       		.uleb128 0x13
 2850 00d0 00       		.byte	0
ARM GAS  /var/folders/l5/0x54b2c10074c8bt31ycjvl80000gp/T//ccYeSm8G.s 			page 51


 2851 00d1 00       		.byte	0
 2852 00d2 11       		.uleb128 0x11
 2853 00d3 26       		.uleb128 0x26
 2854 00d4 00       		.byte	0
 2855 00d5 49       		.uleb128 0x49
 2856 00d6 13       		.uleb128 0x13
 2857 00d7 00       		.byte	0
 2858 00d8 00       		.byte	0
 2859 00d9 12       		.uleb128 0x12
 2860 00da 15       		.uleb128 0x15
 2861 00db 01       		.byte	0x1
 2862 00dc 27       		.uleb128 0x27
 2863 00dd 19       		.uleb128 0x19
 2864 00de 49       		.uleb128 0x49
 2865 00df 13       		.uleb128 0x13
 2866 00e0 01       		.uleb128 0x1
 2867 00e1 13       		.uleb128 0x13
 2868 00e2 00       		.byte	0
 2869 00e3 00       		.byte	0
 2870 00e4 13       		.uleb128 0x13
 2871 00e5 01       		.uleb128 0x1
 2872 00e6 01       		.byte	0x1
 2873 00e7 49       		.uleb128 0x49
 2874 00e8 13       		.uleb128 0x13
 2875 00e9 01       		.uleb128 0x1
 2876 00ea 13       		.uleb128 0x13
 2877 00eb 00       		.byte	0
 2878 00ec 00       		.byte	0
 2879 00ed 14       		.uleb128 0x14
 2880 00ee 21       		.uleb128 0x21
 2881 00ef 00       		.byte	0
 2882 00f0 49       		.uleb128 0x49
 2883 00f1 13       		.uleb128 0x13
 2884 00f2 2F       		.uleb128 0x2f
 2885 00f3 0B       		.uleb128 0xb
 2886 00f4 00       		.byte	0
 2887 00f5 00       		.byte	0
 2888 00f6 15       		.uleb128 0x15
 2889 00f7 2E       		.uleb128 0x2e
 2890 00f8 01       		.byte	0x1
 2891 00f9 3F       		.uleb128 0x3f
 2892 00fa 19       		.uleb128 0x19
 2893 00fb 03       		.uleb128 0x3
 2894 00fc 0E       		.uleb128 0xe
 2895 00fd 3A       		.uleb128 0x3a
 2896 00fe 0B       		.uleb128 0xb
 2897 00ff 3B       		.uleb128 0x3b
 2898 0100 05       		.uleb128 0x5
 2899 0101 39       		.uleb128 0x39
 2900 0102 0B       		.uleb128 0xb
 2901 0103 27       		.uleb128 0x27
 2902 0104 19       		.uleb128 0x19
 2903 0105 49       		.uleb128 0x49
 2904 0106 13       		.uleb128 0x13
 2905 0107 11       		.uleb128 0x11
 2906 0108 01       		.uleb128 0x1
 2907 0109 12       		.uleb128 0x12
ARM GAS  /var/folders/l5/0x54b2c10074c8bt31ycjvl80000gp/T//ccYeSm8G.s 			page 52


 2908 010a 06       		.uleb128 0x6
 2909 010b 40       		.uleb128 0x40
 2910 010c 18       		.uleb128 0x18
 2911 010d 9742     		.uleb128 0x2117
 2912 010f 19       		.uleb128 0x19
 2913 0110 01       		.uleb128 0x1
 2914 0111 13       		.uleb128 0x13
 2915 0112 00       		.byte	0
 2916 0113 00       		.byte	0
 2917 0114 16       		.uleb128 0x16
 2918 0115 05       		.uleb128 0x5
 2919 0116 00       		.byte	0
 2920 0117 03       		.uleb128 0x3
 2921 0118 08       		.uleb128 0x8
 2922 0119 3A       		.uleb128 0x3a
 2923 011a 0B       		.uleb128 0xb
 2924 011b 3B       		.uleb128 0x3b
 2925 011c 05       		.uleb128 0x5
 2926 011d 39       		.uleb128 0x39
 2927 011e 0B       		.uleb128 0xb
 2928 011f 49       		.uleb128 0x49
 2929 0120 13       		.uleb128 0x13
 2930 0121 02       		.uleb128 0x2
 2931 0122 17       		.uleb128 0x17
 2932 0123 B742     		.uleb128 0x2137
 2933 0125 17       		.uleb128 0x17
 2934 0126 00       		.byte	0
 2935 0127 00       		.byte	0
 2936 0128 17       		.uleb128 0x17
 2937 0129 34       		.uleb128 0x34
 2938 012a 00       		.byte	0
 2939 012b 03       		.uleb128 0x3
 2940 012c 08       		.uleb128 0x8
 2941 012d 3A       		.uleb128 0x3a
 2942 012e 0B       		.uleb128 0xb
 2943 012f 3B       		.uleb128 0x3b
 2944 0130 05       		.uleb128 0x5
 2945 0131 39       		.uleb128 0x39
 2946 0132 0B       		.uleb128 0xb
 2947 0133 49       		.uleb128 0x49
 2948 0134 13       		.uleb128 0x13
 2949 0135 02       		.uleb128 0x2
 2950 0136 17       		.uleb128 0x17
 2951 0137 B742     		.uleb128 0x2137
 2952 0139 17       		.uleb128 0x17
 2953 013a 00       		.byte	0
 2954 013b 00       		.byte	0
 2955 013c 18       		.uleb128 0x18
 2956 013d 1D       		.uleb128 0x1d
 2957 013e 01       		.byte	0x1
 2958 013f 31       		.uleb128 0x31
 2959 0140 13       		.uleb128 0x13
 2960 0141 52       		.uleb128 0x52
 2961 0142 01       		.uleb128 0x1
 2962 0143 B842     		.uleb128 0x2138
 2963 0145 0B       		.uleb128 0xb
 2964 0146 55       		.uleb128 0x55
ARM GAS  /var/folders/l5/0x54b2c10074c8bt31ycjvl80000gp/T//ccYeSm8G.s 			page 53


 2965 0147 17       		.uleb128 0x17
 2966 0148 58       		.uleb128 0x58
 2967 0149 0B       		.uleb128 0xb
 2968 014a 59       		.uleb128 0x59
 2969 014b 05       		.uleb128 0x5
 2970 014c 57       		.uleb128 0x57
 2971 014d 0B       		.uleb128 0xb
 2972 014e 01       		.uleb128 0x1
 2973 014f 13       		.uleb128 0x13
 2974 0150 00       		.byte	0
 2975 0151 00       		.byte	0
 2976 0152 19       		.uleb128 0x19
 2977 0153 05       		.uleb128 0x5
 2978 0154 00       		.byte	0
 2979 0155 31       		.uleb128 0x31
 2980 0156 13       		.uleb128 0x13
 2981 0157 02       		.uleb128 0x2
 2982 0158 17       		.uleb128 0x17
 2983 0159 B742     		.uleb128 0x2137
 2984 015b 17       		.uleb128 0x17
 2985 015c 00       		.byte	0
 2986 015d 00       		.byte	0
 2987 015e 1A       		.uleb128 0x1a
 2988 015f 05       		.uleb128 0x5
 2989 0160 00       		.byte	0
 2990 0161 31       		.uleb128 0x31
 2991 0162 13       		.uleb128 0x13
 2992 0163 00       		.byte	0
 2993 0164 00       		.byte	0
 2994 0165 1B       		.uleb128 0x1b
 2995 0166 898201   		.uleb128 0x4109
 2996 0169 01       		.byte	0x1
 2997 016a 11       		.uleb128 0x11
 2998 016b 01       		.uleb128 0x1
 2999 016c 31       		.uleb128 0x31
 3000 016d 13       		.uleb128 0x13
 3001 016e 01       		.uleb128 0x1
 3002 016f 13       		.uleb128 0x13
 3003 0170 00       		.byte	0
 3004 0171 00       		.byte	0
 3005 0172 1C       		.uleb128 0x1c
 3006 0173 8A8201   		.uleb128 0x410a
 3007 0176 00       		.byte	0
 3008 0177 02       		.uleb128 0x2
 3009 0178 18       		.uleb128 0x18
 3010 0179 9142     		.uleb128 0x2111
 3011 017b 18       		.uleb128 0x18
 3012 017c 00       		.byte	0
 3013 017d 00       		.byte	0
 3014 017e 1D       		.uleb128 0x1d
 3015 017f 898201   		.uleb128 0x4109
 3016 0182 01       		.byte	0x1
 3017 0183 11       		.uleb128 0x11
 3018 0184 01       		.uleb128 0x1
 3019 0185 31       		.uleb128 0x31
 3020 0186 13       		.uleb128 0x13
 3021 0187 00       		.byte	0
ARM GAS  /var/folders/l5/0x54b2c10074c8bt31ycjvl80000gp/T//ccYeSm8G.s 			page 54


 3022 0188 00       		.byte	0
 3023 0189 1E       		.uleb128 0x1e
 3024 018a 2E       		.uleb128 0x2e
 3025 018b 01       		.byte	0x1
 3026 018c 3F       		.uleb128 0x3f
 3027 018d 19       		.uleb128 0x19
 3028 018e 03       		.uleb128 0x3
 3029 018f 0E       		.uleb128 0xe
 3030 0190 3A       		.uleb128 0x3a
 3031 0191 0B       		.uleb128 0xb
 3032 0192 3B       		.uleb128 0x3b
 3033 0193 05       		.uleb128 0x5
 3034 0194 39       		.uleb128 0x39
 3035 0195 0B       		.uleb128 0xb
 3036 0196 27       		.uleb128 0x27
 3037 0197 19       		.uleb128 0x19
 3038 0198 11       		.uleb128 0x11
 3039 0199 01       		.uleb128 0x1
 3040 019a 12       		.uleb128 0x12
 3041 019b 06       		.uleb128 0x6
 3042 019c 40       		.uleb128 0x40
 3043 019d 18       		.uleb128 0x18
 3044 019e 9742     		.uleb128 0x2117
 3045 01a0 19       		.uleb128 0x19
 3046 01a1 01       		.uleb128 0x1
 3047 01a2 13       		.uleb128 0x13
 3048 01a3 00       		.byte	0
 3049 01a4 00       		.byte	0
 3050 01a5 1F       		.uleb128 0x1f
 3051 01a6 0B       		.uleb128 0xb
 3052 01a7 01       		.byte	0x1
 3053 01a8 55       		.uleb128 0x55
 3054 01a9 17       		.uleb128 0x17
 3055 01aa 00       		.byte	0
 3056 01ab 00       		.byte	0
 3057 01ac 20       		.uleb128 0x20
 3058 01ad 34       		.uleb128 0x34
 3059 01ae 00       		.byte	0
 3060 01af 31       		.uleb128 0x31
 3061 01b0 13       		.uleb128 0x13
 3062 01b1 02       		.uleb128 0x2
 3063 01b2 17       		.uleb128 0x17
 3064 01b3 B742     		.uleb128 0x2137
 3065 01b5 17       		.uleb128 0x17
 3066 01b6 00       		.byte	0
 3067 01b7 00       		.byte	0
 3068 01b8 21       		.uleb128 0x21
 3069 01b9 898201   		.uleb128 0x4109
 3070 01bc 00       		.byte	0
 3071 01bd 11       		.uleb128 0x11
 3072 01be 01       		.uleb128 0x1
 3073 01bf 31       		.uleb128 0x31
 3074 01c0 13       		.uleb128 0x13
 3075 01c1 00       		.byte	0
 3076 01c2 00       		.byte	0
 3077 01c3 22       		.uleb128 0x22
 3078 01c4 898201   		.uleb128 0x4109
ARM GAS  /var/folders/l5/0x54b2c10074c8bt31ycjvl80000gp/T//ccYeSm8G.s 			page 55


 3079 01c7 01       		.byte	0x1
 3080 01c8 11       		.uleb128 0x11
 3081 01c9 01       		.uleb128 0x1
 3082 01ca 9542     		.uleb128 0x2115
 3083 01cc 19       		.uleb128 0x19
 3084 01cd 31       		.uleb128 0x31
 3085 01ce 13       		.uleb128 0x13
 3086 01cf 00       		.byte	0
 3087 01d0 00       		.byte	0
 3088 01d1 23       		.uleb128 0x23
 3089 01d2 05       		.uleb128 0x5
 3090 01d3 00       		.byte	0
 3091 01d4 03       		.uleb128 0x3
 3092 01d5 0E       		.uleb128 0xe
 3093 01d6 3A       		.uleb128 0x3a
 3094 01d7 0B       		.uleb128 0xb
 3095 01d8 3B       		.uleb128 0x3b
 3096 01d9 05       		.uleb128 0x5
 3097 01da 39       		.uleb128 0x39
 3098 01db 0B       		.uleb128 0xb
 3099 01dc 49       		.uleb128 0x49
 3100 01dd 13       		.uleb128 0x13
 3101 01de 02       		.uleb128 0x2
 3102 01df 17       		.uleb128 0x17
 3103 01e0 B742     		.uleb128 0x2137
 3104 01e2 17       		.uleb128 0x17
 3105 01e3 00       		.byte	0
 3106 01e4 00       		.byte	0
 3107 01e5 24       		.uleb128 0x24
 3108 01e6 05       		.uleb128 0x5
 3109 01e7 00       		.byte	0
 3110 01e8 03       		.uleb128 0x3
 3111 01e9 08       		.uleb128 0x8
 3112 01ea 3A       		.uleb128 0x3a
 3113 01eb 0B       		.uleb128 0xb
 3114 01ec 3B       		.uleb128 0x3b
 3115 01ed 05       		.uleb128 0x5
 3116 01ee 39       		.uleb128 0x39
 3117 01ef 0B       		.uleb128 0xb
 3118 01f0 49       		.uleb128 0x49
 3119 01f1 13       		.uleb128 0x13
 3120 01f2 02       		.uleb128 0x2
 3121 01f3 18       		.uleb128 0x18
 3122 01f4 00       		.byte	0
 3123 01f5 00       		.byte	0
 3124 01f6 25       		.uleb128 0x25
 3125 01f7 2E       		.uleb128 0x2e
 3126 01f8 01       		.byte	0x1
 3127 01f9 3F       		.uleb128 0x3f
 3128 01fa 19       		.uleb128 0x19
 3129 01fb 03       		.uleb128 0x3
 3130 01fc 0E       		.uleb128 0xe
 3131 01fd 3A       		.uleb128 0x3a
 3132 01fe 0B       		.uleb128 0xb
 3133 01ff 3B       		.uleb128 0x3b
 3134 0200 0B       		.uleb128 0xb
 3135 0201 39       		.uleb128 0x39
ARM GAS  /var/folders/l5/0x54b2c10074c8bt31ycjvl80000gp/T//ccYeSm8G.s 			page 56


 3136 0202 0B       		.uleb128 0xb
 3137 0203 27       		.uleb128 0x27
 3138 0204 19       		.uleb128 0x19
 3139 0205 49       		.uleb128 0x49
 3140 0206 13       		.uleb128 0x13
 3141 0207 11       		.uleb128 0x11
 3142 0208 01       		.uleb128 0x1
 3143 0209 12       		.uleb128 0x12
 3144 020a 06       		.uleb128 0x6
 3145 020b 40       		.uleb128 0x40
 3146 020c 18       		.uleb128 0x18
 3147 020d 9742     		.uleb128 0x2117
 3148 020f 19       		.uleb128 0x19
 3149 0210 01       		.uleb128 0x1
 3150 0211 13       		.uleb128 0x13
 3151 0212 00       		.byte	0
 3152 0213 00       		.byte	0
 3153 0214 26       		.uleb128 0x26
 3154 0215 05       		.uleb128 0x5
 3155 0216 00       		.byte	0
 3156 0217 03       		.uleb128 0x3
 3157 0218 08       		.uleb128 0x8
 3158 0219 3A       		.uleb128 0x3a
 3159 021a 0B       		.uleb128 0xb
 3160 021b 3B       		.uleb128 0x3b
 3161 021c 0B       		.uleb128 0xb
 3162 021d 39       		.uleb128 0x39
 3163 021e 0B       		.uleb128 0xb
 3164 021f 49       		.uleb128 0x49
 3165 0220 13       		.uleb128 0x13
 3166 0221 02       		.uleb128 0x2
 3167 0222 17       		.uleb128 0x17
 3168 0223 B742     		.uleb128 0x2137
 3169 0225 17       		.uleb128 0x17
 3170 0226 00       		.byte	0
 3171 0227 00       		.byte	0
 3172 0228 27       		.uleb128 0x27
 3173 0229 05       		.uleb128 0x5
 3174 022a 00       		.byte	0
 3175 022b 03       		.uleb128 0x3
 3176 022c 0E       		.uleb128 0xe
 3177 022d 3A       		.uleb128 0x3a
 3178 022e 0B       		.uleb128 0xb
 3179 022f 3B       		.uleb128 0x3b
 3180 0230 0B       		.uleb128 0xb
 3181 0231 39       		.uleb128 0x39
 3182 0232 0B       		.uleb128 0xb
 3183 0233 49       		.uleb128 0x49
 3184 0234 13       		.uleb128 0x13
 3185 0235 02       		.uleb128 0x2
 3186 0236 17       		.uleb128 0x17
 3187 0237 B742     		.uleb128 0x2137
 3188 0239 17       		.uleb128 0x17
 3189 023a 00       		.byte	0
 3190 023b 00       		.byte	0
 3191 023c 28       		.uleb128 0x28
 3192 023d 34       		.uleb128 0x34
ARM GAS  /var/folders/l5/0x54b2c10074c8bt31ycjvl80000gp/T//ccYeSm8G.s 			page 57


 3193 023e 00       		.byte	0
 3194 023f 03       		.uleb128 0x3
 3195 0240 0E       		.uleb128 0xe
 3196 0241 3A       		.uleb128 0x3a
 3197 0242 0B       		.uleb128 0xb
 3198 0243 3B       		.uleb128 0x3b
 3199 0244 0B       		.uleb128 0xb
 3200 0245 39       		.uleb128 0x39
 3201 0246 0B       		.uleb128 0xb
 3202 0247 49       		.uleb128 0x49
 3203 0248 13       		.uleb128 0x13
 3204 0249 02       		.uleb128 0x2
 3205 024a 17       		.uleb128 0x17
 3206 024b B742     		.uleb128 0x2137
 3207 024d 17       		.uleb128 0x17
 3208 024e 00       		.byte	0
 3209 024f 00       		.byte	0
 3210 0250 29       		.uleb128 0x29
 3211 0251 05       		.uleb128 0x5
 3212 0252 00       		.byte	0
 3213 0253 03       		.uleb128 0x3
 3214 0254 08       		.uleb128 0x8
 3215 0255 3A       		.uleb128 0x3a
 3216 0256 0B       		.uleb128 0xb
 3217 0257 3B       		.uleb128 0x3b
 3218 0258 0B       		.uleb128 0xb
 3219 0259 39       		.uleb128 0x39
 3220 025a 0B       		.uleb128 0xb
 3221 025b 49       		.uleb128 0x49
 3222 025c 13       		.uleb128 0x13
 3223 025d 02       		.uleb128 0x2
 3224 025e 18       		.uleb128 0x18
 3225 025f 00       		.byte	0
 3226 0260 00       		.byte	0
 3227 0261 2A       		.uleb128 0x2a
 3228 0262 34       		.uleb128 0x34
 3229 0263 00       		.byte	0
 3230 0264 03       		.uleb128 0x3
 3231 0265 08       		.uleb128 0x8
 3232 0266 3A       		.uleb128 0x3a
 3233 0267 0B       		.uleb128 0xb
 3234 0268 3B       		.uleb128 0x3b
 3235 0269 0B       		.uleb128 0xb
 3236 026a 39       		.uleb128 0x39
 3237 026b 0B       		.uleb128 0xb
 3238 026c 49       		.uleb128 0x49
 3239 026d 13       		.uleb128 0x13
 3240 026e 02       		.uleb128 0x2
 3241 026f 17       		.uleb128 0x17
 3242 0270 B742     		.uleb128 0x2137
 3243 0272 17       		.uleb128 0x17
 3244 0273 00       		.byte	0
 3245 0274 00       		.byte	0
 3246 0275 2B       		.uleb128 0x2b
 3247 0276 1D       		.uleb128 0x1d
 3248 0277 01       		.byte	0x1
 3249 0278 31       		.uleb128 0x31
ARM GAS  /var/folders/l5/0x54b2c10074c8bt31ycjvl80000gp/T//ccYeSm8G.s 			page 58


 3250 0279 13       		.uleb128 0x13
 3251 027a 52       		.uleb128 0x52
 3252 027b 01       		.uleb128 0x1
 3253 027c B842     		.uleb128 0x2138
 3254 027e 0B       		.uleb128 0xb
 3255 027f 55       		.uleb128 0x55
 3256 0280 17       		.uleb128 0x17
 3257 0281 58       		.uleb128 0x58
 3258 0282 0B       		.uleb128 0xb
 3259 0283 59       		.uleb128 0x59
 3260 0284 0B       		.uleb128 0xb
 3261 0285 57       		.uleb128 0x57
 3262 0286 0B       		.uleb128 0xb
 3263 0287 01       		.uleb128 0x1
 3264 0288 13       		.uleb128 0x13
 3265 0289 00       		.byte	0
 3266 028a 00       		.byte	0
 3267 028b 2C       		.uleb128 0x2c
 3268 028c 1D       		.uleb128 0x1d
 3269 028d 01       		.byte	0x1
 3270 028e 31       		.uleb128 0x31
 3271 028f 13       		.uleb128 0x13
 3272 0290 52       		.uleb128 0x52
 3273 0291 01       		.uleb128 0x1
 3274 0292 B842     		.uleb128 0x2138
 3275 0294 0B       		.uleb128 0xb
 3276 0295 55       		.uleb128 0x55
 3277 0296 17       		.uleb128 0x17
 3278 0297 58       		.uleb128 0x58
 3279 0298 0B       		.uleb128 0xb
 3280 0299 59       		.uleb128 0x59
 3281 029a 0B       		.uleb128 0xb
 3282 029b 57       		.uleb128 0x57
 3283 029c 0B       		.uleb128 0xb
 3284 029d 00       		.byte	0
 3285 029e 00       		.byte	0
 3286 029f 2D       		.uleb128 0x2d
 3287 02a0 2E       		.uleb128 0x2e
 3288 02a1 01       		.byte	0x1
 3289 02a2 3F       		.uleb128 0x3f
 3290 02a3 19       		.uleb128 0x19
 3291 02a4 03       		.uleb128 0x3
 3292 02a5 0E       		.uleb128 0xe
 3293 02a6 3A       		.uleb128 0x3a
 3294 02a7 0B       		.uleb128 0xb
 3295 02a8 3B       		.uleb128 0x3b
 3296 02a9 0B       		.uleb128 0xb
 3297 02aa 39       		.uleb128 0x39
 3298 02ab 0B       		.uleb128 0xb
 3299 02ac 27       		.uleb128 0x27
 3300 02ad 19       		.uleb128 0x19
 3301 02ae 49       		.uleb128 0x49
 3302 02af 13       		.uleb128 0x13
 3303 02b0 20       		.uleb128 0x20
 3304 02b1 0B       		.uleb128 0xb
 3305 02b2 01       		.uleb128 0x1
 3306 02b3 13       		.uleb128 0x13
ARM GAS  /var/folders/l5/0x54b2c10074c8bt31ycjvl80000gp/T//ccYeSm8G.s 			page 59


 3307 02b4 00       		.byte	0
 3308 02b5 00       		.byte	0
 3309 02b6 2E       		.uleb128 0x2e
 3310 02b7 05       		.uleb128 0x5
 3311 02b8 00       		.byte	0
 3312 02b9 03       		.uleb128 0x3
 3313 02ba 08       		.uleb128 0x8
 3314 02bb 3A       		.uleb128 0x3a
 3315 02bc 0B       		.uleb128 0xb
 3316 02bd 3B       		.uleb128 0x3b
 3317 02be 0B       		.uleb128 0xb
 3318 02bf 39       		.uleb128 0x39
 3319 02c0 0B       		.uleb128 0xb
 3320 02c1 49       		.uleb128 0x49
 3321 02c2 13       		.uleb128 0x13
 3322 02c3 00       		.byte	0
 3323 02c4 00       		.byte	0
 3324 02c5 2F       		.uleb128 0x2f
 3325 02c6 05       		.uleb128 0x5
 3326 02c7 00       		.byte	0
 3327 02c8 03       		.uleb128 0x3
 3328 02c9 0E       		.uleb128 0xe
 3329 02ca 3A       		.uleb128 0x3a
 3330 02cb 0B       		.uleb128 0xb
 3331 02cc 3B       		.uleb128 0x3b
 3332 02cd 0B       		.uleb128 0xb
 3333 02ce 39       		.uleb128 0x39
 3334 02cf 0B       		.uleb128 0xb
 3335 02d0 49       		.uleb128 0x49
 3336 02d1 13       		.uleb128 0x13
 3337 02d2 00       		.byte	0
 3338 02d3 00       		.byte	0
 3339 02d4 30       		.uleb128 0x30
 3340 02d5 34       		.uleb128 0x34
 3341 02d6 00       		.byte	0
 3342 02d7 03       		.uleb128 0x3
 3343 02d8 08       		.uleb128 0x8
 3344 02d9 3A       		.uleb128 0x3a
 3345 02da 0B       		.uleb128 0xb
 3346 02db 3B       		.uleb128 0x3b
 3347 02dc 0B       		.uleb128 0xb
 3348 02dd 39       		.uleb128 0x39
 3349 02de 0B       		.uleb128 0xb
 3350 02df 49       		.uleb128 0x49
 3351 02e0 13       		.uleb128 0x13
 3352 02e1 00       		.byte	0
 3353 02e2 00       		.byte	0
 3354 02e3 31       		.uleb128 0x31
 3355 02e4 2E       		.uleb128 0x2e
 3356 02e5 01       		.byte	0x1
 3357 02e6 03       		.uleb128 0x3
 3358 02e7 0E       		.uleb128 0xe
 3359 02e8 3A       		.uleb128 0x3a
 3360 02e9 0B       		.uleb128 0xb
 3361 02ea 3B       		.uleb128 0x3b
 3362 02eb 0B       		.uleb128 0xb
 3363 02ec 39       		.uleb128 0x39
ARM GAS  /var/folders/l5/0x54b2c10074c8bt31ycjvl80000gp/T//ccYeSm8G.s 			page 60


 3364 02ed 0B       		.uleb128 0xb
 3365 02ee 27       		.uleb128 0x27
 3366 02ef 19       		.uleb128 0x19
 3367 02f0 49       		.uleb128 0x49
 3368 02f1 13       		.uleb128 0x13
 3369 02f2 20       		.uleb128 0x20
 3370 02f3 0B       		.uleb128 0xb
 3371 02f4 01       		.uleb128 0x1
 3372 02f5 13       		.uleb128 0x13
 3373 02f6 00       		.byte	0
 3374 02f7 00       		.byte	0
 3375 02f8 32       		.uleb128 0x32
 3376 02f9 2E       		.uleb128 0x2e
 3377 02fa 01       		.byte	0x1
 3378 02fb 03       		.uleb128 0x3
 3379 02fc 0E       		.uleb128 0xe
 3380 02fd 3A       		.uleb128 0x3a
 3381 02fe 0B       		.uleb128 0xb
 3382 02ff 3B       		.uleb128 0x3b
 3383 0300 0B       		.uleb128 0xb
 3384 0301 39       		.uleb128 0x39
 3385 0302 0B       		.uleb128 0xb
 3386 0303 27       		.uleb128 0x27
 3387 0304 19       		.uleb128 0x19
 3388 0305 20       		.uleb128 0x20
 3389 0306 0B       		.uleb128 0xb
 3390 0307 01       		.uleb128 0x1
 3391 0308 13       		.uleb128 0x13
 3392 0309 00       		.byte	0
 3393 030a 00       		.byte	0
 3394 030b 33       		.uleb128 0x33
 3395 030c 2E       		.uleb128 0x2e
 3396 030d 01       		.byte	0x1
 3397 030e 31       		.uleb128 0x31
 3398 030f 13       		.uleb128 0x13
 3399 0310 11       		.uleb128 0x11
 3400 0311 01       		.uleb128 0x1
 3401 0312 12       		.uleb128 0x12
 3402 0313 06       		.uleb128 0x6
 3403 0314 40       		.uleb128 0x40
 3404 0315 18       		.uleb128 0x18
 3405 0316 9742     		.uleb128 0x2117
 3406 0318 19       		.uleb128 0x19
 3407 0319 01       		.uleb128 0x1
 3408 031a 13       		.uleb128 0x13
 3409 031b 00       		.byte	0
 3410 031c 00       		.byte	0
 3411 031d 34       		.uleb128 0x34
 3412 031e 05       		.uleb128 0x5
 3413 031f 00       		.byte	0
 3414 0320 31       		.uleb128 0x31
 3415 0321 13       		.uleb128 0x13
 3416 0322 02       		.uleb128 0x2
 3417 0323 18       		.uleb128 0x18
 3418 0324 00       		.byte	0
 3419 0325 00       		.byte	0
 3420 0326 35       		.uleb128 0x35
ARM GAS  /var/folders/l5/0x54b2c10074c8bt31ycjvl80000gp/T//ccYeSm8G.s 			page 61


 3421 0327 2E       		.uleb128 0x2e
 3422 0328 00       		.byte	0
 3423 0329 3F       		.uleb128 0x3f
 3424 032a 19       		.uleb128 0x19
 3425 032b 3C       		.uleb128 0x3c
 3426 032c 19       		.uleb128 0x19
 3427 032d 6E       		.uleb128 0x6e
 3428 032e 0E       		.uleb128 0xe
 3429 032f 03       		.uleb128 0x3
 3430 0330 0E       		.uleb128 0xe
 3431 0331 3A       		.uleb128 0x3a
 3432 0332 0B       		.uleb128 0xb
 3433 0333 3B       		.uleb128 0x3b
 3434 0334 0B       		.uleb128 0xb
 3435 0335 39       		.uleb128 0x39
 3436 0336 0B       		.uleb128 0xb
 3437 0337 00       		.byte	0
 3438 0338 00       		.byte	0
 3439 0339 00       		.byte	0
 3440              		.section	.debug_loc,"",%progbits
 3441              	.Ldebug_loc0:
 3442              	.LVUS30:
 3443 0000 00       		.uleb128 0
 3444 0001 00       		.uleb128 .LVU344
 3445 0002 00       		.uleb128 .LVU344
 3446 0003 00       		.uleb128 0
 3447              	.LLST30:
 3448 0004 00000000 		.4byte	.LVL47
 3449 0008 28000000 		.4byte	.LVL49
 3450 000c 0100     		.2byte	0x1
 3451 000e 50       		.byte	0x50
 3452 000f 28000000 		.4byte	.LVL49
 3453 0013 50000000 		.4byte	.LFE18
 3454 0017 0100     		.2byte	0x1
 3455 0019 54       		.byte	0x54
 3456 001a 00000000 		.4byte	0
 3457 001e 00000000 		.4byte	0
 3458              	.LVUS31:
 3459 0022 00       		.uleb128 .LVU351
 3460 0023 00       		.uleb128 0
 3461              	.LLST31:
 3462 0024 38000000 		.4byte	.LVL52
 3463 0028 50000000 		.4byte	.LFE18
 3464 002c 0100     		.2byte	0x1
 3465 002e 55       		.byte	0x55
 3466 002f 00000000 		.4byte	0
 3467 0033 00000000 		.4byte	0
 3468              	.LVUS32:
 3469 0037 02       		.uleb128 .LVU342
 3470 0038 00       		.uleb128 .LVU344
 3471 0039 00       		.uleb128 .LVU344
 3472 003a 00       		.uleb128 .LVU349
 3473              	.LLST32:
 3474 003b 24000000 		.4byte	.LVL48
 3475 003f 28000000 		.4byte	.LVL49
 3476 0043 0300     		.2byte	0x3
 3477 0045 70       		.byte	0x70
ARM GAS  /var/folders/l5/0x54b2c10074c8bt31ycjvl80000gp/T//ccYeSm8G.s 			page 62


 3478 0046 28       		.sleb128 40
 3479 0047 9F       		.byte	0x9f
 3480 0048 28000000 		.4byte	.LVL49
 3481 004c 34000000 		.4byte	.LVL51
 3482 0050 0300     		.2byte	0x3
 3483 0052 74       		.byte	0x74
 3484 0053 28       		.sleb128 40
 3485 0054 9F       		.byte	0x9f
 3486 0055 00000000 		.4byte	0
 3487 0059 00000000 		.4byte	0
 3488              	.LVUS25:
 3489 005d 00       		.uleb128 0
 3490 005e 00       		.uleb128 .LVU293
 3491 005f 00       		.uleb128 .LVU293
 3492 0060 00       		.uleb128 0
 3493              	.LLST25:
 3494 0061 00000000 		.4byte	.LVL37
 3495 0065 20000000 		.4byte	.LVL39
 3496 0069 0100     		.2byte	0x1
 3497 006b 50       		.byte	0x50
 3498 006c 20000000 		.4byte	.LVL39
 3499 0070 64000000 		.4byte	.LFE17
 3500 0074 0400     		.2byte	0x4
 3501 0076 F3       		.byte	0xf3
 3502 0077 01       		.uleb128 0x1
 3503 0078 50       		.byte	0x50
 3504 0079 9F       		.byte	0x9f
 3505 007a 00000000 		.4byte	0
 3506 007e 00000000 		.4byte	0
 3507              	.LVUS26:
 3508 0082 00       		.uleb128 .LVU286
 3509 0083 00       		.uleb128 .LVU311
 3510              	.LLST26:
 3511 0084 0C000000 		.4byte	.LVL38
 3512 0088 54000000 		.4byte	.LVL43
 3513 008c 0100     		.2byte	0x1
 3514 008e 54       		.byte	0x54
 3515 008f 00000000 		.4byte	0
 3516 0093 00000000 		.4byte	0
 3517              	.LVUS27:
 3518 0097 02       		.uleb128 .LVU295
 3519 0098 00       		.uleb128 .LVU305
 3520              	.LLST27:
 3521 0099 20000000 		.4byte	.LVL39
 3522 009d 3C000000 		.4byte	.LVL42
 3523 00a1 0100     		.2byte	0x1
 3524 00a3 55       		.byte	0x55
 3525 00a4 00000000 		.4byte	0
 3526 00a8 00000000 		.4byte	0
 3527              	.LVUS28:
 3528 00ac 03       		.uleb128 .LVU296
 3529 00ad 01       		.uleb128 .LVU301
 3530              	.LLST28:
 3531 00ae 20000000 		.4byte	.LVL39
 3532 00b2 2C000000 		.4byte	.LVL40
 3533 00b6 0100     		.2byte	0x1
 3534 00b8 53       		.byte	0x53
ARM GAS  /var/folders/l5/0x54b2c10074c8bt31ycjvl80000gp/T//ccYeSm8G.s 			page 63


 3535 00b9 00000000 		.4byte	0
 3536 00bd 00000000 		.4byte	0
 3537              	.LVUS29:
 3538 00c1 00       		.uleb128 0
 3539 00c2 00       		.uleb128 .LVU320
 3540 00c3 00       		.uleb128 .LVU320
 3541 00c4 00       		.uleb128 0
 3542              	.LLST29:
 3543 00c5 00000000 		.4byte	.LVL45
 3544 00c9 07000000 		.4byte	.LVL46-1
 3545 00cd 0100     		.2byte	0x1
 3546 00cf 50       		.byte	0x50
 3547 00d0 07000000 		.4byte	.LVL46-1
 3548 00d4 08000000 		.4byte	.LFE16
 3549 00d8 0400     		.2byte	0x4
 3550 00da F3       		.byte	0xf3
 3551 00db 01       		.uleb128 0x1
 3552 00dc 50       		.byte	0x50
 3553 00dd 9F       		.byte	0x9f
 3554 00de 00000000 		.4byte	0
 3555 00e2 00000000 		.4byte	0
 3556              	.LVUS24:
 3557 00e6 00       		.uleb128 0
 3558 00e7 00       		.uleb128 .LVU250
 3559 00e8 00       		.uleb128 .LVU250
 3560 00e9 00       		.uleb128 .LVU251
 3561 00ea 00       		.uleb128 .LVU251
 3562 00eb 00       		.uleb128 .LVU259
 3563              	.LLST24:
 3564 00ec 00000000 		.4byte	.LVL32
 3565 00f0 0C000000 		.4byte	.LVL33
 3566 00f4 0100     		.2byte	0x1
 3567 00f6 50       		.byte	0x50
 3568 00f7 0C000000 		.4byte	.LVL33
 3569 00fb 10000000 		.4byte	.LVL34
 3570 00ff 0600     		.2byte	0x6
 3571 0101 70       		.byte	0x70
 3572 0102 00       		.sleb128 0
 3573 0103 71       		.byte	0x71
 3574 0104 00       		.sleb128 0
 3575 0105 1C       		.byte	0x1c
 3576 0106 9F       		.byte	0x9f
 3577 0107 10000000 		.4byte	.LVL34
 3578 010b 27000000 		.4byte	.LVL35-1
 3579 010f 0100     		.2byte	0x1
 3580 0111 51       		.byte	0x51
 3581 0112 00000000 		.4byte	0
 3582 0116 00000000 		.4byte	0
 3583              	.LVUS23:
 3584 011a 00       		.uleb128 0
 3585 011b 00       		.uleb128 .LVU239
 3586 011c 00       		.uleb128 .LVU239
 3587 011d 00       		.uleb128 .LVU240
 3588 011e 00       		.uleb128 .LVU240
 3589 011f 00       		.uleb128 0
 3590              	.LLST23:
 3591 0120 00000000 		.4byte	.LVL29
ARM GAS  /var/folders/l5/0x54b2c10074c8bt31ycjvl80000gp/T//ccYeSm8G.s 			page 64


 3592 0124 10000000 		.4byte	.LVL30
 3593 0128 0100     		.2byte	0x1
 3594 012a 50       		.byte	0x50
 3595 012b 10000000 		.4byte	.LVL30
 3596 012f 13000000 		.4byte	.LVL31-1
 3597 0133 0100     		.2byte	0x1
 3598 0135 51       		.byte	0x51
 3599 0136 13000000 		.4byte	.LVL31-1
 3600 013a 1C000000 		.4byte	.LFE13
 3601 013e 0400     		.2byte	0x4
 3602 0140 F3       		.byte	0xf3
 3603 0141 01       		.uleb128 0x1
 3604 0142 50       		.byte	0x50
 3605 0143 9F       		.byte	0x9f
 3606 0144 00000000 		.4byte	0
 3607 0148 00000000 		.4byte	0
 3608              	.LVUS22:
 3609 014c 00       		.uleb128 0
 3610 014d 00       		.uleb128 .LVU214
 3611 014e 00       		.uleb128 .LVU214
 3612 014f 00       		.uleb128 0
 3613              	.LLST22:
 3614 0150 00000000 		.4byte	.LVL26
 3615 0154 13000000 		.4byte	.LVL27-1
 3616 0158 0100     		.2byte	0x1
 3617 015a 50       		.byte	0x50
 3618 015b 13000000 		.4byte	.LVL27-1
 3619 015f 20000000 		.4byte	.LFE11
 3620 0163 0100     		.2byte	0x1
 3621 0165 54       		.byte	0x54
 3622 0166 00000000 		.4byte	0
 3623 016a 00000000 		.4byte	0
 3624              	.LVUS20:
 3625 016e 00       		.uleb128 0
 3626 016f 00       		.uleb128 .LVU190
 3627 0170 00       		.uleb128 .LVU190
 3628 0171 00       		.uleb128 .LVU199
 3629 0172 00       		.uleb128 .LVU199
 3630 0173 00       		.uleb128 0
 3631              	.LLST20:
 3632 0174 00000000 		.4byte	.LVL22
 3633 0178 18000000 		.4byte	.LVL23
 3634 017c 0100     		.2byte	0x1
 3635 017e 50       		.byte	0x50
 3636 017f 18000000 		.4byte	.LVL23
 3637 0183 3F000000 		.4byte	.LVL25-1
 3638 0187 0100     		.2byte	0x1
 3639 0189 51       		.byte	0x51
 3640 018a 3F000000 		.4byte	.LVL25-1
 3641 018e 50000000 		.4byte	.LFE10
 3642 0192 0400     		.2byte	0x4
 3643 0194 F3       		.byte	0xf3
 3644 0195 01       		.uleb128 0x1
 3645 0196 50       		.byte	0x50
 3646 0197 9F       		.byte	0x9f
 3647 0198 00000000 		.4byte	0
 3648 019c 00000000 		.4byte	0
ARM GAS  /var/folders/l5/0x54b2c10074c8bt31ycjvl80000gp/T//ccYeSm8G.s 			page 65


 3649              	.LVUS21:
 3650 01a0 00       		.uleb128 .LVU191
 3651 01a1 00       		.uleb128 0
 3652              	.LLST21:
 3653 01a2 1C000000 		.4byte	.LVL24
 3654 01a6 50000000 		.4byte	.LFE10
 3655 01aa 0100     		.2byte	0x1
 3656 01ac 54       		.byte	0x54
 3657 01ad 00000000 		.4byte	0
 3658 01b1 00000000 		.4byte	0
 3659              	.LVUS7:
 3660 01b5 00       		.uleb128 0
 3661 01b6 00       		.uleb128 .LVU172
 3662 01b7 00       		.uleb128 .LVU172
 3663 01b8 00       		.uleb128 0
 3664              	.LLST7:
 3665 01b9 00000000 		.4byte	.LVL11
 3666 01bd 93000000 		.4byte	.LVL21-1
 3667 01c1 0100     		.2byte	0x1
 3668 01c3 50       		.byte	0x50
 3669 01c4 93000000 		.4byte	.LVL21-1
 3670 01c8 A8000000 		.4byte	.LFE9
 3671 01cc 0100     		.2byte	0x1
 3672 01ce 54       		.byte	0x54
 3673 01cf 00000000 		.4byte	0
 3674 01d3 00000000 		.4byte	0
 3675              	.LVUS8:
 3676 01d7 00       		.uleb128 0
 3677 01d8 00       		.uleb128 .LVU123
 3678 01d9 00       		.uleb128 .LVU123
 3679 01da 00       		.uleb128 .LVU129
 3680 01db 00       		.uleb128 .LVU129
 3681 01dc 00       		.uleb128 0
 3682              	.LLST8:
 3683 01dd 00000000 		.4byte	.LVL11
 3684 01e1 24000000 		.4byte	.LVL13
 3685 01e5 0100     		.2byte	0x1
 3686 01e7 51       		.byte	0x51
 3687 01e8 24000000 		.4byte	.LVL13
 3688 01ec 38000000 		.4byte	.LVL15
 3689 01f0 0300     		.2byte	0x3
 3690 01f2 71       		.byte	0x71
 3691 01f3 24       		.sleb128 36
 3692 01f4 9F       		.byte	0x9f
 3693 01f5 38000000 		.4byte	.LVL15
 3694 01f9 A8000000 		.4byte	.LFE9
 3695 01fd 0400     		.2byte	0x4
 3696 01ff F3       		.byte	0xf3
 3697 0200 01       		.uleb128 0x1
 3698 0201 51       		.byte	0x51
 3699 0202 9F       		.byte	0x9f
 3700 0203 00000000 		.4byte	0
 3701 0207 00000000 		.4byte	0
 3702              	.LVUS9:
 3703 020b 00       		.uleb128 0
 3704 020c 00       		.uleb128 .LVU143
 3705 020d 00       		.uleb128 .LVU143
ARM GAS  /var/folders/l5/0x54b2c10074c8bt31ycjvl80000gp/T//ccYeSm8G.s 			page 66


 3706 020e 00       		.uleb128 .LVU172
 3707 020f 00       		.uleb128 .LVU172
 3708 0210 00       		.uleb128 0
 3709              	.LLST9:
 3710 0211 00000000 		.4byte	.LVL11
 3711 0215 54000000 		.4byte	.LVL19
 3712 0219 0100     		.2byte	0x1
 3713 021b 52       		.byte	0x52
 3714 021c 54000000 		.4byte	.LVL19
 3715 0220 93000000 		.4byte	.LVL21-1
 3716 0224 0200     		.2byte	0x2
 3717 0226 70       		.byte	0x70
 3718 0227 08       		.sleb128 8
 3719 0228 93000000 		.4byte	.LVL21-1
 3720 022c A8000000 		.4byte	.LFE9
 3721 0230 0400     		.2byte	0x4
 3722 0232 F3       		.byte	0xf3
 3723 0233 01       		.uleb128 0x1
 3724 0234 52       		.byte	0x52
 3725 0235 9F       		.byte	0x9f
 3726 0236 00000000 		.4byte	0
 3727 023a 00000000 		.4byte	0
 3728              	.LVUS10:
 3729 023e 00       		.uleb128 0
 3730 023f 00       		.uleb128 .LVU127
 3731 0240 00       		.uleb128 .LVU127
 3732 0241 00       		.uleb128 .LVU136
 3733 0242 00       		.uleb128 .LVU136
 3734 0243 00       		.uleb128 .LVU141
 3735 0244 00       		.uleb128 .LVU141
 3736 0245 00       		.uleb128 0
 3737              	.LLST10:
 3738 0246 00000000 		.4byte	.LVL11
 3739 024a 34000000 		.4byte	.LVL14
 3740 024e 0100     		.2byte	0x1
 3741 0250 53       		.byte	0x53
 3742 0251 34000000 		.4byte	.LVL14
 3743 0255 44000000 		.4byte	.LVL17
 3744 0259 0200     		.2byte	0x2
 3745 025b 7E       		.byte	0x7e
 3746 025c 00       		.sleb128 0
 3747 025d 44000000 		.4byte	.LVL17
 3748 0261 50000000 		.4byte	.LVL18
 3749 0265 0300     		.2byte	0x3
 3750 0267 70       		.byte	0x70
 3751 0268 0C       		.sleb128 12
 3752 0269 06       		.byte	0x6
 3753 026a 50000000 		.4byte	.LVL18
 3754 026e A8000000 		.4byte	.LFE9
 3755 0272 0400     		.2byte	0x4
 3756 0274 F3       		.byte	0xf3
 3757 0275 01       		.uleb128 0x1
 3758 0276 53       		.byte	0x53
 3759 0277 9F       		.byte	0x9f
 3760 0278 00000000 		.4byte	0
 3761 027c 00000000 		.4byte	0
 3762              	.LVUS11:
ARM GAS  /var/folders/l5/0x54b2c10074c8bt31ycjvl80000gp/T//ccYeSm8G.s 			page 67


 3763 0280 04       		.uleb128 .LVU170
 3764 0281 00       		.uleb128 .LVU172
 3765 0282 00       		.uleb128 .LVU172
 3766 0283 00       		.uleb128 0
 3767              	.LLST11:
 3768 0284 90000000 		.4byte	.LVL20
 3769 0288 93000000 		.4byte	.LVL21-1
 3770 028c 0100     		.2byte	0x1
 3771 028e 50       		.byte	0x50
 3772 028f 93000000 		.4byte	.LVL21-1
 3773 0293 A8000000 		.4byte	.LFE9
 3774 0297 0100     		.2byte	0x1
 3775 0299 54       		.byte	0x54
 3776 029a 00000000 		.4byte	0
 3777 029e 00000000 		.4byte	0
 3778              	.LVUS12:
 3779 02a2 03       		.uleb128 .LVU111
 3780 02a3 04       		.uleb128 .LVU170
 3781              	.LLST12:
 3782 02a4 10000000 		.4byte	.LVL12
 3783 02a8 90000000 		.4byte	.LVL20
 3784 02ac 0100     		.2byte	0x1
 3785 02ae 58       		.byte	0x58
 3786 02af 00000000 		.4byte	0
 3787 02b3 00000000 		.4byte	0
 3788              	.LVUS13:
 3789 02b7 03       		.uleb128 .LVU111
 3790 02b8 00       		.uleb128 .LVU127
 3791 02b9 00       		.uleb128 .LVU127
 3792 02ba 00       		.uleb128 .LVU136
 3793 02bb 00       		.uleb128 .LVU136
 3794 02bc 00       		.uleb128 .LVU141
 3795 02bd 00       		.uleb128 .LVU141
 3796 02be 04       		.uleb128 .LVU170
 3797              	.LLST13:
 3798 02bf 10000000 		.4byte	.LVL12
 3799 02c3 34000000 		.4byte	.LVL14
 3800 02c7 0100     		.2byte	0x1
 3801 02c9 53       		.byte	0x53
 3802 02ca 34000000 		.4byte	.LVL14
 3803 02ce 44000000 		.4byte	.LVL17
 3804 02d2 0200     		.2byte	0x2
 3805 02d4 7E       		.byte	0x7e
 3806 02d5 00       		.sleb128 0
 3807 02d6 44000000 		.4byte	.LVL17
 3808 02da 50000000 		.4byte	.LVL18
 3809 02de 0300     		.2byte	0x3
 3810 02e0 70       		.byte	0x70
 3811 02e1 0C       		.sleb128 12
 3812 02e2 06       		.byte	0x6
 3813 02e3 50000000 		.4byte	.LVL18
 3814 02e7 90000000 		.4byte	.LVL20
 3815 02eb 0400     		.2byte	0x4
 3816 02ed F3       		.byte	0xf3
 3817 02ee 01       		.uleb128 0x1
 3818 02ef 53       		.byte	0x53
 3819 02f0 9F       		.byte	0x9f
ARM GAS  /var/folders/l5/0x54b2c10074c8bt31ycjvl80000gp/T//ccYeSm8G.s 			page 68


 3820 02f1 00000000 		.4byte	0
 3821 02f5 00000000 		.4byte	0
 3822              	.LVUS14:
 3823 02f9 03       		.uleb128 .LVU111
 3824 02fa 00       		.uleb128 .LVU143
 3825 02fb 00       		.uleb128 .LVU143
 3826 02fc 04       		.uleb128 .LVU170
 3827              	.LLST14:
 3828 02fd 10000000 		.4byte	.LVL12
 3829 0301 54000000 		.4byte	.LVL19
 3830 0305 0100     		.2byte	0x1
 3831 0307 52       		.byte	0x52
 3832 0308 54000000 		.4byte	.LVL19
 3833 030c 90000000 		.4byte	.LVL20
 3834 0310 0200     		.2byte	0x2
 3835 0312 70       		.byte	0x70
 3836 0313 08       		.sleb128 8
 3837 0314 00000000 		.4byte	0
 3838 0318 00000000 		.4byte	0
 3839              	.LVUS15:
 3840 031c 03       		.uleb128 .LVU111
 3841 031d 00       		.uleb128 .LVU123
 3842 031e 00       		.uleb128 .LVU123
 3843 031f 00       		.uleb128 .LVU129
 3844 0320 00       		.uleb128 .LVU129
 3845 0321 04       		.uleb128 .LVU170
 3846              	.LLST15:
 3847 0322 10000000 		.4byte	.LVL12
 3848 0326 24000000 		.4byte	.LVL13
 3849 032a 0100     		.2byte	0x1
 3850 032c 51       		.byte	0x51
 3851 032d 24000000 		.4byte	.LVL13
 3852 0331 38000000 		.4byte	.LVL15
 3853 0335 0300     		.2byte	0x3
 3854 0337 71       		.byte	0x71
 3855 0338 24       		.sleb128 36
 3856 0339 9F       		.byte	0x9f
 3857 033a 38000000 		.4byte	.LVL15
 3858 033e 90000000 		.4byte	.LVL20
 3859 0342 0400     		.2byte	0x4
 3860 0344 F3       		.byte	0xf3
 3861 0345 01       		.uleb128 0x1
 3862 0346 51       		.byte	0x51
 3863 0347 9F       		.byte	0x9f
 3864 0348 00000000 		.4byte	0
 3865 034c 00000000 		.4byte	0
 3866              	.LVUS16:
 3867 0350 03       		.uleb128 .LVU111
 3868 0351 04       		.uleb128 .LVU170
 3869              	.LLST16:
 3870 0352 10000000 		.4byte	.LVL12
 3871 0356 90000000 		.4byte	.LVL20
 3872 035a 0100     		.2byte	0x1
 3873 035c 50       		.byte	0x50
 3874 035d 00000000 		.4byte	0
 3875 0361 00000000 		.4byte	0
 3876              	.LVUS17:
ARM GAS  /var/folders/l5/0x54b2c10074c8bt31ycjvl80000gp/T//ccYeSm8G.s 			page 69


 3877 0365 05       		.uleb128 .LVU113
 3878 0366 00       		.uleb128 .LVU172
 3879 0367 00       		.uleb128 .LVU172
 3880 0368 00       		.uleb128 0
 3881              	.LLST17:
 3882 0369 10000000 		.4byte	.LVL12
 3883 036d 93000000 		.4byte	.LVL21-1
 3884 0371 0100     		.2byte	0x1
 3885 0373 50       		.byte	0x50
 3886 0374 93000000 		.4byte	.LVL21-1
 3887 0378 A8000000 		.4byte	.LFE9
 3888 037c 0100     		.2byte	0x1
 3889 037e 54       		.byte	0x54
 3890 037f 00000000 		.4byte	0
 3891 0383 00000000 		.4byte	0
 3892              	.LVUS18:
 3893 0387 02       		.uleb128 .LVU133
 3894 0388 00       		.uleb128 .LVU143
 3895 0389 00       		.uleb128 .LVU143
 3896 038a 04       		.uleb128 .LVU170
 3897              	.LLST18:
 3898 038b 40000000 		.4byte	.LVL16
 3899 038f 54000000 		.4byte	.LVL19
 3900 0393 0100     		.2byte	0x1
 3901 0395 52       		.byte	0x52
 3902 0396 54000000 		.4byte	.LVL19
 3903 039a 90000000 		.4byte	.LVL20
 3904 039e 0200     		.2byte	0x2
 3905 03a0 70       		.byte	0x70
 3906 03a1 08       		.sleb128 8
 3907 03a2 00000000 		.4byte	0
 3908 03a6 00000000 		.4byte	0
 3909              	.LVUS19:
 3910 03aa 02       		.uleb128 .LVU133
 3911 03ab 04       		.uleb128 .LVU170
 3912              	.LLST19:
 3913 03ac 40000000 		.4byte	.LVL16
 3914 03b0 90000000 		.4byte	.LVL20
 3915 03b4 0100     		.2byte	0x1
 3916 03b6 50       		.byte	0x50
 3917 03b7 00000000 		.4byte	0
 3918 03bb 00000000 		.4byte	0
 3919              	.LVUS0:
 3920 03bf 00       		.uleb128 0
 3921 03c0 00       		.uleb128 .LVU15
 3922 03c1 00       		.uleb128 .LVU15
 3923 03c2 00       		.uleb128 0
 3924              	.LLST0:
 3925 03c3 00000000 		.4byte	.LVL0
 3926 03c7 30000000 		.4byte	.LVL1
 3927 03cb 0100     		.2byte	0x1
 3928 03cd 51       		.byte	0x51
 3929 03ce 30000000 		.4byte	.LVL1
 3930 03d2 6C000000 		.4byte	.LFE7
 3931 03d6 0200     		.2byte	0x2
 3932 03d8 70       		.byte	0x70
 3933 03d9 08       		.sleb128 8
ARM GAS  /var/folders/l5/0x54b2c10074c8bt31ycjvl80000gp/T//ccYeSm8G.s 			page 70


 3934 03da 00000000 		.4byte	0
 3935 03de 00000000 		.4byte	0
 3936              	.LVUS1:
 3937 03e2 00       		.uleb128 0
 3938 03e3 00       		.uleb128 .LVU55
 3939 03e4 00       		.uleb128 .LVU55
 3940 03e5 00       		.uleb128 .LVU59
 3941 03e6 00       		.uleb128 .LVU59
 3942 03e7 00       		.uleb128 0
 3943              	.LLST1:
 3944 03e8 00000000 		.4byte	.LVL2
 3945 03ec 18000000 		.4byte	.LVL3
 3946 03f0 0100     		.2byte	0x1
 3947 03f2 51       		.byte	0x51
 3948 03f3 18000000 		.4byte	.LVL3
 3949 03f7 28000000 		.4byte	.LVL4
 3950 03fb 0300     		.2byte	0x3
 3951 03fd 71       		.byte	0x71
 3952 03fe 24       		.sleb128 36
 3953 03ff 9F       		.byte	0x9f
 3954 0400 28000000 		.4byte	.LVL4
 3955 0404 90000000 		.4byte	.LFE8
 3956 0408 0400     		.2byte	0x4
 3957 040a F3       		.byte	0xf3
 3958 040b 01       		.uleb128 0x1
 3959 040c 51       		.byte	0x51
 3960 040d 9F       		.byte	0x9f
 3961 040e 00000000 		.4byte	0
 3962 0412 00000000 		.4byte	0
 3963              	.LVUS2:
 3964 0416 00       		.uleb128 0
 3965 0417 00       		.uleb128 .LVU74
 3966 0418 00       		.uleb128 .LVU74
 3967 0419 00       		.uleb128 0
 3968              	.LLST2:
 3969 041a 00000000 		.4byte	.LVL2
 3970 041e 4C000000 		.4byte	.LVL8
 3971 0422 0100     		.2byte	0x1
 3972 0424 52       		.byte	0x52
 3973 0425 4C000000 		.4byte	.LVL8
 3974 0429 90000000 		.4byte	.LFE8
 3975 042d 0200     		.2byte	0x2
 3976 042f 70       		.byte	0x70
 3977 0430 08       		.sleb128 8
 3978 0431 00000000 		.4byte	0
 3979 0435 00000000 		.4byte	0
 3980              	.LVUS3:
 3981 0439 00       		.uleb128 0
 3982 043a 00       		.uleb128 .LVU60
 3983 043b 00       		.uleb128 .LVU60
 3984 043c 00       		.uleb128 .LVU73
 3985 043d 00       		.uleb128 .LVU73
 3986 043e 00       		.uleb128 .LVU76
 3987 043f 00       		.uleb128 .LVU76
 3988 0440 00       		.uleb128 0
 3989              	.LLST3:
 3990 0441 00000000 		.4byte	.LVL2
ARM GAS  /var/folders/l5/0x54b2c10074c8bt31ycjvl80000gp/T//ccYeSm8G.s 			page 71


 3991 0445 2C000000 		.4byte	.LVL5
 3992 0449 0100     		.2byte	0x1
 3993 044b 53       		.byte	0x53
 3994 044c 2C000000 		.4byte	.LVL5
 3995 0450 48000000 		.4byte	.LVL7
 3996 0454 0200     		.2byte	0x2
 3997 0456 74       		.byte	0x74
 3998 0457 00       		.sleb128 0
 3999 0458 48000000 		.4byte	.LVL7
 4000 045c 58000000 		.4byte	.LVL9
 4001 0460 0300     		.2byte	0x3
 4002 0462 70       		.byte	0x70
 4003 0463 0C       		.sleb128 12
 4004 0464 06       		.byte	0x6
 4005 0465 58000000 		.4byte	.LVL9
 4006 0469 90000000 		.4byte	.LFE8
 4007 046d 0400     		.2byte	0x4
 4008 046f F3       		.byte	0xf3
 4009 0470 01       		.uleb128 0x1
 4010 0471 53       		.byte	0x53
 4011 0472 9F       		.byte	0x9f
 4012 0473 00000000 		.4byte	0
 4013 0477 00000000 		.4byte	0
 4014              	.LVUS4:
 4015 047b 02       		.uleb128 .LVU44
 4016 047c 00       		.uleb128 0
 4017              	.LLST4:
 4018 047d 00000000 		.4byte	.LVL2
 4019 0481 90000000 		.4byte	.LFE8
 4020 0485 0100     		.2byte	0x1
 4021 0487 50       		.byte	0x50
 4022 0488 00000000 		.4byte	0
 4023 048c 00000000 		.4byte	0
 4024              	.LVUS5:
 4025 0490 02       		.uleb128 .LVU65
 4026 0491 00       		.uleb128 .LVU74
 4027 0492 00       		.uleb128 .LVU74
 4028 0493 04       		.uleb128 .LVU100
 4029              	.LLST5:
 4030 0494 38000000 		.4byte	.LVL6
 4031 0498 4C000000 		.4byte	.LVL8
 4032 049c 0100     		.2byte	0x1
 4033 049e 52       		.byte	0x52
 4034 049f 4C000000 		.4byte	.LVL8
 4035 04a3 84000000 		.4byte	.LVL10
 4036 04a7 0200     		.2byte	0x2
 4037 04a9 70       		.byte	0x70
 4038 04aa 08       		.sleb128 8
 4039 04ab 00000000 		.4byte	0
 4040 04af 00000000 		.4byte	0
 4041              	.LVUS6:
 4042 04b3 02       		.uleb128 .LVU65
 4043 04b4 04       		.uleb128 .LVU100
 4044              	.LLST6:
 4045 04b5 38000000 		.4byte	.LVL6
 4046 04b9 84000000 		.4byte	.LVL10
 4047 04bd 0100     		.2byte	0x1
ARM GAS  /var/folders/l5/0x54b2c10074c8bt31ycjvl80000gp/T//ccYeSm8G.s 			page 72


 4048 04bf 50       		.byte	0x50
 4049 04c0 00000000 		.4byte	0
 4050 04c4 00000000 		.4byte	0
 4051              		.section	.debug_aranges,"",%progbits
 4052 0000 74000000 		.4byte	0x74
 4053 0004 0200     		.2byte	0x2
 4054 0006 00000000 		.4byte	.Ldebug_info0
 4055 000a 04       		.byte	0x4
 4056 000b 00       		.byte	0
 4057 000c 0000     		.2byte	0
 4058 000e 0000     		.2byte	0
 4059 0010 00000000 		.4byte	.LFB7
 4060 0014 6C000000 		.4byte	.LFE7-.LFB7
 4061 0018 00000000 		.4byte	.LFB8
 4062 001c 90000000 		.4byte	.LFE8-.LFB8
 4063 0020 00000000 		.4byte	.LFB9
 4064 0024 A8000000 		.4byte	.LFE9-.LFB9
 4065 0028 00000000 		.4byte	.LFB10
 4066 002c 50000000 		.4byte	.LFE10-.LFB10
 4067 0030 00000000 		.4byte	.LFB11
 4068 0034 20000000 		.4byte	.LFE11-.LFB11
 4069 0038 00000000 		.4byte	.LFB12
 4070 003c 18000000 		.4byte	.LFE12-.LFB12
 4071 0040 00000000 		.4byte	.LFB13
 4072 0044 1C000000 		.4byte	.LFE13-.LFB13
 4073 0048 00000000 		.4byte	.LFB14
 4074 004c 34000000 		.4byte	.LFE14-.LFB14
 4075 0050 00000000 		.4byte	.LFB15
 4076 0054 3C000000 		.4byte	.LFE15-.LFB15
 4077 0058 00000000 		.4byte	.LFB17
 4078 005c 64000000 		.4byte	.LFE17-.LFB17
 4079 0060 00000000 		.4byte	.LFB16
 4080 0064 08000000 		.4byte	.LFE16-.LFB16
 4081 0068 00000000 		.4byte	.LFB18
 4082 006c 50000000 		.4byte	.LFE18-.LFB18
 4083 0070 00000000 		.4byte	0
 4084 0074 00000000 		.4byte	0
 4085              		.section	.debug_ranges,"",%progbits
 4086              	.Ldebug_ranges0:
 4087 0000 04000000 		.4byte	.LBB12
 4088 0004 14000000 		.4byte	.LBE12
 4089 0008 28000000 		.4byte	.LBB16
 4090 000c 2C000000 		.4byte	.LBE16
 4091 0010 38000000 		.4byte	.LBB17
 4092 0014 84000000 		.4byte	.LBE17
 4093 0018 00000000 		.4byte	0
 4094 001c 00000000 		.4byte	0
 4095 0020 10000000 		.4byte	.LBB18
 4096 0024 7C000000 		.4byte	.LBE18
 4097 0028 80000000 		.4byte	.LBB29
 4098 002c 90000000 		.4byte	.LBE29
 4099 0030 00000000 		.4byte	0
 4100 0034 00000000 		.4byte	0
 4101 0038 10000000 		.4byte	.LBB20
 4102 003c 20000000 		.4byte	.LBE20
 4103 0040 30000000 		.4byte	.LBB25
 4104 0044 34000000 		.4byte	.LBE25
ARM GAS  /var/folders/l5/0x54b2c10074c8bt31ycjvl80000gp/T//ccYeSm8G.s 			page 73


 4105 0048 40000000 		.4byte	.LBB26
 4106 004c 7C000000 		.4byte	.LBE26
 4107 0050 80000000 		.4byte	.LBB27
 4108 0054 90000000 		.4byte	.LBE27
 4109 0058 00000000 		.4byte	0
 4110 005c 00000000 		.4byte	0
 4111 0060 20000000 		.4byte	.LBB30
 4112 0064 24000000 		.4byte	.LBE30
 4113 0068 28000000 		.4byte	.LBB33
 4114 006c 2C000000 		.4byte	.LBE33
 4115 0070 00000000 		.4byte	0
 4116 0074 00000000 		.4byte	0
 4117 0078 1C000000 		.4byte	.LBB34
 4118 007c 20000000 		.4byte	.LBE34
 4119 0080 24000000 		.4byte	.LBB38
 4120 0084 24000000 		.4byte	.LBE38
 4121 0088 28000000 		.4byte	.LBB39
 4122 008c 30000000 		.4byte	.LBE39
 4123 0090 00000000 		.4byte	0
 4124 0094 00000000 		.4byte	0
 4125 0098 00000000 		.4byte	.LFB7
 4126 009c 6C000000 		.4byte	.LFE7
 4127 00a0 00000000 		.4byte	.LFB8
 4128 00a4 90000000 		.4byte	.LFE8
 4129 00a8 00000000 		.4byte	.LFB9
 4130 00ac A8000000 		.4byte	.LFE9
 4131 00b0 00000000 		.4byte	.LFB10
 4132 00b4 50000000 		.4byte	.LFE10
 4133 00b8 00000000 		.4byte	.LFB11
 4134 00bc 20000000 		.4byte	.LFE11
 4135 00c0 00000000 		.4byte	.LFB12
 4136 00c4 18000000 		.4byte	.LFE12
 4137 00c8 00000000 		.4byte	.LFB13
 4138 00cc 1C000000 		.4byte	.LFE13
 4139 00d0 00000000 		.4byte	.LFB14
 4140 00d4 34000000 		.4byte	.LFE14
 4141 00d8 00000000 		.4byte	.LFB15
 4142 00dc 3C000000 		.4byte	.LFE15
 4143 00e0 00000000 		.4byte	.LFB17
 4144 00e4 64000000 		.4byte	.LFE17
 4145 00e8 00000000 		.4byte	.LFB16
 4146 00ec 08000000 		.4byte	.LFE16
 4147 00f0 00000000 		.4byte	.LFB18
 4148 00f4 50000000 		.4byte	.LFE18
 4149 00f8 00000000 		.4byte	0
 4150 00fc 00000000 		.4byte	0
 4151              		.section	.debug_line,"",%progbits
 4152              	.Ldebug_line0:
 4153 0000 6C070000 		.section	.debug_str,"MS",%progbits,1
 4153      03000602 
 4153      00000201 
 4153      FB0E0D00 
 4153      01010101 
 4154              	.LASF78:
 4155 0000 7466756E 		.ascii	"tfunc_t\000"
 4155      635F7400 
 4156              	.LASF89:
ARM GAS  /var/folders/l5/0x54b2c10074c8bt31ycjvl80000gp/T//ccYeSm8G.s 			page 74


 4157 0008 63665F6F 		.ascii	"cf_off_older\000"
 4157      66665F6F 
 4157      6C646572 
 4157      00
 4158              	.LASF41:
 4159 0015 705F6D73 		.ascii	"p_msg\000"
 4159      6700
 4160              	.LASF2:
 4161 001b 73697A65 		.ascii	"size_t\000"
 4161      5F7400
 4162              	.LASF114:
 4163 0022 7072696F 		.ascii	"prio\000"
 4163      00
 4164              	.LASF73:
 4165 0027 7264796D 		.ascii	"rdymsg\000"
 4165      736700
 4166              	.LASF3:
 4167 002e 5F5F7569 		.ascii	"__uint8_t\000"
 4167      6E74385F 
 4167      7400
 4168              	.LASF67:
 4169 0038 76746C69 		.ascii	"vtlist\000"
 4169      737400
 4170              	.LASF100:
 4171 003f 63685468 		.ascii	"chThdExitS\000"
 4171      64457869 
 4171      745300
 4172              	.LASF13:
 4173 004a 6C6F6E67 		.ascii	"long long unsigned int\000"
 4173      206C6F6E 
 4173      6720756E 
 4173      7369676E 
 4173      65642069 
 4174              	.LASF85:
 4175 0061 63685F74 		.ascii	"ch_threadsize\000"
 4175      68726561 
 4175      6473697A 
 4175      6500
 4176              	.LASF74:
 4177 006f 65786974 		.ascii	"exitcode\000"
 4177      636F6465 
 4177      00
 4178              	.LASF29:
 4179 0078 705F7072 		.ascii	"p_prio\000"
 4179      696F00
 4180              	.LASF92:
 4181 007f 63665F6F 		.ascii	"cf_off_state\000"
 4181      66665F73 
 4181      74617465 
 4181      00
 4182              	.LASF12:
 4183 008c 6C6F6E67 		.ascii	"long long int\000"
 4183      206C6F6E 
 4183      6720696E 
 4183      7400
 4184              	.LASF1:
 4185 009a 7369676E 		.ascii	"signed char\000"
ARM GAS  /var/folders/l5/0x54b2c10074c8bt31ycjvl80000gp/T//ccYeSm8G.s 			page 75


 4185      65642063 
 4185      68617200 
 4186              	.LASF101:
 4187 00a6 63685468 		.ascii	"chThdExit\000"
 4187      64457869 
 4187      7400
 4188              	.LASF91:
 4189 00b0 63665F6F 		.ascii	"cf_off_stklimit\000"
 4189      66665F73 
 4189      746B6C69 
 4189      6D697400 
 4190              	.LASF93:
 4191 00c0 63665F6F 		.ascii	"cf_off_flags\000"
 4191      66665F66 
 4191      6C616773 
 4191      00
 4192              	.LASF70:
 4193 00cd 6D5F7175 		.ascii	"m_queue\000"
 4193      65756500 
 4194              	.LASF21:
 4195 00d5 74736C69 		.ascii	"tslices_t\000"
 4195      6365735F 
 4195      7400
 4196              	.LASF115:
 4197 00df 63685468 		.ascii	"chThdCreateI\000"
 4197      64437265 
 4197      61746549 
 4197      00
 4198              	.LASF9:
 4199 00ec 6C6F6E67 		.ascii	"long int\000"
 4199      20696E74 
 4199      00
 4200              	.LASF19:
 4201 00f5 74737461 		.ascii	"tstate_t\000"
 4201      74655F74 
 4201      00
 4202              	.LASF15:
 4203 00fe 75696E74 		.ascii	"uint16_t\000"
 4203      31365F74 
 4203      00
 4204              	.LASF97:
 4205 0107 63686465 		.ascii	"chdebug_t\000"
 4205      6275675F 
 4205      7400
 4206              	.LASF31:
 4207 0111 705F6E65 		.ascii	"p_newer\000"
 4207      77657200 
 4208              	.LASF99:
 4209 0119 5F69646C 		.ascii	"_idle_thread_wa\000"
 4209      655F7468 
 4209      72656164 
 4209      5F776100 
 4210              	.LASF127:
 4211 0129 6C697374 		.ascii	"list_remove\000"
 4211      5F72656D 
 4211      6F766500 
 4212              	.LASF123:
ARM GAS  /var/folders/l5/0x54b2c10074c8bt31ycjvl80000gp/T//ccYeSm8G.s 			page 76


 4213 0135 63685363 		.ascii	"chSchRescheduleS\000"
 4213      68526573 
 4213      63686564 
 4213      756C6553 
 4213      00
 4214              	.LASF10:
 4215 0146 5F5F7569 		.ascii	"__uint32_t\000"
 4215      6E743332 
 4215      5F7400
 4216              	.LASF48:
 4217 0151 72656761 		.ascii	"regarm_t\000"
 4217      726D5F74 
 4217      00
 4218              	.LASF54:
 4219 015a 76745F70 		.ascii	"vt_prev\000"
 4219      72657600 
 4220              	.LASF109:
 4221 0162 63685468 		.ascii	"chThdSetPriority\000"
 4221      64536574 
 4221      5072696F 
 4221      72697479 
 4221      00
 4222              	.LASF0:
 4223 0173 756E7369 		.ascii	"unsigned int\000"
 4223      676E6564 
 4223      20696E74 
 4223      00
 4224              	.LASF116:
 4225 0180 5F746872 		.ascii	"_thread_init\000"
 4225      6561645F 
 4225      696E6974 
 4225      00
 4226              	.LASF53:
 4227 018d 76745F6E 		.ascii	"vt_next\000"
 4227      65787400 
 4228              	.LASF11:
 4229 0195 6C6F6E67 		.ascii	"long unsigned int\000"
 4229      20756E73 
 4229      69676E65 
 4229      6420696E 
 4229      7400
 4230              	.LASF98:
 4231 01a7 63685F64 		.ascii	"ch_debug\000"
 4231      65627567 
 4231      00
 4232              	.LASF51:
 4233 01b0 76746675 		.ascii	"vtfunc_t\000"
 4233      6E635F74 
 4233      00
 4234              	.LASF79:
 4235 01b9 63685F69 		.ascii	"ch_identifier\000"
 4235      64656E74 
 4235      69666965 
 4235      7200
 4236              	.LASF50:
 4237 01c7 636F6E74 		.ascii	"context\000"
 4237      65787400 
ARM GAS  /var/folders/l5/0x54b2c10074c8bt31ycjvl80000gp/T//ccYeSm8G.s 			page 77


 4238              	.LASF113:
 4239 01cf 73697A65 		.ascii	"size\000"
 4239      00
 4240              	.LASF7:
 4241 01d4 73686F72 		.ascii	"short unsigned int\000"
 4241      7420756E 
 4241      7369676E 
 4241      65642069 
 4241      6E7400
 4242              	.LASF122:
 4243 01e7 63685363 		.ascii	"chSchWakeupS\000"
 4243      6857616B 
 4243      65757053 
 4243      00
 4244              	.LASF23:
 4245 01f4 6D73675F 		.ascii	"msg_t\000"
 4245      7400
 4246              	.LASF63:
 4247 01fa 725F6E65 		.ascii	"r_newer\000"
 4247      77657200 
 4248              	.LASF124:
 4249 0202 474E5520 		.ascii	"GNU C17 8.3.1 20190703 (release) [gcc-8-branch revi"
 4249      43313720 
 4249      382E332E 
 4249      31203230 
 4249      31393037 
 4250 0235 73696F6E 		.ascii	"sion 273027] -mcpu=arm1176jz-s -mno-thumb-interwork"
 4250      20323733 
 4250      3032375D 
 4250      202D6D63 
 4250      70753D61 
 4251 0268 202D6D66 		.ascii	" -mfloat-abi=soft -marm -march=armv6kz -ggdb -O2 -f"
 4251      6C6F6174 
 4251      2D616269 
 4251      3D736F66 
 4251      74202D6D 
 4252 029b 6F6D6974 		.ascii	"omit-frame-pointer -ffunction-sections -fdata-secti"
 4252      2D667261 
 4252      6D652D70 
 4252      6F696E74 
 4252      6572202D 
 4253 02ce 6F6E7300 		.ascii	"ons\000"
 4254              	.LASF110:
 4255 02d2 6E657770 		.ascii	"newprio\000"
 4255      72696F00 
 4256              	.LASF18:
 4257 02da 746D6F64 		.ascii	"tmode_t\000"
 4257      655F7400 
 4258              	.LASF106:
 4259 02e2 63685468 		.ascii	"chThdTerminate\000"
 4259      64546572 
 4259      6D696E61 
 4259      746500
 4260              	.LASF46:
 4261 02f1 54687265 		.ascii	"ThreadsList\000"
 4261      6164734C 
 4261      69737400 
ARM GAS  /var/folders/l5/0x54b2c10074c8bt31ycjvl80000gp/T//ccYeSm8G.s 			page 78


 4262              	.LASF24:
 4263 02fd 6576656E 		.ascii	"eventmask_t\000"
 4263      746D6173 
 4263      6B5F7400 
 4264              	.LASF69:
 4265 0309 4D757465 		.ascii	"Mutex\000"
 4265      7800
 4266              	.LASF111:
 4267 030f 6F6C6470 		.ascii	"oldprio\000"
 4267      72696F00 
 4268              	.LASF47:
 4269 0317 73746B61 		.ascii	"stkalign_t\000"
 4269      6C69676E 
 4269      5F7400
 4270              	.LASF112:
 4271 0322 63685468 		.ascii	"chThdCreateStatic\000"
 4271      64437265 
 4271      61746553 
 4271      74617469 
 4271      6300
 4272              	.LASF80:
 4273 0334 63685F7A 		.ascii	"ch_zero\000"
 4273      65726F00 
 4274              	.LASF94:
 4275 033c 63665F6F 		.ascii	"cf_off_refs\000"
 4275      66665F72 
 4275      65667300 
 4276              	.LASF55:
 4277 0348 76745F74 		.ascii	"vt_time\000"
 4277      696D6500 
 4278              	.LASF56:
 4279 0350 76745F66 		.ascii	"vt_func\000"
 4279      756E6300 
 4280              	.LASF84:
 4281 0358 63685F74 		.ascii	"ch_timesize\000"
 4281      696D6573 
 4281      697A6500 
 4282              	.LASF108:
 4283 0364 63685468 		.ascii	"chThdResume\000"
 4283      64526573 
 4283      756D6500 
 4284              	.LASF120:
 4285 0370 63685363 		.ascii	"chSchDoRescheduleBehind\000"
 4285      68446F52 
 4285      65736368 
 4285      6564756C 
 4285      65426568 
 4286              	.LASF90:
 4287 0388 63665F6F 		.ascii	"cf_off_name\000"
 4287      66665F6E 
 4287      616D6500 
 4288              	.LASF126:
 4289 0394 2F557365 		.ascii	"/Users/fernandoguirado/Desktop/Chibi/ChibiOS-RPi/de"
 4289      72732F66 
 4289      65726E61 
 4289      6E646F67 
 4289      75697261 
ARM GAS  /var/folders/l5/0x54b2c10074c8bt31ycjvl80000gp/T//ccYeSm8G.s 			page 79


 4290 03c7 6D6F732F 		.ascii	"mos/led\000"
 4290      6C656400 
 4291              	.LASF62:
 4292 03cf 725F6374 		.ascii	"r_ctx\000"
 4292      7800
 4293              	.LASF45:
 4294 03d5 54687265 		.ascii	"ThreadsQueue\000"
 4294      61647351 
 4294      75657565 
 4294      00
 4295              	.LASF81:
 4296 03e2 63685F73 		.ascii	"ch_size\000"
 4296      697A6500 
 4297              	.LASF104:
 4298 03ea 74696D65 		.ascii	"time\000"
 4298      00
 4299              	.LASF128:
 4300 03ef 6C697374 		.ascii	"list_insert\000"
 4300      5F696E73 
 4300      65727400 
 4301              	.LASF65:
 4302 03fb 725F6375 		.ascii	"r_current\000"
 4302      7272656E 
 4302      7400
 4303              	.LASF64:
 4304 0405 725F6F6C 		.ascii	"r_older\000"
 4304      64657200 
 4305              	.LASF103:
 4306 040d 63685468 		.ascii	"chThdSleepUntil\000"
 4306      64536C65 
 4306      6570556E 
 4306      74696C00 
 4307              	.LASF20:
 4308 041d 74726566 		.ascii	"trefs_t\000"
 4308      735F7400 
 4309              	.LASF83:
 4310 0425 63685F70 		.ascii	"ch_ptrsize\000"
 4310      74727369 
 4310      7A6500
 4311              	.LASF28:
 4312 0430 705F7072 		.ascii	"p_prev\000"
 4312      657600
 4313              	.LASF22:
 4314 0437 74707269 		.ascii	"tprio_t\000"
 4314      6F5F7400 
 4315              	.LASF16:
 4316 043f 696E7433 		.ascii	"int32_t\000"
 4316      325F7400 
 4317              	.LASF4:
 4318 0447 756E7369 		.ascii	"unsigned char\000"
 4318      676E6564 
 4318      20636861 
 4318      7200
 4319              	.LASF43:
 4320 0455 705F6D74 		.ascii	"p_mtxlist\000"
 4320      786C6973 
 4320      7400
ARM GAS  /var/folders/l5/0x54b2c10074c8bt31ycjvl80000gp/T//ccYeSm8G.s 			page 80


 4321              	.LASF5:
 4322 045f 73686F72 		.ascii	"short int\000"
 4322      7420696E 
 4322      7400
 4323              	.LASF34:
 4324 0469 705F7374 		.ascii	"p_state\000"
 4324      61746500 
 4325              	.LASF37:
 4326 0471 705F7072 		.ascii	"p_preempt\000"
 4326      65656D70 
 4326      7400
 4327              	.LASF96:
 4328 047b 63665F6F 		.ascii	"cf_off_time\000"
 4328      66665F74 
 4328      696D6500 
 4329              	.LASF32:
 4330 0487 705F6F6C 		.ascii	"p_older\000"
 4330      64657200 
 4331              	.LASF61:
 4332 048f 725F7072 		.ascii	"r_prio\000"
 4332      696F00
 4333              	.LASF76:
 4334 0496 65776D61 		.ascii	"ewmask\000"
 4334      736B00
 4335              	.LASF27:
 4336 049d 705F6E65 		.ascii	"p_next\000"
 4336      787400
 4337              	.LASF95:
 4338 04a4 63665F6F 		.ascii	"cf_off_preempt\000"
 4338      66665F70 
 4338      7265656D 
 4338      707400
 4339              	.LASF35:
 4340 04b3 705F666C 		.ascii	"p_flags\000"
 4340      61677300 
 4341              	.LASF118:
 4342 04bb 63685468 		.ascii	"chThdRelease\000"
 4342      6452656C 
 4342      65617365 
 4342      00
 4343              	.LASF26:
 4344 04c8 54687265 		.ascii	"Thread\000"
 4344      616400
 4345              	.LASF88:
 4346 04cf 63665F6F 		.ascii	"cf_off_newer\000"
 4346      66665F6E 
 4346      65776572 
 4346      00
 4347              	.LASF117:
 4348 04dc 63685363 		.ascii	"chSchGoSleepS\000"
 4348      68476F53 
 4348      6C656570 
 4348      5300
 4349              	.LASF42:
 4350 04ea 705F6570 		.ascii	"p_epending\000"
 4350      656E6469 
 4350      6E6700
ARM GAS  /var/folders/l5/0x54b2c10074c8bt31ycjvl80000gp/T//ccYeSm8G.s 			page 81


 4351              	.LASF105:
 4352 04f5 63685468 		.ascii	"chThdSleep\000"
 4352      64536C65 
 4352      657000
 4353              	.LASF17:
 4354 0500 75696E74 		.ascii	"uint32_t\000"
 4354      33325F74 
 4354      00
 4355              	.LASF86:
 4356 0509 63665F6F 		.ascii	"cf_off_prio\000"
 4356      66665F70 
 4356      72696F00 
 4357              	.LASF60:
 4358 0515 725F7175 		.ascii	"r_queue\000"
 4358      65756500 
 4359              	.LASF52:
 4360 051d 56697274 		.ascii	"VirtualTimer\000"
 4360      75616C54 
 4360      696D6572 
 4360      00
 4361              	.LASF77:
 4362 052a 63686172 		.ascii	"char\000"
 4362      00
 4363              	.LASF6:
 4364 052f 5F5F7569 		.ascii	"__uint16_t\000"
 4364      6E743136 
 4364      5F7400
 4365              	.LASF119:
 4366 053a 63685363 		.ascii	"chSchReadyI\000"
 4366      68526561 
 4366      64794900 
 4367              	.LASF72:
 4368 0546 6D5F6E65 		.ascii	"m_next\000"
 4368      787400
 4369              	.LASF25:
 4370 054d 73797374 		.ascii	"systime_t\000"
 4370      696D655F 
 4370      7400
 4371              	.LASF44:
 4372 0557 705F7265 		.ascii	"p_realprio\000"
 4372      616C7072 
 4372      696F00
 4373              	.LASF8:
 4374 0562 5F5F696E 		.ascii	"__int32_t\000"
 4374      7433325F 
 4374      7400
 4375              	.LASF102:
 4376 056c 63685468 		.ascii	"chThdYield\000"
 4376      64596965 
 4376      6C6400
 4377              	.LASF38:
 4378 0577 705F7469 		.ascii	"p_time\000"
 4378      6D6500
 4379              	.LASF49:
 4380 057e 696E7463 		.ascii	"intctx\000"
 4380      747800
 4381              	.LASF40:
ARM GAS  /var/folders/l5/0x54b2c10074c8bt31ycjvl80000gp/T//ccYeSm8G.s 			page 82


 4382 0585 705F6D73 		.ascii	"p_msgqueue\000"
 4382      67717565 
 4382      756500
 4383              	.LASF107:
 4384 0590 63685468 		.ascii	"chThdWait\000"
 4384      64576169 
 4384      7400
 4385              	.LASF57:
 4386 059a 76745F70 		.ascii	"vt_par\000"
 4386      617200
 4387              	.LASF87:
 4388 05a1 63665F6F 		.ascii	"cf_off_ctx\000"
 4388      66665F63 
 4388      747800
 4389              	.LASF36:
 4390 05ac 705F7265 		.ascii	"p_refs\000"
 4390      667300
 4391              	.LASF66:
 4392 05b3 52656164 		.ascii	"ReadyList\000"
 4392      794C6973 
 4392      7400
 4393              	.LASF68:
 4394 05bd 726C6973 		.ascii	"rlist\000"
 4394      7400
 4395              	.LASF14:
 4396 05c3 75696E74 		.ascii	"uint8_t\000"
 4396      385F7400 
 4397              	.LASF125:
 4398 05cb 2E2E2F2E 		.ascii	"../../os/kernel/src/chthreads.c\000"
 4398      2E2F6F73 
 4398      2F6B6572 
 4398      6E656C2F 
 4398      7372632F 
 4399              	.LASF75:
 4400 05eb 77746F62 		.ascii	"wtobjp\000"
 4400      6A7000
 4401              	.LASF33:
 4402 05f2 705F6E61 		.ascii	"p_name\000"
 4402      6D6500
 4403              	.LASF58:
 4404 05f9 76745F73 		.ascii	"vt_systime\000"
 4404      79737469 
 4404      6D6500
 4405              	.LASF121:
 4406 0604 63685363 		.ascii	"chSchGoSleepTimeoutS\000"
 4406      68476F53 
 4406      6C656570 
 4406      54696D65 
 4406      6F757453 
 4407              	.LASF82:
 4408 0619 63685F76 		.ascii	"ch_version\000"
 4408      65727369 
 4408      6F6E00
 4409              	.LASF59:
 4410 0624 56544C69 		.ascii	"VTList\000"
 4410      737400
 4411              	.LASF71:
ARM GAS  /var/folders/l5/0x54b2c10074c8bt31ycjvl80000gp/T//ccYeSm8G.s 			page 83


 4412 062b 6D5F6F77 		.ascii	"m_owner\000"
 4412      6E657200 
 4413              	.LASF30:
 4414 0633 705F6374 		.ascii	"p_ctx\000"
 4414      7800
 4415              	.LASF39:
 4416 0639 705F7761 		.ascii	"p_waiting\000"
 4416      6974696E 
 4416      6700
 4417              		.ident	"GCC: (GNU Tools for Arm Embedded Processors 8-2019-q3-update) 8.3.1 20190703 (release) [gc
ARM GAS  /var/folders/l5/0x54b2c10074c8bt31ycjvl80000gp/T//ccYeSm8G.s 			page 84


DEFINED SYMBOLS
                            *ABS*:0000000000000000 chthreads.c
/var/folders/l5/0x54b2c10074c8bt31ycjvl80000gp/T//ccYeSm8G.s:16     .text._thread_init:0000000000000000 $a
/var/folders/l5/0x54b2c10074c8bt31ycjvl80000gp/T//ccYeSm8G.s:23     .text._thread_init:0000000000000000 _thread_init
/var/folders/l5/0x54b2c10074c8bt31ycjvl80000gp/T//ccYeSm8G.s:107    .text._thread_init:0000000000000068 $d
/var/folders/l5/0x54b2c10074c8bt31ycjvl80000gp/T//ccYeSm8G.s:112    .text.chThdCreateI:0000000000000000 $a
/var/folders/l5/0x54b2c10074c8bt31ycjvl80000gp/T//ccYeSm8G.s:118    .text.chThdCreateI:0000000000000000 chThdCreateI
/var/folders/l5/0x54b2c10074c8bt31ycjvl80000gp/T//ccYeSm8G.s:248    .text.chThdCreateI:0000000000000088 $d
/var/folders/l5/0x54b2c10074c8bt31ycjvl80000gp/T//ccYeSm8G.s:254    .text.chThdCreateStatic:0000000000000000 $a
/var/folders/l5/0x54b2c10074c8bt31ycjvl80000gp/T//ccYeSm8G.s:260    .text.chThdCreateStatic:0000000000000000 chThdCreateStatic
/var/folders/l5/0x54b2c10074c8bt31ycjvl80000gp/T//ccYeSm8G.s:437    .text.chThdCreateStatic:00000000000000a0 $d
/var/folders/l5/0x54b2c10074c8bt31ycjvl80000gp/T//ccYeSm8G.s:443    .text.chThdSetPriority:0000000000000000 $a
/var/folders/l5/0x54b2c10074c8bt31ycjvl80000gp/T//ccYeSm8G.s:449    .text.chThdSetPriority:0000000000000000 chThdSetPriority
/var/folders/l5/0x54b2c10074c8bt31ycjvl80000gp/T//ccYeSm8G.s:520    .text.chThdSetPriority:000000000000004c $d
/var/folders/l5/0x54b2c10074c8bt31ycjvl80000gp/T//ccYeSm8G.s:525    .text.chThdResume:0000000000000000 $a
/var/folders/l5/0x54b2c10074c8bt31ycjvl80000gp/T//ccYeSm8G.s:531    .text.chThdResume:0000000000000000 chThdResume
/var/folders/l5/0x54b2c10074c8bt31ycjvl80000gp/T//ccYeSm8G.s:578    .text.chThdTerminate:0000000000000000 $a
/var/folders/l5/0x54b2c10074c8bt31ycjvl80000gp/T//ccYeSm8G.s:584    .text.chThdTerminate:0000000000000000 chThdTerminate
/var/folders/l5/0x54b2c10074c8bt31ycjvl80000gp/T//ccYeSm8G.s:621    .text.chThdSleep:0000000000000000 $a
/var/folders/l5/0x54b2c10074c8bt31ycjvl80000gp/T//ccYeSm8G.s:627    .text.chThdSleep:0000000000000000 chThdSleep
/var/folders/l5/0x54b2c10074c8bt31ycjvl80000gp/T//ccYeSm8G.s:674    .text.chThdSleepUntil:0000000000000000 $a
/var/folders/l5/0x54b2c10074c8bt31ycjvl80000gp/T//ccYeSm8G.s:680    .text.chThdSleepUntil:0000000000000000 chThdSleepUntil
/var/folders/l5/0x54b2c10074c8bt31ycjvl80000gp/T//ccYeSm8G.s:742    .text.chThdSleepUntil:0000000000000030 $d
/var/folders/l5/0x54b2c10074c8bt31ycjvl80000gp/T//ccYeSm8G.s:747    .text.chThdYield:0000000000000000 $a
/var/folders/l5/0x54b2c10074c8bt31ycjvl80000gp/T//ccYeSm8G.s:753    .text.chThdYield:0000000000000000 chThdYield
/var/folders/l5/0x54b2c10074c8bt31ycjvl80000gp/T//ccYeSm8G.s:813    .text.chThdYield:0000000000000038 $d
/var/folders/l5/0x54b2c10074c8bt31ycjvl80000gp/T//ccYeSm8G.s:818    .text.chThdExitS:0000000000000000 $a
/var/folders/l5/0x54b2c10074c8bt31ycjvl80000gp/T//ccYeSm8G.s:824    .text.chThdExitS:0000000000000000 chThdExitS
/var/folders/l5/0x54b2c10074c8bt31ycjvl80000gp/T//ccYeSm8G.s:920    .text.chThdExitS:0000000000000060 $d
/var/folders/l5/0x54b2c10074c8bt31ycjvl80000gp/T//ccYeSm8G.s:925    .text.chThdExit:0000000000000000 $a
/var/folders/l5/0x54b2c10074c8bt31ycjvl80000gp/T//ccYeSm8G.s:931    .text.chThdExit:0000000000000000 chThdExit
/var/folders/l5/0x54b2c10074c8bt31ycjvl80000gp/T//ccYeSm8G.s:956    .text.chThdWait:0000000000000000 $a
/var/folders/l5/0x54b2c10074c8bt31ycjvl80000gp/T//ccYeSm8G.s:962    .text.chThdWait:0000000000000000 chThdWait
/var/folders/l5/0x54b2c10074c8bt31ycjvl80000gp/T//ccYeSm8G.s:1061   .text.chThdWait:000000000000004c $d

UNDEFINED SYMBOLS
rlist
_port_thread_start
chSchWakeupS
chSchRescheduleS
chSchGoSleepTimeoutS
vtlist
chSchDoRescheduleBehind
chSchReadyI
chSchGoSleepS
chThdRelease
