ARM GAS  /var/folders/l5/0x54b2c10074c8bt31ycjvl80000gp/T//ccYeSm8G.s 			page 1


   1              		.cpu arm1176jz-s
   2              		.eabi_attribute 20, 1
   3              		.eabi_attribute 21, 1
   4              		.eabi_attribute 23, 3
   5              		.eabi_attribute 24, 1
   6              		.eabi_attribute 25, 1
   7              		.eabi_attribute 26, 1
   8              		.eabi_attribute 30, 2
   9              		.eabi_attribute 34, 1
  10              		.eabi_attribute 18, 4
  11              		.file	"chthreads.c"
  12              		.text
  13              	.Ltext0:
  14              		.cfi_sections	.debug_frame
  15              		.section	.text._thread_init,"ax",%progbits
  16              		.align	2
  17              		.global	_thread_init
  18              		.arch armv6kz
  19              		.syntax unified
  20              		.arm
  21              		.fpu softvfp
  22              		.type	_thread_init, %function
  23              	_thread_init:
  24              	.LVL0:
  25              	.LFB7:
  26              		.file 1 "../../os/kernel/src/chthreads.c"
  27              		.loc 1 69 48 view -0
  28              		.cfi_startproc
  29              		@ args = 0, pretend = 0, frame = 0
  30              		@ frame_needed = 0, uses_anonymous_args = 0
  31              		.loc 1 71 3 view .LVU1
  32              		.loc 1 69 48 is_stmt 0 view .LVU2
  33 0000 70402DE9 		push	{r4, r5, r6, lr}
  34              		.cfi_def_cfa_offset 16
  35              		.cfi_offset 4, -16
  36              		.cfi_offset 5, -12
  37              		.cfi_offset 6, -8
  38              		.cfi_offset 14, -4
  39              		.loc 1 79 17 view .LVU3
  40 0004 0020A0E3 		mov	r2, #0
  41              		.loc 1 72 15 view .LVU4
  42 0008 0260A0E3 		mov	r6, #2
  43              		.loc 1 75 17 view .LVU5
  44 000c 1450A0E3 		mov	r5, #20
  45              		.loc 1 88 14 view .LVU6
  46 0010 0140A0E3 		mov	r4, #1
  47              		.loc 1 92 3 view .LVU7
  48 0014 4CC09FE5 		ldr	ip, .L4
  49              		.loc 1 71 14 view .LVU8
  50 0018 081080E5 		str	r1, [r0, #8]
  51              		.loc 1 72 3 is_stmt 1 view .LVU9
  52              		.loc 1 73 3 view .LVU10
  53              		.loc 1 92 3 is_stmt 0 view .LVU11
  54 001c 14E09CE5 		ldr	lr, [ip, #20]
  55              		.loc 1 78 18 view .LVU12
  56 0020 401080E5 		str	r1, [r0, #64]
  57              		.loc 1 92 3 view .LVU13
ARM GAS  /var/folders/l5/0x54b2c10074c8bt31ycjvl80000gp/T//ccYeSm8G.s 			page 2


  58 0024 10C080E5 		str	ip, [r0, #16]
  59 0028 14E080E5 		str	lr, [r0, #20]
  60              		.loc 1 98 3 view .LVU14
  61 002c 2C1080E2 		add	r1, r0, #44
  62              	.LVL1:
  63              		.loc 1 92 3 view .LVU15
  64 0030 14008CE5 		str	r0, [ip, #20]
  65              		.loc 1 95 3 view .LVU16
  66 0034 28C080E2 		add	ip, r0, #40
  67              		.loc 1 72 15 view .LVU17
  68 0038 BC61C0E1 		strh	r6, [r0, #28]	@ movhi
  69              		.loc 1 75 3 is_stmt 1 view .LVU18
  70              		.loc 1 75 17 is_stmt 0 view .LVU19
  71 003c 1F50C0E5 		strb	r5, [r0, #31]
  72              		.loc 1 78 3 is_stmt 1 view .LVU20
  73              		.loc 1 79 3 view .LVU21
  74              		.loc 1 88 14 is_stmt 0 view .LVU22
  75 0040 1E40C0E5 		strb	r4, [r0, #30]
  76              		.loc 1 79 17 view .LVU23
  77 0044 3C2080E5 		str	r2, [r0, #60]
  78              		.loc 1 82 3 is_stmt 1 view .LVU24
  79              		.loc 1 82 18 is_stmt 0 view .LVU25
  80 0048 382080E5 		str	r2, [r0, #56]
  81              		.loc 1 85 3 is_stmt 1 view .LVU26
  82              		.loc 1 85 14 is_stmt 0 view .LVU27
  83 004c 202080E5 		str	r2, [r0, #32]
  84              		.loc 1 88 3 is_stmt 1 view .LVU28
  85              		.loc 1 91 3 view .LVU29
  86              		.loc 1 91 14 is_stmt 0 view .LVU30
  87 0050 182080E5 		str	r2, [r0, #24]
  88              		.loc 1 92 3 is_stmt 1 view .LVU31
  89              		.loc 1 92 3 view .LVU32
  90              		.loc 1 92 3 view .LVU33
  91 0054 10008EE5 		str	r0, [lr, #16]
  92              		.loc 1 92 17 view .LVU34
  93              		.loc 1 95 3 view .LVU35
  94 0058 28C080E5 		str	ip, [r0, #40]
  95              		.loc 1 98 3 view .LVU36
  96 005c 301080E5 		str	r1, [r0, #48]
  97 0060 2C1080E5 		str	r1, [r0, #44]
  98              		.loc 1 98 30 view .LVU37
  99              		.loc 1 104 3 view .LVU38
 100              		.loc 1 104 27 view .LVU39
 101              		.loc 1 106 3 view .LVU40
 102              		.loc 1 107 1 is_stmt 0 view .LVU41
 103 0064 7080BDE8 		pop	{r4, r5, r6, pc}
 104              	.L5:
 105              		.align	2
 106              	.L4:
 107 0068 00000000 		.word	rlist
 108              		.cfi_endproc
 109              	.LFE7:
 110              		.size	_thread_init, .-_thread_init
 111              		.section	.text.chThdCreateI,"ax",%progbits
 112              		.align	2
 113              		.global	chThdCreateI
 114              		.syntax unified
ARM GAS  /var/folders/l5/0x54b2c10074c8bt31ycjvl80000gp/T//ccYeSm8G.s 			page 3


 115              		.arm
 116              		.fpu softvfp
 117              		.type	chThdCreateI, %function
 118              	chThdCreateI:
 119              	.LVL2:
 120              	.LFB8:
 121              		.loc 1 151 59 is_stmt 1 view -0
 122              		.cfi_startproc
 123              		@ args = 4, pretend = 0, frame = 0
 124              		@ frame_needed = 0, uses_anonymous_args = 0
 125              		.loc 1 153 3 view .LVU43
 126              		.loc 1 155 3 view .LVU44
 127              		.loc 1 155 21 view .LVU45
 128              		.loc 1 157 3 view .LVU46
 129              		.loc 1 159 29 view .LVU47
 130              		.loc 1 160 3 view .LVU48
 131              		.loc 1 151 59 is_stmt 0 view .LVU49
 132 0000 F0402DE9 		push	{r4, r5, r6, r7, lr}
 133              		.cfi_def_cfa_offset 20
 134              		.cfi_offset 4, -20
 135              		.cfi_offset 5, -16
 136              		.cfi_offset 6, -12
 137              		.cfi_offset 7, -8
 138              		.cfi_offset 14, -4
 139              	.LBB12:
 140              	.LBB13:
 141              		.loc 1 79 17 view .LVU50
 142 0004 00E0A0E3 		mov	lr, #0
 143              		.loc 1 72 15 view .LVU51
 144 0008 0270A0E3 		mov	r7, #2
 145              		.loc 1 75 17 view .LVU52
 146 000c 1460A0E3 		mov	r6, #20
 147              		.loc 1 88 14 view .LVU53
 148 0010 0150A0E3 		mov	r5, #1
 149              	.LBE13:
 150              	.LBE12:
 151              		.loc 1 160 3 view .LVU54
 152 0014 241041E2 		sub	r1, r1, #36
 153              	.LVL3:
 154              		.loc 1 160 3 view .LVU55
 155 0018 014080E0 		add	r4, r0, r1
 156 001c 0C4080E5 		str	r4, [r0, #12]
 157              		.loc 1 160 3 is_stmt 1 view .LVU56
 158 0020 013080E7 		str	r3, [r0, r1]
 159              		.loc 1 160 3 view .LVU57
 160              		.loc 1 151 59 is_stmt 0 view .LVU58
 161 0024 14109DE5 		ldr	r1, [sp, #20]
 162              	.LVL4:
 163              	.LBB16:
 164              	.LBB14:
 165              		.loc 1 92 3 view .LVU59
 166 0028 58309FE5 		ldr	r3, .L8
 167              	.LVL5:
 168              		.loc 1 92 3 view .LVU60
 169              	.LBE14:
 170              	.LBE16:
 171              		.loc 1 160 3 view .LVU61
ARM GAS  /var/folders/l5/0x54b2c10074c8bt31ycjvl80000gp/T//ccYeSm8G.s 			page 4


 172 002c 041084E5 		str	r1, [r4, #4]
 173              		.loc 1 160 3 is_stmt 1 view .LVU62
 174 0030 54109FE5 		ldr	r1, .L8+4
 175 0034 201084E5 		str	r1, [r4, #32]
 176              		.loc 1 160 36 view .LVU63
 177              		.loc 1 161 3 view .LVU64
 178              	.LVL6:
 179              	.LBB17:
 180              	.LBI12:
 181              		.loc 1 69 9 view .LVU65
 182              	.LBB15:
 183              		.loc 1 71 3 view .LVU66
 184              		.loc 1 92 3 is_stmt 0 view .LVU67
 185 0038 141093E5 		ldr	r1, [r3, #20]
 186              		.loc 1 71 14 view .LVU68
 187 003c 082080E5 		str	r2, [r0, #8]
 188              		.loc 1 72 3 is_stmt 1 view .LVU69
 189              		.loc 1 73 3 view .LVU70
 190              		.loc 1 78 18 is_stmt 0 view .LVU71
 191 0040 402080E5 		str	r2, [r0, #64]
 192              		.loc 1 95 3 view .LVU72
 193 0044 284080E2 		add	r4, r0, #40
 194              	.LVL7:
 195              		.loc 1 98 3 view .LVU73
 196 0048 2C2080E2 		add	r2, r0, #44
 197              	.LVL8:
 198              		.loc 1 92 3 view .LVU74
 199 004c 103080E5 		str	r3, [r0, #16]
 200 0050 141080E5 		str	r1, [r0, #20]
 201              		.loc 1 72 15 view .LVU75
 202 0054 BC71C0E1 		strh	r7, [r0, #28]	@ movhi
 203              	.LVL9:
 204              		.loc 1 75 3 is_stmt 1 view .LVU76
 205              		.loc 1 75 17 is_stmt 0 view .LVU77
 206 0058 1F60C0E5 		strb	r6, [r0, #31]
 207              		.loc 1 78 3 is_stmt 1 view .LVU78
 208              		.loc 1 79 3 view .LVU79
 209              		.loc 1 88 14 is_stmt 0 view .LVU80
 210 005c 1E50C0E5 		strb	r5, [r0, #30]
 211              		.loc 1 79 17 view .LVU81
 212 0060 3CE080E5 		str	lr, [r0, #60]
 213              		.loc 1 82 3 is_stmt 1 view .LVU82
 214              		.loc 1 92 3 is_stmt 0 view .LVU83
 215 0064 140083E5 		str	r0, [r3, #20]
 216              		.loc 1 82 18 view .LVU84
 217 0068 38E080E5 		str	lr, [r0, #56]
 218              		.loc 1 85 3 is_stmt 1 view .LVU85
 219              		.loc 1 85 14 is_stmt 0 view .LVU86
 220 006c 20E080E5 		str	lr, [r0, #32]
 221              		.loc 1 88 3 is_stmt 1 view .LVU87
 222              		.loc 1 91 3 view .LVU88
 223              		.loc 1 91 14 is_stmt 0 view .LVU89
 224 0070 18E080E5 		str	lr, [r0, #24]
 225              		.loc 1 92 3 is_stmt 1 view .LVU90
 226              		.loc 1 92 3 view .LVU91
 227              		.loc 1 92 3 view .LVU92
 228 0074 100081E5 		str	r0, [r1, #16]
ARM GAS  /var/folders/l5/0x54b2c10074c8bt31ycjvl80000gp/T//ccYeSm8G.s 			page 5


 229              		.loc 1 92 17 view .LVU93
 230              		.loc 1 95 3 view .LVU94
 231 0078 284080E5 		str	r4, [r0, #40]
 232              		.loc 1 98 3 view .LVU95
 233 007c 302080E5 		str	r2, [r0, #48]
 234 0080 2C2080E5 		str	r2, [r0, #44]
 235              		.loc 1 98 30 view .LVU96
 236              		.loc 1 104 3 view .LVU97
 237              		.loc 1 104 27 view .LVU98
 238              		.loc 1 106 3 view .LVU99
 239              	.LVL10:
 240              		.loc 1 106 3 is_stmt 0 view .LVU100
 241              	.LBE15:
 242              	.LBE17:
 243              		.loc 1 162 1 view .LVU101
 244 0084 F080BDE8 		pop	{r4, r5, r6, r7, pc}
 245              	.L9:
 246              		.align	2
 247              	.L8:
 248 0088 00000000 		.word	rlist
 249 008c 00000000 		.word	_port_thread_start
 250              		.cfi_endproc
 251              	.LFE8:
 252              		.size	chThdCreateI, .-chThdCreateI
 253              		.section	.text.chThdCreateStatic,"ax",%progbits
 254              		.align	2
 255              		.global	chThdCreateStatic
 256              		.syntax unified
 257              		.arm
 258              		.fpu softvfp
 259              		.type	chThdCreateStatic, %function
 260              	chThdCreateStatic:
 261              	.LVL11:
 262              	.LFB9:
 263              		.loc 1 181 64 is_stmt 1 view -0
 264              		.cfi_startproc
 265              		@ args = 4, pretend = 0, frame = 0
 266              		@ frame_needed = 0, uses_anonymous_args = 0
 267              		.loc 1 182 3 view .LVU103
 268              		.loc 1 192 3 view .LVU104
 269              		.loc 1 181 64 is_stmt 0 view .LVU105
 270 0000 F0412DE9 		push	{r4, r5, r6, r7, r8, lr}
 271              		.cfi_def_cfa_offset 24
 272              		.cfi_offset 4, -24
 273              		.cfi_offset 5, -20
 274              		.cfi_offset 6, -16
 275              		.cfi_offset 7, -12
 276              		.cfi_offset 8, -8
 277              		.cfi_offset 14, -4
 278              		.loc 1 181 64 view .LVU106
 279 0004 18809DE5 		ldr	r8, [sp, #24]
 280 0008 0040A0E1 		mov	r4, r0
 281              		.loc 1 192 3 view .LVU107
 282              		.syntax divided
 283              	@ 192 "../../os/kernel/src/chthreads.c" 1
 284 000c 9FF021E3 		msr     CPSR_c, #0x9F
 285              	@ 0 "" 2
ARM GAS  /var/folders/l5/0x54b2c10074c8bt31ycjvl80000gp/T//ccYeSm8G.s 			page 6


 286              		.loc 1 192 3 is_stmt 1 view .LVU108
 287              		.loc 1 192 14 view .LVU109
 288              		.loc 1 193 3 view .LVU110
 289              	.LVL12:
 290              		.arm
 291              		.syntax unified
 292              	.LBB18:
 293              	.LBI18:
 294              		.loc 1 150 9 view .LVU111
 295              	.LBB19:
 296              		.loc 1 153 3 view .LVU112
 297              		.loc 1 155 3 view .LVU113
 298              		.loc 1 155 21 view .LVU114
 299              		.loc 1 157 3 view .LVU115
 300              		.loc 1 159 29 view .LVU116
 301              		.loc 1 160 3 view .LVU117
 302              	.LBB20:
 303              	.LBB21:
 304              		.loc 1 72 15 is_stmt 0 view .LVU118
 305 0010 0250A0E3 		mov	r5, #2
 306              		.loc 1 79 17 view .LVU119
 307 0014 00C0A0E3 		mov	ip, #0
 308              		.loc 1 75 17 view .LVU120
 309 0018 1470A0E3 		mov	r7, #20
 310              		.loc 1 88 14 view .LVU121
 311 001c 0160A0E3 		mov	r6, #1
 312              	.LBE21:
 313              	.LBE20:
 314              		.loc 1 160 3 view .LVU122
 315 0020 241041E2 		sub	r1, r1, #36
 316              	.LVL13:
 317              		.loc 1 160 3 view .LVU123
 318 0024 01E080E0 		add	lr, r0, r1
 319 0028 0CE080E5 		str	lr, [r0, #12]
 320              		.loc 1 160 3 is_stmt 1 view .LVU124
 321 002c 013080E7 		str	r3, [r0, r1]
 322              		.loc 1 160 3 view .LVU125
 323              	.LBB25:
 324              	.LBB22:
 325              		.loc 1 92 3 is_stmt 0 view .LVU126
 326 0030 68309FE5 		ldr	r3, .L12
 327              	.LVL14:
 328              		.loc 1 92 3 view .LVU127
 329              	.LBE22:
 330              	.LBE25:
 331              		.loc 1 160 3 view .LVU128
 332 0034 68109FE5 		ldr	r1, .L12+4
 333              	.LVL15:
 334              		.loc 1 160 3 view .LVU129
 335 0038 04808EE5 		str	r8, [lr, #4]
 336              		.loc 1 160 3 is_stmt 1 view .LVU130
 337 003c 20108EE5 		str	r1, [lr, #32]
 338              		.loc 1 160 36 view .LVU131
 339              		.loc 1 161 3 view .LVU132
 340              	.LVL16:
 341              	.LBB26:
 342              	.LBI20:
ARM GAS  /var/folders/l5/0x54b2c10074c8bt31ycjvl80000gp/T//ccYeSm8G.s 			page 7


 343              		.loc 1 69 9 view .LVU133
 344              	.LBB23:
 345              		.loc 1 71 3 view .LVU134
 346              		.loc 1 92 3 is_stmt 0 view .LVU135
 347 0040 14E093E5 		ldr	lr, [r3, #20]
 348              	.LVL17:
 349              		.loc 1 71 14 view .LVU136
 350 0044 082080E5 		str	r2, [r0, #8]
 351              		.loc 1 72 3 is_stmt 1 view .LVU137
 352              		.loc 1 73 3 view .LVU138
 353              		.loc 1 78 18 is_stmt 0 view .LVU139
 354 0048 402080E5 		str	r2, [r0, #64]
 355              		.loc 1 72 15 view .LVU140
 356 004c BC51C0E1 		strh	r5, [r0, #28]	@ movhi
 357              	.LVL18:
 358              		.loc 1 75 3 is_stmt 1 view .LVU141
 359              		.loc 1 98 3 is_stmt 0 view .LVU142
 360 0050 2C2080E2 		add	r2, r0, #44
 361              	.LVL19:
 362              		.loc 1 95 3 view .LVU143
 363 0054 285080E2 		add	r5, r0, #40
 364              		.loc 1 92 3 view .LVU144
 365 0058 103080E5 		str	r3, [r0, #16]
 366 005c 14E080E5 		str	lr, [r0, #20]
 367              		.loc 1 75 17 view .LVU145
 368 0060 1F70C0E5 		strb	r7, [r0, #31]
 369              		.loc 1 78 3 is_stmt 1 view .LVU146
 370              		.loc 1 79 3 view .LVU147
 371              		.loc 1 88 14 is_stmt 0 view .LVU148
 372 0064 1E60C0E5 		strb	r6, [r0, #30]
 373              		.loc 1 79 17 view .LVU149
 374 0068 3CC080E5 		str	ip, [r0, #60]
 375              		.loc 1 82 3 is_stmt 1 view .LVU150
 376              		.loc 1 92 3 is_stmt 0 view .LVU151
 377 006c 140083E5 		str	r0, [r3, #20]
 378              		.loc 1 82 18 view .LVU152
 379 0070 38C080E5 		str	ip, [r0, #56]
 380              		.loc 1 85 3 is_stmt 1 view .LVU153
 381              		.loc 1 85 14 is_stmt 0 view .LVU154
 382 0074 20C080E5 		str	ip, [r0, #32]
 383              		.loc 1 88 3 is_stmt 1 view .LVU155
 384              		.loc 1 91 3 view .LVU156
 385              		.loc 1 91 14 is_stmt 0 view .LVU157
 386 0078 18C080E5 		str	ip, [r0, #24]
 387              		.loc 1 92 3 is_stmt 1 view .LVU158
 388              		.loc 1 92 3 view .LVU159
 389              		.loc 1 92 3 view .LVU160
 390              	.LBE23:
 391              	.LBE26:
 392              	.LBE19:
 393              	.LBE18:
 394              		.loc 1 193 3 is_stmt 0 view .LVU161
 395 007c 0C10A0E1 		mov	r1, ip
 396              	.LBB29:
 397              	.LBB28:
 398              	.LBB27:
 399              	.LBB24:
ARM GAS  /var/folders/l5/0x54b2c10074c8bt31ycjvl80000gp/T//ccYeSm8G.s 			page 8


 400              		.loc 1 92 3 view .LVU162
 401 0080 10008EE5 		str	r0, [lr, #16]
 402              		.loc 1 92 17 is_stmt 1 view .LVU163
 403              		.loc 1 95 3 view .LVU164
 404 0084 285080E5 		str	r5, [r0, #40]
 405              		.loc 1 98 3 view .LVU165
 406 0088 302080E5 		str	r2, [r0, #48]
 407 008c 2C2080E5 		str	r2, [r0, #44]
 408              		.loc 1 98 30 view .LVU166
 409              		.loc 1 104 3 view .LVU167
 410              		.loc 1 104 27 view .LVU168
 411              		.loc 1 106 3 view .LVU169
 412              	.LVL20:
 413              		.loc 1 106 3 is_stmt 0 view .LVU170
 414              	.LBE24:
 415              	.LBE27:
 416              	.LBE28:
 417              	.LBE29:
 418              		.loc 1 193 3 view .LVU171
 419 0090 FEFFFFEB 		bl	chSchWakeupS
 420              	.LVL21:
 421              		.loc 1 194 3 is_stmt 1 view .LVU172
 422              		.loc 1 194 3 view .LVU173
 423              		.syntax divided
 424              	@ 194 "../../os/kernel/src/chthreads.c" 1
 425 0094 1FF021E3 		msr     CPSR_c, #0x1F
 426              	@ 0 "" 2
 427              		.loc 1 194 16 view .LVU174
 428              		.loc 1 195 3 view .LVU175
 429              		.loc 1 196 1 is_stmt 0 view .LVU176
 430              		.arm
 431              		.syntax unified
 432 0098 0400A0E1 		mov	r0, r4
 433 009c F081BDE8 		pop	{r4, r5, r6, r7, r8, pc}
 434              	.L13:
 435              		.align	2
 436              	.L12:
 437 00a0 00000000 		.word	rlist
 438 00a4 00000000 		.word	_port_thread_start
 439              		.cfi_endproc
 440              	.LFE9:
 441              		.size	chThdCreateStatic, .-chThdCreateStatic
 442              		.section	.text.chThdSetPriority,"ax",%progbits
 443              		.align	2
 444              		.global	chThdSetPriority
 445              		.syntax unified
 446              		.arm
 447              		.fpu softvfp
 448              		.type	chThdSetPriority, %function
 449              	chThdSetPriority:
 450              	.LVL22:
 451              	.LFB10:
 452              		.loc 1 210 43 is_stmt 1 view -0
 453              		.cfi_startproc
 454              		@ args = 0, pretend = 0, frame = 0
 455              		@ frame_needed = 0, uses_anonymous_args = 0
 456              		.loc 1 211 3 view .LVU178
ARM GAS  /var/folders/l5/0x54b2c10074c8bt31ycjvl80000gp/T//ccYeSm8G.s 			page 9


 457              		.loc 1 213 3 view .LVU179
 458              		.loc 1 213 54 view .LVU180
 459              		.loc 1 215 3 view .LVU181
 460              		.loc 1 210 43 is_stmt 0 view .LVU182
 461 0000 10402DE9 		push	{r4, lr}
 462              		.cfi_def_cfa_offset 8
 463              		.cfi_offset 4, -8
 464              		.cfi_offset 14, -4
 465              		.loc 1 210 43 view .LVU183
 466 0004 0010A0E1 		mov	r1, r0
 467              		.loc 1 215 3 view .LVU184
 468              		.syntax divided
 469              	@ 215 "../../os/kernel/src/chthreads.c" 1
 470 0008 9FF021E3 		msr     CPSR_c, #0x9F
 471              	@ 0 "" 2
 472              		.loc 1 215 3 is_stmt 1 view .LVU185
 473              		.loc 1 215 14 view .LVU186
 474              		.loc 1 217 3 view .LVU187
 475              		.loc 1 217 13 is_stmt 0 view .LVU188
 476              		.arm
 477              		.syntax unified
 478 000c 38309FE5 		ldr	r3, .L20
 479 0010 183093E5 		ldr	r3, [r3, #24]
 480              		.loc 1 218 13 view .LVU189
 481 0014 080093E5 		ldr	r0, [r3, #8]
 482              	.LVL23:
 483              		.loc 1 217 11 view .LVU190
 484 0018 404093E5 		ldr	r4, [r3, #64]
 485              	.LVL24:
 486              		.loc 1 218 3 is_stmt 1 view .LVU191
 487              		.loc 1 220 21 is_stmt 0 view .LVU192
 488 001c 401083E5 		str	r1, [r3, #64]
 489              		.loc 1 218 6 view .LVU193
 490 0020 042040E0 		sub	r2, r0, r4
 491 0024 122F6FE1 		clz	r2, r2
 492 0028 A222A0E1 		lsr	r2, r2, #5
 493              		.loc 1 218 44 view .LVU194
 494 002c 010050E1 		cmp	r0, r1
 495 0030 01208233 		orrcc	r2, r2, #1
 496 0034 000052E3 		cmp	r2, #0
 497              		.loc 1 219 5 is_stmt 1 view .LVU195
 498              		.loc 1 219 19 is_stmt 0 view .LVU196
 499 0038 08108315 		strne	r1, [r3, #8]
 500              		.loc 1 220 3 is_stmt 1 view .LVU197
 501              		.loc 1 225 3 view .LVU198
 502 003c FEFFFFEB 		bl	chSchRescheduleS
 503              	.LVL25:
 504              		.loc 1 226 3 view .LVU199
 505              		.loc 1 226 3 view .LVU200
 506              		.syntax divided
 507              	@ 226 "../../os/kernel/src/chthreads.c" 1
 508 0040 1FF021E3 		msr     CPSR_c, #0x1F
 509              	@ 0 "" 2
 510              		.loc 1 226 16 view .LVU201
 511              		.loc 1 227 3 view .LVU202
 512              		.loc 1 228 1 is_stmt 0 view .LVU203
 513              		.arm
ARM GAS  /var/folders/l5/0x54b2c10074c8bt31ycjvl80000gp/T//ccYeSm8G.s 			page 10


 514              		.syntax unified
 515 0044 0400A0E1 		mov	r0, r4
 516 0048 1080BDE8 		pop	{r4, pc}
 517              	.L21:
 518              		.align	2
 519              	.L20:
 520 004c 00000000 		.word	rlist
 521              		.cfi_endproc
 522              	.LFE10:
 523              		.size	chThdSetPriority, .-chThdSetPriority
 524              		.section	.text.chThdResume,"ax",%progbits
 525              		.align	2
 526              		.global	chThdResume
 527              		.syntax unified
 528              		.arm
 529              		.fpu softvfp
 530              		.type	chThdResume, %function
 531              	chThdResume:
 532              	.LVL26:
 533              	.LFB11:
 534              		.loc 1 243 33 is_stmt 1 view -0
 535              		.cfi_startproc
 536              		@ args = 0, pretend = 0, frame = 0
 537              		@ frame_needed = 0, uses_anonymous_args = 0
 538              		.loc 1 245 3 view .LVU205
 539              		.loc 1 243 33 is_stmt 0 view .LVU206
 540 0000 10402DE9 		push	{r4, lr}
 541              		.cfi_def_cfa_offset 8
 542              		.cfi_offset 4, -8
 543              		.cfi_offset 14, -4
 544              		.loc 1 243 33 view .LVU207
 545 0004 0040A0E1 		mov	r4, r0
 546              		.loc 1 245 3 view .LVU208
 547              		.syntax divided
 548              	@ 245 "../../os/kernel/src/chthreads.c" 1
 549 0008 9FF021E3 		msr     CPSR_c, #0x9F
 550              	@ 0 "" 2
 551              		.loc 1 245 3 is_stmt 1 view .LVU209
 552              		.loc 1 245 14 view .LVU210
 553              		.loc 1 246 3 view .LVU211
 554              		.loc 1 248 57 view .LVU212
 555              		.loc 1 249 3 view .LVU213
 556              		.arm
 557              		.syntax unified
 558 000c 0010A0E3 		mov	r1, #0
 559 0010 FEFFFFEB 		bl	chSchWakeupS
 560              	.LVL27:
 561              		.loc 1 250 3 view .LVU214
 562              		.loc 1 250 3 view .LVU215
 563              		.syntax divided
 564              	@ 250 "../../os/kernel/src/chthreads.c" 1
 565 0014 1FF021E3 		msr     CPSR_c, #0x1F
 566              	@ 0 "" 2
 567              		.loc 1 250 16 view .LVU216
 568              		.loc 1 251 3 view .LVU217
 569              		.loc 1 252 1 is_stmt 0 view .LVU218
 570              		.arm
ARM GAS  /var/folders/l5/0x54b2c10074c8bt31ycjvl80000gp/T//ccYeSm8G.s 			page 11


 571              		.syntax unified
 572 0018 0400A0E1 		mov	r0, r4
 573 001c 1080BDE8 		pop	{r4, pc}
 574              		.cfi_endproc
 575              	.LFE11:
 576              		.size	chThdResume, .-chThdResume
 577              		.section	.text.chThdTerminate,"ax",%progbits
 578              		.align	2
 579              		.global	chThdTerminate
 580              		.syntax unified
 581              		.arm
 582              		.fpu softvfp
 583              		.type	chThdTerminate, %function
 584              	chThdTerminate:
 585              	.LVL28:
 586              	.LFB12:
 587              		.loc 1 266 33 is_stmt 1 view -0
 588              		.cfi_startproc
 589              		@ args = 0, pretend = 0, frame = 0
 590              		@ frame_needed = 0, uses_anonymous_args = 0
 591              		@ link register save eliminated.
 592              		.loc 1 268 3 view .LVU220
 593              		.syntax divided
 594              	@ 268 "../../os/kernel/src/chthreads.c" 1
 595 0000 9FF021E3 		msr     CPSR_c, #0x9F
 596              	@ 0 "" 2
 597              		.loc 1 268 3 view .LVU221
 598              		.loc 1 268 14 view .LVU222
 599              		.loc 1 269 3 view .LVU223
 600              		.loc 1 269 15 is_stmt 0 view .LVU224
 601              		.arm
 602              		.syntax unified
 603 0004 1D30D0E5 		ldrb	r3, [r0, #29]	@ zero_extendqisi2
 604 0008 043083E3 		orr	r3, r3, #4
 605 000c 1D30C0E5 		strb	r3, [r0, #29]
 606              		.loc 1 270 3 is_stmt 1 view .LVU225
 607              		.loc 1 270 3 view .LVU226
 608              		.syntax divided
 609              	@ 270 "../../os/kernel/src/chthreads.c" 1
 610 0010 1FF021E3 		msr     CPSR_c, #0x1F
 611              	@ 0 "" 2
 612              		.loc 1 270 16 view .LVU227
 613              		.loc 1 271 1 is_stmt 0 view .LVU228
 614              		.arm
 615              		.syntax unified
 616 0014 1EFF2FE1 		bx	lr
 617              		.cfi_endproc
 618              	.LFE12:
 619              		.size	chThdTerminate, .-chThdTerminate
 620              		.section	.text.chThdSleep,"ax",%progbits
 621              		.align	2
 622              		.global	chThdSleep
 623              		.syntax unified
 624              		.arm
 625              		.fpu softvfp
 626              		.type	chThdSleep, %function
 627              	chThdSleep:
ARM GAS  /var/folders/l5/0x54b2c10074c8bt31ycjvl80000gp/T//ccYeSm8G.s 			page 12


 628              	.LVL29:
 629              	.LFB13:
 630              		.loc 1 285 33 is_stmt 1 view -0
 631              		.cfi_startproc
 632              		@ args = 0, pretend = 0, frame = 0
 633              		@ frame_needed = 0, uses_anonymous_args = 0
 634              		.loc 1 287 3 view .LVU230
 635              		.loc 1 287 51 view .LVU231
 636              		.loc 1 289 3 view .LVU232
 637              		.loc 1 285 33 is_stmt 0 view .LVU233
 638 0000 10402DE9 		push	{r4, lr}
 639              		.cfi_def_cfa_offset 8
 640              		.cfi_offset 4, -8
 641              		.cfi_offset 14, -4
 642              		.loc 1 285 33 view .LVU234
 643 0004 0010A0E1 		mov	r1, r0
 644              		.loc 1 289 3 view .LVU235
 645              		.syntax divided
 646              	@ 289 "../../os/kernel/src/chthreads.c" 1
 647 0008 9FF021E3 		msr     CPSR_c, #0x9F
 648              	@ 0 "" 2
 649              		.loc 1 289 3 is_stmt 1 view .LVU236
 650              		.loc 1 289 14 view .LVU237
 651              		.loc 1 290 3 view .LVU238
 652              		.arm
 653              		.syntax unified
 654 000c 0600A0E3 		mov	r0, #6
 655              	.LVL30:
 656              		.loc 1 290 3 is_stmt 0 view .LVU239
 657 0010 FEFFFFEB 		bl	chSchGoSleepTimeoutS
 658              	.LVL31:
 659              		.loc 1 291 3 is_stmt 1 view .LVU240
 660              		.loc 1 291 3 view .LVU241
 661              		.syntax divided
 662              	@ 291 "../../os/kernel/src/chthreads.c" 1
 663 0014 1FF021E3 		msr     CPSR_c, #0x1F
 664              	@ 0 "" 2
 665              		.loc 1 291 16 view .LVU242
 666              		.loc 1 292 1 is_stmt 0 view .LVU243
 667              		.arm
 668              		.syntax unified
 669 0018 1080BDE8 		pop	{r4, pc}
 670              		.cfi_endproc
 671              	.LFE13:
 672              		.size	chThdSleep, .-chThdSleep
 673              		.section	.text.chThdSleepUntil,"ax",%progbits
 674              		.align	2
 675              		.global	chThdSleepUntil
 676              		.syntax unified
 677              		.arm
 678              		.fpu softvfp
 679              		.type	chThdSleepUntil, %function
 680              	chThdSleepUntil:
 681              	.LVL32:
 682              	.LFB14:
 683              		.loc 1 302 38 is_stmt 1 view -0
 684              		.cfi_startproc
ARM GAS  /var/folders/l5/0x54b2c10074c8bt31ycjvl80000gp/T//ccYeSm8G.s 			page 13


 685              		@ args = 0, pretend = 0, frame = 0
 686              		@ frame_needed = 0, uses_anonymous_args = 0
 687              		.loc 1 304 3 view .LVU245
 688              		.syntax divided
 689              	@ 304 "../../os/kernel/src/chthreads.c" 1
 690 0000 9FF021E3 		msr     CPSR_c, #0x9F
 691              	@ 0 "" 2
 692              		.loc 1 304 3 view .LVU246
 693              		.loc 1 304 14 view .LVU247
 694              		.loc 1 305 3 view .LVU248
 695              		.loc 1 305 16 is_stmt 0 view .LVU249
 696              		.arm
 697              		.syntax unified
 698 0004 24309FE5 		ldr	r3, .L37
 699 0008 0C1093E5 		ldr	r1, [r3, #12]
 700              	.LVL33:
 701              		.loc 1 305 6 view .LVU250
 702 000c 011050E0 		subs	r1, r0, r1
 703              	.LVL34:
 704              		.loc 1 305 6 view .LVU251
 705 0010 0100001A 		bne	.L36
 706              		.loc 1 307 3 is_stmt 1 view .LVU252
 707              		.loc 1 307 3 view .LVU253
 708              		.syntax divided
 709              	@ 307 "../../os/kernel/src/chthreads.c" 1
 710 0014 1FF021E3 		msr     CPSR_c, #0x1F
 711              	@ 0 "" 2
 712              		.loc 1 307 16 view .LVU254
 713              		.loc 1 307 3 is_stmt 0 view .LVU255
 714              		.arm
 715              		.syntax unified
 716 0018 1EFF2FE1 		bx	lr
 717              	.L36:
 718              		.loc 1 306 5 is_stmt 1 view .LVU256
 719              		.loc 1 302 38 is_stmt 0 view .LVU257
 720 001c 10402DE9 		push	{r4, lr}
 721              		.cfi_def_cfa_offset 8
 722              		.cfi_offset 4, -8
 723              		.cfi_offset 14, -4
 724              		.loc 1 306 5 view .LVU258
 725 0020 0600A0E3 		mov	r0, #6
 726 0024 FEFFFFEB 		bl	chSchGoSleepTimeoutS
 727              	.LVL35:
 728              		.loc 1 307 3 is_stmt 1 view .LVU259
 729              		.loc 1 307 3 view .LVU260
 730              		.syntax divided
 731              	@ 307 "../../os/kernel/src/chthreads.c" 1
 732 0028 1FF021E3 		msr     CPSR_c, #0x1F
 733              	@ 0 "" 2
 734              		.loc 1 307 16 view .LVU261
 735              		.loc 1 308 1 is_stmt 0 view .LVU262
 736              		.arm
 737              		.syntax unified
 738 002c 1080BDE8 		pop	{r4, pc}
 739              	.L38:
 740              		.align	2
 741              	.L37:
ARM GAS  /var/folders/l5/0x54b2c10074c8bt31ycjvl80000gp/T//ccYeSm8G.s 			page 14


 742 0030 00000000 		.word	vtlist
 743              		.cfi_endproc
 744              	.LFE14:
 745              		.size	chThdSleepUntil, .-chThdSleepUntil
 746              		.section	.text.chThdYield,"ax",%progbits
 747              		.align	2
 748              		.global	chThdYield
 749              		.syntax unified
 750              		.arm
 751              		.fpu softvfp
 752              		.type	chThdYield, %function
 753              	chThdYield:
 754              	.LFB15:
 755              		.loc 1 317 23 is_stmt 1 view -0
 756              		.cfi_startproc
 757              		@ args = 0, pretend = 0, frame = 0
 758              		@ frame_needed = 0, uses_anonymous_args = 0
 759              		.loc 1 319 3 view .LVU264
 760              		.syntax divided
 761              	@ 319 "../../os/kernel/src/chthreads.c" 1
 762 0000 9FF021E3 		msr     CPSR_c, #0x9F
 763              	@ 0 "" 2
 764              		.loc 1 319 3 view .LVU265
 765              		.loc 1 319 14 view .LVU266
 766              		.loc 1 320 3 view .LVU267
 767              		.arm
 768              		.syntax unified
 769 0004 2C309FE5 		ldr	r3, .L46
 770 0008 002093E5 		ldr	r2, [r3]
 771 000c 183093E5 		ldr	r3, [r3, #24]
 772 0010 082092E5 		ldr	r2, [r2, #8]
 773 0014 083093E5 		ldr	r3, [r3, #8]
 774 0018 030052E1 		cmp	r2, r3
 775 001c 0100002A 		bcs	.L45
 776              		.loc 1 320 18 view .LVU268
 777              		.loc 1 321 3 view .LVU269
 778              		.loc 1 321 3 view .LVU270
 779              		.syntax divided
 780              	@ 321 "../../os/kernel/src/chthreads.c" 1
 781 0020 1FF021E3 		msr     CPSR_c, #0x1F
 782              	@ 0 "" 2
 783              		.loc 1 321 16 view .LVU271
 784              		.loc 1 321 3 is_stmt 0 view .LVU272
 785              		.arm
 786              		.syntax unified
 787 0024 1EFF2FE1 		bx	lr
 788              	.L45:
 789              		.loc 1 320 3 is_stmt 1 discriminator 1 view .LVU273
 790              		.loc 1 317 23 is_stmt 0 discriminator 1 view .LVU274
 791 0028 10402DE9 		push	{r4, lr}
 792              		.cfi_def_cfa_offset 8
 793              		.cfi_offset 4, -8
 794              		.cfi_offset 14, -4
 795              		.loc 1 320 3 discriminator 1 view .LVU275
 796 002c FEFFFFEB 		bl	chSchDoRescheduleBehind
 797              	.LVL36:
 798              		.loc 1 320 18 is_stmt 1 discriminator 1 view .LVU276
ARM GAS  /var/folders/l5/0x54b2c10074c8bt31ycjvl80000gp/T//ccYeSm8G.s 			page 15


 799              		.loc 1 321 3 discriminator 1 view .LVU277
 800              		.loc 1 321 3 discriminator 1 view .LVU278
 801              		.syntax divided
 802              	@ 321 "../../os/kernel/src/chthreads.c" 1
 803 0030 1FF021E3 		msr     CPSR_c, #0x1F
 804              	@ 0 "" 2
 805              		.loc 1 321 16 discriminator 1 view .LVU279
 806              		.loc 1 322 1 is_stmt 0 discriminator 1 view .LVU280
 807              		.arm
 808              		.syntax unified
 809 0034 1080BDE8 		pop	{r4, pc}
 810              	.L47:
 811              		.align	2
 812              	.L46:
 813 0038 00000000 		.word	rlist
 814              		.cfi_endproc
 815              	.LFE15:
 816              		.size	chThdYield, .-chThdYield
 817              		.section	.text.chThdExitS,"ax",%progbits
 818              		.align	2
 819              		.global	chThdExitS
 820              		.syntax unified
 821              		.arm
 822              		.fpu softvfp
 823              		.type	chThdExitS, %function
 824              	chThdExitS:
 825              	.LVL37:
 826              	.LFB17:
 827              		.loc 1 359 28 is_stmt 1 view -0
 828              		.cfi_startproc
 829              		@ args = 0, pretend = 0, frame = 0
 830              		@ frame_needed = 0, uses_anonymous_args = 0
 831              		.loc 1 360 3 view .LVU282
 832              		.loc 1 360 11 is_stmt 0 view .LVU283
 833 0000 58309FE5 		ldr	r3, .L54
 834              		.loc 1 359 28 view .LVU284
 835 0004 70402DE9 		push	{r4, r5, r6, lr}
 836              		.cfi_def_cfa_offset 16
 837              		.cfi_offset 4, -16
 838              		.cfi_offset 5, -12
 839              		.cfi_offset 6, -8
 840              		.cfi_offset 14, -4
 841              		.loc 1 360 11 view .LVU285
 842 0008 184093E5 		ldr	r4, [r3, #24]
 843              	.LVL38:
 844              		.loc 1 362 3 is_stmt 1 view .LVU286
 845              		.loc 1 367 10 is_stmt 0 view .LVU287
 846 000c 0450A0E1 		mov	r5, r4
 847 0010 2830B5E5 		ldr	r3, [r5, #40]!
 848              		.loc 1 362 20 view .LVU288
 849 0014 240084E5 		str	r0, [r4, #36]
 850              		.loc 1 364 3 is_stmt 1 view .LVU289
 851              		.loc 1 364 27 view .LVU290
 852              		.loc 1 367 3 view .LVU291
 853              		.loc 1 367 9 is_stmt 0 view .LVU292
 854 0018 030055E1 		cmp	r5, r3
 855 001c 0600000A 		beq	.L49
ARM GAS  /var/folders/l5/0x54b2c10074c8bt31ycjvl80000gp/T//ccYeSm8G.s 			page 16


 856              	.LVL39:
 857              	.L50:
 858              		.loc 1 368 5 is_stmt 1 view .LVU293
 859              	.LBB30:
 860              	.LBI30:
 861              		.file 2 "../../os/kernel/include/chinline.h"
 862              		.loc 2 79 23 view .LVU294
 863              	.LBB31:
 864              		.loc 2 81 3 view .LVU295
 865              		.loc 2 82 3 view .LVU296
 866              		.loc 2 82 19 is_stmt 0 view .LVU297
 867 0020 002093E5 		ldr	r2, [r3]
 868              	.LBE31:
 869              	.LBE30:
 870              		.loc 1 368 5 view .LVU298
 871 0024 0300A0E1 		mov	r0, r3
 872              	.LBB33:
 873              	.LBB32:
 874              		.loc 2 82 15 view .LVU299
 875 0028 282084E5 		str	r2, [r4, #40]
 876              		.loc 2 83 3 is_stmt 1 view .LVU300
 877              	.LVL40:
 878              		.loc 2 83 3 is_stmt 0 view .LVU301
 879              	.LBE32:
 880              	.LBE33:
 881              		.loc 1 368 5 view .LVU302
 882 002c FEFFFFEB 		bl	chSchReadyI
 883              	.LVL41:
 884              		.loc 1 367 10 view .LVU303
 885 0030 283094E5 		ldr	r3, [r4, #40]
 886              		.loc 1 367 9 view .LVU304
 887 0034 050053E1 		cmp	r3, r5
 888 0038 F8FFFF1A 		bne	.L50
 889              	.LVL42:
 890              	.L49:
 891              		.loc 1 373 3 is_stmt 1 view .LVU305
 892              		.loc 1 373 6 is_stmt 0 view .LVU306
 893 003c 1D30D4E5 		ldrb	r3, [r4, #29]	@ zero_extendqisi2
 894              		.loc 1 376 3 view .LVU307
 895 0040 0E00A0E3 		mov	r0, #14
 896              		.loc 1 373 6 view .LVU308
 897 0044 030013E3 		tst	r3, #3
 898              		.loc 1 374 5 is_stmt 1 view .LVU309
 899 0048 14209405 		ldreq	r2, [r4, #20]
 900 004c 10309405 		ldreq	r3, [r4, #16]
 901              		.loc 1 379 1 is_stmt 0 view .LVU310
 902 0050 7040BDE8 		pop	{r4, r5, r6, lr}
 903              		.cfi_restore 14
 904              		.cfi_restore 6
 905              		.cfi_restore 5
 906              		.cfi_restore 4
 907              		.cfi_def_cfa_offset 0
 908              	.LVL43:
 909              		.loc 1 374 5 view .LVU311
 910 0054 10308205 		streq	r3, [r2, #16]
 911              		.loc 1 374 5 is_stmt 1 view .LVU312
 912 0058 14208305 		streq	r2, [r3, #20]
ARM GAS  /var/folders/l5/0x54b2c10074c8bt31ycjvl80000gp/T//ccYeSm8G.s 			page 17


 913              		.loc 1 374 19 view .LVU313
 914              		.loc 1 376 3 view .LVU314
 915 005c FEFFFFEA 		b	chSchGoSleepS
 916              	.LVL44:
 917              	.L55:
 918              		.align	2
 919              	.L54:
 920 0060 00000000 		.word	rlist
 921              		.cfi_endproc
 922              	.LFE17:
 923              		.size	chThdExitS, .-chThdExitS
 924              		.section	.text.chThdExit,"ax",%progbits
 925              		.align	2
 926              		.global	chThdExit
 927              		.syntax unified
 928              		.arm
 929              		.fpu softvfp
 930              		.type	chThdExit, %function
 931              	chThdExit:
 932              	.LVL45:
 933              	.LFB16:
 934              		.loc 1 338 27 view -0
 935              		.cfi_startproc
 936              		@ args = 0, pretend = 0, frame = 0
 937              		@ frame_needed = 0, uses_anonymous_args = 0
 938              		@ link register save eliminated.
 939              		.loc 1 340 3 view .LVU316
 940              		.syntax divided
 941              	@ 340 "../../os/kernel/src/chthreads.c" 1
 942 0000 9FF021E3 		msr     CPSR_c, #0x9F
 943              	@ 0 "" 2
 944              		.loc 1 340 3 view .LVU317
 945              		.loc 1 340 14 view .LVU318
 946              		.loc 1 341 3 view .LVU319
 947              		.arm
 948              		.syntax unified
 949 0004 FEFFFFEA 		b	chThdExitS
 950              	.LVL46:
 951              		.loc 1 341 3 is_stmt 0 view .LVU320
 952              		.cfi_endproc
 953              	.LFE16:
 954              		.size	chThdExit, .-chThdExit
 955              		.section	.text.chThdWait,"ax",%progbits
 956              		.align	2
 957              		.global	chThdWait
 958              		.syntax unified
 959              		.arm
 960              		.fpu softvfp
 961              		.type	chThdWait, %function
 962              	chThdWait:
 963              	.LVL47:
 964              	.LFB18:
 965              		.loc 1 413 29 is_stmt 1 view -0
 966              		.cfi_startproc
 967              		@ args = 0, pretend = 0, frame = 0
 968              		@ frame_needed = 0, uses_anonymous_args = 0
 969              		.loc 1 414 3 view .LVU322
ARM GAS  /var/folders/l5/0x54b2c10074c8bt31ycjvl80000gp/T//ccYeSm8G.s 			page 18


 970              		.loc 1 416 3 view .LVU323
 971              		.loc 1 416 38 view .LVU324
 972              		.loc 1 418 3 view .LVU325
 973              		.loc 1 413 29 is_stmt 0 view .LVU326
 974 0000 70402DE9 		push	{r4, r5, r6, lr}
 975              		.cfi_def_cfa_offset 16
 976              		.cfi_offset 4, -16
 977              		.cfi_offset 5, -12
 978              		.cfi_offset 6, -8
 979              		.cfi_offset 14, -4
 980              		.loc 1 413 29 view .LVU327
 981 0004 0040A0E1 		mov	r4, r0
 982              		.loc 1 418 3 view .LVU328
 983              		.syntax divided
 984              	@ 418 "../../os/kernel/src/chthreads.c" 1
 985 0008 9FF021E3 		msr     CPSR_c, #0x9F
 986              	@ 0 "" 2
 987              		.loc 1 418 3 is_stmt 1 view .LVU329
 988              		.loc 1 418 14 view .LVU330
 989              		.loc 1 419 3 view .LVU331
 990              		.loc 1 419 62 view .LVU332
 991              		.loc 1 421 3 view .LVU333
 992              		.loc 1 421 67 view .LVU334
 993              		.loc 1 423 3 view .LVU335
 994              		.loc 1 423 6 is_stmt 0 view .LVU336
 995              		.arm
 996              		.syntax unified
 997 000c 1C30D0E5 		ldrb	r3, [r0, #28]	@ zero_extendqisi2
 998 0010 0E0053E3 		cmp	r3, #14
 999 0014 0600000A 		beq	.L58
 1000              		.loc 1 419 3 view .LVU337
 1001 0018 2C309FE5 		ldr	r3, .L63
 1002              	.LBB34:
 1003              	.LBB35:
 1004              		.loc 2 75 19 view .LVU338
 1005 001c 282090E5 		ldr	r2, [r0, #40]
 1006              	.LBE35:
 1007              	.LBE34:
 1008              		.loc 1 419 3 view .LVU339
 1009 0020 183093E5 		ldr	r3, [r3, #24]
 1010              		.loc 1 424 5 is_stmt 1 view .LVU340
 1011              	.LVL48:
 1012              	.LBB38:
 1013              	.LBI34:
 1014              		.loc 2 73 20 view .LVU341
 1015              	.LBB36:
 1016              		.loc 2 75 3 view .LVU342
 1017              	.LBE36:
 1018              	.LBE38:
 1019              		.loc 1 425 5 is_stmt 0 view .LVU343
 1020 0024 0700A0E3 		mov	r0, #7
 1021              	.LVL49:
 1022              	.LBB39:
 1023              	.LBB37:
 1024              		.loc 2 75 14 view .LVU344
 1025 0028 002083E5 		str	r2, [r3]
 1026              		.loc 2 76 3 is_stmt 1 view .LVU345
ARM GAS  /var/folders/l5/0x54b2c10074c8bt31ycjvl80000gp/T//ccYeSm8G.s 			page 19


 1027              		.loc 2 76 15 is_stmt 0 view .LVU346
 1028 002c 283084E5 		str	r3, [r4, #40]
 1029              	.LVL50:
 1030              		.loc 2 76 15 view .LVU347
 1031              	.LBE37:
 1032              	.LBE39:
 1033              		.loc 1 425 5 is_stmt 1 view .LVU348
 1034 0030 FEFFFFEB 		bl	chSchGoSleepS
 1035              	.LVL51:
 1036              	.L58:
 1037              		.loc 1 427 3 view .LVU349
 1038              		.loc 1 427 7 is_stmt 0 view .LVU350
 1039 0034 245094E5 		ldr	r5, [r4, #36]
 1040              	.LVL52:
 1041              		.loc 1 428 3 is_stmt 1 view .LVU351
 1042              		.loc 1 428 3 view .LVU352
 1043              		.syntax divided
 1044              	@ 428 "../../os/kernel/src/chthreads.c" 1
 1045 0038 1FF021E3 		msr     CPSR_c, #0x1F
 1046              	@ 0 "" 2
 1047              		.loc 1 428 16 view .LVU353
 1048              		.loc 1 430 3 view .LVU354
 1049              		.arm
 1050              		.syntax unified
 1051 003c 0400A0E1 		mov	r0, r4
 1052 0040 FEFFFFEB 		bl	chThdRelease
 1053              	.LVL53:
 1054              		.loc 1 432 3 view .LVU355
 1055              		.loc 1 433 1 is_stmt 0 view .LVU356
 1056 0044 0500A0E1 		mov	r0, r5
 1057 0048 7080BDE8 		pop	{r4, r5, r6, pc}
 1058              	.L64:
 1059              		.align	2
 1060              	.L63:
 1061 004c 00000000 		.word	rlist
 1062              		.cfi_endproc
 1063              	.LFE18:
 1064              		.size	chThdWait, .-chThdWait
 1065              		.text
 1066              	.Letext0:
 1067              		.file 3 "/usr/local/Cellar/arm-gcc-bin/8-2019-q3-update/lib/gcc/arm-none-eabi/8.3.1/include/stddef
 1068              		.file 4 "/usr/local/Cellar/arm-gcc-bin/8-2019-q3-update/arm-none-eabi/include/machine/_default_typ
 1069              		.file 5 "/usr/local/Cellar/arm-gcc-bin/8-2019-q3-update/arm-none-eabi/include/sys/_stdint.h"
 1070              		.file 6 "../../os/ports/GCC/ARM/chtypes.h"
 1071              		.file 7 "../../os/kernel/include/chlists.h"
 1072              		.file 8 "../../os/kernel/include/chthreads.h"
 1073              		.file 9 "../../os/ports/GCC/ARM/chcore.h"
 1074              		.file 10 "../../os/kernel/include/chvt.h"
 1075              		.file 11 "../../os/kernel/include/chschd.h"
 1076              		.file 12 "../../os/kernel/include/chmtx.h"
 1077              		.file 13 "../../os/kernel/include/chregistry.h"
 1078              		.file 14 "../../os/kernel/include/ch.h"
 1079              		.file 15 "../../os/kernel/include/chdynamic.h"