ARM GAS  /var/folders/l5/0x54b2c10074c8bt31ycjvl80000gp/T//ccBvZYEp.s 			page 1


   1              		.cpu arm1176jz-s
   2              		.eabi_attribute 20, 1
   3              		.eabi_attribute 21, 1
   4              		.eabi_attribute 23, 3
   5              		.eabi_attribute 24, 1
   6              		.eabi_attribute 25, 1
   7              		.eabi_attribute 26, 1
   8              		.eabi_attribute 30, 2
   9              		.eabi_attribute 34, 1
  10              		.eabi_attribute 18, 4
  11              		.file	"chvt.c"
  12              		.text
  13              	.Ltext0:
  14              		.cfi_sections	.debug_frame
  15              		.section	.text._vt_init,"ax",%progbits
  16              		.align	2
  17              		.global	_vt_init
  18              		.arch armv6kz
  19              		.syntax unified
  20              		.arm
  21              		.fpu softvfp
  22              		.type	_vt_init, %function
  23              	_vt_init:
  24              	.LFB7:
  25              		.file 1 "../../os/kernel/src/chvt.c"
  26              		.loc 1 43 21 view -0
  27              		.cfi_startproc
  28              		@ args = 0, pretend = 0, frame = 0
  29              		@ frame_needed = 0, uses_anonymous_args = 0
  30              		@ link register save eliminated.
  31              		.loc 1 45 3 view .LVU1
  32              		.loc 1 46 18 is_stmt 0 view .LVU2
  33 0000 0010E0E3 		mvn	r1, #0
  34              		.loc 1 47 21 view .LVU3
  35 0004 0020A0E3 		mov	r2, #0
  36              		.loc 1 45 35 view .LVU4
  37 0008 10309FE5 		ldr	r3, .L3
  38              		.loc 1 46 18 view .LVU5
  39 000c 081083E5 		str	r1, [r3, #8]
  40              		.loc 1 45 35 view .LVU6
  41 0010 043083E5 		str	r3, [r3, #4]
  42              		.loc 1 45 18 view .LVU7
  43 0014 003083E5 		str	r3, [r3]
  44              		.loc 1 46 3 is_stmt 1 view .LVU8
  45              		.loc 1 47 3 view .LVU9
  46              		.loc 1 47 21 is_stmt 0 view .LVU10
  47 0018 0C2083E5 		str	r2, [r3, #12]
  48              		.loc 1 48 1 view .LVU11
  49 001c 1EFF2FE1 		bx	lr
  50              	.L4:
  51              		.align	2
  52              	.L3:
  53 0020 00000000 		.word	vtlist
  54              		.cfi_endproc
  55              	.LFE7:
  56              		.size	_vt_init, .-_vt_init
  57              		.section	.text.chVTSetI,"ax",%progbits
ARM GAS  /var/folders/l5/0x54b2c10074c8bt31ycjvl80000gp/T//ccBvZYEp.s 			page 2


  58              		.align	2
  59              		.global	chVTSetI
  60              		.syntax unified
  61              		.arm
  62              		.fpu softvfp
  63              		.type	chVTSetI, %function
  64              	chVTSetI:
  65              	.LVL0:
  66              	.LFB8:
  67              		.loc 1 69 78 is_stmt 1 view -0
  68              		.cfi_startproc
  69              		@ args = 0, pretend = 0, frame = 0
  70              		@ frame_needed = 0, uses_anonymous_args = 0
  71              		@ link register save eliminated.
  72              		.loc 1 70 3 view .LVU13
  73              		.loc 1 72 3 view .LVU14
  74              		.loc 1 72 21 view .LVU15
  75              		.loc 1 73 3 view .LVU16
  76              		.loc 1 74 25 view .LVU17
  77              		.loc 1 76 3 view .LVU18
  78              		.loc 1 78 5 is_stmt 0 view .LVU19
  79 0000 58C09FE5 		ldr	ip, .L10
  80              		.loc 1 76 15 view .LVU20
  81 0004 103080E5 		str	r3, [r0, #16]
  82              		.loc 1 77 3 is_stmt 1 view .LVU21
  83              		.loc 1 78 5 is_stmt 0 view .LVU22
  84 0008 00309CE5 		ldr	r3, [ip]
  85              	.LVL1:
  86              		.loc 1 77 16 view .LVU23
  87 000c 0C2080E5 		str	r2, [r0, #12]
  88              		.loc 1 78 3 is_stmt 1 view .LVU24
  89              	.LVL2:
  90              		.loc 1 79 3 view .LVU25
  91              		.loc 1 79 11 is_stmt 0 view .LVU26
  92 0010 082093E5 		ldr	r2, [r3, #8]
  93              	.LVL3:
  94              		.loc 1 79 9 view .LVU27
  95 0014 020051E1 		cmp	r1, r2
  96 0018 0400009A 		bls	.L6
  97              	.L7:
  98              		.loc 1 80 5 is_stmt 1 view .LVU28
  99              		.loc 1 81 7 is_stmt 0 view .LVU29
 100 001c 003093E5 		ldr	r3, [r3]
 101              	.LVL4:
 102              		.loc 1 80 10 view .LVU30
 103 0020 021041E0 		sub	r1, r1, r2
 104              	.LVL5:
 105              		.loc 1 81 5 is_stmt 1 view .LVU31
 106              		.loc 1 79 11 is_stmt 0 view .LVU32
 107 0024 082093E5 		ldr	r2, [r3, #8]
 108              		.loc 1 79 9 view .LVU33
 109 0028 010052E1 		cmp	r2, r1
 110 002c FAFFFF3A 		bcc	.L7
 111              	.L6:
 112              		.loc 1 84 3 is_stmt 1 view .LVU34
 113              		.loc 1 84 36 is_stmt 0 view .LVU35
 114 0030 042093E5 		ldr	r2, [r3, #4]
ARM GAS  /var/folders/l5/0x54b2c10074c8bt31ycjvl80000gp/T//ccBvZYEp.s 			page 3


 115              		.loc 1 84 32 view .LVU36
 116 0034 003080E5 		str	r3, [r0]
 117              		.loc 1 84 16 view .LVU37
 118 0038 042080E5 		str	r2, [r0, #4]
 119              		.loc 1 85 3 is_stmt 1 view .LVU38
 120              		.loc 1 85 38 is_stmt 0 view .LVU39
 121 003c 040083E5 		str	r0, [r3, #4]
 122              		.loc 1 85 25 view .LVU40
 123 0040 042090E5 		ldr	r2, [r0, #4]
 124              		.loc 1 87 6 view .LVU41
 125 0044 0C0053E1 		cmp	r3, ip
 126              		.loc 1 85 25 view .LVU42
 127 0048 000082E5 		str	r0, [r2]
 128              		.loc 1 86 3 is_stmt 1 view .LVU43
 129              		.loc 1 86 16 is_stmt 0 view .LVU44
 130 004c 081080E5 		str	r1, [r0, #8]
 131              		.loc 1 87 3 is_stmt 1 view .LVU45
 132              		.loc 1 88 5 view .LVU46
 133              		.loc 1 88 16 is_stmt 0 view .LVU47
 134 0050 08209315 		ldrne	r2, [r3, #8]
 135 0054 01104210 		subne	r1, r2, r1
 136              	.LVL6:
 137              		.loc 1 88 16 view .LVU48
 138 0058 08108315 		strne	r1, [r3, #8]
 139              	.LVL7:
 140              		.loc 1 89 1 view .LVU49
 141 005c 1EFF2FE1 		bx	lr
 142              	.L11:
 143              		.align	2
 144              	.L10:
 145 0060 00000000 		.word	vtlist
 146              		.cfi_endproc
 147              	.LFE8:
 148              		.size	chVTSetI, .-chVTSetI
 149              		.section	.text.chVTResetI,"ax",%progbits
 150              		.align	2
 151              		.global	chVTResetI
 152              		.syntax unified
 153              		.arm
 154              		.fpu softvfp
 155              		.type	chVTResetI, %function
 156              	chVTResetI:
 157              	.LVL8:
 158              	.LFB9:
 159              		.loc 1 99 36 is_stmt 1 view -0
 160              		.cfi_startproc
 161              		@ args = 0, pretend = 0, frame = 0
 162              		@ frame_needed = 0, uses_anonymous_args = 0
 163              		@ link register save eliminated.
 164              		.loc 1 101 3 view .LVU51
 165              		.loc 1 101 21 view .LVU52
 166              		.loc 1 102 3 view .LVU53
 167              		.loc 1 102 40 view .LVU54
 168              		.loc 1 103 3 view .LVU55
 169              		.loc 1 105 52 view .LVU56
 170              		.loc 1 107 3 view .LVU57
 171              		.loc 1 107 10 is_stmt 0 view .LVU58
ARM GAS  /var/folders/l5/0x54b2c10074c8bt31ycjvl80000gp/T//ccBvZYEp.s 			page 4


 172 0000 003090E5 		ldr	r3, [r0]
 173              		.loc 1 107 6 view .LVU59
 174 0004 2C209FE5 		ldr	r2, .L14
 175 0008 020053E1 		cmp	r3, r2
 176              		.loc 1 108 5 is_stmt 1 view .LVU60
 177              		.loc 1 108 27 is_stmt 0 view .LVU61
 178 000c 08209315 		ldrne	r2, [r3, #8]
 179 0010 08109015 		ldrne	r1, [r0, #8]
 180 0014 01208210 		addne	r2, r2, r1
 181              		.loc 1 111 16 view .LVU62
 182 0018 0010A0E3 		mov	r1, #0
 183              		.loc 1 108 27 view .LVU63
 184 001c 08208315 		strne	r2, [r3, #8]
 185              		.loc 1 109 3 is_stmt 1 view .LVU64
 186              		.loc 1 109 6 is_stmt 0 view .LVU65
 187 0020 042090E5 		ldr	r2, [r0, #4]
 188              		.loc 1 109 25 view .LVU66
 189 0024 003082E5 		str	r3, [r2]
 190              		.loc 1 110 3 is_stmt 1 view .LVU67
 191              		.loc 1 110 25 is_stmt 0 view .LVU68
 192 0028 003090E5 		ldr	r3, [r0]
 193 002c 042083E5 		str	r2, [r3, #4]
 194              		.loc 1 111 3 is_stmt 1 view .LVU69
 195              		.loc 1 111 16 is_stmt 0 view .LVU70
 196 0030 0C1080E5 		str	r1, [r0, #12]
 197              		.loc 1 112 1 view .LVU71
 198 0034 1EFF2FE1 		bx	lr
 199              	.L15:
 200              		.align	2
 201              	.L14:
 202 0038 00000000 		.word	vtlist
 203              		.cfi_endproc
 204              	.LFE9:
 205              		.size	chVTResetI, .-chVTResetI
 206              		.section	.text.chTimeIsWithin,"ax",%progbits
 207              		.align	2
 208              		.global	chTimeIsWithin
 209              		.syntax unified
 210              		.arm
 211              		.fpu softvfp
 212              		.type	chTimeIsWithin, %function
 213              	chTimeIsWithin:
 214              	.LVL9:
 215              	.LFB10:
 216              		.loc 1 127 55 is_stmt 1 view -0
 217              		.cfi_startproc
 218              		@ args = 0, pretend = 0, frame = 0
 219              		@ frame_needed = 0, uses_anonymous_args = 0
 220              		@ link register save eliminated.
 221              		.loc 1 129 3 view .LVU73
 222              		.loc 1 129 13 is_stmt 0 view .LVU74
 223 0000 3C309FE5 		ldr	r3, .L19
 224              		.loc 1 130 56 view .LVU75
 225 0004 000051E1 		cmp	r1, r0
 226              		.loc 1 129 13 view .LVU76
 227 0008 0C3093E5 		ldr	r3, [r3, #12]
 228              	.LVL10:
ARM GAS  /var/folders/l5/0x54b2c10074c8bt31ycjvl80000gp/T//ccBvZYEp.s 			page 5


 229              		.loc 1 130 3 is_stmt 1 view .LVU77
 230              		.loc 1 130 56 is_stmt 0 view .LVU78
 231 000c 0500009A 		bls	.L17
 232              		.loc 1 130 56 discriminator 1 view .LVU79
 233 0010 000053E1 		cmp	r3, r0
 234 0014 0100A023 		movcs	r0, #1
 235              	.LVL11:
 236              		.loc 1 130 56 discriminator 1 view .LVU80
 237 0018 0000A033 		movcc	r0, #0
 238 001c 010053E1 		cmp	r3, r1
 239 0020 0000A023 		movcs	r0, #0
 240 0024 1EFF2FE1 		bx	lr
 241              	.LVL12:
 242              	.L17:
 243              		.loc 1 131 49 discriminator 2 view .LVU81
 244 0028 010053E1 		cmp	r3, r1
 245 002c 0010A023 		movcs	r1, #0
 246              	.LVL13:
 247              		.loc 1 131 49 discriminator 2 view .LVU82
 248 0030 0110A033 		movcc	r1, #1
 249              		.loc 1 130 56 discriminator 2 view .LVU83
 250 0034 000053E1 		cmp	r3, r0
 251 0038 0100A031 		movcc	r0, r1
 252 003c 01008123 		orrcs	r0, r1, #1
 253              	.LVL14:
 254              		.loc 1 132 1 discriminator 2 view .LVU84
 255 0040 1EFF2FE1 		bx	lr
 256              	.L20:
 257              		.align	2
 258              	.L19:
 259 0044 00000000 		.word	vtlist
 260              		.cfi_endproc
 261              	.LFE10:
 262              		.size	chTimeIsWithin, .-chTimeIsWithin
 263              		.comm	vtlist,16,4
 264              		.text
 265              	.Letext0:
 266              		.file 2 "/usr/local/Cellar/arm-gcc-bin/8-2019-q3-update/arm-none-eabi/include/machine/_default_typ
 267              		.file 3 "/usr/local/Cellar/arm-gcc-bin/8-2019-q3-update/arm-none-eabi/include/sys/_stdint.h"
 268              		.file 4 "../../os/ports/GCC/ARM/chtypes.h"
 269              		.file 5 "../../os/kernel/include/chlists.h"
 270              		.file 6 "../../os/kernel/include/chthreads.h"
 271              		.file 7 "../../os/ports/GCC/ARM/chcore.h"
 272              		.file 8 "../../os/kernel/include/chvt.h"
 273              		.file 9 "../../os/kernel/include/chschd.h"
 274              		.file 10 "../../os/kernel/include/chmtx.h"
 275              		.file 11 "../../os/kernel/include/chregistry.h"
 276              		.file 12 "../../os/kernel/include/ch.h"
 277              		.section	.debug_info,"",%progbits
 278              	.Ldebug_info0:
 279 0000 83070000 		.4byte	0x783
 280 0004 0400     		.2byte	0x4
 281 0006 00000000 		.4byte	.Ldebug_abbrev0
 282 000a 04       		.byte	0x4
 283 000b 01       		.uleb128 0x1
 284 000c 9E010000 		.4byte	.LASF104
 285 0010 0C       		.byte	0xc
ARM GAS  /var/folders/l5/0x54b2c10074c8bt31ycjvl80000gp/T//ccBvZYEp.s 			page 6


 286 0011 95040000 		.4byte	.LASF105
 287 0015 E4020000 		.4byte	.LASF106
 288 0019 00000000 		.4byte	.Ldebug_ranges0+0
 289 001d 00000000 		.4byte	0
 290 0021 00000000 		.4byte	.Ldebug_line0
 291 0025 02       		.uleb128 0x2
 292 0026 04       		.byte	0x4
 293 0027 05       		.byte	0x5
 294 0028 696E7400 		.ascii	"int\000"
 295 002c 03       		.uleb128 0x3
 296 002d 04       		.byte	0x4
 297 002e 07       		.byte	0x7
 298 002f 2E010000 		.4byte	.LASF0
 299 0033 03       		.uleb128 0x3
 300 0034 01       		.byte	0x1
 301 0035 06       		.byte	0x6
 302 0036 93000000 		.4byte	.LASF1
 303 003a 04       		.uleb128 0x4
 304 003b 1A000000 		.4byte	.LASF4
 305 003f 02       		.byte	0x2
 306 0040 2B       		.byte	0x2b
 307 0041 18       		.byte	0x18
 308 0042 46000000 		.4byte	0x46
 309 0046 03       		.uleb128 0x3
 310 0047 01       		.byte	0x1
 311 0048 08       		.byte	0x8
 312 0049 7B030000 		.4byte	.LASF2
 313 004d 03       		.uleb128 0x3
 314 004e 02       		.byte	0x2
 315 004f 05       		.byte	0x5
 316 0050 93030000 		.4byte	.LASF3
 317 0054 04       		.uleb128 0x4
 318 0055 3D040000 		.4byte	.LASF5
 319 0059 02       		.byte	0x2
 320 005a 39       		.byte	0x39
 321 005b 19       		.byte	0x19
 322 005c 60000000 		.4byte	0x60
 323 0060 03       		.uleb128 0x3
 324 0061 02       		.byte	0x2
 325 0062 07       		.byte	0x7
 326 0063 7D010000 		.4byte	.LASF6
 327 0067 04       		.uleb128 0x4
 328 0068 64040000 		.4byte	.LASF7
 329 006c 02       		.byte	0x2
 330 006d 4D       		.byte	0x4d
 331 006e 18       		.byte	0x18
 332 006f 73000000 		.4byte	0x73
 333 0073 03       		.uleb128 0x3
 334 0074 04       		.byte	0x4
 335 0075 05       		.byte	0x5
 336 0076 D5000000 		.4byte	.LASF8
 337 007a 04       		.uleb128 0x4
 338 007b 12010000 		.4byte	.LASF9
 339 007f 02       		.byte	0x2
 340 0080 4F       		.byte	0x4f
 341 0081 19       		.byte	0x19
 342 0082 86000000 		.4byte	0x86
ARM GAS  /var/folders/l5/0x54b2c10074c8bt31ycjvl80000gp/T//ccBvZYEp.s 			page 7


 343 0086 03       		.uleb128 0x3
 344 0087 04       		.byte	0x4
 345 0088 07       		.byte	0x7
 346 0089 43010000 		.4byte	.LASF10
 347 008d 03       		.uleb128 0x3
 348 008e 08       		.byte	0x8
 349 008f 05       		.byte	0x5
 350 0090 85000000 		.4byte	.LASF11
 351 0094 03       		.uleb128 0x3
 352 0095 08       		.byte	0x8
 353 0096 07       		.byte	0x7
 354 0097 3A000000 		.4byte	.LASF12
 355 009b 04       		.uleb128 0x4
 356 009c DD040000 		.4byte	.LASF13
 357 00a0 03       		.byte	0x3
 358 00a1 18       		.byte	0x18
 359 00a2 13       		.byte	0x13
 360 00a3 3A000000 		.4byte	0x3a
 361 00a7 04       		.uleb128 0x4
 362 00a8 E7000000 		.4byte	.LASF14
 363 00ac 03       		.byte	0x3
 364 00ad 24       		.byte	0x24
 365 00ae 14       		.byte	0x14
 366 00af 54000000 		.4byte	0x54
 367 00b3 04       		.uleb128 0x4
 368 00b4 73030000 		.4byte	.LASF15
 369 00b8 03       		.byte	0x3
 370 00b9 2C       		.byte	0x2c
 371 00ba 13       		.byte	0x13
 372 00bb 67000000 		.4byte	0x67
 373 00bf 04       		.uleb128 0x4
 374 00c0 0E040000 		.4byte	.LASF16
 375 00c4 03       		.byte	0x3
 376 00c5 30       		.byte	0x30
 377 00c6 14       		.byte	0x14
 378 00c7 7A000000 		.4byte	0x7a
 379 00cb 04       		.uleb128 0x4
 380 00cc BC000000 		.4byte	.LASF17
 381 00d0 04       		.byte	0x4
 382 00d1 29       		.byte	0x29
 383 00d2 19       		.byte	0x19
 384 00d3 B3000000 		.4byte	0xb3
 385 00d7 04       		.uleb128 0x4
 386 00d8 6E020000 		.4byte	.LASF18
 387 00dc 04       		.byte	0x4
 388 00dd 2A       		.byte	0x2a
 389 00de 19       		.byte	0x19
 390 00df 9B000000 		.4byte	0x9b
 391 00e3 04       		.uleb128 0x4
 392 00e4 DE000000 		.4byte	.LASF19
 393 00e8 04       		.byte	0x4
 394 00e9 2B       		.byte	0x2b
 395 00ea 19       		.byte	0x19
 396 00eb 9B000000 		.4byte	0x9b
 397 00ef 04       		.uleb128 0x4
 398 00f0 51030000 		.4byte	.LASF20
 399 00f4 04       		.byte	0x4
ARM GAS  /var/folders/l5/0x54b2c10074c8bt31ycjvl80000gp/T//ccBvZYEp.s 			page 8


 400 00f5 2C       		.byte	0x2c
 401 00f6 19       		.byte	0x19
 402 00f7 9B000000 		.4byte	0x9b
 403 00fb 04       		.uleb128 0x4
 404 00fc CB000000 		.4byte	.LASF21
 405 0100 04       		.byte	0x4
 406 0101 2D       		.byte	0x2d
 407 0102 19       		.byte	0x19
 408 0103 9B000000 		.4byte	0x9b
 409 0107 04       		.uleb128 0x4
 410 0108 6B030000 		.4byte	.LASF22
 411 010c 04       		.byte	0x4
 412 010d 2E       		.byte	0x2e
 413 010e 19       		.byte	0x19
 414 010f BF000000 		.4byte	0xbf
 415 0113 04       		.uleb128 0x4
 416 0114 90010000 		.4byte	.LASF23
 417 0118 04       		.byte	0x4
 418 0119 2F       		.byte	0x2f
 419 011a 19       		.byte	0x19
 420 011b B3000000 		.4byte	0xb3
 421 011f 04       		.uleb128 0x4
 422 0120 82020000 		.4byte	.LASF24
 423 0124 04       		.byte	0x4
 424 0125 31       		.byte	0x31
 425 0126 19       		.byte	0x19
 426 0127 BF000000 		.4byte	0xbf
 427 012b 04       		.uleb128 0x4
 428 012c 4F040000 		.4byte	.LASF25
 429 0130 04       		.byte	0x4
 430 0131 33       		.byte	0x33
 431 0132 19       		.byte	0x19
 432 0133 BF000000 		.4byte	0xbf
 433 0137 05       		.uleb128 0x5
 434 0138 2B010000 		.4byte	0x12b
 435 013c 04       		.uleb128 0x4
 436 013d EF030000 		.4byte	.LASF26
 437 0141 05       		.byte	0x5
 438 0142 23       		.byte	0x23
 439 0143 17       		.byte	0x17
 440 0144 48010000 		.4byte	0x148
 441 0148 06       		.uleb128 0x6
 442 0149 EF030000 		.4byte	.LASF26
 443 014d 44       		.byte	0x44
 444 014e 06       		.byte	0x6
 445 014f 57       		.byte	0x57
 446 0150 08       		.byte	0x8
 447 0151 4D020000 		.4byte	0x24d
 448 0155 07       		.uleb128 0x7
 449 0156 D1030000 		.4byte	.LASF27
 450 015a 06       		.byte	0x6
 451 015b 58       		.byte	0x58
 452 015c 1A       		.byte	0x1a
 453 015d 71020000 		.4byte	0x271
 454 0161 00       		.byte	0
 455 0162 07       		.uleb128 0x7
 456 0163 64030000 		.4byte	.LASF28
ARM GAS  /var/folders/l5/0x54b2c10074c8bt31ycjvl80000gp/T//ccBvZYEp.s 			page 9


 457 0167 06       		.byte	0x6
 458 0168 5A       		.byte	0x5a
 459 0169 1A       		.byte	0x1a
 460 016a 71020000 		.4byte	0x271
 461 016e 04       		.byte	0x4
 462 016f 07       		.uleb128 0x7
 463 0170 68000000 		.4byte	.LASF29
 464 0174 06       		.byte	0x6
 465 0175 5C       		.byte	0x5c
 466 0176 19       		.byte	0x19
 467 0177 07010000 		.4byte	0x107
 468 017b 08       		.byte	0x8
 469 017c 07       		.uleb128 0x7
 470 017d 1E050000 		.4byte	.LASF30
 471 0181 06       		.byte	0x6
 472 0182 5D       		.byte	0x5d
 473 0183 19       		.byte	0x19
 474 0184 3C030000 		.4byte	0x33c
 475 0188 0C       		.byte	0xc
 476 0189 07       		.uleb128 0x7
 477 018a FA000000 		.4byte	.LASF31
 478 018e 06       		.byte	0x6
 479 018f 5F       		.byte	0x5f
 480 0190 1A       		.byte	0x1a
 481 0191 71020000 		.4byte	0x271
 482 0195 10       		.byte	0x10
 483 0196 07       		.uleb128 0x7
 484 0197 BB030000 		.4byte	.LASF32
 485 019b 06       		.byte	0x6
 486 019c 60       		.byte	0x60
 487 019d 1A       		.byte	0x1a
 488 019e 71020000 		.4byte	0x271
 489 01a2 14       		.byte	0x14
 490 01a3 07       		.uleb128 0x7
 491 01a4 EC040000 		.4byte	.LASF33
 492 01a8 06       		.byte	0x6
 493 01a9 67       		.byte	0x67
 494 01aa 1A       		.byte	0x1a
 495 01ab 22050000 		.4byte	0x522
 496 01af 18       		.byte	0x18
 497 01b0 07       		.uleb128 0x7
 498 01b1 9D030000 		.4byte	.LASF34
 499 01b5 06       		.byte	0x6
 500 01b6 72       		.byte	0x72
 501 01b7 19       		.byte	0x19
 502 01b8 E3000000 		.4byte	0xe3
 503 01bc 1C       		.byte	0x1c
 504 01bd 07       		.uleb128 0x7
 505 01be E7030000 		.4byte	.LASF35
 506 01c2 06       		.byte	0x6
 507 01c3 76       		.byte	0x76
 508 01c4 19       		.byte	0x19
 509 01c5 D7000000 		.4byte	0xd7
 510 01c9 1D       		.byte	0x1d
 511 01ca 07       		.uleb128 0x7
 512 01cb BB040000 		.4byte	.LASF36
 513 01cf 06       		.byte	0x6
ARM GAS  /var/folders/l5/0x54b2c10074c8bt31ycjvl80000gp/T//ccBvZYEp.s 			page 10


 514 01d0 7B       		.byte	0x7b
 515 01d1 19       		.byte	0x19
 516 01d2 EF000000 		.4byte	0xef
 517 01d6 1E       		.byte	0x1e
 518 01d7 07       		.uleb128 0x7
 519 01d8 A5030000 		.4byte	.LASF37
 520 01dc 06       		.byte	0x6
 521 01dd 81       		.byte	0x81
 522 01de 19       		.byte	0x19
 523 01df FB000000 		.4byte	0xfb
 524 01e3 1F       		.byte	0x1f
 525 01e4 07       		.uleb128 0x7
 526 01e5 6E040000 		.4byte	.LASF38
 527 01e9 06       		.byte	0x6
 528 01ea 88       		.byte	0x88
 529 01eb 19       		.byte	0x19
 530 01ec 37010000 		.4byte	0x137
 531 01f0 20       		.byte	0x20
 532 01f1 08       		.uleb128 0x8
 533 01f2 705F7500 		.ascii	"p_u\000"
 534 01f6 06       		.byte	0x6
 535 01f7 AD       		.byte	0xad
 536 01f8 19       		.byte	0x19
 537 01f9 E8040000 		.4byte	0x4e8
 538 01fd 24       		.byte	0x24
 539 01fe 07       		.uleb128 0x7
 540 01ff 24050000 		.4byte	.LASF39
 541 0203 06       		.byte	0x6
 542 0204 B2       		.byte	0xb2
 543 0205 19       		.byte	0x19
 544 0206 9A020000 		.4byte	0x29a
 545 020a 28       		.byte	0x28
 546 020b 07       		.uleb128 0x7
 547 020c 7C040000 		.4byte	.LASF40
 548 0210 06       		.byte	0x6
 549 0211 B8       		.byte	0xb8
 550 0212 19       		.byte	0x19
 551 0213 77020000 		.4byte	0x277
 552 0217 2C       		.byte	0x2c
 553 0218 07       		.uleb128 0x7
 554 0219 0D000000 		.4byte	.LASF41
 555 021d 06       		.byte	0x6
 556 021e BC       		.byte	0xbc
 557 021f 19       		.byte	0x19
 558 0220 13010000 		.4byte	0x113
 559 0224 34       		.byte	0x34
 560 0225 07       		.uleb128 0x7
 561 0226 03040000 		.4byte	.LASF42
 562 022a 06       		.byte	0x6
 563 022b C2       		.byte	0xc2
 564 022c 19       		.byte	0x19
 565 022d 1F010000 		.4byte	0x11f
 566 0231 38       		.byte	0x38
 567 0232 07       		.uleb128 0x7
 568 0233 89030000 		.4byte	.LASF43
 569 0237 06       		.byte	0x6
 570 0238 C9       		.byte	0xc9
ARM GAS  /var/folders/l5/0x54b2c10074c8bt31ycjvl80000gp/T//ccBvZYEp.s 			page 11


 571 0239 1A       		.byte	0x1a
 572 023a 34050000 		.4byte	0x534
 573 023e 3C       		.byte	0x3c
 574 023f 07       		.uleb128 0x7
 575 0240 59040000 		.4byte	.LASF44
 576 0244 06       		.byte	0x6
 577 0245 CD       		.byte	0xcd
 578 0246 19       		.byte	0x19
 579 0247 07010000 		.4byte	0x107
 580 024b 40       		.byte	0x40
 581 024c 00       		.byte	0
 582 024d 09       		.uleb128 0x9
 583 024e 08       		.byte	0x8
 584 024f 05       		.byte	0x5
 585 0250 5A       		.byte	0x5a
 586 0251 09       		.byte	0x9
 587 0252 71020000 		.4byte	0x271
 588 0256 07       		.uleb128 0x7
 589 0257 D1030000 		.4byte	.LASF27
 590 025b 05       		.byte	0x5
 591 025c 5B       		.byte	0x5b
 592 025d 1A       		.byte	0x1a
 593 025e 71020000 		.4byte	0x271
 594 0262 00       		.byte	0
 595 0263 07       		.uleb128 0x7
 596 0264 64030000 		.4byte	.LASF28
 597 0268 05       		.byte	0x5
 598 0269 5D       		.byte	0x5d
 599 026a 1A       		.byte	0x1a
 600 026b 71020000 		.4byte	0x271
 601 026f 04       		.byte	0x4
 602 0270 00       		.byte	0
 603 0271 0A       		.uleb128 0xa
 604 0272 04       		.byte	0x4
 605 0273 3C010000 		.4byte	0x13c
 606 0277 04       		.uleb128 0x4
 607 0278 25030000 		.4byte	.LASF45
 608 027c 05       		.byte	0x5
 609 027d 5F       		.byte	0x5f
 610 027e 03       		.byte	0x3
 611 027f 4D020000 		.4byte	0x24d
 612 0283 09       		.uleb128 0x9
 613 0284 04       		.byte	0x4
 614 0285 05       		.byte	0x5
 615 0286 64       		.byte	0x64
 616 0287 09       		.byte	0x9
 617 0288 9A020000 		.4byte	0x29a
 618 028c 07       		.uleb128 0x7
 619 028d D1030000 		.4byte	.LASF27
 620 0291 05       		.byte	0x5
 621 0292 66       		.byte	0x66
 622 0293 16       		.byte	0x16
 623 0294 71020000 		.4byte	0x271
 624 0298 00       		.byte	0
 625 0299 00       		.byte	0
 626 029a 04       		.uleb128 0x4
 627 029b 76020000 		.4byte	.LASF46
ARM GAS  /var/folders/l5/0x54b2c10074c8bt31ycjvl80000gp/T//ccBvZYEp.s 			page 12


 628 029f 05       		.byte	0x5
 629 02a0 69       		.byte	0x69
 630 02a1 03       		.byte	0x3
 631 02a2 83020000 		.4byte	0x283
 632 02a6 04       		.uleb128 0x4
 633 02a7 94020000 		.4byte	.LASF47
 634 02ab 07       		.byte	0x7
 635 02ac 9D       		.byte	0x9d
 636 02ad 12       		.byte	0x12
 637 02ae BF000000 		.4byte	0xbf
 638 02b2 04       		.uleb128 0x4
 639 02b3 1D010000 		.4byte	.LASF48
 640 02b7 07       		.byte	0x7
 641 02b8 A2       		.byte	0xa2
 642 02b9 0F       		.byte	0xf
 643 02ba BE020000 		.4byte	0x2be
 644 02be 0B       		.uleb128 0xb
 645 02bf 04       		.byte	0x4
 646 02c0 06       		.uleb128 0x6
 647 02c1 75040000 		.4byte	.LASF49
 648 02c5 24       		.byte	0x24
 649 02c6 07       		.byte	0x7
 650 02c7 B9       		.byte	0xb9
 651 02c8 08       		.byte	0x8
 652 02c9 3C030000 		.4byte	0x33c
 653 02cd 08       		.uleb128 0x8
 654 02ce 723400   		.ascii	"r4\000"
 655 02d1 07       		.byte	0x7
 656 02d2 BA       		.byte	0xba
 657 02d3 11       		.byte	0x11
 658 02d4 B2020000 		.4byte	0x2b2
 659 02d8 00       		.byte	0
 660 02d9 08       		.uleb128 0x8
 661 02da 723500   		.ascii	"r5\000"
 662 02dd 07       		.byte	0x7
 663 02de BB       		.byte	0xbb
 664 02df 11       		.byte	0x11
 665 02e0 B2020000 		.4byte	0x2b2
 666 02e4 04       		.byte	0x4
 667 02e5 08       		.uleb128 0x8
 668 02e6 723600   		.ascii	"r6\000"
 669 02e9 07       		.byte	0x7
 670 02ea BC       		.byte	0xbc
 671 02eb 11       		.byte	0x11
 672 02ec B2020000 		.4byte	0x2b2
 673 02f0 08       		.byte	0x8
 674 02f1 08       		.uleb128 0x8
 675 02f2 723700   		.ascii	"r7\000"
 676 02f5 07       		.byte	0x7
 677 02f6 BD       		.byte	0xbd
 678 02f7 11       		.byte	0x11
 679 02f8 B2020000 		.4byte	0x2b2
 680 02fc 0C       		.byte	0xc
 681 02fd 08       		.uleb128 0x8
 682 02fe 723800   		.ascii	"r8\000"
 683 0301 07       		.byte	0x7
 684 0302 BE       		.byte	0xbe
ARM GAS  /var/folders/l5/0x54b2c10074c8bt31ycjvl80000gp/T//ccBvZYEp.s 			page 13


 685 0303 11       		.byte	0x11
 686 0304 B2020000 		.4byte	0x2b2
 687 0308 10       		.byte	0x10
 688 0309 08       		.uleb128 0x8
 689 030a 723900   		.ascii	"r9\000"
 690 030d 07       		.byte	0x7
 691 030e BF       		.byte	0xbf
 692 030f 11       		.byte	0x11
 693 0310 B2020000 		.4byte	0x2b2
 694 0314 14       		.byte	0x14
 695 0315 08       		.uleb128 0x8
 696 0316 72313000 		.ascii	"r10\000"
 697 031a 07       		.byte	0x7
 698 031b C0       		.byte	0xc0
 699 031c 11       		.byte	0x11
 700 031d B2020000 		.4byte	0x2b2
 701 0321 18       		.byte	0x18
 702 0322 08       		.uleb128 0x8
 703 0323 72313100 		.ascii	"r11\000"
 704 0327 07       		.byte	0x7
 705 0328 C1       		.byte	0xc1
 706 0329 11       		.byte	0x11
 707 032a B2020000 		.4byte	0x2b2
 708 032e 1C       		.byte	0x1c
 709 032f 08       		.uleb128 0x8
 710 0330 6C7200   		.ascii	"lr\000"
 711 0333 07       		.byte	0x7
 712 0334 C2       		.byte	0xc2
 713 0335 11       		.byte	0x11
 714 0336 B2020000 		.4byte	0x2b2
 715 033a 20       		.byte	0x20
 716 033b 00       		.byte	0
 717 033c 06       		.uleb128 0x6
 718 033d 75010000 		.4byte	.LASF50
 719 0341 04       		.byte	0x4
 720 0342 07       		.byte	0x7
 721 0343 CA       		.byte	0xca
 722 0344 08       		.byte	0x8
 723 0345 57030000 		.4byte	0x357
 724 0349 08       		.uleb128 0x8
 725 034a 72313300 		.ascii	"r13\000"
 726 034e 07       		.byte	0x7
 727 034f CB       		.byte	0xcb
 728 0350 12       		.byte	0x12
 729 0351 57030000 		.4byte	0x357
 730 0355 00       		.byte	0
 731 0356 00       		.byte	0
 732 0357 0A       		.uleb128 0xa
 733 0358 04       		.byte	0x4
 734 0359 C0020000 		.4byte	0x2c0
 735 035d 04       		.uleb128 0x4
 736 035e 5E010000 		.4byte	.LASF51
 737 0362 08       		.byte	0x8
 738 0363 4E       		.byte	0x4e
 739 0364 10       		.byte	0x10
 740 0365 69030000 		.4byte	0x369
 741 0369 0A       		.uleb128 0xa
ARM GAS  /var/folders/l5/0x54b2c10074c8bt31ycjvl80000gp/T//ccBvZYEp.s 			page 14


 742 036a 04       		.byte	0x4
 743 036b 6F030000 		.4byte	0x36f
 744 036f 0C       		.uleb128 0xc
 745 0370 7A030000 		.4byte	0x37a
 746 0374 0D       		.uleb128 0xd
 747 0375 BE020000 		.4byte	0x2be
 748 0379 00       		.byte	0
 749 037a 04       		.uleb128 0x4
 750 037b 2B040000 		.4byte	.LASF52
 751 037f 08       		.byte	0x8
 752 0380 53       		.byte	0x53
 753 0381 1D       		.byte	0x1d
 754 0382 86030000 		.4byte	0x386
 755 0386 06       		.uleb128 0x6
 756 0387 2B040000 		.4byte	.LASF52
 757 038b 14       		.byte	0x14
 758 038c 08       		.byte	0x8
 759 038d 5A       		.byte	0x5a
 760 038e 08       		.byte	0x8
 761 038f D5030000 		.4byte	0x3d5
 762 0393 07       		.uleb128 0x7
 763 0394 3B010000 		.4byte	.LASF53
 764 0398 08       		.byte	0x8
 765 0399 5B       		.byte	0x5b
 766 039a 1A       		.byte	0x1a
 767 039b D5030000 		.4byte	0x3d5
 768 039f 00       		.byte	0
 769 03a0 07       		.uleb128 0x7
 770 03a1 26010000 		.4byte	.LASF54
 771 03a5 08       		.byte	0x8
 772 03a6 5D       		.byte	0x5d
 773 03a7 1A       		.byte	0x1a
 774 03a8 D5030000 		.4byte	0x3d5
 775 03ac 04       		.byte	0x4
 776 03ad 07       		.uleb128 0x7
 777 03ae B3020000 		.4byte	.LASF55
 778 03b2 08       		.byte	0x8
 779 03b3 5F       		.byte	0x5f
 780 03b4 19       		.byte	0x19
 781 03b5 2B010000 		.4byte	0x12b
 782 03b9 08       		.byte	0x8
 783 03ba 07       		.uleb128 0x7
 784 03bb BB020000 		.4byte	.LASF56
 785 03bf 08       		.byte	0x8
 786 03c0 60       		.byte	0x60
 787 03c1 19       		.byte	0x19
 788 03c2 5D030000 		.4byte	0x35d
 789 03c6 0C       		.byte	0xc
 790 03c7 07       		.uleb128 0x7
 791 03c8 87040000 		.4byte	.LASF57
 792 03cc 08       		.byte	0x8
 793 03cd 62       		.byte	0x62
 794 03ce 1A       		.byte	0x1a
 795 03cf BE020000 		.4byte	0x2be
 796 03d3 10       		.byte	0x10
 797 03d4 00       		.byte	0
 798 03d5 0A       		.uleb128 0xa
ARM GAS  /var/folders/l5/0x54b2c10074c8bt31ycjvl80000gp/T//ccBvZYEp.s 			page 15


 799 03d6 04       		.byte	0x4
 800 03d7 7A030000 		.4byte	0x37a
 801 03db 09       		.uleb128 0x9
 802 03dc 10       		.byte	0x10
 803 03dd 08       		.byte	0x8
 804 03de 6C       		.byte	0x6c
 805 03df 09       		.byte	0x9
 806 03e0 19040000 		.4byte	0x419
 807 03e4 07       		.uleb128 0x7
 808 03e5 3B010000 		.4byte	.LASF53
 809 03e9 08       		.byte	0x8
 810 03ea 6D       		.byte	0x6d
 811 03eb 1A       		.byte	0x1a
 812 03ec D5030000 		.4byte	0x3d5
 813 03f0 00       		.byte	0
 814 03f1 07       		.uleb128 0x7
 815 03f2 26010000 		.4byte	.LASF54
 816 03f6 08       		.byte	0x8
 817 03f7 6F       		.byte	0x6f
 818 03f8 1A       		.byte	0x1a
 819 03f9 D5030000 		.4byte	0x3d5
 820 03fd 04       		.byte	0x4
 821 03fe 07       		.uleb128 0x7
 822 03ff B3020000 		.4byte	.LASF55
 823 0403 08       		.byte	0x8
 824 0404 71       		.byte	0x71
 825 0405 19       		.byte	0x19
 826 0406 2B010000 		.4byte	0x12b
 827 040a 08       		.byte	0x8
 828 040b 07       		.uleb128 0x7
 829 040c F3040000 		.4byte	.LASF58
 830 0410 08       		.byte	0x8
 831 0411 72       		.byte	0x72
 832 0412 19       		.byte	0x19
 833 0413 37010000 		.4byte	0x137
 834 0417 0C       		.byte	0xc
 835 0418 00       		.byte	0
 836 0419 04       		.uleb128 0x4
 837 041a 0F050000 		.4byte	.LASF59
 838 041e 08       		.byte	0x8
 839 041f 73       		.byte	0x73
 840 0420 03       		.byte	0x3
 841 0421 DB030000 		.4byte	0x3db
 842 0425 0E       		.uleb128 0xe
 843 0426 24000000 		.4byte	.LASF67
 844 042a 08       		.byte	0x8
 845 042b D1       		.byte	0xd1
 846 042c 0F       		.byte	0xf
 847 042d 19040000 		.4byte	0x419
 848 0431 09       		.uleb128 0x9
 849 0432 1C       		.byte	0x1c
 850 0433 09       		.byte	0x9
 851 0434 57       		.byte	0x57
 852 0435 09       		.byte	0x9
 853 0436 89040000 		.4byte	0x489
 854 043a 07       		.uleb128 0x7
 855 043b 23040000 		.4byte	.LASF60
ARM GAS  /var/folders/l5/0x54b2c10074c8bt31ycjvl80000gp/T//ccBvZYEp.s 			page 16


 856 043f 09       		.byte	0x9
 857 0440 58       		.byte	0x58
 858 0441 19       		.byte	0x19
 859 0442 77020000 		.4byte	0x277
 860 0446 00       		.byte	0
 861 0447 07       		.uleb128 0x7
 862 0448 C3030000 		.4byte	.LASF61
 863 044c 09       		.byte	0x9
 864 044d 59       		.byte	0x59
 865 044e 19       		.byte	0x19
 866 044f 07010000 		.4byte	0x107
 867 0453 08       		.byte	0x8
 868 0454 07       		.uleb128 0x7
 869 0455 1F030000 		.4byte	.LASF62
 870 0459 09       		.byte	0x9
 871 045a 5B       		.byte	0x5b
 872 045b 19       		.byte	0x19
 873 045c 3C030000 		.4byte	0x33c
 874 0460 0C       		.byte	0xc
 875 0461 07       		.uleb128 0x7
 876 0462 96010000 		.4byte	.LASF63
 877 0466 09       		.byte	0x9
 878 0467 5E       		.byte	0x5e
 879 0468 1A       		.byte	0x1a
 880 0469 71020000 		.4byte	0x271
 881 046d 10       		.byte	0x10
 882 046e 07       		.uleb128 0x7
 883 046f 49030000 		.4byte	.LASF64
 884 0473 09       		.byte	0x9
 885 0474 5F       		.byte	0x5f
 886 0475 1A       		.byte	0x1a
 887 0476 71020000 		.4byte	0x271
 888 047a 14       		.byte	0x14
 889 047b 07       		.uleb128 0x7
 890 047c 3F030000 		.4byte	.LASF65
 891 0480 09       		.byte	0x9
 892 0481 62       		.byte	0x62
 893 0482 1A       		.byte	0x1a
 894 0483 71020000 		.4byte	0x271
 895 0487 18       		.byte	0x18
 896 0488 00       		.byte	0
 897 0489 04       		.uleb128 0x4
 898 048a CD040000 		.4byte	.LASF66
 899 048e 09       		.byte	0x9
 900 048f 64       		.byte	0x64
 901 0490 03       		.byte	0x3
 902 0491 31040000 		.4byte	0x431
 903 0495 0E       		.uleb128 0xe
 904 0496 D7040000 		.4byte	.LASF68
 905 049a 09       		.byte	0x9
 906 049b 68       		.byte	0x68
 907 049c 12       		.byte	0x12
 908 049d 89040000 		.4byte	0x489
 909 04a1 06       		.uleb128 0x6
 910 04a2 8E020000 		.4byte	.LASF69
 911 04a6 10       		.byte	0x10
 912 04a7 0A       		.byte	0xa
ARM GAS  /var/folders/l5/0x54b2c10074c8bt31ycjvl80000gp/T//ccBvZYEp.s 			page 17


 913 04a8 25       		.byte	0x25
 914 04a9 10       		.byte	0x10
 915 04aa D6040000 		.4byte	0x4d6
 916 04ae 07       		.uleb128 0x7
 917 04af C3000000 		.4byte	.LASF70
 918 04b3 0A       		.byte	0xa
 919 04b4 26       		.byte	0x26
 920 04b5 19       		.byte	0x19
 921 04b6 77020000 		.4byte	0x277
 922 04ba 00       		.byte	0
 923 04bb 07       		.uleb128 0x7
 924 04bc 16050000 		.4byte	.LASF71
 925 04c0 0A       		.byte	0xa
 926 04c1 28       		.byte	0x28
 927 04c2 1A       		.byte	0x1a
 928 04c3 71020000 		.4byte	0x271
 929 04c7 08       		.byte	0x8
 930 04c8 07       		.uleb128 0x7
 931 04c9 48040000 		.4byte	.LASF72
 932 04cd 0A       		.byte	0xa
 933 04ce 2A       		.byte	0x2a
 934 04cf 1A       		.byte	0x1a
 935 04d0 D6040000 		.4byte	0x4d6
 936 04d4 0C       		.byte	0xc
 937 04d5 00       		.byte	0
 938 04d6 0A       		.uleb128 0xa
 939 04d7 04       		.byte	0x4
 940 04d8 A1040000 		.4byte	0x4a1
 941 04dc 04       		.uleb128 0x4
 942 04dd 8E020000 		.4byte	.LASF69
 943 04e1 0A       		.byte	0xa
 944 04e2 2C       		.byte	0x2c
 945 04e3 03       		.byte	0x3
 946 04e4 A1040000 		.4byte	0x4a1
 947 04e8 0F       		.uleb128 0xf
 948 04e9 04       		.byte	0x4
 949 04ea 06       		.byte	0x6
 950 04eb 8F       		.byte	0x8f
 951 04ec 03       		.byte	0x3
 952 04ed 22050000 		.4byte	0x522
 953 04f1 10       		.uleb128 0x10
 954 04f2 13000000 		.4byte	.LASF73
 955 04f6 06       		.byte	0x6
 956 04f7 96       		.byte	0x96
 957 04f8 19       		.byte	0x19
 958 04f9 13010000 		.4byte	0x113
 959 04fd 10       		.uleb128 0x10
 960 04fe 5F000000 		.4byte	.LASF74
 961 0502 06       		.byte	0x6
 962 0503 9D       		.byte	0x9d
 963 0504 19       		.byte	0x19
 964 0505 13010000 		.4byte	0x113
 965 0509 10       		.uleb128 0x10
 966 050a E5040000 		.4byte	.LASF75
 967 050e 06       		.byte	0x6
 968 050f A4       		.byte	0xa4
 969 0510 1A       		.byte	0x1a
ARM GAS  /var/folders/l5/0x54b2c10074c8bt31ycjvl80000gp/T//ccBvZYEp.s 			page 18


 970 0511 BE020000 		.4byte	0x2be
 971 0515 10       		.uleb128 0x10
 972 0516 CA030000 		.4byte	.LASF76
 973 051a 06       		.byte	0x6
 974 051b AB       		.byte	0xab
 975 051c 19       		.byte	0x19
 976 051d 1F010000 		.4byte	0x11f
 977 0521 00       		.byte	0
 978 0522 0A       		.uleb128 0xa
 979 0523 04       		.byte	0x4
 980 0524 2F050000 		.4byte	0x52f
 981 0528 03       		.uleb128 0x3
 982 0529 01       		.byte	0x1
 983 052a 08       		.byte	0x8
 984 052b 38040000 		.4byte	.LASF77
 985 052f 11       		.uleb128 0x11
 986 0530 28050000 		.4byte	0x528
 987 0534 0A       		.uleb128 0xa
 988 0535 04       		.byte	0x4
 989 0536 DC040000 		.4byte	0x4dc
 990 053a 09       		.uleb128 0x9
 991 053b 16       		.byte	0x16
 992 053c 0B       		.byte	0xb
 993 053d 25       		.byte	0x25
 994 053e 09       		.byte	0x9
 995 053f 2E060000 		.4byte	0x62e
 996 0543 07       		.uleb128 0x7
 997 0544 67010000 		.4byte	.LASF78
 998 0548 0B       		.byte	0xb
 999 0549 26       		.byte	0x26
 1000 054a 0D       		.byte	0xd
 1001 054b 2E060000 		.4byte	0x62e
 1002 054f 00       		.byte	0
 1003 0550 07       		.uleb128 0x7
 1004 0551 9F020000 		.4byte	.LASF79
 1005 0555 0B       		.byte	0xb
 1006 0556 27       		.byte	0x27
 1007 0557 0D       		.byte	0xd
 1008 0558 9B000000 		.4byte	0x9b
 1009 055c 04       		.byte	0x4
 1010 055d 07       		.uleb128 0x7
 1011 055e 32030000 		.4byte	.LASF80
 1012 0562 0B       		.byte	0xb
 1013 0563 28       		.byte	0x28
 1014 0564 0D       		.byte	0xd
 1015 0565 9B000000 		.4byte	0x9b
 1016 0569 05       		.byte	0x5
 1017 056a 07       		.uleb128 0x7
 1018 056b FE040000 		.4byte	.LASF81
 1019 056f 0B       		.byte	0xb
 1020 0570 29       		.byte	0x29
 1021 0571 0D       		.byte	0xd
 1022 0572 A7000000 		.4byte	0xa7
 1023 0576 06       		.byte	0x6
 1024 0577 07       		.uleb128 0x7
 1025 0578 59030000 		.4byte	.LASF82
 1026 057c 0B       		.byte	0xb
ARM GAS  /var/folders/l5/0x54b2c10074c8bt31ycjvl80000gp/T//ccBvZYEp.s 			page 19


 1027 057d 2A       		.byte	0x2a
 1028 057e 0D       		.byte	0xd
 1029 057f 9B000000 		.4byte	0x9b
 1030 0583 08       		.byte	0x8
 1031 0584 07       		.uleb128 0x7
 1032 0585 C3020000 		.4byte	.LASF83
 1033 0589 0B       		.byte	0xb
 1034 058a 2B       		.byte	0x2b
 1035 058b 0D       		.byte	0xd
 1036 058c 9B000000 		.4byte	0x9b
 1037 0590 09       		.byte	0x9
 1038 0591 07       		.uleb128 0x7
 1039 0592 51000000 		.4byte	.LASF84
 1040 0596 0B       		.byte	0xb
 1041 0597 2C       		.byte	0x2c
 1042 0598 0D       		.byte	0xd
 1043 0599 9B000000 		.4byte	0x9b
 1044 059d 0A       		.byte	0xa
 1045 059e 07       		.uleb128 0x7
 1046 059f 17040000 		.4byte	.LASF85
 1047 05a3 0B       		.byte	0xb
 1048 05a4 2D       		.byte	0x2d
 1049 05a5 0D       		.byte	0xd
 1050 05a6 9B000000 		.4byte	0x9b
 1051 05aa 0B       		.byte	0xb
 1052 05ab 07       		.uleb128 0x7
 1053 05ac B0040000 		.4byte	.LASF86
 1054 05b0 0B       		.byte	0xb
 1055 05b1 2E       		.byte	0x2e
 1056 05b2 0D       		.byte	0xd
 1057 05b3 9B000000 		.4byte	0x9b
 1058 05b7 0C       		.byte	0xc
 1059 05b8 07       		.uleb128 0x7
 1060 05b9 F6030000 		.4byte	.LASF87
 1061 05bd 0B       		.byte	0xb
 1062 05be 2F       		.byte	0x2f
 1063 05bf 0D       		.byte	0xd
 1064 05c0 9B000000 		.4byte	0x9b
 1065 05c4 0D       		.byte	0xd
 1066 05c5 07       		.uleb128 0x7
 1067 05c6 00000000 		.4byte	.LASF88
 1068 05ca 0B       		.byte	0xb
 1069 05cb 30       		.byte	0x30
 1070 05cc 0D       		.byte	0xd
 1071 05cd 9B000000 		.4byte	0x9b
 1072 05d1 0E       		.byte	0xe
 1073 05d2 07       		.uleb128 0x7
 1074 05d3 CF020000 		.4byte	.LASF89
 1075 05d7 0B       		.byte	0xb
 1076 05d8 31       		.byte	0x31
 1077 05d9 0D       		.byte	0xd
 1078 05da 9B000000 		.4byte	0x9b
 1079 05de 0F       		.byte	0xf
 1080 05df 07       		.uleb128 0x7
 1081 05e0 9F000000 		.4byte	.LASF90
 1082 05e4 0B       		.byte	0xb
 1083 05e5 32       		.byte	0x32
ARM GAS  /var/folders/l5/0x54b2c10074c8bt31ycjvl80000gp/T//ccBvZYEp.s 			page 20


 1084 05e6 0D       		.byte	0xd
 1085 05e7 9B000000 		.4byte	0x9b
 1086 05eb 10       		.byte	0x10
 1087 05ec 07       		.uleb128 0x7
 1088 05ed 6F000000 		.4byte	.LASF91
 1089 05f1 0B       		.byte	0xb
 1090 05f2 34       		.byte	0x34
 1091 05f3 0D       		.byte	0xd
 1092 05f4 9B000000 		.4byte	0x9b
 1093 05f8 11       		.byte	0x11
 1094 05f9 07       		.uleb128 0x7
 1095 05fa AF000000 		.4byte	.LASF92
 1096 05fe 0B       		.byte	0xb
 1097 05ff 35       		.byte	0x35
 1098 0600 0D       		.byte	0xd
 1099 0601 9B000000 		.4byte	0x9b
 1100 0605 12       		.byte	0x12
 1101 0606 07       		.uleb128 0x7
 1102 0607 A7020000 		.4byte	.LASF93
 1103 060b 0B       		.byte	0xb
 1104 060c 36       		.byte	0x36
 1105 060d 0D       		.byte	0xd
 1106 060e 9B000000 		.4byte	0x9b
 1107 0612 13       		.byte	0x13
 1108 0613 07       		.uleb128 0x7
 1109 0614 D8030000 		.4byte	.LASF94
 1110 0618 0B       		.byte	0xb
 1111 0619 37       		.byte	0x37
 1112 061a 0D       		.byte	0xd
 1113 061b 9B000000 		.4byte	0x9b
 1114 061f 14       		.byte	0x14
 1115 0620 07       		.uleb128 0x7
 1116 0621 AF030000 		.4byte	.LASF95
 1117 0625 0B       		.byte	0xb
 1118 0626 39       		.byte	0x39
 1119 0627 0D       		.byte	0xd
 1120 0628 9B000000 		.4byte	0x9b
 1121 062c 15       		.byte	0x15
 1122 062d 00       		.byte	0
 1123 062e 12       		.uleb128 0x12
 1124 062f 28050000 		.4byte	0x528
 1125 0633 3E060000 		.4byte	0x63e
 1126 0637 13       		.uleb128 0x13
 1127 0638 2C000000 		.4byte	0x2c
 1128 063c 03       		.byte	0x3
 1129 063d 00       		.byte	0
 1130 063e 04       		.uleb128 0x4
 1131 063f F0000000 		.4byte	.LASF96
 1132 0643 0B       		.byte	0xb
 1133 0644 3A       		.byte	0x3a
 1134 0645 03       		.byte	0x3
 1135 0646 3A050000 		.4byte	0x53a
 1136 064a 11       		.uleb128 0x11
 1137 064b 3E060000 		.4byte	0x63e
 1138 064f 0E       		.uleb128 0xe
 1139 0650 55010000 		.4byte	.LASF97
 1140 0654 0B       		.byte	0xb
ARM GAS  /var/folders/l5/0x54b2c10074c8bt31ycjvl80000gp/T//ccBvZYEp.s 			page 21


 1141 0655 77       		.byte	0x77
 1142 0656 1D       		.byte	0x1d
 1143 0657 4A060000 		.4byte	0x64a
 1144 065b 12       		.uleb128 0x12
 1145 065c A6020000 		.4byte	0x2a6
 1146 0660 6B060000 		.4byte	0x66b
 1147 0664 13       		.uleb128 0x13
 1148 0665 2C000000 		.4byte	0x2c
 1149 0669 26       		.byte	0x26
 1150 066a 00       		.byte	0
 1151 066b 0E       		.uleb128 0xe
 1152 066c 02010000 		.4byte	.LASF98
 1153 0670 0C       		.byte	0xc
 1154 0671 82       		.byte	0x82
 1155 0672 08       		.byte	0x8
 1156 0673 5B060000 		.4byte	0x65b
 1157 0677 14       		.uleb128 0x14
 1158 0678 25040000 		.4byte	0x425
 1159 067c 01       		.byte	0x1
 1160 067d 23       		.byte	0x23
 1161 067e 08       		.byte	0x8
 1162 067f 05       		.uleb128 0x5
 1163 0680 03       		.byte	0x3
 1164 0681 00000000 		.4byte	vtlist
 1165 0685 15       		.uleb128 0x15
 1166 0686 2B000000 		.4byte	.LASF107
 1167 068a 01       		.byte	0x1
 1168 068b 7F       		.byte	0x7f
 1169 068c 08       		.byte	0x8
 1170 068d CB000000 		.4byte	0xcb
 1171 0691 00000000 		.4byte	.LFB10
 1172 0695 48000000 		.4byte	.LFE10-.LFB10
 1173 0699 01       		.uleb128 0x1
 1174 069a 9C       		.byte	0x9c
 1175 069b DC060000 		.4byte	0x6dc
 1176 069f 16       		.uleb128 0x16
 1177 06a0 09050000 		.4byte	.LASF99
 1178 06a4 01       		.byte	0x1
 1179 06a5 7F       		.byte	0x7f
 1180 06a6 21       		.byte	0x21
 1181 06a7 2B010000 		.4byte	0x12b
 1182 06ab 08000000 		.4byte	.LLST4
 1183 06af 00000000 		.4byte	.LVUS4
 1184 06b3 17       		.uleb128 0x17
 1185 06b4 656E6400 		.ascii	"end\000"
 1186 06b8 01       		.byte	0x1
 1187 06b9 7F       		.byte	0x7f
 1188 06ba 32       		.byte	0x32
 1189 06bb 2B010000 		.4byte	0x12b
 1190 06bf 46000000 		.4byte	.LLST5
 1191 06c3 42000000 		.4byte	.LVUS5
 1192 06c7 18       		.uleb128 0x18
 1193 06c8 3A030000 		.4byte	.LASF100
 1194 06cc 01       		.byte	0x1
 1195 06cd 81       		.byte	0x81
 1196 06ce 0D       		.byte	0xd
 1197 06cf 2B010000 		.4byte	0x12b
ARM GAS  /var/folders/l5/0x54b2c10074c8bt31ycjvl80000gp/T//ccBvZYEp.s 			page 22


 1198 06d3 69000000 		.4byte	.LLST6
 1199 06d7 67000000 		.4byte	.LVUS6
 1200 06db 00       		.byte	0
 1201 06dc 19       		.uleb128 0x19
 1202 06dd C2040000 		.4byte	.LASF101
 1203 06e1 01       		.byte	0x1
 1204 06e2 63       		.byte	0x63
 1205 06e3 06       		.byte	0x6
 1206 06e4 00000000 		.4byte	.LFB9
 1207 06e8 3C000000 		.4byte	.LFE9-.LFB9
 1208 06ec 01       		.uleb128 0x1
 1209 06ed 9C       		.byte	0x9c
 1210 06ee 01070000 		.4byte	0x701
 1211 06f2 1A       		.uleb128 0x1a
 1212 06f3 76747000 		.ascii	"vtp\000"
 1213 06f7 01       		.byte	0x1
 1214 06f8 63       		.byte	0x63
 1215 06f9 1F       		.byte	0x1f
 1216 06fa D5030000 		.4byte	0x3d5
 1217 06fe 01       		.uleb128 0x1
 1218 06ff 50       		.byte	0x50
 1219 0700 00       		.byte	0
 1220 0701 19       		.uleb128 0x19
 1221 0702 DB020000 		.4byte	.LASF102
 1222 0706 01       		.byte	0x1
 1223 0707 45       		.byte	0x45
 1224 0708 06       		.byte	0x6
 1225 0709 00000000 		.4byte	.LFB8
 1226 070d 64000000 		.4byte	.LFE8-.LFB8
 1227 0711 01       		.uleb128 0x1
 1228 0712 9C       		.byte	0x9c
 1229 0713 74070000 		.4byte	0x774
 1230 0717 1A       		.uleb128 0x1a
 1231 0718 76747000 		.ascii	"vtp\000"
 1232 071c 01       		.byte	0x1
 1233 071d 45       		.byte	0x45
 1234 071e 1D       		.byte	0x1d
 1235 071f D5030000 		.4byte	0x3d5
 1236 0723 01       		.uleb128 0x1
 1237 0724 50       		.byte	0x50
 1238 0725 16       		.uleb128 0x16
 1239 0726 3A030000 		.4byte	.LASF100
 1240 072a 01       		.byte	0x1
 1241 072b 45       		.byte	0x45
 1242 072c 2C       		.byte	0x2c
 1243 072d 2B010000 		.4byte	0x12b
 1244 0731 82000000 		.4byte	.LLST0
 1245 0735 7C000000 		.4byte	.LVUS0
 1246 0739 16       		.uleb128 0x16
 1247 073a 8E040000 		.4byte	.LASF103
 1248 073e 01       		.byte	0x1
 1249 073f 45       		.byte	0x45
 1250 0740 3B       		.byte	0x3b
 1251 0741 5D030000 		.4byte	0x35d
 1252 0745 B3000000 		.4byte	.LLST1
 1253 0749 AF000000 		.4byte	.LVUS1
 1254 074d 17       		.uleb128 0x17
ARM GAS  /var/folders/l5/0x54b2c10074c8bt31ycjvl80000gp/T//ccBvZYEp.s 			page 23


 1255 074e 70617200 		.ascii	"par\000"
 1256 0752 01       		.byte	0x1
 1257 0753 45       		.byte	0x45
 1258 0754 49       		.byte	0x49
 1259 0755 BE020000 		.4byte	0x2be
 1260 0759 D6000000 		.4byte	.LLST2
 1261 075d D2000000 		.4byte	.LVUS2
 1262 0761 1B       		.uleb128 0x1b
 1263 0762 7000     		.ascii	"p\000"
 1264 0764 01       		.byte	0x1
 1265 0765 46       		.byte	0x46
 1266 0766 11       		.byte	0x11
 1267 0767 D5030000 		.4byte	0x3d5
 1268 076b F9000000 		.4byte	.LLST3
 1269 076f F5000000 		.4byte	.LVUS3
 1270 0773 00       		.byte	0
 1271 0774 1C       		.uleb128 0x1c
 1272 0775 7C000000 		.4byte	.LASF108
 1273 0779 01       		.byte	0x1
 1274 077a 2B       		.byte	0x2b
 1275 077b 06       		.byte	0x6
 1276 077c 00000000 		.4byte	.LFB7
 1277 0780 24000000 		.4byte	.LFE7-.LFB7
 1278 0784 01       		.uleb128 0x1
 1279 0785 9C       		.byte	0x9c
 1280 0786 00       		.byte	0
 1281              		.section	.debug_abbrev,"",%progbits
 1282              	.Ldebug_abbrev0:
 1283 0000 01       		.uleb128 0x1
 1284 0001 11       		.uleb128 0x11
 1285 0002 01       		.byte	0x1
 1286 0003 25       		.uleb128 0x25
 1287 0004 0E       		.uleb128 0xe
 1288 0005 13       		.uleb128 0x13
 1289 0006 0B       		.uleb128 0xb
 1290 0007 03       		.uleb128 0x3
 1291 0008 0E       		.uleb128 0xe
 1292 0009 1B       		.uleb128 0x1b
 1293 000a 0E       		.uleb128 0xe
 1294 000b 55       		.uleb128 0x55
 1295 000c 17       		.uleb128 0x17
 1296 000d 11       		.uleb128 0x11
 1297 000e 01       		.uleb128 0x1
 1298 000f 10       		.uleb128 0x10
 1299 0010 17       		.uleb128 0x17
 1300 0011 00       		.byte	0
 1301 0012 00       		.byte	0
 1302 0013 02       		.uleb128 0x2
 1303 0014 24       		.uleb128 0x24
 1304 0015 00       		.byte	0
 1305 0016 0B       		.uleb128 0xb
 1306 0017 0B       		.uleb128 0xb
 1307 0018 3E       		.uleb128 0x3e
 1308 0019 0B       		.uleb128 0xb
 1309 001a 03       		.uleb128 0x3
 1310 001b 08       		.uleb128 0x8
 1311 001c 00       		.byte	0
ARM GAS  /var/folders/l5/0x54b2c10074c8bt31ycjvl80000gp/T//ccBvZYEp.s 			page 24


 1312 001d 00       		.byte	0
 1313 001e 03       		.uleb128 0x3
 1314 001f 24       		.uleb128 0x24
 1315 0020 00       		.byte	0
 1316 0021 0B       		.uleb128 0xb
 1317 0022 0B       		.uleb128 0xb
 1318 0023 3E       		.uleb128 0x3e
 1319 0024 0B       		.uleb128 0xb
 1320 0025 03       		.uleb128 0x3
 1321 0026 0E       		.uleb128 0xe
 1322 0027 00       		.byte	0
 1323 0028 00       		.byte	0
 1324 0029 04       		.uleb128 0x4
 1325 002a 16       		.uleb128 0x16
 1326 002b 00       		.byte	0
 1327 002c 03       		.uleb128 0x3
 1328 002d 0E       		.uleb128 0xe
 1329 002e 3A       		.uleb128 0x3a
 1330 002f 0B       		.uleb128 0xb
 1331 0030 3B       		.uleb128 0x3b
 1332 0031 0B       		.uleb128 0xb
 1333 0032 39       		.uleb128 0x39
 1334 0033 0B       		.uleb128 0xb
 1335 0034 49       		.uleb128 0x49
 1336 0035 13       		.uleb128 0x13
 1337 0036 00       		.byte	0
 1338 0037 00       		.byte	0
 1339 0038 05       		.uleb128 0x5
 1340 0039 35       		.uleb128 0x35
 1341 003a 00       		.byte	0
 1342 003b 49       		.uleb128 0x49
 1343 003c 13       		.uleb128 0x13
 1344 003d 00       		.byte	0
 1345 003e 00       		.byte	0
 1346 003f 06       		.uleb128 0x6
 1347 0040 13       		.uleb128 0x13
 1348 0041 01       		.byte	0x1
 1349 0042 03       		.uleb128 0x3
 1350 0043 0E       		.uleb128 0xe
 1351 0044 0B       		.uleb128 0xb
 1352 0045 0B       		.uleb128 0xb
 1353 0046 3A       		.uleb128 0x3a
 1354 0047 0B       		.uleb128 0xb
 1355 0048 3B       		.uleb128 0x3b
 1356 0049 0B       		.uleb128 0xb
 1357 004a 39       		.uleb128 0x39
 1358 004b 0B       		.uleb128 0xb
 1359 004c 01       		.uleb128 0x1
 1360 004d 13       		.uleb128 0x13
 1361 004e 00       		.byte	0
 1362 004f 00       		.byte	0
 1363 0050 07       		.uleb128 0x7
 1364 0051 0D       		.uleb128 0xd
 1365 0052 00       		.byte	0
 1366 0053 03       		.uleb128 0x3
 1367 0054 0E       		.uleb128 0xe
 1368 0055 3A       		.uleb128 0x3a
ARM GAS  /var/folders/l5/0x54b2c10074c8bt31ycjvl80000gp/T//ccBvZYEp.s 			page 25


 1369 0056 0B       		.uleb128 0xb
 1370 0057 3B       		.uleb128 0x3b
 1371 0058 0B       		.uleb128 0xb
 1372 0059 39       		.uleb128 0x39
 1373 005a 0B       		.uleb128 0xb
 1374 005b 49       		.uleb128 0x49
 1375 005c 13       		.uleb128 0x13
 1376 005d 38       		.uleb128 0x38
 1377 005e 0B       		.uleb128 0xb
 1378 005f 00       		.byte	0
 1379 0060 00       		.byte	0
 1380 0061 08       		.uleb128 0x8
 1381 0062 0D       		.uleb128 0xd
 1382 0063 00       		.byte	0
 1383 0064 03       		.uleb128 0x3
 1384 0065 08       		.uleb128 0x8
 1385 0066 3A       		.uleb128 0x3a
 1386 0067 0B       		.uleb128 0xb
 1387 0068 3B       		.uleb128 0x3b
 1388 0069 0B       		.uleb128 0xb
 1389 006a 39       		.uleb128 0x39
 1390 006b 0B       		.uleb128 0xb
 1391 006c 49       		.uleb128 0x49
 1392 006d 13       		.uleb128 0x13
 1393 006e 38       		.uleb128 0x38
 1394 006f 0B       		.uleb128 0xb
 1395 0070 00       		.byte	0
 1396 0071 00       		.byte	0
 1397 0072 09       		.uleb128 0x9
 1398 0073 13       		.uleb128 0x13
 1399 0074 01       		.byte	0x1
 1400 0075 0B       		.uleb128 0xb
 1401 0076 0B       		.uleb128 0xb
 1402 0077 3A       		.uleb128 0x3a
 1403 0078 0B       		.uleb128 0xb
 1404 0079 3B       		.uleb128 0x3b
 1405 007a 0B       		.uleb128 0xb
 1406 007b 39       		.uleb128 0x39
 1407 007c 0B       		.uleb128 0xb
 1408 007d 01       		.uleb128 0x1
 1409 007e 13       		.uleb128 0x13
 1410 007f 00       		.byte	0
 1411 0080 00       		.byte	0
 1412 0081 0A       		.uleb128 0xa
 1413 0082 0F       		.uleb128 0xf
 1414 0083 00       		.byte	0
 1415 0084 0B       		.uleb128 0xb
 1416 0085 0B       		.uleb128 0xb
 1417 0086 49       		.uleb128 0x49
 1418 0087 13       		.uleb128 0x13
 1419 0088 00       		.byte	0
 1420 0089 00       		.byte	0
 1421 008a 0B       		.uleb128 0xb
 1422 008b 0F       		.uleb128 0xf
 1423 008c 00       		.byte	0
 1424 008d 0B       		.uleb128 0xb
 1425 008e 0B       		.uleb128 0xb
ARM GAS  /var/folders/l5/0x54b2c10074c8bt31ycjvl80000gp/T//ccBvZYEp.s 			page 26


 1426 008f 00       		.byte	0
 1427 0090 00       		.byte	0
 1428 0091 0C       		.uleb128 0xc
 1429 0092 15       		.uleb128 0x15
 1430 0093 01       		.byte	0x1
 1431 0094 27       		.uleb128 0x27
 1432 0095 19       		.uleb128 0x19
 1433 0096 01       		.uleb128 0x1
 1434 0097 13       		.uleb128 0x13
 1435 0098 00       		.byte	0
 1436 0099 00       		.byte	0
 1437 009a 0D       		.uleb128 0xd
 1438 009b 05       		.uleb128 0x5
 1439 009c 00       		.byte	0
 1440 009d 49       		.uleb128 0x49
 1441 009e 13       		.uleb128 0x13
 1442 009f 00       		.byte	0
 1443 00a0 00       		.byte	0
 1444 00a1 0E       		.uleb128 0xe
 1445 00a2 34       		.uleb128 0x34
 1446 00a3 00       		.byte	0
 1447 00a4 03       		.uleb128 0x3
 1448 00a5 0E       		.uleb128 0xe
 1449 00a6 3A       		.uleb128 0x3a
 1450 00a7 0B       		.uleb128 0xb
 1451 00a8 3B       		.uleb128 0x3b
 1452 00a9 0B       		.uleb128 0xb
 1453 00aa 39       		.uleb128 0x39
 1454 00ab 0B       		.uleb128 0xb
 1455 00ac 49       		.uleb128 0x49
 1456 00ad 13       		.uleb128 0x13
 1457 00ae 3F       		.uleb128 0x3f
 1458 00af 19       		.uleb128 0x19
 1459 00b0 3C       		.uleb128 0x3c
 1460 00b1 19       		.uleb128 0x19
 1461 00b2 00       		.byte	0
 1462 00b3 00       		.byte	0
 1463 00b4 0F       		.uleb128 0xf
 1464 00b5 17       		.uleb128 0x17
 1465 00b6 01       		.byte	0x1
 1466 00b7 0B       		.uleb128 0xb
 1467 00b8 0B       		.uleb128 0xb
 1468 00b9 3A       		.uleb128 0x3a
 1469 00ba 0B       		.uleb128 0xb
 1470 00bb 3B       		.uleb128 0x3b
 1471 00bc 0B       		.uleb128 0xb
 1472 00bd 39       		.uleb128 0x39
 1473 00be 0B       		.uleb128 0xb
 1474 00bf 01       		.uleb128 0x1
 1475 00c0 13       		.uleb128 0x13
 1476 00c1 00       		.byte	0
 1477 00c2 00       		.byte	0
 1478 00c3 10       		.uleb128 0x10
 1479 00c4 0D       		.uleb128 0xd
 1480 00c5 00       		.byte	0
 1481 00c6 03       		.uleb128 0x3
 1482 00c7 0E       		.uleb128 0xe
ARM GAS  /var/folders/l5/0x54b2c10074c8bt31ycjvl80000gp/T//ccBvZYEp.s 			page 27


 1483 00c8 3A       		.uleb128 0x3a
 1484 00c9 0B       		.uleb128 0xb
 1485 00ca 3B       		.uleb128 0x3b
 1486 00cb 0B       		.uleb128 0xb
 1487 00cc 39       		.uleb128 0x39
 1488 00cd 0B       		.uleb128 0xb
 1489 00ce 49       		.uleb128 0x49
 1490 00cf 13       		.uleb128 0x13
 1491 00d0 00       		.byte	0
 1492 00d1 00       		.byte	0
 1493 00d2 11       		.uleb128 0x11
 1494 00d3 26       		.uleb128 0x26
 1495 00d4 00       		.byte	0
 1496 00d5 49       		.uleb128 0x49
 1497 00d6 13       		.uleb128 0x13
 1498 00d7 00       		.byte	0
 1499 00d8 00       		.byte	0
 1500 00d9 12       		.uleb128 0x12
 1501 00da 01       		.uleb128 0x1
 1502 00db 01       		.byte	0x1
 1503 00dc 49       		.uleb128 0x49
 1504 00dd 13       		.uleb128 0x13
 1505 00de 01       		.uleb128 0x1
 1506 00df 13       		.uleb128 0x13
 1507 00e0 00       		.byte	0
 1508 00e1 00       		.byte	0
 1509 00e2 13       		.uleb128 0x13
 1510 00e3 21       		.uleb128 0x21
 1511 00e4 00       		.byte	0
 1512 00e5 49       		.uleb128 0x49
 1513 00e6 13       		.uleb128 0x13
 1514 00e7 2F       		.uleb128 0x2f
 1515 00e8 0B       		.uleb128 0xb
 1516 00e9 00       		.byte	0
 1517 00ea 00       		.byte	0
 1518 00eb 14       		.uleb128 0x14
 1519 00ec 34       		.uleb128 0x34
 1520 00ed 00       		.byte	0
 1521 00ee 47       		.uleb128 0x47
 1522 00ef 13       		.uleb128 0x13
 1523 00f0 3A       		.uleb128 0x3a
 1524 00f1 0B       		.uleb128 0xb
 1525 00f2 3B       		.uleb128 0x3b
 1526 00f3 0B       		.uleb128 0xb
 1527 00f4 39       		.uleb128 0x39
 1528 00f5 0B       		.uleb128 0xb
 1529 00f6 02       		.uleb128 0x2
 1530 00f7 18       		.uleb128 0x18
 1531 00f8 00       		.byte	0
 1532 00f9 00       		.byte	0
 1533 00fa 15       		.uleb128 0x15
 1534 00fb 2E       		.uleb128 0x2e
 1535 00fc 01       		.byte	0x1
 1536 00fd 3F       		.uleb128 0x3f
 1537 00fe 19       		.uleb128 0x19
 1538 00ff 03       		.uleb128 0x3
 1539 0100 0E       		.uleb128 0xe
ARM GAS  /var/folders/l5/0x54b2c10074c8bt31ycjvl80000gp/T//ccBvZYEp.s 			page 28


 1540 0101 3A       		.uleb128 0x3a
 1541 0102 0B       		.uleb128 0xb
 1542 0103 3B       		.uleb128 0x3b
 1543 0104 0B       		.uleb128 0xb
 1544 0105 39       		.uleb128 0x39
 1545 0106 0B       		.uleb128 0xb
 1546 0107 27       		.uleb128 0x27
 1547 0108 19       		.uleb128 0x19
 1548 0109 49       		.uleb128 0x49
 1549 010a 13       		.uleb128 0x13
 1550 010b 11       		.uleb128 0x11
 1551 010c 01       		.uleb128 0x1
 1552 010d 12       		.uleb128 0x12
 1553 010e 06       		.uleb128 0x6
 1554 010f 40       		.uleb128 0x40
 1555 0110 18       		.uleb128 0x18
 1556 0111 9742     		.uleb128 0x2117
 1557 0113 19       		.uleb128 0x19
 1558 0114 01       		.uleb128 0x1
 1559 0115 13       		.uleb128 0x13
 1560 0116 00       		.byte	0
 1561 0117 00       		.byte	0
 1562 0118 16       		.uleb128 0x16
 1563 0119 05       		.uleb128 0x5
 1564 011a 00       		.byte	0
 1565 011b 03       		.uleb128 0x3
 1566 011c 0E       		.uleb128 0xe
 1567 011d 3A       		.uleb128 0x3a
 1568 011e 0B       		.uleb128 0xb
 1569 011f 3B       		.uleb128 0x3b
 1570 0120 0B       		.uleb128 0xb
 1571 0121 39       		.uleb128 0x39
 1572 0122 0B       		.uleb128 0xb
 1573 0123 49       		.uleb128 0x49
 1574 0124 13       		.uleb128 0x13
 1575 0125 02       		.uleb128 0x2
 1576 0126 17       		.uleb128 0x17
 1577 0127 B742     		.uleb128 0x2137
 1578 0129 17       		.uleb128 0x17
 1579 012a 00       		.byte	0
 1580 012b 00       		.byte	0
 1581 012c 17       		.uleb128 0x17
 1582 012d 05       		.uleb128 0x5
 1583 012e 00       		.byte	0
 1584 012f 03       		.uleb128 0x3
 1585 0130 08       		.uleb128 0x8
 1586 0131 3A       		.uleb128 0x3a
 1587 0132 0B       		.uleb128 0xb
 1588 0133 3B       		.uleb128 0x3b
 1589 0134 0B       		.uleb128 0xb
 1590 0135 39       		.uleb128 0x39
 1591 0136 0B       		.uleb128 0xb
 1592 0137 49       		.uleb128 0x49
 1593 0138 13       		.uleb128 0x13
 1594 0139 02       		.uleb128 0x2
 1595 013a 17       		.uleb128 0x17
 1596 013b B742     		.uleb128 0x2137
ARM GAS  /var/folders/l5/0x54b2c10074c8bt31ycjvl80000gp/T//ccBvZYEp.s 			page 29


 1597 013d 17       		.uleb128 0x17
 1598 013e 00       		.byte	0
 1599 013f 00       		.byte	0
 1600 0140 18       		.uleb128 0x18
 1601 0141 34       		.uleb128 0x34
 1602 0142 00       		.byte	0
 1603 0143 03       		.uleb128 0x3
 1604 0144 0E       		.uleb128 0xe
 1605 0145 3A       		.uleb128 0x3a
 1606 0146 0B       		.uleb128 0xb
 1607 0147 3B       		.uleb128 0x3b
 1608 0148 0B       		.uleb128 0xb
 1609 0149 39       		.uleb128 0x39
 1610 014a 0B       		.uleb128 0xb
 1611 014b 49       		.uleb128 0x49
 1612 014c 13       		.uleb128 0x13
 1613 014d 02       		.uleb128 0x2
 1614 014e 17       		.uleb128 0x17
 1615 014f B742     		.uleb128 0x2137
 1616 0151 17       		.uleb128 0x17
 1617 0152 00       		.byte	0
 1618 0153 00       		.byte	0
 1619 0154 19       		.uleb128 0x19
 1620 0155 2E       		.uleb128 0x2e
 1621 0156 01       		.byte	0x1
 1622 0157 3F       		.uleb128 0x3f
 1623 0158 19       		.uleb128 0x19
 1624 0159 03       		.uleb128 0x3
 1625 015a 0E       		.uleb128 0xe
 1626 015b 3A       		.uleb128 0x3a
 1627 015c 0B       		.uleb128 0xb
 1628 015d 3B       		.uleb128 0x3b
 1629 015e 0B       		.uleb128 0xb
 1630 015f 39       		.uleb128 0x39
 1631 0160 0B       		.uleb128 0xb
 1632 0161 27       		.uleb128 0x27
 1633 0162 19       		.uleb128 0x19
 1634 0163 11       		.uleb128 0x11
 1635 0164 01       		.uleb128 0x1
 1636 0165 12       		.uleb128 0x12
 1637 0166 06       		.uleb128 0x6
 1638 0167 40       		.uleb128 0x40
 1639 0168 18       		.uleb128 0x18
 1640 0169 9742     		.uleb128 0x2117
 1641 016b 19       		.uleb128 0x19
 1642 016c 01       		.uleb128 0x1
 1643 016d 13       		.uleb128 0x13
 1644 016e 00       		.byte	0
 1645 016f 00       		.byte	0
 1646 0170 1A       		.uleb128 0x1a
 1647 0171 05       		.uleb128 0x5
 1648 0172 00       		.byte	0
 1649 0173 03       		.uleb128 0x3
 1650 0174 08       		.uleb128 0x8
 1651 0175 3A       		.uleb128 0x3a
 1652 0176 0B       		.uleb128 0xb
 1653 0177 3B       		.uleb128 0x3b
ARM GAS  /var/folders/l5/0x54b2c10074c8bt31ycjvl80000gp/T//ccBvZYEp.s 			page 30


 1654 0178 0B       		.uleb128 0xb
 1655 0179 39       		.uleb128 0x39
 1656 017a 0B       		.uleb128 0xb
 1657 017b 49       		.uleb128 0x49
 1658 017c 13       		.uleb128 0x13
 1659 017d 02       		.uleb128 0x2
 1660 017e 18       		.uleb128 0x18
 1661 017f 00       		.byte	0
 1662 0180 00       		.byte	0
 1663 0181 1B       		.uleb128 0x1b
 1664 0182 34       		.uleb128 0x34
 1665 0183 00       		.byte	0
 1666 0184 03       		.uleb128 0x3
 1667 0185 08       		.uleb128 0x8
 1668 0186 3A       		.uleb128 0x3a
 1669 0187 0B       		.uleb128 0xb
 1670 0188 3B       		.uleb128 0x3b
 1671 0189 0B       		.uleb128 0xb
 1672 018a 39       		.uleb128 0x39
 1673 018b 0B       		.uleb128 0xb
 1674 018c 49       		.uleb128 0x49
 1675 018d 13       		.uleb128 0x13
 1676 018e 02       		.uleb128 0x2
 1677 018f 17       		.uleb128 0x17
 1678 0190 B742     		.uleb128 0x2137
 1679 0192 17       		.uleb128 0x17
 1680 0193 00       		.byte	0
 1681 0194 00       		.byte	0
 1682 0195 1C       		.uleb128 0x1c
 1683 0196 2E       		.uleb128 0x2e
 1684 0197 00       		.byte	0
 1685 0198 3F       		.uleb128 0x3f
 1686 0199 19       		.uleb128 0x19
 1687 019a 03       		.uleb128 0x3
 1688 019b 0E       		.uleb128 0xe
 1689 019c 3A       		.uleb128 0x3a
 1690 019d 0B       		.uleb128 0xb
 1691 019e 3B       		.uleb128 0x3b
 1692 019f 0B       		.uleb128 0xb
 1693 01a0 39       		.uleb128 0x39
 1694 01a1 0B       		.uleb128 0xb
 1695 01a2 27       		.uleb128 0x27
 1696 01a3 19       		.uleb128 0x19
 1697 01a4 11       		.uleb128 0x11
 1698 01a5 01       		.uleb128 0x1
 1699 01a6 12       		.uleb128 0x12
 1700 01a7 06       		.uleb128 0x6
 1701 01a8 40       		.uleb128 0x40
 1702 01a9 18       		.uleb128 0x18
 1703 01aa 9742     		.uleb128 0x2117
 1704 01ac 19       		.uleb128 0x19
 1705 01ad 00       		.byte	0
 1706 01ae 00       		.byte	0
 1707 01af 00       		.byte	0
 1708              		.section	.debug_loc,"",%progbits
 1709              	.Ldebug_loc0:
 1710              	.LVUS4:
ARM GAS  /var/folders/l5/0x54b2c10074c8bt31ycjvl80000gp/T//ccBvZYEp.s 			page 31


 1711 0000 00       		.uleb128 0
 1712 0001 00       		.uleb128 .LVU80
 1713 0002 00       		.uleb128 .LVU80
 1714 0003 00       		.uleb128 .LVU81
 1715 0004 00       		.uleb128 .LVU81
 1716 0005 00       		.uleb128 .LVU84
 1717 0006 00       		.uleb128 .LVU84
 1718 0007 00       		.uleb128 0
 1719              	.LLST4:
 1720 0008 00000000 		.4byte	.LVL9
 1721 000c 18000000 		.4byte	.LVL11
 1722 0010 0100     		.2byte	0x1
 1723 0012 50       		.byte	0x50
 1724 0013 18000000 		.4byte	.LVL11
 1725 0017 28000000 		.4byte	.LVL12
 1726 001b 0400     		.2byte	0x4
 1727 001d F3       		.byte	0xf3
 1728 001e 01       		.uleb128 0x1
 1729 001f 50       		.byte	0x50
 1730 0020 9F       		.byte	0x9f
 1731 0021 28000000 		.4byte	.LVL12
 1732 0025 40000000 		.4byte	.LVL14
 1733 0029 0100     		.2byte	0x1
 1734 002b 50       		.byte	0x50
 1735 002c 40000000 		.4byte	.LVL14
 1736 0030 48000000 		.4byte	.LFE10
 1737 0034 0400     		.2byte	0x4
 1738 0036 F3       		.byte	0xf3
 1739 0037 01       		.uleb128 0x1
 1740 0038 50       		.byte	0x50
 1741 0039 9F       		.byte	0x9f
 1742 003a 00000000 		.4byte	0
 1743 003e 00000000 		.4byte	0
 1744              	.LVUS5:
 1745 0042 00       		.uleb128 0
 1746 0043 00       		.uleb128 .LVU82
 1747 0044 00       		.uleb128 .LVU82
 1748 0045 00       		.uleb128 0
 1749              	.LLST5:
 1750 0046 00000000 		.4byte	.LVL9
 1751 004a 30000000 		.4byte	.LVL13
 1752 004e 0100     		.2byte	0x1
 1753 0050 51       		.byte	0x51
 1754 0051 30000000 		.4byte	.LVL13
 1755 0055 48000000 		.4byte	.LFE10
 1756 0059 0400     		.2byte	0x4
 1757 005b F3       		.byte	0xf3
 1758 005c 01       		.uleb128 0x1
 1759 005d 51       		.byte	0x51
 1760 005e 9F       		.byte	0x9f
 1761 005f 00000000 		.4byte	0
 1762 0063 00000000 		.4byte	0
 1763              	.LVUS6:
 1764 0067 00       		.uleb128 .LVU77
 1765 0068 00       		.uleb128 0
 1766              	.LLST6:
 1767 0069 0C000000 		.4byte	.LVL10
ARM GAS  /var/folders/l5/0x54b2c10074c8bt31ycjvl80000gp/T//ccBvZYEp.s 			page 32


 1768 006d 48000000 		.4byte	.LFE10
 1769 0071 0100     		.2byte	0x1
 1770 0073 53       		.byte	0x53
 1771 0074 00000000 		.4byte	0
 1772 0078 00000000 		.4byte	0
 1773              	.LVUS0:
 1774 007c 00       		.uleb128 0
 1775 007d 00       		.uleb128 .LVU31
 1776 007e 00       		.uleb128 .LVU31
 1777 007f 00       		.uleb128 .LVU48
 1778 0080 00       		.uleb128 .LVU48
 1779 0081 00       		.uleb128 .LVU49
 1780              	.LLST0:
 1781 0082 00000000 		.4byte	.LVL0
 1782 0086 24000000 		.4byte	.LVL5
 1783 008a 0100     		.2byte	0x1
 1784 008c 51       		.byte	0x51
 1785 008d 24000000 		.4byte	.LVL5
 1786 0091 58000000 		.4byte	.LVL6
 1787 0095 0100     		.2byte	0x1
 1788 0097 51       		.byte	0x51
 1789 0098 58000000 		.4byte	.LVL6
 1790 009c 5C000000 		.4byte	.LVL7
 1791 00a0 0500     		.2byte	0x5
 1792 00a2 73       		.byte	0x73
 1793 00a3 04       		.sleb128 4
 1794 00a4 06       		.byte	0x6
 1795 00a5 23       		.byte	0x23
 1796 00a6 08       		.uleb128 0x8
 1797 00a7 00000000 		.4byte	0
 1798 00ab 00000000 		.4byte	0
 1799              	.LVUS1:
 1800 00af 00       		.uleb128 0
 1801 00b0 00       		.uleb128 .LVU27
 1802 00b1 00       		.uleb128 .LVU27
 1803 00b2 00       		.uleb128 0
 1804              	.LLST1:
 1805 00b3 00000000 		.4byte	.LVL0
 1806 00b7 14000000 		.4byte	.LVL3
 1807 00bb 0100     		.2byte	0x1
 1808 00bd 52       		.byte	0x52
 1809 00be 14000000 		.4byte	.LVL3
 1810 00c2 64000000 		.4byte	.LFE8
 1811 00c6 0200     		.2byte	0x2
 1812 00c8 70       		.byte	0x70
 1813 00c9 0C       		.sleb128 12
 1814 00ca 00000000 		.4byte	0
 1815 00ce 00000000 		.4byte	0
 1816              	.LVUS2:
 1817 00d2 00       		.uleb128 0
 1818 00d3 00       		.uleb128 .LVU23
 1819 00d4 00       		.uleb128 .LVU23
 1820 00d5 00       		.uleb128 0
 1821              	.LLST2:
 1822 00d6 00000000 		.4byte	.LVL0
 1823 00da 0C000000 		.4byte	.LVL1
 1824 00de 0100     		.2byte	0x1
ARM GAS  /var/folders/l5/0x54b2c10074c8bt31ycjvl80000gp/T//ccBvZYEp.s 			page 33


 1825 00e0 53       		.byte	0x53
 1826 00e1 0C000000 		.4byte	.LVL1
 1827 00e5 64000000 		.4byte	.LFE8
 1828 00e9 0200     		.2byte	0x2
 1829 00eb 70       		.byte	0x70
 1830 00ec 10       		.sleb128 16
 1831 00ed 00000000 		.4byte	0
 1832 00f1 00000000 		.4byte	0
 1833              	.LVUS3:
 1834 00f5 01       		.uleb128 .LVU25
 1835 00f6 00       		.uleb128 .LVU30
 1836 00f7 01       		.uleb128 .LVU32
 1837 00f8 00       		.uleb128 0
 1838              	.LLST3:
 1839 00f9 10000000 		.4byte	.LVL2
 1840 00fd 20000000 		.4byte	.LVL4
 1841 0101 0100     		.2byte	0x1
 1842 0103 53       		.byte	0x53
 1843 0104 24000000 		.4byte	.LVL5
 1844 0108 64000000 		.4byte	.LFE8
 1845 010c 0100     		.2byte	0x1
 1846 010e 53       		.byte	0x53
 1847 010f 00000000 		.4byte	0
 1848 0113 00000000 		.4byte	0
 1849              		.section	.debug_aranges,"",%progbits
 1850 0000 34000000 		.4byte	0x34
 1851 0004 0200     		.2byte	0x2
 1852 0006 00000000 		.4byte	.Ldebug_info0
 1853 000a 04       		.byte	0x4
 1854 000b 00       		.byte	0
 1855 000c 0000     		.2byte	0
 1856 000e 0000     		.2byte	0
 1857 0010 00000000 		.4byte	.LFB7
 1858 0014 24000000 		.4byte	.LFE7-.LFB7
 1859 0018 00000000 		.4byte	.LFB8
 1860 001c 64000000 		.4byte	.LFE8-.LFB8
 1861 0020 00000000 		.4byte	.LFB9
 1862 0024 3C000000 		.4byte	.LFE9-.LFB9
 1863 0028 00000000 		.4byte	.LFB10
 1864 002c 48000000 		.4byte	.LFE10-.LFB10
 1865 0030 00000000 		.4byte	0
 1866 0034 00000000 		.4byte	0
 1867              		.section	.debug_ranges,"",%progbits
 1868              	.Ldebug_ranges0:
 1869 0000 00000000 		.4byte	.LFB7
 1870 0004 24000000 		.4byte	.LFE7
 1871 0008 00000000 		.4byte	.LFB8
 1872 000c 64000000 		.4byte	.LFE8
 1873 0010 00000000 		.4byte	.LFB9
 1874 0014 3C000000 		.4byte	.LFE9
 1875 0018 00000000 		.4byte	.LFB10
 1876 001c 48000000 		.4byte	.LFE10
 1877 0020 00000000 		.4byte	0
 1878 0024 00000000 		.4byte	0
 1879              		.section	.debug_line,"",%progbits
 1880              	.Ldebug_line0:
 1881 0000 EF020000 		.section	.debug_str,"MS",%progbits,1
ARM GAS  /var/folders/l5/0x54b2c10074c8bt31ycjvl80000gp/T//ccBvZYEp.s 			page 34


 1881      03008501 
 1881      00000201 
 1881      FB0E0D00 
 1881      01010101 
 1882              	.LASF88:
 1883 0000 63665F6F 		.ascii	"cf_off_older\000"
 1883      66665F6F 
 1883      6C646572 
 1883      00
 1884              	.LASF41:
 1885 000d 705F6D73 		.ascii	"p_msg\000"
 1885      6700
 1886              	.LASF73:
 1887 0013 7264796D 		.ascii	"rdymsg\000"
 1887      736700
 1888              	.LASF4:
 1889 001a 5F5F7569 		.ascii	"__uint8_t\000"
 1889      6E74385F 
 1889      7400
 1890              	.LASF67:
 1891 0024 76746C69 		.ascii	"vtlist\000"
 1891      737400
 1892              	.LASF107:
 1893 002b 63685469 		.ascii	"chTimeIsWithin\000"
 1893      6D654973 
 1893      57697468 
 1893      696E00
 1894              	.LASF12:
 1895 003a 6C6F6E67 		.ascii	"long long unsigned int\000"
 1895      206C6F6E 
 1895      6720756E 
 1895      7369676E 
 1895      65642069 
 1896              	.LASF84:
 1897 0051 63685F74 		.ascii	"ch_threadsize\000"
 1897      68726561 
 1897      6473697A 
 1897      6500
 1898              	.LASF74:
 1899 005f 65786974 		.ascii	"exitcode\000"
 1899      636F6465 
 1899      00
 1900              	.LASF29:
 1901 0068 705F7072 		.ascii	"p_prio\000"
 1901      696F00
 1902              	.LASF91:
 1903 006f 63665F6F 		.ascii	"cf_off_state\000"
 1903      66665F73 
 1903      74617465 
 1903      00
 1904              	.LASF108:
 1905 007c 5F76745F 		.ascii	"_vt_init\000"
 1905      696E6974 
 1905      00
 1906              	.LASF11:
 1907 0085 6C6F6E67 		.ascii	"long long int\000"
 1907      206C6F6E 
ARM GAS  /var/folders/l5/0x54b2c10074c8bt31ycjvl80000gp/T//ccBvZYEp.s 			page 35


 1907      6720696E 
 1907      7400
 1908              	.LASF1:
 1909 0093 7369676E 		.ascii	"signed char\000"
 1909      65642063 
 1909      68617200 
 1910              	.LASF90:
 1911 009f 63665F6F 		.ascii	"cf_off_stklimit\000"
 1911      66665F73 
 1911      746B6C69 
 1911      6D697400 
 1912              	.LASF92:
 1913 00af 63665F6F 		.ascii	"cf_off_flags\000"
 1913      66665F66 
 1913      6C616773 
 1913      00
 1914              	.LASF17:
 1915 00bc 626F6F6C 		.ascii	"bool_t\000"
 1915      5F7400
 1916              	.LASF70:
 1917 00c3 6D5F7175 		.ascii	"m_queue\000"
 1917      65756500 
 1918              	.LASF21:
 1919 00cb 74736C69 		.ascii	"tslices_t\000"
 1919      6365735F 
 1919      7400
 1920              	.LASF8:
 1921 00d5 6C6F6E67 		.ascii	"long int\000"
 1921      20696E74 
 1921      00
 1922              	.LASF19:
 1923 00de 74737461 		.ascii	"tstate_t\000"
 1923      74655F74 
 1923      00
 1924              	.LASF14:
 1925 00e7 75696E74 		.ascii	"uint16_t\000"
 1925      31365F74 
 1925      00
 1926              	.LASF96:
 1927 00f0 63686465 		.ascii	"chdebug_t\000"
 1927      6275675F 
 1927      7400
 1928              	.LASF31:
 1929 00fa 705F6E65 		.ascii	"p_newer\000"
 1929      77657200 
 1930              	.LASF98:
 1931 0102 5F69646C 		.ascii	"_idle_thread_wa\000"
 1931      655F7468 
 1931      72656164 
 1931      5F776100 
 1932              	.LASF9:
 1933 0112 5F5F7569 		.ascii	"__uint32_t\000"
 1933      6E743332 
 1933      5F7400
 1934              	.LASF48:
 1935 011d 72656761 		.ascii	"regarm_t\000"
 1935      726D5F74 
ARM GAS  /var/folders/l5/0x54b2c10074c8bt31ycjvl80000gp/T//ccBvZYEp.s 			page 36


 1935      00
 1936              	.LASF54:
 1937 0126 76745F70 		.ascii	"vt_prev\000"
 1937      72657600 
 1938              	.LASF0:
 1939 012e 756E7369 		.ascii	"unsigned int\000"
 1939      676E6564 
 1939      20696E74 
 1939      00
 1940              	.LASF53:
 1941 013b 76745F6E 		.ascii	"vt_next\000"
 1941      65787400 
 1942              	.LASF10:
 1943 0143 6C6F6E67 		.ascii	"long unsigned int\000"
 1943      20756E73 
 1943      69676E65 
 1943      6420696E 
 1943      7400
 1944              	.LASF97:
 1945 0155 63685F64 		.ascii	"ch_debug\000"
 1945      65627567 
 1945      00
 1946              	.LASF51:
 1947 015e 76746675 		.ascii	"vtfunc_t\000"
 1947      6E635F74 
 1947      00
 1948              	.LASF78:
 1949 0167 63685F69 		.ascii	"ch_identifier\000"
 1949      64656E74 
 1949      69666965 
 1949      7200
 1950              	.LASF50:
 1951 0175 636F6E74 		.ascii	"context\000"
 1951      65787400 
 1952              	.LASF6:
 1953 017d 73686F72 		.ascii	"short unsigned int\000"
 1953      7420756E 
 1953      7369676E 
 1953      65642069 
 1953      6E7400
 1954              	.LASF23:
 1955 0190 6D73675F 		.ascii	"msg_t\000"
 1955      7400
 1956              	.LASF63:
 1957 0196 725F6E65 		.ascii	"r_newer\000"
 1957      77657200 
 1958              	.LASF104:
 1959 019e 474E5520 		.ascii	"GNU C17 8.3.1 20190703 (release) [gcc-8-branch revi"
 1959      43313720 
 1959      382E332E 
 1959      31203230 
 1959      31393037 
 1960 01d1 73696F6E 		.ascii	"sion 273027] -mcpu=arm1176jz-s -mno-thumb-interwork"
 1960      20323733 
 1960      3032375D 
 1960      202D6D63 
 1960      70753D61 
ARM GAS  /var/folders/l5/0x54b2c10074c8bt31ycjvl80000gp/T//ccBvZYEp.s 			page 37


 1961 0204 202D6D66 		.ascii	" -mfloat-abi=soft -marm -march=armv6kz -ggdb -O2 -f"
 1961      6C6F6174 
 1961      2D616269 
 1961      3D736F66 
 1961      74202D6D 
 1962 0237 6F6D6974 		.ascii	"omit-frame-pointer -ffunction-sections -fdata-secti"
 1962      2D667261 
 1962      6D652D70 
 1962      6F696E74 
 1962      6572202D 
 1963 026a 6F6E7300 		.ascii	"ons\000"
 1964              	.LASF18:
 1965 026e 746D6F64 		.ascii	"tmode_t\000"
 1965      655F7400 
 1966              	.LASF46:
 1967 0276 54687265 		.ascii	"ThreadsList\000"
 1967      6164734C 
 1967      69737400 
 1968              	.LASF24:
 1969 0282 6576656E 		.ascii	"eventmask_t\000"
 1969      746D6173 
 1969      6B5F7400 
 1970              	.LASF69:
 1971 028e 4D757465 		.ascii	"Mutex\000"
 1971      7800
 1972              	.LASF47:
 1973 0294 73746B61 		.ascii	"stkalign_t\000"
 1973      6C69676E 
 1973      5F7400
 1974              	.LASF79:
 1975 029f 63685F7A 		.ascii	"ch_zero\000"
 1975      65726F00 
 1976              	.LASF93:
 1977 02a7 63665F6F 		.ascii	"cf_off_refs\000"
 1977      66665F72 
 1977      65667300 
 1978              	.LASF55:
 1979 02b3 76745F74 		.ascii	"vt_time\000"
 1979      696D6500 
 1980              	.LASF56:
 1981 02bb 76745F66 		.ascii	"vt_func\000"
 1981      756E6300 
 1982              	.LASF83:
 1983 02c3 63685F74 		.ascii	"ch_timesize\000"
 1983      696D6573 
 1983      697A6500 
 1984              	.LASF89:
 1985 02cf 63665F6F 		.ascii	"cf_off_name\000"
 1985      66665F6E 
 1985      616D6500 
 1986              	.LASF102:
 1987 02db 63685654 		.ascii	"chVTSetI\000"
 1987      53657449 
 1987      00
 1988              	.LASF106:
 1989 02e4 2F557365 		.ascii	"/Users/fernandoguirado/Desktop/Chibi/ChibiOS-RPi/de"
 1989      72732F66 
ARM GAS  /var/folders/l5/0x54b2c10074c8bt31ycjvl80000gp/T//ccBvZYEp.s 			page 38


 1989      65726E61 
 1989      6E646F67 
 1989      75697261 
 1990 0317 6D6F732F 		.ascii	"mos/led\000"
 1990      6C656400 
 1991              	.LASF62:
 1992 031f 725F6374 		.ascii	"r_ctx\000"
 1992      7800
 1993              	.LASF45:
 1994 0325 54687265 		.ascii	"ThreadsQueue\000"
 1994      61647351 
 1994      75657565 
 1994      00
 1995              	.LASF80:
 1996 0332 63685F73 		.ascii	"ch_size\000"
 1996      697A6500 
 1997              	.LASF100:
 1998 033a 74696D65 		.ascii	"time\000"
 1998      00
 1999              	.LASF65:
 2000 033f 725F6375 		.ascii	"r_current\000"
 2000      7272656E 
 2000      7400
 2001              	.LASF64:
 2002 0349 725F6F6C 		.ascii	"r_older\000"
 2002      64657200 
 2003              	.LASF20:
 2004 0351 74726566 		.ascii	"trefs_t\000"
 2004      735F7400 
 2005              	.LASF82:
 2006 0359 63685F70 		.ascii	"ch_ptrsize\000"
 2006      74727369 
 2006      7A6500
 2007              	.LASF28:
 2008 0364 705F7072 		.ascii	"p_prev\000"
 2008      657600
 2009              	.LASF22:
 2010 036b 74707269 		.ascii	"tprio_t\000"
 2010      6F5F7400 
 2011              	.LASF15:
 2012 0373 696E7433 		.ascii	"int32_t\000"
 2012      325F7400 
 2013              	.LASF2:
 2014 037b 756E7369 		.ascii	"unsigned char\000"
 2014      676E6564 
 2014      20636861 
 2014      7200
 2015              	.LASF43:
 2016 0389 705F6D74 		.ascii	"p_mtxlist\000"
 2016      786C6973 
 2016      7400
 2017              	.LASF3:
 2018 0393 73686F72 		.ascii	"short int\000"
 2018      7420696E 
 2018      7400
 2019              	.LASF34:
 2020 039d 705F7374 		.ascii	"p_state\000"
ARM GAS  /var/folders/l5/0x54b2c10074c8bt31ycjvl80000gp/T//ccBvZYEp.s 			page 39


 2020      61746500 
 2021              	.LASF37:
 2022 03a5 705F7072 		.ascii	"p_preempt\000"
 2022      65656D70 
 2022      7400
 2023              	.LASF95:
 2024 03af 63665F6F 		.ascii	"cf_off_time\000"
 2024      66665F74 
 2024      696D6500 
 2025              	.LASF32:
 2026 03bb 705F6F6C 		.ascii	"p_older\000"
 2026      64657200 
 2027              	.LASF61:
 2028 03c3 725F7072 		.ascii	"r_prio\000"
 2028      696F00
 2029              	.LASF76:
 2030 03ca 65776D61 		.ascii	"ewmask\000"
 2030      736B00
 2031              	.LASF27:
 2032 03d1 705F6E65 		.ascii	"p_next\000"
 2032      787400
 2033              	.LASF94:
 2034 03d8 63665F6F 		.ascii	"cf_off_preempt\000"
 2034      66665F70 
 2034      7265656D 
 2034      707400
 2035              	.LASF35:
 2036 03e7 705F666C 		.ascii	"p_flags\000"
 2036      61677300 
 2037              	.LASF26:
 2038 03ef 54687265 		.ascii	"Thread\000"
 2038      616400
 2039              	.LASF87:
 2040 03f6 63665F6F 		.ascii	"cf_off_newer\000"
 2040      66665F6E 
 2040      65776572 
 2040      00
 2041              	.LASF42:
 2042 0403 705F6570 		.ascii	"p_epending\000"
 2042      656E6469 
 2042      6E6700
 2043              	.LASF16:
 2044 040e 75696E74 		.ascii	"uint32_t\000"
 2044      33325F74 
 2044      00
 2045              	.LASF85:
 2046 0417 63665F6F 		.ascii	"cf_off_prio\000"
 2046      66665F70 
 2046      72696F00 
 2047              	.LASF60:
 2048 0423 725F7175 		.ascii	"r_queue\000"
 2048      65756500 
 2049              	.LASF52:
 2050 042b 56697274 		.ascii	"VirtualTimer\000"
 2050      75616C54 
 2050      696D6572 
 2050      00
ARM GAS  /var/folders/l5/0x54b2c10074c8bt31ycjvl80000gp/T//ccBvZYEp.s 			page 40


 2051              	.LASF77:
 2052 0438 63686172 		.ascii	"char\000"
 2052      00
 2053              	.LASF5:
 2054 043d 5F5F7569 		.ascii	"__uint16_t\000"
 2054      6E743136 
 2054      5F7400
 2055              	.LASF72:
 2056 0448 6D5F6E65 		.ascii	"m_next\000"
 2056      787400
 2057              	.LASF25:
 2058 044f 73797374 		.ascii	"systime_t\000"
 2058      696D655F 
 2058      7400
 2059              	.LASF44:
 2060 0459 705F7265 		.ascii	"p_realprio\000"
 2060      616C7072 
 2060      696F00
 2061              	.LASF7:
 2062 0464 5F5F696E 		.ascii	"__int32_t\000"
 2062      7433325F 
 2062      7400
 2063              	.LASF38:
 2064 046e 705F7469 		.ascii	"p_time\000"
 2064      6D6500
 2065              	.LASF49:
 2066 0475 696E7463 		.ascii	"intctx\000"
 2066      747800
 2067              	.LASF40:
 2068 047c 705F6D73 		.ascii	"p_msgqueue\000"
 2068      67717565 
 2068      756500
 2069              	.LASF57:
 2070 0487 76745F70 		.ascii	"vt_par\000"
 2070      617200
 2071              	.LASF103:
 2072 048e 76746675 		.ascii	"vtfunc\000"
 2072      6E6300
 2073              	.LASF105:
 2074 0495 2E2E2F2E 		.ascii	"../../os/kernel/src/chvt.c\000"
 2074      2E2F6F73 
 2074      2F6B6572 
 2074      6E656C2F 
 2074      7372632F 
 2075              	.LASF86:
 2076 04b0 63665F6F 		.ascii	"cf_off_ctx\000"
 2076      66665F63 
 2076      747800
 2077              	.LASF36:
 2078 04bb 705F7265 		.ascii	"p_refs\000"
 2078      667300
 2079              	.LASF101:
 2080 04c2 63685654 		.ascii	"chVTResetI\000"
 2080      52657365 
 2080      744900
 2081              	.LASF66:
 2082 04cd 52656164 		.ascii	"ReadyList\000"
ARM GAS  /var/folders/l5/0x54b2c10074c8bt31ycjvl80000gp/T//ccBvZYEp.s 			page 41


 2082      794C6973 
 2082      7400
 2083              	.LASF68:
 2084 04d7 726C6973 		.ascii	"rlist\000"
 2084      7400
 2085              	.LASF13:
 2086 04dd 75696E74 		.ascii	"uint8_t\000"
 2086      385F7400 
 2087              	.LASF75:
 2088 04e5 77746F62 		.ascii	"wtobjp\000"
 2088      6A7000
 2089              	.LASF33:
 2090 04ec 705F6E61 		.ascii	"p_name\000"
 2090      6D6500
 2091              	.LASF58:
 2092 04f3 76745F73 		.ascii	"vt_systime\000"
 2092      79737469 
 2092      6D6500
 2093              	.LASF81:
 2094 04fe 63685F76 		.ascii	"ch_version\000"
 2094      65727369 
 2094      6F6E00
 2095              	.LASF99:
 2096 0509 73746172 		.ascii	"start\000"
 2096      7400
 2097              	.LASF59:
 2098 050f 56544C69 		.ascii	"VTList\000"
 2098      737400
 2099              	.LASF71:
 2100 0516 6D5F6F77 		.ascii	"m_owner\000"
 2100      6E657200 
 2101              	.LASF30:
 2102 051e 705F6374 		.ascii	"p_ctx\000"
 2102      7800
 2103              	.LASF39:
 2104 0524 705F7761 		.ascii	"p_waiting\000"
 2104      6974696E 
 2104      6700
 2105              		.ident	"GCC: (GNU Tools for Arm Embedded Processors 8-2019-q3-update) 8.3.1 20190703 (release) [gc
ARM GAS  /var/folders/l5/0x54b2c10074c8bt31ycjvl80000gp/T//ccBvZYEp.s 			page 42


DEFINED SYMBOLS
                            *ABS*:0000000000000000 chvt.c
/var/folders/l5/0x54b2c10074c8bt31ycjvl80000gp/T//ccBvZYEp.s:16     .text._vt_init:0000000000000000 $a
/var/folders/l5/0x54b2c10074c8bt31ycjvl80000gp/T//ccBvZYEp.s:23     .text._vt_init:0000000000000000 _vt_init
/var/folders/l5/0x54b2c10074c8bt31ycjvl80000gp/T//ccBvZYEp.s:53     .text._vt_init:0000000000000020 $d
                            *COM*:0000000000000010 vtlist
/var/folders/l5/0x54b2c10074c8bt31ycjvl80000gp/T//ccBvZYEp.s:58     .text.chVTSetI:0000000000000000 $a
/var/folders/l5/0x54b2c10074c8bt31ycjvl80000gp/T//ccBvZYEp.s:64     .text.chVTSetI:0000000000000000 chVTSetI
/var/folders/l5/0x54b2c10074c8bt31ycjvl80000gp/T//ccBvZYEp.s:145    .text.chVTSetI:0000000000000060 $d
/var/folders/l5/0x54b2c10074c8bt31ycjvl80000gp/T//ccBvZYEp.s:150    .text.chVTResetI:0000000000000000 $a
/var/folders/l5/0x54b2c10074c8bt31ycjvl80000gp/T//ccBvZYEp.s:156    .text.chVTResetI:0000000000000000 chVTResetI
/var/folders/l5/0x54b2c10074c8bt31ycjvl80000gp/T//ccBvZYEp.s:202    .text.chVTResetI:0000000000000038 $d
/var/folders/l5/0x54b2c10074c8bt31ycjvl80000gp/T//ccBvZYEp.s:207    .text.chTimeIsWithin:0000000000000000 $a
/var/folders/l5/0x54b2c10074c8bt31ycjvl80000gp/T//ccBvZYEp.s:213    .text.chTimeIsWithin:0000000000000000 chTimeIsWithin
/var/folders/l5/0x54b2c10074c8bt31ycjvl80000gp/T//ccBvZYEp.s:259    .text.chTimeIsWithin:0000000000000044 $d

NO UNDEFINED SYMBOLS
