ARM GAS  /var/folders/l5/0x54b2c10074c8bt31ycjvl80000gp/T//ccIPedt8.s 			page 1


   1              		.cpu arm1176jz-s
   2              		.eabi_attribute 20, 1
   3              		.eabi_attribute 21, 1
   4              		.eabi_attribute 23, 3
   5              		.eabi_attribute 24, 1
   6              		.eabi_attribute 25, 1
   7              		.eabi_attribute 26, 1
   8              		.eabi_attribute 30, 2
   9              		.eabi_attribute 34, 1
  10              		.eabi_attribute 18, 4
  11              		.file	"hal.c"
  12              		.text
  13              	.Ltext0:
  14              		.cfi_sections	.debug_frame
  15              		.section	.text.halInit,"ax",%progbits
  16              		.align	2
  17              		.global	halInit
  18              		.arch armv6kz
  19              		.syntax unified
  20              		.arm
  21              		.fpu softvfp
  22              		.type	halInit, %function
  23              	halInit:
  24              	.LFB7:
  25              		.file 1 "../../os/hal/src/hal.c"
  26              		.loc 1 61 20 view -0
  27              		.cfi_startproc
  28              		@ args = 0, pretend = 0, frame = 0
  29              		@ frame_needed = 0, uses_anonymous_args = 0
  30              		.loc 1 63 3 view .LVU1
  31              		.loc 1 61 20 is_stmt 0 view .LVU2
  32 0000 10402DE9 		push	{r4, lr}
  33              		.cfi_def_cfa_offset 8
  34              		.cfi_offset 4, -8
  35              		.cfi_offset 14, -4
  36              		.loc 1 63 3 view .LVU3
  37 0004 FEFFFFEB 		bl	hal_lld_init
  38              	.LVL0:
  39              		.loc 1 66 3 is_stmt 1 view .LVU4
  40 0008 FEFFFFEB 		bl	tmInit
  41              	.LVL1:
  42              		.loc 1 69 3 view .LVU5
  43 000c 14009FE5 		ldr	r0, .L4
  44 0010 FEFFFFEB 		bl	_pal_lld_init
  45              	.LVL2:
  46              		.loc 1 69 31 view .LVU6
  47              		.loc 1 84 3 view .LVU7
  48 0014 FEFFFFEB 		bl	i2cInit
  49              	.LVL3:
  50              		.loc 1 96 3 view .LVU8
  51 0018 FEFFFFEB 		bl	sdInit
  52              	.LVL4:
  53              		.loc 1 102 3 view .LVU9
  54 001c FEFFFFEB 		bl	spiInit
  55              	.LVL5:
  56              		.loc 1 120 3 view .LVU10
  57              		.loc 1 121 1 is_stmt 0 view .LVU11
ARM GAS  /var/folders/l5/0x54b2c10074c8bt31ycjvl80000gp/T//ccIPedt8.s 			page 2


  58 0020 1040BDE8 		pop	{r4, lr}
  59              		.cfi_restore 14
  60              		.cfi_restore 4
  61              		.cfi_def_cfa_offset 0
  62              		.loc 1 120 3 view .LVU12
  63 0024 FEFFFFEA 		b	boardInit
  64              	.LVL6:
  65              	.L5:
  66              		.align	2
  67              	.L4:
  68 0028 00000000 		.word	pal_default_config
  69              		.cfi_endproc
  70              	.LFE7:
  71              		.size	halInit, .-halInit
  72              		.section	.text.halIsCounterWithin,"ax",%progbits
  73              		.align	2
  74              		.global	halIsCounterWithin
  75              		.syntax unified
  76              		.arm
  77              		.fpu softvfp
  78              		.type	halIsCounterWithin, %function
  79              	halIsCounterWithin:
  80              	.LVL7:
  81              	.LFB8:
  82              		.loc 1 167 61 is_stmt 1 view -0
  83              		.cfi_startproc
  84              		@ args = 0, pretend = 0, frame = 0
  85              		@ frame_needed = 0, uses_anonymous_args = 0
  86              		@ link register save eliminated.
  87              		.loc 1 168 3 view .LVU14
  88              		.loc 1 168 14 is_stmt 0 view .LVU15
  89 0000 3C309FE5 		ldr	r3, .L9
  90              		.loc 1 170 54 view .LVU16
  91 0004 000051E1 		cmp	r1, r0
  92              		.loc 1 168 14 view .LVU17
  93 0008 043093E5 		ldr	r3, [r3, #4]
  94              	.LVL8:
  95              		.loc 1 170 3 is_stmt 1 view .LVU18
  96              		.loc 1 170 54 is_stmt 0 view .LVU19
  97 000c 0500009A 		bls	.L7
  98              		.loc 1 170 54 discriminator 1 view .LVU20
  99 0010 000053E1 		cmp	r3, r0
 100 0014 0100A023 		movcs	r0, #1
 101              	.LVL9:
 102              		.loc 1 170 54 discriminator 1 view .LVU21
 103 0018 0000A033 		movcc	r0, #0
 104 001c 010053E1 		cmp	r3, r1
 105 0020 0000A023 		movcs	r0, #0
 106 0024 1EFF2FE1 		bx	lr
 107              	.LVL10:
 108              	.L7:
 109              		.loc 1 171 47 discriminator 2 view .LVU22
 110 0028 010053E1 		cmp	r3, r1
 111 002c 0010A023 		movcs	r1, #0
 112              	.LVL11:
 113              		.loc 1 171 47 discriminator 2 view .LVU23
 114 0030 0110A033 		movcc	r1, #1
ARM GAS  /var/folders/l5/0x54b2c10074c8bt31ycjvl80000gp/T//ccIPedt8.s 			page 3


 115              		.loc 1 170 54 discriminator 2 view .LVU24
 116 0034 000053E1 		cmp	r3, r0
 117 0038 0100A031 		movcc	r0, r1
 118 003c 01008123 		orrcs	r0, r1, #1
 119              	.LVL12:
 120              		.loc 1 172 1 discriminator 2 view .LVU25
 121 0040 1EFF2FE1 		bx	lr
 122              	.L10:
 123              		.align	2
 124              	.L9:
 125 0044 00300020 		.word	536883200
 126              		.cfi_endproc
 127              	.LFE8:
 128              		.size	halIsCounterWithin, .-halIsCounterWithin
 129              		.section	.text.halPolledDelay,"ax",%progbits
 130              		.align	2
 131              		.global	halPolledDelay
 132              		.syntax unified
 133              		.arm
 134              		.fpu softvfp
 135              		.type	halPolledDelay, %function
 136              	halPolledDelay:
 137              	.LVL13:
 138              	.LFB9:
 139              		.loc 1 186 39 is_stmt 1 view -0
 140              		.cfi_startproc
 141              		@ args = 0, pretend = 0, frame = 0
 142              		@ frame_needed = 0, uses_anonymous_args = 0
 143              		@ link register save eliminated.
 144              		.loc 1 187 3 view .LVU27
 145              		.loc 1 187 14 is_stmt 0 view .LVU28
 146 0000 54309FE5 		ldr	r3, .L18
 147 0004 041093E5 		ldr	r1, [r3, #4]
 148              	.LVL14:
 149              		.loc 1 188 3 is_stmt 1 view .LVU29
 150              	.LBB4:
 151              	.LBB5:
 152              		.loc 1 168 14 is_stmt 0 view .LVU30
 153 0008 03C0A0E1 		mov	ip, r3
 154              	.LBE5:
 155              	.LBE4:
 156              		.loc 1 188 14 view .LVU31
 157 000c 000081E0 		add	r0, r1, r0
 158              	.LVL15:
 159              		.loc 1 189 3 is_stmt 1 view .LVU32
 160              		.loc 1 189 9 is_stmt 0 view .LVU33
 161 0010 060000EA 		b	.L14
 162              	.LVL16:
 163              	.L17:
 164              	.LBB8:
 165              	.LBB6:
 166              		.loc 1 170 54 view .LVU34
 167 0014 020051E1 		cmp	r1, r2
 168 0018 0130A093 		movls	r3, #1
 169 001c 0030A083 		movhi	r3, #0
 170 0020 020050E1 		cmp	r0, r2
 171 0024 0030A093 		movls	r3, #0
ARM GAS  /var/folders/l5/0x54b2c10074c8bt31ycjvl80000gp/T//ccIPedt8.s 			page 4


 172              	.LVL17:
 173              		.loc 1 170 54 view .LVU35
 174              	.LBE6:
 175              	.LBE8:
 176              		.loc 1 189 9 view .LVU36
 177 0028 000053E3 		cmp	r3, #0
 178 002c 1EFF2F01 		bxeq	lr
 179              	.L14:
 180              		.loc 1 190 5 is_stmt 1 discriminator 1 view .LVU37
 181              	.LVL18:
 182              	.LBB9:
 183              	.LBI4:
 184              		.loc 1 167 8 discriminator 1 view .LVU38
 185              	.LBB7:
 186              		.loc 1 168 3 discriminator 1 view .LVU39
 187              		.loc 1 170 54 is_stmt 0 discriminator 1 view .LVU40
 188 0030 000051E1 		cmp	r1, r0
 189              		.loc 1 168 14 discriminator 1 view .LVU41
 190 0034 04209CE5 		ldr	r2, [ip, #4]
 191              	.LVL19:
 192              		.loc 1 170 3 is_stmt 1 discriminator 1 view .LVU42
 193              		.loc 1 170 54 is_stmt 0 discriminator 1 view .LVU43
 194 0038 F5FFFF3A 		bcc	.L17
 195              		.loc 1 171 47 view .LVU44
 196 003c 020050E1 		cmp	r0, r2
 197 0040 0030A093 		movls	r3, #0
 198 0044 0130A083 		movhi	r3, #1
 199              		.loc 1 170 54 view .LVU45
 200 0048 020051E1 		cmp	r1, r2
 201 004c 01308393 		orrls	r3, r3, #1
 202              	.LVL20:
 203              		.loc 1 170 54 view .LVU46
 204              	.LBE7:
 205              	.LBE9:
 206              		.loc 1 189 9 view .LVU47
 207 0050 000053E3 		cmp	r3, #0
 208 0054 F5FFFF1A 		bne	.L14
 209 0058 1EFF2FE1 		bx	lr
 210              	.L19:
 211              		.align	2
 212              	.L18:
 213 005c 00300020 		.word	536883200
 214              		.cfi_endproc
 215              	.LFE9:
 216              		.size	halPolledDelay, .-halPolledDelay
 217              		.text
 218              	.Letext0:
 219              		.file 2 "/usr/local/Cellar/arm-gcc-bin/8-2019-q3-update/lib/gcc/arm-none-eabi/8.3.1/include/stddef
 220              		.file 3 "/usr/local/Cellar/arm-gcc-bin/8-2019-q3-update/arm-none-eabi/include/machine/_default_typ
 221              		.file 4 "/usr/local/Cellar/arm-gcc-bin/8-2019-q3-update/arm-none-eabi/include/sys/_stdint.h"
 222              		.file 5 "../../os/ports/GCC/ARM/chtypes.h"
 223              		.file 6 "../../os/kernel/include/chlists.h"
 224              		.file 7 "../../os/kernel/include/chthreads.h"
 225              		.file 8 "../../os/ports/GCC/ARM/chcore.h"
 226              		.file 9 "../../os/kernel/include/chvt.h"
 227              		.file 10 "../../os/kernel/include/chschd.h"
 228              		.file 11 "../../os/kernel/include/chmtx.h"
ARM GAS  /var/folders/l5/0x54b2c10074c8bt31ycjvl80000gp/T//ccIPedt8.s 			page 5


 229              		.file 12 "../../os/kernel/include/chevents.h"
 230              		.file 13 "../../os/kernel/include/chregistry.h"
 231              		.file 14 "../../os/kernel/include/chqueues.h"
 232              		.file 15 "../../os/kernel/include/ch.h"
 233              		.file 16 "../../os/hal/platforms/BCM2835/bcm2835.h"
 234              		.file 17 "../../os/hal/platforms/BCM2835/hal_lld.h"
 235              		.file 18 "../../os/hal/platforms/BCM2835/pal_lld.h"
 236              		.file 19 "../../os/hal/include/i2c.h"
 237              		.file 20 "../../os/hal/platforms/BCM2835/i2c_lld.h"
 238              		.file 21 "../../os/hal/include/serial.h"
 239              		.file 22 "../../os/hal/include/spi.h"
 240              		.file 23 "../../os/hal/platforms/BCM2835/spi_lld.h"
 241              		.file 24 "../../os/hal/include/tm.h"
 242              		.file 25 "../../boards/RASPBERRYPI_MODB/board.h"
 243              		.file 26 "../../os/hal/platforms/BCM2835/serial_lld.h"
 244              		.section	.debug_info,"",%progbits
 245              	.Ldebug_info0:
 246 0000 C60F0000 		.4byte	0xfc6
 247 0004 0400     		.2byte	0x4
 248 0006 00000000 		.4byte	.Ldebug_abbrev0
 249 000a 04       		.byte	0x4
 250 000b 01       		.uleb128 0x1
 251 000c 77030000 		.4byte	.LASF213
 252 0010 0C       		.byte	0xc
 253 0011 F3060000 		.4byte	.LASF214
 254 0015 0F050000 		.4byte	.LASF215
 255 0019 20000000 		.4byte	.Ldebug_ranges0+0x20
 256 001d 00000000 		.4byte	0
 257 0021 00000000 		.4byte	.Ldebug_line0
 258 0025 02       		.uleb128 0x2
 259 0026 04       		.byte	0x4
 260 0027 05       		.byte	0x5
 261 0028 696E7400 		.ascii	"int\000"
 262 002c 03       		.uleb128 0x3
 263 002d 13000000 		.4byte	.LASF2
 264 0031 02       		.byte	0x2
 265 0032 D8       		.byte	0xd8
 266 0033 17       		.byte	0x17
 267 0034 38000000 		.4byte	0x38
 268 0038 04       		.uleb128 0x4
 269 0039 04       		.byte	0x4
 270 003a 07       		.byte	0x7
 271 003b 8D020000 		.4byte	.LASF0
 272 003f 05       		.uleb128 0x5
 273 0040 38000000 		.4byte	0x38
 274 0044 04       		.uleb128 0x4
 275 0045 01       		.byte	0x1
 276 0046 06       		.byte	0x6
 277 0047 07010000 		.4byte	.LASF1
 278 004b 03       		.uleb128 0x3
 279 004c 33000000 		.4byte	.LASF3
 280 0050 03       		.byte	0x3
 281 0051 2B       		.byte	0x2b
 282 0052 18       		.byte	0x18
 283 0053 57000000 		.4byte	0x57
 284 0057 04       		.uleb128 0x4
 285 0058 01       		.byte	0x1
ARM GAS  /var/folders/l5/0x54b2c10074c8bt31ycjvl80000gp/T//ccIPedt8.s 			page 6


 286 0059 08       		.byte	0x8
 287 005a 17060000 		.4byte	.LASF4
 288 005e 04       		.uleb128 0x4
 289 005f 02       		.byte	0x2
 290 0060 05       		.byte	0x5
 291 0061 44060000 		.4byte	.LASF5
 292 0065 03       		.uleb128 0x3
 293 0066 6D070000 		.4byte	.LASF6
 294 006a 03       		.byte	0x3
 295 006b 39       		.byte	0x39
 296 006c 19       		.byte	0x19
 297 006d 71000000 		.4byte	0x71
 298 0071 04       		.uleb128 0x4
 299 0072 02       		.byte	0x2
 300 0073 07       		.byte	0x7
 301 0074 2F030000 		.4byte	.LASF7
 302 0078 03       		.uleb128 0x3
 303 0079 9F070000 		.4byte	.LASF8
 304 007d 03       		.byte	0x3
 305 007e 4D       		.byte	0x4d
 306 007f 18       		.byte	0x18
 307 0080 84000000 		.4byte	0x84
 308 0084 04       		.uleb128 0x4
 309 0085 04       		.byte	0x4
 310 0086 05       		.byte	0x5
 311 0087 88010000 		.4byte	.LASF9
 312 008b 03       		.uleb128 0x3
 313 008c 45020000 		.4byte	.LASF10
 314 0090 03       		.byte	0x3
 315 0091 4F       		.byte	0x4f
 316 0092 19       		.byte	0x19
 317 0093 97000000 		.4byte	0x97
 318 0097 04       		.uleb128 0x4
 319 0098 04       		.byte	0x4
 320 0099 07       		.byte	0x7
 321 009a C6020000 		.4byte	.LASF11
 322 009e 04       		.uleb128 0x4
 323 009f 08       		.byte	0x8
 324 00a0 05       		.byte	0x5
 325 00a1 F9000000 		.4byte	.LASF12
 326 00a5 04       		.uleb128 0x4
 327 00a6 08       		.byte	0x8
 328 00a7 07       		.byte	0x7
 329 00a8 85000000 		.4byte	.LASF13
 330 00ac 03       		.uleb128 0x3
 331 00ad 79080000 		.4byte	.LASF14
 332 00b1 04       		.byte	0x4
 333 00b2 18       		.byte	0x18
 334 00b3 13       		.byte	0x13
 335 00b4 4B000000 		.4byte	0x4b
 336 00b8 06       		.uleb128 0x6
 337 00b9 AC000000 		.4byte	0xac
 338 00bd 03       		.uleb128 0x3
 339 00be BA010000 		.4byte	.LASF15
 340 00c2 04       		.byte	0x4
 341 00c3 24       		.byte	0x24
 342 00c4 14       		.byte	0x14
ARM GAS  /var/folders/l5/0x54b2c10074c8bt31ycjvl80000gp/T//ccIPedt8.s 			page 7


 343 00c5 65000000 		.4byte	0x65
 344 00c9 03       		.uleb128 0x3
 345 00ca 0F060000 		.4byte	.LASF16
 346 00ce 04       		.byte	0x4
 347 00cf 2C       		.byte	0x2c
 348 00d0 13       		.byte	0x13
 349 00d1 78000000 		.4byte	0x78
 350 00d5 03       		.uleb128 0x3
 351 00d6 0A070000 		.4byte	.LASF17
 352 00da 04       		.byte	0x4
 353 00db 30       		.byte	0x30
 354 00dc 14       		.byte	0x14
 355 00dd 8B000000 		.4byte	0x8b
 356 00e1 05       		.uleb128 0x5
 357 00e2 D5000000 		.4byte	0xd5
 358 00e6 03       		.uleb128 0x3
 359 00e7 41010000 		.4byte	.LASF18
 360 00eb 05       		.byte	0x5
 361 00ec 29       		.byte	0x29
 362 00ed 19       		.byte	0x19
 363 00ee C9000000 		.4byte	0xc9
 364 00f2 03       		.uleb128 0x3
 365 00f3 4E040000 		.4byte	.LASF19
 366 00f7 05       		.byte	0x5
 367 00f8 2A       		.byte	0x2a
 368 00f9 19       		.byte	0x19
 369 00fa AC000000 		.4byte	0xac
 370 00fe 03       		.uleb128 0x3
 371 00ff 91010000 		.4byte	.LASF20
 372 0103 05       		.byte	0x5
 373 0104 2B       		.byte	0x2b
 374 0105 19       		.byte	0x19
 375 0106 AC000000 		.4byte	0xac
 376 010a 03       		.uleb128 0x3
 377 010b BF050000 		.4byte	.LASF21
 378 010f 05       		.byte	0x5
 379 0110 2C       		.byte	0x2c
 380 0111 19       		.byte	0x19
 381 0112 AC000000 		.4byte	0xac
 382 0116 03       		.uleb128 0x3
 383 0117 63010000 		.4byte	.LASF22
 384 011b 05       		.byte	0x5
 385 011c 2D       		.byte	0x2d
 386 011d 19       		.byte	0x19
 387 011e AC000000 		.4byte	0xac
 388 0122 03       		.uleb128 0x3
 389 0123 EE050000 		.4byte	.LASF23
 390 0127 05       		.byte	0x5
 391 0128 2E       		.byte	0x2e
 392 0129 19       		.byte	0x19
 393 012a D5000000 		.4byte	0xd5
 394 012e 03       		.uleb128 0x3
 395 012f 5A030000 		.4byte	.LASF24
 396 0133 05       		.byte	0x5
 397 0134 2F       		.byte	0x2f
 398 0135 19       		.byte	0x19
 399 0136 C9000000 		.4byte	0xc9
ARM GAS  /var/folders/l5/0x54b2c10074c8bt31ycjvl80000gp/T//ccIPedt8.s 			page 8


 400 013a 03       		.uleb128 0x3
 401 013b 62040000 		.4byte	.LASF25
 402 013f 05       		.byte	0x5
 403 0140 31       		.byte	0x31
 404 0141 19       		.byte	0x19
 405 0142 D5000000 		.4byte	0xd5
 406 0146 03       		.uleb128 0x3
 407 0147 17080000 		.4byte	.LASF26
 408 014b 05       		.byte	0x5
 409 014c 32       		.byte	0x32
 410 014d 19       		.byte	0x19
 411 014e D5000000 		.4byte	0xd5
 412 0152 03       		.uleb128 0x3
 413 0153 8A070000 		.4byte	.LASF27
 414 0157 05       		.byte	0x5
 415 0158 33       		.byte	0x33
 416 0159 19       		.byte	0x19
 417 015a D5000000 		.4byte	0xd5
 418 015e 05       		.uleb128 0x5
 419 015f 52010000 		.4byte	0x152
 420 0163 03       		.uleb128 0x3
 421 0164 B1060000 		.4byte	.LASF28
 422 0168 06       		.byte	0x6
 423 0169 23       		.byte	0x23
 424 016a 17       		.byte	0x17
 425 016b 6F010000 		.4byte	0x16f
 426 016f 07       		.uleb128 0x7
 427 0170 B1060000 		.4byte	.LASF28
 428 0174 44       		.byte	0x44
 429 0175 07       		.byte	0x7
 430 0176 57       		.byte	0x57
 431 0177 08       		.byte	0x8
 432 0178 74020000 		.4byte	0x274
 433 017c 08       		.uleb128 0x8
 434 017d 8B060000 		.4byte	.LASF29
 435 0181 07       		.byte	0x7
 436 0182 58       		.byte	0x58
 437 0183 1A       		.byte	0x1a
 438 0184 98020000 		.4byte	0x298
 439 0188 00       		.byte	0
 440 0189 08       		.uleb128 0x8
 441 018a E7050000 		.4byte	.LASF30
 442 018e 07       		.byte	0x7
 443 018f 5A       		.byte	0x5a
 444 0190 1A       		.byte	0x1a
 445 0191 98020000 		.4byte	0x298
 446 0195 04       		.byte	0x4
 447 0196 08       		.uleb128 0x8
 448 0197 CE000000 		.4byte	.LASF31
 449 019b 07       		.byte	0x7
 450 019c 5C       		.byte	0x5c
 451 019d 19       		.byte	0x19
 452 019e 22010000 		.4byte	0x122
 453 01a2 08       		.byte	0x8
 454 01a3 08       		.uleb128 0x8
 455 01a4 2D090000 		.4byte	.LASF32
 456 01a8 07       		.byte	0x7
ARM GAS  /var/folders/l5/0x54b2c10074c8bt31ycjvl80000gp/T//ccIPedt8.s 			page 9


 457 01a9 5D       		.byte	0x5d
 458 01aa 19       		.byte	0x19
 459 01ab 63030000 		.4byte	0x363
 460 01af 0C       		.byte	0xc
 461 01b0 08       		.uleb128 0x8
 462 01b1 EC010000 		.4byte	.LASF33
 463 01b5 07       		.byte	0x7
 464 01b6 5F       		.byte	0x5f
 465 01b7 1A       		.byte	0x1a
 466 01b8 98020000 		.4byte	0x298
 467 01bc 10       		.byte	0x10
 468 01bd 08       		.uleb128 0x8
 469 01be 6C060000 		.4byte	.LASF34
 470 01c2 07       		.byte	0x7
 471 01c3 60       		.byte	0x60
 472 01c4 1A       		.byte	0x1a
 473 01c5 98020000 		.4byte	0x298
 474 01c9 14       		.byte	0x14
 475 01ca 08       		.uleb128 0x8
 476 01cb AB080000 		.4byte	.LASF35
 477 01cf 07       		.byte	0x7
 478 01d0 67       		.byte	0x67
 479 01d1 1A       		.byte	0x1a
 480 01d2 C4050000 		.4byte	0x5c4
 481 01d6 18       		.byte	0x18
 482 01d7 08       		.uleb128 0x8
 483 01d8 4E060000 		.4byte	.LASF36
 484 01dc 07       		.byte	0x7
 485 01dd 72       		.byte	0x72
 486 01de 19       		.byte	0x19
 487 01df FE000000 		.4byte	0xfe
 488 01e3 1C       		.byte	0x1c
 489 01e4 08       		.uleb128 0x8
 490 01e5 A9060000 		.4byte	.LASF37
 491 01e9 07       		.byte	0x7
 492 01ea 76       		.byte	0x76
 493 01eb 19       		.byte	0x19
 494 01ec F2000000 		.4byte	0xf2
 495 01f0 1D       		.byte	0x1d
 496 01f1 08       		.uleb128 0x8
 497 01f2 48080000 		.4byte	.LASF38
 498 01f6 07       		.byte	0x7
 499 01f7 7B       		.byte	0x7b
 500 01f8 19       		.byte	0x19
 501 01f9 0A010000 		.4byte	0x10a
 502 01fd 1E       		.byte	0x1e
 503 01fe 08       		.uleb128 0x8
 504 01ff 56060000 		.4byte	.LASF39
 505 0203 07       		.byte	0x7
 506 0204 81       		.byte	0x81
 507 0205 19       		.byte	0x19
 508 0206 16010000 		.4byte	0x116
 509 020a 1F       		.byte	0x1f
 510 020b 08       		.uleb128 0x8
 511 020c BD070000 		.4byte	.LASF40
 512 0210 07       		.byte	0x7
 513 0211 88       		.byte	0x88
ARM GAS  /var/folders/l5/0x54b2c10074c8bt31ycjvl80000gp/T//ccIPedt8.s 			page 10


 514 0212 19       		.byte	0x19
 515 0213 5E010000 		.4byte	0x15e
 516 0217 20       		.byte	0x20
 517 0218 09       		.uleb128 0x9
 518 0219 705F7500 		.ascii	"p_u\000"
 519 021d 07       		.byte	0x7
 520 021e AD       		.byte	0xad
 521 021f 19       		.byte	0x19
 522 0220 8A050000 		.4byte	0x58a
 523 0224 24       		.byte	0x24
 524 0225 08       		.uleb128 0x8
 525 0226 33090000 		.4byte	.LASF41
 526 022a 07       		.byte	0x7
 527 022b B2       		.byte	0xb2
 528 022c 19       		.byte	0x19
 529 022d C1020000 		.4byte	0x2c1
 530 0231 28       		.byte	0x28
 531 0232 08       		.uleb128 0x8
 532 0233 E7070000 		.4byte	.LASF42
 533 0237 07       		.byte	0x7
 534 0238 B8       		.byte	0xb8
 535 0239 19       		.byte	0x19
 536 023a 9E020000 		.4byte	0x29e
 537 023e 2C       		.byte	0x2c
 538 023f 08       		.uleb128 0x8
 539 0240 0D000000 		.4byte	.LASF43
 540 0244 07       		.byte	0x7
 541 0245 BC       		.byte	0xbc
 542 0246 19       		.byte	0x19
 543 0247 2E010000 		.4byte	0x12e
 544 024b 34       		.byte	0x34
 545 024c 08       		.uleb128 0x8
 546 024d DE060000 		.4byte	.LASF44
 547 0251 07       		.byte	0x7
 548 0252 C2       		.byte	0xc2
 549 0253 19       		.byte	0x19
 550 0254 3A010000 		.4byte	0x13a
 551 0258 38       		.byte	0x38
 552 0259 08       		.uleb128 0x8
 553 025a 3A060000 		.4byte	.LASF45
 554 025e 07       		.byte	0x7
 555 025f C9       		.byte	0xc9
 556 0260 1A       		.byte	0x1a
 557 0261 D6050000 		.4byte	0x5d6
 558 0265 3C       		.byte	0x3c
 559 0266 08       		.uleb128 0x8
 560 0267 94070000 		.4byte	.LASF46
 561 026b 07       		.byte	0x7
 562 026c CD       		.byte	0xcd
 563 026d 19       		.byte	0x19
 564 026e 22010000 		.4byte	0x122
 565 0272 40       		.byte	0x40
 566 0273 00       		.byte	0
 567 0274 0A       		.uleb128 0xa
 568 0275 08       		.byte	0x8
 569 0276 06       		.byte	0x6
 570 0277 5A       		.byte	0x5a
ARM GAS  /var/folders/l5/0x54b2c10074c8bt31ycjvl80000gp/T//ccIPedt8.s 			page 11


 571 0278 09       		.byte	0x9
 572 0279 98020000 		.4byte	0x298
 573 027d 08       		.uleb128 0x8
 574 027e 8B060000 		.4byte	.LASF29
 575 0282 06       		.byte	0x6
 576 0283 5B       		.byte	0x5b
 577 0284 1A       		.byte	0x1a
 578 0285 98020000 		.4byte	0x298
 579 0289 00       		.byte	0
 580 028a 08       		.uleb128 0x8
 581 028b E7050000 		.4byte	.LASF30
 582 028f 06       		.byte	0x6
 583 0290 5D       		.byte	0x5d
 584 0291 1A       		.byte	0x1a
 585 0292 98020000 		.4byte	0x298
 586 0296 04       		.byte	0x4
 587 0297 00       		.byte	0
 588 0298 0B       		.uleb128 0xb
 589 0299 04       		.byte	0x4
 590 029a 63010000 		.4byte	0x163
 591 029e 03       		.uleb128 0x3
 592 029f 60050000 		.4byte	.LASF47
 593 02a3 06       		.byte	0x6
 594 02a4 5F       		.byte	0x5f
 595 02a5 03       		.byte	0x3
 596 02a6 74020000 		.4byte	0x274
 597 02aa 0A       		.uleb128 0xa
 598 02ab 04       		.byte	0x4
 599 02ac 06       		.byte	0x6
 600 02ad 64       		.byte	0x64
 601 02ae 09       		.byte	0x9
 602 02af C1020000 		.4byte	0x2c1
 603 02b3 08       		.uleb128 0x8
 604 02b4 8B060000 		.4byte	.LASF29
 605 02b8 06       		.byte	0x6
 606 02b9 66       		.byte	0x66
 607 02ba 16       		.byte	0x16
 608 02bb 98020000 		.4byte	0x298
 609 02bf 00       		.byte	0
 610 02c0 00       		.byte	0
 611 02c1 03       		.uleb128 0x3
 612 02c2 56040000 		.4byte	.LASF48
 613 02c6 06       		.byte	0x6
 614 02c7 69       		.byte	0x69
 615 02c8 03       		.byte	0x3
 616 02c9 AA020000 		.4byte	0x2aa
 617 02cd 03       		.uleb128 0x3
 618 02ce 8C040000 		.4byte	.LASF49
 619 02d2 08       		.byte	0x8
 620 02d3 9D       		.byte	0x9d
 621 02d4 12       		.byte	0x12
 622 02d5 D5000000 		.4byte	0xd5
 623 02d9 03       		.uleb128 0x3
 624 02da 50020000 		.4byte	.LASF50
 625 02de 08       		.byte	0x8
 626 02df A2       		.byte	0xa2
 627 02e0 0F       		.byte	0xf
ARM GAS  /var/folders/l5/0x54b2c10074c8bt31ycjvl80000gp/T//ccIPedt8.s 			page 12


 628 02e1 E5020000 		.4byte	0x2e5
 629 02e5 0C       		.uleb128 0xc
 630 02e6 04       		.byte	0x4
 631 02e7 07       		.uleb128 0x7
 632 02e8 E0070000 		.4byte	.LASF51
 633 02ec 24       		.byte	0x24
 634 02ed 08       		.byte	0x8
 635 02ee B9       		.byte	0xb9
 636 02ef 08       		.byte	0x8
 637 02f0 63030000 		.4byte	0x363
 638 02f4 09       		.uleb128 0x9
 639 02f5 723400   		.ascii	"r4\000"
 640 02f8 08       		.byte	0x8
 641 02f9 BA       		.byte	0xba
 642 02fa 11       		.byte	0x11
 643 02fb D9020000 		.4byte	0x2d9
 644 02ff 00       		.byte	0
 645 0300 09       		.uleb128 0x9
 646 0301 723500   		.ascii	"r5\000"
 647 0304 08       		.byte	0x8
 648 0305 BB       		.byte	0xbb
 649 0306 11       		.byte	0x11
 650 0307 D9020000 		.4byte	0x2d9
 651 030b 04       		.byte	0x4
 652 030c 09       		.uleb128 0x9
 653 030d 723600   		.ascii	"r6\000"
 654 0310 08       		.byte	0x8
 655 0311 BC       		.byte	0xbc
 656 0312 11       		.byte	0x11
 657 0313 D9020000 		.4byte	0x2d9
 658 0317 08       		.byte	0x8
 659 0318 09       		.uleb128 0x9
 660 0319 723700   		.ascii	"r7\000"
 661 031c 08       		.byte	0x8
 662 031d BD       		.byte	0xbd
 663 031e 11       		.byte	0x11
 664 031f D9020000 		.4byte	0x2d9
 665 0323 0C       		.byte	0xc
 666 0324 09       		.uleb128 0x9
 667 0325 723800   		.ascii	"r8\000"
 668 0328 08       		.byte	0x8
 669 0329 BE       		.byte	0xbe
 670 032a 11       		.byte	0x11
 671 032b D9020000 		.4byte	0x2d9
 672 032f 10       		.byte	0x10
 673 0330 09       		.uleb128 0x9
 674 0331 723900   		.ascii	"r9\000"
 675 0334 08       		.byte	0x8
 676 0335 BF       		.byte	0xbf
 677 0336 11       		.byte	0x11
 678 0337 D9020000 		.4byte	0x2d9
 679 033b 14       		.byte	0x14
 680 033c 09       		.uleb128 0x9
 681 033d 72313000 		.ascii	"r10\000"
 682 0341 08       		.byte	0x8
 683 0342 C0       		.byte	0xc0
 684 0343 11       		.byte	0x11
ARM GAS  /var/folders/l5/0x54b2c10074c8bt31ycjvl80000gp/T//ccIPedt8.s 			page 13


 685 0344 D9020000 		.4byte	0x2d9
 686 0348 18       		.byte	0x18
 687 0349 09       		.uleb128 0x9
 688 034a 72313100 		.ascii	"r11\000"
 689 034e 08       		.byte	0x8
 690 034f C1       		.byte	0xc1
 691 0350 11       		.byte	0x11
 692 0351 D9020000 		.4byte	0x2d9
 693 0355 1C       		.byte	0x1c
 694 0356 09       		.uleb128 0x9
 695 0357 6C7200   		.ascii	"lr\000"
 696 035a 08       		.byte	0x8
 697 035b C2       		.byte	0xc2
 698 035c 11       		.byte	0x11
 699 035d D9020000 		.4byte	0x2d9
 700 0361 20       		.byte	0x20
 701 0362 00       		.byte	0
 702 0363 07       		.uleb128 0x7
 703 0364 27030000 		.4byte	.LASF52
 704 0368 04       		.byte	0x4
 705 0369 08       		.byte	0x8
 706 036a CA       		.byte	0xca
 707 036b 08       		.byte	0x8
 708 036c 7E030000 		.4byte	0x37e
 709 0370 09       		.uleb128 0x9
 710 0371 72313300 		.ascii	"r13\000"
 711 0375 08       		.byte	0x8
 712 0376 CB       		.byte	0xcb
 713 0377 12       		.byte	0x12
 714 0378 7E030000 		.4byte	0x37e
 715 037c 00       		.byte	0
 716 037d 00       		.byte	0
 717 037e 0B       		.uleb128 0xb
 718 037f 04       		.byte	0x4
 719 0380 E7020000 		.4byte	0x2e7
 720 0384 03       		.uleb128 0x3
 721 0385 F5020000 		.4byte	.LASF53
 722 0389 09       		.byte	0x9
 723 038a 4E       		.byte	0x4e
 724 038b 10       		.byte	0x10
 725 038c 90030000 		.4byte	0x390
 726 0390 0B       		.uleb128 0xb
 727 0391 04       		.byte	0x4
 728 0392 96030000 		.4byte	0x396
 729 0396 0D       		.uleb128 0xd
 730 0397 A1030000 		.4byte	0x3a1
 731 039b 0E       		.uleb128 0xe
 732 039c E5020000 		.4byte	0x2e5
 733 03a0 00       		.byte	0
 734 03a1 03       		.uleb128 0x3
 735 03a2 27070000 		.4byte	.LASF54
 736 03a6 09       		.byte	0x9
 737 03a7 53       		.byte	0x53
 738 03a8 1D       		.byte	0x1d
 739 03a9 AD030000 		.4byte	0x3ad
 740 03ad 07       		.uleb128 0x7
 741 03ae 27070000 		.4byte	.LASF54
ARM GAS  /var/folders/l5/0x54b2c10074c8bt31ycjvl80000gp/T//ccIPedt8.s 			page 14


 742 03b2 14       		.byte	0x14
 743 03b3 09       		.byte	0x9
 744 03b4 5A       		.byte	0x5a
 745 03b5 08       		.byte	0x8
 746 03b6 FC030000 		.4byte	0x3fc
 747 03ba 08       		.uleb128 0x8
 748 03bb 9A020000 		.4byte	.LASF55
 749 03bf 09       		.byte	0x9
 750 03c0 5B       		.byte	0x5b
 751 03c1 1A       		.byte	0x1a
 752 03c2 FC030000 		.4byte	0x3fc
 753 03c6 00       		.byte	0
 754 03c7 08       		.uleb128 0x8
 755 03c8 59020000 		.4byte	.LASF56
 756 03cc 09       		.byte	0x9
 757 03cd 5D       		.byte	0x5d
 758 03ce 1A       		.byte	0x1a
 759 03cf FC030000 		.4byte	0x3fc
 760 03d3 04       		.byte	0x4
 761 03d4 08       		.uleb128 0x8
 762 03d5 BE040000 		.4byte	.LASF57
 763 03d9 09       		.byte	0x9
 764 03da 5F       		.byte	0x5f
 765 03db 19       		.byte	0x19
 766 03dc 52010000 		.4byte	0x152
 767 03e0 08       		.byte	0x8
 768 03e1 08       		.uleb128 0x8
 769 03e2 E6040000 		.4byte	.LASF58
 770 03e6 09       		.byte	0x9
 771 03e7 60       		.byte	0x60
 772 03e8 19       		.byte	0x19
 773 03e9 84030000 		.4byte	0x384
 774 03ed 0C       		.byte	0xc
 775 03ee 08       		.uleb128 0x8
 776 03ef 10080000 		.4byte	.LASF59
 777 03f3 09       		.byte	0x9
 778 03f4 62       		.byte	0x62
 779 03f5 1A       		.byte	0x1a
 780 03f6 E5020000 		.4byte	0x2e5
 781 03fa 10       		.byte	0x10
 782 03fb 00       		.byte	0
 783 03fc 0B       		.uleb128 0xb
 784 03fd 04       		.byte	0x4
 785 03fe A1030000 		.4byte	0x3a1
 786 0402 0A       		.uleb128 0xa
 787 0403 10       		.byte	0x10
 788 0404 09       		.byte	0x9
 789 0405 6C       		.byte	0x6c
 790 0406 09       		.byte	0x9
 791 0407 40040000 		.4byte	0x440
 792 040b 08       		.uleb128 0x8
 793 040c 9A020000 		.4byte	.LASF55
 794 0410 09       		.byte	0x9
 795 0411 6D       		.byte	0x6d
 796 0412 1A       		.byte	0x1a
 797 0413 FC030000 		.4byte	0x3fc
 798 0417 00       		.byte	0
ARM GAS  /var/folders/l5/0x54b2c10074c8bt31ycjvl80000gp/T//ccIPedt8.s 			page 15


 799 0418 08       		.uleb128 0x8
 800 0419 59020000 		.4byte	.LASF56
 801 041d 09       		.byte	0x9
 802 041e 6F       		.byte	0x6f
 803 041f 1A       		.byte	0x1a
 804 0420 FC030000 		.4byte	0x3fc
 805 0424 04       		.byte	0x4
 806 0425 08       		.uleb128 0x8
 807 0426 BE040000 		.4byte	.LASF57
 808 042a 09       		.byte	0x9
 809 042b 71       		.byte	0x71
 810 042c 19       		.byte	0x19
 811 042d 52010000 		.4byte	0x152
 812 0431 08       		.byte	0x8
 813 0432 08       		.uleb128 0x8
 814 0433 B2080000 		.4byte	.LASF60
 815 0437 09       		.byte	0x9
 816 0438 72       		.byte	0x72
 817 0439 19       		.byte	0x19
 818 043a 5E010000 		.4byte	0x15e
 819 043e 0C       		.byte	0xc
 820 043f 00       		.byte	0
 821 0440 03       		.uleb128 0x3
 822 0441 F3080000 		.4byte	.LASF61
 823 0445 09       		.byte	0x9
 824 0446 73       		.byte	0x73
 825 0447 03       		.byte	0x3
 826 0448 02040000 		.4byte	0x402
 827 044c 0F       		.uleb128 0xf
 828 044d 48000000 		.4byte	.LASF69
 829 0451 09       		.byte	0x9
 830 0452 D1       		.byte	0xd1
 831 0453 0F       		.byte	0xf
 832 0454 40040000 		.4byte	0x440
 833 0458 0A       		.uleb128 0xa
 834 0459 1C       		.byte	0x1c
 835 045a 0A       		.byte	0xa
 836 045b 57       		.byte	0x57
 837 045c 09       		.byte	0x9
 838 045d B0040000 		.4byte	0x4b0
 839 0461 08       		.uleb128 0x8
 840 0462 1F070000 		.4byte	.LASF62
 841 0466 0A       		.byte	0xa
 842 0467 58       		.byte	0x58
 843 0468 19       		.byte	0x19
 844 0469 9E020000 		.4byte	0x29e
 845 046d 00       		.byte	0
 846 046e 08       		.uleb128 0x8
 847 046f 74060000 		.4byte	.LASF63
 848 0473 0A       		.byte	0xa
 849 0474 59       		.byte	0x59
 850 0475 19       		.byte	0x19
 851 0476 22010000 		.4byte	0x122
 852 047a 08       		.byte	0x8
 853 047b 08       		.uleb128 0x8
 854 047c 5A050000 		.4byte	.LASF64
 855 0480 0A       		.byte	0xa
ARM GAS  /var/folders/l5/0x54b2c10074c8bt31ycjvl80000gp/T//ccIPedt8.s 			page 16


 856 0481 5B       		.byte	0x5b
 857 0482 19       		.byte	0x19
 858 0483 63030000 		.4byte	0x363
 859 0487 0C       		.byte	0xc
 860 0488 08       		.uleb128 0x8
 861 0489 67030000 		.4byte	.LASF65
 862 048d 0A       		.byte	0xa
 863 048e 5E       		.byte	0x5e
 864 048f 1A       		.byte	0x1a
 865 0490 98020000 		.4byte	0x298
 866 0494 10       		.byte	0x10
 867 0495 08       		.uleb128 0x8
 868 0496 87050000 		.4byte	.LASF66
 869 049a 0A       		.byte	0xa
 870 049b 5F       		.byte	0x5f
 871 049c 1A       		.byte	0x1a
 872 049d 98020000 		.4byte	0x298
 873 04a1 14       		.byte	0x14
 874 04a2 08       		.uleb128 0x8
 875 04a3 7D050000 		.4byte	.LASF67
 876 04a7 0A       		.byte	0xa
 877 04a8 62       		.byte	0x62
 878 04a9 1A       		.byte	0x1a
 879 04aa 98020000 		.4byte	0x298
 880 04ae 18       		.byte	0x18
 881 04af 00       		.byte	0
 882 04b0 03       		.uleb128 0x3
 883 04b1 56080000 		.4byte	.LASF68
 884 04b5 0A       		.byte	0xa
 885 04b6 64       		.byte	0x64
 886 04b7 03       		.byte	0x3
 887 04b8 58040000 		.4byte	0x458
 888 04bc 0F       		.uleb128 0xf
 889 04bd 73080000 		.4byte	.LASF70
 890 04c1 0A       		.byte	0xa
 891 04c2 68       		.byte	0x68
 892 04c3 12       		.byte	0x12
 893 04c4 B0040000 		.4byte	0x4b0
 894 04c8 07       		.uleb128 0x7
 895 04c9 79040000 		.4byte	.LASF71
 896 04cd 10       		.byte	0x10
 897 04ce 0B       		.byte	0xb
 898 04cf 25       		.byte	0x25
 899 04d0 10       		.byte	0x10
 900 04d1 FD040000 		.4byte	0x4fd
 901 04d5 08       		.uleb128 0x8
 902 04d6 48010000 		.4byte	.LASF72
 903 04da 0B       		.byte	0xb
 904 04db 26       		.byte	0x26
 905 04dc 19       		.byte	0x19
 906 04dd 9E020000 		.4byte	0x29e
 907 04e1 00       		.byte	0
 908 04e2 08       		.uleb128 0x8
 909 04e3 12090000 		.4byte	.LASF73
 910 04e7 0B       		.byte	0xb
 911 04e8 28       		.byte	0x28
 912 04e9 1A       		.byte	0x1a
ARM GAS  /var/folders/l5/0x54b2c10074c8bt31ycjvl80000gp/T//ccIPedt8.s 			page 17


 913 04ea 98020000 		.4byte	0x298
 914 04ee 08       		.byte	0x8
 915 04ef 08       		.uleb128 0x8
 916 04f0 83070000 		.4byte	.LASF74
 917 04f4 0B       		.byte	0xb
 918 04f5 2A       		.byte	0x2a
 919 04f6 1A       		.byte	0x1a
 920 04f7 FD040000 		.4byte	0x4fd
 921 04fb 0C       		.byte	0xc
 922 04fc 00       		.byte	0
 923 04fd 0B       		.uleb128 0xb
 924 04fe 04       		.byte	0x4
 925 04ff C8040000 		.4byte	0x4c8
 926 0503 03       		.uleb128 0x3
 927 0504 79040000 		.4byte	.LASF71
 928 0508 0B       		.byte	0xb
 929 0509 2C       		.byte	0x2c
 930 050a 03       		.byte	0x3
 931 050b C8040000 		.4byte	0x4c8
 932 050f 03       		.uleb128 0x3
 933 0510 96080000 		.4byte	.LASF75
 934 0514 0C       		.byte	0xc
 935 0515 25       		.byte	0x25
 936 0516 1E       		.byte	0x1e
 937 0517 1B050000 		.4byte	0x51b
 938 051b 07       		.uleb128 0x7
 939 051c 96080000 		.4byte	.LASF75
 940 0520 10       		.byte	0x10
 941 0521 0C       		.byte	0xc
 942 0522 2A       		.byte	0x2a
 943 0523 08       		.byte	0x8
 944 0524 5D050000 		.4byte	0x55d
 945 0528 08       		.uleb128 0x8
 946 0529 6F030000 		.4byte	.LASF76
 947 052d 0C       		.byte	0xc
 948 052e 2B       		.byte	0x2b
 949 052f 1A       		.byte	0x1a
 950 0530 5D050000 		.4byte	0x55d
 951 0534 00       		.byte	0
 952 0535 08       		.uleb128 0x8
 953 0536 25060000 		.4byte	.LASF77
 954 053a 0C       		.byte	0xc
 955 053b 2E       		.byte	0x2e
 956 053c 1A       		.byte	0x1a
 957 053d 98020000 		.4byte	0x298
 958 0541 04       		.byte	0x4
 959 0542 08       		.uleb128 0x8
 960 0543 8F050000 		.4byte	.LASF78
 961 0547 0C       		.byte	0xc
 962 0548 30       		.byte	0x30
 963 0549 19       		.byte	0x19
 964 054a 3A010000 		.4byte	0x13a
 965 054e 08       		.byte	0x8
 966 054f 08       		.uleb128 0x8
 967 0550 31060000 		.4byte	.LASF79
 968 0554 0C       		.byte	0xc
 969 0555 33       		.byte	0x33
ARM GAS  /var/folders/l5/0x54b2c10074c8bt31ycjvl80000gp/T//ccIPedt8.s 			page 18


 970 0556 19       		.byte	0x19
 971 0557 46010000 		.4byte	0x146
 972 055b 0C       		.byte	0xc
 973 055c 00       		.byte	0
 974 055d 0B       		.uleb128 0xb
 975 055e 04       		.byte	0x4
 976 055f 0F050000 		.4byte	0x50f
 977 0563 07       		.uleb128 0x7
 978 0564 81020000 		.4byte	.LASF80
 979 0568 04       		.byte	0x4
 980 0569 0C       		.byte	0xc
 981 056a 3A       		.byte	0x3a
 982 056b 10       		.byte	0x10
 983 056c 7E050000 		.4byte	0x57e
 984 0570 08       		.uleb128 0x8
 985 0571 BD080000 		.4byte	.LASF81
 986 0575 0C       		.byte	0xc
 987 0576 3B       		.byte	0x3b
 988 0577 1A       		.byte	0x1a
 989 0578 5D050000 		.4byte	0x55d
 990 057c 00       		.byte	0
 991 057d 00       		.byte	0
 992 057e 03       		.uleb128 0x3
 993 057f 81020000 		.4byte	.LASF80
 994 0583 0C       		.byte	0xc
 995 0584 3E       		.byte	0x3e
 996 0585 03       		.byte	0x3
 997 0586 63050000 		.4byte	0x563
 998 058a 10       		.uleb128 0x10
 999 058b 04       		.byte	0x4
 1000 058c 07       		.byte	0x7
 1001 058d 8F       		.byte	0x8f
 1002 058e 03       		.byte	0x3
 1003 058f C4050000 		.4byte	0x5c4
 1004 0593 11       		.uleb128 0x11
 1005 0594 1A000000 		.4byte	.LASF82
 1006 0598 07       		.byte	0x7
 1007 0599 96       		.byte	0x96
 1008 059a 19       		.byte	0x19
 1009 059b 2E010000 		.4byte	0x12e
 1010 059f 11       		.uleb128 0x11
 1011 05a0 AA000000 		.4byte	.LASF83
 1012 05a4 07       		.byte	0x7
 1013 05a5 9D       		.byte	0x9d
 1014 05a6 19       		.byte	0x19
 1015 05a7 2E010000 		.4byte	0x12e
 1016 05ab 11       		.uleb128 0x11
 1017 05ac A4080000 		.4byte	.LASF84
 1018 05b0 07       		.byte	0x7
 1019 05b1 A4       		.byte	0xa4
 1020 05b2 1A       		.byte	0x1a
 1021 05b3 E5020000 		.4byte	0x2e5
 1022 05b7 11       		.uleb128 0x11
 1023 05b8 84060000 		.4byte	.LASF85
 1024 05bc 07       		.byte	0x7
 1025 05bd AB       		.byte	0xab
 1026 05be 19       		.byte	0x19
ARM GAS  /var/folders/l5/0x54b2c10074c8bt31ycjvl80000gp/T//ccIPedt8.s 			page 19


 1027 05bf 3A010000 		.4byte	0x13a
 1028 05c3 00       		.byte	0
 1029 05c4 0B       		.uleb128 0xb
 1030 05c5 04       		.byte	0x4
 1031 05c6 D1050000 		.4byte	0x5d1
 1032 05ca 04       		.uleb128 0x4
 1033 05cb 01       		.byte	0x1
 1034 05cc 08       		.byte	0x8
 1035 05cd 54070000 		.4byte	.LASF86
 1036 05d1 06       		.uleb128 0x6
 1037 05d2 CA050000 		.4byte	0x5ca
 1038 05d6 0B       		.uleb128 0xb
 1039 05d7 04       		.byte	0x4
 1040 05d8 03050000 		.4byte	0x503
 1041 05dc 0B       		.uleb128 0xb
 1042 05dd 04       		.byte	0x4
 1043 05de E2050000 		.4byte	0x5e2
 1044 05e2 12       		.uleb128 0x12
 1045 05e3 2E010000 		.4byte	0x12e
 1046 05e7 F1050000 		.4byte	0x5f1
 1047 05eb 0E       		.uleb128 0xe
 1048 05ec E5020000 		.4byte	0x2e5
 1049 05f0 00       		.byte	0
 1050 05f1 0A       		.uleb128 0xa
 1051 05f2 16       		.byte	0x16
 1052 05f3 0D       		.byte	0xd
 1053 05f4 25       		.byte	0x25
 1054 05f5 09       		.byte	0x9
 1055 05f6 E5060000 		.4byte	0x6e5
 1056 05fa 08       		.uleb128 0x8
 1057 05fb FE020000 		.4byte	.LASF87
 1058 05ff 0D       		.byte	0xd
 1059 0600 26       		.byte	0x26
 1060 0601 0D       		.byte	0xd
 1061 0602 E5060000 		.4byte	0x6e5
 1062 0606 00       		.byte	0
 1063 0607 08       		.uleb128 0x8
 1064 0608 9F040000 		.4byte	.LASF88
 1065 060c 0D       		.byte	0xd
 1066 060d 27       		.byte	0x27
 1067 060e 0D       		.byte	0xd
 1068 060f AC000000 		.4byte	0xac
 1069 0613 04       		.byte	0x4
 1070 0614 08       		.uleb128 0x8
 1071 0615 6D050000 		.4byte	.LASF89
 1072 0619 0D       		.byte	0xd
 1073 061a 28       		.byte	0x28
 1074 061b 0D       		.byte	0xd
 1075 061c AC000000 		.4byte	0xac
 1076 0620 05       		.byte	0x5
 1077 0621 08       		.uleb128 0x8
 1078 0622 D7080000 		.4byte	.LASF90
 1079 0626 0D       		.byte	0xd
 1080 0627 29       		.byte	0x29
 1081 0628 0D       		.byte	0xd
 1082 0629 BD000000 		.4byte	0xbd
 1083 062d 06       		.byte	0x6
ARM GAS  /var/folders/l5/0x54b2c10074c8bt31ycjvl80000gp/T//ccIPedt8.s 			page 20


 1084 062e 08       		.uleb128 0x8
 1085 062f D2050000 		.4byte	.LASF91
 1086 0633 0D       		.byte	0xd
 1087 0634 2A       		.byte	0x2a
 1088 0635 0D       		.byte	0xd
 1089 0636 AC000000 		.4byte	0xac
 1090 063a 08       		.byte	0x8
 1091 063b 08       		.uleb128 0x8
 1092 063c EE040000 		.4byte	.LASF92
 1093 0640 0D       		.byte	0xd
 1094 0641 2B       		.byte	0x2b
 1095 0642 0D       		.byte	0xd
 1096 0643 AC000000 		.4byte	0xac
 1097 0647 09       		.byte	0x9
 1098 0648 08       		.uleb128 0x8
 1099 0649 9C000000 		.4byte	.LASF93
 1100 064d 0D       		.byte	0xd
 1101 064e 2C       		.byte	0x2c
 1102 064f 0D       		.byte	0xd
 1103 0650 AC000000 		.4byte	0xac
 1104 0654 0A       		.byte	0xa
 1105 0655 08       		.uleb128 0x8
 1106 0656 13070000 		.4byte	.LASF94
 1107 065a 0D       		.byte	0xd
 1108 065b 2D       		.byte	0x2d
 1109 065c 0D       		.byte	0xd
 1110 065d AC000000 		.4byte	0xac
 1111 0661 0B       		.byte	0xb
 1112 0662 08       		.uleb128 0x8
 1113 0663 3D080000 		.4byte	.LASF95
 1114 0667 0D       		.byte	0xd
 1115 0668 2E       		.byte	0x2e
 1116 0669 0D       		.byte	0xd
 1117 066a AC000000 		.4byte	0xac
 1118 066e 0C       		.byte	0xc
 1119 066f 08       		.uleb128 0x8
 1120 0670 C6060000 		.4byte	.LASF96
 1121 0674 0D       		.byte	0xd
 1122 0675 2F       		.byte	0x2f
 1123 0676 0D       		.byte	0xd
 1124 0677 AC000000 		.4byte	0xac
 1125 067b 0D       		.byte	0xd
 1126 067c 08       		.uleb128 0x8
 1127 067d 00000000 		.4byte	.LASF97
 1128 0681 0D       		.byte	0xd
 1129 0682 30       		.byte	0x30
 1130 0683 0D       		.byte	0xd
 1131 0684 AC000000 		.4byte	0xac
 1132 0688 0E       		.byte	0xe
 1133 0689 08       		.uleb128 0x8
 1134 068a 03050000 		.4byte	.LASF98
 1135 068e 0D       		.byte	0xd
 1136 068f 31       		.byte	0x31
 1137 0690 0D       		.byte	0xd
 1138 0691 AC000000 		.4byte	0xac
 1139 0695 0F       		.byte	0xf
 1140 0696 08       		.uleb128 0x8
ARM GAS  /var/folders/l5/0x54b2c10074c8bt31ycjvl80000gp/T//ccIPedt8.s 			page 21


 1141 0697 13010000 		.4byte	.LASF99
 1142 069b 0D       		.byte	0xd
 1143 069c 32       		.byte	0x32
 1144 069d 0D       		.byte	0xd
 1145 069e AC000000 		.4byte	0xac
 1146 06a2 10       		.byte	0x10
 1147 06a3 08       		.uleb128 0x8
 1148 06a4 D5000000 		.4byte	.LASF100
 1149 06a8 0D       		.byte	0xd
 1150 06a9 34       		.byte	0x34
 1151 06aa 0D       		.byte	0xd
 1152 06ab AC000000 		.4byte	0xac
 1153 06af 11       		.byte	0x11
 1154 06b0 08       		.uleb128 0x8
 1155 06b1 2C010000 		.4byte	.LASF101
 1156 06b5 0D       		.byte	0xd
 1157 06b6 35       		.byte	0x35
 1158 06b7 0D       		.byte	0xd
 1159 06b8 AC000000 		.4byte	0xac
 1160 06bc 12       		.byte	0x12
 1161 06bd 08       		.uleb128 0x8
 1162 06be A7040000 		.4byte	.LASF102
 1163 06c2 0D       		.byte	0xd
 1164 06c3 36       		.byte	0x36
 1165 06c4 0D       		.byte	0xd
 1166 06c5 AC000000 		.4byte	0xac
 1167 06c9 13       		.byte	0x13
 1168 06ca 08       		.uleb128 0x8
 1169 06cb 9A060000 		.4byte	.LASF103
 1170 06cf 0D       		.byte	0xd
 1171 06d0 37       		.byte	0x37
 1172 06d1 0D       		.byte	0xd
 1173 06d2 AC000000 		.4byte	0xac
 1174 06d6 14       		.byte	0x14
 1175 06d7 08       		.uleb128 0x8
 1176 06d8 60060000 		.4byte	.LASF104
 1177 06dc 0D       		.byte	0xd
 1178 06dd 39       		.byte	0x39
 1179 06de 0D       		.byte	0xd
 1180 06df AC000000 		.4byte	0xac
 1181 06e3 15       		.byte	0x15
 1182 06e4 00       		.byte	0
 1183 06e5 13       		.uleb128 0x13
 1184 06e6 CA050000 		.4byte	0x5ca
 1185 06ea F5060000 		.4byte	0x6f5
 1186 06ee 14       		.uleb128 0x14
 1187 06ef 38000000 		.4byte	0x38
 1188 06f3 03       		.byte	0x3
 1189 06f4 00       		.byte	0
 1190 06f5 03       		.uleb128 0x3
 1191 06f6 C8010000 		.4byte	.LASF105
 1192 06fa 0D       		.byte	0xd
 1193 06fb 3A       		.byte	0x3a
 1194 06fc 03       		.byte	0x3
 1195 06fd F1050000 		.4byte	0x5f1
 1196 0701 06       		.uleb128 0x6
 1197 0702 F5060000 		.4byte	0x6f5
ARM GAS  /var/folders/l5/0x54b2c10074c8bt31ycjvl80000gp/T//ccIPedt8.s 			page 22


 1198 0706 0F       		.uleb128 0xf
 1199 0707 D8020000 		.4byte	.LASF106
 1200 070b 0D       		.byte	0xd
 1201 070c 77       		.byte	0x77
 1202 070d 1D       		.byte	0x1d
 1203 070e 01070000 		.4byte	0x701
 1204 0712 03       		.uleb128 0x3
 1205 0713 7F040000 		.4byte	.LASF107
 1206 0717 0E       		.byte	0xe
 1207 0718 30       		.byte	0x30
 1208 0719 1D       		.byte	0x1d
 1209 071a 1E070000 		.4byte	0x71e
 1210 071e 07       		.uleb128 0x7
 1211 071f 7F040000 		.4byte	.LASF107
 1212 0723 24       		.byte	0x24
 1213 0724 0E       		.byte	0xe
 1214 0725 3E       		.byte	0x3e
 1215 0726 08       		.byte	0x8
 1216 0727 94070000 		.4byte	0x794
 1217 072b 08       		.uleb128 0x8
 1218 072c EF000000 		.4byte	.LASF108
 1219 0730 0E       		.byte	0xe
 1220 0731 3F       		.byte	0x3f
 1221 0732 19       		.byte	0x19
 1222 0733 9E020000 		.4byte	0x29e
 1223 0737 00       		.byte	0
 1224 0738 08       		.uleb128 0x8
 1225 0739 DC040000 		.4byte	.LASF109
 1226 073d 0E       		.byte	0xe
 1227 073e 40       		.byte	0x40
 1228 073f 19       		.byte	0x19
 1229 0740 2C000000 		.4byte	0x2c
 1230 0744 08       		.byte	0x8
 1231 0745 08       		.uleb128 0x8
 1232 0746 B1010000 		.4byte	.LASF110
 1233 074a 0E       		.byte	0xe
 1234 074b 41       		.byte	0x41
 1235 074c 1A       		.byte	0x1a
 1236 074d B7070000 		.4byte	0x7b7
 1237 0751 0C       		.byte	0xc
 1238 0752 08       		.uleb128 0x8
 1239 0753 6C000000 		.4byte	.LASF111
 1240 0757 0E       		.byte	0xe
 1241 0758 42       		.byte	0x42
 1242 0759 1A       		.byte	0x1a
 1243 075a B7070000 		.4byte	0x7b7
 1244 075e 10       		.byte	0x10
 1245 075f 08       		.uleb128 0x8
 1246 0760 52050000 		.4byte	.LASF112
 1247 0764 0E       		.byte	0xe
 1248 0765 44       		.byte	0x44
 1249 0766 1A       		.byte	0x1a
 1250 0767 B7070000 		.4byte	0x7b7
 1251 076b 14       		.byte	0x14
 1252 076c 08       		.uleb128 0x8
 1253 076d F6050000 		.4byte	.LASF113
 1254 0771 0E       		.byte	0xe
ARM GAS  /var/folders/l5/0x54b2c10074c8bt31ycjvl80000gp/T//ccIPedt8.s 			page 23


 1255 0772 45       		.byte	0x45
 1256 0773 1A       		.byte	0x1a
 1257 0774 B7070000 		.4byte	0x7b7
 1258 0778 18       		.byte	0x18
 1259 0779 08       		.uleb128 0x8
 1260 077a 60080000 		.4byte	.LASF114
 1261 077e 0E       		.byte	0xe
 1262 077f 46       		.byte	0x46
 1263 0780 19       		.byte	0x19
 1264 0781 94070000 		.4byte	0x794
 1265 0785 1C       		.byte	0x1c
 1266 0786 08       		.uleb128 0x8
 1267 0787 01090000 		.4byte	.LASF115
 1268 078b 0E       		.byte	0xe
 1269 078c 47       		.byte	0x47
 1270 078d 1A       		.byte	0x1a
 1271 078e E5020000 		.4byte	0x2e5
 1272 0792 20       		.byte	0x20
 1273 0793 00       		.byte	0
 1274 0794 03       		.uleb128 0x3
 1275 0795 DD050000 		.4byte	.LASF116
 1276 0799 0E       		.byte	0xe
 1277 079a 33       		.byte	0x33
 1278 079b 10       		.byte	0x10
 1279 079c A0070000 		.4byte	0x7a0
 1280 07a0 0B       		.uleb128 0xb
 1281 07a1 04       		.byte	0x4
 1282 07a2 A6070000 		.4byte	0x7a6
 1283 07a6 0D       		.uleb128 0xd
 1284 07a7 B1070000 		.4byte	0x7b1
 1285 07ab 0E       		.uleb128 0xe
 1286 07ac B1070000 		.4byte	0x7b1
 1287 07b0 00       		.byte	0
 1288 07b1 0B       		.uleb128 0xb
 1289 07b2 04       		.byte	0x4
 1290 07b3 12070000 		.4byte	0x712
 1291 07b7 0B       		.uleb128 0xb
 1292 07b8 04       		.byte	0x4
 1293 07b9 AC000000 		.4byte	0xac
 1294 07bd 03       		.uleb128 0x3
 1295 07be 6E040000 		.4byte	.LASF117
 1296 07c2 0E       		.byte	0xe
 1297 07c3 7B       		.byte	0x7b
 1298 07c4 16       		.byte	0x16
 1299 07c5 12070000 		.4byte	0x712
 1300 07c9 03       		.uleb128 0x3
 1301 07ca 27000000 		.4byte	.LASF118
 1302 07ce 0E       		.byte	0xe
 1303 07cf EE       		.byte	0xee
 1304 07d0 16       		.byte	0x16
 1305 07d1 12070000 		.4byte	0x712
 1306 07d5 12       		.uleb128 0x12
 1307 07d6 2C000000 		.4byte	0x2c
 1308 07da EE070000 		.4byte	0x7ee
 1309 07de 0E       		.uleb128 0xe
 1310 07df E5020000 		.4byte	0x2e5
 1311 07e3 0E       		.uleb128 0xe
ARM GAS  /var/folders/l5/0x54b2c10074c8bt31ycjvl80000gp/T//ccIPedt8.s 			page 24


 1312 07e4 EE070000 		.4byte	0x7ee
 1313 07e8 0E       		.uleb128 0xe
 1314 07e9 2C000000 		.4byte	0x2c
 1315 07ed 00       		.byte	0
 1316 07ee 0B       		.uleb128 0xb
 1317 07ef 04       		.byte	0x4
 1318 07f0 B8000000 		.4byte	0xb8
 1319 07f4 0B       		.uleb128 0xb
 1320 07f5 04       		.byte	0x4
 1321 07f6 D5070000 		.4byte	0x7d5
 1322 07fa 12       		.uleb128 0x12
 1323 07fb 2C000000 		.4byte	0x2c
 1324 07ff 13080000 		.4byte	0x813
 1325 0803 0E       		.uleb128 0xe
 1326 0804 E5020000 		.4byte	0x2e5
 1327 0808 0E       		.uleb128 0xe
 1328 0809 B7070000 		.4byte	0x7b7
 1329 080d 0E       		.uleb128 0xe
 1330 080e 2C000000 		.4byte	0x2c
 1331 0812 00       		.byte	0
 1332 0813 0B       		.uleb128 0xb
 1333 0814 04       		.byte	0x4
 1334 0815 FA070000 		.4byte	0x7fa
 1335 0819 12       		.uleb128 0x12
 1336 081a 2E010000 		.4byte	0x12e
 1337 081e 2D080000 		.4byte	0x82d
 1338 0822 0E       		.uleb128 0xe
 1339 0823 E5020000 		.4byte	0x2e5
 1340 0827 0E       		.uleb128 0xe
 1341 0828 AC000000 		.4byte	0xac
 1342 082c 00       		.byte	0
 1343 082d 0B       		.uleb128 0xb
 1344 082e 04       		.byte	0x4
 1345 082f 19080000 		.4byte	0x819
 1346 0833 13       		.uleb128 0x13
 1347 0834 CD020000 		.4byte	0x2cd
 1348 0838 43080000 		.4byte	0x843
 1349 083c 14       		.uleb128 0x14
 1350 083d 38000000 		.4byte	0x38
 1351 0841 26       		.byte	0x26
 1352 0842 00       		.byte	0
 1353 0843 0F       		.uleb128 0xf
 1354 0844 F4010000 		.4byte	.LASF119
 1355 0848 0F       		.byte	0xf
 1356 0849 82       		.byte	0x82
 1357 084a 08       		.byte	0x8
 1358 084b 33080000 		.4byte	0x833
 1359 084f 07       		.uleb128 0x7
 1360 0850 4F000000 		.4byte	.LASF120
 1361 0854 20       		.byte	0x20
 1362 0855 10       		.byte	0x10
 1363 0856 FD       		.byte	0xfd
 1364 0857 08       		.byte	0x8
 1365 0858 CB080000 		.4byte	0x8cb
 1366 085c 08       		.uleb128 0x8
 1367 085d 3D020000 		.4byte	.LASF121
 1368 0861 10       		.byte	0x10
ARM GAS  /var/folders/l5/0x54b2c10074c8bt31ycjvl80000gp/T//ccIPedt8.s 			page 25


 1369 0862 FE       		.byte	0xfe
 1370 0863 19       		.byte	0x19
 1371 0864 3F000000 		.4byte	0x3f
 1372 0868 00       		.byte	0
 1373 0869 08       		.uleb128 0x8
 1374 086a 4F080000 		.4byte	.LASF122
 1375 086e 10       		.byte	0x10
 1376 086f FF       		.byte	0xff
 1377 0870 19       		.byte	0x19
 1378 0871 3F000000 		.4byte	0x3f
 1379 0875 04       		.byte	0x4
 1380 0876 15       		.uleb128 0x15
 1381 0877 E8080000 		.4byte	.LASF123
 1382 087b 10       		.byte	0x10
 1383 087c 0001     		.2byte	0x100
 1384 087e 19       		.byte	0x19
 1385 087f 3F000000 		.4byte	0x3f
 1386 0883 08       		.byte	0x8
 1387 0884 15       		.uleb128 0x15
 1388 0885 61020000 		.4byte	.LASF124
 1389 0889 10       		.byte	0x10
 1390 088a 0101     		.2byte	0x101
 1391 088c 19       		.byte	0x19
 1392 088d 3F000000 		.4byte	0x3f
 1393 0891 0C       		.byte	0xc
 1394 0892 15       		.uleb128 0x15
 1395 0893 BD000000 		.4byte	.LASF125
 1396 0897 10       		.byte	0x10
 1397 0898 0201     		.2byte	0x102
 1398 089a 19       		.byte	0x19
 1399 089b 3F000000 		.4byte	0x3f
 1400 089f 10       		.byte	0x10
 1401 08a0 15       		.uleb128 0x15
 1402 08a1 CF040000 		.4byte	.LASF126
 1403 08a5 10       		.byte	0x10
 1404 08a6 0301     		.2byte	0x103
 1405 08a8 19       		.byte	0x19
 1406 08a9 3F000000 		.4byte	0x3f
 1407 08ad 14       		.byte	0x14
 1408 08ae 15       		.uleb128 0x15
 1409 08af A1010000 		.4byte	.LASF127
 1410 08b3 10       		.byte	0x10
 1411 08b4 0401     		.2byte	0x104
 1412 08b6 19       		.byte	0x19
 1413 08b7 3F000000 		.4byte	0x3f
 1414 08bb 18       		.byte	0x18
 1415 08bc 15       		.uleb128 0x15
 1416 08bd 45090000 		.4byte	.LASF128
 1417 08c1 10       		.byte	0x10
 1418 08c2 0501     		.2byte	0x105
 1419 08c4 19       		.byte	0x19
 1420 08c5 3F000000 		.4byte	0x3f
 1421 08c9 1C       		.byte	0x1c
 1422 08ca 00       		.byte	0
 1423 08cb 16       		.uleb128 0x16
 1424 08cc 4F000000 		.4byte	.LASF120
 1425 08d0 10       		.byte	0x10
ARM GAS  /var/folders/l5/0x54b2c10074c8bt31ycjvl80000gp/T//ccIPedt8.s 			page 26


 1426 08d1 0801     		.2byte	0x108
 1427 08d3 1C       		.byte	0x1c
 1428 08d4 4F080000 		.4byte	0x84f
 1429 08d8 03       		.uleb128 0x3
 1430 08d9 5B000000 		.4byte	.LASF129
 1431 08dd 11       		.byte	0x11
 1432 08de 45       		.byte	0x45
 1433 08df 12       		.byte	0x12
 1434 08e0 D5000000 		.4byte	0xd5
 1435 08e4 12       		.uleb128 0x12
 1436 08e5 2E010000 		.4byte	0x12e
 1437 08e9 FD080000 		.4byte	0x8fd
 1438 08ed 0E       		.uleb128 0xe
 1439 08ee E5020000 		.4byte	0x2e5
 1440 08f2 0E       		.uleb128 0xe
 1441 08f3 AC000000 		.4byte	0xac
 1442 08f7 0E       		.uleb128 0xe
 1443 08f8 52010000 		.4byte	0x152
 1444 08fc 00       		.byte	0
 1445 08fd 0B       		.uleb128 0xb
 1446 08fe 04       		.byte	0x4
 1447 08ff E4080000 		.4byte	0x8e4
 1448 0903 12       		.uleb128 0x12
 1449 0904 2E010000 		.4byte	0x12e
 1450 0908 17090000 		.4byte	0x917
 1451 090c 0E       		.uleb128 0xe
 1452 090d E5020000 		.4byte	0x2e5
 1453 0911 0E       		.uleb128 0xe
 1454 0912 52010000 		.4byte	0x152
 1455 0916 00       		.byte	0
 1456 0917 0B       		.uleb128 0xb
 1457 0918 04       		.byte	0x4
 1458 0919 03090000 		.4byte	0x903
 1459 091d 12       		.uleb128 0x12
 1460 091e 2C000000 		.4byte	0x2c
 1461 0922 3B090000 		.4byte	0x93b
 1462 0926 0E       		.uleb128 0xe
 1463 0927 E5020000 		.4byte	0x2e5
 1464 092b 0E       		.uleb128 0xe
 1465 092c EE070000 		.4byte	0x7ee
 1466 0930 0E       		.uleb128 0xe
 1467 0931 2C000000 		.4byte	0x2c
 1468 0935 0E       		.uleb128 0xe
 1469 0936 52010000 		.4byte	0x152
 1470 093a 00       		.byte	0
 1471 093b 0B       		.uleb128 0xb
 1472 093c 04       		.byte	0x4
 1473 093d 1D090000 		.4byte	0x91d
 1474 0941 12       		.uleb128 0x12
 1475 0942 2C000000 		.4byte	0x2c
 1476 0946 5F090000 		.4byte	0x95f
 1477 094a 0E       		.uleb128 0xe
 1478 094b E5020000 		.4byte	0x2e5
 1479 094f 0E       		.uleb128 0xe
 1480 0950 B7070000 		.4byte	0x7b7
 1481 0954 0E       		.uleb128 0xe
 1482 0955 2C000000 		.4byte	0x2c
ARM GAS  /var/folders/l5/0x54b2c10074c8bt31ycjvl80000gp/T//ccIPedt8.s 			page 27


 1483 0959 0E       		.uleb128 0xe
 1484 095a 52010000 		.4byte	0x152
 1485 095e 00       		.byte	0
 1486 095f 0B       		.uleb128 0xb
 1487 0960 04       		.byte	0x4
 1488 0961 41090000 		.4byte	0x941
 1489 0965 0A       		.uleb128 0xa
 1490 0966 18       		.byte	0x18
 1491 0967 12       		.byte	0x12
 1492 0968 2A       		.byte	0x2a
 1493 0969 09       		.byte	0x9
 1494 096a BD090000 		.4byte	0x9bd
 1495 096e 08       		.uleb128 0x8
 1496 096f 90080000 		.4byte	.LASF130
 1497 0973 12       		.byte	0x12
 1498 0974 2F       		.byte	0x2f
 1499 0975 15       		.byte	0x15
 1500 0976 D5000000 		.4byte	0xd5
 1501 097a 00       		.byte	0
 1502 097b 08       		.uleb128 0x8
 1503 097c 97050000 		.4byte	.LASF131
 1504 0980 12       		.byte	0x12
 1505 0981 31       		.byte	0x31
 1506 0982 16       		.byte	0x16
 1507 0983 BD090000 		.4byte	0x9bd
 1508 0987 04       		.byte	0x4
 1509 0988 08       		.uleb128 0x8
 1510 0989 4E030000 		.4byte	.LASF132
 1511 098d 12       		.byte	0x12
 1512 098e 32       		.byte	0x32
 1513 098f 16       		.byte	0x16
 1514 0990 BD090000 		.4byte	0x9bd
 1515 0994 08       		.byte	0x8
 1516 0995 08       		.uleb128 0x8
 1517 0996 B3040000 		.4byte	.LASF133
 1518 099a 12       		.byte	0x12
 1519 099b 33       		.byte	0x33
 1520 099c 16       		.byte	0x16
 1521 099d BD090000 		.4byte	0x9bd
 1522 09a1 0C       		.byte	0xc
 1523 09a2 08       		.uleb128 0x8
 1524 09a3 9D050000 		.4byte	.LASF134
 1525 09a7 12       		.byte	0x12
 1526 09a8 34       		.byte	0x34
 1527 09a9 16       		.byte	0x16
 1528 09aa BD090000 		.4byte	0x9bd
 1529 09ae 10       		.byte	0x10
 1530 09af 08       		.uleb128 0x8
 1531 09b0 7B060000 		.4byte	.LASF135
 1532 09b4 12       		.byte	0x12
 1533 09b5 35       		.byte	0x35
 1534 09b6 10       		.byte	0x10
 1535 09b7 38000000 		.4byte	0x38
 1536 09bb 14       		.byte	0x14
 1537 09bc 00       		.byte	0
 1538 09bd 0B       		.uleb128 0xb
 1539 09be 04       		.byte	0x4
ARM GAS  /var/folders/l5/0x54b2c10074c8bt31ycjvl80000gp/T//ccIPedt8.s 			page 28


 1540 09bf E1000000 		.4byte	0xe1
 1541 09c3 03       		.uleb128 0x3
 1542 09c4 42030000 		.4byte	.LASF136
 1543 09c8 12       		.byte	0x12
 1544 09c9 37       		.byte	0x37
 1545 09ca 03       		.byte	0x3
 1546 09cb 65090000 		.4byte	0x965
 1547 09cf 17       		.uleb128 0x17
 1548 09d0 00       		.byte	0
 1549 09d1 12       		.byte	0x12
 1550 09d2 43       		.byte	0x43
 1551 09d3 09       		.byte	0x9
 1552 09d4 03       		.uleb128 0x3
 1553 09d5 08090000 		.4byte	.LASF137
 1554 09d9 12       		.byte	0x12
 1555 09da 45       		.byte	0x45
 1556 09db 03       		.byte	0x3
 1557 09dc CF090000 		.4byte	0x9cf
 1558 09e0 06       		.uleb128 0x6
 1559 09e1 D4090000 		.4byte	0x9d4
 1560 09e5 0F       		.uleb128 0xf
 1561 09e6 75050000 		.4byte	.LASF138
 1562 09ea 12       		.byte	0x12
 1563 09eb 6D       		.byte	0x6d
 1564 09ec 14       		.byte	0x14
 1565 09ed C3090000 		.4byte	0x9c3
 1566 09f1 0F       		.uleb128 0xf
 1567 09f2 92060000 		.4byte	.LASF139
 1568 09f6 12       		.byte	0x12
 1569 09f7 6E       		.byte	0x6e
 1570 09f8 14       		.byte	0x14
 1571 09f9 C3090000 		.4byte	0x9c3
 1572 09fd 0F       		.uleb128 0xf
 1573 09fe 1A090000 		.4byte	.LASF140
 1574 0a02 12       		.byte	0x12
 1575 0a03 75       		.byte	0x75
 1576 0a04 18       		.byte	0x18
 1577 0a05 E0090000 		.4byte	0x9e0
 1578 0a09 18       		.uleb128 0x18
 1579 0a0a 07       		.byte	0x7
 1580 0a0b 01       		.byte	0x1
 1581 0a0c 57000000 		.4byte	0x57
 1582 0a10 13       		.byte	0x13
 1583 0a11 54       		.byte	0x54
 1584 0a12 0E       		.byte	0xe
 1585 0a13 3C0A0000 		.4byte	0xa3c
 1586 0a17 19       		.uleb128 0x19
 1587 0a18 6D010000 		.4byte	.LASF141
 1588 0a1c 00       		.byte	0
 1589 0a1d 19       		.uleb128 0x19
 1590 0a1e C6040000 		.4byte	.LASF142
 1591 0a22 01       		.byte	0x1
 1592 0a23 19       		.uleb128 0x19
 1593 0a24 A9070000 		.4byte	.LASF143
 1594 0a28 02       		.byte	0x2
 1595 0a29 19       		.uleb128 0x19
 1596 0a2a D2010000 		.4byte	.LASF144
ARM GAS  /var/folders/l5/0x54b2c10074c8bt31ycjvl80000gp/T//ccIPedt8.s 			page 29


 1597 0a2e 03       		.byte	0x3
 1598 0a2f 19       		.uleb128 0x19
 1599 0a30 41070000 		.4byte	.LASF145
 1600 0a34 04       		.byte	0x4
 1601 0a35 19       		.uleb128 0x19
 1602 0a36 D3060000 		.4byte	.LASF146
 1603 0a3a 05       		.byte	0x5
 1604 0a3b 00       		.byte	0
 1605 0a3c 03       		.uleb128 0x3
 1606 0a3d C7050000 		.4byte	.LASF147
 1607 0a41 13       		.byte	0x13
 1608 0a42 5B       		.byte	0x5b
 1609 0a43 03       		.byte	0x3
 1610 0a44 090A0000 		.4byte	0xa09
 1611 0a48 03       		.uleb128 0x3
 1612 0a49 B3070000 		.4byte	.LASF148
 1613 0a4d 14       		.byte	0x14
 1614 0a4e 38       		.byte	0x38
 1615 0a4f 1A       		.byte	0x1a
 1616 0a50 540A0000 		.4byte	0xa54
 1617 0a54 07       		.uleb128 0x7
 1618 0a55 B3070000 		.4byte	.LASF148
 1619 0a59 40       		.byte	0x40
 1620 0a5a 14       		.byte	0x14
 1621 0a5b 62       		.byte	0x62
 1622 0a5c 08       		.byte	0x8
 1623 0a5d 0B0B0000 		.4byte	0xb0b
 1624 0a61 08       		.uleb128 0x8
 1625 0a62 82010000 		.4byte	.LASF149
 1626 0a66 14       		.byte	0x14
 1627 0a67 64       		.byte	0x64
 1628 0a68 1D       		.byte	0x1d
 1629 0a69 3C0A0000 		.4byte	0xa3c
 1630 0a6d 00       		.byte	0
 1631 0a6e 08       		.uleb128 0x8
 1632 0a6f 66070000 		.4byte	.LASF150
 1633 0a73 14       		.byte	0x14
 1634 0a74 66       		.byte	0x66
 1635 0a75 1E       		.byte	0x1e
 1636 0a76 4B0B0000 		.4byte	0xb4b
 1637 0a7a 04       		.byte	0x4
 1638 0a7b 08       		.uleb128 0x8
 1639 0a7c B8020000 		.4byte	.LASF151
 1640 0a80 14       		.byte	0x14
 1641 0a81 68       		.byte	0x68
 1642 0a82 1D       		.byte	0x1d
 1643 0a83 0B0B0000 		.4byte	0xb0b
 1644 0a87 08       		.byte	0x8
 1645 0a88 08       		.uleb128 0x8
 1646 0a89 E8000000 		.4byte	.LASF152
 1647 0a8d 14       		.byte	0x14
 1648 0a8e 6A       		.byte	0x6a
 1649 0a8f 1E       		.byte	0x1e
 1650 0a90 510B0000 		.4byte	0xb51
 1651 0a94 0C       		.byte	0xc
 1652 0a95 08       		.uleb128 0x8
 1653 0a96 09060000 		.4byte	.LASF153
ARM GAS  /var/folders/l5/0x54b2c10074c8bt31ycjvl80000gp/T//ccIPedt8.s 			page 30


 1654 0a9a 14       		.byte	0x14
 1655 0a9b 6D       		.byte	0x6d
 1656 0a9c 1D       		.byte	0x1d
 1657 0a9d 03050000 		.4byte	0x503
 1658 0aa1 10       		.byte	0x10
 1659 0aa2 08       		.uleb128 0x8
 1660 0aa3 9A010000 		.4byte	.LASF154
 1661 0aa7 14       		.byte	0x14
 1662 0aa8 77       		.byte	0x77
 1663 0aa9 1E       		.byte	0x1e
 1664 0aaa 98020000 		.4byte	0x298
 1665 0aae 20       		.byte	0x20
 1666 0aaf 08       		.uleb128 0x8
 1667 0ab0 50010000 		.4byte	.LASF155
 1668 0ab4 14       		.byte	0x14
 1669 0ab5 7B       		.byte	0x7b
 1670 0ab6 1D       		.byte	0x1d
 1671 0ab7 170B0000 		.4byte	0xb17
 1672 0abb 24       		.byte	0x24
 1673 0abc 08       		.uleb128 0x8
 1674 0abd A2020000 		.4byte	.LASF156
 1675 0ac1 14       		.byte	0x14
 1676 0ac2 7F       		.byte	0x7f
 1677 0ac3 1E       		.byte	0x1e
 1678 0ac4 EE070000 		.4byte	0x7ee
 1679 0ac8 28       		.byte	0x28
 1680 0ac9 08       		.uleb128 0x8
 1681 0aca 3D090000 		.4byte	.LASF157
 1682 0ace 14       		.byte	0x14
 1683 0acf 83       		.byte	0x83
 1684 0ad0 1D       		.byte	0x1d
 1685 0ad1 2C000000 		.4byte	0x2c
 1686 0ad5 2C       		.byte	0x2c
 1687 0ad6 08       		.uleb128 0x8
 1688 0ad7 37080000 		.4byte	.LASF158
 1689 0adb 14       		.byte	0x14
 1690 0adc 87       		.byte	0x87
 1691 0add 1D       		.byte	0x1d
 1692 0ade 2C000000 		.4byte	0x2c
 1693 0ae2 30       		.byte	0x30
 1694 0ae3 08       		.uleb128 0x8
 1695 0ae4 66000000 		.4byte	.LASF159
 1696 0ae8 14       		.byte	0x14
 1697 0ae9 8B       		.byte	0x8b
 1698 0aea 1E       		.byte	0x1e
 1699 0aeb B7070000 		.4byte	0x7b7
 1700 0aef 34       		.byte	0x34
 1701 0af0 08       		.uleb128 0x8
 1702 0af1 4A050000 		.4byte	.LASF160
 1703 0af5 14       		.byte	0x14
 1704 0af6 8F       		.byte	0x8f
 1705 0af7 1D       		.byte	0x1d
 1706 0af8 2C000000 		.4byte	0x2c
 1707 0afc 38       		.byte	0x38
 1708 0afd 08       		.uleb128 0x8
 1709 0afe AB010000 		.4byte	.LASF161
 1710 0b02 14       		.byte	0x14
ARM GAS  /var/folders/l5/0x54b2c10074c8bt31ycjvl80000gp/T//ccIPedt8.s 			page 31


 1711 0b03 93       		.byte	0x93
 1712 0b04 1D       		.byte	0x1d
 1713 0b05 2C000000 		.4byte	0x2c
 1714 0b09 3C       		.byte	0x3c
 1715 0b0a 00       		.byte	0
 1716 0b0b 03       		.uleb128 0x3
 1717 0b0c FE050000 		.4byte	.LASF162
 1718 0b10 14       		.byte	0x14
 1719 0b11 42       		.byte	0x42
 1720 0b12 12       		.byte	0x12
 1721 0b13 D5000000 		.4byte	0xd5
 1722 0b17 03       		.uleb128 0x3
 1723 0b18 78010000 		.4byte	.LASF163
 1724 0b1c 14       		.byte	0x14
 1725 0b1d 48       		.byte	0x48
 1726 0b1e 12       		.byte	0x12
 1727 0b1f BD000000 		.4byte	0xbd
 1728 0b23 0A       		.uleb128 0xa
 1729 0b24 04       		.byte	0x4
 1730 0b25 14       		.byte	0x14
 1731 0b26 57       		.byte	0x57
 1732 0b27 09       		.byte	0x9
 1733 0b28 3A0B0000 		.4byte	0xb3a
 1734 0b2c 08       		.uleb128 0x8
 1735 0b2d FA040000 		.4byte	.LASF164
 1736 0b31 14       		.byte	0x14
 1737 0b32 59       		.byte	0x59
 1738 0b33 1D       		.byte	0x1d
 1739 0b34 D5000000 		.4byte	0xd5
 1740 0b38 00       		.byte	0
 1741 0b39 00       		.byte	0
 1742 0b3a 03       		.uleb128 0x3
 1743 0b3b 23080000 		.4byte	.LASF165
 1744 0b3f 14       		.byte	0x14
 1745 0b40 5B       		.byte	0x5b
 1746 0b41 03       		.byte	0x3
 1747 0b42 230B0000 		.4byte	0xb23
 1748 0b46 06       		.uleb128 0x6
 1749 0b47 3A0B0000 		.4byte	0xb3a
 1750 0b4b 0B       		.uleb128 0xb
 1751 0b4c 04       		.byte	0x4
 1752 0b4d 460B0000 		.4byte	0xb46
 1753 0b51 0B       		.uleb128 0xb
 1754 0b52 04       		.byte	0x4
 1755 0b53 CB080000 		.4byte	0x8cb
 1756 0b57 0F       		.uleb128 0xf
 1757 0b58 7C020000 		.4byte	.LASF166
 1758 0b5c 14       		.byte	0x14
 1759 0b5d A6       		.byte	0xa6
 1760 0b5e 12       		.byte	0x12
 1761 0b5f 480A0000 		.4byte	0xa48
 1762 0b63 18       		.uleb128 0x18
 1763 0b64 07       		.byte	0x7
 1764 0b65 01       		.byte	0x1
 1765 0b66 57000000 		.4byte	0x57
 1766 0b6a 15       		.byte	0x15
 1767 0b6b 5D       		.byte	0x5d
ARM GAS  /var/folders/l5/0x54b2c10074c8bt31ycjvl80000gp/T//ccIPedt8.s 			page 32


 1768 0b6c 0E       		.byte	0xe
 1769 0b6d 840B0000 		.4byte	0xb84
 1770 0b71 19       		.uleb128 0x19
 1771 0b72 E9060000 		.4byte	.LASF167
 1772 0b76 00       		.byte	0
 1773 0b77 19       		.uleb128 0x19
 1774 0b78 39010000 		.4byte	.LASF168
 1775 0b7c 01       		.byte	0x1
 1776 0b7d 19       		.uleb128 0x19
 1777 0b7e F2070000 		.4byte	.LASF169
 1778 0b82 02       		.byte	0x2
 1779 0b83 00       		.byte	0
 1780 0b84 03       		.uleb128 0x3
 1781 0b85 2D080000 		.4byte	.LASF170
 1782 0b89 15       		.byte	0x15
 1783 0b8a 61       		.byte	0x61
 1784 0b8b 03       		.byte	0x3
 1785 0b8c 630B0000 		.4byte	0xb63
 1786 0b90 03       		.uleb128 0x3
 1787 0b91 34070000 		.4byte	.LASF171
 1788 0b95 15       		.byte	0x15
 1789 0b96 66       		.byte	0x66
 1790 0b97 1D       		.byte	0x1d
 1791 0b98 9C0B0000 		.4byte	0xb9c
 1792 0b9c 07       		.uleb128 0x7
 1793 0b9d 34070000 		.4byte	.LASF171
 1794 0ba1 74       		.byte	0x74
 1795 0ba2 15       		.byte	0x15
 1796 0ba3 80       		.byte	0x80
 1797 0ba4 08       		.byte	0x8
 1798 0ba5 030C0000 		.4byte	0xc03
 1799 0ba9 09       		.uleb128 0x9
 1800 0baa 766D7400 		.ascii	"vmt\000"
 1801 0bae 15       		.byte	0x15
 1802 0baf 82       		.byte	0x82
 1803 0bb0 21       		.byte	0x21
 1804 0bb1 8A0C0000 		.4byte	0xc8a
 1805 0bb5 00       		.byte	0
 1806 0bb6 08       		.uleb128 0x8
 1807 0bb7 21030000 		.4byte	.LASF172
 1808 0bbb 15       		.byte	0x15
 1809 0bbc 83       		.byte	0x83
 1810 0bbd 03       		.byte	0x3
 1811 0bbe 7E050000 		.4byte	0x57e
 1812 0bc2 04       		.byte	0x4
 1813 0bc3 08       		.uleb128 0x8
 1814 0bc4 82010000 		.4byte	.LASF149
 1815 0bc8 15       		.byte	0x15
 1816 0bc9 83       		.byte	0x83
 1817 0bca 03       		.byte	0x3
 1818 0bcb 840B0000 		.4byte	0xb84
 1819 0bcf 08       		.byte	0x8
 1820 0bd0 08       		.uleb128 0x8
 1821 0bd1 BF020000 		.4byte	.LASF173
 1822 0bd5 15       		.byte	0x15
 1823 0bd6 83       		.byte	0x83
 1824 0bd7 03       		.byte	0x3
ARM GAS  /var/folders/l5/0x54b2c10074c8bt31ycjvl80000gp/T//ccIPedt8.s 			page 33


 1825 0bd8 BD070000 		.4byte	0x7bd
 1826 0bdc 0C       		.byte	0xc
 1827 0bdd 08       		.uleb128 0x8
 1828 0bde 60030000 		.4byte	.LASF174
 1829 0be2 15       		.byte	0x15
 1830 0be3 83       		.byte	0x83
 1831 0be4 03       		.byte	0x3
 1832 0be5 C9070000 		.4byte	0x7c9
 1833 0be9 30       		.byte	0x30
 1834 0bea 09       		.uleb128 0x9
 1835 0beb 696200   		.ascii	"ib\000"
 1836 0bee 15       		.byte	0x15
 1837 0bef 83       		.byte	0x83
 1838 0bf0 03       		.byte	0x3
 1839 0bf1 900C0000 		.4byte	0xc90
 1840 0bf5 54       		.byte	0x54
 1841 0bf6 09       		.uleb128 0x9
 1842 0bf7 6F6200   		.ascii	"ob\000"
 1843 0bfa 15       		.byte	0x15
 1844 0bfb 83       		.byte	0x83
 1845 0bfc 03       		.byte	0x3
 1846 0bfd 900C0000 		.4byte	0xc90
 1847 0c01 64       		.byte	0x64
 1848 0c02 00       		.byte	0
 1849 0c03 1A       		.uleb128 0x1a
 1850 0c04 53443100 		.ascii	"SD1\000"
 1851 0c08 1A       		.byte	0x1a
 1852 0c09 62       		.byte	0x62
 1853 0c0a 15       		.byte	0x15
 1854 0c0b 900B0000 		.4byte	0xb90
 1855 0c0f 07       		.uleb128 0x7
 1856 0c10 A8020000 		.4byte	.LASF175
 1857 0c14 20       		.byte	0x20
 1858 0c15 15       		.byte	0x15
 1859 0c16 75       		.byte	0x75
 1860 0c17 08       		.byte	0x8
 1861 0c18 850C0000 		.4byte	0xc85
 1862 0c1c 08       		.uleb128 0x8
 1863 0c1d 21000000 		.4byte	.LASF176
 1864 0c21 15       		.byte	0x15
 1865 0c22 76       		.byte	0x76
 1866 0c23 03       		.byte	0x3
 1867 0c24 F4070000 		.4byte	0x7f4
 1868 0c28 00       		.byte	0
 1869 0c29 08       		.uleb128 0x8
 1870 0c2a 4F070000 		.4byte	.LASF177
 1871 0c2e 15       		.byte	0x15
 1872 0c2f 76       		.byte	0x76
 1873 0c30 03       		.byte	0x3
 1874 0c31 13080000 		.4byte	0x813
 1875 0c35 04       		.byte	0x4
 1876 0c36 09       		.uleb128 0x9
 1877 0c37 70757400 		.ascii	"put\000"
 1878 0c3b 15       		.byte	0x15
 1879 0c3c 76       		.byte	0x76
 1880 0c3d 03       		.byte	0x3
 1881 0c3e 2D080000 		.4byte	0x82d
ARM GAS  /var/folders/l5/0x54b2c10074c8bt31ycjvl80000gp/T//ccIPedt8.s 			page 34


 1882 0c42 08       		.byte	0x8
 1883 0c43 09       		.uleb128 0x9
 1884 0c44 67657400 		.ascii	"get\000"
 1885 0c48 15       		.byte	0x15
 1886 0c49 76       		.byte	0x76
 1887 0c4a 03       		.byte	0x3
 1888 0c4b DC050000 		.4byte	0x5dc
 1889 0c4f 0C       		.byte	0xc
 1890 0c50 08       		.uleb128 0x8
 1891 0c51 B9040000 		.4byte	.LASF178
 1892 0c55 15       		.byte	0x15
 1893 0c56 76       		.byte	0x76
 1894 0c57 03       		.byte	0x3
 1895 0c58 FD080000 		.4byte	0x8fd
 1896 0c5c 10       		.byte	0x10
 1897 0c5d 08       		.uleb128 0x8
 1898 0c5e F0020000 		.4byte	.LASF179
 1899 0c62 15       		.byte	0x15
 1900 0c63 76       		.byte	0x76
 1901 0c64 03       		.byte	0x3
 1902 0c65 17090000 		.4byte	0x917
 1903 0c69 14       		.byte	0x14
 1904 0c6a 08       		.uleb128 0x8
 1905 0c6b 47040000 		.4byte	.LASF180
 1906 0c6f 15       		.byte	0x15
 1907 0c70 76       		.byte	0x76
 1908 0c71 03       		.byte	0x3
 1909 0c72 3B090000 		.4byte	0x93b
 1910 0c76 18       		.byte	0x18
 1911 0c77 08       		.uleb128 0x8
 1912 0c78 E2000000 		.4byte	.LASF181
 1913 0c7c 15       		.byte	0x15
 1914 0c7d 76       		.byte	0x76
 1915 0c7e 03       		.byte	0x3
 1916 0c7f 5F090000 		.4byte	0x95f
 1917 0c83 1C       		.byte	0x1c
 1918 0c84 00       		.byte	0
 1919 0c85 06       		.uleb128 0x6
 1920 0c86 0F0C0000 		.4byte	0xc0f
 1921 0c8a 0B       		.uleb128 0xb
 1922 0c8b 04       		.byte	0x4
 1923 0c8c 850C0000 		.4byte	0xc85
 1924 0c90 13       		.uleb128 0x13
 1925 0c91 AC000000 		.4byte	0xac
 1926 0c95 A00C0000 		.4byte	0xca0
 1927 0c99 14       		.uleb128 0x14
 1928 0c9a 38000000 		.4byte	0x38
 1929 0c9e 0F       		.byte	0xf
 1930 0c9f 00       		.byte	0
 1931 0ca0 18       		.uleb128 0x18
 1932 0ca1 07       		.byte	0x7
 1933 0ca2 01       		.byte	0x1
 1934 0ca3 57000000 		.4byte	0x57
 1935 0ca7 16       		.byte	0x16
 1936 0ca8 4E       		.byte	0x4e
 1937 0ca9 0E       		.byte	0xe
 1938 0caa CD0C0000 		.4byte	0xccd
ARM GAS  /var/folders/l5/0x54b2c10074c8bt31ycjvl80000gp/T//ccIPedt8.s 			page 35


 1939 0cae 19       		.uleb128 0x19
 1940 0caf 05080000 		.4byte	.LASF182
 1941 0cb3 00       		.byte	0
 1942 0cb4 19       		.uleb128 0x19
 1943 0cb5 23010000 		.4byte	.LASF183
 1944 0cb9 01       		.byte	0x1
 1945 0cba 19       		.uleb128 0x19
 1946 0cbb FB070000 		.4byte	.LASF184
 1947 0cbf 02       		.byte	0x2
 1948 0cc0 19       		.uleb128 0x19
 1949 0cc1 3D000000 		.4byte	.LASF185
 1950 0cc5 03       		.byte	0x3
 1951 0cc6 19       		.uleb128 0x19
 1952 0cc7 59070000 		.4byte	.LASF186
 1953 0ccb 04       		.byte	0x4
 1954 0ccc 00       		.byte	0
 1955 0ccd 03       		.uleb128 0x3
 1956 0cce 78070000 		.4byte	.LASF187
 1957 0cd2 16       		.byte	0x16
 1958 0cd3 54       		.byte	0x54
 1959 0cd4 03       		.byte	0x3
 1960 0cd5 A00C0000 		.4byte	0xca0
 1961 0cd9 03       		.uleb128 0x3
 1962 0cda B3000000 		.4byte	.LASF188
 1963 0cde 17       		.byte	0x17
 1964 0cdf 35       		.byte	0x35
 1965 0ce0 1A       		.byte	0x1a
 1966 0ce1 E50C0000 		.4byte	0xce5
 1967 0ce5 07       		.uleb128 0x7
 1968 0ce6 B3000000 		.4byte	.LASF188
 1969 0cea 28       		.byte	0x28
 1970 0ceb 17       		.byte	0x17
 1971 0cec 7C       		.byte	0x7c
 1972 0ced 08       		.byte	0x8
 1973 0cee 4E0D0000 		.4byte	0xd4e
 1974 0cf2 08       		.uleb128 0x8
 1975 0cf3 82010000 		.4byte	.LASF149
 1976 0cf7 17       		.byte	0x17
 1977 0cf8 80       		.byte	0x80
 1978 0cf9 19       		.byte	0x19
 1979 0cfa CD0C0000 		.4byte	0xccd
 1980 0cfe 00       		.byte	0
 1981 0cff 08       		.uleb128 0x8
 1982 0d00 66070000 		.4byte	.LASF150
 1983 0d04 17       		.byte	0x17
 1984 0d05 84       		.byte	0x84
 1985 0d06 1A       		.byte	0x1a
 1986 0d07 010E0000 		.4byte	0xe01
 1987 0d0b 04       		.byte	0x4
 1988 0d0c 08       		.uleb128 0x8
 1989 0d0d 9A010000 		.4byte	.LASF154
 1990 0d11 17       		.byte	0x17
 1991 0d12 89       		.byte	0x89
 1992 0d13 1A       		.byte	0x1a
 1993 0d14 98020000 		.4byte	0x298
 1994 0d18 08       		.byte	0x8
 1995 0d19 08       		.uleb128 0x8
ARM GAS  /var/folders/l5/0x54b2c10074c8bt31ycjvl80000gp/T//ccIPedt8.s 			page 36


 1996 0d1a 09060000 		.4byte	.LASF153
 1997 0d1e 17       		.byte	0x17
 1998 0d1f 90       		.byte	0x90
 1999 0d20 19       		.byte	0x19
 2000 0d21 03050000 		.4byte	0x503
 2001 0d25 0C       		.byte	0xc
 2002 0d26 08       		.uleb128 0x8
 2003 0d27 66000000 		.4byte	.LASF159
 2004 0d2b 17       		.byte	0x17
 2005 0d2c 98       		.byte	0x98
 2006 0d2d 1A       		.byte	0x1a
 2007 0d2e E5020000 		.4byte	0x2e5
 2008 0d32 1C       		.byte	0x1c
 2009 0d33 08       		.uleb128 0x8
 2010 0d34 A2020000 		.4byte	.LASF156
 2011 0d38 17       		.byte	0x17
 2012 0d39 9D       		.byte	0x9d
 2013 0d3a 1A       		.byte	0x1a
 2014 0d3b 070E0000 		.4byte	0xe07
 2015 0d3f 20       		.byte	0x20
 2016 0d40 08       		.uleb128 0x8
 2017 0d41 0B020000 		.4byte	.LASF189
 2018 0d45 17       		.byte	0x17
 2019 0d46 A2       		.byte	0xa2
 2020 0d47 17       		.byte	0x17
 2021 0d48 2C000000 		.4byte	0x2c
 2022 0d4c 24       		.byte	0x24
 2023 0d4d 00       		.byte	0
 2024 0d4e 03       		.uleb128 0x3
 2025 0d4f 6E020000 		.4byte	.LASF190
 2026 0d53 17       		.byte	0x17
 2027 0d54 3D       		.byte	0x3d
 2028 0d55 10       		.byte	0x10
 2029 0d56 5A0D0000 		.4byte	0xd5a
 2030 0d5a 0B       		.uleb128 0xb
 2031 0d5b 04       		.byte	0x4
 2032 0d5c 600D0000 		.4byte	0xd60
 2033 0d60 0D       		.uleb128 0xd
 2034 0d61 6B0D0000 		.4byte	0xd6b
 2035 0d65 0E       		.uleb128 0xe
 2036 0d66 6B0D0000 		.4byte	0xd6b
 2037 0d6a 00       		.byte	0
 2038 0d6b 0B       		.uleb128 0xb
 2039 0d6c 04       		.byte	0x4
 2040 0d6d D90C0000 		.4byte	0xcd9
 2041 0d71 0A       		.uleb128 0xa
 2042 0d72 10       		.byte	0x10
 2043 0d73 17       		.byte	0x17
 2044 0d74 44       		.byte	0x44
 2045 0d75 09       		.byte	0x9
 2046 0d76 F00D0000 		.4byte	0xdf0
 2047 0d7a 08       		.uleb128 0x8
 2048 0d7b 04020000 		.4byte	.LASF191
 2049 0d7f 17       		.byte	0x17
 2050 0d80 48       		.byte	0x48
 2051 0d81 19       		.byte	0x19
 2052 0d82 4E0D0000 		.4byte	0xd4e
ARM GAS  /var/folders/l5/0x54b2c10074c8bt31ycjvl80000gp/T//ccIPedt8.s 			page 37


 2053 0d86 00       		.byte	0
 2054 0d87 08       		.uleb128 0x8
 2055 0d88 A6050000 		.4byte	.LASF192
 2056 0d8c 17       		.byte	0x17
 2057 0d8d 4F       		.byte	0x4f
 2058 0d8e 19       		.byte	0x19
 2059 0d8f AC000000 		.4byte	0xac
 2060 0d93 04       		.byte	0x4
 2061 0d94 08       		.uleb128 0x8
 2062 0d95 B3050000 		.4byte	.LASF193
 2063 0d99 17       		.byte	0x17
 2064 0d9a 52       		.byte	0x52
 2065 0d9b 19       		.byte	0x19
 2066 0d9c AC000000 		.4byte	0xac
 2067 0da0 05       		.byte	0x5
 2068 0da1 08       		.uleb128 0x8
 2069 0da2 0C030000 		.4byte	.LASF194
 2070 0da6 17       		.byte	0x17
 2071 0da7 58       		.byte	0x58
 2072 0da8 19       		.byte	0x19
 2073 0da9 AC000000 		.4byte	0xac
 2074 0dad 06       		.byte	0x6
 2075 0dae 08       		.uleb128 0x8
 2076 0daf 11020000 		.4byte	.LASF195
 2077 0db3 17       		.byte	0x17
 2078 0db4 5E       		.byte	0x5e
 2079 0db5 19       		.byte	0x19
 2080 0db6 AC000000 		.4byte	0xac
 2081 0dba 07       		.byte	0x7
 2082 0dbb 08       		.uleb128 0x8
 2083 0dbc 27020000 		.4byte	.LASF196
 2084 0dc0 17       		.byte	0x17
 2085 0dc1 64       		.byte	0x64
 2086 0dc2 19       		.byte	0x19
 2087 0dc3 AC000000 		.4byte	0xac
 2088 0dc7 08       		.byte	0x8
 2089 0dc8 08       		.uleb128 0x8
 2090 0dc9 C4070000 		.4byte	.LASF197
 2091 0dcd 17       		.byte	0x17
 2092 0dce 6A       		.byte	0x6a
 2093 0dcf 19       		.byte	0x19
 2094 0dd0 AC000000 		.4byte	0xac
 2095 0dd4 09       		.byte	0x9
 2096 0dd5 08       		.uleb128 0x8
 2097 0dd6 E0010000 		.4byte	.LASF198
 2098 0dda 17       		.byte	0x17
 2099 0ddb 70       		.byte	0x70
 2100 0ddc 19       		.byte	0x19
 2101 0ddd AC000000 		.4byte	0xac
 2102 0de1 0A       		.byte	0xa
 2103 0de2 08       		.uleb128 0x8
 2104 0de3 B8060000 		.4byte	.LASF199
 2105 0de7 17       		.byte	0x17
 2106 0de8 73       		.byte	0x73
 2107 0de9 19       		.byte	0x19
 2108 0dea D5000000 		.4byte	0xd5
 2109 0dee 0C       		.byte	0xc
ARM GAS  /var/folders/l5/0x54b2c10074c8bt31ycjvl80000gp/T//ccIPedt8.s 			page 38


 2110 0def 00       		.byte	0
 2111 0df0 03       		.uleb128 0x3
 2112 0df1 C5080000 		.4byte	.LASF200
 2113 0df5 17       		.byte	0x17
 2114 0df6 75       		.byte	0x75
 2115 0df7 03       		.byte	0x3
 2116 0df8 710D0000 		.4byte	0xd71
 2117 0dfc 06       		.uleb128 0x6
 2118 0dfd F00D0000 		.4byte	0xdf0
 2119 0e01 0B       		.uleb128 0xb
 2120 0e02 04       		.byte	0x4
 2121 0e03 FC0D0000 		.4byte	0xdfc
 2122 0e07 0B       		.uleb128 0xb
 2123 0e08 04       		.byte	0x4
 2124 0e09 0D0E0000 		.4byte	0xe0d
 2125 0e0d 1B       		.uleb128 0x1b
 2126 0e0e 0F       		.uleb128 0xf
 2127 0e0f C3010000 		.4byte	.LASF201
 2128 0e13 17       		.byte	0x17
 2129 0e14 B6       		.byte	0xb6
 2130 0e15 14       		.byte	0x14
 2131 0e16 D90C0000 		.4byte	0xcd9
 2132 0e1a 1C       		.uleb128 0x1c
 2133 0e1b 81080000 		.4byte	.LASF204
 2134 0e1f 01       		.byte	0x1
 2135 0e20 BA       		.byte	0xba
 2136 0e21 06       		.byte	0x6
 2137 0e22 00000000 		.4byte	.LFB9
 2138 0e26 60000000 		.4byte	.LFE9-.LFB9
 2139 0e2a 01       		.uleb128 0x1
 2140 0e2b 9C       		.byte	0x9c
 2141 0e2c AC0E0000 		.4byte	0xeac
 2142 0e30 1D       		.uleb128 0x1d
 2143 0e31 54030000 		.4byte	.LASF216
 2144 0e35 01       		.byte	0x1
 2145 0e36 BA       		.byte	0xba
 2146 0e37 20       		.byte	0x20
 2147 0e38 D8080000 		.4byte	0x8d8
 2148 0e3c 04000000 		.4byte	.LLST3
 2149 0e40 00000000 		.4byte	.LVUS3
 2150 0e44 1E       		.uleb128 0x1e
 2151 0e45 E2080000 		.4byte	.LASF202
 2152 0e49 01       		.byte	0x1
 2153 0e4a BB       		.byte	0xbb
 2154 0e4b 0E       		.byte	0xe
 2155 0e4c D8080000 		.4byte	0x8d8
 2156 0e50 27000000 		.4byte	.LLST4
 2157 0e54 25000000 		.4byte	.LVUS4
 2158 0e58 1E       		.uleb128 0x1e
 2159 0e59 E8020000 		.4byte	.LASF203
 2160 0e5d 01       		.byte	0x1
 2161 0e5e BC       		.byte	0xbc
 2162 0e5f 0E       		.byte	0xe
 2163 0e60 D8080000 		.4byte	0x8d8
 2164 0e64 3C000000 		.4byte	.LLST5
 2165 0e68 3A000000 		.4byte	.LVUS5
 2166 0e6c 1F       		.uleb128 0x1f
ARM GAS  /var/folders/l5/0x54b2c10074c8bt31ycjvl80000gp/T//ccIPedt8.s 			page 39


 2167 0e6d AC0E0000 		.4byte	0xeac
 2168 0e71 30000000 		.4byte	.LBI4
 2169 0e75 01       		.byte	.LVU38
 2170 0e76 00000000 		.4byte	.Ldebug_ranges0+0
 2171 0e7a 01       		.byte	0x1
 2172 0e7b BD       		.byte	0xbd
 2173 0e7c 0A       		.byte	0xa
 2174 0e7d 20       		.uleb128 0x20
 2175 0e7e C90E0000 		.4byte	0xec9
 2176 0e82 53000000 		.4byte	.LLST6
 2177 0e86 4F000000 		.4byte	.LVUS6
 2178 0e8a 20       		.uleb128 0x20
 2179 0e8b BD0E0000 		.4byte	0xebd
 2180 0e8f 75000000 		.4byte	.LLST7
 2181 0e93 71000000 		.4byte	.LVUS7
 2182 0e97 21       		.uleb128 0x21
 2183 0e98 00000000 		.4byte	.Ldebug_ranges0+0
 2184 0e9c 22       		.uleb128 0x22
 2185 0e9d D50E0000 		.4byte	0xed5
 2186 0ea1 97000000 		.4byte	.LLST8
 2187 0ea5 93000000 		.4byte	.LVUS8
 2188 0ea9 00       		.byte	0
 2189 0eaa 00       		.byte	0
 2190 0eab 00       		.byte	0
 2191 0eac 23       		.uleb128 0x23
 2192 0ead 72000000 		.4byte	.LASF217
 2193 0eb1 01       		.byte	0x1
 2194 0eb2 A7       		.byte	0xa7
 2195 0eb3 08       		.byte	0x8
 2196 0eb4 E6000000 		.4byte	0xe6
 2197 0eb8 01       		.byte	0x1
 2198 0eb9 E20E0000 		.4byte	0xee2
 2199 0ebd 24       		.uleb128 0x24
 2200 0ebe E2080000 		.4byte	.LASF202
 2201 0ec2 01       		.byte	0x1
 2202 0ec3 A7       		.byte	0xa7
 2203 0ec4 26       		.byte	0x26
 2204 0ec5 D8080000 		.4byte	0x8d8
 2205 0ec9 25       		.uleb128 0x25
 2206 0eca 656E6400 		.ascii	"end\000"
 2207 0ece 01       		.byte	0x1
 2208 0ecf A7       		.byte	0xa7
 2209 0ed0 38       		.byte	0x38
 2210 0ed1 D8080000 		.4byte	0x8d8
 2211 0ed5 26       		.uleb128 0x26
 2212 0ed6 6E6F7700 		.ascii	"now\000"
 2213 0eda 01       		.byte	0x1
 2214 0edb A8       		.byte	0xa8
 2215 0edc 0E       		.byte	0xe
 2216 0edd D8080000 		.4byte	0x8d8
 2217 0ee1 00       		.byte	0
 2218 0ee2 1C       		.uleb128 0x1c
 2219 0ee3 C6000000 		.4byte	.LASF205
 2220 0ee7 01       		.byte	0x1
 2221 0ee8 3D       		.byte	0x3d
 2222 0ee9 06       		.byte	0x6
 2223 0eea 00000000 		.4byte	.LFB7
ARM GAS  /var/folders/l5/0x54b2c10074c8bt31ycjvl80000gp/T//ccIPedt8.s 			page 40


 2224 0eee 2C000000 		.4byte	.LFE7-.LFB7
 2225 0ef2 01       		.uleb128 0x1
 2226 0ef3 9C       		.byte	0x9c
 2227 0ef4 380F0000 		.4byte	0xf38
 2228 0ef8 27       		.uleb128 0x27
 2229 0ef9 08000000 		.4byte	.LVL0
 2230 0efd 730F0000 		.4byte	0xf73
 2231 0f01 27       		.uleb128 0x27
 2232 0f02 0C000000 		.4byte	.LVL1
 2233 0f06 7F0F0000 		.4byte	0xf7f
 2234 0f0a 27       		.uleb128 0x27
 2235 0f0b 14000000 		.4byte	.LVL2
 2236 0f0f 8B0F0000 		.4byte	0xf8b
 2237 0f13 27       		.uleb128 0x27
 2238 0f14 18000000 		.4byte	.LVL3
 2239 0f18 970F0000 		.4byte	0xf97
 2240 0f1c 27       		.uleb128 0x27
 2241 0f1d 1C000000 		.4byte	.LVL4
 2242 0f21 A30F0000 		.4byte	0xfa3
 2243 0f25 27       		.uleb128 0x27
 2244 0f26 20000000 		.4byte	.LVL5
 2245 0f2a B00F0000 		.4byte	0xfb0
 2246 0f2e 28       		.uleb128 0x28
 2247 0f2f 28000000 		.4byte	.LVL6
 2248 0f33 BD0F0000 		.4byte	0xfbd
 2249 0f37 00       		.byte	0
 2250 0f38 29       		.uleb128 0x29
 2251 0f39 AC0E0000 		.4byte	0xeac
 2252 0f3d 00000000 		.4byte	.LFB8
 2253 0f41 48000000 		.4byte	.LFE8-.LFB8
 2254 0f45 01       		.uleb128 0x1
 2255 0f46 9C       		.byte	0x9c
 2256 0f47 730F0000 		.4byte	0xf73
 2257 0f4b 20       		.uleb128 0x20
 2258 0f4c BD0E0000 		.4byte	0xebd
 2259 0f50 BD000000 		.4byte	.LLST0
 2260 0f54 B5000000 		.4byte	.LVUS0
 2261 0f58 20       		.uleb128 0x20
 2262 0f59 C90E0000 		.4byte	0xec9
 2263 0f5d FB000000 		.4byte	.LLST1
 2264 0f61 F7000000 		.4byte	.LVUS1
 2265 0f65 22       		.uleb128 0x22
 2266 0f66 D50E0000 		.4byte	0xed5
 2267 0f6a 1E010000 		.4byte	.LLST2
 2268 0f6e 1C010000 		.4byte	.LVUS2
 2269 0f72 00       		.byte	0
 2270 0f73 2A       		.uleb128 0x2a
 2271 0f74 D3070000 		.4byte	.LASF206
 2272 0f78 D3070000 		.4byte	.LASF206
 2273 0f7c 11       		.byte	0x11
 2274 0f7d 51       		.byte	0x51
 2275 0f7e 08       		.byte	0x8
 2276 0f7f 2A       		.uleb128 0x2a
 2277 0f80 E1020000 		.4byte	.LASF207
 2278 0f84 E1020000 		.4byte	.LASF207
 2279 0f88 18       		.byte	0x18
 2280 0f89 6C       		.byte	0x6c
ARM GAS  /var/folders/l5/0x54b2c10074c8bt31ycjvl80000gp/T//ccIPedt8.s 			page 41


 2281 0f8a 08       		.byte	0x8
 2282 0f8b 2A       		.uleb128 0x2a
 2283 0f8c 55010000 		.4byte	.LASF208
 2284 0f90 55010000 		.4byte	.LASF208
 2285 0f94 12       		.byte	0x12
 2286 0f95 B4       		.byte	0xb4
 2287 0f96 08       		.byte	0x8
 2288 0f97 2A       		.uleb128 0x2a
 2289 0f98 CF080000 		.4byte	.LASF209
 2290 0f9c CF080000 		.4byte	.LASF209
 2291 0fa0 13       		.byte	0x13
 2292 0fa1 79       		.byte	0x79
 2293 0fa2 08       		.byte	0x8
 2294 0fa3 2B       		.uleb128 0x2b
 2295 0fa4 FA080000 		.4byte	.LASF210
 2296 0fa8 FA080000 		.4byte	.LASF210
 2297 0fac 15       		.byte	0x15
 2298 0fad 3001     		.2byte	0x130
 2299 0faf 08       		.byte	0x8
 2300 0fb0 2B       		.uleb128 0x2b
 2301 0fb1 97040000 		.4byte	.LASF211
 2302 0fb5 97040000 		.4byte	.LASF211
 2303 0fb9 16       		.byte	0x16
 2304 0fba 2601     		.2byte	0x126
 2305 0fbc 08       		.byte	0x8
 2306 0fbd 2A       		.uleb128 0x2a
 2307 0fbe 69080000 		.4byte	.LASF212
 2308 0fc2 69080000 		.4byte	.LASF212
 2309 0fc6 19       		.byte	0x19
 2310 0fc7 1C       		.byte	0x1c
 2311 0fc8 08       		.byte	0x8
 2312 0fc9 00       		.byte	0
 2313              		.section	.debug_abbrev,"",%progbits
 2314              	.Ldebug_abbrev0:
 2315 0000 01       		.uleb128 0x1
 2316 0001 11       		.uleb128 0x11
 2317 0002 01       		.byte	0x1
 2318 0003 25       		.uleb128 0x25
 2319 0004 0E       		.uleb128 0xe
 2320 0005 13       		.uleb128 0x13
 2321 0006 0B       		.uleb128 0xb
 2322 0007 03       		.uleb128 0x3
 2323 0008 0E       		.uleb128 0xe
 2324 0009 1B       		.uleb128 0x1b
 2325 000a 0E       		.uleb128 0xe
 2326 000b 55       		.uleb128 0x55
 2327 000c 17       		.uleb128 0x17
 2328 000d 11       		.uleb128 0x11
 2329 000e 01       		.uleb128 0x1
 2330 000f 10       		.uleb128 0x10
 2331 0010 17       		.uleb128 0x17
 2332 0011 00       		.byte	0
 2333 0012 00       		.byte	0
 2334 0013 02       		.uleb128 0x2
 2335 0014 24       		.uleb128 0x24
 2336 0015 00       		.byte	0
 2337 0016 0B       		.uleb128 0xb
ARM GAS  /var/folders/l5/0x54b2c10074c8bt31ycjvl80000gp/T//ccIPedt8.s 			page 42


 2338 0017 0B       		.uleb128 0xb
 2339 0018 3E       		.uleb128 0x3e
 2340 0019 0B       		.uleb128 0xb
 2341 001a 03       		.uleb128 0x3
 2342 001b 08       		.uleb128 0x8
 2343 001c 00       		.byte	0
 2344 001d 00       		.byte	0
 2345 001e 03       		.uleb128 0x3
 2346 001f 16       		.uleb128 0x16
 2347 0020 00       		.byte	0
 2348 0021 03       		.uleb128 0x3
 2349 0022 0E       		.uleb128 0xe
 2350 0023 3A       		.uleb128 0x3a
 2351 0024 0B       		.uleb128 0xb
 2352 0025 3B       		.uleb128 0x3b
 2353 0026 0B       		.uleb128 0xb
 2354 0027 39       		.uleb128 0x39
 2355 0028 0B       		.uleb128 0xb
 2356 0029 49       		.uleb128 0x49
 2357 002a 13       		.uleb128 0x13
 2358 002b 00       		.byte	0
 2359 002c 00       		.byte	0
 2360 002d 04       		.uleb128 0x4
 2361 002e 24       		.uleb128 0x24
 2362 002f 00       		.byte	0
 2363 0030 0B       		.uleb128 0xb
 2364 0031 0B       		.uleb128 0xb
 2365 0032 3E       		.uleb128 0x3e
 2366 0033 0B       		.uleb128 0xb
 2367 0034 03       		.uleb128 0x3
 2368 0035 0E       		.uleb128 0xe
 2369 0036 00       		.byte	0
 2370 0037 00       		.byte	0
 2371 0038 05       		.uleb128 0x5
 2372 0039 35       		.uleb128 0x35
 2373 003a 00       		.byte	0
 2374 003b 49       		.uleb128 0x49
 2375 003c 13       		.uleb128 0x13
 2376 003d 00       		.byte	0
 2377 003e 00       		.byte	0
 2378 003f 06       		.uleb128 0x6
 2379 0040 26       		.uleb128 0x26
 2380 0041 00       		.byte	0
 2381 0042 49       		.uleb128 0x49
 2382 0043 13       		.uleb128 0x13
 2383 0044 00       		.byte	0
 2384 0045 00       		.byte	0
 2385 0046 07       		.uleb128 0x7
 2386 0047 13       		.uleb128 0x13
 2387 0048 01       		.byte	0x1
 2388 0049 03       		.uleb128 0x3
 2389 004a 0E       		.uleb128 0xe
 2390 004b 0B       		.uleb128 0xb
 2391 004c 0B       		.uleb128 0xb
 2392 004d 3A       		.uleb128 0x3a
 2393 004e 0B       		.uleb128 0xb
 2394 004f 3B       		.uleb128 0x3b
ARM GAS  /var/folders/l5/0x54b2c10074c8bt31ycjvl80000gp/T//ccIPedt8.s 			page 43


 2395 0050 0B       		.uleb128 0xb
 2396 0051 39       		.uleb128 0x39
 2397 0052 0B       		.uleb128 0xb
 2398 0053 01       		.uleb128 0x1
 2399 0054 13       		.uleb128 0x13
 2400 0055 00       		.byte	0
 2401 0056 00       		.byte	0
 2402 0057 08       		.uleb128 0x8
 2403 0058 0D       		.uleb128 0xd
 2404 0059 00       		.byte	0
 2405 005a 03       		.uleb128 0x3
 2406 005b 0E       		.uleb128 0xe
 2407 005c 3A       		.uleb128 0x3a
 2408 005d 0B       		.uleb128 0xb
 2409 005e 3B       		.uleb128 0x3b
 2410 005f 0B       		.uleb128 0xb
 2411 0060 39       		.uleb128 0x39
 2412 0061 0B       		.uleb128 0xb
 2413 0062 49       		.uleb128 0x49
 2414 0063 13       		.uleb128 0x13
 2415 0064 38       		.uleb128 0x38
 2416 0065 0B       		.uleb128 0xb
 2417 0066 00       		.byte	0
 2418 0067 00       		.byte	0
 2419 0068 09       		.uleb128 0x9
 2420 0069 0D       		.uleb128 0xd
 2421 006a 00       		.byte	0
 2422 006b 03       		.uleb128 0x3
 2423 006c 08       		.uleb128 0x8
 2424 006d 3A       		.uleb128 0x3a
 2425 006e 0B       		.uleb128 0xb
 2426 006f 3B       		.uleb128 0x3b
 2427 0070 0B       		.uleb128 0xb
 2428 0071 39       		.uleb128 0x39
 2429 0072 0B       		.uleb128 0xb
 2430 0073 49       		.uleb128 0x49
 2431 0074 13       		.uleb128 0x13
 2432 0075 38       		.uleb128 0x38
 2433 0076 0B       		.uleb128 0xb
 2434 0077 00       		.byte	0
 2435 0078 00       		.byte	0
 2436 0079 0A       		.uleb128 0xa
 2437 007a 13       		.uleb128 0x13
 2438 007b 01       		.byte	0x1
 2439 007c 0B       		.uleb128 0xb
 2440 007d 0B       		.uleb128 0xb
 2441 007e 3A       		.uleb128 0x3a
 2442 007f 0B       		.uleb128 0xb
 2443 0080 3B       		.uleb128 0x3b
 2444 0081 0B       		.uleb128 0xb
 2445 0082 39       		.uleb128 0x39
 2446 0083 0B       		.uleb128 0xb
 2447 0084 01       		.uleb128 0x1
 2448 0085 13       		.uleb128 0x13
 2449 0086 00       		.byte	0
 2450 0087 00       		.byte	0
 2451 0088 0B       		.uleb128 0xb
ARM GAS  /var/folders/l5/0x54b2c10074c8bt31ycjvl80000gp/T//ccIPedt8.s 			page 44


 2452 0089 0F       		.uleb128 0xf
 2453 008a 00       		.byte	0
 2454 008b 0B       		.uleb128 0xb
 2455 008c 0B       		.uleb128 0xb
 2456 008d 49       		.uleb128 0x49
 2457 008e 13       		.uleb128 0x13
 2458 008f 00       		.byte	0
 2459 0090 00       		.byte	0
 2460 0091 0C       		.uleb128 0xc
 2461 0092 0F       		.uleb128 0xf
 2462 0093 00       		.byte	0
 2463 0094 0B       		.uleb128 0xb
 2464 0095 0B       		.uleb128 0xb
 2465 0096 00       		.byte	0
 2466 0097 00       		.byte	0
 2467 0098 0D       		.uleb128 0xd
 2468 0099 15       		.uleb128 0x15
 2469 009a 01       		.byte	0x1
 2470 009b 27       		.uleb128 0x27
 2471 009c 19       		.uleb128 0x19
 2472 009d 01       		.uleb128 0x1
 2473 009e 13       		.uleb128 0x13
 2474 009f 00       		.byte	0
 2475 00a0 00       		.byte	0
 2476 00a1 0E       		.uleb128 0xe
 2477 00a2 05       		.uleb128 0x5
 2478 00a3 00       		.byte	0
 2479 00a4 49       		.uleb128 0x49
 2480 00a5 13       		.uleb128 0x13
 2481 00a6 00       		.byte	0
 2482 00a7 00       		.byte	0
 2483 00a8 0F       		.uleb128 0xf
 2484 00a9 34       		.uleb128 0x34
 2485 00aa 00       		.byte	0
 2486 00ab 03       		.uleb128 0x3
 2487 00ac 0E       		.uleb128 0xe
 2488 00ad 3A       		.uleb128 0x3a
 2489 00ae 0B       		.uleb128 0xb
 2490 00af 3B       		.uleb128 0x3b
 2491 00b0 0B       		.uleb128 0xb
 2492 00b1 39       		.uleb128 0x39
 2493 00b2 0B       		.uleb128 0xb
 2494 00b3 49       		.uleb128 0x49
 2495 00b4 13       		.uleb128 0x13
 2496 00b5 3F       		.uleb128 0x3f
 2497 00b6 19       		.uleb128 0x19
 2498 00b7 3C       		.uleb128 0x3c
 2499 00b8 19       		.uleb128 0x19
 2500 00b9 00       		.byte	0
 2501 00ba 00       		.byte	0
 2502 00bb 10       		.uleb128 0x10
 2503 00bc 17       		.uleb128 0x17
 2504 00bd 01       		.byte	0x1
 2505 00be 0B       		.uleb128 0xb
 2506 00bf 0B       		.uleb128 0xb
 2507 00c0 3A       		.uleb128 0x3a
 2508 00c1 0B       		.uleb128 0xb
ARM GAS  /var/folders/l5/0x54b2c10074c8bt31ycjvl80000gp/T//ccIPedt8.s 			page 45


 2509 00c2 3B       		.uleb128 0x3b
 2510 00c3 0B       		.uleb128 0xb
 2511 00c4 39       		.uleb128 0x39
 2512 00c5 0B       		.uleb128 0xb
 2513 00c6 01       		.uleb128 0x1
 2514 00c7 13       		.uleb128 0x13
 2515 00c8 00       		.byte	0
 2516 00c9 00       		.byte	0
 2517 00ca 11       		.uleb128 0x11
 2518 00cb 0D       		.uleb128 0xd
 2519 00cc 00       		.byte	0
 2520 00cd 03       		.uleb128 0x3
 2521 00ce 0E       		.uleb128 0xe
 2522 00cf 3A       		.uleb128 0x3a
 2523 00d0 0B       		.uleb128 0xb
 2524 00d1 3B       		.uleb128 0x3b
 2525 00d2 0B       		.uleb128 0xb
 2526 00d3 39       		.uleb128 0x39
 2527 00d4 0B       		.uleb128 0xb
 2528 00d5 49       		.uleb128 0x49
 2529 00d6 13       		.uleb128 0x13
 2530 00d7 00       		.byte	0
 2531 00d8 00       		.byte	0
 2532 00d9 12       		.uleb128 0x12
 2533 00da 15       		.uleb128 0x15
 2534 00db 01       		.byte	0x1
 2535 00dc 27       		.uleb128 0x27
 2536 00dd 19       		.uleb128 0x19
 2537 00de 49       		.uleb128 0x49
 2538 00df 13       		.uleb128 0x13
 2539 00e0 01       		.uleb128 0x1
 2540 00e1 13       		.uleb128 0x13
 2541 00e2 00       		.byte	0
 2542 00e3 00       		.byte	0
 2543 00e4 13       		.uleb128 0x13
 2544 00e5 01       		.uleb128 0x1
 2545 00e6 01       		.byte	0x1
 2546 00e7 49       		.uleb128 0x49
 2547 00e8 13       		.uleb128 0x13
 2548 00e9 01       		.uleb128 0x1
 2549 00ea 13       		.uleb128 0x13
 2550 00eb 00       		.byte	0
 2551 00ec 00       		.byte	0
 2552 00ed 14       		.uleb128 0x14
 2553 00ee 21       		.uleb128 0x21
 2554 00ef 00       		.byte	0
 2555 00f0 49       		.uleb128 0x49
 2556 00f1 13       		.uleb128 0x13
 2557 00f2 2F       		.uleb128 0x2f
 2558 00f3 0B       		.uleb128 0xb
 2559 00f4 00       		.byte	0
 2560 00f5 00       		.byte	0
 2561 00f6 15       		.uleb128 0x15
 2562 00f7 0D       		.uleb128 0xd
 2563 00f8 00       		.byte	0
 2564 00f9 03       		.uleb128 0x3
 2565 00fa 0E       		.uleb128 0xe
ARM GAS  /var/folders/l5/0x54b2c10074c8bt31ycjvl80000gp/T//ccIPedt8.s 			page 46


 2566 00fb 3A       		.uleb128 0x3a
 2567 00fc 0B       		.uleb128 0xb
 2568 00fd 3B       		.uleb128 0x3b
 2569 00fe 05       		.uleb128 0x5
 2570 00ff 39       		.uleb128 0x39
 2571 0100 0B       		.uleb128 0xb
 2572 0101 49       		.uleb128 0x49
 2573 0102 13       		.uleb128 0x13
 2574 0103 38       		.uleb128 0x38
 2575 0104 0B       		.uleb128 0xb
 2576 0105 00       		.byte	0
 2577 0106 00       		.byte	0
 2578 0107 16       		.uleb128 0x16
 2579 0108 16       		.uleb128 0x16
 2580 0109 00       		.byte	0
 2581 010a 03       		.uleb128 0x3
 2582 010b 0E       		.uleb128 0xe
 2583 010c 3A       		.uleb128 0x3a
 2584 010d 0B       		.uleb128 0xb
 2585 010e 3B       		.uleb128 0x3b
 2586 010f 05       		.uleb128 0x5
 2587 0110 39       		.uleb128 0x39
 2588 0111 0B       		.uleb128 0xb
 2589 0112 49       		.uleb128 0x49
 2590 0113 13       		.uleb128 0x13
 2591 0114 00       		.byte	0
 2592 0115 00       		.byte	0
 2593 0116 17       		.uleb128 0x17
 2594 0117 13       		.uleb128 0x13
 2595 0118 00       		.byte	0
 2596 0119 0B       		.uleb128 0xb
 2597 011a 0B       		.uleb128 0xb
 2598 011b 3A       		.uleb128 0x3a
 2599 011c 0B       		.uleb128 0xb
 2600 011d 3B       		.uleb128 0x3b
 2601 011e 0B       		.uleb128 0xb
 2602 011f 39       		.uleb128 0x39
 2603 0120 0B       		.uleb128 0xb
 2604 0121 00       		.byte	0
 2605 0122 00       		.byte	0
 2606 0123 18       		.uleb128 0x18
 2607 0124 04       		.uleb128 0x4
 2608 0125 01       		.byte	0x1
 2609 0126 3E       		.uleb128 0x3e
 2610 0127 0B       		.uleb128 0xb
 2611 0128 0B       		.uleb128 0xb
 2612 0129 0B       		.uleb128 0xb
 2613 012a 49       		.uleb128 0x49
 2614 012b 13       		.uleb128 0x13
 2615 012c 3A       		.uleb128 0x3a
 2616 012d 0B       		.uleb128 0xb
 2617 012e 3B       		.uleb128 0x3b
 2618 012f 0B       		.uleb128 0xb
 2619 0130 39       		.uleb128 0x39
 2620 0131 0B       		.uleb128 0xb
 2621 0132 01       		.uleb128 0x1
 2622 0133 13       		.uleb128 0x13
ARM GAS  /var/folders/l5/0x54b2c10074c8bt31ycjvl80000gp/T//ccIPedt8.s 			page 47


 2623 0134 00       		.byte	0
 2624 0135 00       		.byte	0
 2625 0136 19       		.uleb128 0x19
 2626 0137 28       		.uleb128 0x28
 2627 0138 00       		.byte	0
 2628 0139 03       		.uleb128 0x3
 2629 013a 0E       		.uleb128 0xe
 2630 013b 1C       		.uleb128 0x1c
 2631 013c 0B       		.uleb128 0xb
 2632 013d 00       		.byte	0
 2633 013e 00       		.byte	0
 2634 013f 1A       		.uleb128 0x1a
 2635 0140 34       		.uleb128 0x34
 2636 0141 00       		.byte	0
 2637 0142 03       		.uleb128 0x3
 2638 0143 08       		.uleb128 0x8
 2639 0144 3A       		.uleb128 0x3a
 2640 0145 0B       		.uleb128 0xb
 2641 0146 3B       		.uleb128 0x3b
 2642 0147 0B       		.uleb128 0xb
 2643 0148 39       		.uleb128 0x39
 2644 0149 0B       		.uleb128 0xb
 2645 014a 49       		.uleb128 0x49
 2646 014b 13       		.uleb128 0x13
 2647 014c 3F       		.uleb128 0x3f
 2648 014d 19       		.uleb128 0x19
 2649 014e 3C       		.uleb128 0x3c
 2650 014f 19       		.uleb128 0x19
 2651 0150 00       		.byte	0
 2652 0151 00       		.byte	0
 2653 0152 1B       		.uleb128 0x1b
 2654 0153 26       		.uleb128 0x26
 2655 0154 00       		.byte	0
 2656 0155 00       		.byte	0
 2657 0156 00       		.byte	0
 2658 0157 1C       		.uleb128 0x1c
 2659 0158 2E       		.uleb128 0x2e
 2660 0159 01       		.byte	0x1
 2661 015a 3F       		.uleb128 0x3f
 2662 015b 19       		.uleb128 0x19
 2663 015c 03       		.uleb128 0x3
 2664 015d 0E       		.uleb128 0xe
 2665 015e 3A       		.uleb128 0x3a
 2666 015f 0B       		.uleb128 0xb
 2667 0160 3B       		.uleb128 0x3b
 2668 0161 0B       		.uleb128 0xb
 2669 0162 39       		.uleb128 0x39
 2670 0163 0B       		.uleb128 0xb
 2671 0164 27       		.uleb128 0x27
 2672 0165 19       		.uleb128 0x19
 2673 0166 11       		.uleb128 0x11
 2674 0167 01       		.uleb128 0x1
 2675 0168 12       		.uleb128 0x12
 2676 0169 06       		.uleb128 0x6
 2677 016a 40       		.uleb128 0x40
 2678 016b 18       		.uleb128 0x18
 2679 016c 9742     		.uleb128 0x2117
ARM GAS  /var/folders/l5/0x54b2c10074c8bt31ycjvl80000gp/T//ccIPedt8.s 			page 48


 2680 016e 19       		.uleb128 0x19
 2681 016f 01       		.uleb128 0x1
 2682 0170 13       		.uleb128 0x13
 2683 0171 00       		.byte	0
 2684 0172 00       		.byte	0
 2685 0173 1D       		.uleb128 0x1d
 2686 0174 05       		.uleb128 0x5
 2687 0175 00       		.byte	0
 2688 0176 03       		.uleb128 0x3
 2689 0177 0E       		.uleb128 0xe
 2690 0178 3A       		.uleb128 0x3a
 2691 0179 0B       		.uleb128 0xb
 2692 017a 3B       		.uleb128 0x3b
 2693 017b 0B       		.uleb128 0xb
 2694 017c 39       		.uleb128 0x39
 2695 017d 0B       		.uleb128 0xb
 2696 017e 49       		.uleb128 0x49
 2697 017f 13       		.uleb128 0x13
 2698 0180 02       		.uleb128 0x2
 2699 0181 17       		.uleb128 0x17
 2700 0182 B742     		.uleb128 0x2137
 2701 0184 17       		.uleb128 0x17
 2702 0185 00       		.byte	0
 2703 0186 00       		.byte	0
 2704 0187 1E       		.uleb128 0x1e
 2705 0188 34       		.uleb128 0x34
 2706 0189 00       		.byte	0
 2707 018a 03       		.uleb128 0x3
 2708 018b 0E       		.uleb128 0xe
 2709 018c 3A       		.uleb128 0x3a
 2710 018d 0B       		.uleb128 0xb
 2711 018e 3B       		.uleb128 0x3b
 2712 018f 0B       		.uleb128 0xb
 2713 0190 39       		.uleb128 0x39
 2714 0191 0B       		.uleb128 0xb
 2715 0192 49       		.uleb128 0x49
 2716 0193 13       		.uleb128 0x13
 2717 0194 02       		.uleb128 0x2
 2718 0195 17       		.uleb128 0x17
 2719 0196 B742     		.uleb128 0x2137
 2720 0198 17       		.uleb128 0x17
 2721 0199 00       		.byte	0
 2722 019a 00       		.byte	0
 2723 019b 1F       		.uleb128 0x1f
 2724 019c 1D       		.uleb128 0x1d
 2725 019d 01       		.byte	0x1
 2726 019e 31       		.uleb128 0x31
 2727 019f 13       		.uleb128 0x13
 2728 01a0 52       		.uleb128 0x52
 2729 01a1 01       		.uleb128 0x1
 2730 01a2 B842     		.uleb128 0x2138
 2731 01a4 0B       		.uleb128 0xb
 2732 01a5 55       		.uleb128 0x55
 2733 01a6 17       		.uleb128 0x17
 2734 01a7 58       		.uleb128 0x58
 2735 01a8 0B       		.uleb128 0xb
 2736 01a9 59       		.uleb128 0x59
ARM GAS  /var/folders/l5/0x54b2c10074c8bt31ycjvl80000gp/T//ccIPedt8.s 			page 49


 2737 01aa 0B       		.uleb128 0xb
 2738 01ab 57       		.uleb128 0x57
 2739 01ac 0B       		.uleb128 0xb
 2740 01ad 00       		.byte	0
 2741 01ae 00       		.byte	0
 2742 01af 20       		.uleb128 0x20
 2743 01b0 05       		.uleb128 0x5
 2744 01b1 00       		.byte	0
 2745 01b2 31       		.uleb128 0x31
 2746 01b3 13       		.uleb128 0x13
 2747 01b4 02       		.uleb128 0x2
 2748 01b5 17       		.uleb128 0x17
 2749 01b6 B742     		.uleb128 0x2137
 2750 01b8 17       		.uleb128 0x17
 2751 01b9 00       		.byte	0
 2752 01ba 00       		.byte	0
 2753 01bb 21       		.uleb128 0x21
 2754 01bc 0B       		.uleb128 0xb
 2755 01bd 01       		.byte	0x1
 2756 01be 55       		.uleb128 0x55
 2757 01bf 17       		.uleb128 0x17
 2758 01c0 00       		.byte	0
 2759 01c1 00       		.byte	0
 2760 01c2 22       		.uleb128 0x22
 2761 01c3 34       		.uleb128 0x34
 2762 01c4 00       		.byte	0
 2763 01c5 31       		.uleb128 0x31
 2764 01c6 13       		.uleb128 0x13
 2765 01c7 02       		.uleb128 0x2
 2766 01c8 17       		.uleb128 0x17
 2767 01c9 B742     		.uleb128 0x2137
 2768 01cb 17       		.uleb128 0x17
 2769 01cc 00       		.byte	0
 2770 01cd 00       		.byte	0
 2771 01ce 23       		.uleb128 0x23
 2772 01cf 2E       		.uleb128 0x2e
 2773 01d0 01       		.byte	0x1
 2774 01d1 3F       		.uleb128 0x3f
 2775 01d2 19       		.uleb128 0x19
 2776 01d3 03       		.uleb128 0x3
 2777 01d4 0E       		.uleb128 0xe
 2778 01d5 3A       		.uleb128 0x3a
 2779 01d6 0B       		.uleb128 0xb
 2780 01d7 3B       		.uleb128 0x3b
 2781 01d8 0B       		.uleb128 0xb
 2782 01d9 39       		.uleb128 0x39
 2783 01da 0B       		.uleb128 0xb
 2784 01db 27       		.uleb128 0x27
 2785 01dc 19       		.uleb128 0x19
 2786 01dd 49       		.uleb128 0x49
 2787 01de 13       		.uleb128 0x13
 2788 01df 20       		.uleb128 0x20
 2789 01e0 0B       		.uleb128 0xb
 2790 01e1 01       		.uleb128 0x1
 2791 01e2 13       		.uleb128 0x13
 2792 01e3 00       		.byte	0
 2793 01e4 00       		.byte	0
ARM GAS  /var/folders/l5/0x54b2c10074c8bt31ycjvl80000gp/T//ccIPedt8.s 			page 50


 2794 01e5 24       		.uleb128 0x24
 2795 01e6 05       		.uleb128 0x5
 2796 01e7 00       		.byte	0
 2797 01e8 03       		.uleb128 0x3
 2798 01e9 0E       		.uleb128 0xe
 2799 01ea 3A       		.uleb128 0x3a
 2800 01eb 0B       		.uleb128 0xb
 2801 01ec 3B       		.uleb128 0x3b
 2802 01ed 0B       		.uleb128 0xb
 2803 01ee 39       		.uleb128 0x39
 2804 01ef 0B       		.uleb128 0xb
 2805 01f0 49       		.uleb128 0x49
 2806 01f1 13       		.uleb128 0x13
 2807 01f2 00       		.byte	0
 2808 01f3 00       		.byte	0
 2809 01f4 25       		.uleb128 0x25
 2810 01f5 05       		.uleb128 0x5
 2811 01f6 00       		.byte	0
 2812 01f7 03       		.uleb128 0x3
 2813 01f8 08       		.uleb128 0x8
 2814 01f9 3A       		.uleb128 0x3a
 2815 01fa 0B       		.uleb128 0xb
 2816 01fb 3B       		.uleb128 0x3b
 2817 01fc 0B       		.uleb128 0xb
 2818 01fd 39       		.uleb128 0x39
 2819 01fe 0B       		.uleb128 0xb
 2820 01ff 49       		.uleb128 0x49
 2821 0200 13       		.uleb128 0x13
 2822 0201 00       		.byte	0
 2823 0202 00       		.byte	0
 2824 0203 26       		.uleb128 0x26
 2825 0204 34       		.uleb128 0x34
 2826 0205 00       		.byte	0
 2827 0206 03       		.uleb128 0x3
 2828 0207 08       		.uleb128 0x8
 2829 0208 3A       		.uleb128 0x3a
 2830 0209 0B       		.uleb128 0xb
 2831 020a 3B       		.uleb128 0x3b
 2832 020b 0B       		.uleb128 0xb
 2833 020c 39       		.uleb128 0x39
 2834 020d 0B       		.uleb128 0xb
 2835 020e 49       		.uleb128 0x49
 2836 020f 13       		.uleb128 0x13
 2837 0210 00       		.byte	0
 2838 0211 00       		.byte	0
 2839 0212 27       		.uleb128 0x27
 2840 0213 898201   		.uleb128 0x4109
 2841 0216 00       		.byte	0
 2842 0217 11       		.uleb128 0x11
 2843 0218 01       		.uleb128 0x1
 2844 0219 31       		.uleb128 0x31
 2845 021a 13       		.uleb128 0x13
 2846 021b 00       		.byte	0
 2847 021c 00       		.byte	0
 2848 021d 28       		.uleb128 0x28
 2849 021e 898201   		.uleb128 0x4109
 2850 0221 00       		.byte	0
ARM GAS  /var/folders/l5/0x54b2c10074c8bt31ycjvl80000gp/T//ccIPedt8.s 			page 51


 2851 0222 11       		.uleb128 0x11
 2852 0223 01       		.uleb128 0x1
 2853 0224 9542     		.uleb128 0x2115
 2854 0226 19       		.uleb128 0x19
 2855 0227 31       		.uleb128 0x31
 2856 0228 13       		.uleb128 0x13
 2857 0229 00       		.byte	0
 2858 022a 00       		.byte	0
 2859 022b 29       		.uleb128 0x29
 2860 022c 2E       		.uleb128 0x2e
 2861 022d 01       		.byte	0x1
 2862 022e 31       		.uleb128 0x31
 2863 022f 13       		.uleb128 0x13
 2864 0230 11       		.uleb128 0x11
 2865 0231 01       		.uleb128 0x1
 2866 0232 12       		.uleb128 0x12
 2867 0233 06       		.uleb128 0x6
 2868 0234 40       		.uleb128 0x40
 2869 0235 18       		.uleb128 0x18
 2870 0236 9742     		.uleb128 0x2117
 2871 0238 19       		.uleb128 0x19
 2872 0239 01       		.uleb128 0x1
 2873 023a 13       		.uleb128 0x13
 2874 023b 00       		.byte	0
 2875 023c 00       		.byte	0
 2876 023d 2A       		.uleb128 0x2a
 2877 023e 2E       		.uleb128 0x2e
 2878 023f 00       		.byte	0
 2879 0240 3F       		.uleb128 0x3f
 2880 0241 19       		.uleb128 0x19
 2881 0242 3C       		.uleb128 0x3c
 2882 0243 19       		.uleb128 0x19
 2883 0244 6E       		.uleb128 0x6e
 2884 0245 0E       		.uleb128 0xe
 2885 0246 03       		.uleb128 0x3
 2886 0247 0E       		.uleb128 0xe
 2887 0248 3A       		.uleb128 0x3a
 2888 0249 0B       		.uleb128 0xb
 2889 024a 3B       		.uleb128 0x3b
 2890 024b 0B       		.uleb128 0xb
 2891 024c 39       		.uleb128 0x39
 2892 024d 0B       		.uleb128 0xb
 2893 024e 00       		.byte	0
 2894 024f 00       		.byte	0
 2895 0250 2B       		.uleb128 0x2b
 2896 0251 2E       		.uleb128 0x2e
 2897 0252 00       		.byte	0
 2898 0253 3F       		.uleb128 0x3f
 2899 0254 19       		.uleb128 0x19
 2900 0255 3C       		.uleb128 0x3c
 2901 0256 19       		.uleb128 0x19
 2902 0257 6E       		.uleb128 0x6e
 2903 0258 0E       		.uleb128 0xe
 2904 0259 03       		.uleb128 0x3
 2905 025a 0E       		.uleb128 0xe
 2906 025b 3A       		.uleb128 0x3a
 2907 025c 0B       		.uleb128 0xb
ARM GAS  /var/folders/l5/0x54b2c10074c8bt31ycjvl80000gp/T//ccIPedt8.s 			page 52


 2908 025d 3B       		.uleb128 0x3b
 2909 025e 05       		.uleb128 0x5
 2910 025f 39       		.uleb128 0x39
 2911 0260 0B       		.uleb128 0xb
 2912 0261 00       		.byte	0
 2913 0262 00       		.byte	0
 2914 0263 00       		.byte	0
 2915              		.section	.debug_loc,"",%progbits
 2916              	.Ldebug_loc0:
 2917              	.LVUS3:
 2918 0000 00       		.uleb128 0
 2919 0001 00       		.uleb128 .LVU32
 2920 0002 00       		.uleb128 .LVU32
 2921 0003 00       		.uleb128 0
 2922              	.LLST3:
 2923 0004 00000000 		.4byte	.LVL13
 2924 0008 10000000 		.4byte	.LVL15
 2925 000c 0100     		.2byte	0x1
 2926 000e 50       		.byte	0x50
 2927 000f 10000000 		.4byte	.LVL15
 2928 0013 60000000 		.4byte	.LFE9
 2929 0017 0400     		.2byte	0x4
 2930 0019 F3       		.byte	0xf3
 2931 001a 01       		.uleb128 0x1
 2932 001b 50       		.byte	0x50
 2933 001c 9F       		.byte	0x9f
 2934 001d 00000000 		.4byte	0
 2935 0021 00000000 		.4byte	0
 2936              	.LVUS4:
 2937 0025 00       		.uleb128 .LVU29
 2938 0026 00       		.uleb128 0
 2939              	.LLST4:
 2940 0027 08000000 		.4byte	.LVL14
 2941 002b 60000000 		.4byte	.LFE9
 2942 002f 0100     		.2byte	0x1
 2943 0031 51       		.byte	0x51
 2944 0032 00000000 		.4byte	0
 2945 0036 00000000 		.4byte	0
 2946              	.LVUS5:
 2947 003a 00       		.uleb128 .LVU32
 2948 003b 00       		.uleb128 0
 2949              	.LLST5:
 2950 003c 10000000 		.4byte	.LVL15
 2951 0040 60000000 		.4byte	.LFE9
 2952 0044 0100     		.2byte	0x1
 2953 0046 50       		.byte	0x50
 2954 0047 00000000 		.4byte	0
 2955 004b 00000000 		.4byte	0
 2956              	.LVUS6:
 2957 004f 00       		.uleb128 .LVU34
 2958 0050 00       		.uleb128 .LVU35
 2959 0051 01       		.uleb128 .LVU38
 2960 0052 00       		.uleb128 .LVU46
 2961              	.LLST6:
 2962 0053 14000000 		.4byte	.LVL16
 2963 0057 28000000 		.4byte	.LVL17
 2964 005b 0100     		.2byte	0x1
ARM GAS  /var/folders/l5/0x54b2c10074c8bt31ycjvl80000gp/T//ccIPedt8.s 			page 53


 2965 005d 50       		.byte	0x50
 2966 005e 30000000 		.4byte	.LVL18
 2967 0062 50000000 		.4byte	.LVL20
 2968 0066 0100     		.2byte	0x1
 2969 0068 50       		.byte	0x50
 2970 0069 00000000 		.4byte	0
 2971 006d 00000000 		.4byte	0
 2972              	.LVUS7:
 2973 0071 00       		.uleb128 .LVU34
 2974 0072 00       		.uleb128 .LVU35
 2975 0073 01       		.uleb128 .LVU38
 2976 0074 00       		.uleb128 .LVU46
 2977              	.LLST7:
 2978 0075 14000000 		.4byte	.LVL16
 2979 0079 28000000 		.4byte	.LVL17
 2980 007d 0100     		.2byte	0x1
 2981 007f 51       		.byte	0x51
 2982 0080 30000000 		.4byte	.LVL18
 2983 0084 50000000 		.4byte	.LVL20
 2984 0088 0100     		.2byte	0x1
 2985 008a 51       		.byte	0x51
 2986 008b 00000000 		.4byte	0
 2987 008f 00000000 		.4byte	0
 2988              	.LVUS8:
 2989 0093 00       		.uleb128 .LVU34
 2990 0094 00       		.uleb128 .LVU35
 2991 0095 00       		.uleb128 .LVU42
 2992 0096 00       		.uleb128 .LVU46
 2993              	.LLST8:
 2994 0097 14000000 		.4byte	.LVL16
 2995 009b 28000000 		.4byte	.LVL17
 2996 009f 0100     		.2byte	0x1
 2997 00a1 52       		.byte	0x52
 2998 00a2 38000000 		.4byte	.LVL19
 2999 00a6 50000000 		.4byte	.LVL20
 3000 00aa 0100     		.2byte	0x1
 3001 00ac 52       		.byte	0x52
 3002 00ad 00000000 		.4byte	0
 3003 00b1 00000000 		.4byte	0
 3004              	.LVUS0:
 3005 00b5 00       		.uleb128 0
 3006 00b6 00       		.uleb128 .LVU21
 3007 00b7 00       		.uleb128 .LVU21
 3008 00b8 00       		.uleb128 .LVU22
 3009 00b9 00       		.uleb128 .LVU22
 3010 00ba 00       		.uleb128 .LVU25
 3011 00bb 00       		.uleb128 .LVU25
 3012 00bc 00       		.uleb128 0
 3013              	.LLST0:
 3014 00bd 00000000 		.4byte	.LVL7
 3015 00c1 18000000 		.4byte	.LVL9
 3016 00c5 0100     		.2byte	0x1
 3017 00c7 50       		.byte	0x50
 3018 00c8 18000000 		.4byte	.LVL9
 3019 00cc 28000000 		.4byte	.LVL10
 3020 00d0 0400     		.2byte	0x4
 3021 00d2 F3       		.byte	0xf3
ARM GAS  /var/folders/l5/0x54b2c10074c8bt31ycjvl80000gp/T//ccIPedt8.s 			page 54


 3022 00d3 01       		.uleb128 0x1
 3023 00d4 50       		.byte	0x50
 3024 00d5 9F       		.byte	0x9f
 3025 00d6 28000000 		.4byte	.LVL10
 3026 00da 40000000 		.4byte	.LVL12
 3027 00de 0100     		.2byte	0x1
 3028 00e0 50       		.byte	0x50
 3029 00e1 40000000 		.4byte	.LVL12
 3030 00e5 48000000 		.4byte	.LFE8
 3031 00e9 0400     		.2byte	0x4
 3032 00eb F3       		.byte	0xf3
 3033 00ec 01       		.uleb128 0x1
 3034 00ed 50       		.byte	0x50
 3035 00ee 9F       		.byte	0x9f
 3036 00ef 00000000 		.4byte	0
 3037 00f3 00000000 		.4byte	0
 3038              	.LVUS1:
 3039 00f7 00       		.uleb128 0
 3040 00f8 00       		.uleb128 .LVU23
 3041 00f9 00       		.uleb128 .LVU23
 3042 00fa 00       		.uleb128 0
 3043              	.LLST1:
 3044 00fb 00000000 		.4byte	.LVL7
 3045 00ff 30000000 		.4byte	.LVL11
 3046 0103 0100     		.2byte	0x1
 3047 0105 51       		.byte	0x51
 3048 0106 30000000 		.4byte	.LVL11
 3049 010a 48000000 		.4byte	.LFE8
 3050 010e 0400     		.2byte	0x4
 3051 0110 F3       		.byte	0xf3
 3052 0111 01       		.uleb128 0x1
 3053 0112 51       		.byte	0x51
 3054 0113 9F       		.byte	0x9f
 3055 0114 00000000 		.4byte	0
 3056 0118 00000000 		.4byte	0
 3057              	.LVUS2:
 3058 011c 00       		.uleb128 .LVU18
 3059 011d 00       		.uleb128 0
 3060              	.LLST2:
 3061 011e 0C000000 		.4byte	.LVL8
 3062 0122 48000000 		.4byte	.LFE8
 3063 0126 0100     		.2byte	0x1
 3064 0128 53       		.byte	0x53
 3065 0129 00000000 		.4byte	0
 3066 012d 00000000 		.4byte	0
 3067              		.section	.debug_aranges,"",%progbits
 3068 0000 2C000000 		.4byte	0x2c
 3069 0004 0200     		.2byte	0x2
 3070 0006 00000000 		.4byte	.Ldebug_info0
 3071 000a 04       		.byte	0x4
 3072 000b 00       		.byte	0
 3073 000c 0000     		.2byte	0
 3074 000e 0000     		.2byte	0
 3075 0010 00000000 		.4byte	.LFB7
 3076 0014 2C000000 		.4byte	.LFE7-.LFB7
 3077 0018 00000000 		.4byte	.LFB8
 3078 001c 48000000 		.4byte	.LFE8-.LFB8
ARM GAS  /var/folders/l5/0x54b2c10074c8bt31ycjvl80000gp/T//ccIPedt8.s 			page 55


 3079 0020 00000000 		.4byte	.LFB9
 3080 0024 60000000 		.4byte	.LFE9-.LFB9
 3081 0028 00000000 		.4byte	0
 3082 002c 00000000 		.4byte	0
 3083              		.section	.debug_ranges,"",%progbits
 3084              	.Ldebug_ranges0:
 3085 0000 08000000 		.4byte	.LBB4
 3086 0004 0C000000 		.4byte	.LBE4
 3087 0008 14000000 		.4byte	.LBB8
 3088 000c 28000000 		.4byte	.LBE8
 3089 0010 30000000 		.4byte	.LBB9
 3090 0014 50000000 		.4byte	.LBE9
 3091 0018 00000000 		.4byte	0
 3092 001c 00000000 		.4byte	0
 3093 0020 00000000 		.4byte	.LFB7
 3094 0024 2C000000 		.4byte	.LFE7
 3095 0028 00000000 		.4byte	.LFB8
 3096 002c 48000000 		.4byte	.LFE8
 3097 0030 00000000 		.4byte	.LFB9
 3098 0034 60000000 		.4byte	.LFE9
 3099 0038 00000000 		.4byte	0
 3100 003c 00000000 		.4byte	0
 3101              		.section	.debug_line,"",%progbits
 3102              	.Ldebug_line0:
 3103 0000 D1030000 		.section	.debug_str,"MS",%progbits,1
 3103      0300D002 
 3103      00000201 
 3103      FB0E0D00 
 3103      01010101 
 3104              	.LASF97:
 3105 0000 63665F6F 		.ascii	"cf_off_older\000"
 3105      66665F6F 
 3105      6C646572 
 3105      00
 3106              	.LASF43:
 3107 000d 705F6D73 		.ascii	"p_msg\000"
 3107      6700
 3108              	.LASF2:
 3109 0013 73697A65 		.ascii	"size_t\000"
 3109      5F7400
 3110              	.LASF82:
 3111 001a 7264796D 		.ascii	"rdymsg\000"
 3111      736700
 3112              	.LASF176:
 3113 0021 77726974 		.ascii	"write\000"
 3113      6500
 3114              	.LASF118:
 3115 0027 4F757470 		.ascii	"OutputQueue\000"
 3115      75745175 
 3115      65756500 
 3116              	.LASF3:
 3117 0033 5F5F7569 		.ascii	"__uint8_t\000"
 3117      6E74385F 
 3117      7400
 3118              	.LASF185:
 3119 003d 5350495F 		.ascii	"SPI_ACTIVE\000"
 3119      41435449 
ARM GAS  /var/folders/l5/0x54b2c10074c8bt31ycjvl80000gp/T//ccIPedt8.s 			page 56


 3119      564500
 3120              	.LASF69:
 3121 0048 76746C69 		.ascii	"vtlist\000"
 3121      737400
 3122              	.LASF120:
 3123 004f 62736364 		.ascii	"bscdevice_t\000"
 3123      65766963 
 3123      655F7400 
 3124              	.LASF129:
 3125 005b 68616C72 		.ascii	"halrtcnt_t\000"
 3125      74636E74 
 3125      5F7400
 3126              	.LASF159:
 3127 0066 72786275 		.ascii	"rxbuf\000"
 3127      6600
 3128              	.LASF111:
 3129 006c 715F746F 		.ascii	"q_top\000"
 3129      7000
 3130              	.LASF217:
 3131 0072 68616C49 		.ascii	"halIsCounterWithin\000"
 3131      73436F75 
 3131      6E746572 
 3131      57697468 
 3131      696E00
 3132              	.LASF13:
 3133 0085 6C6F6E67 		.ascii	"long long unsigned int\000"
 3133      206C6F6E 
 3133      6720756E 
 3133      7369676E 
 3133      65642069 
 3134              	.LASF93:
 3135 009c 63685F74 		.ascii	"ch_threadsize\000"
 3135      68726561 
 3135      6473697A 
 3135      6500
 3136              	.LASF83:
 3137 00aa 65786974 		.ascii	"exitcode\000"
 3137      636F6465 
 3137      00
 3138              	.LASF188:
 3139 00b3 53504944 		.ascii	"SPIDriver\000"
 3139      72697665 
 3139      7200
 3140              	.LASF125:
 3141 00bd 64617461 		.ascii	"dataFifo\000"
 3141      4669666F 
 3141      00
 3142              	.LASF205:
 3143 00c6 68616C49 		.ascii	"halInit\000"
 3143      6E697400 
 3144              	.LASF31:
 3145 00ce 705F7072 		.ascii	"p_prio\000"
 3145      696F00
 3146              	.LASF100:
 3147 00d5 63665F6F 		.ascii	"cf_off_state\000"
 3147      66665F73 
 3147      74617465 
ARM GAS  /var/folders/l5/0x54b2c10074c8bt31ycjvl80000gp/T//ccIPedt8.s 			page 57


 3147      00
 3148              	.LASF181:
 3149 00e2 72656164 		.ascii	"readt\000"
 3149      7400
 3150              	.LASF152:
 3151 00e8 64657669 		.ascii	"device\000"
 3151      636500
 3152              	.LASF108:
 3153 00ef 715F7761 		.ascii	"q_waiting\000"
 3153      6974696E 
 3153      6700
 3154              	.LASF12:
 3155 00f9 6C6F6E67 		.ascii	"long long int\000"
 3155      206C6F6E 
 3155      6720696E 
 3155      7400
 3156              	.LASF1:
 3157 0107 7369676E 		.ascii	"signed char\000"
 3157      65642063 
 3157      68617200 
 3158              	.LASF99:
 3159 0113 63665F6F 		.ascii	"cf_off_stklimit\000"
 3159      66665F73 
 3159      746B6C69 
 3159      6D697400 
 3160              	.LASF183:
 3161 0123 5350495F 		.ascii	"SPI_STOP\000"
 3161      53544F50 
 3161      00
 3162              	.LASF101:
 3163 012c 63665F6F 		.ascii	"cf_off_flags\000"
 3163      66665F66 
 3163      6C616773 
 3163      00
 3164              	.LASF168:
 3165 0139 53445F53 		.ascii	"SD_STOP\000"
 3165      544F5000 
 3166              	.LASF18:
 3167 0141 626F6F6C 		.ascii	"bool_t\000"
 3167      5F7400
 3168              	.LASF72:
 3169 0148 6D5F7175 		.ascii	"m_queue\000"
 3169      65756500 
 3170              	.LASF155:
 3171 0150 61646472 		.ascii	"addr\000"
 3171      00
 3172              	.LASF208:
 3173 0155 5F70616C 		.ascii	"_pal_lld_init\000"
 3173      5F6C6C64 
 3173      5F696E69 
 3173      7400
 3174              	.LASF22:
 3175 0163 74736C69 		.ascii	"tslices_t\000"
 3175      6365735F 
 3175      7400
 3176              	.LASF141:
 3177 016d 4932435F 		.ascii	"I2C_UNINIT\000"
ARM GAS  /var/folders/l5/0x54b2c10074c8bt31ycjvl80000gp/T//ccIPedt8.s 			page 58


 3177      554E494E 
 3177      495400
 3178              	.LASF163:
 3179 0178 69326361 		.ascii	"i2caddr_t\000"
 3179      6464725F 
 3179      7400
 3180              	.LASF149:
 3181 0182 73746174 		.ascii	"state\000"
 3181      6500
 3182              	.LASF9:
 3183 0188 6C6F6E67 		.ascii	"long int\000"
 3183      20696E74 
 3183      00
 3184              	.LASF20:
 3185 0191 74737461 		.ascii	"tstate_t\000"
 3185      74655F74 
 3185      00
 3186              	.LASF154:
 3187 019a 74687265 		.ascii	"thread\000"
 3187      616400
 3188              	.LASF127:
 3189 01a1 64617461 		.ascii	"dataDelay\000"
 3189      44656C61 
 3189      7900
 3190              	.LASF161:
 3191 01ab 72786964 		.ascii	"rxidx\000"
 3191      7800
 3192              	.LASF110:
 3193 01b1 715F6275 		.ascii	"q_buffer\000"
 3193      66666572 
 3193      00
 3194              	.LASF15:
 3195 01ba 75696E74 		.ascii	"uint16_t\000"
 3195      31365F74 
 3195      00
 3196              	.LASF201:
 3197 01c3 53504930 		.ascii	"SPI0\000"
 3197      00
 3198              	.LASF105:
 3199 01c8 63686465 		.ascii	"chdebug_t\000"
 3199      6275675F 
 3199      7400
 3200              	.LASF144:
 3201 01d2 4932435F 		.ascii	"I2C_ACTIVE_TX\000"
 3201      41435449 
 3201      56455F54 
 3201      5800
 3202              	.LASF198:
 3203 01e0 636C6F63 		.ascii	"clock_phase\000"
 3203      6B5F7068 
 3203      61736500 
 3204              	.LASF33:
 3205 01ec 705F6E65 		.ascii	"p_newer\000"
 3205      77657200 
 3206              	.LASF119:
 3207 01f4 5F69646C 		.ascii	"_idle_thread_wa\000"
 3207      655F7468 
ARM GAS  /var/folders/l5/0x54b2c10074c8bt31ycjvl80000gp/T//ccIPedt8.s 			page 59


 3207      72656164 
 3207      5F776100 
 3208              	.LASF191:
 3209 0204 656E645F 		.ascii	"end_cb\000"
 3209      636200
 3210              	.LASF189:
 3211 020b 7478636E 		.ascii	"txcnt\000"
 3211      7400
 3212              	.LASF195:
 3213 0211 63686970 		.ascii	"chip_select_polarity0\000"
 3213      5F73656C 
 3213      6563745F 
 3213      706F6C61 
 3213      72697479 
 3214              	.LASF196:
 3215 0227 63686970 		.ascii	"chip_select_polarity1\000"
 3215      5F73656C 
 3215      6563745F 
 3215      706F6C61 
 3215      72697479 
 3216              	.LASF121:
 3217 023d 636F6E74 		.ascii	"control\000"
 3217      726F6C00 
 3218              	.LASF10:
 3219 0245 5F5F7569 		.ascii	"__uint32_t\000"
 3219      6E743332 
 3219      5F7400
 3220              	.LASF50:
 3221 0250 72656761 		.ascii	"regarm_t\000"
 3221      726D5F74 
 3221      00
 3222              	.LASF56:
 3223 0259 76745F70 		.ascii	"vt_prev\000"
 3223      72657600 
 3224              	.LASF124:
 3225 0261 736C6176 		.ascii	"slaveAddress\000"
 3225      65416464 
 3225      72657373 
 3225      00
 3226              	.LASF190:
 3227 026e 73706963 		.ascii	"spicallback_t\000"
 3227      616C6C62 
 3227      61636B5F 
 3227      7400
 3228              	.LASF166:
 3229 027c 49324330 		.ascii	"I2C0\000"
 3229      00
 3230              	.LASF80:
 3231 0281 4576656E 		.ascii	"EventSource\000"
 3231      74536F75 
 3231      72636500 
 3232              	.LASF0:
 3233 028d 756E7369 		.ascii	"unsigned int\000"
 3233      676E6564 
 3233      20696E74 
 3233      00
 3234              	.LASF55:
ARM GAS  /var/folders/l5/0x54b2c10074c8bt31ycjvl80000gp/T//ccIPedt8.s 			page 60


 3235 029a 76745F6E 		.ascii	"vt_next\000"
 3235      65787400 
 3236              	.LASF156:
 3237 02a2 74786275 		.ascii	"txbuf\000"
 3237      6600
 3238              	.LASF175:
 3239 02a8 53657269 		.ascii	"SerialDriverVMT\000"
 3239      616C4472 
 3239      69766572 
 3239      564D5400 
 3240              	.LASF151:
 3241 02b8 6572726F 		.ascii	"errors\000"
 3241      727300
 3242              	.LASF173:
 3243 02bf 69717565 		.ascii	"iqueue\000"
 3243      756500
 3244              	.LASF11:
 3245 02c6 6C6F6E67 		.ascii	"long unsigned int\000"
 3245      20756E73 
 3245      69676E65 
 3245      6420696E 
 3245      7400
 3246              	.LASF106:
 3247 02d8 63685F64 		.ascii	"ch_debug\000"
 3247      65627567 
 3247      00
 3248              	.LASF207:
 3249 02e1 746D496E 		.ascii	"tmInit\000"
 3249      697400
 3250              	.LASF203:
 3251 02e8 74696D65 		.ascii	"timeout\000"
 3251      6F757400 
 3252              	.LASF179:
 3253 02f0 67657474 		.ascii	"gett\000"
 3253      00
 3254              	.LASF53:
 3255 02f5 76746675 		.ascii	"vtfunc_t\000"
 3255      6E635F74 
 3255      00
 3256              	.LASF87:
 3257 02fe 63685F69 		.ascii	"ch_identifier\000"
 3257      64656E74 
 3257      69666965 
 3257      7200
 3258              	.LASF194:
 3259 030c 63686970 		.ascii	"chip_select_polarity\000"
 3259      5F73656C 
 3259      6563745F 
 3259      706F6C61 
 3259      72697479 
 3260              	.LASF172:
 3261 0321 6576656E 		.ascii	"event\000"
 3261      7400
 3262              	.LASF52:
 3263 0327 636F6E74 		.ascii	"context\000"
 3263      65787400 
 3264              	.LASF7:
ARM GAS  /var/folders/l5/0x54b2c10074c8bt31ycjvl80000gp/T//ccIPedt8.s 			page 61


 3265 032f 73686F72 		.ascii	"short unsigned int\000"
 3265      7420756E 
 3265      7369676E 
 3265      65642069 
 3265      6E7400
 3266              	.LASF136:
 3267 0342 6770696F 		.ascii	"gpio_port_t\000"
 3267      5F706F72 
 3267      745F7400 
 3268              	.LASF132:
 3269 034e 6770636C 		.ascii	"gpclr\000"
 3269      7200
 3270              	.LASF216:
 3271 0354 7469636B 		.ascii	"ticks\000"
 3271      7300
 3272              	.LASF24:
 3273 035a 6D73675F 		.ascii	"msg_t\000"
 3273      7400
 3274              	.LASF174:
 3275 0360 6F717565 		.ascii	"oqueue\000"
 3275      756500
 3276              	.LASF65:
 3277 0367 725F6E65 		.ascii	"r_newer\000"
 3277      77657200 
 3278              	.LASF76:
 3279 036f 656C5F6E 		.ascii	"el_next\000"
 3279      65787400 
 3280              	.LASF213:
 3281 0377 474E5520 		.ascii	"GNU C17 8.3.1 20190703 (release) [gcc-8-branch revi"
 3281      43313720 
 3281      382E332E 
 3281      31203230 
 3281      31393037 
 3282 03aa 73696F6E 		.ascii	"sion 273027] -mcpu=arm1176jz-s -mno-thumb-interwork"
 3282      20323733 
 3282      3032375D 
 3282      202D6D63 
 3282      70753D61 
 3283 03dd 202D6D66 		.ascii	" -mfloat-abi=soft -marm -march=armv6kz -ggdb -O2 -f"
 3283      6C6F6174 
 3283      2D616269 
 3283      3D736F66 
 3283      74202D6D 
 3284 0410 6F6D6974 		.ascii	"omit-frame-pointer -ffunction-sections -fdata-secti"
 3284      2D667261 
 3284      6D652D70 
 3284      6F696E74 
 3284      6572202D 
 3285 0443 6F6E7300 		.ascii	"ons\000"
 3286              	.LASF180:
 3287 0447 77726974 		.ascii	"writet\000"
 3287      657400
 3288              	.LASF19:
 3289 044e 746D6F64 		.ascii	"tmode_t\000"
 3289      655F7400 
 3290              	.LASF48:
 3291 0456 54687265 		.ascii	"ThreadsList\000"
ARM GAS  /var/folders/l5/0x54b2c10074c8bt31ycjvl80000gp/T//ccIPedt8.s 			page 62


 3291      6164734C 
 3291      69737400 
 3292              	.LASF25:
 3293 0462 6576656E 		.ascii	"eventmask_t\000"
 3293      746D6173 
 3293      6B5F7400 
 3294              	.LASF117:
 3295 046e 496E7075 		.ascii	"InputQueue\000"
 3295      74517565 
 3295      756500
 3296              	.LASF71:
 3297 0479 4D757465 		.ascii	"Mutex\000"
 3297      7800
 3298              	.LASF107:
 3299 047f 47656E65 		.ascii	"GenericQueue\000"
 3299      72696351 
 3299      75657565 
 3299      00
 3300              	.LASF49:
 3301 048c 73746B61 		.ascii	"stkalign_t\000"
 3301      6C69676E 
 3301      5F7400
 3302              	.LASF211:
 3303 0497 73706949 		.ascii	"spiInit\000"
 3303      6E697400 
 3304              	.LASF88:
 3305 049f 63685F7A 		.ascii	"ch_zero\000"
 3305      65726F00 
 3306              	.LASF102:
 3307 04a7 63665F6F 		.ascii	"cf_off_refs\000"
 3307      66665F72 
 3307      65667300 
 3308              	.LASF133:
 3309 04b3 67706C65 		.ascii	"gplev\000"
 3309      7600
 3310              	.LASF178:
 3311 04b9 70757474 		.ascii	"putt\000"
 3311      00
 3312              	.LASF57:
 3313 04be 76745F74 		.ascii	"vt_time\000"
 3313      696D6500 
 3314              	.LASF142:
 3315 04c6 4932435F 		.ascii	"I2C_STOP\000"
 3315      53544F50 
 3315      00
 3316              	.LASF126:
 3317 04cf 636C6F63 		.ascii	"clockDivider\000"
 3317      6B446976 
 3317      69646572 
 3317      00
 3318              	.LASF109:
 3319 04dc 715F636F 		.ascii	"q_counter\000"
 3319      756E7465 
 3319      7200
 3320              	.LASF58:
 3321 04e6 76745F66 		.ascii	"vt_func\000"
 3321      756E6300 
ARM GAS  /var/folders/l5/0x54b2c10074c8bt31ycjvl80000gp/T//ccIPedt8.s 			page 63


 3322              	.LASF92:
 3323 04ee 63685F74 		.ascii	"ch_timesize\000"
 3323      696D6573 
 3323      697A6500 
 3324              	.LASF164:
 3325 04fa 69635F73 		.ascii	"ic_speed\000"
 3325      70656564 
 3325      00
 3326              	.LASF98:
 3327 0503 63665F6F 		.ascii	"cf_off_name\000"
 3327      66665F6E 
 3327      616D6500 
 3328              	.LASF215:
 3329 050f 2F557365 		.ascii	"/Users/fernandoguirado/Desktop/Chibi/ChibiOS-RPi/de"
 3329      72732F66 
 3329      65726E61 
 3329      6E646F67 
 3329      75697261 
 3330 0542 6D6F732F 		.ascii	"mos/led\000"
 3330      6C656400 
 3331              	.LASF160:
 3332 054a 72786279 		.ascii	"rxbytes\000"
 3332      74657300 
 3333              	.LASF112:
 3334 0552 715F7772 		.ascii	"q_wrptr\000"
 3334      70747200 
 3335              	.LASF64:
 3336 055a 725F6374 		.ascii	"r_ctx\000"
 3336      7800
 3337              	.LASF47:
 3338 0560 54687265 		.ascii	"ThreadsQueue\000"
 3338      61647351 
 3338      75657565 
 3338      00
 3339              	.LASF89:
 3340 056d 63685F73 		.ascii	"ch_size\000"
 3340      697A6500 
 3341              	.LASF138:
 3342 0575 494F504F 		.ascii	"IOPORT0\000"
 3342      52543000 
 3343              	.LASF67:
 3344 057d 725F6375 		.ascii	"r_current\000"
 3344      7272656E 
 3344      7400
 3345              	.LASF66:
 3346 0587 725F6F6C 		.ascii	"r_older\000"
 3346      64657200 
 3347              	.LASF78:
 3348 058f 656C5F6D 		.ascii	"el_mask\000"
 3348      61736B00 
 3349              	.LASF131:
 3350 0597 67707365 		.ascii	"gpset\000"
 3350      7400
 3351              	.LASF134:
 3352 059d 67707075 		.ascii	"gppudclk\000"
 3352      64636C6B 
 3352      00
ARM GAS  /var/folders/l5/0x54b2c10074c8bt31ycjvl80000gp/T//ccIPedt8.s 			page 64


 3353              	.LASF192:
 3354 05a6 6C6F7373 		.ascii	"lossiEnabled\000"
 3354      69456E61 
 3354      626C6564 
 3354      00
 3355              	.LASF193:
 3356 05b3 63686970 		.ascii	"chip_select\000"
 3356      5F73656C 
 3356      65637400 
 3357              	.LASF21:
 3358 05bf 74726566 		.ascii	"trefs_t\000"
 3358      735F7400 
 3359              	.LASF147:
 3360 05c7 69326373 		.ascii	"i2cstate_t\000"
 3360      74617465 
 3360      5F7400
 3361              	.LASF91:
 3362 05d2 63685F70 		.ascii	"ch_ptrsize\000"
 3362      74727369 
 3362      7A6500
 3363              	.LASF116:
 3364 05dd 716E6F74 		.ascii	"qnotify_t\000"
 3364      6966795F 
 3364      7400
 3365              	.LASF30:
 3366 05e7 705F7072 		.ascii	"p_prev\000"
 3366      657600
 3367              	.LASF23:
 3368 05ee 74707269 		.ascii	"tprio_t\000"
 3368      6F5F7400 
 3369              	.LASF113:
 3370 05f6 715F7264 		.ascii	"q_rdptr\000"
 3370      70747200 
 3371              	.LASF162:
 3372 05fe 69326366 		.ascii	"i2cflags_t\000"
 3372      6C616773 
 3372      5F7400
 3373              	.LASF153:
 3374 0609 6D757465 		.ascii	"mutex\000"
 3374      7800
 3375              	.LASF16:
 3376 060f 696E7433 		.ascii	"int32_t\000"
 3376      325F7400 
 3377              	.LASF4:
 3378 0617 756E7369 		.ascii	"unsigned char\000"
 3378      676E6564 
 3378      20636861 
 3378      7200
 3379              	.LASF77:
 3380 0625 656C5F6C 		.ascii	"el_listener\000"
 3380      69737465 
 3380      6E657200 
 3381              	.LASF79:
 3382 0631 656C5F66 		.ascii	"el_flags\000"
 3382      6C616773 
 3382      00
 3383              	.LASF45:
ARM GAS  /var/folders/l5/0x54b2c10074c8bt31ycjvl80000gp/T//ccIPedt8.s 			page 65


 3384 063a 705F6D74 		.ascii	"p_mtxlist\000"
 3384      786C6973 
 3384      7400
 3385              	.LASF5:
 3386 0644 73686F72 		.ascii	"short int\000"
 3386      7420696E 
 3386      7400
 3387              	.LASF36:
 3388 064e 705F7374 		.ascii	"p_state\000"
 3388      61746500 
 3389              	.LASF39:
 3390 0656 705F7072 		.ascii	"p_preempt\000"
 3390      65656D70 
 3390      7400
 3391              	.LASF104:
 3392 0660 63665F6F 		.ascii	"cf_off_time\000"
 3392      66665F74 
 3392      696D6500 
 3393              	.LASF34:
 3394 066c 705F6F6C 		.ascii	"p_older\000"
 3394      64657200 
 3395              	.LASF63:
 3396 0674 725F7072 		.ascii	"r_prio\000"
 3396      696F00
 3397              	.LASF135:
 3398 067b 70696E5F 		.ascii	"pin_base\000"
 3398      62617365 
 3398      00
 3399              	.LASF85:
 3400 0684 65776D61 		.ascii	"ewmask\000"
 3400      736B00
 3401              	.LASF29:
 3402 068b 705F6E65 		.ascii	"p_next\000"
 3402      787400
 3403              	.LASF139:
 3404 0692 494F504F 		.ascii	"IOPORT1\000"
 3404      52543100 
 3405              	.LASF103:
 3406 069a 63665F6F 		.ascii	"cf_off_preempt\000"
 3406      66665F70 
 3406      7265656D 
 3406      707400
 3407              	.LASF37:
 3408 06a9 705F666C 		.ascii	"p_flags\000"
 3408      61677300 
 3409              	.LASF28:
 3410 06b1 54687265 		.ascii	"Thread\000"
 3410      616400
 3411              	.LASF199:
 3412 06b8 636C6F63 		.ascii	"clock_divider\000"
 3412      6B5F6469 
 3412      76696465 
 3412      7200
 3413              	.LASF96:
 3414 06c6 63665F6F 		.ascii	"cf_off_newer\000"
 3414      66665F6E 
 3414      65776572 
ARM GAS  /var/folders/l5/0x54b2c10074c8bt31ycjvl80000gp/T//ccIPedt8.s 			page 66


 3414      00
 3415              	.LASF146:
 3416 06d3 4932435F 		.ascii	"I2C_LOCKED\000"
 3416      4C4F434B 
 3416      454400
 3417              	.LASF44:
 3418 06de 705F6570 		.ascii	"p_epending\000"
 3418      656E6469 
 3418      6E6700
 3419              	.LASF167:
 3420 06e9 53445F55 		.ascii	"SD_UNINIT\000"
 3420      4E494E49 
 3420      5400
 3421              	.LASF214:
 3422 06f3 2E2E2F2E 		.ascii	"../../os/hal/src/hal.c\000"
 3422      2E2F6F73 
 3422      2F68616C 
 3422      2F737263 
 3422      2F68616C 
 3423              	.LASF17:
 3424 070a 75696E74 		.ascii	"uint32_t\000"
 3424      33325F74 
 3424      00
 3425              	.LASF94:
 3426 0713 63665F6F 		.ascii	"cf_off_prio\000"
 3426      66665F70 
 3426      72696F00 
 3427              	.LASF62:
 3428 071f 725F7175 		.ascii	"r_queue\000"
 3428      65756500 
 3429              	.LASF54:
 3430 0727 56697274 		.ascii	"VirtualTimer\000"
 3430      75616C54 
 3430      696D6572 
 3430      00
 3431              	.LASF171:
 3432 0734 53657269 		.ascii	"SerialDriver\000"
 3432      616C4472 
 3432      69766572 
 3432      00
 3433              	.LASF145:
 3434 0741 4932435F 		.ascii	"I2C_ACTIVE_RX\000"
 3434      41435449 
 3434      56455F52 
 3434      5800
 3435              	.LASF177:
 3436 074f 72656164 		.ascii	"read\000"
 3436      00
 3437              	.LASF86:
 3438 0754 63686172 		.ascii	"char\000"
 3438      00
 3439              	.LASF186:
 3440 0759 5350495F 		.ascii	"SPI_COMPLETE\000"
 3440      434F4D50 
 3440      4C455445 
 3440      00
 3441              	.LASF150:
ARM GAS  /var/folders/l5/0x54b2c10074c8bt31ycjvl80000gp/T//ccIPedt8.s 			page 67


 3442 0766 636F6E66 		.ascii	"config\000"
 3442      696700
 3443              	.LASF6:
 3444 076d 5F5F7569 		.ascii	"__uint16_t\000"
 3444      6E743136 
 3444      5F7400
 3445              	.LASF187:
 3446 0778 73706973 		.ascii	"spistate_t\000"
 3446      74617465 
 3446      5F7400
 3447              	.LASF74:
 3448 0783 6D5F6E65 		.ascii	"m_next\000"
 3448      787400
 3449              	.LASF27:
 3450 078a 73797374 		.ascii	"systime_t\000"
 3450      696D655F 
 3450      7400
 3451              	.LASF46:
 3452 0794 705F7265 		.ascii	"p_realprio\000"
 3452      616C7072 
 3452      696F00
 3453              	.LASF8:
 3454 079f 5F5F696E 		.ascii	"__int32_t\000"
 3454      7433325F 
 3454      7400
 3455              	.LASF143:
 3456 07a9 4932435F 		.ascii	"I2C_READY\000"
 3456      52454144 
 3456      5900
 3457              	.LASF148:
 3458 07b3 49324344 		.ascii	"I2CDriver\000"
 3458      72697665 
 3458      7200
 3459              	.LASF40:
 3460 07bd 705F7469 		.ascii	"p_time\000"
 3460      6D6500
 3461              	.LASF197:
 3462 07c4 636C6F63 		.ascii	"clock_polarity\000"
 3462      6B5F706F 
 3462      6C617269 
 3462      747900
 3463              	.LASF206:
 3464 07d3 68616C5F 		.ascii	"hal_lld_init\000"
 3464      6C6C645F 
 3464      696E6974 
 3464      00
 3465              	.LASF51:
 3466 07e0 696E7463 		.ascii	"intctx\000"
 3466      747800
 3467              	.LASF42:
 3468 07e7 705F6D73 		.ascii	"p_msgqueue\000"
 3468      67717565 
 3468      756500
 3469              	.LASF169:
 3470 07f2 53445F52 		.ascii	"SD_READY\000"
 3470      45414459 
 3470      00
ARM GAS  /var/folders/l5/0x54b2c10074c8bt31ycjvl80000gp/T//ccIPedt8.s 			page 68


 3471              	.LASF184:
 3472 07fb 5350495F 		.ascii	"SPI_READY\000"
 3472      52454144 
 3472      5900
 3473              	.LASF182:
 3474 0805 5350495F 		.ascii	"SPI_UNINIT\000"
 3474      554E494E 
 3474      495400
 3475              	.LASF59:
 3476 0810 76745F70 		.ascii	"vt_par\000"
 3476      617200
 3477              	.LASF26:
 3478 0817 666C6167 		.ascii	"flagsmask_t\000"
 3478      736D6173 
 3478      6B5F7400 
 3479              	.LASF165:
 3480 0823 49324343 		.ascii	"I2CConfig\000"
 3480      6F6E6669 
 3480      6700
 3481              	.LASF170:
 3482 082d 73647374 		.ascii	"sdstate_t\000"
 3482      6174655F 
 3482      7400
 3483              	.LASF158:
 3484 0837 74786964 		.ascii	"txidx\000"
 3484      7800
 3485              	.LASF95:
 3486 083d 63665F6F 		.ascii	"cf_off_ctx\000"
 3486      66665F63 
 3486      747800
 3487              	.LASF38:
 3488 0848 705F7265 		.ascii	"p_refs\000"
 3488      667300
 3489              	.LASF122:
 3490 084f 73746174 		.ascii	"status\000"
 3490      757300
 3491              	.LASF68:
 3492 0856 52656164 		.ascii	"ReadyList\000"
 3492      794C6973 
 3492      7400
 3493              	.LASF114:
 3494 0860 715F6E6F 		.ascii	"q_notify\000"
 3494      74696679 
 3494      00
 3495              	.LASF212:
 3496 0869 626F6172 		.ascii	"boardInit\000"
 3496      64496E69 
 3496      7400
 3497              	.LASF70:
 3498 0873 726C6973 		.ascii	"rlist\000"
 3498      7400
 3499              	.LASF14:
 3500 0879 75696E74 		.ascii	"uint8_t\000"
 3500      385F7400 
 3501              	.LASF204:
 3502 0881 68616C50 		.ascii	"halPolledDelay\000"
 3502      6F6C6C65 
ARM GAS  /var/folders/l5/0x54b2c10074c8bt31ycjvl80000gp/T//ccIPedt8.s 			page 69


 3502      6444656C 
 3502      617900
 3503              	.LASF130:
 3504 0890 6C617463 		.ascii	"latch\000"
 3504      6800
 3505              	.LASF75:
 3506 0896 4576656E 		.ascii	"EventListener\000"
 3506      744C6973 
 3506      74656E65 
 3506      7200
 3507              	.LASF84:
 3508 08a4 77746F62 		.ascii	"wtobjp\000"
 3508      6A7000
 3509              	.LASF35:
 3510 08ab 705F6E61 		.ascii	"p_name\000"
 3510      6D6500
 3511              	.LASF60:
 3512 08b2 76745F73 		.ascii	"vt_systime\000"
 3512      79737469 
 3512      6D6500
 3513              	.LASF81:
 3514 08bd 65735F6E 		.ascii	"es_next\000"
 3514      65787400 
 3515              	.LASF200:
 3516 08c5 53504943 		.ascii	"SPIConfig\000"
 3516      6F6E6669 
 3516      6700
 3517              	.LASF209:
 3518 08cf 69326349 		.ascii	"i2cInit\000"
 3518      6E697400 
 3519              	.LASF90:
 3520 08d7 63685F76 		.ascii	"ch_version\000"
 3520      65727369 
 3520      6F6E00
 3521              	.LASF202:
 3522 08e2 73746172 		.ascii	"start\000"
 3522      7400
 3523              	.LASF123:
 3524 08e8 64617461 		.ascii	"dataLength\000"
 3524      4C656E67 
 3524      746800
 3525              	.LASF61:
 3526 08f3 56544C69 		.ascii	"VTList\000"
 3526      737400
 3527              	.LASF210:
 3528 08fa 7364496E 		.ascii	"sdInit\000"
 3528      697400
 3529              	.LASF115:
 3530 0901 715F6C69 		.ascii	"q_link\000"
 3530      6E6B00
 3531              	.LASF137:
 3532 0908 50414C43 		.ascii	"PALConfig\000"
 3532      6F6E6669 
 3532      6700
 3533              	.LASF73:
 3534 0912 6D5F6F77 		.ascii	"m_owner\000"
 3534      6E657200 
ARM GAS  /var/folders/l5/0x54b2c10074c8bt31ycjvl80000gp/T//ccIPedt8.s 			page 70


 3535              	.LASF140:
 3536 091a 70616C5F 		.ascii	"pal_default_config\000"
 3536      64656661 
 3536      756C745F 
 3536      636F6E66 
 3536      696700
 3537              	.LASF32:
 3538 092d 705F6374 		.ascii	"p_ctx\000"
 3538      7800
 3539              	.LASF41:
 3540 0933 705F7761 		.ascii	"p_waiting\000"
 3540      6974696E 
 3540      6700
 3541              	.LASF157:
 3542 093d 74786279 		.ascii	"txbytes\000"
 3542      74657300 
 3543              	.LASF128:
 3544 0945 636C6F63 		.ascii	"clockStretchTimeout\000"
 3544      6B537472 
 3544      65746368 
 3544      54696D65 
 3544      6F757400 
 3545              		.ident	"GCC: (GNU Tools for Arm Embedded Processors 8-2019-q3-update) 8.3.1 20190703 (release) [gc
ARM GAS  /var/folders/l5/0x54b2c10074c8bt31ycjvl80000gp/T//ccIPedt8.s 			page 71


DEFINED SYMBOLS
                            *ABS*:0000000000000000 hal.c
/var/folders/l5/0x54b2c10074c8bt31ycjvl80000gp/T//ccIPedt8.s:16     .text.halInit:0000000000000000 $a
/var/folders/l5/0x54b2c10074c8bt31ycjvl80000gp/T//ccIPedt8.s:23     .text.halInit:0000000000000000 halInit
/var/folders/l5/0x54b2c10074c8bt31ycjvl80000gp/T//ccIPedt8.s:68     .text.halInit:0000000000000028 $d
/var/folders/l5/0x54b2c10074c8bt31ycjvl80000gp/T//ccIPedt8.s:73     .text.halIsCounterWithin:0000000000000000 $a
/var/folders/l5/0x54b2c10074c8bt31ycjvl80000gp/T//ccIPedt8.s:79     .text.halIsCounterWithin:0000000000000000 halIsCounterWithin
/var/folders/l5/0x54b2c10074c8bt31ycjvl80000gp/T//ccIPedt8.s:125    .text.halIsCounterWithin:0000000000000044 $d
/var/folders/l5/0x54b2c10074c8bt31ycjvl80000gp/T//ccIPedt8.s:130    .text.halPolledDelay:0000000000000000 $a
/var/folders/l5/0x54b2c10074c8bt31ycjvl80000gp/T//ccIPedt8.s:136    .text.halPolledDelay:0000000000000000 halPolledDelay
/var/folders/l5/0x54b2c10074c8bt31ycjvl80000gp/T//ccIPedt8.s:213    .text.halPolledDelay:000000000000005c $d

UNDEFINED SYMBOLS
hal_lld_init
tmInit
_pal_lld_init
i2cInit
sdInit
spiInit
boardInit
pal_default_config
