ARM GAS  /var/folders/l5/0x54b2c10074c8bt31ycjvl80000gp/T//ccIPedt8.s 			page 1


   1              		.cpu arm1176jz-s
   2              		.eabi_attribute 20, 1
   3              		.eabi_attribute 21, 1
   4              		.eabi_attribute 23, 3
   5              		.eabi_attribute 24, 1
   6              		.eabi_attribute 25, 1
   7              		.eabi_attribute 26, 1
   8              		.eabi_attribute 30, 2
   9              		.eabi_attribute 34, 1
  10              		.eabi_attribute 18, 4
  11              		.file	"hal.c"
  12              		.text
  13              	.Ltext0:
  14              		.cfi_sections	.debug_frame
  15              		.section	.text.halInit,"ax",%progbits
  16              		.align	2
  17              		.global	halInit
  18              		.arch armv6kz
  19              		.syntax unified
  20              		.arm
  21              		.fpu softvfp
  22              		.type	halInit, %function
  23              	halInit:
  24              	.LFB7:
  25              		.file 1 "../../os/hal/src/hal.c"
  26              		.loc 1 61 20 view -0
  27              		.cfi_startproc
  28              		@ args = 0, pretend = 0, frame = 0
  29              		@ frame_needed = 0, uses_anonymous_args = 0
  30              		.loc 1 63 3 view .LVU1
  31              		.loc 1 61 20 is_stmt 0 view .LVU2
  32 0000 10402DE9 		push	{r4, lr}
  33              		.cfi_def_cfa_offset 8
  34              		.cfi_offset 4, -8
  35              		.cfi_offset 14, -4
  36              		.loc 1 63 3 view .LVU3
  37 0004 FEFFFFEB 		bl	hal_lld_init
  38              	.LVL0:
  39              		.loc 1 66 3 is_stmt 1 view .LVU4
  40 0008 FEFFFFEB 		bl	tmInit
  41              	.LVL1:
  42              		.loc 1 69 3 view .LVU5
  43 000c 14009FE5 		ldr	r0, .L4
  44 0010 FEFFFFEB 		bl	_pal_lld_init
  45              	.LVL2:
  46              		.loc 1 69 31 view .LVU6
  47              		.loc 1 84 3 view .LVU7
  48 0014 FEFFFFEB 		bl	i2cInit
  49              	.LVL3:
  50              		.loc 1 96 3 view .LVU8
  51 0018 FEFFFFEB 		bl	sdInit
  52              	.LVL4:
  53              		.loc 1 102 3 view .LVU9
  54 001c FEFFFFEB 		bl	spiInit
  55              	.LVL5:
  56              		.loc 1 120 3 view .LVU10
  57              		.loc 1 121 1 is_stmt 0 view .LVU11
ARM GAS  /var/folders/l5/0x54b2c10074c8bt31ycjvl80000gp/T//ccIPedt8.s 			page 2


  58 0020 1040BDE8 		pop	{r4, lr}
  59              		.cfi_restore 14
  60              		.cfi_restore 4
  61              		.cfi_def_cfa_offset 0
  62              		.loc 1 120 3 view .LVU12
  63 0024 FEFFFFEA 		b	boardInit
  64              	.LVL6:
  65              	.L5:
  66              		.align	2
  67              	.L4:
  68 0028 00000000 		.word	pal_default_config
  69              		.cfi_endproc
  70              	.LFE7:
  71              		.size	halInit, .-halInit
  72              		.section	.text.halIsCounterWithin,"ax",%progbits
  73              		.align	2
  74              		.global	halIsCounterWithin
  75              		.syntax unified
  76              		.arm
  77              		.fpu softvfp
  78              		.type	halIsCounterWithin, %function
  79              	halIsCounterWithin:
  80              	.LVL7:
  81              	.LFB8:
  82              		.loc 1 167 61 is_stmt 1 view -0
  83              		.cfi_startproc
  84              		@ args = 0, pretend = 0, frame = 0
  85              		@ frame_needed = 0, uses_anonymous_args = 0
  86              		@ link register save eliminated.
  87              		.loc 1 168 3 view .LVU14
  88              		.loc 1 168 14 is_stmt 0 view .LVU15
  89 0000 3C309FE5 		ldr	r3, .L9
  90              		.loc 1 170 54 view .LVU16
  91 0004 000051E1 		cmp	r1, r0
  92              		.loc 1 168 14 view .LVU17
  93 0008 043093E5 		ldr	r3, [r3, #4]
  94              	.LVL8:
  95              		.loc 1 170 3 is_stmt 1 view .LVU18
  96              		.loc 1 170 54 is_stmt 0 view .LVU19
  97 000c 0500009A 		bls	.L7
  98              		.loc 1 170 54 discriminator 1 view .LVU20
  99 0010 000053E1 		cmp	r3, r0
 100 0014 0100A023 		movcs	r0, #1
 101              	.LVL9:
 102              		.loc 1 170 54 discriminator 1 view .LVU21
 103 0018 0000A033 		movcc	r0, #0
 104 001c 010053E1 		cmp	r3, r1
 105 0020 0000A023 		movcs	r0, #0
 106 0024 1EFF2FE1 		bx	lr
 107              	.LVL10:
 108              	.L7:
 109              		.loc 1 171 47 discriminator 2 view .LVU22
 110 0028 010053E1 		cmp	r3, r1
 111 002c 0010A023 		movcs	r1, #0
 112              	.LVL11:
 113              		.loc 1 171 47 discriminator 2 view .LVU23
 114 0030 0110A033 		movcc	r1, #1
ARM GAS  /var/folders/l5/0x54b2c10074c8bt31ycjvl80000gp/T//ccIPedt8.s 			page 3


 115              		.loc 1 170 54 discriminator 2 view .LVU24
 116 0034 000053E1 		cmp	r3, r0
 117 0038 0100A031 		movcc	r0, r1
 118 003c 01008123 		orrcs	r0, r1, #1
 119              	.LVL12:
 120              		.loc 1 172 1 discriminator 2 view .LVU25
 121 0040 1EFF2FE1 		bx	lr
 122              	.L10:
 123              		.align	2
 124              	.L9:
 125 0044 00300020 		.word	536883200
 126              		.cfi_endproc
 127              	.LFE8:
 128              		.size	halIsCounterWithin, .-halIsCounterWithin
 129              		.section	.text.halPolledDelay,"ax",%progbits
 130              		.align	2
 131              		.global	halPolledDelay
 132              		.syntax unified
 133              		.arm
 134              		.fpu softvfp
 135              		.type	halPolledDelay, %function
 136              	halPolledDelay:
 137              	.LVL13:
 138              	.LFB9:
 139              		.loc 1 186 39 is_stmt 1 view -0
 140              		.cfi_startproc
 141              		@ args = 0, pretend = 0, frame = 0
 142              		@ frame_needed = 0, uses_anonymous_args = 0
 143              		@ link register save eliminated.
 144              		.loc 1 187 3 view .LVU27
 145              		.loc 1 187 14 is_stmt 0 view .LVU28
 146 0000 54309FE5 		ldr	r3, .L18
 147 0004 041093E5 		ldr	r1, [r3, #4]
 148              	.LVL14:
 149              		.loc 1 188 3 is_stmt 1 view .LVU29
 150              	.LBB4:
 151              	.LBB5:
 152              		.loc 1 168 14 is_stmt 0 view .LVU30
 153 0008 03C0A0E1 		mov	ip, r3
 154              	.LBE5:
 155              	.LBE4:
 156              		.loc 1 188 14 view .LVU31
 157 000c 000081E0 		add	r0, r1, r0
 158              	.LVL15:
 159              		.loc 1 189 3 is_stmt 1 view .LVU32
 160              		.loc 1 189 9 is_stmt 0 view .LVU33
 161 0010 060000EA 		b	.L14
 162              	.LVL16:
 163              	.L17:
 164              	.LBB8:
 165              	.LBB6:
 166              		.loc 1 170 54 view .LVU34
 167 0014 020051E1 		cmp	r1, r2
 168 0018 0130A093 		movls	r3, #1
 169 001c 0030A083 		movhi	r3, #0
 170 0020 020050E1 		cmp	r0, r2
 171 0024 0030A093 		movls	r3, #0
ARM GAS  /var/folders/l5/0x54b2c10074c8bt31ycjvl80000gp/T//ccIPedt8.s 			page 4


 172              	.LVL17:
 173              		.loc 1 170 54 view .LVU35
 174              	.LBE6:
 175              	.LBE8:
 176              		.loc 1 189 9 view .LVU36
 177 0028 000053E3 		cmp	r3, #0
 178 002c 1EFF2F01 		bxeq	lr
 179              	.L14:
 180              		.loc 1 190 5 is_stmt 1 discriminator 1 view .LVU37
 181              	.LVL18:
 182              	.LBB9:
 183              	.LBI4:
 184              		.loc 1 167 8 discriminator 1 view .LVU38
 185              	.LBB7:
 186              		.loc 1 168 3 discriminator 1 view .LVU39
 187              		.loc 1 170 54 is_stmt 0 discriminator 1 view .LVU40
 188 0030 000051E1 		cmp	r1, r0
 189              		.loc 1 168 14 discriminator 1 view .LVU41
 190 0034 04209CE5 		ldr	r2, [ip, #4]
 191              	.LVL19:
 192              		.loc 1 170 3 is_stmt 1 discriminator 1 view .LVU42
 193              		.loc 1 170 54 is_stmt 0 discriminator 1 view .LVU43
 194 0038 F5FFFF3A 		bcc	.L17
 195              		.loc 1 171 47 view .LVU44
 196 003c 020050E1 		cmp	r0, r2
 197 0040 0030A093 		movls	r3, #0
 198 0044 0130A083 		movhi	r3, #1
 199              		.loc 1 170 54 view .LVU45
 200 0048 020051E1 		cmp	r1, r2
 201 004c 01308393 		orrls	r3, r3, #1
 202              	.LVL20:
 203              		.loc 1 170 54 view .LVU46
 204              	.LBE7:
 205              	.LBE9:
 206              		.loc 1 189 9 view .LVU47
 207 0050 000053E3 		cmp	r3, #0
 208 0054 F5FFFF1A 		bne	.L14
 209 0058 1EFF2FE1 		bx	lr
 210              	.L19:
 211              		.align	2
 212              	.L18:
 213 005c 00300020 		.word	536883200
 214              		.cfi_endproc
 215              	.LFE9:
 216              		.size	halPolledDelay, .-halPolledDelay
 217              		.text
 218              	.Letext0:
 219              		.file 2 "/usr/local/Cellar/arm-gcc-bin/8-2019-q3-update/lib/gcc/arm-none-eabi/8.3.1/include/stddef
 220              		.file 3 "/usr/local/Cellar/arm-gcc-bin/8-2019-q3-update/arm-none-eabi/include/machine/_default_typ
 221              		.file 4 "/usr/local/Cellar/arm-gcc-bin/8-2019-q3-update/arm-none-eabi/include/sys/_stdint.h"
 222              		.file 5 "../../os/ports/GCC/ARM/chtypes.h"
 223              		.file 6 "../../os/kernel/include/chlists.h"
 224              		.file 7 "../../os/kernel/include/chthreads.h"
 225              		.file 8 "../../os/ports/GCC/ARM/chcore.h"
 226              		.file 9 "../../os/kernel/include/chvt.h"
 227              		.file 10 "../../os/kernel/include/chschd.h"
 228              		.file 11 "../../os/kernel/include/chmtx.h"
ARM GAS  /var/folders/l5/0x54b2c10074c8bt31ycjvl80000gp/T//ccIPedt8.s 			page 5


 229              		.file 12 "../../os/kernel/include/chevents.h"
 230              		.file 13 "../../os/kernel/include/chregistry.h"
 231              		.file 14 "../../os/kernel/include/chqueues.h"
 232              		.file 15 "../../os/kernel/include/ch.h"
 233              		.file 16 "../../os/hal/platforms/BCM2835/bcm2835.h"
 234              		.file 17 "../../os/hal/platforms/BCM2835/hal_lld.h"
 235              		.file 18 "../../os/hal/platforms/BCM2835/pal_lld.h"
 236              		.file 19 "../../os/hal/include/i2c.h"
 237              		.file 20 "../../os/hal/platforms/BCM2835/i2c_lld.h"
 238              		.file 21 "../../os/hal/include/serial.h"
 239              		.file 22 "../../os/hal/include/spi.h"
 240              		.file 23 "../../os/hal/platforms/BCM2835/spi_lld.h"
 241              		.file 24 "../../os/hal/include/tm.h"
 242              		.file 25 "../../boards/RASPBERRYPI_MODB/board.h"
 243              		.file 26 "../../os/hal/platforms/BCM2835/serial_lld.h"