ARM GAS  /var/folders/l5/0x54b2c10074c8bt31ycjvl80000gp/T//ccVzXO7i.s 			page 1


   1              		.cpu arm1176jz-s
   2              		.eabi_attribute 20, 1
   3              		.eabi_attribute 21, 1
   4              		.eabi_attribute 23, 3
   5              		.eabi_attribute 24, 1
   6              		.eabi_attribute 25, 1
   7              		.eabi_attribute 26, 1
   8              		.eabi_attribute 30, 2
   9              		.eabi_attribute 34, 1
  10              		.eabi_attribute 18, 4
  11              		.file	"main.c"
  12              		.text
  13              	.Ltext0:
  14              		.cfi_sections	.debug_frame
  15              		.section	.text.Thread_LED2,"ax",%progbits
  16              		.align	2
  17              		.arch armv6kz
  18              		.syntax unified
  19              		.arm
  20              		.fpu softvfp
  21              		.type	Thread_LED2, %function
  22              	Thread_LED2:
  23              	.LVL0:
  24              	.LFB8:
  25              		.file 1 "main.c"
  26              		.loc 1 41 35 view -0
  27              		.cfi_startproc
  28              		@ args = 0, pretend = 0, frame = 0
  29              		@ frame_needed = 0, uses_anonymous_args = 0
  30              		.loc 1 42 3 view .LVU1
  31              		.loc 1 43 3 view .LVU2
  32              		.loc 1 41 35 is_stmt 0 view .LVU3
  33 0000 F0412DE9 		push	{r4, r5, r6, r7, r8, lr}
  34              		.cfi_def_cfa_offset 24
  35              		.cfi_offset 4, -24
  36              		.cfi_offset 5, -20
  37              		.cfi_offset 6, -16
  38              		.cfi_offset 7, -12
  39              		.cfi_offset 8, -8
  40              		.cfi_offset 14, -4
  41 0004 64809FE5 		ldr	r8, .L9
  42              		.loc 1 43 3 view .LVU4
  43 0008 64309FE5 		ldr	r3, .L9+4
  44              		.loc 1 46 5 view .LVU5
  45 000c 0860A0E1 		mov	r6, r8
  46              		.loc 1 43 3 view .LVU6
  47 0010 183093E5 		ldr	r3, [r3, #24]
  48 0014 5C209FE5 		ldr	r2, .L9+8
  49 0018 5C409FE5 		ldr	r4, .L9+12
  50              		.loc 1 48 11 view .LVU7
  51 001c 5C509FE5 		ldr	r5, .L9+16
  52              		.loc 1 43 3 view .LVU8
  53 0020 182083E5 		str	r2, [r3, #24]
  54              	.LVL1:
  55              	.L4:
  56              		.loc 1 44 3 is_stmt 1 view .LVU9
  57              		.loc 1 45 3 view .LVU10
ARM GAS  /var/folders/l5/0x54b2c10074c8bt31ycjvl80000gp/T//ccVzXO7i.s 			page 2


  58              		.loc 1 46 5 view .LVU11
  59 0024 001098E5 		ldr	r1, [r8]
  60 0028 0600A0E1 		mov	r0, r6
  61 002c 0117C1E3 		bic	r1, r1, #262144
  62 0030 FEFFFFEB 		bl	_pal_lld_writeport
  63              	.LVL2:
  64              		.loc 1 47 5 view .LVU12
  65              		.loc 1 47 11 is_stmt 0 view .LVU13
  66 0034 0C2094E5 		ldr	r2, [r4, #12]
  67              	.LVL3:
  68              		.loc 1 48 5 is_stmt 1 view .LVU14
  69              	.L2:
  70              		.loc 1 48 34 discriminator 1 view .LVU15
  71              		.loc 1 48 12 is_stmt 0 discriminator 1 view .LVU16
  72 0038 0C3094E5 		ldr	r3, [r4, #12]
  73              		.loc 1 48 23 discriminator 1 view .LVU17
  74 003c 023043E0 		sub	r3, r3, r2
  75              		.loc 1 48 11 discriminator 1 view .LVU18
  76 0040 050053E1 		cmp	r3, r5
  77 0044 FBFFFF9A 		bls	.L2
  78              		.loc 1 49 5 is_stmt 1 view .LVU19
  79              		.loc 1 50 5 is_stmt 0 view .LVU20
  80 0048 001098E5 		ldr	r1, [r8]
  81 004c 0600A0E1 		mov	r0, r6
  82 0050 011781E3 		orr	r1, r1, #262144
  83              		.loc 1 49 11 view .LVU21
  84 0054 0C7094E5 		ldr	r7, [r4, #12]
  85              	.LVL4:
  86              		.loc 1 50 5 is_stmt 1 view .LVU22
  87 0058 FEFFFFEB 		bl	_pal_lld_writeport
  88              	.LVL5:
  89              		.loc 1 51 5 view .LVU23
  90              	.L3:
  91              		.loc 1 51 34 discriminator 1 view .LVU24
  92              		.loc 1 51 12 is_stmt 0 discriminator 1 view .LVU25
  93 005c 0C3094E5 		ldr	r3, [r4, #12]
  94              		.loc 1 51 23 discriminator 1 view .LVU26
  95 0060 073043E0 		sub	r3, r3, r7
  96              		.loc 1 51 11 discriminator 1 view .LVU27
  97 0064 050053E1 		cmp	r3, r5
  98 0068 FBFFFF9A 		bls	.L3
  99 006c ECFFFFEA 		b	.L4
 100              	.L10:
 101              		.align	2
 102              	.L9:
 103 0070 00000000 		.word	IOPORT0
 104 0074 00000000 		.word	rlist
 105 0078 00000000 		.word	.LC0
 106 007c 00000000 		.word	vtlist
 107 0080 F3010000 		.word	499
 108              		.cfi_endproc
 109              	.LFE8:
 110              		.size	Thread_LED2, .-Thread_LED2
 111              		.section	.text.Thread_LED1,"ax",%progbits
 112              		.align	2
 113              		.syntax unified
 114              		.arm
ARM GAS  /var/folders/l5/0x54b2c10074c8bt31ycjvl80000gp/T//ccVzXO7i.s 			page 3


 115              		.fpu softvfp
 116              		.type	Thread_LED1, %function
 117              	Thread_LED1:
 118              	.LVL6:
 119              	.LFB7:
 120              		.loc 1 26 35 is_stmt 1 view -0
 121              		.cfi_startproc
 122              		@ Volatile: function does not return.
 123              		@ args = 0, pretend = 0, frame = 0
 124              		@ frame_needed = 0, uses_anonymous_args = 0
 125              		.loc 1 27 3 view .LVU29
 126              		.loc 1 28 3 view .LVU30
 127              		.loc 1 26 35 is_stmt 0 view .LVU31
 128 0000 10402DE9 		push	{r4, lr}
 129              		.cfi_def_cfa_offset 8
 130              		.cfi_offset 4, -8
 131              		.cfi_offset 14, -4
 132 0004 44409FE5 		ldr	r4, .L14
 133              		.loc 1 28 3 view .LVU32
 134 0008 44309FE5 		ldr	r3, .L14+4
 135              		.loc 1 30 5 view .LVU33
 136 000c 0450A0E1 		mov	r5, r4
 137              		.loc 1 28 3 view .LVU34
 138 0010 183093E5 		ldr	r3, [r3, #24]
 139 0014 3C209FE5 		ldr	r2, .L14+8
 140 0018 182083E5 		str	r2, [r3, #24]
 141              	.LVL7:
 142              	.L12:
 143              		.loc 1 29 3 is_stmt 1 discriminator 1 view .LVU35
 144              		.loc 1 30 5 discriminator 1 view .LVU36
 145 001c 001094E5 		ldr	r1, [r4]
 146 0020 0500A0E1 		mov	r0, r5
 147 0024 0214C1E3 		bic	r1, r1, #33554432
 148 0028 FEFFFFEB 		bl	_pal_lld_writeport
 149              	.LVL8:
 150              		.loc 1 31 5 discriminator 1 view .LVU37
 151 002c 6400A0E3 		mov	r0, #100
 152 0030 FEFFFFEB 		bl	chThdSleep
 153              	.LVL9:
 154              		.loc 1 32 5 discriminator 1 view .LVU38
 155 0034 001094E5 		ldr	r1, [r4]
 156 0038 0500A0E1 		mov	r0, r5
 157 003c 021481E3 		orr	r1, r1, #33554432
 158 0040 FEFFFFEB 		bl	_pal_lld_writeport
 159              	.LVL10:
 160              		.loc 1 33 5 discriminator 1 view .LVU39
 161 0044 E10FA0E3 		mov	r0, #900
 162 0048 FEFFFFEB 		bl	chThdSleep
 163              	.LVL11:
 164 004c F2FFFFEA 		b	.L12
 165              	.L15:
 166              		.align	2
 167              	.L14:
 168 0050 00000000 		.word	IOPORT0
 169 0054 00000000 		.word	rlist
 170 0058 00000000 		.word	.LC1
 171              		.cfi_endproc
ARM GAS  /var/folders/l5/0x54b2c10074c8bt31ycjvl80000gp/T//ccVzXO7i.s 			page 4


 172              	.LFE7:
 173              		.size	Thread_LED1, .-Thread_LED1
 174              		.section	.text.startup.main,"ax",%progbits
 175              		.align	2
 176              		.global	main
 177              		.syntax unified
 178              		.arm
 179              		.fpu softvfp
 180              		.type	main, %function
 181              	main:
 182              	.LFB9:
 183              		.loc 1 59 16 view -0
 184              		.cfi_startproc
 185              		@ args = 0, pretend = 0, frame = 0
 186              		@ frame_needed = 0, uses_anonymous_args = 0
 187              		.loc 1 60 3 view .LVU41
 188              		.loc 1 59 16 is_stmt 0 view .LVU42
 189 0000 30402DE9 		push	{r4, r5, lr}
 190              		.cfi_def_cfa_offset 12
 191              		.cfi_offset 4, -12
 192              		.cfi_offset 5, -8
 193              		.cfi_offset 14, -4
 194              		.loc 1 66 3 view .LVU43
 195 0004 0040A0E3 		mov	r4, #0
 196              		.loc 1 63 3 view .LVU44
 197 0008 70509FE5 		ldr	r5, .L18
 198              		.loc 1 59 16 view .LVU45
 199 000c 0CD04DE2 		sub	sp, sp, #12
 200              		.cfi_def_cfa_offset 24
 201              		.loc 1 60 3 view .LVU46
 202 0010 FEFFFFEB 		bl	halInit
 203              	.LVL12:
 204              		.loc 1 61 3 is_stmt 1 view .LVU47
 205 0014 FEFFFFEB 		bl	chSysInit
 206              	.LVL13:
 207              		.loc 1 63 3 view .LVU48
 208 0018 0500A0E1 		mov	r0, r5
 209 001c FF20A0E3 		mov	r2, #255
 210 0020 0214A0E3 		mov	r1, #33554432
 211 0024 FEFFFFEB 		bl	_pal_lld_setgroupmode
 212              	.LVL14:
 213              		.loc 1 64 3 view .LVU49
 214 0028 0500A0E1 		mov	r0, r5
 215 002c FF20A0E3 		mov	r2, #255
 216 0030 0117A0E3 		mov	r1, #262144
 217 0034 FEFFFFEB 		bl	_pal_lld_setgroupmode
 218              	.LVL15:
 219              		.loc 1 66 3 view .LVU50
 220 0038 00408DE5 		str	r4, [sp]
 221 003c 40309FE5 		ldr	r3, .L18+4
 222 0040 7F20A0E3 		mov	r2, #127
 223 0044 461FA0E3 		mov	r1, #280
 224 0048 38009FE5 		ldr	r0, .L18+8
 225 004c FEFFFFEB 		bl	chThdCreateStatic
 226              	.LVL16:
 227              		.loc 1 67 3 view .LVU51
 228 0050 4020A0E3 		mov	r2, #64
ARM GAS  /var/folders/l5/0x54b2c10074c8bt31ycjvl80000gp/T//ccVzXO7i.s 			page 5


 229 0054 461FA0E3 		mov	r1, #280
 230 0058 00408DE5 		str	r4, [sp]
 231 005c 28309FE5 		ldr	r3, .L18+12
 232 0060 28009FE5 		ldr	r0, .L18+16
 233 0064 FEFFFFEB 		bl	chThdCreateStatic
 234              	.LVL17:
 235              		.loc 1 70 3 view .LVU52
 236 0068 24309FE5 		ldr	r3, .L18+20
 237 006c 180093E5 		ldr	r0, [r3, #24]
 238 0070 FEFFFFEB 		bl	chThdWait
 239              	.LVL18:
 240              		.loc 1 72 3 view .LVU53
 241              		.loc 1 73 1 is_stmt 0 view .LVU54
 242 0074 0400A0E1 		mov	r0, r4
 243 0078 0CD08DE2 		add	sp, sp, #12
 244              		.cfi_def_cfa_offset 12
 245              		@ sp needed
 246 007c 3080BDE8 		pop	{r4, r5, pc}
 247              	.L19:
 248              		.align	2
 249              	.L18:
 250 0080 00000000 		.word	IOPORT0
 251 0084 00000000 		.word	Thread_LED1
 252 0088 00000000 		.word	.LANCHOR0
 253 008c 00000000 		.word	Thread_LED2
 254 0090 00000000 		.word	.LANCHOR1
 255 0094 00000000 		.word	rlist
 256              		.cfi_endproc
 257              	.LFE9:
 258              		.size	main, .-main
 259              		.section	.bss.waThread_LED1,"aw",%nobits
 260              		.align	2
 261              		.set	.LANCHOR0,. + 0
 262              		.type	waThread_LED1, %object
 263              		.size	waThread_LED1, 280
 264              	waThread_LED1:
 265 0000 00000000 		.space	280
 265      00000000 
 265      00000000 
 265      00000000 
 265      00000000 
 266              		.section	.bss.waThread_LED2,"aw",%nobits
 267              		.align	2
 268              		.set	.LANCHOR1,. + 0
 269              		.type	waThread_LED2, %object
 270              		.size	waThread_LED2, 280
 271              	waThread_LED2:
 272 0000 00000000 		.space	280
 272      00000000 
 272      00000000 
 272      00000000 
 272      00000000 
 273              		.section	.rodata.Thread_LED1.str1.4,"aMS",%progbits,1
 274              		.align	2
 275              	.LC1:
 276 0000 626C696E 		.ascii	"blinker-1\000"
 276      6B65722D 
ARM GAS  /var/folders/l5/0x54b2c10074c8bt31ycjvl80000gp/T//ccVzXO7i.s 			page 6


 276      3100
 277              		.section	.rodata.Thread_LED2.str1.4,"aMS",%progbits,1
 278              		.align	2
 279              	.LC0:
 280 0000 626C696E 		.ascii	"blinker-2\000"
 280      6B65722D 
 280      3200
 281              		.text
 282              	.Letext0:
 283              		.file 2 "/usr/local/Cellar/arm-gcc-bin/8-2019-q3-update/lib/gcc/arm-none-eabi/8.3.1/include/stddef
 284              		.file 3 "/usr/local/Cellar/arm-gcc-bin/8-2019-q3-update/arm-none-eabi/include/machine/_default_typ
 285              		.file 4 "/usr/local/Cellar/arm-gcc-bin/8-2019-q3-update/arm-none-eabi/include/sys/_stdint.h"
 286              		.file 5 "../../os/ports/GCC/ARM/chtypes.h"
 287              		.file 6 "../../os/kernel/include/chlists.h"
 288              		.file 7 "../../os/kernel/include/chthreads.h"
 289              		.file 8 "../../os/ports/GCC/ARM/chcore.h"
 290              		.file 9 "../../os/kernel/include/chvt.h"
 291              		.file 10 "../../os/kernel/include/chschd.h"
 292              		.file 11 "../../os/kernel/include/chmtx.h"
 293              		.file 12 "../../os/kernel/include/chevents.h"
 294              		.file 13 "../../os/kernel/include/chregistry.h"
 295              		.file 14 "../../os/kernel/include/chqueues.h"
 296              		.file 15 "../../os/kernel/include/ch.h"
 297              		.file 16 "../../os/hal/platforms/BCM2835/bcm2835.h"
 298              		.file 17 "../../os/hal/platforms/BCM2835/pal_lld.h"
 299              		.file 18 "../../os/hal/include/i2c.h"
 300              		.file 19 "../../os/hal/platforms/BCM2835/i2c_lld.h"
 301              		.file 20 "../../os/hal/include/serial.h"
 302              		.file 21 "../../os/hal/include/spi.h"
 303              		.file 22 "../../os/hal/platforms/BCM2835/spi_lld.h"
 304              		.file 23 "../../os/hal/include/hal.h"
 305              		.file 24 "../../os/kernel/include/chsys.h"
 306              		.file 25 "../../os/hal/platforms/BCM2835/serial_lld.h"
 307              		.section	.debug_info,"",%progbits
 308              	.Ldebug_info0:
 309 0000 55100000 		.4byte	0x1055
 310 0004 0400     		.2byte	0x4
 311 0006 00000000 		.4byte	.Ldebug_abbrev0
 312 000a 04       		.byte	0x4
 313 000b 01       		.uleb128 0x1
 314 000c 62030000 		.4byte	.LASF213
 315 0010 0C       		.byte	0xc
 316 0011 32040000 		.4byte	.LASF214
 317 0015 2D050000 		.4byte	.LASF215
 318 0019 00000000 		.4byte	.Ldebug_ranges0+0
 319 001d 00000000 		.4byte	0
 320 0021 00000000 		.4byte	.Ldebug_line0
 321 0025 02       		.uleb128 0x2
 322 0026 04       		.byte	0x4
 323 0027 05       		.byte	0x5
 324 0028 696E7400 		.ascii	"int\000"
 325 002c 03       		.uleb128 0x3
 326 002d 13000000 		.4byte	.LASF2
 327 0031 02       		.byte	0x2
 328 0032 D8       		.byte	0xd8
 329 0033 17       		.byte	0x17
 330 0034 38000000 		.4byte	0x38
ARM GAS  /var/folders/l5/0x54b2c10074c8bt31ycjvl80000gp/T//ccVzXO7i.s 			page 7


 331 0038 04       		.uleb128 0x4
 332 0039 04       		.byte	0x4
 333 003a 07       		.byte	0x7
 334 003b 8D020000 		.4byte	.LASF0
 335 003f 05       		.uleb128 0x5
 336 0040 38000000 		.4byte	0x38
 337 0044 04       		.uleb128 0x4
 338 0045 01       		.byte	0x1
 339 0046 06       		.byte	0x6
 340 0047 0E010000 		.4byte	.LASF1
 341 004b 03       		.uleb128 0x3
 342 004c 3F000000 		.4byte	.LASF3
 343 0050 03       		.byte	0x3
 344 0051 2B       		.byte	0x2b
 345 0052 18       		.byte	0x18
 346 0053 57000000 		.4byte	0x57
 347 0057 04       		.uleb128 0x4
 348 0058 01       		.byte	0x1
 349 0059 08       		.byte	0x8
 350 005a 40060000 		.4byte	.LASF4
 351 005e 04       		.uleb128 0x4
 352 005f 02       		.byte	0x2
 353 0060 05       		.byte	0x5
 354 0061 6D060000 		.4byte	.LASF5
 355 0065 03       		.uleb128 0x3
 356 0066 7F070000 		.4byte	.LASF6
 357 006a 03       		.byte	0x3
 358 006b 39       		.byte	0x39
 359 006c 19       		.byte	0x19
 360 006d 71000000 		.4byte	0x71
 361 0071 04       		.uleb128 0x4
 362 0072 02       		.byte	0x2
 363 0073 07       		.byte	0x7
 364 0074 20030000 		.4byte	.LASF7
 365 0078 03       		.uleb128 0x3
 366 0079 B1070000 		.4byte	.LASF8
 367 007d 03       		.byte	0x3
 368 007e 4D       		.byte	0x4d
 369 007f 18       		.byte	0x18
 370 0080 84000000 		.4byte	0x84
 371 0084 04       		.uleb128 0x4
 372 0085 04       		.byte	0x4
 373 0086 05       		.byte	0x5
 374 0087 7A010000 		.4byte	.LASF9
 375 008b 03       		.uleb128 0x3
 376 008c 45020000 		.4byte	.LASF10
 377 0090 03       		.byte	0x3
 378 0091 4F       		.byte	0x4f
 379 0092 19       		.byte	0x19
 380 0093 97000000 		.4byte	0x97
 381 0097 04       		.uleb128 0x4
 382 0098 04       		.byte	0x4
 383 0099 07       		.byte	0x7
 384 009a C6020000 		.4byte	.LASF11
 385 009e 04       		.uleb128 0x4
 386 009f 08       		.byte	0x8
 387 00a0 05       		.byte	0x5
ARM GAS  /var/folders/l5/0x54b2c10074c8bt31ycjvl80000gp/T//ccVzXO7i.s 			page 8


 388 00a1 00010000 		.4byte	.LASF12
 389 00a5 04       		.uleb128 0x4
 390 00a6 08       		.byte	0x8
 391 00a7 07       		.byte	0x7
 392 00a8 86000000 		.4byte	.LASF13
 393 00ac 03       		.uleb128 0x3
 394 00ad 94080000 		.4byte	.LASF14
 395 00b1 04       		.byte	0x4
 396 00b2 18       		.byte	0x18
 397 00b3 13       		.byte	0x13
 398 00b4 4B000000 		.4byte	0x4b
 399 00b8 06       		.uleb128 0x6
 400 00b9 AC000000 		.4byte	0xac
 401 00bd 03       		.uleb128 0x3
 402 00be BA010000 		.4byte	.LASF15
 403 00c2 04       		.byte	0x4
 404 00c3 24       		.byte	0x24
 405 00c4 14       		.byte	0x14
 406 00c5 65000000 		.4byte	0x65
 407 00c9 03       		.uleb128 0x3
 408 00ca 38060000 		.4byte	.LASF16
 409 00ce 04       		.byte	0x4
 410 00cf 2C       		.byte	0x2c
 411 00d0 13       		.byte	0x13
 412 00d1 78000000 		.4byte	0x78
 413 00d5 03       		.uleb128 0x3
 414 00d6 1C070000 		.4byte	.LASF17
 415 00da 04       		.byte	0x4
 416 00db 30       		.byte	0x30
 417 00dc 14       		.byte	0x14
 418 00dd 8B000000 		.4byte	0x8b
 419 00e1 05       		.uleb128 0x5
 420 00e2 D5000000 		.4byte	0xd5
 421 00e6 03       		.uleb128 0x3
 422 00e7 4A040000 		.4byte	.LASF18
 423 00eb 05       		.byte	0x5
 424 00ec 2A       		.byte	0x2a
 425 00ed 19       		.byte	0x19
 426 00ee AC000000 		.4byte	0xac
 427 00f2 03       		.uleb128 0x3
 428 00f3 83010000 		.4byte	.LASF19
 429 00f7 05       		.byte	0x5
 430 00f8 2B       		.byte	0x2b
 431 00f9 19       		.byte	0x19
 432 00fa AC000000 		.4byte	0xac
 433 00fe 03       		.uleb128 0x3
 434 00ff E8050000 		.4byte	.LASF20
 435 0103 05       		.byte	0x5
 436 0104 2C       		.byte	0x2c
 437 0105 19       		.byte	0x19
 438 0106 AC000000 		.4byte	0xac
 439 010a 03       		.uleb128 0x3
 440 010b 55010000 		.4byte	.LASF21
 441 010f 05       		.byte	0x5
 442 0110 2D       		.byte	0x2d
 443 0111 19       		.byte	0x19
 444 0112 AC000000 		.4byte	0xac
ARM GAS  /var/folders/l5/0x54b2c10074c8bt31ycjvl80000gp/T//ccVzXO7i.s 			page 9


 445 0116 03       		.uleb128 0x3
 446 0117 17060000 		.4byte	.LASF22
 447 011b 05       		.byte	0x5
 448 011c 2E       		.byte	0x2e
 449 011d 19       		.byte	0x19
 450 011e D5000000 		.4byte	0xd5
 451 0122 03       		.uleb128 0x3
 452 0123 45030000 		.4byte	.LASF23
 453 0127 05       		.byte	0x5
 454 0128 2F       		.byte	0x2f
 455 0129 19       		.byte	0x19
 456 012a C9000000 		.4byte	0xc9
 457 012e 03       		.uleb128 0x3
 458 012f 71040000 		.4byte	.LASF24
 459 0133 05       		.byte	0x5
 460 0134 31       		.byte	0x31
 461 0135 19       		.byte	0x19
 462 0136 D5000000 		.4byte	0xd5
 463 013a 03       		.uleb128 0x3
 464 013b 3C080000 		.4byte	.LASF25
 465 013f 05       		.byte	0x5
 466 0140 32       		.byte	0x32
 467 0141 19       		.byte	0x19
 468 0142 D5000000 		.4byte	0xd5
 469 0146 03       		.uleb128 0x3
 470 0147 9C070000 		.4byte	.LASF26
 471 014b 05       		.byte	0x5
 472 014c 33       		.byte	0x33
 473 014d 19       		.byte	0x19
 474 014e D5000000 		.4byte	0xd5
 475 0152 05       		.uleb128 0x5
 476 0153 46010000 		.4byte	0x146
 477 0157 03       		.uleb128 0x3
 478 0158 DA060000 		.4byte	.LASF27
 479 015c 06       		.byte	0x6
 480 015d 23       		.byte	0x23
 481 015e 17       		.byte	0x17
 482 015f 63010000 		.4byte	0x163
 483 0163 07       		.uleb128 0x7
 484 0164 DA060000 		.4byte	.LASF27
 485 0168 44       		.byte	0x44
 486 0169 07       		.byte	0x7
 487 016a 57       		.byte	0x57
 488 016b 08       		.byte	0x8
 489 016c 68020000 		.4byte	0x268
 490 0170 08       		.uleb128 0x8
 491 0171 B4060000 		.4byte	.LASF28
 492 0175 07       		.byte	0x7
 493 0176 58       		.byte	0x58
 494 0177 1A       		.byte	0x1a
 495 0178 8C020000 		.4byte	0x28c
 496 017c 00       		.byte	0
 497 017d 08       		.uleb128 0x8
 498 017e 10060000 		.4byte	.LASF29
 499 0182 07       		.byte	0x7
 500 0183 5A       		.byte	0x5a
 501 0184 1A       		.byte	0x1a
ARM GAS  /var/folders/l5/0x54b2c10074c8bt31ycjvl80000gp/T//ccVzXO7i.s 			page 10


 502 0185 8C020000 		.4byte	0x28c
 503 0189 04       		.byte	0x4
 504 018a 08       		.uleb128 0x8
 505 018b D5000000 		.4byte	.LASF30
 506 018f 07       		.byte	0x7
 507 0190 5C       		.byte	0x5c
 508 0191 19       		.byte	0x19
 509 0192 16010000 		.4byte	0x116
 510 0196 08       		.byte	0x8
 511 0197 08       		.uleb128 0x8
 512 0198 38090000 		.4byte	.LASF31
 513 019c 07       		.byte	0x7
 514 019d 5D       		.byte	0x5d
 515 019e 19       		.byte	0x19
 516 019f 57030000 		.4byte	0x357
 517 01a3 0C       		.byte	0xc
 518 01a4 08       		.uleb128 0x8
 519 01a5 EC010000 		.4byte	.LASF32
 520 01a9 07       		.byte	0x7
 521 01aa 5F       		.byte	0x5f
 522 01ab 1A       		.byte	0x1a
 523 01ac 8C020000 		.4byte	0x28c
 524 01b0 10       		.byte	0x10
 525 01b1 08       		.uleb128 0x8
 526 01b2 95060000 		.4byte	.LASF33
 527 01b6 07       		.byte	0x7
 528 01b7 60       		.byte	0x60
 529 01b8 1A       		.byte	0x1a
 530 01b9 8C020000 		.4byte	0x28c
 531 01bd 14       		.byte	0x14
 532 01be 08       		.uleb128 0x8
 533 01bf B7080000 		.4byte	.LASF34
 534 01c3 07       		.byte	0x7
 535 01c4 67       		.byte	0x67
 536 01c5 1A       		.byte	0x1a
 537 01c6 B8050000 		.4byte	0x5b8
 538 01ca 18       		.byte	0x18
 539 01cb 08       		.uleb128 0x8
 540 01cc 77060000 		.4byte	.LASF35
 541 01d0 07       		.byte	0x7
 542 01d1 72       		.byte	0x72
 543 01d2 19       		.byte	0x19
 544 01d3 F2000000 		.4byte	0xf2
 545 01d7 1C       		.byte	0x1c
 546 01d8 08       		.uleb128 0x8
 547 01d9 D2060000 		.4byte	.LASF36
 548 01dd 07       		.byte	0x7
 549 01de 76       		.byte	0x76
 550 01df 19       		.byte	0x19
 551 01e0 E6000000 		.4byte	0xe6
 552 01e4 1D       		.byte	0x1d
 553 01e5 08       		.uleb128 0x8
 554 01e6 6D080000 		.4byte	.LASF37
 555 01ea 07       		.byte	0x7
 556 01eb 7B       		.byte	0x7b
 557 01ec 19       		.byte	0x19
 558 01ed FE000000 		.4byte	0xfe
ARM GAS  /var/folders/l5/0x54b2c10074c8bt31ycjvl80000gp/T//ccVzXO7i.s 			page 11


 559 01f1 1E       		.byte	0x1e
 560 01f2 08       		.uleb128 0x8
 561 01f3 7F060000 		.4byte	.LASF38
 562 01f7 07       		.byte	0x7
 563 01f8 81       		.byte	0x81
 564 01f9 19       		.byte	0x19
 565 01fa 0A010000 		.4byte	0x10a
 566 01fe 1F       		.byte	0x1f
 567 01ff 08       		.uleb128 0x8
 568 0200 CF070000 		.4byte	.LASF39
 569 0204 07       		.byte	0x7
 570 0205 88       		.byte	0x88
 571 0206 19       		.byte	0x19
 572 0207 52010000 		.4byte	0x152
 573 020b 20       		.byte	0x20
 574 020c 09       		.uleb128 0x9
 575 020d 705F7500 		.ascii	"p_u\000"
 576 0211 07       		.byte	0x7
 577 0212 AD       		.byte	0xad
 578 0213 19       		.byte	0x19
 579 0214 7E050000 		.4byte	0x57e
 580 0218 24       		.byte	0x24
 581 0219 08       		.uleb128 0x8
 582 021a 3E090000 		.4byte	.LASF40
 583 021e 07       		.byte	0x7
 584 021f B2       		.byte	0xb2
 585 0220 19       		.byte	0x19
 586 0221 B5020000 		.4byte	0x2b5
 587 0225 28       		.byte	0x28
 588 0226 08       		.uleb128 0x8
 589 0227 02080000 		.4byte	.LASF41
 590 022b 07       		.byte	0x7
 591 022c B8       		.byte	0xb8
 592 022d 19       		.byte	0x19
 593 022e 92020000 		.4byte	0x292
 594 0232 2C       		.byte	0x2c
 595 0233 08       		.uleb128 0x8
 596 0234 0D000000 		.4byte	.LASF42
 597 0238 07       		.byte	0x7
 598 0239 BC       		.byte	0xbc
 599 023a 19       		.byte	0x19
 600 023b 22010000 		.4byte	0x122
 601 023f 34       		.byte	0x34
 602 0240 08       		.uleb128 0x8
 603 0241 07070000 		.4byte	.LASF43
 604 0245 07       		.byte	0x7
 605 0246 C2       		.byte	0xc2
 606 0247 19       		.byte	0x19
 607 0248 2E010000 		.4byte	0x12e
 608 024c 38       		.byte	0x38
 609 024d 08       		.uleb128 0x8
 610 024e 63060000 		.4byte	.LASF44
 611 0252 07       		.byte	0x7
 612 0253 C9       		.byte	0xc9
 613 0254 1A       		.byte	0x1a
 614 0255 CA050000 		.4byte	0x5ca
 615 0259 3C       		.byte	0x3c
ARM GAS  /var/folders/l5/0x54b2c10074c8bt31ycjvl80000gp/T//ccVzXO7i.s 			page 12


 616 025a 08       		.uleb128 0x8
 617 025b A6070000 		.4byte	.LASF45
 618 025f 07       		.byte	0x7
 619 0260 CD       		.byte	0xcd
 620 0261 19       		.byte	0x19
 621 0262 16010000 		.4byte	0x116
 622 0266 40       		.byte	0x40
 623 0267 00       		.byte	0
 624 0268 0A       		.uleb128 0xa
 625 0269 08       		.byte	0x8
 626 026a 06       		.byte	0x6
 627 026b 5A       		.byte	0x5a
 628 026c 09       		.byte	0x9
 629 026d 8C020000 		.4byte	0x28c
 630 0271 08       		.uleb128 0x8
 631 0272 B4060000 		.4byte	.LASF28
 632 0276 06       		.byte	0x6
 633 0277 5B       		.byte	0x5b
 634 0278 1A       		.byte	0x1a
 635 0279 8C020000 		.4byte	0x28c
 636 027d 00       		.byte	0
 637 027e 08       		.uleb128 0x8
 638 027f 10060000 		.4byte	.LASF29
 639 0283 06       		.byte	0x6
 640 0284 5D       		.byte	0x5d
 641 0285 1A       		.byte	0x1a
 642 0286 8C020000 		.4byte	0x28c
 643 028a 04       		.byte	0x4
 644 028b 00       		.byte	0
 645 028c 0B       		.uleb128 0xb
 646 028d 04       		.byte	0x4
 647 028e 57010000 		.4byte	0x157
 648 0292 03       		.uleb128 0x3
 649 0293 7E050000 		.4byte	.LASF46
 650 0297 06       		.byte	0x6
 651 0298 5F       		.byte	0x5f
 652 0299 03       		.byte	0x3
 653 029a 68020000 		.4byte	0x268
 654 029e 0A       		.uleb128 0xa
 655 029f 04       		.byte	0x4
 656 02a0 06       		.byte	0x6
 657 02a1 64       		.byte	0x64
 658 02a2 09       		.byte	0x9
 659 02a3 B5020000 		.4byte	0x2b5
 660 02a7 08       		.uleb128 0x8
 661 02a8 B4060000 		.4byte	.LASF28
 662 02ac 06       		.byte	0x6
 663 02ad 66       		.byte	0x66
 664 02ae 16       		.byte	0x16
 665 02af 8C020000 		.4byte	0x28c
 666 02b3 00       		.byte	0
 667 02b4 00       		.byte	0
 668 02b5 03       		.uleb128 0x3
 669 02b6 65040000 		.4byte	.LASF47
 670 02ba 06       		.byte	0x6
 671 02bb 69       		.byte	0x69
 672 02bc 03       		.byte	0x3
ARM GAS  /var/folders/l5/0x54b2c10074c8bt31ycjvl80000gp/T//ccVzXO7i.s 			page 13


 673 02bd 9E020000 		.4byte	0x29e
 674 02c1 03       		.uleb128 0x3
 675 02c2 9B040000 		.4byte	.LASF48
 676 02c6 08       		.byte	0x8
 677 02c7 9D       		.byte	0x9d
 678 02c8 12       		.byte	0x12
 679 02c9 D5000000 		.4byte	0xd5
 680 02cd 03       		.uleb128 0x3
 681 02ce 50020000 		.4byte	.LASF49
 682 02d2 08       		.byte	0x8
 683 02d3 A2       		.byte	0xa2
 684 02d4 0F       		.byte	0xf
 685 02d5 D9020000 		.4byte	0x2d9
 686 02d9 0C       		.uleb128 0xc
 687 02da 04       		.byte	0x4
 688 02db 07       		.uleb128 0x7
 689 02dc FB070000 		.4byte	.LASF50
 690 02e0 24       		.byte	0x24
 691 02e1 08       		.byte	0x8
 692 02e2 B9       		.byte	0xb9
 693 02e3 08       		.byte	0x8
 694 02e4 57030000 		.4byte	0x357
 695 02e8 09       		.uleb128 0x9
 696 02e9 723400   		.ascii	"r4\000"
 697 02ec 08       		.byte	0x8
 698 02ed BA       		.byte	0xba
 699 02ee 11       		.byte	0x11
 700 02ef CD020000 		.4byte	0x2cd
 701 02f3 00       		.byte	0
 702 02f4 09       		.uleb128 0x9
 703 02f5 723500   		.ascii	"r5\000"
 704 02f8 08       		.byte	0x8
 705 02f9 BB       		.byte	0xbb
 706 02fa 11       		.byte	0x11
 707 02fb CD020000 		.4byte	0x2cd
 708 02ff 04       		.byte	0x4
 709 0300 09       		.uleb128 0x9
 710 0301 723600   		.ascii	"r6\000"
 711 0304 08       		.byte	0x8
 712 0305 BC       		.byte	0xbc
 713 0306 11       		.byte	0x11
 714 0307 CD020000 		.4byte	0x2cd
 715 030b 08       		.byte	0x8
 716 030c 09       		.uleb128 0x9
 717 030d 723700   		.ascii	"r7\000"
 718 0310 08       		.byte	0x8
 719 0311 BD       		.byte	0xbd
 720 0312 11       		.byte	0x11
 721 0313 CD020000 		.4byte	0x2cd
 722 0317 0C       		.byte	0xc
 723 0318 09       		.uleb128 0x9
 724 0319 723800   		.ascii	"r8\000"
 725 031c 08       		.byte	0x8
 726 031d BE       		.byte	0xbe
 727 031e 11       		.byte	0x11
 728 031f CD020000 		.4byte	0x2cd
 729 0323 10       		.byte	0x10
ARM GAS  /var/folders/l5/0x54b2c10074c8bt31ycjvl80000gp/T//ccVzXO7i.s 			page 14


 730 0324 09       		.uleb128 0x9
 731 0325 723900   		.ascii	"r9\000"
 732 0328 08       		.byte	0x8
 733 0329 BF       		.byte	0xbf
 734 032a 11       		.byte	0x11
 735 032b CD020000 		.4byte	0x2cd
 736 032f 14       		.byte	0x14
 737 0330 09       		.uleb128 0x9
 738 0331 72313000 		.ascii	"r10\000"
 739 0335 08       		.byte	0x8
 740 0336 C0       		.byte	0xc0
 741 0337 11       		.byte	0x11
 742 0338 CD020000 		.4byte	0x2cd
 743 033c 18       		.byte	0x18
 744 033d 09       		.uleb128 0x9
 745 033e 72313100 		.ascii	"r11\000"
 746 0342 08       		.byte	0x8
 747 0343 C1       		.byte	0xc1
 748 0344 11       		.byte	0x11
 749 0345 CD020000 		.4byte	0x2cd
 750 0349 1C       		.byte	0x1c
 751 034a 09       		.uleb128 0x9
 752 034b 6C7200   		.ascii	"lr\000"
 753 034e 08       		.byte	0x8
 754 034f C2       		.byte	0xc2
 755 0350 11       		.byte	0x11
 756 0351 CD020000 		.4byte	0x2cd
 757 0355 20       		.byte	0x20
 758 0356 00       		.byte	0
 759 0357 07       		.uleb128 0x7
 760 0358 18030000 		.4byte	.LASF51
 761 035c 04       		.byte	0x4
 762 035d 08       		.byte	0x8
 763 035e CA       		.byte	0xca
 764 035f 08       		.byte	0x8
 765 0360 72030000 		.4byte	0x372
 766 0364 09       		.uleb128 0x9
 767 0365 72313300 		.ascii	"r13\000"
 768 0369 08       		.byte	0x8
 769 036a CB       		.byte	0xcb
 770 036b 12       		.byte	0x12
 771 036c 72030000 		.4byte	0x372
 772 0370 00       		.byte	0
 773 0371 00       		.byte	0
 774 0372 0B       		.uleb128 0xb
 775 0373 04       		.byte	0x4
 776 0374 DB020000 		.4byte	0x2db
 777 0378 03       		.uleb128 0x3
 778 0379 E6020000 		.4byte	.LASF52
 779 037d 09       		.byte	0x9
 780 037e 4E       		.byte	0x4e
 781 037f 10       		.byte	0x10
 782 0380 84030000 		.4byte	0x384
 783 0384 0B       		.uleb128 0xb
 784 0385 04       		.byte	0x4
 785 0386 8A030000 		.4byte	0x38a
 786 038a 0D       		.uleb128 0xd
ARM GAS  /var/folders/l5/0x54b2c10074c8bt31ycjvl80000gp/T//ccVzXO7i.s 			page 15


 787 038b 95030000 		.4byte	0x395
 788 038f 0E       		.uleb128 0xe
 789 0390 D9020000 		.4byte	0x2d9
 790 0394 00       		.byte	0
 791 0395 03       		.uleb128 0x3
 792 0396 39070000 		.4byte	.LASF53
 793 039a 09       		.byte	0x9
 794 039b 53       		.byte	0x53
 795 039c 1D       		.byte	0x1d
 796 039d A1030000 		.4byte	0x3a1
 797 03a1 07       		.uleb128 0x7
 798 03a2 39070000 		.4byte	.LASF53
 799 03a6 14       		.byte	0x14
 800 03a7 09       		.byte	0x9
 801 03a8 5A       		.byte	0x5a
 802 03a9 08       		.byte	0x8
 803 03aa F0030000 		.4byte	0x3f0
 804 03ae 08       		.uleb128 0x8
 805 03af 9A020000 		.4byte	.LASF54
 806 03b3 09       		.byte	0x9
 807 03b4 5B       		.byte	0x5b
 808 03b5 1A       		.byte	0x1a
 809 03b6 F0030000 		.4byte	0x3f0
 810 03ba 00       		.byte	0
 811 03bb 08       		.uleb128 0x8
 812 03bc 59020000 		.4byte	.LASF55
 813 03c0 09       		.byte	0x9
 814 03c1 5D       		.byte	0x5d
 815 03c2 1A       		.byte	0x1a
 816 03c3 F0030000 		.4byte	0x3f0
 817 03c7 04       		.byte	0x4
 818 03c8 08       		.uleb128 0x8
 819 03c9 D7040000 		.4byte	.LASF56
 820 03cd 09       		.byte	0x9
 821 03ce 5F       		.byte	0x5f
 822 03cf 19       		.byte	0x19
 823 03d0 46010000 		.4byte	0x146
 824 03d4 08       		.byte	0x8
 825 03d5 08       		.uleb128 0x8
 826 03d6 FF040000 		.4byte	.LASF57
 827 03da 09       		.byte	0x9
 828 03db 60       		.byte	0x60
 829 03dc 19       		.byte	0x19
 830 03dd 78030000 		.4byte	0x378
 831 03e1 0C       		.byte	0xc
 832 03e2 08       		.uleb128 0x8
 833 03e3 35080000 		.4byte	.LASF58
 834 03e7 09       		.byte	0x9
 835 03e8 62       		.byte	0x62
 836 03e9 1A       		.byte	0x1a
 837 03ea D9020000 		.4byte	0x2d9
 838 03ee 10       		.byte	0x10
 839 03ef 00       		.byte	0
 840 03f0 0B       		.uleb128 0xb
 841 03f1 04       		.byte	0x4
 842 03f2 95030000 		.4byte	0x395
 843 03f6 0A       		.uleb128 0xa
ARM GAS  /var/folders/l5/0x54b2c10074c8bt31ycjvl80000gp/T//ccVzXO7i.s 			page 16


 844 03f7 10       		.byte	0x10
 845 03f8 09       		.byte	0x9
 846 03f9 6C       		.byte	0x6c
 847 03fa 09       		.byte	0x9
 848 03fb 34040000 		.4byte	0x434
 849 03ff 08       		.uleb128 0x8
 850 0400 9A020000 		.4byte	.LASF54
 851 0404 09       		.byte	0x9
 852 0405 6D       		.byte	0x6d
 853 0406 1A       		.byte	0x1a
 854 0407 F0030000 		.4byte	0x3f0
 855 040b 00       		.byte	0
 856 040c 08       		.uleb128 0x8
 857 040d 59020000 		.4byte	.LASF55
 858 0411 09       		.byte	0x9
 859 0412 6F       		.byte	0x6f
 860 0413 1A       		.byte	0x1a
 861 0414 F0030000 		.4byte	0x3f0
 862 0418 04       		.byte	0x4
 863 0419 08       		.uleb128 0x8
 864 041a D7040000 		.4byte	.LASF56
 865 041e 09       		.byte	0x9
 866 041f 71       		.byte	0x71
 867 0420 19       		.byte	0x19
 868 0421 46010000 		.4byte	0x146
 869 0425 08       		.byte	0x8
 870 0426 08       		.uleb128 0x8
 871 0427 BE080000 		.4byte	.LASF59
 872 042b 09       		.byte	0x9
 873 042c 72       		.byte	0x72
 874 042d 19       		.byte	0x19
 875 042e 52010000 		.4byte	0x152
 876 0432 0C       		.byte	0xc
 877 0433 00       		.byte	0
 878 0434 03       		.uleb128 0x3
 879 0435 F7080000 		.4byte	.LASF60
 880 0439 09       		.byte	0x9
 881 043a 73       		.byte	0x73
 882 043b 03       		.byte	0x3
 883 043c F6030000 		.4byte	0x3f6
 884 0440 0F       		.uleb128 0xf
 885 0441 60000000 		.4byte	.LASF68
 886 0445 09       		.byte	0x9
 887 0446 D1       		.byte	0xd1
 888 0447 0F       		.byte	0xf
 889 0448 34040000 		.4byte	0x434
 890 044c 0A       		.uleb128 0xa
 891 044d 1C       		.byte	0x1c
 892 044e 0A       		.byte	0xa
 893 044f 57       		.byte	0x57
 894 0450 09       		.byte	0x9
 895 0451 A4040000 		.4byte	0x4a4
 896 0455 08       		.uleb128 0x8
 897 0456 31070000 		.4byte	.LASF61
 898 045a 0A       		.byte	0xa
 899 045b 58       		.byte	0x58
 900 045c 19       		.byte	0x19
ARM GAS  /var/folders/l5/0x54b2c10074c8bt31ycjvl80000gp/T//ccVzXO7i.s 			page 17


 901 045d 92020000 		.4byte	0x292
 902 0461 00       		.byte	0
 903 0462 08       		.uleb128 0x8
 904 0463 9D060000 		.4byte	.LASF62
 905 0467 0A       		.byte	0xa
 906 0468 59       		.byte	0x59
 907 0469 19       		.byte	0x19
 908 046a 16010000 		.4byte	0x116
 909 046e 08       		.byte	0x8
 910 046f 08       		.uleb128 0x8
 911 0470 78050000 		.4byte	.LASF63
 912 0474 0A       		.byte	0xa
 913 0475 5B       		.byte	0x5b
 914 0476 19       		.byte	0x19
 915 0477 57030000 		.4byte	0x357
 916 047b 0C       		.byte	0xc
 917 047c 08       		.uleb128 0x8
 918 047d 52030000 		.4byte	.LASF64
 919 0481 0A       		.byte	0xa
 920 0482 5E       		.byte	0x5e
 921 0483 1A       		.byte	0x1a
 922 0484 8C020000 		.4byte	0x28c
 923 0488 10       		.byte	0x10
 924 0489 08       		.uleb128 0x8
 925 048a A5050000 		.4byte	.LASF65
 926 048e 0A       		.byte	0xa
 927 048f 5F       		.byte	0x5f
 928 0490 1A       		.byte	0x1a
 929 0491 8C020000 		.4byte	0x28c
 930 0495 14       		.byte	0x14
 931 0496 08       		.uleb128 0x8
 932 0497 9B050000 		.4byte	.LASF66
 933 049b 0A       		.byte	0xa
 934 049c 62       		.byte	0x62
 935 049d 1A       		.byte	0x1a
 936 049e 8C020000 		.4byte	0x28c
 937 04a2 18       		.byte	0x18
 938 04a3 00       		.byte	0
 939 04a4 03       		.uleb128 0x3
 940 04a5 7B080000 		.4byte	.LASF67
 941 04a9 0A       		.byte	0xa
 942 04aa 64       		.byte	0x64
 943 04ab 03       		.byte	0x3
 944 04ac 4C040000 		.4byte	0x44c
 945 04b0 0F       		.uleb128 0xf
 946 04b1 8E080000 		.4byte	.LASF69
 947 04b5 0A       		.byte	0xa
 948 04b6 68       		.byte	0x68
 949 04b7 12       		.byte	0x12
 950 04b8 A4040000 		.4byte	0x4a4
 951 04bc 07       		.uleb128 0x7
 952 04bd 88040000 		.4byte	.LASF70
 953 04c1 10       		.byte	0x10
 954 04c2 0B       		.byte	0xb
 955 04c3 25       		.byte	0x25
 956 04c4 10       		.byte	0x10
 957 04c5 F1040000 		.4byte	0x4f1
ARM GAS  /var/folders/l5/0x54b2c10074c8bt31ycjvl80000gp/T//ccVzXO7i.s 			page 18


 958 04c9 08       		.uleb128 0x8
 959 04ca 48010000 		.4byte	.LASF71
 960 04ce 0B       		.byte	0xb
 961 04cf 26       		.byte	0x26
 962 04d0 19       		.byte	0x19
 963 04d1 92020000 		.4byte	0x292
 964 04d5 00       		.byte	0
 965 04d6 08       		.uleb128 0x8
 966 04d7 1D090000 		.4byte	.LASF72
 967 04db 0B       		.byte	0xb
 968 04dc 28       		.byte	0x28
 969 04dd 1A       		.byte	0x1a
 970 04de 8C020000 		.4byte	0x28c
 971 04e2 08       		.byte	0x8
 972 04e3 08       		.uleb128 0x8
 973 04e4 95070000 		.4byte	.LASF73
 974 04e8 0B       		.byte	0xb
 975 04e9 2A       		.byte	0x2a
 976 04ea 1A       		.byte	0x1a
 977 04eb F1040000 		.4byte	0x4f1
 978 04ef 0C       		.byte	0xc
 979 04f0 00       		.byte	0
 980 04f1 0B       		.uleb128 0xb
 981 04f2 04       		.byte	0x4
 982 04f3 BC040000 		.4byte	0x4bc
 983 04f7 03       		.uleb128 0x3
 984 04f8 88040000 		.4byte	.LASF70
 985 04fc 0B       		.byte	0xb
 986 04fd 2C       		.byte	0x2c
 987 04fe 03       		.byte	0x3
 988 04ff BC040000 		.4byte	0x4bc
 989 0503 03       		.uleb128 0x3
 990 0504 A2080000 		.4byte	.LASF74
 991 0508 0C       		.byte	0xc
 992 0509 25       		.byte	0x25
 993 050a 1E       		.byte	0x1e
 994 050b 0F050000 		.4byte	0x50f
 995 050f 07       		.uleb128 0x7
 996 0510 A2080000 		.4byte	.LASF74
 997 0514 10       		.byte	0x10
 998 0515 0C       		.byte	0xc
 999 0516 2A       		.byte	0x2a
 1000 0517 08       		.byte	0x8
 1001 0518 51050000 		.4byte	0x551
 1002 051c 08       		.uleb128 0x8
 1003 051d 5A030000 		.4byte	.LASF75
 1004 0521 0C       		.byte	0xc
 1005 0522 2B       		.byte	0x2b
 1006 0523 1A       		.byte	0x1a
 1007 0524 51050000 		.4byte	0x551
 1008 0528 00       		.byte	0
 1009 0529 08       		.uleb128 0x8
 1010 052a 4E060000 		.4byte	.LASF76
 1011 052e 0C       		.byte	0xc
 1012 052f 2E       		.byte	0x2e
 1013 0530 1A       		.byte	0x1a
 1014 0531 8C020000 		.4byte	0x28c
ARM GAS  /var/folders/l5/0x54b2c10074c8bt31ycjvl80000gp/T//ccVzXO7i.s 			page 19


 1015 0535 04       		.byte	0x4
 1016 0536 08       		.uleb128 0x8
 1017 0537 AD050000 		.4byte	.LASF77
 1018 053b 0C       		.byte	0xc
 1019 053c 30       		.byte	0x30
 1020 053d 19       		.byte	0x19
 1021 053e 2E010000 		.4byte	0x12e
 1022 0542 08       		.byte	0x8
 1023 0543 08       		.uleb128 0x8
 1024 0544 5A060000 		.4byte	.LASF78
 1025 0548 0C       		.byte	0xc
 1026 0549 33       		.byte	0x33
 1027 054a 19       		.byte	0x19
 1028 054b 3A010000 		.4byte	0x13a
 1029 054f 0C       		.byte	0xc
 1030 0550 00       		.byte	0
 1031 0551 0B       		.uleb128 0xb
 1032 0552 04       		.byte	0x4
 1033 0553 03050000 		.4byte	0x503
 1034 0557 07       		.uleb128 0x7
 1035 0558 81020000 		.4byte	.LASF79
 1036 055c 04       		.byte	0x4
 1037 055d 0C       		.byte	0xc
 1038 055e 3A       		.byte	0x3a
 1039 055f 10       		.byte	0x10
 1040 0560 72050000 		.4byte	0x572
 1041 0564 08       		.uleb128 0x8
 1042 0565 C9080000 		.4byte	.LASF80
 1043 0569 0C       		.byte	0xc
 1044 056a 3B       		.byte	0x3b
 1045 056b 1A       		.byte	0x1a
 1046 056c 51050000 		.4byte	0x551
 1047 0570 00       		.byte	0
 1048 0571 00       		.byte	0
 1049 0572 03       		.uleb128 0x3
 1050 0573 81020000 		.4byte	.LASF79
 1051 0577 0C       		.byte	0xc
 1052 0578 3E       		.byte	0x3e
 1053 0579 03       		.byte	0x3
 1054 057a 57050000 		.4byte	0x557
 1055 057e 10       		.uleb128 0x10
 1056 057f 04       		.byte	0x4
 1057 0580 07       		.byte	0x7
 1058 0581 8F       		.byte	0x8f
 1059 0582 03       		.byte	0x3
 1060 0583 B8050000 		.4byte	0x5b8
 1061 0587 11       		.uleb128 0x11
 1062 0588 1A000000 		.4byte	.LASF81
 1063 058c 07       		.byte	0x7
 1064 058d 96       		.byte	0x96
 1065 058e 19       		.byte	0x19
 1066 058f 22010000 		.4byte	0x122
 1067 0593 11       		.uleb128 0x11
 1068 0594 AB000000 		.4byte	.LASF82
 1069 0598 07       		.byte	0x7
 1070 0599 9D       		.byte	0x9d
 1071 059a 19       		.byte	0x19
ARM GAS  /var/folders/l5/0x54b2c10074c8bt31ycjvl80000gp/T//ccVzXO7i.s 			page 20


 1072 059b 22010000 		.4byte	0x122
 1073 059f 11       		.uleb128 0x11
 1074 05a0 B0080000 		.4byte	.LASF83
 1075 05a4 07       		.byte	0x7
 1076 05a5 A4       		.byte	0xa4
 1077 05a6 1A       		.byte	0x1a
 1078 05a7 D9020000 		.4byte	0x2d9
 1079 05ab 11       		.uleb128 0x11
 1080 05ac AD060000 		.4byte	.LASF84
 1081 05b0 07       		.byte	0x7
 1082 05b1 AB       		.byte	0xab
 1083 05b2 19       		.byte	0x19
 1084 05b3 2E010000 		.4byte	0x12e
 1085 05b7 00       		.byte	0
 1086 05b8 0B       		.uleb128 0xb
 1087 05b9 04       		.byte	0x4
 1088 05ba C5050000 		.4byte	0x5c5
 1089 05be 04       		.uleb128 0x4
 1090 05bf 01       		.byte	0x1
 1091 05c0 08       		.byte	0x8
 1092 05c1 66070000 		.4byte	.LASF85
 1093 05c5 06       		.uleb128 0x6
 1094 05c6 BE050000 		.4byte	0x5be
 1095 05ca 0B       		.uleb128 0xb
 1096 05cb 04       		.byte	0x4
 1097 05cc F7040000 		.4byte	0x4f7
 1098 05d0 0B       		.uleb128 0xb
 1099 05d1 04       		.byte	0x4
 1100 05d2 D6050000 		.4byte	0x5d6
 1101 05d6 12       		.uleb128 0x12
 1102 05d7 22010000 		.4byte	0x122
 1103 05db E5050000 		.4byte	0x5e5
 1104 05df 0E       		.uleb128 0xe
 1105 05e0 D9020000 		.4byte	0x2d9
 1106 05e4 00       		.byte	0
 1107 05e5 0A       		.uleb128 0xa
 1108 05e6 16       		.byte	0x16
 1109 05e7 0D       		.byte	0xd
 1110 05e8 25       		.byte	0x25
 1111 05e9 09       		.byte	0x9
 1112 05ea D9060000 		.4byte	0x6d9
 1113 05ee 08       		.uleb128 0x8
 1114 05ef EF020000 		.4byte	.LASF86
 1115 05f3 0D       		.byte	0xd
 1116 05f4 26       		.byte	0x26
 1117 05f5 0D       		.byte	0xd
 1118 05f6 D9060000 		.4byte	0x6d9
 1119 05fa 00       		.byte	0
 1120 05fb 08       		.uleb128 0x8
 1121 05fc B8040000 		.4byte	.LASF87
 1122 0600 0D       		.byte	0xd
 1123 0601 27       		.byte	0x27
 1124 0602 0D       		.byte	0xd
 1125 0603 AC000000 		.4byte	0xac
 1126 0607 04       		.byte	0x4
 1127 0608 08       		.uleb128 0x8
 1128 0609 8B050000 		.4byte	.LASF88
ARM GAS  /var/folders/l5/0x54b2c10074c8bt31ycjvl80000gp/T//ccVzXO7i.s 			page 21


 1129 060d 0D       		.byte	0xd
 1130 060e 28       		.byte	0x28
 1131 060f 0D       		.byte	0xd
 1132 0610 AC000000 		.4byte	0xac
 1133 0614 05       		.byte	0x5
 1134 0615 08       		.uleb128 0x8
 1135 0616 DB080000 		.4byte	.LASF89
 1136 061a 0D       		.byte	0xd
 1137 061b 29       		.byte	0x29
 1138 061c 0D       		.byte	0xd
 1139 061d BD000000 		.4byte	0xbd
 1140 0621 06       		.byte	0x6
 1141 0622 08       		.uleb128 0x8
 1142 0623 FB050000 		.4byte	.LASF90
 1143 0627 0D       		.byte	0xd
 1144 0628 2A       		.byte	0x2a
 1145 0629 0D       		.byte	0xd
 1146 062a AC000000 		.4byte	0xac
 1147 062e 08       		.byte	0x8
 1148 062f 08       		.uleb128 0x8
 1149 0630 07050000 		.4byte	.LASF91
 1150 0634 0D       		.byte	0xd
 1151 0635 2B       		.byte	0x2b
 1152 0636 0D       		.byte	0xd
 1153 0637 AC000000 		.4byte	0xac
 1154 063b 09       		.byte	0x9
 1155 063c 08       		.uleb128 0x8
 1156 063d 9D000000 		.4byte	.LASF92
 1157 0641 0D       		.byte	0xd
 1158 0642 2C       		.byte	0x2c
 1159 0643 0D       		.byte	0xd
 1160 0644 AC000000 		.4byte	0xac
 1161 0648 0A       		.byte	0xa
 1162 0649 08       		.uleb128 0x8
 1163 064a 25070000 		.4byte	.LASF93
 1164 064e 0D       		.byte	0xd
 1165 064f 2D       		.byte	0x2d
 1166 0650 0D       		.byte	0xd
 1167 0651 AC000000 		.4byte	0xac
 1168 0655 0B       		.byte	0xb
 1169 0656 08       		.uleb128 0x8
 1170 0657 62080000 		.4byte	.LASF94
 1171 065b 0D       		.byte	0xd
 1172 065c 2E       		.byte	0x2e
 1173 065d 0D       		.byte	0xd
 1174 065e AC000000 		.4byte	0xac
 1175 0662 0C       		.byte	0xc
 1176 0663 08       		.uleb128 0x8
 1177 0664 EF060000 		.4byte	.LASF95
 1178 0668 0D       		.byte	0xd
 1179 0669 2F       		.byte	0x2f
 1180 066a 0D       		.byte	0xd
 1181 066b AC000000 		.4byte	0xac
 1182 066f 0D       		.byte	0xd
 1183 0670 08       		.uleb128 0x8
 1184 0671 00000000 		.4byte	.LASF96
 1185 0675 0D       		.byte	0xd
ARM GAS  /var/folders/l5/0x54b2c10074c8bt31ycjvl80000gp/T//ccVzXO7i.s 			page 22


 1186 0676 30       		.byte	0x30
 1187 0677 0D       		.byte	0xd
 1188 0678 AC000000 		.4byte	0xac
 1189 067c 0E       		.byte	0xe
 1190 067d 08       		.uleb128 0x8
 1191 067e 21050000 		.4byte	.LASF97
 1192 0682 0D       		.byte	0xd
 1193 0683 31       		.byte	0x31
 1194 0684 0D       		.byte	0xd
 1195 0685 AC000000 		.4byte	0xac
 1196 0689 0F       		.byte	0xf
 1197 068a 08       		.uleb128 0x8
 1198 068b 1A010000 		.4byte	.LASF98
 1199 068f 0D       		.byte	0xd
 1200 0690 32       		.byte	0x32
 1201 0691 0D       		.byte	0xd
 1202 0692 AC000000 		.4byte	0xac
 1203 0696 10       		.byte	0x10
 1204 0697 08       		.uleb128 0x8
 1205 0698 DC000000 		.4byte	.LASF99
 1206 069c 0D       		.byte	0xd
 1207 069d 34       		.byte	0x34
 1208 069e 0D       		.byte	0xd
 1209 069f AC000000 		.4byte	0xac
 1210 06a3 11       		.byte	0x11
 1211 06a4 08       		.uleb128 0x8
 1212 06a5 33010000 		.4byte	.LASF100
 1213 06a9 0D       		.byte	0xd
 1214 06aa 35       		.byte	0x35
 1215 06ab 0D       		.byte	0xd
 1216 06ac AC000000 		.4byte	0xac
 1217 06b0 12       		.byte	0x12
 1218 06b1 08       		.uleb128 0x8
 1219 06b2 C0040000 		.4byte	.LASF101
 1220 06b6 0D       		.byte	0xd
 1221 06b7 36       		.byte	0x36
 1222 06b8 0D       		.byte	0xd
 1223 06b9 AC000000 		.4byte	0xac
 1224 06bd 13       		.byte	0x13
 1225 06be 08       		.uleb128 0x8
 1226 06bf C3060000 		.4byte	.LASF102
 1227 06c3 0D       		.byte	0xd
 1228 06c4 37       		.byte	0x37
 1229 06c5 0D       		.byte	0xd
 1230 06c6 AC000000 		.4byte	0xac
 1231 06ca 14       		.byte	0x14
 1232 06cb 08       		.uleb128 0x8
 1233 06cc 89060000 		.4byte	.LASF103
 1234 06d0 0D       		.byte	0xd
 1235 06d1 39       		.byte	0x39
 1236 06d2 0D       		.byte	0xd
 1237 06d3 AC000000 		.4byte	0xac
 1238 06d7 15       		.byte	0x15
 1239 06d8 00       		.byte	0
 1240 06d9 13       		.uleb128 0x13
 1241 06da BE050000 		.4byte	0x5be
 1242 06de E9060000 		.4byte	0x6e9
ARM GAS  /var/folders/l5/0x54b2c10074c8bt31ycjvl80000gp/T//ccVzXO7i.s 			page 23


 1243 06e2 14       		.uleb128 0x14
 1244 06e3 38000000 		.4byte	0x38
 1245 06e7 03       		.byte	0x3
 1246 06e8 00       		.byte	0
 1247 06e9 03       		.uleb128 0x3
 1248 06ea C8010000 		.4byte	.LASF104
 1249 06ee 0D       		.byte	0xd
 1250 06ef 3A       		.byte	0x3a
 1251 06f0 03       		.byte	0x3
 1252 06f1 E5050000 		.4byte	0x5e5
 1253 06f5 06       		.uleb128 0x6
 1254 06f6 E9060000 		.4byte	0x6e9
 1255 06fa 0F       		.uleb128 0xf
 1256 06fb D8020000 		.4byte	.LASF105
 1257 06ff 0D       		.byte	0xd
 1258 0700 77       		.byte	0x77
 1259 0701 1D       		.byte	0x1d
 1260 0702 F5060000 		.4byte	0x6f5
 1261 0706 03       		.uleb128 0x3
 1262 0707 8E040000 		.4byte	.LASF106
 1263 070b 0E       		.byte	0xe
 1264 070c 30       		.byte	0x30
 1265 070d 1D       		.byte	0x1d
 1266 070e 12070000 		.4byte	0x712
 1267 0712 07       		.uleb128 0x7
 1268 0713 8E040000 		.4byte	.LASF106
 1269 0717 24       		.byte	0x24
 1270 0718 0E       		.byte	0xe
 1271 0719 3E       		.byte	0x3e
 1272 071a 08       		.byte	0x8
 1273 071b 88070000 		.4byte	0x788
 1274 071f 08       		.uleb128 0x8
 1275 0720 F6000000 		.4byte	.LASF107
 1276 0724 0E       		.byte	0xe
 1277 0725 3F       		.byte	0x3f
 1278 0726 19       		.byte	0x19
 1279 0727 92020000 		.4byte	0x292
 1280 072b 00       		.byte	0
 1281 072c 08       		.uleb128 0x8
 1282 072d F5040000 		.4byte	.LASF108
 1283 0731 0E       		.byte	0xe
 1284 0732 40       		.byte	0x40
 1285 0733 19       		.byte	0x19
 1286 0734 2C000000 		.4byte	0x2c
 1287 0738 08       		.byte	0x8
 1288 0739 08       		.uleb128 0x8
 1289 073a B1010000 		.4byte	.LASF109
 1290 073e 0E       		.byte	0xe
 1291 073f 41       		.byte	0x41
 1292 0740 1A       		.byte	0x1a
 1293 0741 AB070000 		.4byte	0x7ab
 1294 0745 0C       		.byte	0xc
 1295 0746 08       		.uleb128 0x8
 1296 0747 80000000 		.4byte	.LASF110
 1297 074b 0E       		.byte	0xe
 1298 074c 42       		.byte	0x42
 1299 074d 1A       		.byte	0x1a
ARM GAS  /var/folders/l5/0x54b2c10074c8bt31ycjvl80000gp/T//ccVzXO7i.s 			page 24


 1300 074e AB070000 		.4byte	0x7ab
 1301 0752 10       		.byte	0x10
 1302 0753 08       		.uleb128 0x8
 1303 0754 70050000 		.4byte	.LASF111
 1304 0758 0E       		.byte	0xe
 1305 0759 44       		.byte	0x44
 1306 075a 1A       		.byte	0x1a
 1307 075b AB070000 		.4byte	0x7ab
 1308 075f 14       		.byte	0x14
 1309 0760 08       		.uleb128 0x8
 1310 0761 1F060000 		.4byte	.LASF112
 1311 0765 0E       		.byte	0xe
 1312 0766 45       		.byte	0x45
 1313 0767 1A       		.byte	0x1a
 1314 0768 AB070000 		.4byte	0x7ab
 1315 076c 18       		.byte	0x18
 1316 076d 08       		.uleb128 0x8
 1317 076e 85080000 		.4byte	.LASF113
 1318 0772 0E       		.byte	0xe
 1319 0773 46       		.byte	0x46
 1320 0774 19       		.byte	0x19
 1321 0775 88070000 		.4byte	0x788
 1322 0779 1C       		.byte	0x1c
 1323 077a 08       		.uleb128 0x8
 1324 077b FE080000 		.4byte	.LASF114
 1325 077f 0E       		.byte	0xe
 1326 0780 47       		.byte	0x47
 1327 0781 1A       		.byte	0x1a
 1328 0782 D9020000 		.4byte	0x2d9
 1329 0786 20       		.byte	0x20
 1330 0787 00       		.byte	0
 1331 0788 03       		.uleb128 0x3
 1332 0789 06060000 		.4byte	.LASF115
 1333 078d 0E       		.byte	0xe
 1334 078e 33       		.byte	0x33
 1335 078f 10       		.byte	0x10
 1336 0790 94070000 		.4byte	0x794
 1337 0794 0B       		.uleb128 0xb
 1338 0795 04       		.byte	0x4
 1339 0796 9A070000 		.4byte	0x79a
 1340 079a 0D       		.uleb128 0xd
 1341 079b A5070000 		.4byte	0x7a5
 1342 079f 0E       		.uleb128 0xe
 1343 07a0 A5070000 		.4byte	0x7a5
 1344 07a4 00       		.byte	0
 1345 07a5 0B       		.uleb128 0xb
 1346 07a6 04       		.byte	0x4
 1347 07a7 06070000 		.4byte	0x706
 1348 07ab 0B       		.uleb128 0xb
 1349 07ac 04       		.byte	0x4
 1350 07ad AC000000 		.4byte	0xac
 1351 07b1 03       		.uleb128 0x3
 1352 07b2 7D040000 		.4byte	.LASF116
 1353 07b6 0E       		.byte	0xe
 1354 07b7 7B       		.byte	0x7b
 1355 07b8 16       		.byte	0x16
 1356 07b9 06070000 		.4byte	0x706
ARM GAS  /var/folders/l5/0x54b2c10074c8bt31ycjvl80000gp/T//ccVzXO7i.s 			page 25


 1357 07bd 03       		.uleb128 0x3
 1358 07be 33000000 		.4byte	.LASF117
 1359 07c2 0E       		.byte	0xe
 1360 07c3 EE       		.byte	0xee
 1361 07c4 16       		.byte	0x16
 1362 07c5 06070000 		.4byte	0x706
 1363 07c9 12       		.uleb128 0x12
 1364 07ca 2C000000 		.4byte	0x2c
 1365 07ce E2070000 		.4byte	0x7e2
 1366 07d2 0E       		.uleb128 0xe
 1367 07d3 D9020000 		.4byte	0x2d9
 1368 07d7 0E       		.uleb128 0xe
 1369 07d8 E2070000 		.4byte	0x7e2
 1370 07dc 0E       		.uleb128 0xe
 1371 07dd 2C000000 		.4byte	0x2c
 1372 07e1 00       		.byte	0
 1373 07e2 0B       		.uleb128 0xb
 1374 07e3 04       		.byte	0x4
 1375 07e4 B8000000 		.4byte	0xb8
 1376 07e8 0B       		.uleb128 0xb
 1377 07e9 04       		.byte	0x4
 1378 07ea C9070000 		.4byte	0x7c9
 1379 07ee 12       		.uleb128 0x12
 1380 07ef 2C000000 		.4byte	0x2c
 1381 07f3 07080000 		.4byte	0x807
 1382 07f7 0E       		.uleb128 0xe
 1383 07f8 D9020000 		.4byte	0x2d9
 1384 07fc 0E       		.uleb128 0xe
 1385 07fd AB070000 		.4byte	0x7ab
 1386 0801 0E       		.uleb128 0xe
 1387 0802 2C000000 		.4byte	0x2c
 1388 0806 00       		.byte	0
 1389 0807 0B       		.uleb128 0xb
 1390 0808 04       		.byte	0x4
 1391 0809 EE070000 		.4byte	0x7ee
 1392 080d 12       		.uleb128 0x12
 1393 080e 22010000 		.4byte	0x122
 1394 0812 21080000 		.4byte	0x821
 1395 0816 0E       		.uleb128 0xe
 1396 0817 D9020000 		.4byte	0x2d9
 1397 081b 0E       		.uleb128 0xe
 1398 081c AC000000 		.4byte	0xac
 1399 0820 00       		.byte	0
 1400 0821 0B       		.uleb128 0xb
 1401 0822 04       		.byte	0x4
 1402 0823 0D080000 		.4byte	0x80d
 1403 0827 13       		.uleb128 0x13
 1404 0828 C1020000 		.4byte	0x2c1
 1405 082c 37080000 		.4byte	0x837
 1406 0830 14       		.uleb128 0x14
 1407 0831 38000000 		.4byte	0x38
 1408 0835 26       		.byte	0x26
 1409 0836 00       		.byte	0
 1410 0837 0F       		.uleb128 0xf
 1411 0838 F4010000 		.4byte	.LASF118
 1412 083c 0F       		.byte	0xf
 1413 083d 82       		.byte	0x82
ARM GAS  /var/folders/l5/0x54b2c10074c8bt31ycjvl80000gp/T//ccVzXO7i.s 			page 26


 1414 083e 08       		.byte	0x8
 1415 083f 27080000 		.4byte	0x827
 1416 0843 07       		.uleb128 0x7
 1417 0844 67000000 		.4byte	.LASF119
 1418 0848 20       		.byte	0x20
 1419 0849 10       		.byte	0x10
 1420 084a FD       		.byte	0xfd
 1421 084b 08       		.byte	0x8
 1422 084c BF080000 		.4byte	0x8bf
 1423 0850 08       		.uleb128 0x8
 1424 0851 3D020000 		.4byte	.LASF120
 1425 0855 10       		.byte	0x10
 1426 0856 FE       		.byte	0xfe
 1427 0857 19       		.byte	0x19
 1428 0858 3F000000 		.4byte	0x3f
 1429 085c 00       		.byte	0
 1430 085d 08       		.uleb128 0x8
 1431 085e 74080000 		.4byte	.LASF121
 1432 0862 10       		.byte	0x10
 1433 0863 FF       		.byte	0xff
 1434 0864 19       		.byte	0x19
 1435 0865 3F000000 		.4byte	0x3f
 1436 0869 04       		.byte	0x4
 1437 086a 15       		.uleb128 0x15
 1438 086b EC080000 		.4byte	.LASF122
 1439 086f 10       		.byte	0x10
 1440 0870 0001     		.2byte	0x100
 1441 0872 19       		.byte	0x19
 1442 0873 3F000000 		.4byte	0x3f
 1443 0877 08       		.byte	0x8
 1444 0878 15       		.uleb128 0x15
 1445 0879 61020000 		.4byte	.LASF123
 1446 087d 10       		.byte	0x10
 1447 087e 0101     		.2byte	0x101
 1448 0880 19       		.byte	0x19
 1449 0881 3F000000 		.4byte	0x3f
 1450 0885 0C       		.byte	0xc
 1451 0886 15       		.uleb128 0x15
 1452 0887 C4000000 		.4byte	.LASF124
 1453 088b 10       		.byte	0x10
 1454 088c 0201     		.2byte	0x102
 1455 088e 19       		.byte	0x19
 1456 088f 3F000000 		.4byte	0x3f
 1457 0893 10       		.byte	0x10
 1458 0894 15       		.uleb128 0x15
 1459 0895 E8040000 		.4byte	.LASF125
 1460 0899 10       		.byte	0x10
 1461 089a 0301     		.2byte	0x103
 1462 089c 19       		.byte	0x19
 1463 089d 3F000000 		.4byte	0x3f
 1464 08a1 14       		.byte	0x14
 1465 08a2 15       		.uleb128 0x15
 1466 08a3 A1010000 		.4byte	.LASF126
 1467 08a7 10       		.byte	0x10
 1468 08a8 0401     		.2byte	0x104
 1469 08aa 19       		.byte	0x19
 1470 08ab 3F000000 		.4byte	0x3f
ARM GAS  /var/folders/l5/0x54b2c10074c8bt31ycjvl80000gp/T//ccVzXO7i.s 			page 27


 1471 08af 18       		.byte	0x18
 1472 08b0 15       		.uleb128 0x15
 1473 08b1 50090000 		.4byte	.LASF127
 1474 08b5 10       		.byte	0x10
 1475 08b6 0501     		.2byte	0x105
 1476 08b8 19       		.byte	0x19
 1477 08b9 3F000000 		.4byte	0x3f
 1478 08bd 1C       		.byte	0x1c
 1479 08be 00       		.byte	0
 1480 08bf 16       		.uleb128 0x16
 1481 08c0 67000000 		.4byte	.LASF119
 1482 08c4 10       		.byte	0x10
 1483 08c5 0801     		.2byte	0x108
 1484 08c7 1C       		.byte	0x1c
 1485 08c8 43080000 		.4byte	0x843
 1486 08cc 12       		.uleb128 0x12
 1487 08cd 22010000 		.4byte	0x122
 1488 08d1 E5080000 		.4byte	0x8e5
 1489 08d5 0E       		.uleb128 0xe
 1490 08d6 D9020000 		.4byte	0x2d9
 1491 08da 0E       		.uleb128 0xe
 1492 08db AC000000 		.4byte	0xac
 1493 08df 0E       		.uleb128 0xe
 1494 08e0 46010000 		.4byte	0x146
 1495 08e4 00       		.byte	0
 1496 08e5 0B       		.uleb128 0xb
 1497 08e6 04       		.byte	0x4
 1498 08e7 CC080000 		.4byte	0x8cc
 1499 08eb 12       		.uleb128 0x12
 1500 08ec 22010000 		.4byte	0x122
 1501 08f0 FF080000 		.4byte	0x8ff
 1502 08f4 0E       		.uleb128 0xe
 1503 08f5 D9020000 		.4byte	0x2d9
 1504 08f9 0E       		.uleb128 0xe
 1505 08fa 46010000 		.4byte	0x146
 1506 08fe 00       		.byte	0
 1507 08ff 0B       		.uleb128 0xb
 1508 0900 04       		.byte	0x4
 1509 0901 EB080000 		.4byte	0x8eb
 1510 0905 12       		.uleb128 0x12
 1511 0906 2C000000 		.4byte	0x2c
 1512 090a 23090000 		.4byte	0x923
 1513 090e 0E       		.uleb128 0xe
 1514 090f D9020000 		.4byte	0x2d9
 1515 0913 0E       		.uleb128 0xe
 1516 0914 E2070000 		.4byte	0x7e2
 1517 0918 0E       		.uleb128 0xe
 1518 0919 2C000000 		.4byte	0x2c
 1519 091d 0E       		.uleb128 0xe
 1520 091e 46010000 		.4byte	0x146
 1521 0922 00       		.byte	0
 1522 0923 0B       		.uleb128 0xb
 1523 0924 04       		.byte	0x4
 1524 0925 05090000 		.4byte	0x905
 1525 0929 12       		.uleb128 0x12
 1526 092a 2C000000 		.4byte	0x2c
 1527 092e 47090000 		.4byte	0x947
ARM GAS  /var/folders/l5/0x54b2c10074c8bt31ycjvl80000gp/T//ccVzXO7i.s 			page 28


 1528 0932 0E       		.uleb128 0xe
 1529 0933 D9020000 		.4byte	0x2d9
 1530 0937 0E       		.uleb128 0xe
 1531 0938 AB070000 		.4byte	0x7ab
 1532 093c 0E       		.uleb128 0xe
 1533 093d 2C000000 		.4byte	0x2c
 1534 0941 0E       		.uleb128 0xe
 1535 0942 46010000 		.4byte	0x146
 1536 0946 00       		.byte	0
 1537 0947 0B       		.uleb128 0xb
 1538 0948 04       		.byte	0x4
 1539 0949 29090000 		.4byte	0x929
 1540 094d 0A       		.uleb128 0xa
 1541 094e 18       		.byte	0x18
 1542 094f 11       		.byte	0x11
 1543 0950 2A       		.byte	0x2a
 1544 0951 09       		.byte	0x9
 1545 0952 A5090000 		.4byte	0x9a5
 1546 0956 08       		.uleb128 0x8
 1547 0957 9C080000 		.4byte	.LASF128
 1548 095b 11       		.byte	0x11
 1549 095c 2F       		.byte	0x2f
 1550 095d 15       		.byte	0x15
 1551 095e D5000000 		.4byte	0xd5
 1552 0962 00       		.byte	0
 1553 0963 08       		.uleb128 0x8
 1554 0964 C0050000 		.4byte	.LASF129
 1555 0968 11       		.byte	0x11
 1556 0969 31       		.byte	0x31
 1557 096a 16       		.byte	0x16
 1558 096b A5090000 		.4byte	0x9a5
 1559 096f 04       		.byte	0x4
 1560 0970 08       		.uleb128 0x8
 1561 0971 3F030000 		.4byte	.LASF130
 1562 0975 11       		.byte	0x11
 1563 0976 32       		.byte	0x32
 1564 0977 16       		.byte	0x16
 1565 0978 A5090000 		.4byte	0x9a5
 1566 097c 08       		.byte	0x8
 1567 097d 08       		.uleb128 0x8
 1568 097e CC040000 		.4byte	.LASF131
 1569 0982 11       		.byte	0x11
 1570 0983 33       		.byte	0x33
 1571 0984 16       		.byte	0x16
 1572 0985 A5090000 		.4byte	0x9a5
 1573 0989 0C       		.byte	0xc
 1574 098a 08       		.uleb128 0x8
 1575 098b C6050000 		.4byte	.LASF132
 1576 098f 11       		.byte	0x11
 1577 0990 34       		.byte	0x34
 1578 0991 16       		.byte	0x16
 1579 0992 A5090000 		.4byte	0x9a5
 1580 0996 10       		.byte	0x10
 1581 0997 08       		.uleb128 0x8
 1582 0998 A4060000 		.4byte	.LASF133
 1583 099c 11       		.byte	0x11
 1584 099d 35       		.byte	0x35
ARM GAS  /var/folders/l5/0x54b2c10074c8bt31ycjvl80000gp/T//ccVzXO7i.s 			page 29


 1585 099e 10       		.byte	0x10
 1586 099f 38000000 		.4byte	0x38
 1587 09a3 14       		.byte	0x14
 1588 09a4 00       		.byte	0
 1589 09a5 0B       		.uleb128 0xb
 1590 09a6 04       		.byte	0x4
 1591 09a7 E1000000 		.4byte	0xe1
 1592 09ab 03       		.uleb128 0x3
 1593 09ac 33030000 		.4byte	.LASF134
 1594 09b0 11       		.byte	0x11
 1595 09b1 37       		.byte	0x37
 1596 09b2 03       		.byte	0x3
 1597 09b3 4D090000 		.4byte	0x94d
 1598 09b7 17       		.uleb128 0x17
 1599 09b8 00       		.byte	0
 1600 09b9 11       		.byte	0x11
 1601 09ba 43       		.byte	0x43
 1602 09bb 09       		.byte	0x9
 1603 09bc 03       		.uleb128 0x3
 1604 09bd 13090000 		.4byte	.LASF135
 1605 09c1 11       		.byte	0x11
 1606 09c2 45       		.byte	0x45
 1607 09c3 03       		.byte	0x3
 1608 09c4 B7090000 		.4byte	0x9b7
 1609 09c8 06       		.uleb128 0x6
 1610 09c9 BC090000 		.4byte	0x9bc
 1611 09cd 03       		.uleb128 0x3
 1612 09ce 73000000 		.4byte	.LASF136
 1613 09d2 11       		.byte	0x11
 1614 09d3 55       		.byte	0x55
 1615 09d4 12       		.byte	0x12
 1616 09d5 D5000000 		.4byte	0xd5
 1617 09d9 0F       		.uleb128 0xf
 1618 09da 93050000 		.4byte	.LASF137
 1619 09de 11       		.byte	0x11
 1620 09df 6D       		.byte	0x6d
 1621 09e0 14       		.byte	0x14
 1622 09e1 AB090000 		.4byte	0x9ab
 1623 09e5 0F       		.uleb128 0xf
 1624 09e6 BB060000 		.4byte	.LASF138
 1625 09ea 11       		.byte	0x11
 1626 09eb 6E       		.byte	0x6e
 1627 09ec 14       		.byte	0x14
 1628 09ed AB090000 		.4byte	0x9ab
 1629 09f1 0F       		.uleb128 0xf
 1630 09f2 25090000 		.4byte	.LASF139
 1631 09f6 11       		.byte	0x11
 1632 09f7 75       		.byte	0x75
 1633 09f8 18       		.byte	0x18
 1634 09f9 C8090000 		.4byte	0x9c8
 1635 09fd 18       		.uleb128 0x18
 1636 09fe 07       		.byte	0x7
 1637 09ff 01       		.byte	0x1
 1638 0a00 57000000 		.4byte	0x57
 1639 0a04 12       		.byte	0x12
 1640 0a05 54       		.byte	0x54
 1641 0a06 0E       		.byte	0xe
ARM GAS  /var/folders/l5/0x54b2c10074c8bt31ycjvl80000gp/T//ccVzXO7i.s 			page 30


 1642 0a07 300A0000 		.4byte	0xa30
 1643 0a0b 19       		.uleb128 0x19
 1644 0a0c 5F010000 		.4byte	.LASF140
 1645 0a10 00       		.byte	0
 1646 0a11 19       		.uleb128 0x19
 1647 0a12 DF040000 		.4byte	.LASF141
 1648 0a16 01       		.byte	0x1
 1649 0a17 19       		.uleb128 0x19
 1650 0a18 BB070000 		.4byte	.LASF142
 1651 0a1c 02       		.byte	0x2
 1652 0a1d 19       		.uleb128 0x19
 1653 0a1e D2010000 		.4byte	.LASF143
 1654 0a22 03       		.byte	0x3
 1655 0a23 19       		.uleb128 0x19
 1656 0a24 53070000 		.4byte	.LASF144
 1657 0a28 04       		.byte	0x4
 1658 0a29 19       		.uleb128 0x19
 1659 0a2a FC060000 		.4byte	.LASF145
 1660 0a2e 05       		.byte	0x5
 1661 0a2f 00       		.byte	0
 1662 0a30 03       		.uleb128 0x3
 1663 0a31 F0050000 		.4byte	.LASF146
 1664 0a35 12       		.byte	0x12
 1665 0a36 5B       		.byte	0x5b
 1666 0a37 03       		.byte	0x3
 1667 0a38 FD090000 		.4byte	0x9fd
 1668 0a3c 03       		.uleb128 0x3
 1669 0a3d C5070000 		.4byte	.LASF147
 1670 0a41 13       		.byte	0x13
 1671 0a42 38       		.byte	0x38
 1672 0a43 1A       		.byte	0x1a
 1673 0a44 480A0000 		.4byte	0xa48
 1674 0a48 07       		.uleb128 0x7
 1675 0a49 C5070000 		.4byte	.LASF147
 1676 0a4d 40       		.byte	0x40
 1677 0a4e 13       		.byte	0x13
 1678 0a4f 62       		.byte	0x62
 1679 0a50 08       		.byte	0x8
 1680 0a51 FF0A0000 		.4byte	0xaff
 1681 0a55 08       		.uleb128 0x8
 1682 0a56 74010000 		.4byte	.LASF148
 1683 0a5a 13       		.byte	0x13
 1684 0a5b 64       		.byte	0x64
 1685 0a5c 1D       		.byte	0x1d
 1686 0a5d 300A0000 		.4byte	0xa30
 1687 0a61 00       		.byte	0
 1688 0a62 08       		.uleb128 0x8
 1689 0a63 78070000 		.4byte	.LASF149
 1690 0a67 13       		.byte	0x13
 1691 0a68 66       		.byte	0x66
 1692 0a69 1E       		.byte	0x1e
 1693 0a6a 3F0B0000 		.4byte	0xb3f
 1694 0a6e 04       		.byte	0x4
 1695 0a6f 08       		.uleb128 0x8
 1696 0a70 B8020000 		.4byte	.LASF150
 1697 0a74 13       		.byte	0x13
 1698 0a75 68       		.byte	0x68
ARM GAS  /var/folders/l5/0x54b2c10074c8bt31ycjvl80000gp/T//ccVzXO7i.s 			page 31


 1699 0a76 1D       		.byte	0x1d
 1700 0a77 FF0A0000 		.4byte	0xaff
 1701 0a7b 08       		.byte	0x8
 1702 0a7c 08       		.uleb128 0x8
 1703 0a7d EF000000 		.4byte	.LASF151
 1704 0a81 13       		.byte	0x13
 1705 0a82 6A       		.byte	0x6a
 1706 0a83 1E       		.byte	0x1e
 1707 0a84 450B0000 		.4byte	0xb45
 1708 0a88 0C       		.byte	0xc
 1709 0a89 08       		.uleb128 0x8
 1710 0a8a 32060000 		.4byte	.LASF152
 1711 0a8e 13       		.byte	0x13
 1712 0a8f 6D       		.byte	0x6d
 1713 0a90 1D       		.byte	0x1d
 1714 0a91 F7040000 		.4byte	0x4f7
 1715 0a95 10       		.byte	0x10
 1716 0a96 08       		.uleb128 0x8
 1717 0a97 9A010000 		.4byte	.LASF153
 1718 0a9b 13       		.byte	0x13
 1719 0a9c 77       		.byte	0x77
 1720 0a9d 1E       		.byte	0x1e
 1721 0a9e 8C020000 		.4byte	0x28c
 1722 0aa2 20       		.byte	0x20
 1723 0aa3 08       		.uleb128 0x8
 1724 0aa4 50010000 		.4byte	.LASF154
 1725 0aa8 13       		.byte	0x13
 1726 0aa9 7B       		.byte	0x7b
 1727 0aaa 1D       		.byte	0x1d
 1728 0aab 0B0B0000 		.4byte	0xb0b
 1729 0aaf 24       		.byte	0x24
 1730 0ab0 08       		.uleb128 0x8
 1731 0ab1 A2020000 		.4byte	.LASF155
 1732 0ab5 13       		.byte	0x13
 1733 0ab6 7F       		.byte	0x7f
 1734 0ab7 1E       		.byte	0x1e
 1735 0ab8 E2070000 		.4byte	0x7e2
 1736 0abc 28       		.byte	0x28
 1737 0abd 08       		.uleb128 0x8
 1738 0abe 48090000 		.4byte	.LASF156
 1739 0ac2 13       		.byte	0x13
 1740 0ac3 83       		.byte	0x83
 1741 0ac4 1D       		.byte	0x1d
 1742 0ac5 2C000000 		.4byte	0x2c
 1743 0ac9 2C       		.byte	0x2c
 1744 0aca 08       		.uleb128 0x8
 1745 0acb 5C080000 		.4byte	.LASF157
 1746 0acf 13       		.byte	0x13
 1747 0ad0 87       		.byte	0x87
 1748 0ad1 1D       		.byte	0x1d
 1749 0ad2 2C000000 		.4byte	0x2c
 1750 0ad6 30       		.byte	0x30
 1751 0ad7 08       		.uleb128 0x8
 1752 0ad8 BE000000 		.4byte	.LASF158
 1753 0adc 13       		.byte	0x13
 1754 0add 8B       		.byte	0x8b
 1755 0ade 1E       		.byte	0x1e
ARM GAS  /var/folders/l5/0x54b2c10074c8bt31ycjvl80000gp/T//ccVzXO7i.s 			page 32


 1756 0adf AB070000 		.4byte	0x7ab
 1757 0ae3 34       		.byte	0x34
 1758 0ae4 08       		.uleb128 0x8
 1759 0ae5 68050000 		.4byte	.LASF159
 1760 0ae9 13       		.byte	0x13
 1761 0aea 8F       		.byte	0x8f
 1762 0aeb 1D       		.byte	0x1d
 1763 0aec 2C000000 		.4byte	0x2c
 1764 0af0 38       		.byte	0x38
 1765 0af1 08       		.uleb128 0x8
 1766 0af2 AB010000 		.4byte	.LASF160
 1767 0af6 13       		.byte	0x13
 1768 0af7 93       		.byte	0x93
 1769 0af8 1D       		.byte	0x1d
 1770 0af9 2C000000 		.4byte	0x2c
 1771 0afd 3C       		.byte	0x3c
 1772 0afe 00       		.byte	0
 1773 0aff 03       		.uleb128 0x3
 1774 0b00 27060000 		.4byte	.LASF161
 1775 0b04 13       		.byte	0x13
 1776 0b05 42       		.byte	0x42
 1777 0b06 12       		.byte	0x12
 1778 0b07 D5000000 		.4byte	0xd5
 1779 0b0b 03       		.uleb128 0x3
 1780 0b0c 6A010000 		.4byte	.LASF162
 1781 0b10 13       		.byte	0x13
 1782 0b11 48       		.byte	0x48
 1783 0b12 12       		.byte	0x12
 1784 0b13 BD000000 		.4byte	0xbd
 1785 0b17 0A       		.uleb128 0xa
 1786 0b18 04       		.byte	0x4
 1787 0b19 13       		.byte	0x13
 1788 0b1a 57       		.byte	0x57
 1789 0b1b 09       		.byte	0x9
 1790 0b1c 2E0B0000 		.4byte	0xb2e
 1791 0b20 08       		.uleb128 0x8
 1792 0b21 18050000 		.4byte	.LASF163
 1793 0b25 13       		.byte	0x13
 1794 0b26 59       		.byte	0x59
 1795 0b27 1D       		.byte	0x1d
 1796 0b28 D5000000 		.4byte	0xd5
 1797 0b2c 00       		.byte	0
 1798 0b2d 00       		.byte	0
 1799 0b2e 03       		.uleb128 0x3
 1800 0b2f 48080000 		.4byte	.LASF164
 1801 0b33 13       		.byte	0x13
 1802 0b34 5B       		.byte	0x5b
 1803 0b35 03       		.byte	0x3
 1804 0b36 170B0000 		.4byte	0xb17
 1805 0b3a 06       		.uleb128 0x6
 1806 0b3b 2E0B0000 		.4byte	0xb2e
 1807 0b3f 0B       		.uleb128 0xb
 1808 0b40 04       		.byte	0x4
 1809 0b41 3A0B0000 		.4byte	0xb3a
 1810 0b45 0B       		.uleb128 0xb
 1811 0b46 04       		.byte	0x4
 1812 0b47 BF080000 		.4byte	0x8bf
ARM GAS  /var/folders/l5/0x54b2c10074c8bt31ycjvl80000gp/T//ccVzXO7i.s 			page 33


 1813 0b4b 0F       		.uleb128 0xf
 1814 0b4c 7C020000 		.4byte	.LASF165
 1815 0b50 13       		.byte	0x13
 1816 0b51 A6       		.byte	0xa6
 1817 0b52 12       		.byte	0x12
 1818 0b53 3C0A0000 		.4byte	0xa3c
 1819 0b57 18       		.uleb128 0x18
 1820 0b58 07       		.byte	0x7
 1821 0b59 01       		.byte	0x1
 1822 0b5a 57000000 		.4byte	0x57
 1823 0b5e 14       		.byte	0x14
 1824 0b5f 5D       		.byte	0x5d
 1825 0b60 0E       		.byte	0xe
 1826 0b61 780B0000 		.4byte	0xb78
 1827 0b65 19       		.uleb128 0x19
 1828 0b66 12070000 		.4byte	.LASF166
 1829 0b6a 00       		.byte	0
 1830 0b6b 19       		.uleb128 0x19
 1831 0b6c 40010000 		.4byte	.LASF167
 1832 0b70 01       		.byte	0x1
 1833 0b71 19       		.uleb128 0x19
 1834 0b72 0D080000 		.4byte	.LASF168
 1835 0b76 02       		.byte	0x2
 1836 0b77 00       		.byte	0
 1837 0b78 03       		.uleb128 0x3
 1838 0b79 52080000 		.4byte	.LASF169
 1839 0b7d 14       		.byte	0x14
 1840 0b7e 61       		.byte	0x61
 1841 0b7f 03       		.byte	0x3
 1842 0b80 570B0000 		.4byte	0xb57
 1843 0b84 03       		.uleb128 0x3
 1844 0b85 46070000 		.4byte	.LASF170
 1845 0b89 14       		.byte	0x14
 1846 0b8a 66       		.byte	0x66
 1847 0b8b 1D       		.byte	0x1d
 1848 0b8c 900B0000 		.4byte	0xb90
 1849 0b90 07       		.uleb128 0x7
 1850 0b91 46070000 		.4byte	.LASF170
 1851 0b95 74       		.byte	0x74
 1852 0b96 14       		.byte	0x14
 1853 0b97 80       		.byte	0x80
 1854 0b98 08       		.byte	0x8
 1855 0b99 F70B0000 		.4byte	0xbf7
 1856 0b9d 09       		.uleb128 0x9
 1857 0b9e 766D7400 		.ascii	"vmt\000"
 1858 0ba2 14       		.byte	0x14
 1859 0ba3 82       		.byte	0x82
 1860 0ba4 21       		.byte	0x21
 1861 0ba5 7E0C0000 		.4byte	0xc7e
 1862 0ba9 00       		.byte	0
 1863 0baa 08       		.uleb128 0x8
 1864 0bab 12030000 		.4byte	.LASF171
 1865 0baf 14       		.byte	0x14
 1866 0bb0 83       		.byte	0x83
 1867 0bb1 03       		.byte	0x3
 1868 0bb2 72050000 		.4byte	0x572
 1869 0bb6 04       		.byte	0x4
ARM GAS  /var/folders/l5/0x54b2c10074c8bt31ycjvl80000gp/T//ccVzXO7i.s 			page 34


 1870 0bb7 08       		.uleb128 0x8
 1871 0bb8 74010000 		.4byte	.LASF148
 1872 0bbc 14       		.byte	0x14
 1873 0bbd 83       		.byte	0x83
 1874 0bbe 03       		.byte	0x3
 1875 0bbf 780B0000 		.4byte	0xb78
 1876 0bc3 08       		.byte	0x8
 1877 0bc4 08       		.uleb128 0x8
 1878 0bc5 BF020000 		.4byte	.LASF172
 1879 0bc9 14       		.byte	0x14
 1880 0bca 83       		.byte	0x83
 1881 0bcb 03       		.byte	0x3
 1882 0bcc B1070000 		.4byte	0x7b1
 1883 0bd0 0C       		.byte	0xc
 1884 0bd1 08       		.uleb128 0x8
 1885 0bd2 4B030000 		.4byte	.LASF173
 1886 0bd6 14       		.byte	0x14
 1887 0bd7 83       		.byte	0x83
 1888 0bd8 03       		.byte	0x3
 1889 0bd9 BD070000 		.4byte	0x7bd
 1890 0bdd 30       		.byte	0x30
 1891 0bde 09       		.uleb128 0x9
 1892 0bdf 696200   		.ascii	"ib\000"
 1893 0be2 14       		.byte	0x14
 1894 0be3 83       		.byte	0x83
 1895 0be4 03       		.byte	0x3
 1896 0be5 840C0000 		.4byte	0xc84
 1897 0be9 54       		.byte	0x54
 1898 0bea 09       		.uleb128 0x9
 1899 0beb 6F6200   		.ascii	"ob\000"
 1900 0bee 14       		.byte	0x14
 1901 0bef 83       		.byte	0x83
 1902 0bf0 03       		.byte	0x3
 1903 0bf1 840C0000 		.4byte	0xc84
 1904 0bf5 64       		.byte	0x64
 1905 0bf6 00       		.byte	0
 1906 0bf7 1A       		.uleb128 0x1a
 1907 0bf8 53443100 		.ascii	"SD1\000"
 1908 0bfc 19       		.byte	0x19
 1909 0bfd 62       		.byte	0x62
 1910 0bfe 15       		.byte	0x15
 1911 0bff 840B0000 		.4byte	0xb84
 1912 0c03 07       		.uleb128 0x7
 1913 0c04 A8020000 		.4byte	.LASF174
 1914 0c08 20       		.byte	0x20
 1915 0c09 14       		.byte	0x14
 1916 0c0a 75       		.byte	0x75
 1917 0c0b 08       		.byte	0x8
 1918 0c0c 790C0000 		.4byte	0xc79
 1919 0c10 08       		.uleb128 0x8
 1920 0c11 2D000000 		.4byte	.LASF175
 1921 0c15 14       		.byte	0x14
 1922 0c16 76       		.byte	0x76
 1923 0c17 03       		.byte	0x3
 1924 0c18 E8070000 		.4byte	0x7e8
 1925 0c1c 00       		.byte	0
 1926 0c1d 08       		.uleb128 0x8
ARM GAS  /var/folders/l5/0x54b2c10074c8bt31ycjvl80000gp/T//ccVzXO7i.s 			page 35


 1927 0c1e 61070000 		.4byte	.LASF176
 1928 0c22 14       		.byte	0x14
 1929 0c23 76       		.byte	0x76
 1930 0c24 03       		.byte	0x3
 1931 0c25 07080000 		.4byte	0x807
 1932 0c29 04       		.byte	0x4
 1933 0c2a 09       		.uleb128 0x9
 1934 0c2b 70757400 		.ascii	"put\000"
 1935 0c2f 14       		.byte	0x14
 1936 0c30 76       		.byte	0x76
 1937 0c31 03       		.byte	0x3
 1938 0c32 21080000 		.4byte	0x821
 1939 0c36 08       		.byte	0x8
 1940 0c37 09       		.uleb128 0x9
 1941 0c38 67657400 		.ascii	"get\000"
 1942 0c3c 14       		.byte	0x14
 1943 0c3d 76       		.byte	0x76
 1944 0c3e 03       		.byte	0x3
 1945 0c3f D0050000 		.4byte	0x5d0
 1946 0c43 0C       		.byte	0xc
 1947 0c44 08       		.uleb128 0x8
 1948 0c45 D2040000 		.4byte	.LASF177
 1949 0c49 14       		.byte	0x14
 1950 0c4a 76       		.byte	0x76
 1951 0c4b 03       		.byte	0x3
 1952 0c4c E5080000 		.4byte	0x8e5
 1953 0c50 10       		.byte	0x10
 1954 0c51 08       		.uleb128 0x8
 1955 0c52 E1020000 		.4byte	.LASF178
 1956 0c56 14       		.byte	0x14
 1957 0c57 76       		.byte	0x76
 1958 0c58 03       		.byte	0x3
 1959 0c59 FF080000 		.4byte	0x8ff
 1960 0c5d 14       		.byte	0x14
 1961 0c5e 08       		.uleb128 0x8
 1962 0c5f 39040000 		.4byte	.LASF179
 1963 0c63 14       		.byte	0x14
 1964 0c64 76       		.byte	0x76
 1965 0c65 03       		.byte	0x3
 1966 0c66 23090000 		.4byte	0x923
 1967 0c6a 18       		.byte	0x18
 1968 0c6b 08       		.uleb128 0x8
 1969 0c6c E9000000 		.4byte	.LASF180
 1970 0c70 14       		.byte	0x14
 1971 0c71 76       		.byte	0x76
 1972 0c72 03       		.byte	0x3
 1973 0c73 47090000 		.4byte	0x947
 1974 0c77 1C       		.byte	0x1c
 1975 0c78 00       		.byte	0
 1976 0c79 06       		.uleb128 0x6
 1977 0c7a 030C0000 		.4byte	0xc03
 1978 0c7e 0B       		.uleb128 0xb
 1979 0c7f 04       		.byte	0x4
 1980 0c80 790C0000 		.4byte	0xc79
 1981 0c84 13       		.uleb128 0x13
 1982 0c85 AC000000 		.4byte	0xac
 1983 0c89 940C0000 		.4byte	0xc94
ARM GAS  /var/folders/l5/0x54b2c10074c8bt31ycjvl80000gp/T//ccVzXO7i.s 			page 36


 1984 0c8d 14       		.uleb128 0x14
 1985 0c8e 38000000 		.4byte	0x38
 1986 0c92 0F       		.byte	0xf
 1987 0c93 00       		.byte	0
 1988 0c94 18       		.uleb128 0x18
 1989 0c95 07       		.byte	0x7
 1990 0c96 01       		.byte	0x1
 1991 0c97 57000000 		.4byte	0x57
 1992 0c9b 15       		.byte	0x15
 1993 0c9c 4E       		.byte	0x4e
 1994 0c9d 0E       		.byte	0xe
 1995 0c9e C10C0000 		.4byte	0xcc1
 1996 0ca2 19       		.uleb128 0x19
 1997 0ca3 20080000 		.4byte	.LASF181
 1998 0ca7 00       		.byte	0
 1999 0ca8 19       		.uleb128 0x19
 2000 0ca9 2A010000 		.4byte	.LASF182
 2001 0cad 01       		.byte	0x1
 2002 0cae 19       		.uleb128 0x19
 2003 0caf 16080000 		.4byte	.LASF183
 2004 0cb3 02       		.byte	0x2
 2005 0cb4 19       		.uleb128 0x19
 2006 0cb5 55000000 		.4byte	.LASF184
 2007 0cb9 03       		.byte	0x3
 2008 0cba 19       		.uleb128 0x19
 2009 0cbb 6B070000 		.4byte	.LASF185
 2010 0cbf 04       		.byte	0x4
 2011 0cc0 00       		.byte	0
 2012 0cc1 03       		.uleb128 0x3
 2013 0cc2 8A070000 		.4byte	.LASF186
 2014 0cc6 15       		.byte	0x15
 2015 0cc7 54       		.byte	0x54
 2016 0cc8 03       		.byte	0x3
 2017 0cc9 940C0000 		.4byte	0xc94
 2018 0ccd 03       		.uleb128 0x3
 2019 0cce B4000000 		.4byte	.LASF187
 2020 0cd2 16       		.byte	0x16
 2021 0cd3 35       		.byte	0x35
 2022 0cd4 1A       		.byte	0x1a
 2023 0cd5 D90C0000 		.4byte	0xcd9
 2024 0cd9 07       		.uleb128 0x7
 2025 0cda B4000000 		.4byte	.LASF187
 2026 0cde 28       		.byte	0x28
 2027 0cdf 16       		.byte	0x16
 2028 0ce0 7C       		.byte	0x7c
 2029 0ce1 08       		.byte	0x8
 2030 0ce2 420D0000 		.4byte	0xd42
 2031 0ce6 08       		.uleb128 0x8
 2032 0ce7 74010000 		.4byte	.LASF148
 2033 0ceb 16       		.byte	0x16
 2034 0cec 80       		.byte	0x80
 2035 0ced 19       		.byte	0x19
 2036 0cee C10C0000 		.4byte	0xcc1
 2037 0cf2 00       		.byte	0
 2038 0cf3 08       		.uleb128 0x8
 2039 0cf4 78070000 		.4byte	.LASF149
 2040 0cf8 16       		.byte	0x16
ARM GAS  /var/folders/l5/0x54b2c10074c8bt31ycjvl80000gp/T//ccVzXO7i.s 			page 37


 2041 0cf9 84       		.byte	0x84
 2042 0cfa 1A       		.byte	0x1a
 2043 0cfb F50D0000 		.4byte	0xdf5
 2044 0cff 04       		.byte	0x4
 2045 0d00 08       		.uleb128 0x8
 2046 0d01 9A010000 		.4byte	.LASF153
 2047 0d05 16       		.byte	0x16
 2048 0d06 89       		.byte	0x89
 2049 0d07 1A       		.byte	0x1a
 2050 0d08 8C020000 		.4byte	0x28c
 2051 0d0c 08       		.byte	0x8
 2052 0d0d 08       		.uleb128 0x8
 2053 0d0e 32060000 		.4byte	.LASF152
 2054 0d12 16       		.byte	0x16
 2055 0d13 90       		.byte	0x90
 2056 0d14 19       		.byte	0x19
 2057 0d15 F7040000 		.4byte	0x4f7
 2058 0d19 0C       		.byte	0xc
 2059 0d1a 08       		.uleb128 0x8
 2060 0d1b BE000000 		.4byte	.LASF158
 2061 0d1f 16       		.byte	0x16
 2062 0d20 98       		.byte	0x98
 2063 0d21 1A       		.byte	0x1a
 2064 0d22 D9020000 		.4byte	0x2d9
 2065 0d26 1C       		.byte	0x1c
 2066 0d27 08       		.uleb128 0x8
 2067 0d28 A2020000 		.4byte	.LASF155
 2068 0d2c 16       		.byte	0x16
 2069 0d2d 9D       		.byte	0x9d
 2070 0d2e 1A       		.byte	0x1a
 2071 0d2f FB0D0000 		.4byte	0xdfb
 2072 0d33 20       		.byte	0x20
 2073 0d34 08       		.uleb128 0x8
 2074 0d35 0B020000 		.4byte	.LASF188
 2075 0d39 16       		.byte	0x16
 2076 0d3a A2       		.byte	0xa2
 2077 0d3b 17       		.byte	0x17
 2078 0d3c 2C000000 		.4byte	0x2c
 2079 0d40 24       		.byte	0x24
 2080 0d41 00       		.byte	0
 2081 0d42 03       		.uleb128 0x3
 2082 0d43 6E020000 		.4byte	.LASF189
 2083 0d47 16       		.byte	0x16
 2084 0d48 3D       		.byte	0x3d
 2085 0d49 10       		.byte	0x10
 2086 0d4a 4E0D0000 		.4byte	0xd4e
 2087 0d4e 0B       		.uleb128 0xb
 2088 0d4f 04       		.byte	0x4
 2089 0d50 540D0000 		.4byte	0xd54
 2090 0d54 0D       		.uleb128 0xd
 2091 0d55 5F0D0000 		.4byte	0xd5f
 2092 0d59 0E       		.uleb128 0xe
 2093 0d5a 5F0D0000 		.4byte	0xd5f
 2094 0d5e 00       		.byte	0
 2095 0d5f 0B       		.uleb128 0xb
 2096 0d60 04       		.byte	0x4
 2097 0d61 CD0C0000 		.4byte	0xccd
ARM GAS  /var/folders/l5/0x54b2c10074c8bt31ycjvl80000gp/T//ccVzXO7i.s 			page 38


 2098 0d65 0A       		.uleb128 0xa
 2099 0d66 10       		.byte	0x10
 2100 0d67 16       		.byte	0x16
 2101 0d68 44       		.byte	0x44
 2102 0d69 09       		.byte	0x9
 2103 0d6a E40D0000 		.4byte	0xde4
 2104 0d6e 08       		.uleb128 0x8
 2105 0d6f 04020000 		.4byte	.LASF190
 2106 0d73 16       		.byte	0x16
 2107 0d74 48       		.byte	0x48
 2108 0d75 19       		.byte	0x19
 2109 0d76 420D0000 		.4byte	0xd42
 2110 0d7a 00       		.byte	0
 2111 0d7b 08       		.uleb128 0x8
 2112 0d7c CF050000 		.4byte	.LASF191
 2113 0d80 16       		.byte	0x16
 2114 0d81 4F       		.byte	0x4f
 2115 0d82 19       		.byte	0x19
 2116 0d83 AC000000 		.4byte	0xac
 2117 0d87 04       		.byte	0x4
 2118 0d88 08       		.uleb128 0x8
 2119 0d89 DC050000 		.4byte	.LASF192
 2120 0d8d 16       		.byte	0x16
 2121 0d8e 52       		.byte	0x52
 2122 0d8f 19       		.byte	0x19
 2123 0d90 AC000000 		.4byte	0xac
 2124 0d94 05       		.byte	0x5
 2125 0d95 08       		.uleb128 0x8
 2126 0d96 FD020000 		.4byte	.LASF193
 2127 0d9a 16       		.byte	0x16
 2128 0d9b 58       		.byte	0x58
 2129 0d9c 19       		.byte	0x19
 2130 0d9d AC000000 		.4byte	0xac
 2131 0da1 06       		.byte	0x6
 2132 0da2 08       		.uleb128 0x8
 2133 0da3 11020000 		.4byte	.LASF194
 2134 0da7 16       		.byte	0x16
 2135 0da8 5E       		.byte	0x5e
 2136 0da9 19       		.byte	0x19
 2137 0daa AC000000 		.4byte	0xac
 2138 0dae 07       		.byte	0x7
 2139 0daf 08       		.uleb128 0x8
 2140 0db0 27020000 		.4byte	.LASF195
 2141 0db4 16       		.byte	0x16
 2142 0db5 64       		.byte	0x64
 2143 0db6 19       		.byte	0x19
 2144 0db7 AC000000 		.4byte	0xac
 2145 0dbb 08       		.byte	0x8
 2146 0dbc 08       		.uleb128 0x8
 2147 0dbd D6070000 		.4byte	.LASF196
 2148 0dc1 16       		.byte	0x16
 2149 0dc2 6A       		.byte	0x6a
 2150 0dc3 19       		.byte	0x19
 2151 0dc4 AC000000 		.4byte	0xac
 2152 0dc8 09       		.byte	0x9
 2153 0dc9 08       		.uleb128 0x8
 2154 0dca E0010000 		.4byte	.LASF197
ARM GAS  /var/folders/l5/0x54b2c10074c8bt31ycjvl80000gp/T//ccVzXO7i.s 			page 39


 2155 0dce 16       		.byte	0x16
 2156 0dcf 70       		.byte	0x70
 2157 0dd0 19       		.byte	0x19
 2158 0dd1 AC000000 		.4byte	0xac
 2159 0dd5 0A       		.byte	0xa
 2160 0dd6 08       		.uleb128 0x8
 2161 0dd7 E1060000 		.4byte	.LASF198
 2162 0ddb 16       		.byte	0x16
 2163 0ddc 73       		.byte	0x73
 2164 0ddd 19       		.byte	0x19
 2165 0dde D5000000 		.4byte	0xd5
 2166 0de2 0C       		.byte	0xc
 2167 0de3 00       		.byte	0
 2168 0de4 03       		.uleb128 0x3
 2169 0de5 D1080000 		.4byte	.LASF199
 2170 0de9 16       		.byte	0x16
 2171 0dea 75       		.byte	0x75
 2172 0deb 03       		.byte	0x3
 2173 0dec 650D0000 		.4byte	0xd65
 2174 0df0 06       		.uleb128 0x6
 2175 0df1 E40D0000 		.4byte	0xde4
 2176 0df5 0B       		.uleb128 0xb
 2177 0df6 04       		.byte	0x4
 2178 0df7 F00D0000 		.4byte	0xdf0
 2179 0dfb 0B       		.uleb128 0xb
 2180 0dfc 04       		.byte	0x4
 2181 0dfd 010E0000 		.4byte	0xe01
 2182 0e01 1B       		.uleb128 0x1b
 2183 0e02 0F       		.uleb128 0xf
 2184 0e03 C3010000 		.4byte	.LASF200
 2185 0e07 16       		.byte	0x16
 2186 0e08 B6       		.byte	0xb6
 2187 0e09 14       		.byte	0x14
 2188 0e0a CD0C0000 		.4byte	0xccd
 2189 0e0e 13       		.uleb128 0x13
 2190 0e0f C1020000 		.4byte	0x2c1
 2191 0e13 1E0E0000 		.4byte	0xe1e
 2192 0e17 14       		.uleb128 0x14
 2193 0e18 38000000 		.4byte	0x38
 2194 0e1c 45       		.byte	0x45
 2195 0e1d 00       		.byte	0
 2196 0e1e 1C       		.uleb128 0x1c
 2197 0e1f 05090000 		.4byte	.LASF201
 2198 0e23 01       		.byte	0x1
 2199 0e24 19       		.byte	0x19
 2200 0e25 08       		.byte	0x8
 2201 0e26 0E0E0000 		.4byte	0xe0e
 2202 0e2a 05       		.uleb128 0x5
 2203 0e2b 03       		.byte	0x3
 2204 0e2c 00000000 		.4byte	waThread_LED1
 2205 0e30 1C       		.uleb128 0x1c
 2206 0e31 8C010000 		.4byte	.LASF202
 2207 0e35 01       		.byte	0x1
 2208 0e36 28       		.byte	0x28
 2209 0e37 08       		.byte	0x8
 2210 0e38 0E0E0000 		.4byte	0xe0e
 2211 0e3c 05       		.uleb128 0x5
ARM GAS  /var/folders/l5/0x54b2c10074c8bt31ycjvl80000gp/T//ccVzXO7i.s 			page 40


 2212 0e3d 03       		.byte	0x3
 2213 0e3e 00000000 		.4byte	waThread_LED2
 2214 0e42 1D       		.uleb128 0x1d
 2215 0e43 13050000 		.4byte	.LASF216
 2216 0e47 01       		.byte	0x1
 2217 0e48 3B       		.byte	0x3b
 2218 0e49 05       		.byte	0x5
 2219 0e4a 25000000 		.4byte	0x25
 2220 0e4e 00000000 		.4byte	.LFB9
 2221 0e52 98000000 		.4byte	.LFE9-.LFB9
 2222 0e56 01       		.uleb128 0x1
 2223 0e57 9C       		.byte	0x9c
 2224 0e58 220F0000 		.4byte	0xf22
 2225 0e5c 1E       		.uleb128 0x1e
 2226 0e5d 14000000 		.4byte	.LVL12
 2227 0e61 01100000 		.4byte	0x1001
 2228 0e65 1E       		.uleb128 0x1e
 2229 0e66 18000000 		.4byte	.LVL13
 2230 0e6a 0D100000 		.4byte	0x100d
 2231 0e6e 1F       		.uleb128 0x1f
 2232 0e6f 28000000 		.4byte	.LVL14
 2233 0e73 19100000 		.4byte	0x1019
 2234 0e77 8F0E0000 		.4byte	0xe8f
 2235 0e7b 20       		.uleb128 0x20
 2236 0e7c 01       		.uleb128 0x1
 2237 0e7d 50       		.byte	0x50
 2238 0e7e 02       		.uleb128 0x2
 2239 0e7f 75       		.byte	0x75
 2240 0e80 00       		.sleb128 0
 2241 0e81 20       		.uleb128 0x20
 2242 0e82 01       		.uleb128 0x1
 2243 0e83 51       		.byte	0x51
 2244 0e84 03       		.uleb128 0x3
 2245 0e85 40       		.byte	0x40
 2246 0e86 45       		.byte	0x45
 2247 0e87 24       		.byte	0x24
 2248 0e88 20       		.uleb128 0x20
 2249 0e89 01       		.uleb128 0x1
 2250 0e8a 52       		.byte	0x52
 2251 0e8b 02       		.uleb128 0x2
 2252 0e8c 08       		.byte	0x8
 2253 0e8d FF       		.byte	0xff
 2254 0e8e 00       		.byte	0
 2255 0e8f 1F       		.uleb128 0x1f
 2256 0e90 38000000 		.4byte	.LVL15
 2257 0e94 19100000 		.4byte	0x1019
 2258 0e98 B00E0000 		.4byte	0xeb0
 2259 0e9c 20       		.uleb128 0x20
 2260 0e9d 01       		.uleb128 0x1
 2261 0e9e 50       		.byte	0x50
 2262 0e9f 02       		.uleb128 0x2
 2263 0ea0 75       		.byte	0x75
 2264 0ea1 00       		.sleb128 0
 2265 0ea2 20       		.uleb128 0x20
 2266 0ea3 01       		.uleb128 0x1
 2267 0ea4 51       		.byte	0x51
 2268 0ea5 03       		.uleb128 0x3
ARM GAS  /var/folders/l5/0x54b2c10074c8bt31ycjvl80000gp/T//ccVzXO7i.s 			page 41


 2269 0ea6 40       		.byte	0x40
 2270 0ea7 3E       		.byte	0x3e
 2271 0ea8 24       		.byte	0x24
 2272 0ea9 20       		.uleb128 0x20
 2273 0eaa 01       		.uleb128 0x1
 2274 0eab 52       		.byte	0x52
 2275 0eac 02       		.uleb128 0x2
 2276 0ead 08       		.byte	0x8
 2277 0eae FF       		.byte	0xff
 2278 0eaf 00       		.byte	0
 2279 0eb0 1F       		.uleb128 0x1f
 2280 0eb1 50000000 		.4byte	.LVL16
 2281 0eb5 25100000 		.4byte	0x1025
 2282 0eb9 E40E0000 		.4byte	0xee4
 2283 0ebd 20       		.uleb128 0x20
 2284 0ebe 01       		.uleb128 0x1
 2285 0ebf 50       		.byte	0x50
 2286 0ec0 05       		.uleb128 0x5
 2287 0ec1 03       		.byte	0x3
 2288 0ec2 00000000 		.4byte	.LANCHOR0
 2289 0ec6 20       		.uleb128 0x20
 2290 0ec7 01       		.uleb128 0x1
 2291 0ec8 51       		.byte	0x51
 2292 0ec9 03       		.uleb128 0x3
 2293 0eca 0A       		.byte	0xa
 2294 0ecb 1801     		.2byte	0x118
 2295 0ecd 20       		.uleb128 0x20
 2296 0ece 01       		.uleb128 0x1
 2297 0ecf 52       		.byte	0x52
 2298 0ed0 02       		.uleb128 0x2
 2299 0ed1 08       		.byte	0x8
 2300 0ed2 7F       		.byte	0x7f
 2301 0ed3 20       		.uleb128 0x20
 2302 0ed4 01       		.uleb128 0x1
 2303 0ed5 53       		.byte	0x53
 2304 0ed6 05       		.uleb128 0x5
 2305 0ed7 03       		.byte	0x3
 2306 0ed8 00000000 		.4byte	Thread_LED1
 2307 0edc 20       		.uleb128 0x20
 2308 0edd 02       		.uleb128 0x2
 2309 0ede 7D       		.byte	0x7d
 2310 0edf 00       		.sleb128 0
 2311 0ee0 02       		.uleb128 0x2
 2312 0ee1 74       		.byte	0x74
 2313 0ee2 00       		.sleb128 0
 2314 0ee3 00       		.byte	0
 2315 0ee4 1F       		.uleb128 0x1f
 2316 0ee5 68000000 		.4byte	.LVL17
 2317 0ee9 25100000 		.4byte	0x1025
 2318 0eed 180F0000 		.4byte	0xf18
 2319 0ef1 20       		.uleb128 0x20
 2320 0ef2 01       		.uleb128 0x1
 2321 0ef3 50       		.byte	0x50
 2322 0ef4 05       		.uleb128 0x5
 2323 0ef5 03       		.byte	0x3
 2324 0ef6 00000000 		.4byte	.LANCHOR1
 2325 0efa 20       		.uleb128 0x20
ARM GAS  /var/folders/l5/0x54b2c10074c8bt31ycjvl80000gp/T//ccVzXO7i.s 			page 42


 2326 0efb 01       		.uleb128 0x1
 2327 0efc 51       		.byte	0x51
 2328 0efd 03       		.uleb128 0x3
 2329 0efe 0A       		.byte	0xa
 2330 0eff 1801     		.2byte	0x118
 2331 0f01 20       		.uleb128 0x20
 2332 0f02 01       		.uleb128 0x1
 2333 0f03 52       		.byte	0x52
 2334 0f04 02       		.uleb128 0x2
 2335 0f05 08       		.byte	0x8
 2336 0f06 40       		.byte	0x40
 2337 0f07 20       		.uleb128 0x20
 2338 0f08 01       		.uleb128 0x1
 2339 0f09 53       		.byte	0x53
 2340 0f0a 05       		.uleb128 0x5
 2341 0f0b 03       		.byte	0x3
 2342 0f0c 00000000 		.4byte	Thread_LED2
 2343 0f10 20       		.uleb128 0x20
 2344 0f11 02       		.uleb128 0x2
 2345 0f12 7D       		.byte	0x7d
 2346 0f13 00       		.sleb128 0
 2347 0f14 02       		.uleb128 0x2
 2348 0f15 74       		.byte	0x74
 2349 0f16 00       		.sleb128 0
 2350 0f17 00       		.byte	0
 2351 0f18 1E       		.uleb128 0x1e
 2352 0f19 74000000 		.4byte	.LVL18
 2353 0f1d 32100000 		.4byte	0x1032
 2354 0f21 00       		.byte	0
 2355 0f22 21       		.uleb128 0x21
 2356 0f23 21000000 		.4byte	.LASF204
 2357 0f27 01       		.byte	0x1
 2358 0f28 29       		.byte	0x29
 2359 0f29 0E       		.byte	0xe
 2360 0f2a 22010000 		.4byte	0x122
 2361 0f2e 00000000 		.4byte	.LFB8
 2362 0f32 84000000 		.4byte	.LFE8-.LFB8
 2363 0f36 01       		.uleb128 0x1
 2364 0f37 9C       		.byte	0x9c
 2365 0f38 870F0000 		.4byte	0xf87
 2366 0f3c 22       		.uleb128 0x22
 2367 0f3d 7000     		.ascii	"p\000"
 2368 0f3f 01       		.byte	0x1
 2369 0f40 29       		.byte	0x29
 2370 0f41 20       		.byte	0x20
 2371 0f42 D9020000 		.4byte	0x2d9
 2372 0f46 04000000 		.4byte	.LLST0
 2373 0f4a 00000000 		.4byte	.LVUS0
 2374 0f4e 23       		.uleb128 0x23
 2375 0f4f E6080000 		.4byte	.LASF203
 2376 0f53 01       		.byte	0x1
 2377 0f54 2C       		.byte	0x2c
 2378 0f55 0D       		.byte	0xd
 2379 0f56 46010000 		.4byte	0x146
 2380 0f5a 29000000 		.4byte	.LLST1
 2381 0f5e 25000000 		.4byte	.LVUS1
 2382 0f62 1F       		.uleb128 0x1f
ARM GAS  /var/folders/l5/0x54b2c10074c8bt31ycjvl80000gp/T//ccVzXO7i.s 			page 43


 2383 0f63 34000000 		.4byte	.LVL2
 2384 0f67 3F100000 		.4byte	0x103f
 2385 0f6b 760F0000 		.4byte	0xf76
 2386 0f6f 20       		.uleb128 0x20
 2387 0f70 01       		.uleb128 0x1
 2388 0f71 50       		.byte	0x50
 2389 0f72 02       		.uleb128 0x2
 2390 0f73 76       		.byte	0x76
 2391 0f74 00       		.sleb128 0
 2392 0f75 00       		.byte	0
 2393 0f76 24       		.uleb128 0x24
 2394 0f77 5C000000 		.4byte	.LVL5
 2395 0f7b 3F100000 		.4byte	0x103f
 2396 0f7f 20       		.uleb128 0x20
 2397 0f80 01       		.uleb128 0x1
 2398 0f81 50       		.byte	0x50
 2399 0f82 02       		.uleb128 0x2
 2400 0f83 76       		.byte	0x76
 2401 0f84 00       		.sleb128 0
 2402 0f85 00       		.byte	0
 2403 0f86 00       		.byte	0
 2404 0f87 21       		.uleb128 0x21
 2405 0f88 49000000 		.4byte	.LASF205
 2406 0f8c 01       		.byte	0x1
 2407 0f8d 1A       		.byte	0x1a
 2408 0f8e 0E       		.byte	0xe
 2409 0f8f 22010000 		.4byte	0x122
 2410 0f93 00000000 		.4byte	.LFB7
 2411 0f97 5C000000 		.4byte	.LFE7-.LFB7
 2412 0f9b 01       		.uleb128 0x1
 2413 0f9c 9C       		.byte	0x9c
 2414 0f9d 01100000 		.4byte	0x1001
 2415 0fa1 22       		.uleb128 0x22
 2416 0fa2 7000     		.ascii	"p\000"
 2417 0fa4 01       		.byte	0x1
 2418 0fa5 1A       		.byte	0x1a
 2419 0fa6 20       		.byte	0x20
 2420 0fa7 D9020000 		.4byte	0x2d9
 2421 0fab 4B000000 		.4byte	.LLST2
 2422 0faf 47000000 		.4byte	.LVUS2
 2423 0fb3 1F       		.uleb128 0x1f
 2424 0fb4 2C000000 		.4byte	.LVL8
 2425 0fb8 3F100000 		.4byte	0x103f
 2426 0fbc C70F0000 		.4byte	0xfc7
 2427 0fc0 20       		.uleb128 0x20
 2428 0fc1 01       		.uleb128 0x1
 2429 0fc2 50       		.byte	0x50
 2430 0fc3 02       		.uleb128 0x2
 2431 0fc4 74       		.byte	0x74
 2432 0fc5 00       		.sleb128 0
 2433 0fc6 00       		.byte	0
 2434 0fc7 1F       		.uleb128 0x1f
 2435 0fc8 34000000 		.4byte	.LVL9
 2436 0fcc 4B100000 		.4byte	0x104b
 2437 0fd0 DB0F0000 		.4byte	0xfdb
 2438 0fd4 20       		.uleb128 0x20
 2439 0fd5 01       		.uleb128 0x1
ARM GAS  /var/folders/l5/0x54b2c10074c8bt31ycjvl80000gp/T//ccVzXO7i.s 			page 44


 2440 0fd6 50       		.byte	0x50
 2441 0fd7 02       		.uleb128 0x2
 2442 0fd8 08       		.byte	0x8
 2443 0fd9 64       		.byte	0x64
 2444 0fda 00       		.byte	0
 2445 0fdb 1F       		.uleb128 0x1f
 2446 0fdc 44000000 		.4byte	.LVL10
 2447 0fe0 3F100000 		.4byte	0x103f
 2448 0fe4 EF0F0000 		.4byte	0xfef
 2449 0fe8 20       		.uleb128 0x20
 2450 0fe9 01       		.uleb128 0x1
 2451 0fea 50       		.byte	0x50
 2452 0feb 02       		.uleb128 0x2
 2453 0fec 74       		.byte	0x74
 2454 0fed 00       		.sleb128 0
 2455 0fee 00       		.byte	0
 2456 0fef 24       		.uleb128 0x24
 2457 0ff0 4C000000 		.4byte	.LVL11
 2458 0ff4 4B100000 		.4byte	0x104b
 2459 0ff8 20       		.uleb128 0x20
 2460 0ff9 01       		.uleb128 0x1
 2461 0ffa 50       		.byte	0x50
 2462 0ffb 03       		.uleb128 0x3
 2463 0ffc 0A       		.byte	0xa
 2464 0ffd 8403     		.2byte	0x384
 2465 0fff 00       		.byte	0
 2466 1000 00       		.byte	0
 2467 1001 25       		.uleb128 0x25
 2468 1002 CD000000 		.4byte	.LASF206
 2469 1006 CD000000 		.4byte	.LASF206
 2470 100a 17       		.byte	0x17
 2471 100b C9       		.byte	0xc9
 2472 100c 08       		.byte	0x8
 2473 100d 25       		.uleb128 0x25
 2474 100e 40040000 		.4byte	.LASF207
 2475 1012 40040000 		.4byte	.LASF207
 2476 1016 18       		.byte	0x18
 2477 1017 EF       		.byte	0xef
 2478 1018 08       		.byte	0x8
 2479 1019 25       		.uleb128 0x25
 2480 101a E5070000 		.4byte	.LASF208
 2481 101e E5070000 		.4byte	.LASF208
 2482 1022 11       		.byte	0x11
 2483 1023 B6       		.byte	0xb6
 2484 1024 08       		.byte	0x8
 2485 1025 26       		.uleb128 0x26
 2486 1026 A6040000 		.4byte	.LASF209
 2487 102a A6040000 		.4byte	.LASF209
 2488 102e 07       		.byte	0x7
 2489 102f 6401     		.2byte	0x164
 2490 1031 0B       		.byte	0xb
 2491 1032 26       		.uleb128 0x26
 2492 1033 2B080000 		.4byte	.LASF210
 2493 1037 2B080000 		.4byte	.LASF210
 2494 103b 07       		.byte	0x7
 2495 103c 6F01     		.2byte	0x16f
 2496 103e 09       		.byte	0x9
ARM GAS  /var/folders/l5/0x54b2c10074c8bt31ycjvl80000gp/T//ccVzXO7i.s 			page 45


 2497 103f 25       		.uleb128 0x25
 2498 1040 52040000 		.4byte	.LASF211
 2499 1044 52040000 		.4byte	.LASF211
 2500 1048 11       		.byte	0x11
 2501 1049 BA       		.byte	0xba
 2502 104a 08       		.byte	0x8
 2503 104b 26       		.uleb128 0x26
 2504 104c B5050000 		.4byte	.LASF212
 2505 1050 B5050000 		.4byte	.LASF212
 2506 1054 07       		.byte	0x7
 2507 1055 6901     		.2byte	0x169
 2508 1057 08       		.byte	0x8
 2509 1058 00       		.byte	0
 2510              		.section	.debug_abbrev,"",%progbits
 2511              	.Ldebug_abbrev0:
 2512 0000 01       		.uleb128 0x1
 2513 0001 11       		.uleb128 0x11
 2514 0002 01       		.byte	0x1
 2515 0003 25       		.uleb128 0x25
 2516 0004 0E       		.uleb128 0xe
 2517 0005 13       		.uleb128 0x13
 2518 0006 0B       		.uleb128 0xb
 2519 0007 03       		.uleb128 0x3
 2520 0008 0E       		.uleb128 0xe
 2521 0009 1B       		.uleb128 0x1b
 2522 000a 0E       		.uleb128 0xe
 2523 000b 55       		.uleb128 0x55
 2524 000c 17       		.uleb128 0x17
 2525 000d 11       		.uleb128 0x11
 2526 000e 01       		.uleb128 0x1
 2527 000f 10       		.uleb128 0x10
 2528 0010 17       		.uleb128 0x17
 2529 0011 00       		.byte	0
 2530 0012 00       		.byte	0
 2531 0013 02       		.uleb128 0x2
 2532 0014 24       		.uleb128 0x24
 2533 0015 00       		.byte	0
 2534 0016 0B       		.uleb128 0xb
 2535 0017 0B       		.uleb128 0xb
 2536 0018 3E       		.uleb128 0x3e
 2537 0019 0B       		.uleb128 0xb
 2538 001a 03       		.uleb128 0x3
 2539 001b 08       		.uleb128 0x8
 2540 001c 00       		.byte	0
 2541 001d 00       		.byte	0
 2542 001e 03       		.uleb128 0x3
 2543 001f 16       		.uleb128 0x16
 2544 0020 00       		.byte	0
 2545 0021 03       		.uleb128 0x3
 2546 0022 0E       		.uleb128 0xe
 2547 0023 3A       		.uleb128 0x3a
 2548 0024 0B       		.uleb128 0xb
 2549 0025 3B       		.uleb128 0x3b
 2550 0026 0B       		.uleb128 0xb
 2551 0027 39       		.uleb128 0x39
 2552 0028 0B       		.uleb128 0xb
 2553 0029 49       		.uleb128 0x49
ARM GAS  /var/folders/l5/0x54b2c10074c8bt31ycjvl80000gp/T//ccVzXO7i.s 			page 46


 2554 002a 13       		.uleb128 0x13
 2555 002b 00       		.byte	0
 2556 002c 00       		.byte	0
 2557 002d 04       		.uleb128 0x4
 2558 002e 24       		.uleb128 0x24
 2559 002f 00       		.byte	0
 2560 0030 0B       		.uleb128 0xb
 2561 0031 0B       		.uleb128 0xb
 2562 0032 3E       		.uleb128 0x3e
 2563 0033 0B       		.uleb128 0xb
 2564 0034 03       		.uleb128 0x3
 2565 0035 0E       		.uleb128 0xe
 2566 0036 00       		.byte	0
 2567 0037 00       		.byte	0
 2568 0038 05       		.uleb128 0x5
 2569 0039 35       		.uleb128 0x35
 2570 003a 00       		.byte	0
 2571 003b 49       		.uleb128 0x49
 2572 003c 13       		.uleb128 0x13
 2573 003d 00       		.byte	0
 2574 003e 00       		.byte	0
 2575 003f 06       		.uleb128 0x6
 2576 0040 26       		.uleb128 0x26
 2577 0041 00       		.byte	0
 2578 0042 49       		.uleb128 0x49
 2579 0043 13       		.uleb128 0x13
 2580 0044 00       		.byte	0
 2581 0045 00       		.byte	0
 2582 0046 07       		.uleb128 0x7
 2583 0047 13       		.uleb128 0x13
 2584 0048 01       		.byte	0x1
 2585 0049 03       		.uleb128 0x3
 2586 004a 0E       		.uleb128 0xe
 2587 004b 0B       		.uleb128 0xb
 2588 004c 0B       		.uleb128 0xb
 2589 004d 3A       		.uleb128 0x3a
 2590 004e 0B       		.uleb128 0xb
 2591 004f 3B       		.uleb128 0x3b
 2592 0050 0B       		.uleb128 0xb
 2593 0051 39       		.uleb128 0x39
 2594 0052 0B       		.uleb128 0xb
 2595 0053 01       		.uleb128 0x1
 2596 0054 13       		.uleb128 0x13
 2597 0055 00       		.byte	0
 2598 0056 00       		.byte	0
 2599 0057 08       		.uleb128 0x8
 2600 0058 0D       		.uleb128 0xd
 2601 0059 00       		.byte	0
 2602 005a 03       		.uleb128 0x3
 2603 005b 0E       		.uleb128 0xe
 2604 005c 3A       		.uleb128 0x3a
 2605 005d 0B       		.uleb128 0xb
 2606 005e 3B       		.uleb128 0x3b
 2607 005f 0B       		.uleb128 0xb
 2608 0060 39       		.uleb128 0x39
 2609 0061 0B       		.uleb128 0xb
 2610 0062 49       		.uleb128 0x49
ARM GAS  /var/folders/l5/0x54b2c10074c8bt31ycjvl80000gp/T//ccVzXO7i.s 			page 47


 2611 0063 13       		.uleb128 0x13
 2612 0064 38       		.uleb128 0x38
 2613 0065 0B       		.uleb128 0xb
 2614 0066 00       		.byte	0
 2615 0067 00       		.byte	0
 2616 0068 09       		.uleb128 0x9
 2617 0069 0D       		.uleb128 0xd
 2618 006a 00       		.byte	0
 2619 006b 03       		.uleb128 0x3
 2620 006c 08       		.uleb128 0x8
 2621 006d 3A       		.uleb128 0x3a
 2622 006e 0B       		.uleb128 0xb
 2623 006f 3B       		.uleb128 0x3b
 2624 0070 0B       		.uleb128 0xb
 2625 0071 39       		.uleb128 0x39
 2626 0072 0B       		.uleb128 0xb
 2627 0073 49       		.uleb128 0x49
 2628 0074 13       		.uleb128 0x13
 2629 0075 38       		.uleb128 0x38
 2630 0076 0B       		.uleb128 0xb
 2631 0077 00       		.byte	0
 2632 0078 00       		.byte	0
 2633 0079 0A       		.uleb128 0xa
 2634 007a 13       		.uleb128 0x13
 2635 007b 01       		.byte	0x1
 2636 007c 0B       		.uleb128 0xb
 2637 007d 0B       		.uleb128 0xb
 2638 007e 3A       		.uleb128 0x3a
 2639 007f 0B       		.uleb128 0xb
 2640 0080 3B       		.uleb128 0x3b
 2641 0081 0B       		.uleb128 0xb
 2642 0082 39       		.uleb128 0x39
 2643 0083 0B       		.uleb128 0xb
 2644 0084 01       		.uleb128 0x1
 2645 0085 13       		.uleb128 0x13
 2646 0086 00       		.byte	0
 2647 0087 00       		.byte	0
 2648 0088 0B       		.uleb128 0xb
 2649 0089 0F       		.uleb128 0xf
 2650 008a 00       		.byte	0
 2651 008b 0B       		.uleb128 0xb
 2652 008c 0B       		.uleb128 0xb
 2653 008d 49       		.uleb128 0x49
 2654 008e 13       		.uleb128 0x13
 2655 008f 00       		.byte	0
 2656 0090 00       		.byte	0
 2657 0091 0C       		.uleb128 0xc
 2658 0092 0F       		.uleb128 0xf
 2659 0093 00       		.byte	0
 2660 0094 0B       		.uleb128 0xb
 2661 0095 0B       		.uleb128 0xb
 2662 0096 00       		.byte	0
 2663 0097 00       		.byte	0
 2664 0098 0D       		.uleb128 0xd
 2665 0099 15       		.uleb128 0x15
 2666 009a 01       		.byte	0x1
 2667 009b 27       		.uleb128 0x27
ARM GAS  /var/folders/l5/0x54b2c10074c8bt31ycjvl80000gp/T//ccVzXO7i.s 			page 48


 2668 009c 19       		.uleb128 0x19
 2669 009d 01       		.uleb128 0x1
 2670 009e 13       		.uleb128 0x13
 2671 009f 00       		.byte	0
 2672 00a0 00       		.byte	0
 2673 00a1 0E       		.uleb128 0xe
 2674 00a2 05       		.uleb128 0x5
 2675 00a3 00       		.byte	0
 2676 00a4 49       		.uleb128 0x49
 2677 00a5 13       		.uleb128 0x13
 2678 00a6 00       		.byte	0
 2679 00a7 00       		.byte	0
 2680 00a8 0F       		.uleb128 0xf
 2681 00a9 34       		.uleb128 0x34
 2682 00aa 00       		.byte	0
 2683 00ab 03       		.uleb128 0x3
 2684 00ac 0E       		.uleb128 0xe
 2685 00ad 3A       		.uleb128 0x3a
 2686 00ae 0B       		.uleb128 0xb
 2687 00af 3B       		.uleb128 0x3b
 2688 00b0 0B       		.uleb128 0xb
 2689 00b1 39       		.uleb128 0x39
 2690 00b2 0B       		.uleb128 0xb
 2691 00b3 49       		.uleb128 0x49
 2692 00b4 13       		.uleb128 0x13
 2693 00b5 3F       		.uleb128 0x3f
 2694 00b6 19       		.uleb128 0x19
 2695 00b7 3C       		.uleb128 0x3c
 2696 00b8 19       		.uleb128 0x19
 2697 00b9 00       		.byte	0
 2698 00ba 00       		.byte	0
 2699 00bb 10       		.uleb128 0x10
 2700 00bc 17       		.uleb128 0x17
 2701 00bd 01       		.byte	0x1
 2702 00be 0B       		.uleb128 0xb
 2703 00bf 0B       		.uleb128 0xb
 2704 00c0 3A       		.uleb128 0x3a
 2705 00c1 0B       		.uleb128 0xb
 2706 00c2 3B       		.uleb128 0x3b
 2707 00c3 0B       		.uleb128 0xb
 2708 00c4 39       		.uleb128 0x39
 2709 00c5 0B       		.uleb128 0xb
 2710 00c6 01       		.uleb128 0x1
 2711 00c7 13       		.uleb128 0x13
 2712 00c8 00       		.byte	0
 2713 00c9 00       		.byte	0
 2714 00ca 11       		.uleb128 0x11
 2715 00cb 0D       		.uleb128 0xd
 2716 00cc 00       		.byte	0
 2717 00cd 03       		.uleb128 0x3
 2718 00ce 0E       		.uleb128 0xe
 2719 00cf 3A       		.uleb128 0x3a
 2720 00d0 0B       		.uleb128 0xb
 2721 00d1 3B       		.uleb128 0x3b
 2722 00d2 0B       		.uleb128 0xb
 2723 00d3 39       		.uleb128 0x39
 2724 00d4 0B       		.uleb128 0xb
ARM GAS  /var/folders/l5/0x54b2c10074c8bt31ycjvl80000gp/T//ccVzXO7i.s 			page 49


 2725 00d5 49       		.uleb128 0x49
 2726 00d6 13       		.uleb128 0x13
 2727 00d7 00       		.byte	0
 2728 00d8 00       		.byte	0
 2729 00d9 12       		.uleb128 0x12
 2730 00da 15       		.uleb128 0x15
 2731 00db 01       		.byte	0x1
 2732 00dc 27       		.uleb128 0x27
 2733 00dd 19       		.uleb128 0x19
 2734 00de 49       		.uleb128 0x49
 2735 00df 13       		.uleb128 0x13
 2736 00e0 01       		.uleb128 0x1
 2737 00e1 13       		.uleb128 0x13
 2738 00e2 00       		.byte	0
 2739 00e3 00       		.byte	0
 2740 00e4 13       		.uleb128 0x13
 2741 00e5 01       		.uleb128 0x1
 2742 00e6 01       		.byte	0x1
 2743 00e7 49       		.uleb128 0x49
 2744 00e8 13       		.uleb128 0x13
 2745 00e9 01       		.uleb128 0x1
 2746 00ea 13       		.uleb128 0x13
 2747 00eb 00       		.byte	0
 2748 00ec 00       		.byte	0
 2749 00ed 14       		.uleb128 0x14
 2750 00ee 21       		.uleb128 0x21
 2751 00ef 00       		.byte	0
 2752 00f0 49       		.uleb128 0x49
 2753 00f1 13       		.uleb128 0x13
 2754 00f2 2F       		.uleb128 0x2f
 2755 00f3 0B       		.uleb128 0xb
 2756 00f4 00       		.byte	0
 2757 00f5 00       		.byte	0
 2758 00f6 15       		.uleb128 0x15
 2759 00f7 0D       		.uleb128 0xd
 2760 00f8 00       		.byte	0
 2761 00f9 03       		.uleb128 0x3
 2762 00fa 0E       		.uleb128 0xe
 2763 00fb 3A       		.uleb128 0x3a
 2764 00fc 0B       		.uleb128 0xb
 2765 00fd 3B       		.uleb128 0x3b
 2766 00fe 05       		.uleb128 0x5
 2767 00ff 39       		.uleb128 0x39
 2768 0100 0B       		.uleb128 0xb
 2769 0101 49       		.uleb128 0x49
 2770 0102 13       		.uleb128 0x13
 2771 0103 38       		.uleb128 0x38
 2772 0104 0B       		.uleb128 0xb
 2773 0105 00       		.byte	0
 2774 0106 00       		.byte	0
 2775 0107 16       		.uleb128 0x16
 2776 0108 16       		.uleb128 0x16
 2777 0109 00       		.byte	0
 2778 010a 03       		.uleb128 0x3
 2779 010b 0E       		.uleb128 0xe
 2780 010c 3A       		.uleb128 0x3a
 2781 010d 0B       		.uleb128 0xb
ARM GAS  /var/folders/l5/0x54b2c10074c8bt31ycjvl80000gp/T//ccVzXO7i.s 			page 50


 2782 010e 3B       		.uleb128 0x3b
 2783 010f 05       		.uleb128 0x5
 2784 0110 39       		.uleb128 0x39
 2785 0111 0B       		.uleb128 0xb
 2786 0112 49       		.uleb128 0x49
 2787 0113 13       		.uleb128 0x13
 2788 0114 00       		.byte	0
 2789 0115 00       		.byte	0
 2790 0116 17       		.uleb128 0x17
 2791 0117 13       		.uleb128 0x13
 2792 0118 00       		.byte	0
 2793 0119 0B       		.uleb128 0xb
 2794 011a 0B       		.uleb128 0xb
 2795 011b 3A       		.uleb128 0x3a
 2796 011c 0B       		.uleb128 0xb
 2797 011d 3B       		.uleb128 0x3b
 2798 011e 0B       		.uleb128 0xb
 2799 011f 39       		.uleb128 0x39
 2800 0120 0B       		.uleb128 0xb
 2801 0121 00       		.byte	0
 2802 0122 00       		.byte	0
 2803 0123 18       		.uleb128 0x18
 2804 0124 04       		.uleb128 0x4
 2805 0125 01       		.byte	0x1
 2806 0126 3E       		.uleb128 0x3e
 2807 0127 0B       		.uleb128 0xb
 2808 0128 0B       		.uleb128 0xb
 2809 0129 0B       		.uleb128 0xb
 2810 012a 49       		.uleb128 0x49
 2811 012b 13       		.uleb128 0x13
 2812 012c 3A       		.uleb128 0x3a
 2813 012d 0B       		.uleb128 0xb
 2814 012e 3B       		.uleb128 0x3b
 2815 012f 0B       		.uleb128 0xb
 2816 0130 39       		.uleb128 0x39
 2817 0131 0B       		.uleb128 0xb
 2818 0132 01       		.uleb128 0x1
 2819 0133 13       		.uleb128 0x13
 2820 0134 00       		.byte	0
 2821 0135 00       		.byte	0
 2822 0136 19       		.uleb128 0x19
 2823 0137 28       		.uleb128 0x28
 2824 0138 00       		.byte	0
 2825 0139 03       		.uleb128 0x3
 2826 013a 0E       		.uleb128 0xe
 2827 013b 1C       		.uleb128 0x1c
 2828 013c 0B       		.uleb128 0xb
 2829 013d 00       		.byte	0
 2830 013e 00       		.byte	0
 2831 013f 1A       		.uleb128 0x1a
 2832 0140 34       		.uleb128 0x34
 2833 0141 00       		.byte	0
 2834 0142 03       		.uleb128 0x3
 2835 0143 08       		.uleb128 0x8
 2836 0144 3A       		.uleb128 0x3a
 2837 0145 0B       		.uleb128 0xb
 2838 0146 3B       		.uleb128 0x3b
ARM GAS  /var/folders/l5/0x54b2c10074c8bt31ycjvl80000gp/T//ccVzXO7i.s 			page 51


 2839 0147 0B       		.uleb128 0xb
 2840 0148 39       		.uleb128 0x39
 2841 0149 0B       		.uleb128 0xb
 2842 014a 49       		.uleb128 0x49
 2843 014b 13       		.uleb128 0x13
 2844 014c 3F       		.uleb128 0x3f
 2845 014d 19       		.uleb128 0x19
 2846 014e 3C       		.uleb128 0x3c
 2847 014f 19       		.uleb128 0x19
 2848 0150 00       		.byte	0
 2849 0151 00       		.byte	0
 2850 0152 1B       		.uleb128 0x1b
 2851 0153 26       		.uleb128 0x26
 2852 0154 00       		.byte	0
 2853 0155 00       		.byte	0
 2854 0156 00       		.byte	0
 2855 0157 1C       		.uleb128 0x1c
 2856 0158 34       		.uleb128 0x34
 2857 0159 00       		.byte	0
 2858 015a 03       		.uleb128 0x3
 2859 015b 0E       		.uleb128 0xe
 2860 015c 3A       		.uleb128 0x3a
 2861 015d 0B       		.uleb128 0xb
 2862 015e 3B       		.uleb128 0x3b
 2863 015f 0B       		.uleb128 0xb
 2864 0160 39       		.uleb128 0x39
 2865 0161 0B       		.uleb128 0xb
 2866 0162 49       		.uleb128 0x49
 2867 0163 13       		.uleb128 0x13
 2868 0164 02       		.uleb128 0x2
 2869 0165 18       		.uleb128 0x18
 2870 0166 00       		.byte	0
 2871 0167 00       		.byte	0
 2872 0168 1D       		.uleb128 0x1d
 2873 0169 2E       		.uleb128 0x2e
 2874 016a 01       		.byte	0x1
 2875 016b 3F       		.uleb128 0x3f
 2876 016c 19       		.uleb128 0x19
 2877 016d 03       		.uleb128 0x3
 2878 016e 0E       		.uleb128 0xe
 2879 016f 3A       		.uleb128 0x3a
 2880 0170 0B       		.uleb128 0xb
 2881 0171 3B       		.uleb128 0x3b
 2882 0172 0B       		.uleb128 0xb
 2883 0173 39       		.uleb128 0x39
 2884 0174 0B       		.uleb128 0xb
 2885 0175 27       		.uleb128 0x27
 2886 0176 19       		.uleb128 0x19
 2887 0177 49       		.uleb128 0x49
 2888 0178 13       		.uleb128 0x13
 2889 0179 11       		.uleb128 0x11
 2890 017a 01       		.uleb128 0x1
 2891 017b 12       		.uleb128 0x12
 2892 017c 06       		.uleb128 0x6
 2893 017d 40       		.uleb128 0x40
 2894 017e 18       		.uleb128 0x18
 2895 017f 9742     		.uleb128 0x2117
ARM GAS  /var/folders/l5/0x54b2c10074c8bt31ycjvl80000gp/T//ccVzXO7i.s 			page 52


 2896 0181 19       		.uleb128 0x19
 2897 0182 01       		.uleb128 0x1
 2898 0183 13       		.uleb128 0x13
 2899 0184 00       		.byte	0
 2900 0185 00       		.byte	0
 2901 0186 1E       		.uleb128 0x1e
 2902 0187 898201   		.uleb128 0x4109
 2903 018a 00       		.byte	0
 2904 018b 11       		.uleb128 0x11
 2905 018c 01       		.uleb128 0x1
 2906 018d 31       		.uleb128 0x31
 2907 018e 13       		.uleb128 0x13
 2908 018f 00       		.byte	0
 2909 0190 00       		.byte	0
 2910 0191 1F       		.uleb128 0x1f
 2911 0192 898201   		.uleb128 0x4109
 2912 0195 01       		.byte	0x1
 2913 0196 11       		.uleb128 0x11
 2914 0197 01       		.uleb128 0x1
 2915 0198 31       		.uleb128 0x31
 2916 0199 13       		.uleb128 0x13
 2917 019a 01       		.uleb128 0x1
 2918 019b 13       		.uleb128 0x13
 2919 019c 00       		.byte	0
 2920 019d 00       		.byte	0
 2921 019e 20       		.uleb128 0x20
 2922 019f 8A8201   		.uleb128 0x410a
 2923 01a2 00       		.byte	0
 2924 01a3 02       		.uleb128 0x2
 2925 01a4 18       		.uleb128 0x18
 2926 01a5 9142     		.uleb128 0x2111
 2927 01a7 18       		.uleb128 0x18
 2928 01a8 00       		.byte	0
 2929 01a9 00       		.byte	0
 2930 01aa 21       		.uleb128 0x21
 2931 01ab 2E       		.uleb128 0x2e
 2932 01ac 01       		.byte	0x1
 2933 01ad 03       		.uleb128 0x3
 2934 01ae 0E       		.uleb128 0xe
 2935 01af 3A       		.uleb128 0x3a
 2936 01b0 0B       		.uleb128 0xb
 2937 01b1 3B       		.uleb128 0x3b
 2938 01b2 0B       		.uleb128 0xb
 2939 01b3 39       		.uleb128 0x39
 2940 01b4 0B       		.uleb128 0xb
 2941 01b5 27       		.uleb128 0x27
 2942 01b6 19       		.uleb128 0x19
 2943 01b7 49       		.uleb128 0x49
 2944 01b8 13       		.uleb128 0x13
 2945 01b9 11       		.uleb128 0x11
 2946 01ba 01       		.uleb128 0x1
 2947 01bb 12       		.uleb128 0x12
 2948 01bc 06       		.uleb128 0x6
 2949 01bd 40       		.uleb128 0x40
 2950 01be 18       		.uleb128 0x18
 2951 01bf 9742     		.uleb128 0x2117
 2952 01c1 19       		.uleb128 0x19
ARM GAS  /var/folders/l5/0x54b2c10074c8bt31ycjvl80000gp/T//ccVzXO7i.s 			page 53


 2953 01c2 01       		.uleb128 0x1
 2954 01c3 13       		.uleb128 0x13
 2955 01c4 00       		.byte	0
 2956 01c5 00       		.byte	0
 2957 01c6 22       		.uleb128 0x22
 2958 01c7 05       		.uleb128 0x5
 2959 01c8 00       		.byte	0
 2960 01c9 03       		.uleb128 0x3
 2961 01ca 08       		.uleb128 0x8
 2962 01cb 3A       		.uleb128 0x3a
 2963 01cc 0B       		.uleb128 0xb
 2964 01cd 3B       		.uleb128 0x3b
 2965 01ce 0B       		.uleb128 0xb
 2966 01cf 39       		.uleb128 0x39
 2967 01d0 0B       		.uleb128 0xb
 2968 01d1 49       		.uleb128 0x49
 2969 01d2 13       		.uleb128 0x13
 2970 01d3 02       		.uleb128 0x2
 2971 01d4 17       		.uleb128 0x17
 2972 01d5 B742     		.uleb128 0x2137
 2973 01d7 17       		.uleb128 0x17
 2974 01d8 00       		.byte	0
 2975 01d9 00       		.byte	0
 2976 01da 23       		.uleb128 0x23
 2977 01db 34       		.uleb128 0x34
 2978 01dc 00       		.byte	0
 2979 01dd 03       		.uleb128 0x3
 2980 01de 0E       		.uleb128 0xe
 2981 01df 3A       		.uleb128 0x3a
 2982 01e0 0B       		.uleb128 0xb
 2983 01e1 3B       		.uleb128 0x3b
 2984 01e2 0B       		.uleb128 0xb
 2985 01e3 39       		.uleb128 0x39
 2986 01e4 0B       		.uleb128 0xb
 2987 01e5 49       		.uleb128 0x49
 2988 01e6 13       		.uleb128 0x13
 2989 01e7 02       		.uleb128 0x2
 2990 01e8 17       		.uleb128 0x17
 2991 01e9 B742     		.uleb128 0x2137
 2992 01eb 17       		.uleb128 0x17
 2993 01ec 00       		.byte	0
 2994 01ed 00       		.byte	0
 2995 01ee 24       		.uleb128 0x24
 2996 01ef 898201   		.uleb128 0x4109
 2997 01f2 01       		.byte	0x1
 2998 01f3 11       		.uleb128 0x11
 2999 01f4 01       		.uleb128 0x1
 3000 01f5 31       		.uleb128 0x31
 3001 01f6 13       		.uleb128 0x13
 3002 01f7 00       		.byte	0
 3003 01f8 00       		.byte	0
 3004 01f9 25       		.uleb128 0x25
 3005 01fa 2E       		.uleb128 0x2e
 3006 01fb 00       		.byte	0
 3007 01fc 3F       		.uleb128 0x3f
 3008 01fd 19       		.uleb128 0x19
 3009 01fe 3C       		.uleb128 0x3c
ARM GAS  /var/folders/l5/0x54b2c10074c8bt31ycjvl80000gp/T//ccVzXO7i.s 			page 54


 3010 01ff 19       		.uleb128 0x19
 3011 0200 6E       		.uleb128 0x6e
 3012 0201 0E       		.uleb128 0xe
 3013 0202 03       		.uleb128 0x3
 3014 0203 0E       		.uleb128 0xe
 3015 0204 3A       		.uleb128 0x3a
 3016 0205 0B       		.uleb128 0xb
 3017 0206 3B       		.uleb128 0x3b
 3018 0207 0B       		.uleb128 0xb
 3019 0208 39       		.uleb128 0x39
 3020 0209 0B       		.uleb128 0xb
 3021 020a 00       		.byte	0
 3022 020b 00       		.byte	0
 3023 020c 26       		.uleb128 0x26
 3024 020d 2E       		.uleb128 0x2e
 3025 020e 00       		.byte	0
 3026 020f 3F       		.uleb128 0x3f
 3027 0210 19       		.uleb128 0x19
 3028 0211 3C       		.uleb128 0x3c
 3029 0212 19       		.uleb128 0x19
 3030 0213 6E       		.uleb128 0x6e
 3031 0214 0E       		.uleb128 0xe
 3032 0215 03       		.uleb128 0x3
 3033 0216 0E       		.uleb128 0xe
 3034 0217 3A       		.uleb128 0x3a
 3035 0218 0B       		.uleb128 0xb
 3036 0219 3B       		.uleb128 0x3b
 3037 021a 05       		.uleb128 0x5
 3038 021b 39       		.uleb128 0x39
 3039 021c 0B       		.uleb128 0xb
 3040 021d 00       		.byte	0
 3041 021e 00       		.byte	0
 3042 021f 00       		.byte	0
 3043              		.section	.debug_loc,"",%progbits
 3044              	.Ldebug_loc0:
 3045              	.LVUS0:
 3046 0000 00       		.uleb128 0
 3047 0001 00       		.uleb128 .LVU9
 3048 0002 00       		.uleb128 .LVU9
 3049 0003 00       		.uleb128 0
 3050              	.LLST0:
 3051 0004 00000000 		.4byte	.LVL0
 3052 0008 24000000 		.4byte	.LVL1
 3053 000c 0100     		.2byte	0x1
 3054 000e 50       		.byte	0x50
 3055 000f 24000000 		.4byte	.LVL1
 3056 0013 84000000 		.4byte	.LFE8
 3057 0017 0400     		.2byte	0x4
 3058 0019 F3       		.byte	0xf3
 3059 001a 01       		.uleb128 0x1
 3060 001b 50       		.byte	0x50
 3061 001c 9F       		.byte	0x9f
 3062 001d 00000000 		.4byte	0
 3063 0021 00000000 		.4byte	0
 3064              	.LVUS1:
 3065 0025 00       		.uleb128 .LVU14
 3066 0026 00       		.uleb128 .LVU22
ARM GAS  /var/folders/l5/0x54b2c10074c8bt31ycjvl80000gp/T//ccVzXO7i.s 			page 55


 3067 0027 00       		.uleb128 .LVU22
 3068 0028 00       		.uleb128 0
 3069              	.LLST1:
 3070 0029 38000000 		.4byte	.LVL3
 3071 002d 58000000 		.4byte	.LVL4
 3072 0031 0100     		.2byte	0x1
 3073 0033 52       		.byte	0x52
 3074 0034 58000000 		.4byte	.LVL4
 3075 0038 84000000 		.4byte	.LFE8
 3076 003c 0100     		.2byte	0x1
 3077 003e 57       		.byte	0x57
 3078 003f 00000000 		.4byte	0
 3079 0043 00000000 		.4byte	0
 3080              	.LVUS2:
 3081 0047 00       		.uleb128 0
 3082 0048 00       		.uleb128 .LVU35
 3083 0049 00       		.uleb128 .LVU35
 3084 004a 00       		.uleb128 0
 3085              	.LLST2:
 3086 004b 00000000 		.4byte	.LVL6
 3087 004f 1C000000 		.4byte	.LVL7
 3088 0053 0100     		.2byte	0x1
 3089 0055 50       		.byte	0x50
 3090 0056 1C000000 		.4byte	.LVL7
 3091 005a 5C000000 		.4byte	.LFE7
 3092 005e 0400     		.2byte	0x4
 3093 0060 F3       		.byte	0xf3
 3094 0061 01       		.uleb128 0x1
 3095 0062 50       		.byte	0x50
 3096 0063 9F       		.byte	0x9f
 3097 0064 00000000 		.4byte	0
 3098 0068 00000000 		.4byte	0
 3099              		.section	.debug_aranges,"",%progbits
 3100 0000 2C000000 		.4byte	0x2c
 3101 0004 0200     		.2byte	0x2
 3102 0006 00000000 		.4byte	.Ldebug_info0
 3103 000a 04       		.byte	0x4
 3104 000b 00       		.byte	0
 3105 000c 0000     		.2byte	0
 3106 000e 0000     		.2byte	0
 3107 0010 00000000 		.4byte	.LFB8
 3108 0014 84000000 		.4byte	.LFE8-.LFB8
 3109 0018 00000000 		.4byte	.LFB7
 3110 001c 5C000000 		.4byte	.LFE7-.LFB7
 3111 0020 00000000 		.4byte	.LFB9
 3112 0024 98000000 		.4byte	.LFE9-.LFB9
 3113 0028 00000000 		.4byte	0
 3114 002c 00000000 		.4byte	0
 3115              		.section	.debug_ranges,"",%progbits
 3116              	.Ldebug_ranges0:
 3117 0000 00000000 		.4byte	.LFB8
 3118 0004 84000000 		.4byte	.LFE8
 3119 0008 00000000 		.4byte	.LFB7
 3120 000c 5C000000 		.4byte	.LFE7
 3121 0010 00000000 		.4byte	.LFB9
 3122 0014 98000000 		.4byte	.LFE9
 3123 0018 00000000 		.4byte	0
ARM GAS  /var/folders/l5/0x54b2c10074c8bt31ycjvl80000gp/T//ccVzXO7i.s 			page 56


 3124 001c 00000000 		.4byte	0
 3125              		.section	.debug_line,"",%progbits
 3126              	.Ldebug_line0:
 3127 0000 87030000 		.section	.debug_str,"MS",%progbits,1
 3127      03009602 
 3127      00000201 
 3127      FB0E0D00 
 3127      01010101 
 3128              	.LASF96:
 3129 0000 63665F6F 		.ascii	"cf_off_older\000"
 3129      66665F6F 
 3129      6C646572 
 3129      00
 3130              	.LASF42:
 3131 000d 705F6D73 		.ascii	"p_msg\000"
 3131      6700
 3132              	.LASF2:
 3133 0013 73697A65 		.ascii	"size_t\000"
 3133      5F7400
 3134              	.LASF81:
 3135 001a 7264796D 		.ascii	"rdymsg\000"
 3135      736700
 3136              	.LASF204:
 3137 0021 54687265 		.ascii	"Thread_LED2\000"
 3137      61645F4C 
 3137      45443200 
 3138              	.LASF175:
 3139 002d 77726974 		.ascii	"write\000"
 3139      6500
 3140              	.LASF117:
 3141 0033 4F757470 		.ascii	"OutputQueue\000"
 3141      75745175 
 3141      65756500 
 3142              	.LASF3:
 3143 003f 5F5F7569 		.ascii	"__uint8_t\000"
 3143      6E74385F 
 3143      7400
 3144              	.LASF205:
 3145 0049 54687265 		.ascii	"Thread_LED1\000"
 3145      61645F4C 
 3145      45443100 
 3146              	.LASF184:
 3147 0055 5350495F 		.ascii	"SPI_ACTIVE\000"
 3147      41435449 
 3147      564500
 3148              	.LASF68:
 3149 0060 76746C69 		.ascii	"vtlist\000"
 3149      737400
 3150              	.LASF119:
 3151 0067 62736364 		.ascii	"bscdevice_t\000"
 3151      65766963 
 3151      655F7400 
 3152              	.LASF136:
 3153 0073 696F706F 		.ascii	"ioportmask_t\000"
 3153      72746D61 
 3153      736B5F74 
 3153      00
ARM GAS  /var/folders/l5/0x54b2c10074c8bt31ycjvl80000gp/T//ccVzXO7i.s 			page 57


 3154              	.LASF110:
 3155 0080 715F746F 		.ascii	"q_top\000"
 3155      7000
 3156              	.LASF13:
 3157 0086 6C6F6E67 		.ascii	"long long unsigned int\000"
 3157      206C6F6E 
 3157      6720756E 
 3157      7369676E 
 3157      65642069 
 3158              	.LASF92:
 3159 009d 63685F74 		.ascii	"ch_threadsize\000"
 3159      68726561 
 3159      6473697A 
 3159      6500
 3160              	.LASF82:
 3161 00ab 65786974 		.ascii	"exitcode\000"
 3161      636F6465 
 3161      00
 3162              	.LASF187:
 3163 00b4 53504944 		.ascii	"SPIDriver\000"
 3163      72697665 
 3163      7200
 3164              	.LASF158:
 3165 00be 72786275 		.ascii	"rxbuf\000"
 3165      6600
 3166              	.LASF124:
 3167 00c4 64617461 		.ascii	"dataFifo\000"
 3167      4669666F 
 3167      00
 3168              	.LASF206:
 3169 00cd 68616C49 		.ascii	"halInit\000"
 3169      6E697400 
 3170              	.LASF30:
 3171 00d5 705F7072 		.ascii	"p_prio\000"
 3171      696F00
 3172              	.LASF99:
 3173 00dc 63665F6F 		.ascii	"cf_off_state\000"
 3173      66665F73 
 3173      74617465 
 3173      00
 3174              	.LASF180:
 3175 00e9 72656164 		.ascii	"readt\000"
 3175      7400
 3176              	.LASF151:
 3177 00ef 64657669 		.ascii	"device\000"
 3177      636500
 3178              	.LASF107:
 3179 00f6 715F7761 		.ascii	"q_waiting\000"
 3179      6974696E 
 3179      6700
 3180              	.LASF12:
 3181 0100 6C6F6E67 		.ascii	"long long int\000"
 3181      206C6F6E 
 3181      6720696E 
 3181      7400
 3182              	.LASF1:
 3183 010e 7369676E 		.ascii	"signed char\000"
ARM GAS  /var/folders/l5/0x54b2c10074c8bt31ycjvl80000gp/T//ccVzXO7i.s 			page 58


 3183      65642063 
 3183      68617200 
 3184              	.LASF98:
 3185 011a 63665F6F 		.ascii	"cf_off_stklimit\000"
 3185      66665F73 
 3185      746B6C69 
 3185      6D697400 
 3186              	.LASF182:
 3187 012a 5350495F 		.ascii	"SPI_STOP\000"
 3187      53544F50 
 3187      00
 3188              	.LASF100:
 3189 0133 63665F6F 		.ascii	"cf_off_flags\000"
 3189      66665F66 
 3189      6C616773 
 3189      00
 3190              	.LASF167:
 3191 0140 53445F53 		.ascii	"SD_STOP\000"
 3191      544F5000 
 3192              	.LASF71:
 3193 0148 6D5F7175 		.ascii	"m_queue\000"
 3193      65756500 
 3194              	.LASF154:
 3195 0150 61646472 		.ascii	"addr\000"
 3195      00
 3196              	.LASF21:
 3197 0155 74736C69 		.ascii	"tslices_t\000"
 3197      6365735F 
 3197      7400
 3198              	.LASF140:
 3199 015f 4932435F 		.ascii	"I2C_UNINIT\000"
 3199      554E494E 
 3199      495400
 3200              	.LASF162:
 3201 016a 69326361 		.ascii	"i2caddr_t\000"
 3201      6464725F 
 3201      7400
 3202              	.LASF148:
 3203 0174 73746174 		.ascii	"state\000"
 3203      6500
 3204              	.LASF9:
 3205 017a 6C6F6E67 		.ascii	"long int\000"
 3205      20696E74 
 3205      00
 3206              	.LASF19:
 3207 0183 74737461 		.ascii	"tstate_t\000"
 3207      74655F74 
 3207      00
 3208              	.LASF202:
 3209 018c 77615468 		.ascii	"waThread_LED2\000"
 3209      72656164 
 3209      5F4C4544 
 3209      3200
 3210              	.LASF153:
 3211 019a 74687265 		.ascii	"thread\000"
 3211      616400
 3212              	.LASF126:
ARM GAS  /var/folders/l5/0x54b2c10074c8bt31ycjvl80000gp/T//ccVzXO7i.s 			page 59


 3213 01a1 64617461 		.ascii	"dataDelay\000"
 3213      44656C61 
 3213      7900
 3214              	.LASF160:
 3215 01ab 72786964 		.ascii	"rxidx\000"
 3215      7800
 3216              	.LASF109:
 3217 01b1 715F6275 		.ascii	"q_buffer\000"
 3217      66666572 
 3217      00
 3218              	.LASF15:
 3219 01ba 75696E74 		.ascii	"uint16_t\000"
 3219      31365F74 
 3219      00
 3220              	.LASF200:
 3221 01c3 53504930 		.ascii	"SPI0\000"
 3221      00
 3222              	.LASF104:
 3223 01c8 63686465 		.ascii	"chdebug_t\000"
 3223      6275675F 
 3223      7400
 3224              	.LASF143:
 3225 01d2 4932435F 		.ascii	"I2C_ACTIVE_TX\000"
 3225      41435449 
 3225      56455F54 
 3225      5800
 3226              	.LASF197:
 3227 01e0 636C6F63 		.ascii	"clock_phase\000"
 3227      6B5F7068 
 3227      61736500 
 3228              	.LASF32:
 3229 01ec 705F6E65 		.ascii	"p_newer\000"
 3229      77657200 
 3230              	.LASF118:
 3231 01f4 5F69646C 		.ascii	"_idle_thread_wa\000"
 3231      655F7468 
 3231      72656164 
 3231      5F776100 
 3232              	.LASF190:
 3233 0204 656E645F 		.ascii	"end_cb\000"
 3233      636200
 3234              	.LASF188:
 3235 020b 7478636E 		.ascii	"txcnt\000"
 3235      7400
 3236              	.LASF194:
 3237 0211 63686970 		.ascii	"chip_select_polarity0\000"
 3237      5F73656C 
 3237      6563745F 
 3237      706F6C61 
 3237      72697479 
 3238              	.LASF195:
 3239 0227 63686970 		.ascii	"chip_select_polarity1\000"
 3239      5F73656C 
 3239      6563745F 
 3239      706F6C61 
 3239      72697479 
 3240              	.LASF120:
ARM GAS  /var/folders/l5/0x54b2c10074c8bt31ycjvl80000gp/T//ccVzXO7i.s 			page 60


 3241 023d 636F6E74 		.ascii	"control\000"
 3241      726F6C00 
 3242              	.LASF10:
 3243 0245 5F5F7569 		.ascii	"__uint32_t\000"
 3243      6E743332 
 3243      5F7400
 3244              	.LASF49:
 3245 0250 72656761 		.ascii	"regarm_t\000"
 3245      726D5F74 
 3245      00
 3246              	.LASF55:
 3247 0259 76745F70 		.ascii	"vt_prev\000"
 3247      72657600 
 3248              	.LASF123:
 3249 0261 736C6176 		.ascii	"slaveAddress\000"
 3249      65416464 
 3249      72657373 
 3249      00
 3250              	.LASF189:
 3251 026e 73706963 		.ascii	"spicallback_t\000"
 3251      616C6C62 
 3251      61636B5F 
 3251      7400
 3252              	.LASF165:
 3253 027c 49324330 		.ascii	"I2C0\000"
 3253      00
 3254              	.LASF79:
 3255 0281 4576656E 		.ascii	"EventSource\000"
 3255      74536F75 
 3255      72636500 
 3256              	.LASF0:
 3257 028d 756E7369 		.ascii	"unsigned int\000"
 3257      676E6564 
 3257      20696E74 
 3257      00
 3258              	.LASF54:
 3259 029a 76745F6E 		.ascii	"vt_next\000"
 3259      65787400 
 3260              	.LASF155:
 3261 02a2 74786275 		.ascii	"txbuf\000"
 3261      6600
 3262              	.LASF174:
 3263 02a8 53657269 		.ascii	"SerialDriverVMT\000"
 3263      616C4472 
 3263      69766572 
 3263      564D5400 
 3264              	.LASF150:
 3265 02b8 6572726F 		.ascii	"errors\000"
 3265      727300
 3266              	.LASF172:
 3267 02bf 69717565 		.ascii	"iqueue\000"
 3267      756500
 3268              	.LASF11:
 3269 02c6 6C6F6E67 		.ascii	"long unsigned int\000"
 3269      20756E73 
 3269      69676E65 
 3269      6420696E 
ARM GAS  /var/folders/l5/0x54b2c10074c8bt31ycjvl80000gp/T//ccVzXO7i.s 			page 61


 3269      7400
 3270              	.LASF105:
 3271 02d8 63685F64 		.ascii	"ch_debug\000"
 3271      65627567 
 3271      00
 3272              	.LASF178:
 3273 02e1 67657474 		.ascii	"gett\000"
 3273      00
 3274              	.LASF52:
 3275 02e6 76746675 		.ascii	"vtfunc_t\000"
 3275      6E635F74 
 3275      00
 3276              	.LASF86:
 3277 02ef 63685F69 		.ascii	"ch_identifier\000"
 3277      64656E74 
 3277      69666965 
 3277      7200
 3278              	.LASF193:
 3279 02fd 63686970 		.ascii	"chip_select_polarity\000"
 3279      5F73656C 
 3279      6563745F 
 3279      706F6C61 
 3279      72697479 
 3280              	.LASF171:
 3281 0312 6576656E 		.ascii	"event\000"
 3281      7400
 3282              	.LASF51:
 3283 0318 636F6E74 		.ascii	"context\000"
 3283      65787400 
 3284              	.LASF7:
 3285 0320 73686F72 		.ascii	"short unsigned int\000"
 3285      7420756E 
 3285      7369676E 
 3285      65642069 
 3285      6E7400
 3286              	.LASF134:
 3287 0333 6770696F 		.ascii	"gpio_port_t\000"
 3287      5F706F72 
 3287      745F7400 
 3288              	.LASF130:
 3289 033f 6770636C 		.ascii	"gpclr\000"
 3289      7200
 3290              	.LASF23:
 3291 0345 6D73675F 		.ascii	"msg_t\000"
 3291      7400
 3292              	.LASF173:
 3293 034b 6F717565 		.ascii	"oqueue\000"
 3293      756500
 3294              	.LASF64:
 3295 0352 725F6E65 		.ascii	"r_newer\000"
 3295      77657200 
 3296              	.LASF75:
 3297 035a 656C5F6E 		.ascii	"el_next\000"
 3297      65787400 
 3298              	.LASF213:
 3299 0362 474E5520 		.ascii	"GNU C17 8.3.1 20190703 (release) [gcc-8-branch revi"
 3299      43313720 
ARM GAS  /var/folders/l5/0x54b2c10074c8bt31ycjvl80000gp/T//ccVzXO7i.s 			page 62


 3299      382E332E 
 3299      31203230 
 3299      31393037 
 3300 0395 73696F6E 		.ascii	"sion 273027] -mcpu=arm1176jz-s -mno-thumb-interwork"
 3300      20323733 
 3300      3032375D 
 3300      202D6D63 
 3300      70753D61 
 3301 03c8 202D6D66 		.ascii	" -mfloat-abi=soft -marm -march=armv6kz -ggdb -O2 -f"
 3301      6C6F6174 
 3301      2D616269 
 3301      3D736F66 
 3301      74202D6D 
 3302 03fb 6F6D6974 		.ascii	"omit-frame-pointer -ffunction-sections -fdata-secti"
 3302      2D667261 
 3302      6D652D70 
 3302      6F696E74 
 3302      6572202D 
 3303 042e 6F6E7300 		.ascii	"ons\000"
 3304              	.LASF214:
 3305 0432 6D61696E 		.ascii	"main.c\000"
 3305      2E6300
 3306              	.LASF179:
 3307 0439 77726974 		.ascii	"writet\000"
 3307      657400
 3308              	.LASF207:
 3309 0440 63685379 		.ascii	"chSysInit\000"
 3309      73496E69 
 3309      7400
 3310              	.LASF18:
 3311 044a 746D6F64 		.ascii	"tmode_t\000"
 3311      655F7400 
 3312              	.LASF211:
 3313 0452 5F70616C 		.ascii	"_pal_lld_writeport\000"
 3313      5F6C6C64 
 3313      5F777269 
 3313      7465706F 
 3313      727400
 3314              	.LASF47:
 3315 0465 54687265 		.ascii	"ThreadsList\000"
 3315      6164734C 
 3315      69737400 
 3316              	.LASF24:
 3317 0471 6576656E 		.ascii	"eventmask_t\000"
 3317      746D6173 
 3317      6B5F7400 
 3318              	.LASF116:
 3319 047d 496E7075 		.ascii	"InputQueue\000"
 3319      74517565 
 3319      756500
 3320              	.LASF70:
 3321 0488 4D757465 		.ascii	"Mutex\000"
 3321      7800
 3322              	.LASF106:
 3323 048e 47656E65 		.ascii	"GenericQueue\000"
 3323      72696351 
 3323      75657565 
ARM GAS  /var/folders/l5/0x54b2c10074c8bt31ycjvl80000gp/T//ccVzXO7i.s 			page 63


 3323      00
 3324              	.LASF48:
 3325 049b 73746B61 		.ascii	"stkalign_t\000"
 3325      6C69676E 
 3325      5F7400
 3326              	.LASF209:
 3327 04a6 63685468 		.ascii	"chThdCreateStatic\000"
 3327      64437265 
 3327      61746553 
 3327      74617469 
 3327      6300
 3328              	.LASF87:
 3329 04b8 63685F7A 		.ascii	"ch_zero\000"
 3329      65726F00 
 3330              	.LASF101:
 3331 04c0 63665F6F 		.ascii	"cf_off_refs\000"
 3331      66665F72 
 3331      65667300 
 3332              	.LASF131:
 3333 04cc 67706C65 		.ascii	"gplev\000"
 3333      7600
 3334              	.LASF177:
 3335 04d2 70757474 		.ascii	"putt\000"
 3335      00
 3336              	.LASF56:
 3337 04d7 76745F74 		.ascii	"vt_time\000"
 3337      696D6500 
 3338              	.LASF141:
 3339 04df 4932435F 		.ascii	"I2C_STOP\000"
 3339      53544F50 
 3339      00
 3340              	.LASF125:
 3341 04e8 636C6F63 		.ascii	"clockDivider\000"
 3341      6B446976 
 3341      69646572 
 3341      00
 3342              	.LASF108:
 3343 04f5 715F636F 		.ascii	"q_counter\000"
 3343      756E7465 
 3343      7200
 3344              	.LASF57:
 3345 04ff 76745F66 		.ascii	"vt_func\000"
 3345      756E6300 
 3346              	.LASF91:
 3347 0507 63685F74 		.ascii	"ch_timesize\000"
 3347      696D6573 
 3347      697A6500 
 3348              	.LASF216:
 3349 0513 6D61696E 		.ascii	"main\000"
 3349      00
 3350              	.LASF163:
 3351 0518 69635F73 		.ascii	"ic_speed\000"
 3351      70656564 
 3351      00
 3352              	.LASF97:
 3353 0521 63665F6F 		.ascii	"cf_off_name\000"
 3353      66665F6E 
ARM GAS  /var/folders/l5/0x54b2c10074c8bt31ycjvl80000gp/T//ccVzXO7i.s 			page 64


 3353      616D6500 
 3354              	.LASF215:
 3355 052d 2F557365 		.ascii	"/Users/fernandoguirado/Desktop/Chibi/ChibiOS-RPi/de"
 3355      72732F66 
 3355      65726E61 
 3355      6E646F67 
 3355      75697261 
 3356 0560 6D6F732F 		.ascii	"mos/led\000"
 3356      6C656400 
 3357              	.LASF159:
 3358 0568 72786279 		.ascii	"rxbytes\000"
 3358      74657300 
 3359              	.LASF111:
 3360 0570 715F7772 		.ascii	"q_wrptr\000"
 3360      70747200 
 3361              	.LASF63:
 3362 0578 725F6374 		.ascii	"r_ctx\000"
 3362      7800
 3363              	.LASF46:
 3364 057e 54687265 		.ascii	"ThreadsQueue\000"
 3364      61647351 
 3364      75657565 
 3364      00
 3365              	.LASF88:
 3366 058b 63685F73 		.ascii	"ch_size\000"
 3366      697A6500 
 3367              	.LASF137:
 3368 0593 494F504F 		.ascii	"IOPORT0\000"
 3368      52543000 
 3369              	.LASF66:
 3370 059b 725F6375 		.ascii	"r_current\000"
 3370      7272656E 
 3370      7400
 3371              	.LASF65:
 3372 05a5 725F6F6C 		.ascii	"r_older\000"
 3372      64657200 
 3373              	.LASF77:
 3374 05ad 656C5F6D 		.ascii	"el_mask\000"
 3374      61736B00 
 3375              	.LASF212:
 3376 05b5 63685468 		.ascii	"chThdSleep\000"
 3376      64536C65 
 3376      657000
 3377              	.LASF129:
 3378 05c0 67707365 		.ascii	"gpset\000"
 3378      7400
 3379              	.LASF132:
 3380 05c6 67707075 		.ascii	"gppudclk\000"
 3380      64636C6B 
 3380      00
 3381              	.LASF191:
 3382 05cf 6C6F7373 		.ascii	"lossiEnabled\000"
 3382      69456E61 
 3382      626C6564 
 3382      00
 3383              	.LASF192:
 3384 05dc 63686970 		.ascii	"chip_select\000"
ARM GAS  /var/folders/l5/0x54b2c10074c8bt31ycjvl80000gp/T//ccVzXO7i.s 			page 65


 3384      5F73656C 
 3384      65637400 
 3385              	.LASF20:
 3386 05e8 74726566 		.ascii	"trefs_t\000"
 3386      735F7400 
 3387              	.LASF146:
 3388 05f0 69326373 		.ascii	"i2cstate_t\000"
 3388      74617465 
 3388      5F7400
 3389              	.LASF90:
 3390 05fb 63685F70 		.ascii	"ch_ptrsize\000"
 3390      74727369 
 3390      7A6500
 3391              	.LASF115:
 3392 0606 716E6F74 		.ascii	"qnotify_t\000"
 3392      6966795F 
 3392      7400
 3393              	.LASF29:
 3394 0610 705F7072 		.ascii	"p_prev\000"
 3394      657600
 3395              	.LASF22:
 3396 0617 74707269 		.ascii	"tprio_t\000"
 3396      6F5F7400 
 3397              	.LASF112:
 3398 061f 715F7264 		.ascii	"q_rdptr\000"
 3398      70747200 
 3399              	.LASF161:
 3400 0627 69326366 		.ascii	"i2cflags_t\000"
 3400      6C616773 
 3400      5F7400
 3401              	.LASF152:
 3402 0632 6D757465 		.ascii	"mutex\000"
 3402      7800
 3403              	.LASF16:
 3404 0638 696E7433 		.ascii	"int32_t\000"
 3404      325F7400 
 3405              	.LASF4:
 3406 0640 756E7369 		.ascii	"unsigned char\000"
 3406      676E6564 
 3406      20636861 
 3406      7200
 3407              	.LASF76:
 3408 064e 656C5F6C 		.ascii	"el_listener\000"
 3408      69737465 
 3408      6E657200 
 3409              	.LASF78:
 3410 065a 656C5F66 		.ascii	"el_flags\000"
 3410      6C616773 
 3410      00
 3411              	.LASF44:
 3412 0663 705F6D74 		.ascii	"p_mtxlist\000"
 3412      786C6973 
 3412      7400
 3413              	.LASF5:
 3414 066d 73686F72 		.ascii	"short int\000"
 3414      7420696E 
 3414      7400
ARM GAS  /var/folders/l5/0x54b2c10074c8bt31ycjvl80000gp/T//ccVzXO7i.s 			page 66


 3415              	.LASF35:
 3416 0677 705F7374 		.ascii	"p_state\000"
 3416      61746500 
 3417              	.LASF38:
 3418 067f 705F7072 		.ascii	"p_preempt\000"
 3418      65656D70 
 3418      7400
 3419              	.LASF103:
 3420 0689 63665F6F 		.ascii	"cf_off_time\000"
 3420      66665F74 
 3420      696D6500 
 3421              	.LASF33:
 3422 0695 705F6F6C 		.ascii	"p_older\000"
 3422      64657200 
 3423              	.LASF62:
 3424 069d 725F7072 		.ascii	"r_prio\000"
 3424      696F00
 3425              	.LASF133:
 3426 06a4 70696E5F 		.ascii	"pin_base\000"
 3426      62617365 
 3426      00
 3427              	.LASF84:
 3428 06ad 65776D61 		.ascii	"ewmask\000"
 3428      736B00
 3429              	.LASF28:
 3430 06b4 705F6E65 		.ascii	"p_next\000"
 3430      787400
 3431              	.LASF138:
 3432 06bb 494F504F 		.ascii	"IOPORT1\000"
 3432      52543100 
 3433              	.LASF102:
 3434 06c3 63665F6F 		.ascii	"cf_off_preempt\000"
 3434      66665F70 
 3434      7265656D 
 3434      707400
 3435              	.LASF36:
 3436 06d2 705F666C 		.ascii	"p_flags\000"
 3436      61677300 
 3437              	.LASF27:
 3438 06da 54687265 		.ascii	"Thread\000"
 3438      616400
 3439              	.LASF198:
 3440 06e1 636C6F63 		.ascii	"clock_divider\000"
 3440      6B5F6469 
 3440      76696465 
 3440      7200
 3441              	.LASF95:
 3442 06ef 63665F6F 		.ascii	"cf_off_newer\000"
 3442      66665F6E 
 3442      65776572 
 3442      00
 3443              	.LASF145:
 3444 06fc 4932435F 		.ascii	"I2C_LOCKED\000"
 3444      4C4F434B 
 3444      454400
 3445              	.LASF43:
 3446 0707 705F6570 		.ascii	"p_epending\000"
ARM GAS  /var/folders/l5/0x54b2c10074c8bt31ycjvl80000gp/T//ccVzXO7i.s 			page 67


 3446      656E6469 
 3446      6E6700
 3447              	.LASF166:
 3448 0712 53445F55 		.ascii	"SD_UNINIT\000"
 3448      4E494E49 
 3448      5400
 3449              	.LASF17:
 3450 071c 75696E74 		.ascii	"uint32_t\000"
 3450      33325F74 
 3450      00
 3451              	.LASF93:
 3452 0725 63665F6F 		.ascii	"cf_off_prio\000"
 3452      66665F70 
 3452      72696F00 
 3453              	.LASF61:
 3454 0731 725F7175 		.ascii	"r_queue\000"
 3454      65756500 
 3455              	.LASF53:
 3456 0739 56697274 		.ascii	"VirtualTimer\000"
 3456      75616C54 
 3456      696D6572 
 3456      00
 3457              	.LASF170:
 3458 0746 53657269 		.ascii	"SerialDriver\000"
 3458      616C4472 
 3458      69766572 
 3458      00
 3459              	.LASF144:
 3460 0753 4932435F 		.ascii	"I2C_ACTIVE_RX\000"
 3460      41435449 
 3460      56455F52 
 3460      5800
 3461              	.LASF176:
 3462 0761 72656164 		.ascii	"read\000"
 3462      00
 3463              	.LASF85:
 3464 0766 63686172 		.ascii	"char\000"
 3464      00
 3465              	.LASF185:
 3466 076b 5350495F 		.ascii	"SPI_COMPLETE\000"
 3466      434F4D50 
 3466      4C455445 
 3466      00
 3467              	.LASF149:
 3468 0778 636F6E66 		.ascii	"config\000"
 3468      696700
 3469              	.LASF6:
 3470 077f 5F5F7569 		.ascii	"__uint16_t\000"
 3470      6E743136 
 3470      5F7400
 3471              	.LASF186:
 3472 078a 73706973 		.ascii	"spistate_t\000"
 3472      74617465 
 3472      5F7400
 3473              	.LASF73:
 3474 0795 6D5F6E65 		.ascii	"m_next\000"
 3474      787400
ARM GAS  /var/folders/l5/0x54b2c10074c8bt31ycjvl80000gp/T//ccVzXO7i.s 			page 68


 3475              	.LASF26:
 3476 079c 73797374 		.ascii	"systime_t\000"
 3476      696D655F 
 3476      7400
 3477              	.LASF45:
 3478 07a6 705F7265 		.ascii	"p_realprio\000"
 3478      616C7072 
 3478      696F00
 3479              	.LASF8:
 3480 07b1 5F5F696E 		.ascii	"__int32_t\000"
 3480      7433325F 
 3480      7400
 3481              	.LASF142:
 3482 07bb 4932435F 		.ascii	"I2C_READY\000"
 3482      52454144 
 3482      5900
 3483              	.LASF147:
 3484 07c5 49324344 		.ascii	"I2CDriver\000"
 3484      72697665 
 3484      7200
 3485              	.LASF39:
 3486 07cf 705F7469 		.ascii	"p_time\000"
 3486      6D6500
 3487              	.LASF196:
 3488 07d6 636C6F63 		.ascii	"clock_polarity\000"
 3488      6B5F706F 
 3488      6C617269 
 3488      747900
 3489              	.LASF208:
 3490 07e5 5F70616C 		.ascii	"_pal_lld_setgroupmode\000"
 3490      5F6C6C64 
 3490      5F736574 
 3490      67726F75 
 3490      706D6F64 
 3491              	.LASF50:
 3492 07fb 696E7463 		.ascii	"intctx\000"
 3492      747800
 3493              	.LASF41:
 3494 0802 705F6D73 		.ascii	"p_msgqueue\000"
 3494      67717565 
 3494      756500
 3495              	.LASF168:
 3496 080d 53445F52 		.ascii	"SD_READY\000"
 3496      45414459 
 3496      00
 3497              	.LASF183:
 3498 0816 5350495F 		.ascii	"SPI_READY\000"
 3498      52454144 
 3498      5900
 3499              	.LASF181:
 3500 0820 5350495F 		.ascii	"SPI_UNINIT\000"
 3500      554E494E 
 3500      495400
 3501              	.LASF210:
 3502 082b 63685468 		.ascii	"chThdWait\000"
 3502      64576169 
 3502      7400
ARM GAS  /var/folders/l5/0x54b2c10074c8bt31ycjvl80000gp/T//ccVzXO7i.s 			page 69


 3503              	.LASF58:
 3504 0835 76745F70 		.ascii	"vt_par\000"
 3504      617200
 3505              	.LASF25:
 3506 083c 666C6167 		.ascii	"flagsmask_t\000"
 3506      736D6173 
 3506      6B5F7400 
 3507              	.LASF164:
 3508 0848 49324343 		.ascii	"I2CConfig\000"
 3508      6F6E6669 
 3508      6700
 3509              	.LASF169:
 3510 0852 73647374 		.ascii	"sdstate_t\000"
 3510      6174655F 
 3510      7400
 3511              	.LASF157:
 3512 085c 74786964 		.ascii	"txidx\000"
 3512      7800
 3513              	.LASF94:
 3514 0862 63665F6F 		.ascii	"cf_off_ctx\000"
 3514      66665F63 
 3514      747800
 3515              	.LASF37:
 3516 086d 705F7265 		.ascii	"p_refs\000"
 3516      667300
 3517              	.LASF121:
 3518 0874 73746174 		.ascii	"status\000"
 3518      757300
 3519              	.LASF67:
 3520 087b 52656164 		.ascii	"ReadyList\000"
 3520      794C6973 
 3520      7400
 3521              	.LASF113:
 3522 0885 715F6E6F 		.ascii	"q_notify\000"
 3522      74696679 
 3522      00
 3523              	.LASF69:
 3524 088e 726C6973 		.ascii	"rlist\000"
 3524      7400
 3525              	.LASF14:
 3526 0894 75696E74 		.ascii	"uint8_t\000"
 3526      385F7400 
 3527              	.LASF128:
 3528 089c 6C617463 		.ascii	"latch\000"
 3528      6800
 3529              	.LASF74:
 3530 08a2 4576656E 		.ascii	"EventListener\000"
 3530      744C6973 
 3530      74656E65 
 3530      7200
 3531              	.LASF83:
 3532 08b0 77746F62 		.ascii	"wtobjp\000"
 3532      6A7000
 3533              	.LASF34:
 3534 08b7 705F6E61 		.ascii	"p_name\000"
 3534      6D6500
 3535              	.LASF59:
ARM GAS  /var/folders/l5/0x54b2c10074c8bt31ycjvl80000gp/T//ccVzXO7i.s 			page 70


 3536 08be 76745F73 		.ascii	"vt_systime\000"
 3536      79737469 
 3536      6D6500
 3537              	.LASF80:
 3538 08c9 65735F6E 		.ascii	"es_next\000"
 3538      65787400 
 3539              	.LASF199:
 3540 08d1 53504943 		.ascii	"SPIConfig\000"
 3540      6F6E6669 
 3540      6700
 3541              	.LASF89:
 3542 08db 63685F76 		.ascii	"ch_version\000"
 3542      65727369 
 3542      6F6E00
 3543              	.LASF203:
 3544 08e6 73746172 		.ascii	"start\000"
 3544      7400
 3545              	.LASF122:
 3546 08ec 64617461 		.ascii	"dataLength\000"
 3546      4C656E67 
 3546      746800
 3547              	.LASF60:
 3548 08f7 56544C69 		.ascii	"VTList\000"
 3548      737400
 3549              	.LASF114:
 3550 08fe 715F6C69 		.ascii	"q_link\000"
 3550      6E6B00
 3551              	.LASF201:
 3552 0905 77615468 		.ascii	"waThread_LED1\000"
 3552      72656164 
 3552      5F4C4544 
 3552      3100
 3553              	.LASF135:
 3554 0913 50414C43 		.ascii	"PALConfig\000"
 3554      6F6E6669 
 3554      6700
 3555              	.LASF72:
 3556 091d 6D5F6F77 		.ascii	"m_owner\000"
 3556      6E657200 
 3557              	.LASF139:
 3558 0925 70616C5F 		.ascii	"pal_default_config\000"
 3558      64656661 
 3558      756C745F 
 3558      636F6E66 
 3558      696700
 3559              	.LASF31:
 3560 0938 705F6374 		.ascii	"p_ctx\000"
 3560      7800
 3561              	.LASF40:
 3562 093e 705F7761 		.ascii	"p_waiting\000"
 3562      6974696E 
 3562      6700
 3563              	.LASF156:
 3564 0948 74786279 		.ascii	"txbytes\000"
 3564      74657300 
 3565              	.LASF127:
 3566 0950 636C6F63 		.ascii	"clockStretchTimeout\000"
ARM GAS  /var/folders/l5/0x54b2c10074c8bt31ycjvl80000gp/T//ccVzXO7i.s 			page 71


 3566      6B537472 
 3566      65746368 
 3566      54696D65 
 3566      6F757400 
 3567              		.ident	"GCC: (GNU Tools for Arm Embedded Processors 8-2019-q3-update) 8.3.1 20190703 (release) [gc
ARM GAS  /var/folders/l5/0x54b2c10074c8bt31ycjvl80000gp/T//ccVzXO7i.s 			page 72


DEFINED SYMBOLS
                            *ABS*:0000000000000000 main.c
/var/folders/l5/0x54b2c10074c8bt31ycjvl80000gp/T//ccVzXO7i.s:16     .text.Thread_LED2:0000000000000000 $a
/var/folders/l5/0x54b2c10074c8bt31ycjvl80000gp/T//ccVzXO7i.s:22     .text.Thread_LED2:0000000000000000 Thread_LED2
/var/folders/l5/0x54b2c10074c8bt31ycjvl80000gp/T//ccVzXO7i.s:103    .text.Thread_LED2:0000000000000070 $d
/var/folders/l5/0x54b2c10074c8bt31ycjvl80000gp/T//ccVzXO7i.s:112    .text.Thread_LED1:0000000000000000 $a
/var/folders/l5/0x54b2c10074c8bt31ycjvl80000gp/T//ccVzXO7i.s:117    .text.Thread_LED1:0000000000000000 Thread_LED1
/var/folders/l5/0x54b2c10074c8bt31ycjvl80000gp/T//ccVzXO7i.s:168    .text.Thread_LED1:0000000000000050 $d
/var/folders/l5/0x54b2c10074c8bt31ycjvl80000gp/T//ccVzXO7i.s:175    .text.startup.main:0000000000000000 $a
/var/folders/l5/0x54b2c10074c8bt31ycjvl80000gp/T//ccVzXO7i.s:181    .text.startup.main:0000000000000000 main
/var/folders/l5/0x54b2c10074c8bt31ycjvl80000gp/T//ccVzXO7i.s:250    .text.startup.main:0000000000000080 $d
/var/folders/l5/0x54b2c10074c8bt31ycjvl80000gp/T//ccVzXO7i.s:260    .bss.waThread_LED1:0000000000000000 $d
/var/folders/l5/0x54b2c10074c8bt31ycjvl80000gp/T//ccVzXO7i.s:264    .bss.waThread_LED1:0000000000000000 waThread_LED1
/var/folders/l5/0x54b2c10074c8bt31ycjvl80000gp/T//ccVzXO7i.s:267    .bss.waThread_LED2:0000000000000000 $d
/var/folders/l5/0x54b2c10074c8bt31ycjvl80000gp/T//ccVzXO7i.s:271    .bss.waThread_LED2:0000000000000000 waThread_LED2
/var/folders/l5/0x54b2c10074c8bt31ycjvl80000gp/T//ccVzXO7i.s:274    .rodata.Thread_LED1.str1.4:0000000000000000 $d
/var/folders/l5/0x54b2c10074c8bt31ycjvl80000gp/T//ccVzXO7i.s:278    .rodata.Thread_LED2.str1.4:0000000000000000 $d

UNDEFINED SYMBOLS
_pal_lld_writeport
IOPORT0
rlist
vtlist
chThdSleep
halInit
chSysInit
_pal_lld_setgroupmode
chThdCreateStatic
chThdWait
