ARM GAS  /var/folders/l5/0x54b2c10074c8bt31ycjvl80000gp/T//ccVzXO7i.s 			page 1


   1              		.cpu arm1176jz-s
   2              		.eabi_attribute 20, 1
   3              		.eabi_attribute 21, 1
   4              		.eabi_attribute 23, 3
   5              		.eabi_attribute 24, 1
   6              		.eabi_attribute 25, 1
   7              		.eabi_attribute 26, 1
   8              		.eabi_attribute 30, 2
   9              		.eabi_attribute 34, 1
  10              		.eabi_attribute 18, 4
  11              		.file	"main.c"
  12              		.text
  13              	.Ltext0:
  14              		.cfi_sections	.debug_frame
  15              		.section	.text.Thread_LED2,"ax",%progbits
  16              		.align	2
  17              		.arch armv6kz
  18              		.syntax unified
  19              		.arm
  20              		.fpu softvfp
  21              		.type	Thread_LED2, %function
  22              	Thread_LED2:
  23              	.LVL0:
  24              	.LFB8:
  25              		.file 1 "main.c"
  26              		.loc 1 41 35 view -0
  27              		.cfi_startproc
  28              		@ args = 0, pretend = 0, frame = 0
  29              		@ frame_needed = 0, uses_anonymous_args = 0
  30              		.loc 1 42 3 view .LVU1
  31              		.loc 1 43 3 view .LVU2
  32              		.loc 1 41 35 is_stmt 0 view .LVU3
  33 0000 F0412DE9 		push	{r4, r5, r6, r7, r8, lr}
  34              		.cfi_def_cfa_offset 24
  35              		.cfi_offset 4, -24
  36              		.cfi_offset 5, -20
  37              		.cfi_offset 6, -16
  38              		.cfi_offset 7, -12
  39              		.cfi_offset 8, -8
  40              		.cfi_offset 14, -4
  41 0004 64809FE5 		ldr	r8, .L9
  42              		.loc 1 43 3 view .LVU4
  43 0008 64309FE5 		ldr	r3, .L9+4
  44              		.loc 1 46 5 view .LVU5
  45 000c 0860A0E1 		mov	r6, r8
  46              		.loc 1 43 3 view .LVU6
  47 0010 183093E5 		ldr	r3, [r3, #24]
  48 0014 5C209FE5 		ldr	r2, .L9+8
  49 0018 5C409FE5 		ldr	r4, .L9+12
  50              		.loc 1 48 11 view .LVU7
  51 001c 5C509FE5 		ldr	r5, .L9+16
  52              		.loc 1 43 3 view .LVU8
  53 0020 182083E5 		str	r2, [r3, #24]
  54              	.LVL1:
  55              	.L4:
  56              		.loc 1 44 3 is_stmt 1 view .LVU9
  57              		.loc 1 45 3 view .LVU10
ARM GAS  /var/folders/l5/0x54b2c10074c8bt31ycjvl80000gp/T//ccVzXO7i.s 			page 2


  58              		.loc 1 46 5 view .LVU11
  59 0024 001098E5 		ldr	r1, [r8]
  60 0028 0600A0E1 		mov	r0, r6
  61 002c 0117C1E3 		bic	r1, r1, #262144
  62 0030 FEFFFFEB 		bl	_pal_lld_writeport
  63              	.LVL2:
  64              		.loc 1 47 5 view .LVU12
  65              		.loc 1 47 11 is_stmt 0 view .LVU13
  66 0034 0C2094E5 		ldr	r2, [r4, #12]
  67              	.LVL3:
  68              		.loc 1 48 5 is_stmt 1 view .LVU14
  69              	.L2:
  70              		.loc 1 48 34 discriminator 1 view .LVU15
  71              		.loc 1 48 12 is_stmt 0 discriminator 1 view .LVU16
  72 0038 0C3094E5 		ldr	r3, [r4, #12]
  73              		.loc 1 48 23 discriminator 1 view .LVU17
  74 003c 023043E0 		sub	r3, r3, r2
  75              		.loc 1 48 11 discriminator 1 view .LVU18
  76 0040 050053E1 		cmp	r3, r5
  77 0044 FBFFFF9A 		bls	.L2
  78              		.loc 1 49 5 is_stmt 1 view .LVU19
  79              		.loc 1 50 5 is_stmt 0 view .LVU20
  80 0048 001098E5 		ldr	r1, [r8]
  81 004c 0600A0E1 		mov	r0, r6
  82 0050 011781E3 		orr	r1, r1, #262144
  83              		.loc 1 49 11 view .LVU21
  84 0054 0C7094E5 		ldr	r7, [r4, #12]
  85              	.LVL4:
  86              		.loc 1 50 5 is_stmt 1 view .LVU22
  87 0058 FEFFFFEB 		bl	_pal_lld_writeport
  88              	.LVL5:
  89              		.loc 1 51 5 view .LVU23
  90              	.L3:
  91              		.loc 1 51 34 discriminator 1 view .LVU24
  92              		.loc 1 51 12 is_stmt 0 discriminator 1 view .LVU25
  93 005c 0C3094E5 		ldr	r3, [r4, #12]
  94              		.loc 1 51 23 discriminator 1 view .LVU26
  95 0060 073043E0 		sub	r3, r3, r7
  96              		.loc 1 51 11 discriminator 1 view .LVU27
  97 0064 050053E1 		cmp	r3, r5
  98 0068 FBFFFF9A 		bls	.L3
  99 006c ECFFFFEA 		b	.L4
 100              	.L10:
 101              		.align	2
 102              	.L9:
 103 0070 00000000 		.word	IOPORT0
 104 0074 00000000 		.word	rlist
 105 0078 00000000 		.word	.LC0
 106 007c 00000000 		.word	vtlist
 107 0080 F3010000 		.word	499
 108              		.cfi_endproc
 109              	.LFE8:
 110              		.size	Thread_LED2, .-Thread_LED2
 111              		.section	.text.Thread_LED1,"ax",%progbits
 112              		.align	2
 113              		.syntax unified
 114              		.arm
ARM GAS  /var/folders/l5/0x54b2c10074c8bt31ycjvl80000gp/T//ccVzXO7i.s 			page 3


 115              		.fpu softvfp
 116              		.type	Thread_LED1, %function
 117              	Thread_LED1:
 118              	.LVL6:
 119              	.LFB7:
 120              		.loc 1 26 35 is_stmt 1 view -0
 121              		.cfi_startproc
 122              		@ Volatile: function does not return.
 123              		@ args = 0, pretend = 0, frame = 0
 124              		@ frame_needed = 0, uses_anonymous_args = 0
 125              		.loc 1 27 3 view .LVU29
 126              		.loc 1 28 3 view .LVU30
 127              		.loc 1 26 35 is_stmt 0 view .LVU31
 128 0000 10402DE9 		push	{r4, lr}
 129              		.cfi_def_cfa_offset 8
 130              		.cfi_offset 4, -8
 131              		.cfi_offset 14, -4
 132 0004 44409FE5 		ldr	r4, .L14
 133              		.loc 1 28 3 view .LVU32
 134 0008 44309FE5 		ldr	r3, .L14+4
 135              		.loc 1 30 5 view .LVU33
 136 000c 0450A0E1 		mov	r5, r4
 137              		.loc 1 28 3 view .LVU34
 138 0010 183093E5 		ldr	r3, [r3, #24]
 139 0014 3C209FE5 		ldr	r2, .L14+8
 140 0018 182083E5 		str	r2, [r3, #24]
 141              	.LVL7:
 142              	.L12:
 143              		.loc 1 29 3 is_stmt 1 discriminator 1 view .LVU35
 144              		.loc 1 30 5 discriminator 1 view .LVU36
 145 001c 001094E5 		ldr	r1, [r4]
 146 0020 0500A0E1 		mov	r0, r5
 147 0024 0214C1E3 		bic	r1, r1, #33554432
 148 0028 FEFFFFEB 		bl	_pal_lld_writeport
 149              	.LVL8:
 150              		.loc 1 31 5 discriminator 1 view .LVU37
 151 002c 6400A0E3 		mov	r0, #100
 152 0030 FEFFFFEB 		bl	chThdSleep
 153              	.LVL9:
 154              		.loc 1 32 5 discriminator 1 view .LVU38
 155 0034 001094E5 		ldr	r1, [r4]
 156 0038 0500A0E1 		mov	r0, r5
 157 003c 021481E3 		orr	r1, r1, #33554432
 158 0040 FEFFFFEB 		bl	_pal_lld_writeport
 159              	.LVL10:
 160              		.loc 1 33 5 discriminator 1 view .LVU39
 161 0044 E10FA0E3 		mov	r0, #900
 162 0048 FEFFFFEB 		bl	chThdSleep
 163              	.LVL11:
 164 004c F2FFFFEA 		b	.L12
 165              	.L15:
 166              		.align	2
 167              	.L14:
 168 0050 00000000 		.word	IOPORT0
 169 0054 00000000 		.word	rlist
 170 0058 00000000 		.word	.LC1
 171              		.cfi_endproc
ARM GAS  /var/folders/l5/0x54b2c10074c8bt31ycjvl80000gp/T//ccVzXO7i.s 			page 4


 172              	.LFE7:
 173              		.size	Thread_LED1, .-Thread_LED1
 174              		.section	.text.startup.main,"ax",%progbits
 175              		.align	2
 176              		.global	main
 177              		.syntax unified
 178              		.arm
 179              		.fpu softvfp
 180              		.type	main, %function
 181              	main:
 182              	.LFB9:
 183              		.loc 1 59 16 view -0
 184              		.cfi_startproc
 185              		@ args = 0, pretend = 0, frame = 0
 186              		@ frame_needed = 0, uses_anonymous_args = 0
 187              		.loc 1 60 3 view .LVU41
 188              		.loc 1 59 16 is_stmt 0 view .LVU42
 189 0000 30402DE9 		push	{r4, r5, lr}
 190              		.cfi_def_cfa_offset 12
 191              		.cfi_offset 4, -12
 192              		.cfi_offset 5, -8
 193              		.cfi_offset 14, -4
 194              		.loc 1 66 3 view .LVU43
 195 0004 0040A0E3 		mov	r4, #0
 196              		.loc 1 63 3 view .LVU44
 197 0008 70509FE5 		ldr	r5, .L18
 198              		.loc 1 59 16 view .LVU45
 199 000c 0CD04DE2 		sub	sp, sp, #12
 200              		.cfi_def_cfa_offset 24
 201              		.loc 1 60 3 view .LVU46
 202 0010 FEFFFFEB 		bl	halInit
 203              	.LVL12:
 204              		.loc 1 61 3 is_stmt 1 view .LVU47
 205 0014 FEFFFFEB 		bl	chSysInit
 206              	.LVL13:
 207              		.loc 1 63 3 view .LVU48
 208 0018 0500A0E1 		mov	r0, r5
 209 001c FF20A0E3 		mov	r2, #255
 210 0020 0214A0E3 		mov	r1, #33554432
 211 0024 FEFFFFEB 		bl	_pal_lld_setgroupmode
 212              	.LVL14:
 213              		.loc 1 64 3 view .LVU49
 214 0028 0500A0E1 		mov	r0, r5
 215 002c FF20A0E3 		mov	r2, #255
 216 0030 0117A0E3 		mov	r1, #262144
 217 0034 FEFFFFEB 		bl	_pal_lld_setgroupmode
 218              	.LVL15:
 219              		.loc 1 66 3 view .LVU50
 220 0038 00408DE5 		str	r4, [sp]
 221 003c 40309FE5 		ldr	r3, .L18+4
 222 0040 7F20A0E3 		mov	r2, #127
 223 0044 461FA0E3 		mov	r1, #280
 224 0048 38009FE5 		ldr	r0, .L18+8
 225 004c FEFFFFEB 		bl	chThdCreateStatic
 226              	.LVL16:
 227              		.loc 1 67 3 view .LVU51
 228 0050 4020A0E3 		mov	r2, #64
ARM GAS  /var/folders/l5/0x54b2c10074c8bt31ycjvl80000gp/T//ccVzXO7i.s 			page 5


 229 0054 461FA0E3 		mov	r1, #280
 230 0058 00408DE5 		str	r4, [sp]
 231 005c 28309FE5 		ldr	r3, .L18+12
 232 0060 28009FE5 		ldr	r0, .L18+16
 233 0064 FEFFFFEB 		bl	chThdCreateStatic
 234              	.LVL17:
 235              		.loc 1 70 3 view .LVU52
 236 0068 24309FE5 		ldr	r3, .L18+20
 237 006c 180093E5 		ldr	r0, [r3, #24]
 238 0070 FEFFFFEB 		bl	chThdWait
 239              	.LVL18:
 240              		.loc 1 72 3 view .LVU53
 241              		.loc 1 73 1 is_stmt 0 view .LVU54
 242 0074 0400A0E1 		mov	r0, r4
 243 0078 0CD08DE2 		add	sp, sp, #12
 244              		.cfi_def_cfa_offset 12
 245              		@ sp needed
 246 007c 3080BDE8 		pop	{r4, r5, pc}
 247              	.L19:
 248              		.align	2
 249              	.L18:
 250 0080 00000000 		.word	IOPORT0
 251 0084 00000000 		.word	Thread_LED1
 252 0088 00000000 		.word	.LANCHOR0
 253 008c 00000000 		.word	Thread_LED2
 254 0090 00000000 		.word	.LANCHOR1
 255 0094 00000000 		.word	rlist
 256              		.cfi_endproc
 257              	.LFE9:
 258              		.size	main, .-main
 259              		.section	.bss.waThread_LED1,"aw",%nobits
 260              		.align	2
 261              		.set	.LANCHOR0,. + 0
 262              		.type	waThread_LED1, %object
 263              		.size	waThread_LED1, 280
 264              	waThread_LED1:
 265 0000 00000000 		.space	280
 265      00000000 
 265      00000000 
 265      00000000 
 265      00000000 
 266              		.section	.bss.waThread_LED2,"aw",%nobits
 267              		.align	2
 268              		.set	.LANCHOR1,. + 0
 269              		.type	waThread_LED2, %object
 270              		.size	waThread_LED2, 280
 271              	waThread_LED2:
 272 0000 00000000 		.space	280
 272      00000000 
 272      00000000 
 272      00000000 
 272      00000000 
 273              		.section	.rodata.Thread_LED1.str1.4,"aMS",%progbits,1
 274              		.align	2
 275              	.LC1:
 276 0000 626C696E 		.ascii	"blinker-1\000"
 276      6B65722D 
ARM GAS  /var/folders/l5/0x54b2c10074c8bt31ycjvl80000gp/T//ccVzXO7i.s 			page 6


 276      3100
 277              		.section	.rodata.Thread_LED2.str1.4,"aMS",%progbits,1
 278              		.align	2
 279              	.LC0:
 280 0000 626C696E 		.ascii	"blinker-2\000"
 280      6B65722D 
 280      3200
 281              		.text
 282              	.Letext0:
 283              		.file 2 "/usr/local/Cellar/arm-gcc-bin/8-2019-q3-update/lib/gcc/arm-none-eabi/8.3.1/include/stddef
 284              		.file 3 "/usr/local/Cellar/arm-gcc-bin/8-2019-q3-update/arm-none-eabi/include/machine/_default_typ
 285              		.file 4 "/usr/local/Cellar/arm-gcc-bin/8-2019-q3-update/arm-none-eabi/include/sys/_stdint.h"
 286              		.file 5 "../../os/ports/GCC/ARM/chtypes.h"
 287              		.file 6 "../../os/kernel/include/chlists.h"
 288              		.file 7 "../../os/kernel/include/chthreads.h"
 289              		.file 8 "../../os/ports/GCC/ARM/chcore.h"
 290              		.file 9 "../../os/kernel/include/chvt.h"
 291              		.file 10 "../../os/kernel/include/chschd.h"
 292              		.file 11 "../../os/kernel/include/chmtx.h"
 293              		.file 12 "../../os/kernel/include/chevents.h"
 294              		.file 13 "../../os/kernel/include/chregistry.h"
 295              		.file 14 "../../os/kernel/include/chqueues.h"
 296              		.file 15 "../../os/kernel/include/ch.h"
 297              		.file 16 "../../os/hal/platforms/BCM2835/bcm2835.h"
 298              		.file 17 "../../os/hal/platforms/BCM2835/pal_lld.h"
 299              		.file 18 "../../os/hal/include/i2c.h"
 300              		.file 19 "../../os/hal/platforms/BCM2835/i2c_lld.h"
 301              		.file 20 "../../os/hal/include/serial.h"
 302              		.file 21 "../../os/hal/include/spi.h"
 303              		.file 22 "../../os/hal/platforms/BCM2835/spi_lld.h"
 304              		.file 23 "../../os/hal/include/hal.h"
 305              		.file 24 "../../os/kernel/include/chsys.h"
 306              		.file 25 "../../os/hal/platforms/BCM2835/serial_lld.h"