ARM GAS  /var/folders/l5/0x54b2c10074c8bt31ycjvl80000gp/T//ccM3yBF2.s 			page 1


   1              		.cpu arm1176jz-s
   2              		.eabi_attribute 20, 1
   3              		.eabi_attribute 21, 1
   4              		.eabi_attribute 23, 3
   5              		.eabi_attribute 24, 1
   6              		.eabi_attribute 25, 1
   7              		.eabi_attribute 26, 1
   8              		.eabi_attribute 30, 2
   9              		.eabi_attribute 34, 1
  10              		.eabi_attribute 18, 4
  11              		.file	"testmtx.c"
  12              		.text
  13              	.Ltext0:
  14              		.cfi_sections	.debug_frame
  15              		.section	.text.mtx1_execute,"ax",%progbits
  16              		.align	2
  17              		.arch armv6kz
  18              		.syntax unified
  19              		.arm
  20              		.fpu softvfp
  21              		.type	mtx1_execute, %function
  22              	mtx1_execute:
  23              	.LFB9:
  24              		.file 1 "../../test/testmtx.c"
  25              		.loc 1 101 32 view -0
  26              		.cfi_startproc
  27              		@ args = 0, pretend = 0, frame = 0
  28              		@ frame_needed = 0, uses_anonymous_args = 0
  29              		.loc 1 103 3 view .LVU1
  30              		.loc 1 101 32 is_stmt 0 view .LVU2
  31 0000 F0402DE9 		push	{r4, r5, r6, r7, lr}
  32              		.cfi_def_cfa_offset 20
  33              		.cfi_offset 4, -20
  34              		.cfi_offset 5, -16
  35              		.cfi_offset 6, -12
  36              		.cfi_offset 7, -8
  37              		.cfi_offset 14, -4
  38              		.loc 1 103 18 view .LVU3
  39 0004 00719FE5 		ldr	r7, .L6
  40              		.loc 1 101 32 view .LVU4
  41 0008 0CD04DE2 		sub	sp, sp, #12
  42              		.cfi_def_cfa_offset 32
  43              		.loc 1 103 11 view .LVU5
  44 000c 183097E5 		ldr	r3, [r7, #24]
  45              		.loc 1 104 3 view .LVU6
  46 0010 F8009FE5 		ldr	r0, .L6+4
  47              		.loc 1 103 11 view .LVU7
  48 0014 084093E5 		ldr	r4, [r3, #8]
  49              	.LVL0:
  50              		.loc 1 104 3 is_stmt 1 view .LVU8
  51              		.loc 1 105 16 is_stmt 0 view .LVU9
  52 0018 F4609FE5 		ldr	r6, .L6+8
  53              		.loc 1 104 3 view .LVU10
  54 001c FEFFFFEB 		bl	chMtxLock
  55              	.LVL1:
  56              		.loc 1 105 3 is_stmt 1 view .LVU11
  57              		.loc 1 105 16 is_stmt 0 view .LVU12
ARM GAS  /var/folders/l5/0x54b2c10074c8bt31ycjvl80000gp/T//ccM3yBF2.s 			page 2


  58 0020 F0309FE5 		ldr	r3, .L6+12
  59 0024 012084E2 		add	r2, r4, #1
  60 0028 00308DE5 		str	r3, [sp]
  61 002c 461FA0E3 		mov	r1, #280
  62 0030 E4309FE5 		ldr	r3, .L6+16
  63 0034 000096E5 		ldr	r0, [r6]
  64 0038 FEFFFFEB 		bl	chThdCreateStatic
  65              	.LVL2:
  66              		.loc 1 105 14 view .LVU13
  67 003c DC509FE5 		ldr	r5, .L6+20
  68              		.loc 1 106 16 view .LVU14
  69 0040 DC309FE5 		ldr	r3, .L6+24
  70              		.loc 1 105 14 view .LVU15
  71 0044 000085E5 		str	r0, [r5]
  72              		.loc 1 106 3 is_stmt 1 view .LVU16
  73              		.loc 1 106 16 is_stmt 0 view .LVU17
  74 0048 022084E2 		add	r2, r4, #2
  75 004c 00308DE5 		str	r3, [sp]
  76 0050 461FA0E3 		mov	r1, #280
  77 0054 C0309FE5 		ldr	r3, .L6+16
  78 0058 040096E5 		ldr	r0, [r6, #4]
  79 005c FEFFFFEB 		bl	chThdCreateStatic
  80              	.LVL3:
  81              		.loc 1 107 16 view .LVU18
  82 0060 C0309FE5 		ldr	r3, .L6+28
  83              		.loc 1 106 14 view .LVU19
  84 0064 040085E5 		str	r0, [r5, #4]
  85              		.loc 1 107 3 is_stmt 1 view .LVU20
  86              		.loc 1 107 16 is_stmt 0 view .LVU21
  87 0068 032084E2 		add	r2, r4, #3
  88 006c 00308DE5 		str	r3, [sp]
  89 0070 461FA0E3 		mov	r1, #280
  90 0074 A0309FE5 		ldr	r3, .L6+16
  91 0078 080096E5 		ldr	r0, [r6, #8]
  92 007c FEFFFFEB 		bl	chThdCreateStatic
  93              	.LVL4:
  94              		.loc 1 108 16 view .LVU22
  95 0080 A4309FE5 		ldr	r3, .L6+32
  96              		.loc 1 107 14 view .LVU23
  97 0084 080085E5 		str	r0, [r5, #8]
  98              		.loc 1 108 3 is_stmt 1 view .LVU24
  99              		.loc 1 108 16 is_stmt 0 view .LVU25
 100 0088 042084E2 		add	r2, r4, #4
 101 008c 00308DE5 		str	r3, [sp]
 102 0090 461FA0E3 		mov	r1, #280
 103 0094 80309FE5 		ldr	r3, .L6+16
 104 0098 0C0096E5 		ldr	r0, [r6, #12]
 105 009c FEFFFFEB 		bl	chThdCreateStatic
 106              	.LVL5:
 107              		.loc 1 109 16 view .LVU26
 108 00a0 88309FE5 		ldr	r3, .L6+36
 109 00a4 052084E2 		add	r2, r4, #5
 110 00a8 461FA0E3 		mov	r1, #280
 111              		.loc 1 108 14 view .LVU27
 112 00ac 0C0085E5 		str	r0, [r5, #12]
 113              		.loc 1 109 3 is_stmt 1 view .LVU28
 114              		.loc 1 109 16 is_stmt 0 view .LVU29
ARM GAS  /var/folders/l5/0x54b2c10074c8bt31ycjvl80000gp/T//ccM3yBF2.s 			page 3


 115 00b0 00308DE5 		str	r3, [sp]
 116 00b4 100096E5 		ldr	r0, [r6, #16]
 117 00b8 5C309FE5 		ldr	r3, .L6+16
 118 00bc FEFFFFEB 		bl	chThdCreateStatic
 119              	.LVL6:
 120              		.loc 1 109 14 view .LVU30
 121 00c0 100085E5 		str	r0, [r5, #16]
 122              		.loc 1 110 3 is_stmt 1 view .LVU31
 123 00c4 FEFFFFEB 		bl	chMtxUnlock
 124              	.LVL7:
 125              		.loc 1 111 3 view .LVU32
 126 00c8 FEFFFFEB 		bl	test_wait_threads
 127              	.LVL8:
 128              		.loc 1 112 3 view .LVU33
 129 00cc 183097E5 		ldr	r3, [r7, #24]
 130 00d0 0100A0E3 		mov	r0, #1
 131 00d4 081093E5 		ldr	r1, [r3, #8]
 132 00d8 041041E0 		sub	r1, r1, r4
 133 00dc 111F6FE1 		clz	r1, r1
 134 00e0 A112A0E1 		lsr	r1, r1, #5
 135 00e4 FEFFFFEB 		bl	_test_assert
 136              	.LVL9:
 137 00e8 000050E3 		cmp	r0, #0
 138 00ec 0100000A 		beq	.L5
 139              		.loc 1 114 1 is_stmt 0 view .LVU34
 140 00f0 0CD08DE2 		add	sp, sp, #12
 141              		.cfi_remember_state
 142              		.cfi_def_cfa_offset 20
 143              		@ sp needed
 144 00f4 F080BDE8 		pop	{r4, r5, r6, r7, pc}
 145              	.LVL10:
 146              	.L5:
 147              		.cfi_restore_state
 148              		.loc 1 112 69 is_stmt 1 discriminator 2 view .LVU35
 149              		.loc 1 113 3 discriminator 2 view .LVU36
 150 00f8 0200A0E3 		mov	r0, #2
 151 00fc 30109FE5 		ldr	r1, .L6+40
 152              		.loc 1 114 1 is_stmt 0 discriminator 2 view .LVU37
 153 0100 0CD08DE2 		add	sp, sp, #12
 154              		.cfi_def_cfa_offset 20
 155              		@ sp needed
 156 0104 F040BDE8 		pop	{r4, r5, r6, r7, lr}
 157              		.cfi_restore 14
 158              		.cfi_restore 7
 159              		.cfi_restore 6
 160              		.cfi_restore 5
 161              		.cfi_restore 4
 162              		.cfi_def_cfa_offset 0
 163              	.LVL11:
 164              		.loc 1 113 3 discriminator 2 view .LVU38
 165 0108 FEFFFFEA 		b	_test_assert_sequence
 166              	.LVL12:
 167              	.L7:
 168              		.align	2
 169              	.L6:
 170 010c 00000000 		.word	rlist
 171 0110 00000000 		.word	.LANCHOR0
ARM GAS  /var/folders/l5/0x54b2c10074c8bt31ycjvl80000gp/T//ccM3yBF2.s 			page 4


 172 0114 00000000 		.word	wa
 173 0118 00000000 		.word	.LC0
 174 011c 00000000 		.word	thread1
 175 0120 00000000 		.word	threads
 176 0124 04000000 		.word	.LC1
 177 0128 08000000 		.word	.LC2
 178 012c 0C000000 		.word	.LC3
 179 0130 10000000 		.word	.LC4
 180 0134 14000000 		.word	.LC5
 181              		.cfi_endproc
 182              	.LFE9:
 183              		.size	mtx1_execute, .-mtx1_execute
 184              		.section	.text.thread1,"ax",%progbits
 185              		.align	2
 186              		.syntax unified
 187              		.arm
 188              		.fpu softvfp
 189              		.type	thread1, %function
 190              	thread1:
 191              	.LVL13:
 192              	.LFB8:
 193              		.loc 1 93 31 is_stmt 1 view -0
 194              		.cfi_startproc
 195              		@ args = 0, pretend = 0, frame = 0
 196              		@ frame_needed = 0, uses_anonymous_args = 0
 197              		.loc 1 95 3 view .LVU40
 198              		.loc 1 93 31 is_stmt 0 view .LVU41
 199 0000 10402DE9 		push	{r4, lr}
 200              		.cfi_def_cfa_offset 8
 201              		.cfi_offset 4, -8
 202              		.cfi_offset 14, -4
 203              		.loc 1 93 31 view .LVU42
 204 0004 0040A0E1 		mov	r4, r0
 205              		.loc 1 95 3 view .LVU43
 206 0008 14009FE5 		ldr	r0, .L10
 207              	.LVL14:
 208              		.loc 1 95 3 view .LVU44
 209 000c FEFFFFEB 		bl	chMtxLock
 210              	.LVL15:
 211              		.loc 1 96 3 is_stmt 1 view .LVU45
 212 0010 0000D4E5 		ldrb	r0, [r4]	@ zero_extendqisi2
 213 0014 FEFFFFEB 		bl	test_emit_token
 214              	.LVL16:
 215              		.loc 1 97 3 view .LVU46
 216 0018 FEFFFFEB 		bl	chMtxUnlock
 217              	.LVL17:
 218              		.loc 1 98 3 view .LVU47
 219              		.loc 1 99 1 is_stmt 0 view .LVU48
 220 001c 0000A0E3 		mov	r0, #0
 221 0020 1080BDE8 		pop	{r4, pc}
 222              	.L11:
 223              		.align	2
 224              	.L10:
 225 0024 00000000 		.word	.LANCHOR0
 226              		.cfi_endproc
 227              	.LFE8:
 228              		.size	thread1, .-thread1
ARM GAS  /var/folders/l5/0x54b2c10074c8bt31ycjvl80000gp/T//ccM3yBF2.s 			page 5


 229              		.section	.text.thread12,"ax",%progbits
 230              		.align	2
 231              		.syntax unified
 232              		.arm
 233              		.fpu softvfp
 234              		.type	thread12, %function
 235              	thread12:
 236              	.LVL18:
 237              	.LFB35:
 238              		.loc 1 591 32 is_stmt 1 view -0
 239              		.cfi_startproc
 240              		@ args = 0, pretend = 0, frame = 0
 241              		@ frame_needed = 0, uses_anonymous_args = 0
 242              		.loc 1 593 3 view .LVU50
 243              		.loc 1 591 32 is_stmt 0 view .LVU51
 244 0000 10402DE9 		push	{r4, lr}
 245              		.cfi_def_cfa_offset 8
 246              		.cfi_offset 4, -8
 247              		.cfi_offset 14, -4
 248              		.loc 1 591 32 view .LVU52
 249 0004 0040A0E1 		mov	r4, r0
 250              		.loc 1 593 3 view .LVU53
 251 0008 14009FE5 		ldr	r0, .L14
 252              	.LVL19:
 253              		.loc 1 593 3 view .LVU54
 254 000c FEFFFFEB 		bl	chMtxLock
 255              	.LVL20:
 256              		.loc 1 594 3 is_stmt 1 view .LVU55
 257 0010 0000D4E5 		ldrb	r0, [r4]	@ zero_extendqisi2
 258 0014 FEFFFFEB 		bl	test_emit_token
 259              	.LVL21:
 260              		.loc 1 595 3 view .LVU56
 261 0018 FEFFFFEB 		bl	chMtxUnlock
 262              	.LVL22:
 263              		.loc 1 596 3 view .LVU57
 264              		.loc 1 597 1 is_stmt 0 view .LVU58
 265 001c 0000A0E3 		mov	r0, #0
 266 0020 1080BDE8 		pop	{r4, pc}
 267              	.L15:
 268              		.align	2
 269              	.L14:
 270 0024 00000000 		.word	.LANCHOR1
 271              		.cfi_endproc
 272              	.LFE35:
 273              		.size	thread12, .-thread12
 274              		.section	.text.mtx1_setup,"ax",%progbits
 275              		.align	2
 276              		.syntax unified
 277              		.arm
 278              		.fpu softvfp
 279              		.type	mtx1_setup, %function
 280              	mtx1_setup:
 281              	.LFB7:
 282              		.loc 1 88 30 is_stmt 1 view -0
 283              		.cfi_startproc
 284              		@ args = 0, pretend = 0, frame = 0
 285              		@ frame_needed = 0, uses_anonymous_args = 0
ARM GAS  /var/folders/l5/0x54b2c10074c8bt31ycjvl80000gp/T//ccM3yBF2.s 			page 6


 286              		@ link register save eliminated.
 287              		.loc 1 90 3 view .LVU60
 288 0000 00009FE5 		ldr	r0, .L17
 289 0004 FEFFFFEA 		b	chMtxInit
 290              	.LVL23:
 291              	.L18:
 292              		.align	2
 293              	.L17:
 294 0008 00000000 		.word	.LANCHOR0
 295              		.cfi_endproc
 296              	.LFE7:
 297              		.size	mtx1_setup, .-mtx1_setup
 298              		.section	.text.mtx2_setup,"ax",%progbits
 299              		.align	2
 300              		.syntax unified
 301              		.arm
 302              		.fpu softvfp
 303              		.type	mtx2_setup, %function
 304              	mtx2_setup:
 305              	.LFB38:
 306              		.cfi_startproc
 307              		@ args = 0, pretend = 0, frame = 0
 308              		@ frame_needed = 0, uses_anonymous_args = 0
 309              		@ link register save eliminated.
 310 0000 FEFFFFEA 		b	mtx1_setup
 311              		.cfi_endproc
 312              	.LFE38:
 313              		.size	mtx2_setup, .-mtx2_setup
 314              		.section	.text.mtx5_setup,"ax",%progbits
 315              		.align	2
 316              		.syntax unified
 317              		.arm
 318              		.fpu softvfp
 319              		.type	mtx5_setup, %function
 320              	mtx5_setup:
 321              	.LFB40:
 322              		.cfi_startproc
 323              		@ args = 0, pretend = 0, frame = 0
 324              		@ frame_needed = 0, uses_anonymous_args = 0
 325              		@ link register save eliminated.
 326 0000 FEFFFFEA 		b	mtx1_setup
 327              		.cfi_endproc
 328              	.LFE40:
 329              		.size	mtx5_setup, .-mtx5_setup
 330              		.section	.text.mtx3_setup,"ax",%progbits
 331              		.align	2
 332              		.syntax unified
 333              		.arm
 334              		.fpu softvfp
 335              		.type	mtx3_setup, %function
 336              	mtx3_setup:
 337              	.LFB15:
 338              		.loc 1 245 30 view -0
 339              		.cfi_startproc
 340              		@ args = 0, pretend = 0, frame = 0
 341              		@ frame_needed = 0, uses_anonymous_args = 0
 342              		.loc 1 247 3 view .LVU62
ARM GAS  /var/folders/l5/0x54b2c10074c8bt31ycjvl80000gp/T//ccM3yBF2.s 			page 7


 343              		.loc 1 245 30 is_stmt 0 view .LVU63
 344 0000 10402DE9 		push	{r4, lr}
 345              		.cfi_def_cfa_offset 8
 346              		.cfi_offset 4, -8
 347              		.cfi_offset 14, -4
 348              		.loc 1 247 3 view .LVU64
 349 0004 0C009FE5 		ldr	r0, .L23
 350 0008 FEFFFFEB 		bl	chMtxInit
 351              	.LVL24:
 352              		.loc 1 248 3 is_stmt 1 view .LVU65
 353              		.loc 1 249 1 is_stmt 0 view .LVU66
 354 000c 1040BDE8 		pop	{r4, lr}
 355              		.cfi_restore 14
 356              		.cfi_restore 4
 357              		.cfi_def_cfa_offset 0
 358              		.loc 1 248 3 view .LVU67
 359 0010 04009FE5 		ldr	r0, .L23+4
 360 0014 FEFFFFEA 		b	chMtxInit
 361              	.LVL25:
 362              	.L24:
 363              		.align	2
 364              	.L23:
 365 0018 00000000 		.word	.LANCHOR0
 366 001c 00000000 		.word	.LANCHOR1
 367              		.cfi_endproc
 368              	.LFE15:
 369              		.size	mtx3_setup, .-mtx3_setup
 370              		.section	.text.mtx4_setup,"ax",%progbits
 371              		.align	2
 372              		.syntax unified
 373              		.arm
 374              		.fpu softvfp
 375              		.type	mtx4_setup, %function
 376              	mtx4_setup:
 377              	.LFB42:
 378              		.cfi_startproc
 379              		@ args = 0, pretend = 0, frame = 0
 380              		@ frame_needed = 0, uses_anonymous_args = 0
 381              		@ link register save eliminated.
 382 0000 FEFFFFEA 		b	mtx3_setup
 383              		.cfi_endproc
 384              	.LFE42:
 385              		.size	mtx4_setup, .-mtx4_setup
 386              		.section	.text.mtx2_execute,"ax",%progbits
 387              		.align	2
 388              		.syntax unified
 389              		.arm
 390              		.fpu softvfp
 391              		.type	mtx2_execute, %function
 392              	mtx2_execute:
 393              	.LFB14:
 394              		.loc 1 194 32 is_stmt 1 view -0
 395              		.cfi_startproc
 396              		@ args = 0, pretend = 0, frame = 0
 397              		@ frame_needed = 0, uses_anonymous_args = 0
 398              		.loc 1 195 3 view .LVU69
 399              		.loc 1 197 3 view .LVU70
ARM GAS  /var/folders/l5/0x54b2c10074c8bt31ycjvl80000gp/T//ccM3yBF2.s 			page 8


 400              		.loc 1 194 32 is_stmt 0 view .LVU71
 401 0000 F0412DE9 		push	{r4, r5, r6, r7, r8, lr}
 402              		.cfi_def_cfa_offset 24
 403              		.cfi_offset 4, -24
 404              		.cfi_offset 5, -20
 405              		.cfi_offset 6, -16
 406              		.cfi_offset 7, -12
 407              		.cfi_offset 8, -8
 408              		.cfi_offset 14, -4
 409              		.loc 1 199 16 view .LVU72
 410 0004 0050A0E3 		mov	r5, #0
 411              		.loc 1 199 50 view .LVU73
 412 0008 B8709FE5 		ldr	r7, .L30
 413              		.loc 1 194 32 view .LVU74
 414 000c 08D04DE2 		sub	sp, sp, #8
 415              		.cfi_def_cfa_offset 32
 416              		.loc 1 197 3 view .LVU75
 417 0010 FEFFFFEB 		bl	test_wait_tick
 418              	.LVL26:
 419              		.loc 1 198 3 is_stmt 1 view .LVU76
 420              		.loc 1 199 50 is_stmt 0 view .LVU77
 421 0014 183097E5 		ldr	r3, [r7, #24]
 422              		.loc 1 199 16 view .LVU78
 423 0018 AC609FE5 		ldr	r6, .L30+4
 424 001c 082093E5 		ldr	r2, [r3, #8]
 425              		.loc 1 198 8 view .LVU79
 426 0020 A8C09FE5 		ldr	ip, .L30+8
 427              		.loc 1 199 16 view .LVU80
 428 0024 012042E2 		sub	r2, r2, #1
 429 0028 A4309FE5 		ldr	r3, .L30+12
 430 002c 461FA0E3 		mov	r1, #280
 431 0030 00508DE5 		str	r5, [sp]
 432 0034 000096E5 		ldr	r0, [r6]
 433              		.loc 1 198 8 view .LVU81
 434 0038 0C809CE5 		ldr	r8, [ip, #12]
 435              	.LVL27:
 436              		.loc 1 199 3 is_stmt 1 view .LVU82
 437              		.loc 1 199 16 is_stmt 0 view .LVU83
 438 003c FEFFFFEB 		bl	chThdCreateStatic
 439              	.LVL28:
 440              		.loc 1 200 50 view .LVU84
 441 0040 183097E5 		ldr	r3, [r7, #24]
 442              		.loc 1 199 14 view .LVU85
 443 0044 8C409FE5 		ldr	r4, .L30+16
 444              		.loc 1 200 16 view .LVU86
 445 0048 082093E5 		ldr	r2, [r3, #8]
 446 004c 461FA0E3 		mov	r1, #280
 447              		.loc 1 199 14 view .LVU87
 448 0050 000084E5 		str	r0, [r4]
 449              		.loc 1 200 3 is_stmt 1 view .LVU88
 450              		.loc 1 200 16 is_stmt 0 view .LVU89
 451 0054 022042E2 		sub	r2, r2, #2
 452 0058 7C309FE5 		ldr	r3, .L30+20
 453 005c 00508DE5 		str	r5, [sp]
 454 0060 040096E5 		ldr	r0, [r6, #4]
 455 0064 FEFFFFEB 		bl	chThdCreateStatic
 456              	.LVL29:
ARM GAS  /var/folders/l5/0x54b2c10074c8bt31ycjvl80000gp/T//ccM3yBF2.s 			page 9


 457              		.loc 1 201 50 view .LVU90
 458 0068 183097E5 		ldr	r3, [r7, #24]
 459              		.loc 1 201 16 view .LVU91
 460 006c 461FA0E3 		mov	r1, #280
 461 0070 082093E5 		ldr	r2, [r3, #8]
 462              		.loc 1 200 14 view .LVU92
 463 0074 040084E5 		str	r0, [r4, #4]
 464              		.loc 1 201 3 is_stmt 1 view .LVU93
 465              		.loc 1 201 16 is_stmt 0 view .LVU94
 466 0078 032042E2 		sub	r2, r2, #3
 467 007c 5C309FE5 		ldr	r3, .L30+24
 468 0080 080096E5 		ldr	r0, [r6, #8]
 469 0084 00508DE5 		str	r5, [sp]
 470 0088 FEFFFFEB 		bl	chThdCreateStatic
 471              	.LVL30:
 472              		.loc 1 201 14 view .LVU95
 473 008c 080084E5 		str	r0, [r4, #8]
 474              		.loc 1 202 3 is_stmt 1 view .LVU96
 475 0090 FEFFFFEB 		bl	test_wait_threads
 476              	.LVL31:
 477              		.loc 1 203 3 view .LVU97
 478 0094 48109FE5 		ldr	r1, .L30+28
 479 0098 0100A0E3 		mov	r0, #1
 480 009c FEFFFFEB 		bl	_test_assert_sequence
 481              	.LVL32:
 482 00a0 050050E1 		cmp	r0, r5
 483 00a4 0100000A 		beq	.L29
 484              		.loc 1 205 1 is_stmt 0 view .LVU98
 485 00a8 08D08DE2 		add	sp, sp, #8
 486              		.cfi_remember_state
 487              		.cfi_def_cfa_offset 24
 488              		@ sp needed
 489 00ac F081BDE8 		pop	{r4, r5, r6, r7, r8, pc}
 490              	.LVL33:
 491              	.L29:
 492              		.cfi_restore_state
 493              		.loc 1 203 33 is_stmt 1 discriminator 2 view .LVU99
 494              		.loc 1 204 3 discriminator 2 view .LVU100
 495 00b0 0200A0E3 		mov	r0, #2
 496 00b4 692088E2 		add	r2, r8, #105
 497 00b8 641088E2 		add	r1, r8, #100
 498              		.loc 1 205 1 is_stmt 0 discriminator 2 view .LVU101
 499 00bc 08D08DE2 		add	sp, sp, #8
 500              		.cfi_def_cfa_offset 24
 501              		@ sp needed
 502 00c0 F041BDE8 		pop	{r4, r5, r6, r7, r8, lr}
 503              		.cfi_restore 14
 504              		.cfi_restore 8
 505              		.cfi_restore 7
 506              		.cfi_restore 6
 507              		.cfi_restore 5
 508              		.cfi_restore 4
 509              		.cfi_def_cfa_offset 0
 510              	.LVL34:
 511              		.loc 1 204 3 discriminator 2 view .LVU102
 512 00c4 FEFFFFEA 		b	_test_assert_time_window
 513              	.LVL35:
ARM GAS  /var/folders/l5/0x54b2c10074c8bt31ycjvl80000gp/T//ccM3yBF2.s 			page 10


 514              	.L31:
 515              		.loc 1 204 3 discriminator 2 view .LVU103
 516              		.align	2
 517              	.L30:
 518 00c8 00000000 		.word	rlist
 519 00cc 00000000 		.word	wa
 520 00d0 00000000 		.word	vtlist
 521 00d4 00000000 		.word	thread2H
 522 00d8 00000000 		.word	threads
 523 00dc 00000000 		.word	thread2M
 524 00e0 00000000 		.word	thread2L
 525 00e4 00000000 		.word	.LC6
 526              		.cfi_endproc
 527              	.LFE14:
 528              		.size	mtx2_execute, .-mtx2_execute
 529              		.section	.text.mtx3_execute,"ax",%progbits
 530              		.align	2
 531              		.syntax unified
 532              		.arm
 533              		.fpu softvfp
 534              		.type	mtx3_execute, %function
 535              	mtx3_execute:
 536              	.LFB21:
 537              		.loc 1 312 32 is_stmt 1 view -0
 538              		.cfi_startproc
 539              		@ args = 0, pretend = 0, frame = 0
 540              		@ frame_needed = 0, uses_anonymous_args = 0
 541              		.loc 1 313 3 view .LVU105
 542              		.loc 1 315 3 view .LVU106
 543              		.loc 1 312 32 is_stmt 0 view .LVU107
 544 0000 F0412DE9 		push	{r4, r5, r6, r7, r8, lr}
 545              		.cfi_def_cfa_offset 24
 546              		.cfi_offset 4, -24
 547              		.cfi_offset 5, -20
 548              		.cfi_offset 6, -16
 549              		.cfi_offset 7, -12
 550              		.cfi_offset 8, -8
 551              		.cfi_offset 14, -4
 552              		.loc 1 317 16 view .LVU108
 553 0004 0050A0E3 		mov	r5, #0
 554              		.loc 1 317 50 view .LVU109
 555 0008 00719FE5 		ldr	r7, .L36
 556              		.loc 1 312 32 view .LVU110
 557 000c 08D04DE2 		sub	sp, sp, #8
 558              		.cfi_def_cfa_offset 32
 559              		.loc 1 315 3 view .LVU111
 560 0010 FEFFFFEB 		bl	test_wait_tick
 561              	.LVL36:
 562              		.loc 1 316 3 is_stmt 1 view .LVU112
 563              		.loc 1 317 50 is_stmt 0 view .LVU113
 564 0014 183097E5 		ldr	r3, [r7, #24]
 565              		.loc 1 317 16 view .LVU114
 566 0018 F4609FE5 		ldr	r6, .L36+4
 567 001c 082093E5 		ldr	r2, [r3, #8]
 568              		.loc 1 316 8 view .LVU115
 569 0020 F0C09FE5 		ldr	ip, .L36+8
 570              		.loc 1 317 16 view .LVU116
ARM GAS  /var/folders/l5/0x54b2c10074c8bt31ycjvl80000gp/T//ccM3yBF2.s 			page 11


 571 0024 052042E2 		sub	r2, r2, #5
 572 0028 EC309FE5 		ldr	r3, .L36+12
 573 002c 461FA0E3 		mov	r1, #280
 574 0030 00508DE5 		str	r5, [sp]
 575 0034 000096E5 		ldr	r0, [r6]
 576              		.loc 1 316 8 view .LVU117
 577 0038 0C809CE5 		ldr	r8, [ip, #12]
 578              	.LVL37:
 579              		.loc 1 317 3 is_stmt 1 view .LVU118
 580              		.loc 1 317 16 is_stmt 0 view .LVU119
 581 003c FEFFFFEB 		bl	chThdCreateStatic
 582              	.LVL38:
 583              		.loc 1 318 50 view .LVU120
 584 0040 183097E5 		ldr	r3, [r7, #24]
 585              		.loc 1 317 14 view .LVU121
 586 0044 D4409FE5 		ldr	r4, .L36+16
 587              		.loc 1 318 16 view .LVU122
 588 0048 082093E5 		ldr	r2, [r3, #8]
 589 004c 461FA0E3 		mov	r1, #280
 590              		.loc 1 317 14 view .LVU123
 591 0050 000084E5 		str	r0, [r4]
 592              		.loc 1 318 3 is_stmt 1 view .LVU124
 593              		.loc 1 318 16 is_stmt 0 view .LVU125
 594 0054 042042E2 		sub	r2, r2, #4
 595 0058 C4309FE5 		ldr	r3, .L36+20
 596 005c 00508DE5 		str	r5, [sp]
 597 0060 040096E5 		ldr	r0, [r6, #4]
 598 0064 FEFFFFEB 		bl	chThdCreateStatic
 599              	.LVL39:
 600              		.loc 1 319 50 view .LVU126
 601 0068 183097E5 		ldr	r3, [r7, #24]
 602              		.loc 1 318 14 view .LVU127
 603 006c 040084E5 		str	r0, [r4, #4]
 604              		.loc 1 319 3 is_stmt 1 view .LVU128
 605              		.loc 1 319 16 is_stmt 0 view .LVU129
 606 0070 082093E5 		ldr	r2, [r3, #8]
 607 0074 461FA0E3 		mov	r1, #280
 608 0078 032042E2 		sub	r2, r2, #3
 609 007c A4309FE5 		ldr	r3, .L36+24
 610 0080 080096E5 		ldr	r0, [r6, #8]
 611 0084 00508DE5 		str	r5, [sp]
 612 0088 FEFFFFEB 		bl	chThdCreateStatic
 613              	.LVL40:
 614              		.loc 1 320 50 view .LVU130
 615 008c 183097E5 		ldr	r3, [r7, #24]
 616              		.loc 1 319 14 view .LVU131
 617 0090 080084E5 		str	r0, [r4, #8]
 618              		.loc 1 320 3 is_stmt 1 view .LVU132
 619              		.loc 1 320 16 is_stmt 0 view .LVU133
 620 0094 082093E5 		ldr	r2, [r3, #8]
 621 0098 461FA0E3 		mov	r1, #280
 622 009c 022042E2 		sub	r2, r2, #2
 623 00a0 84309FE5 		ldr	r3, .L36+28
 624 00a4 0C0096E5 		ldr	r0, [r6, #12]
 625 00a8 00508DE5 		str	r5, [sp]
 626 00ac FEFFFFEB 		bl	chThdCreateStatic
 627              	.LVL41:
ARM GAS  /var/folders/l5/0x54b2c10074c8bt31ycjvl80000gp/T//ccM3yBF2.s 			page 12


 628              		.loc 1 321 50 view .LVU134
 629 00b0 183097E5 		ldr	r3, [r7, #24]
 630              		.loc 1 321 16 view .LVU135
 631 00b4 461FA0E3 		mov	r1, #280
 632 00b8 082093E5 		ldr	r2, [r3, #8]
 633              		.loc 1 320 14 view .LVU136
 634 00bc 0C0084E5 		str	r0, [r4, #12]
 635              		.loc 1 321 3 is_stmt 1 view .LVU137
 636              		.loc 1 321 16 is_stmt 0 view .LVU138
 637 00c0 012042E2 		sub	r2, r2, #1
 638 00c4 64309FE5 		ldr	r3, .L36+32
 639 00c8 100096E5 		ldr	r0, [r6, #16]
 640 00cc 00508DE5 		str	r5, [sp]
 641 00d0 FEFFFFEB 		bl	chThdCreateStatic
 642              	.LVL42:
 643              		.loc 1 321 14 view .LVU139
 644 00d4 100084E5 		str	r0, [r4, #16]
 645              		.loc 1 322 3 is_stmt 1 view .LVU140
 646 00d8 FEFFFFEB 		bl	test_wait_threads
 647              	.LVL43:
 648              		.loc 1 323 3 view .LVU141
 649 00dc 50109FE5 		ldr	r1, .L36+36
 650 00e0 0100A0E3 		mov	r0, #1
 651 00e4 FEFFFFEB 		bl	_test_assert_sequence
 652              	.LVL44:
 653 00e8 050050E1 		cmp	r0, r5
 654 00ec 0100000A 		beq	.L35
 655              		.loc 1 325 1 is_stmt 0 view .LVU142
 656 00f0 08D08DE2 		add	sp, sp, #8
 657              		.cfi_remember_state
 658              		.cfi_def_cfa_offset 24
 659              		@ sp needed
 660 00f4 F081BDE8 		pop	{r4, r5, r6, r7, r8, pc}
 661              	.LVL45:
 662              	.L35:
 663              		.cfi_restore_state
 664              		.loc 1 323 35 is_stmt 1 discriminator 2 view .LVU143
 665              		.loc 1 324 3 discriminator 2 view .LVU144
 666 00f8 0200A0E3 		mov	r0, #2
 667 00fc 732088E2 		add	r2, r8, #115
 668 0100 6E1088E2 		add	r1, r8, #110
 669              		.loc 1 325 1 is_stmt 0 discriminator 2 view .LVU145
 670 0104 08D08DE2 		add	sp, sp, #8
 671              		.cfi_def_cfa_offset 24
 672              		@ sp needed
 673 0108 F041BDE8 		pop	{r4, r5, r6, r7, r8, lr}
 674              		.cfi_restore 14
 675              		.cfi_restore 8
 676              		.cfi_restore 7
 677              		.cfi_restore 6
 678              		.cfi_restore 5
 679              		.cfi_restore 4
 680              		.cfi_def_cfa_offset 0
 681              	.LVL46:
 682              		.loc 1 324 3 discriminator 2 view .LVU146
 683 010c FEFFFFEA 		b	_test_assert_time_window
 684              	.LVL47:
ARM GAS  /var/folders/l5/0x54b2c10074c8bt31ycjvl80000gp/T//ccM3yBF2.s 			page 13


 685              	.L37:
 686              		.loc 1 324 3 discriminator 2 view .LVU147
 687              		.align	2
 688              	.L36:
 689 0110 00000000 		.word	rlist
 690 0114 00000000 		.word	wa
 691 0118 00000000 		.word	vtlist
 692 011c 00000000 		.word	thread3LL
 693 0120 00000000 		.word	threads
 694 0124 00000000 		.word	thread3L
 695 0128 00000000 		.word	thread3M
 696 012c 00000000 		.word	thread3H
 697 0130 00000000 		.word	thread3HH
 698 0134 14000000 		.word	.LC5
 699              		.cfi_endproc
 700              	.LFE21:
 701              		.size	mtx3_execute, .-mtx3_execute
 702              		.section	.text.thread2L,"ax",%progbits
 703              		.align	2
 704              		.syntax unified
 705              		.arm
 706              		.fpu softvfp
 707              		.type	thread2L, %function
 708              	thread2L:
 709              	.LVL48:
 710              	.LFB11:
 711              		.loc 1 161 32 is_stmt 1 view -0
 712              		.cfi_startproc
 713              		@ args = 0, pretend = 0, frame = 0
 714              		@ frame_needed = 0, uses_anonymous_args = 0
 715              		.loc 1 163 3 view .LVU149
 716              		.loc 1 164 3 view .LVU150
 717              		.loc 1 161 32 is_stmt 0 view .LVU151
 718 0000 10402DE9 		push	{r4, lr}
 719              		.cfi_def_cfa_offset 8
 720              		.cfi_offset 4, -8
 721              		.cfi_offset 14, -4
 722              		.loc 1 164 3 view .LVU152
 723 0004 24009FE5 		ldr	r0, .L40
 724              	.LVL49:
 725              		.loc 1 164 3 view .LVU153
 726 0008 FEFFFFEB 		bl	chMtxLock
 727              	.LVL50:
 728              		.loc 1 165 3 is_stmt 1 view .LVU154
 729 000c 2800A0E3 		mov	r0, #40
 730 0010 FEFFFFEB 		bl	test_cpu_pulse
 731              	.LVL51:
 732              		.loc 1 166 3 view .LVU155
 733 0014 FEFFFFEB 		bl	chMtxUnlock
 734              	.LVL52:
 735              		.loc 1 167 3 view .LVU156
 736 0018 0A00A0E3 		mov	r0, #10
 737 001c FEFFFFEB 		bl	test_cpu_pulse
 738              	.LVL53:
 739              		.loc 1 168 3 view .LVU157
 740 0020 4300A0E3 		mov	r0, #67
 741 0024 FEFFFFEB 		bl	test_emit_token
ARM GAS  /var/folders/l5/0x54b2c10074c8bt31ycjvl80000gp/T//ccM3yBF2.s 			page 14


 742              	.LVL54:
 743              		.loc 1 169 3 view .LVU158
 744              		.loc 1 170 1 is_stmt 0 view .LVU159
 745 0028 0000A0E3 		mov	r0, #0
 746 002c 1080BDE8 		pop	{r4, pc}
 747              	.L41:
 748              		.align	2
 749              	.L40:
 750 0030 00000000 		.word	.LANCHOR0
 751              		.cfi_endproc
 752              	.LFE11:
 753              		.size	thread2L, .-thread2L
 754              		.section	.text.thread3LL,"ax",%progbits
 755              		.align	2
 756              		.syntax unified
 757              		.arm
 758              		.fpu softvfp
 759              		.type	thread3LL, %function
 760              	thread3LL:
 761              	.LVL55:
 762              	.LFB16:
 763              		.loc 1 252 33 is_stmt 1 view -0
 764              		.cfi_startproc
 765              		@ args = 0, pretend = 0, frame = 0
 766              		@ frame_needed = 0, uses_anonymous_args = 0
 767              		.loc 1 254 3 view .LVU161
 768              		.loc 1 255 3 view .LVU162
 769              		.loc 1 252 33 is_stmt 0 view .LVU163
 770 0000 10402DE9 		push	{r4, lr}
 771              		.cfi_def_cfa_offset 8
 772              		.cfi_offset 4, -8
 773              		.cfi_offset 14, -4
 774              		.loc 1 255 3 view .LVU164
 775 0004 1C009FE5 		ldr	r0, .L44
 776              	.LVL56:
 777              		.loc 1 255 3 view .LVU165
 778 0008 FEFFFFEB 		bl	chMtxLock
 779              	.LVL57:
 780              		.loc 1 256 3 is_stmt 1 view .LVU166
 781 000c 1E00A0E3 		mov	r0, #30
 782 0010 FEFFFFEB 		bl	test_cpu_pulse
 783              	.LVL58:
 784              		.loc 1 257 3 view .LVU167
 785 0014 FEFFFFEB 		bl	chMtxUnlock
 786              	.LVL59:
 787              		.loc 1 258 3 view .LVU168
 788 0018 4500A0E3 		mov	r0, #69
 789 001c FEFFFFEB 		bl	test_emit_token
 790              	.LVL60:
 791              		.loc 1 259 3 view .LVU169
 792              		.loc 1 260 1 is_stmt 0 view .LVU170
 793 0020 0000A0E3 		mov	r0, #0
 794 0024 1080BDE8 		pop	{r4, pc}
 795              	.L45:
 796              		.align	2
 797              	.L44:
 798 0028 00000000 		.word	.LANCHOR0
ARM GAS  /var/folders/l5/0x54b2c10074c8bt31ycjvl80000gp/T//ccM3yBF2.s 			page 15


 799              		.cfi_endproc
 800              	.LFE16:
 801              		.size	thread3LL, .-thread3LL
 802              		.section	.text.thread2M,"ax",%progbits
 803              		.align	2
 804              		.syntax unified
 805              		.arm
 806              		.fpu softvfp
 807              		.type	thread2M, %function
 808              	thread2M:
 809              	.LVL61:
 810              	.LFB12:
 811              		.loc 1 173 32 is_stmt 1 view -0
 812              		.cfi_startproc
 813              		@ args = 0, pretend = 0, frame = 0
 814              		@ frame_needed = 0, uses_anonymous_args = 0
 815              		.loc 1 175 3 view .LVU172
 816              		.loc 1 176 3 view .LVU173
 817              		.loc 1 173 32 is_stmt 0 view .LVU174
 818 0000 10402DE9 		push	{r4, lr}
 819              		.cfi_def_cfa_offset 8
 820              		.cfi_offset 4, -8
 821              		.cfi_offset 14, -4
 822              		.loc 1 176 3 view .LVU175
 823 0004 1400A0E3 		mov	r0, #20
 824              	.LVL62:
 825              		.loc 1 176 3 view .LVU176
 826 0008 FEFFFFEB 		bl	chThdSleep
 827              	.LVL63:
 828              		.loc 1 177 3 is_stmt 1 view .LVU177
 829 000c 2800A0E3 		mov	r0, #40
 830 0010 FEFFFFEB 		bl	test_cpu_pulse
 831              	.LVL64:
 832              		.loc 1 178 3 view .LVU178
 833 0014 4200A0E3 		mov	r0, #66
 834 0018 FEFFFFEB 		bl	test_emit_token
 835              	.LVL65:
 836              		.loc 1 179 3 view .LVU179
 837              		.loc 1 180 1 is_stmt 0 view .LVU180
 838 001c 0000A0E3 		mov	r0, #0
 839 0020 1080BDE8 		pop	{r4, pc}
 840              		.cfi_endproc
 841              	.LFE12:
 842              		.size	thread2M, .-thread2M
 843              		.section	.text.thread2H,"ax",%progbits
 844              		.align	2
 845              		.syntax unified
 846              		.arm
 847              		.fpu softvfp
 848              		.type	thread2H, %function
 849              	thread2H:
 850              	.LVL66:
 851              	.LFB13:
 852              		.loc 1 183 32 is_stmt 1 view -0
 853              		.cfi_startproc
 854              		@ args = 0, pretend = 0, frame = 0
 855              		@ frame_needed = 0, uses_anonymous_args = 0
ARM GAS  /var/folders/l5/0x54b2c10074c8bt31ycjvl80000gp/T//ccM3yBF2.s 			page 16


 856              		.loc 1 185 3 view .LVU182
 857              		.loc 1 186 3 view .LVU183
 858              		.loc 1 183 32 is_stmt 0 view .LVU184
 859 0000 10402DE9 		push	{r4, lr}
 860              		.cfi_def_cfa_offset 8
 861              		.cfi_offset 4, -8
 862              		.cfi_offset 14, -4
 863              		.loc 1 186 3 view .LVU185
 864 0004 2800A0E3 		mov	r0, #40
 865              	.LVL67:
 866              		.loc 1 186 3 view .LVU186
 867 0008 FEFFFFEB 		bl	chThdSleep
 868              	.LVL68:
 869              		.loc 1 187 3 is_stmt 1 view .LVU187
 870 000c 1C009FE5 		ldr	r0, .L50
 871 0010 FEFFFFEB 		bl	chMtxLock
 872              	.LVL69:
 873              		.loc 1 188 3 view .LVU188
 874 0014 0A00A0E3 		mov	r0, #10
 875 0018 FEFFFFEB 		bl	test_cpu_pulse
 876              	.LVL70:
 877              		.loc 1 189 3 view .LVU189
 878 001c FEFFFFEB 		bl	chMtxUnlock
 879              	.LVL71:
 880              		.loc 1 190 3 view .LVU190
 881 0020 4100A0E3 		mov	r0, #65
 882 0024 FEFFFFEB 		bl	test_emit_token
 883              	.LVL72:
 884              		.loc 1 191 3 view .LVU191
 885              		.loc 1 192 1 is_stmt 0 view .LVU192
 886 0028 0000A0E3 		mov	r0, #0
 887 002c 1080BDE8 		pop	{r4, pc}
 888              	.L51:
 889              		.align	2
 890              	.L50:
 891 0030 00000000 		.word	.LANCHOR0
 892              		.cfi_endproc
 893              	.LFE13:
 894              		.size	thread2H, .-thread2H
 895              		.section	.text.thread3HH,"ax",%progbits
 896              		.align	2
 897              		.syntax unified
 898              		.arm
 899              		.fpu softvfp
 900              		.type	thread3HH, %function
 901              	thread3HH:
 902              	.LVL73:
 903              	.LFB20:
 904              		.loc 1 301 33 is_stmt 1 view -0
 905              		.cfi_startproc
 906              		@ args = 0, pretend = 0, frame = 0
 907              		@ frame_needed = 0, uses_anonymous_args = 0
 908              		.loc 1 303 3 view .LVU194
 909              		.loc 1 304 3 view .LVU195
 910              		.loc 1 301 33 is_stmt 0 view .LVU196
 911 0000 10402DE9 		push	{r4, lr}
 912              		.cfi_def_cfa_offset 8
ARM GAS  /var/folders/l5/0x54b2c10074c8bt31ycjvl80000gp/T//ccM3yBF2.s 			page 17


 913              		.cfi_offset 4, -8
 914              		.cfi_offset 14, -4
 915              		.loc 1 304 3 view .LVU197
 916 0004 3200A0E3 		mov	r0, #50
 917              	.LVL74:
 918              		.loc 1 304 3 view .LVU198
 919 0008 FEFFFFEB 		bl	chThdSleep
 920              	.LVL75:
 921              		.loc 1 305 3 is_stmt 1 view .LVU199
 922 000c 1C009FE5 		ldr	r0, .L54
 923 0010 FEFFFFEB 		bl	chMtxLock
 924              	.LVL76:
 925              		.loc 1 306 3 view .LVU200
 926 0014 0A00A0E3 		mov	r0, #10
 927 0018 FEFFFFEB 		bl	test_cpu_pulse
 928              	.LVL77:
 929              		.loc 1 307 3 view .LVU201
 930 001c FEFFFFEB 		bl	chMtxUnlock
 931              	.LVL78:
 932              		.loc 1 308 3 view .LVU202
 933 0020 4100A0E3 		mov	r0, #65
 934 0024 FEFFFFEB 		bl	test_emit_token
 935              	.LVL79:
 936              		.loc 1 309 3 view .LVU203
 937              		.loc 1 310 1 is_stmt 0 view .LVU204
 938 0028 0000A0E3 		mov	r0, #0
 939 002c 1080BDE8 		pop	{r4, pc}
 940              	.L55:
 941              		.align	2
 942              	.L54:
 943 0030 00000000 		.word	.LANCHOR1
 944              		.cfi_endproc
 945              	.LFE20:
 946              		.size	thread3HH, .-thread3HH
 947              		.section	.text.thread3H,"ax",%progbits
 948              		.align	2
 949              		.syntax unified
 950              		.arm
 951              		.fpu softvfp
 952              		.type	thread3H, %function
 953              	thread3H:
 954              	.LVL80:
 955              	.LFB19:
 956              		.loc 1 291 32 is_stmt 1 view -0
 957              		.cfi_startproc
 958              		@ args = 0, pretend = 0, frame = 0
 959              		@ frame_needed = 0, uses_anonymous_args = 0
 960              		.loc 1 293 3 view .LVU206
 961              		.loc 1 294 3 view .LVU207
 962              		.loc 1 291 32 is_stmt 0 view .LVU208
 963 0000 10402DE9 		push	{r4, lr}
 964              		.cfi_def_cfa_offset 8
 965              		.cfi_offset 4, -8
 966              		.cfi_offset 14, -4
 967              		.loc 1 294 3 view .LVU209
 968 0004 2800A0E3 		mov	r0, #40
 969              	.LVL81:
ARM GAS  /var/folders/l5/0x54b2c10074c8bt31ycjvl80000gp/T//ccM3yBF2.s 			page 18


 970              		.loc 1 294 3 view .LVU210
 971 0008 FEFFFFEB 		bl	chThdSleep
 972              	.LVL82:
 973              		.loc 1 295 3 is_stmt 1 view .LVU211
 974 000c 1400A0E3 		mov	r0, #20
 975 0010 FEFFFFEB 		bl	test_cpu_pulse
 976              	.LVL83:
 977              		.loc 1 296 3 view .LVU212
 978 0014 4200A0E3 		mov	r0, #66
 979 0018 FEFFFFEB 		bl	test_emit_token
 980              	.LVL84:
 981              		.loc 1 297 3 view .LVU213
 982              		.loc 1 298 1 is_stmt 0 view .LVU214
 983 001c 0000A0E3 		mov	r0, #0
 984 0020 1080BDE8 		pop	{r4, pc}
 985              		.cfi_endproc
 986              	.LFE19:
 987              		.size	thread3H, .-thread3H
 988              		.section	.text.thread3M,"ax",%progbits
 989              		.align	2
 990              		.syntax unified
 991              		.arm
 992              		.fpu softvfp
 993              		.type	thread3M, %function
 994              	thread3M:
 995              	.LVL85:
 996              	.LFB18:
 997              		.loc 1 279 32 is_stmt 1 view -0
 998              		.cfi_startproc
 999              		@ args = 0, pretend = 0, frame = 0
 1000              		@ frame_needed = 0, uses_anonymous_args = 0
 1001              		.loc 1 281 3 view .LVU216
 1002              		.loc 1 282 3 view .LVU217
 1003              		.loc 1 279 32 is_stmt 0 view .LVU218
 1004 0000 10402DE9 		push	{r4, lr}
 1005              		.cfi_def_cfa_offset 8
 1006              		.cfi_offset 4, -8
 1007              		.cfi_offset 14, -4
 1008              		.loc 1 282 3 view .LVU219
 1009 0004 1400A0E3 		mov	r0, #20
 1010              	.LVL86:
 1011              		.loc 1 282 3 view .LVU220
 1012 0008 FEFFFFEB 		bl	chThdSleep
 1013              	.LVL87:
 1014              		.loc 1 283 3 is_stmt 1 view .LVU221
 1015 000c 1C009FE5 		ldr	r0, .L60
 1016 0010 FEFFFFEB 		bl	chMtxLock
 1017              	.LVL88:
 1018              		.loc 1 284 3 view .LVU222
 1019 0014 0A00A0E3 		mov	r0, #10
 1020 0018 FEFFFFEB 		bl	test_cpu_pulse
 1021              	.LVL89:
 1022              		.loc 1 285 3 view .LVU223
 1023 001c FEFFFFEB 		bl	chMtxUnlock
 1024              	.LVL90:
 1025              		.loc 1 286 3 view .LVU224
 1026 0020 4300A0E3 		mov	r0, #67
ARM GAS  /var/folders/l5/0x54b2c10074c8bt31ycjvl80000gp/T//ccM3yBF2.s 			page 19


 1027 0024 FEFFFFEB 		bl	test_emit_token
 1028              	.LVL91:
 1029              		.loc 1 287 3 view .LVU225
 1030              		.loc 1 288 1 is_stmt 0 view .LVU226
 1031 0028 0000A0E3 		mov	r0, #0
 1032 002c 1080BDE8 		pop	{r4, pc}
 1033              	.L61:
 1034              		.align	2
 1035              	.L60:
 1036 0030 00000000 		.word	.LANCHOR1
 1037              		.cfi_endproc
 1038              	.LFE18:
 1039              		.size	thread3M, .-thread3M
 1040              		.section	.text.thread3L,"ax",%progbits
 1041              		.align	2
 1042              		.syntax unified
 1043              		.arm
 1044              		.fpu softvfp
 1045              		.type	thread3L, %function
 1046              	thread3L:
 1047              	.LVL92:
 1048              	.LFB17:
 1049              		.loc 1 263 32 is_stmt 1 view -0
 1050              		.cfi_startproc
 1051              		@ args = 0, pretend = 0, frame = 0
 1052              		@ frame_needed = 0, uses_anonymous_args = 0
 1053              		.loc 1 265 3 view .LVU228
 1054              		.loc 1 266 3 view .LVU229
 1055              		.loc 1 263 32 is_stmt 0 view .LVU230
 1056 0000 10402DE9 		push	{r4, lr}
 1057              		.cfi_def_cfa_offset 8
 1058              		.cfi_offset 4, -8
 1059              		.cfi_offset 14, -4
 1060              		.loc 1 266 3 view .LVU231
 1061 0004 0A00A0E3 		mov	r0, #10
 1062              	.LVL93:
 1063              		.loc 1 266 3 view .LVU232
 1064 0008 FEFFFFEB 		bl	chThdSleep
 1065              	.LVL94:
 1066              		.loc 1 267 3 is_stmt 1 view .LVU233
 1067 000c 38009FE5 		ldr	r0, .L64
 1068 0010 FEFFFFEB 		bl	chMtxLock
 1069              	.LVL95:
 1070              		.loc 1 268 3 view .LVU234
 1071 0014 1400A0E3 		mov	r0, #20
 1072 0018 FEFFFFEB 		bl	test_cpu_pulse
 1073              	.LVL96:
 1074              		.loc 1 269 3 view .LVU235
 1075 001c 2C009FE5 		ldr	r0, .L64+4
 1076 0020 FEFFFFEB 		bl	chMtxLock
 1077              	.LVL97:
 1078              		.loc 1 270 3 view .LVU236
 1079 0024 0A00A0E3 		mov	r0, #10
 1080 0028 FEFFFFEB 		bl	test_cpu_pulse
 1081              	.LVL98:
 1082              		.loc 1 271 3 view .LVU237
 1083 002c FEFFFFEB 		bl	chMtxUnlock
ARM GAS  /var/folders/l5/0x54b2c10074c8bt31ycjvl80000gp/T//ccM3yBF2.s 			page 20


 1084              	.LVL99:
 1085              		.loc 1 272 3 view .LVU238
 1086 0030 0A00A0E3 		mov	r0, #10
 1087 0034 FEFFFFEB 		bl	test_cpu_pulse
 1088              	.LVL100:
 1089              		.loc 1 273 3 view .LVU239
 1090 0038 FEFFFFEB 		bl	chMtxUnlock
 1091              	.LVL101:
 1092              		.loc 1 274 3 view .LVU240
 1093 003c 4400A0E3 		mov	r0, #68
 1094 0040 FEFFFFEB 		bl	test_emit_token
 1095              	.LVL102:
 1096              		.loc 1 275 3 view .LVU241
 1097              		.loc 1 276 1 is_stmt 0 view .LVU242
 1098 0044 0000A0E3 		mov	r0, #0
 1099 0048 1080BDE8 		pop	{r4, pc}
 1100              	.L65:
 1101              		.align	2
 1102              	.L64:
 1103 004c 00000000 		.word	.LANCHOR1
 1104 0050 00000000 		.word	.LANCHOR0
 1105              		.cfi_endproc
 1106              	.LFE17:
 1107              		.size	thread3L, .-thread3L
 1108              		.section	.text.thread4b,"ax",%progbits
 1109              		.align	2
 1110              		.syntax unified
 1111              		.arm
 1112              		.fpu softvfp
 1113              		.type	thread4b, %function
 1114              	thread4b:
 1115              	.LVL103:
 1116              	.LFB24:
 1117              		.loc 1 360 32 is_stmt 1 view -0
 1118              		.cfi_startproc
 1119              		@ args = 0, pretend = 0, frame = 0
 1120              		@ frame_needed = 0, uses_anonymous_args = 0
 1121              		.loc 1 362 3 view .LVU244
 1122              		.loc 1 363 3 view .LVU245
 1123              		.loc 1 360 32 is_stmt 0 view .LVU246
 1124 0000 10402DE9 		push	{r4, lr}
 1125              		.cfi_def_cfa_offset 8
 1126              		.cfi_offset 4, -8
 1127              		.cfi_offset 14, -4
 1128              		.loc 1 363 3 view .LVU247
 1129 0004 9600A0E3 		mov	r0, #150
 1130              	.LVL104:
 1131              		.loc 1 363 3 view .LVU248
 1132 0008 FEFFFFEB 		bl	chThdSleep
 1133              	.LVL105:
 1134              		.loc 1 364 3 is_stmt 1 view .LVU249
 1135 000c 0C009FE5 		ldr	r0, .L68
 1136 0010 FEFFFFEB 		bl	chMtxLock
 1137              	.LVL106:
 1138              		.loc 1 365 3 view .LVU250
 1139 0014 FEFFFFEB 		bl	chMtxUnlock
 1140              	.LVL107:
ARM GAS  /var/folders/l5/0x54b2c10074c8bt31ycjvl80000gp/T//ccM3yBF2.s 			page 21


 1141              		.loc 1 366 3 view .LVU251
 1142              		.loc 1 367 1 is_stmt 0 view .LVU252
 1143 0018 0000A0E3 		mov	r0, #0
 1144 001c 1080BDE8 		pop	{r4, pc}
 1145              	.L69:
 1146              		.align	2
 1147              	.L68:
 1148 0020 00000000 		.word	.LANCHOR0
 1149              		.cfi_endproc
 1150              	.LFE24:
 1151              		.size	thread4b, .-thread4b
 1152              		.section	.text.thread4a,"ax",%progbits
 1153              		.align	2
 1154              		.syntax unified
 1155              		.arm
 1156              		.fpu softvfp
 1157              		.type	thread4a, %function
 1158              	thread4a:
 1159              	.LVL108:
 1160              	.LFB23:
 1161              		.loc 1 351 32 is_stmt 1 view -0
 1162              		.cfi_startproc
 1163              		@ args = 0, pretend = 0, frame = 0
 1164              		@ frame_needed = 0, uses_anonymous_args = 0
 1165              		.loc 1 353 3 view .LVU254
 1166              		.loc 1 354 3 view .LVU255
 1167              		.loc 1 351 32 is_stmt 0 view .LVU256
 1168 0000 10402DE9 		push	{r4, lr}
 1169              		.cfi_def_cfa_offset 8
 1170              		.cfi_offset 4, -8
 1171              		.cfi_offset 14, -4
 1172              		.loc 1 354 3 view .LVU257
 1173 0004 3200A0E3 		mov	r0, #50
 1174              	.LVL109:
 1175              		.loc 1 354 3 view .LVU258
 1176 0008 FEFFFFEB 		bl	chThdSleep
 1177              	.LVL110:
 1178              		.loc 1 355 3 is_stmt 1 view .LVU259
 1179 000c 0C009FE5 		ldr	r0, .L72
 1180 0010 FEFFFFEB 		bl	chMtxLock
 1181              	.LVL111:
 1182              		.loc 1 356 3 view .LVU260
 1183 0014 FEFFFFEB 		bl	chMtxUnlock
 1184              	.LVL112:
 1185              		.loc 1 357 3 view .LVU261
 1186              		.loc 1 358 1 is_stmt 0 view .LVU262
 1187 0018 0000A0E3 		mov	r0, #0
 1188 001c 1080BDE8 		pop	{r4, pc}
 1189              	.L73:
 1190              		.align	2
 1191              	.L72:
 1192 0020 00000000 		.word	.LANCHOR1
 1193              		.cfi_endproc
 1194              	.LFE23:
 1195              		.size	thread4a, .-thread4a
 1196              		.section	.text.mtx4_execute,"ax",%progbits
 1197              		.align	2
ARM GAS  /var/folders/l5/0x54b2c10074c8bt31ycjvl80000gp/T//ccM3yBF2.s 			page 22


 1198              		.syntax unified
 1199              		.arm
 1200              		.fpu softvfp
 1201              		.type	mtx4_execute, %function
 1202              	mtx4_execute:
 1203              	.LFB25:
 1204              		.loc 1 369 32 is_stmt 1 view -0
 1205              		.cfi_startproc
 1206              		@ args = 0, pretend = 0, frame = 0
 1207              		@ frame_needed = 0, uses_anonymous_args = 0
 1208              		.loc 1 370 3 view .LVU264
 1209              		.loc 1 372 3 view .LVU265
 1210              		.loc 1 369 32 is_stmt 0 view .LVU266
 1211 0000 F0472DE9 		push	{r4, r5, r6, r7, r8, r9, r10, lr}
 1212              		.cfi_def_cfa_offset 32
 1213              		.cfi_offset 4, -32
 1214              		.cfi_offset 5, -28
 1215              		.cfi_offset 6, -24
 1216              		.cfi_offset 7, -20
 1217              		.cfi_offset 8, -16
 1218              		.cfi_offset 9, -12
 1219              		.cfi_offset 10, -8
 1220              		.cfi_offset 14, -4
 1221              		.loc 1 372 7 view .LVU267
 1222 0004 18539FE5 		ldr	r5, .L80
 1223              		.loc 1 375 16 view .LVU268
 1224 0008 18739FE5 		ldr	r7, .L80+4
 1225              		.loc 1 372 5 view .LVU269
 1226 000c 183095E5 		ldr	r3, [r5, #24]
 1227              		.loc 1 375 16 view .LVU270
 1228 0010 00A097E5 		ldr	r10, [r7]
 1229              		.loc 1 372 5 view .LVU271
 1230 0014 084093E5 		ldr	r4, [r3, #8]
 1231              	.LVL113:
 1232              		.loc 1 373 3 is_stmt 1 view .LVU272
 1233              		.loc 1 375 16 is_stmt 0 view .LVU273
 1234 0018 0C339FE5 		ldr	r3, .L80+8
 1235              		.loc 1 369 32 view .LVU274
 1236 001c 08D04DE2 		sub	sp, sp, #8
 1237              		.cfi_def_cfa_offset 40
 1238              		.loc 1 373 6 view .LVU275
 1239 0020 018084E2 		add	r8, r4, #1
 1240              	.LVL114:
 1241              		.loc 1 374 3 is_stmt 1 view .LVU276
 1242              		.loc 1 375 16 is_stmt 0 view .LVU277
 1243 0024 0820A0E1 		mov	r2, r8
 1244 0028 00308DE5 		str	r3, [sp]
 1245 002c 461FA0E3 		mov	r1, #280
 1246 0030 F8329FE5 		ldr	r3, .L80+12
 1247 0034 0A00A0E1 		mov	r0, r10
 1248 0038 FEFFFFEB 		bl	chThdCreateStatic
 1249              	.LVL115:
 1250              		.loc 1 375 14 view .LVU278
 1251 003c F0629FE5 		ldr	r6, .L80+16
 1252              		.loc 1 376 16 view .LVU279
 1253 0040 049097E5 		ldr	r9, [r7, #4]
 1254 0044 EC329FE5 		ldr	r3, .L80+20
ARM GAS  /var/folders/l5/0x54b2c10074c8bt31ycjvl80000gp/T//ccM3yBF2.s 			page 23


 1255              		.loc 1 374 6 view .LVU280
 1256 0048 027084E2 		add	r7, r4, #2
 1257              	.LVL116:
 1258              		.loc 1 375 3 is_stmt 1 view .LVU281
 1259              		.loc 1 376 16 is_stmt 0 view .LVU282
 1260 004c 0720A0E1 		mov	r2, r7
 1261 0050 461FA0E3 		mov	r1, #280
 1262              		.loc 1 375 14 view .LVU283
 1263 0054 000086E5 		str	r0, [r6]
 1264              		.loc 1 376 3 is_stmt 1 view .LVU284
 1265              		.loc 1 376 16 is_stmt 0 view .LVU285
 1266 0058 00308DE5 		str	r3, [sp]
 1267 005c 0900A0E1 		mov	r0, r9
 1268 0060 D4329FE5 		ldr	r3, .L80+24
 1269 0064 FEFFFFEB 		bl	chThdCreateStatic
 1270              	.LVL117:
 1271              		.loc 1 376 14 view .LVU286
 1272 0068 040086E5 		str	r0, [r6, #4]
 1273              		.loc 1 377 3 is_stmt 1 view .LVU287
 1274 006c CC029FE5 		ldr	r0, .L80+28
 1275 0070 FEFFFFEB 		bl	chMtxLock
 1276              	.LVL118:
 1277              		.loc 1 378 3 view .LVU288
 1278 0074 183095E5 		ldr	r3, [r5, #24]
 1279 0078 0100A0E3 		mov	r0, #1
 1280 007c 081093E5 		ldr	r1, [r3, #8]
 1281 0080 041041E0 		sub	r1, r1, r4
 1282 0084 111F6FE1 		clz	r1, r1
 1283 0088 A112A0E1 		lsr	r1, r1, #5
 1284 008c FEFFFFEB 		bl	_test_assert
 1285              	.LVL119:
 1286 0090 000050E3 		cmp	r0, #0
 1287 0094 0100000A 		beq	.L79
 1288              	.L74:
 1289              		.loc 1 413 1 is_stmt 0 view .LVU289
 1290 0098 08D08DE2 		add	sp, sp, #8
 1291              		.cfi_remember_state
 1292              		.cfi_def_cfa_offset 32
 1293              		@ sp needed
 1294 009c F087BDE8 		pop	{r4, r5, r6, r7, r8, r9, r10, pc}
 1295              	.LVL120:
 1296              	.L79:
 1297              		.cfi_restore_state
 1298              		.loc 1 378 66 is_stmt 1 discriminator 2 view .LVU290
 1299              		.loc 1 379 3 discriminator 2 view .LVU291
 1300 00a0 6400A0E3 		mov	r0, #100
 1301 00a4 FEFFFFEB 		bl	chThdSleep
 1302              	.LVL121:
 1303              		.loc 1 380 3 discriminator 2 view .LVU292
 1304 00a8 183095E5 		ldr	r3, [r5, #24]
 1305 00ac 0200A0E3 		mov	r0, #2
 1306 00b0 081093E5 		ldr	r1, [r3, #8]
 1307 00b4 081041E0 		sub	r1, r1, r8
 1308 00b8 111F6FE1 		clz	r1, r1
 1309 00bc A112A0E1 		lsr	r1, r1, #5
 1310 00c0 FEFFFFEB 		bl	_test_assert
 1311              	.LVL122:
ARM GAS  /var/folders/l5/0x54b2c10074c8bt31ycjvl80000gp/T//ccM3yBF2.s 			page 24


 1312 00c4 000050E3 		cmp	r0, #0
 1313 00c8 F2FFFF1A 		bne	.L74
 1314              		.loc 1 380 67 discriminator 2 view .LVU293
 1315              		.loc 1 381 3 discriminator 2 view .LVU294
 1316 00cc 70029FE5 		ldr	r0, .L80+32
 1317 00d0 FEFFFFEB 		bl	chMtxLock
 1318              	.LVL123:
 1319              		.loc 1 382 3 discriminator 2 view .LVU295
 1320 00d4 183095E5 		ldr	r3, [r5, #24]
 1321 00d8 0300A0E3 		mov	r0, #3
 1322 00dc 081093E5 		ldr	r1, [r3, #8]
 1323 00e0 081041E0 		sub	r1, r1, r8
 1324 00e4 111F6FE1 		clz	r1, r1
 1325 00e8 A112A0E1 		lsr	r1, r1, #5
 1326 00ec FEFFFFEB 		bl	_test_assert
 1327              	.LVL124:
 1328 00f0 000050E3 		cmp	r0, #0
 1329 00f4 E7FFFF1A 		bne	.L74
 1330              		.loc 1 382 67 discriminator 2 view .LVU296
 1331              		.loc 1 383 3 discriminator 2 view .LVU297
 1332 00f8 6400A0E3 		mov	r0, #100
 1333 00fc FEFFFFEB 		bl	chThdSleep
 1334              	.LVL125:
 1335              		.loc 1 384 3 discriminator 2 view .LVU298
 1336 0100 183095E5 		ldr	r3, [r5, #24]
 1337 0104 0400A0E3 		mov	r0, #4
 1338 0108 081093E5 		ldr	r1, [r3, #8]
 1339 010c 071041E0 		sub	r1, r1, r7
 1340 0110 111F6FE1 		clz	r1, r1
 1341 0114 A112A0E1 		lsr	r1, r1, #5
 1342 0118 FEFFFFEB 		bl	_test_assert
 1343              	.LVL126:
 1344 011c 000050E3 		cmp	r0, #0
 1345 0120 DCFFFF1A 		bne	.L74
 1346              		.loc 1 384 67 discriminator 2 view .LVU299
 1347              		.loc 1 385 3 discriminator 2 view .LVU300
 1348 0124 FEFFFFEB 		bl	chMtxUnlock
 1349              	.LVL127:
 1350              		.loc 1 386 3 discriminator 2 view .LVU301
 1351 0128 183095E5 		ldr	r3, [r5, #24]
 1352 012c 0500A0E3 		mov	r0, #5
 1353 0130 081093E5 		ldr	r1, [r3, #8]
 1354 0134 081041E0 		sub	r1, r1, r8
 1355 0138 111F6FE1 		clz	r1, r1
 1356 013c A112A0E1 		lsr	r1, r1, #5
 1357 0140 FEFFFFEB 		bl	_test_assert
 1358              	.LVL128:
 1359 0144 000050E3 		cmp	r0, #0
 1360 0148 D2FFFF1A 		bne	.L74
 1361              		.loc 1 386 67 discriminator 2 view .LVU302
 1362              		.loc 1 387 3 discriminator 2 view .LVU303
 1363 014c 6400A0E3 		mov	r0, #100
 1364 0150 FEFFFFEB 		bl	chThdSleep
 1365              	.LVL129:
 1366              		.loc 1 388 3 discriminator 2 view .LVU304
 1367 0154 183095E5 		ldr	r3, [r5, #24]
 1368 0158 0600A0E3 		mov	r0, #6
ARM GAS  /var/folders/l5/0x54b2c10074c8bt31ycjvl80000gp/T//ccM3yBF2.s 			page 25


 1369 015c 081093E5 		ldr	r1, [r3, #8]
 1370 0160 081041E0 		sub	r1, r1, r8
 1371 0164 111F6FE1 		clz	r1, r1
 1372 0168 A112A0E1 		lsr	r1, r1, #5
 1373 016c FEFFFFEB 		bl	_test_assert
 1374              	.LVL130:
 1375 0170 000050E3 		cmp	r0, #0
 1376 0174 C7FFFF1A 		bne	.L74
 1377              		.loc 1 388 67 discriminator 2 view .LVU305
 1378              		.loc 1 389 3 discriminator 2 view .LVU306
 1379 0178 FEFFFFEB 		bl	chMtxUnlockAll
 1380              	.LVL131:
 1381              		.loc 1 390 3 discriminator 2 view .LVU307
 1382 017c 183095E5 		ldr	r3, [r5, #24]
 1383 0180 0700A0E3 		mov	r0, #7
 1384 0184 081093E5 		ldr	r1, [r3, #8]
 1385 0188 041041E0 		sub	r1, r1, r4
 1386 018c 111F6FE1 		clz	r1, r1
 1387 0190 A112A0E1 		lsr	r1, r1, #5
 1388 0194 FEFFFFEB 		bl	_test_assert
 1389              	.LVL132:
 1390 0198 000050E3 		cmp	r0, #0
 1391 019c BDFFFF1A 		bne	.L74
 1392              		.loc 1 390 66 discriminator 2 view .LVU308
 1393              		.loc 1 391 3 discriminator 2 view .LVU309
 1394 01a0 FEFFFFEB 		bl	test_wait_threads
 1395              	.LVL133:
 1396              		.loc 1 394 3 discriminator 2 view .LVU310
 1397              		.loc 1 394 16 is_stmt 0 discriminator 2 view .LVU311
 1398 01a4 9C319FE5 		ldr	r3, .L80+36
 1399 01a8 0820A0E1 		mov	r2, r8
 1400 01ac 00308DE5 		str	r3, [sp]
 1401 01b0 461FA0E3 		mov	r1, #280
 1402 01b4 74319FE5 		ldr	r3, .L80+12
 1403 01b8 0A00A0E1 		mov	r0, r10
 1404 01bc FEFFFFEB 		bl	chThdCreateStatic
 1405              	.LVL134:
 1406              		.loc 1 395 16 discriminator 2 view .LVU312
 1407 01c0 84319FE5 		ldr	r3, .L80+40
 1408 01c4 0720A0E1 		mov	r2, r7
 1409 01c8 461FA0E3 		mov	r1, #280
 1410              		.loc 1 394 14 discriminator 2 view .LVU313
 1411 01cc 000086E5 		str	r0, [r6]
 1412              		.loc 1 395 3 is_stmt 1 discriminator 2 view .LVU314
 1413              		.loc 1 395 16 is_stmt 0 discriminator 2 view .LVU315
 1414 01d0 00308DE5 		str	r3, [sp]
 1415 01d4 0900A0E1 		mov	r0, r9
 1416 01d8 5C319FE5 		ldr	r3, .L80+24
 1417 01dc FEFFFFEB 		bl	chThdCreateStatic
 1418              	.LVL135:
 1419              		.loc 1 395 14 discriminator 2 view .LVU316
 1420 01e0 040086E5 		str	r0, [r6, #4]
 1421              		.loc 1 396 3 is_stmt 1 discriminator 2 view .LVU317
 1422 01e4 54019FE5 		ldr	r0, .L80+28
 1423 01e8 FEFFFFEB 		bl	chMtxLock
 1424              	.LVL136:
 1425              		.loc 1 397 3 discriminator 2 view .LVU318
ARM GAS  /var/folders/l5/0x54b2c10074c8bt31ycjvl80000gp/T//ccM3yBF2.s 			page 26


 1426 01ec 183095E5 		ldr	r3, [r5, #24]
 1427 01f0 0800A0E3 		mov	r0, #8
 1428 01f4 081093E5 		ldr	r1, [r3, #8]
 1429 01f8 041041E0 		sub	r1, r1, r4
 1430 01fc 111F6FE1 		clz	r1, r1
 1431 0200 A112A0E1 		lsr	r1, r1, #5
 1432 0204 FEFFFFEB 		bl	_test_assert
 1433              	.LVL137:
 1434 0208 000050E3 		cmp	r0, #0
 1435 020c A1FFFF1A 		bne	.L74
 1436              		.loc 1 397 66 discriminator 2 view .LVU319
 1437              		.loc 1 398 3 discriminator 2 view .LVU320
 1438 0210 6400A0E3 		mov	r0, #100
 1439 0214 FEFFFFEB 		bl	chThdSleep
 1440              	.LVL138:
 1441              		.loc 1 399 3 discriminator 2 view .LVU321
 1442 0218 183095E5 		ldr	r3, [r5, #24]
 1443 021c 0900A0E3 		mov	r0, #9
 1444 0220 081093E5 		ldr	r1, [r3, #8]
 1445 0224 081041E0 		sub	r1, r1, r8
 1446 0228 111F6FE1 		clz	r1, r1
 1447 022c A112A0E1 		lsr	r1, r1, #5
 1448 0230 FEFFFFEB 		bl	_test_assert
 1449              	.LVL139:
 1450 0234 000050E3 		cmp	r0, #0
 1451 0238 96FFFF1A 		bne	.L74
 1452              		.loc 1 399 67 discriminator 2 view .LVU322
 1453              		.loc 1 400 3 discriminator 2 view .LVU323
 1454 023c 00019FE5 		ldr	r0, .L80+32
 1455 0240 FEFFFFEB 		bl	chMtxLock
 1456              	.LVL140:
 1457              		.loc 1 401 3 discriminator 2 view .LVU324
 1458 0244 183095E5 		ldr	r3, [r5, #24]
 1459 0248 0A00A0E3 		mov	r0, #10
 1460 024c 081093E5 		ldr	r1, [r3, #8]
 1461 0250 081041E0 		sub	r1, r1, r8
 1462 0254 111F6FE1 		clz	r1, r1
 1463 0258 A112A0E1 		lsr	r1, r1, #5
 1464 025c FEFFFFEB 		bl	_test_assert
 1465              	.LVL141:
 1466 0260 000050E3 		cmp	r0, #0
 1467 0264 8BFFFF1A 		bne	.L74
 1468              		.loc 1 401 68 discriminator 2 view .LVU325
 1469              		.loc 1 402 3 discriminator 2 view .LVU326
 1470 0268 6400A0E3 		mov	r0, #100
 1471 026c FEFFFFEB 		bl	chThdSleep
 1472              	.LVL142:
 1473              		.loc 1 403 3 discriminator 2 view .LVU327
 1474 0270 183095E5 		ldr	r3, [r5, #24]
 1475 0274 0B00A0E3 		mov	r0, #11
 1476 0278 081093E5 		ldr	r1, [r3, #8]
 1477 027c 071041E0 		sub	r1, r1, r7
 1478 0280 111F6FE1 		clz	r1, r1
 1479 0284 A112A0E1 		lsr	r1, r1, #5
 1480 0288 FEFFFFEB 		bl	_test_assert
 1481              	.LVL143:
 1482 028c 000050E3 		cmp	r0, #0
ARM GAS  /var/folders/l5/0x54b2c10074c8bt31ycjvl80000gp/T//ccM3yBF2.s 			page 27


 1483 0290 80FFFF1A 		bne	.L74
 1484              		.loc 1 403 68 discriminator 2 view .LVU328
 1485              		.loc 1 404 3 discriminator 2 view .LVU329
 1486              		.syntax divided
 1487              	@ 404 "../../test/testmtx.c" 1
 1488 0294 9FF021E3 		msr     CPSR_c, #0x9F
 1489              	@ 0 "" 2
 1490              		.loc 1 404 3 discriminator 2 view .LVU330
 1491              		.loc 1 404 14 discriminator 2 view .LVU331
 1492              		.loc 1 405 3 discriminator 2 view .LVU332
 1493              		.arm
 1494              		.syntax unified
 1495 0298 FEFFFFEB 		bl	chMtxUnlockS
 1496              	.LVL144:
 1497              		.loc 1 406 3 discriminator 2 view .LVU333
 1498              		.loc 1 406 3 discriminator 2 view .LVU334
 1499              		.syntax divided
 1500              	@ 406 "../../test/testmtx.c" 1
 1501 029c 1FF021E3 		msr     CPSR_c, #0x1F
 1502              	@ 0 "" 2
 1503              		.loc 1 406 16 discriminator 2 view .LVU335
 1504              		.loc 1 407 3 discriminator 2 view .LVU336
 1505              		.arm
 1506              		.syntax unified
 1507 02a0 183095E5 		ldr	r3, [r5, #24]
 1508 02a4 0C00A0E3 		mov	r0, #12
 1509 02a8 081093E5 		ldr	r1, [r3, #8]
 1510 02ac 081041E0 		sub	r1, r1, r8
 1511 02b0 111F6FE1 		clz	r1, r1
 1512 02b4 A112A0E1 		lsr	r1, r1, #5
 1513 02b8 FEFFFFEB 		bl	_test_assert
 1514              	.LVL145:
 1515 02bc 000050E3 		cmp	r0, #0
 1516 02c0 74FFFF1A 		bne	.L74
 1517              		.loc 1 407 68 discriminator 2 view .LVU337
 1518              		.loc 1 408 3 discriminator 2 view .LVU338
 1519 02c4 6400A0E3 		mov	r0, #100
 1520 02c8 FEFFFFEB 		bl	chThdSleep
 1521              	.LVL146:
 1522              		.loc 1 409 3 discriminator 2 view .LVU339
 1523 02cc 183095E5 		ldr	r3, [r5, #24]
 1524 02d0 0D00A0E3 		mov	r0, #13
 1525 02d4 081093E5 		ldr	r1, [r3, #8]
 1526 02d8 081041E0 		sub	r1, r1, r8
 1527 02dc 111F6FE1 		clz	r1, r1
 1528 02e0 A112A0E1 		lsr	r1, r1, #5
 1529 02e4 FEFFFFEB 		bl	_test_assert
 1530              	.LVL147:
 1531 02e8 000050E3 		cmp	r0, #0
 1532 02ec 69FFFF1A 		bne	.L74
 1533              		.loc 1 409 68 discriminator 2 view .LVU340
 1534              		.loc 1 410 3 discriminator 2 view .LVU341
 1535 02f0 FEFFFFEB 		bl	chMtxUnlockAll
 1536              	.LVL148:
 1537              		.loc 1 411 3 discriminator 2 view .LVU342
 1538 02f4 183095E5 		ldr	r3, [r5, #24]
 1539 02f8 0E00A0E3 		mov	r0, #14
ARM GAS  /var/folders/l5/0x54b2c10074c8bt31ycjvl80000gp/T//ccM3yBF2.s 			page 28


 1540 02fc 081093E5 		ldr	r1, [r3, #8]
 1541 0300 041041E0 		sub	r1, r1, r4
 1542 0304 111F6FE1 		clz	r1, r1
 1543 0308 A112A0E1 		lsr	r1, r1, #5
 1544 030c FEFFFFEB 		bl	_test_assert
 1545              	.LVL149:
 1546 0310 000050E3 		cmp	r0, #0
 1547 0314 5FFFFF1A 		bne	.L74
 1548              		.loc 1 411 67 discriminator 2 view .LVU343
 1549              		.loc 1 412 3 discriminator 2 view .LVU344
 1550              		.loc 1 413 1 is_stmt 0 discriminator 2 view .LVU345
 1551 0318 08D08DE2 		add	sp, sp, #8
 1552              		.cfi_def_cfa_offset 32
 1553              		@ sp needed
 1554 031c F047BDE8 		pop	{r4, r5, r6, r7, r8, r9, r10, lr}
 1555              		.cfi_restore 14
 1556              		.cfi_restore 10
 1557              		.cfi_restore 9
 1558              		.cfi_restore 8
 1559              		.cfi_restore 7
 1560              		.cfi_restore 6
 1561              		.cfi_restore 5
 1562              		.cfi_restore 4
 1563              		.cfi_def_cfa_offset 0
 1564              	.LVL150:
 1565              		.loc 1 412 3 discriminator 2 view .LVU346
 1566 0320 FEFFFFEA 		b	test_wait_threads
 1567              	.LVL151:
 1568              	.L81:
 1569              		.align	2
 1570              	.L80:
 1571 0324 00000000 		.word	rlist
 1572 0328 00000000 		.word	wa
 1573 032c 0C000000 		.word	.LC3
 1574 0330 00000000 		.word	thread4a
 1575 0334 00000000 		.word	threads
 1576 0338 10000000 		.word	.LC4
 1577 033c 00000000 		.word	thread4b
 1578 0340 00000000 		.word	.LANCHOR1
 1579 0344 00000000 		.word	.LANCHOR0
 1580 0348 04000000 		.word	.LC1
 1581 034c 08000000 		.word	.LC2
 1582              		.cfi_endproc
 1583              	.LFE25:
 1584              		.size	mtx4_execute, .-mtx4_execute
 1585              		.section	.text.mtx5_execute,"ax",%progbits
 1586              		.align	2
 1587              		.syntax unified
 1588              		.arm
 1589              		.fpu softvfp
 1590              		.type	mtx5_execute, %function
 1591              	mtx5_execute:
 1592              	.LFB27:
 1593              		.loc 1 437 32 is_stmt 1 view -0
 1594              		.cfi_startproc
 1595              		@ args = 0, pretend = 0, frame = 0
 1596              		@ frame_needed = 0, uses_anonymous_args = 0
ARM GAS  /var/folders/l5/0x54b2c10074c8bt31ycjvl80000gp/T//ccM3yBF2.s 			page 29


 1597              		.loc 1 438 3 view .LVU348
 1598              		.loc 1 439 3 view .LVU349
 1599              		.loc 1 441 3 view .LVU350
 1600              		.loc 1 437 32 is_stmt 0 view .LVU351
 1601 0000 70402DE9 		push	{r4, r5, r6, lr}
 1602              		.cfi_def_cfa_offset 16
 1603              		.cfi_offset 4, -16
 1604              		.cfi_offset 5, -12
 1605              		.cfi_offset 6, -8
 1606              		.cfi_offset 14, -4
 1607              		.loc 1 441 10 view .LVU352
 1608 0004 F4509FE5 		ldr	r5, .L87
 1609              		.loc 1 443 7 view .LVU353
 1610 0008 F4409FE5 		ldr	r4, .L87+4
 1611              		.loc 1 441 8 view .LVU354
 1612 000c 183095E5 		ldr	r3, [r5, #24]
 1613              		.loc 1 443 7 view .LVU355
 1614 0010 0400A0E1 		mov	r0, r4
 1615              		.loc 1 441 8 view .LVU356
 1616 0014 086093E5 		ldr	r6, [r3, #8]
 1617              	.LVL152:
 1618              		.loc 1 443 3 is_stmt 1 view .LVU357
 1619              		.loc 1 443 7 is_stmt 0 view .LVU358
 1620 0018 FEFFFFEB 		bl	chMtxTryLock
 1621              	.LVL153:
 1622              		.loc 1 444 3 is_stmt 1 view .LVU359
 1623 001c 0010A0E1 		mov	r1, r0
 1624 0020 0100A0E3 		mov	r0, #1
 1625              	.LVL154:
 1626              		.loc 1 444 3 is_stmt 0 view .LVU360
 1627 0024 FEFFFFEB 		bl	_test_assert
 1628              	.LVL155:
 1629              		.loc 1 444 3 view .LVU361
 1630 0028 000050E3 		cmp	r0, #0
 1631 002c 7080BD18 		popne	{r4, r5, r6, pc}
 1632              		.loc 1 444 38 is_stmt 1 discriminator 2 view .LVU362
 1633              		.loc 1 446 3 discriminator 2 view .LVU363
 1634              		.loc 1 446 7 is_stmt 0 discriminator 2 view .LVU364
 1635 0030 0400A0E1 		mov	r0, r4
 1636 0034 FEFFFFEB 		bl	chMtxTryLock
 1637              	.LVL156:
 1638              		.loc 1 447 3 is_stmt 1 discriminator 2 view .LVU365
 1639 0038 101F6FE1 		clz	r1, r0
 1640 003c 0200A0E3 		mov	r0, #2
 1641              	.LVL157:
 1642              		.loc 1 447 3 is_stmt 0 discriminator 2 view .LVU366
 1643 0040 A112A0E1 		lsr	r1, r1, #5
 1644 0044 FEFFFFEB 		bl	_test_assert
 1645              	.LVL158:
 1646 0048 000050E3 		cmp	r0, #0
 1647 004c 7080BD18 		popne	{r4, r5, r6, pc}
 1648              		.loc 1 447 35 is_stmt 1 discriminator 2 view .LVU367
 1649              		.loc 1 449 3 discriminator 2 view .LVU368
 1650              		.syntax divided
 1651              	@ 449 "../../test/testmtx.c" 1
 1652 0050 9FF021E3 		msr     CPSR_c, #0x9F
 1653              	@ 0 "" 2
ARM GAS  /var/folders/l5/0x54b2c10074c8bt31ycjvl80000gp/T//ccM3yBF2.s 			page 30


 1654              		.loc 1 449 3 discriminator 2 view .LVU369
 1655              		.loc 1 449 14 discriminator 2 view .LVU370
 1656              		.loc 1 450 3 discriminator 2 view .LVU371
 1657              		.arm
 1658              		.syntax unified
 1659 0054 FEFFFFEB 		bl	chMtxUnlockS
 1660              	.LVL159:
 1661              		.loc 1 451 3 discriminator 2 view .LVU372
 1662              		.loc 1 451 3 discriminator 2 view .LVU373
 1663              		.syntax divided
 1664              	@ 451 "../../test/testmtx.c" 1
 1665 0058 1FF021E3 		msr     CPSR_c, #0x1F
 1666              	@ 0 "" 2
 1667              		.loc 1 451 16 discriminator 2 view .LVU374
 1668              		.loc 1 453 3 discriminator 2 view .LVU375
 1669              		.arm
 1670              		.syntax unified
 1671 005c 001094E5 		ldr	r1, [r4]
 1672 0060 0300A0E3 		mov	r0, #3
 1673 0064 041041E0 		sub	r1, r1, r4
 1674 0068 111F6FE1 		clz	r1, r1
 1675 006c A112A0E1 		lsr	r1, r1, #5
 1676 0070 FEFFFFEB 		bl	_test_assert
 1677              	.LVL160:
 1678 0074 000050E3 		cmp	r0, #0
 1679 0078 7080BD18 		popne	{r4, r5, r6, pc}
 1680              		.loc 1 453 58 discriminator 2 view .LVU376
 1681              		.loc 1 454 3 discriminator 2 view .LVU377
 1682 007c 081094E5 		ldr	r1, [r4, #8]
 1683 0080 0400A0E3 		mov	r0, #4
 1684 0084 111F6FE1 		clz	r1, r1
 1685 0088 A112A0E1 		lsr	r1, r1, #5
 1686 008c FEFFFFEB 		bl	_test_assert
 1687              	.LVL161:
 1688 0090 000050E3 		cmp	r0, #0
 1689 0094 7080BD18 		popne	{r4, r5, r6, pc}
 1690              		.loc 1 454 52 discriminator 2 view .LVU378
 1691              		.loc 1 455 3 discriminator 2 view .LVU379
 1692 0098 183095E5 		ldr	r3, [r5, #24]
 1693 009c 0500A0E3 		mov	r0, #5
 1694 00a0 081093E5 		ldr	r1, [r3, #8]
 1695 00a4 061041E0 		sub	r1, r1, r6
 1696 00a8 111F6FE1 		clz	r1, r1
 1697 00ac A112A0E1 		lsr	r1, r1, #5
 1698 00b0 FEFFFFEB 		bl	_test_assert
 1699              	.LVL162:
 1700 00b4 000050E3 		cmp	r0, #0
 1701 00b8 7080BD18 		popne	{r4, r5, r6, pc}
 1702              		.loc 1 455 69 discriminator 2 view .LVU380
 1703              		.loc 1 457 3 discriminator 2 view .LVU381
 1704 00bc 0400A0E1 		mov	r0, r4
 1705 00c0 FEFFFFEB 		bl	chMtxLock
 1706              	.LVL163:
 1707              		.loc 1 458 3 discriminator 2 view .LVU382
 1708 00c4 FEFFFFEB 		bl	chMtxUnlockAll
 1709              	.LVL164:
 1710              		.loc 1 459 3 discriminator 2 view .LVU383
ARM GAS  /var/folders/l5/0x54b2c10074c8bt31ycjvl80000gp/T//ccM3yBF2.s 			page 31


 1711 00c8 001094E5 		ldr	r1, [r4]
 1712 00cc 0600A0E3 		mov	r0, #6
 1713 00d0 041041E0 		sub	r1, r1, r4
 1714 00d4 111F6FE1 		clz	r1, r1
 1715 00d8 A112A0E1 		lsr	r1, r1, #5
 1716 00dc FEFFFFEB 		bl	_test_assert
 1717              	.LVL165:
 1718 00e0 000050E3 		cmp	r0, #0
 1719 00e4 7080BD18 		popne	{r4, r5, r6, pc}
 1720              		.loc 1 459 58 discriminator 2 view .LVU384
 1721              		.loc 1 460 3 discriminator 2 view .LVU385
 1722 00e8 081094E5 		ldr	r1, [r4, #8]
 1723 00ec 0700A0E3 		mov	r0, #7
 1724              		.loc 1 461 1 is_stmt 0 discriminator 2 view .LVU386
 1725 00f0 7040BDE8 		pop	{r4, r5, r6, lr}
 1726              		.cfi_restore 14
 1727              		.cfi_restore 6
 1728              		.cfi_restore 5
 1729              		.cfi_restore 4
 1730              		.cfi_def_cfa_offset 0
 1731              	.LVL166:
 1732              		.loc 1 460 3 discriminator 2 view .LVU387
 1733 00f4 111F6FE1 		clz	r1, r1
 1734 00f8 A112A0E1 		lsr	r1, r1, #5
 1735 00fc FEFFFFEA 		b	_test_assert
 1736              	.LVL167:
 1737              	.L88:
 1738              		.align	2
 1739              	.L87:
 1740 0100 00000000 		.word	rlist
 1741 0104 00000000 		.word	.LANCHOR0
 1742              		.cfi_endproc
 1743              	.LFE27:
 1744              		.size	mtx5_execute, .-mtx5_execute
 1745              		.section	.text.mtx6_execute,"ax",%progbits
 1746              		.align	2
 1747              		.syntax unified
 1748              		.arm
 1749              		.fpu softvfp
 1750              		.type	mtx6_execute, %function
 1751              	mtx6_execute:
 1752              	.LFB30:
 1753              		.loc 1 497 32 is_stmt 1 view -0
 1754              		.cfi_startproc
 1755              		@ args = 0, pretend = 0, frame = 0
 1756              		@ frame_needed = 0, uses_anonymous_args = 0
 1757              		.loc 1 499 3 view .LVU389
 1758              		.loc 1 497 32 is_stmt 0 view .LVU390
 1759 0000 F0402DE9 		push	{r4, r5, r6, r7, lr}
 1760              		.cfi_def_cfa_offset 20
 1761              		.cfi_offset 4, -20
 1762              		.cfi_offset 5, -16
 1763              		.cfi_offset 6, -12
 1764              		.cfi_offset 7, -8
 1765              		.cfi_offset 14, -4
 1766              		.loc 1 499 18 view .LVU391
 1767 0004 04319FE5 		ldr	r3, .L91
ARM GAS  /var/folders/l5/0x54b2c10074c8bt31ycjvl80000gp/T//ccM3yBF2.s 			page 32


 1768              		.loc 1 500 16 view .LVU392
 1769 0008 04619FE5 		ldr	r6, .L91+4
 1770              		.loc 1 499 11 view .LVU393
 1771 000c 183093E5 		ldr	r3, [r3, #24]
 1772              		.loc 1 500 16 view .LVU394
 1773 0010 00519FE5 		ldr	r5, .L91+8
 1774              		.loc 1 499 11 view .LVU395
 1775 0014 087093E5 		ldr	r7, [r3, #8]
 1776              	.LVL168:
 1777              		.loc 1 500 3 is_stmt 1 view .LVU396
 1778              		.loc 1 500 16 is_stmt 0 view .LVU397
 1779 0018 FC109FE5 		ldr	r1, .L91+12
 1780              		.loc 1 497 32 view .LVU398
 1781 001c 0CD04DE2 		sub	sp, sp, #12
 1782              		.cfi_def_cfa_offset 32
 1783              		.loc 1 500 16 view .LVU399
 1784 0020 012087E2 		add	r2, r7, #1
 1785 0024 0630A0E1 		mov	r3, r6
 1786 0028 00108DE5 		str	r1, [sp]
 1787 002c 000095E5 		ldr	r0, [r5]
 1788 0030 461FA0E3 		mov	r1, #280
 1789 0034 FEFFFFEB 		bl	chThdCreateStatic
 1790              	.LVL169:
 1791              		.loc 1 500 14 view .LVU400
 1792 0038 E0409FE5 		ldr	r4, .L91+16
 1793              		.loc 1 501 16 view .LVU401
 1794 003c E0109FE5 		ldr	r1, .L91+20
 1795              		.loc 1 500 14 view .LVU402
 1796 0040 000084E5 		str	r0, [r4]
 1797              		.loc 1 501 3 is_stmt 1 view .LVU403
 1798              		.loc 1 501 16 is_stmt 0 view .LVU404
 1799 0044 022087E2 		add	r2, r7, #2
 1800 0048 0630A0E1 		mov	r3, r6
 1801 004c 00108DE5 		str	r1, [sp]
 1802 0050 040095E5 		ldr	r0, [r5, #4]
 1803 0054 461FA0E3 		mov	r1, #280
 1804 0058 FEFFFFEB 		bl	chThdCreateStatic
 1805              	.LVL170:
 1806              		.loc 1 502 16 view .LVU405
 1807 005c C4109FE5 		ldr	r1, .L91+24
 1808              		.loc 1 501 14 view .LVU406
 1809 0060 040084E5 		str	r0, [r4, #4]
 1810              		.loc 1 502 3 is_stmt 1 view .LVU407
 1811              		.loc 1 502 16 is_stmt 0 view .LVU408
 1812 0064 032087E2 		add	r2, r7, #3
 1813 0068 0630A0E1 		mov	r3, r6
 1814 006c 00108DE5 		str	r1, [sp]
 1815 0070 080095E5 		ldr	r0, [r5, #8]
 1816 0074 461FA0E3 		mov	r1, #280
 1817 0078 FEFFFFEB 		bl	chThdCreateStatic
 1818              	.LVL171:
 1819              		.loc 1 503 16 view .LVU409
 1820 007c A8109FE5 		ldr	r1, .L91+28
 1821              		.loc 1 502 14 view .LVU410
 1822 0080 080084E5 		str	r0, [r4, #8]
 1823              		.loc 1 503 3 is_stmt 1 view .LVU411
 1824              		.loc 1 503 16 is_stmt 0 view .LVU412
ARM GAS  /var/folders/l5/0x54b2c10074c8bt31ycjvl80000gp/T//ccM3yBF2.s 			page 33


 1825 0084 042087E2 		add	r2, r7, #4
 1826 0088 0630A0E1 		mov	r3, r6
 1827 008c 00108DE5 		str	r1, [sp]
 1828 0090 0C0095E5 		ldr	r0, [r5, #12]
 1829 0094 461FA0E3 		mov	r1, #280
 1830 0098 FEFFFFEB 		bl	chThdCreateStatic
 1831              	.LVL172:
 1832              		.loc 1 504 16 view .LVU413
 1833 009c 8C109FE5 		ldr	r1, .L91+32
 1834              		.loc 1 503 14 view .LVU414
 1835 00a0 0C0084E5 		str	r0, [r4, #12]
 1836              		.loc 1 504 3 is_stmt 1 view .LVU415
 1837              		.loc 1 504 16 is_stmt 0 view .LVU416
 1838 00a4 052087E2 		add	r2, r7, #5
 1839 00a8 00108DE5 		str	r1, [sp]
 1840 00ac 0630A0E1 		mov	r3, r6
 1841 00b0 100095E5 		ldr	r0, [r5, #16]
 1842 00b4 461FA0E3 		mov	r1, #280
 1843 00b8 FEFFFFEB 		bl	chThdCreateStatic
 1844              	.LVL173:
 1845              		.loc 1 504 14 view .LVU417
 1846 00bc 100084E5 		str	r0, [r4, #16]
 1847              		.loc 1 505 3 is_stmt 1 view .LVU418
 1848              		.syntax divided
 1849              	@ 505 "../../test/testmtx.c" 1
 1850 00c0 9FF021E3 		msr     CPSR_c, #0x9F
 1851              	@ 0 "" 2
 1852              		.loc 1 505 3 view .LVU419
 1853              		.loc 1 505 14 view .LVU420
 1854              		.loc 1 506 3 view .LVU421
 1855              		.arm
 1856              		.syntax unified
 1857 00c4 68409FE5 		ldr	r4, .L91+36
 1858 00c8 0400A0E1 		mov	r0, r4
 1859 00cc FEFFFFEB 		bl	chCondSignalI
 1860              	.LVL174:
 1861              		.loc 1 507 3 view .LVU422
 1862 00d0 0400A0E1 		mov	r0, r4
 1863 00d4 FEFFFFEB 		bl	chCondSignalI
 1864              	.LVL175:
 1865              		.loc 1 508 3 view .LVU423
 1866 00d8 0400A0E1 		mov	r0, r4
 1867 00dc FEFFFFEB 		bl	chCondSignalI
 1868              	.LVL176:
 1869              		.loc 1 509 3 view .LVU424
 1870 00e0 0400A0E1 		mov	r0, r4
 1871 00e4 FEFFFFEB 		bl	chCondSignalI
 1872              	.LVL177:
 1873              		.loc 1 510 3 view .LVU425
 1874 00e8 0400A0E1 		mov	r0, r4
 1875 00ec FEFFFFEB 		bl	chCondSignalI
 1876              	.LVL178:
 1877              		.loc 1 511 3 view .LVU426
 1878 00f0 FEFFFFEB 		bl	chSchRescheduleS
 1879              	.LVL179:
 1880              		.loc 1 512 3 view .LVU427
 1881              		.loc 1 512 3 view .LVU428
ARM GAS  /var/folders/l5/0x54b2c10074c8bt31ycjvl80000gp/T//ccM3yBF2.s 			page 34


 1882              		.syntax divided
 1883              	@ 512 "../../test/testmtx.c" 1
 1884 00f4 1FF021E3 		msr     CPSR_c, #0x1F
 1885              	@ 0 "" 2
 1886              		.loc 1 512 16 view .LVU429
 1887              		.loc 1 513 3 view .LVU430
 1888              		.arm
 1889              		.syntax unified
 1890 00f8 FEFFFFEB 		bl	test_wait_threads
 1891              	.LVL180:
 1892              		.loc 1 514 3 view .LVU431
 1893 00fc 0100A0E3 		mov	r0, #1
 1894 0100 30109FE5 		ldr	r1, .L91+40
 1895              		.loc 1 515 1 is_stmt 0 view .LVU432
 1896 0104 0CD08DE2 		add	sp, sp, #12
 1897              		.cfi_def_cfa_offset 20
 1898              		@ sp needed
 1899 0108 F040BDE8 		pop	{r4, r5, r6, r7, lr}
 1900              		.cfi_restore 14
 1901              		.cfi_restore 7
 1902              		.cfi_restore 6
 1903              		.cfi_restore 5
 1904              		.cfi_restore 4
 1905              		.cfi_def_cfa_offset 0
 1906              	.LVL181:
 1907              		.loc 1 514 3 view .LVU433
 1908 010c FEFFFFEA 		b	_test_assert_sequence
 1909              	.LVL182:
 1910              	.L92:
 1911              		.align	2
 1912              	.L91:
 1913 0110 00000000 		.word	rlist
 1914 0114 00000000 		.word	thread10
 1915 0118 00000000 		.word	wa
 1916 011c 00000000 		.word	.LC0
 1917 0120 00000000 		.word	threads
 1918 0124 04000000 		.word	.LC1
 1919 0128 08000000 		.word	.LC2
 1920 012c 0C000000 		.word	.LC3
 1921 0130 10000000 		.word	.LC4
 1922 0134 00000000 		.word	.LANCHOR2
 1923 0138 14000000 		.word	.LC5
 1924              		.cfi_endproc
 1925              	.LFE30:
 1926              		.size	mtx6_execute, .-mtx6_execute
 1927              		.section	.text.thread10,"ax",%progbits
 1928              		.align	2
 1929              		.syntax unified
 1930              		.arm
 1931              		.fpu softvfp
 1932              		.type	thread10, %function
 1933              	thread10:
 1934              	.LVL183:
 1935              	.LFB29:
 1936              		.loc 1 488 32 is_stmt 1 view -0
 1937              		.cfi_startproc
 1938              		@ args = 0, pretend = 0, frame = 0
ARM GAS  /var/folders/l5/0x54b2c10074c8bt31ycjvl80000gp/T//ccM3yBF2.s 			page 35


 1939              		@ frame_needed = 0, uses_anonymous_args = 0
 1940              		.loc 1 490 3 view .LVU435
 1941              		.loc 1 488 32 is_stmt 0 view .LVU436
 1942 0000 10402DE9 		push	{r4, lr}
 1943              		.cfi_def_cfa_offset 8
 1944              		.cfi_offset 4, -8
 1945              		.cfi_offset 14, -4
 1946              		.loc 1 488 32 view .LVU437
 1947 0004 0040A0E1 		mov	r4, r0
 1948              		.loc 1 490 3 view .LVU438
 1949 0008 1C009FE5 		ldr	r0, .L95
 1950              	.LVL184:
 1951              		.loc 1 490 3 view .LVU439
 1952 000c FEFFFFEB 		bl	chMtxLock
 1953              	.LVL185:
 1954              		.loc 1 491 3 is_stmt 1 view .LVU440
 1955 0010 18009FE5 		ldr	r0, .L95+4
 1956 0014 FEFFFFEB 		bl	chCondWait
 1957              	.LVL186:
 1958              		.loc 1 492 3 view .LVU441
 1959 0018 0000D4E5 		ldrb	r0, [r4]	@ zero_extendqisi2
 1960 001c FEFFFFEB 		bl	test_emit_token
 1961              	.LVL187:
 1962              		.loc 1 493 3 view .LVU442
 1963 0020 FEFFFFEB 		bl	chMtxUnlock
 1964              	.LVL188:
 1965              		.loc 1 494 3 view .LVU443
 1966              		.loc 1 495 1 is_stmt 0 view .LVU444
 1967 0024 0000A0E3 		mov	r0, #0
 1968 0028 1080BDE8 		pop	{r4, pc}
 1969              	.L96:
 1970              		.align	2
 1971              	.L95:
 1972 002c 00000000 		.word	.LANCHOR0
 1973 0030 00000000 		.word	.LANCHOR2
 1974              		.cfi_endproc
 1975              	.LFE29:
 1976              		.size	thread10, .-thread10
 1977              		.section	.text.mtx6_setup,"ax",%progbits
 1978              		.align	2
 1979              		.syntax unified
 1980              		.arm
 1981              		.fpu softvfp
 1982              		.type	mtx6_setup, %function
 1983              	mtx6_setup:
 1984              	.LFB28:
 1985              		.loc 1 482 30 is_stmt 1 view -0
 1986              		.cfi_startproc
 1987              		@ args = 0, pretend = 0, frame = 0
 1988              		@ frame_needed = 0, uses_anonymous_args = 0
 1989              		.loc 1 484 3 view .LVU446
 1990              		.loc 1 482 30 is_stmt 0 view .LVU447
 1991 0000 10402DE9 		push	{r4, lr}
 1992              		.cfi_def_cfa_offset 8
 1993              		.cfi_offset 4, -8
 1994              		.cfi_offset 14, -4
 1995              		.loc 1 484 3 view .LVU448
ARM GAS  /var/folders/l5/0x54b2c10074c8bt31ycjvl80000gp/T//ccM3yBF2.s 			page 36


 1996 0004 0C009FE5 		ldr	r0, .L99
 1997 0008 FEFFFFEB 		bl	chCondInit
 1998              	.LVL189:
 1999              		.loc 1 485 3 is_stmt 1 view .LVU449
 2000              		.loc 1 486 1 is_stmt 0 view .LVU450
 2001 000c 1040BDE8 		pop	{r4, lr}
 2002              		.cfi_restore 14
 2003              		.cfi_restore 4
 2004              		.cfi_def_cfa_offset 0
 2005              		.loc 1 485 3 view .LVU451
 2006 0010 04009FE5 		ldr	r0, .L99+4
 2007 0014 FEFFFFEA 		b	chMtxInit
 2008              	.LVL190:
 2009              	.L100:
 2010              		.align	2
 2011              	.L99:
 2012 0018 00000000 		.word	.LANCHOR2
 2013 001c 00000000 		.word	.LANCHOR0
 2014              		.cfi_endproc
 2015              	.LFE28:
 2016              		.size	mtx6_setup, .-mtx6_setup
 2017              		.section	.text.mtx7_setup,"ax",%progbits
 2018              		.align	2
 2019              		.syntax unified
 2020              		.arm
 2021              		.fpu softvfp
 2022              		.type	mtx7_setup, %function
 2023              	mtx7_setup:
 2024              	.LFB44:
 2025              		.cfi_startproc
 2026              		@ args = 0, pretend = 0, frame = 0
 2027              		@ frame_needed = 0, uses_anonymous_args = 0
 2028              		@ link register save eliminated.
 2029 0000 FEFFFFEA 		b	mtx6_setup
 2030              		.cfi_endproc
 2031              	.LFE44:
 2032              		.size	mtx7_setup, .-mtx7_setup
 2033              		.section	.text.mtx8_setup,"ax",%progbits
 2034              		.align	2
 2035              		.syntax unified
 2036              		.arm
 2037              		.fpu softvfp
 2038              		.type	mtx8_setup, %function
 2039              	mtx8_setup:
 2040              	.LFB33:
 2041              		.loc 1 569 30 is_stmt 1 view -0
 2042              		.cfi_startproc
 2043              		@ args = 0, pretend = 0, frame = 0
 2044              		@ frame_needed = 0, uses_anonymous_args = 0
 2045              		.loc 1 571 3 view .LVU453
 2046              		.loc 1 569 30 is_stmt 0 view .LVU454
 2047 0000 10402DE9 		push	{r4, lr}
 2048              		.cfi_def_cfa_offset 8
 2049              		.cfi_offset 4, -8
 2050              		.cfi_offset 14, -4
 2051              		.loc 1 571 3 view .LVU455
 2052 0004 14009FE5 		ldr	r0, .L104
ARM GAS  /var/folders/l5/0x54b2c10074c8bt31ycjvl80000gp/T//ccM3yBF2.s 			page 37


 2053 0008 FEFFFFEB 		bl	chCondInit
 2054              	.LVL191:
 2055              		.loc 1 572 3 is_stmt 1 view .LVU456
 2056 000c 10009FE5 		ldr	r0, .L104+4
 2057 0010 FEFFFFEB 		bl	chMtxInit
 2058              	.LVL192:
 2059              		.loc 1 573 3 view .LVU457
 2060              		.loc 1 574 1 is_stmt 0 view .LVU458
 2061 0014 1040BDE8 		pop	{r4, lr}
 2062              		.cfi_restore 14
 2063              		.cfi_restore 4
 2064              		.cfi_def_cfa_offset 0
 2065              		.loc 1 573 3 view .LVU459
 2066 0018 08009FE5 		ldr	r0, .L104+8
 2067 001c FEFFFFEA 		b	chMtxInit
 2068              	.LVL193:
 2069              	.L105:
 2070              		.align	2
 2071              	.L104:
 2072 0020 00000000 		.word	.LANCHOR2
 2073 0024 00000000 		.word	.LANCHOR0
 2074 0028 00000000 		.word	.LANCHOR1
 2075              		.cfi_endproc
 2076              	.LFE33:
 2077              		.size	mtx8_setup, .-mtx8_setup
 2078              		.section	.text.mtx7_execute,"ax",%progbits
 2079              		.align	2
 2080              		.syntax unified
 2081              		.arm
 2082              		.fpu softvfp
 2083              		.type	mtx7_execute, %function
 2084              	mtx7_execute:
 2085              	.LFB32:
 2086              		.loc 1 540 32 is_stmt 1 view -0
 2087              		.cfi_startproc
 2088              		@ args = 0, pretend = 0, frame = 0
 2089              		@ frame_needed = 0, uses_anonymous_args = 0
 2090              		.loc 1 542 3 view .LVU461
 2091              		.loc 1 540 32 is_stmt 0 view .LVU462
 2092 0000 F0402DE9 		push	{r4, r5, r6, r7, lr}
 2093              		.cfi_def_cfa_offset 20
 2094              		.cfi_offset 4, -20
 2095              		.cfi_offset 5, -16
 2096              		.cfi_offset 6, -12
 2097              		.cfi_offset 7, -8
 2098              		.cfi_offset 14, -4
 2099              		.loc 1 542 18 view .LVU463
 2100 0004 D4309FE5 		ldr	r3, .L108
 2101              		.loc 1 543 16 view .LVU464
 2102 0008 D4609FE5 		ldr	r6, .L108+4
 2103              		.loc 1 542 11 view .LVU465
 2104 000c 183093E5 		ldr	r3, [r3, #24]
 2105              		.loc 1 543 16 view .LVU466
 2106 0010 D0509FE5 		ldr	r5, .L108+8
 2107              		.loc 1 542 11 view .LVU467
 2108 0014 087093E5 		ldr	r7, [r3, #8]
 2109              	.LVL194:
ARM GAS  /var/folders/l5/0x54b2c10074c8bt31ycjvl80000gp/T//ccM3yBF2.s 			page 38


 2110              		.loc 1 543 3 is_stmt 1 view .LVU468
 2111              		.loc 1 543 16 is_stmt 0 view .LVU469
 2112 0018 CC109FE5 		ldr	r1, .L108+12
 2113              		.loc 1 540 32 view .LVU470
 2114 001c 0CD04DE2 		sub	sp, sp, #12
 2115              		.cfi_def_cfa_offset 32
 2116              		.loc 1 543 16 view .LVU471
 2117 0020 012087E2 		add	r2, r7, #1
 2118 0024 0630A0E1 		mov	r3, r6
 2119 0028 00108DE5 		str	r1, [sp]
 2120 002c 000095E5 		ldr	r0, [r5]
 2121 0030 461FA0E3 		mov	r1, #280
 2122 0034 FEFFFFEB 		bl	chThdCreateStatic
 2123              	.LVL195:
 2124              		.loc 1 543 14 view .LVU472
 2125 0038 B0409FE5 		ldr	r4, .L108+16
 2126              		.loc 1 544 16 view .LVU473
 2127 003c B0109FE5 		ldr	r1, .L108+20
 2128              		.loc 1 543 14 view .LVU474
 2129 0040 000084E5 		str	r0, [r4]
 2130              		.loc 1 544 3 is_stmt 1 view .LVU475
 2131              		.loc 1 544 16 is_stmt 0 view .LVU476
 2132 0044 022087E2 		add	r2, r7, #2
 2133 0048 0630A0E1 		mov	r3, r6
 2134 004c 00108DE5 		str	r1, [sp]
 2135 0050 040095E5 		ldr	r0, [r5, #4]
 2136 0054 461FA0E3 		mov	r1, #280
 2137 0058 FEFFFFEB 		bl	chThdCreateStatic
 2138              	.LVL196:
 2139              		.loc 1 545 16 view .LVU477
 2140 005c 94109FE5 		ldr	r1, .L108+24
 2141              		.loc 1 544 14 view .LVU478
 2142 0060 040084E5 		str	r0, [r4, #4]
 2143              		.loc 1 545 3 is_stmt 1 view .LVU479
 2144              		.loc 1 545 16 is_stmt 0 view .LVU480
 2145 0064 032087E2 		add	r2, r7, #3
 2146 0068 0630A0E1 		mov	r3, r6
 2147 006c 00108DE5 		str	r1, [sp]
 2148 0070 080095E5 		ldr	r0, [r5, #8]
 2149 0074 461FA0E3 		mov	r1, #280
 2150 0078 FEFFFFEB 		bl	chThdCreateStatic
 2151              	.LVL197:
 2152              		.loc 1 546 16 view .LVU481
 2153 007c 78109FE5 		ldr	r1, .L108+28
 2154              		.loc 1 545 14 view .LVU482
 2155 0080 080084E5 		str	r0, [r4, #8]
 2156              		.loc 1 546 3 is_stmt 1 view .LVU483
 2157              		.loc 1 546 16 is_stmt 0 view .LVU484
 2158 0084 042087E2 		add	r2, r7, #4
 2159 0088 0630A0E1 		mov	r3, r6
 2160 008c 00108DE5 		str	r1, [sp]
 2161 0090 0C0095E5 		ldr	r0, [r5, #12]
 2162 0094 461FA0E3 		mov	r1, #280
 2163 0098 FEFFFFEB 		bl	chThdCreateStatic
 2164              	.LVL198:
 2165              		.loc 1 547 16 view .LVU485
 2166 009c 5C109FE5 		ldr	r1, .L108+32
ARM GAS  /var/folders/l5/0x54b2c10074c8bt31ycjvl80000gp/T//ccM3yBF2.s 			page 39


 2167 00a0 052087E2 		add	r2, r7, #5
 2168 00a4 0630A0E1 		mov	r3, r6
 2169              		.loc 1 546 14 view .LVU486
 2170 00a8 0C0084E5 		str	r0, [r4, #12]
 2171              		.loc 1 547 3 is_stmt 1 view .LVU487
 2172              		.loc 1 547 16 is_stmt 0 view .LVU488
 2173 00ac 00108DE5 		str	r1, [sp]
 2174 00b0 100095E5 		ldr	r0, [r5, #16]
 2175 00b4 461FA0E3 		mov	r1, #280
 2176 00b8 FEFFFFEB 		bl	chThdCreateStatic
 2177              	.LVL199:
 2178              		.loc 1 547 14 view .LVU489
 2179 00bc 100084E5 		str	r0, [r4, #16]
 2180              		.loc 1 548 3 is_stmt 1 view .LVU490
 2181 00c0 3C009FE5 		ldr	r0, .L108+36
 2182 00c4 FEFFFFEB 		bl	chCondBroadcast
 2183              	.LVL200:
 2184              		.loc 1 549 3 view .LVU491
 2185 00c8 FEFFFFEB 		bl	test_wait_threads
 2186              	.LVL201:
 2187              		.loc 1 550 3 view .LVU492
 2188 00cc 0100A0E3 		mov	r0, #1
 2189 00d0 30109FE5 		ldr	r1, .L108+40
 2190              		.loc 1 551 1 is_stmt 0 view .LVU493
 2191 00d4 0CD08DE2 		add	sp, sp, #12
 2192              		.cfi_def_cfa_offset 20
 2193              		@ sp needed
 2194 00d8 F040BDE8 		pop	{r4, r5, r6, r7, lr}
 2195              		.cfi_restore 14
 2196              		.cfi_restore 7
 2197              		.cfi_restore 6
 2198              		.cfi_restore 5
 2199              		.cfi_restore 4
 2200              		.cfi_def_cfa_offset 0
 2201              	.LVL202:
 2202              		.loc 1 550 3 view .LVU494
 2203 00dc FEFFFFEA 		b	_test_assert_sequence
 2204              	.LVL203:
 2205              	.L109:
 2206              		.align	2
 2207              	.L108:
 2208 00e0 00000000 		.word	rlist
 2209 00e4 00000000 		.word	thread10
 2210 00e8 00000000 		.word	wa
 2211 00ec 00000000 		.word	.LC0
 2212 00f0 00000000 		.word	threads
 2213 00f4 04000000 		.word	.LC1
 2214 00f8 08000000 		.word	.LC2
 2215 00fc 0C000000 		.word	.LC3
 2216 0100 10000000 		.word	.LC4
 2217 0104 00000000 		.word	.LANCHOR2
 2218 0108 14000000 		.word	.LC5
 2219              		.cfi_endproc
 2220              	.LFE32:
 2221              		.size	mtx7_execute, .-mtx7_execute
 2222              		.section	.text.mtx8_execute,"ax",%progbits
 2223              		.align	2
ARM GAS  /var/folders/l5/0x54b2c10074c8bt31ycjvl80000gp/T//ccM3yBF2.s 			page 40


 2224              		.syntax unified
 2225              		.arm
 2226              		.fpu softvfp
 2227              		.type	mtx8_execute, %function
 2228              	mtx8_execute:
 2229              	.LFB36:
 2230              		.loc 1 599 32 is_stmt 1 view -0
 2231              		.cfi_startproc
 2232              		@ args = 0, pretend = 0, frame = 0
 2233              		@ frame_needed = 0, uses_anonymous_args = 0
 2234              		.loc 1 601 3 view .LVU496
 2235              		.loc 1 599 32 is_stmt 0 view .LVU497
 2236 0000 70402DE9 		push	{r4, r5, r6, lr}
 2237              		.cfi_def_cfa_offset 16
 2238              		.cfi_offset 4, -16
 2239              		.cfi_offset 5, -12
 2240              		.cfi_offset 6, -8
 2241              		.cfi_offset 14, -4
 2242              		.loc 1 601 18 view .LVU498
 2243 0004 9C309FE5 		ldr	r3, .L112
 2244              		.loc 1 602 16 view .LVU499
 2245 0008 9C509FE5 		ldr	r5, .L112+4
 2246              		.loc 1 601 11 view .LVU500
 2247 000c 182093E5 		ldr	r2, [r3, #24]
 2248              		.loc 1 602 16 view .LVU501
 2249 0010 98309FE5 		ldr	r3, .L112+8
 2250              		.loc 1 601 11 view .LVU502
 2251 0014 086092E5 		ldr	r6, [r2, #8]
 2252              	.LVL204:
 2253              		.loc 1 602 3 is_stmt 1 view .LVU503
 2254              		.loc 1 599 32 is_stmt 0 view .LVU504
 2255 0018 08D04DE2 		sub	sp, sp, #8
 2256              		.cfi_def_cfa_offset 24
 2257              		.loc 1 602 16 view .LVU505
 2258 001c 012086E2 		add	r2, r6, #1
 2259 0020 00308DE5 		str	r3, [sp]
 2260 0024 000095E5 		ldr	r0, [r5]
 2261 0028 84309FE5 		ldr	r3, .L112+12
 2262 002c 461FA0E3 		mov	r1, #280
 2263 0030 FEFFFFEB 		bl	chThdCreateStatic
 2264              	.LVL205:
 2265              		.loc 1 602 14 view .LVU506
 2266 0034 7C409FE5 		ldr	r4, .L112+16
 2267              		.loc 1 603 16 view .LVU507
 2268 0038 7C309FE5 		ldr	r3, .L112+20
 2269              		.loc 1 602 14 view .LVU508
 2270 003c 000084E5 		str	r0, [r4]
 2271              		.loc 1 603 3 is_stmt 1 view .LVU509
 2272              		.loc 1 603 16 is_stmt 0 view .LVU510
 2273 0040 022086E2 		add	r2, r6, #2
 2274 0044 00308DE5 		str	r3, [sp]
 2275 0048 040095E5 		ldr	r0, [r5, #4]
 2276 004c 6C309FE5 		ldr	r3, .L112+24
 2277 0050 461FA0E3 		mov	r1, #280
 2278 0054 FEFFFFEB 		bl	chThdCreateStatic
 2279              	.LVL206:
 2280              		.loc 1 604 16 view .LVU511
ARM GAS  /var/folders/l5/0x54b2c10074c8bt31ycjvl80000gp/T//ccM3yBF2.s 			page 41


 2281 0058 64309FE5 		ldr	r3, .L112+28
 2282 005c 032086E2 		add	r2, r6, #3
 2283 0060 461FA0E3 		mov	r1, #280
 2284              		.loc 1 603 14 view .LVU512
 2285 0064 040084E5 		str	r0, [r4, #4]
 2286              		.loc 1 604 3 is_stmt 1 view .LVU513
 2287              		.loc 1 604 16 is_stmt 0 view .LVU514
 2288 0068 00308DE5 		str	r3, [sp]
 2289 006c 080095E5 		ldr	r0, [r5, #8]
 2290 0070 50309FE5 		ldr	r3, .L112+32
 2291 0074 FEFFFFEB 		bl	chThdCreateStatic
 2292              	.LVL207:
 2293              		.loc 1 605 3 view .LVU515
 2294 0078 4C509FE5 		ldr	r5, .L112+36
 2295              		.loc 1 604 14 view .LVU516
 2296 007c 080084E5 		str	r0, [r4, #8]
 2297              		.loc 1 605 3 is_stmt 1 view .LVU517
 2298 0080 0500A0E1 		mov	r0, r5
 2299 0084 FEFFFFEB 		bl	chCondSignal
 2300              	.LVL208:
 2301              		.loc 1 606 3 view .LVU518
 2302 0088 0500A0E1 		mov	r0, r5
 2303 008c FEFFFFEB 		bl	chCondSignal
 2304              	.LVL209:
 2305              		.loc 1 607 3 view .LVU519
 2306 0090 FEFFFFEB 		bl	test_wait_threads
 2307              	.LVL210:
 2308              		.loc 1 608 3 view .LVU520
 2309 0094 0100A0E3 		mov	r0, #1
 2310 0098 30109FE5 		ldr	r1, .L112+40
 2311              		.loc 1 609 1 is_stmt 0 view .LVU521
 2312 009c 08D08DE2 		add	sp, sp, #8
 2313              		.cfi_def_cfa_offset 16
 2314              		@ sp needed
 2315 00a0 7040BDE8 		pop	{r4, r5, r6, lr}
 2316              		.cfi_restore 14
 2317              		.cfi_restore 6
 2318              		.cfi_restore 5
 2319              		.cfi_restore 4
 2320              		.cfi_def_cfa_offset 0
 2321              	.LVL211:
 2322              		.loc 1 608 3 view .LVU522
 2323 00a4 FEFFFFEA 		b	_test_assert_sequence
 2324              	.LVL212:
 2325              	.L113:
 2326              		.align	2
 2327              	.L112:
 2328 00a8 00000000 		.word	rlist
 2329 00ac 00000000 		.word	wa
 2330 00b0 10000000 		.word	.LC4
 2331 00b4 00000000 		.word	thread11
 2332 00b8 00000000 		.word	threads
 2333 00bc 08000000 		.word	.LC2
 2334 00c0 00000000 		.word	thread10
 2335 00c4 0C000000 		.word	.LC3
 2336 00c8 00000000 		.word	thread12
 2337 00cc 00000000 		.word	.LANCHOR2
ARM GAS  /var/folders/l5/0x54b2c10074c8bt31ycjvl80000gp/T//ccM3yBF2.s 			page 42


 2338 00d0 00000000 		.word	.LC6
 2339              		.cfi_endproc
 2340              	.LFE36:
 2341              		.size	mtx8_execute, .-mtx8_execute
 2342              		.section	.text.thread11,"ax",%progbits
 2343              		.align	2
 2344              		.syntax unified
 2345              		.arm
 2346              		.fpu softvfp
 2347              		.type	thread11, %function
 2348              	thread11:
 2349              	.LVL213:
 2350              	.LFB34:
 2351              		.loc 1 576 32 is_stmt 1 view -0
 2352              		.cfi_startproc
 2353              		@ args = 0, pretend = 0, frame = 0
 2354              		@ frame_needed = 0, uses_anonymous_args = 0
 2355              		.loc 1 578 3 view .LVU524
 2356              		.loc 1 576 32 is_stmt 0 view .LVU525
 2357 0000 10402DE9 		push	{r4, lr}
 2358              		.cfi_def_cfa_offset 8
 2359              		.cfi_offset 4, -8
 2360              		.cfi_offset 14, -4
 2361              		.loc 1 576 32 view .LVU526
 2362 0004 0040A0E1 		mov	r4, r0
 2363              		.loc 1 578 3 view .LVU527
 2364 0008 2C009FE5 		ldr	r0, .L116
 2365              	.LVL214:
 2366              		.loc 1 578 3 view .LVU528
 2367 000c FEFFFFEB 		bl	chMtxLock
 2368              	.LVL215:
 2369              		.loc 1 579 3 is_stmt 1 view .LVU529
 2370 0010 28009FE5 		ldr	r0, .L116+4
 2371 0014 FEFFFFEB 		bl	chMtxLock
 2372              	.LVL216:
 2373              		.loc 1 581 3 view .LVU530
 2374 0018 0010E0E3 		mvn	r1, #0
 2375 001c 20009FE5 		ldr	r0, .L116+8
 2376 0020 FEFFFFEB 		bl	chCondWaitTimeout
 2377              	.LVL217:
 2378              		.loc 1 585 3 view .LVU531
 2379 0024 0000D4E5 		ldrb	r0, [r4]	@ zero_extendqisi2
 2380 0028 FEFFFFEB 		bl	test_emit_token
 2381              	.LVL218:
 2382              		.loc 1 586 3 view .LVU532
 2383 002c FEFFFFEB 		bl	chMtxUnlock
 2384              	.LVL219:
 2385              		.loc 1 587 3 view .LVU533
 2386 0030 FEFFFFEB 		bl	chMtxUnlock
 2387              	.LVL220:
 2388              		.loc 1 588 3 view .LVU534
 2389              		.loc 1 589 1 is_stmt 0 view .LVU535
 2390 0034 0000A0E3 		mov	r0, #0
 2391 0038 1080BDE8 		pop	{r4, pc}
 2392              	.L117:
 2393              		.align	2
 2394              	.L116:
ARM GAS  /var/folders/l5/0x54b2c10074c8bt31ycjvl80000gp/T//ccM3yBF2.s 			page 43


 2395 003c 00000000 		.word	.LANCHOR1
 2396 0040 00000000 		.word	.LANCHOR0
 2397 0044 00000000 		.word	.LANCHOR2
 2398              		.cfi_endproc
 2399              	.LFE34:
 2400              		.size	thread11, .-thread11
 2401              		.global	patternmtx
 2402              		.global	testmtx8
 2403              		.global	testmtx7
 2404              		.global	testmtx6
 2405              		.global	testmtx5
 2406              		.global	testmtx4
 2407              		.global	testmtx3
 2408              		.global	testmtx2
 2409              		.global	testmtx1
 2410              		.section	.data.c1,"aw"
 2411              		.align	2
 2412              		.set	.LANCHOR2,. + 0
 2413              		.type	c1, %object
 2414              		.size	c1, 8
 2415              	c1:
 2416 0000 00000000 		.word	c1
 2417 0004 00000000 		.word	c1
 2418              		.section	.data.m1,"aw"
 2419              		.align	2
 2420              		.set	.LANCHOR0,. + 0
 2421              		.type	m1, %object
 2422              		.size	m1, 16
 2423              	m1:
 2424 0000 00000000 		.word	m1
 2425 0004 00000000 		.word	m1
 2426 0008 00000000 		.word	0
 2427 000c 00000000 		.word	0
 2428              		.section	.data.m2,"aw"
 2429              		.align	2
 2430              		.set	.LANCHOR1,. + 0
 2431              		.type	m2, %object
 2432              		.size	m2, 16
 2433              	m2:
 2434 0000 00000000 		.word	m2
 2435 0004 00000000 		.word	m2
 2436 0008 00000000 		.word	0
 2437 000c 00000000 		.word	0
 2438              		.section	.rodata.mtx1_execute.str1.4,"aMS",%progbits,1
 2439              		.align	2
 2440              	.LC0:
 2441 0000 4500     		.ascii	"E\000"
 2442 0002 0000     		.space	2
 2443              	.LC1:
 2444 0004 4400     		.ascii	"D\000"
 2445 0006 0000     		.space	2
 2446              	.LC2:
 2447 0008 4300     		.ascii	"C\000"
 2448 000a 0000     		.space	2
 2449              	.LC3:
 2450 000c 4200     		.ascii	"B\000"
 2451 000e 0000     		.space	2
ARM GAS  /var/folders/l5/0x54b2c10074c8bt31ycjvl80000gp/T//ccM3yBF2.s 			page 44


 2452              	.LC4:
 2453 0010 4100     		.ascii	"A\000"
 2454 0012 0000     		.space	2
 2455              	.LC5:
 2456 0014 41424344 		.ascii	"ABCDE\000"
 2456      4500
 2457              		.section	.rodata.mtx2_execute.str1.4,"aMS",%progbits,1
 2458              		.align	2
 2459              	.LC6:
 2460 0000 41424300 		.ascii	"ABC\000"
 2461              		.section	.rodata.patternmtx,"a"
 2462              		.align	2
 2463              		.type	patternmtx, %object
 2464              		.size	patternmtx, 36
 2465              	patternmtx:
 2466 0000 00000000 		.word	testmtx1
 2467 0004 00000000 		.word	testmtx2
 2468 0008 00000000 		.word	testmtx3
 2469 000c 00000000 		.word	testmtx4
 2470 0010 00000000 		.word	testmtx5
 2471 0014 00000000 		.word	testmtx6
 2472 0018 00000000 		.word	testmtx7
 2473 001c 00000000 		.word	testmtx8
 2474 0020 00000000 		.word	0
 2475              		.section	.rodata.str1.4,"aMS",%progbits,1
 2476              		.align	2
 2477              	.LC7:
 2478 0000 436F6E64 		.ascii	"CondVar, boost test\000"
 2478      5661722C 
 2478      20626F6F 
 2478      73742074 
 2478      65737400 
 2479              	.LC8:
 2480 0014 436F6E64 		.ascii	"CondVar, broadcast test\000"
 2480      5661722C 
 2480      2062726F 
 2480      61646361 
 2480      73742074 
 2481              	.LC9:
 2482 002c 436F6E64 		.ascii	"CondVar, signal test\000"
 2482      5661722C 
 2482      20736967 
 2482      6E616C20 
 2482      74657374 
 2483 0041 000000   		.space	3
 2484              	.LC10:
 2485 0044 4D757465 		.ascii	"Mutexes, status\000"
 2485      7865732C 
 2485      20737461 
 2485      74757300 
 2486              	.LC11:
 2487 0054 4D757465 		.ascii	"Mutexes, priority return\000"
 2487      7865732C 
 2487      20707269 
 2487      6F726974 
 2487      79207265 
 2488 006d 000000   		.space	3
ARM GAS  /var/folders/l5/0x54b2c10074c8bt31ycjvl80000gp/T//ccM3yBF2.s 			page 45


 2489              	.LC12:
 2490 0070 4D757465 		.ascii	"Mutexes, priority inheritance, complex case\000"
 2490      7865732C 
 2490      20707269 
 2490      6F726974 
 2490      7920696E 
 2491              	.LC13:
 2492 009c 4D757465 		.ascii	"Mutexes, priority inheritance, simple case\000"
 2492      7865732C 
 2492      20707269 
 2492      6F726974 
 2492      7920696E 
 2493 00c7 00       		.space	1
 2494              	.LC14:
 2495 00c8 4D757465 		.ascii	"Mutexes, priority enqueuing test\000"
 2495      7865732C 
 2495      20707269 
 2495      6F726974 
 2495      7920656E 
 2496              		.section	.rodata.testmtx1,"a"
 2497              		.align	2
 2498              		.type	testmtx1, %object
 2499              		.size	testmtx1, 16
 2500              	testmtx1:
 2501 0000 C8000000 		.word	.LC14
 2502 0004 00000000 		.word	mtx1_setup
 2503 0008 00000000 		.word	0
 2504 000c 00000000 		.word	mtx1_execute
 2505              		.section	.rodata.testmtx2,"a"
 2506              		.align	2
 2507              		.type	testmtx2, %object
 2508              		.size	testmtx2, 16
 2509              	testmtx2:
 2510 0000 9C000000 		.word	.LC13
 2511 0004 00000000 		.word	mtx2_setup
 2512 0008 00000000 		.word	0
 2513 000c 00000000 		.word	mtx2_execute
 2514              		.section	.rodata.testmtx3,"a"
 2515              		.align	2
 2516              		.type	testmtx3, %object
 2517              		.size	testmtx3, 16
 2518              	testmtx3:
 2519 0000 70000000 		.word	.LC12
 2520 0004 00000000 		.word	mtx3_setup
 2521 0008 00000000 		.word	0
 2522 000c 00000000 		.word	mtx3_execute
 2523              		.section	.rodata.testmtx4,"a"
 2524              		.align	2
 2525              		.type	testmtx4, %object
 2526              		.size	testmtx4, 16
 2527              	testmtx4:
 2528 0000 54000000 		.word	.LC11
 2529 0004 00000000 		.word	mtx4_setup
 2530 0008 00000000 		.word	0
 2531 000c 00000000 		.word	mtx4_execute
 2532              		.section	.rodata.testmtx5,"a"
 2533              		.align	2
ARM GAS  /var/folders/l5/0x54b2c10074c8bt31ycjvl80000gp/T//ccM3yBF2.s 			page 46


 2534              		.type	testmtx5, %object
 2535              		.size	testmtx5, 16
 2536              	testmtx5:
 2537 0000 44000000 		.word	.LC10
 2538 0004 00000000 		.word	mtx5_setup
 2539 0008 00000000 		.word	0
 2540 000c 00000000 		.word	mtx5_execute
 2541              		.section	.rodata.testmtx6,"a"
 2542              		.align	2
 2543              		.type	testmtx6, %object
 2544              		.size	testmtx6, 16
 2545              	testmtx6:
 2546 0000 2C000000 		.word	.LC9
 2547 0004 00000000 		.word	mtx6_setup
 2548 0008 00000000 		.word	0
 2549 000c 00000000 		.word	mtx6_execute
 2550              		.section	.rodata.testmtx7,"a"
 2551              		.align	2
 2552              		.type	testmtx7, %object
 2553              		.size	testmtx7, 16
 2554              	testmtx7:
 2555 0000 14000000 		.word	.LC8
 2556 0004 00000000 		.word	mtx7_setup
 2557 0008 00000000 		.word	0
 2558 000c 00000000 		.word	mtx7_execute
 2559              		.section	.rodata.testmtx8,"a"
 2560              		.align	2
 2561              		.type	testmtx8, %object
 2562              		.size	testmtx8, 16
 2563              	testmtx8:
 2564 0000 00000000 		.word	.LC7
 2565 0004 00000000 		.word	mtx8_setup
 2566 0008 00000000 		.word	0
 2567 000c 00000000 		.word	mtx8_execute
 2568              		.text
 2569              	.Letext0:
 2570              		.file 2 "/usr/local/Cellar/arm-gcc-bin/8-2019-q3-update/arm-none-eabi/include/machine/_default_typ
 2571              		.file 3 "/usr/local/Cellar/arm-gcc-bin/8-2019-q3-update/arm-none-eabi/include/sys/_stdint.h"
 2572              		.file 4 "../../os/ports/GCC/ARM/chtypes.h"
 2573              		.file 5 "../../os/kernel/include/chlists.h"
 2574              		.file 6 "../../os/kernel/include/chthreads.h"
 2575              		.file 7 "../../os/ports/GCC/ARM/chcore.h"
 2576              		.file 8 "../../os/kernel/include/chvt.h"
 2577              		.file 9 "../../os/kernel/include/chschd.h"
 2578              		.file 10 "../../os/kernel/include/chmtx.h"
 2579              		.file 11 "../../os/kernel/include/chcond.h"
 2580              		.file 12 "../../os/kernel/include/chregistry.h"
 2581              		.file 13 "../../os/kernel/include/ch.h"
 2582              		.file 14 "../../test/test.h"